(isrc.gp1.models.Player
Player
p0
(dp1
S'_experience'
p2
S'NA'
p3
sS'_totals'
p4
(lp5
(isrc.gp1.models.Totals
Totals
p6
(dp7
S'_offensiveRebounds'
p8
S'171'
p9
sS'_threePointsAttempted'
p10
S'1'
p11
sS'_fieldGoalsPercentage'
p12
S'.500'
p13
sS'_assist'
p14
S'80'
p15
sS'_threePointsPercentage'
p16
S'.000'
p17
sS'_threePoints'
p18
S'0'
p19
sS'_points'
p20
S'542'
p21
sS'_position'
p22
S'PF'
p23
sS'_freeThrowsPercentage'
p24
S'.700'
p25
sS'_effectiveFieldGoalPercentage'
p26
S'.500'
p27
sS'_league'
p28
S'NBA'
p29
sS'_steals'
p30
S'57'
p31
sS'_fieldGoalsAttempted'
p32
S'376'
p33
sS'_personalFouls'
p34
S'195'
p35
sS'_freeThrowsAttempted'
p36
S'237'
p37
sS'_totalRebounds'
p38
S'432'
p39
sS'_age'
p40
S'22'
p41
sS'_team'
p42
S'ATL'
p43
sS'_games'
p44
S'82'
p45
sS'_blocks'
p46
S'16'
p47
sS'_twoPoints'
p48
S'188'
p49
sS'_freeThrows'
p50
S'166'
p51
sS'_twoPointsAttempted'
p52
S'375'
p53
sS'_defensiveRebounds'
p54
S'261'
p55
sS'_season'
p56
S'1992-93'
p57
sS'_fieldGoals'
p58
S'188'
p59
sS'_turnOvers'
p60
S'100'
p61
sS'_twoPointsPercentage'
p62
S'.501'
p63
sS'_minutesPlayed'
p64
S'1549'
p65
sS'_gamesStarted'
p66
S'6'
p67
sba(isrc.gp1.models.Totals
Totals
p68
(dp69
g8
S'124'
p70
sg10
g19
sg12
S'.451'
p71
sg14
S'20'
p72
sg16
S'96'
p73
sg18
g19
sg20
g3
sg22
S'PF'
p74
sg24
S'77'
p75
sg26
S'81'
p76
sg28
S'NBA'
p77
sg30
S'9'
p78
sg32
S'213'
p79
sg34
S'273'
p80
sg36
S'.730'
p81
sg38
S'34'
p82
sg40
S'23'
p83
sg42
S'ATL'
p84
sg44
S'63'
p85
sg46
S'60'
p86
sg48
S'213'
p87
sg50
S'111'
p88
sg52
S'.451'
p89
sg54
S'201'
p90
sg56
S'1993-94'
p91
sg58
S'96'
p92
sg60
S'80'
p93
sg62
S'.451'
p94
sg64
S'763'
p95
sg66
g11
sba(isrc.gp1.models.Totals
Totals
p96
(dp97
g8
S'192'
p98
sg10
g19
sg12
S'.577'
p99
sg14
S'36'
p100
sg16
S'172'
p101
sg18
g19
sg20
g3
sg22
S'SF'
p102
sg24
S'135'
p103
sg26
S'117'
p104
sg28
S'NBA'
p105
sg30
S'25'
p106
sg32
S'298'
p107
sg34
S'461'
p108
sg36
S'.676'
p109
sg38
S'30'
p110
sg40
S'24'
p111
sg42
S'UTA'
p112
sg44
S'75'
p113
sg46
S'62'
p114
sg48
S'298'
p115
sg50
S'173'
p116
sg52
S'.577'
p117
sg54
S'327'
p118
sg56
S'1994-95'
p119
sg58
S'172'
p120
sg60
S'141'
p121
sg62
S'.577'
p122
sg64
S'1270'
p123
sg66
g19
sba(isrc.gp1.models.Totals
Totals
p124
(dp125
g8
S'176'
p126
sg10
S'4'
p127
sg12
S'.520'
p128
sg14
S'64'
p129
sg16
S'.000'
p130
sg18
g19
sg20
S'499'
p131
sg22
S'PF'
p132
sg24
S'.692'
p133
sg26
S'.520'
p134
sg28
S'NBA'
p135
sg30
S'51'
p136
sg32
S'346'
p137
sg34
S'174'
p138
sg36
S'201'
p139
sg38
S'455'
p140
sg40
S'25'
p141
sg42
S'UTA'
p142
sg44
S'82'
p143
sg46
S'41'
p144
sg48
S'180'
p145
sg50
S'139'
p146
sg52
S'342'
p147
sg54
S'279'
p148
sg56
S'1995-96'
p149
sg58
S'180'
p150
sg60
S'88'
p151
sg62
S'.526'
p152
sg64
S'1708'
p153
sg66
g19
sba(isrc.gp1.models.Totals
Totals
p154
(dp155
g8
S'75'
p156
sg10
g11
sg12
S'.513'
p157
sg14
S'32'
p158
sg16
S'.000'
p159
sg18
g19
sg20
S'235'
p160
sg22
S'C'
p161
sg24
S'.689'
p162
sg26
S'.513'
p163
sg28
S'NBA'
p164
sg30
S'30'
p165
sg32
S'160'
p166
sg34
S'97'
p167
sg36
S'103'
p168
sg38
S'216'
p169
sg40
S'26'
p170
sg42
S'UTA'
p171
sg44
S'62'
p172
sg46
S'13'
p173
sg48
S'82'
p174
sg50
S'71'
p175
sg52
S'159'
p176
sg54
S'141'
p177
sg56
S'1996-97'
p178
sg58
S'82'
p179
sg60
S'45'
p180
sg62
S'.516'
p181
sg64
S'915'
p182
sg66
g19
sba(isrc.gp1.models.Totals
Totals
p183
(dp184
g8
S'259'
p185
sg10
g19
sg12
S'.540'
p186
sg14
S'52'
p187
sg16
S'229'
p188
sg18
g19
sg20
g3
sg22
g161
sg24
S'179'
p189
sg26
S'162'
p190
sg28
S'NBA'
p191
sg30
S'24'
p192
sg32
S'424'
p193
sg34
S'620'
p194
sg36
S'.810'
p195
sg38
S'89'
p196
sg40
S'27'
p197
sg42
S'UTA'
p198
sg44
S'80'
p199
sg46
S'71'
p200
sg48
S'424'
p201
sg50
S'200'
p202
sg52
S'.540'
p203
sg54
S'438'
p204
sg56
S'1997-98'
p205
sg58
S'229'
p206
sg60
S'172'
p207
sg62
S'.540'
p208
sg64
S'2047'
p209
sg66
S'75'
p210
sba(isrc.gp1.models.Totals
Totals
p211
(dp212
g8
S'51'
p213
sg10
g127
sg12
S'.452'
p214
sg14
S'28'
p215
sg16
S'.000'
p216
sg18
g19
sg20
S'174'
p217
sg22
S'PF'
p218
sg24
S'.697'
p219
sg26
S'.452'
p220
sg28
S'NBA'
p221
sg30
S'16'
p222
sg32
S'124'
p223
sg34
S'63'
p224
sg36
S'89'
p225
sg38
S'142'
p226
sg40
S'28'
p227
sg42
S'UTA'
p228
sg44
S'44'
p229
sg46
S'12'
p230
sg48
S'56'
p231
sg50
S'62'
p232
sg52
S'120'
p233
sg54
S'91'
p234
sg56
S'1998-99'
p235
sg58
S'56'
p236
sg60
S'33'
p237
sg62
S'.467'
p238
sg64
S'642'
p239
sg66
g19
sba(isrc.gp1.models.Totals
Totals
p240
(dp241
g8
S'45'
p242
sg10
g11
sg12
S'.408'
p243
sg14
S'34'
p244
sg16
S'.000'
p245
sg18
g19
sg20
S'135'
p246
sg22
g161
sg24
S'.806'
p247
sg26
S'.408'
p248
sg28
S'NBA'
p249
sg30
S'17'
p250
sg32
S'130'
p251
sg34
S'90'
p252
sg36
S'36'
p253
sg38
S'136'
p254
sg40
S'29'
p255
sg42
S'UTA'
p256
sg44
S'62'
p257
sg46
S'13'
p258
sg48
S'53'
p259
sg50
S'29'
p260
sg52
S'129'
p261
sg54
S'91'
p262
sg56
S'1999-00'
p263
sg58
S'53'
p264
sg60
S'46'
p265
sg62
S'.411'
p266
sg64
S'604'
p267
sg66
S'3'
p268
sba(isrc.gp1.models.Totals
Totals
p269
(dp270
g8
S'90'
p271
sg10
g268
sg12
S'.403'
p272
sg14
S'36'
p273
sg16
S'.333'
p274
sg18
g11
sg20
S'168'
p275
sg22
S'PF'
p276
sg24
S'.619'
p277
sg26
S'.406'
p278
sg28
S'NBA'
p279
sg30
S'28'
p280
sg32
S'159'
p281
sg34
S'102'
p282
sg36
S'63'
p283
sg38
S'209'
p284
sg40
S'30'
p285
sg42
S'GSW'
p286
sg44
S'67'
p287
sg46
S'20'
p288
sg48
S'63'
p289
sg50
S'39'
p290
sg52
S'156'
p291
sg54
S'119'
p292
sg56
S'2000-01'
p293
sg58
S'64'
p294
sg60
S'40'
p295
sg62
S'.404'
p296
sg64
S'836'
p297
sg66
S'13'
p298
sbasS'_college'
p299
S'Stanford University'
p300
sS'_toYear'
p301
S'2001'
p302
sS'_height'
p303
S'6-9'
p304
sS'_active'
p305
I00
sS'_shootingHand'
p306
VRight
p307
sS'_name'
p308
S'Adam Keefe'
p309
sS'_per100Possessions'
p310
(lp311
(isrc.gp1.models.Per100Possession
Per100Possession
p312
(dp313
g8
S'5.4'
p314
sg10
S'0.0'
p315
sg12
S'.500'
p316
sS'_offensiveRating'
p317
S'112'
p318
sg14
S'2.5'
p319
sg16
S'.000'
p320
sg18
S'0.0'
p321
sg20
S'17.2'
p322
sg22
S'PF'
p323
sS'_defensiveRating'
p324
S'109'
p325
sg24
S'.700'
p326
sg28
S'NBA'
p327
sg30
S'1.8'
p328
sg32
S'11.9'
p329
sg34
S'6.2'
p330
sg36
S'7.5'
p331
sg38
S'13.7'
p332
sg40
S'22'
p333
sg42
S'ATL'
p334
sg44
S'82'
p335
sg46
S'0.5'
p336
sg48
S'6.0'
p337
sg50
S'5.3'
p338
sg52
S'11.9'
p339
sg54
S'8.3'
p340
sg56
S'1992-93'
p341
sg58
S'6.0'
p342
sg60
S'3.2'
p343
sg62
S'.501'
p344
sg64
S'1549'
p345
sg66
g67
sba(isrc.gp1.models.Per100Possession
Per100Possession
p346
(dp347
g8
S'8.3'
p348
sg10
S'0.0'
p349
sg12
S'.451'
p350
sg317
S'103'
p351
sg14
S'1.3'
p352
sg16
S'6.4'
p353
sg18
S'0.0'
p354
sg20
S'101'
p355
sg22
S'PF'
p356
sg324
g3
sg24
S'5.1'
p357
sg28
S'NBA'
p358
sg30
S'0.6'
p359
sg32
S'14.2'
p360
sg34
S'18.2'
p361
sg36
S'.730'
p362
sg38
S'2.3'
p363
sg40
S'23'
p364
sg42
S'ATL'
p365
sg44
S'63'
p366
sg46
S'4.0'
p367
sg48
S'14.2'
p368
sg50
S'7.4'
p369
sg52
S'.451'
p370
sg54
S'13.4'
p371
sg56
S'1993-94'
p372
sg58
S'6.4'
p373
sg60
S'5.3'
p374
sg62
S'5.4'
p375
sg64
S'763'
p376
sg66
g11
sba(isrc.gp1.models.Per100Possession
Per100Possession
p377
(dp378
g8
S'7.8'
p379
sg10
S'0.0'
p380
sg12
S'.577'
p381
sg317
S'106'
p382
sg14
S'1.5'
p383
sg16
S'7.0'
p384
sg18
S'0.0'
p385
sg20
S'120'
p386
sg22
S'SF'
p387
sg324
g3
sg24
S'5.5'
p388
sg28
S'NBA'
p389
sg30
S'1.0'
p390
sg32
S'12.2'
p391
sg34
S'18.8'
p392
sg36
S'.676'
p393
sg38
S'1.2'
p394
sg40
S'24'
p395
sg42
S'UTA'
p396
sg44
S'75'
p397
sg46
S'2.5'
p398
sg48
S'12.2'
p399
sg50
S'7.1'
p400
sg52
S'.577'
p401
sg54
S'13.3'
p402
sg56
S'1994-95'
p403
sg58
S'7.0'
p404
sg60
S'5.8'
p405
sg62
S'4.8'
p406
sg64
S'1270'
p407
sg66
g19
sba(isrc.gp1.models.Per100Possession
Per100Possession
p408
(dp409
g8
S'5.5'
p410
sg10
S'0.1'
p411
sg12
S'.520'
p412
sg317
S'114'
p413
sg14
S'2.0'
p414
sg16
S'.000'
p415
sg18
S'0.0'
p416
sg20
S'15.6'
p417
sg22
S'PF'
p418
sg324
S'105'
p419
sg24
S'.692'
p420
sg28
S'NBA'
p421
sg30
S'1.6'
p422
sg32
S'10.8'
p423
sg34
S'5.4'
p424
sg36
S'6.3'
p425
sg38
S'14.2'
p426
sg40
S'25'
p427
sg42
S'UTA'
p428
sg44
S'82'
p429
sg46
S'1.3'
p430
sg48
S'5.6'
p431
sg50
S'4.3'
p432
sg52
S'10.7'
p433
sg54
S'8.7'
p434
sg56
S'1995-96'
p435
sg58
S'5.6'
p436
sg60
S'2.7'
p437
sg62
S'.526'
p438
sg64
S'1708'
p439
sg66
g19
sba(isrc.gp1.models.Per100Possession
Per100Possession
p440
(dp441
g8
S'4.4'
p442
sg10
S'0.1'
p443
sg12
S'.513'
p444
sg317
S'111'
p445
sg14
S'1.9'
p446
sg16
S'.000'
p447
sg18
S'0.0'
p448
sg20
S'13.7'
p449
sg22
g161
sg324
S'104'
p450
sg24
S'.689'
p451
sg28
S'NBA'
p452
sg30
S'1.7'
p453
sg32
S'9.3'
p454
sg34
S'5.7'
p455
sg36
S'6.0'
p456
sg38
S'12.6'
p457
sg40
S'26'
p458
sg42
S'UTA'
p459
sg44
S'62'
p460
sg46
S'0.8'
p461
sg48
S'4.8'
p462
sg50
S'4.1'
p463
sg52
S'9.3'
p464
sg54
S'8.2'
p465
sg56
S'1996-97'
p466
sg58
S'4.8'
p467
sg60
S'2.6'
p468
sg62
S'.516'
p469
sg64
S'915'
p470
sg66
g19
sba(isrc.gp1.models.Per100Possession
Per100Possession
p471
(dp472
g8
S'6.8'
p473
sg10
S'0.0'
p474
sg12
S'.540'
p475
sg317
S'107'
p476
sg14
S'1.4'
p477
sg16
S'6.0'
p478
sg18
S'0.0'
p479
sg20
S'125'
p480
sg22
g161
sg324
g3
sg24
S'4.7'
p481
sg28
S'NBA'
p482
sg30
S'0.6'
p483
sg32
S'11.2'
p484
sg34
S'16.3'
p485
sg36
S'.810'
p486
sg38
S'2.3'
p487
sg40
S'27'
p488
sg42
S'UTA'
p489
sg44
S'80'
p490
sg46
S'1.9'
p491
sg48
S'11.2'
p492
sg50
S'5.3'
p493
sg52
S'.540'
p494
sg54
S'11.5'
p495
sg56
S'1997-98'
p496
sg58
S'6.0'
p497
sg60
S'4.5'
p498
sg62
S'4.3'
p499
sg64
S'2047'
p500
sg66
S'75'
p501
sba(isrc.gp1.models.Per100Possession
Per100Possession
p502
(dp503
g8
S'4.4'
p504
sg10
S'0.3'
p505
sg12
S'.452'
p506
sg317
S'106'
p507
sg14
S'2.4'
p508
sg16
S'.000'
p509
sg18
S'0.0'
p510
sg20
S'15.0'
p511
sg22
S'PF'
p512
sg324
S'99'
p513
sg24
S'.697'
p514
sg28
S'NBA'
p515
sg30
S'1.4'
p516
sg32
S'10.7'
p517
sg34
S'5.4'
p518
sg36
S'7.7'
p519
sg38
S'12.2'
p520
sg40
S'28'
p521
sg42
S'UTA'
p522
sg44
S'44'
p523
sg46
S'1.0'
p524
sg48
S'4.8'
p525
sg50
S'5.3'
p526
sg52
S'10.3'
p527
sg54
S'7.8'
p528
sg56
S'1998-99'
p529
sg58
S'4.8'
p530
sg60
S'2.8'
p531
sg62
S'.467'
p532
sg64
S'642'
p533
sg66
g19
sba(isrc.gp1.models.Per100Possession
Per100Possession
p534
(dp535
g8
S'4.0'
p536
sg10
S'0.1'
p537
sg12
S'.408'
p538
sg317
S'89'
p539
sg14
S'3.0'
p540
sg16
S'.000'
p541
sg18
S'0.0'
p542
sg20
S'12.0'
p543
sg22
g161
sg324
S'102'
p544
sg24
S'.806'
p545
sg28
S'NBA'
p546
sg30
S'1.5'
p547
sg32
S'11.5'
p548
sg34
S'8.0'
p549
sg36
S'3.2'
p550
sg38
S'12.1'
p551
sg40
S'29'
p552
sg42
S'UTA'
p553
sg44
S'62'
p554
sg46
S'1.2'
p555
sg48
S'4.7'
p556
sg50
S'2.6'
p557
sg52
S'11.4'
p558
sg54
S'8.1'
p559
sg56
S'1999-00'
p560
sg58
S'4.7'
p561
sg60
S'4.1'
p562
sg62
S'.411'
p563
sg64
S'604'
p564
sg66
g268
sba(isrc.gp1.models.Per100Possession
Per100Possession
p565
(dp566
g8
S'5.5'
p567
sg10
S'0.2'
p568
sg12
S'.403'
p569
sg317
S'96'
p570
sg14
S'2.2'
p571
sg16
S'.333'
p572
sg18
S'0.1'
p573
sg20
S'10.3'
p574
sg22
S'PF'
p575
sg324
S'107'
p576
sg24
S'.619'
p577
sg28
S'NBA'
p578
sg30
S'1.7'
p579
sg32
S'9.7'
p580
sg34
S'6.2'
p581
sg36
S'3.8'
p582
sg38
S'12.8'
p583
sg40
S'30'
p584
sg42
S'GSW'
p585
sg44
S'67'
p586
sg46
S'1.2'
p587
sg48
S'3.8'
p588
sg50
S'2.4'
p589
sg52
S'9.5'
p590
sg54
S'7.3'
p591
sg56
S'2000-01'
p592
sg58
S'3.9'
p593
sg60
S'2.4'
p594
sg62
S'.404'
p595
sg64
S'836'
p596
sg66
S'13'
p597
sbasS'_advanced'
p598
(lp599
(isrc.gp1.models.Advanced
Advanced
p600
(dp601
S'_offensiveReboundPercentage'
p602
S'11.8'
p603
sS'_turnOverPercentage'
p604
S'17.2'
p605
sS'_winSharesPer48Minutes'
p606
S'.102'
p607
sS'_stealPercentage'
p608
S'1.8'
p609
sS'_usagePercentage'
p610
S'15.5'
p611
sS'_totalReboundsPercentage'
p612
S'15.5'
p613
sS'_defensiveBoxPlusMinus'
p614
S'0.1'
p615
sg22
S'PF'
p616
sS'_valueOverReplacementPlayer'
p617
S'0.4'
p618
sS'_trueShootingPercentage'
p619
S'.564'
p620
sS'_defensiveReboundPercentage'
p621
S'19.5'
p622
sS'_freeThrowsAttempRate'
p623
S'.630'
p624
sS'_threePointsAttempRate'
p625
S'.003'
p626
sg28
S'NBA'
p627
sS'_offensiveBoxPlusMinues'
p628
S'-1.2'
p629
sS'_assistPercentage'
p630
S'7.0'
p631
sS'_defensiveWinShares'
p632
S'1.4'
p633
sg40
S'22'
p634
sg42
S'ATL'
p635
sg44
S'82'
p636
sS'_blockPercentage'
p637
S'0.7'
p638
sS'_playerEfficiencyRating'
p639
S'13.6'
p640
sS'_offensiveWinShares'
p641
S'1.9'
p642
sg64
S'1549'
p643
sS'_boxPlusMinus'
p644
S'-1.0'
p645
sg56
S'1992-93'
p646
sS'_winShares'
p647
S'3.3'
p648
sba(isrc.gp1.models.Advanced
Advanced
p649
(dp650
g602
S'11.1'
p651
sg604
S'18.6'
p652
sg606
S'.091'
p653
sg608
S'1.3'
p654
sg610
S'18.1'
p655
sg612
S'14.5'
p656
sg614
S'-0.4'
p657
sg22
S'PF'
p658
sg617
S'-0.3'
p659
sg619
S'.521'
p660
sg621
S'17.9'
p661
sg623
S'.521'
p662
sg625
S'.000'
p663
sg28
S'NBA'
p664
sg628
S'-3.4'
p665
sg630
S'6.4'
p666
sg632
S'1.1'
p667
sg40
S'23'
p668
sg42
S'ATL'
p669
sg44
S'63'
p670
sg637
S'0.8'
p671
sg639
S'12.0'
p672
sg641
S'0.3'
p673
sg64
S'763'
p674
sg644
S'-3.8'
p675
sg56
S'1993-94'
p676
sg647
S'1.4'
p677
sba(isrc.gp1.models.Advanced
Advanced
p678
(dp679
g602
S'14.0'
p680
sg604
S'14.2'
p681
sg606
S'.154'
p682
sg608
S'1.5'
p683
sg610
S'15.6'
p684
sg612
S'16.1'
p685
sg614
S'0.2'
p686
sg22
S'SF'
p687
sg617
S'0.9'
p688
sg619
S'.616'
p689
sg621
S'18.0'
p690
sg623
S'.581'
p691
sg625
S'.000'
p692
sg28
S'NBA'
p693
sg628
S'0.6'
p694
sg630
S'3.5'
p695
sg632
S'1.7'
p696
sg40
S'24'
p697
sg42
S'UTA'
p698
sg44
S'75'
p699
sg637
S'1.6'
p700
sg639
S'15.1'
p701
sg641
S'2.4'
p702
sg64
S'1270'
p703
sg644
S'0.8'
p704
sg56
S'1994-95'
p705
sg647
S'4.1'
p706
sba(isrc.gp1.models.Advanced
Advanced
p707
(dp708
g602
S'13.0'
p709
sg604
S'16.8'
p710
sg606
S'.130'
p711
sg608
S'1.6'
p712
sg610
S'14.0'
p713
sg612
S'16.3'
p714
sg614
S'1.7'
p715
sg22
S'PF'
p716
sg617
S'1.5'
p717
sg619
S'.574'
p718
sg621
S'19.5'
p719
sg623
S'.581'
p720
sg625
S'.012'
p721
sg28
S'NBA'
p722
sg628
S'-0.1'
p723
sg630
S'5.5'
p724
sg632
S'2.3'
p725
sg40
S'25'
p726
sg42
S'UTA'
p727
sg44
S'82'
p728
sg637
S'2.0'
p729
sg639
S'13.8'
p730
sg641
S'2.3'
p731
sg64
S'1708'
p732
sg644
S'1.5'
p733
sg56
S'1995-96'
p734
sg647
S'4.6'
p735
sba(isrc.gp1.models.Advanced
Advanced
p736
(dp737
g602
S'10.9'
p738
sg604
S'18.0'
p739
sg606
S'.118'
p740
sg608
S'1.7'
p741
sg610
S'12.7'
p742
sg612
S'14.7'
p743
sg614
S'0.9'
p744
sg22
g161
sg617
S'0.4'
p745
sg619
S'.572'
p746
sg621
S'18.2'
p747
sg623
S'.644'
p748
sg625
S'.006'
p749
sg28
S'NBA'
p750
sg628
S'-1.1'
p751
sg630
S'5.0'
p752
sg632
S'1.3'
p753
sg40
S'26'
p754
sg42
S'UTA'
p755
sg44
S'62'
p756
sg637
S'1.2'
p757
sg639
S'11.7'
p758
sg641
S'1.0'
p759
sg64
S'915'
p760
sg644
S'-0.2'
p761
sg56
S'1996-97'
p762
sg647
S'2.3'
p763
sba(isrc.gp1.models.Advanced
Advanced
p764
(dp765
g602
S'11.6'
p766
sg604
S'12.2'
p767
sg606
S'.153'
p768
sg608
S'1.4'
p769
sg610
S'13.2'
p770
sg612
S'13.3'
p771
sg614
S'0.4'
p772
sg22
g161
sg617
S'2.2'
p773
sg619
S'.605'
p774
sg621
S'14.8'
p775
sg623
S'.472'
p776
sg625
S'.000'
p777
sg28
S'NBA'
p778
sg628
S'1.9'
p779
sg630
S'6.7'
p780
sg632
S'1.7'
p781
sg40
S'27'
p782
sg42
S'UTA'
p783
sg44
S'80'
p784
sg637
S'0.9'
p785
sg639
S'14.5'
p786
sg641
S'4.8'
p787
sg64
S'2047'
p788
sg644
S'2.3'
p789
sg56
S'1997-98'
p790
sg647
S'6.5'
p791
sba(isrc.gp1.models.Advanced
Advanced
p792
(dp793
g602
S'10.5'
p794
sg604
S'16.8'
p795
sg606
S'.126'
p796
sg608
S'1.4'
p797
sg610
S'14.6'
p798
sg612
S'13.5'
p799
sg614
S'1.0'
p800
sg22
S'PF'
p801
sg617
S'0.2'
p802
sg619
S'.533'
p803
sg621
S'16.1'
p804
sg623
S'.718'
p805
sg625
S'.032'
p806
sg28
S'NBA'
p807
sg628
S'-1.5'
p808
sg630
S'7.2'
p809
sg632
S'0.9'
p810
sg40
S'28'
p811
sg42
S'UTA'
p812
sg44
S'44'
p813
sg637
S'1.4'
p814
sg639
S'12.2'
p815
sg641
S'0.8'
p816
sg64
S'642'
p817
sg644
S'-0.4'
p818
sg56
S'1998-99'
p819
sg647
S'1.7'
p820
sba(isrc.gp1.models.Advanced
Advanced
p821
(dp822
g602
S'9.3'
p823
sg604
S'24.0'
p824
sg606
S'.030'
p825
sg608
S'1.5'
p826
sg610
S'14.7'
p827
sg612
S'13.7'
p828
sg614
S'1.5'
p829
sg22
g161
sg617
S'-0.1'
p830
sg619
S'.463'
p831
sg621
S'18.0'
p832
sg623
S'.277'
p833
sg625
S'.008'
p834
sg28
S'NBA'
p835
sg628
S'-4.3'
p836
sg630
S'8.5'
p837
sg632
S'0.8'
p838
sg40
S'29'
p839
sg42
S'UTA'
p840
sg44
S'62'
p841
sg637
S'1.7'
p842
sg639
S'7.6'
p843
sg641
S'-0.4'
p844
sg64
S'604'
p845
sg644
S'-2.8'
p846
sg56
S'1999-00'
p847
sg647
S'0.4'
p848
sba(isrc.gp1.models.Advanced
Advanced
p849
(dp850
g602
S'10.5'
p851
sg604
S'17.6'
p852
sg606
S'.032'
p853
sg608
S'1.7'
p854
sg610
S'11.5'
p855
sg612
S'13.3'
p856
sg614
S'0.2'
p857
sg22
S'PF'
p858
sg617
S'-0.3'
p859
sg619
S'.450'
p860
sg621
S'16.4'
p861
sg623
S'.396'
p862
sg625
S'.019'
p863
sg28
S'NBA'
p864
sg628
S'-3.9'
p865
sg630
S'6.5'
p866
sg632
S'0.5'
p867
sg40
S'30'
p868
sg42
S'GSW'
p869
sg44
S'67'
p870
sg637
S'1.7'
p871
sg639
S'9.7'
p872
sg641
S'0.1'
p873
sg64
S'836'
p874
sg644
S'-3.7'
p875
sg56
S'2000-01'
p876
sg647
S'0.6'
p877
sbasS'_per36Minutes'
p878
(lp879
(isrc.gp1.models.Per36Minutes
Per36Minutes
p880
(dp881
g8
S'4.0'
p882
sg10
S'0.0'
p883
sg12
S'.500'
p884
sg14
S'1.9'
p885
sg16
S'.000'
p886
sg18
S'0.0'
p887
sg20
S'12.6'
p888
sg22
S'PF'
p889
sg24
S'.700'
p890
sg28
S'NBA'
p891
sg30
S'1.3'
p892
sg32
S'8.7'
p893
sg34
S'4.5'
p894
sg36
S'5.5'
p895
sg38
S'10.0'
p896
sg40
S'22'
p897
sg42
S'ATL'
p898
sg44
S'82'
p899
sg46
S'0.4'
p900
sg48
S'4.4'
p901
sg50
S'3.9'
p902
sg52
S'8.7'
p903
sg54
S'6.1'
p904
sg56
S'1992-93'
p905
sg58
S'4.4'
p906
sg60
S'2.3'
p907
sg62
S'.501'
p908
sg64
S'1549'
p909
sg66
g67
sba(isrc.gp1.models.Per36Minutes
Per36Minutes
p910
(dp911
g8
S'5.9'
p912
sg10
S'0.0'
p913
sg12
S'.451'
p914
sg14
S'0.9'
p915
sg16
S'4.5'
p916
sg18
S'0.0'
p917
sg20
g3
sg22
S'PF'
p918
sg24
S'3.6'
p919
sg28
S'NBA'
p920
sg30
S'0.4'
p921
sg32
S'10.0'
p922
sg34
S'12.9'
p923
sg36
S'.730'
p924
sg38
S'1.6'
p925
sg40
S'23'
p926
sg42
S'ATL'
p927
sg44
S'63'
p928
sg46
S'2.8'
p929
sg48
S'10.0'
p930
sg50
S'5.2'
p931
sg52
S'.451'
p932
sg54
S'9.5'
p933
sg56
S'1993-94'
p934
sg58
S'4.5'
p935
sg60
S'3.8'
p936
sg62
S'3.8'
p937
sg64
S'763'
p938
sg66
g11
sba(isrc.gp1.models.Per36Minutes
Per36Minutes
p939
(dp940
g8
S'5.4'
p941
sg10
S'0.0'
p942
sg12
S'.577'
p943
sg14
S'1.0'
p944
sg16
S'4.9'
p945
sg18
S'0.0'
p946
sg20
g3
sg22
S'SF'
p947
sg24
S'3.8'
p948
sg28
S'NBA'
p949
sg30
S'0.7'
p950
sg32
S'8.4'
p951
sg34
S'13.1'
p952
sg36
S'.676'
p953
sg38
S'0.9'
p954
sg40
S'24'
p955
sg42
S'UTA'
p956
sg44
S'75'
p957
sg46
S'1.8'
p958
sg48
S'8.4'
p959
sg50
S'4.9'
p960
sg52
S'.577'
p961
sg54
S'9.3'
p962
sg56
S'1994-95'
p963
sg58
S'4.9'
p964
sg60
S'4.0'
p965
sg62
S'3.3'
p966
sg64
S'1270'
p967
sg66
g19
sba(isrc.gp1.models.Per36Minutes
Per36Minutes
p968
(dp969
g8
S'3.7'
p970
sg10
S'0.1'
p971
sg12
S'.520'
p972
sg14
S'1.3'
p973
sg16
S'.000'
p974
sg18
S'0.0'
p975
sg20
S'10.5'
p976
sg22
S'PF'
p977
sg24
S'.692'
p978
sg28
S'NBA'
p979
sg30
S'1.1'
p980
sg32
S'7.3'
p981
sg34
S'3.7'
p982
sg36
S'4.2'
p983
sg38
S'9.6'
p984
sg40
S'25'
p985
sg42
S'UTA'
p986
sg44
S'82'
p987
sg46
S'0.9'
p988
sg48
S'3.8'
p989
sg50
S'2.9'
p990
sg52
S'7.2'
p991
sg54
S'5.9'
p992
sg56
S'1995-96'
p993
sg58
S'3.8'
p994
sg60
S'1.9'
p995
sg62
S'.526'
p996
sg64
S'1708'
p997
sg66
g19
sba(isrc.gp1.models.Per36Minutes
Per36Minutes
p998
(dp999
g8
S'3.0'
p1000
sg10
S'0.0'
p1001
sg12
S'.513'
p1002
sg14
S'1.3'
p1003
sg16
S'.000'
p1004
sg18
S'0.0'
p1005
sg20
S'9.2'
p1006
sg22
g161
sg24
S'.689'
p1007
sg28
S'NBA'
p1008
sg30
S'1.2'
p1009
sg32
S'6.3'
p1010
sg34
S'3.8'
p1011
sg36
S'4.1'
p1012
sg38
S'8.5'
p1013
sg40
S'26'
p1014
sg42
S'UTA'
p1015
sg44
S'62'
p1016
sg46
S'0.5'
p1017
sg48
S'3.2'
p1018
sg50
S'2.8'
p1019
sg52
S'6.3'
p1020
sg54
S'5.5'
p1021
sg56
S'1996-97'
p1022
sg58
S'3.2'
p1023
sg60
S'1.8'
p1024
sg62
S'.516'
p1025
sg64
S'915'
p1026
sg66
g19
sba(isrc.gp1.models.Per36Minutes
Per36Minutes
p1027
(dp1028
g8
S'4.6'
p1029
sg10
S'0.0'
p1030
sg12
S'.540'
p1031
sg14
S'0.9'
p1032
sg16
S'4.0'
p1033
sg18
S'0.0'
p1034
sg20
g3
sg22
g161
sg24
S'3.1'
p1035
sg28
S'NBA'
p1036
sg30
S'0.4'
p1037
sg32
S'7.5'
p1038
sg34
S'10.9'
p1039
sg36
S'.810'
p1040
sg38
S'1.6'
p1041
sg40
S'27'
p1042
sg42
S'UTA'
p1043
sg44
S'80'
p1044
sg46
S'1.2'
p1045
sg48
S'7.5'
p1046
sg50
S'3.5'
p1047
sg52
S'.540'
p1048
sg54
S'7.7'
p1049
sg56
S'1997-98'
p1050
sg58
S'4.0'
p1051
sg60
S'3.0'
p1052
sg62
S'2.8'
p1053
sg64
S'2047'
p1054
sg66
S'75'
p1055
sba(isrc.gp1.models.Per36Minutes
Per36Minutes
p1056
(dp1057
g8
S'2.9'
p1058
sg10
S'0.2'
p1059
sg12
S'.452'
p1060
sg14
S'1.6'
p1061
sg16
S'.000'
p1062
sg18
S'0.0'
p1063
sg20
S'9.8'
p1064
sg22
S'PF'
p1065
sg24
S'.697'
p1066
sg28
S'NBA'
p1067
sg30
S'0.9'
p1068
sg32
S'7.0'
p1069
sg34
S'3.5'
p1070
sg36
S'5.0'
p1071
sg38
S'8.0'
p1072
sg40
S'28'
p1073
sg42
S'UTA'
p1074
sg44
S'44'
p1075
sg46
S'0.7'
p1076
sg48
S'3.1'
p1077
sg50
S'3.5'
p1078
sg52
S'6.7'
p1079
sg54
S'5.1'
p1080
sg56
S'1998-99'
p1081
sg58
S'3.1'
p1082
sg60
S'1.9'
p1083
sg62
S'.467'
p1084
sg64
S'642'
p1085
sg66
g19
sba(isrc.gp1.models.Per36Minutes
Per36Minutes
p1086
(dp1087
g8
S'2.7'
p1088
sg10
S'0.1'
p1089
sg12
S'.408'
p1090
sg14
S'2.0'
p1091
sg16
S'.000'
p1092
sg18
S'0.0'
p1093
sg20
S'8.0'
p1094
sg22
g161
sg24
S'.806'
p1095
sg28
S'NBA'
p1096
sg30
S'1.0'
p1097
sg32
S'7.7'
p1098
sg34
S'5.4'
p1099
sg36
S'2.1'
p1100
sg38
S'8.1'
p1101
sg40
S'29'
p1102
sg42
S'UTA'
p1103
sg44
S'62'
p1104
sg46
S'0.8'
p1105
sg48
S'3.2'
p1106
sg50
S'1.7'
p1107
sg52
S'7.7'
p1108
sg54
S'5.4'
p1109
sg56
S'1999-00'
p1110
sg58
S'3.2'
p1111
sg60
S'2.7'
p1112
sg62
S'.411'
p1113
sg64
S'604'
p1114
sg66
g268
sba(isrc.gp1.models.Per36Minutes
Per36Minutes
p1115
(dp1116
g8
S'3.9'
p1117
sg10
S'0.1'
p1118
sg12
S'.403'
p1119
sg14
S'1.6'
p1120
sg16
S'.333'
p1121
sg18
S'0.0'
p1122
sg20
S'7.2'
p1123
sg22
S'PF'
p1124
sg24
S'.619'
p1125
sg28
S'NBA'
p1126
sg30
S'1.2'
p1127
sg32
S'6.8'
p1128
sg34
S'4.4'
p1129
sg36
S'2.7'
p1130
sg38
S'9.0'
p1131
sg40
S'30'
p1132
sg42
S'GSW'
p1133
sg44
S'67'
p1134
sg46
S'0.9'
p1135
sg48
S'2.7'
p1136
sg50
S'1.7'
p1137
sg52
S'6.7'
p1138
sg54
S'5.1'
p1139
sg56
S'2000-01'
p1140
sg58
S'2.8'
p1141
sg60
S'1.7'
p1142
sg62
S'.404'
p1143
sg64
S'836'
p1144
sg66
S'13'
p1145
sbasS'_fromYear'
p1146
S'1993'
p1147
sS'_url'
p1148
S'http://www.basketball-reference.com/players/k/keefead01.html'
p1149
sS'_perGame'
p1150
(isrc.gp1.models.PerGame
PerGame
p1151
(dp1152
g8
S'1.3'
p1153
sg10
S'0.0'
p1154
sg12
S'.403'
p1155
sS'_effectiveFieldGalPercentage'
p1156
S'.406'
p1157
sg14
S'0.5'
p1158
sg16
S'.333'
p1159
sg18
S'0.0'
p1160
sg20
S'2.5'
p1161
sg22
S'PF'
p1162
sg24
S'.619'
p1163
sg28
S'NBA'
p1164
sg30
S'0.4'
p1165
sg34
S'1.5'
p1166
sS'_fieldGoalsttempted'
p1167
S'2.4'
p1168
sg36
S'0.9'
p1169
sg38
S'3.1'
p1170
sg40
S'30'
p1171
sg42
S'GSW'
p1172
sg44
S'67'
p1173
sg46
S'0.3'
p1174
sg48
S'0.9'
p1175
sg50
S'0.6'
p1176
sg52
S'2.3'
p1177
sg54
S'1.8'
p1178
sg56
S'2000-01'
p1179
sg58
S'1.0'
p1180
sg60
S'0.6'
p1181
sg62
S'.404'
p1182
sg64
S'12.5'
p1183
sg66
S'13'
p1184
sbsS'_weight'
p1185
S'230'
p1186
sS'_dob'
p1187
S'22-2-1970'
p1188
sS'_salary'
p1189
(lp1190
(isrc.gp1.models.Salary
Salary
p1191
(dp1192
g42
S'Atlanta Hawks'
p1193
sg28
S'NBA'
p1194
sg1189
S'$1,000,000'
p1195
sg56
S'1992-93'
p1196
sba(isrc.gp1.models.Salary
Salary
p1197
(dp1198
g42
S'Atlanta Hawks'
p1199
sg28
S'NBA'
p1200
sg1189
S'$1,200,000'
p1201
sg56
S'1993-94'
p1202
sba(isrc.gp1.models.Salary
Salary
p1203
(dp1204
g42
S'Utah Jazz'
p1205
sg28
S'NBA'
p1206
sg1189
S'$1,500,000'
p1207
sg56
S'1994-95'
p1208
sba(isrc.gp1.models.Salary
Salary
p1209
(dp1210
g42
S'Utah Jazz'
p1211
sg28
S'NBA'
p1212
sg1189
S'$1,650,000'
p1213
sg56
S'1995-96'
p1214
sba(isrc.gp1.models.Salary
Salary
p1215
(dp1216
g42
S'Utah Jazz'
p1217
sg28
S'NBA'
p1218
sg1189
S'$1,950,000'
p1219
sg56
S'1996-97'
p1220
sba(isrc.gp1.models.Salary
Salary
p1221
(dp1222
g42
S'Utah Jazz'
p1223
sg28
S'NBA'
p1224
sg1189
S'$2,300,000'
p1225
sg56
S'1997-98'
p1226
sba(isrc.gp1.models.Salary
Salary
p1227
(dp1228
g42
S'Utah Jazz'
p1229
sg28
S'NBA'
p1230
sg1189
S'$2,650,000'
p1231
sg56
S'1998-99'
p1232
sba(isrc.gp1.models.Salary
Salary
p1233
(dp1234
g42
S'Utah Jazz'
p1235
sg28
S'NBA'
p1236
sg1189
S'$3,000,000'
p1237
sg56
S'1999-00'
p1238
sba(isrc.gp1.models.Salary
Salary
p1239
(dp1240
g42
S'Golden State Warriors'
p1241
sg28
S'NBA'
p1242
sg1189
S'$3,390,000'
p1243
sg56
S'2000-01'
p1244
sbasg22
S'F'
p1245
sb.