(isrc.gp1.models.Player
Player
p0
(dp1
S'_experience'
p2
S'NA'
p3
sS'_totals'
p4
(lp5
(isrc.gp1.models.Totals
Totals
p6
(dp7
S'_offensiveRebounds'
p8
S'35'
p9
sS'_threePointsAttempted'
p10
S'1'
p11
sS'_fieldGoalsPercentage'
p12
S'.556'
p13
sS'_assist'
p14
S'13'
p15
sS'_threePointsPercentage'
p16
S'.000'
p17
sS'_threePoints'
p18
S'0'
p19
sS'_points'
p20
S'174'
p21
sS'_position'
p22
S'SG'
p23
sS'_freeThrowsPercentage'
p24
S'.667'
p25
sS'_effectiveFieldGoalPercentage'
p26
S'.556'
p27
sS'_league'
p28
S'NBA'
p29
sS'_steals'
p30
S'17'
p31
sS'_fieldGoalsAttempted'
p32
S'135'
p33
sS'_personalFouls'
p34
S'47'
p35
sS'_freeThrowsAttempted'
p36
S'36'
p37
sS'_totalRebounds'
p38
S'77'
p39
sS'_age'
p40
S'22'
p41
sS'_team'
p42
S'NJN'
p43
sS'_games'
p44
S'61'
p45
sS'_blocks'
p46
S'4'
p47
sS'_twoPoints'
p48
S'75'
p49
sS'_freeThrows'
p50
S'24'
p51
sS'_twoPointsAttempted'
p52
S'134'
p53
sS'_defensiveRebounds'
p54
S'42'
p55
sS'_season'
p56
S'2006-07'
p57
sS'_fieldGoals'
p58
S'75'
p59
sS'_turnOvers'
p60
S'22'
p61
sS'_twoPointsPercentage'
p62
S'.560'
p63
sS'_minutesPlayed'
p64
S'495'
p65
sS'_gamesStarted'
p66
S'8'
p67
sba(isrc.gp1.models.Totals
Totals
p68
(dp69
g8
g3
sg10
g3
sg12
g3
sg14
g3
sg16
g3
sg18
g3
sg20
g3
sg22
g3
sg24
g3
sg26
g3
sg28
g3
sg30
g3
sg32
g3
sg34
g3
sg36
g3
sg38
g3
sg40
S'23'
p70
sg42
S'Did Not Play\xc2\xa0(other pro league\xe2\x80\x94Italy)'
p71
sg44
g3
sg46
g3
sg48
g3
sg50
g3
sg52
g3
sg54
g3
sg56
S'2007-08'
p72
sg58
g3
sg60
g3
sg62
g3
sg64
g3
sg66
g3
sba(isrc.gp1.models.Totals
Totals
p73
(dp74
g8
g11
sg10
g19
sg12
S'.308'
p75
sg14
g11
sg16
g3
sg18
g19
sg20
S'11'
p76
sg22
S'SG'
p77
sg24
S'.500'
p78
sg26
S'.308'
p79
sg28
S'NBA'
p80
sg30
g11
sg32
S'13'
p81
sg34
g47
sg36
S'6'
p82
sg38
S'7'
p83
sg40
S'24'
p84
sg42
S'TOR'
p85
sg44
S'12'
p86
sg46
g11
sg48
g47
sg50
S'3'
p87
sg52
S'13'
p88
sg54
g82
sg56
S'2008-09'
p89
sg58
g47
sg60
g47
sg62
S'.308'
p90
sg64
S'52'
p91
sg66
g19
sbasS'_college'
p92
S'University of Arizona'
p93
sS'_toYear'
p94
S'2009'
p95
sS'_height'
p96
S'6-4'
p97
sS'_active'
p98
I00
sS'_shootingHand'
p99
VRight
p100
sS'_name'
p101
S'Hassan Adams'
p102
sS'_per100Possessions'
p103
(lp104
(isrc.gp1.models.Per100Possession
Per100Possession
p105
(dp106
g8
S'3.7'
p107
sg10
S'0.1'
p108
sg12
S'.556'
p109
sS'_offensiveRating'
p110
S'109'
p111
sg14
S'1.4'
p112
sg16
S'.000'
p113
sg18
S'0.0'
p114
sg20
S'18.5'
p115
sg22
S'SG'
p116
sS'_defensiveRating'
p117
S'107'
p118
sg24
S'.667'
p119
sg28
S'NBA'
p120
sg30
S'1.8'
p121
sg32
S'14.3'
p122
sg34
S'5.0'
p123
sg36
S'3.8'
p124
sg38
S'8.2'
p125
sg40
S'22'
p126
sg42
S'NJN'
p127
sg44
S'61'
p128
sg46
S'0.4'
p129
sg48
S'8.0'
p130
sg50
S'2.5'
p131
sg52
S'14.2'
p132
sg54
S'4.5'
p133
sg56
S'2006-07'
p134
sg58
S'8.0'
p135
sg60
S'2.3'
p136
sg62
S'.560'
p137
sg64
S'495'
p138
sg66
g67
sba(isrc.gp1.models.Per100Possession
Per100Possession
p139
(dp140
g8
S'1.0'
p141
sg10
S'0.0'
p142
sg12
S'.308'
p143
sg110
S'63'
p144
sg14
S'1.0'
p145
sg16
g3
sg18
S'0.0'
p146
sg20
S'11.0'
p147
sg22
S'SG'
p148
sg117
S'111'
p149
sg24
S'.500'
p150
sg28
S'NBA'
p151
sg30
S'1.0'
p152
sg32
S'13.0'
p153
sg34
S'4.0'
p154
sg36
S'6.0'
p155
sg38
S'7.0'
p156
sg40
S'24'
p157
sg42
S'TOR'
p158
sg44
S'12'
p159
sg46
S'1.0'
p160
sg48
S'4.0'
p161
sg50
S'3.0'
p162
sg52
S'13.0'
p163
sg54
S'6.0'
p164
sg56
S'2008-09'
p165
sg58
S'4.0'
p166
sg60
S'4.0'
p167
sg62
S'.308'
p168
sg64
S'52'
p169
sg66
g19
sbasS'_advanced'
p170
(lp171
(isrc.gp1.models.Advanced
Advanced
p172
(dp173
S'_offensiveReboundPercentage'
p174
S'8.4'
p175
sS'_turnOverPercentage'
p176
S'12.7'
p177
sS'_winSharesPer48Minutes'
p178
S'.095'
p179
sS'_stealPercentage'
p180
S'1.8'
p181
sS'_usagePercentage'
p182
S'16.3'
p183
sS'_totalReboundsPercentage'
p184
S'9.2'
p185
sS'_defensiveBoxPlusMinus'
p186
S'-1.2'
p187
sg22
S'SG'
p188
sS'_valueOverReplacementPlayer'
p189
S'-0.2'
p190
sS'_trueShootingPercentage'
p191
S'.577'
p192
sS'_defensiveReboundPercentage'
p193
S'9.9'
p194
sS'_freeThrowsAttempRate'
p195
S'.267'
p196
sS'_threePointsAttempRate'
p197
S'.007'
p198
sg28
S'NBA'
p199
sS'_offensiveBoxPlusMinues'
p200
S'-2.4'
p201
sS'_assistPercentage'
p202
S'4.5'
p203
sS'_defensiveWinShares'
p204
S'0.5'
p205
sg40
S'22'
p206
sg42
S'NJN'
p207
sg44
S'61'
p208
sS'_blockPercentage'
p209
S'0.6'
p210
sS'_playerEfficiencyRating'
p211
S'13.0'
p212
sS'_offensiveWinShares'
p213
S'0.5'
p214
sg64
S'495'
p215
sS'_boxPlusMinus'
p216
S'-3.6'
p217
sg56
S'2006-07'
p218
sS'_winShares'
p219
S'1.0'
p220
sba(isrc.gp1.models.Advanced
Advanced
p221
(dp222
g174
S'2.3'
p223
sg176
S'20.4'
p224
sg178
S'-0.144'
p225
sg180
S'1.0'
p226
sg182
S'17.4'
p227
sg184
S'7.9'
p228
sg186
S'-1.3'
p229
sg22
S'SG'
p230
sg189
S'-0.1'
p231
sg191
S'.352'
p232
sg193
S'13.4'
p233
sg195
S'.462'
p234
sg197
S'.000'
p235
sg28
S'NBA'
p236
sg200
S'-10.6'
p237
sg202
S'2.8'
p238
sg204
S'0.0'
p239
sg40
S'24'
p240
sg42
S'TOR'
p241
sg44
S'12'
p242
sg209
S'1.5'
p243
sg211
S'0.4'
p244
sg213
S'-0.2'
p245
sg64
S'52'
p246
sg216
S'-12.0'
p247
sg56
S'2008-09'
p248
sg219
S'-0.2'
p249
sbasS'_per36Minutes'
p250
(lp251
(isrc.gp1.models.Per36Minutes
Per36Minutes
p252
(dp253
g8
S'2.5'
p254
sg10
S'0.1'
p255
sg12
S'.556'
p256
sg14
S'0.9'
p257
sg16
S'.000'
p258
sg18
S'0.0'
p259
sg20
S'12.7'
p260
sg22
S'SG'
p261
sg24
S'.667'
p262
sg28
S'NBA'
p263
sg30
S'1.2'
p264
sg32
S'9.8'
p265
sg34
S'3.4'
p266
sg36
S'2.6'
p267
sg38
S'5.6'
p268
sg40
S'22'
p269
sg42
S'NJN'
p270
sg44
S'61'
p271
sg46
S'0.3'
p272
sg48
S'5.5'
p273
sg50
S'1.7'
p274
sg52
S'9.7'
p275
sg54
S'3.1'
p276
sg56
S'2006-07'
p277
sg58
S'5.5'
p278
sg60
S'1.6'
p279
sg62
S'.560'
p280
sg64
S'495'
p281
sg66
g67
sba(isrc.gp1.models.Per36Minutes
Per36Minutes
p282
(dp283
g8
S'0.7'
p284
sg10
S'0.0'
p285
sg12
S'.308'
p286
sg14
S'0.7'
p287
sg16
g3
sg18
S'0.0'
p288
sg20
S'7.6'
p289
sg22
S'SG'
p290
sg24
S'.500'
p291
sg28
S'NBA'
p292
sg30
S'0.7'
p293
sg32
S'9.0'
p294
sg34
S'2.8'
p295
sg36
S'4.2'
p296
sg38
S'4.8'
p297
sg40
S'24'
p298
sg42
S'TOR'
p299
sg44
S'12'
p300
sg46
S'0.7'
p301
sg48
S'2.8'
p302
sg50
S'2.1'
p303
sg52
S'9.0'
p304
sg54
S'4.2'
p305
sg56
S'2008-09'
p306
sg58
S'2.8'
p307
sg60
S'2.8'
p308
sg62
S'.308'
p309
sg64
S'52'
p310
sg66
g19
sbasS'_fromYear'
p311
S'2007'
p312
sS'_url'
p313
S'http://www.basketball-reference.com/players/a/adamsha01.html'
p314
sS'_perGame'
p315
(isrc.gp1.models.PerGame
PerGame
p316
(dp317
g8
S'0.1'
p318
sg10
S'0.0'
p319
sg12
S'.308'
p320
sS'_effectiveFieldGalPercentage'
p321
S'.308'
p322
sg14
S'0.1'
p323
sg16
g3
sg18
S'0.0'
p324
sg20
S'0.9'
p325
sg22
S'SG'
p326
sg24
S'.500'
p327
sg28
S'NBA'
p328
sg30
S'0.1'
p329
sg34
S'0.3'
p330
sS'_fieldGoalsttempted'
p331
S'1.1'
p332
sg36
S'0.5'
p333
sg38
S'0.6'
p334
sg40
S'24'
p335
sg42
S'TOR'
p336
sg44
S'12'
p337
sg46
S'0.1'
p338
sg48
S'0.3'
p339
sg50
S'0.3'
p340
sg52
S'1.1'
p341
sg54
S'0.5'
p342
sg56
S'2008-09'
p343
sg58
S'0.3'
p344
sg60
S'0.3'
p345
sg62
S'.308'
p346
sg64
S'4.3'
p347
sg66
g19
sbsS'_weight'
p348
S'220'
p349
sS'_dob'
p350
S'20-6-1984'
p351
sS'_salary'
p352
(lp353
(isrc.gp1.models.Salary
Salary
p354
(dp355
g42
S'New Jersey Nets'
p356
sg28
S'NBA'
p357
sg352
S'$412,718'
p358
sg56
S'2006-07'
p359
sba(isrc.gp1.models.Salary
Salary
p360
(dp361
g42
S'Los Angeles Clippers'
p362
sg28
S'NBA'
p363
sg352
S'$297,163'
p364
sg56
S'2008-09'
p365
sbasg22
S'G'
p366
sb.