(isrc.gp1.models.Player
Player
p0
(dp1
S'_experience'
p2
V5
p3
sS'_totals'
p4
(lp5
(isrc.gp1.models.Totals
Totals
p6
(dp7
S'_offensiveRebounds'
p8
S'23'
p9
sS'_threePointsAttempted'
p10
S'0'
p11
sS'_fieldGoalsPercentage'
p12
S'.426'
p13
sS'_assist'
p14
S'10'
p15
sS'_threePointsPercentage'
p16
S'NA'
p17
sS'_threePoints'
p18
g11
sS'_points'
p19
S'57'
p20
sS'_position'
p21
S'PF'
p22
sS'_freeThrowsPercentage'
p23
S'.579'
p24
sS'_effectiveFieldGoalPercentage'
p25
S'.426'
p26
sS'_league'
p27
S'NBA'
p28
sS'_steals'
p29
S'4'
p30
sS'_fieldGoalsAttempted'
p31
S'54'
p32
sS'_personalFouls'
p33
S'28'
p34
sS'_freeThrowsAttempted'
p35
S'19'
p36
sS'_totalRebounds'
p37
S'58'
p38
sS'_age'
p39
S'24'
p40
sS'_team'
p41
S'GSW'
p42
sS'_games'
p43
S'23'
p44
sS'_blocks'
p45
S'5'
p46
sS'_twoPoints'
p47
S'23'
p48
sS'_freeThrows'
p49
S'11'
p50
sS'_twoPointsAttempted'
p51
S'54'
p52
sS'_defensiveRebounds'
p53
S'35'
p54
sS'_season'
p55
S'2010-11'
p56
sS'_fieldGoals'
p57
S'23'
p58
sS'_turnOvers'
p59
S'9'
p60
sS'_twoPointsPercentage'
p61
S'.426'
p62
sS'_minutesPlayed'
p63
S'196'
p64
sS'_gamesStarted'
p65
g11
sba(isrc.gp1.models.Totals
Totals
p66
(dp67
g8
g46
sg10
g11
sg12
S'.438'
p68
sg14
S'1'
p69
sg16
g17
sg18
g11
sg19
S'21'
p70
sg21
S'PF'
p71
sg23
S'.583'
p72
sg25
S'.438'
p73
sg27
S'NBA'
p74
sg29
g11
sg31
S'16'
p75
sg33
S'13'
p76
sg35
S'12'
p77
sg37
S'22'
p78
sg39
S'25'
p79
sg41
S'HOU'
p80
sg43
S'8'
p81
sg45
S'2'
p82
sg47
S'7'
p83
sg49
g83
sg51
S'16'
p84
sg53
S'17'
p85
sg55
S'2011-12'
p86
sg57
g83
sg59
g82
sg61
S'.438'
p87
sg63
S'63'
p88
sg65
g11
sba(isrc.gp1.models.Totals
Totals
p89
(dp90
g8
S'68'
p91
sg10
g82
sg12
S'.429'
p92
sg14
S'36'
p93
sg16
S'.000'
p94
sg18
g11
sg19
S'209'
p95
sg21
S'PF'
p96
sg23
S'.650'
p97
sg25
S'.429'
p98
sg27
S'NBA'
p99
sg29
S'18'
p100
sg31
S'168'
p101
sg33
S'80'
p102
sg35
S'100'
p103
sg37
S'196'
p104
sg39
S'26'
p105
sg41
S'CHA'
p106
sg43
S'52'
p107
sg45
S'27'
p108
sg47
S'72'
p109
sg49
S'65'
p110
sg51
S'166'
p111
sg53
S'128'
p112
sg55
S'2012-13'
p113
sg57
S'72'
p114
sg59
S'32'
p115
sg61
S'.434'
p116
sg63
S'713'
p117
sg65
g46
sba(isrc.gp1.models.Totals
Totals
p118
(dp119
g8
S'102'
p120
sg10
g11
sg12
S'.520'
p121
sg14
S'38'
p122
sg16
g17
sg18
g11
sg19
S'362'
p123
sg21
S'PF'
p124
sg23
S'.639'
p125
sg25
S'.520'
p126
sg27
S'NBA'
p127
sg29
S'24'
p128
sg31
S'275'
p129
sg33
S'108'
p130
sg35
S'119'
p131
sg37
S'306'
p132
sg39
S'27'
p133
sg41
S'TOT'
p134
sg43
S'53'
p135
sg45
S'36'
p136
sg47
S'143'
p137
sg49
S'76'
p138
sg51
S'275'
p139
sg53
S'204'
p140
sg55
S'2013-14'
p141
sg57
S'143'
p142
sg59
S'39'
p143
sg61
S'.520'
p144
sg63
S'961'
p145
sg65
S'12'
p146
sba(isrc.gp1.models.Totals
Totals
p147
(dp148
g8
S'33'
p149
sg10
g11
sg12
S'.550'
p150
sg14
g83
sg16
g17
sg18
g11
sg19
S'57'
p151
sg21
S'PF'
p152
sg23
S'.520'
p153
sg25
S'.550'
p154
sg27
S'NBA'
p155
sg29
g83
sg31
S'40'
p156
sg33
S'35'
p157
sg35
S'25'
p158
sg37
S'88'
p159
sg39
S'27'
p160
sg41
S'CHA'
p161
sg43
S'25'
p162
sg45
S'15'
p163
sg47
S'22'
p164
sg49
S'13'
p165
sg51
S'40'
p166
sg53
S'55'
p167
sg55
S'2013-14'
p168
sg57
S'22'
p169
sg59
g81
sg61
S'.550'
p170
sg63
S'256'
p171
sg65
g11
sba(isrc.gp1.models.Totals
Totals
p172
(dp173
g8
S'69'
p174
sg10
g11
sg12
S'.515'
p175
sg14
S'31'
p176
sg16
g17
sg18
g11
sg19
S'305'
p177
sg21
S'PF'
p178
sg23
S'.670'
p179
sg25
S'.515'
p180
sg27
S'NBA'
p181
sg29
S'17'
p182
sg31
S'235'
p183
sg33
S'73'
p184
sg35
S'94'
p185
sg37
S'218'
p186
sg39
S'27'
p187
sg41
S'MIL'
p188
sg43
S'28'
p189
sg45
S'21'
p190
sg47
S'121'
p191
sg49
S'63'
p192
sg51
S'235'
p193
sg53
S'149'
p194
sg55
S'2013-14'
p195
sg57
S'121'
p196
sg59
S'31'
p197
sg61
S'.515'
p198
sg63
S'705'
p199
sg65
S'12'
p200
sba(isrc.gp1.models.Totals
Totals
p201
(dp202
g8
S'23'
p203
sg10
g11
sg12
S'.432'
p204
sg14
S'15'
p205
sg16
g17
sg18
g11
sg19
S'60'
p206
sg21
S'PF'
p207
sg23
S'.579'
p208
sg25
S'.432'
p209
sg27
S'NBA'
p210
sg29
g30
sg31
S'44'
p211
sg33
S'30'
p212
sg35
S'38'
p213
sg37
S'77'
p214
sg39
S'28'
p215
sg41
S'MIN'
p216
sg43
S'17'
p217
sg45
g60
sg47
S'19'
p218
sg49
S'22'
p219
sg51
S'44'
p220
sg53
S'54'
p221
sg55
S'2014-15'
p222
sg57
S'19'
p223
sg59
g60
sg61
S'.432'
p224
sg63
S'215'
p225
sg65
g11
sbasS'_college'
p226
S'University of Connecticut'
p227
sS'_toYear'
p228
S'2015'
p229
sS'_height'
p230
S'6-7'
p231
sS'_active'
p232
I01
sS'_shootingHand'
p233
VRight
p234
sS'_name'
p235
S'Jeff Adrien'
p236
sS'_per100Possessions'
p237
(lp238
(isrc.gp1.models.Per100Possession
Per100Possession
p239
(dp240
g8
S'5.9'
p241
sg10
S'0.0'
p242
sg12
S'.426'
p243
sS'_offensiveRating'
p244
S'102'
p245
sg14
S'2.6'
p246
sg16
g17
sg18
S'0.0'
p247
sg19
S'14.7'
p248
sg21
S'PF'
p249
sS'_defensiveRating'
p250
S'110'
p251
sg23
S'.579'
p252
sg27
S'NBA'
p253
sg29
S'1.0'
p254
sg31
S'13.9'
p255
sg33
S'7.2'
p256
sg35
S'4.9'
p257
sg37
S'15.0'
p258
sg39
S'24'
p259
sg41
S'GSW'
p260
sg43
S'23'
p261
sg45
S'1.3'
p262
sg47
S'5.9'
p263
sg49
S'2.8'
p264
sg51
S'13.9'
p265
sg53
S'9.0'
p266
sg55
S'2010-11'
p267
sg57
S'5.9'
p268
sg59
S'2.3'
p269
sg61
S'.426'
p270
sg63
S'196'
p271
sg65
g11
sba(isrc.gp1.models.Per100Possession
Per100Possession
p272
(dp273
g8
S'4.2'
p274
sg10
S'0.0'
p275
sg12
S'.438'
p276
sg244
S'106'
p277
sg14
S'0.8'
p278
sg16
g17
sg18
S'0.0'
p279
sg19
S'17.5'
p280
sg21
S'PF'
p281
sg250
S'103'
p282
sg23
S'.583'
p283
sg27
S'NBA'
p284
sg29
S'0.0'
p285
sg31
S'13.3'
p286
sg33
S'10.8'
p287
sg35
S'10.0'
p288
sg37
S'18.3'
p289
sg39
S'25'
p290
sg41
S'HOU'
p291
sg43
g81
sg45
S'1.7'
p292
sg47
S'5.8'
p293
sg49
S'5.8'
p294
sg51
S'13.3'
p295
sg53
S'14.1'
p296
sg55
S'2011-12'
p297
sg57
S'5.8'
p298
sg59
S'1.7'
p299
sg61
S'.438'
p300
sg63
S'63'
p301
sg65
g11
sba(isrc.gp1.models.Per100Possession
Per100Possession
p302
(dp303
g8
S'5.0'
p304
sg10
S'0.1'
p305
sg12
S'.429'
p306
sg244
S'105'
p307
sg14
S'2.7'
p308
sg16
S'.000'
p309
sg18
S'0.0'
p310
sg19
S'15.4'
p311
sg21
S'PF'
p312
sg250
S'109'
p313
sg23
S'.650'
p314
sg27
S'NBA'
p315
sg29
S'1.3'
p316
sg31
S'12.4'
p317
sg33
S'5.9'
p318
sg35
S'7.4'
p319
sg37
S'14.4'
p320
sg39
S'26'
p321
sg41
S'CHA'
p322
sg43
S'52'
p323
sg45
S'2.0'
p324
sg47
S'5.3'
p325
sg49
S'4.8'
p326
sg51
S'12.2'
p327
sg53
S'9.4'
p328
sg55
S'2012-13'
p329
sg57
S'5.3'
p330
sg59
S'2.4'
p331
sg61
S'.434'
p332
sg63
S'713'
p333
sg65
g46
sba(isrc.gp1.models.Per100Possession
Per100Possession
p334
(dp335
g8
S'5.5'
p336
sg10
S'0.0'
p337
sg12
S'.520'
p338
sg244
S'114'
p339
sg14
S'2.1'
p340
sg16
g17
sg18
S'0.0'
p341
sg19
S'19.7'
p342
sg21
S'PF'
p343
sg250
S'106'
p344
sg23
S'.639'
p345
sg27
S'NBA'
p346
sg29
S'1.3'
p347
sg31
S'14.9'
p348
sg33
S'5.9'
p349
sg35
S'6.5'
p350
sg37
S'16.6'
p351
sg39
S'27'
p352
sg41
S'TOT'
p353
sg43
S'53'
p354
sg45
S'2.0'
p355
sg47
S'7.8'
p356
sg49
S'4.1'
p357
sg51
S'14.9'
p358
sg53
S'11.1'
p359
sg55
S'2013-14'
p360
sg57
S'7.8'
p361
sg59
S'2.1'
p362
sg61
S'.520'
p363
sg63
S'961'
p364
sg65
S'12'
p365
sba(isrc.gp1.models.Per100Possession
Per100Possession
p366
(dp367
g8
S'6.7'
p368
sg10
S'0.0'
p369
sg12
S'.550'
p370
sg244
S'119'
p371
sg14
S'1.4'
p372
sg16
g17
sg18
S'0.0'
p373
sg19
S'11.6'
p374
sg21
S'PF'
p375
sg250
S'99'
p376
sg23
S'.520'
p377
sg27
S'NBA'
p378
sg29
S'1.4'
p379
sg31
S'8.1'
p380
sg33
S'7.1'
p381
sg35
S'5.1'
p382
sg37
S'17.8'
p383
sg39
S'27'
p384
sg41
S'CHA'
p385
sg43
S'25'
p386
sg45
S'3.0'
p387
sg47
S'4.5'
p388
sg49
S'2.6'
p389
sg51
S'8.1'
p390
sg53
S'11.2'
p391
sg55
S'2013-14'
p392
sg57
S'4.5'
p393
sg59
S'1.6'
p394
sg61
S'.550'
p395
sg63
S'256'
p396
sg65
g11
sba(isrc.gp1.models.Per100Possession
Per100Possession
p397
(dp398
g8
S'5.1'
p399
sg10
S'0.0'
p400
sg12
S'.515'
p401
sg244
S'113'
p402
sg14
S'2.3'
p403
sg16
g17
sg18
S'0.0'
p404
sg19
S'22.6'
p405
sg21
S'PF'
p406
sg250
S'109'
p407
sg23
S'.670'
p408
sg27
S'NBA'
p409
sg29
S'1.3'
p410
sg31
S'17.4'
p411
sg33
S'5.4'
p412
sg35
S'7.0'
p413
sg37
S'16.2'
p414
sg39
S'27'
p415
sg41
S'MIL'
p416
sg43
S'28'
p417
sg45
S'1.6'
p418
sg47
S'9.0'
p419
sg49
S'4.7'
p420
sg51
S'17.4'
p421
sg53
S'11.1'
p422
sg55
S'2013-14'
p423
sg57
S'9.0'
p424
sg59
S'2.3'
p425
sg61
S'.515'
p426
sg63
S'705'
p427
sg65
S'12'
p428
sba(isrc.gp1.models.Per100Possession
Per100Possession
p429
(dp430
g8
S'5.4'
p431
sg10
S'0.0'
p432
sg12
S'.432'
p433
sg244
S'109'
p434
sg14
S'3.5'
p435
sg16
g17
sg18
S'0.0'
p436
sg19
S'14.2'
p437
sg21
S'PF'
p438
sg250
S'108'
p439
sg23
S'.579'
p440
sg27
S'NBA'
p441
sg29
S'0.9'
p442
sg31
S'10.4'
p443
sg33
S'7.1'
p444
sg35
S'9.0'
p445
sg37
S'18.2'
p446
sg39
S'28'
p447
sg41
S'MIN'
p448
sg43
S'17'
p449
sg45
S'2.1'
p450
sg47
S'4.5'
p451
sg49
S'5.2'
p452
sg51
S'10.4'
p453
sg53
S'12.8'
p454
sg55
S'2014-15'
p455
sg57
S'4.5'
p456
sg59
S'2.1'
p457
sg61
S'.432'
p458
sg63
S'215'
p459
sg65
g11
sbasS'_advanced'
p460
(lp461
(isrc.gp1.models.Advanced
Advanced
p462
(dp463
S'_offensiveReboundPercentage'
p464
S'13.0'
p465
sS'_turnOverPercentage'
p466
S'12.6'
p467
sS'_winSharesPer48Minutes'
p468
S'.051'
p469
sS'_stealPercentage'
p470
S'1.0'
p471
sS'_usagePercentage'
p472
S'16.1'
p473
sS'_totalReboundsPercentage'
p474
S'16.8'
p475
sS'_defensiveBoxPlusMinus'
p476
S'-1.2'
p477
sg21
S'PF'
p478
sS'_valueOverReplacementPlayer'
p479
S'-0.2'
p480
sS'_trueShootingPercentage'
p481
S'.457'
p482
sS'_defensiveReboundPercentage'
p483
S'20.7'
p484
sS'_freeThrowsAttempRate'
p485
S'.352'
p486
sS'_threePointsAttempRate'
p487
S'.000'
p488
sg27
S'NBA'
p489
sS'_offensiveBoxPlusMinues'
p490
S'-3.9'
p491
sS'_assistPercentage'
p492
S'7.3'
p493
sS'_defensiveWinShares'
p494
S'0.1'
p495
sg39
S'24'
p496
sg41
S'GSW'
p497
sg43
S'23'
p498
sS'_blockPercentage'
p499
S'1.9'
p500
sS'_playerEfficiencyRating'
p501
S'11.3'
p502
sS'_offensiveWinShares'
p503
S'0.1'
p504
sg63
S'196'
p505
sS'_boxPlusMinus'
p506
S'-5.1'
p507
sg55
S'2010-11'
p508
sS'_winShares'
p509
S'0.2'
p510
sba(isrc.gp1.models.Advanced
Advanced
p511
(dp512
g464
S'9.1'
p513
sg466
S'8.6'
p514
sg468
S'.106'
p515
sg470
S'0.0'
p516
sg472
S'16.8'
p517
sg474
S'20.3'
p518
sg476
S'-2.3'
p519
sg21
S'PF'
p520
sg479
S'-0.1'
p521
sg481
S'.493'
p522
sg483
S'31.6'
p523
sg485
S'.750'
p524
sg487
S'.000'
p525
sg27
S'NBA'
p526
sg490
S'-5.4'
p527
sg492
S'2.4'
p528
sg494
S'0.1'
p529
sg39
S'25'
p530
sg41
S'HOU'
p531
sg43
g81
sg499
S'2.4'
p532
sg501
S'11.2'
p533
sg503
S'0.1'
p534
sg63
S'63'
p535
sg506
S'-7.7'
p536
sg55
S'2011-12'
p537
sg509
S'0.1'
p538
sba(isrc.gp1.models.Advanced
Advanced
p539
(dp540
g464
S'10.6'
p541
sg466
S'13.1'
p542
sg468
S'.064'
p543
sg470
S'1.3'
p544
sg472
S'15.6'
p545
sg474
S'15.7'
p546
sg476
S'-0.2'
p547
sg21
S'PF'
p548
sg479
S'-0.2'
p549
sg481
S'.493'
p550
sg483
S'21.2'
p551
sg485
S'.595'
p552
sg487
S'.012'
p553
sg27
S'NBA'
p554
sg490
S'-3.0'
p555
sg492
S'8.3'
p556
sg494
S'0.4'
p557
sg39
S'26'
p558
sg41
S'CHA'
p559
sg43
S'52'
p560
sg499
S'3.1'
p561
sg501
S'13.4'
p562
sg503
S'0.5'
p563
sg63
S'713'
p564
sg506
S'-3.3'
p565
sg55
S'2012-13'
p566
sg509
S'1.0'
p567
sba(isrc.gp1.models.Advanced
Advanced
p568
(dp569
g464
S'11.8'
p570
sg466
S'10.6'
p571
sg468
S'.134'
p572
sg470
S'1.3'
p573
sg472
S'17.3'
p574
sg474
S'18.2'
p575
sg476
S'0.3'
p576
sg21
S'PF'
p577
sg479
S'0.2'
p578
sg481
S'.553'
p579
sg483
S'24.8'
p580
sg485
S'.433'
p581
sg487
S'.000'
p582
sg27
S'NBA'
p583
sg490
S'-1.4'
p584
sg492
S'6.8'
p585
sg494
S'1.1'
p586
sg39
S'27'
p587
sg41
S'TOT'
p588
sg43
S'53'
p589
sg499
S'3.0'
p590
sg501
S'17.4'
p591
sg503
S'1.6'
p592
sg63
S'961'
p593
sg506
S'-1.1'
p594
sg55
S'2013-14'
p595
sg509
S'2.7'
p596
sba(isrc.gp1.models.Advanced
Advanced
p597
(dp598
g464
S'14.5'
p599
sg466
S'13.6'
p600
sg468
S'.170'
p601
sg470
S'1.4'
p602
sg472
S'10.6'
p603
sg474
S'19.4'
p604
sg476
S'2.9'
p605
sg21
S'PF'
p606
sg479
S'0.2'
p607
sg481
S'.559'
p608
sg483
S'24.4'
p609
sg485
S'.625'
p610
sg487
S'.000'
p611
sg27
S'NBA'
p612
sg490
S'-2.5'
p613
sg492
S'4.1'
p614
sg494
S'0.5'
p615
sg39
S'27'
p616
sg41
S'CHA'
p617
sg43
S'25'
p618
sg499
S'4.6'
p619
sg501
S'14.9'
p620
sg503
S'0.4'
p621
sg63
S'256'
p622
sg506
S'0.4'
p623
sg55
S'2013-14'
p624
sg509
S'0.9'
p625
sba(isrc.gp1.models.Advanced
Advanced
p626
(dp627
g464
S'10.9'
p628
sg466
S'10.1'
p629
sg468
S'.121'
p630
sg470
S'1.3'
p631
sg472
S'19.7'
p632
sg474
S'17.7'
p633
sg476
S'-0.7'
p634
sg21
S'PF'
p635
sg479
S'0.1'
p636
sg481
S'.552'
p637
sg483
S'25.0'
p638
sg485
S'.400'
p639
sg487
S'.000'
p640
sg27
S'NBA'
p641
sg490
S'-0.9'
p642
sg492
S'7.7'
p643
sg494
S'0.6'
p644
sg39
S'27'
p645
sg41
S'MIL'
p646
sg43
S'28'
p647
sg499
S'2.4'
p648
sg501
S'18.4'
p649
sg503
S'1.2'
p650
sg63
S'705'
p651
sg506
S'-1.6'
p652
sg55
S'2013-14'
p653
sg509
S'1.8'
p654
sba(isrc.gp1.models.Advanced
Advanced
p655
(dp656
g464
S'11.9'
p657
sg466
S'12.9'
p658
sg468
S'.087'
p659
sg470
S'0.9'
p660
sg472
S'14.3'
p661
sg474
S'20.5'
p662
sg476
S'0.5'
p663
sg21
S'PF'
p664
sg479
S'0.0'
p665
sg481
S'.494'
p666
sg483
S'29.6'
p667
sg485
S'.864'
p668
sg487
S'.000'
p669
sg27
S'NBA'
p670
sg490
S'-2.7'
p671
sg492
S'10.5'
p672
sg494
S'0.2'
p673
sg39
S'28'
p674
sg41
S'MIN'
p675
sg43
S'17'
p676
sg499
S'3.3'
p677
sg501
S'14.2'
p678
sg503
S'0.2'
p679
sg63
S'215'
p680
sg506
S'-2.2'
p681
sg55
S'2014-15'
p682
sg509
S'0.4'
p683
sbasS'_per36Minutes'
p684
(lp685
(isrc.gp1.models.Per36Minutes
Per36Minutes
p686
(dp687
g8
S'4.2'
p688
sg10
S'0.0'
p689
sg12
S'.426'
p690
sg14
S'1.8'
p691
sg16
g17
sg18
S'0.0'
p692
sg19
S'10.5'
p693
sg21
S'PF'
p694
sg23
S'.579'
p695
sg27
S'NBA'
p696
sg29
S'0.7'
p697
sg31
S'9.9'
p698
sg33
S'5.1'
p699
sg35
S'3.5'
p700
sg37
S'10.7'
p701
sg39
S'24'
p702
sg41
S'GSW'
p703
sg43
S'23'
p704
sg45
S'0.9'
p705
sg47
S'4.2'
p706
sg49
S'2.0'
p707
sg51
S'9.9'
p708
sg53
S'6.4'
p709
sg55
S'2010-11'
p710
sg57
S'4.2'
p711
sg59
S'1.7'
p712
sg61
S'.426'
p713
sg63
S'196'
p714
sg65
g11
sba(isrc.gp1.models.Per36Minutes
Per36Minutes
p715
(dp716
g8
S'2.9'
p717
sg10
S'0.0'
p718
sg12
S'.438'
p719
sg14
S'0.6'
p720
sg16
g17
sg18
S'0.0'
p721
sg19
S'12.0'
p722
sg21
S'PF'
p723
sg23
S'.583'
p724
sg27
S'NBA'
p725
sg29
S'0.0'
p726
sg31
S'9.1'
p727
sg33
S'7.4'
p728
sg35
S'6.9'
p729
sg37
S'12.6'
p730
sg39
S'25'
p731
sg41
S'HOU'
p732
sg43
g81
sg45
S'1.1'
p733
sg47
S'4.0'
p734
sg49
S'4.0'
p735
sg51
S'9.1'
p736
sg53
S'9.7'
p737
sg55
S'2011-12'
p738
sg57
S'4.0'
p739
sg59
S'1.1'
p740
sg61
S'.438'
p741
sg63
S'63'
p742
sg65
g11
sba(isrc.gp1.models.Per36Minutes
Per36Minutes
p743
(dp744
g8
S'3.4'
p745
sg10
S'0.1'
p746
sg12
S'.429'
p747
sg14
S'1.8'
p748
sg16
S'.000'
p749
sg18
S'0.0'
p750
sg19
S'10.6'
p751
sg21
S'PF'
p752
sg23
S'.650'
p753
sg27
S'NBA'
p754
sg29
S'0.9'
p755
sg31
S'8.5'
p756
sg33
S'4.0'
p757
sg35
S'5.0'
p758
sg37
S'9.9'
p759
sg39
S'26'
p760
sg41
S'CHA'
p761
sg43
S'52'
p762
sg45
S'1.4'
p763
sg47
S'3.6'
p764
sg49
S'3.3'
p765
sg51
S'8.4'
p766
sg53
S'6.5'
p767
sg55
S'2012-13'
p768
sg57
S'3.6'
p769
sg59
S'1.6'
p770
sg61
S'.434'
p771
sg63
S'713'
p772
sg65
g46
sba(isrc.gp1.models.Per36Minutes
Per36Minutes
p773
(dp774
g8
S'3.8'
p775
sg10
S'0.0'
p776
sg12
S'.520'
p777
sg14
S'1.4'
p778
sg16
g17
sg18
S'0.0'
p779
sg19
S'13.6'
p780
sg21
S'PF'
p781
sg23
S'.639'
p782
sg27
S'NBA'
p783
sg29
S'0.9'
p784
sg31
S'10.3'
p785
sg33
S'4.0'
p786
sg35
S'4.5'
p787
sg37
S'11.5'
p788
sg39
S'27'
p789
sg41
S'TOT'
p790
sg43
S'53'
p791
sg45
S'1.3'
p792
sg47
S'5.4'
p793
sg49
S'2.8'
p794
sg51
S'10.3'
p795
sg53
S'7.6'
p796
sg55
S'2013-14'
p797
sg57
S'5.4'
p798
sg59
S'1.5'
p799
sg61
S'.520'
p800
sg63
S'961'
p801
sg65
S'12'
p802
sba(isrc.gp1.models.Per36Minutes
Per36Minutes
p803
(dp804
g8
S'4.6'
p805
sg10
S'0.0'
p806
sg12
S'.550'
p807
sg14
S'1.0'
p808
sg16
g17
sg18
S'0.0'
p809
sg19
S'8.0'
p810
sg21
S'PF'
p811
sg23
S'.520'
p812
sg27
S'NBA'
p813
sg29
S'1.0'
p814
sg31
S'5.6'
p815
sg33
S'4.9'
p816
sg35
S'3.5'
p817
sg37
S'12.4'
p818
sg39
S'27'
p819
sg41
S'CHA'
p820
sg43
S'25'
p821
sg45
S'2.1'
p822
sg47
S'3.1'
p823
sg49
S'1.8'
p824
sg51
S'5.6'
p825
sg53
S'7.7'
p826
sg55
S'2013-14'
p827
sg57
S'3.1'
p828
sg59
S'1.1'
p829
sg61
S'.550'
p830
sg63
S'256'
p831
sg65
g11
sba(isrc.gp1.models.Per36Minutes
Per36Minutes
p832
(dp833
g8
S'3.5'
p834
sg10
S'0.0'
p835
sg12
S'.515'
p836
sg14
S'1.6'
p837
sg16
g17
sg18
S'0.0'
p838
sg19
S'15.6'
p839
sg21
S'PF'
p840
sg23
S'.670'
p841
sg27
S'NBA'
p842
sg29
S'0.9'
p843
sg31
S'12.0'
p844
sg33
S'3.7'
p845
sg35
S'4.8'
p846
sg37
S'11.1'
p847
sg39
S'27'
p848
sg41
S'MIL'
p849
sg43
S'28'
p850
sg45
S'1.1'
p851
sg47
S'6.2'
p852
sg49
S'3.2'
p853
sg51
S'12.0'
p854
sg53
S'7.6'
p855
sg55
S'2013-14'
p856
sg57
S'6.2'
p857
sg59
S'1.6'
p858
sg61
S'.515'
p859
sg63
S'705'
p860
sg65
S'12'
p861
sba(isrc.gp1.models.Per36Minutes
Per36Minutes
p862
(dp863
g8
S'3.9'
p864
sg10
S'0.0'
p865
sg12
S'.432'
p866
sg14
S'2.5'
p867
sg16
g17
sg18
S'0.0'
p868
sg19
S'10.0'
p869
sg21
S'PF'
p870
sg23
S'.579'
p871
sg27
S'NBA'
p872
sg29
S'0.7'
p873
sg31
S'7.4'
p874
sg33
S'5.0'
p875
sg35
S'6.4'
p876
sg37
S'12.9'
p877
sg39
S'28'
p878
sg41
S'MIN'
p879
sg43
S'17'
p880
sg45
S'1.5'
p881
sg47
S'3.2'
p882
sg49
S'3.7'
p883
sg51
S'7.4'
p884
sg53
S'9.0'
p885
sg55
S'2014-15'
p886
sg57
S'3.2'
p887
sg59
S'1.5'
p888
sg61
S'.432'
p889
sg63
S'215'
p890
sg65
g11
sbasS'_fromYear'
p891
S'2011'
p892
sS'_url'
p893
S'http://www.basketball-reference.com/players/a/adrieje01.html'
p894
sS'_perGame'
p895
(isrc.gp1.models.PerGame
PerGame
p896
(dp897
g8
S'1.4'
p898
sg10
S'0.0'
p899
sg12
S'.432'
p900
sS'_effectiveFieldGalPercentage'
p901
S'.432'
p902
sg14
S'0.9'
p903
sg16
g17
sg18
S'0.0'
p904
sg19
S'3.5'
p905
sg21
S'PF'
p906
sg23
S'.579'
p907
sg27
S'NBA'
p908
sg29
S'0.2'
p909
sg33
S'1.8'
p910
sS'_fieldGoalsttempted'
p911
S'2.6'
p912
sg35
S'2.2'
p913
sg37
S'4.5'
p914
sg39
S'28'
p915
sg41
S'MIN'
p916
sg43
S'17'
p917
sg45
S'0.5'
p918
sg47
S'1.1'
p919
sg49
S'1.3'
p920
sg51
S'2.6'
p921
sg53
S'3.2'
p922
sg55
S'2014-15'
p923
sg57
S'1.1'
p924
sg59
S'0.5'
p925
sg61
S'.432'
p926
sg63
S'12.6'
p927
sg65
g11
sbsS'_weight'
p928
S'245'
p929
sS'_dob'
p930
S'10-2-1986'
p931
sS'_salary'
p932
(lp933
(isrc.gp1.models.Salary
Salary
p934
(dp935
g41
S'Golden State Warriors'
p936
sg27
S'NBA'
p937
sg932
S'$342,666'
p938
sg55
S'2010-11'
p939
sba(isrc.gp1.models.Salary
Salary
p940
(dp941
g41
S'Houston Rockets'
p942
sg27
S'NBA'
p943
sg932
S'$270,427'
p944
sg55
S'2011-12'
p945
sba(isrc.gp1.models.Salary
Salary
p946
(dp947
g41
S'Charlotte Bobcats'
p948
sg27
S'NBA'
p949
sg932
S'$804,131'
p950
sg55
S'2012-13'
p951
sba(isrc.gp1.models.Salary
Salary
p952
(dp953
g41
S'Charlotte Bobcats'
p954
sg27
S'NBA'
p955
sg932
S'$916,099'
p956
sg55
S'2013-14'
p957
sba(isrc.gp1.models.Salary
Salary
p958
(dp959
g41
S'Houston Rockets'
p960
sg27
S'NBA'
p961
sg932
S'$981,084'
p962
sg55
S'2014-15'
p963
sbasg21
S'F'
p964
sb.