(isrc.gp1.models.Player
Player
p0
(dp1
S'_experience'
p2
V2
p3
sS'_totals'
p4
(lp5
(isrc.gp1.models.Totals
Totals
p6
(dp7
S'_offensiveRebounds'
p8
S'7'
p9
sS'_threePointsAttempted'
p10
S'0'
p11
sS'_fieldGoalsPercentage'
p12
S'.200'
p13
sS'_assist'
p14
S'2'
p15
sS'_threePointsPercentage'
p16
S'NA'
p17
sS'_threePoints'
p18
g11
sS'_points'
p19
S'6'
p20
sS'_position'
p21
S'C'
p22
sS'_freeThrowsPercentage'
p23
S'.000'
p24
sS'_effectiveFieldGoalPercentage'
p25
S'.200'
p26
sS'_league'
p27
S'NBA'
p28
sS'_steals'
p29
g15
sS'_fieldGoalsAttempted'
p30
S'15'
p31
sS'_personalFouls'
p32
S'5'
p33
sS'_freeThrowsAttempted'
p34
g15
sS'_totalRebounds'
p35
S'14'
p36
sS'_age'
p37
S'22'
p38
sS'_team'
p39
S'TOR'
p40
sS'_games'
p41
S'12'
p42
sS'_blocks'
p43
g15
sS'_twoPoints'
p44
S'3'
p45
sS'_freeThrows'
p46
g11
sS'_twoPointsAttempted'
p47
S'15'
p48
sS'_defensiveRebounds'
p49
g9
sS'_season'
p50
S'2010-11'
p51
sS'_fieldGoals'
p52
g45
sS'_turnOvers'
p53
g45
sS'_twoPointsPercentage'
p54
S'.200'
p55
sS'_minutesPlayed'
p56
S'59'
p57
sS'_gamesStarted'
p58
g11
sba(isrc.gp1.models.Totals
Totals
p59
(dp60
g8
S'15'
p61
sg10
g11
sg12
S'.361'
p62
sg14
g45
sg16
g17
sg18
g11
sg19
S'33'
p63
sg21
g22
sg23
S'.875'
p64
sg25
S'.361'
p65
sg27
S'NBA'
p66
sg29
g15
sg30
S'36'
p67
sg32
S'11'
p68
sg34
S'8'
p69
sg35
S'47'
p70
sg37
S'23'
p71
sg39
S'TOR'
p72
sg41
S'14'
p73
sg43
S'9'
p74
sg44
S'13'
p75
sg46
g9
sg47
S'36'
p76
sg49
S'32'
p77
sg50
S'2011-12'
p78
sg52
S'13'
p79
sg53
g33
sg54
S'.361'
p80
sg56
S'122'
p81
sg58
g11
sbasS'_college'
p82
S'Florida State University'
p83
sS'_toYear'
p84
S'2012'
p85
sS'_height'
p86
S'7-1'
p87
sS'_active'
p88
I01
sS'_shootingHand'
p89
VRight
p90
sS'_name'
p91
S'Solomon Alabi'
p92
sS'_per100Possessions'
p93
(lp94
(isrc.gp1.models.Per100Possession
Per100Possession
p95
(dp96
g8
S'6.1'
p97
sg10
S'0.0'
p98
sg12
S'.200'
p99
sS'_offensiveRating'
p100
S'61'
p101
sg14
S'1.8'
p102
sg16
g17
sg18
S'0.0'
p103
sg19
S'5.3'
p104
sg21
g22
sS'_defensiveRating'
p105
S'112'
p106
sg23
S'.000'
p107
sg27
S'NBA'
p108
sg29
S'1.8'
p109
sg30
S'13.1'
p110
sg32
S'4.4'
p111
sg34
S'1.8'
p112
sg35
S'12.3'
p113
sg37
S'22'
p114
sg39
S'TOR'
p115
sg41
S'12'
p116
sg43
S'1.8'
p117
sg44
S'2.6'
p118
sg46
S'0.0'
p119
sg47
S'13.1'
p120
sg49
S'6.1'
p121
sg50
S'2010-11'
p122
sg52
S'2.6'
p123
sg53
S'2.6'
p124
sg54
S'.200'
p125
sg56
S'59'
p126
sg58
g11
sba(isrc.gp1.models.Per100Possession
Per100Possession
p127
(dp128
g8
S'6.6'
p129
sg10
S'0.0'
p130
sg12
S'.361'
p131
sg100
S'95'
p132
sg14
S'1.3'
p133
sg16
g17
sg18
S'0.0'
p134
sg19
S'14.5'
p135
sg21
g22
sg105
S'98'
p136
sg23
S'.875'
p137
sg27
S'NBA'
p138
sg29
S'0.9'
p139
sg30
S'15.9'
p140
sg32
S'4.8'
p141
sg34
S'3.5'
p142
sg35
S'20.7'
p143
sg37
S'23'
p144
sg39
S'TOR'
p145
sg41
S'14'
p146
sg43
S'4.0'
p147
sg44
S'5.7'
p148
sg46
S'3.1'
p149
sg47
S'15.9'
p150
sg49
S'14.1'
p151
sg50
S'2011-12'
p152
sg52
S'5.7'
p153
sg53
S'2.2'
p154
sg54
S'.361'
p155
sg56
S'122'
p156
sg58
g11
sbasS'_advanced'
p157
(lp158
(isrc.gp1.models.Advanced
Advanced
p159
(dp160
S'_offensiveReboundPercentage'
p161
S'13.7'
p162
sS'_turnOverPercentage'
p163
S'15.9'
p164
sS'_winSharesPer48Minutes'
p165
S'-0.142'
p166
sS'_stealPercentage'
p167
S'1.8'
p168
sS'_usagePercentage'
p169
S'14.3'
p170
sS'_totalReboundsPercentage'
p171
S'14.1'
p172
sS'_defensiveBoxPlusMinus'
p173
S'0.0'
p174
sg21
g22
sS'_valueOverReplacementPlayer'
p175
S'-0.1'
p176
sS'_trueShootingPercentage'
p177
S'.189'
p178
sS'_defensiveReboundPercentage'
p179
S'14.4'
p180
sS'_freeThrowsAttempRate'
p181
S'.133'
p182
sS'_threePointsAttempRate'
p183
S'.000'
p184
sg27
S'NBA'
p185
sS'_offensiveBoxPlusMinues'
p186
S'-8.2'
p187
sS'_assistPercentage'
p188
S'4.6'
p189
sS'_defensiveWinShares'
p190
S'0.0'
p191
sg37
S'22'
p192
sg39
S'TOR'
p193
sg41
S'12'
p194
sS'_blockPercentage'
p195
S'2.6'
p196
sS'_playerEfficiencyRating'
p197
S'2.0'
p198
sS'_offensiveWinShares'
p199
S'-0.2'
p200
sg56
S'59'
p201
sS'_boxPlusMinus'
p202
S'-8.2'
p203
sg50
S'2010-11'
p204
sS'_winShares'
p205
S'-0.2'
p206
sba(isrc.gp1.models.Advanced
Advanced
p207
(dp208
g161
S'14.6'
p209
sg163
S'11.2'
p210
sg165
S'.083'
p211
sg167
S'0.9'
p212
sg169
S'17.2'
p213
sg171
S'22.6'
p214
sg173
S'1.5'
p215
sg21
g22
sg175
S'-0.1'
p216
sg177
S'.418'
p217
sg179
S'30.4'
p218
sg181
S'.222'
p219
sg183
S'.000'
p220
sg27
S'NBA'
p221
sg186
S'-5.6'
p222
sg188
S'4.1'
p223
sg190
S'0.2'
p224
sg37
S'23'
p225
sg39
S'TOR'
p226
sg41
S'14'
p227
sg195
S'6.0'
p228
sg197
S'14.2'
p229
sg199
S'0.0'
p230
sg56
S'122'
p231
sg202
S'-4.1'
p232
sg50
S'2011-12'
p233
sg205
S'0.2'
p234
sbasS'_per36Minutes'
p235
(lp236
(isrc.gp1.models.Per36Minutes
Per36Minutes
p237
(dp238
g8
S'4.3'
p239
sg10
S'0.0'
p240
sg12
S'.200'
p241
sg14
S'1.2'
p242
sg16
g17
sg18
S'0.0'
p243
sg19
S'3.7'
p244
sg21
g22
sg23
S'.000'
p245
sg27
S'NBA'
p246
sg29
S'1.2'
p247
sg30
S'9.2'
p248
sg32
S'3.1'
p249
sg34
S'1.2'
p250
sg35
S'8.5'
p251
sg37
S'22'
p252
sg39
S'TOR'
p253
sg41
S'12'
p254
sg43
S'1.2'
p255
sg44
S'1.8'
p256
sg46
S'0.0'
p257
sg47
S'9.2'
p258
sg49
S'4.3'
p259
sg50
S'2010-11'
p260
sg52
S'1.8'
p261
sg53
S'1.8'
p262
sg54
S'.200'
p263
sg56
S'59'
p264
sg58
g11
sba(isrc.gp1.models.Per36Minutes
Per36Minutes
p265
(dp266
g8
S'4.4'
p267
sg10
S'0.0'
p268
sg12
S'.361'
p269
sg14
S'0.9'
p270
sg16
g17
sg18
S'0.0'
p271
sg19
S'9.7'
p272
sg21
g22
sg23
S'.875'
p273
sg27
S'NBA'
p274
sg29
S'0.6'
p275
sg30
S'10.6'
p276
sg32
S'3.2'
p277
sg34
S'2.4'
p278
sg35
S'13.9'
p279
sg37
S'23'
p280
sg39
S'TOR'
p281
sg41
S'14'
p282
sg43
S'2.7'
p283
sg44
S'3.8'
p284
sg46
S'2.1'
p285
sg47
S'10.6'
p286
sg49
S'9.4'
p287
sg50
S'2011-12'
p288
sg52
S'3.8'
p289
sg53
S'1.5'
p290
sg54
S'.361'
p291
sg56
S'122'
p292
sg58
g11
sbasS'_fromYear'
p293
S'2011'
p294
sS'_url'
p295
S'http://www.basketball-reference.com/players/a/alabiso01.html'
p296
sS'_perGame'
p297
(isrc.gp1.models.PerGame
PerGame
p298
(dp299
g8
S'1.1'
p300
sg10
S'0.0'
p301
sg12
S'.361'
p302
sS'_effectiveFieldGalPercentage'
p303
S'.361'
p304
sg14
S'0.2'
p305
sg16
g17
sg18
S'0.0'
p306
sg19
S'2.4'
p307
sg21
g22
sg23
S'.875'
p308
sg27
S'NBA'
p309
sg29
S'0.1'
p310
sg32
S'0.8'
p311
sS'_fieldGoalsttempted'
p312
S'2.6'
p313
sg34
S'0.6'
p314
sg35
S'3.4'
p315
sg37
S'23'
p316
sg39
S'TOR'
p317
sg41
S'14'
p318
sg43
S'0.6'
p319
sg44
S'0.9'
p320
sg46
S'0.5'
p321
sg47
S'2.6'
p322
sg49
S'2.3'
p323
sg50
S'2011-12'
p324
sg52
S'0.9'
p325
sg53
S'0.4'
p326
sg54
S'.361'
p327
sg56
S'8.7'
p328
sg58
g11
sbsS'_weight'
p329
S'251'
p330
sS'_dob'
p331
S'21-3-1988'
p332
sS'_salary'
p333
(lp334
(isrc.gp1.models.Salary
Salary
p335
(dp336
g39
S'Toronto Raptors'
p337
sg27
S'NBA'
p338
sg333
S'$770,000'
p339
sg50
S'2010-11'
p340
sba(isrc.gp1.models.Salary
Salary
p341
(dp342
g39
S'Toronto Raptors'
p343
sg27
S'NBA'
p344
sg333
S'$830,000'
p345
sg50
S'2011-12'
p346
sbasg21
g22
sb.