(isrc.gp1.models.Player
Player
p0
(dp1
S'_experience'
p2
S'NA'
p3
sS'_totals'
p4
(lp5
(isrc.gp1.models.Totals
Totals
p6
(dp7
S'_offensiveRebounds'
p8
S'19'
p9
sS'_threePointsAttempted'
p10
S'22'
p11
sS'_fieldGoalsPercentage'
p12
S'0'
p13
sS'_assist'
p14
S'9'
p15
sS'_threePointsPercentage'
p16
S'59'
p17
sS'_threePoints'
p18
g13
sS'_points'
p19
g3
sS'_position'
p20
S'SG'
p21
sS'_freeThrowsPercentage'
p22
S'11'
p23
sS'_effectiveFieldGoalPercentage'
p24
S'10'
p25
sS'_league'
p26
S'NBA'
p27
sS'_steals'
p28
S'11'
p29
sS'_fieldGoalsAttempted'
p30
S'.373'
p31
sS'_personalFouls'
p32
g3
sS'_freeThrowsAttempted'
p33
S'8'
p34
sS'_totalRebounds'
p35
S'1'
p36
sS'_age'
p37
S'23'
p38
sS'_team'
p39
S'LAL'
p40
sS'_games'
p41
S'22'
p42
sS'_blocks'
p43
S'13'
p44
sS'_twoPoints'
p45
S'.373'
p46
sS'_freeThrows'
p47
S'.700'
p48
sS'_twoPointsAttempted'
p49
S'.373'
p50
sS'_defensiveRebounds'
p51
S'3'
p52
sS'_season'
p53
S'1980-81'
p54
sS'_fieldGoals'
p55
S'59'
p56
sS'_turnOvers'
p57
S'51'
p58
sS'_twoPointsPercentage'
p59
S'7'
p60
sS'_minutesPlayed'
p61
S'22'
p62
sS'_gamesStarted'
p63
S'111'
p64
sba(isrc.gp1.models.Totals
Totals
p65
(dp66
g8
S'14'
p67
sg10
S'5'
p68
sg12
S'.456'
p69
sg14
S'20'
p70
sg16
S'.000'
p71
sg18
g13
sg19
S'142'
p72
sg20
S'SG'
p73
sg22
S'.621'
p74
sg24
S'.456'
p75
sg26
S'NBA'
p76
sg28
g15
sg30
S'136'
p77
sg32
S'32'
p78
sg33
S'29'
p79
sg35
S'34'
p80
sg37
S'24'
p81
sg39
S'DET'
p82
sg41
S'38'
p83
sg43
S'4'
p84
sg45
S'62'
p85
sg47
S'18'
p86
sg49
S'131'
p87
sg51
S'20'
p88
sg53
S'1981-82'
p89
sg55
S'62'
p90
sg57
S'20'
p91
sg59
S'.473'
p92
sg61
S'310'
p93
sg63
g13
sbasS'_college'
p94
S'University of Michigan'
p95
sS'_toYear'
p96
S'1982'
p97
sS'_height'
p98
S'6-7'
p99
sS'_active'
p100
I00
sS'_shootingHand'
p101
VRight
p102
sS'_name'
p103
S'Alan Hardy'
p104
sS'_per100Possessions'
p105
(lp106
(isrc.gp1.models.Per100Possession
Per100Possession
p107
(dp108
g8
S'8.0'
p109
sg10
S'9.3'
p110
sg12
S'0.0'
p111
sS'_offensiveRating'
p112
g3
sg14
S'3.8'
p113
sg16
S'24.8'
p114
sg18
S'0.0'
p115
sg19
S'106'
p116
sg20
S'SG'
p117
sS'_defensiveRating'
p118
g3
sg22
S'4.6'
p119
sg26
S'NBA'
p120
sg28
S'4.6'
p121
sg30
S'.373'
p122
sg32
S'81'
p123
sg33
S'3.4'
p124
sg35
S'0.4'
p125
sg37
S'23'
p126
sg39
S'LAL'
p127
sg41
S'22'
p128
sg43
S'5.5'
p129
sg45
S'.373'
p130
sg47
S'.700'
p131
sg49
S'2.9'
p132
sg51
S'1.3'
p133
sg53
S'1980-81'
p134
sg55
S'24.8'
p135
sg57
S'21.5'
p136
sg59
S'4.2'
p137
sg61
S'9.3'
p138
sg63
S'111'
p139
sba(isrc.gp1.models.Per100Possession
Per100Possession
p140
(dp141
g8
S'2.1'
p142
sg10
S'0.7'
p143
sg12
S'.456'
p144
sg112
S'97'
p145
sg14
S'3.0'
p146
sg16
S'.000'
p147
sg18
S'0.0'
p148
sg19
S'21.1'
p149
sg20
S'SG'
p150
sg118
S'110'
p151
sg22
S'.621'
p152
sg26
S'NBA'
p153
sg28
S'1.3'
p154
sg30
S'20.2'
p155
sg32
S'4.8'
p156
sg33
S'4.3'
p157
sg35
S'5.0'
p158
sg37
S'24'
p159
sg39
S'DET'
p160
sg41
S'38'
p161
sg43
S'0.6'
p162
sg45
S'9.2'
p163
sg47
S'2.7'
p164
sg49
S'19.5'
p165
sg51
S'3.0'
p166
sg53
S'1981-82'
p167
sg55
S'9.2'
p168
sg57
S'3.0'
p169
sg59
S'.473'
p170
sg61
S'310'
p171
sg63
g13
sbasS'_advanced'
p172
(lp173
(isrc.gp1.models.Advanced
Advanced
p174
(dp175
S'_offensiveReboundPercentage'
p176
S'8.3'
p177
sS'_turnOverPercentage'
p178
S'14.8'
p179
sS'_winSharesPer48Minutes'
p180
S'-0.072'
p181
sS'_stealPercentage'
p182
S'0.4'
p183
sS'_usagePercentage'
p184
S'26.9'
p185
sS'_totalReboundsPercentage'
p186
S'9.3'
p187
sS'_defensiveBoxPlusMinus'
p188
S'-3.0'
p189
sg20
S'SG'
p190
sS'_valueOverReplacementPlayer'
p191
S'-0.3'
p192
sS'_trueShootingPercentage'
p193
S'.402'
p194
sS'_defensiveReboundPercentage'
p195
S'10.1'
p196
sS'_freeThrowsAttempRate'
p197
S'.169'
p198
sS'_threePointsAttempRate'
p199
S'.000'
p200
sg26
S'NBA'
p201
sS'_offensiveBoxPlusMinues'
p202
S'-8.3'
p203
sS'_assistPercentage'
p204
S'3.6'
p205
sS'_defensiveWinShares'
p206
S'0.1'
p207
sg37
S'23'
p208
sg39
S'LAL'
p209
sg41
S'22'
p210
sS'_blockPercentage'
p211
S'4.3'
p212
sS'_playerEfficiencyRating'
p213
S'7.5'
p214
sS'_offensiveWinShares'
p215
S'-0.3'
p216
sg61
S'111'
p217
sS'_boxPlusMinus'
p218
S'-11.3'
p219
sg53
S'1980-81'
p220
sS'_winShares'
p221
S'-0.2'
p222
sba(isrc.gp1.models.Advanced
Advanced
p223
(dp224
g176
S'4.8'
p225
sg178
S'11.9'
p226
sg180
S'.028'
p227
sg182
S'1.3'
p228
sg184
S'21.3'
p229
sg186
S'6.0'
p230
sg188
S'-2.6'
p231
sg20
S'SG'
p232
sg191
S'-0.3'
p233
sg193
S'.477'
p234
sg195
S'7.3'
p235
sg197
S'.213'
p236
sg199
S'.037'
p237
sg26
S'NBA'
p238
sg202
S'-3.0'
p239
sg204
S'9.2'
p240
sg206
S'0.2'
p241
sg37
S'24'
p242
sg39
S'DET'
p243
sg41
S'38'
p244
sg211
S'0.7'
p245
sg213
S'10.5'
p246
sg215
S'0.0'
p247
sg61
S'310'
p248
sg218
S'-5.6'
p249
sg53
S'1981-82'
p250
sg221
S'0.2'
p251
sbasS'_per36Minutes'
p252
(lp253
(isrc.gp1.models.Per36Minutes
Per36Minutes
p254
(dp255
g8
S'6.2'
p256
sg10
S'7.1'
p257
sg12
S'0.0'
p258
sg14
S'2.9'
p259
sg16
S'19.1'
p260
sg18
S'0.0'
p261
sg19
g3
sg20
S'SG'
p262
sg22
S'3.6'
p263
sg26
S'NBA'
p264
sg28
S'3.6'
p265
sg30
S'.373'
p266
sg32
g3
sg33
S'2.6'
p267
sg35
S'0.3'
p268
sg37
S'23'
p269
sg39
S'LAL'
p270
sg41
S'22'
p271
sg43
S'4.2'
p272
sg45
S'.373'
p273
sg47
S'.700'
p274
sg49
S'2.3'
p275
sg51
S'1.0'
p276
sg53
S'1980-81'
p277
sg55
S'19.1'
p278
sg57
S'16.5'
p279
sg59
S'3.2'
p280
sg61
S'7.1'
p281
sg63
S'111'
p282
sba(isrc.gp1.models.Per36Minutes
Per36Minutes
p283
(dp284
g8
S'1.6'
p285
sg10
S'0.6'
p286
sg12
S'.456'
p287
sg14
S'2.3'
p288
sg16
S'.000'
p289
sg18
S'0.0'
p290
sg19
S'16.5'
p291
sg20
S'SG'
p292
sg22
S'.621'
p293
sg26
S'NBA'
p294
sg28
S'1.0'
p295
sg30
S'15.8'
p296
sg32
S'3.7'
p297
sg33
S'3.4'
p298
sg35
S'3.9'
p299
sg37
S'24'
p300
sg39
S'DET'
p301
sg41
S'38'
p302
sg43
S'0.5'
p303
sg45
S'7.2'
p304
sg47
S'2.1'
p305
sg49
S'15.2'
p306
sg51
S'2.3'
p307
sg53
S'1981-82'
p308
sg55
S'7.2'
p309
sg57
S'2.3'
p310
sg59
S'.473'
p311
sg61
S'310'
p312
sg63
g13
sbasS'_fromYear'
p313
S'1981'
p314
sS'_url'
p315
S'http://www.basketball-reference.com/players/h/hardyal01.html'
p316
sS'_perGame'
p317
(isrc.gp1.models.PerGame
PerGame
p318
(dp319
g8
S'0.4'
p320
sg10
S'0.1'
p321
sg12
S'.456'
p322
sS'_effectiveFieldGalPercentage'
p323
S'.456'
p324
sg14
S'0.5'
p325
sg16
S'.000'
p326
sg18
S'0.0'
p327
sg19
S'3.7'
p328
sg20
S'SG'
p329
sg22
S'.621'
p330
sg26
S'NBA'
p331
sg28
S'0.2'
p332
sg32
S'0.8'
p333
sS'_fieldGoalsttempted'
p334
S'3.6'
p335
sg33
S'0.8'
p336
sg35
S'0.9'
p337
sg37
S'24'
p338
sg39
S'DET'
p339
sg41
S'38'
p340
sg43
S'0.1'
p341
sg45
S'1.6'
p342
sg47
S'0.5'
p343
sg49
S'3.4'
p344
sg51
S'0.5'
p345
sg53
S'1981-82'
p346
sg55
S'1.6'
p347
sg57
S'0.5'
p348
sg59
S'.473'
p349
sg61
S'8.2'
p350
sg63
g13
sbsS'_weight'
p351
S'195'
p352
sS'_dob'
p353
S'25-5-1957'
p354
sS'_salary'
p355
(lp356
sg20
S'F'
p357
sb.