(isrc.gp1.models.Player
Player
p0
(dp1
S'_experience'
p2
S'NA'
p3
sS'_totals'
p4
(lp5
(isrc.gp1.models.Totals
Totals
p6
(dp7
S'_offensiveRebounds'
p8
S'29'
p9
sS'_threePointsAttempted'
p10
S'23'
p11
sS'_fieldGoalsPercentage'
p12
S'0'
p13
sS'_assist'
p14
g3
sS'_threePointsPercentage'
p15
S'.522'
p16
sS'_threePoints'
p17
S'12'
p18
sS'_points'
p19
g3
sS'_position'
p20
S'12'
p21
sS'_freeThrowsPercentage'
p22
S'12'
p23
sS'_effectiveFieldGoalPercentage'
p24
S'.545'
p25
sS'_league'
p26
S'ABA'
p27
sS'_steals'
p28
g3
sS'_fieldGoalsAttempted'
p29
g13
sS'_personalFouls'
p30
g3
sS'_freeThrowsAttempted'
p31
g13
sS'_totalRebounds'
p32
g3
sS'_age'
p33
S'25'
p34
sS'_team'
p35
S'NJA'
p36
sS'_games'
p37
S'118'
p38
sS'_blocks'
p39
g3
sS'_twoPoints'
p40
S'.522'
p41
sS'_freeThrows'
p42
S'46'
p43
sS'_twoPointsAttempted'
p44
S'6'
p45
sS'_defensiveRebounds'
p46
S'30'
p47
sS'_season'
p48
S'1967-68'
p49
sS'_fieldGoals'
p50
S'.522'
p51
sS'_turnOvers'
p52
g3
sS'_twoPointsPercentage'
p53
S'11'
p54
sS'_minutesPlayed'
p55
S'23'
p56
sS'_gamesStarted'
p57
S'12'
p58
sbasS'_college'
p59
S'Norfolk State University'
p60
sS'_toYear'
p61
S'1968'
p62
sS'_height'
p63
S'6-9'
p64
sS'_active'
p65
I00
sS'_shootingHand'
p66
VRight
p67
sS'_name'
p68
S'Al Beard'
p69
sS'_per100Possessions'
p70
(lp71
sS'_advanced'
p72
(lp73
(isrc.gp1.models.Advanced
Advanced
p74
(dp75
S'_offensiveReboundPercentage'
p76
S'0.0'
p77
sS'_turnOverPercentage'
p78
S'.107'
p79
sS'_winSharesPer48Minutes'
p80
g3
sS'_stealPercentage'
p81
S'0.1'
p82
sS'_usagePercentage'
p83
g3
sS'_totalReboundsPercentage'
p84
S'12.4'
p85
sS'_defensiveBoxPlusMinus'
p86
g3
sg20
S'12'
p87
sS'_valueOverReplacementPlayer'
p88
g3
sS'_trueShootingPercentage'
p89
S'.000'
p90
sS'_defensiveReboundPercentage'
p91
S'30.1'
p92
sS'_freeThrowsAttempRate'
p93
S'17.2'
p94
sS'_threePointsAttempRate'
p95
S'.478'
p96
sg26
S'ABA'
p97
sS'_offensiveBoxPlusMinues'
p98
g3
sS'_assistPercentage'
p99
S'0.1'
p100
sS'_defensiveWinShares'
p101
g3
sg33
S'25'
p102
sg35
S'NJA'
p103
sg37
S'118'
p104
sS'_blockPercentage'
p105
S'0.3'
p106
sS'_playerEfficiencyRating'
p107
S'.539'
p108
sS'_offensiveWinShares'
p109
g3
sg55
S'6.3'
p110
sS'_boxPlusMinus'
p111
g3
sg48
S'1967-68'
p112
sS'_winShares'
p113
g3
sbasS'_per36Minutes'
p114
(lp115
(isrc.gp1.models.Per36Minutes
Per36Minutes
p116
(dp117
g8
S'8.8'
p118
sg10
S'7.0'
p119
sg12
S'0.0'
p120
sg14
g3
sg15
S'.522'
p121
sg17
S'3.7'
p122
sg19
g3
sg20
S'12'
p123
sg22
S'3.7'
p124
sg26
S'ABA'
p125
sg28
g3
sg29
S'0.0'
p126
sg30
g3
sg31
S'0.0'
p127
sg32
g3
sg33
S'25'
p128
sg35
S'NJA'
p129
sg37
S'118'
p130
sg39
g3
sg40
S'1.8'
p131
sg42
S'14.0'
p132
sg44
S'3.4'
p133
sg46
S'9.2'
p134
sg48
S'1967-68'
p135
sg50
S'.522'
p136
sg52
g3
sg53
S'.545'
p137
sg55
S'7.0'
p138
sg57
S'3.7'
p139
sbasS'_fromYear'
p140
S'1968'
p141
sS'_url'
p142
S'http://www.basketball-reference.com/players/b/beardal01.html'
p143
sS'_perGame'
p144
(isrc.gp1.models.PerGame
PerGame
p145
(dp146
g8
S'2.4'
p147
sg10
S'1.9'
p148
sg12
S'0.0'
p149
sS'_effectiveFieldGalPercentage'
p150
S'.545'
p151
sg14
g3
sg15
S'.522'
p152
sg17
S'1.0'
p153
sg19
g3
sg20
S'12'
p154
sg22
S'1.0'
p155
sg26
S'ABA'
p156
sg28
g3
sg30
g3
sS'_fieldGoalsttempted'
p157
S'0.0'
p158
sg31
S'0.0'
p159
sg32
g3
sg33
S'25'
p160
sg35
S'NJA'
p161
sg37
S'9.8'
p162
sg39
g3
sg40
S'.522'
p163
sg42
S'3.8'
p164
sg44
S'0.5'
p165
sg46
S'2.5'
p166
sg48
S'1967-68'
p167
sg50
S'.522'
p168
sg52
g3
sg53
S'0.9'
p169
sg55
S'1.9'
p170
sg57
S'1.0'
p171
sbsS'_weight'
p172
S'200'
p173
sS'_dob'
p174
S'27-4-1942'
p175
sS'_salary'
p176
(lp177
sg20
S'C'
p178
sb.