(isrc.gp1.models.Player
Player
p0
(dp1
S'_experience'
p2
V5
p3
sS'_totals'
p4
(lp5
(isrc.gp1.models.Totals
Totals
p6
(dp7
S'_offensiveRebounds'
p8
S'13'
p9
sS'_threePointsAttempted'
p10
S'0'
p11
sS'_fieldGoalsPercentage'
p12
S'.533'
p13
sS'_assist'
p14
S'4'
p15
sS'_threePointsPercentage'
p16
S'NA'
p17
sS'_threePoints'
p18
g11
sS'_points'
p19
S'18'
p20
sS'_position'
p21
S'C'
p22
sS'_freeThrowsPercentage'
p23
S'.500'
p24
sS'_effectiveFieldGoalPercentage'
p25
S'.533'
p26
sS'_league'
p27
S'NBA'
p28
sS'_steals'
p29
S'5'
p30
sS'_fieldGoalsAttempted'
p31
S'15'
p32
sS'_personalFouls'
p33
S'30'
p34
sS'_freeThrowsAttempted'
p35
g15
sS'_totalRebounds'
p36
S'35'
p37
sS'_age'
p38
S'22'
p39
sS'_team'
p40
S'OKC'
p41
sS'_games'
p42
S'18'
p43
sS'_blocks'
p44
S'7'
p45
sS'_twoPoints'
p46
S'8'
p47
sS'_freeThrows'
p48
S'2'
p49
sS'_twoPointsAttempted'
p50
S'15'
p51
sS'_defensiveRebounds'
p52
S'22'
p53
sS'_season'
p54
S'2010-11'
p55
sS'_fieldGoals'
p56
g47
sS'_turnOvers'
p57
g47
sS'_twoPointsPercentage'
p58
S'.533'
p59
sS'_minutesPlayed'
p60
S'142'
p61
sS'_gamesStarted'
p62
g11
sba(isrc.gp1.models.Totals
Totals
p63
(dp64
g8
S'13'
p65
sg10
g11
sg12
S'.524'
p66
sg14
S'3'
p67
sg16
g17
sg18
g11
sg19
S'57'
p68
sg21
g22
sg23
S'.929'
p69
sg25
S'.524'
p70
sg27
S'NBA'
p71
sg29
g47
sg31
S'42'
p72
sg33
S'22'
p73
sg35
S'14'
p74
sg36
S'48'
p75
sg38
S'23'
p76
sg40
S'OKC'
p77
sg42
S'26'
p78
sg44
S'16'
p79
sg46
S'22'
p80
sg48
S'13'
p81
sg50
S'42'
p82
sg52
S'35'
p83
sg54
S'2011-12'
p84
sg56
S'22'
p85
sg57
S'9'
p86
sg58
S'.524'
p87
sg60
S'173'
p88
sg62
g11
sba(isrc.gp1.models.Totals
Totals
p89
(dp90
g8
S'30'
p91
sg10
g11
sg12
S'.550'
p92
sg14
g86
sg16
g17
sg18
g11
sg19
S'100'
p93
sg21
g22
sg23
S'.600'
p94
sg25
S'.550'
p95
sg27
S'NBA'
p96
sg29
g30
sg31
S'80'
p97
sg33
S'60'
p98
sg35
S'20'
p99
sg36
S'120'
p100
sg38
S'24'
p101
sg40
S'TOT'
p102
sg42
S'45'
p103
sg44
S'23'
p104
sg46
S'44'
p105
sg48
S'12'
p106
sg50
S'80'
p107
sg52
S'90'
p108
sg54
S'2012-13'
p109
sg56
S'44'
p110
sg57
S'23'
p111
sg58
S'.550'
p112
sg60
S'388'
p113
sg62
g11
sba(isrc.gp1.models.Totals
Totals
p114
(dp115
g8
S'12'
p116
sg10
g11
sg12
S'.535'
p117
sg14
S'6'
p118
sg16
g17
sg18
g11
sg19
S'50'
p119
sg21
g22
sg23
S'.444'
p120
sg25
S'.535'
p121
sg27
S'NBA'
p122
sg29
g67
sg31
S'43'
p123
sg33
S'41'
p124
sg35
g86
sg36
S'57'
p125
sg38
S'24'
p126
sg40
S'HOU'
p127
sg42
S'30'
p128
sg44
g86
sg46
S'23'
p129
sg48
g15
sg50
S'43'
p130
sg52
S'45'
p131
sg54
S'2012-13'
p132
sg56
S'23'
p133
sg57
S'14'
p134
sg58
S'.535'
p135
sg60
S'213'
p136
sg62
g11
sba(isrc.gp1.models.Totals
Totals
p137
(dp138
g8
S'18'
p139
sg10
g11
sg12
S'.568'
p140
sg14
g67
sg16
g17
sg18
g11
sg19
S'50'
p141
sg21
g22
sg23
S'.727'
p142
sg25
S'.568'
p143
sg27
S'NBA'
p144
sg29
g49
sg31
S'37'
p145
sg33
S'19'
p146
sg35
S'11'
p147
sg36
S'63'
p148
sg38
S'24'
p149
sg40
S'SAC'
p150
sg42
S'15'
p151
sg44
S'14'
p152
sg46
S'21'
p153
sg48
g47
sg50
S'37'
p154
sg52
S'45'
p155
sg54
S'2012-13'
p156
sg56
S'21'
p157
sg57
g86
sg58
S'.568'
p158
sg60
S'175'
p159
sg62
g11
sba(isrc.gp1.models.Totals
Totals
p160
(dp161
g8
S'37'
p162
sg10
g11
sg12
S'.541'
p163
sg14
S'14'
p164
sg16
g17
sg18
g11
sg19
S'92'
p165
sg21
g22
sg23
S'.867'
p166
sg25
S'.541'
p167
sg27
S'NBA'
p168
sg29
g47
sg31
S'61'
p169
sg33
S'40'
p170
sg35
S'30'
p171
sg36
S'129'
p172
sg38
S'25'
p173
sg40
S'NYK'
p174
sg42
S'46'
p175
sg44
S'30'
p176
sg46
S'33'
p177
sg48
S'26'
p178
sg50
S'61'
p179
sg52
S'92'
p180
sg54
S'2013-14'
p181
sg56
S'33'
p182
sg57
S'18'
p183
sg58
S'.541'
p184
sg60
S'330'
p185
sg62
g49
sba(isrc.gp1.models.Totals
Totals
p186
(dp187
g8
S'101'
p188
sg10
g11
sg12
S'.478'
p189
sg14
S'75'
p190
sg16
g17
sg18
g11
sg19
S'338'
p191
sg21
g22
sg23
S'.781'
p192
sg25
S'.478'
p193
sg27
S'NBA'
p194
sg29
S'37'
p195
sg31
S'301'
p196
sg33
S'122'
p197
sg35
S'64'
p198
sg36
S'338'
p199
sg38
S'26'
p200
sg40
S'NYK'
p201
sg42
S'61'
p202
sg44
S'65'
p203
sg46
S'144'
p204
sg48
S'50'
p205
sg50
S'301'
p206
sg52
S'237'
p207
sg54
S'2014-15'
p208
sg56
S'144'
p209
sg57
S'59'
p210
sg58
S'.478'
p211
sg60
S'976'
p212
sg62
S'16'
p213
sba(isrc.gp1.models.Totals
Totals
p214
(dp215
g8
S'28'
p216
sg10
g11
sg12
S'.519'
p217
sg14
S'25'
p218
sg16
g17
sg18
g11
sg19
S'148'
p219
sg21
g22
sg23
S'.692'
p220
sg25
S'.519'
p221
sg27
S'NBA'
p222
sg29
S'17'
p223
sg31
S'108'
p224
sg33
S'56'
p225
sg35
S'52'
p226
sg36
S'100'
p227
sg38
S'27'
p228
sg40
S'LAC'
p229
sg42
S'27'
p230
sg44
S'19'
p231
sg46
S'56'
p232
sg48
S'36'
p233
sg50
S'108'
p234
sg52
S'72'
p235
sg54
S'2015-16'
p236
sg56
S'56'
p237
sg57
S'22'
p238
sg58
S'.519'
p239
sg60
S'315'
p240
sg62
g49
sbasS'_college'
p241
S'University of Kansas'
p242
sS'_toYear'
p243
S'2016'
p244
sS'_height'
p245
S'6-11'
p246
sS'_active'
p247
I01
sS'_shootingHand'
p248
VRight
p249
sS'_name'
p250
S'Cole Aldrich'
p251
sS'_per100Possessions'
p252
(lp253
(isrc.gp1.models.Per100Possession
Per100Possession
p254
(dp255
g8
S'4.7'
p256
sg10
S'0.0'
p257
sg12
S'.533'
p258
sS'_offensiveRating'
p259
S'98'
p260
sg14
S'1.5'
p261
sg16
g17
sg18
S'0.0'
p262
sg19
S'6.6'
p263
sg21
g22
sS'_defensiveRating'
p264
S'104'
p265
sg23
S'.500'
p266
sg27
S'NBA'
p267
sg29
S'1.8'
p268
sg31
S'5.5'
p269
sg33
S'10.9'
p270
sg35
S'1.5'
p271
sg36
S'12.8'
p272
sg38
S'22'
p273
sg40
S'OKC'
p274
sg42
S'18'
p275
sg44
S'2.6'
p276
sg46
S'2.9'
p277
sg48
S'0.7'
p278
sg50
S'5.5'
p279
sg52
S'8.0'
p280
sg54
S'2010-11'
p281
sg56
S'2.9'
p282
sg57
S'2.9'
p283
sg58
S'.533'
p284
sg60
S'142'
p285
sg62
g11
sba(isrc.gp1.models.Per100Possession
Per100Possession
p286
(dp287
g8
S'3.9'
p288
sg10
S'0.0'
p289
sg12
S'.524'
p290
sg259
S'113'
p291
sg14
S'0.9'
p292
sg16
g17
sg18
S'0.0'
p293
sg19
S'17.0'
p294
sg21
g22
sg264
S'96'
p295
sg23
S'.929'
p296
sg27
S'NBA'
p297
sg29
S'2.4'
p298
sg31
S'12.5'
p299
sg33
S'6.6'
p300
sg35
S'4.2'
p301
sg36
S'14.3'
p302
sg38
S'23'
p303
sg40
S'OKC'
p304
sg42
S'26'
p305
sg44
S'4.8'
p306
sg46
S'6.6'
p307
sg48
S'3.9'
p308
sg50
S'12.5'
p309
sg52
S'10.4'
p310
sg54
S'2011-12'
p311
sg56
S'6.6'
p312
sg57
S'2.7'
p313
sg58
S'.524'
p314
sg60
S'173'
p315
sg62
g11
sba(isrc.gp1.models.Per100Possession
Per100Possession
p316
(dp317
g8
S'3.9'
p318
sg10
S'0.0'
p319
sg12
S'.550'
p320
sg259
S'102'
p321
sg14
S'1.2'
p322
sg16
g17
sg18
S'0.0'
p323
sg19
S'13.0'
p324
sg21
g22
sg264
S'105'
p325
sg23
S'.600'
p326
sg27
S'NBA'
p327
sg29
S'0.7'
p328
sg31
S'10.4'
p329
sg33
S'7.8'
p330
sg35
S'2.6'
p331
sg36
S'15.6'
p332
sg38
S'24'
p333
sg40
S'TOT'
p334
sg42
S'45'
p335
sg44
S'3.0'
p336
sg46
S'5.7'
p337
sg48
S'1.6'
p338
sg50
S'10.4'
p339
sg52
S'11.7'
p340
sg54
S'2012-13'
p341
sg56
S'5.7'
p342
sg57
S'3.0'
p343
sg58
S'.550'
p344
sg60
S'388'
p345
sg62
g11
sba(isrc.gp1.models.Per100Possession
Per100Possession
p346
(dp347
g8
S'2.8'
p348
sg10
S'0.0'
p349
sg12
S'.535'
p350
sg259
S'92'
p351
sg14
S'1.4'
p352
sg16
g17
sg18
S'0.0'
p353
sg19
S'11.7'
p354
sg21
g22
sg264
S'105'
p355
sg23
S'.444'
p356
sg27
S'NBA'
p357
sg29
S'0.7'
p358
sg31
S'10.1'
p359
sg33
S'9.6'
p360
sg35
S'2.1'
p361
sg36
S'13.4'
p362
sg38
S'24'
p363
sg40
S'HOU'
p364
sg42
S'30'
p365
sg44
S'2.1'
p366
sg46
S'5.4'
p367
sg48
S'0.9'
p368
sg50
S'10.1'
p369
sg52
S'10.6'
p370
sg54
S'2012-13'
p371
sg56
S'5.4'
p372
sg57
S'3.3'
p373
sg58
S'.535'
p374
sg60
S'213'
p375
sg62
g11
sba(isrc.gp1.models.Per100Possession
Per100Possession
p376
(dp377
g8
S'5.3'
p378
sg10
S'0.0'
p379
sg12
S'.568'
p380
sg259
S'112'
p381
sg14
S'0.9'
p382
sg16
g17
sg18
S'0.0'
p383
sg19
S'14.6'
p384
sg21
g22
sg264
S'106'
p385
sg23
S'.727'
p386
sg27
S'NBA'
p387
sg29
S'0.6'
p388
sg31
S'10.8'
p389
sg33
S'5.6'
p390
sg35
S'3.2'
p391
sg36
S'18.5'
p392
sg38
S'24'
p393
sg40
S'SAC'
p394
sg42
S'15'
p395
sg44
S'4.1'
p396
sg46
S'6.2'
p397
sg48
S'2.3'
p398
sg50
S'10.8'
p399
sg52
S'13.2'
p400
sg54
S'2012-13'
p401
sg56
S'6.2'
p402
sg57
S'2.6'
p403
sg58
S'.568'
p404
sg60
S'175'
p405
sg62
g11
sba(isrc.gp1.models.Per100Possession
Per100Possession
p406
(dp407
g8
S'6.0'
p408
sg10
S'0.0'
p409
sg12
S'.541'
p410
sg259
S'120'
p411
sg14
S'2.3'
p412
sg16
g17
sg18
S'0.0'
p413
sg19
S'14.8'
p414
sg21
g22
sg264
S'100'
p415
sg23
S'.867'
p416
sg27
S'NBA'
p417
sg29
S'1.3'
p418
sg31
S'9.8'
p419
sg33
S'6.4'
p420
sg35
S'4.8'
p421
sg36
S'20.8'
p422
sg38
S'25'
p423
sg40
S'NYK'
p424
sg42
S'46'
p425
sg44
S'4.8'
p426
sg46
S'5.3'
p427
sg48
S'4.2'
p428
sg50
S'9.8'
p429
sg52
S'14.8'
p430
sg54
S'2013-14'
p431
sg56
S'5.3'
p432
sg57
S'2.9'
p433
sg58
S'.541'
p434
sg60
S'330'
p435
sg62
g49
sba(isrc.gp1.models.Per100Possession
Per100Possession
p436
(dp437
g8
S'5.4'
p438
sg10
S'0.0'
p439
sg12
S'.478'
p440
sg259
S'104'
p441
sg14
S'4.0'
p442
sg16
g17
sg18
S'0.0'
p443
sg19
S'18.2'
p444
sg21
g22
sg264
S'102'
p445
sg23
S'.781'
p446
sg27
S'NBA'
p447
sg29
S'2.0'
p448
sg31
S'16.2'
p449
sg33
S'6.6'
p450
sg35
S'3.5'
p451
sg36
S'18.2'
p452
sg38
S'26'
p453
sg40
S'NYK'
p454
sg42
S'61'
p455
sg44
S'3.5'
p456
sg46
S'7.8'
p457
sg48
S'2.7'
p458
sg50
S'16.2'
p459
sg52
S'12.8'
p460
sg54
S'2014-15'
p461
sg56
S'7.8'
p462
sg57
S'3.2'
p463
sg58
S'.478'
p464
sg60
S'976'
p465
sg62
S'16'
p466
sba(isrc.gp1.models.Per100Possession
Per100Possession
p467
(dp468
g8
S'4.4'
p469
sg10
S'0.0'
p470
sg12
S'.519'
p471
sg259
S'110'
p472
sg14
S'4.0'
p473
sg16
g17
sg18
S'0.0'
p474
sg19
S'23.5'
p475
sg21
g22
sg264
S'97'
p476
sg23
S'.692'
p477
sg27
S'NBA'
p478
sg29
S'2.7'
p479
sg31
S'17.2'
p480
sg33
S'8.9'
p481
sg35
S'8.3'
p482
sg36
S'15.9'
p483
sg38
S'27'
p484
sg40
S'LAC'
p485
sg42
S'27'
p486
sg44
S'3.0'
p487
sg46
S'8.9'
p488
sg48
S'5.7'
p489
sg50
S'17.2'
p490
sg52
S'11.4'
p491
sg54
S'2015-16'
p492
sg56
S'8.9'
p493
sg57
S'3.5'
p494
sg58
S'.519'
p495
sg60
S'315'
p496
sg62
g49
sbasS'_advanced'
p497
(lp498
(isrc.gp1.models.Advanced
Advanced
p499
(dp500
S'_offensiveReboundPercentage'
p501
S'11.1'
p502
sS'_turnOverPercentage'
p503
S'32.3'
p504
sS'_winSharesPer48Minutes'
p505
S'.066'
p506
sS'_stealPercentage'
p507
S'1.8'
p508
sS'_usagePercentage'
p509
S'7.9'
p510
sS'_totalReboundsPercentage'
p511
S'14.4'
p512
sS'_defensiveBoxPlusMinus'
p513
S'2.6'
p514
sg21
g22
sS'_valueOverReplacementPlayer'
p515
S'0.0'
p516
sS'_trueShootingPercentage'
p517
S'.537'
p518
sS'_defensiveReboundPercentage'
p519
S'17.5'
p520
sS'_freeThrowsAttempRate'
p521
S'.267'
p522
sS'_threePointsAttempRate'
p523
S'.000'
p524
sg27
S'NBA'
p525
sS'_offensiveBoxPlusMinues'
p526
S'-3.4'
p527
sS'_assistPercentage'
p528
S'4.0'
p529
sS'_defensiveWinShares'
p530
S'0.2'
p531
sg38
S'22'
p532
sg40
S'OKC'
p533
sg42
S'18'
p534
sS'_blockPercentage'
p535
S'3.6'
p536
sS'_playerEfficiencyRating'
p537
S'7.0'
p538
sS'_offensiveWinShares'
p539
S'0.0'
p540
sg60
S'142'
p541
sS'_boxPlusMinus'
p542
S'-0.8'
p543
sg54
S'2010-11'
p544
sS'_winShares'
p545
S'0.2'
p546
sba(isrc.gp1.models.Advanced
Advanced
p547
(dp548
g501
S'9.2'
p549
sg503
S'15.7'
p550
sg505
S'.176'
p551
sg507
S'2.4'
p552
sg509
S'14.9'
p553
sg511
S'15.8'
p554
sg513
S'2.7'
p555
sg21
g22
sg515
S'0.1'
p556
sg517
S'.592'
p557
sg519
S'21.6'
p558
sg521
S'.333'
p559
sg523
S'.000'
p560
sg27
S'NBA'
p561
sg526
S'-2.4'
p562
sg528
S'2.7'
p563
sg530
S'0.4'
p564
sg38
S'23'
p565
sg40
S'OKC'
p566
sg42
S'26'
p567
sg535
S'6.7'
p568
sg537
S'17.7'
p569
sg539
S'0.3'
p570
sg60
S'173'
p571
sg542
S'0.3'
p572
sg54
S'2011-12'
p573
sg545
S'0.6'
p574
sba(isrc.gp1.models.Advanced
Advanced
p575
(dp576
g501
S'8.7'
p577
sg503
S'20.6'
p578
sg505
S'.070'
p579
sg507
S'0.7'
p580
sg509
S'12.7'
p581
sg511
S'17.7'
p582
sg513
S'0.7'
p583
sg21
g22
sg515
S'-0.2'
p584
sg517
S'.563'
p585
sg519
S'26.7'
p586
sg521
S'.250'
p587
sg523
S'.000'
p588
sg27
S'NBA'
p589
sg526
S'-4.8'
p590
sg528
S'3.4'
p591
sg530
S'0.4'
p592
sg38
S'24'
p593
sg40
S'TOT'
p594
sg42
S'45'
p595
sg535
S'4.6'
p596
sg537
S'11.1'
p597
sg539
S'0.1'
p598
sg60
S'388'
p599
sg542
S'-4.0'
p600
sg54
S'2012-13'
p601
sg545
S'0.6'
p602
sba(isrc.gp1.models.Advanced
Advanced
p603
(dp604
g501
S'6.5'
p605
sg503
S'23.0'
p606
sg505
S'.038'
p607
sg507
S'0.7'
p608
sg509
S'12.5'
p609
sg511
S'15.2'
p610
sg513
S'1.0'
p611
sg21
g22
sg515
S'-0.1'
p612
sg517
S'.532'
p613
sg519
S'23.7'
p614
sg521
S'.209'
p615
sg523
S'.000'
p616
sg27
S'NBA'
p617
sg526
S'-5.7'
p618
sg528
S'4.1'
p619
sg530
S'0.3'
p620
sg38
S'24'
p621
sg40
S'HOU'
p622
sg42
S'30'
p623
sg535
S'3.2'
p624
sg537
S'7.3'
p625
sg539
S'-0.1'
p626
sg60
S'213'
p627
sg542
S'-4.8'
p628
sg54
S'2012-13'
p629
sg545
S'0.2'
p630
sba(isrc.gp1.models.Advanced
Advanced
p631
(dp632
g501
S'11.5'
p633
sg503
S'17.7'
p634
sg505
S'.109'
p635
sg507
S'0.6'
p636
sg509
S'12.9'
p637
sg511
S'20.7'
p638
sg513
S'0.5'
p639
sg21
g22
sg515
S'-0.1'
p640
sg517
S'.598'
p641
sg519
S'30.4'
p642
sg521
S'.297'
p643
sg523
S'.000'
p644
sg27
S'NBA'
p645
sg526
S'-3.6'
p646
sg528
S'2.6'
p647
sg530
S'0.2'
p648
sg38
S'24'
p649
sg40
S'SAC'
p650
sg42
S'15'
p651
sg535
S'6.3'
p652
sg537
S'15.7'
p653
sg539
S'0.2'
p654
sg60
S'175'
p655
sg542
S'-3.1'
p656
sg54
S'2012-13'
p657
sg545
S'0.4'
p658
sba(isrc.gp1.models.Advanced
Advanced
p659
(dp660
g501
S'12.8'
p661
sg503
S'19.5'
p662
sg505
S'.178'
p663
sg507
S'1.3'
p664
sg509
S'13.0'
p665
sg511
S'23.0'
p666
sg513
S'3.8'
p667
sg21
g22
sg515
S'0.3'
p668
sg517
S'.620'
p669
sg519
S'33.8'
p670
sg521
S'.492'
p671
sg523
S'.000'
p672
sg27
S'NBA'
p673
sg526
S'-2.6'
p674
sg528
S'6.4'
p675
sg530
S'0.6'
p676
sg38
S'25'
p677
sg40
S'NYK'
p678
sg42
S'46'
p679
sg535
S'8.1'
p680
sg537
S'19.1'
p681
sg539
S'0.6'
p682
sg60
S'330'
p683
sg542
S'1.2'
p684
sg54
S'2013-14'
p685
sg545
S'1.2'
p686
sba(isrc.gp1.models.Advanced
Advanced
p687
(dp688
g501
S'11.6'
p689
sg503
S'15.2'
p690
sg505
S'.107'
p691
sg507
S'2.0'
p692
sg509
S'18.3'
p693
sg511
S'20.0'
p694
sg513
S'3.1'
p695
sg21
g22
sg515
S'0.7'
p696
sg517
S'.513'
p697
sg519
S'28.9'
p698
sg521
S'.213'
p699
sg523
S'.000'
p700
sg27
S'NBA'
p701
sg526
S'-2.2'
p702
sg528
S'13.3'
p703
sg530
S'1.4'
p704
sg38
S'26'
p705
sg40
S'NYK'
p706
sg42
S'61'
p707
sg535
S'5.5'
p708
sg537
S'18.1'
p709
sg539
S'0.8'
p710
sg60
S'976'
p711
sg542
S'0.9'
p712
sg54
S'2014-15'
p713
sg545
S'2.2'
p714
sba(isrc.gp1.models.Advanced
Advanced
p715
(dp716
g501
S'9.7'
p717
sg503
S'14.4'
p718
sg505
S'.187'
p719
sg507
S'2.7'
p720
sg509
S'21.8'
p721
sg511
S'17.3'
p722
sg513
S'3.9'
p723
sg21
g22
sg515
S'0.4'
p724
sg517
S'.565'
p725
sg519
S'24.9'
p726
sg521
S'.481'
p727
sg523
S'.000'
p728
sg27
S'NBA'
p729
sg526
S'-1.1'
p730
sg528
S'13.0'
p731
sg530
S'0.7'
p732
sg38
S'27'
p733
sg40
S'LAC'
p734
sg42
S'27'
p735
sg535
S'4.7'
p736
sg537
S'20.4'
p737
sg539
S'0.6'
p738
sg60
S'315'
p739
sg542
S'2.8'
p740
sg54
S'2015-16'
p741
sg545
S'1.2'
p742
sbasS'_per36Minutes'
p743
(lp744
(isrc.gp1.models.Per36Minutes
Per36Minutes
p745
(dp746
g8
S'3.3'
p747
sg10
S'0.0'
p748
sg12
S'.533'
p749
sg14
S'1.0'
p750
sg16
g17
sg18
S'0.0'
p751
sg19
S'4.6'
p752
sg21
g22
sg23
S'.500'
p753
sg27
S'NBA'
p754
sg29
S'1.3'
p755
sg31
S'3.8'
p756
sg33
S'7.6'
p757
sg35
S'1.0'
p758
sg36
S'8.9'
p759
sg38
S'22'
p760
sg40
S'OKC'
p761
sg42
S'18'
p762
sg44
S'1.8'
p763
sg46
S'2.0'
p764
sg48
S'0.5'
p765
sg50
S'3.8'
p766
sg52
S'5.6'
p767
sg54
S'2010-11'
p768
sg56
S'2.0'
p769
sg57
S'2.0'
p770
sg58
S'.533'
p771
sg60
S'142'
p772
sg62
g11
sba(isrc.gp1.models.Per36Minutes
Per36Minutes
p773
(dp774
g8
S'2.7'
p775
sg10
S'0.0'
p776
sg12
S'.524'
p777
sg14
S'0.6'
p778
sg16
g17
sg18
S'0.0'
p779
sg19
S'11.9'
p780
sg21
g22
sg23
S'.929'
p781
sg27
S'NBA'
p782
sg29
S'1.7'
p783
sg31
S'8.7'
p784
sg33
S'4.6'
p785
sg35
S'2.9'
p786
sg36
S'10.0'
p787
sg38
S'23'
p788
sg40
S'OKC'
p789
sg42
S'26'
p790
sg44
S'3.3'
p791
sg46
S'4.6'
p792
sg48
S'2.7'
p793
sg50
S'8.7'
p794
sg52
S'7.3'
p795
sg54
S'2011-12'
p796
sg56
S'4.6'
p797
sg57
S'1.9'
p798
sg58
S'.524'
p799
sg60
S'173'
p800
sg62
g11
sba(isrc.gp1.models.Per36Minutes
Per36Minutes
p801
(dp802
g8
S'2.8'
p803
sg10
S'0.0'
p804
sg12
S'.550'
p805
sg14
S'0.8'
p806
sg16
g17
sg18
S'0.0'
p807
sg19
S'9.3'
p808
sg21
g22
sg23
S'.600'
p809
sg27
S'NBA'
p810
sg29
S'0.5'
p811
sg31
S'7.4'
p812
sg33
S'5.6'
p813
sg35
S'1.9'
p814
sg36
S'11.1'
p815
sg38
S'24'
p816
sg40
S'TOT'
p817
sg42
S'45'
p818
sg44
S'2.1'
p819
sg46
S'4.1'
p820
sg48
S'1.1'
p821
sg50
S'7.4'
p822
sg52
S'8.4'
p823
sg54
S'2012-13'
p824
sg56
S'4.1'
p825
sg57
S'2.1'
p826
sg58
S'.550'
p827
sg60
S'388'
p828
sg62
g11
sba(isrc.gp1.models.Per36Minutes
Per36Minutes
p829
(dp830
g8
S'2.0'
p831
sg10
S'0.0'
p832
sg12
S'.535'
p833
sg14
S'1.0'
p834
sg16
g17
sg18
S'0.0'
p835
sg19
S'8.5'
p836
sg21
g22
sg23
S'.444'
p837
sg27
S'NBA'
p838
sg29
S'0.5'
p839
sg31
S'7.3'
p840
sg33
S'6.9'
p841
sg35
S'1.5'
p842
sg36
S'9.6'
p843
sg38
S'24'
p844
sg40
S'HOU'
p845
sg42
S'30'
p846
sg44
S'1.5'
p847
sg46
S'3.9'
p848
sg48
S'0.7'
p849
sg50
S'7.3'
p850
sg52
S'7.6'
p851
sg54
S'2012-13'
p852
sg56
S'3.9'
p853
sg57
S'2.4'
p854
sg58
S'.535'
p855
sg60
S'213'
p856
sg62
g11
sba(isrc.gp1.models.Per36Minutes
Per36Minutes
p857
(dp858
g8
S'3.7'
p859
sg10
S'0.0'
p860
sg12
S'.568'
p861
sg14
S'0.6'
p862
sg16
g17
sg18
S'0.0'
p863
sg19
S'10.3'
p864
sg21
g22
sg23
S'.727'
p865
sg27
S'NBA'
p866
sg29
S'0.4'
p867
sg31
S'7.6'
p868
sg33
S'3.9'
p869
sg35
S'2.3'
p870
sg36
S'13.0'
p871
sg38
S'24'
p872
sg40
S'SAC'
p873
sg42
S'15'
p874
sg44
S'2.9'
p875
sg46
S'4.3'
p876
sg48
S'1.6'
p877
sg50
S'7.6'
p878
sg52
S'9.3'
p879
sg54
S'2012-13'
p880
sg56
S'4.3'
p881
sg57
S'1.9'
p882
sg58
S'.568'
p883
sg60
S'175'
p884
sg62
g11
sba(isrc.gp1.models.Per36Minutes
Per36Minutes
p885
(dp886
g8
S'4.0'
p887
sg10
S'0.0'
p888
sg12
S'.541'
p889
sg14
S'1.5'
p890
sg16
g17
sg18
S'0.0'
p891
sg19
S'10.0'
p892
sg21
g22
sg23
S'.867'
p893
sg27
S'NBA'
p894
sg29
S'0.9'
p895
sg31
S'6.7'
p896
sg33
S'4.4'
p897
sg35
S'3.3'
p898
sg36
S'14.1'
p899
sg38
S'25'
p900
sg40
S'NYK'
p901
sg42
S'46'
p902
sg44
S'3.3'
p903
sg46
S'3.6'
p904
sg48
S'2.8'
p905
sg50
S'6.7'
p906
sg52
S'10.0'
p907
sg54
S'2013-14'
p908
sg56
S'3.6'
p909
sg57
S'2.0'
p910
sg58
S'.541'
p911
sg60
S'330'
p912
sg62
g49
sba(isrc.gp1.models.Per36Minutes
Per36Minutes
p913
(dp914
g8
S'3.7'
p915
sg10
S'0.0'
p916
sg12
S'.478'
p917
sg14
S'2.8'
p918
sg16
g17
sg18
S'0.0'
p919
sg19
S'12.5'
p920
sg21
g22
sg23
S'.781'
p921
sg27
S'NBA'
p922
sg29
S'1.4'
p923
sg31
S'11.1'
p924
sg33
S'4.5'
p925
sg35
S'2.4'
p926
sg36
S'12.5'
p927
sg38
S'26'
p928
sg40
S'NYK'
p929
sg42
S'61'
p930
sg44
S'2.4'
p931
sg46
S'5.3'
p932
sg48
S'1.8'
p933
sg50
S'11.1'
p934
sg52
S'8.7'
p935
sg54
S'2014-15'
p936
sg56
S'5.3'
p937
sg57
S'2.2'
p938
sg58
S'.478'
p939
sg60
S'976'
p940
sg62
S'16'
p941
sba(isrc.gp1.models.Per36Minutes
Per36Minutes
p942
(dp943
g8
S'3.2'
p944
sg10
S'0.0'
p945
sg12
S'.519'
p946
sg14
S'2.9'
p947
sg16
g17
sg18
S'0.0'
p948
sg19
S'16.9'
p949
sg21
g22
sg23
S'.692'
p950
sg27
S'NBA'
p951
sg29
S'1.9'
p952
sg31
S'12.3'
p953
sg33
S'6.4'
p954
sg35
S'5.9'
p955
sg36
S'11.4'
p956
sg38
S'27'
p957
sg40
S'LAC'
p958
sg42
S'27'
p959
sg44
S'2.2'
p960
sg46
S'6.4'
p961
sg48
S'4.1'
p962
sg50
S'12.3'
p963
sg52
S'8.2'
p964
sg54
S'2015-16'
p965
sg56
S'6.4'
p966
sg57
S'2.5'
p967
sg58
S'.519'
p968
sg60
S'315'
p969
sg62
g49
sbasS'_fromYear'
p970
S'2011'
p971
sS'_url'
p972
S'http://www.basketball-reference.com/players/a/aldrico01.html'
p973
sS'_perGame'
p974
(isrc.gp1.models.PerGame
PerGame
p975
(dp976
g8
S'1.0'
p977
sg10
S'0.0'
p978
sg12
S'.519'
p979
sS'_effectiveFieldGalPercentage'
p980
S'.519'
p981
sg14
S'0.9'
p982
sg16
g17
sg18
S'0.0'
p983
sg19
S'5.5'
p984
sg21
g22
sg23
S'.692'
p985
sg27
S'NBA'
p986
sg29
S'0.6'
p987
sg33
S'2.1'
p988
sS'_fieldGoalsttempted'
p989
S'4.0'
p990
sg35
S'1.9'
p991
sg36
S'3.7'
p992
sg38
S'27'
p993
sg40
S'LAC'
p994
sg42
S'27'
p995
sg44
S'0.7'
p996
sg46
S'2.1'
p997
sg48
S'1.3'
p998
sg50
S'4.0'
p999
sg52
S'2.7'
p1000
sg54
S'2015-16'
p1001
sg56
S'2.1'
p1002
sg57
S'0.8'
p1003
sg58
S'.519'
p1004
sg60
S'11.7'
p1005
sg62
g49
sbsS'_weight'
p1006
S'250'
p1007
sS'_dob'
p1008
S'31-10-1988'
p1009
sS'_salary'
p1010
(lp1011
(isrc.gp1.models.Salary
Salary
p1012
(dp1013
g40
S'Oklahoma City Thunder'
p1014
sg27
S'NBA'
p1015
sg1010
S'$2,126,520'
p1016
sg54
S'2010-11'
p1017
sba(isrc.gp1.models.Salary
Salary
p1018
(dp1019
g40
S'Oklahoma City Thunder'
p1020
sg27
S'NBA'
p1021
sg1010
S'$2,286,000'
p1022
sg54
S'2011-12'
p1023
sba(isrc.gp1.models.Salary
Salary
p1024
(dp1025
g40
S'Sacramento Kings'
p1026
sg27
S'NBA'
p1027
sg1010
S'$2,445,480'
p1028
sg54
S'2012-13'
p1029
sba(isrc.gp1.models.Salary
Salary
p1030
(dp1031
g40
S'New York Knicks'
p1032
sg27
S'NBA'
p1033
sg1010
S'$981,084'
p1034
sg54
S'2014-15'
p1035
sbasg21
g22
sb.