(isrc.gp1.models.Player
Player
p0
(dp1
S'_experience'
p2
S'NA'
p3
sS'_totals'
p4
(lp5
(isrc.gp1.models.Totals
Totals
p6
(dp7
S'_offensiveRebounds'
p8
S'6'
p9
sS'_threePointsAttempted'
p10
S'0'
p11
sS'_fieldGoalsPercentage'
p12
S'.286'
p13
sS'_assist'
p14
S'2'
p15
sS'_threePointsPercentage'
p16
g15
sS'_threePoints'
p17
g11
sS'_points'
p18
g3
sS'_position'
p19
S'C'
p20
sS'_freeThrowsPercentage'
p21
g15
sS'_effectiveFieldGoalPercentage'
p22
S'3'
p23
sS'_league'
p24
S'NBA'
p25
sS'_steals'
p26
S'1'
p27
sS'_fieldGoalsAttempted'
p28
S'7'
p29
sS'_personalFouls'
p30
g29
sS'_freeThrowsAttempted'
p31
S'.500'
p32
sS'_totalRebounds'
p33
g27
sS'_age'
p34
S'23'
p35
sS'_team'
p36
S'TOR'
p37
sS'_games'
p38
g23
sS'_blocks'
p39
S'5'
p40
sS'_twoPoints'
p41
g29
sS'_freeThrows'
p42
g9
sS'_twoPointsAttempted'
p43
S'.286'
p44
sS'_defensiveRebounds'
p45
S'8'
p46
sS'_season'
p47
S'1999-00'
p48
sS'_fieldGoals'
p49
g15
sS'_turnOvers'
p50
g40
sS'_twoPointsPercentage'
p51
S'.286'
p52
sS'_minutesPlayed'
p53
S'24'
p54
sS'_gamesStarted'
p55
g11
sba(isrc.gp1.models.Totals
Totals
p56
(dp57
g8
g3
sg10
g3
sg12
g3
sg14
g3
sg16
g3
sg17
g3
sg18
g3
sg19
g3
sg21
g3
sg22
g3
sg24
g3
sg26
g3
sg28
g3
sg30
g3
sg31
g3
sg33
g3
sg34
S'24'
p58
sg36
S'Did Not Play'
p59
sg38
g3
sg39
g3
sg41
g3
sg42
g3
sg43
g3
sg45
g3
sg47
S'2000-01'
p60
sg49
g3
sg50
g3
sg51
g3
sg53
g3
sg55
g3
sba(isrc.gp1.models.Totals
Totals
p61
(dp62
g8
g3
sg10
g3
sg12
g3
sg14
g3
sg16
g3
sg17
g3
sg18
g3
sg19
g3
sg21
g3
sg22
g3
sg24
g3
sg26
g3
sg28
g3
sg30
g3
sg31
g3
sg33
g3
sg34
S'25'
p63
sg36
S'Did Not Play\xc2\xa0(other pro league\xe2\x80\x94Slovenia, Italy)'
p64
sg38
g3
sg39
g3
sg41
g3
sg42
g3
sg43
g3
sg45
g3
sg47
S'2001-02'
p65
sg49
g3
sg50
g3
sg51
g3
sg53
g3
sg55
g3
sba(isrc.gp1.models.Totals
Totals
p66
(dp67
g8
g3
sg10
g3
sg12
g3
sg14
g3
sg16
g3
sg17
g3
sg18
g3
sg19
g3
sg21
g3
sg22
g3
sg24
g3
sg26
g3
sg28
g3
sg30
g3
sg31
g3
sg33
g3
sg34
S'26'
p68
sg36
S'Did Not Play\xc2\xa0(other pro league\xe2\x80\x94Germany)'
p69
sg38
g3
sg39
g3
sg41
g3
sg42
g3
sg43
g3
sg45
g3
sg47
S'2002-03'
p70
sg49
g3
sg50
g3
sg51
g3
sg53
g3
sg55
g3
sba(isrc.gp1.models.Totals
Totals
p71
(dp72
g8
g3
sg10
g3
sg12
g3
sg14
g3
sg16
g3
sg17
g3
sg18
g3
sg19
g3
sg21
g3
sg22
g3
sg24
g3
sg26
g3
sg28
g3
sg30
g3
sg31
g3
sg33
g3
sg34
S'27'
p73
sg36
S'Did Not Play\xc2\xa0(other pro league\xe2\x80\x94Greece)'
p74
sg38
g3
sg39
g3
sg41
g3
sg42
g3
sg43
g3
sg45
g3
sg47
S'2003-04'
p75
sg49
g3
sg50
g3
sg51
g3
sg53
g3
sg55
g3
sba(isrc.gp1.models.Totals
Totals
p76
(dp77
g8
S'19'
p78
sg10
g11
sg12
S'.316'
p79
sg14
g11
sg16
g9
sg17
g11
sg18
g3
sg19
g20
sg21
S'9'
p80
sg22
g29
sg24
S'NBA'
p81
sg26
g15
sg28
S'19'
p82
sg30
S'19'
p83
sg31
S'.700'
p84
sg33
g9
sg34
S'28'
p85
sg36
S'UTA'
p86
sg38
S'12'
p87
sg39
S'15'
p88
sg41
S'19'
p89
sg42
S'10'
p90
sg43
S'.316'
p91
sg45
S'28'
p92
sg47
S'2004-05'
p93
sg49
g9
sg50
S'32'
p94
sg51
S'.316'
p95
sg53
S'128'
p96
sg55
g9
sbasS'_college'
p97
S'Barton County Community College'
p98
sS'_toYear'
p99
S'2005'
p100
sS'_height'
p101
S'7-3'
p102
sS'_active'
p103
I00
sS'_shootingHand'
p104
VRight
p105
sS'_name'
p106
S'Aleksandar Radojevic'
p107
sS'_per100Possessions'
p108
(lp109
(isrc.gp1.models.Per100Possession
Per100Possession
p110
(dp111
g8
S'13.0'
p112
sg10
S'0.0'
p113
sg12
S'.286'
p114
sS'_offensiveRating'
p115
S'94'
p116
sg14
S'4.3'
p117
sg16
S'4.3'
p118
sg17
S'0.0'
p119
sg18
S'59'
p120
sg19
g20
sS'_defensiveRating'
p121
g3
sg21
S'4.3'
p122
sg24
S'NBA'
p123
sg26
S'2.2'
p124
sg28
S'15.1'
p125
sg30
S'15.1'
p126
sg31
S'.500'
p127
sg33
S'2.2'
p128
sg34
S'23'
p129
sg36
S'TOR'
p130
sg38
g23
sg39
S'10.8'
p131
sg41
S'15.1'
p132
sg42
S'13.0'
p133
sg43
S'.286'
p134
sg45
S'17.3'
p135
sg47
S'1999-00'
p136
sg49
S'4.3'
p137
sg50
S'10.8'
p138
sg51
S'6.5'
p139
sg53
S'24'
p140
sg55
g11
sba(isrc.gp1.models.Per100Possession
Per100Possession
p141
(dp142
g8
S'8.1'
p143
sg10
S'0.0'
p144
sg12
S'.316'
p145
sg115
S'111'
p146
sg14
S'0.0'
p147
sg16
S'2.5'
p148
sg17
S'0.0'
p149
sg18
S'67'
p150
sg19
g20
sg121
g3
sg21
S'3.8'
p151
sg24
S'NBA'
p152
sg26
S'0.8'
p153
sg28
S'8.1'
p154
sg30
S'8.1'
p155
sg31
S'.700'
p156
sg33
S'2.5'
p157
sg34
S'28'
p158
sg36
S'UTA'
p159
sg38
S'12'
p160
sg39
S'6.4'
p161
sg41
S'8.1'
p162
sg42
S'4.2'
p163
sg43
S'.316'
p164
sg45
S'11.9'
p165
sg47
S'2004-05'
p166
sg49
S'2.5'
p167
sg50
S'13.6'
p168
sg51
S'3.0'
p169
sg53
S'128'
p170
sg55
g9
sbasS'_advanced'
p171
(lp172
(isrc.gp1.models.Advanced
Advanced
p173
(dp174
S'_offensiveReboundPercentage'
p175
S'9.0'
p176
sS'_turnOverPercentage'
p177
S'34.2'
p178
sS'_winSharesPer48Minutes'
p179
S'-0.202'
p180
sS'_stealPercentage'
p181
S'4.3'
p182
sS'_usagePercentage'
p183
S'27.0'
p184
sS'_totalReboundsPercentage'
p185
S'18.7'
p186
sS'_defensiveBoxPlusMinus'
p187
S'1.9'
p188
sg19
g20
sS'_valueOverReplacementPlayer'
p189
S'-0.1'
p190
sS'_trueShootingPercentage'
p191
S'.363'
p192
sS'_defensiveReboundPercentage'
p193
S'29.0'
p194
sS'_freeThrowsAttempRate'
p195
S'.857'
p196
sS'_threePointsAttempRate'
p197
S'.000'
p198
sg24
S'NBA'
p199
sS'_offensiveBoxPlusMinues'
p200
S'-13.4'
p201
sS'_assistPercentage'
p202
S'6.2'
p203
sS'_defensiveWinShares'
p204
S'0.1'
p205
sg34
S'23'
p206
sg36
S'TOR'
p207
sg38
g23
sS'_blockPercentage'
p208
S'2.9'
p209
sS'_playerEfficiencyRating'
p210
S'2.4'
p211
sS'_offensiveWinShares'
p212
S'-0.2'
p213
sg53
S'24'
p214
sS'_boxPlusMinus'
p215
S'-11.5'
p216
sg47
S'1999-00'
p217
sS'_winShares'
p218
S'-0.1'
p219
sba(isrc.gp1.models.Advanced
Advanced
p220
(dp221
g175
S'8.5'
p222
sg177
S'39.1'
p223
sg179
S'-0.117'
p224
sg181
S'0.0'
p225
sg183
S'13.8'
p226
sg185
S'13.6'
p227
sg187
S'-0.8'
p228
sg19
g20
sg189
S'-0.2'
p229
sg191
S'.406'
p230
sg193
S'18.9'
p231
sg195
S'.526'
p232
sg197
S'.000'
p233
sg24
S'NBA'
p234
sg200
S'-8.3'
p235
sg202
S'7.0'
p236
sg204
S'0.1'
p237
sg34
S'28'
p238
sg36
S'UTA'
p239
sg38
S'12'
p240
sg208
S'1.3'
p241
sg210
S'-1.5'
p242
sg212
S'-0.4'
p243
sg53
S'128'
p244
sg215
S'-9.0'
p245
sg47
S'2004-05'
p246
sg218
S'-0.3'
p247
sbasS'_per36Minutes'
p248
(lp249
(isrc.gp1.models.Per36Minutes
Per36Minutes
p250
(dp251
g8
S'9.0'
p252
sg10
S'0.0'
p253
sg12
S'.286'
p254
sg14
S'3.0'
p255
sg16
S'3.0'
p256
sg17
S'0.0'
p257
sg18
g3
sg19
g20
sg21
S'3.0'
p258
sg24
S'NBA'
p259
sg26
S'1.5'
p260
sg28
S'10.5'
p261
sg30
S'10.5'
p262
sg31
S'.500'
p263
sg33
S'1.5'
p264
sg34
S'23'
p265
sg36
S'TOR'
p266
sg38
g23
sg39
S'7.5'
p267
sg41
S'10.5'
p268
sg42
S'9.0'
p269
sg43
S'.286'
p270
sg45
S'12.0'
p271
sg47
S'1999-00'
p272
sg49
S'3.0'
p273
sg50
S'7.5'
p274
sg51
S'4.5'
p275
sg53
S'24'
p276
sg55
g11
sba(isrc.gp1.models.Per36Minutes
Per36Minutes
p277
(dp278
g8
S'5.3'
p279
sg10
S'0.0'
p280
sg12
S'.316'
p281
sg14
S'0.0'
p282
sg16
S'1.7'
p283
sg17
S'0.0'
p284
sg18
g3
sg19
g20
sg21
S'2.5'
p285
sg24
S'NBA'
p286
sg26
S'0.6'
p287
sg28
S'5.3'
p288
sg30
S'5.3'
p289
sg31
S'.700'
p290
sg33
S'1.7'
p291
sg34
S'28'
p292
sg36
S'UTA'
p293
sg38
S'12'
p294
sg39
S'4.2'
p295
sg41
S'5.3'
p296
sg42
S'2.8'
p297
sg43
S'.316'
p298
sg45
S'7.9'
p299
sg47
S'2004-05'
p300
sg49
S'1.7'
p301
sg50
S'9.0'
p302
sg51
S'2.0'
p303
sg53
S'128'
p304
sg55
g9
sbasS'_fromYear'
p305
S'2000'
p306
sS'_url'
p307
S'http://www.basketball-reference.com/players/r/radojal01.html'
p308
sS'_perGame'
p309
(isrc.gp1.models.PerGame
PerGame
p310
(dp311
g8
S'1.6'
p312
sg10
S'0.0'
p313
sg12
S'.316'
p314
sS'_effectiveFieldGalPercentage'
p315
S'0.6'
p316
sg14
S'0.0'
p317
sg16
S'0.5'
p318
sg17
S'0.0'
p319
sg18
g3
sg19
g20
sg21
S'0.8'
p320
sg24
S'NBA'
p321
sg26
S'0.2'
p322
sg30
S'1.6'
p323
sS'_fieldGoalsttempted'
p324
S'1.6'
p325
sg31
S'.700'
p326
sg33
S'0.5'
p327
sg34
S'28'
p328
sg36
S'UTA'
p329
sg38
S'12'
p330
sg39
S'1.3'
p331
sg41
S'1.6'
p332
sg42
S'0.8'
p333
sg43
S'.316'
p334
sg45
S'2.3'
p335
sg47
S'2004-05'
p336
sg49
S'0.5'
p337
sg50
S'2.7'
p338
sg51
S'.316'
p339
sg53
S'10.7'
p340
sg55
g9
sbsS'_weight'
p341
S'250'
p342
sS'_dob'
p343
S'8-8-1976'
p344
sS'_salary'
p345
(lp346
(isrc.gp1.models.Salary
Salary
p347
(dp348
g36
S'Toronto Raptors'
p349
sg24
S'NBA'
p350
sg345
S'$1,325,760'
p351
sg47
S'1999-00'
p352
sba(isrc.gp1.models.Salary
Salary
p353
(dp354
g36
S'Toronto Raptors'
p355
sg24
S'NBA'
p356
sg345
S'$1,425,120'
p357
sg47
S'2000-01'
p358
sba(isrc.gp1.models.Salary
Salary
p359
(dp360
g36
S'Milwaukee Bucks'
p361
sg24
S'NBA'
p362
sg345
S'$1,524,600'
p363
sg47
S'2001-02'
p364
sba(isrc.gp1.models.Salary
Salary
p365
(dp366
g36
S'Utah Jazz'
p367
sg24
S'NBA'
p368
sg345
S'$720,046'
p369
sg47
S'2004-05'
p370
sbasg19
g20
sb.