(isrc.gp1.models.Player
Player
p0
(dp1
S'_experience'
p2
S'NA'
p3
sS'_totals'
p4
(lp5
(isrc.gp1.models.Totals
Totals
p6
(dp7
S'_offensiveRebounds'
p8
S'42'
p9
sS'_threePointsAttempted'
p10
S'46'
p11
sS'_fieldGoalsPercentage'
p12
S'.417'
p13
sS'_assist'
p14
S'62'
p15
sS'_threePointsPercentage'
p16
S'.370'
p17
sS'_threePoints'
p18
S'17'
p19
sS'_points'
p20
S'618'
p21
sS'_position'
p22
S'PG'
p23
sS'_freeThrowsPercentage'
p24
S'.820'
p25
sS'_effectiveFieldGoalPercentage'
p26
S'.432'
p27
sS'_league'
p28
S'NBA'
p29
sS'_steals'
p30
S'45'
p31
sS'_fieldGoalsAttempted'
p32
S'573'
p33
sS'_personalFouls'
p34
S'139'
p35
sS'_freeThrowsAttempted'
p36
S'150'
p37
sS'_totalRebounds'
p38
S'143'
p39
sS'_age'
p40
S'23'
p41
sS'_team'
p42
S'TOT'
p43
sS'_games'
p44
S'65'
p45
sS'_blocks'
p46
S'5'
p47
sS'_twoPoints'
p48
S'222'
p49
sS'_freeThrows'
p50
S'123'
p51
sS'_twoPointsAttempted'
p52
S'527'
p53
sS'_defensiveRebounds'
p54
S'101'
p55
sS'_season'
p56
S'2000-01'
p57
sS'_fieldGoals'
p58
S'239'
p59
sS'_turnOvers'
p60
S'75'
p61
sS'_twoPointsPercentage'
p62
S'.421'
p63
sS'_minutesPlayed'
p64
S'1382'
p65
sS'_gamesStarted'
p66
S'24'
p67
sba(isrc.gp1.models.Totals
Totals
p68
(dp69
g8
S'20'
p70
sg10
S'10'
p71
sg12
S'.348'
p72
sg14
S'21'
p73
sg16
S'.300'
p74
sg18
S'3'
p75
sg20
S'160'
p76
sg22
S'PG'
p77
sg24
S'.733'
p78
sg26
S'.357'
p79
sg28
S'NBA'
p80
sg30
S'16'
p81
sg32
S'178'
p82
sg34
S'76'
p83
sg36
S'45'
p84
sg38
S'63'
p85
sg40
S'23'
p86
sg42
S'DAL'
p87
sg44
S'38'
p88
sg46
g75
sg48
S'59'
p89
sg50
S'33'
p90
sg52
S'168'
p91
sg54
S'43'
p92
sg56
S'2000-01'
p93
sg58
S'62'
p94
sg60
S'21'
p95
sg62
S'.351'
p96
sg64
S'472'
p97
sg66
S'6'
p98
sba(isrc.gp1.models.Totals
Totals
p99
(dp100
g8
S'22'
p101
sg10
S'36'
p102
sg12
S'.448'
p103
sg14
S'41'
p104
sg16
S'.389'
p105
sg18
S'14'
p106
sg20
S'458'
p107
sg22
S'PG'
p108
sg24
S'.857'
p109
sg26
S'.466'
p110
sg28
S'NBA'
p111
sg30
S'29'
p112
sg32
S'395'
p113
sg34
S'63'
p114
sg36
S'105'
p115
sg38
S'80'
p116
sg40
S'23'
p117
sg42
S'WAS'
p118
sg44
S'27'
p119
sg46
S'2'
p120
sg48
S'163'
p121
sg50
S'90'
p122
sg52
S'359'
p123
sg54
S'58'
p124
sg56
S'2000-01'
p125
sg58
S'177'
p126
sg60
S'54'
p127
sg62
S'.454'
p128
sg64
S'910'
p129
sg66
S'18'
p130
sba(isrc.gp1.models.Totals
Totals
p131
(dp132
g8
S'43'
p133
sg10
S'18'
p134
sg12
S'.470'
p135
sg14
S'86'
p136
sg16
S'.278'
p137
sg18
g47
sg20
S'549'
p138
sg22
S'SG'
p139
sg24
S'.810'
p140
sg26
S'.476'
p141
sg28
S'NBA'
p142
sg30
S'35'
p143
sg32
S'474'
p144
sg34
S'113'
p145
sg36
S'121'
p146
sg38
S'148'
p147
sg40
S'24'
p148
sg42
S'WAS'
p149
sg44
S'56'
p150
sg46
S'7'
p151
sg48
S'218'
p152
sg50
S'98'
p153
sg52
S'456'
p154
sg54
S'105'
p155
sg56
S'2001-02'
p156
sg58
S'223'
p157
sg60
S'60'
p158
sg62
S'.478'
p159
sg64
S'1325'
p160
sg66
S'28'
p161
sba(isrc.gp1.models.Totals
Totals
p162
(dp163
g8
S'39'
p164
sg10
S'57'
p165
sg12
S'.382'
p166
sg14
S'79'
p167
sg16
S'.333'
p168
sg18
S'19'
p169
sg20
S'523'
p170
sg22
S'PG'
p171
sg24
S'.808'
p172
sg26
S'.401'
p173
sg28
S'NBA'
p174
sg30
S'31'
p175
sg32
S'505'
p176
sg34
S'125'
p177
sg36
S'146'
p178
sg38
S'118'
p179
sg40
S'25'
p180
sg42
S'NOH'
p181
sg44
S'66'
p182
sg46
g98
sg48
S'174'
p183
sg50
S'118'
p184
sg52
S'448'
p185
sg54
S'79'
p186
sg56
S'2002-03'
p187
sg58
S'193'
p188
sg60
S'68'
p189
sg62
S'.388'
p190
sg64
S'1360'
p191
sg66
g151
sbasS'_college'
p192
S'California State University, Fresno'
p193
sS'_toYear'
p194
S'2003'
p195
sS'_height'
p196
S'6-5'
p197
sS'_active'
p198
I00
sS'_shootingHand'
p199
VRight
p200
sS'_name'
p201
S'Courtney Alexander'
p202
sS'_per100Possessions'
p203
(lp204
(isrc.gp1.models.Per100Possession
Per100Possession
p205
(dp206
g8
S'1.6'
p207
sg10
S'1.7'
p208
sg12
S'.417'
p209
sS'_offensiveRating'
p210
S'96'
p211
sg14
S'2.3'
p212
sg16
S'.370'
p213
sg18
S'0.6'
p214
sg20
S'23.1'
p215
sg22
S'PG'
p216
sS'_defensiveRating'
p217
S'109'
p218
sg24
S'.820'
p219
sg28
S'NBA'
p220
sg30
S'1.7'
p221
sg32
S'21.4'
p222
sg34
S'5.2'
p223
sg36
S'5.6'
p224
sg38
S'5.3'
p225
sg40
S'23'
p226
sg42
S'TOT'
p227
sg44
S'65'
p228
sg46
S'0.2'
p229
sg48
S'8.3'
p230
sg50
S'4.6'
p231
sg52
S'19.7'
p232
sg54
S'3.8'
p233
sg56
S'2000-01'
p234
sg58
S'8.9'
p235
sg60
S'2.8'
p236
sg62
S'.421'
p237
sg64
S'1382'
p238
sg66
S'24'
p239
sba(isrc.gp1.models.Per100Possession
Per100Possession
p240
(dp241
g8
S'2.2'
p242
sg10
S'1.1'
p243
sg12
S'.348'
p244
sg210
S'86'
p245
sg14
S'2.3'
p246
sg16
S'.300'
p247
sg18
S'0.3'
p248
sg20
S'17.5'
p249
sg22
S'PG'
p250
sg217
S'104'
p251
sg24
S'.733'
p252
sg28
S'NBA'
p253
sg30
S'1.7'
p254
sg32
S'19.4'
p255
sg34
S'8.3'
p256
sg36
S'4.9'
p257
sg38
S'6.9'
p258
sg40
S'23'
p259
sg42
S'DAL'
p260
sg44
S'38'
p261
sg46
S'0.3'
p262
sg48
S'6.4'
p263
sg50
S'3.6'
p264
sg52
S'18.3'
p265
sg54
S'4.7'
p266
sg56
S'2000-01'
p267
sg58
S'6.8'
p268
sg60
S'2.3'
p269
sg62
S'.351'
p270
sg64
S'472'
p271
sg66
g98
sba(isrc.gp1.models.Per100Possession
Per100Possession
p272
(dp273
g8
S'1.3'
p274
sg10
S'2.0'
p275
sg12
S'.448'
p276
sg210
S'101'
p277
sg14
S'2.3'
p278
sg16
S'.389'
p279
sg18
S'0.8'
p280
sg20
S'26.1'
p281
sg22
S'PG'
p282
sg217
S'111'
p283
sg24
S'.857'
p284
sg28
S'NBA'
p285
sg30
S'1.7'
p286
sg32
S'22.5'
p287
sg34
S'3.6'
p288
sg36
S'6.0'
p289
sg38
S'4.6'
p290
sg40
S'23'
p291
sg42
S'WAS'
p292
sg44
S'27'
p293
sg46
S'0.1'
p294
sg48
S'9.3'
p295
sg50
S'5.1'
p296
sg52
S'20.4'
p297
sg54
S'3.3'
p298
sg56
S'2000-01'
p299
sg58
S'10.1'
p300
sg60
S'3.1'
p301
sg62
S'.454'
p302
sg64
S'910'
p303
sg66
S'18'
p304
sba(isrc.gp1.models.Per100Possession
Per100Possession
p305
(dp306
g8
S'1.8'
p307
sg10
S'0.7'
p308
sg12
S'.470'
p309
sg210
S'106'
p310
sg14
S'3.5'
p311
sg16
S'.278'
p312
sg18
S'0.2'
p313
sg20
S'22.5'
p314
sg22
S'SG'
p315
sg217
S'109'
p316
sg24
S'.810'
p317
sg28
S'NBA'
p318
sg30
S'1.4'
p319
sg32
S'19.4'
p320
sg34
S'4.6'
p321
sg36
S'5.0'
p322
sg38
S'6.1'
p323
sg40
S'24'
p324
sg42
S'WAS'
p325
sg44
S'56'
p326
sg46
S'0.3'
p327
sg48
S'8.9'
p328
sg50
S'4.0'
p329
sg52
S'18.7'
p330
sg54
S'4.3'
p331
sg56
S'2001-02'
p332
sg58
S'9.1'
p333
sg60
S'2.5'
p334
sg62
S'.478'
p335
sg64
S'1325'
p336
sg66
S'28'
p337
sba(isrc.gp1.models.Per100Possession
Per100Possession
p338
(dp339
g8
S'1.5'
p340
sg10
S'2.3'
p341
sg12
S'.382'
p342
sg210
S'96'
p343
sg14
S'3.1'
p344
sg16
S'.333'
p345
sg18
S'0.8'
p346
sg20
S'20.7'
p347
sg22
S'PG'
p348
sg217
S'106'
p349
sg24
S'.808'
p350
sg28
S'NBA'
p351
sg30
S'1.2'
p352
sg32
S'19.9'
p353
sg34
S'4.9'
p354
sg36
S'5.8'
p355
sg38
S'4.7'
p356
sg40
S'25'
p357
sg42
S'NOH'
p358
sg44
S'66'
p359
sg46
S'0.2'
p360
sg48
S'6.9'
p361
sg50
S'4.7'
p362
sg52
S'17.7'
p363
sg54
S'3.1'
p364
sg56
S'2002-03'
p365
sg58
S'7.6'
p366
sg60
S'2.7'
p367
sg62
S'.388'
p368
sg64
S'1360'
p369
sg66
g151
sbasS'_advanced'
p370
(lp371
(isrc.gp1.models.Advanced
Advanced
p372
(dp373
S'_offensiveReboundPercentage'
p374
S'3.5'
p375
sS'_turnOverPercentage'
p376
S'10.5'
p377
sS'_winSharesPer48Minutes'
p378
S'.027'
p379
sS'_stealPercentage'
p380
S'1.7'
p381
sS'_usagePercentage'
p382
S'23.2'
p383
sS'_totalReboundsPercentage'
p384
S'5.9'
p385
sS'_defensiveBoxPlusMinus'
p386
S'-2.5'
p387
sg22
S'PG'
p388
sS'_valueOverReplacementPlayer'
p389
S'-0.8'
p390
sS'_trueShootingPercentage'
p391
S'.484'
p392
sS'_defensiveReboundPercentage'
p393
S'8.4'
p394
sS'_freeThrowsAttempRate'
p395
S'.262'
p396
sS'_threePointsAttempRate'
p397
S'.080'
p398
sg28
S'NBA'
p399
sS'_offensiveBoxPlusMinues'
p400
S'-1.8'
p401
sS'_assistPercentage'
p402
S'8.0'
p403
sS'_defensiveWinShares'
p404
S'0.5'
p405
sg40
S'23'
p406
sg42
S'TOT'
p407
sg44
S'65'
p408
sS'_blockPercentage'
p409
S'0.3'
p410
sS'_playerEfficiencyRating'
p411
S'11.6'
p412
sS'_offensiveWinShares'
p413
S'0.3'
p414
sg64
S'1382'
p415
sS'_boxPlusMinus'
p416
S'-4.4'
p417
sg56
S'2000-01'
p418
sS'_winShares'
p419
S'0.8'
p420
sba(isrc.gp1.models.Advanced
Advanced
p421
(dp422
g374
S'4.9'
p423
sg376
S'9.6'
p424
sg378
S'-0.013'
p425
sg380
S'1.7'
p426
sg382
S'21.1'
p427
sg384
S'7.5'
p428
sg386
S'-1.8'
p429
sg22
S'PG'
p430
sg389
S'-0.5'
p431
sg391
S'.404'
p432
sg393
S'9.9'
p433
sg395
S'.253'
p434
sg397
S'.056'
p435
sg28
S'NBA'
p436
sg400
S'-4.8'
p437
sg402
S'6.9'
p438
sg404
S'0.4'
p439
sg40
S'23'
p440
sg42
S'DAL'
p441
sg44
S'38'
p442
sg409
S'0.5'
p443
sg411
S'6.8'
p444
sg413
S'-0.5'
p445
sg64
S'472'
p446
sg416
S'-6.6'
p447
sg56
S'2000-01'
p448
sg419
S'-0.1'
p449
sba(isrc.gp1.models.Advanced
Advanced
p450
(dp451
g374
S'2.8'
p452
sg376
S'10.9'
p453
sg378
S'.048'
p454
sg380
S'1.7'
p455
sg382
S'24.3'
p456
sg384
S'5.1'
p457
sg386
S'-2.9'
p458
sg22
S'PG'
p459
sg389
S'-0.3'
p460
sg391
S'.519'
p461
sg393
S'7.6'
p462
sg395
S'.266'
p463
sg397
S'.091'
p464
sg28
S'NBA'
p465
sg400
S'-0.3'
p466
sg402
S'8.6'
p467
sg404
S'0.1'
p468
sg40
S'23'
p469
sg42
S'WAS'
p470
sg44
S'27'
p471
sg409
S'0.2'
p472
sg411
S'14.2'
p473
sg413
S'0.9'
p474
sg64
S'910'
p475
sg416
S'-3.2'
p476
sg56
S'2000-01'
p477
sg419
S'0.9'
p478
sba(isrc.gp1.models.Advanced
Advanced
p479
(dp480
g374
S'3.7'
p481
sg376
S'10.2'
p482
sg378
S'.080'
p483
sg380
S'1.4'
p484
sg382
S'20.4'
p485
sg384
S'6.5'
p486
sg386
S'-1.6'
p487
sg22
S'SG'
p488
sg389
S'0.0'
p489
sg391
S'.521'
p490
sg393
S'9.3'
p491
sg395
S'.255'
p492
sg397
S'.038'
p493
sg28
S'NBA'
p494
sg400
S'-0.5'
p495
sg402
S'11.3'
p496
sg404
S'0.6'
p497
sg40
S'24'
p498
sg42
S'WAS'
p499
sg44
S'56'
p500
sg409
S'0.4'
p501
sg411
S'13.6'
p502
sg413
S'1.6'
p503
sg64
S'1325'
p504
sg416
S'-2.1'
p505
sg56
S'2001-02'
p506
sg419
S'2.2'
p507
sba(isrc.gp1.models.Advanced
Advanced
p508
(dp509
g374
S'3.3'
p510
sg376
S'10.7'
p511
sg378
S'.040'
p512
sg380
S'1.2'
p513
sg382
S'21.3'
p514
sg384
S'5.0'
p515
sg386
S'-2.3'
p516
sg22
S'PG'
p517
sg389
S'-1.2'
p518
sg391
S'.459'
p519
sg393
S'6.8'
p520
sg395
S'.289'
p521
sg397
S'.113'
p522
sg28
S'NBA'
p523
sg400
S'-3.2'
p524
sg402
S'9.8'
p525
sg404
S'1.0'
p526
sg40
S'25'
p527
sg42
S'NOH'
p528
sg44
S'66'
p529
sg409
S'0.3'
p530
sg411
S'9.3'
p531
sg413
S'0.1'
p532
sg64
S'1360'
p533
sg416
S'-5.5'
p534
sg56
S'2002-03'
p535
sg419
S'1.1'
p536
sbasS'_per36Minutes'
p537
(lp538
(isrc.gp1.models.Per36Minutes
Per36Minutes
p539
(dp540
g8
S'1.1'
p541
sg10
S'1.2'
p542
sg12
S'.417'
p543
sg14
S'1.6'
p544
sg16
S'.370'
p545
sg18
S'0.4'
p546
sg20
S'16.1'
p547
sg22
S'PG'
p548
sg24
S'.820'
p549
sg28
S'NBA'
p550
sg30
S'1.2'
p551
sg32
S'14.9'
p552
sg34
S'3.6'
p553
sg36
S'3.9'
p554
sg38
S'3.7'
p555
sg40
S'23'
p556
sg42
S'TOT'
p557
sg44
S'65'
p558
sg46
S'0.1'
p559
sg48
S'5.8'
p560
sg50
S'3.2'
p561
sg52
S'13.7'
p562
sg54
S'2.6'
p563
sg56
S'2000-01'
p564
sg58
S'6.2'
p565
sg60
S'2.0'
p566
sg62
S'.421'
p567
sg64
S'1382'
p568
sg66
S'24'
p569
sba(isrc.gp1.models.Per36Minutes
Per36Minutes
p570
(dp571
g8
S'1.5'
p572
sg10
S'0.8'
p573
sg12
S'.348'
p574
sg14
S'1.6'
p575
sg16
S'.300'
p576
sg18
S'0.2'
p577
sg20
S'12.2'
p578
sg22
S'PG'
p579
sg24
S'.733'
p580
sg28
S'NBA'
p581
sg30
S'1.2'
p582
sg32
S'13.6'
p583
sg34
S'5.8'
p584
sg36
S'3.4'
p585
sg38
S'4.8'
p586
sg40
S'23'
p587
sg42
S'DAL'
p588
sg44
S'38'
p589
sg46
S'0.2'
p590
sg48
S'4.5'
p591
sg50
S'2.5'
p592
sg52
S'12.8'
p593
sg54
S'3.3'
p594
sg56
S'2000-01'
p595
sg58
S'4.7'
p596
sg60
S'1.6'
p597
sg62
S'.351'
p598
sg64
S'472'
p599
sg66
g98
sba(isrc.gp1.models.Per36Minutes
Per36Minutes
p600
(dp601
g8
S'0.9'
p602
sg10
S'1.4'
p603
sg12
S'.448'
p604
sg14
S'1.6'
p605
sg16
S'.389'
p606
sg18
S'0.6'
p607
sg20
S'18.1'
p608
sg22
S'PG'
p609
sg24
S'.857'
p610
sg28
S'NBA'
p611
sg30
S'1.1'
p612
sg32
S'15.6'
p613
sg34
S'2.5'
p614
sg36
S'4.2'
p615
sg38
S'3.2'
p616
sg40
S'23'
p617
sg42
S'WAS'
p618
sg44
S'27'
p619
sg46
S'0.1'
p620
sg48
S'6.4'
p621
sg50
S'3.6'
p622
sg52
S'14.2'
p623
sg54
S'2.3'
p624
sg56
S'2000-01'
p625
sg58
S'7.0'
p626
sg60
S'2.1'
p627
sg62
S'.454'
p628
sg64
S'910'
p629
sg66
S'18'
p630
sba(isrc.gp1.models.Per36Minutes
Per36Minutes
p631
(dp632
g8
S'1.2'
p633
sg10
S'0.5'
p634
sg12
S'.470'
p635
sg14
S'2.3'
p636
sg16
S'.278'
p637
sg18
S'0.1'
p638
sg20
S'14.9'
p639
sg22
S'SG'
p640
sg24
S'.810'
p641
sg28
S'NBA'
p642
sg30
S'1.0'
p643
sg32
S'12.9'
p644
sg34
S'3.1'
p645
sg36
S'3.3'
p646
sg38
S'4.0'
p647
sg40
S'24'
p648
sg42
S'WAS'
p649
sg44
S'56'
p650
sg46
S'0.2'
p651
sg48
S'5.9'
p652
sg50
S'2.7'
p653
sg52
S'12.4'
p654
sg54
S'2.9'
p655
sg56
S'2001-02'
p656
sg58
S'6.1'
p657
sg60
S'1.6'
p658
sg62
S'.478'
p659
sg64
S'1325'
p660
sg66
S'28'
p661
sba(isrc.gp1.models.Per36Minutes
Per36Minutes
p662
(dp663
g8
S'1.0'
p664
sg10
S'1.5'
p665
sg12
S'.382'
p666
sg14
S'2.1'
p667
sg16
S'.333'
p668
sg18
S'0.5'
p669
sg20
S'13.8'
p670
sg22
S'PG'
p671
sg24
S'.808'
p672
sg28
S'NBA'
p673
sg30
S'0.8'
p674
sg32
S'13.4'
p675
sg34
S'3.3'
p676
sg36
S'3.9'
p677
sg38
S'3.1'
p678
sg40
S'25'
p679
sg42
S'NOH'
p680
sg44
S'66'
p681
sg46
S'0.2'
p682
sg48
S'4.6'
p683
sg50
S'3.1'
p684
sg52
S'11.9'
p685
sg54
S'2.1'
p686
sg56
S'2002-03'
p687
sg58
S'5.1'
p688
sg60
S'1.8'
p689
sg62
S'.388'
p690
sg64
S'1360'
p691
sg66
g151
sbasS'_fromYear'
p692
S'2001'
p693
sS'_url'
p694
S'http://www.basketball-reference.com/players/a/alexaco02.html'
p695
sS'_perGame'
p696
(isrc.gp1.models.PerGame
PerGame
p697
(dp698
g8
S'0.6'
p699
sg10
S'0.9'
p700
sg12
S'.382'
p701
sS'_effectiveFieldGalPercentage'
p702
S'.401'
p703
sg14
S'1.2'
p704
sg16
S'.333'
p705
sg18
S'0.3'
p706
sg20
S'7.9'
p707
sg22
S'PG'
p708
sg24
S'.808'
p709
sg28
S'NBA'
p710
sg30
S'0.5'
p711
sg34
S'1.9'
p712
sS'_fieldGoalsttempted'
p713
S'7.7'
p714
sg36
S'2.2'
p715
sg38
S'1.8'
p716
sg40
S'25'
p717
sg42
S'NOH'
p718
sg44
S'66'
p719
sg46
S'0.1'
p720
sg48
S'2.6'
p721
sg50
S'1.8'
p722
sg52
S'6.8'
p723
sg54
S'1.2'
p724
sg56
S'2002-03'
p725
sg58
S'2.9'
p726
sg60
S'1.0'
p727
sg62
S'.388'
p728
sg64
S'20.6'
p729
sg66
g151
sbsS'_weight'
p730
S'205'
p731
sS'_dob'
p732
S'27-4-1977'
p733
sS'_salary'
p734
(lp735
(isrc.gp1.models.Salary
Salary
p736
(dp737
g42
S'Dallas Mavericks'
p738
sg28
S'NBA'
p739
sg734
S'$1,319,400'
p740
sg56
S'2000-01'
p741
sba(isrc.gp1.models.Salary
Salary
p742
(dp743
g42
S'Washington Wizards'
p744
sg28
S'NBA'
p745
sg734
S'$1,418,400'
p746
sg56
S'2001-02'
p747
sba(isrc.gp1.models.Salary
Salary
p748
(dp749
g42
S'New Orleans Hornets'
p750
sg28
S'NBA'
p751
sg734
S'$1,517,280'
p752
sg56
S'2002-03'
p753
sba(isrc.gp1.models.Salary
Salary
p754
(dp755
g42
S'New Orleans Hornets'
p756
sg28
S'NBA'
p757
sg734
S'$2,168,193'
p758
sg56
S'2003-04'
p759
sba(isrc.gp1.models.Salary
Salary
p760
(dp761
g42
S'Sacramento Kings'
p762
sg28
S'NBA'
p763
sg734
S'$79,029'
p764
sg56
S'2004-05'
p765
sbasg22
S'G'
p766
sb.