(isrc.gp1.models.Player
Player
p0
(dp1
S'_experience'
p2
S'NA'
p3
sS'_totals'
p4
(lp5
(isrc.gp1.models.Totals
Totals
p6
(dp7
S'_offensiveRebounds'
p8
S'0'
p9
sS'_threePointsAttempted'
p10
g9
sS'_fieldGoalsPercentage'
p11
S'.143'
p12
sS'_assist'
p13
g9
sS'_threePointsPercentage'
p14
g3
sS'_threePoints'
p15
g9
sS'_points'
p16
S'3'
p17
sS'_position'
p18
S'SG'
p19
sS'_freeThrowsPercentage'
p20
S'.500'
p21
sS'_effectiveFieldGoalPercentage'
p22
S'.143'
p23
sS'_league'
p24
S'NBA'
p25
sS'_steals'
p26
S'2'
p27
sS'_fieldGoalsAttempted'
p28
S'7'
p29
sS'_personalFouls'
p30
g9
sS'_freeThrowsAttempted'
p31
g27
sS'_totalRebounds'
p32
g9
sS'_age'
p33
S'23'
p34
sS'_team'
p35
S'SAS'
p36
sS'_games'
p37
g27
sS'_blocks'
p38
g9
sS'_twoPoints'
p39
S'1'
p40
sS'_freeThrows'
p41
g40
sS'_twoPointsAttempted'
p42
g29
sS'_defensiveRebounds'
p43
g9
sS'_season'
p44
S'2003-04'
p45
sS'_fieldGoals'
p46
g40
sS'_turnOvers'
p47
g40
sS'_twoPointsPercentage'
p48
S'.143'
p49
sS'_minutesPlayed'
p50
S'13'
p51
sS'_gamesStarted'
p52
g9
sba(isrc.gp1.models.Totals
Totals
p53
(dp54
g8
g29
sg10
S'18'
p55
sg11
S'.346'
p56
sg13
S'18'
p57
sg14
S'.278'
p58
sg15
S'5'
p59
sg16
S'44'
p60
sg18
S'SG'
p61
sg20
S'.750'
p62
sg22
S'.394'
p63
sg24
S'NBA'
p64
sg26
S'4'
p65
sg28
S'52'
p66
sg30
S'15'
p67
sg31
g65
sg32
S'15'
p68
sg33
S'24'
p69
sg35
S'NOH'
p70
sg37
S'8'
p71
sg38
g40
sg39
S'13'
p72
sg41
g17
sg42
S'34'
p73
sg43
g71
sg44
S'2004-05'
p74
sg46
S'18'
p75
sg47
g71
sg48
S'.382'
p76
sg50
S'146'
p77
sg52
g17
sbasS'_college'
p78
S'NA'
p79
sS'_toYear'
p80
S'2005'
p81
sS'_height'
p82
S'6-3'
p83
sS'_active'
p84
I00
sS'_shootingHand'
p85
VLeft
p86
sS'_name'
p87
S'Alex Garcia'
p88
sS'_per100Possessions'
p89
(lp90
(isrc.gp1.models.Per100Possession
Per100Possession
p91
(dp92
g8
S'0.0'
p93
sg10
S'0.0'
p94
sg11
S'.143'
p95
sS'_offensiveRating'
p96
S'40'
p97
sg13
S'0.0'
p98
sg14
g3
sg15
S'0.0'
p99
sg16
S'12.4'
p100
sg18
S'SG'
p101
sS'_defensiveRating'
p102
S'87'
p103
sg20
S'.500'
p104
sg24
S'NBA'
p105
sg26
S'8.3'
p106
sg28
S'29.0'
p107
sg30
S'0.0'
p108
sg31
S'8.3'
p109
sg32
S'0.0'
p110
sg33
S'23'
p111
sg35
S'SAS'
p112
sg37
g27
sg38
S'0.0'
p113
sg39
S'4.1'
p114
sg41
S'4.1'
p115
sg42
S'29.0'
p116
sg43
S'0.0'
p117
sg44
S'2003-04'
p118
sg46
S'4.1'
p119
sg47
S'4.1'
p120
sg48
S'.143'
p121
sg50
S'13'
p122
sg52
g9
sba(isrc.gp1.models.Per100Possession
Per100Possession
p123
(dp124
g8
S'2.6'
p125
sg10
S'6.8'
p126
sg11
S'.346'
p127
sg96
S'91'
p128
sg13
S'6.8'
p129
sg14
S'.278'
p130
sg15
S'1.9'
p131
sg16
S'16.5'
p132
sg18
S'SG'
p133
sg102
S'111'
p134
sg20
S'.750'
p135
sg24
S'NBA'
p136
sg26
S'1.5'
p137
sg28
S'19.5'
p138
sg30
S'5.6'
p139
sg31
S'1.5'
p140
sg32
S'5.6'
p141
sg33
S'24'
p142
sg35
S'NOH'
p143
sg37
g71
sg38
S'0.4'
p144
sg39
S'4.9'
p145
sg41
S'1.1'
p146
sg42
S'12.8'
p147
sg43
S'3.0'
p148
sg44
S'2004-05'
p149
sg46
S'6.8'
p150
sg47
S'3.0'
p151
sg48
S'.382'
p152
sg50
S'146'
p153
sg52
g17
sbasS'_advanced'
p154
(lp155
(isrc.gp1.models.Advanced
Advanced
p156
(dp157
S'_offensiveReboundPercentage'
p158
S'0.0'
p159
sS'_turnOverPercentage'
p160
S'11.3'
p161
sS'_winSharesPer48Minutes'
p162
S'-0.319'
p163
sS'_stealPercentage'
p164
S'8.3'
p165
sS'_usagePercentage'
p166
S'31.6'
p167
sS'_totalReboundsPercentage'
p168
S'0.0'
p169
sS'_defensiveBoxPlusMinus'
p170
S'1.0'
p171
sg18
S'SG'
p172
sS'_valueOverReplacementPlayer'
p173
S'0.0'
p174
sS'_trueShootingPercentage'
p175
S'.190'
p176
sS'_defensiveReboundPercentage'
p177
S'0.0'
p178
sS'_freeThrowsAttempRate'
p179
S'.286'
p180
sS'_threePointsAttempRate'
p181
S'.000'
p182
sg24
S'NBA'
p183
sS'_offensiveBoxPlusMinues'
p184
S'-16.7'
p185
sS'_assistPercentage'
p186
S'0.0'
p187
sS'_defensiveWinShares'
p188
S'0.0'
p189
sg33
S'23'
p190
sg35
S'SAS'
p191
sg37
g27
sS'_blockPercentage'
p192
S'0.0'
p193
sS'_playerEfficiencyRating'
p194
S'-4.7'
p195
sS'_offensiveWinShares'
p196
S'-0.1'
p197
sg50
S'13'
p198
sS'_boxPlusMinus'
p199
S'-15.7'
p200
sg44
S'2003-04'
p201
sS'_winShares'
p202
S'-0.1'
p203
sba(isrc.gp1.models.Advanced
Advanced
p204
(dp205
g158
S'5.5'
p206
sg160
S'13.0'
p207
sg162
S'-0.018'
p208
sg164
S'1.5'
p209
sg166
S'19.7'
p210
sg168
S'6.1'
p211
sg170
S'-2.1'
p212
sg18
S'SG'
p213
sg173
S'-0.1'
p214
sg175
S'.409'
p215
sg177
S'6.8'
p216
sg179
S'.077'
p217
sg181
S'.346'
p218
sg24
S'NBA'
p219
sg184
S'-2.5'
p220
sg186
S'22.1'
p221
sg188
S'0.1'
p222
sg33
S'24'
p223
sg35
S'NOH'
p224
sg37
g71
sg192
S'0.6'
p225
sg194
S'8.4'
p226
sg196
S'-0.1'
p227
sg50
S'146'
p228
sg199
S'-4.5'
p229
sg44
S'2004-05'
p230
sg202
S'-0.1'
p231
sbasS'_per36Minutes'
p232
(lp233
(isrc.gp1.models.Per36Minutes
Per36Minutes
p234
(dp235
g8
S'0.0'
p236
sg10
S'0.0'
p237
sg11
S'.143'
p238
sg13
S'0.0'
p239
sg14
g3
sg15
S'0.0'
p240
sg16
S'8.3'
p241
sg18
S'SG'
p242
sg20
S'.500'
p243
sg24
S'NBA'
p244
sg26
S'5.5'
p245
sg28
S'19.4'
p246
sg30
S'0.0'
p247
sg31
S'5.5'
p248
sg32
S'0.0'
p249
sg33
S'23'
p250
sg35
S'SAS'
p251
sg37
g27
sg38
S'0.0'
p252
sg39
S'2.8'
p253
sg41
S'2.8'
p254
sg42
S'19.4'
p255
sg43
S'0.0'
p256
sg44
S'2003-04'
p257
sg46
S'2.8'
p258
sg47
S'2.8'
p259
sg48
S'.143'
p260
sg50
S'13'
p261
sg52
g9
sba(isrc.gp1.models.Per36Minutes
Per36Minutes
p262
(dp263
g8
S'1.7'
p264
sg10
S'4.4'
p265
sg11
S'.346'
p266
sg13
S'4.4'
p267
sg14
S'.278'
p268
sg15
S'1.2'
p269
sg16
S'10.8'
p270
sg18
S'SG'
p271
sg20
S'.750'
p272
sg24
S'NBA'
p273
sg26
S'1.0'
p274
sg28
S'12.8'
p275
sg30
S'3.7'
p276
sg31
S'1.0'
p277
sg32
S'3.7'
p278
sg33
S'24'
p279
sg35
S'NOH'
p280
sg37
g71
sg38
S'0.2'
p281
sg39
S'3.2'
p282
sg41
S'0.7'
p283
sg42
S'8.4'
p284
sg43
S'2.0'
p285
sg44
S'2004-05'
p286
sg46
S'4.4'
p287
sg47
S'2.0'
p288
sg48
S'.382'
p289
sg50
S'146'
p290
sg52
g17
sbasS'_fromYear'
p291
S'2004'
p292
sS'_url'
p293
S'http://www.basketball-reference.com/players/g/garcial01.html'
p294
sS'_perGame'
p295
(isrc.gp1.models.PerGame
PerGame
p296
(dp297
g8
S'0.9'
p298
sg10
S'2.3'
p299
sg11
S'.346'
p300
sS'_effectiveFieldGalPercentage'
p301
S'.394'
p302
sg13
S'2.3'
p303
sg14
S'.278'
p304
sg15
S'0.6'
p305
sg16
S'5.5'
p306
sg18
S'SG'
p307
sg20
S'.750'
p308
sg24
S'NBA'
p309
sg26
S'0.5'
p310
sg30
S'1.9'
p311
sS'_fieldGoalsttempted'
p312
S'6.5'
p313
sg31
S'0.5'
p314
sg32
S'1.9'
p315
sg33
S'24'
p316
sg35
S'NOH'
p317
sg37
g71
sg38
S'0.1'
p318
sg39
S'1.6'
p319
sg41
S'0.4'
p320
sg42
S'4.3'
p321
sg43
S'1.0'
p322
sg44
S'2004-05'
p323
sg46
S'2.3'
p324
sg47
S'1.0'
p325
sg48
S'.382'
p326
sg50
S'18.3'
p327
sg52
g17
sbsS'_weight'
p328
S'220'
p329
sS'_dob'
p330
S'4-3-1980'
p331
sS'_salary'
p332
(lp333
(isrc.gp1.models.Salary
Salary
p334
(dp335
g35
S'San Antonio Spurs'
p336
sg24
S'NBA'
p337
sg332
S'$366,931'
p338
sg44
S'2003-04'
p339
sba(isrc.gp1.models.Salary
Salary
p340
(dp341
g35
S'New Orleans Hornets'
p342
sg24
S'NBA'
p343
sg332
S'$620,046'
p344
sg44
S'2004-05'
p345
sbasg18
S'G'
p346
sb.