(isrc.gp1.models.Player
Player
p0
(dp1
S'_experience'
p2
S'NA'
p3
sS'_totals'
p4
(lp5
(isrc.gp1.models.Totals
Totals
p6
(dp7
S'_offensiveRebounds'
p8
S'0'
p9
sS'_threePointsAttempted'
p10
g9
sS'_fieldGoalsPercentage'
p11
S'.250'
p12
sS'_assist'
p13
g9
sS'_threePointsPercentage'
p14
S'1'
p15
sS'_threePoints'
p16
g9
sS'_points'
p17
g3
sS'_position'
p18
S'SF'
p19
sS'_freeThrowsPercentage'
p20
S'3'
p21
sS'_effectiveFieldGoalPercentage'
p22
g15
sS'_league'
p23
S'NBA'
p24
sS'_steals'
p25
g9
sS'_fieldGoalsAttempted'
p26
S'4'
p27
sS'_personalFouls'
p28
g21
sS'_freeThrowsAttempted'
p29
S'.250'
p30
sS'_totalRebounds'
p31
g15
sS'_age'
p32
S'23'
p33
sS'_team'
p34
S'SEA'
p35
sS'_games'
p36
g21
sS'_blocks'
p37
g21
sS'_twoPoints'
p38
g27
sS'_freeThrows'
p39
g27
sS'_twoPointsAttempted'
p40
S'.250'
p41
sS'_defensiveRebounds'
p42
g21
sS'_season'
p43
S'1985-86'
p44
sS'_fieldGoals'
p45
g15
sS'_turnOvers'
p46
S'2'
p47
sS'_twoPointsPercentage'
p48
S'.250'
p49
sS'_minutesPlayed'
p50
S'14'
p51
sS'_gamesStarted'
p52
g9
sba(isrc.gp1.models.Totals
Totals
p53
(dp54
g8
g3
sg10
g3
sg11
g3
sg13
g3
sg14
g3
sg16
g3
sg17
g3
sg18
g3
sg20
g3
sg22
g3
sg23
g3
sg25
g3
sg26
g3
sg28
g3
sg29
g3
sg31
g3
sg32
S'24'
p55
sg34
S'Did Not Play\xc2\xa0(other pro league\xe2\x80\x94France)'
p56
sg36
g3
sg37
g3
sg38
g3
sg39
g3
sg40
g3
sg42
g3
sg43
S'1986-87'
p57
sg45
g3
sg46
g3
sg48
g3
sg50
g3
sg52
g3
sba(isrc.gp1.models.Totals
Totals
p58
(dp59
g8
g3
sg10
g3
sg11
g3
sg13
g3
sg14
g3
sg16
g3
sg17
g3
sg18
g3
sg20
g3
sg22
g3
sg23
g3
sg25
g3
sg26
g3
sg28
g3
sg29
g3
sg31
g3
sg32
S'25'
p60
sg34
S'Did Not Play\xc2\xa0(other pro league\xe2\x80\x94France)'
p61
sg36
g3
sg37
g3
sg38
g3
sg39
g3
sg40
g3
sg42
g3
sg43
S'1987-88'
p62
sg45
g3
sg46
g3
sg48
g3
sg50
g3
sg52
g3
sba(isrc.gp1.models.Totals
Totals
p63
(dp64
g8
g3
sg10
g3
sg11
g3
sg13
g3
sg14
g3
sg16
g3
sg17
g3
sg18
g3
sg20
g3
sg22
g3
sg23
g3
sg25
g3
sg26
g3
sg28
g3
sg29
g3
sg31
g3
sg32
S'26'
p65
sg34
S'Did Not Play\xc2\xa0(other pro league\xe2\x80\x94France)'
p66
sg36
g3
sg37
g3
sg38
g3
sg39
g3
sg40
g3
sg42
g3
sg43
S'1988-89'
p67
sg45
g3
sg46
g3
sg48
g3
sg50
g3
sg52
g3
sba(isrc.gp1.models.Totals
Totals
p68
(dp69
g8
g3
sg10
g3
sg11
g3
sg13
g3
sg14
g3
sg16
g3
sg17
g3
sg18
g3
sg20
g3
sg22
g3
sg23
g3
sg25
g3
sg26
g3
sg28
g3
sg29
g3
sg31
g3
sg32
S'27'
p70
sg34
S'Did Not Play\xc2\xa0(other pro league\xe2\x80\x94France)'
p71
sg36
g3
sg37
g3
sg38
g3
sg39
g3
sg40
g3
sg42
g3
sg43
S'1989-90'
p72
sg45
g3
sg46
g3
sg48
g3
sg50
g3
sg52
g3
sba(isrc.gp1.models.Totals
Totals
p73
(dp74
g8
g3
sg10
g3
sg11
g3
sg13
g3
sg14
g3
sg16
g3
sg17
g3
sg18
g3
sg20
g3
sg22
g3
sg23
g3
sg25
g3
sg26
g3
sg28
g3
sg29
g3
sg31
g3
sg32
S'28'
p75
sg34
S'Did Not Play\xc2\xa0(other pro league\xe2\x80\x94CBA)'
p76
sg36
g3
sg37
g3
sg38
g3
sg39
g3
sg40
g3
sg42
g3
sg43
S'1990-91'
p77
sg45
g3
sg46
g3
sg48
g3
sg50
g3
sg52
g3
sba(isrc.gp1.models.Totals
Totals
p78
(dp79
g8
g3
sg10
g3
sg11
g3
sg13
g3
sg14
g3
sg16
g3
sg17
g3
sg18
g3
sg20
g3
sg22
g3
sg23
g3
sg25
g3
sg26
g3
sg28
g3
sg29
g3
sg31
g3
sg32
S'29'
p80
sg34
S'Did Not Play\xc2\xa0(other pro league\xe2\x80\x94Italy)'
p81
sg36
g3
sg37
g3
sg38
g3
sg39
g3
sg40
g3
sg42
g3
sg43
S'1991-92'
p82
sg45
g3
sg46
g3
sg48
g3
sg50
g3
sg52
g3
sba(isrc.gp1.models.Totals
Totals
p83
(dp84
g8
S'7'
p85
sg10
g47
sg11
S'.487'
p86
sg13
g21
sg14
S'.000'
p87
sg16
g9
sg17
S'41'
p88
sg18
S'PF-SF'
p89
sg20
S'.750'
p90
sg22
S'.487'
p91
sg23
S'NBA'
p92
sg25
g47
sg26
S'39'
p93
sg28
S'11'
p94
sg29
g27
sg31
S'19'
p95
sg32
S'30'
p96
sg34
S'TOT'
p97
sg36
S'19'
p98
sg37
g47
sg38
S'19'
p99
sg39
g21
sg40
S'37'
p100
sg42
S'12'
p101
sg43
S'1992-93'
p102
sg45
S'19'
p103
sg46
g85
sg48
S'.514'
p104
sg50
S'76'
p105
sg52
g9
sba(isrc.gp1.models.Totals
Totals
p106
(dp107
g8
S'6'
p108
sg10
g15
sg11
S'.611'
p109
sg13
g15
sg14
S'.000'
p110
sg16
g9
sg17
g3
sg18
S'PF'
p111
sg20
g47
sg22
S'.611'
p112
sg23
S'NBA'
p113
sg25
g15
sg26
S'18'
p114
sg28
S'22'
p115
sg29
g9
sg31
g15
sg32
S'30'
p116
sg34
S'PHO'
p117
sg36
S'10'
p118
sg37
S'5'
p119
sg38
S'11'
p120
sg39
g9
sg40
S'17'
p121
sg42
S'8'
p122
sg43
S'1992-93'
p123
sg45
S'11'
p124
sg46
g85
sg48
S'.647'
p125
sg50
S'35'
p126
sg52
g9
sba(isrc.gp1.models.Totals
Totals
p127
(dp128
g8
g9
sg10
g9
sg11
S'.000'
p129
sg13
g9
sg14
g9
sg16
g9
sg17
g3
sg18
S'SF'
p130
sg20
g9
sg22
g9
sg23
S'NBA'
p131
sg25
g9
sg26
g15
sg28
g3
sg29
g9
sg31
g9
sg32
S'30'
p132
sg34
S'LAC'
p133
sg36
g15
sg37
g9
sg38
g15
sg39
g9
sg40
S'.000'
p134
sg42
g9
sg43
S'1992-93'
p135
sg45
g9
sg46
g9
sg48
S'.000'
p136
sg50
g15
sg52
g9
sba(isrc.gp1.models.Totals
Totals
p137
(dp138
g8
g21
sg10
g9
sg11
S'.364'
p139
sg13
g15
sg14
g27
sg16
g9
sg17
g3
sg18
S'SF'
p140
sg20
g21
sg22
g21
sg23
S'NBA'
p141
sg25
g9
sg26
S'11'
p142
sg28
S'11'
p143
sg29
S'.750'
p144
sg31
g47
sg32
S'30'
p145
sg34
S'MIL'
p146
sg36
g21
sg37
g47
sg38
S'11'
p147
sg39
g27
sg40
S'.364'
p148
sg42
g108
sg43
S'1992-93'
p149
sg45
g27
sg46
g27
sg48
S'.364'
p150
sg50
S'25'
p151
sg52
g9
sba(isrc.gp1.models.Totals
Totals
p152
(dp153
g8
g21
sg10
g15
sg11
S'.444'
p154
sg13
g9
sg14
S'.000'
p155
sg16
g9
sg17
g3
sg18
S'PF'
p156
sg20
g47
sg22
S'.444'
p157
sg23
S'NBA'
p158
sg25
g15
sg26
S'9'
p159
sg28
g122
sg29
g9
sg31
g9
sg32
S'30'
p160
sg34
S'ATL'
p161
sg36
g119
sg37
g9
sg38
g27
sg39
g9
sg40
g122
sg42
g119
sg43
S'1992-93'
p162
sg45
g27
sg46
g9
sg48
S'.500'
p163
sg50
S'15'
p164
sg52
g9
sbasS'_college'
p165
S'University of Colorado'
p166
sS'_toYear'
p167
S'1993'
p168
sS'_height'
p169
S'6-8'
p170
sS'_active'
p171
I00
sS'_shootingHand'
p172
VRight
p173
sS'_name'
p174
S'Alex Stivrins'
p175
sS'_per100Possessions'
p176
(lp177
(isrc.gp1.models.Per100Possession
Per100Possession
p178
(dp179
g8
S'0.0'
p180
sg10
S'0.0'
p181
sg11
S'.250'
p182
sS'_offensiveRating'
p183
S'114'
p184
sg13
S'0.0'
p185
sg14
S'3.5'
p186
sg16
S'0.0'
p187
sg17
S'57'
p188
sg18
S'SF'
p189
sS'_defensiveRating'
p190
g3
sg20
S'10.6'
p191
sg23
S'NBA'
p192
sg25
S'0.0'
p193
sg26
S'14.1'
p194
sg28
S'10.6'
p195
sg29
S'.250'
p196
sg31
S'3.5'
p197
sg32
S'23'
p198
sg34
S'SEA'
p199
sg36
g21
sg37
S'10.6'
p200
sg38
S'14.1'
p201
sg39
S'14.1'
p202
sg40
S'.250'
p203
sg42
S'10.6'
p204
sg43
S'1985-86'
p205
sg45
S'3.5'
p206
sg46
S'7.0'
p207
sg48
S'3.5'
p208
sg50
S'14'
p209
sg52
g9
sba(isrc.gp1.models.Per100Possession
Per100Possession
p210
(dp211
g8
S'4.5'
p212
sg10
S'1.3'
p213
sg11
S'.487'
p214
sg183
S'94'
p215
sg13
S'1.9'
p216
sg14
S'.000'
p217
sg16
S'0.0'
p218
sg17
S'26.4'
p219
sg18
S'PF-SF'
p220
sg190
S'108'
p221
sg20
S'.750'
p222
sg23
S'NBA'
p223
sg25
S'1.3'
p224
sg26
S'25.1'
p225
sg28
S'7.1'
p226
sg29
S'2.6'
p227
sg31
S'12.2'
p228
sg32
S'30'
p229
sg34
S'TOT'
p230
sg36
S'19'
p231
sg37
S'1.3'
p232
sg38
S'12.2'
p233
sg39
S'1.9'
p234
sg40
S'23.8'
p235
sg42
S'7.7'
p236
sg43
S'1992-93'
p237
sg45
S'12.2'
p238
sg46
S'4.5'
p239
sg48
S'.514'
p240
sg50
S'76'
p241
sg52
g9
sba(isrc.gp1.models.Per100Possession
Per100Possession
p242
(dp243
g8
S'8.2'
p244
sg10
S'1.4'
p245
sg11
S'.611'
p246
sg183
S'106'
p247
sg13
S'1.4'
p248
sg14
S'.000'
p249
sg16
S'0.0'
p250
sg17
S'93'
p251
sg18
S'PF'
p252
sg190
g3
sg20
S'2.7'
p253
sg23
S'NBA'
p254
sg25
S'1.4'
p255
sg26
S'24.7'
p256
sg28
S'30.2'
p257
sg29
S'0.0'
p258
sg31
S'1.4'
p259
sg32
S'30'
p260
sg34
S'PHO'
p261
sg36
S'10'
p262
sg37
S'6.9'
p263
sg38
S'15.1'
p264
sg39
S'0.0'
p265
sg40
S'23.4'
p266
sg42
S'11.0'
p267
sg43
S'1992-93'
p268
sg45
S'15.1'
p269
sg46
S'9.6'
p270
sg48
S'.647'
p271
sg50
S'35'
p272
sg52
g9
sba(isrc.gp1.models.Per100Possession
Per100Possession
p273
(dp274
g8
S'0.0'
p275
sg10
S'0.0'
p276
sg11
S'.000'
p277
sg183
g3
sg13
S'0.0'
p278
sg14
S'0.0'
p279
sg16
S'0.0'
p280
sg17
S'117'
p281
sg18
S'SF'
p282
sg190
g3
sg20
S'0.0'
p283
sg23
S'NBA'
p284
sg25
S'0.0'
p285
sg26
S'48.5'
p286
sg28
g9
sg29
S'0.0'
p287
sg31
S'0.0'
p288
sg32
S'30'
p289
sg34
S'LAC'
p290
sg36
g15
sg37
S'0.0'
p291
sg38
S'48.5'
p292
sg39
S'0.0'
p293
sg40
S'.000'
p294
sg42
S'0.0'
p295
sg43
S'1992-93'
p296
sg45
S'0.0'
p297
sg46
S'0.0'
p298
sg48
S'0.0'
p299
sg50
g15
sg52
g9
sba(isrc.gp1.models.Per100Possession
Per100Possession
p300
(dp301
g8
S'6.0'
p302
sg10
S'0.0'
p303
sg11
S'.364'
p304
sg183
S'111'
p305
sg13
S'2.0'
p306
sg14
S'8.0'
p307
sg16
S'0.0'
p308
sg17
S'94'
p309
sg18
S'SF'
p310
sg190
g3
sg20
S'6.0'
p311
sg23
S'NBA'
p312
sg25
S'0.0'
p313
sg26
S'22.0'
p314
sg28
S'22.0'
p315
sg29
S'.750'
p316
sg31
S'4.0'
p317
sg32
S'30'
p318
sg34
S'MIL'
p319
sg36
g21
sg37
S'4.0'
p320
sg38
S'22.0'
p321
sg39
S'8.0'
p322
sg40
S'.364'
p323
sg42
S'12.0'
p324
sg43
S'1992-93'
p325
sg45
S'8.0'
p326
sg46
S'8.0'
p327
sg48
S'6.0'
p328
sg50
S'25'
p329
sg52
g9
sba(isrc.gp1.models.Per100Possession
Per100Possession
p330
(dp331
g8
S'9.8'
p332
sg10
S'3.3'
p333
sg11
S'.444'
p334
sg183
S'110'
p335
sg13
S'0.0'
p336
sg14
S'.000'
p337
sg16
S'0.0'
p338
sg17
S'106'
p339
sg18
S'PF'
p340
sg190
g3
sg20
S'6.6'
p341
sg23
S'NBA'
p342
sg25
S'3.3'
p343
sg26
S'29.5'
p344
sg28
S'26.2'
p345
sg29
S'0.0'
p346
sg31
S'0.0'
p347
sg32
S'30'
p348
sg34
S'ATL'
p349
sg36
g119
sg37
S'0.0'
p350
sg38
S'13.1'
p351
sg39
S'0.0'
p352
sg40
S'26.2'
p353
sg42
S'16.4'
p354
sg43
S'1992-93'
p355
sg45
S'13.1'
p356
sg46
S'0.0'
p357
sg48
S'.500'
p358
sg50
S'15'
p359
sg52
g9
sbasS'_advanced'
p360
(lp361
(isrc.gp1.models.Advanced
Advanced
p362
(dp363
S'_offensiveReboundPercentage'
p364
S'24.7'
p365
sS'_turnOverPercentage'
p366
S'34.2'
p367
sS'_winSharesPer48Minutes'
p368
S'-0.347'
p369
sS'_stealPercentage'
p370
S'0.0'
p371
sS'_usagePercentage'
p372
S'26.2'
p373
sS'_totalReboundsPercentage'
p374
S'12.7'
p375
sS'_defensiveBoxPlusMinus'
p376
S'-3.1'
p377
sg18
S'SF'
p378
sS'_valueOverReplacementPlayer'
p379
S'0.0'
p380
sS'_trueShootingPercentage'
p381
S'.260'
p382
sS'_defensiveReboundPercentage'
p383
S'0.0'
p384
sS'_freeThrowsAttempRate'
p385
S'1.000'
p386
sS'_threePointsAttempRate'
p387
S'.000'
p388
sg23
S'NBA'
p389
sS'_offensiveBoxPlusMinues'
p390
S'-10.3'
p391
sS'_assistPercentage'
p392
S'9.3'
p393
sS'_defensiveWinShares'
p394
S'0.0'
p395
sg32
S'23'
p396
sg34
S'SEA'
p397
sg36
g21
sS'_blockPercentage'
p398
S'0.0'
p399
sS'_playerEfficiencyRating'
p400
S'-5.9'
p401
sS'_offensiveWinShares'
p402
S'-0.1'
p403
sg50
S'14'
p404
sS'_boxPlusMinus'
p405
S'-13.4'
p406
sg43
S'1985-86'
p407
sS'_winShares'
p408
S'-0.1'
p409
sba(isrc.gp1.models.Advanced
Advanced
p410
(dp411
g364
S'10.3'
p412
sg366
S'14.7'
p413
sg368
S'.013'
p414
sg370
S'1.3'
p415
sg372
S'26.2'
p416
sg374
S'14.1'
p417
sg376
S'-3.7'
p418
sg18
S'PF-SF'
p419
sg379
S'-0.1'
p420
sg381
S'.503'
p421
sg383
S'17.8'
p422
sg385
S'.103'
p423
sg387
S'.051'
p424
sg23
S'NBA'
p425
sg390
S'-4.4'
p426
sg392
S'6.2'
p427
sg394
S'0.1'
p428
sg32
S'30'
p429
sg34
S'TOT'
p430
sg36
S'19'
p431
sg398
S'1.6'
p432
sg400
S'13.5'
p433
sg402
S'-0.1'
p434
sg50
S'76'
p435
sg405
S'-8.1'
p436
sg43
S'1992-93'
p437
sg408
S'0.0'
p438
sba(isrc.gp1.models.Advanced
Advanced
p439
(dp440
g364
S'6.5'
p441
sg366
S'21.7'
p442
sg368
S'.022'
p443
sg370
S'1.4'
p444
sg372
S'27.1'
p445
sg374
S'12.7'
p446
sg376
S'-2.4'
p447
sg18
S'PF'
p448
sg379
S'0.0'
p449
sg381
S'.611'
p450
sg383
S'18.6'
p451
sg385
S'.000'
p452
sg387
S'.056'
p453
sg23
S'NBA'
p454
sg390
S'-3.8'
p455
sg392
S'5.0'
p456
sg394
S'0.0'
p457
sg32
S'30'
p458
sg34
S'PHO'
p459
sg36
S'10'
p460
sg398
S'1.7'
p461
sg400
S'14.5'
p462
sg402
S'0.0'
p463
sg50
S'35'
p464
sg405
S'-6.2'
p465
sg43
S'1992-93'
p466
sg408
S'0.0'
p467
sba(isrc.gp1.models.Advanced
Advanced
p468
(dp469
g364
S'0.0'
p470
sg366
S'0.0'
p471
sg368
S'-0.903'
p472
sg370
S'0.0'
p473
sg372
S'41.2'
p474
sg374
S'0.0'
p475
sg376
S'-12.3'
p476
sg18
S'SF'
p477
sg379
S'0.0'
p478
sg381
S'.000'
p479
sg383
S'0.0'
p480
sg385
S'.000'
p481
sg387
S'.000'
p482
sg23
S'NBA'
p483
sg390
S'-32.6'
p484
sg392
S'0.0'
p485
sg394
S'0.0'
p486
sg32
S'30'
p487
sg34
S'LAC'
p488
sg36
g15
sg398
S'0.0'
p489
sg400
S'-32.3'
p490
sg402
S'0.0'
p491
sg50
g15
sg405
S'-44.9'
p492
sg43
S'1992-93'
p493
sg408
S'0.0'
p494
sba(isrc.gp1.models.Advanced
Advanced
p495
(dp496
g364
S'13.7'
p497
sg366
S'13.6'
p498
sg368
S'-0.004'
p499
sg370
S'2.0'
p500
sg372
S'25.3'
p501
sg374
S'13.9'
p502
sg376
S'-2.5'
p503
sg18
S'SF'
p504
sg379
S'0.0'
p505
sg381
S'.431'
p506
sg383
S'14.0'
p507
sg385
S'.364'
p508
sg387
S'.000'
p509
sg23
S'NBA'
p510
sg390
S'-3.8'
p511
sg392
S'12.0'
p512
sg394
S'0.0'
p513
sg32
S'30'
p514
sg34
S'MIL'
p515
sg36
g21
sg398
S'0.0'
p516
sg400
S'10.9'
p517
sg402
S'0.0'
p518
sg50
S'25'
p519
sg405
S'-6.3'
p520
sg43
S'1992-93'
p521
sg408
S'0.0'
p522
sba(isrc.gp1.models.Advanced
Advanced
p523
(dp524
g364
S'14.3'
p525
sg366
S'0.0'
p526
sg368
S'.082'
p527
sg370
S'0.0'
p528
sg372
S'24.8'
p529
sg374
S'18.5'
p530
sg376
S'-7.9'
p531
sg18
S'PF'
p532
sg379
S'0.0'
p533
sg381
S'.444'
p534
sg383
S'23.2'
p535
sg385
S'.000'
p536
sg387
S'.111'
p537
sg23
S'NBA'
p538
sg390
S'-5.1'
p539
sg392
S'0.0'
p540
sg394
S'0.0'
p541
sg32
S'30'
p542
sg34
S'ATL'
p543
sg36
g119
sg398
S'4.2'
p544
sg400
S'18.8'
p545
sg402
S'0.0'
p546
sg50
S'15'
p547
sg405
S'-13.0'
p548
sg43
S'1992-93'
p549
sg408
S'0.0'
p550
sbasS'_per36Minutes'
p551
(lp552
(isrc.gp1.models.Per36Minutes
Per36Minutes
p553
(dp554
g8
S'0.0'
p555
sg10
S'0.0'
p556
sg11
S'.250'
p557
sg13
S'0.0'
p558
sg14
S'2.6'
p559
sg16
S'0.0'
p560
sg17
g3
sg18
S'SF'
p561
sg20
S'7.7'
p562
sg23
S'NBA'
p563
sg25
S'0.0'
p564
sg26
S'10.3'
p565
sg28
S'7.7'
p566
sg29
S'.250'
p567
sg31
S'2.6'
p568
sg32
S'23'
p569
sg34
S'SEA'
p570
sg36
g21
sg37
S'7.7'
p571
sg38
S'10.3'
p572
sg39
S'10.3'
p573
sg40
S'.250'
p574
sg42
S'7.7'
p575
sg43
S'1985-86'
p576
sg45
S'2.6'
p577
sg46
S'5.1'
p578
sg48
S'2.6'
p579
sg50
S'14'
p580
sg52
g9
sba(isrc.gp1.models.Per36Minutes
Per36Minutes
p581
(dp582
g8
S'3.3'
p583
sg10
S'0.9'
p584
sg11
S'.487'
p585
sg13
S'1.4'
p586
sg14
S'.000'
p587
sg16
S'0.0'
p588
sg17
S'19.4'
p589
sg18
S'PF-SF'
p590
sg20
S'.750'
p591
sg23
S'NBA'
p592
sg25
S'0.9'
p593
sg26
S'18.5'
p594
sg28
S'5.2'
p595
sg29
S'1.9'
p596
sg31
S'9.0'
p597
sg32
S'30'
p598
sg34
S'TOT'
p599
sg36
S'19'
p600
sg37
S'0.9'
p601
sg38
S'9.0'
p602
sg39
S'1.4'
p603
sg40
S'17.5'
p604
sg42
S'5.7'
p605
sg43
S'1992-93'
p606
sg45
S'9.0'
p607
sg46
S'3.3'
p608
sg48
S'.514'
p609
sg50
S'76'
p610
sg52
g9
sba(isrc.gp1.models.Per36Minutes
Per36Minutes
p611
(dp612
g8
S'6.2'
p613
sg10
S'1.0'
p614
sg11
S'.611'
p615
sg13
S'1.0'
p616
sg14
S'.000'
p617
sg16
S'0.0'
p618
sg17
g3
sg18
S'PF'
p619
sg20
S'2.1'
p620
sg23
S'NBA'
p621
sg25
S'1.0'
p622
sg26
S'18.5'
p623
sg28
S'22.6'
p624
sg29
S'0.0'
p625
sg31
S'1.0'
p626
sg32
S'30'
p627
sg34
S'PHO'
p628
sg36
S'10'
p629
sg37
S'5.1'
p630
sg38
S'11.3'
p631
sg39
S'0.0'
p632
sg40
S'17.5'
p633
sg42
S'8.2'
p634
sg43
S'1992-93'
p635
sg45
S'11.3'
p636
sg46
S'7.2'
p637
sg48
S'.647'
p638
sg50
S'35'
p639
sg52
g9
sba(isrc.gp1.models.Per36Minutes
Per36Minutes
p640
(dp641
g8
S'0.0'
p642
sg10
S'0.0'
p643
sg11
S'.000'
p644
sg13
S'0.0'
p645
sg14
S'0.0'
p646
sg16
S'0.0'
p647
sg17
g3
sg18
S'SF'
p648
sg20
S'0.0'
p649
sg23
S'NBA'
p650
sg25
S'0.0'
p651
sg26
S'36.0'
p652
sg28
g3
sg29
S'0.0'
p653
sg31
S'0.0'
p654
sg32
S'30'
p655
sg34
S'LAC'
p656
sg36
g15
sg37
S'0.0'
p657
sg38
S'36.0'
p658
sg39
S'0.0'
p659
sg40
S'.000'
p660
sg42
S'0.0'
p661
sg43
S'1992-93'
p662
sg45
S'0.0'
p663
sg46
S'0.0'
p664
sg48
S'0.0'
p665
sg50
g15
sg52
g9
sba(isrc.gp1.models.Per36Minutes
Per36Minutes
p666
(dp667
g8
S'4.3'
p668
sg10
S'0.0'
p669
sg11
S'.364'
p670
sg13
S'1.4'
p671
sg14
S'5.8'
p672
sg16
S'0.0'
p673
sg17
g3
sg18
S'SF'
p674
sg20
S'4.3'
p675
sg23
S'NBA'
p676
sg25
S'0.0'
p677
sg26
S'15.8'
p678
sg28
S'15.8'
p679
sg29
S'.750'
p680
sg31
S'2.9'
p681
sg32
S'30'
p682
sg34
S'MIL'
p683
sg36
g21
sg37
S'2.9'
p684
sg38
S'15.8'
p685
sg39
S'5.8'
p686
sg40
S'.364'
p687
sg42
S'8.6'
p688
sg43
S'1992-93'
p689
sg45
S'5.8'
p690
sg46
S'5.8'
p691
sg48
S'4.3'
p692
sg50
S'25'
p693
sg52
g9
sba(isrc.gp1.models.Per36Minutes
Per36Minutes
p694
(dp695
g8
S'7.2'
p696
sg10
S'2.4'
p697
sg11
S'.444'
p698
sg13
S'0.0'
p699
sg14
S'.000'
p700
sg16
S'0.0'
p701
sg17
g3
sg18
S'PF'
p702
sg20
S'4.8'
p703
sg23
S'NBA'
p704
sg25
S'2.4'
p705
sg26
S'21.6'
p706
sg28
S'19.2'
p707
sg29
S'0.0'
p708
sg31
S'0.0'
p709
sg32
S'30'
p710
sg34
S'ATL'
p711
sg36
g119
sg37
S'0.0'
p712
sg38
S'9.6'
p713
sg39
S'0.0'
p714
sg40
S'19.2'
p715
sg42
S'12.0'
p716
sg43
S'1992-93'
p717
sg45
S'9.6'
p718
sg46
S'0.0'
p719
sg48
S'.500'
p720
sg50
S'15'
p721
sg52
g9
sbasS'_fromYear'
p722
S'1986'
p723
sS'_url'
p724
S'http://www.basketball-reference.com/players/s/stivral01.html'
p725
sS'_perGame'
p726
(isrc.gp1.models.PerGame
PerGame
p727
(dp728
g8
S'0.6'
p729
sg10
S'0.2'
p730
sg11
S'.444'
p731
sS'_effectiveFieldGalPercentage'
p732
S'.444'
p733
sg13
S'0.0'
p734
sg14
S'.000'
p735
sg16
S'0.0'
p736
sg17
g3
sg18
S'PF'
p737
sg20
S'0.4'
p738
sg23
S'NBA'
p739
sg25
S'0.2'
p740
sg28
S'1.6'
p741
sS'_fieldGoalsttempted'
p742
S'1.8'
p743
sg29
S'0.0'
p744
sg31
S'0.0'
p745
sg32
S'30'
p746
sg34
S'ATL'
p747
sg36
g119
sg37
S'0.0'
p748
sg38
S'0.8'
p749
sg39
S'0.0'
p750
sg40
S'1.6'
p751
sg42
S'1.0'
p752
sg43
S'1992-93'
p753
sg45
S'0.8'
p754
sg46
S'0.0'
p755
sg48
S'.500'
p756
sg50
S'3.0'
p757
sg52
g9
sbsS'_weight'
p758
S'220'
p759
sS'_dob'
p760
S'29-11-1962'
p761
sS'_salary'
p762
(lp763
(isrc.gp1.models.Salary
Salary
p764
(dp765
g34
S'Phoenix Suns'
p766
sg23
S'NBA'
p767
sg762
S'$140,000'
p768
sg43
S'1992-93'
p769
sbasg18
S'F'
p770
sb.