(isrc.gp1.models.Player
Player
p0
(dp1
S'_experience'
p2
S'NA'
p3
sS'_totals'
p4
(lp5
(isrc.gp1.models.Totals
Totals
p6
(dp7
S'_offensiveRebounds'
p8
g3
sS'_threePointsAttempted'
p9
S'.358'
p10
sS'_fieldGoalsPercentage'
p11
S'191'
p12
sS'_assist'
p13
g3
sS'_threePointsPercentage'
p14
S'.358'
p15
sS'_threePoints'
p16
S'534'
p17
sS'_points'
p18
g3
sS'_position'
p19
S'SF'
p20
sS'_freeThrowsPercentage'
p21
S'546'
p22
sS'_effectiveFieldGoalPercentage'
p23
S'186'
p24
sS'_league'
p25
S'NBA'
p26
sS'_steals'
p27
g3
sS'_fieldGoalsAttempted'
p28
S'.358'
p29
sS'_personalFouls'
p30
g3
sS'_freeThrowsAttempted'
p31
S'192'
p32
sS'_totalRebounds'
p33
g3
sS'_age'
p34
S'22'
p35
sS'_team'
p36
S'STL'
p37
sS'_games'
p38
S'68'
p39
sS'_blocks'
p40
g3
sS'_twoPoints'
p41
S'164'
p42
sS'_freeThrows'
p43
S'163'
p44
sS'_twoPointsAttempted'
p45
S'236'
p46
sS'_defensiveRebounds'
p47
g3
sS'_season'
p48
S'1955-56'
p49
sS'_fieldGoals'
p50
S'534'
p51
sS'_turnOvers'
p52
g3
sS'_twoPointsPercentage'
p53
S'.695'
p54
sS'_minutesPlayed'
p55
S'191'
p56
sS'_gamesStarted'
p57
S'1611'
p58
sba(isrc.gp1.models.Totals
Totals
p59
(dp60
g8
g3
sg9
g3
sg11
g3
sg13
g3
sg14
g3
sg16
g3
sg18
g3
sg19
g3
sg21
g3
sg23
g3
sg25
g3
sg27
g3
sg28
g3
sg30
g3
sg31
g3
sg33
g3
sg34
S'23'
p61
sg36
S'Did Not Play\xc2\xa0(military service\xe2\x80\x94U.S. Army)'
p62
sg38
g3
sg40
g3
sg41
g3
sg43
g3
sg45
g3
sg47
g3
sg48
S'1956-57'
p63
sg50
g3
sg52
g3
sg53
g3
sg55
g3
sg57
g3
sba(isrc.gp1.models.Totals
Totals
p64
(dp65
g8
g3
sg9
g3
sg11
g3
sg13
g3
sg14
g3
sg16
g3
sg18
g3
sg19
g3
sg21
g3
sg23
g3
sg25
g3
sg27
g3
sg28
g3
sg30
g3
sg31
g3
sg33
g3
sg34
S'24'
p66
sg36
S'Did Not Play\xc2\xa0(military service\xe2\x80\x94U.S. Army)'
p67
sg38
g3
sg40
g3
sg41
g3
sg43
g3
sg45
g3
sg47
g3
sg48
S'1957-58'
p68
sg50
g3
sg52
g3
sg53
g3
sg55
g3
sg57
g3
sba(isrc.gp1.models.Totals
Totals
p69
(dp70
g8
g3
sg9
S'.348'
p71
sg11
S'134'
p72
sg13
g3
sg14
S'.348'
p73
sg16
S'385'
p74
sg18
g3
sg19
S'SG'
p75
sg21
S'413'
p76
sg23
S'142'
p77
sg25
S'NBA'
p78
sg27
g3
sg28
S'.348'
p79
sg30
g3
sg31
S'155'
p80
sg33
g3
sg34
S'25'
p81
sg36
S'STL'
p82
sg38
S'72'
p83
sg40
g3
sg41
S'145'
p84
sg43
S'122'
p85
sg45
S'199'
p86
sg47
g3
sg48
S'1958-59'
p87
sg50
S'385'
p88
sg52
g3
sg53
S'.729'
p89
sg55
S'134'
p90
sg57
S'1189'
p91
sba(isrc.gp1.models.Totals
Totals
p92
(dp93
g8
g3
sg9
S'.413'
p94
sg11
S'216'
p95
sg13
g3
sg14
S'.413'
p96
sg16
S'523'
p97
sg18
g3
sg19
S'SG'
p98
sg21
S'608'
p99
sg23
S'162'
p100
sg25
S'NBA'
p101
sg27
g3
sg28
S'.413'
p102
sg30
g3
sg31
S'205'
p103
sg33
g3
sg34
S'26'
p104
sg36
S'STL'
p105
sg38
S'71'
p106
sg40
g3
sg41
S'176'
p107
sg43
S'188'
p108
sg45
S'225'
p109
sg47
g3
sg48
S'1959-60'
p110
sg50
S'523'
p111
sg52
g3
sg53
S'.782'
p112
sg55
S'216'
p113
sg57
S'1567'
p114
sba(isrc.gp1.models.Totals
Totals
p115
(dp116
g8
g3
sg9
S'.357'
p117
sg11
S'117'
p118
sg13
g3
sg14
S'.357'
p119
sg16
S'328'
p120
sg18
g3
sg19
S'SG'
p121
sg21
S'329'
p122
sg23
S'115'
p123
sg25
S'NBA'
p124
sg27
g3
sg28
S'.357'
p125
sg30
g3
sg31
S'157'
p126
sg33
g3
sg34
S'27'
p127
sg36
S'STL'
p128
sg38
S'63'
p129
sg40
g3
sg41
S'95'
p130
sg43
S'143'
p131
sg45
S'116'
p132
sg47
g3
sg48
S'1960-61'
p133
sg50
S'328'
p134
sg52
g3
sg53
S'.819'
p135
sg55
S'117'
p136
sg57
S'1031'
p137
sba(isrc.gp1.models.Totals
Totals
p138
(dp139
g8
g3
sg9
S'.357'
p140
sg11
S'208'
p141
sg13
g3
sg14
S'.357'
p142
sg16
S'582'
p143
sg18
g3
sg19
S'SG'
p144
sg21
S'591'
p145
sg23
S'213'
p146
sg25
S'NBA'
p147
sg27
g3
sg28
S'.357'
p148
sg30
g3
sg31
S'278'
p149
sg33
g3
sg34
S'28'
p150
sg36
S'STL'
p151
sg38
S'79'
p152
sg40
g3
sg41
S'175'
p153
sg43
S'313'
p154
sg45
S'219'
p155
sg47
g3
sg48
S'1961-62'
p156
sg50
S'582'
p157
sg52
g3
sg53
S'.799'
p158
sg55
S'208'
p159
sg57
S'2046'
p160
sba(isrc.gp1.models.Totals
Totals
p161
(dp162
g8
g3
sg9
S'.324'
p163
sg11
S'37'
p164
sg13
g3
sg14
S'14'
p165
sg16
S'.324'
p166
sg18
g3
sg19
S'18'
p167
sg21
g3
sg23
S'14'
p168
sg25
S'NBA'
p169
sg27
g3
sg28
S'12'
p170
sg30
g3
sg31
S'38'
p171
sg33
g3
sg34
S'29'
p172
sg36
S'CHZ'
p173
sg38
S'138'
p174
sg40
g3
sg41
S'17'
p175
sg43
S'21'
p176
sg45
S'.824'
p177
sg47
g3
sg48
S'1962-63'
p178
sg50
S'.324'
p179
sg52
g3
sg53
S'12'
p180
sg55
S'37'
p181
sg57
S'12'
p182
sbasS'_college'
p183
S'Michigan State University'
p184
sS'_toYear'
p185
S'1963'
p186
sS'_height'
p187
S'6-4'
p188
sS'_active'
p189
I00
sS'_shootingHand'
p190
VRight
p191
sS'_name'
p192
S'Al Ferrari'
p193
sS'_per100Possessions'
p194
(lp195
sS'_advanced'
p196
(lp197
(isrc.gp1.models.Advanced
Advanced
p198
(dp199
S'_offensiveReboundPercentage'
p200
S'1.6'
p201
sS'_turnOverPercentage'
p202
g3
sS'_winSharesPer48Minutes'
p203
g3
sS'_stealPercentage'
p204
g3
sS'_usagePercentage'
p205
g3
sS'_totalReboundsPercentage'
p206
S'.057'
p207
sS'_defensiveBoxPlusMinus'
p208
g3
sg19
S'SF'
p209
sS'_valueOverReplacementPlayer'
p210
g3
sS'_trueShootingPercentage'
p211
S'.428'
p212
sS'_defensiveReboundPercentage'
p213
S'1.9'
p214
sS'_freeThrowsAttempRate'
p215
S'0.4'
p216
sS'_threePointsAttempRate'
p217
S'.442'
p218
sg25
S'NBA'
p219
sS'_offensiveBoxPlusMinues'
p220
g3
sS'_assistPercentage'
p221
g3
sS'_defensiveWinShares'
p222
g3
sg34
S'22'
p223
sg36
S'STL'
p224
sg38
S'68'
p225
sS'_blockPercentage'
p226
g3
sS'_playerEfficiencyRating'
p227
S'9.9'
p228
sS'_offensiveWinShares'
p229
g3
sg55
S'1611'
p230
sS'_boxPlusMinus'
p231
g3
sg48
S'1955-56'
p232
sS'_winShares'
p233
g3
sba(isrc.gp1.models.Advanced
Advanced
p234
(dp235
g200
S'0.9'
p236
sg202
g3
sg203
g3
sg204
g3
sg205
g3
sg206
S'.058'
p237
sg208
g3
sg19
S'SG'
p238
sg210
g3
sg211
S'.437'
p239
sg213
S'1.4'
p240
sg215
S'0.6'
p241
sg217
S'.517'
p242
sg25
S'NBA'
p243
sg220
g3
sg221
g3
sg222
g3
sg34
S'25'
p244
sg36
S'STL'
p245
sg38
S'72'
p246
sg226
g3
sg227
S'9.7'
p247
sg229
g3
sg55
S'1189'
p248
sg231
g3
sg48
S'1958-59'
p249
sg233
g3
sba(isrc.gp1.models.Advanced
Advanced
p250
(dp251
g200
S'1.0'
p252
sg202
g3
sg203
g3
sg204
g3
sg205
g3
sg206
S'.100'
p253
sg208
g3
sg19
S'SG'
p254
sg210
g3
sg211
S'.489'
p255
sg213
S'3.3'
p256
sg215
S'2.3'
p257
sg217
S'.430'
p258
sg25
S'NBA'
p259
sg220
g3
sg221
g3
sg222
g3
sg34
S'26'
p260
sg36
S'STL'
p261
sg38
S'71'
p262
sg226
g3
sg227
S'11.2'
p263
sg229
g3
sg55
S'1567'
p264
sg231
g3
sg48
S'1959-60'
p265
sg233
g3
sba(isrc.gp1.models.Advanced
Advanced
p266
(dp267
g200
S'1.2'
p268
sg202
g3
sg203
g3
sg204
g3
sg205
g3
sg206
S'.066'
p269
sg208
g3
sg19
S'SG'
p270
sg210
g3
sg211
S'.434'
p271
sg213
S'1.4'
p272
sg215
S'0.2'
p273
sg217
S'.354'
p274
sg25
S'NBA'
p275
sg220
g3
sg221
g3
sg222
g3
sg34
S'27'
p276
sg36
S'STL'
p277
sg38
S'63'
p278
sg226
g3
sg227
S'8.5'
p279
sg229
g3
sg55
S'1031'
p280
sg231
g3
sg48
S'1960-61'
p281
sg233
g3
sba(isrc.gp1.models.Advanced
Advanced
p282
(dp283
g200
S'0.7'
p284
sg202
g3
sg203
g3
sg204
g3
sg205
g3
sg206
S'.020'
p285
sg208
g3
sg19
S'SG'
p286
sg210
g3
sg211
S'.436'
p287
sg213
S'0.9'
p288
sg215
S'0.1'
p289
sg217
S'.376'
p290
sg25
S'NBA'
p291
sg220
g3
sg221
g3
sg222
g3
sg34
S'28'
p292
sg36
S'STL'
p293
sg38
S'79'
p294
sg226
g3
sg227
S'8.2'
p295
sg229
g3
sg55
S'2046'
p296
sg231
g3
sg48
S'1961-62'
p297
sg233
g3
sba(isrc.gp1.models.Advanced
Advanced
p298
(dp299
g200
S'0.0'
p300
sg202
g3
sg203
g3
sg204
g3
sg205
g3
sg206
g3
sg208
g3
sg19
S'18'
p301
sg210
g3
sg211
S'.459'
p302
sg213
S'-0.010'
p303
sg215
S'0.0'
p304
sg217
S'-0.1'
p305
sg25
S'NBA'
p306
sg220
g3
sg221
g3
sg222
g3
sg34
S'29'
p307
sg36
S'CHZ'
p308
sg38
S'138'
p309
sg226
g3
sg227
S'.427'
p310
sg229
g3
sg55
S'6.5'
p311
sg231
g3
sg48
S'1962-63'
p312
sg233
g3
sbasS'_per36Minutes'
p313
(lp314
(isrc.gp1.models.Per36Minutes
Per36Minutes
p315
(dp316
g8
g3
sg9
S'.358'
p317
sg11
S'4.3'
p318
sg13
g3
sg14
S'3.7'
p319
sg16
S'11.9'
p320
sg18
g3
sg19
S'SF'
p321
sg21
S'12.2'
p322
sg25
S'NBA'
p323
sg27
g3
sg28
S'.358'
p324
sg30
g3
sg31
S'4.3'
p325
sg33
g3
sg34
S'22'
p326
sg36
S'STL'
p327
sg38
S'68'
p328
sg40
g3
sg41
S'5.3'
p329
sg43
S'3.6'
p330
sg45
S'.695'
p331
sg47
g3
sg48
S'1955-56'
p332
sg50
S'11.9'
p333
sg52
g3
sg53
S'4.2'
p334
sg55
S'4.3'
p335
sg57
S'1611'
p336
sba(isrc.gp1.models.Per36Minutes
Per36Minutes
p337
(dp338
g8
g3
sg9
S'.348'
p339
sg11
S'4.1'
p340
sg13
g3
sg14
S'4.4'
p341
sg16
S'11.7'
p342
sg18
g3
sg19
S'SG'
p343
sg21
S'12.5'
p344
sg25
S'NBA'
p345
sg27
g3
sg28
S'.348'
p346
sg30
g3
sg31
S'4.7'
p347
sg33
g3
sg34
S'25'
p348
sg36
S'STL'
p349
sg38
S'72'
p350
sg40
g3
sg41
S'6.0'
p351
sg43
S'3.7'
p352
sg45
S'.729'
p353
sg47
g3
sg48
S'1958-59'
p354
sg50
S'11.7'
p355
sg52
g3
sg53
S'4.3'
p356
sg55
S'4.1'
p357
sg57
S'1189'
p358
sba(isrc.gp1.models.Per36Minutes
Per36Minutes
p359
(dp360
g8
g3
sg9
S'.413'
p361
sg11
S'5.0'
p362
sg13
g3
sg14
S'4.0'
p363
sg16
S'12.0'
p364
sg18
g3
sg19
S'SG'
p365
sg21
S'14.0'
p366
sg25
S'NBA'
p367
sg27
g3
sg28
S'.413'
p368
sg30
g3
sg31
S'4.7'
p369
sg33
g3
sg34
S'26'
p370
sg36
S'STL'
p371
sg38
S'71'
p372
sg40
g3
sg41
S'5.2'
p373
sg43
S'4.3'
p374
sg45
S'.782'
p375
sg47
g3
sg48
S'1959-60'
p376
sg50
S'12.0'
p377
sg52
g3
sg53
S'3.7'
p378
sg55
S'5.0'
p379
sg57
S'1567'
p380
sba(isrc.gp1.models.Per36Minutes
Per36Minutes
p381
(dp382
g8
g3
sg9
S'.357'
p383
sg11
S'4.1'
p384
sg13
g3
sg14
S'3.3'
p385
sg16
S'11.5'
p386
sg18
g3
sg19
S'SG'
p387
sg21
S'11.5'
p388
sg25
S'NBA'
p389
sg27
g3
sg28
S'.357'
p390
sg30
g3
sg31
S'5.5'
p391
sg33
g3
sg34
S'27'
p392
sg36
S'STL'
p393
sg38
S'63'
p394
sg40
g3
sg41
S'4.1'
p395
sg43
S'5.0'
p396
sg45
S'.819'
p397
sg47
g3
sg48
S'1960-61'
p398
sg50
S'11.5'
p399
sg52
g3
sg53
S'4.0'
p400
sg55
S'4.1'
p401
sg57
S'1031'
p402
sba(isrc.gp1.models.Per36Minutes
Per36Minutes
p403
(dp404
g8
g3
sg9
S'.357'
p405
sg11
S'3.7'
p406
sg13
g3
sg14
S'3.1'
p407
sg16
S'10.2'
p408
sg18
g3
sg19
S'SG'
p409
sg21
S'10.4'
p410
sg25
S'NBA'
p411
sg27
g3
sg28
S'.357'
p412
sg30
g3
sg31
S'4.9'
p413
sg33
g3
sg34
S'28'
p414
sg36
S'STL'
p415
sg38
S'79'
p416
sg40
g3
sg41
S'3.9'
p417
sg43
S'5.5'
p418
sg45
S'.799'
p419
sg47
g3
sg48
S'1961-62'
p420
sg50
S'10.2'
p421
sg52
g3
sg53
S'3.7'
p422
sg55
S'3.7'
p423
sg57
S'2046'
p424
sba(isrc.gp1.models.Per36Minutes
Per36Minutes
p425
(dp426
g8
g3
sg9
S'3.7'
p427
sg11
S'9.7'
p428
sg13
g3
sg14
S'4.4'
p429
sg16
S'.324'
p430
sg18
g3
sg19
S'18'
p431
sg21
g3
sg25
S'NBA'
p432
sg27
g3
sg28
S'3.1'
p433
sg30
g3
sg31
S'9.9'
p434
sg33
g3
sg34
S'29'
p435
sg36
S'CHZ'
p436
sg38
S'138'
p437
sg40
g3
sg41
S'.824'
p438
sg43
S'5.5'
p439
sg45
S'3.1'
p440
sg47
g3
sg48
S'1962-63'
p441
sg50
S'.324'
p442
sg52
g3
sg53
S'3.7'
p443
sg55
S'9.7'
p444
sg57
S'3.1'
p445
sbasS'_fromYear'
p446
S'1956'
p447
sS'_url'
p448
S'http://www.basketball-reference.com/players/f/ferraal01.html'
p449
sS'_perGame'
p450
(isrc.gp1.models.PerGame
PerGame
p451
(dp452
g8
g3
sg9
S'.324'
p453
sg11
S'2.1'
p454
sS'_effectiveFieldGalPercentage'
p455
S'0.8'
p456
sg13
g3
sg14
S'0.8'
p457
sg16
S'.324'
p458
sg18
g3
sg19
S'18'
p459
sg21
g3
sg25
S'NBA'
p460
sg27
g3
sg30
g3
sS'_fieldGoalsttempted'
p461
S'0.7'
p462
sg31
S'2.1'
p463
sg33
g3
sg34
S'29'
p464
sg36
S'CHZ'
p465
sg38
S'7.7'
p466
sg40
g3
sg41
S'0.9'
p467
sg43
S'1.2'
p468
sg45
S'.824'
p469
sg47
g3
sg48
S'1962-63'
p470
sg50
S'.324'
p471
sg52
g3
sg53
S'0.7'
p472
sg55
S'2.1'
p473
sg57
S'0.7'
p474
sbsS'_weight'
p475
S'190'
p476
sS'_dob'
p477
S'6-7-1933'
p478
sS'_salary'
p479
(lp480
sg19
S'G-F'
p481
sb.