(isrc.gp1.models.Player
Player
p0
(dp1
S'_experience'
p2
S'NA'
p3
sS'_totals'
p4
(lp5
(isrc.gp1.models.Totals
Totals
p6
(dp7
S'_offensiveRebounds'
p8
g3
sS'_threePointsAttempted'
p9
S'28'
p10
sS'_fieldGoalsPercentage'
p11
S'.311'
p12
sS'_assist'
p13
g3
sS'_threePointsPercentage'
p14
S'50'
p15
sS'_threePoints'
p16
S'.311'
p17
sS'_points'
p18
g3
sS'_position'
p19
S'57'
p20
sS'_freeThrowsPercentage'
p21
g3
sS'_effectiveFieldGoalPercentage'
p22
S'214'
p23
sS'_league'
p24
S'NBA'
p25
sS'_steals'
p26
g3
sS'_fieldGoalsAttempted'
p27
S'299'
p28
sS'_personalFouls'
p29
g3
sS'_freeThrowsAttempted'
p30
g3
sS'_totalRebounds'
p31
g3
sS'_age'
p32
S'24'
p33
sS'_team'
p34
S'TOT'
p35
sS'_games'
p36
S'93'
p37
sS'_blocks'
p38
g3
sS'_twoPoints'
p39
S'.560'
p40
sS'_freeThrows'
p41
g3
sS'_twoPointsAttempted'
p42
S'95'
p43
sS'_defensiveRebounds'
p44
g3
sS'_season'
p45
S'1949-50'
p46
sS'_fieldGoals'
p47
S'93'
p48
sS'_turnOvers'
p49
g3
sS'_twoPointsPercentage'
p50
S'143'
p51
sS'_minutesPlayed'
p52
S'.311'
p53
sS'_gamesStarted'
p54
S'299'
p55
sba(isrc.gp1.models.Totals
Totals
p56
(dp57
g8
g3
sg9
S'25'
p58
sg11
S'.317'
p59
sg13
g3
sg14
S'47'
p60
sg16
S'.317'
p61
sg18
g3
sg19
S'41'
p62
sg21
g3
sg22
S'197'
p63
sg24
S'NBA'
p64
sg26
g3
sg27
S'271'
p65
sg29
g3
sg30
g3
sg31
g3
sg32
S'24'
p66
sg34
S'DNN'
p67
sg36
S'86'
p68
sg38
g3
sg39
S'.532'
p69
sg41
g3
sg42
S'85'
p70
sg44
g3
sg45
S'1949-50'
p71
sg47
S'86'
p72
sg49
g3
sg50
S'116'
p73
sg52
S'.317'
p74
sg54
S'271'
p75
sba(isrc.gp1.models.Totals
Totals
p76
(dp77
g8
g3
sg9
S'3'
p78
sg11
S'.250'
p79
sg13
g3
sg14
g78
sg16
S'.250'
p80
sg18
g3
sg19
S'16'
p81
sg21
g3
sg22
S'17'
p82
sg24
S'NBA'
p83
sg26
g3
sg27
S'28'
p84
sg29
g3
sg30
g3
sg31
g3
sg32
S'24'
p85
sg34
S'PHW'
p86
sg36
S'7'
p87
sg38
g3
sg39
S'1.000'
p88
sg41
g3
sg42
S'10'
p89
sg44
g3
sg45
S'1949-50'
p90
sg47
g87
sg49
g3
sg50
S'27'
p91
sg52
S'.250'
p92
sg54
S'28'
p93
sbasS'_college'
p94
S"Saint Joseph's University"
p95
sS'_toYear'
p96
S'1950'
p97
sS'_height'
p98
S'6-5'
p99
sS'_active'
p100
I00
sS'_shootingHand'
p101
VRight
p102
sS'_name'
p103
S'Al Guokas'
p104
sS'_per100Possessions'
p105
(lp106
sS'_advanced'
p107
(lp108
(isrc.gp1.models.Advanced
Advanced
p109
(dp110
S'_offensiveReboundPercentage'
p111
g3
sS'_turnOverPercentage'
p112
g3
sS'_winSharesPer48Minutes'
p113
g3
sS'_stealPercentage'
p114
g3
sS'_usagePercentage'
p115
g3
sS'_totalReboundsPercentage'
p116
g3
sS'_defensiveBoxPlusMinus'
p117
g3
sg19
S'57'
p118
sS'_valueOverReplacementPlayer'
p119
g3
sS'_trueShootingPercentage'
p120
S'-0.1'
p121
sS'_defensiveReboundPercentage'
p122
g3
sS'_freeThrowsAttempRate'
p123
g3
sS'_threePointsAttempRate'
p124
S'-1.0'
p125
sg24
S'NBA'
p126
sS'_offensiveBoxPlusMinues'
p127
g3
sS'_assistPercentage'
p128
g3
sS'_defensiveWinShares'
p129
g3
sg32
S'24'
p130
sg34
S'TOT'
p131
sg36
S'.333'
p132
sS'_blockPercentage'
p133
g3
sS'_playerEfficiencyRating'
p134
S'-0.9'
p135
sS'_offensiveWinShares'
p136
g3
sg52
S'.167'
p137
sS'_boxPlusMinus'
p138
g3
sg45
S'1949-50'
p139
sS'_winShares'
p140
g3
sba(isrc.gp1.models.Advanced
Advanced
p141
(dp142
g111
g3
sg112
g3
sg113
g3
sg114
g3
sg115
g3
sg116
g3
sg117
g3
sg19
S'41'
p143
sg119
g3
sg120
S'-0.4'
p144
sg122
g3
sg123
g3
sg124
S'-1.1'
p145
sg24
S'NBA'
p146
sg127
g3
sg128
g3
sg129
g3
sg32
S'24'
p147
sg34
S'DNN'
p148
sg36
S'.338'
p149
sg133
g3
sg134
S'-0.7'
p150
sg136
g3
sg52
S'.173'
p151
sg138
g3
sg45
S'1949-50'
p152
sg140
g3
sba(isrc.gp1.models.Advanced
Advanced
p153
(dp154
g111
g3
sg112
g3
sg113
g3
sg114
g3
sg115
g3
sg116
g3
sg117
g3
sg19
S'16'
p155
sg119
g3
sg120
S'0.3'
p156
sg122
g3
sg123
g3
sg124
S'0.1'
p157
sg24
S'NBA'
p158
sg127
g3
sg128
g3
sg129
g3
sg32
S'24'
p159
sg34
S'PHW'
p160
sg36
S'.290'
p161
sg133
g3
sg134
S'-0.2'
p162
sg136
g3
sg52
S'.107'
p163
sg138
g3
sg45
S'1949-50'
p164
sg140
g3
sbasS'_per36Minutes'
p165
(lp166
(isrc.gp1.models.Per36Minutes
Per36Minutes
p167
(dp168
g8
g3
sg9
g3
sg11
g3
sg13
g3
sg14
g3
sg16
g3
sg18
g3
sg19
S'57'
p169
sg21
g3
sg24
S'NBA'
p170
sg26
g3
sg27
g3
sg29
g3
sg30
g3
sg31
g3
sg32
S'24'
p171
sg34
S'TOT'
p172
sg36
S'.311'
p173
sg38
g3
sg39
g3
sg41
g3
sg42
g3
sg44
g3
sg45
S'1949-50'
p174
sg47
g3
sg49
g3
sg50
g3
sg52
S'.560'
p175
sg54
S'.311'
p176
sba(isrc.gp1.models.Per36Minutes
Per36Minutes
p177
(dp178
g8
g3
sg9
g3
sg11
g3
sg13
g3
sg14
g3
sg16
g3
sg18
g3
sg19
S'41'
p179
sg21
g3
sg24
S'NBA'
p180
sg26
g3
sg27
g3
sg29
g3
sg30
g3
sg31
g3
sg32
S'24'
p181
sg34
S'DNN'
p182
sg36
S'.317'
p183
sg38
g3
sg39
g3
sg41
g3
sg42
g3
sg44
g3
sg45
S'1949-50'
p184
sg47
g3
sg49
g3
sg50
g3
sg52
S'.532'
p185
sg54
S'.317'
p186
sba(isrc.gp1.models.Per36Minutes
Per36Minutes
p187
(dp188
g8
g3
sg9
g3
sg11
g3
sg13
g3
sg14
g3
sg16
g3
sg18
g3
sg19
S'16'
p189
sg21
g3
sg24
S'NBA'
p190
sg26
g3
sg27
g3
sg29
g3
sg30
g3
sg31
g3
sg32
S'24'
p191
sg34
S'PHW'
p192
sg36
S'.250'
p193
sg38
g3
sg39
g3
sg41
g3
sg42
g3
sg44
g3
sg45
S'1949-50'
p194
sg47
g3
sg49
g3
sg50
g3
sg52
S'1.000'
p195
sg54
S'.250'
p196
sbasS'_fromYear'
p197
S'1950'
p198
sS'_url'
p199
S'http://www.basketball-reference.com/players/g/guokaal01.html'
p200
sS'_perGame'
p201
(isrc.gp1.models.PerGame
PerGame
p202
(dp203
g8
g3
sg9
S'0.2'
p204
sg11
S'.250'
p205
sS'_effectiveFieldGalPercentage'
p206
S'1.1'
p207
sg13
g3
sg14
S'0.2'
p208
sg16
S'.250'
p209
sg18
g3
sg19
S'16'
p210
sg21
g3
sg24
S'NBA'
p211
sg26
g3
sg29
g3
sS'_fieldGoalsttempted'
p212
S'1.8'
p213
sg30
g3
sg31
g3
sg32
S'24'
p214
sg34
S'PHW'
p215
sg36
S'0.4'
p216
sg38
g3
sg39
S'1.000'
p217
sg41
g3
sg42
S'0.6'
p218
sg44
g3
sg45
S'1949-50'
p219
sg47
S'0.4'
p220
sg49
g3
sg50
S'1.7'
p221
sg52
S'.250'
p222
sg54
S'1.8'
p223
sbsS'_weight'
p224
S'200'
p225
sS'_dob'
p226
S'7-8-1925'
p227
sS'_salary'
p228
(lp229
sg19
S'F-G'
p230
sb.