(isrc.gp1.models.Player
Player
p0
(dp1
S'_experience'
p2
V8
p3
sS'_totals'
p4
(lp5
(isrc.gp1.models.Totals
Totals
p6
(dp7
S'_offensiveRebounds'
p8
S'248'
p9
sS'_threePointsAttempted'
p10
S'5'
p11
sS'_fieldGoalsPercentage'
p12
S'.499'
p13
sS'_assist'
p14
S'124'
p15
sS'_threePointsPercentage'
p16
S'.000'
p17
sS'_threePoints'
p18
S'0'
p19
sS'_points'
p20
S'821'
p21
sS'_position'
p22
S'C'
p23
sS'_freeThrowsPercentage'
p24
S'.731'
p25
sS'_effectiveFieldGoalPercentage'
p26
S'.499'
p27
sS'_league'
p28
S'NBA'
p29
sS'_steals'
p30
S'60'
p31
sS'_fieldGoalsAttempted'
p32
S'668'
p33
sS'_personalFouls'
p34
S'267'
p35
sS'_freeThrowsAttempted'
p36
S'212'
p37
sS'_totalRebounds'
p38
S'785'
p39
sS'_age'
p40
S'21'
p41
sS'_team'
p42
S'ATL'
p43
sS'_games'
p44
S'81'
p45
sS'_blocks'
p46
S'76'
p47
sS'_twoPoints'
p48
S'333'
p49
sS'_freeThrows'
p50
S'155'
p51
sS'_twoPointsAttempted'
p52
S'663'
p53
sS'_defensiveRebounds'
p54
S'537'
p55
sS'_season'
p56
S'2007-08'
p57
sS'_fieldGoals'
p58
S'333'
p59
sS'_turnOvers'
p60
S'137'
p61
sS'_twoPointsPercentage'
p62
S'.502'
p63
sS'_minutesPlayed'
p64
S'2540'
p65
sS'_gamesStarted'
p66
S'77'
p67
sba(isrc.gp1.models.Totals
Totals
p68
(dp69
g8
S'145'
p70
sg10
S'1'
p71
sg12
S'.525'
p72
sg14
S'163'
p73
sg16
S'.000'
p74
sg18
g19
sg20
S'773'
p75
sg22
g23
sg24
S'.727'
p76
sg26
S'.525'
p77
sg28
S'NBA'
p78
sg30
S'53'
p79
sg32
S'594'
p80
sg34
S'190'
p81
sg36
S'205'
p82
sg38
S'624'
p83
sg40
S'22'
p84
sg42
S'ATL'
p85
sg44
S'67'
p86
sg46
S'95'
p87
sg48
S'312'
p88
sg50
S'149'
p89
sg52
S'593'
p90
sg54
S'479'
p91
sg56
S'2008-09'
p92
sg58
S'312'
p93
sg60
S'103'
p94
sg62
S'.526'
p95
sg64
S'2242'
p96
sg66
S'67'
p97
sba(isrc.gp1.models.Totals
Totals
p98
(dp99
g8
S'563'
p100
sg10
S'1.000'
p101
sg12
g71
sg14
S'59'
p102
sg16
S'466'
p103
sg18
g71
sg20
S'NA'
p104
sg22
S'81'
p105
sg24
S'236'
p106
sg26
S'213'
p107
sg28
g23
sg30
S'91'
p108
sg32
S'.551'
p109
sg34
S'1148'
p110
sg36
S'.789'
p111
sg38
S'189'
p112
sg40
S'ATL'
p113
sg42
S'NBA'
p114
sg44
S'81'
p115
sg46
S'122'
p116
sg48
S'846'
p117
sg50
S'270'
p118
sg52
S'.551'
p119
sg54
S'799'
p120
sg56
S'23'
p121
sg58
S'847'
p122
sg60
S'225'
p123
sg62
S'.552'
p124
sg64
S'467'
p125
sg66
S'2845'
p126
sba(isrc.gp1.models.Totals
Totals
p127
(dp128
g8
S'536'
p129
sg10
S'.500'
p130
sg12
S'2'
p131
sg14
S'59'
p132
sg16
S'511'
p133
sg18
S'4'
p134
sg20
g104
sg22
S'77'
p135
sg24
S'182'
p136
sg26
S'150'
p137
sg28
g23
sg30
S'80'
p138
sg32
S'.557'
p139
sg34
S'1178'
p140
sg36
S'.798'
p141
sg38
S'266'
p142
sg40
S'ATL'
p143
sg42
S'NBA'
p144
sg44
S'77'
p145
sg46
S'119'
p146
sg48
S'917'
p147
sg50
S'188'
p148
sg52
S'.557'
p149
sg54
S'718'
p150
sg56
S'24'
p151
sg58
S'921'
p152
sg60
S'193'
p153
sg62
S'.558'
p154
sg64
S'513'
p155
sg66
S'2704'
p156
sba(isrc.gp1.models.Totals
Totals
p157
(dp158
g8
S'26'
p159
sg10
g71
sg12
S'.553'
p160
sg14
S'24'
p161
sg16
S'.000'
p162
sg18
g19
sg20
S'136'
p163
sg22
g23
sg24
S'.733'
p164
sg26
S'.553'
p165
sg28
S'NBA'
p166
sg30
S'10'
p167
sg32
S'103'
p168
sg34
S'21'
p169
sg36
S'30'
p170
sg38
S'77'
p171
sg40
S'25'
p172
sg42
S'ATL'
p173
sg44
S'11'
p174
sg46
S'14'
p175
sg48
S'57'
p176
sg50
S'22'
p177
sg52
S'102'
p178
sg54
S'51'
p179
sg56
S'2011-12'
p180
sg58
S'57'
p181
sg60
S'16'
p182
sg62
S'.559'
p183
sg64
S'348'
p184
sg66
S'11'
p185
sba(isrc.gp1.models.Totals
Totals
p186
(dp187
g8
S'195'
p188
sg10
S'6'
p189
sg12
S'.543'
p190
sg14
S'240'
p191
sg16
S'.500'
p192
sg18
S'3'
p193
sg20
S'1289'
p194
sg22
g23
sg24
S'.644'
p195
sg26
S'.545'
p196
sg28
S'NBA'
p197
sg30
S'78'
p198
sg32
S'1060'
p199
sg34
S'163'
p200
sg36
S'208'
p201
sg38
S'757'
p202
sg40
S'26'
p203
sg42
S'ATL'
p204
sg44
S'74'
p205
sg46
S'78'
p206
sg48
S'573'
p207
sg50
S'134'
p208
sg52
S'1054'
p209
sg54
S'562'
p210
sg56
S'2012-13'
p211
sg58
S'576'
p212
sg60
S'147'
p213
sg62
S'.544'
p214
sg64
S'2756'
p215
sg66
S'74'
p216
sba(isrc.gp1.models.Totals
Totals
p217
(dp218
g8
S'66'
p219
sg10
S'11'
p220
sg12
S'.567'
p221
sg14
S'76'
p222
sg16
S'.364'
p223
sg18
g134
sg20
S'538'
p224
sg22
g23
sg24
S'.682'
p225
sg26
S'.571'
p226
sg28
S'NBA'
p227
sg30
S'27'
p228
sg32
S'420'
p229
sg34
S'56'
p230
sg36
S'85'
p231
sg38
S'244'
p232
sg40
S'27'
p233
sg42
S'ATL'
p234
sg44
S'29'
p235
sg46
S'44'
p236
sg48
S'234'
p237
sg50
S'58'
p238
sg52
S'409'
p239
sg54
S'178'
p240
sg56
S'2013-14'
p241
sg58
S'238'
p242
sg60
S'64'
p243
sg62
S'.572'
p244
sg64
S'958'
p245
sg66
S'29'
p246
sba(isrc.gp1.models.Totals
Totals
p247
(dp248
g8
S'413'
p249
sg10
S'.306'
p250
sg12
S'11'
p251
sg14
S'68'
p252
sg16
S'508'
p253
sg18
S'36'
p254
sg20
g104
sg22
S'76'
p255
sg24
S'131'
p256
sg26
S'107'
p257
sg28
g23
sg30
S'98'
p258
sg32
S'.538'
p259
sg34
S'1156'
p260
sg36
S'.759'
p261
sg38
S'244'
p262
sg40
S'ATL'
p263
sg42
S'NBA'
p264
sg44
S'76'
p265
sg46
S'100'
p266
sg48
S'929'
p267
sg50
S'141'
p268
sg52
S'.547'
p269
sg54
S'544'
p270
sg56
S'28'
p271
sg58
S'965'
p272
sg60
S'121'
p273
sg62
S'.544'
p274
sg64
S'519'
p275
sg66
S'2318'
p276
sba(isrc.gp1.models.Totals
Totals
p277
(dp278
g8
S'104'
p279
sg10
S'151'
p280
sg12
S'.504'
p281
sg14
S'159'
p282
sg16
S'.338'
p283
sg18
S'51'
p284
sg20
S'785'
p285
sg22
g23
sg24
S'.773'
p286
sg26
S'.542'
p287
sg28
S'NBA'
p288
sg30
S'44'
p289
sg32
S'661'
p290
sg34
S'102'
p291
sg36
S'88'
p292
sg38
S'361'
p293
sg40
S'29'
p294
sg42
S'ATL'
p295
sg44
S'52'
p296
sg46
S'75'
p297
sg48
S'282'
p298
sg50
S'68'
p299
sg52
S'510'
p300
sg54
S'257'
p301
sg56
S'2015-16'
p302
sg58
S'333'
p303
sg60
S'71'
p304
sg62
S'.553'
p305
sg64
S'1633'
p306
sg66
S'52'
p307
sbasS'_college'
p308
S'University of Florida'
p309
sS'_toYear'
p310
S'2016'
p311
sS'_height'
p312
S'6-10'
p313
sS'_active'
p314
I01
sS'_shootingHand'
p315
VRight
p316
sS'_name'
p317
S'Al Horford'
p318
sS'_per100Possessions'
p319
(lp320
(isrc.gp1.models.Per100Possession
Per100Possession
p321
(dp322
g8
S'5.1'
p323
sg10
S'0.1'
p324
sg12
S'.499'
p325
sS'_offensiveRating'
p326
S'108'
p327
sg14
S'2.6'
p328
sg16
S'.000'
p329
sg18
S'0.0'
p330
sg20
S'17.0'
p331
sg22
g23
sS'_defensiveRating'
p332
S'106'
p333
sg24
S'.731'
p334
sg28
S'NBA'
p335
sg30
S'1.2'
p336
sg32
S'13.9'
p337
sg34
S'5.5'
p338
sg36
S'4.4'
p339
sg38
S'16.3'
p340
sg40
S'21'
p341
sg42
S'ATL'
p342
sg44
S'81'
p343
sg46
S'1.6'
p344
sg48
S'6.9'
p345
sg50
S'3.2'
p346
sg52
S'13.8'
p347
sg54
S'11.1'
p348
sg56
S'2007-08'
p349
sg58
S'6.9'
p350
sg60
S'2.8'
p351
sg62
S'.502'
p352
sg64
S'2540'
p353
sg66
S'77'
p354
sba(isrc.gp1.models.Per100Possession
Per100Possession
p355
(dp356
g8
S'3.5'
p357
sg10
S'0.0'
p358
sg12
S'.525'
p359
sg326
S'114'
p360
sg14
S'3.9'
p361
sg16
S'.000'
p362
sg18
S'0.0'
p363
sg20
S'18.5'
p364
sg22
g23
sg332
S'104'
p365
sg24
S'.727'
p366
sg28
S'NBA'
p367
sg30
S'1.3'
p368
sg32
S'14.2'
p369
sg34
S'4.5'
p370
sg36
S'4.9'
p371
sg38
S'14.9'
p372
sg40
S'22'
p373
sg42
S'ATL'
p374
sg44
S'67'
p375
sg46
S'2.3'
p376
sg48
S'7.5'
p377
sg50
S'3.6'
p378
sg52
S'14.2'
p379
sg54
S'11.4'
p380
sg56
S'2008-09'
p381
sg58
S'7.5'
p382
sg60
S'2.5'
p383
sg62
S'.526'
p384
sg64
S'2242'
p385
sg66
S'67'
p386
sba(isrc.gp1.models.Per100Possession
Per100Possession
p387
(dp388
g8
S'10.5'
p389
sg10
S'1.000'
p390
sg12
S'0.0'
p391
sg326
S'105'
p392
sg14
S'1.1'
p393
sg16
S'8.7'
p394
sg18
S'0.0'
p395
sg20
S'121'
p396
sg22
S'81'
p397
sg332
g104
sg24
S'4.4'
p398
sg28
g23
sg30
S'1.7'
p399
sg32
S'.551'
p400
sg34
S'21.5'
p401
sg36
S'.789'
p402
sg38
S'3.5'
p403
sg40
S'ATL'
p404
sg42
S'NBA'
p405
sg44
S'81'
p406
sg46
S'2.3'
p407
sg48
S'15.8'
p408
sg50
S'5.1'
p409
sg52
S'.551'
p410
sg54
S'15.0'
p411
sg56
S'23'
p412
sg58
S'15.9'
p413
sg60
S'4.2'
p414
sg62
S'4.0'
p415
sg64
S'8.7'
p416
sg66
S'2845'
p417
sba(isrc.gp1.models.Per100Possession
Per100Possession
p418
(dp419
g8
S'10.7'
p420
sg10
S'.500'
p421
sg12
S'0.0'
p422
sg326
S'105'
p423
sg14
S'1.2'
p424
sg16
S'10.2'
p425
sg18
S'0.1'
p426
sg20
S'118'
p427
sg22
S'77'
p428
sg332
g104
sg24
S'3.6'
p429
sg28
g23
sg30
S'1.6'
p430
sg32
S'.557'
p431
sg34
S'23.4'
p432
sg36
S'.798'
p433
sg38
S'5.3'
p434
sg40
S'ATL'
p435
sg42
S'NBA'
p436
sg44
S'77'
p437
sg46
S'2.4'
p438
sg48
S'18.2'
p439
sg50
S'3.7'
p440
sg52
S'.557'
p441
sg54
S'14.3'
p442
sg56
S'24'
p443
sg58
S'18.3'
p444
sg60
S'3.8'
p445
sg62
S'3.0'
p446
sg64
S'10.2'
p447
sg66
S'2704'
p448
sba(isrc.gp1.models.Per100Possession
Per100Possession
p449
(dp450
g8
S'4.0'
p451
sg10
S'0.2'
p452
sg12
S'.553'
p453
sg326
S'116'
p454
sg14
S'3.7'
p455
sg16
S'.000'
p456
sg18
S'0.0'
p457
sg20
S'20.8'
p458
sg22
g23
sg332
S'100'
p459
sg24
S'.733'
p460
sg28
S'NBA'
p461
sg30
S'1.5'
p462
sg32
S'15.7'
p463
sg34
S'3.2'
p464
sg36
S'4.6'
p465
sg38
S'11.8'
p466
sg40
S'25'
p467
sg42
S'ATL'
p468
sg44
S'11'
p469
sg46
S'2.1'
p470
sg48
S'8.7'
p471
sg50
S'3.4'
p472
sg52
S'15.6'
p473
sg54
S'7.8'
p474
sg56
S'2011-12'
p475
sg58
S'8.7'
p476
sg60
S'2.4'
p477
sg62
S'.559'
p478
sg64
S'348'
p479
sg66
S'11'
p480
sba(isrc.gp1.models.Per100Possession
Per100Possession
p481
(dp482
g8
S'3.7'
p483
sg10
S'0.1'
p484
sg12
S'.543'
p485
sg326
S'110'
p486
sg14
S'4.5'
p487
sg16
S'.500'
p488
sg18
S'0.1'
p489
sg20
S'24.2'
p490
sg22
g23
sg332
S'102'
p491
sg24
S'.644'
p492
sg28
S'NBA'
p493
sg30
S'1.5'
p494
sg32
S'19.9'
p495
sg34
S'3.1'
p496
sg36
S'3.9'
p497
sg38
S'14.2'
p498
sg40
S'26'
p499
sg42
S'ATL'
p500
sg44
S'74'
p501
sg46
S'1.5'
p502
sg48
S'10.8'
p503
sg50
S'2.5'
p504
sg52
S'19.8'
p505
sg54
S'10.6'
p506
sg56
S'2012-13'
p507
sg58
S'10.8'
p508
sg60
S'2.8'
p509
sg62
S'.544'
p510
sg64
S'2756'
p511
sg66
S'74'
p512
sba(isrc.gp1.models.Per100Possession
Per100Possession
p513
(dp514
g8
S'3.5'
p515
sg10
S'0.6'
p516
sg12
S'.567'
p517
sg326
S'109'
p518
sg14
S'4.0'
p519
sg16
S'.364'
p520
sg18
S'0.2'
p521
sg20
S'28.5'
p522
sg22
g23
sg332
S'104'
p523
sg24
S'.682'
p524
sg28
S'NBA'
p525
sg30
S'1.4'
p526
sg32
S'22.2'
p527
sg34
S'3.0'
p528
sg36
S'4.5'
p529
sg38
S'12.9'
p530
sg40
S'27'
p531
sg42
S'ATL'
p532
sg44
S'29'
p533
sg46
S'2.3'
p534
sg48
S'12.4'
p535
sg50
S'3.1'
p536
sg52
S'21.7'
p537
sg54
S'9.4'
p538
sg56
S'2013-14'
p539
sg58
S'12.6'
p540
sg60
S'3.4'
p541
sg62
S'.572'
p542
sg64
S'958'
p543
sg66
S'29'
p544
sba(isrc.gp1.models.Per100Possession
Per100Possession
p545
(dp546
g8
S'9.1'
p547
sg10
S'.306'
p548
sg12
S'0.2'
p549
sg326
S'102'
p550
sg14
S'1.5'
p551
sg16
S'11.2'
p552
sg18
S'0.8'
p553
sg20
S'114'
p554
sg22
S'76'
p555
sg332
g104
sg24
S'2.9'
p556
sg28
g23
sg30
S'2.2'
p557
sg32
S'.538'
p558
sg34
S'25.5'
p559
sg36
S'.759'
p560
sg38
S'5.4'
p561
sg40
S'ATL'
p562
sg42
S'NBA'
p563
sg44
S'76'
p564
sg46
S'2.2'
p565
sg48
S'20.5'
p566
sg50
S'3.1'
p567
sg52
S'.547'
p568
sg54
S'12.0'
p569
sg56
S'28'
p570
sg58
S'21.3'
p571
sg60
S'2.7'
p572
sg62
S'2.4'
p573
sg64
S'11.4'
p574
sg66
S'2318'
p575
sba(isrc.gp1.models.Per100Possession
Per100Possession
p576
(dp577
g8
S'3.2'
p578
sg10
S'4.6'
p579
sg12
S'.504'
p580
sg326
S'112'
p581
sg14
S'4.8'
p582
sg16
S'.338'
p583
sg18
S'1.5'
p584
sg20
S'23.8'
p585
sg22
g23
sg332
S'102'
p586
sg24
S'.773'
p587
sg28
S'NBA'
p588
sg30
S'1.3'
p589
sg32
S'20.0'
p590
sg34
S'3.1'
p591
sg36
S'2.7'
p592
sg38
S'10.9'
p593
sg40
S'29'
p594
sg42
S'ATL'
p595
sg44
S'52'
p596
sg46
S'2.3'
p597
sg48
S'8.5'
p598
sg50
S'2.1'
p599
sg52
S'15.5'
p600
sg54
S'7.8'
p601
sg56
S'2015-16'
p602
sg58
S'10.1'
p603
sg60
S'2.2'
p604
sg62
S'.553'
p605
sg64
S'1633'
p606
sg66
S'52'
p607
sbasS'_advanced'
p608
(lp609
(isrc.gp1.models.Advanced
Advanced
p610
(dp611
S'_offensiveReboundPercentage'
p612
S'11.4'
p613
sS'_turnOverPercentage'
p614
S'15.3'
p615
sS'_winSharesPer48Minutes'
p616
S'.103'
p617
sS'_stealPercentage'
p618
S'1.2'
p619
sS'_usagePercentage'
p620
S'16.0'
p621
sS'_totalReboundsPercentage'
p622
S'18.0'
p623
sS'_defensiveBoxPlusMinus'
p624
S'1.1'
p625
sg22
g23
sS'_valueOverReplacementPlayer'
p626
S'1.2'
p627
sS'_trueShootingPercentage'
p628
S'.539'
p629
sS'_defensiveReboundPercentage'
p630
S'24.5'
p631
sS'_freeThrowsAttempRate'
p632
S'.317'
p633
sS'_threePointsAttempRate'
p634
S'.007'
p635
sg28
S'NBA'
p636
sS'_offensiveBoxPlusMinues'
p637
S'-1.3'
p638
sS'_assistPercentage'
p639
S'7.9'
p640
sS'_defensiveWinShares'
p641
S'3.0'
p642
sg40
S'21'
p643
sg42
S'ATL'
p644
sg44
S'81'
p645
sS'_blockPercentage'
p646
S'2.2'
p647
sS'_playerEfficiencyRating'
p648
S'14.7'
p649
sS'_offensiveWinShares'
p650
S'2.4'
p651
sg64
S'2540'
p652
sS'_boxPlusMinus'
p653
S'-0.2'
p654
sg56
S'2007-08'
p655
sS'_winShares'
p656
S'5.5'
p657
sba(isrc.gp1.models.Advanced
Advanced
p658
(dp659
g612
S'7.6'
p660
sg614
S'13.1'
p661
sg616
S'.145'
p662
sg618
S'1.3'
p663
sg620
S'16.4'
p664
sg622
S'16.3'
p665
sg624
S'3.1'
p666
sg22
g23
sg626
S'2.5'
p667
sg628
S'.565'
p668
sg630
S'25.0'
p669
sg632
S'.345'
p670
sg634
S'.002'
p671
sg28
S'NBA'
p672
sg637
S'-0.7'
p673
sg639
S'11.9'
p674
sg641
S'3.5'
p675
sg40
S'22'
p676
sg42
S'ATL'
p677
sg44
S'67'
p678
sg646
S'3.3'
p679
sg648
S'17.0'
p680
sg650
S'3.3'
p681
sg64
S'2242'
p682
sg653
S'2.3'
p683
sg56
S'2008-09'
p684
sg656
S'6.8'
p685
sba(isrc.gp1.models.Advanced
Advanced
p686
(dp687
g612
S'23.3'
p688
sg614
S'17.6'
p689
sg616
S'1.5'
p690
sg618
S'2.4'
p691
sg620
S'6.9'
p692
sg622
S'10.4'
p693
sg624
S'3.3'
p694
sg22
S'81'
p695
sg626
g104
sg628
S'.001'
p696
sg630
S'16.4'
p697
sg632
S'9.6'
p698
sg634
S'.319'
p699
sg28
g23
sg637
S'1.9'
p700
sg639
S'1.1'
p701
sg641
S'10.9'
p702
sg40
S'ATL'
p703
sg42
S'NBA'
p704
sg44
S'2845'
p705
sg646
S'11.2'
p706
sg648
S'.594'
p707
sg650
S'3.9'
p708
sg64
S'19.4'
p709
sg653
S'3.8'
p710
sg56
S'23'
p711
sg656
S'.183'
p712
sba(isrc.gp1.models.Advanced
Advanced
p713
(dp714
g612
S'23.7'
p715
sg614
S'19.7'
p716
sg616
S'2.0'
p717
sg618
S'2.3'
p718
sg620
S'6.4'
p719
sg622
S'17.5'
p720
sg624
S'4.4'
p721
sg22
S'77'
p722
sg626
g104
sg628
S'.004'
p723
sg630
S'16.0'
p724
sg632
S'8.2'
p725
sg634
S'.204'
p726
sg28
g23
sg637
S'2.4'
p727
sg639
S'1.2'
p728
sg641
S'10.1'
p729
sg40
S'ATL'
p730
sg42
S'NBA'
p731
sg44
S'2704'
p732
sg646
S'10.6'
p733
sg648
S'.587'
p734
sg650
S'3.7'
p735
sg64
S'20.7'
p736
sg653
S'4.4'
p737
sg56
S'24'
p738
sg656
S'.179'
p739
sba(isrc.gp1.models.Advanced
Advanced
p740
(dp741
g612
S'8.8'
p742
sg614
S'12.1'
p743
sg616
S'.180'
p744
sg618
S'1.5'
p745
sg620
S'17.9'
p746
sg622
S'13.0'
p747
sg624
S'2.3'
p748
sg22
g23
sg626
S'0.4'
p749
sg628
S'.585'
p750
sg630
S'17.1'
p751
sg632
S'.291'
p752
sg634
S'.010'
p753
sg28
S'NBA'
p754
sg637
S'0.5'
p755
sg639
S'11.7'
p756
sg641
S'0.6'
p757
sg40
S'25'
p758
sg42
S'ATL'
p759
sg44
S'11'
p760
sg646
S'3.1'
p761
sg648
S'19.0'
p762
sg650
S'0.8'
p763
sg64
S'348'
p764
sg653
S'2.8'
p765
sg56
S'2011-12'
p766
sg656
S'1.3'
p767
sba(isrc.gp1.models.Advanced
Advanced
p768
(dp769
g612
S'8.2'
p770
sg614
S'11.3'
p771
sg616
S'.153'
p772
sg618
S'1.5'
p773
sg620
S'21.8'
p774
sg622
S'15.7'
p775
sg624
S'2.4'
p776
sg22
g23
sg626
S'3.5'
p777
sg628
S'.560'
p778
sg630
S'23.0'
p779
sg632
S'.196'
p780
sg634
S'.006'
p781
sg28
S'NBA'
p782
sg637
S'0.7'
p783
sg639
S'15.3'
p784
sg641
S'4.1'
p785
sg40
S'26'
p786
sg42
S'ATL'
p787
sg44
S'74'
p788
sg646
S'2.2'
p789
sg648
S'19.8'
p790
sg650
S'4.7'
p791
sg64
S'2756'
p792
sg653
S'3.1'
p793
sg56
S'2012-13'
p794
sg656
S'8.8'
p795
sba(isrc.gp1.models.Advanced
Advanced
p796
(dp797
g612
S'8.0'
p798
sg614
S'12.3'
p799
sg616
S'.141'
p800
sg618
S'1.4'
p801
sg620
S'24.7'
p802
sg622
S'14.8'
p803
sg624
S'2.0'
p804
sg22
g23
sg626
S'1.1'
p805
sg628
S'.588'
p806
sg630
S'21.4'
p807
sg632
S'.202'
p808
sg634
S'.026'
p809
sg28
S'NBA'
p810
sg637
S'0.8'
p811
sg639
S'15.2'
p812
sg641
S'1.3'
p813
sg40
S'27'
p814
sg42
S'ATL'
p815
sg44
S'29'
p816
sg646
S'3.6'
p817
sg648
S'22.0'
p818
sg650
S'1.5'
p819
sg64
S'958'
p820
sg653
S'2.8'
p821
sg56
S'2013-14'
p822
sg656
S'2.8'
p823
sba(isrc.gp1.models.Advanced
Advanced
p824
(dp825
g612
S'19.8'
p826
sg614
S'22.2'
p827
sg616
S'1.3'
p828
sg618
S'3.5'
p829
sg620
S'5.1'
p830
sg622
S'18.6'
p831
sg624
S'3.8'
p832
sg22
S'76'
p833
sg626
g104
sg628
S'.037'
p834
sg630
S'13.4'
p835
sg632
S'6.7'
p836
sg634
S'.146'
p837
sg28
g23
sg637
S'2.5'
p838
sg639
S'1.5'
p839
sg641
S'8.7'
p840
sg40
S'ATL'
p841
sg42
S'NBA'
p842
sg44
S'2318'
p843
sg646
S'8.9'
p844
sg648
S'.563'
p845
sg650
S'3.6'
p846
sg64
S'21.4'
p847
sg653
S'3.4'
p848
sg56
S'28'
p849
sg656
S'.179'
p850
sba(isrc.gp1.models.Advanced
Advanced
p851
(dp852
g612
S'7.2'
p853
sg614
S'9.2'
p854
sg616
S'.162'
p855
sg618
S'1.3'
p856
sg620
S'21.1'
p857
sg622
S'12.3'
p858
sg624
S'1.8'
p859
sg22
g23
sg626
S'2.3'
p860
sg628
S'.561'
p861
sg630
S'17.2'
p862
sg632
S'.133'
p863
sg634
S'.228'
p864
sg28
S'NBA'
p865
sg637
S'1.7'
p866
sg639
S'16.4'
p867
sg641
S'2.3'
p868
sg40
S'29'
p869
sg42
S'ATL'
p870
sg44
S'52'
p871
sg646
S'3.6'
p872
sg648
S'19.8'
p873
sg650
S'3.2'
p874
sg64
S'1633'
p875
sg653
S'3.5'
p876
sg56
S'2015-16'
p877
sg656
S'5.5'
p878
sbasS'_per36Minutes'
p879
(lp880
(isrc.gp1.models.Per36Minutes
Per36Minutes
p881
(dp882
g8
S'3.5'
p883
sg10
S'0.1'
p884
sg12
S'.499'
p885
sg14
S'1.8'
p886
sg16
S'.000'
p887
sg18
S'0.0'
p888
sg20
S'11.6'
p889
sg22
g23
sg24
S'.731'
p890
sg28
S'NBA'
p891
sg30
S'0.9'
p892
sg32
S'9.5'
p893
sg34
S'3.8'
p894
sg36
S'3.0'
p895
sg38
S'11.1'
p896
sg40
S'21'
p897
sg42
S'ATL'
p898
sg44
S'81'
p899
sg46
S'1.1'
p900
sg48
S'4.7'
p901
sg50
S'2.2'
p902
sg52
S'9.4'
p903
sg54
S'7.6'
p904
sg56
S'2007-08'
p905
sg58
S'4.7'
p906
sg60
S'1.9'
p907
sg62
S'.502'
p908
sg64
S'2540'
p909
sg66
S'77'
p910
sba(isrc.gp1.models.Per36Minutes
Per36Minutes
p911
(dp912
g8
S'2.3'
p913
sg10
S'0.0'
p914
sg12
S'.525'
p915
sg14
S'2.6'
p916
sg16
S'.000'
p917
sg18
S'0.0'
p918
sg20
S'12.4'
p919
sg22
g23
sg24
S'.727'
p920
sg28
S'NBA'
p921
sg30
S'0.9'
p922
sg32
S'9.5'
p923
sg34
S'3.1'
p924
sg36
S'3.3'
p925
sg38
S'10.0'
p926
sg40
S'22'
p927
sg42
S'ATL'
p928
sg44
S'67'
p929
sg46
S'1.5'
p930
sg48
S'5.0'
p931
sg50
S'2.4'
p932
sg52
S'9.5'
p933
sg54
S'7.7'
p934
sg56
S'2008-09'
p935
sg58
S'5.0'
p936
sg60
S'1.7'
p937
sg62
S'.526'
p938
sg64
S'2242'
p939
sg66
S'67'
p940
sba(isrc.gp1.models.Per36Minutes
Per36Minutes
p941
(dp942
g8
S'7.1'
p943
sg10
S'1.000'
p944
sg12
S'0.0'
p945
sg14
S'0.7'
p946
sg16
S'5.9'
p947
sg18
S'0.0'
p948
sg20
g104
sg22
S'81'
p949
sg24
S'3.0'
p950
sg28
g23
sg30
S'1.2'
p951
sg32
S'.551'
p952
sg34
S'14.5'
p953
sg36
S'.789'
p954
sg38
S'2.4'
p955
sg40
S'ATL'
p956
sg42
S'NBA'
p957
sg44
S'81'
p958
sg46
S'1.5'
p959
sg48
S'10.7'
p960
sg50
S'3.4'
p961
sg52
S'.551'
p962
sg54
S'10.1'
p963
sg56
S'23'
p964
sg58
S'10.7'
p965
sg60
S'2.8'
p966
sg62
S'2.7'
p967
sg64
S'5.9'
p968
sg66
S'2845'
p969
sba(isrc.gp1.models.Per36Minutes
Per36Minutes
p970
(dp971
g8
S'7.1'
p972
sg10
S'.500'
p973
sg12
S'0.0'
p974
sg14
S'0.8'
p975
sg16
S'6.8'
p976
sg18
S'0.1'
p977
sg20
g104
sg22
S'77'
p978
sg24
S'2.4'
p979
sg28
g23
sg30
S'1.1'
p980
sg32
S'.557'
p981
sg34
S'15.7'
p982
sg36
S'.798'
p983
sg38
S'3.5'
p984
sg40
S'ATL'
p985
sg42
S'NBA'
p986
sg44
S'77'
p987
sg46
S'1.6'
p988
sg48
S'12.2'
p989
sg50
S'2.5'
p990
sg52
S'.557'
p991
sg54
S'9.6'
p992
sg56
S'24'
p993
sg58
S'12.3'
p994
sg60
S'2.6'
p995
sg62
S'2.0'
p996
sg64
S'6.8'
p997
sg66
S'2704'
p998
sba(isrc.gp1.models.Per36Minutes
Per36Minutes
p999
(dp1000
g8
S'2.7'
p1001
sg10
S'0.1'
p1002
sg12
S'.553'
p1003
sg14
S'2.5'
p1004
sg16
S'.000'
p1005
sg18
S'0.0'
p1006
sg20
S'14.1'
p1007
sg22
g23
sg24
S'.733'
p1008
sg28
S'NBA'
p1009
sg30
S'1.0'
p1010
sg32
S'10.7'
p1011
sg34
S'2.2'
p1012
sg36
S'3.1'
p1013
sg38
S'8.0'
p1014
sg40
S'25'
p1015
sg42
S'ATL'
p1016
sg44
S'11'
p1017
sg46
S'1.4'
p1018
sg48
S'5.9'
p1019
sg50
S'2.3'
p1020
sg52
S'10.6'
p1021
sg54
S'5.3'
p1022
sg56
S'2011-12'
p1023
sg58
S'5.9'
p1024
sg60
S'1.7'
p1025
sg62
S'.559'
p1026
sg64
S'348'
p1027
sg66
S'11'
p1028
sba(isrc.gp1.models.Per36Minutes
Per36Minutes
p1029
(dp1030
g8
S'2.5'
p1031
sg10
S'0.1'
p1032
sg12
S'.543'
p1033
sg14
S'3.1'
p1034
sg16
S'.500'
p1035
sg18
S'0.0'
p1036
sg20
S'16.8'
p1037
sg22
g23
sg24
S'.644'
p1038
sg28
S'NBA'
p1039
sg30
S'1.0'
p1040
sg32
S'13.8'
p1041
sg34
S'2.1'
p1042
sg36
S'2.7'
p1043
sg38
S'9.9'
p1044
sg40
S'26'
p1045
sg42
S'ATL'
p1046
sg44
S'74'
p1047
sg46
S'1.0'
p1048
sg48
S'7.5'
p1049
sg50
S'1.8'
p1050
sg52
S'13.8'
p1051
sg54
S'7.3'
p1052
sg56
S'2012-13'
p1053
sg58
S'7.5'
p1054
sg60
S'1.9'
p1055
sg62
S'.544'
p1056
sg64
S'2756'
p1057
sg66
S'74'
p1058
sba(isrc.gp1.models.Per36Minutes
Per36Minutes
p1059
(dp1060
g8
S'2.5'
p1061
sg10
S'0.4'
p1062
sg12
S'.567'
p1063
sg14
S'2.9'
p1064
sg16
S'.364'
p1065
sg18
S'0.2'
p1066
sg20
S'20.2'
p1067
sg22
g23
sg24
S'.682'
p1068
sg28
S'NBA'
p1069
sg30
S'1.0'
p1070
sg32
S'15.8'
p1071
sg34
S'2.1'
p1072
sg36
S'3.2'
p1073
sg38
S'9.2'
p1074
sg40
S'27'
p1075
sg42
S'ATL'
p1076
sg44
S'29'
p1077
sg46
S'1.7'
p1078
sg48
S'8.8'
p1079
sg50
S'2.2'
p1080
sg52
S'15.4'
p1081
sg54
S'6.7'
p1082
sg56
S'2013-14'
p1083
sg58
S'8.9'
p1084
sg60
S'2.4'
p1085
sg62
S'.572'
p1086
sg64
S'958'
p1087
sg66
S'29'
p1088
sba(isrc.gp1.models.Per36Minutes
Per36Minutes
p1089
(dp1090
g8
S'6.4'
p1091
sg10
S'.306'
p1092
sg12
S'0.2'
p1093
sg14
S'1.1'
p1094
sg16
S'7.9'
p1095
sg18
S'0.6'
p1096
sg20
g104
sg22
S'76'
p1097
sg24
S'2.0'
p1098
sg28
g23
sg30
S'1.5'
p1099
sg32
S'.538'
p1100
sg34
S'18.0'
p1101
sg36
S'.759'
p1102
sg38
S'3.8'
p1103
sg40
S'ATL'
p1104
sg42
S'NBA'
p1105
sg44
S'76'
p1106
sg46
S'1.6'
p1107
sg48
S'14.4'
p1108
sg50
S'2.2'
p1109
sg52
S'.547'
p1110
sg54
S'8.4'
p1111
sg56
S'28'
p1112
sg58
S'15.0'
p1113
sg60
S'1.9'
p1114
sg62
S'1.7'
p1115
sg64
S'8.1'
p1116
sg66
S'2318'
p1117
sba(isrc.gp1.models.Per36Minutes
Per36Minutes
p1118
(dp1119
g8
S'2.3'
p1120
sg10
S'3.3'
p1121
sg12
S'.504'
p1122
sg14
S'3.5'
p1123
sg16
S'.338'
p1124
sg18
S'1.1'
p1125
sg20
S'17.3'
p1126
sg22
g23
sg24
S'.773'
p1127
sg28
S'NBA'
p1128
sg30
S'1.0'
p1129
sg32
S'14.6'
p1130
sg34
S'2.2'
p1131
sg36
S'1.9'
p1132
sg38
S'8.0'
p1133
sg40
S'29'
p1134
sg42
S'ATL'
p1135
sg44
S'52'
p1136
sg46
S'1.7'
p1137
sg48
S'6.2'
p1138
sg50
S'1.5'
p1139
sg52
S'11.2'
p1140
sg54
S'5.7'
p1141
sg56
S'2015-16'
p1142
sg58
S'7.3'
p1143
sg60
S'1.6'
p1144
sg62
S'.553'
p1145
sg64
S'1633'
p1146
sg66
S'52'
p1147
sbasS'_fromYear'
p1148
S'2008'
p1149
sS'_url'
p1150
S'http://www.basketball-reference.com/players/h/horfoal01.html'
p1151
sS'_perGame'
p1152
(isrc.gp1.models.PerGame
PerGame
p1153
(dp1154
g8
S'2.0'
p1155
sg10
S'2.9'
p1156
sg12
S'.504'
p1157
sS'_effectiveFieldGalPercentage'
p1158
S'.542'
p1159
sg14
S'3.1'
p1160
sg16
S'.338'
p1161
sg18
S'1.0'
p1162
sg20
S'15.1'
p1163
sg22
g23
sg24
S'.773'
p1164
sg28
S'NBA'
p1165
sg30
S'0.8'
p1166
sg34
S'2.0'
p1167
sS'_fieldGoalsttempted'
p1168
S'12.7'
p1169
sg36
S'1.7'
p1170
sg38
S'6.9'
p1171
sg40
S'29'
p1172
sg42
S'ATL'
p1173
sg44
S'52'
p1174
sg46
S'1.4'
p1175
sg48
S'5.4'
p1176
sg50
S'1.3'
p1177
sg52
S'9.8'
p1178
sg54
S'4.9'
p1179
sg56
S'2015-16'
p1180
sg58
S'6.4'
p1181
sg60
S'1.4'
p1182
sg62
S'.553'
p1183
sg64
S'31.4'
p1184
sg66
S'52'
p1185
sbsS'_weight'
p1186
S'245'
p1187
sS'_dob'
p1188
S'3-6-1986'
p1189
sS'_salary'
p1190
(lp1191
(isrc.gp1.models.Salary
Salary
p1192
(dp1193
g42
S'Atlanta Hawks'
p1194
sg28
S'NBA'
p1195
sg1190
S'$3,745,800'
p1196
sg56
S'2007-08'
p1197
sba(isrc.gp1.models.Salary
Salary
p1198
(dp1199
g42
S'Atlanta Hawks'
p1200
sg28
S'NBA'
p1201
sg1190
S'$4,026,720'
p1202
sg56
S'2008-09'
p1203
sba(isrc.gp1.models.Salary
Salary
p1204
(dp1205
g42
S'Atlanta Hawks'
p1206
sg28
S'NBA'
p1207
sg1190
S'$4,307,640'
p1208
sg56
S'2009-10'
p1209
sba(isrc.gp1.models.Salary
Salary
p1210
(dp1211
g42
S'Atlanta Hawks'
p1212
sg28
S'NBA'
p1213
sg1190
S'$5,444,857'
p1214
sg56
S'2010-11'
p1215
sba(isrc.gp1.models.Salary
Salary
p1216
(dp1217
g42
S'Atlanta Hawks'
p1218
sg28
S'NBA'
p1219
sg1190
S'$12,000,000'
p1220
sg56
S'2011-12'
p1221
sba(isrc.gp1.models.Salary
Salary
p1222
(dp1223
g42
S'Atlanta Hawks'
p1224
sg28
S'NBA'
p1225
sg1190
S'$12,000,000'
p1226
sg56
S'2012-13'
p1227
sba(isrc.gp1.models.Salary
Salary
p1228
(dp1229
g42
S'Atlanta Hawks'
p1230
sg28
S'NBA'
p1231
sg1190
S'$12,000,000'
p1232
sg56
S'2013-14'
p1233
sba(isrc.gp1.models.Salary
Salary
p1234
(dp1235
g42
S'Atlanta Hawks'
p1236
sg28
S'NBA'
p1237
sg1190
S'$12,000,000'
p1238
sg56
S'2014-15'
p1239
sbasg22
S'F-C'
p1240
sb.