(isrc.gp1.models.Player
Player
p0
(dp1
S'_experience'
p2
S'NA'
p3
sS'_totals'
p4
(lp5
(isrc.gp1.models.Totals
Totals
p6
(dp7
S'_offensiveRebounds'
p8
S'3'
p9
sS'_threePointsAttempted'
p10
S'1'
p11
sS'_fieldGoalsPercentage'
p12
S'.421'
p13
sS'_assist'
p14
S'0'
p15
sS'_threePointsPercentage'
p16
S'.000'
p17
sS'_threePoints'
p18
g15
sS'_points'
p19
S'17'
p20
sS'_position'
p21
S'SG'
p22
sS'_freeThrowsPercentage'
p23
S'.500'
p24
sS'_effectiveFieldGoalPercentage'
p25
S'.421'
p26
sS'_league'
p27
S'NBA'
p28
sS'_steals'
p29
g11
sS'_fieldGoalsAttempted'
p30
S'19'
p31
sS'_personalFouls'
p32
S'7'
p33
sS'_freeThrowsAttempted'
p34
S'2'
p35
sS'_totalRebounds'
p36
g33
sS'_age'
p37
S'24'
p38
sS'_team'
p39
S'SAC'
p40
sS'_games'
p41
g33
sS'_blocks'
p42
g11
sS'_twoPoints'
p43
S'8'
p44
sS'_freeThrows'
p45
g11
sS'_twoPointsAttempted'
p46
S'18'
p47
sS'_defensiveRebounds'
p48
S'4'
p49
sS'_season'
p50
S'1988-89'
p51
sS'_fieldGoals'
p52
g44
sS'_turnOvers'
p53
g35
sS'_twoPointsPercentage'
p54
S'.444'
p55
sS'_minutesPlayed'
p56
S'43'
p57
sS'_gamesStarted'
p58
g15
sba(isrc.gp1.models.Totals
Totals
p59
(dp60
g8
S'49'
p61
sg10
g33
sg12
S'.444'
p62
sg14
S'23'
p63
sg16
S'.000'
p64
sg18
g15
sg19
S'235'
p65
sg21
S'SG'
p66
sg23
S'.535'
p67
sg25
S'.444'
p68
sg27
S'NBA'
p69
sg29
S'16'
p70
sg30
S'239'
p71
sg32
S'102'
p72
sg34
S'43'
p73
sg36
S'138'
p74
sg37
S'25'
p75
sg39
S'SAC'
p76
sg41
S'63'
p77
sg42
S'19'
p78
sg43
S'106'
p79
sg45
S'23'
p80
sg46
S'232'
p81
sg48
S'89'
p82
sg50
S'1989-90'
p83
sg52
S'106'
p84
sg53
S'28'
p85
sg54
S'.457'
p86
sg56
S'746'
p87
sg58
S'6'
p88
sbasS'_college'
p89
S'Florida State University'
p90
sS'_toYear'
p91
S'1990'
p92
sS'_height'
p93
S'6-8'
p94
sS'_active'
p95
I00
sS'_shootingHand'
p96
VRight
p97
sS'_name'
p98
S'Randy Allen'
p99
sS'_per100Possessions'
p100
(lp101
(isrc.gp1.models.Per100Possession
Per100Possession
p102
(dp103
g8
S'3.3'
p104
sg10
S'1.1'
p105
sg12
S'.421'
p106
sS'_offensiveRating'
p107
S'88'
p108
sg14
S'0.0'
p109
sg16
S'.000'
p110
sg18
S'0.0'
p111
sg19
S'18.9'
p112
sg21
S'SG'
p113
sS'_defensiveRating'
p114
S'112'
p115
sg23
S'.500'
p116
sg27
S'NBA'
p117
sg29
S'1.1'
p118
sg30
S'21.1'
p119
sg32
S'7.8'
p120
sg34
S'2.2'
p121
sg36
S'7.8'
p122
sg37
S'24'
p123
sg39
S'SAC'
p124
sg41
g33
sg42
S'1.1'
p125
sg43
S'8.9'
p126
sg45
S'1.1'
p127
sg46
S'20.0'
p128
sg48
S'4.4'
p129
sg50
S'1988-89'
p130
sg52
S'8.9'
p131
sg53
S'2.2'
p132
sg54
S'.444'
p133
sg56
S'43'
p134
sg58
g15
sba(isrc.gp1.models.Per100Possession
Per100Possession
p135
(dp136
g8
S'3.3'
p137
sg10
S'0.5'
p138
sg12
S'.444'
p139
sg107
S'95'
p140
sg14
S'1.5'
p141
sg16
S'.000'
p142
sg18
S'0.0'
p143
sg19
S'15.6'
p144
sg21
S'SG'
p145
sg114
S'111'
p146
sg23
S'.535'
p147
sg27
S'NBA'
p148
sg29
S'1.1'
p149
sg30
S'15.9'
p150
sg32
S'6.8'
p151
sg34
S'2.9'
p152
sg36
S'9.2'
p153
sg37
S'25'
p154
sg39
S'SAC'
p155
sg41
S'63'
p156
sg42
S'1.3'
p157
sg43
S'7.1'
p158
sg45
S'1.5'
p159
sg46
S'15.4'
p160
sg48
S'5.9'
p161
sg50
S'1989-90'
p162
sg52
S'7.1'
p163
sg53
S'1.9'
p164
sg54
S'.457'
p165
sg56
S'746'
p166
sg58
g88
sbasS'_advanced'
p167
(lp168
(isrc.gp1.models.Advanced
Advanced
p169
(dp170
S'_offensiveReboundPercentage'
p171
S'7.4'
p172
sS'_turnOverPercentage'
p173
S'9.1'
p174
sS'_winSharesPer48Minutes'
p175
S'-0.035'
p176
sS'_stealPercentage'
p177
S'1.1'
p178
sS'_usagePercentage'
p179
S'20.9'
p180
sS'_totalReboundsPercentage'
p181
S'8.7'
p182
sS'_defensiveBoxPlusMinus'
p183
S'-5.2'
p184
sg21
S'SG'
p185
sS'_valueOverReplacementPlayer'
p186
S'-0.1'
p187
sS'_trueShootingPercentage'
p188
S'.428'
p189
sS'_defensiveReboundPercentage'
p190
S'10.2'
p191
sS'_freeThrowsAttempRate'
p192
S'.105'
p193
sS'_threePointsAttempRate'
p194
S'.053'
p195
sg27
S'NBA'
p196
sS'_offensiveBoxPlusMinues'
p197
S'-7.1'
p198
sS'_assistPercentage'
p199
S'0.0'
p200
sS'_defensiveWinShares'
p201
S'0.0'
p202
sg37
S'24'
p203
sg39
S'SAC'
p204
sg41
g33
sS'_blockPercentage'
p205
S'1.3'
p206
sS'_playerEfficiencyRating'
p207
S'6.9'
p208
sS'_offensiveWinShares'
p209
S'-0.1'
p210
sg56
S'43'
p211
sS'_boxPlusMinus'
p212
S'-12.4'
p213
sg50
S'1988-89'
p214
sS'_winShares'
p215
S'0.0'
p216
sba(isrc.gp1.models.Advanced
Advanced
p217
(dp218
g171
S'7.5'
p219
sg173
S'9.8'
p220
sg175
S'.014'
p221
sg177
S'1.1'
p222
sg179
S'16.5'
p223
sg181
S'10.5'
p224
sg183
S'-1.3'
p225
sg21
S'SG'
p226
sg186
S'-0.7'
p227
sg188
S'.456'
p228
sg190
S'13.4'
p229
sg192
S'.180'
p230
sg194
S'.029'
p231
sg27
S'NBA'
p232
sg197
S'-4.6'
p233
sg199
S'4.4'
p234
sg201
S'0.6'
p235
sg37
S'25'
p236
sg39
S'SAC'
p237
sg41
S'63'
p238
sg205
S'1.5'
p239
sg207
S'8.4'
p240
sg209
S'-0.3'
p241
sg56
S'746'
p242
sg212
S'-5.9'
p243
sg50
S'1989-90'
p244
sg215
S'0.2'
p245
sbasS'_per36Minutes'
p246
(lp247
(isrc.gp1.models.Per36Minutes
Per36Minutes
p248
(dp249
g8
S'2.5'
p250
sg10
S'0.8'
p251
sg12
S'.421'
p252
sg14
S'0.0'
p253
sg16
S'.000'
p254
sg18
S'0.0'
p255
sg19
S'14.2'
p256
sg21
S'SG'
p257
sg23
S'.500'
p258
sg27
S'NBA'
p259
sg29
S'0.8'
p260
sg30
S'15.9'
p261
sg32
S'5.9'
p262
sg34
S'1.7'
p263
sg36
S'5.9'
p264
sg37
S'24'
p265
sg39
S'SAC'
p266
sg41
g33
sg42
S'0.8'
p267
sg43
S'6.7'
p268
sg45
S'0.8'
p269
sg46
S'15.1'
p270
sg48
S'3.3'
p271
sg50
S'1988-89'
p272
sg52
S'6.7'
p273
sg53
S'1.7'
p274
sg54
S'.444'
p275
sg56
S'43'
p276
sg58
g15
sba(isrc.gp1.models.Per36Minutes
Per36Minutes
p277
(dp278
g8
S'2.4'
p279
sg10
S'0.3'
p280
sg12
S'.444'
p281
sg14
S'1.1'
p282
sg16
S'.000'
p283
sg18
S'0.0'
p284
sg19
S'11.3'
p285
sg21
S'SG'
p286
sg23
S'.535'
p287
sg27
S'NBA'
p288
sg29
S'0.8'
p289
sg30
S'11.5'
p290
sg32
S'4.9'
p291
sg34
S'2.1'
p292
sg36
S'6.7'
p293
sg37
S'25'
p294
sg39
S'SAC'
p295
sg41
S'63'
p296
sg42
S'0.9'
p297
sg43
S'5.1'
p298
sg45
S'1.1'
p299
sg46
S'11.2'
p300
sg48
S'4.3'
p301
sg50
S'1989-90'
p302
sg52
S'5.1'
p303
sg53
S'1.4'
p304
sg54
S'.457'
p305
sg56
S'746'
p306
sg58
g88
sbasS'_fromYear'
p307
S'1989'
p308
sS'_url'
p309
S'http://www.basketball-reference.com/players/a/allenra01.html'
p310
sS'_perGame'
p311
(isrc.gp1.models.PerGame
PerGame
p312
(dp313
g8
S'0.8'
p314
sg10
S'0.1'
p315
sg12
S'.444'
p316
sS'_effectiveFieldGalPercentage'
p317
S'.444'
p318
sg14
S'0.4'
p319
sg16
S'.000'
p320
sg18
S'0.0'
p321
sg19
S'3.7'
p322
sg21
S'SG'
p323
sg23
S'.535'
p324
sg27
S'NBA'
p325
sg29
S'0.3'
p326
sg32
S'1.6'
p327
sS'_fieldGoalsttempted'
p328
S'3.8'
p329
sg34
S'0.7'
p330
sg36
S'2.2'
p331
sg37
S'25'
p332
sg39
S'SAC'
p333
sg41
S'63'
p334
sg42
S'0.3'
p335
sg43
S'1.7'
p336
sg45
S'0.4'
p337
sg46
S'3.7'
p338
sg48
S'1.4'
p339
sg50
S'1989-90'
p340
sg52
S'1.7'
p341
sg53
S'0.4'
p342
sg54
S'.457'
p343
sg56
S'11.8'
p344
sg58
g88
sbsS'_weight'
p345
S'220'
p346
sS'_dob'
p347
S'26-1-1965'
p348
sS'_salary'
p349
(lp350
sg21
S'F'
p351
sb.