(isrc.gp1.models.Player
Player
p0
(dp1
S'_experience'
p2
S'NA'
p3
sS'_totals'
p4
(lp5
(isrc.gp1.models.Totals
Totals
p6
(dp7
S'_offensiveRebounds'
p8
S'5'
p9
sS'_threePointsAttempted'
p10
S'33'
p11
sS'_fieldGoalsPercentage'
p12
S'.343'
p13
sS'_assist'
p14
S'49'
p15
sS'_threePointsPercentage'
p16
S'.303'
p17
sS'_threePoints'
p18
S'10'
p19
sS'_points'
p20
S'108'
p21
sS'_position'
p22
S'SG'
p23
sS'_freeThrowsPercentage'
p24
S'.722'
p25
sS'_effectiveFieldGoalPercentage'
p26
S'.390'
p27
sS'_league'
p28
S'NBA'
p29
sS'_steals'
p30
S'21'
p31
sS'_fieldGoalsAttempted'
p32
S'105'
p33
sS'_personalFouls'
p34
S'42'
p35
sS'_freeThrowsAttempted'
p36
S'36'
p37
sS'_totalRebounds'
p38
S'25'
p39
sS'_age'
p40
S'23'
p41
sS'_team'
p42
S'MIN'
p43
sS'_games'
p44
S'41'
p45
sS'_blocks'
p46
g9
sS'_twoPoints'
p47
S'26'
p48
sS'_freeThrows'
p49
S'26'
p50
sS'_twoPointsAttempted'
p51
S'72'
p52
sS'_defensiveRebounds'
p53
S'20'
p54
sS'_season'
p55
S'1995-96'
p56
sS'_fieldGoals'
p57
S'36'
p58
sS'_turnOvers'
p59
S'34'
p60
sS'_twoPointsPercentage'
p61
S'.361'
p62
sS'_minutesPlayed'
p63
S'362'
p64
sS'_gamesStarted'
p65
S'0'
p66
sba(isrc.gp1.models.Totals
Totals
p67
(dp68
g8
S'25'
p69
sg10
S'93'
p70
sg12
S'.353'
p71
sg14
S'152'
p72
sg16
S'.323'
p73
sg18
S'30'
p74
sg20
S'228'
p75
sg22
S'SG'
p76
sg24
S'.583'
p77
sg26
S'.421'
p78
sg28
S'NBA'
p79
sg30
S'31'
p80
sg32
S'221'
p81
sg34
S'84'
p82
sg36
S'72'
p83
sg38
S'98'
p84
sg40
S'24'
p85
sg42
S'TOT'
p86
sg44
S'76'
p87
sg46
S'4'
p88
sg47
S'48'
p89
sg49
S'42'
p90
sg51
S'128'
p91
sg53
S'73'
p92
sg55
S'1996-97'
p93
sg57
S'78'
p94
sg59
S'69'
p95
sg61
S'.375'
p96
sg63
S'943'
p97
sg65
S'1'
p98
sba(isrc.gp1.models.Totals
Totals
p99
(dp100
g8
S'13'
p101
sg10
S'59'
p102
sg12
S'.388'
p103
sg14
S'109'
p104
sg16
S'.390'
p105
sg18
S'23'
p106
sg20
S'164'
p107
sg22
S'SG'
p108
sg24
S'.574'
p109
sg26
S'.466'
p110
sg28
S'NBA'
p111
sg30
S'27'
p112
sg32
S'147'
p113
sg34
S'67'
p114
sg36
S'47'
p115
sg38
S'65'
p116
sg40
S'24'
p117
sg42
S'IND'
p118
sg44
S'51'
p119
sg46
g66
sg47
S'34'
p120
sg49
S'27'
p121
sg51
S'88'
p122
sg53
S'52'
p123
sg55
S'1996-97'
p124
sg57
S'57'
p125
sg59
S'56'
p126
sg61
S'.386'
p127
sg63
S'692'
p128
sg65
g98
sba(isrc.gp1.models.Totals
Totals
p129
(dp130
g8
S'12'
p131
sg10
S'34'
p132
sg12
S'.284'
p133
sg14
S'43'
p134
sg16
S'.206'
p135
sg18
S'7'
p136
sg20
S'64'
p137
sg22
S'SG'
p138
sg24
S'.600'
p139
sg26
S'.331'
p140
sg28
S'NBA'
p141
sg30
g88
sg32
S'74'
p142
sg34
S'17'
p143
sg36
S'25'
p144
sg38
S'33'
p145
sg40
S'24'
p146
sg42
S'DEN'
p147
sg44
S'25'
p148
sg46
g88
sg47
S'14'
p149
sg49
S'15'
p150
sg51
S'40'
p151
sg53
S'21'
p152
sg55
S'1996-97'
p153
sg57
S'21'
p154
sg59
S'13'
p155
sg61
S'.350'
p156
sg63
S'251'
p157
sg65
g66
sbasS'_college'
p158
S'University of Pennsylvania'
p159
sS'_toYear'
p160
S'1997'
p161
sS'_height'
p162
S'6-4'
p163
sS'_active'
p164
I00
sS'_shootingHand'
p165
VRight
p166
sS'_name'
p167
S'Jerome Allen'
p168
sS'_per100Possessions'
p169
(lp170
(isrc.gp1.models.Per100Possession
Per100Possession
p171
(dp172
g8
S'0.7'
p173
sg10
S'4.7'
p174
sg12
S'.343'
p175
sS'_offensiveRating'
p176
S'86'
p177
sg14
S'6.9'
p178
sg16
S'.303'
p179
sg18
S'1.4'
p180
sg20
S'15.3'
p181
sg22
S'SG'
p182
sS'_defensiveRating'
p183
S'110'
p184
sg24
S'.722'
p185
sg28
S'NBA'
p186
sg30
S'3.0'
p187
sg32
S'14.9'
p188
sg34
S'6.0'
p189
sg36
S'5.1'
p190
sg38
S'3.5'
p191
sg40
S'23'
p192
sg42
S'MIN'
p193
sg44
S'41'
p194
sg46
S'0.7'
p195
sg47
S'3.7'
p196
sg49
S'3.7'
p197
sg51
S'10.2'
p198
sg53
S'2.8'
p199
sg55
S'1995-96'
p200
sg57
S'5.1'
p201
sg59
S'4.8'
p202
sg61
S'.361'
p203
sg63
S'362'
p204
sg65
g66
sba(isrc.gp1.models.Per100Possession
Per100Possession
p205
(dp206
g8
S'1.4'
p207
sg10
S'5.3'
p208
sg12
S'.353'
p209
sg176
S'95'
p210
sg14
S'8.6'
p211
sg16
S'.323'
p212
sg18
S'1.7'
p213
sg20
S'12.9'
p214
sg22
S'SG'
p215
sg183
S'109'
p216
sg24
S'.583'
p217
sg28
S'NBA'
p218
sg30
S'1.8'
p219
sg32
S'12.5'
p220
sg34
S'4.8'
p221
sg36
S'4.1'
p222
sg38
S'5.5'
p223
sg40
S'24'
p224
sg42
S'TOT'
p225
sg44
S'76'
p226
sg46
S'0.2'
p227
sg47
S'2.7'
p228
sg49
S'2.4'
p229
sg51
S'7.2'
p230
sg53
S'4.1'
p231
sg55
S'1996-97'
p232
sg57
S'4.4'
p233
sg59
S'3.9'
p234
sg61
S'.375'
p235
sg63
S'943'
p236
sg65
g98
sba(isrc.gp1.models.Per100Possession
Per100Possession
p237
(dp238
g8
S'1.0'
p239
sg10
S'4.6'
p240
sg12
S'.388'
p241
sg176
S'95'
p242
sg14
S'8.5'
p243
sg16
S'.390'
p244
sg18
S'1.8'
p245
sg20
S'12.8'
p246
sg22
S'SG'
p247
sg183
S'107'
p248
sg24
S'.574'
p249
sg28
S'NBA'
p250
sg30
S'2.1'
p251
sg32
S'11.5'
p252
sg34
S'5.2'
p253
sg36
S'3.7'
p254
sg38
S'5.1'
p255
sg40
S'24'
p256
sg42
S'IND'
p257
sg44
S'51'
p258
sg46
S'0.0'
p259
sg47
S'2.7'
p260
sg49
S'2.1'
p261
sg51
S'6.9'
p262
sg53
S'4.1'
p263
sg55
S'1996-97'
p264
sg57
S'4.4'
p265
sg59
S'4.4'
p266
sg61
S'.386'
p267
sg63
S'692'
p268
sg65
g98
sba(isrc.gp1.models.Per100Possession
Per100Possession
p269
(dp270
g8
S'2.5'
p271
sg10
S'7.0'
p272
sg12
S'.284'
p273
sg176
S'94'
p274
sg14
S'8.9'
p275
sg16
S'.206'
p276
sg18
S'1.4'
p277
sg20
S'13.2'
p278
sg22
S'SG'
p279
sg183
S'114'
p280
sg24
S'.600'
p281
sg28
S'NBA'
p282
sg30
S'0.8'
p283
sg32
S'15.3'
p284
sg34
S'3.5'
p285
sg36
S'5.2'
p286
sg38
S'6.8'
p287
sg40
S'24'
p288
sg42
S'DEN'
p289
sg44
S'25'
p290
sg46
S'0.8'
p291
sg47
S'2.9'
p292
sg49
S'3.1'
p293
sg51
S'8.3'
p294
sg53
S'4.3'
p295
sg55
S'1996-97'
p296
sg57
S'4.3'
p297
sg59
S'2.7'
p298
sg61
S'.350'
p299
sg63
S'251'
p300
sg65
g66
sbasS'_advanced'
p301
(lp302
(isrc.gp1.models.Advanced
Advanced
p303
(dp304
S'_offensiveReboundPercentage'
p305
S'1.7'
p306
sS'_turnOverPercentage'
p307
S'22.0'
p308
sS'_winSharesPer48Minutes'
p309
S'-0.033'
p310
sS'_stealPercentage'
p311
S'3.0'
p312
sS'_usagePercentage'
p313
S'19.0'
p314
sS'_totalReboundsPercentage'
p315
S'4.1'
p316
sS'_defensiveBoxPlusMinus'
p317
S'-1.6'
p318
sg22
S'SG'
p319
sS'_valueOverReplacementPlayer'
p320
S'-0.4'
p321
sS'_trueShootingPercentage'
p322
S'.447'
p323
sS'_defensiveReboundPercentage'
p324
S'6.6'
p325
sS'_freeThrowsAttempRate'
p326
S'.343'
p327
sS'_threePointsAttempRate'
p328
S'.314'
p329
sg28
S'NBA'
p330
sS'_offensiveBoxPlusMinues'
p331
S'-4.4'
p332
sS'_assistPercentage'
p333
S'20.8'
p334
sS'_defensiveWinShares'
p335
S'0.3'
p336
sg40
S'23'
p337
sg42
S'MIN'
p338
sg44
S'41'
p339
sS'_blockPercentage'
p340
S'1.1'
p341
sS'_playerEfficiencyRating'
p342
S'7.8'
p343
sS'_offensiveWinShares'
p344
S'-0.5'
p345
sg63
S'362'
p346
sS'_boxPlusMinus'
p347
S'-6.1'
p348
sg55
S'1995-96'
p349
sS'_winShares'
p350
S'-0.3'
p351
sba(isrc.gp1.models.Advanced
Advanced
p352
(dp353
g305
S'3.1'
p354
sg307
S'21.4'
p355
sg309
S'.021'
p356
sg311
S'1.8'
p357
sg313
S'15.6'
p358
sg315
S'6.1'
p359
sg317
S'-1.1'
p360
sg22
S'SG'
p361
sg320
S'-0.3'
p362
sg322
S'.451'
p363
sg324
S'9.0'
p364
sg326
S'.326'
p365
sg328
S'.421'
p366
sg28
S'NBA'
p367
sg331
S'-2.3'
p368
sg333
S'25.3'
p369
sg335
S'0.8'
p370
sg40
S'24'
p371
sg42
S'TOT'
p372
sg44
S'76'
p373
sg340
S'0.3'
p374
sg342
S'8.7'
p375
sg344
S'-0.3'
p376
sg63
S'943'
p377
sg347
S'-3.5'
p378
sg55
S'1996-97'
p379
sg350
S'0.4'
p380
sba(isrc.gp1.models.Advanced
Advanced
p381
(dp382
g305
S'2.3'
p383
sg307
S'25.0'
p384
sg309
S'.035'
p385
sg311
S'2.1'
p386
sg313
S'14.9'
p387
sg315
S'5.6'
p388
sg317
S'-0.6'
p389
sg22
S'SG'
p390
sg320
S'-0.2'
p391
sg322
S'.489'
p392
sg324
S'8.8'
p393
sg326
S'.320'
p394
sg328
S'.401'
p395
sg28
S'NBA'
p396
sg331
S'-2.3'
p397
sg333
S'24.9'
p398
sg335
S'0.7'
p399
sg40
S'24'
p400
sg42
S'IND'
p401
sg44
S'51'
p402
sg340
S'0.0'
p403
sg342
S'8.7'
p404
sg344
S'-0.2'
p405
sg63
S'692'
p406
sg347
S'-2.9'
p407
sg55
S'1996-97'
p408
sg350
S'0.5'
p409
sba(isrc.gp1.models.Advanced
Advanced
p410
(dp411
g305
S'5.5'
p412
sg307
S'13.3'
p413
sg309
S'-0.019'
p414
sg311
S'0.8'
p415
sg313
S'17.4'
p416
sg315
S'7.5'
p417
sg317
S'-2.5'
p418
sg22
S'SG'
p419
sg320
S'-0.2'
p420
sg322
S'.376'
p421
sg324
S'9.4'
p422
sg326
S'.338'
p423
sg328
S'.459'
p424
sg28
S'NBA'
p425
sg331
S'-2.5'
p426
sg333
S'26.3'
p427
sg335
S'0.0'
p428
sg40
S'24'
p429
sg42
S'DEN'
p430
sg44
S'25'
p431
sg340
S'1.1'
p432
sg342
S'8.9'
p433
sg344
S'-0.1'
p434
sg63
S'251'
p435
sg347
S'-5.1'
p436
sg55
S'1996-97'
p437
sg350
S'-0.1'
p438
sbasS'_per36Minutes'
p439
(lp440
(isrc.gp1.models.Per36Minutes
Per36Minutes
p441
(dp442
g8
S'0.5'
p443
sg10
S'3.3'
p444
sg12
S'.343'
p445
sg14
S'4.9'
p446
sg16
S'.303'
p447
sg18
S'1.0'
p448
sg20
S'10.7'
p449
sg22
S'SG'
p450
sg24
S'.722'
p451
sg28
S'NBA'
p452
sg30
S'2.1'
p453
sg32
S'10.4'
p454
sg34
S'4.2'
p455
sg36
S'3.6'
p456
sg38
S'2.5'
p457
sg40
S'23'
p458
sg42
S'MIN'
p459
sg44
S'41'
p460
sg46
S'0.5'
p461
sg47
S'2.6'
p462
sg49
S'2.6'
p463
sg51
S'7.2'
p464
sg53
S'2.0'
p465
sg55
S'1995-96'
p466
sg57
S'3.6'
p467
sg59
S'3.4'
p468
sg61
S'.361'
p469
sg63
S'362'
p470
sg65
g66
sba(isrc.gp1.models.Per36Minutes
Per36Minutes
p471
(dp472
g8
S'1.0'
p473
sg10
S'3.6'
p474
sg12
S'.353'
p475
sg14
S'5.8'
p476
sg16
S'.323'
p477
sg18
S'1.1'
p478
sg20
S'8.7'
p479
sg22
S'SG'
p480
sg24
S'.583'
p481
sg28
S'NBA'
p482
sg30
S'1.2'
p483
sg32
S'8.4'
p484
sg34
S'3.2'
p485
sg36
S'2.7'
p486
sg38
S'3.7'
p487
sg40
S'24'
p488
sg42
S'TOT'
p489
sg44
S'76'
p490
sg46
S'0.2'
p491
sg47
S'1.8'
p492
sg49
S'1.6'
p493
sg51
S'4.9'
p494
sg53
S'2.8'
p495
sg55
S'1996-97'
p496
sg57
S'3.0'
p497
sg59
S'2.6'
p498
sg61
S'.375'
p499
sg63
S'943'
p500
sg65
g98
sba(isrc.gp1.models.Per36Minutes
Per36Minutes
p501
(dp502
g8
S'0.7'
p503
sg10
S'3.1'
p504
sg12
S'.388'
p505
sg14
S'5.7'
p506
sg16
S'.390'
p507
sg18
S'1.2'
p508
sg20
S'8.5'
p509
sg22
S'SG'
p510
sg24
S'.574'
p511
sg28
S'NBA'
p512
sg30
S'1.4'
p513
sg32
S'7.6'
p514
sg34
S'3.5'
p515
sg36
S'2.4'
p516
sg38
S'3.4'
p517
sg40
S'24'
p518
sg42
S'IND'
p519
sg44
S'51'
p520
sg46
S'0.0'
p521
sg47
S'1.8'
p522
sg49
S'1.4'
p523
sg51
S'4.6'
p524
sg53
S'2.7'
p525
sg55
S'1996-97'
p526
sg57
S'3.0'
p527
sg59
S'2.9'
p528
sg61
S'.386'
p529
sg63
S'692'
p530
sg65
g98
sba(isrc.gp1.models.Per36Minutes
Per36Minutes
p531
(dp532
g8
S'1.7'
p533
sg10
S'4.9'
p534
sg12
S'.284'
p535
sg14
S'6.2'
p536
sg16
S'.206'
p537
sg18
S'1.0'
p538
sg20
S'9.2'
p539
sg22
S'SG'
p540
sg24
S'.600'
p541
sg28
S'NBA'
p542
sg30
S'0.6'
p543
sg32
S'10.6'
p544
sg34
S'2.4'
p545
sg36
S'3.6'
p546
sg38
S'4.7'
p547
sg40
S'24'
p548
sg42
S'DEN'
p549
sg44
S'25'
p550
sg46
S'0.6'
p551
sg47
S'2.0'
p552
sg49
S'2.2'
p553
sg51
S'5.7'
p554
sg53
S'3.0'
p555
sg55
S'1996-97'
p556
sg57
S'3.0'
p557
sg59
S'1.9'
p558
sg61
S'.350'
p559
sg63
S'251'
p560
sg65
g66
sbasS'_fromYear'
p561
S'1996'
p562
sS'_url'
p563
S'http://www.basketball-reference.com/players/a/allenje01.html'
p564
sS'_perGame'
p565
(isrc.gp1.models.PerGame
PerGame
p566
(dp567
g8
S'0.5'
p568
sg10
S'1.4'
p569
sg12
S'.284'
p570
sS'_effectiveFieldGalPercentage'
p571
S'.331'
p572
sg14
S'1.7'
p573
sg16
S'.206'
p574
sg18
S'0.3'
p575
sg20
S'2.6'
p576
sg22
S'SG'
p577
sg24
S'.600'
p578
sg28
S'NBA'
p579
sg30
S'0.2'
p580
sg34
S'0.7'
p581
sS'_fieldGoalsttempted'
p582
S'3.0'
p583
sg36
S'1.0'
p584
sg38
S'1.3'
p585
sg40
S'24'
p586
sg42
S'DEN'
p587
sg44
S'25'
p588
sg46
S'0.2'
p589
sg47
S'0.6'
p590
sg49
S'0.6'
p591
sg51
S'1.6'
p592
sg53
S'0.8'
p593
sg55
S'1996-97'
p594
sg57
S'0.8'
p595
sg59
S'0.5'
p596
sg61
S'.350'
p597
sg63
S'10.0'
p598
sg65
g66
sbsS'_weight'
p599
S'184'
p600
sS'_dob'
p601
S'28-1-1973'
p602
sS'_salary'
p603
(lp604
(isrc.gp1.models.Salary
Salary
p605
(dp606
g42
S'Minnesota Timberwolves'
p607
sg28
S'NBA'
p608
sg603
S'$200,000'
p609
sg55
S'1995-96'
p610
sba(isrc.gp1.models.Salary
Salary
p611
(dp612
g42
S'Indiana Pacers'
p613
sg28
S'NBA'
p614
sg603
S'$247,500'
p615
sg55
S'1996-97'
p616
sba(isrc.gp1.models.Salary
Salary
p617
(dp618
g42
S'Cleveland Cavaliers'
p619
sg28
S'NBA'
p620
sg603
S'$35,000'
p621
sg55
S'1997-98'
p622
sba(isrc.gp1.models.Salary
Salary
p623
(dp624
g42
S'Milwaukee Bucks'
p625
sg28
S'NBA'
p626
sg603
S'$510,000'
p627
sg55
S'1999-00'
p628
sbasg22
S'G'
p629
sb.