(isrc.gp1.models.Player
Player
p0
(dp1
S'_experience'
p2
S'NA'
p3
sS'_totals'
p4
(lp5
(isrc.gp1.models.Totals
Totals
p6
(dp7
S'_offensiveRebounds'
p8
S'23'
p9
sS'_threePointsAttempted'
p10
S'.000'
p11
sS'_fieldGoalsPercentage'
p12
S'0'
p13
sS'_assist'
p14
S'10'
p15
sS'_threePointsPercentage'
p16
S'43'
p17
sS'_threePoints'
p18
S'1'
p19
sS'_points'
p20
g3
sS'_position'
p21
S'SG'
p22
sS'_freeThrowsPercentage'
p23
S'24'
p24
sS'_effectiveFieldGoalPercentage'
p25
S'27'
p26
sS'_league'
p27
S'ABA'
p28
sS'_steals'
p29
S'8'
p30
sS'_fieldGoalsAttempted'
p31
S'.377'
p32
sS'_personalFouls'
p33
S'113'
p34
sS'_freeThrowsAttempted'
p35
S'.730'
p36
sS'_totalRebounds'
p37
S'13'
p38
sS'_age'
p39
S'23'
p40
sS'_team'
p41
S'KEN'
p42
sS'_games'
p43
S'29'
p44
sS'_blocks'
p45
S'27'
p46
sS'_twoPoints'
p47
S'113'
p48
sS'_freeThrows'
p49
S'37'
p50
sS'_twoPointsAttempted'
p51
S'.381'
p52
sS'_defensiveRebounds'
p53
S'47'
p54
sS'_season'
p55
S'1975-76'
p56
sS'_fieldGoals'
p57
S'114'
p58
sS'_turnOvers'
p59
S'52'
p60
sS'_twoPointsPercentage'
p61
S'.377'
p62
sS'_minutesPlayed'
p63
S'43'
p64
sS'_gamesStarted'
p65
S'248'
p66
sba(isrc.gp1.models.Totals
Totals
p67
(dp68
g8
g13
sg10
S'.200'
p69
sg12
g19
sg14
S'5'
p70
sg16
S'.200'
p71
sg18
g70
sg20
g3
sg21
S'SG'
p72
sg23
g13
sg25
S'3'
p73
sg27
S'NBA'
p74
sg29
g3
sg31
S'.200'
p75
sg33
g3
sg35
S'4'
p76
sg37
g70
sg39
S'24'
p77
sg41
S'LAL'
p78
sg43
S'2'
p79
sg45
g3
sg47
g73
sg49
g19
sg51
S'7'
p80
sg53
g13
sg55
S'1976-77'
p81
sg57
g70
sg59
g3
sg61
S'.429'
p82
sg63
g19
sg65
S'18'
p83
sbasS'_college'
p84
S'University of Louisville'
p85
sS'_toYear'
p86
S'1977'
p87
sS'_height'
p88
S'6-5'
p89
sS'_active'
p90
I00
sS'_shootingHand'
p91
VRight
p92
sS'_name'
p93
S'Allen Murphy'
p94
sS'_per100Possessions'
p95
(lp96
(isrc.gp1.models.Per100Possession
Per100Possession
p97
(dp98
g8
S'4.2'
p99
sg10
S'.000'
p100
sg12
S'0.0'
p101
sS'_offensiveRating'
p102
S'103'
p103
sg14
S'1.8'
p104
sg16
S'7.9'
p105
sg18
S'0.2'
p106
sg20
S'88'
p107
sg21
S'SG'
p108
sS'_defensiveRating'
p109
g3
sg23
S'4.4'
p110
sg27
S'ABA'
p111
sg29
S'1.5'
p112
sg31
S'.377'
p113
sg33
S'20.7'
p114
sg35
S'.730'
p115
sg37
S'2.4'
p116
sg39
S'23'
p117
sg41
S'KEN'
p118
sg43
S'29'
p119
sg45
S'4.9'
p120
sg47
S'20.7'
p121
sg49
S'6.8'
p122
sg51
S'.381'
p123
sg53
S'8.6'
p124
sg55
S'1975-76'
p125
sg57
S'20.8'
p126
sg59
S'9.5'
p127
sg61
S'4.9'
p128
sg63
S'7.9'
p129
sg65
S'248'
p130
sba(isrc.gp1.models.Per100Possession
Per100Possession
p131
(dp132
g8
S'0.0'
p133
sg10
S'.200'
p134
sg12
S'2.5'
p135
sg102
g3
sg14
S'12.7'
p136
sg16
S'7.6'
p137
sg18
S'12.7'
p138
sg20
g3
sg21
S'SG'
p139
sg109
g3
sg23
S'0.0'
p140
sg27
S'NBA'
p141
sg29
S'106'
p142
sg31
S'.200'
p143
sg33
g3
sg35
S'10.2'
p144
sg37
S'12.7'
p145
sg39
S'24'
p146
sg41
S'LAL'
p147
sg43
g79
sg45
g3
sg47
S'17.8'
p148
sg49
S'2.5'
p149
sg51
S'.429'
p150
sg53
S'0.0'
p151
sg55
S'1976-77'
p152
sg57
S'12.7'
p153
sg59
g3
sg61
S'7.6'
p154
sg63
S'2.5'
p155
sg65
S'18'
p156
sbasS'_advanced'
p157
(lp158
(isrc.gp1.models.Advanced
Advanced
p159
(dp160
S'_offensiveReboundPercentage'
p161
S'9.5'
p162
sS'_turnOverPercentage'
p163
S'17.2'
p164
sS'_winSharesPer48Minutes'
p165
S'-0.003'
p166
sS'_stealPercentage'
p167
S'1.8'
p168
sS'_usagePercentage'
p169
S'24.2'
p170
sS'_totalReboundsPercentage'
p171
S'9.1'
p172
sS'_defensiveBoxPlusMinus'
p173
S'-1.0'
p174
sg21
S'SG'
p175
sS'_valueOverReplacementPlayer'
p176
S'-0.2'
p177
sS'_trueShootingPercentage'
p178
S'.434'
p179
sS'_defensiveReboundPercentage'
p180
S'8.7'
p181
sS'_freeThrowsAttempRate'
p182
S'.325'
p183
sS'_threePointsAttempRate'
p184
S'.009'
p185
sg27
S'ABA'
p186
sS'_offensiveBoxPlusMinues'
p187
S'-4.5'
p188
sS'_assistPercentage'
p189
S'7.0'
p190
sS'_defensiveWinShares'
p191
S'0.3'
p192
sg39
S'23'
p193
sg41
S'KEN'
p194
sg43
S'29'
p195
sS'_blockPercentage'
p196
S'1.7'
p197
sS'_playerEfficiencyRating'
p198
S'8.4'
p199
sS'_offensiveWinShares'
p200
S'-0.3'
p201
sg63
S'248'
p202
sS'_boxPlusMinus'
p203
S'-5.5'
p204
sg55
S'1975-76'
p205
sS'_winShares'
p206
S'0.0'
p207
sba(isrc.gp1.models.Advanced
Advanced
p208
(dp209
g161
S'5.5'
p210
sg163
S'0.0'
p211
sg165
S'-16.9'
p212
sg167
S'0.0'
p213
sg169
S'-0.1'
p214
sg171
S'0.0'
p215
sg173
g3
sg21
S'SG'
p216
sg176
g3
sg178
S'.309'
p217
sg180
S'11.3'
p218
sg182
S'17.4'
p219
sg184
S'1.400'
p220
sg27
S'NBA'
p221
sg187
S'-0.1'
p222
sg189
S'0.0'
p223
sg191
S'-8.7'
p224
sg39
S'24'
p225
sg41
S'LAL'
p226
sg43
g79
sg196
S'-0.1'
p227
sg198
S'1.8'
p228
sg200
S'-0.229'
p229
sg63
S'18'
p230
sg203
g3
sg55
S'1976-77'
p231
sg206
S'-8.3'
p232
sbasS'_per36Minutes'
p233
(lp234
(isrc.gp1.models.Per36Minutes
Per36Minutes
p235
(dp236
g8
S'3.3'
p237
sg10
S'.000'
p238
sg12
S'0.0'
p239
sg14
S'1.5'
p240
sg16
S'6.2'
p241
sg18
S'0.1'
p242
sg20
g3
sg21
S'SG'
p243
sg23
S'3.5'
p244
sg27
S'ABA'
p245
sg29
S'1.2'
p246
sg31
S'.377'
p247
sg33
S'16.4'
p248
sg35
S'.730'
p249
sg37
S'1.9'
p250
sg39
S'23'
p251
sg41
S'KEN'
p252
sg43
S'29'
p253
sg45
S'3.9'
p254
sg47
S'16.4'
p255
sg49
S'5.4'
p256
sg51
S'.381'
p257
sg53
S'6.8'
p258
sg55
S'1975-76'
p259
sg57
S'16.5'
p260
sg59
S'7.5'
p261
sg61
S'3.9'
p262
sg63
S'6.2'
p263
sg65
S'248'
p264
sba(isrc.gp1.models.Per36Minutes
Per36Minutes
p265
(dp266
g8
S'0.0'
p267
sg10
S'.200'
p268
sg12
S'2.0'
p269
sg14
S'10.0'
p270
sg16
S'6.0'
p271
sg18
S'10.0'
p272
sg20
g3
sg21
S'SG'
p273
sg23
S'0.0'
p274
sg27
S'NBA'
p275
sg29
g3
sg31
S'.200'
p276
sg33
g3
sg35
S'8.0'
p277
sg37
S'10.0'
p278
sg39
S'24'
p279
sg41
S'LAL'
p280
sg43
g79
sg45
g3
sg47
S'14.0'
p281
sg49
S'2.0'
p282
sg51
S'.429'
p283
sg53
S'0.0'
p284
sg55
S'1976-77'
p285
sg57
S'10.0'
p286
sg59
g3
sg61
S'6.0'
p287
sg63
S'2.0'
p288
sg65
S'18'
p289
sbasS'_fromYear'
p290
S'1976'
p291
sS'_url'
p292
S'http://www.basketball-reference.com/players/m/murphal01.html'
p293
sS'_perGame'
p294
(isrc.gp1.models.PerGame
PerGame
p295
(dp296
g8
S'0.0'
p297
sg10
S'.200'
p298
sg12
S'0.5'
p299
sS'_effectiveFieldGalPercentage'
p300
S'1.5'
p301
sg14
S'2.5'
p302
sg16
S'.200'
p303
sg18
S'2.5'
p304
sg20
g3
sg21
S'SG'
p305
sg23
S'0.0'
p306
sg27
S'NBA'
p307
sg29
g3
sg33
g3
sS'_fieldGoalsttempted'
p308
S'.200'
p309
sg35
S'2.0'
p310
sg37
S'2.5'
p311
sg39
S'24'
p312
sg41
S'LAL'
p313
sg43
g79
sg45
g3
sg47
S'1.5'
p314
sg49
S'0.5'
p315
sg51
S'3.5'
p316
sg53
S'0.0'
p317
sg55
S'1976-77'
p318
sg57
S'2.5'
p319
sg59
g3
sg61
S'.429'
p320
sg63
S'0.5'
p321
sg65
S'9.0'
p322
sbsS'_weight'
p323
S'190'
p324
sS'_dob'
p325
S'15-7-1952'
p326
sS'_salary'
p327
(lp328
sg21
S'G'
p329
sb.