(isrc.gp1.models.Player
Player
p0
(dp1
S'_experience'
p2
S'NA'
p3
sS'_totals'
p4
(lp5
(isrc.gp1.models.Totals
Totals
p6
(dp7
S'_offensiveRebounds'
p8
S'127'
p9
sS'_threePointsAttempted'
p10
S'.158'
p11
sS'_fieldGoalsPercentage'
p12
S'3'
p13
sS'_assist'
p14
S'127'
p15
sS'_threePointsPercentage'
p16
S'327'
p17
sS'_threePoints'
p18
S'19'
p19
sS'_points'
p20
g3
sS'_position'
p21
S'PG'
p22
sS'_freeThrowsPercentage'
p23
S'57'
p24
sS'_effectiveFieldGoalPercentage'
p25
S'180'
p26
sS'_league'
p27
S'NBA'
p28
sS'_steals'
p29
S'28'
p30
sS'_fieldGoalsAttempted'
p31
S'.503'
p32
sS'_personalFouls'
p33
S'843'
p34
sS'_freeThrowsAttempted'
p35
S'.814'
p36
sS'_totalRebounds'
p37
S'417'
p38
sS'_age'
p39
S'22'
p40
sS'_team'
p41
S'HOU'
p42
sS'_games'
p43
S'77'
p44
sS'_blocks'
p45
S'205'
p46
sS'_twoPoints'
p47
S'637'
p48
sS'_freeThrows'
p49
S'221'
p50
sS'_twoPointsAttempted'
p51
S'.513'
p52
sS'_defensiveRebounds'
p53
S'184'
p54
sS'_season'
p55
S'1979-80'
p56
sS'_fieldGoals'
p57
S'656'
p58
sS'_turnOvers'
p59
S'197'
p60
sS'_twoPointsPercentage'
p61
S'.505'
p62
sS'_minutesPlayed'
p63
S'330'
p64
sS'_gamesStarted'
p65
S'2123'
p66
sba(isrc.gp1.models.Totals
Totals
p67
(dp68
g8
S'104'
p69
sg10
S'.118'
p70
sg12
S'2'
p71
sg14
S'97'
p72
sg16
S'256'
p73
sg18
S'17'
p74
sg20
g3
sg21
S'PG'
p75
sg23
S'30'
p76
sg25
S'124'
p77
sg27
S'NBA'
p78
sg29
S'15'
p79
sg31
S'.471'
p80
sg33
S'642'
p81
sg35
S'.832'
p82
sg37
S'384'
p83
sg39
S'23'
p84
sg41
S'HOU'
p85
sg43
S'79'
p86
sg45
S'189'
p87
sg47
S'531'
p88
sg49
S'149'
p89
sg51
S'.482'
p90
sg53
S'134'
p91
sg55
S'1980-81'
p92
sg57
S'548'
p93
sg59
S'160'
p94
sg61
S'.473'
p95
sg63
S'258'
p96
sg65
S'1686'
p97
sba(isrc.gp1.models.Totals
Totals
p98
(dp99
g8
S'49'
p100
sg10
S'31'
p101
sg12
S'.467'
p102
sg14
S'457'
p103
sg16
S'.290'
p104
sg18
S'9'
p105
sg20
S'864'
p106
sg21
S'PG'
p107
sg23
S'.852'
p108
sg25
S'.472'
p109
sg27
S'NBA'
p110
sg29
S'150'
p111
sg31
S'793'
p112
sg33
S'182'
p113
sg35
S'135'
p114
sg37
S'168'
p115
sg39
S'24'
p116
sg41
S'HOU'
p117
sg43
S'79'
p118
sg45
S'15'
p119
sg47
S'361'
p120
sg49
S'115'
p121
sg51
S'762'
p122
sg53
S'119'
p123
sg55
S'1981-82'
p124
sg57
S'370'
p125
sg59
S'153'
p126
sg61
S'.474'
p127
sg63
S'2150'
p128
sg65
S'61'
p129
sba(isrc.gp1.models.Totals
Totals
p130
(dp131
g8
S'64'
p132
sg10
S'175'
p133
sg12
S'.415'
p134
sg14
S'530'
p135
sg16
S'.240'
p136
sg18
S'42'
p137
sg20
S'1167'
p138
sg21
S'PG'
p139
sg23
S'.832'
p140
sg25
S'.434'
p141
sg27
S'NBA'
p142
sg29
S'165'
p143
sg31
S'1059'
p144
sg33
S'215'
p145
sg35
S'297'
p146
sg37
S'195'
p147
sg39
S'25'
p148
sg41
S'HOU'
p149
sg43
S'79'
p150
sg45
S'14'
p151
sg47
S'397'
p152
sg49
S'247'
p153
sg51
S'884'
p154
sg53
S'131'
p155
sg55
S'1982-83'
p156
sg57
S'439'
p157
sg59
S'198'
p158
sg61
S'.449'
p159
sg63
S'2602'
p160
sg65
S'76'
p161
sba(isrc.gp1.models.Totals
Totals
p162
(dp163
g8
S'31'
p164
sg10
S'71'
p165
sg12
S'.477'
p166
sg14
S'459'
p167
sg16
S'.155'
p168
sg18
S'11'
p169
sg20
S'947'
p170
sg21
S'PG'
p171
sg23
S'.832'
p172
sg25
S'.485'
p173
sg27
S'NBA'
p174
sg29
S'107'
p175
sg31
S'731'
p176
sg33
S'199'
p177
sg35
S'286'
p178
sg37
S'117'
p179
sg39
S'26'
p180
sg41
S'HOU'
p181
sg43
S'82'
p182
sg45
S'12'
p183
sg47
S'338'
p184
sg49
S'238'
p185
sg51
S'660'
p186
sg53
S'86'
p187
sg55
S'1983-84'
p188
sg57
S'349'
p189
sg59
S'184'
p190
sg61
S'.512'
p191
sg63
S'2009'
p192
sg65
S'27'
p193
sba(isrc.gp1.models.Totals
Totals
p194
(dp195
g8
S'8'
p196
sg10
S'37'
p197
sg12
S'.421'
p198
sg14
S'102'
p199
sg16
S'.216'
p200
sg18
g196
sg20
S'228'
p201
sg21
S'PG'
p202
sg23
S'.772'
p203
sg25
S'.440'
p204
sg27
S'NBA'
p205
sg29
S'23'
p206
sg31
S'209'
p207
sg33
S'61'
p208
sg35
S'57'
p209
sg37
S'37'
p210
sg39
S'27'
p211
sg41
S'HOU'
p212
sg43
S'42'
p213
sg45
S'4'
p214
sg47
S'80'
p215
sg49
S'44'
p216
sg51
S'172'
p217
sg53
S'29'
p218
sg55
S'1984-85'
p219
sg57
S'88'
p220
sg59
S'51'
p221
sg61
S'.465'
p222
sg63
S'536'
p223
sg65
S'0'
p224
sba(isrc.gp1.models.Totals
Totals
p225
(dp226
g8
S'6'
p227
sg10
S'67'
p228
sg12
S'.463'
p229
sg14
S'234'
p230
sg16
S'.358'
p231
sg18
S'24'
p232
sg20
S'583'
p233
sg21
S'PG'
p234
sg23
S'.854'
p235
sg25
S'.489'
p236
sg27
S'NBA'
p237
sg29
S'58'
p238
sg31
S'458'
p239
sg33
S'126'
p240
sg35
S'158'
p241
sg37
S'67'
p242
sg39
S'28'
p243
sg41
S'HOU'
p244
sg43
S'74'
p245
sg45
g196
sg47
S'188'
p246
sg49
S'135'
p247
sg51
S'391'
p248
sg53
S'61'
p249
sg55
S'1985-86'
p250
sg57
S'212'
p251
sg59
S'88'
p252
sg61
S'.481'
p253
sg63
S'1190'
p254
sg65
S'12'
p255
sba(isrc.gp1.models.Totals
Totals
p256
(dp257
g8
S'14'
p258
sg10
S'57'
p259
sg12
S'.411'
p260
sg14
S'224'
p261
sg16
S'.316'
p262
sg18
S'18'
p263
sg20
S'412'
p264
sg21
S'PG'
p265
sg23
S'.840'
p266
sg25
S'.436'
p267
sg27
S'NBA'
p268
sg29
S'53'
p269
sg31
S'358'
p270
sg33
S'126'
p271
sg35
S'119'
p272
sg37
S'61'
p273
sg39
S'29'
p274
sg41
S'HOU'
p275
sg43
S'53'
p276
sg45
S'10'
p277
sg47
S'129'
p278
sg49
S'100'
p279
sg51
S'301'
p280
sg53
S'47'
p281
sg55
S'1986-87'
p282
sg57
S'147'
p283
sg59
S'64'
p284
sg61
S'.429'
p285
sg63
S'1175'
p286
sg65
S'11'
p287
sba(isrc.gp1.models.Totals
Totals
p288
(dp289
g8
S'22'
p290
sg10
S'88'
p291
sg12
S'.437'
p292
sg14
S'405'
p293
sg16
S'.216'
p294
sg18
S'19'
p295
sg20
S'819'
p296
sg21
S'SG'
p297
sg23
S'.869'
p298
sg25
S'.451'
p299
sg27
S'NBA'
p300
sg29
S'124'
p301
sg31
S'666'
p302
sg33
S'162'
p303
sg35
S'251'
p304
sg37
S'148'
p305
sg39
S'30'
p306
sg41
S'HOU'
p307
sg43
S'80'
p308
sg45
g105
sg47
S'272'
p309
sg49
S'218'
p310
sg51
S'578'
p311
sg53
S'126'
p312
sg55
S'1987-88'
p313
sg57
S'291'
p314
sg59
S'130'
p315
sg61
S'.471'
p316
sg63
S'2150'
p317
sg65
S'54'
p318
sba(isrc.gp1.models.Totals
Totals
p319
(dp320
g8
S'13'
p321
sg10
S'41'
p322
sg12
S'.346'
p323
sg14
S'127'
p324
sg16
S'.122'
p325
sg18
S'5'
p326
sg20
S'179'
p327
sg21
S'SG'
p328
sg23
S'.733'
p329
sg25
S'.359'
p330
sg27
S'NBA'
p331
sg29
S'25'
p332
sg31
S'188'
p333
sg33
S'61'
p334
sg35
S'60'
p335
sg37
S'53'
p336
sg39
S'31'
p337
sg41
S'HOU'
p338
sg43
S'55'
p339
sg45
g326
sg47
S'60'
p340
sg49
S'44'
p341
sg51
S'147'
p342
sg53
S'40'
p343
sg55
S'1988-89'
p344
sg57
S'65'
p345
sg59
S'62'
p346
sg61
S'.408'
p347
sg63
S'627'
p348
sg65
g13
sbasS'_college'
p349
S'Oklahoma City University'
p350
sS'_toYear'
p351
S'1989'
p352
sS'_height'
p353
S'6-1'
p354
sS'_active'
p355
I00
sS'_shootingHand'
p356
VRight
p357
sS'_name'
p358
S'Allen Leavell'
p359
sS'_per100Possessions'
p360
(lp361
(isrc.gp1.models.Per100Possession
Per100Possession
p362
(dp363
g8
S'2.8'
p364
sg10
S'.158'
p365
sg12
S'0.1'
p366
sS'_offensiveRating'
p367
S'108'
p368
sg14
S'2.8'
p369
sg16
S'7.3'
p370
sg18
S'0.4'
p371
sg20
S'107'
p372
sg21
S'PG'
p373
sS'_defensiveRating'
p374
g3
sg23
S'1.3'
p375
sg27
S'NBA'
p376
sg29
S'0.6'
p377
sg31
S'.503'
p378
sg33
S'18.8'
p379
sg35
S'.814'
p380
sg37
S'9.3'
p381
sg39
S'22'
p382
sg41
S'HOU'
p383
sg43
S'77'
p384
sg45
S'4.6'
p385
sg47
S'14.2'
p386
sg49
S'4.9'
p387
sg51
S'.513'
p388
sg53
S'4.1'
p389
sg55
S'1979-80'
p390
sg57
S'14.7'
p391
sg59
S'4.4'
p392
sg61
S'4.0'
p393
sg63
S'7.4'
p394
sg65
S'2123'
p395
sba(isrc.gp1.models.Per100Possession
Per100Possession
p396
(dp397
g8
S'2.9'
p398
sg10
S'.118'
p399
sg12
S'0.1'
p400
sg367
S'107'
p401
sg14
S'2.7'
p402
sg16
S'7.2'
p403
sg18
S'0.5'
p404
sg20
S'99'
p405
sg21
S'PG'
p406
sg374
g3
sg23
S'0.8'
p407
sg27
S'NBA'
p408
sg29
S'0.4'
p409
sg31
S'.471'
p410
sg33
S'18.2'
p411
sg35
S'.832'
p412
sg37
S'10.9'
p413
sg39
S'23'
p414
sg41
S'HOU'
p415
sg43
S'79'
p416
sg45
S'5.4'
p417
sg47
S'15.0'
p418
sg49
S'4.2'
p419
sg51
S'.482'
p420
sg53
S'3.8'
p421
sg55
S'1980-81'
p422
sg57
S'15.5'
p423
sg59
S'4.5'
p424
sg61
S'3.5'
p425
sg63
S'7.3'
p426
sg65
S'1686'
p427
sba(isrc.gp1.models.Per100Possession
Per100Possession
p428
(dp429
g8
S'1.1'
p430
sg10
S'0.7'
p431
sg12
S'.467'
p432
sg367
S'109'
p433
sg14
S'10.5'
p434
sg16
S'.290'
p435
sg18
S'0.2'
p436
sg20
S'19.8'
p437
sg21
S'PG'
p438
sg374
S'107'
p439
sg23
S'.852'
p440
sg27
S'NBA'
p441
sg29
S'3.4'
p442
sg31
S'18.2'
p443
sg33
S'4.2'
p444
sg35
S'3.1'
p445
sg37
S'3.9'
p446
sg39
S'24'
p447
sg41
S'HOU'
p448
sg43
S'79'
p449
sg45
S'0.3'
p450
sg47
S'8.3'
p451
sg49
S'2.6'
p452
sg51
S'17.5'
p453
sg53
S'2.7'
p454
sg55
S'1981-82'
p455
sg57
S'8.5'
p456
sg59
S'3.5'
p457
sg61
S'.474'
p458
sg63
S'2150'
p459
sg65
S'61'
p460
sba(isrc.gp1.models.Per100Possession
Per100Possession
p461
(dp462
g8
S'1.2'
p463
sg10
S'3.2'
p464
sg12
S'.415'
p465
sg367
S'103'
p466
sg14
S'9.6'
p467
sg16
S'.240'
p468
sg18
S'0.8'
p469
sg20
S'21.1'
p470
sg21
S'PG'
p471
sg374
S'108'
p472
sg23
S'.832'
p473
sg27
S'NBA'
p474
sg29
S'3.0'
p475
sg31
S'19.1'
p476
sg33
S'3.9'
p477
sg35
S'5.4'
p478
sg37
S'3.5'
p479
sg39
S'25'
p480
sg41
S'HOU'
p481
sg43
S'79'
p482
sg45
S'0.3'
p483
sg47
S'7.2'
p484
sg49
S'4.5'
p485
sg51
S'16.0'
p486
sg53
S'2.4'
p487
sg55
S'1982-83'
p488
sg57
S'7.9'
p489
sg59
S'3.6'
p490
sg61
S'.449'
p491
sg63
S'2602'
p492
sg65
S'76'
p493
sba(isrc.gp1.models.Per100Possession
Per100Possession
p494
(dp495
g8
S'0.7'
p496
sg10
S'1.6'
p497
sg12
S'.477'
p498
sg367
S'110'
p499
sg14
S'10.5'
p500
sg16
S'.155'
p501
sg18
S'0.3'
p502
sg20
S'21.6'
p503
sg21
S'PG'
p504
sg374
S'110'
p505
sg23
S'.832'
p506
sg27
S'NBA'
p507
sg29
S'2.4'
p508
sg31
S'16.7'
p509
sg33
S'4.5'
p510
sg35
S'6.5'
p511
sg37
S'2.7'
p512
sg39
S'26'
p513
sg41
S'HOU'
p514
sg43
S'82'
p515
sg45
S'0.3'
p516
sg47
S'7.7'
p517
sg49
S'5.4'
p518
sg51
S'15.1'
p519
sg53
S'2.0'
p520
sg55
S'1983-84'
p521
sg57
S'8.0'
p522
sg59
S'4.2'
p523
sg61
S'.512'
p524
sg63
S'2009'
p525
sg65
S'27'
p526
sba(isrc.gp1.models.Per100Possession
Per100Possession
p527
(dp528
g8
S'0.7'
p529
sg10
S'3.2'
p530
sg12
S'.421'
p531
sg367
S'100'
p532
sg14
S'8.9'
p533
sg16
S'.216'
p534
sg18
S'0.7'
p535
sg20
S'20.0'
p536
sg21
S'PG'
p537
sg374
S'109'
p538
sg23
S'.772'
p539
sg27
S'NBA'
p540
sg29
S'2.0'
p541
sg31
S'18.3'
p542
sg33
S'5.3'
p543
sg35
S'5.0'
p544
sg37
S'3.2'
p545
sg39
S'27'
p546
sg41
S'HOU'
p547
sg43
S'42'
p548
sg45
S'0.4'
p549
sg47
S'7.0'
p550
sg49
S'3.9'
p551
sg51
S'15.1'
p552
sg53
S'2.5'
p553
sg55
S'1984-85'
p554
sg57
S'7.7'
p555
sg59
S'4.5'
p556
sg61
S'.465'
p557
sg63
S'536'
p558
sg65
g224
sba(isrc.gp1.models.Per100Possession
Per100Possession
p559
(dp560
g8
S'0.2'
p561
sg10
S'2.6'
p562
sg12
S'.463'
p563
sg367
S'113'
p564
sg14
S'9.1'
p565
sg16
S'.358'
p566
sg18
S'0.9'
p567
sg20
S'22.7'
p568
sg21
S'PG'
p569
sg374
S'110'
p570
sg23
S'.854'
p571
sg27
S'NBA'
p572
sg29
S'2.3'
p573
sg31
S'17.9'
p574
sg33
S'4.9'
p575
sg35
S'6.2'
p576
sg37
S'2.6'
p577
sg39
S'28'
p578
sg41
S'HOU'
p579
sg43
S'74'
p580
sg45
S'0.3'
p581
sg47
S'7.3'
p582
sg49
S'5.3'
p583
sg51
S'15.2'
p584
sg53
S'2.4'
p585
sg55
S'1985-86'
p586
sg57
S'8.3'
p587
sg59
S'3.4'
p588
sg61
S'.481'
p589
sg63
S'1190'
p590
sg65
S'12'
p591
sba(isrc.gp1.models.Per100Possession
Per100Possession
p592
(dp593
g8
S'0.6'
p594
sg10
S'2.3'
p595
sg12
S'.411'
p596
sg367
S'109'
p597
sg14
S'9.2'
p598
sg16
S'.316'
p599
sg18
S'0.7'
p600
sg20
S'16.9'
p601
sg21
S'PG'
p602
sg374
S'108'
p603
sg23
S'.840'
p604
sg27
S'NBA'
p605
sg29
S'2.2'
p606
sg31
S'14.6'
p607
sg33
S'5.2'
p608
sg35
S'4.9'
p609
sg37
S'2.5'
p610
sg39
S'29'
p611
sg41
S'HOU'
p612
sg43
S'53'
p613
sg45
S'0.4'
p614
sg47
S'5.3'
p615
sg49
S'4.1'
p616
sg51
S'12.3'
p617
sg53
S'1.9'
p618
sg55
S'1986-87'
p619
sg57
S'6.0'
p620
sg59
S'2.6'
p621
sg61
S'.429'
p622
sg63
S'1175'
p623
sg65
S'11'
p624
sba(isrc.gp1.models.Per100Possession
Per100Possession
p625
(dp626
g8
S'0.5'
p627
sg10
S'1.9'
p628
sg12
S'.437'
p629
sg367
S'111'
p630
sg14
S'8.9'
p631
sg16
S'.216'
p632
sg18
S'0.4'
p633
sg20
S'18.0'
p634
sg21
S'SG'
p635
sg374
S'107'
p636
sg23
S'.869'
p637
sg27
S'NBA'
p638
sg29
S'2.7'
p639
sg31
S'14.6'
p640
sg33
S'3.6'
p641
sg35
S'5.5'
p642
sg37
S'3.2'
p643
sg39
S'30'
p644
sg41
S'HOU'
p645
sg43
S'80'
p646
sg45
S'0.2'
p647
sg47
S'6.0'
p648
sg49
S'4.8'
p649
sg51
S'12.7'
p650
sg53
S'2.8'
p651
sg55
S'1987-88'
p652
sg57
S'6.4'
p653
sg59
S'2.9'
p654
sg61
S'.471'
p655
sg63
S'2150'
p656
sg65
S'54'
p657
sba(isrc.gp1.models.Per100Possession
Per100Possession
p658
(dp659
g8
S'1.0'
p660
sg10
S'3.1'
p661
sg12
S'.346'
p662
sg367
S'88'
p663
sg14
S'9.6'
p664
sg16
S'.122'
p665
sg18
S'0.4'
p666
sg20
S'13.5'
p667
sg21
S'SG'
p668
sg374
S'108'
p669
sg23
S'.733'
p670
sg27
S'NBA'
p671
sg29
S'1.9'
p672
sg31
S'14.1'
p673
sg33
S'4.6'
p674
sg35
S'4.5'
p675
sg37
S'4.0'
p676
sg39
S'31'
p677
sg41
S'HOU'
p678
sg43
S'55'
p679
sg45
S'0.4'
p680
sg47
S'4.5'
p681
sg49
S'3.3'
p682
sg51
S'11.1'
p683
sg53
S'3.0'
p684
sg55
S'1988-89'
p685
sg57
S'4.9'
p686
sg59
S'4.7'
p687
sg61
S'.408'
p688
sg63
S'627'
p689
sg65
g13
sbasS'_advanced'
p690
(lp691
(isrc.gp1.models.Advanced
Advanced
p692
(dp693
S'_offensiveReboundPercentage'
p694
S'2.9'
p695
sS'_turnOverPercentage'
p696
S'21.4'
p697
sS'_winSharesPer48Minutes'
p698
S'.091'
p699
sS'_stealPercentage'
p700
S'2.8'
p701
sS'_usagePercentage'
p702
S'17.8'
p703
sS'_totalReboundsPercentage'
p704
S'4.8'
p705
sS'_defensiveBoxPlusMinus'
p706
S'-0.5'
p707
sg21
S'PG'
p708
sS'_valueOverReplacementPlayer'
p709
S'1.1'
p710
sS'_trueShootingPercentage'
p711
S'.560'
p712
sS'_defensiveReboundPercentage'
p713
S'6.8'
p714
sS'_freeThrowsAttempRate'
p715
S'.337'
p716
sS'_threePointsAttempRate'
p717
S'.029'
p718
sg27
S'NBA'
p719
sS'_offensiveBoxPlusMinues'
p720
S'0.6'
p721
sS'_assistPercentage'
p722
S'26.3'
p723
sS'_defensiveWinShares'
p724
S'1.4'
p725
sg39
S'22'
p726
sg41
S'HOU'
p727
sg43
S'77'
p728
sS'_blockPercentage'
p729
S'0.7'
p730
sS'_playerEfficiencyRating'
p731
S'15.1'
p732
sS'_offensiveWinShares'
p733
S'2.6'
p734
sg63
S'2123'
p735
sS'_boxPlusMinus'
p736
S'0.1'
p737
sg55
S'1979-80'
p738
sS'_winShares'
p739
S'4.0'
p740
sba(isrc.gp1.models.Advanced
Advanced
p741
(dp742
g694
S'2.0'
p743
sg696
S'23.5'
p744
sg698
S'.055'
p745
sg700
S'2.7'
p746
sg702
S'19.3'
p747
sg704
S'4.4'
p748
sg706
S'-1.1'
p749
sg21
S'PG'
p750
sg709
S'-0.1'
p751
sg711
S'.523'
p752
sg713
S'6.9'
p753
sg715
S'.272'
p754
sg717
S'.031'
p755
sg27
S'NBA'
p756
sg720
S'-1.1'
p757
sg722
S'30.4'
p758
sg724
S'1.4'
p759
sg39
S'23'
p760
sg41
S'HOU'
p761
sg43
S'79'
p762
sg729
S'0.5'
p763
sg731
S'13.9'
p764
sg733
S'0.5'
p765
sg63
S'1686'
p766
sg736
S'-2.2'
p767
sg55
S'1980-81'
p768
sg739
S'1.9'
p769
sba(isrc.gp1.models.Advanced
Advanced
p770
(dp771
g694
S'2.4'
p772
sg696
S'15.2'
p773
sg698
S'.107'
p774
sg700
S'3.4'
p775
sg702
S'19.1'
p776
sg704
S'4.3'
p777
sg706
S'-0.3'
p778
sg21
S'PG'
p779
sg709
S'1.4'
p780
sg711
S'.507'
p781
sg713
S'6.3'
p782
sg715
S'.170'
p783
sg717
S'.039'
p784
sg27
S'NBA'
p785
sg720
S'0.9'
p786
sg722
S'29.8'
p787
sg724
S'2.1'
p788
sg39
S'24'
p789
sg41
S'HOU'
p790
sg43
S'79'
p791
sg729
S'0.4'
p792
sg731
S'16.4'
p793
sg733
S'2.7'
p794
sg63
S'2150'
p795
sg736
S'0.6'
p796
sg55
S'1981-82'
p797
sg739
S'4.8'
p798
sba(isrc.gp1.models.Advanced
Advanced
p799
(dp800
g694
S'2.5'
p801
sg696
S'14.3'
p802
sg698
S'.071'
p803
sg700
S'3.0'
p804
sg702
S'21.3'
p805
sg704
S'4.0'
p806
sg706
S'-1.4'
p807
sg21
S'PG'
p808
sg709
S'1.4'
p809
sg711
S'.490'
p810
sg713
S'5.7'
p811
sg715
S'.280'
p812
sg717
S'.165'
p813
sg27
S'NBA'
p814
sg720
S'1.5'
p815
sg722
S'30.1'
p816
sg724
S'1.5'
p817
sg39
S'25'
p818
sg41
S'HOU'
p819
sg43
S'79'
p820
sg729
S'0.3'
p821
sg731
S'15.8'
p822
sg733
S'2.3'
p823
sg63
S'2602'
p824
sg736
S'0.1'
p825
sg55
S'1982-83'
p826
sg739
S'3.8'
p827
sba(isrc.gp1.models.Advanced
Advanced
p828
(dp829
g694
S'1.7'
p830
sg696
S'17.7'
p831
sg698
S'.104'
p832
sg700
S'2.4'
p833
sg702
S'20.4'
p834
sg704
S'3.1'
p835
sg706
S'-2.2'
p836
sg21
S'PG'
p837
sg709
S'0.2'
p838
sg711
S'.553'
p839
sg713
S'4.6'
p840
sg715
S'.391'
p841
sg717
S'.097'
p842
sg27
S'NBA'
p843
sg720
S'0.6'
p844
sg722
S'29.7'
p845
sg724
S'1.6'
p846
sg39
S'26'
p847
sg41
S'HOU'
p848
sg43
S'82'
p849
sg729
S'0.3'
p850
sg731
S'15.9'
p851
sg733
S'2.8'
p852
sg63
S'2009'
p853
sg736
S'-1.6'
p854
sg55
S'1983-84'
p855
sg739
S'4.3'
p856
sba(isrc.gp1.models.Advanced
Advanced
p857
(dp858
g694
S'1.7'
p859
sg696
S'17.9'
p860
sg698
S'.051'
p861
sg700
S'2.0'
p862
sg702
S'21.0'
p863
sg704
S'3.9'
p864
sg706
S'-2.3'
p865
sg21
S'PG'
p866
sg709
S'-0.3'
p867
sg711
S'.487'
p868
sg713
S'6.0'
p869
sg715
S'.273'
p870
sg717
S'.177'
p871
sg27
S'NBA'
p872
sg720
S'-2.0'
p873
sg722
S'24.4'
p874
sg724
S'0.5'
p875
sg39
S'27'
p876
sg41
S'HOU'
p877
sg43
S'42'
p878
sg729
S'0.4'
p879
sg731
S'11.4'
p880
sg733
S'0.1'
p881
sg63
S'536'
p882
sg736
S'-4.3'
p883
sg55
S'1984-85'
p884
sg739
S'0.6'
p885
sba(isrc.gp1.models.Advanced
Advanced
p886
(dp887
g694
S'0.5'
p888
sg696
S'14.3'
p889
sg698
S'.122'
p890
sg700
S'2.3'
p891
sg702
S'20.2'
p892
sg704
S'3.0'
p893
sg706
S'-2.9'
p894
sg21
S'PG'
p895
sg709
S'-0.2'
p896
sg711
S'.553'
p897
sg713
S'5.6'
p898
sg715
S'.345'
p899
sg717
S'.146'
p900
sg27
S'NBA'
p901
sg720
S'0.3'
p902
sg722
S'25.4'
p903
sg724
S'0.9'
p904
sg39
S'28'
p905
sg41
S'HOU'
p906
sg43
S'74'
p907
sg729
S'0.4'
p908
sg731
S'15.6'
p909
sg733
S'2.1'
p910
sg63
S'1190'
p911
sg736
S'-2.6'
p912
sg55
S'1985-86'
p913
sg739
S'3.0'
p914
sba(isrc.gp1.models.Advanced
Advanced
p915
(dp916
g694
S'1.3'
p917
sg696
S'13.5'
p918
sg698
S'.097'
p919
sg700
S'2.2'
p920
sg702
S'16.5'
p921
sg704
S'2.9'
p922
sg706
S'-1.6'
p923
sg21
S'PG'
p924
sg709
S'-0.3'
p925
sg711
S'.502'
p926
sg713
S'4.3'
p927
sg715
S'.332'
p928
sg717
S'.159'
p929
sg27
S'NBA'
p930
sg720
S'-1.3'
p931
sg722
S'25.4'
p932
sg724
S'1.2'
p933
sg39
S'29'
p934
sg41
S'HOU'
p935
sg43
S'53'
p936
sg729
S'0.5'
p937
sg731
S'12.0'
p938
sg733
S'1.1'
p939
sg63
S'1175'
p940
sg736
S'-2.9'
p941
sg55
S'1986-87'
p942
sg739
S'2.4'
p943
sba(isrc.gp1.models.Advanced
Advanced
p944
(dp945
g694
S'1.1'
p946
sg696
S'14.3'
p947
sg698
S'.115'
p948
sg700
S'2.7'
p949
sg702
S'16.9'
p950
sg704
S'3.6'
p951
sg706
S'-0.5'
p952
sg21
S'SG'
p953
sg709
S'0.9'
p954
sg711
S'.527'
p955
sg713
S'6.1'
p956
sg715
S'.377'
p957
sg717
S'.132'
p958
sg27
S'NBA'
p959
sg720
S'0.1'
p960
sg722
S'25.3'
p961
sg724
S'2.5'
p962
sg39
S'30'
p963
sg41
S'HOU'
p964
sg43
S'80'
p965
sg729
S'0.2'
p966
sg731
S'14.3'
p967
sg733
S'2.6'
p968
sg63
S'2150'
p969
sg736
S'-0.4'
p970
sg55
S'1987-88'
p971
sg739
S'5.1'
p972
sba(isrc.gp1.models.Advanced
Advanced
p973
(dp974
g694
S'2.3'
p975
sg696
S'22.4'
p976
sg698
S'-0.009'
p977
sg700
S'1.9'
p978
sg702
S'17.7'
p979
sg704
S'4.6'
p980
sg706
S'-1.6'
p981
sg21
S'SG'
p982
sg709
S'-0.6'
p983
sg711
S'.417'
p984
sg713
S'6.8'
p985
sg715
S'.319'
p986
sg717
S'.218'
p987
sg27
S'NBA'
p988
sg720
S'-4.4'
p989
sg722
S'26.8'
p990
sg724
S'0.7'
p991
sg39
S'31'
p992
sg41
S'HOU'
p993
sg43
S'55'
p994
sg729
S'0.5'
p995
sg731
S'7.7'
p996
sg733
S'-0.8'
p997
sg63
S'627'
p998
sg736
S'-6.0'
p999
sg55
S'1988-89'
p1000
sg739
S'-0.1'
p1001
sbasS'_per36Minutes'
p1002
(lp1003
(isrc.gp1.models.Per36Minutes
Per36Minutes
p1004
(dp1005
g8
S'2.2'
p1006
sg10
S'.158'
p1007
sg12
S'0.1'
p1008
sg14
S'2.2'
p1009
sg16
S'5.5'
p1010
sg18
S'0.3'
p1011
sg20
g3
sg21
S'PG'
p1012
sg23
S'1.0'
p1013
sg27
S'NBA'
p1014
sg29
S'0.5'
p1015
sg31
S'.503'
p1016
sg33
S'14.3'
p1017
sg35
S'.814'
p1018
sg37
S'7.1'
p1019
sg39
S'22'
p1020
sg41
S'HOU'
p1021
sg43
S'77'
p1022
sg45
S'3.5'
p1023
sg47
S'10.8'
p1024
sg49
S'3.7'
p1025
sg51
S'.513'
p1026
sg53
S'3.1'
p1027
sg55
S'1979-80'
p1028
sg57
S'11.1'
p1029
sg59
S'3.3'
p1030
sg61
S'3.1'
p1031
sg63
S'5.6'
p1032
sg65
S'2123'
p1033
sba(isrc.gp1.models.Per36Minutes
Per36Minutes
p1034
(dp1035
g8
S'2.2'
p1036
sg10
S'.118'
p1037
sg12
S'0.0'
p1038
sg14
S'2.1'
p1039
sg16
S'5.5'
p1040
sg18
S'0.4'
p1041
sg20
g3
sg21
S'PG'
p1042
sg23
S'0.6'
p1043
sg27
S'NBA'
p1044
sg29
S'0.3'
p1045
sg31
S'.471'
p1046
sg33
S'13.7'
p1047
sg35
S'.832'
p1048
sg37
S'8.2'
p1049
sg39
S'23'
p1050
sg41
S'HOU'
p1051
sg43
S'79'
p1052
sg45
S'4.0'
p1053
sg47
S'11.3'
p1054
sg49
S'3.2'
p1055
sg51
S'.482'
p1056
sg53
S'2.9'
p1057
sg55
S'1980-81'
p1058
sg57
S'11.7'
p1059
sg59
S'3.4'
p1060
sg61
S'2.6'
p1061
sg63
S'5.5'
p1062
sg65
S'1686'
p1063
sba(isrc.gp1.models.Per36Minutes
Per36Minutes
p1064
(dp1065
g8
S'0.8'
p1066
sg10
S'0.5'
p1067
sg12
S'.467'
p1068
sg14
S'7.7'
p1069
sg16
S'.290'
p1070
sg18
S'0.2'
p1071
sg20
S'14.5'
p1072
sg21
S'PG'
p1073
sg23
S'.852'
p1074
sg27
S'NBA'
p1075
sg29
S'2.5'
p1076
sg31
S'13.3'
p1077
sg33
S'3.0'
p1078
sg35
S'2.3'
p1079
sg37
S'2.8'
p1080
sg39
S'24'
p1081
sg41
S'HOU'
p1082
sg43
S'79'
p1083
sg45
S'0.3'
p1084
sg47
S'6.0'
p1085
sg49
S'1.9'
p1086
sg51
S'12.8'
p1087
sg53
S'2.0'
p1088
sg55
S'1981-82'
p1089
sg57
S'6.2'
p1090
sg59
S'2.6'
p1091
sg61
S'.474'
p1092
sg63
S'2150'
p1093
sg65
S'61'
p1094
sba(isrc.gp1.models.Per36Minutes
Per36Minutes
p1095
(dp1096
g8
S'0.9'
p1097
sg10
S'2.4'
p1098
sg12
S'.415'
p1099
sg14
S'7.3'
p1100
sg16
S'.240'
p1101
sg18
S'0.6'
p1102
sg20
S'16.1'
p1103
sg21
S'PG'
p1104
sg23
S'.832'
p1105
sg27
S'NBA'
p1106
sg29
S'2.3'
p1107
sg31
S'14.7'
p1108
sg33
S'3.0'
p1109
sg35
S'4.1'
p1110
sg37
S'2.7'
p1111
sg39
S'25'
p1112
sg41
S'HOU'
p1113
sg43
S'79'
p1114
sg45
S'0.2'
p1115
sg47
S'5.5'
p1116
sg49
S'3.4'
p1117
sg51
S'12.2'
p1118
sg53
S'1.8'
p1119
sg55
S'1982-83'
p1120
sg57
S'6.1'
p1121
sg59
S'2.7'
p1122
sg61
S'.449'
p1123
sg63
S'2602'
p1124
sg65
S'76'
p1125
sba(isrc.gp1.models.Per36Minutes
Per36Minutes
p1126
(dp1127
g8
S'0.6'
p1128
sg10
S'1.3'
p1129
sg12
S'.477'
p1130
sg14
S'8.2'
p1131
sg16
S'.155'
p1132
sg18
S'0.2'
p1133
sg20
S'17.0'
p1134
sg21
S'PG'
p1135
sg23
S'.832'
p1136
sg27
S'NBA'
p1137
sg29
S'1.9'
p1138
sg31
S'13.1'
p1139
sg33
S'3.6'
p1140
sg35
S'5.1'
p1141
sg37
S'2.1'
p1142
sg39
S'26'
p1143
sg41
S'HOU'
p1144
sg43
S'82'
p1145
sg45
S'0.2'
p1146
sg47
S'6.1'
p1147
sg49
S'4.3'
p1148
sg51
S'11.8'
p1149
sg53
S'1.5'
p1150
sg55
S'1983-84'
p1151
sg57
S'6.3'
p1152
sg59
S'3.3'
p1153
sg61
S'.512'
p1154
sg63
S'2009'
p1155
sg65
S'27'
p1156
sba(isrc.gp1.models.Per36Minutes
Per36Minutes
p1157
(dp1158
g8
S'0.5'
p1159
sg10
S'2.5'
p1160
sg12
S'.421'
p1161
sg14
S'6.9'
p1162
sg16
S'.216'
p1163
sg18
S'0.5'
p1164
sg20
S'15.3'
p1165
sg21
S'PG'
p1166
sg23
S'.772'
p1167
sg27
S'NBA'
p1168
sg29
S'1.5'
p1169
sg31
S'14.0'
p1170
sg33
S'4.1'
p1171
sg35
S'3.8'
p1172
sg37
S'2.5'
p1173
sg39
S'27'
p1174
sg41
S'HOU'
p1175
sg43
S'42'
p1176
sg45
S'0.3'
p1177
sg47
S'5.4'
p1178
sg49
S'3.0'
p1179
sg51
S'11.6'
p1180
sg53
S'1.9'
p1181
sg55
S'1984-85'
p1182
sg57
S'5.9'
p1183
sg59
S'3.4'
p1184
sg61
S'.465'
p1185
sg63
S'536'
p1186
sg65
g224
sba(isrc.gp1.models.Per36Minutes
Per36Minutes
p1187
(dp1188
g8
S'0.2'
p1189
sg10
S'2.0'
p1190
sg12
S'.463'
p1191
sg14
S'7.1'
p1192
sg16
S'.358'
p1193
sg18
S'0.7'
p1194
sg20
S'17.6'
p1195
sg21
S'PG'
p1196
sg23
S'.854'
p1197
sg27
S'NBA'
p1198
sg29
S'1.8'
p1199
sg31
S'13.9'
p1200
sg33
S'3.8'
p1201
sg35
S'4.8'
p1202
sg37
S'2.0'
p1203
sg39
S'28'
p1204
sg41
S'HOU'
p1205
sg43
S'74'
p1206
sg45
S'0.2'
p1207
sg47
S'5.7'
p1208
sg49
S'4.1'
p1209
sg51
S'11.8'
p1210
sg53
S'1.8'
p1211
sg55
S'1985-86'
p1212
sg57
S'6.4'
p1213
sg59
S'2.7'
p1214
sg61
S'.481'
p1215
sg63
S'1190'
p1216
sg65
S'12'
p1217
sba(isrc.gp1.models.Per36Minutes
Per36Minutes
p1218
(dp1219
g8
S'0.4'
p1220
sg10
S'1.7'
p1221
sg12
S'.411'
p1222
sg14
S'6.9'
p1223
sg16
S'.316'
p1224
sg18
S'0.6'
p1225
sg20
S'12.6'
p1226
sg21
S'PG'
p1227
sg23
S'.840'
p1228
sg27
S'NBA'
p1229
sg29
S'1.6'
p1230
sg31
S'11.0'
p1231
sg33
S'3.9'
p1232
sg35
S'3.6'
p1233
sg37
S'1.9'
p1234
sg39
S'29'
p1235
sg41
S'HOU'
p1236
sg43
S'53'
p1237
sg45
S'0.3'
p1238
sg47
S'4.0'
p1239
sg49
S'3.1'
p1240
sg51
S'9.2'
p1241
sg53
S'1.4'
p1242
sg55
S'1986-87'
p1243
sg57
S'4.5'
p1244
sg59
S'2.0'
p1245
sg61
S'.429'
p1246
sg63
S'1175'
p1247
sg65
S'11'
p1248
sba(isrc.gp1.models.Per36Minutes
Per36Minutes
p1249
(dp1250
g8
S'0.4'
p1251
sg10
S'1.5'
p1252
sg12
S'.437'
p1253
sg14
S'6.8'
p1254
sg16
S'.216'
p1255
sg18
S'0.3'
p1256
sg20
S'13.7'
p1257
sg21
S'SG'
p1258
sg23
S'.869'
p1259
sg27
S'NBA'
p1260
sg29
S'2.1'
p1261
sg31
S'11.2'
p1262
sg33
S'2.7'
p1263
sg35
S'4.2'
p1264
sg37
S'2.5'
p1265
sg39
S'30'
p1266
sg41
S'HOU'
p1267
sg43
S'80'
p1268
sg45
S'0.2'
p1269
sg47
S'4.6'
p1270
sg49
S'3.7'
p1271
sg51
S'9.7'
p1272
sg53
S'2.1'
p1273
sg55
S'1987-88'
p1274
sg57
S'4.9'
p1275
sg59
S'2.2'
p1276
sg61
S'.471'
p1277
sg63
S'2150'
p1278
sg65
S'54'
p1279
sba(isrc.gp1.models.Per36Minutes
Per36Minutes
p1280
(dp1281
g8
S'0.7'
p1282
sg10
S'2.4'
p1283
sg12
S'.346'
p1284
sg14
S'7.3'
p1285
sg16
S'.122'
p1286
sg18
S'0.3'
p1287
sg20
S'10.3'
p1288
sg21
S'SG'
p1289
sg23
S'.733'
p1290
sg27
S'NBA'
p1291
sg29
S'1.4'
p1292
sg31
S'10.8'
p1293
sg33
S'3.5'
p1294
sg35
S'3.4'
p1295
sg37
S'3.0'
p1296
sg39
S'31'
p1297
sg41
S'HOU'
p1298
sg43
S'55'
p1299
sg45
S'0.3'
p1300
sg47
S'3.4'
p1301
sg49
S'2.5'
p1302
sg51
S'8.4'
p1303
sg53
S'2.3'
p1304
sg55
S'1988-89'
p1305
sg57
S'3.7'
p1306
sg59
S'3.6'
p1307
sg61
S'.408'
p1308
sg63
S'627'
p1309
sg65
g13
sbasS'_fromYear'
p1310
S'1980'
p1311
sS'_url'
p1312
S'http://www.basketball-reference.com/players/l/leaveal01.html'
p1313
sS'_perGame'
p1314
(isrc.gp1.models.PerGame
PerGame
p1315
(dp1316
g8
S'0.2'
p1317
sg10
S'0.7'
p1318
sg12
S'.346'
p1319
sS'_effectiveFieldGalPercentage'
p1320
S'.359'
p1321
sg14
S'2.3'
p1322
sg16
S'.122'
p1323
sg18
S'0.1'
p1324
sg20
S'3.3'
p1325
sg21
S'SG'
p1326
sg23
S'.733'
p1327
sg27
S'NBA'
p1328
sg29
S'0.5'
p1329
sg33
S'1.1'
p1330
sS'_fieldGoalsttempted'
p1331
S'3.4'
p1332
sg35
S'1.1'
p1333
sg37
S'1.0'
p1334
sg39
S'31'
p1335
sg41
S'HOU'
p1336
sg43
S'55'
p1337
sg45
S'0.1'
p1338
sg47
S'1.1'
p1339
sg49
S'0.8'
p1340
sg51
S'2.7'
p1341
sg53
S'0.7'
p1342
sg55
S'1988-89'
p1343
sg57
S'1.2'
p1344
sg59
S'1.1'
p1345
sg61
S'.408'
p1346
sg63
S'11.4'
p1347
sg65
g13
sbsS'_weight'
p1348
S'170'
p1349
sS'_dob'
p1350
S'27-5-1957'
p1351
sS'_salary'
p1352
(lp1353
(isrc.gp1.models.Salary
Salary
p1354
(dp1355
g41
S'Houston Rockets'
p1356
sg27
S'NBA'
p1357
sg1352
S'$200,000'
p1358
sg55
S'1985-86'
p1359
sba(isrc.gp1.models.Salary
Salary
p1360
(dp1361
g41
S'Houston Rockets'
p1362
sg27
S'NBA'
p1363
sg1352
S'$250,000'
p1364
sg55
S'1987-88'
p1365
sba(isrc.gp1.models.Salary
Salary
p1366
(dp1367
g41
S'Houston Rockets'
p1368
sg27
S'NBA'
p1369
sg1352
S'$300,000'
p1370
sg55
S'1988-89'
p1371
sbasg21
S'G'
p1372
sb.