(isrc.gp1.models.Player
Player
p0
(dp1
S'_experience'
p2
S'NA'
p3
sS'_totals'
p4
(lp5
(isrc.gp1.models.Totals
Totals
p6
(dp7
S'_offensiveRebounds'
p8
g3
sS'_threePointsAttempted'
p9
g3
sS'_fieldGoalsPercentage'
p10
S'.442'
p11
sS'_assist'
p12
S'111'
p13
sS'_threePointsPercentage'
p14
g3
sS'_threePoints'
p15
g3
sS'_points'
p16
S'1060'
p17
sS'_position'
p18
S'PF'
p19
sS'_freeThrowsPercentage'
p20
S'.707'
p21
sS'_effectiveFieldGoalPercentage'
p22
S'.442'
p23
sS'_league'
p24
S'NBA'
p25
sS'_steals'
p26
g3
sS'_fieldGoalsAttempted'
p27
S'989'
p28
sS'_personalFouls'
p29
S'262'
p30
sS'_freeThrowsAttempted'
p31
S'263'
p32
sS'_totalRebounds'
p33
S'605'
p34
sS'_age'
p35
S'24'
p36
sS'_team'
p37
S'SEA'
p38
sS'_games'
p39
S'81'
p40
sS'_blocks'
p41
g3
sS'_twoPoints'
p42
S'437'
p43
sS'_freeThrows'
p44
S'186'
p45
sS'_twoPointsAttempted'
p46
S'989'
p47
sS'_defensiveRebounds'
p48
g3
sS'_season'
p49
S'1967-68'
p50
sS'_fieldGoals'
p51
S'437'
p52
sS'_turnOvers'
p53
g3
sS'_twoPointsPercentage'
p54
S'.442'
p55
sS'_minutesPlayed'
p56
S'2368'
p57
sS'_gamesStarted'
p58
g3
sba(isrc.gp1.models.Totals
Totals
p59
(dp60
g8
g3
sg9
g3
sg10
S'.446'
p61
sg12
S'74'
p62
sg14
g3
sg15
g3
sg16
S'880'
p63
sg18
S'PF'
p64
sg20
S'.648'
p65
sg22
S'.446'
p66
sg24
S'NBA'
p67
sg26
g3
sg27
S'809'
p68
sg29
S'186'
p69
sg31
S'244'
p70
sg33
S'439'
p71
sg35
S'25'
p72
sg37
S'TOT'
p73
sg39
S'84'
p74
sg41
g3
sg42
S'361'
p75
sg44
S'158'
p76
sg46
S'809'
p77
sg48
g3
sg49
S'1968-69'
p78
sg51
S'361'
p79
sg53
g3
sg54
S'.446'
p80
sg56
S'1885'
p81
sg58
g3
sba(isrc.gp1.models.Totals
Totals
p82
(dp83
g8
g3
sg9
g3
sg10
S'.432'
p84
sg12
S'55'
p85
sg14
g3
sg15
g3
sg16
S'579'
p86
sg18
S'PF'
p87
sg20
S'.637'
p88
sg22
S'.432'
p89
sg24
S'NBA'
p90
sg26
g3
sg27
S'544'
p91
sg29
S'111'
p92
sg31
S'171'
p93
sg33
S'317'
p94
sg35
S'25'
p95
sg37
S'SEA'
p96
sg39
S'56'
p97
sg41
g3
sg42
S'235'
p98
sg44
S'109'
p99
sg46
S'544'
p100
sg48
g3
sg49
S'1968-69'
p101
sg51
S'235'
p102
sg53
g3
sg54
S'.432'
p103
sg56
S'1259'
p104
sg58
g3
sba(isrc.gp1.models.Totals
Totals
p105
(dp106
g8
g3
sg9
g3
sg10
S'.475'
p107
sg12
S'19'
p108
sg14
g3
sg15
g3
sg16
S'301'
p109
sg18
S'PF'
p110
sg20
S'.671'
p111
sg22
S'.475'
p112
sg24
S'NBA'
p113
sg26
g3
sg27
S'265'
p114
sg29
S'75'
p115
sg31
S'73'
p116
sg33
S'122'
p117
sg35
S'25'
p118
sg37
S'CIN'
p119
sg39
S'28'
p120
sg41
g3
sg42
S'126'
p121
sg44
S'49'
p122
sg46
S'265'
p123
sg48
g3
sg49
S'1968-69'
p124
sg51
S'126'
p125
sg53
g3
sg54
S'.475'
p126
sg56
S'626'
p127
sg58
g3
sba(isrc.gp1.models.Totals
Totals
p128
(dp129
g8
g3
sg9
g3
sg10
S'.512'
p130
sg12
S'38'
p131
sg14
g3
sg15
g3
sg16
S'362'
p132
sg18
S'PF'
p133
sg20
S'.805'
p134
sg22
S'.512'
p135
sg24
S'NBA'
p136
sg26
g3
sg27
S'285'
p137
sg29
S'86'
p138
sg31
S'87'
p139
sg33
S'166'
p140
sg35
S'26'
p141
sg37
S'TOT'
p142
sg39
S'61'
p143
sg41
g3
sg42
S'146'
p144
sg44
S'70'
p145
sg46
S'285'
p146
sg48
g3
sg49
S'1969-70'
p147
sg51
S'146'
p148
sg53
g3
sg54
S'.512'
p149
sg56
S'819'
p150
sg58
g3
sba(isrc.gp1.models.Totals
Totals
p151
(dp152
g8
g3
sg9
g3
sg10
S'.513'
p153
sg12
S'31'
p154
sg14
g3
sg15
g3
sg16
S'231'
p155
sg18
S'PF'
p156
sg20
S'.822'
p157
sg22
S'.513'
p158
sg24
S'NBA'
p159
sg26
g3
sg27
S'189'
p160
sg29
S'52'
p161
sg31
S'45'
p162
sg33
S'113'
p163
sg35
S'26'
p164
sg37
S'CHI'
p165
sg39
S'33'
p166
sg41
g3
sg42
S'97'
p167
sg44
S'37'
p168
sg46
S'189'
p169
sg48
g3
sg49
S'1969-70'
p170
sg51
S'97'
p171
sg53
g3
sg54
S'.513'
p172
sg56
S'557'
p173
sg58
g3
sba(isrc.gp1.models.Totals
Totals
p174
(dp175
g8
g3
sg9
g3
sg10
S'.510'
p176
sg12
S'7'
p177
sg14
g3
sg15
g3
sg16
S'131'
p178
sg18
S'PF'
p179
sg20
S'.786'
p180
sg22
S'.510'
p181
sg24
S'NBA'
p182
sg26
g3
sg27
S'96'
p183
sg29
S'34'
p184
sg31
S'42'
p185
sg33
S'53'
p186
sg35
S'26'
p187
sg37
S'BAL'
p188
sg39
S'28'
p189
sg41
g3
sg42
S'49'
p190
sg44
S'33'
p191
sg46
S'96'
p192
sg48
g3
sg49
S'1969-70'
p193
sg51
S'49'
p194
sg53
g3
sg54
S'.510'
p195
sg56
S'262'
p196
sg58
g3
sba(isrc.gp1.models.Totals
Totals
p197
(dp198
g8
S'19'
p199
sg9
g177
sg10
S'.447'
p200
sg12
S'19'
p201
sg14
S'.429'
p202
sg15
S'3'
p203
sg16
S'298'
p204
sg18
S'PF'
p205
sg20
S'.808'
p206
sg22
S'.453'
p207
sg24
S'TOT'
p208
sg26
g3
sg27
S'264'
p209
sg29
S'73'
p210
sg31
S'73'
p211
sg33
S'138'
p212
sg35
S'27'
p213
sg37
S'TOT'
p214
sg39
S'45'
p215
sg41
g3
sg42
S'115'
p216
sg44
S'59'
p217
sg46
S'257'
p218
sg48
S'119'
p219
sg49
S'1970-71'
p220
sg51
S'118'
p221
sg53
S'25'
p222
sg54
S'.447'
p223
sg56
S'607'
p224
sg58
g3
sba(isrc.gp1.models.Totals
Totals
p225
(dp226
g8
g3
sg9
g3
sg10
S'.452'
p227
sg12
g177
sg14
g3
sg15
g3
sg16
S'129'
p228
sg18
S'PF'
p229
sg20
S'.806'
p230
sg22
S'.452'
p231
sg24
S'NBA'
p232
sg26
g3
sg27
S'115'
p233
sg29
S'33'
p234
sg31
S'31'
p235
sg33
S'73'
p236
sg35
S'27'
p237
sg37
S'BAL'
p238
sg39
S'31'
p239
sg41
g3
sg42
S'52'
p240
sg44
S'25'
p241
sg46
S'115'
p242
sg48
g3
sg49
S'1970-71'
p243
sg51
S'52'
p244
sg53
g3
sg54
S'.452'
p245
sg56
S'276'
p246
sg58
g3
sba(isrc.gp1.models.Totals
Totals
p247
(dp248
g8
S'19'
p249
sg9
g177
sg10
S'.443'
p250
sg12
S'12'
p251
sg14
S'.429'
p252
sg15
g203
sg16
S'169'
p253
sg18
S'PF'
p254
sg20
S'.810'
p255
sg22
S'.453'
p256
sg24
S'ABA'
p257
sg26
g3
sg27
S'149'
p258
sg29
S'40'
p259
sg31
S'42'
p260
sg33
S'65'
p261
sg35
S'27'
p262
sg37
S'FLO'
p263
sg39
S'14'
p264
sg41
g3
sg42
S'63'
p265
sg44
S'34'
p266
sg46
S'142'
p267
sg48
S'46'
p268
sg49
S'1970-71'
p269
sg51
S'66'
p270
sg53
S'25'
p271
sg54
S'.444'
p272
sg56
S'331'
p273
sg58
g3
sba(isrc.gp1.models.Totals
Totals
p274
(dp275
g8
S'91'
p276
sg9
S'82'
p277
sg10
S'.465'
p278
sg12
S'100'
p279
sg14
S'.366'
p280
sg15
S'30'
p281
sg16
S'941'
p282
sg18
S'PF'
p283
sg20
S'.789'
p284
sg22
S'.484'
p285
sg24
S'ABA'
p286
sg26
g3
sg27
S'810'
p287
sg29
S'205'
p288
sg31
S'199'
p289
sg33
S'392'
p290
sg35
S'28'
p291
sg37
S'FLO'
p292
sg39
S'81'
p293
sg41
g3
sg42
S'347'
p294
sg44
S'157'
p295
sg46
S'728'
p296
sg48
S'301'
p297
sg49
S'1971-72'
p298
sg51
S'377'
p299
sg53
S'129'
p300
sg54
S'.477'
p301
sg56
S'1799'
p302
sg58
g3
sbasS'_college'
p303
S'Oklahoma Baptist University'
p304
sS'_toYear'
p305
S'1972'
p306
sS'_height'
p307
S'6-8'
p308
sS'_active'
p309
I00
sS'_shootingHand'
p310
VRight
p311
sS'_name'
p312
S'Al Tucker'
p313
sS'_per100Possessions'
p314
(lp315
sS'_advanced'
p316
(lp317
(isrc.gp1.models.Advanced
Advanced
p318
(dp319
S'_offensiveReboundPercentage'
p320
g3
sS'_turnOverPercentage'
p321
g3
sS'_winSharesPer48Minutes'
p322
S'.046'
p323
sS'_stealPercentage'
p324
g3
sS'_usagePercentage'
p325
g3
sS'_totalReboundsPercentage'
p326
g3
sS'_defensiveBoxPlusMinus'
p327
g3
sg18
S'PF'
p328
sS'_valueOverReplacementPlayer'
p329
g3
sS'_trueShootingPercentage'
p330
S'.480'
p331
sS'_defensiveReboundPercentage'
p332
g3
sS'_freeThrowsAttempRate'
p333
S'.266'
p334
sS'_threePointsAttempRate'
p335
g3
sg24
S'NBA'
p336
sS'_offensiveBoxPlusMinues'
p337
g3
sS'_assistPercentage'
p338
S'6.1'
p339
sS'_defensiveWinShares'
p340
S'1.2'
p341
sg35
S'24'
p342
sg37
S'SEA'
p343
sg39
S'81'
p344
sS'_blockPercentage'
p345
g3
sS'_playerEfficiencyRating'
p346
S'12.0'
p347
sS'_offensiveWinShares'
p348
S'1.1'
p349
sg56
S'2368'
p350
sS'_boxPlusMinus'
p351
g3
sg49
S'1967-68'
p352
sS'_winShares'
p353
S'2.3'
p354
sba(isrc.gp1.models.Advanced
Advanced
p355
(dp356
g320
g3
sg321
g3
sg322
S'.052'
p357
sg324
g3
sg325
g3
sg326
g3
sg327
g3
sg18
S'PF'
p358
sg329
g3
sg330
S'.480'
p359
sg332
g3
sg333
S'.302'
p360
sg335
g3
sg24
S'NBA'
p361
sg337
g3
sg338
S'5.6'
p362
sg340
S'0.8'
p363
sg35
S'25'
p364
sg37
S'TOT'
p365
sg39
S'84'
p366
sg345
g3
sg346
S'12.7'
p367
sg348
S'1.3'
p368
sg56
S'1885'
p369
sg351
g3
sg49
S'1968-69'
p370
sg353
S'2.1'
p371
sba(isrc.gp1.models.Advanced
Advanced
p372
(dp373
g320
g3
sg321
g3
sg322
S'.044'
p374
sg324
g3
sg325
g3
sg326
g3
sg327
g3
sg18
S'PF'
p375
sg329
g3
sg330
S'.468'
p376
sg332
g3
sg333
S'.314'
p377
sg335
g3
sg24
S'NBA'
p378
sg337
g3
sg338
S'6.2'
p379
sg340
S'0.7'
p380
sg35
S'25'
p381
sg37
S'SEA'
p382
sg39
S'56'
p383
sg345
g3
sg346
S'12.9'
p384
sg348
S'0.4'
p385
sg56
S'1259'
p386
sg351
g3
sg49
S'1968-69'
p387
sg353
S'1.1'
p388
sba(isrc.gp1.models.Advanced
Advanced
p389
(dp390
g320
g3
sg321
g3
sg322
S'.070'
p391
sg324
g3
sg325
g3
sg326
g3
sg327
g3
sg18
S'PF'
p392
sg329
g3
sg330
S'.507'
p393
sg332
g3
sg333
S'.275'
p394
sg335
g3
sg24
S'NBA'
p395
sg337
g3
sg338
S'4.3'
p396
sg340
S'0.1'
p397
sg35
S'25'
p398
sg37
S'CIN'
p399
sg39
S'28'
p400
sg345
g3
sg346
S'12.4'
p401
sg348
S'0.8'
p402
sg56
S'626'
p403
sg351
g3
sg49
S'1968-69'
p404
sg353
S'0.9'
p405
sba(isrc.gp1.models.Advanced
Advanced
p406
(dp407
g320
g3
sg321
g3
sg322
S'.134'
p408
sg324
g3
sg325
g3
sg326
g3
sg327
g3
sg18
S'PF'
p409
sg329
g3
sg330
S'.560'
p410
sg332
g3
sg333
S'.305'
p411
sg335
g3
sg24
S'NBA'
p412
sg337
g3
sg338
S'6.2'
p413
sg340
S'0.8'
p414
sg35
S'26'
p415
sg37
S'TOT'
p416
sg39
S'61'
p417
sg345
g3
sg346
S'13.3'
p418
sg348
S'1.5'
p419
sg56
S'819'
p420
sg351
g3
sg49
S'1969-70'
p421
sg353
S'2.3'
p422
sba(isrc.gp1.models.Advanced
Advanced
p423
(dp424
g320
g3
sg321
g3
sg322
S'.123'
p425
sg324
g3
sg325
g3
sg326
g3
sg327
g3
sg18
S'PF'
p426
sg329
g3
sg330
S'.553'
p427
sg332
g3
sg333
S'.238'
p428
sg335
g3
sg24
S'NBA'
p429
sg337
g3
sg338
S'7.6'
p430
sg340
S'0.5'
p431
sg35
S'26'
p432
sg37
S'CHI'
p433
sg39
S'33'
p434
sg345
g3
sg346
S'12.9'
p435
sg348
S'0.9'
p436
sg56
S'557'
p437
sg351
g3
sg49
S'1969-70'
p438
sg353
S'1.4'
p439
sba(isrc.gp1.models.Advanced
Advanced
p440
(dp441
g320
g3
sg321
g3
sg322
S'.158'
p442
sg324
g3
sg325
g3
sg326
g3
sg327
g3
sg18
S'PF'
p443
sg329
g3
sg330
S'.572'
p444
sg332
g3
sg333
S'.438'
p445
sg335
g3
sg24
S'NBA'
p446
sg337
g3
sg338
S'3.3'
p447
sg340
S'0.3'
p448
sg35
S'26'
p449
sg37
S'BAL'
p450
sg39
S'28'
p451
sg345
g3
sg346
S'14.1'
p452
sg348
S'0.6'
p453
sg56
S'262'
p454
sg351
g3
sg49
S'1969-70'
p455
sg353
S'0.9'
p456
sba(isrc.gp1.models.Advanced
Advanced
p457
(dp458
g320
g3
sg321
S'13.0'
p459
sg322
S'.085'
p460
sg324
g3
sg325
S'21.7'
p461
sg326
S'10.3'
p462
sg327
g3
sg18
S'PF'
p463
sg329
g3
sg330
S'.503'
p464
sg332
g3
sg333
S'.277'
p465
sg335
S'.027'
p466
sg24
S'TOT'
p467
sg337
g3
sg338
S'4.4'
p468
sg340
S'0.5'
p469
sg35
S'27'
p470
sg37
S'TOT'
p471
sg39
S'45'
p472
sg345
g3
sg346
S'13.1'
p473
sg348
S'0.5'
p474
sg56
S'607'
p475
sg351
g3
sg49
S'1970-71'
p476
sg353
S'1.1'
p477
sba(isrc.gp1.models.Advanced
Advanced
p478
(dp479
g320
g3
sg321
g3
sg322
S'.107'
p480
sg324
g3
sg325
g3
sg326
S'11.7'
p481
sg327
g3
sg18
S'PF'
p482
sg329
g3
sg330
S'.501'
p483
sg332
g3
sg333
S'.270'
p484
sg335
g3
sg24
S'NBA'
p485
sg337
g3
sg338
S'3.4'
p486
sg340
S'0.3'
p487
sg35
S'27'
p488
sg37
S'BAL'
p489
sg39
S'31'
p490
sg345
g3
sg346
S'13.7'
p491
sg348
S'0.3'
p492
sg56
S'276'
p493
sg351
g3
sg49
S'1970-71'
p494
sg353
S'0.6'
p495
sba(isrc.gp1.models.Advanced
Advanced
p496
(dp497
g320
g3
sg321
S'13.0'
p498
sg322
S'.067'
p499
sg324
g3
sg325
S'21.7'
p500
sg326
S'9.2'
p501
sg327
g3
sg18
S'PF'
p502
sg329
g3
sg330
S'.505'
p503
sg332
g3
sg333
S'.282'
p504
sg335
S'.047'
p505
sg24
S'ABA'
p506
sg337
g3
sg338
S'5.2'
p507
sg340
S'0.2'
p508
sg35
S'27'
p509
sg37
S'FLO'
p510
sg39
S'14'
p511
sg345
g3
sg346
S'12.6'
p512
sg348
S'0.3'
p513
sg56
S'331'
p514
sg351
g3
sg49
S'1970-71'
p515
sg353
S'0.5'
p516
sba(isrc.gp1.models.Advanced
Advanced
p517
(dp518
g320
S'4.8'
p519
sg321
S'12.6'
p520
sg322
S'.093'
p521
sg324
g3
sg325
S'22.1'
p522
sg326
S'10.6'
p523
sg327
g3
sg18
S'PF'
p524
sg329
g3
sg330
S'.524'
p525
sg332
S'16.5'
p526
sg333
S'.246'
p527
sg335
S'.101'
p528
sg24
S'ABA'
p529
sg337
g3
sg338
S'8.4'
p530
sg340
S'1.2'
p531
sg35
S'28'
p532
sg37
S'FLO'
p533
sg39
S'81'
p534
sg345
g3
sg346
S'14.7'
p535
sg348
S'2.2'
p536
sg56
S'1799'
p537
sg351
g3
sg49
S'1971-72'
p538
sg353
S'3.5'
p539
sbasS'_per36Minutes'
p540
(lp541
(isrc.gp1.models.Per36Minutes
Per36Minutes
p542
(dp543
g8
g3
sg9
g3
sg10
S'.442'
p544
sg12
S'1.7'
p545
sg14
g3
sg15
g3
sg16
S'16.1'
p546
sg18
S'PF'
p547
sg20
S'.707'
p548
sg24
S'NBA'
p549
sg26
g3
sg27
S'15.0'
p550
sg29
S'4.0'
p551
sg31
S'4.0'
p552
sg33
S'9.2'
p553
sg35
S'24'
p554
sg37
S'SEA'
p555
sg39
S'81'
p556
sg41
g3
sg42
S'6.6'
p557
sg44
S'2.8'
p558
sg46
S'15.0'
p559
sg48
g3
sg49
S'1967-68'
p560
sg51
S'6.6'
p561
sg53
g3
sg54
S'.442'
p562
sg56
S'2368'
p563
sg58
g3
sba(isrc.gp1.models.Per36Minutes
Per36Minutes
p564
(dp565
g8
g3
sg9
g3
sg10
S'.446'
p566
sg12
S'1.4'
p567
sg14
g3
sg15
g3
sg16
S'16.8'
p568
sg18
S'PF'
p569
sg20
S'.648'
p570
sg24
S'NBA'
p571
sg26
g3
sg27
S'15.5'
p572
sg29
S'3.6'
p573
sg31
S'4.7'
p574
sg33
S'8.4'
p575
sg35
S'25'
p576
sg37
S'TOT'
p577
sg39
S'84'
p578
sg41
g3
sg42
S'6.9'
p579
sg44
S'3.0'
p580
sg46
S'15.5'
p581
sg48
g3
sg49
S'1968-69'
p582
sg51
S'6.9'
p583
sg53
g3
sg54
S'.446'
p584
sg56
S'1885'
p585
sg58
g3
sba(isrc.gp1.models.Per36Minutes
Per36Minutes
p586
(dp587
g8
g3
sg9
g3
sg10
S'.432'
p588
sg12
S'1.6'
p589
sg14
g3
sg15
g3
sg16
S'16.6'
p590
sg18
S'PF'
p591
sg20
S'.637'
p592
sg24
S'NBA'
p593
sg26
g3
sg27
S'15.6'
p594
sg29
S'3.2'
p595
sg31
S'4.9'
p596
sg33
S'9.1'
p597
sg35
S'25'
p598
sg37
S'SEA'
p599
sg39
S'56'
p600
sg41
g3
sg42
S'6.7'
p601
sg44
S'3.1'
p602
sg46
S'15.6'
p603
sg48
g3
sg49
S'1968-69'
p604
sg51
S'6.7'
p605
sg53
g3
sg54
S'.432'
p606
sg56
S'1259'
p607
sg58
g3
sba(isrc.gp1.models.Per36Minutes
Per36Minutes
p608
(dp609
g8
g3
sg9
g3
sg10
S'.475'
p610
sg12
S'1.1'
p611
sg14
g3
sg15
g3
sg16
S'17.3'
p612
sg18
S'PF'
p613
sg20
S'.671'
p614
sg24
S'NBA'
p615
sg26
g3
sg27
S'15.2'
p616
sg29
S'4.3'
p617
sg31
S'4.2'
p618
sg33
S'7.0'
p619
sg35
S'25'
p620
sg37
S'CIN'
p621
sg39
S'28'
p622
sg41
g3
sg42
S'7.2'
p623
sg44
S'2.8'
p624
sg46
S'15.2'
p625
sg48
g3
sg49
S'1968-69'
p626
sg51
S'7.2'
p627
sg53
g3
sg54
S'.475'
p628
sg56
S'626'
p629
sg58
g3
sba(isrc.gp1.models.Per36Minutes
Per36Minutes
p630
(dp631
g8
g3
sg9
g3
sg10
S'.512'
p632
sg12
S'1.7'
p633
sg14
g3
sg15
g3
sg16
S'15.9'
p634
sg18
S'PF'
p635
sg20
S'.805'
p636
sg24
S'NBA'
p637
sg26
g3
sg27
S'12.5'
p638
sg29
S'3.8'
p639
sg31
S'3.8'
p640
sg33
S'7.3'
p641
sg35
S'26'
p642
sg37
S'TOT'
p643
sg39
S'61'
p644
sg41
g3
sg42
S'6.4'
p645
sg44
S'3.1'
p646
sg46
S'12.5'
p647
sg48
g3
sg49
S'1969-70'
p648
sg51
S'6.4'
p649
sg53
g3
sg54
S'.512'
p650
sg56
S'819'
p651
sg58
g3
sba(isrc.gp1.models.Per36Minutes
Per36Minutes
p652
(dp653
g8
g3
sg9
g3
sg10
S'.513'
p654
sg12
S'2.0'
p655
sg14
g3
sg15
g3
sg16
S'14.9'
p656
sg18
S'PF'
p657
sg20
S'.822'
p658
sg24
S'NBA'
p659
sg26
g3
sg27
S'12.2'
p660
sg29
S'3.4'
p661
sg31
S'2.9'
p662
sg33
S'7.3'
p663
sg35
S'26'
p664
sg37
S'CHI'
p665
sg39
S'33'
p666
sg41
g3
sg42
S'6.3'
p667
sg44
S'2.4'
p668
sg46
S'12.2'
p669
sg48
g3
sg49
S'1969-70'
p670
sg51
S'6.3'
p671
sg53
g3
sg54
S'.513'
p672
sg56
S'557'
p673
sg58
g3
sba(isrc.gp1.models.Per36Minutes
Per36Minutes
p674
(dp675
g8
g3
sg9
g3
sg10
S'.510'
p676
sg12
S'1.0'
p677
sg14
g3
sg15
g3
sg16
S'18.0'
p678
sg18
S'PF'
p679
sg20
S'.786'
p680
sg24
S'NBA'
p681
sg26
g3
sg27
S'13.2'
p682
sg29
S'4.7'
p683
sg31
S'5.8'
p684
sg33
S'7.3'
p685
sg35
S'26'
p686
sg37
S'BAL'
p687
sg39
S'28'
p688
sg41
g3
sg42
S'6.7'
p689
sg44
S'4.5'
p690
sg46
S'13.2'
p691
sg48
g3
sg49
S'1969-70'
p692
sg51
S'6.7'
p693
sg53
g3
sg54
S'.510'
p694
sg56
S'262'
p695
sg58
g3
sba(isrc.gp1.models.Per36Minutes
Per36Minutes
p696
(dp697
g8
S'1.1'
p698
sg9
S'0.4'
p699
sg10
S'.447'
p700
sg12
S'1.1'
p701
sg14
S'.429'
p702
sg15
S'0.2'
p703
sg16
S'17.7'
p704
sg18
S'PF'
p705
sg20
S'.808'
p706
sg24
S'TOT'
p707
sg26
g3
sg27
S'15.7'
p708
sg29
S'4.3'
p709
sg31
S'4.3'
p710
sg33
S'8.2'
p711
sg35
S'27'
p712
sg37
S'TOT'
p713
sg39
S'45'
p714
sg41
g3
sg42
S'6.8'
p715
sg44
S'3.5'
p716
sg46
S'15.2'
p717
sg48
S'2.7'
p718
sg49
S'1970-71'
p719
sg51
S'7.0'
p720
sg53
S'1.5'
p721
sg54
S'.447'
p722
sg56
S'607'
p723
sg58
g3
sba(isrc.gp1.models.Per36Minutes
Per36Minutes
p724
(dp725
g8
g3
sg9
g3
sg10
S'.452'
p726
sg12
S'0.9'
p727
sg14
g3
sg15
g3
sg16
S'16.8'
p728
sg18
S'PF'
p729
sg20
S'.806'
p730
sg24
S'NBA'
p731
sg26
g3
sg27
S'15.0'
p732
sg29
S'4.3'
p733
sg31
S'4.0'
p734
sg33
S'9.5'
p735
sg35
S'27'
p736
sg37
S'BAL'
p737
sg39
S'31'
p738
sg41
g3
sg42
S'6.8'
p739
sg44
S'3.3'
p740
sg46
S'15.0'
p741
sg48
g3
sg49
S'1970-71'
p742
sg51
S'6.8'
p743
sg53
g3
sg54
S'.452'
p744
sg56
S'276'
p745
sg58
g3
sba(isrc.gp1.models.Per36Minutes
Per36Minutes
p746
(dp747
g8
S'2.1'
p748
sg9
S'0.8'
p749
sg10
S'.443'
p750
sg12
S'1.3'
p751
sg14
S'.429'
p752
sg15
S'0.3'
p753
sg16
S'18.4'
p754
sg18
S'PF'
p755
sg20
S'.810'
p756
sg24
S'ABA'
p757
sg26
g3
sg27
S'16.2'
p758
sg29
S'4.4'
p759
sg31
S'4.6'
p760
sg33
S'7.1'
p761
sg35
S'27'
p762
sg37
S'FLO'
p763
sg39
S'14'
p764
sg41
g3
sg42
S'6.9'
p765
sg44
S'3.7'
p766
sg46
S'15.4'
p767
sg48
S'5.0'
p768
sg49
S'1970-71'
p769
sg51
S'7.2'
p770
sg53
S'2.7'
p771
sg54
S'.444'
p772
sg56
S'331'
p773
sg58
g3
sba(isrc.gp1.models.Per36Minutes
Per36Minutes
p774
(dp775
g8
S'1.8'
p776
sg9
S'1.6'
p777
sg10
S'.465'
p778
sg12
S'2.0'
p779
sg14
S'.366'
p780
sg15
S'0.6'
p781
sg16
S'18.8'
p782
sg18
S'PF'
p783
sg20
S'.789'
p784
sg24
S'ABA'
p785
sg26
g3
sg27
S'16.2'
p786
sg29
S'4.1'
p787
sg31
S'4.0'
p788
sg33
S'7.8'
p789
sg35
S'28'
p790
sg37
S'FLO'
p791
sg39
S'81'
p792
sg41
g3
sg42
S'6.9'
p793
sg44
S'3.1'
p794
sg46
S'14.6'
p795
sg48
S'6.0'
p796
sg49
S'1971-72'
p797
sg51
S'7.5'
p798
sg53
S'2.6'
p799
sg54
S'.477'
p800
sg56
S'1799'
p801
sg58
g3
sbasS'_fromYear'
p802
S'1968'
p803
sS'_url'
p804
S'http://www.basketball-reference.com/players/t/tuckeal01.html'
p805
sS'_perGame'
p806
(isrc.gp1.models.PerGame
PerGame
p807
(dp808
g8
S'1.1'
p809
sg9
S'1.0'
p810
sg10
S'.465'
p811
sS'_effectiveFieldGalPercentage'
p812
S'.484'
p813
sg12
S'1.2'
p814
sg14
S'.366'
p815
sg15
S'0.4'
p816
sg16
S'11.6'
p817
sg18
S'PF'
p818
sg20
S'.789'
p819
sg24
S'ABA'
p820
sg26
g3
sg29
S'2.5'
p821
sS'_fieldGoalsttempted'
p822
S'10.0'
p823
sg31
S'2.5'
p824
sg33
S'4.8'
p825
sg35
S'28'
p826
sg37
S'FLO'
p827
sg39
S'81'
p828
sg41
g3
sg42
S'4.3'
p829
sg44
S'1.9'
p830
sg46
S'9.0'
p831
sg48
S'3.7'
p832
sg49
S'1971-72'
p833
sg51
S'4.7'
p834
sg53
S'1.6'
p835
sg54
S'.477'
p836
sg56
S'22.2'
p837
sg58
g3
sbsS'_weight'
p838
S'190'
p839
sS'_dob'
p840
S'24-2-1943'
p841
sS'_salary'
p842
(lp843
sg18
S'F'
p844
sb.