(isrc.gp1.models.Player
Player
p0
(dp1
S'_experience'
p2
S'NA'
p3
sS'_totals'
p4
(lp5
(isrc.gp1.models.Totals
Totals
p6
(dp7
S'_offensiveRebounds'
p8
S'23'
p9
sS'_threePointsAttempted'
p10
S'0'
p11
sS'_fieldGoalsPercentage'
p12
S'.400'
p13
sS'_assist'
p14
S'3'
p15
sS'_threePointsPercentage'
p16
S'8'
p17
sS'_threePoints'
p18
g11
sS'_points'
p19
g3
sS'_position'
p20
S'C'
p21
sS'_freeThrowsPercentage'
p22
S'13'
p23
sS'_effectiveFieldGoalPercentage'
p24
S'10'
p25
sS'_league'
p26
S'NBA'
p27
sS'_steals'
p28
S'9'
p29
sS'_fieldGoalsAttempted'
p30
S'20'
p31
sS'_personalFouls'
p32
S'26'
p33
sS'_freeThrowsAttempted'
p34
S'.500'
p35
sS'_totalRebounds'
p36
g15
sS'_age'
p37
S'23'
p38
sS'_team'
p39
S'PHI'
p40
sS'_games'
p41
S'23'
p42
sS'_blocks'
p43
S'11'
p44
sS'_twoPoints'
p45
S'20'
p46
sS'_freeThrows'
p47
S'20'
p48
sS'_twoPointsAttempted'
p49
S'.400'
p50
sS'_defensiveRebounds'
p51
S'36'
p52
sS'_season'
p53
S'2001-02'
p54
sS'_fieldGoals'
p55
g17
sS'_turnOvers'
p56
S'35'
p57
sS'_twoPointsPercentage'
p58
S'.400'
p59
sS'_minutesPlayed'
p60
S'126'
p61
sS'_gamesStarted'
p62
S'2'
p63
sbasS'_college'
p64
S'Georgia Institute of Technology'
p65
sS'_toYear'
p66
S'2002'
p67
sS'_height'
p68
S'6-11'
p69
sS'_active'
p70
I00
sS'_shootingHand'
p71
VRight
p72
sS'_name'
p73
S'Alvin Jones'
p74
sS'_per100Possessions'
p75
(lp76
(isrc.gp1.models.Per100Possession
Per100Possession
p77
(dp78
g8
S'9.9'
p79
sg10
S'0.0'
p80
sg12
S'.400'
p81
sS'_offensiveRating'
p82
S'96'
p83
sg14
S'1.3'
p84
sg16
S'3.4'
p85
sg18
S'0.0'
p86
sg19
S'82'
p87
sg20
g21
sS'_defensiveRating'
p88
g3
sg22
S'5.6'
p89
sg26
S'NBA'
p90
sg28
S'3.9'
p91
sg30
S'8.6'
p92
sg32
S'11.1'
p93
sg34
S'.500'
p94
sg36
S'1.3'
p95
sg37
S'23'
p96
sg39
S'PHI'
p97
sg41
S'23'
p98
sg43
S'4.7'
p99
sg45
S'8.6'
p100
sg47
S'8.6'
p101
sg49
S'.400'
p102
sg51
S'15.4'
p103
sg53
S'2001-02'
p104
sg55
S'3.4'
p105
sg56
S'15.0'
p106
sg58
S'4.3'
p107
sg60
S'126'
p108
sg62
g63
sbasS'_advanced'
p109
(lp110
(isrc.gp1.models.Advanced
Advanced
p111
(dp112
S'_offensiveReboundPercentage'
p113
S'11.8'
p114
sS'_turnOverPercentage'
p115
S'27.6'
p116
sS'_winSharesPer48Minutes'
p117
S'.034'
p118
sS'_stealPercentage'
p119
S'1.3'
p120
sS'_usagePercentage'
p121
S'14.5'
p122
sS'_totalReboundsPercentage'
p123
S'16.2'
p124
sS'_defensiveBoxPlusMinus'
p125
S'2.4'
p126
sg20
g21
sS'_valueOverReplacementPlayer'
p127
S'-0.1'
p128
sS'_trueShootingPercentage'
p129
S'.451'
p130
sS'_defensiveReboundPercentage'
p131
S'20.5'
p132
sS'_freeThrowsAttempRate'
p133
S'1.000'
p134
sS'_threePointsAttempRate'
p135
S'.000'
p136
sg26
S'NBA'
p137
sS'_offensiveBoxPlusMinues'
p138
S'-6.9'
p139
sS'_assistPercentage'
p140
S'3.7'
p141
sS'_defensiveWinShares'
p142
S'0.3'
p143
sg37
S'23'
p144
sg39
S'PHI'
p145
sg41
S'23'
p146
sS'_blockPercentage'
p147
S'5.4'
p148
sS'_playerEfficiencyRating'
p149
S'6.2'
p150
sS'_offensiveWinShares'
p151
S'-0.2'
p152
sg60
S'126'
p153
sS'_boxPlusMinus'
p154
S'-4.5'
p155
sg53
S'2001-02'
p156
sS'_winShares'
p157
S'0.1'
p158
sbasS'_per36Minutes'
p159
(lp160
(isrc.gp1.models.Per36Minutes
Per36Minutes
p161
(dp162
g8
S'6.6'
p163
sg10
S'0.0'
p164
sg12
S'.400'
p165
sg14
S'0.9'
p166
sg16
S'2.3'
p167
sg18
S'0.0'
p168
sg19
g3
sg20
g21
sg22
S'3.7'
p169
sg26
S'NBA'
p170
sg28
S'2.6'
p171
sg30
S'5.7'
p172
sg32
S'7.4'
p173
sg34
S'.500'
p174
sg36
S'0.9'
p175
sg37
S'23'
p176
sg39
S'PHI'
p177
sg41
S'23'
p178
sg43
S'3.1'
p179
sg45
S'5.7'
p180
sg47
S'5.7'
p181
sg49
S'.400'
p182
sg51
S'10.3'
p183
sg53
S'2001-02'
p184
sg55
S'2.3'
p185
sg56
S'10.0'
p186
sg58
S'2.9'
p187
sg60
S'126'
p188
sg62
g63
sbasS'_fromYear'
p189
S'2002'
p190
sS'_url'
p191
S'http://www.basketball-reference.com/players/j/jonesal01.html'
p192
sS'_perGame'
p193
(isrc.gp1.models.PerGame
PerGame
p194
(dp195
g8
S'1.0'
p196
sg10
S'0.0'
p197
sg12
S'.400'
p198
sS'_effectiveFieldGalPercentage'
p199
S'0.4'
p200
sg14
S'0.1'
p201
sg16
S'0.3'
p202
sg18
S'0.0'
p203
sg19
g3
sg20
g21
sg22
S'0.6'
p204
sg26
S'NBA'
p205
sg28
S'0.4'
p206
sg32
S'1.1'
p207
sS'_fieldGoalsttempted'
p208
S'0.9'
p209
sg34
S'.500'
p210
sg36
S'0.1'
p211
sg37
S'23'
p212
sg39
S'PHI'
p213
sg41
S'23'
p214
sg43
S'0.5'
p215
sg45
S'0.9'
p216
sg47
S'0.9'
p217
sg49
S'.400'
p218
sg51
S'1.6'
p219
sg53
S'2001-02'
p220
sg55
S'0.3'
p221
sg56
S'1.5'
p222
sg58
S'.400'
p223
sg60
S'5.5'
p224
sg62
g63
sbsS'_weight'
p225
S'265'
p226
sS'_dob'
p227
S'9-9-1978'
p228
sS'_salary'
p229
(lp230
(isrc.gp1.models.Salary
Salary
p231
(dp232
g39
S'Philadelphia 76ers'
p233
sg26
S'NBA'
p234
sg229
S'$332,817'
p235
sg53
S'2001-02'
p236
sbasg20
S'F'
p237
sb.