(isrc.gp1.models.Player
Player
p0
(dp1
S'_experience'
p2
S'NA'
p3
sS'_totals'
p4
(lp5
(isrc.gp1.models.Totals
Totals
p6
(dp7
S'_offensiveRebounds'
p8
S'4'
p9
sS'_threePointsAttempted'
p10
g3
sS'_fieldGoalsPercentage'
p11
S'.556'
p12
sS'_assist'
p13
S'6'
p14
sS'_threePointsPercentage'
p15
g3
sS'_threePoints'
p16
g3
sS'_points'
p17
S'61'
p18
sS'_position'
p19
S'SG'
p20
sS'_freeThrowsPercentage'
p21
S'.688'
p22
sS'_effectiveFieldGoalPercentage'
p23
S'.556'
p24
sS'_league'
p25
S'NBA'
p26
sS'_steals'
p27
S'3'
p28
sS'_fieldGoalsAttempted'
p29
S'45'
p30
sS'_personalFouls'
p31
S'25'
p32
sS'_freeThrowsAttempted'
p33
S'16'
p34
sS'_totalRebounds'
p35
S'13'
p36
sS'_age'
p37
S'22'
p38
sS'_team'
p39
S'BOS'
p40
sS'_games'
p41
S'22'
p42
sS'_blocks'
p43
g28
sS'_twoPoints'
p44
S'25'
p45
sS'_freeThrows'
p46
S'11'
p47
sS'_twoPointsAttempted'
p48
S'45'
p49
sS'_defensiveRebounds'
p50
S'9'
p51
sS'_season'
p52
S'1975-76'
p53
sS'_fieldGoals'
p54
S'25'
p55
sS'_turnOvers'
p56
g3
sS'_twoPointsPercentage'
p57
S'.556'
p58
sS'_minutesPlayed'
p59
S'126'
p60
sS'_gamesStarted'
p61
g3
sba(isrc.gp1.models.Totals
Totals
p62
(dp63
g8
g51
sg10
g3
sg11
S'.441'
p64
sg13
S'10'
p65
sg15
g3
sg16
g3
sg17
S'66'
p66
sg19
S'SG'
p67
sg21
S'.700'
p68
sg23
S'.441'
p69
sg25
S'NBA'
p70
sg27
g14
sg29
S'59'
p71
sg31
S'26'
p72
sg33
S'20'
p73
sg35
S'12'
p74
sg37
S'23'
p75
sg39
S'IND'
p76
sg41
S'27'
p77
sg43
S'2'
p78
sg44
S'26'
p79
sg46
S'14'
p80
sg48
S'59'
p81
sg50
g28
sg52
S'1976-77'
p82
sg54
S'26'
p83
sg56
g3
sg57
S'.441'
p84
sg59
S'164'
p85
sg61
g3
sbasS'_college'
p86
S'West Virginia University'
p87
sS'_toYear'
p88
S'1977'
p89
sS'_height'
p90
S'6-5'
p91
sS'_active'
p92
I00
sS'_shootingHand'
p93
VRight
p94
sS'_name'
p95
S'Jerome Anderson'
p96
sS'_per100Possessions'
p97
(lp98
(isrc.gp1.models.Per100Possession
Per100Possession
p99
(dp100
g8
S'1.4'
p101
sg10
g3
sg11
S'.556'
p102
sS'_offensiveRating'
p103
g3
sg13
S'2.1'
p104
sg15
g3
sg16
g3
sg17
S'21.7'
p105
sg19
S'SG'
p106
sS'_defensiveRating'
p107
S'99'
p108
sg21
S'.688'
p109
sg25
S'NBA'
p110
sg27
S'1.1'
p111
sg29
S'16.0'
p112
sg31
S'8.9'
p113
sg33
S'5.7'
p114
sg35
S'4.6'
p115
sg37
S'22'
p116
sg39
S'BOS'
p117
sg41
S'22'
p118
sg43
S'1.1'
p119
sg44
S'8.9'
p120
sg46
S'3.9'
p121
sg48
S'16.0'
p122
sg50
S'3.2'
p123
sg52
S'1975-76'
p124
sg54
S'8.9'
p125
sg56
g3
sg57
S'.556'
p126
sg59
S'126'
p127
sg61
g3
sba(isrc.gp1.models.Per100Possession
Per100Possession
p128
(dp129
g8
S'2.5'
p130
sg10
g3
sg11
S'.441'
p131
sg103
g3
sg13
S'2.7'
p132
sg15
g3
sg16
g3
sg17
S'18.0'
p133
sg19
S'SG'
p134
sg107
S'106'
p135
sg21
S'.700'
p136
sg25
S'NBA'
p137
sg27
S'1.6'
p138
sg29
S'16.1'
p139
sg31
S'7.1'
p140
sg33
S'5.5'
p141
sg35
S'3.3'
p142
sg37
S'23'
p143
sg39
S'IND'
p144
sg41
S'27'
p145
sg43
S'0.5'
p146
sg44
S'7.1'
p147
sg46
S'3.8'
p148
sg48
S'16.1'
p149
sg50
S'0.8'
p150
sg52
S'1976-77'
p151
sg54
S'7.1'
p152
sg56
g3
sg57
S'.441'
p153
sg59
S'164'
p154
sg61
g3
sbasS'_advanced'
p155
(lp156
(isrc.gp1.models.Advanced
Advanced
p157
(dp158
S'_offensiveReboundPercentage'
p159
S'3.1'
p160
sS'_turnOverPercentage'
p161
g3
sS'_winSharesPer48Minutes'
p162
S'.120'
p163
sS'_stealPercentage'
p164
S'1.1'
p165
sS'_usagePercentage'
p166
g3
sS'_totalReboundsPercentage'
p167
S'5.1'
p168
sS'_defensiveBoxPlusMinus'
p169
S'-1.8'
p170
sg19
S'SG'
p171
sS'_valueOverReplacementPlayer'
p172
S'0.0'
p173
sS'_trueShootingPercentage'
p174
S'.586'
p175
sS'_defensiveReboundPercentage'
p176
S'7.0'
p177
sS'_freeThrowsAttempRate'
p178
S'.356'
p179
sS'_threePointsAttempRate'
p180
g3
sg25
S'NBA'
p181
sS'_offensiveBoxPlusMinues'
p182
S'-0.9'
p183
sS'_assistPercentage'
p184
S'6.9'
p185
sS'_defensiveWinShares'
p186
S'0.1'
p187
sg37
S'22'
p188
sg39
S'BOS'
p189
sg41
S'22'
p190
sS'_blockPercentage'
p191
S'1.2'
p192
sS'_playerEfficiencyRating'
p193
S'13.0'
p194
sS'_offensiveWinShares'
p195
S'0.2'
p196
sg59
S'126'
p197
sS'_boxPlusMinus'
p198
S'-2.7'
p199
sg52
S'1975-76'
p200
sS'_winShares'
p201
S'0.3'
p202
sba(isrc.gp1.models.Advanced
Advanced
p203
(dp204
g159
S'5.2'
p205
sg161
g3
sg162
S'.027'
p206
sg164
S'1.6'
p207
sg166
g3
sg167
S'3.6'
p208
sg169
S'-3.1'
p209
sg19
S'SG'
p210
sg172
S'-0.2'
p211
sg174
S'.487'
p212
sg176
S'1.8'
p213
sg178
S'.339'
p214
sg180
g3
sg25
S'NBA'
p215
sg182
S'-2.8'
p216
sg184
S'8.3'
p217
sg186
S'0.0'
p218
sg37
S'23'
p219
sg39
S'IND'
p220
sg41
S'27'
p221
sg191
S'0.6'
p222
sg193
S'10.1'
p223
sg195
S'0.1'
p224
sg59
S'164'
p225
sg198
S'-5.9'
p226
sg52
S'1976-77'
p227
sg201
S'0.1'
p228
sbasS'_per36Minutes'
p229
(lp230
(isrc.gp1.models.Per36Minutes
Per36Minutes
p231
(dp232
g8
S'1.1'
p233
sg10
g3
sg11
S'.556'
p234
sg13
S'1.7'
p235
sg15
g3
sg16
g3
sg17
S'17.4'
p236
sg19
S'SG'
p237
sg21
S'.688'
p238
sg25
S'NBA'
p239
sg27
S'0.9'
p240
sg29
S'12.9'
p241
sg31
S'7.1'
p242
sg33
S'4.6'
p243
sg35
S'3.7'
p244
sg37
S'22'
p245
sg39
S'BOS'
p246
sg41
S'22'
p247
sg43
S'0.9'
p248
sg44
S'7.1'
p249
sg46
S'3.1'
p250
sg48
S'12.9'
p251
sg50
S'2.6'
p252
sg52
S'1975-76'
p253
sg54
S'7.1'
p254
sg56
g3
sg57
S'.556'
p255
sg59
S'126'
p256
sg61
g3
sba(isrc.gp1.models.Per36Minutes
Per36Minutes
p257
(dp258
g8
S'2.0'
p259
sg10
g3
sg11
S'.441'
p260
sg13
S'2.2'
p261
sg15
g3
sg16
g3
sg17
S'14.5'
p262
sg19
S'SG'
p263
sg21
S'.700'
p264
sg25
S'NBA'
p265
sg27
S'1.3'
p266
sg29
S'13.0'
p267
sg31
S'5.7'
p268
sg33
S'4.4'
p269
sg35
S'2.6'
p270
sg37
S'23'
p271
sg39
S'IND'
p272
sg41
S'27'
p273
sg43
S'0.4'
p274
sg44
S'5.7'
p275
sg46
S'3.1'
p276
sg48
S'13.0'
p277
sg50
S'0.7'
p278
sg52
S'1976-77'
p279
sg54
S'5.7'
p280
sg56
g3
sg57
S'.441'
p281
sg59
S'164'
p282
sg61
g3
sbasS'_fromYear'
p283
S'1976'
p284
sS'_url'
p285
S'http://www.basketball-reference.com/players/a/anderje01.html'
p286
sS'_perGame'
p287
(isrc.gp1.models.PerGame
PerGame
p288
(dp289
g8
S'0.3'
p290
sg10
g3
sg11
S'.441'
p291
sS'_effectiveFieldGalPercentage'
p292
S'.441'
p293
sg13
S'0.4'
p294
sg15
g3
sg16
g3
sg17
S'2.4'
p295
sg19
S'SG'
p296
sg21
S'.700'
p297
sg25
S'NBA'
p298
sg27
S'0.2'
p299
sg31
S'1.0'
p300
sS'_fieldGoalsttempted'
p301
S'2.2'
p302
sg33
S'0.7'
p303
sg35
S'0.4'
p304
sg37
S'23'
p305
sg39
S'IND'
p306
sg41
S'27'
p307
sg43
S'0.1'
p308
sg44
S'1.0'
p309
sg46
S'0.5'
p310
sg48
S'2.2'
p311
sg50
S'0.1'
p312
sg52
S'1976-77'
p313
sg54
S'1.0'
p314
sg56
g3
sg57
S'.441'
p315
sg59
S'6.1'
p316
sg61
g3
sbsS'_weight'
p317
S'195'
p318
sS'_dob'
p319
S'9-10-1953'
p320
sS'_salary'
p321
(lp322
sg19
S'G'
p323
sb.