(isrc.gp1.models.Player
Player
p0
(dp1
S'_experience'
p2
S'NA'
p3
sS'_totals'
p4
(lp5
(isrc.gp1.models.Totals
Totals
p6
(dp7
S'_offensiveRebounds'
p8
S'119'
p9
sS'_threePointsAttempted'
p10
S'4'
p11
sS'_fieldGoalsPercentage'
p12
S'.501'
p13
sS'_assist'
p14
S'67'
p15
sS'_threePointsPercentage'
p16
S'.000'
p17
sS'_threePoints'
p18
S'0'
p19
sS'_points'
p20
S'480'
p21
sS'_position'
p22
S'SF'
p23
sS'_freeThrowsPercentage'
p24
S'.571'
p25
sS'_effectiveFieldGoalPercentage'
p26
S'.501'
p27
sS'_league'
p28
S'NBA'
p29
sS'_steals'
p30
S'63'
p31
sS'_fieldGoalsAttempted'
p32
S'379'
p33
sS'_personalFouls'
p34
S'153'
p35
sS'_freeThrowsAttempted'
p36
S'175'
p37
sS'_totalRebounds'
p38
S'294'
p39
sS'_age'
p40
S'22'
p41
sS'_team'
p42
S'TOT'
p43
sS'_games'
p44
S'65'
p45
sS'_blocks'
p46
S'21'
p47
sS'_twoPoints'
p48
S'190'
p49
sS'_freeThrows'
p50
S'100'
p51
sS'_twoPointsAttempted'
p52
S'375'
p53
sS'_defensiveRebounds'
p54
S'175'
p55
sS'_season'
p56
S'1982-83'
p57
sS'_fieldGoals'
p58
S'190'
p59
sS'_turnOvers'
p60
S'79'
p61
sS'_twoPointsPercentage'
p62
S'.507'
p63
sS'_minutesPlayed'
p64
S'1202'
p65
sS'_gamesStarted'
p66
S'2'
p67
sba(isrc.gp1.models.Totals
Totals
p68
(dp69
g8
g11
sg10
S'1'
p70
sg12
S'.364'
p71
sg14
g70
sg16
S'.000'
p72
sg18
g19
sg20
S'17'
p73
sg22
S'SF'
p74
sg24
S'.333'
p75
sg26
S'.364'
p76
sg28
S'NBA'
p77
sg30
g70
sg32
S'22'
p78
sg34
S'6'
p79
sg36
S'3'
p80
sg38
S'12'
p81
sg40
S'22'
p82
sg42
S'PHI'
p83
sg44
S'13'
p84
sg46
g19
sg48
S'8'
p85
sg50
g70
sg52
S'21'
p86
sg54
g85
sg56
S'1982-83'
p87
sg58
g85
sg60
S'5'
p88
sg62
S'.381'
p89
sg64
S'48'
p90
sg66
g19
sba(isrc.gp1.models.Totals
Totals
p91
(dp92
g8
S'115'
p93
sg10
g80
sg12
S'.510'
p94
sg14
S'66'
p95
sg16
S'.000'
p96
sg18
g19
sg20
S'463'
p97
sg22
S'SF'
p98
sg24
S'.576'
p99
sg26
S'.510'
p100
sg28
S'NBA'
p101
sg30
S'62'
p102
sg32
S'357'
p103
sg34
S'147'
p104
sg36
S'172'
p105
sg38
S'282'
p106
sg40
S'22'
p107
sg42
S'UTA'
p108
sg44
S'52'
p109
sg46
S'21'
p110
sg48
S'182'
p111
sg50
S'99'
p112
sg52
S'354'
p113
sg54
S'167'
p114
sg56
S'1982-83'
p115
sg58
S'182'
p116
sg60
S'74'
p117
sg62
S'.514'
p118
sg64
S'1154'
p119
sg66
g67
sba(isrc.gp1.models.Totals
Totals
p120
(dp121
g8
S'38'
p122
sg10
g80
sg12
S'.423'
p123
sg14
S'22'
p124
sg16
S'.000'
p125
sg18
g19
sg20
S'122'
p126
sg22
S'SF'
p127
sg24
S'.414'
p128
sg26
S'.423'
p129
sg28
S'NBA'
p130
sg30
S'15'
p131
sg32
S'130'
p132
sg34
S'28'
p133
sg36
S'29'
p134
sg38
S'63'
p135
sg40
S'23'
p136
sg42
S'UTA'
p137
sg44
S'48'
p138
sg46
S'9'
p139
sg48
S'55'
p140
sg50
S'12'
p141
sg52
S'127'
p142
sg54
S'25'
p143
sg56
S'1983-84'
p144
sg58
S'55'
p145
sg60
S'20'
p146
sg62
S'.433'
p147
sg64
S'311'
p148
sg66
g19
sba(isrc.gp1.models.Totals
Totals
p149
(dp150
g8
S'29'
p151
sg10
g67
sg12
S'.409'
p152
sg14
S'21'
p153
sg16
S'.000'
p154
sg18
g19
sg20
S'149'
p155
sg22
S'SF'
p156
sg24
S'.600'
p157
sg26
S'.409'
p158
sg28
S'NBA'
p159
sg30
S'29'
p160
sg32
S'149'
p161
sg34
S'70'
p162
sg36
S'45'
p163
sg38
S'82'
p164
sg40
S'24'
p165
sg42
S'UTA'
p166
sg44
S'44'
p167
sg46
g139
sg48
S'61'
p168
sg50
S'27'
p169
sg52
S'147'
p170
sg54
S'53'
p171
sg56
S'1984-85'
p172
sg58
S'61'
p173
sg60
S'32'
p174
sg62
S'.415'
p175
sg64
S'457'
p176
sg66
g19
sbasS'_college'
p177
S'Bradley University'
p178
sS'_toYear'
p179
S'1985'
p180
sS'_height'
p181
S'6-8'
p182
sS'_active'
p183
I00
sS'_shootingHand'
p184
VRight
p185
sS'_name'
p186
S'J.J. Anderson'
p187
sS'_per100Possessions'
p188
(lp189
(isrc.gp1.models.Per100Possession
Per100Possession
p190
(dp191
g8
S'4.4'
p192
sg10
S'0.1'
p193
sg12
S'.501'
p194
sS'_offensiveRating'
p195
S'103'
p196
sg14
S'2.5'
p197
sg16
S'.000'
p198
sg18
S'0.0'
p199
sg20
S'17.9'
p200
sg22
S'SF'
p201
sS'_defensiveRating'
p202
S'103'
p203
sg24
S'.571'
p204
sg28
S'NBA'
p205
sg30
S'2.3'
p206
sg32
S'14.1'
p207
sg34
S'5.7'
p208
sg36
S'6.5'
p209
sg38
S'11.0'
p210
sg40
S'22'
p211
sg42
S'TOT'
p212
sg44
S'65'
p213
sg46
S'0.8'
p214
sg48
S'7.1'
p215
sg50
S'3.7'
p216
sg52
S'14.0'
p217
sg54
S'6.5'
p218
sg56
S'1982-83'
p219
sg58
S'7.1'
p220
sg60
S'2.9'
p221
sg62
S'.507'
p222
sg64
S'1202'
p223
sg66
g67
sba(isrc.gp1.models.Per100Possession
Per100Possession
p224
(dp225
g8
S'3.9'
p226
sg10
S'1.0'
p227
sg12
S'.364'
p228
sg195
S'74'
p229
sg14
S'1.0'
p230
sg16
S'.000'
p231
sg18
S'0.0'
p232
sg20
S'16.6'
p233
sg22
S'SF'
p234
sg202
S'102'
p235
sg24
S'.333'
p236
sg28
S'NBA'
p237
sg30
S'1.0'
p238
sg32
S'21.4'
p239
sg34
S'5.8'
p240
sg36
S'2.9'
p241
sg38
S'11.7'
p242
sg40
S'22'
p243
sg42
S'PHI'
p244
sg44
S'13'
p245
sg46
S'0.0'
p246
sg48
S'7.8'
p247
sg50
S'1.0'
p248
sg52
S'20.4'
p249
sg54
S'7.8'
p250
sg56
S'1982-83'
p251
sg58
S'7.8'
p252
sg60
S'4.9'
p253
sg62
S'.381'
p254
sg64
S'48'
p255
sg66
g19
sba(isrc.gp1.models.Per100Possession
Per100Possession
p256
(dp257
g8
S'4.5'
p258
sg10
S'0.1'
p259
sg12
S'.510'
p260
sg195
S'105'
p261
sg14
S'2.6'
p262
sg16
S'.000'
p263
sg18
S'0.0'
p264
sg20
S'17.9'
p265
sg22
S'SF'
p266
sg202
S'103'
p267
sg24
S'.576'
p268
sg28
S'NBA'
p269
sg30
S'2.4'
p270
sg32
S'13.8'
p271
sg34
S'5.7'
p272
sg36
S'6.7'
p273
sg38
S'10.9'
p274
sg40
S'22'
p275
sg42
S'UTA'
p276
sg44
S'52'
p277
sg46
S'0.8'
p278
sg48
S'7.1'
p279
sg50
S'3.8'
p280
sg52
S'13.7'
p281
sg54
S'6.5'
p282
sg56
S'1982-83'
p283
sg58
S'7.1'
p284
sg60
S'2.9'
p285
sg62
S'.514'
p286
sg64
S'1154'
p287
sg66
g67
sba(isrc.gp1.models.Per100Possession
Per100Possession
p288
(dp289
g8
S'5.6'
p290
sg10
S'0.4'
p291
sg12
S'.423'
p292
sg195
S'94'
p293
sg14
S'3.2'
p294
sg16
S'.000'
p295
sg18
S'0.0'
p296
sg20
S'17.9'
p297
sg22
S'SF'
p298
sg202
S'108'
p299
sg24
S'.414'
p300
sg28
S'NBA'
p301
sg30
S'2.2'
p302
sg32
S'19.1'
p303
sg34
S'4.1'
p304
sg36
S'4.3'
p305
sg38
S'9.3'
p306
sg40
S'23'
p307
sg42
S'UTA'
p308
sg44
S'48'
p309
sg46
S'1.3'
p310
sg48
S'8.1'
p311
sg50
S'1.8'
p312
sg52
S'18.7'
p313
sg54
S'3.7'
p314
sg56
S'1983-84'
p315
sg58
S'8.1'
p316
sg60
S'2.9'
p317
sg62
S'.433'
p318
sg64
S'311'
p319
sg66
g19
sba(isrc.gp1.models.Per100Possession
Per100Possession
p320
(dp321
g8
S'2.9'
p322
sg10
S'0.2'
p323
sg12
S'.409'
p324
sg195
S'87'
p325
sg14
S'2.1'
p326
sg16
S'.000'
p327
sg18
S'0.0'
p328
sg20
S'14.9'
p329
sg22
S'SF'
p330
sg202
S'102'
p331
sg24
S'.600'
p332
sg28
S'NBA'
p333
sg30
S'2.9'
p334
sg32
S'14.9'
p335
sg34
S'7.0'
p336
sg36
S'4.5'
p337
sg38
S'8.2'
p338
sg40
S'24'
p339
sg42
S'UTA'
p340
sg44
S'44'
p341
sg46
S'0.9'
p342
sg48
S'6.1'
p343
sg50
S'2.7'
p344
sg52
S'14.7'
p345
sg54
S'5.3'
p346
sg56
S'1984-85'
p347
sg58
S'6.1'
p348
sg60
S'3.2'
p349
sg62
S'.415'
p350
sg64
S'457'
p351
sg66
g19
sbasS'_advanced'
p352
(lp353
(isrc.gp1.models.Advanced
Advanced
p354
(dp355
S'_offensiveReboundPercentage'
p356
S'10.4'
p357
sS'_turnOverPercentage'
p358
S'14.8'
p359
sS'_winSharesPer48Minutes'
p360
S'.094'
p361
sS'_stealPercentage'
p362
S'2.3'
p363
sS'_usagePercentage'
p364
S'17.4'
p365
sS'_totalReboundsPercentage'
p366
S'12.5'
p367
sS'_defensiveBoxPlusMinus'
p368
S'0.3'
p369
sg22
S'SF'
p370
sS'_valueOverReplacementPlayer'
p371
S'0.5'
p372
sS'_trueShootingPercentage'
p373
S'.526'
p374
sS'_defensiveReboundPercentage'
p375
S'14.4'
p376
sS'_freeThrowsAttempRate'
p377
S'.462'
p378
sS'_threePointsAttempRate'
p379
S'.011'
p380
sg28
S'NBA'
p381
sS'_offensiveBoxPlusMinues'
p382
S'-0.7'
p383
sS'_assistPercentage'
p384
S'7.6'
p385
sS'_defensiveWinShares'
p386
S'1.4'
p387
sg40
S'22'
p388
sg42
S'TOT'
p389
sg44
S'65'
p390
sS'_blockPercentage'
p391
S'0.9'
p392
sS'_playerEfficiencyRating'
p393
S'13.7'
p394
sS'_offensiveWinShares'
p395
S'0.9'
p396
sg64
S'1202'
p397
sS'_boxPlusMinus'
p398
S'-0.3'
p399
sg56
S'1982-83'
p400
sS'_winShares'
p401
S'2.3'
p402
sba(isrc.gp1.models.Advanced
Advanced
p403
(dp404
g356
S'9.2'
p405
sg358
S'17.7'
p406
sg360
S'-0.082'
p407
sg362
S'1.0'
p408
sg364
S'23.4'
p409
sg366
S'13.2'
p410
sg368
S'-3.3'
p411
sg22
S'SF'
p412
sg371
S'-0.1'
p413
sg373
S'.364'
p414
sg375
S'16.9'
p415
sg377
S'.136'
p416
sg379
S'.045'
p417
sg28
S'NBA'
p418
sg382
S'-8.2'
p419
sg384
S'2.8'
p420
sg386
S'0.1'
p421
sg40
S'22'
p422
sg42
S'PHI'
p423
sg44
S'13'
p424
sg391
S'0.0'
p425
sg393
S'3.9'
p426
sg395
S'-0.1'
p427
sg64
S'48'
p428
sg398
S'-11.5'
p429
sg56
S'1982-83'
p430
sg401
S'-0.1'
p431
sba(isrc.gp1.models.Advanced
Advanced
p432
(dp433
g356
S'10.5'
p434
sg358
S'14.6'
p435
sg360
S'.101'
p436
sg362
S'2.4'
p437
sg364
S'17.2'
p438
sg366
S'12.5'
p439
sg368
S'0.5'
p440
sg22
S'SF'
p441
sg371
S'0.6'
p442
sg373
S'.535'
p443
sg375
S'14.3'
p444
sg377
S'.482'
p445
sg379
S'.008'
p446
sg28
S'NBA'
p447
sg382
S'-0.4'
p448
sg384
S'7.8'
p449
sg386
S'1.4'
p450
sg40
S'22'
p451
sg42
S'UTA'
p452
sg44
S'52'
p453
sg391
S'0.9'
p454
sg393
S'14.2'
p455
sg395
S'1.0'
p456
sg64
S'1154'
p457
sg398
S'0.1'
p458
sg56
S'1982-83'
p459
sg401
S'2.4'
p460
sba(isrc.gp1.models.Advanced
Advanced
p461
(dp462
g356
S'13.6'
p463
sg358
S'12.3'
p464
sg360
S'.013'
p465
sg362
S'2.2'
p466
sg364
S'20.8'
p467
sg366
S'10.6'
p468
sg368
S'-0.8'
p469
sg22
S'SF'
p470
sg371
S'-0.1'
p471
sg373
S'.427'
p472
sg375
S'8.0'
p473
sg377
S'.223'
p474
sg379
S'.023'
p475
sg28
S'NBA'
p476
sg382
S'-2.4'
p477
sg384
S'9.6'
p478
sg386
S'0.3'
p479
sg40
S'23'
p480
sg42
S'UTA'
p481
sg44
S'48'
p482
sg391
S'1.5'
p483
sg393
S'11.6'
p484
sg395
S'-0.2'
p485
sg64
S'311'
p486
sg398
S'-3.2'
p487
sg56
S'1983-84'
p488
sg401
S'0.1'
p489
sba(isrc.gp1.models.Advanced
Advanced
p490
(dp491
g356
S'6.7'
p492
sg358
S'15.9'
p493
sg360
S'.025'
p494
sg362
S'2.9'
p495
sg364
S'17.5'
p496
sg366
S'9.3'
p497
sg368
S'1.5'
p498
sg22
S'SF'
p499
sg371
S'-0.1'
p500
sg373
S'.441'
p501
sg375
S'11.7'
p502
sg377
S'.302'
p503
sg379
S'.013'
p504
sg28
S'NBA'
p505
sg382
S'-4.7'
p506
sg384
S'6.2'
p507
sg386
S'0.8'
p508
sg40
S'24'
p509
sg42
S'UTA'
p510
sg44
S'44'
p511
sg391
S'1.1'
p512
sg393
S'8.2'
p513
sg395
S'-0.6'
p514
sg64
S'457'
p515
sg398
S'-3.2'
p516
sg56
S'1984-85'
p517
sg401
S'0.2'
p518
sbasS'_per36Minutes'
p519
(lp520
(isrc.gp1.models.Per36Minutes
Per36Minutes
p521
(dp522
g8
S'3.6'
p523
sg10
S'0.1'
p524
sg12
S'.501'
p525
sg14
S'2.0'
p526
sg16
S'.000'
p527
sg18
S'0.0'
p528
sg20
S'14.4'
p529
sg22
S'SF'
p530
sg24
S'.571'
p531
sg28
S'NBA'
p532
sg30
S'1.9'
p533
sg32
S'11.4'
p534
sg34
S'4.6'
p535
sg36
S'5.2'
p536
sg38
S'8.8'
p537
sg40
S'22'
p538
sg42
S'TOT'
p539
sg44
S'65'
p540
sg46
S'0.6'
p541
sg48
S'5.7'
p542
sg50
S'3.0'
p543
sg52
S'11.2'
p544
sg54
S'5.2'
p545
sg56
S'1982-83'
p546
sg58
S'5.7'
p547
sg60
S'2.4'
p548
sg62
S'.507'
p549
sg64
S'1202'
p550
sg66
g67
sba(isrc.gp1.models.Per36Minutes
Per36Minutes
p551
(dp552
g8
S'3.0'
p553
sg10
S'0.7'
p554
sg12
S'.364'
p555
sg14
S'0.7'
p556
sg16
S'.000'
p557
sg18
S'0.0'
p558
sg20
S'12.7'
p559
sg22
S'SF'
p560
sg24
S'.333'
p561
sg28
S'NBA'
p562
sg30
S'0.7'
p563
sg32
S'16.5'
p564
sg34
S'4.5'
p565
sg36
S'2.3'
p566
sg38
S'9.0'
p567
sg40
S'22'
p568
sg42
S'PHI'
p569
sg44
S'13'
p570
sg46
S'0.0'
p571
sg48
S'6.0'
p572
sg50
S'0.7'
p573
sg52
S'15.8'
p574
sg54
S'6.0'
p575
sg56
S'1982-83'
p576
sg58
S'6.0'
p577
sg60
S'3.7'
p578
sg62
S'.381'
p579
sg64
S'48'
p580
sg66
g19
sba(isrc.gp1.models.Per36Minutes
Per36Minutes
p581
(dp582
g8
S'3.6'
p583
sg10
S'0.1'
p584
sg12
S'.510'
p585
sg14
S'2.1'
p586
sg16
S'.000'
p587
sg18
S'0.0'
p588
sg20
S'14.4'
p589
sg22
S'SF'
p590
sg24
S'.576'
p591
sg28
S'NBA'
p592
sg30
S'1.9'
p593
sg32
S'11.1'
p594
sg34
S'4.6'
p595
sg36
S'5.4'
p596
sg38
S'8.8'
p597
sg40
S'22'
p598
sg42
S'UTA'
p599
sg44
S'52'
p600
sg46
S'0.7'
p601
sg48
S'5.7'
p602
sg50
S'3.1'
p603
sg52
S'11.0'
p604
sg54
S'5.2'
p605
sg56
S'1982-83'
p606
sg58
S'5.7'
p607
sg60
S'2.3'
p608
sg62
S'.514'
p609
sg64
S'1154'
p610
sg66
g67
sba(isrc.gp1.models.Per36Minutes
Per36Minutes
p611
(dp612
g8
S'4.4'
p613
sg10
S'0.3'
p614
sg12
S'.423'
p615
sg14
S'2.5'
p616
sg16
S'.000'
p617
sg18
S'0.0'
p618
sg20
S'14.1'
p619
sg22
S'SF'
p620
sg24
S'.414'
p621
sg28
S'NBA'
p622
sg30
S'1.7'
p623
sg32
S'15.0'
p624
sg34
S'3.2'
p625
sg36
S'3.4'
p626
sg38
S'7.3'
p627
sg40
S'23'
p628
sg42
S'UTA'
p629
sg44
S'48'
p630
sg46
S'1.0'
p631
sg48
S'6.4'
p632
sg50
S'1.4'
p633
sg52
S'14.7'
p634
sg54
S'2.9'
p635
sg56
S'1983-84'
p636
sg58
S'6.4'
p637
sg60
S'2.3'
p638
sg62
S'.433'
p639
sg64
S'311'
p640
sg66
g19
sba(isrc.gp1.models.Per36Minutes
Per36Minutes
p641
(dp642
g8
S'2.3'
p643
sg10
S'0.2'
p644
sg12
S'.409'
p645
sg14
S'1.7'
p646
sg16
S'.000'
p647
sg18
S'0.0'
p648
sg20
S'11.7'
p649
sg22
S'SF'
p650
sg24
S'.600'
p651
sg28
S'NBA'
p652
sg30
S'2.3'
p653
sg32
S'11.7'
p654
sg34
S'5.5'
p655
sg36
S'3.5'
p656
sg38
S'6.5'
p657
sg40
S'24'
p658
sg42
S'UTA'
p659
sg44
S'44'
p660
sg46
S'0.7'
p661
sg48
S'4.8'
p662
sg50
S'2.1'
p663
sg52
S'11.6'
p664
sg54
S'4.2'
p665
sg56
S'1984-85'
p666
sg58
S'4.8'
p667
sg60
S'2.5'
p668
sg62
S'.415'
p669
sg64
S'457'
p670
sg66
g19
sbasS'_fromYear'
p671
S'1983'
p672
sS'_url'
p673
S'http://www.basketball-reference.com/players/a/anderjj01.html'
p674
sS'_perGame'
p675
(isrc.gp1.models.PerGame
PerGame
p676
(dp677
g8
S'0.7'
p678
sg10
S'0.0'
p679
sg12
S'.409'
p680
sS'_effectiveFieldGalPercentage'
p681
S'.409'
p682
sg14
S'0.5'
p683
sg16
S'.000'
p684
sg18
S'0.0'
p685
sg20
S'3.4'
p686
sg22
S'SF'
p687
sg24
S'.600'
p688
sg28
S'NBA'
p689
sg30
S'0.7'
p690
sg34
S'1.6'
p691
sS'_fieldGoalsttempted'
p692
S'3.4'
p693
sg36
S'1.0'
p694
sg38
S'1.9'
p695
sg40
S'24'
p696
sg42
S'UTA'
p697
sg44
S'44'
p698
sg46
S'0.2'
p699
sg48
S'1.4'
p700
sg50
S'0.6'
p701
sg52
S'3.3'
p702
sg54
S'1.2'
p703
sg56
S'1984-85'
p704
sg58
S'1.4'
p705
sg60
S'0.7'
p706
sg62
S'.415'
p707
sg64
S'10.4'
p708
sg66
g19
sbsS'_weight'
p709
S'195'
p710
sS'_dob'
p711
S'23-9-1960'
p712
sS'_salary'
p713
(lp714
sg22
S'F'
p715
sb.