(isrc.gp1.models.Player
Player
p0
(dp1
S'_experience'
p2
S'NA'
p3
sS'_totals'
p4
(lp5
(isrc.gp1.models.Totals
Totals
p6
(dp7
S'_offensiveRebounds'
p8
g3
sS'_threePointsAttempted'
p9
g3
sS'_fieldGoalsPercentage'
p10
S'.285'
p11
sS'_assist'
p12
S'39'
p13
sS'_threePointsPercentage'
p14
g3
sS'_threePoints'
p15
g3
sS'_points'
p16
S'123'
p17
sS'_position'
p18
g3
sS'_freeThrowsPercentage'
p19
S'.619'
p20
sS'_effectiveFieldGoalPercentage'
p21
S'.285'
p22
sS'_league'
p23
S'BAA'
p24
sS'_steals'
p25
g3
sS'_fieldGoalsAttempted'
p26
S'193'
p27
sS'_personalFouls'
p28
S'37'
p29
sS'_freeThrowsAttempted'
p30
S'21'
p31
sS'_totalRebounds'
p32
g3
sS'_age'
p33
S'28'
p34
sS'_team'
p35
S'ROC'
p36
sS'_games'
p37
S'36'
p38
sS'_blocks'
p39
g3
sS'_twoPoints'
p40
S'55'
p41
sS'_freeThrows'
p42
S'13'
p43
sS'_twoPointsAttempted'
p44
S'193'
p45
sS'_defensiveRebounds'
p46
g3
sS'_season'
p47
S'1948-49'
p48
sS'_fieldGoals'
p49
S'55'
p50
sS'_turnOvers'
p51
g3
sS'_twoPointsPercentage'
p52
S'.285'
p53
sS'_minutesPlayed'
p54
g3
sS'_gamesStarted'
p55
g3
sba(isrc.gp1.models.Totals
Totals
p56
(dp57
g8
g3
sg9
g3
sg10
S'.333'
p58
sg12
S'156'
p59
sg14
g3
sg15
g3
sg16
S'332'
p60
sg18
g3
sg19
S'.635'
p61
sg21
S'.333'
p62
sg23
S'NBA'
p63
sg25
g3
sg26
S'418'
p64
sg28
S'106'
p65
sg30
S'85'
p66
sg32
g3
sg33
S'29'
p67
sg35
S'SYR'
p68
sg37
S'60'
p69
sg39
g3
sg40
S'139'
p70
sg42
S'54'
p71
sg44
S'418'
p72
sg46
g3
sg47
S'1949-50'
p73
sg49
S'139'
p74
sg51
g3
sg52
S'.333'
p75
sg54
g3
sg55
g3
sba(isrc.gp1.models.Totals
Totals
p76
(dp77
g8
g3
sg9
g3
sg10
g3
sg12
g3
sg14
g3
sg15
g3
sg16
g3
sg18
g3
sg19
g3
sg21
g3
sg23
g3
sg25
g3
sg26
g3
sg28
g3
sg30
g3
sg32
g3
sg33
S'30'
p78
sg35
S'Did Not Play'
p79
sg37
g3
sg39
g3
sg40
g3
sg42
g3
sg44
g3
sg46
g3
sg47
S'1950-51'
p80
sg49
g3
sg51
g3
sg52
g3
sg54
g3
sg55
g3
sba(isrc.gp1.models.Totals
Totals
p81
(dp82
g8
g3
sg9
g3
sg10
g3
sg12
g3
sg14
g3
sg15
g3
sg16
g3
sg18
g3
sg19
g3
sg21
g3
sg23
g3
sg25
g3
sg26
g3
sg28
g3
sg30
g3
sg32
g3
sg33
S'31'
p83
sg35
S'Did Not Play\xc2\xa0(other pro league\xe2\x80\x94ABL)'
p84
sg37
g3
sg39
g3
sg40
g3
sg42
g3
sg44
g3
sg46
g3
sg47
S'1951-52'
p85
sg49
g3
sg51
g3
sg52
g3
sg54
g3
sg55
g3
sba(isrc.gp1.models.Totals
Totals
p86
(dp87
g8
g3
sg9
g3
sg10
S'.125'
p88
sg12
S'9'
p89
sg14
g3
sg15
g3
sg16
S'8'
p90
sg18
S'SG'
p91
sg19
S'.667'
p92
sg21
S'.125'
p93
sg23
S'NBA'
p94
sg25
g3
sg26
S'24'
p95
sg28
S'15'
p96
sg30
S'3'
p97
sg32
g89
sg33
S'32'
p98
sg35
S'MLH'
p99
sg37
S'7'
p100
sg39
g3
sg40
g97
sg42
S'2'
p101
sg44
S'24'
p102
sg46
g3
sg47
S'1952-53'
p103
sg49
g97
sg51
g3
sg52
S'.125'
p104
sg54
S'68'
p105
sg55
g3
sbasS'_college'
p106
S"St. John's University"
p107
sS'_toYear'
p108
S'1953'
p109
sS'_height'
p110
S'6-2'
p111
sS'_active'
p112
I00
sS'_shootingHand'
p113
VRight
p114
sS'_name'
p115
S'Andrew Levane'
p116
sS'_per100Possessions'
p117
(lp118
sS'_advanced'
p119
(lp120
(isrc.gp1.models.Advanced
Advanced
p121
(dp122
S'_offensiveReboundPercentage'
p123
g3
sS'_turnOverPercentage'
p124
g3
sS'_winSharesPer48Minutes'
p125
g3
sS'_stealPercentage'
p126
g3
sS'_usagePercentage'
p127
g3
sS'_totalReboundsPercentage'
p128
g3
sS'_defensiveBoxPlusMinus'
p129
g3
sg18
g3
sS'_valueOverReplacementPlayer'
p130
g3
sS'_trueShootingPercentage'
p131
S'.304'
p132
sS'_defensiveReboundPercentage'
p133
g3
sS'_freeThrowsAttempRate'
p134
S'.109'
p135
sS'_threePointsAttempRate'
p136
g3
sg23
S'BAA'
p137
sS'_offensiveBoxPlusMinues'
p138
g3
sS'_assistPercentage'
p139
g3
sS'_defensiveWinShares'
p140
S'0.3'
p141
sg33
S'28'
p142
sg35
S'ROC'
p143
sg37
S'36'
p144
sS'_blockPercentage'
p145
g3
sS'_playerEfficiencyRating'
p146
g3
sS'_offensiveWinShares'
p147
S'-0.9'
p148
sg54
g3
sS'_boxPlusMinus'
p149
g3
sg47
S'1948-49'
p150
sS'_winShares'
p151
S'-0.6'
p152
sba(isrc.gp1.models.Advanced
Advanced
p153
(dp154
g123
g3
sg124
g3
sg125
g3
sg126
g3
sg127
g3
sg128
g3
sg129
g3
sg18
g3
sg130
g3
sg131
S'.365'
p155
sg133
g3
sg134
S'.203'
p156
sg136
g3
sg23
S'NBA'
p157
sg138
g3
sg139
g3
sg140
S'2.0'
p158
sg33
S'29'
p159
sg35
S'SYR'
p160
sg37
S'60'
p161
sg145
g3
sg146
g3
sg147
S'-0.2'
p162
sg54
g3
sg149
g3
sg47
S'1949-50'
p163
sg151
S'1.8'
p164
sba(isrc.gp1.models.Advanced
Advanced
p165
(dp166
g123
g3
sg124
g3
sg125
S'-0.275'
p167
sg126
g3
sg127
g3
sg128
g3
sg129
g3
sg18
S'SG'
p168
sg130
g3
sg131
S'.158'
p169
sg133
g3
sg134
S'.125'
p170
sg136
g3
sg23
S'NBA'
p171
sg138
g3
sg139
g3
sg140
S'0.1'
p172
sg33
S'32'
p173
sg35
S'MLH'
p174
sg37
g100
sg145
g3
sg146
S'-4.1'
p175
sg147
S'-0.5'
p176
sg54
S'68'
p177
sg149
g3
sg47
S'1952-53'
p178
sg151
S'-0.4'
p179
sbasS'_per36Minutes'
p180
(lp181
(isrc.gp1.models.Per36Minutes
Per36Minutes
p182
(dp183
g8
g3
sg9
g3
sg10
S'.285'
p184
sg12
g3
sg14
g3
sg15
g3
sg16
g3
sg18
g3
sg19
S'.619'
p185
sg23
S'BAA'
p186
sg25
g3
sg26
g3
sg28
g3
sg30
g3
sg32
g3
sg33
S'28'
p187
sg35
S'ROC'
p188
sg37
S'36'
p189
sg39
g3
sg40
g3
sg42
g3
sg44
g3
sg46
g3
sg47
S'1948-49'
p190
sg49
g3
sg51
g3
sg52
S'.285'
p191
sg54
g3
sg55
g3
sba(isrc.gp1.models.Per36Minutes
Per36Minutes
p192
(dp193
g8
g3
sg9
g3
sg10
S'.333'
p194
sg12
g3
sg14
g3
sg15
g3
sg16
g3
sg18
g3
sg19
S'.635'
p195
sg23
S'NBA'
p196
sg25
g3
sg26
g3
sg28
g3
sg30
g3
sg32
g3
sg33
S'29'
p197
sg35
S'SYR'
p198
sg37
S'60'
p199
sg39
g3
sg40
g3
sg42
g3
sg44
g3
sg46
g3
sg47
S'1949-50'
p200
sg49
g3
sg51
g3
sg52
S'.333'
p201
sg54
g3
sg55
g3
sba(isrc.gp1.models.Per36Minutes
Per36Minutes
p202
(dp203
g8
g3
sg9
g3
sg10
S'.125'
p204
sg12
S'4.8'
p205
sg14
g3
sg15
g3
sg16
S'4.2'
p206
sg18
S'SG'
p207
sg19
S'.667'
p208
sg23
S'NBA'
p209
sg25
g3
sg26
S'12.7'
p210
sg28
S'7.9'
p211
sg30
S'1.6'
p212
sg32
S'4.8'
p213
sg33
S'32'
p214
sg35
S'MLH'
p215
sg37
g100
sg39
g3
sg40
S'1.6'
p216
sg42
S'1.1'
p217
sg44
S'12.7'
p218
sg46
g3
sg47
S'1952-53'
p219
sg49
S'1.6'
p220
sg51
g3
sg52
S'.125'
p221
sg54
S'68'
p222
sg55
g3
sbasS'_fromYear'
p223
S'1949'
p224
sS'_url'
p225
S'http://www.basketball-reference.com/players/l/levanan01.html'
p226
sS'_perGame'
p227
(isrc.gp1.models.PerGame
PerGame
p228
(dp229
g8
g3
sg9
g3
sg10
S'.125'
p230
sS'_effectiveFieldGalPercentage'
p231
S'.125'
p232
sg12
S'1.3'
p233
sg14
g3
sg15
g3
sg16
S'1.1'
p234
sg18
S'SG'
p235
sg19
S'.667'
p236
sg23
S'NBA'
p237
sg25
g3
sg28
S'2.1'
p238
sS'_fieldGoalsttempted'
p239
S'3.4'
p240
sg30
S'0.4'
p241
sg32
S'1.3'
p242
sg33
S'32'
p243
sg35
S'MLH'
p244
sg37
g100
sg39
g3
sg40
S'0.4'
p245
sg42
S'0.3'
p246
sg44
S'3.4'
p247
sg46
g3
sg47
S'1952-53'
p248
sg49
S'0.4'
p249
sg51
g3
sg52
S'.125'
p250
sg54
S'9.7'
p251
sg55
g3
sbsS'_weight'
p252
S'190'
p253
sS'_dob'
p254
S'11-4-1920'
p255
sS'_salary'
p256
(lp257
sg18
S'F-G'
p258
sb.