(isrc.gp1.models.Player
Player
p0
(dp1
S'_experience'
p2
V1 year
p3
sS'_totals'
p4
(lp5
(isrc.gp1.models.Totals
Totals
p6
(dp7
S'_offensiveRebounds'
p8
S'2'
p9
sS'_threePointsAttempted'
p10
S'6'
p11
sS'_fieldGoalsPercentage'
p12
S'.167'
p13
sS'_assist'
p14
S'0'
p15
sS'_threePointsPercentage'
p16
S'.167'
p17
sS'_threePoints'
p18
S'1'
p19
sS'_points'
p20
S'NA'
p21
sS'_position'
p22
S'SG'
p23
sS'_freeThrowsPercentage'
p24
g9
sS'_effectiveFieldGoalPercentage'
p25
g15
sS'_league'
p26
S'NBA'
p27
sS'_steals'
p28
g19
sS'_fieldGoalsAttempted'
p29
g11
sS'_personalFouls'
p30
g21
sS'_freeThrowsAttempted'
p31
g15
sS'_totalRebounds'
p32
g15
sS'_age'
p33
S'23'
p34
sS'_team'
p35
S'MIA'
p36
sS'_games'
p37
S'4'
p38
sS'_blocks'
p39
S'3'
p40
sS'_twoPoints'
p41
g15
sS'_freeThrows'
p42
g15
sS'_twoPointsAttempted'
p43
g15
sS'_defensiveRebounds'
p44
g19
sS'_season'
p45
S'2014-15'
p46
sS'_fieldGoals'
p47
g19
sS'_turnOvers'
p48
g40
sS'_twoPointsPercentage'
p49
S'.250'
p50
sS'_minutesPlayed'
p51
S'22'
p52
sS'_gamesStarted'
p53
g15
sbasS'_college'
p54
S'Duke University'
p55
sS'_toYear'
p56
S'2015'
p57
sS'_height'
p58
S'6-5'
p59
sS'_active'
p60
I01
sS'_shootingHand'
p61
VRight
p62
sS'_name'
p63
S'Andre Dawkins'
p64
sS'_per100Possessions'
p65
(lp66
(isrc.gp1.models.Per100Possession
Per100Possession
p67
(dp68
g8
S'4.8'
p69
sg10
S'14.4'
p70
sg12
S'.167'
p71
sS'_offensiveRating'
p72
g21
sg14
S'0.0'
p73
sg16
S'.167'
p74
sg18
S'2.4'
p75
sg20
S'113'
p76
sg22
S'SG'
p77
sS'_defensiveRating'
p78
g21
sg24
S'4.8'
p79
sg26
S'NBA'
p80
sg28
S'2.4'
p81
sg29
S'14.4'
p82
sg30
S'53'
p83
sg31
S'0.0'
p84
sg32
S'0.0'
p85
sg33
S'23'
p86
sg35
S'MIA'
p87
sg37
g38
sg39
S'7.2'
p88
sg41
S'0.0'
p89
sg42
S'0.0'
p90
sg43
S'0.0'
p91
sg44
S'2.4'
p92
sg45
S'2014-15'
p93
sg47
S'2.4'
p94
sg48
S'7.2'
p95
sg49
S'0.0'
p96
sg51
S'22'
p97
sg53
g15
sbasS'_advanced'
p98
(lp99
(isrc.gp1.models.Advanced
Advanced
p100
(dp101
S'_offensiveReboundPercentage'
p102
S'0.0'
p103
sS'_turnOverPercentage'
p104
S'14.3'
p105
sS'_winSharesPer48Minutes'
p106
S'-0.172'
p107
sS'_stealPercentage'
p108
S'0.0'
p109
sS'_usagePercentage'
p110
S'15.0'
p111
sS'_totalReboundsPercentage'
p112
S'5.5'
p113
sS'_defensiveBoxPlusMinus'
p114
S'-3.9'
p115
sg22
S'SG'
p116
sS'_valueOverReplacementPlayer'
p117
S'-0.1'
p118
sS'_trueShootingPercentage'
p119
S'.250'
p120
sS'_defensiveReboundPercentage'
p121
S'10.7'
p122
sS'_freeThrowsAttempRate'
p123
S'.000'
p124
sS'_threePointsAttempRate'
p125
S'1.000'
p126
sg26
S'NBA'
p127
sS'_offensiveBoxPlusMinues'
p128
S'-7.5'
p129
sS'_assistPercentage'
p130
S'6.6'
p131
sS'_defensiveWinShares'
p132
S'0.0'
p133
sg33
S'23'
p134
sg35
S'MIA'
p135
sg37
g38
sS'_blockPercentage'
p136
S'0.0'
p137
sS'_playerEfficiencyRating'
p138
S'-5.0'
p139
sS'_offensiveWinShares'
p140
S'-0.1'
p141
sg51
S'22'
p142
sS'_boxPlusMinus'
p143
S'-11.5'
p144
sg45
S'2014-15'
p145
sS'_winShares'
p146
S'-0.1'
p147
sbasS'_per36Minutes'
p148
(lp149
(isrc.gp1.models.Per36Minutes
Per36Minutes
p150
(dp151
g8
S'3.3'
p152
sg10
S'9.8'
p153
sg12
S'.167'
p154
sg14
S'0.0'
p155
sg16
S'.167'
p156
sg18
S'1.6'
p157
sg20
g21
sg22
S'SG'
p158
sg24
S'3.3'
p159
sg26
S'NBA'
p160
sg28
S'1.6'
p161
sg29
S'9.8'
p162
sg30
g21
sg31
S'0.0'
p163
sg32
S'0.0'
p164
sg33
S'23'
p165
sg35
S'MIA'
p166
sg37
g38
sg39
S'4.9'
p167
sg41
S'0.0'
p168
sg42
S'0.0'
p169
sg43
S'0.0'
p170
sg44
S'1.6'
p171
sg45
S'2014-15'
p172
sg47
S'1.6'
p173
sg48
S'4.9'
p174
sg49
S'0.0'
p175
sg51
S'22'
p176
sg53
g15
sbasS'_fromYear'
p177
S'2015'
p178
sS'_url'
p179
S'http://www.basketball-reference.com/players/d/dawkian01.html'
p180
sS'_perGame'
p181
(isrc.gp1.models.PerGame
PerGame
p182
(dp183
g8
S'0.5'
p184
sg10
S'1.5'
p185
sg12
S'.167'
p186
sS'_effectiveFieldGalPercentage'
p187
S'0.0'
p188
sg14
S'0.0'
p189
sg16
S'.167'
p190
sg18
S'0.3'
p191
sg20
g21
sg22
S'SG'
p192
sg24
S'0.5'
p193
sg26
S'NBA'
p194
sg28
S'0.3'
p195
sg30
g21
sS'_fieldGoalsttempted'
p196
S'1.5'
p197
sg31
S'0.0'
p198
sg32
S'0.0'
p199
sg33
S'23'
p200
sg35
S'MIA'
p201
sg37
g38
sg39
S'0.8'
p202
sg41
S'0.0'
p203
sg42
S'0.0'
p204
sg43
S'0.0'
p205
sg44
S'0.3'
p206
sg45
S'2014-15'
p207
sg47
S'0.3'
p208
sg48
S'0.8'
p209
sg49
S'.250'
p210
sg51
S'5.5'
p211
sg53
g15
sbsS'_weight'
p212
S'215'
p213
sS'_dob'
p214
S'19-9-1991'
p215
sS'_salary'
p216
(lp217
(isrc.gp1.models.Salary
Salary
p218
(dp219
g35
S'Boston Celtics'
p220
sg26
S'NBA'
p221
sg216
S'$59,686'
p222
sg45
S'2014-15'
p223
sbasg22
S'G'
p224
sb.