(isrc.gp1.models.Player
Player
p0
(dp1
S'_experience'
p2
S'NA'
p3
sS'_totals'
p4
(lp5
(isrc.gp1.models.Totals
Totals
p6
(dp7
S'_offensiveRebounds'
p8
S'6'
p9
sS'_threePointsAttempted'
p10
S'0'
p11
sS'_fieldGoalsPercentage'
p12
S'.444'
p13
sS'_assist'
p14
S'2'
p15
sS'_threePointsPercentage'
p16
S'8'
p17
sS'_threePoints'
p18
g11
sS'_points'
p19
g3
sS'_position'
p20
S'PF'
p21
sS'_freeThrowsPercentage'
p22
g15
sS'_effectiveFieldGoalPercentage'
p23
S'1'
p24
sS'_league'
p25
S'NBA'
p26
sS'_steals'
p27
g15
sS'_fieldGoalsAttempted'
p28
S'18'
p29
sS'_personalFouls'
p30
S'17'
p31
sS'_freeThrowsAttempted'
p32
S'.333'
p33
sS'_totalRebounds'
p34
g15
sS'_age'
p35
S'26'
p36
sS'_team'
p37
S'MIL'
p38
sS'_games'
p39
g17
sS'_blocks'
p40
S'5'
p41
sS'_twoPoints'
p42
S'18'
p43
sS'_freeThrows'
p44
S'3'
p45
sS'_twoPointsAttempted'
p46
S'.444'
p47
sS'_defensiveRebounds'
p48
g17
sS'_season'
p49
S'1992-93'
p50
sS'_fieldGoals'
p51
g17
sS'_turnOvers'
p52
g41
sS'_twoPointsPercentage'
p53
S'.444'
p54
sS'_minutesPlayed'
p55
S'37'
p56
sS'_gamesStarted'
p57
g11
sbasS'_college'
p58
S'McNeese State University'
p59
sS'_toYear'
p60
S'1993'
p61
sS'_height'
p62
S'6-10'
p63
sS'_active'
p64
I00
sS'_shootingHand'
p65
VRight
p66
sS'_name'
p67
S'Anthony Pullard'
p68
sS'_per100Possessions'
p69
(lp70
(isrc.gp1.models.Per100Possession
Per100Possession
p71
(dp72
g8
S'8.1'
p73
sg10
S'0.0'
p74
sg12
S'.444'
p75
sS'_offensiveRating'
p76
S'105'
p77
sg14
S'2.7'
p78
sg16
S'10.8'
p79
sg18
S'0.0'
p80
sg19
S'76'
p81
sg20
S'PF'
p82
sS'_defensiveRating'
p83
g3
sg22
S'2.7'
p84
sg25
S'NBA'
p85
sg27
S'2.7'
p86
sg28
S'24.3'
p87
sg30
S'22.9'
p88
sg32
S'.333'
p89
sg34
S'2.7'
p90
sg35
S'26'
p91
sg37
S'MIL'
p92
sg39
g17
sg40
S'6.7'
p93
sg42
S'24.3'
p94
sg44
S'4.0'
p95
sg46
S'.444'
p96
sg48
S'10.8'
p97
sg49
S'1992-93'
p98
sg51
S'10.8'
p99
sg52
S'6.7'
p100
sg53
S'1.3'
p101
sg55
S'37'
p102
sg57
g11
sbasS'_advanced'
p103
(lp104
(isrc.gp1.models.Advanced
Advanced
p105
(dp106
S'_offensiveReboundPercentage'
p107
S'6.2'
p108
sS'_turnOverPercentage'
p109
S'20.6'
p110
sS'_winSharesPer48Minutes'
p111
S'-0.114'
p112
sS'_stealPercentage'
p113
S'2.7'
p114
sS'_usagePercentage'
p115
S'28.2'
p116
sS'_totalReboundsPercentage'
p117
S'12.5'
p118
sS'_defensiveBoxPlusMinus'
p119
S'-0.2'
p120
sg20
S'PF'
p121
sS'_valueOverReplacementPlayer'
p122
S'-0.1'
p123
sS'_trueShootingPercentage'
p124
S'.440'
p125
sS'_defensiveReboundPercentage'
p126
S'18.9'
p127
sS'_freeThrowsAttempRate'
p128
S'.167'
p129
sS'_threePointsAttempRate'
p130
S'.000'
p131
sg25
S'NBA'
p132
sS'_offensiveBoxPlusMinues'
p133
S'-8.7'
p134
sS'_assistPercentage'
p135
S'8.8'
p136
sS'_defensiveWinShares'
p137
S'0.0'
p138
sg35
S'26'
p139
sg37
S'MIL'
p140
sg39
g17
sS'_blockPercentage'
p141
S'3.5'
p142
sS'_playerEfficiencyRating'
p143
S'9.2'
p144
sS'_offensiveWinShares'
p145
S'-0.1'
p146
sg55
S'37'
p147
sS'_boxPlusMinus'
p148
S'-8.9'
p149
sg49
S'1992-93'
p150
sS'_winShares'
p151
S'-0.1'
p152
sbasS'_per36Minutes'
p153
(lp154
(isrc.gp1.models.Per36Minutes
Per36Minutes
p155
(dp156
g8
S'5.8'
p157
sg10
S'0.0'
p158
sg12
S'.444'
p159
sg14
S'1.9'
p160
sg16
S'7.8'
p161
sg18
S'0.0'
p162
sg19
g3
sg20
S'PF'
p163
sg22
S'1.9'
p164
sg25
S'NBA'
p165
sg27
S'1.9'
p166
sg28
S'17.5'
p167
sg30
S'16.5'
p168
sg32
S'.333'
p169
sg34
S'1.9'
p170
sg35
S'26'
p171
sg37
S'MIL'
p172
sg39
g17
sg40
S'4.9'
p173
sg42
S'17.5'
p174
sg44
S'2.9'
p175
sg46
S'.444'
p176
sg48
S'7.8'
p177
sg49
S'1992-93'
p178
sg51
S'7.8'
p179
sg52
S'4.9'
p180
sg53
S'1.0'
p181
sg55
S'37'
p182
sg57
g11
sbasS'_fromYear'
p183
S'1993'
p184
sS'_url'
p185
S'http://www.basketball-reference.com/players/p/pullaan01.html'
p186
sS'_perGame'
p187
(isrc.gp1.models.PerGame
PerGame
p188
(dp189
g8
S'0.8'
p190
sg10
S'0.0'
p191
sg12
S'.444'
p192
sS'_effectiveFieldGalPercentage'
p193
S'0.1'
p194
sg14
S'0.3'
p195
sg16
S'1.0'
p196
sg18
S'0.0'
p197
sg19
g3
sg20
S'PF'
p198
sg22
S'0.3'
p199
sg25
S'NBA'
p200
sg27
S'0.3'
p201
sg30
S'2.1'
p202
sS'_fieldGoalsttempted'
p203
S'2.3'
p204
sg32
S'.333'
p205
sg34
S'0.3'
p206
sg35
S'26'
p207
sg37
S'MIL'
p208
sg39
g17
sg40
S'0.6'
p209
sg42
S'2.3'
p210
sg44
S'0.4'
p211
sg46
S'.444'
p212
sg48
S'1.0'
p213
sg49
S'1992-93'
p214
sg51
S'1.0'
p215
sg52
S'0.6'
p216
sg53
S'.444'
p217
sg55
S'4.6'
p218
sg57
g11
sbsS'_weight'
p219
S'245'
p220
sS'_dob'
p221
S'23-6-1966'
p222
sS'_salary'
p223
(lp224
(isrc.gp1.models.Salary
Salary
p225
(dp226
g37
S'Milwaukee Bucks'
p227
sg25
S'NBA'
p228
sg223
S'$140,000'
p229
sg49
S'1992-93'
p230
sbasg20
S'F'
p231
sb.