(isrc.gp1.models.Player
Player
p0
(dp1
S'_experience'
p2
S'NA'
p3
sS'_totals'
p4
(lp5
(isrc.gp1.models.Totals
Totals
p6
(dp7
S'_offensiveRebounds'
p8
S'8'
p9
sS'_threePointsAttempted'
p10
S'15'
p11
sS'_fieldGoalsPercentage'
p12
S'.358'
p13
sS'_assist'
p14
S'12'
p15
sS'_threePointsPercentage'
p16
S'.067'
p17
sS'_threePoints'
p18
S'1'
p19
sS'_points'
p20
S'70'
p21
sS'_position'
p22
S'SG'
p23
sS'_freeThrowsPercentage'
p24
S'.500'
p25
sS'_effectiveFieldGoalPercentage'
p26
S'.364'
p27
sS'_league'
p28
S'NBA'
p29
sS'_steals'
p30
S'4'
p31
sS'_fieldGoalsAttempted'
p32
S'81'
p33
sS'_personalFouls'
p34
S'42'
p35
sS'_freeThrowsAttempted'
p36
S'22'
p37
sS'_totalRebounds'
p38
S'30'
p39
sS'_age'
p40
S'21'
p41
sS'_team'
p42
S'NJN'
p43
sS'_games'
p44
S'39'
p45
sS'_blocks'
p46
S'3'
p47
sS'_twoPoints'
p48
S'28'
p49
sS'_freeThrows'
p50
S'11'
p51
sS'_twoPointsAttempted'
p52
S'66'
p53
sS'_defensiveRebounds'
p54
S'22'
p55
sS'_season'
p56
S'2005-06'
p57
sS'_fieldGoals'
p58
S'29'
p59
sS'_turnOvers'
p60
S'21'
p61
sS'_twoPointsPercentage'
p62
S'.424'
p63
sS'_minutesPlayed'
p64
S'370'
p65
sS'_gamesStarted'
p66
S'0'
p67
sba(isrc.gp1.models.Totals
Totals
p68
(dp69
g8
S'38'
p70
sg10
S'59'
p71
sg12
S'.438'
p72
sg14
S'55'
p73
sg16
S'.322'
p74
sg18
S'19'
p75
sg20
S'283'
p76
sg22
S'SG'
p77
sg24
S'.603'
p78
sg26
S'.476'
p79
sg28
S'NBA'
p80
sg30
S'30'
p81
sg32
S'251'
p82
sg34
S'120'
p83
sg36
S'73'
p84
sg38
S'175'
p85
sg40
S'22'
p86
sg42
S'NJN'
p87
sg44
S'63'
p88
sg46
S'10'
p89
sg48
S'91'
p90
sg50
S'44'
p91
sg52
S'192'
p92
sg54
S'137'
p93
sg56
S'2006-07'
p94
sg58
S'110'
p95
sg60
S'43'
p96
sg62
S'.474'
p97
sg64
S'1137'
p98
sg66
S'23'
p99
sba(isrc.gp1.models.Totals
Totals
p100
(dp101
g8
S'40'
p102
sg10
S'110'
p103
sg12
S'.413'
p104
sg14
S'80'
p105
sg16
S'.291'
p106
sg18
S'32'
p107
sg20
S'350'
p108
sg22
S'SG'
p109
sg24
S'.687'
p110
sg26
S'.462'
p111
sg28
S'NBA'
p112
sg30
S'28'
p113
sg32
S'329'
p114
sg34
S'127'
p115
sg36
S'67'
p116
sg38
S'147'
p117
sg40
S'23'
p118
sg42
S'TOT'
p119
sg44
S'56'
p120
sg46
S'21'
p121
sg48
S'104'
p122
sg50
S'46'
p123
sg52
S'219'
p124
sg54
S'107'
p125
sg56
S'2007-08'
p126
sg58
S'136'
p127
sg60
S'50'
p128
sg62
S'.475'
p129
sg64
S'1232'
p130
sg66
S'10'
p131
sba(isrc.gp1.models.Totals
Totals
p132
(dp133
g8
S'35'
p134
sg10
S'101'
p135
sg12
S'.401'
p136
sg14
S'67'
p137
sg16
S'.267'
p138
sg18
S'27'
p139
sg20
S'298'
p140
sg22
S'SG'
p141
sg24
S'.707'
p142
sg26
S'.448'
p143
sg28
S'NBA'
p144
sg30
S'26'
p145
sg32
S'287'
p146
sg34
S'105'
p147
sg36
S'58'
p148
sg38
S'125'
p149
sg40
S'23'
p150
sg42
S'NJN'
p151
sg44
S'41'
p152
sg46
S'17'
p153
sg48
S'88'
p154
sg50
S'41'
p155
sg52
S'186'
p156
sg54
S'90'
p157
sg56
S'2007-08'
p158
sg58
S'115'
p159
sg60
S'39'
p160
sg62
S'.473'
p161
sg64
S'1056'
p162
sg66
S'10'
p163
sba(isrc.gp1.models.Totals
Totals
p164
(dp165
g8
S'5'
p166
sg10
S'9'
p167
sg12
S'.500'
p168
sg14
S'13'
p169
sg16
S'.556'
p170
sg18
g166
sg20
S'52'
p171
sg22
S'SG'
p172
sg24
S'.556'
p173
sg26
S'.560'
p174
sg28
S'NBA'
p175
sg30
S'2'
p176
sg32
S'42'
p177
sg34
S'22'
p178
sg36
g167
sg38
S'22'
p179
sg40
S'23'
p180
sg42
S'DAL'
p181
sg44
S'15'
p182
sg46
g31
sg48
S'16'
p183
sg50
g166
sg52
S'33'
p184
sg54
S'17'
p185
sg56
S'2007-08'
p186
sg58
S'21'
p187
sg60
S'11'
p188
sg62
S'.485'
p189
sg64
S'176'
p190
sg66
g67
sba(isrc.gp1.models.Totals
Totals
p191
(dp192
g8
S'31'
p193
sg10
S'149'
p194
sg12
S'.415'
p195
sg14
S'77'
p196
sg16
S'.302'
p197
sg18
S'45'
p198
sg20
S'474'
p199
sg22
S'SF'
p200
sg24
S'.747'
p201
sg26
S'.468'
p202
sg28
S'NBA'
p203
sg30
S'46'
p204
sg32
S'431'
p205
sg34
S'172'
p206
sg36
S'95'
p207
sg38
S'136'
p208
sg40
S'24'
p209
sg42
S'DAL'
p210
sg44
S'65'
p211
sg46
S'27'
p212
sg48
S'134'
p213
sg50
S'71'
p214
sg52
S'282'
p215
sg54
S'105'
p216
sg56
S'2008-09'
p217
sg58
S'179'
p218
sg60
S'54'
p219
sg62
S'.475'
p220
sg64
S'1552'
p221
sg66
S'53'
p222
sba(isrc.gp1.models.Totals
Totals
p223
(dp224
g8
S'38'
p225
sg10
S'173'
p226
sg12
S'.406'
p227
sg14
S'71'
p228
sg16
S'.335'
p229
sg18
S'58'
p230
sg20
S'435'
p231
sg22
S'SF'
p232
sg24
S'.688'
p233
sg26
S'.479'
p234
sg28
S'NBA'
p235
sg30
S'30'
p236
sg32
S'399'
p237
sg34
S'134'
p238
sg36
S'77'
p239
sg38
S'190'
p240
sg40
S'25'
p241
sg42
S'TOR'
p242
sg44
S'67'
p243
sg46
S'11'
p244
sg48
S'104'
p245
sg50
S'53'
p246
sg52
S'226'
p247
sg54
S'152'
p248
sg56
S'2009-10'
p249
sg58
S'162'
p250
sg60
S'58'
p251
sg62
S'.460'
p252
sg64
S'1392'
p253
sg66
S'10'
p254
sba(isrc.gp1.models.Totals
Totals
p255
(dp256
g8
g19
sg10
g31
sg12
S'.125'
p257
sg14
g19
sg16
S'.000'
p258
sg18
g67
sg20
g3
sg22
S'SG'
p259
sg24
g176
sg26
S'.125'
p260
sg28
S'NBA'
p261
sg30
g67
sg32
g9
sg34
g176
sg36
g67
sg38
g67
sg40
S'26'
p262
sg42
S'SAC'
p263
sg44
S'7'
p264
sg46
g19
sg48
g19
sg50
g67
sg52
g31
sg54
g47
sg56
S'2010-11'
p265
sg58
g19
sg60
g47
sg62
S'.250'
p266
sg64
S'31'
p267
sg66
g67
sbasS'_college'
p268
S'Texas A&M University'
p269
sS'_toYear'
p270
S'2011'
p271
sS'_height'
p272
S'6-7'
p273
sS'_active'
p274
I00
sS'_shootingHand'
p275
VRight
p276
sS'_name'
p277
S'Antoine Wright'
p278
sS'_per100Possessions'
p279
(lp280
(isrc.gp1.models.Per100Possession
Per100Possession
p281
(dp282
g8
S'1.2'
p283
sg10
S'2.2'
p284
sg12
S'.358'
p285
sS'_offensiveRating'
p286
S'71'
p287
sg14
S'1.7'
p288
sg16
S'.067'
p289
sg18
S'0.1'
p290
sg20
S'10.1'
p291
sg22
S'SG'
p292
sS'_defensiveRating'
p293
S'107'
p294
sg24
S'.500'
p295
sg28
S'NBA'
p296
sg30
S'0.6'
p297
sg32
S'11.7'
p298
sg34
S'6.1'
p299
sg36
S'3.2'
p300
sg38
S'4.3'
p301
sg40
S'21'
p302
sg42
S'NJN'
p303
sg44
S'39'
p304
sg46
S'0.4'
p305
sg48
S'4.0'
p306
sg50
S'1.6'
p307
sg52
S'9.5'
p308
sg54
S'3.2'
p309
sg56
S'2005-06'
p310
sg58
S'4.2'
p311
sg60
S'3.0'
p312
sg62
S'.424'
p313
sg64
S'370'
p314
sg66
g67
sba(isrc.gp1.models.Per100Possession
Per100Possession
p315
(dp316
g8
S'1.8'
p317
sg10
S'2.7'
p318
sg12
S'.438'
p319
sg286
S'98'
p320
sg14
S'2.5'
p321
sg16
S'.322'
p322
sg18
S'0.9'
p323
sg20
S'13.1'
p324
sg22
S'SG'
p325
sg293
S'107'
p326
sg24
S'.603'
p327
sg28
S'NBA'
p328
sg30
S'1.4'
p329
sg32
S'11.6'
p330
sg34
S'5.5'
p331
sg36
S'3.4'
p332
sg38
S'8.1'
p333
sg40
S'22'
p334
sg42
S'NJN'
p335
sg44
S'63'
p336
sg46
S'0.5'
p337
sg48
S'4.2'
p338
sg50
S'2.0'
p339
sg52
S'8.9'
p340
sg54
S'6.3'
p341
sg56
S'2006-07'
p342
sg58
S'5.1'
p343
sg60
S'2.0'
p344
sg62
S'.474'
p345
sg64
S'1137'
p346
sg66
S'23'
p347
sba(isrc.gp1.models.Per100Possession
Per100Possession
p348
(dp349
g8
S'1.7'
p350
sg10
S'4.7'
p351
sg12
S'.413'
p352
sg286
S'99'
p353
sg14
S'3.4'
p354
sg16
S'.291'
p355
sg18
S'1.4'
p356
sg20
S'14.9'
p357
sg22
S'SG'
p358
sg293
S'111'
p359
sg24
S'.687'
p360
sg28
S'NBA'
p361
sg30
S'1.2'
p362
sg32
S'14.0'
p363
sg34
S'5.4'
p364
sg36
S'2.9'
p365
sg38
S'6.3'
p366
sg40
S'23'
p367
sg42
S'TOT'
p368
sg44
S'56'
p369
sg46
S'0.9'
p370
sg48
S'4.4'
p371
sg50
S'2.0'
p372
sg52
S'9.3'
p373
sg54
S'4.6'
p374
sg56
S'2007-08'
p375
sg58
S'5.8'
p376
sg60
S'2.1'
p377
sg62
S'.475'
p378
sg64
S'1232'
p379
sg66
S'10'
p380
sba(isrc.gp1.models.Per100Possession
Per100Possession
p381
(dp382
g8
S'1.7'
p383
sg10
S'5.0'
p384
sg12
S'.401'
p385
sg286
S'98'
p386
sg14
S'3.3'
p387
sg16
S'.267'
p388
sg18
S'1.3'
p389
sg20
S'14.8'
p390
sg22
S'SG'
p391
sg293
S'111'
p392
sg24
S'.707'
p393
sg28
S'NBA'
p394
sg30
S'1.3'
p395
sg32
S'14.3'
p396
sg34
S'5.2'
p397
sg36
S'2.9'
p398
sg38
S'6.2'
p399
sg40
S'23'
p400
sg42
S'NJN'
p401
sg44
S'41'
p402
sg46
S'0.8'
p403
sg48
S'4.4'
p404
sg50
S'2.0'
p405
sg52
S'9.2'
p406
sg54
S'4.5'
p407
sg56
S'2007-08'
p408
sg58
S'5.7'
p409
sg60
S'1.9'
p410
sg62
S'.473'
p411
sg64
S'1056'
p412
sg66
S'10'
p413
sba(isrc.gp1.models.Per100Possession
Per100Possession
p414
(dp415
g8
S'1.5'
p416
sg10
S'2.7'
p417
sg12
S'.500'
p418
sg286
S'102'
p419
sg14
S'3.9'
p420
sg16
S'.556'
p421
sg18
S'1.5'
p422
sg20
S'15.7'
p423
sg22
S'SG'
p424
sg293
S'109'
p425
sg24
S'.556'
p426
sg28
S'NBA'
p427
sg30
S'0.6'
p428
sg32
S'12.7'
p429
sg34
S'6.7'
p430
sg36
S'2.7'
p431
sg38
S'6.7'
p432
sg40
S'23'
p433
sg42
S'DAL'
p434
sg44
S'15'
p435
sg46
S'1.2'
p436
sg48
S'4.8'
p437
sg50
S'1.5'
p438
sg52
S'10.0'
p439
sg54
S'5.1'
p440
sg56
S'2007-08'
p441
sg58
S'6.4'
p442
sg60
S'3.3'
p443
sg62
S'.485'
p444
sg64
S'176'
p445
sg66
g67
sba(isrc.gp1.models.Per100Possession
Per100Possession
p446
(dp447
g8
S'1.0'
p448
sg10
S'5.0'
p449
sg12
S'.415'
p450
sg286
S'102'
p451
sg14
S'2.6'
p452
sg16
S'.302'
p453
sg18
S'1.5'
p454
sg20
S'16.0'
p455
sg22
S'SF'
p456
sg293
S'111'
p457
sg24
S'.747'
p458
sg28
S'NBA'
p459
sg30
S'1.6'
p460
sg32
S'14.6'
p461
sg34
S'5.8'
p462
sg36
S'3.2'
p463
sg38
S'4.6'
p464
sg40
S'24'
p465
sg42
S'DAL'
p466
sg44
S'65'
p467
sg46
S'0.9'
p468
sg48
S'4.5'
p469
sg50
S'2.4'
p470
sg52
S'9.5'
p471
sg54
S'3.6'
p472
sg56
S'2008-09'
p473
sg58
S'6.1'
p474
sg60
S'1.8'
p475
sg62
S'.475'
p476
sg64
S'1552'
p477
sg66
S'53'
p478
sba(isrc.gp1.models.Per100Possession
Per100Possession
p479
(dp480
g8
S'1.4'
p481
sg10
S'6.4'
p482
sg12
S'.406'
p483
sg286
S'100'
p484
sg14
S'2.6'
p485
sg16
S'.335'
p486
sg18
S'2.1'
p487
sg20
S'16.1'
p488
sg22
S'SF'
p489
sg293
S'115'
p490
sg24
S'.688'
p491
sg28
S'NBA'
p492
sg30
S'1.1'
p493
sg32
S'14.8'
p494
sg34
S'5.0'
p495
sg36
S'2.9'
p496
sg38
S'7.0'
p497
sg40
S'25'
p498
sg42
S'TOR'
p499
sg44
S'67'
p500
sg46
S'0.4'
p501
sg48
S'3.9'
p502
sg50
S'2.0'
p503
sg52
S'8.4'
p504
sg54
S'5.6'
p505
sg56
S'2009-10'
p506
sg58
S'6.0'
p507
sg60
S'2.1'
p508
sg62
S'.460'
p509
sg64
S'1392'
p510
sg66
S'10'
p511
sba(isrc.gp1.models.Per100Possession
Per100Possession
p512
(dp513
g8
S'1.6'
p514
sg10
S'6.5'
p515
sg12
S'.125'
p516
sg286
S'113'
p517
sg14
S'1.6'
p518
sg16
S'.000'
p519
sg18
S'0.0'
p520
sg20
S'41'
p521
sg22
S'SG'
p522
sg293
g3
sg24
S'3.3'
p523
sg28
S'NBA'
p524
sg30
S'0.0'
p525
sg32
S'13.0'
p526
sg34
S'3.3'
p527
sg36
S'0.0'
p528
sg38
S'0.0'
p529
sg40
S'26'
p530
sg42
S'SAC'
p531
sg44
g264
sg46
S'1.6'
p532
sg48
S'1.6'
p533
sg50
S'0.0'
p534
sg52
S'6.5'
p535
sg54
S'4.9'
p536
sg56
S'2010-11'
p537
sg58
S'1.6'
p538
sg60
S'4.9'
p539
sg62
S'.250'
p540
sg64
S'31'
p541
sg66
g67
sbasS'_advanced'
p542
(lp543
(isrc.gp1.models.Advanced
Advanced
p544
(dp545
S'_offensiveReboundPercentage'
p546
S'2.5'
p547
sS'_turnOverPercentage'
p548
S'18.8'
p549
sS'_winSharesPer48Minutes'
p550
S'-0.062'
p551
sS'_stealPercentage'
p552
S'0.6'
p553
sS'_usagePercentage'
p554
S'14.2'
p555
sS'_totalReboundsPercentage'
p556
S'4.8'
p557
sS'_defensiveBoxPlusMinus'
p558
S'-0.8'
p559
sg22
S'SG'
p560
sS'_valueOverReplacementPlayer'
p561
S'-0.7'
p562
sS'_trueShootingPercentage'
p563
S'.386'
p564
sS'_defensiveReboundPercentage'
p565
S'7.1'
p566
sS'_freeThrowsAttempRate'
p567
S'.272'
p568
sS'_threePointsAttempRate'
p569
S'.185'
p570
sg28
S'NBA'
p571
sS'_offensiveBoxPlusMinues'
p572
S'-8.2'
p573
sS'_assistPercentage'
p574
S'5.2'
p575
sS'_defensiveWinShares'
p576
S'0.3'
p577
sg40
S'21'
p578
sg42
S'NJN'
p579
sg44
S'39'
p580
sS'_blockPercentage'
p581
S'0.7'
p582
sS'_playerEfficiencyRating'
p583
S'0.7'
p584
sS'_offensiveWinShares'
p585
S'-0.8'
p586
sg64
S'370'
p587
sS'_boxPlusMinus'
p588
S'-9.0'
p589
sg56
S'2005-06'
p590
sS'_winShares'
p591
S'-0.5'
p592
sba(isrc.gp1.models.Advanced
Advanced
p593
(dp594
g546
S'4.0'
p595
sg548
S'13.2'
p596
sg550
S'.049'
p597
sg552
S'1.4'
p598
sg554
S'13.4'
p599
sg556
S'9.1'
p600
sg558
S'0.1'
p601
sg22
S'SG'
p602
sg561
S'-0.4'
p603
sg563
S'.500'
p604
sg565
S'14.1'
p605
sg567
S'.291'
p606
sg569
S'.235'
p607
sg28
S'NBA'
p608
sg572
S'-3.5'
p609
sg574
S'7.6'
p610
sg576
S'1.1'
p611
sg40
S'22'
p612
sg42
S'NJN'
p613
sg44
S'63'
p614
sg581
S'0.7'
p615
sg583
S'8.1'
p616
sg585
S'0.0'
p617
sg64
S'1137'
p618
sg588
S'-3.4'
p619
sg56
S'2006-07'
p620
sg591
S'1.2'
p621
sba(isrc.gp1.models.Advanced
Advanced
p622
(dp623
g546
S'3.8'
p624
sg548
S'12.2'
p625
sg550
S'.029'
p626
sg552
S'1.2'
p627
sg554
S'15.2'
p628
sg556
S'6.9'
p629
sg558
S'-0.4'
p630
sg22
S'SG'
p631
sg561
S'-0.2'
p632
sg563
S'.488'
p633
sg565
S'10.0'
p634
sg567
S'.204'
p635
sg569
S'.334'
p636
sg28
S'NBA'
p637
sg572
S'-2.4'
p638
sg574
S'10.5'
p639
sg576
S'0.8'
p640
sg40
S'23'
p641
sg42
S'TOT'
p642
sg44
S'56'
p643
sg581
S'1.3'
p644
sg583
S'8.4'
p645
sg585
S'0.0'
p646
sg64
S'1232'
p647
sg588
S'-2.8'
p648
sg56
S'2007-08'
p649
sg591
S'0.8'
p650
sba(isrc.gp1.models.Advanced
Advanced
p651
(dp652
g546
S'3.8'
p653
sg548
S'11.1'
p654
sg550
S'.025'
p655
sg552
S'1.3'
p656
sg554
S'15.2'
p657
sg556
S'6.9'
p658
sg558
S'-0.4'
p659
sg22
S'SG'
p660
sg561
S'-0.2'
p661
sg563
S'.477'
p662
sg565
S'9.9'
p663
sg567
S'.202'
p664
sg569
S'.352'
p665
sg28
S'NBA'
p666
sg572
S'-2.4'
p667
sg574
S'10.4'
p668
sg576
S'0.6'
p669
sg40
S'23'
p670
sg42
S'NJN'
p671
sg44
S'41'
p672
sg581
S'1.3'
p673
sg583
S'8.3'
p674
sg585
S'-0.1'
p675
sg64
S'1056'
p676
sg588
S'-2.8'
p677
sg56
S'2007-08'
p678
sg591
S'0.5'
p679
sba(isrc.gp1.models.Advanced
Advanced
p680
(dp681
g546
S'3.4'
p682
sg548
S'19.3'
p683
sg550
S'.056'
p684
sg552
S'0.6'
p685
sg554
S'15.1'
p686
sg556
S'7.2'
p687
sg558
S'-0.3'
p688
sg22
S'SG'
p689
sg561
S'0.0'
p690
sg563
S'.566'
p691
sg565
S'10.8'
p692
sg567
S'.214'
p693
sg569
S'.214'
p694
sg28
S'NBA'
p695
sg572
S'-2.4'
p696
sg574
S'11.4'
p697
sg576
S'0.2'
p698
sg40
S'23'
p699
sg42
S'DAL'
p700
sg44
S'15'
p701
sg581
S'1.7'
p702
sg583
S'9.0'
p703
sg585
S'0.0'
p704
sg64
S'176'
p705
sg588
S'-2.6'
p706
sg56
S'2007-08'
p707
sg591
S'0.2'
p708
sba(isrc.gp1.models.Advanced
Advanced
p709
(dp710
g546
S'2.3'
p711
sg548
S'10.3'
p712
sg550
S'.044'
p713
sg552
S'1.6'
p714
sg554
S'15.6'
p715
sg556
S'5.0'
p716
sg558
S'-0.1'
p717
sg22
S'SF'
p718
sg561
S'0.1'
p719
sg563
S'.501'
p720
sg565
S'7.7'
p721
sg567
S'.220'
p722
sg569
S'.346'
p723
sg28
S'NBA'
p724
sg572
S'-1.6'
p725
sg574
S'7.4'
p726
sg576
S'1.2'
p727
sg40
S'24'
p728
sg42
S'DAL'
p729
sg44
S'65'
p730
sg581
S'1.3'
p731
sg583
S'8.6'
p732
sg585
S'0.3'
p733
sg64
S'1552'
p734
sg588
S'-1.7'
p735
sg56
S'2008-09'
p736
sg591
S'1.4'
p737
sba(isrc.gp1.models.Advanced
Advanced
p738
(dp739
g546
S'3.3'
p740
sg548
S'11.8'
p741
sg550
S'.011'
p742
sg552
S'1.1'
p743
sg554
S'16.1'
p744
sg556
S'8.1'
p745
sg558
S'-1.7'
p746
sg22
S'SF'
p747
sg561
S'-0.3'
p748
sg563
S'.502'
p749
sg565
S'12.6'
p750
sg567
S'.193'
p751
sg569
S'.434'
p752
sg28
S'NBA'
p753
sg572
S'-1.0'
p754
sg574
S'7.4'
p755
sg576
S'0.2'
p756
sg40
S'25'
p757
sg42
S'TOR'
p758
sg44
S'67'
p759
sg581
S'0.6'
p760
sg583
S'8.6'
p761
sg585
S'0.1'
p762
sg64
S'1392'
p763
sg588
S'-2.7'
p764
sg56
S'2009-10'
p765
sg591
S'0.3'
p766
sba(isrc.gp1.models.Advanced
Advanced
p767
(dp768
g546
S'7.2'
p769
sg548
S'11.1'
p770
sg550
S'-0.179'
p771
sg552
S'1.6'
p772
sg554
S'12.6'
p773
sg556
S'5.5'
p774
sg558
S'-3.1'
p775
sg22
S'SG'
p776
sg561
S'-0.1'
p777
sg563
S'.125'
p778
sg565
S'3.8'
p779
sg567
S'.000'
p780
sg569
S'.500'
p781
sg28
S'NBA'
p782
sg572
S'-9.4'
p783
sg574
S'0.0'
p784
sg576
S'0.0'
p785
sg40
S'26'
p786
sg42
S'SAC'
p787
sg44
g264
sg581
S'0.0'
p788
sg583
S'-4.8'
p789
sg585
S'-0.1'
p790
sg64
S'31'
p791
sg588
S'-12.5'
p792
sg56
S'2010-11'
p793
sg591
S'-0.1'
p794
sbasS'_per36Minutes'
p795
(lp796
(isrc.gp1.models.Per36Minutes
Per36Minutes
p797
(dp798
g8
S'0.8'
p799
sg10
S'1.5'
p800
sg12
S'.358'
p801
sg14
S'1.2'
p802
sg16
S'.067'
p803
sg18
S'0.1'
p804
sg20
S'6.8'
p805
sg22
S'SG'
p806
sg24
S'.500'
p807
sg28
S'NBA'
p808
sg30
S'0.4'
p809
sg32
S'7.9'
p810
sg34
S'4.1'
p811
sg36
S'2.1'
p812
sg38
S'2.9'
p813
sg40
S'21'
p814
sg42
S'NJN'
p815
sg44
S'39'
p816
sg46
S'0.3'
p817
sg48
S'2.7'
p818
sg50
S'1.1'
p819
sg52
S'6.4'
p820
sg54
S'2.1'
p821
sg56
S'2005-06'
p822
sg58
S'2.8'
p823
sg60
S'2.0'
p824
sg62
S'.424'
p825
sg64
S'370'
p826
sg66
g67
sba(isrc.gp1.models.Per36Minutes
Per36Minutes
p827
(dp828
g8
S'1.2'
p829
sg10
S'1.9'
p830
sg12
S'.438'
p831
sg14
S'1.7'
p832
sg16
S'.322'
p833
sg18
S'0.6'
p834
sg20
S'9.0'
p835
sg22
S'SG'
p836
sg24
S'.603'
p837
sg28
S'NBA'
p838
sg30
S'0.9'
p839
sg32
S'7.9'
p840
sg34
S'3.8'
p841
sg36
S'2.3'
p842
sg38
S'5.5'
p843
sg40
S'22'
p844
sg42
S'NJN'
p845
sg44
S'63'
p846
sg46
S'0.3'
p847
sg48
S'2.9'
p848
sg50
S'1.4'
p849
sg52
S'6.1'
p850
sg54
S'4.3'
p851
sg56
S'2006-07'
p852
sg58
S'3.5'
p853
sg60
S'1.4'
p854
sg62
S'.474'
p855
sg64
S'1137'
p856
sg66
S'23'
p857
sba(isrc.gp1.models.Per36Minutes
Per36Minutes
p858
(dp859
g8
S'1.2'
p860
sg10
S'3.2'
p861
sg12
S'.413'
p862
sg14
S'2.3'
p863
sg16
S'.291'
p864
sg18
S'0.9'
p865
sg20
S'10.2'
p866
sg22
S'SG'
p867
sg24
S'.687'
p868
sg28
S'NBA'
p869
sg30
S'0.8'
p870
sg32
S'9.6'
p871
sg34
S'3.7'
p872
sg36
S'2.0'
p873
sg38
S'4.3'
p874
sg40
S'23'
p875
sg42
S'TOT'
p876
sg44
S'56'
p877
sg46
S'0.6'
p878
sg48
S'3.0'
p879
sg50
S'1.3'
p880
sg52
S'6.4'
p881
sg54
S'3.1'
p882
sg56
S'2007-08'
p883
sg58
S'4.0'
p884
sg60
S'1.5'
p885
sg62
S'.475'
p886
sg64
S'1232'
p887
sg66
S'10'
p888
sba(isrc.gp1.models.Per36Minutes
Per36Minutes
p889
(dp890
g8
S'1.2'
p891
sg10
S'3.4'
p892
sg12
S'.401'
p893
sg14
S'2.3'
p894
sg16
S'.267'
p895
sg18
S'0.9'
p896
sg20
S'10.2'
p897
sg22
S'SG'
p898
sg24
S'.707'
p899
sg28
S'NBA'
p900
sg30
S'0.9'
p901
sg32
S'9.8'
p902
sg34
S'3.6'
p903
sg36
S'2.0'
p904
sg38
S'4.3'
p905
sg40
S'23'
p906
sg42
S'NJN'
p907
sg44
S'41'
p908
sg46
S'0.6'
p909
sg48
S'3.0'
p910
sg50
S'1.4'
p911
sg52
S'6.3'
p912
sg54
S'3.1'
p913
sg56
S'2007-08'
p914
sg58
S'3.9'
p915
sg60
S'1.3'
p916
sg62
S'.473'
p917
sg64
S'1056'
p918
sg66
S'10'
p919
sba(isrc.gp1.models.Per36Minutes
Per36Minutes
p920
(dp921
g8
S'1.0'
p922
sg10
S'1.8'
p923
sg12
S'.500'
p924
sg14
S'2.7'
p925
sg16
S'.556'
p926
sg18
S'1.0'
p927
sg20
S'10.6'
p928
sg22
S'SG'
p929
sg24
S'.556'
p930
sg28
S'NBA'
p931
sg30
S'0.4'
p932
sg32
S'8.6'
p933
sg34
S'4.5'
p934
sg36
S'1.8'
p935
sg38
S'4.5'
p936
sg40
S'23'
p937
sg42
S'DAL'
p938
sg44
S'15'
p939
sg46
S'0.8'
p940
sg48
S'3.3'
p941
sg50
S'1.0'
p942
sg52
S'6.8'
p943
sg54
S'3.5'
p944
sg56
S'2007-08'
p945
sg58
S'4.3'
p946
sg60
S'2.3'
p947
sg62
S'.485'
p948
sg64
S'176'
p949
sg66
g67
sba(isrc.gp1.models.Per36Minutes
Per36Minutes
p950
(dp951
g8
S'0.7'
p952
sg10
S'3.5'
p953
sg12
S'.415'
p954
sg14
S'1.8'
p955
sg16
S'.302'
p956
sg18
S'1.0'
p957
sg20
S'11.0'
p958
sg22
S'SF'
p959
sg24
S'.747'
p960
sg28
S'NBA'
p961
sg30
S'1.1'
p962
sg32
S'10.0'
p963
sg34
S'4.0'
p964
sg36
S'2.2'
p965
sg38
S'3.2'
p966
sg40
S'24'
p967
sg42
S'DAL'
p968
sg44
S'65'
p969
sg46
S'0.6'
p970
sg48
S'3.1'
p971
sg50
S'1.6'
p972
sg52
S'6.5'
p973
sg54
S'2.4'
p974
sg56
S'2008-09'
p975
sg58
S'4.2'
p976
sg60
S'1.3'
p977
sg62
S'.475'
p978
sg64
S'1552'
p979
sg66
S'53'
p980
sba(isrc.gp1.models.Per36Minutes
Per36Minutes
p981
(dp982
g8
S'1.0'
p983
sg10
S'4.5'
p984
sg12
S'.406'
p985
sg14
S'1.8'
p986
sg16
S'.335'
p987
sg18
S'1.5'
p988
sg20
S'11.3'
p989
sg22
S'SF'
p990
sg24
S'.688'
p991
sg28
S'NBA'
p992
sg30
S'0.8'
p993
sg32
S'10.3'
p994
sg34
S'3.5'
p995
sg36
S'2.0'
p996
sg38
S'4.9'
p997
sg40
S'25'
p998
sg42
S'TOR'
p999
sg44
S'67'
p1000
sg46
S'0.3'
p1001
sg48
S'2.7'
p1002
sg50
S'1.4'
p1003
sg52
S'5.8'
p1004
sg54
S'3.9'
p1005
sg56
S'2009-10'
p1006
sg58
S'4.2'
p1007
sg60
S'1.5'
p1008
sg62
S'.460'
p1009
sg64
S'1392'
p1010
sg66
S'10'
p1011
sba(isrc.gp1.models.Per36Minutes
Per36Minutes
p1012
(dp1013
g8
S'1.2'
p1014
sg10
S'4.6'
p1015
sg12
S'.125'
p1016
sg14
S'1.2'
p1017
sg16
S'.000'
p1018
sg18
S'0.0'
p1019
sg20
g3
sg22
S'SG'
p1020
sg24
S'2.3'
p1021
sg28
S'NBA'
p1022
sg30
S'0.0'
p1023
sg32
S'9.3'
p1024
sg34
S'2.3'
p1025
sg36
S'0.0'
p1026
sg38
S'0.0'
p1027
sg40
S'26'
p1028
sg42
S'SAC'
p1029
sg44
g264
sg46
S'1.2'
p1030
sg48
S'1.2'
p1031
sg50
S'0.0'
p1032
sg52
S'4.6'
p1033
sg54
S'3.5'
p1034
sg56
S'2010-11'
p1035
sg58
S'1.2'
p1036
sg60
S'3.5'
p1037
sg62
S'.250'
p1038
sg64
S'31'
p1039
sg66
g67
sbasS'_fromYear'
p1040
S'2006'
p1041
sS'_url'
p1042
S'http://www.basketball-reference.com/players/w/wrighan01.html'
p1043
sS'_perGame'
p1044
(isrc.gp1.models.PerGame
PerGame
p1045
(dp1046
g8
S'0.1'
p1047
sg10
S'0.6'
p1048
sg12
S'.125'
p1049
sS'_effectiveFieldGalPercentage'
p1050
S'.125'
p1051
sg14
S'0.1'
p1052
sg16
S'.000'
p1053
sg18
S'0.0'
p1054
sg20
g3
sg22
S'SG'
p1055
sg24
S'0.3'
p1056
sg28
S'NBA'
p1057
sg30
S'0.0'
p1058
sg34
S'0.3'
p1059
sS'_fieldGoalsttempted'
p1060
S'1.1'
p1061
sg36
S'0.0'
p1062
sg38
S'0.0'
p1063
sg40
S'26'
p1064
sg42
S'SAC'
p1065
sg44
g264
sg46
S'0.1'
p1066
sg48
S'0.1'
p1067
sg50
S'0.0'
p1068
sg52
S'0.6'
p1069
sg54
S'0.4'
p1070
sg56
S'2010-11'
p1071
sg58
S'0.1'
p1072
sg60
S'0.4'
p1073
sg62
S'.250'
p1074
sg64
S'4.4'
p1075
sg66
g67
sbsS'_weight'
p1076
S'210'
p1077
sS'_dob'
p1078
S'6-2-1984'
p1079
sS'_salary'
p1080
(lp1081
(isrc.gp1.models.Salary
Salary
p1082
(dp1083
g42
S'New Jersey Nets'
p1084
sg28
S'NBA'
p1085
sg1080
S'$1,461,360'
p1086
sg56
S'2005-06'
p1087
sba(isrc.gp1.models.Salary
Salary
p1088
(dp1089
g42
S'New Jersey Nets'
p1090
sg28
S'NBA'
p1091
sg1080
S'$1,570,920'
p1092
sg56
S'2006-07'
p1093
sba(isrc.gp1.models.Salary
Salary
p1094
(dp1095
g42
S'Dallas Mavericks'
p1096
sg28
S'NBA'
p1097
sg1080
S'$1,680,600'
p1098
sg56
S'2007-08'
p1099
sba(isrc.gp1.models.Salary
Salary
p1100
(dp1101
g42
S'Dallas Mavericks'
p1102
sg28
S'NBA'
p1103
sg1080
S'$1,800,000'
p1104
sg56
S'2008-09'
p1105
sba(isrc.gp1.models.Salary
Salary
p1106
(dp1107
g42
S'Toronto Raptors'
p1108
sg28
S'NBA'
p1109
sg1080
S'$2,110,550'
p1110
sg56
S'2009-10'
p1111
sba(isrc.gp1.models.Salary
Salary
p1112
(dp1113
g42
S'Sacramento Kings'
p1114
sg28
S'NBA'
p1115
sg1080
S'$992,680'
p1116
sg56
S'2010-11'
p1117
sbasg22
S'G-F'
p1118
sb.