(isrc.gp1.models.Player
Player
p0
(dp1
S'_experience'
p2
S'NA'
p3
sS'_totals'
p4
(lp5
(isrc.gp1.models.Totals
Totals
p6
(dp7
S'_offensiveRebounds'
p8
g3
sS'_threePointsAttempted'
p9
g3
sS'_fieldGoalsPercentage'
p10
S'.444'
p11
sS'_assist'
p12
S'450'
p13
sS'_threePointsPercentage'
p14
g3
sS'_threePoints'
p15
g3
sS'_points'
p16
S'1308'
p17
sS'_position'
p18
S'PG'
p19
sS'_freeThrowsPercentage'
p20
S'.757'
p21
sS'_effectiveFieldGoalPercentage'
p22
S'.444'
p23
sS'_league'
p24
S'NBA'
p25
sS'_steals'
p26
g3
sS'_fieldGoalsAttempted'
p27
S'1095'
p28
sS'_personalFouls'
p29
S'218'
p30
sS'_freeThrowsAttempted'
p31
S'444'
p32
sS'_totalRebounds'
p33
S'242'
p34
sS'_age'
p35
S'22'
p36
sS'_team'
p37
S'CIN'
p38
sS'_games'
p39
S'82'
p40
sS'_blocks'
p41
g3
sS'_twoPoints'
p42
S'486'
p43
sS'_freeThrows'
p44
S'336'
p45
sS'_twoPointsAttempted'
p46
S'1095'
p47
sS'_defensiveRebounds'
p48
g3
sS'_season'
p49
S'1970-71'
p50
sS'_fieldGoals'
p51
S'486'
p52
sS'_turnOvers'
p53
g3
sS'_twoPointsPercentage'
p54
S'.444'
p55
sS'_minutesPlayed'
p56
S'2867'
p57
sS'_gamesStarted'
p58
g3
sba(isrc.gp1.models.Totals
Totals
p59
(dp60
g8
g3
sg9
g3
sg10
S'.486'
p61
sg12
S'701'
p62
sg14
g3
sg15
g3
sg16
S'2145'
p63
sg18
S'PG'
p64
sg20
S'.822'
p65
sg22
S'.486'
p66
sg24
S'NBA'
p67
sg26
g3
sg27
S'1511'
p68
sg29
S'198'
p69
sg31
S'824'
p70
sg33
S'222'
p71
sg35
S'23'
p72
sg37
S'CIN'
p73
sg39
S'76'
p74
sg41
g3
sg42
S'734'
p75
sg44
S'677'
p76
sg46
S'1511'
p77
sg48
g3
sg49
S'1971-72'
p78
sg51
S'734'
p79
sg53
g3
sg54
S'.486'
p80
sg56
S'3272'
p81
sg58
g3
sba(isrc.gp1.models.Totals
Totals
p82
(dp83
g8
g3
sg9
g3
sg10
S'.488'
p84
sg12
S'910'
p85
sg14
g3
sg15
g3
sg16
S'2719'
p86
sg18
S'PG'
p87
sg20
S'.847'
p88
sg22
S'.488'
p89
sg24
S'NBA'
p90
sg26
g3
sg27
S'2106'
p91
sg29
S'207'
p92
sg31
S'783'
p93
sg33
S'223'
p94
sg35
S'24'
p95
sg37
S'KCO'
p96
sg39
S'80'
p97
sg41
g3
sg42
S'1028'
p98
sg44
S'663'
p99
sg46
S'2106'
p100
sg48
g3
sg49
S'1972-73'
p101
sg51
S'1028'
p102
sg53
g3
sg54
S'.488'
p103
sg56
S'3681'
p104
sg58
g3
sba(isrc.gp1.models.Totals
Totals
p105
(dp106
g8
S'21'
p107
sg9
g3
sg10
S'.451'
p108
sg12
S'266'
p109
sg14
g3
sg15
g3
sg16
S'617'
p110
sg18
S'PG'
p111
sg20
S'.820'
p112
sg22
S'.451'
p113
sg24
S'NBA'
p114
sg26
S'56'
p115
sg27
S'492'
p116
sg29
S'76'
p117
sg31
S'211'
p118
sg33
S'85'
p119
sg35
S'25'
p120
sg37
S'KCO'
p121
sg39
S'35'
p122
sg41
S'7'
p123
sg42
S'222'
p124
sg44
S'173'
p125
sg46
S'492'
p126
sg48
S'64'
p127
sg49
S'1973-74'
p128
sg51
S'222'
p129
sg53
g3
sg54
S'.451'
p130
sg56
S'1272'
p131
sg58
g3
sba(isrc.gp1.models.Totals
Totals
p132
(dp133
g8
S'48'
p134
sg9
g3
sg10
S'.456'
p135
sg12
S'557'
p136
sg14
g3
sg15
g3
sg16
S'2170'
p137
sg18
S'PG'
p138
sg20
S'.872'
p139
sg22
S'.456'
p140
sg24
S'NBA'
p141
sg26
S'119'
p142
sg27
S'1664'
p143
sg29
S'187'
p144
sg31
S'748'
p145
sg33
S'222'
p146
sg35
S'26'
p147
sg37
S'KCO'
p148
sg39
S'82'
p149
sg41
g123
sg42
S'759'
p150
sg44
S'652'
p151
sg46
S'1664'
p152
sg48
S'174'
p153
sg49
S'1974-75'
p154
sg51
S'759'
p155
sg53
g3
sg54
S'.456'
p156
sg56
S'3244'
p157
sg58
g3
sba(isrc.gp1.models.Totals
Totals
p158
(dp159
g8
S'67'
p160
sg9
g3
sg10
S'.453'
p161
sg12
S'615'
p162
sg14
g3
sg15
g3
sg16
S'1935'
p163
sg18
S'PG'
p164
sg20
S'.802'
p165
sg22
S'.453'
p166
sg24
S'NBA'
p167
sg26
S'126'
p168
sg27
S'1583'
p169
sg29
S'169'
p170
sg31
S'625'
p171
sg33
S'213'
p172
sg35
S'27'
p173
sg37
S'KCK'
p174
sg39
S'78'
p175
sg41
S'15'
p176
sg42
S'717'
p177
sg44
S'501'
p178
sg46
S'1583'
p179
sg48
S'146'
p180
sg49
S'1975-76'
p181
sg51
S'717'
p182
sg53
g3
sg54
S'.453'
p183
sg56
S'3184'
p184
sg58
g3
sba(isrc.gp1.models.Totals
Totals
p185
(dp186
g8
S'22'
p187
sg9
g3
sg10
S'.446'
p188
sg12
S'254'
p189
sg14
g3
sg15
g3
sg16
S'697'
p190
sg18
S'PG'
p191
sg20
S'.785'
p192
sg22
S'.446'
p193
sg24
S'NBA'
p194
sg26
S'59'
p195
sg27
S'560'
p196
sg29
S'77'
p197
sg31
S'251'
p198
sg33
S'80'
p199
sg35
S'28'
p200
sg37
S'NYN'
p201
sg39
S'34'
p202
sg41
S'11'
p203
sg42
S'250'
p204
sg44
S'197'
p205
sg46
S'560'
p206
sg48
S'58'
p207
sg49
S'1976-77'
p208
sg51
S'250'
p209
sg53
g3
sg54
S'.446'
p210
sg56
S'1277'
p211
sg58
g3
sba(isrc.gp1.models.Totals
Totals
p212
(dp213
g8
g3
sg9
g3
sg10
g3
sg12
g3
sg14
g3
sg15
g3
sg16
g3
sg18
g3
sg20
g3
sg22
g3
sg24
g3
sg26
g3
sg27
g3
sg29
g3
sg31
g3
sg33
g3
sg35
S'29'
p214
sg37
S'Did Not Play\xc2\xa0(injury\xe2\x80\x94achilles)'
p215
sg39
g3
sg41
g3
sg42
g3
sg44
g3
sg46
g3
sg48
g3
sg49
S'1977-78'
p216
sg51
g3
sg53
g3
sg54
g3
sg56
g3
sg58
g3
sba(isrc.gp1.models.Totals
Totals
p217
(dp218
g8
S'25'
p219
sg9
g3
sg10
S'.452'
p220
sg12
S'324'
p221
sg14
g3
sg15
g3
sg16
S'760'
p222
sg18
S'PG'
p223
sg20
S'.788'
p224
sg22
S'.452'
p225
sg24
S'NBA'
p226
sg26
S'55'
p227
sg27
S'573'
p228
sg29
S'132'
p229
sg31
S'307'
p230
sg33
S'103'
p231
sg35
S'30'
p232
sg37
S'BOS'
p233
sg39
S'69'
p234
sg41
S'6'
p235
sg42
S'259'
p236
sg44
S'242'
p237
sg46
S'573'
p238
sg48
S'78'
p239
sg49
S'1978-79'
p240
sg51
S'259'
p241
sg53
S'197'
p242
sg54
S'.452'
p243
sg56
S'1662'
p244
sg58
g3
sba(isrc.gp1.models.Totals
Totals
p245
(dp246
g8
S'59'
p247
sg9
S'18'
p248
sg10
S'.482'
p249
sg12
S'671'
p250
sg14
S'.222'
p251
sg15
S'4'
p252
sg16
S'1131'
p253
sg18
S'PG'
p254
sg20
S'.830'
p255
sg22
S'.485'
p256
sg24
S'NBA'
p257
sg26
S'106'
p258
sg27
S'794'
p259
sg29
S'218'
p260
sg31
S'435'
p261
sg33
S'197'
p262
sg35
S'31'
p263
sg37
S'BOS'
p264
sg39
S'80'
p265
sg41
S'10'
p266
sg42
S'379'
p267
sg44
S'361'
p268
sg46
S'776'
p269
sg48
S'138'
p270
sg49
S'1979-80'
p271
sg51
S'383'
p272
sg53
S'242'
p273
sg54
S'.488'
p274
sg56
S'2864'
p275
sg58
S'80'
p276
sba(isrc.gp1.models.Totals
Totals
p277
(dp278
g8
S'36'
p279
sg9
S'9'
p280
sg10
S'.499'
p281
sg12
S'618'
p282
sg14
S'.000'
p283
sg15
S'0'
p284
sg16
S'1106'
p285
sg18
S'PG'
p286
sg20
S'.816'
p287
sg22
S'.499'
p288
sg24
S'NBA'
p289
sg26
S'75'
p290
sg27
S'766'
p291
sg29
S'201'
p292
sg31
S'419'
p293
sg33
S'176'
p294
sg35
S'32'
p295
sg37
S'BOS'
p296
sg39
S'80'
p297
sg41
S'18'
p298
sg42
S'382'
p299
sg44
S'342'
p300
sg46
S'757'
p301
sg48
S'140'
p302
sg49
S'1980-81'
p303
sg51
S'382'
p304
sg53
S'265'
p305
sg54
S'.505'
p306
sg56
S'2820'
p307
sg58
S'72'
p308
sba(isrc.gp1.models.Totals
Totals
p309
(dp310
g8
S'25'
p311
sg9
S'16'
p312
sg10
S'.472'
p313
sg12
S'541'
p314
sg14
S'.375'
p315
sg15
g235
sg16
S'858'
p316
sg18
S'PG'
p317
sg20
S'.747'
p318
sg22
S'.477'
p319
sg24
S'NBA'
p320
sg26
S'52'
p321
sg27
S'652'
p322
sg29
S'131'
p323
sg31
S'316'
p324
sg33
S'116'
p325
sg35
S'33'
p326
sg37
S'BOS'
p327
sg39
S'68'
p328
sg41
S'3'
p329
sg42
S'302'
p330
sg44
S'236'
p331
sg46
S'636'
p332
sg48
S'91'
p333
sg49
S'1981-82'
p334
sg51
S'308'
p335
sg53
S'178'
p336
sg54
S'.475'
p337
sg56
S'2167'
p338
sg58
S'51'
p339
sba(isrc.gp1.models.Totals
Totals
p340
(dp341
g8
S'25'
p342
sg9
S'24'
p343
sg10
S'.425'
p344
sg12
S'409'
p345
sg14
S'.208'
p346
sg15
S'5'
p347
sg16
S'695'
p348
sg18
S'PG'
p349
sg20
S'.743'
p350
sg22
S'.429'
p351
sg24
S'NBA'
p352
sg26
S'38'
p353
sg27
S'553'
p354
sg29
S'110'
p355
sg31
S'296'
p356
sg33
S'91'
p357
sg35
S'34'
p358
sg37
S'BOS'
p359
sg39
S'66'
p360
sg41
g252
sg42
S'230'
p361
sg44
S'220'
p362
sg46
S'529'
p363
sg48
S'66'
p364
sg49
S'1982-83'
p365
sg51
S'235'
p366
sg53
S'163'
p367
sg54
S'.435'
p368
sg56
S'1811'
p369
sg58
S'19'
p370
sba(isrc.gp1.models.Totals
Totals
p371
(dp372
g8
S'16'
p373
sg9
S'18'
p374
sg10
S'.487'
p375
sg12
S'160'
p376
sg14
S'.222'
p377
sg15
g252
sg16
S'340'
p378
sg18
S'PG'
p379
sg20
S'.634'
p380
sg22
S'.495'
p381
sg24
S'NBA'
p382
sg26
S'33'
p383
sg27
S'279'
p384
sg29
S'78'
p385
sg31
S'101'
p386
sg33
S'76'
p387
sg35
S'35'
p388
sg37
S'MIL'
p389
sg39
S'46'
p390
sg41
g284
sg42
S'132'
p391
sg44
S'64'
p392
sg46
S'261'
p393
sg48
S'60'
p394
sg49
S'1983-84'
p395
sg51
S'136'
p396
sg53
S'78'
p397
sg54
S'.506'
p398
sg56
S'1038'
p399
sg58
S'46'
p400
sbasS'_college'
p401
S'University of Texas at El Paso'
p402
sS'_toYear'
p403
S'1984'
p404
sS'_height'
p405
S'6-1'
p406
sS'_active'
p407
I00
sS'_shootingHand'
p408
VLeft
p409
sS'_name'
p410
S'Tiny Archibald'
p411
sS'_per100Possessions'
p412
(lp413
(isrc.gp1.models.Per100Possession
Per100Possession
p414
(dp415
g8
S'0.7'
p416
sg9
g3
sg10
S'.451'
p417
sS'_offensiveRating'
p418
g3
sg12
S'9.5'
p419
sg14
g3
sg15
g3
sg16
S'21.9'
p420
sg18
S'PG'
p421
sS'_defensiveRating'
p422
S'102'
p423
sg20
S'.820'
p424
sg24
S'NBA'
p425
sg26
S'2.0'
p426
sg27
S'17.5'
p427
sg29
S'2.7'
p428
sg31
S'7.5'
p429
sg33
S'3.0'
p430
sg35
S'25'
p431
sg37
S'KCO'
p432
sg39
S'35'
p433
sg41
S'0.2'
p434
sg42
S'7.9'
p435
sg44
S'6.2'
p436
sg46
S'17.5'
p437
sg48
S'2.3'
p438
sg49
S'1973-74'
p439
sg51
S'7.9'
p440
sg53
g3
sg54
S'.451'
p441
sg56
S'1272'
p442
sg58
g3
sba(isrc.gp1.models.Per100Possession
Per100Possession
p443
(dp444
g8
S'0.7'
p445
sg9
g3
sg10
S'.456'
p446
sg418
g3
sg12
S'7.9'
p447
sg14
g3
sg15
g3
sg16
S'30.8'
p448
sg18
S'PG'
p449
sg422
S'100'
p450
sg20
S'.872'
p451
sg24
S'NBA'
p452
sg26
S'1.7'
p453
sg27
S'23.6'
p454
sg29
S'2.7'
p455
sg31
S'10.6'
p456
sg33
S'3.1'
p457
sg35
S'26'
p458
sg37
S'KCO'
p459
sg39
S'82'
p460
sg41
S'0.1'
p461
sg42
S'10.8'
p462
sg44
S'9.2'
p463
sg46
S'23.6'
p464
sg48
S'2.5'
p465
sg49
S'1974-75'
p466
sg51
S'10.8'
p467
sg53
g3
sg54
S'.456'
p468
sg56
S'3244'
p469
sg58
g3
sba(isrc.gp1.models.Per100Possession
Per100Possession
p470
(dp471
g8
S'1.0'
p472
sg9
g3
sg10
S'.453'
p473
sg418
g3
sg12
S'8.8'
p474
sg14
g3
sg15
g3
sg16
S'27.6'
p475
sg18
S'PG'
p476
sg422
S'103'
p477
sg20
S'.802'
p478
sg24
S'NBA'
p479
sg26
S'1.8'
p480
sg27
S'22.6'
p481
sg29
S'2.4'
p482
sg31
S'8.9'
p483
sg33
S'3.0'
p484
sg35
S'27'
p485
sg37
S'KCK'
p486
sg39
S'78'
p487
sg41
S'0.2'
p488
sg42
S'10.2'
p489
sg44
S'7.1'
p490
sg46
S'22.6'
p491
sg48
S'2.1'
p492
sg49
S'1975-76'
p493
sg51
S'10.2'
p494
sg53
g3
sg54
S'.453'
p495
sg56
S'3184'
p496
sg58
g3
sba(isrc.gp1.models.Per100Possession
Per100Possession
p497
(dp498
g8
S'0.8'
p499
sg9
g3
sg10
S'.446'
p500
sg418
g3
sg12
S'9.2'
p501
sg14
g3
sg15
g3
sg16
S'25.3'
p502
sg18
S'PG'
p503
sg422
S'102'
p504
sg20
S'.785'
p505
sg24
S'NBA'
p506
sg26
S'2.1'
p507
sg27
S'20.3'
p508
sg29
S'2.8'
p509
sg31
S'9.1'
p510
sg33
S'2.9'
p511
sg35
S'28'
p512
sg37
S'NYN'
p513
sg39
S'34'
p514
sg41
S'0.4'
p515
sg42
S'9.1'
p516
sg44
S'7.1'
p517
sg46
S'20.3'
p518
sg48
S'2.1'
p519
sg49
S'1976-77'
p520
sg51
S'9.1'
p521
sg53
g3
sg54
S'.446'
p522
sg56
S'1277'
p523
sg58
g3
sba(isrc.gp1.models.Per100Possession
Per100Possession
p524
(dp525
g8
S'0.7'
p526
sg9
g3
sg10
S'.452'
p527
sg418
S'100'
p528
sg12
S'8.8'
p529
sg14
g3
sg15
g3
sg16
S'20.6'
p530
sg18
S'PG'
p531
sg422
S'109'
p532
sg20
S'.788'
p533
sg24
S'NBA'
p534
sg26
S'1.5'
p535
sg27
S'15.5'
p536
sg29
S'3.6'
p537
sg31
S'8.3'
p538
sg33
S'2.8'
p539
sg35
S'30'
p540
sg37
S'BOS'
p541
sg39
S'69'
p542
sg41
S'0.2'
p543
sg42
S'7.0'
p544
sg44
S'6.6'
p545
sg46
S'15.5'
p546
sg48
S'2.1'
p547
sg49
S'1978-79'
p548
sg51
S'7.0'
p549
sg53
S'5.3'
p550
sg54
S'.452'
p551
sg56
S'1662'
p552
sg58
g3
sba(isrc.gp1.models.Per100Possession
Per100Possession
p553
(dp554
g8
S'1.0'
p555
sg9
S'0.3'
p556
sg10
S'.482'
p557
sg418
S'115'
p558
sg12
S'11.0'
p559
sg14
S'.222'
p560
sg15
S'0.1'
p561
sg16
S'18.5'
p562
sg18
S'PG'
p563
sg422
S'105'
p564
sg20
S'.830'
p565
sg24
S'NBA'
p566
sg26
S'1.7'
p567
sg27
S'13.0'
p568
sg29
S'3.6'
p569
sg31
S'7.1'
p570
sg33
S'3.2'
p571
sg35
S'31'
p572
sg37
S'BOS'
p573
sg39
S'80'
p574
sg41
S'0.2'
p575
sg42
S'6.2'
p576
sg44
S'5.9'
p577
sg46
S'12.7'
p578
sg48
S'2.3'
p579
sg49
S'1979-80'
p580
sg51
S'6.3'
p581
sg53
S'4.0'
p582
sg54
S'.488'
p583
sg56
S'2864'
p584
sg58
S'80'
p585
sba(isrc.gp1.models.Per100Possession
Per100Possession
p586
(dp587
g8
S'0.6'
p588
sg9
S'0.2'
p589
sg10
S'.499'
p590
sg418
S'111'
p591
sg12
S'10.4'
p592
sg14
S'.000'
p593
sg15
S'0.0'
p594
sg16
S'18.7'
p595
sg18
S'PG'
p596
sg422
S'107'
p597
sg20
S'.816'
p598
sg24
S'NBA'
p599
sg26
S'1.3'
p600
sg27
S'12.9'
p601
sg29
S'3.4'
p602
sg31
S'7.1'
p603
sg33
S'3.0'
p604
sg35
S'32'
p605
sg37
S'BOS'
p606
sg39
S'80'
p607
sg41
S'0.3'
p608
sg42
S'6.5'
p609
sg44
S'5.8'
p610
sg46
S'12.8'
p611
sg48
S'2.4'
p612
sg49
S'1980-81'
p613
sg51
S'6.5'
p614
sg53
S'4.5'
p615
sg54
S'.505'
p616
sg56
S'2820'
p617
sg58
S'72'
p618
sba(isrc.gp1.models.Per100Possession
Per100Possession
p619
(dp620
g8
S'0.5'
p621
sg9
S'0.3'
p622
sg10
S'.472'
p623
sg418
S'112'
p624
sg12
S'11.8'
p625
sg14
S'.375'
p626
sg15
S'0.1'
p627
sg16
S'18.7'
p628
sg18
S'PG'
p629
sg422
S'109'
p630
sg20
S'.747'
p631
sg24
S'NBA'
p632
sg26
S'1.1'
p633
sg27
S'14.2'
p634
sg29
S'2.9'
p635
sg31
S'6.9'
p636
sg33
S'2.5'
p637
sg35
S'33'
p638
sg37
S'BOS'
p639
sg39
S'68'
p640
sg41
S'0.1'
p641
sg42
S'6.6'
p642
sg44
S'5.2'
p643
sg46
S'13.9'
p644
sg48
S'2.0'
p645
sg49
S'1981-82'
p646
sg51
S'6.7'
p647
sg53
S'3.9'
p648
sg54
S'.475'
p649
sg56
S'2167'
p650
sg58
S'51'
p651
sba(isrc.gp1.models.Per100Possession
Per100Possession
p652
(dp653
g8
S'0.6'
p654
sg9
S'0.6'
p655
sg10
S'.425'
p656
sg418
S'104'
p657
sg12
S'10.4'
p658
sg14
S'.208'
p659
sg15
S'0.1'
p660
sg16
S'17.7'
p661
sg18
S'PG'
p662
sg422
S'108'
p663
sg20
S'.743'
p664
sg24
S'NBA'
p665
sg26
S'1.0'
p666
sg27
S'14.1'
p667
sg29
S'2.8'
p668
sg31
S'7.5'
p669
sg33
S'2.3'
p670
sg35
S'34'
p671
sg37
S'BOS'
p672
sg39
S'66'
p673
sg41
S'0.1'
p674
sg42
S'5.9'
p675
sg44
S'5.6'
p676
sg46
S'13.5'
p677
sg48
S'1.7'
p678
sg49
S'1982-83'
p679
sg51
S'6.0'
p680
sg53
S'4.2'
p681
sg54
S'.435'
p682
sg56
S'1811'
p683
sg58
S'19'
p684
sba(isrc.gp1.models.Per100Possession
Per100Possession
p685
(dp686
g8
S'0.8'
p687
sg9
S'0.9'
p688
sg10
S'.487'
p689
sg418
S'102'
p690
sg12
S'7.6'
p691
sg14
S'.222'
p692
sg15
S'0.2'
p693
sg16
S'16.2'
p694
sg18
S'PG'
p695
sg422
S'107'
p696
sg20
S'.634'
p697
sg24
S'NBA'
p698
sg26
S'1.6'
p699
sg27
S'13.3'
p700
sg29
S'3.7'
p701
sg31
S'4.8'
p702
sg33
S'3.6'
p703
sg35
S'35'
p704
sg37
S'MIL'
p705
sg39
S'46'
p706
sg41
S'0.0'
p707
sg42
S'6.3'
p708
sg44
S'3.1'
p709
sg46
S'12.5'
p710
sg48
S'2.9'
p711
sg49
S'1983-84'
p712
sg51
S'6.5'
p713
sg53
S'3.7'
p714
sg54
S'.506'
p715
sg56
S'1038'
p716
sg58
S'46'
p717
sbasS'_advanced'
p718
(lp719
(isrc.gp1.models.Advanced
Advanced
p720
(dp721
S'_offensiveReboundPercentage'
p722
g3
sS'_turnOverPercentage'
p723
g3
sS'_winSharesPer48Minutes'
p724
S'.085'
p725
sS'_stealPercentage'
p726
g3
sS'_usagePercentage'
p727
g3
sS'_totalReboundsPercentage'
p728
S'3.8'
p729
sS'_defensiveBoxPlusMinus'
p730
g3
sg18
S'PG'
p731
sS'_valueOverReplacementPlayer'
p732
g3
sS'_trueShootingPercentage'
p733
S'.507'
p734
sS'_defensiveReboundPercentage'
p735
g3
sS'_freeThrowsAttempRate'
p736
S'.405'
p737
sS'_threePointsAttempRate'
p738
g3
sg24
S'NBA'
p739
sS'_offensiveBoxPlusMinues'
p740
g3
sS'_assistPercentage'
p741
S'19.9'
p742
sS'_defensiveWinShares'
p743
S'1.7'
p744
sg35
S'22'
p745
sg37
S'CIN'
p746
sg39
S'82'
p747
sS'_blockPercentage'
p748
g3
sS'_playerEfficiencyRating'
p749
S'14.0'
p750
sS'_offensiveWinShares'
p751
S'3.4'
p752
sg56
S'2867'
p753
sS'_boxPlusMinus'
p754
g3
sg49
S'1970-71'
p755
sS'_winShares'
p756
S'5.1'
p757
sba(isrc.gp1.models.Advanced
Advanced
p758
(dp759
g722
g3
sg723
g3
sg724
S'.189'
p760
sg726
g3
sg727
g3
sg728
S'3.4'
p761
sg730
g3
sg18
S'PG'
p762
sg732
g3
sg733
S'.572'
p763
sg735
g3
sg736
S'.545'
p764
sg738
g3
sg24
S'NBA'
p765
sg740
g3
sg741
S'33.2'
p766
sg743
S'1.1'
p767
sg35
S'23'
p768
sg37
S'CIN'
p769
sg39
S'76'
p770
sg748
g3
sg749
S'23.0'
p771
sg751
S'11.8'
p772
sg56
S'3272'
p773
sg754
g3
sg49
S'1971-72'
p774
sg756
S'12.9'
p775
sba(isrc.gp1.models.Advanced
Advanced
p776
(dp777
g722
g3
sg723
g3
sg724
S'.186'
p778
sg726
g3
sg727
g3
sg728
S'3.2'
p779
sg730
g3
sg18
S'PG'
p780
sg732
g3
sg733
S'.555'
p781
sg735
g3
sg736
S'.372'
p782
sg738
g3
sg24
S'NBA'
p783
sg740
g3
sg741
S'38.9'
p784
sg743
S'0.3'
p785
sg35
S'24'
p786
sg37
S'KCO'
p787
sg39
S'80'
p788
sg748
g3
sg749
S'25.2'
p789
sg751
S'13.9'
p790
sg56
S'3681'
p791
sg754
g3
sg49
S'1972-73'
p792
sg756
S'14.2'
p793
sba(isrc.gp1.models.Advanced
Advanced
p794
(dp795
g722
S'1.7'
p796
sg723
g3
sg724
S'.088'
p797
sg726
S'2.0'
p798
sg727
g3
sg728
S'3.5'
p799
sg730
S'-2.3'
p800
sg18
S'PG'
p801
sg732
S'0.8'
p802
sg733
S'.527'
p803
sg735
S'5.3'
p804
sg736
S'.429'
p805
sg738
g3
sg24
S'NBA'
p806
sg740
S'2.9'
p807
sg741
S'30.7'
p808
sg743
S'0.5'
p809
sg35
S'25'
p810
sg37
S'KCO'
p811
sg39
S'35'
p812
sg748
S'0.3'
p813
sg749
S'18.3'
p814
sg751
S'1.8'
p815
sg56
S'1272'
p816
sg754
S'0.6'
p817
sg49
S'1973-74'
p818
sg756
S'2.3'
p819
sba(isrc.gp1.models.Advanced
Advanced
p820
(dp821
g722
S'1.5'
p822
sg723
g3
sg724
S'.165'
p823
sg726
S'1.7'
p824
sg727
g3
sg728
S'3.5'
p825
sg730
S'-2.5'
p826
sg18
S'PG'
p827
sg732
S'4.6'
p828
sg733
S'.544'
p829
sg735
S'5.6'
p830
sg736
S'.450'
p831
sg738
g3
sg24
S'NBA'
p832
sg740
S'6.1'
p833
sg741
S'29.0'
p834
sg743
S'2.2'
p835
sg35
S'26'
p836
sg37
S'KCO'
p837
sg39
S'82'
p838
sg748
S'0.1'
p839
sg749
S'21.7'
p840
sg751
S'9.0'
p841
sg56
S'3244'
p842
sg754
S'3.6'
p843
sg49
S'1974-75'
p844
sg756
S'11.2'
p845
sba(isrc.gp1.models.Advanced
Advanced
p846
(dp847
g722
S'2.1'
p848
sg723
g3
sg724
S'.121'
p849
sg726
S'1.8'
p850
sg727
g3
sg728
S'3.4'
p851
sg730
S'-2.6'
p852
sg18
S'PG'
p853
sg732
S'3.4'
p854
sg733
S'.521'
p855
sg735
S'4.7'
p856
sg736
S'.395'
p857
sg738
g3
sg24
S'NBA'
p858
sg740
S'4.8'
p859
sg741
S'31.1'
p860
sg743
S'1.3'
p861
sg35
S'27'
p862
sg37
S'KCK'
p863
sg39
S'78'
p864
sg748
S'0.2'
p865
sg749
S'20.1'
p866
sg751
S'6.7'
p867
sg56
S'3184'
p868
sg754
S'2.3'
p869
sg49
S'1975-76'
p870
sg756
S'8.0'
p871
sba(isrc.gp1.models.Advanced
Advanced
p872
(dp873
g722
S'1.7'
p874
sg723
g3
sg724
S'.104'
p875
sg726
S'2.1'
p876
sg727
g3
sg728
S'3.2'
p877
sg730
S'-1.9'
p878
sg18
S'PG'
p879
sg732
S'1.4'
p880
sg733
S'.520'
p881
sg735
S'4.8'
p882
sg736
S'.448'
p883
sg738
g3
sg24
S'NBA'
p884
sg740
S'4.1'
p885
sg741
S'33.8'
p886
sg743
S'1.0'
p887
sg35
S'28'
p888
sg37
S'NYN'
p889
sg39
S'34'
p890
sg748
S'0.5'
p891
sg749
S'19.4'
p892
sg751
S'1.8'
p893
sg56
S'1277'
p894
sg754
S'2.2'
p895
sg49
S'1976-77'
p896
sg756
S'2.8'
p897
sba(isrc.gp1.models.Advanced
Advanced
p898
(dp899
g722
S'1.7'
p900
sg723
S'21.8'
p901
sg724
S'.046'
p902
sg726
S'1.5'
p903
sg727
S'21.3'
p904
sg728
S'3.4'
p905
sg730
S'-3.1'
p906
sg18
S'PG'
p907
sg732
S'-1.1'
p908
sg733
S'.537'
p909
sg735
S'5.3'
p910
sg736
S'.536'
p911
sg738
g3
sg24
S'NBA'
p912
sg740
S'-1.5'
p913
sg741
S'26.3'
p914
sg743
S'0.6'
p915
sg35
S'30'
p916
sg37
S'BOS'
p917
sg39
S'69'
p918
sg748
S'0.2'
p919
sg749
S'13.1'
p920
sg751
S'1.0'
p921
sg56
S'1662'
p922
sg754
S'-4.7'
p923
sg49
S'1978-79'
p924
sg756
S'1.6'
p925
sba(isrc.gp1.models.Advanced
Advanced
p926
(dp927
g722
S'2.3'
p928
sg723
S'19.7'
p929
sg724
S'.148'
p930
sg726
S'1.7'
p931
sg727
S'17.0'
p932
sg728
S'3.8'
p933
sg730
S'-1.1'
p934
sg18
S'PG'
p935
sg732
S'1.5'
p936
sg733
S'.574'
p937
sg735
S'5.3'
p938
sg736
S'.548'
p939
sg738
S'.023'
p940
sg24
S'NBA'
p941
sg740
S'1.1'
p942
sg741
S'30.2'
p943
sg743
S'2.9'
p944
sg35
S'31'
p945
sg37
S'BOS'
p946
sg39
S'80'
p947
sg748
S'0.2'
p948
sg749
S'15.3'
p949
sg751
S'5.9'
p950
sg56
S'2864'
p951
sg754
S'0.0'
p952
sg49
S'1979-80'
p953
sg756
S'8.9'
p954
sba(isrc.gp1.models.Advanced
Advanced
p955
(dp956
g722
S'1.5'
p957
sg723
S'21.8'
p958
sg724
S'.118'
p959
sg726
S'1.3'
p960
sg727
S'17.5'
p961
sg728
S'3.6'
p962
sg730
S'-1.6'
p963
sg18
S'PG'
p964
sg732
S'0.5'
p965
sg733
S'.582'
p966
sg735
S'5.4'
p967
sg736
S'.547'
p968
sg738
S'.012'
p969
sg24
S'NBA'
p970
sg740
S'0.4'
p971
sg741
S'28.5'
p972
sg743
S'2.3'
p973
sg35
S'32'
p974
sg37
S'BOS'
p975
sg39
S'80'
p976
sg748
S'0.4'
p977
sg749
S'14.3'
p978
sg751
S'4.6'
p979
sg56
S'2820'
p980
sg754
S'-1.3'
p981
sg49
S'1980-81'
p982
sg756
S'6.9'
p983
sba(isrc.gp1.models.Advanced
Advanced
p984
(dp985
g722
S'1.3'
p986
sg723
S'18.4'
p987
sg724
S'.115'
p988
sg726
S'1.1'
p989
sg727
S'17.9'
p990
sg728
S'2.9'
p991
sg730
S'-2.5'
p992
sg18
S'PG'
p993
sg732
S'-0.2'
p994
sg733
S'.542'
p995
sg735
S'4.5'
p996
sg736
S'.485'
p997
sg738
S'.025'
p998
sg24
S'NBA'
p999
sg740
S'0.1'
p1000
sg741
S'31.9'
p1001
sg743
S'1.8'
p1002
sg35
S'33'
p1003
sg37
S'BOS'
p1004
sg39
S'68'
p1005
sg748
S'0.1'
p1006
sg749
S'14.3'
p1007
sg751
S'3.4'
p1008
sg56
S'2167'
p1009
sg754
S'-2.5'
p1010
sg49
S'1981-82'
p1011
sg756
S'5.2'
p1012
sba(isrc.gp1.models.Advanced
Advanced
p1013
(dp1014
g722
S'1.5'
p1015
sg723
S'19.3'
p1016
sg724
S'.077'
p1017
sg726
S'1.0'
p1018
sg727
S'18.3'
p1019
sg728
S'2.7'
p1020
sg730
S'-3.0'
p1021
sg18
S'PG'
p1022
sg732
S'-1.1'
p1023
sg733
S'.509'
p1024
sg735
S'3.9'
p1025
sg736
S'.535'
p1026
sg738
S'.043'
p1027
sg24
S'NBA'
p1028
sg740
S'-1.3'
p1029
sg741
S'28.0'
p1030
sg743
S'1.2'
p1031
sg35
S'34'
p1032
sg37
S'BOS'
p1033
sg39
S'66'
p1034
sg748
S'0.1'
p1035
sg749
S'12.3'
p1036
sg751
S'1.7'
p1037
sg56
S'1811'
p1038
sg754
S'-4.4'
p1039
sg49
S'1982-83'
p1040
sg756
S'2.9'
p1041
sba(isrc.gp1.models.Advanced
Advanced
p1042
(dp1043
g722
S'1.8'
p1044
sg723
S'19.4'
p1045
sg724
S'.065'
p1046
sg726
S'1.6'
p1047
sg727
S'16.3'
p1048
sg728
S'4.2'
p1049
sg730
S'-1.0'
p1050
sg18
S'PG'
p1051
sg732
S'-0.3'
p1052
sg733
S'.526'
p1053
sg735
S'6.3'
p1054
sg736
S'.362'
p1055
sg738
S'.065'
p1056
sg24
S'NBA'
p1057
sg740
S'-2.1'
p1058
sg741
S'21.1'
p1059
sg743
S'1.1'
p1060
sg35
S'35'
p1061
sg37
S'MIL'
p1062
sg39
S'46'
p1063
sg748
S'0.0'
p1064
sg749
S'10.6'
p1065
sg751
S'0.3'
p1066
sg56
S'1038'
p1067
sg754
S'-3.1'
p1068
sg49
S'1983-84'
p1069
sg756
S'1.4'
p1070
sbasS'_per36Minutes'
p1071
(lp1072
(isrc.gp1.models.Per36Minutes
Per36Minutes
p1073
(dp1074
g8
g3
sg9
g3
sg10
S'.444'
p1075
sg12
S'5.7'
p1076
sg14
g3
sg15
g3
sg16
S'16.4'
p1077
sg18
S'PG'
p1078
sg20
S'.757'
p1079
sg24
S'NBA'
p1080
sg26
g3
sg27
S'13.7'
p1081
sg29
S'2.7'
p1082
sg31
S'5.6'
p1083
sg33
S'3.0'
p1084
sg35
S'22'
p1085
sg37
S'CIN'
p1086
sg39
S'82'
p1087
sg41
g3
sg42
S'6.1'
p1088
sg44
S'4.2'
p1089
sg46
S'13.7'
p1090
sg48
g3
sg49
S'1970-71'
p1091
sg51
S'6.1'
p1092
sg53
g3
sg54
S'.444'
p1093
sg56
S'2867'
p1094
sg58
g3
sba(isrc.gp1.models.Per36Minutes
Per36Minutes
p1095
(dp1096
g8
g3
sg9
g3
sg10
S'.486'
p1097
sg12
S'7.7'
p1098
sg14
g3
sg15
g3
sg16
S'23.6'
p1099
sg18
S'PG'
p1100
sg20
S'.822'
p1101
sg24
S'NBA'
p1102
sg26
g3
sg27
S'16.6'
p1103
sg29
S'2.2'
p1104
sg31
S'9.1'
p1105
sg33
S'2.4'
p1106
sg35
S'23'
p1107
sg37
S'CIN'
p1108
sg39
S'76'
p1109
sg41
g3
sg42
S'8.1'
p1110
sg44
S'7.4'
p1111
sg46
S'16.6'
p1112
sg48
g3
sg49
S'1971-72'
p1113
sg51
S'8.1'
p1114
sg53
g3
sg54
S'.486'
p1115
sg56
S'3272'
p1116
sg58
g3
sba(isrc.gp1.models.Per36Minutes
Per36Minutes
p1117
(dp1118
g8
g3
sg9
g3
sg10
S'.488'
p1119
sg12
S'8.9'
p1120
sg14
g3
sg15
g3
sg16
S'26.6'
p1121
sg18
S'PG'
p1122
sg20
S'.847'
p1123
sg24
S'NBA'
p1124
sg26
g3
sg27
S'20.6'
p1125
sg29
S'2.0'
p1126
sg31
S'7.7'
p1127
sg33
S'2.2'
p1128
sg35
S'24'
p1129
sg37
S'KCO'
p1130
sg39
S'80'
p1131
sg41
g3
sg42
S'10.1'
p1132
sg44
S'6.5'
p1133
sg46
S'20.6'
p1134
sg48
g3
sg49
S'1972-73'
p1135
sg51
S'10.1'
p1136
sg53
g3
sg54
S'.488'
p1137
sg56
S'3681'
p1138
sg58
g3
sba(isrc.gp1.models.Per36Minutes
Per36Minutes
p1139
(dp1140
g8
S'0.6'
p1141
sg9
g3
sg10
S'.451'
p1142
sg12
S'7.5'
p1143
sg14
g3
sg15
g3
sg16
S'17.5'
p1144
sg18
S'PG'
p1145
sg20
S'.820'
p1146
sg24
S'NBA'
p1147
sg26
S'1.6'
p1148
sg27
S'13.9'
p1149
sg29
S'2.2'
p1150
sg31
S'6.0'
p1151
sg33
S'2.4'
p1152
sg35
S'25'
p1153
sg37
S'KCO'
p1154
sg39
S'35'
p1155
sg41
S'0.2'
p1156
sg42
S'6.3'
p1157
sg44
S'4.9'
p1158
sg46
S'13.9'
p1159
sg48
S'1.8'
p1160
sg49
S'1973-74'
p1161
sg51
S'6.3'
p1162
sg53
g3
sg54
S'.451'
p1163
sg56
S'1272'
p1164
sg58
g3
sba(isrc.gp1.models.Per36Minutes
Per36Minutes
p1165
(dp1166
g8
S'0.5'
p1167
sg9
g3
sg10
S'.456'
p1168
sg12
S'6.2'
p1169
sg14
g3
sg15
g3
sg16
S'24.1'
p1170
sg18
S'PG'
p1171
sg20
S'.872'
p1172
sg24
S'NBA'
p1173
sg26
S'1.3'
p1174
sg27
S'18.5'
p1175
sg29
S'2.1'
p1176
sg31
S'8.3'
p1177
sg33
S'2.5'
p1178
sg35
S'26'
p1179
sg37
S'KCO'
p1180
sg39
S'82'
p1181
sg41
S'0.1'
p1182
sg42
S'8.4'
p1183
sg44
S'7.2'
p1184
sg46
S'18.5'
p1185
sg48
S'1.9'
p1186
sg49
S'1974-75'
p1187
sg51
S'8.4'
p1188
sg53
g3
sg54
S'.456'
p1189
sg56
S'3244'
p1190
sg58
g3
sba(isrc.gp1.models.Per36Minutes
Per36Minutes
p1191
(dp1192
g8
S'0.8'
p1193
sg9
g3
sg10
S'.453'
p1194
sg12
S'7.0'
p1195
sg14
g3
sg15
g3
sg16
S'21.9'
p1196
sg18
S'PG'
p1197
sg20
S'.802'
p1198
sg24
S'NBA'
p1199
sg26
S'1.4'
p1200
sg27
S'17.9'
p1201
sg29
S'1.9'
p1202
sg31
S'7.1'
p1203
sg33
S'2.4'
p1204
sg35
S'27'
p1205
sg37
S'KCK'
p1206
sg39
S'78'
p1207
sg41
S'0.2'
p1208
sg42
S'8.1'
p1209
sg44
S'5.7'
p1210
sg46
S'17.9'
p1211
sg48
S'1.7'
p1212
sg49
S'1975-76'
p1213
sg51
S'8.1'
p1214
sg53
g3
sg54
S'.453'
p1215
sg56
S'3184'
p1216
sg58
g3
sba(isrc.gp1.models.Per36Minutes
Per36Minutes
p1217
(dp1218
g8
S'0.6'
p1219
sg9
g3
sg10
S'.446'
p1220
sg12
S'7.2'
p1221
sg14
g3
sg15
g3
sg16
S'19.6'
p1222
sg18
S'PG'
p1223
sg20
S'.785'
p1224
sg24
S'NBA'
p1225
sg26
S'1.7'
p1226
sg27
S'15.8'
p1227
sg29
S'2.2'
p1228
sg31
S'7.1'
p1229
sg33
S'2.3'
p1230
sg35
S'28'
p1231
sg37
S'NYN'
p1232
sg39
S'34'
p1233
sg41
S'0.3'
p1234
sg42
S'7.0'
p1235
sg44
S'5.6'
p1236
sg46
S'15.8'
p1237
sg48
S'1.6'
p1238
sg49
S'1976-77'
p1239
sg51
S'7.0'
p1240
sg53
g3
sg54
S'.446'
p1241
sg56
S'1277'
p1242
sg58
g3
sba(isrc.gp1.models.Per36Minutes
Per36Minutes
p1243
(dp1244
g8
S'0.5'
p1245
sg9
g3
sg10
S'.452'
p1246
sg12
S'7.0'
p1247
sg14
g3
sg15
g3
sg16
S'16.5'
p1248
sg18
S'PG'
p1249
sg20
S'.788'
p1250
sg24
S'NBA'
p1251
sg26
S'1.2'
p1252
sg27
S'12.4'
p1253
sg29
S'2.9'
p1254
sg31
S'6.6'
p1255
sg33
S'2.2'
p1256
sg35
S'30'
p1257
sg37
S'BOS'
p1258
sg39
S'69'
p1259
sg41
S'0.1'
p1260
sg42
S'5.6'
p1261
sg44
S'5.2'
p1262
sg46
S'12.4'
p1263
sg48
S'1.7'
p1264
sg49
S'1978-79'
p1265
sg51
S'5.6'
p1266
sg53
S'4.3'
p1267
sg54
S'.452'
p1268
sg56
S'1662'
p1269
sg58
g3
sba(isrc.gp1.models.Per36Minutes
Per36Minutes
p1270
(dp1271
g8
S'0.7'
p1272
sg9
S'0.2'
p1273
sg10
S'.482'
p1274
sg12
S'8.4'
p1275
sg14
S'.222'
p1276
sg15
S'0.1'
p1277
sg16
S'14.2'
p1278
sg18
S'PG'
p1279
sg20
S'.830'
p1280
sg24
S'NBA'
p1281
sg26
S'1.3'
p1282
sg27
S'10.0'
p1283
sg29
S'2.7'
p1284
sg31
S'5.5'
p1285
sg33
S'2.5'
p1286
sg35
S'31'
p1287
sg37
S'BOS'
p1288
sg39
S'80'
p1289
sg41
S'0.1'
p1290
sg42
S'4.8'
p1291
sg44
S'4.5'
p1292
sg46
S'9.8'
p1293
sg48
S'1.7'
p1294
sg49
S'1979-80'
p1295
sg51
S'4.8'
p1296
sg53
S'3.0'
p1297
sg54
S'.488'
p1298
sg56
S'2864'
p1299
sg58
S'80'
p1300
sba(isrc.gp1.models.Per36Minutes
Per36Minutes
p1301
(dp1302
g8
S'0.5'
p1303
sg9
S'0.1'
p1304
sg10
S'.499'
p1305
sg12
S'7.9'
p1306
sg14
S'.000'
p1307
sg15
S'0.0'
p1308
sg16
S'14.1'
p1309
sg18
S'PG'
p1310
sg20
S'.816'
p1311
sg24
S'NBA'
p1312
sg26
S'1.0'
p1313
sg27
S'9.8'
p1314
sg29
S'2.6'
p1315
sg31
S'5.3'
p1316
sg33
S'2.2'
p1317
sg35
S'32'
p1318
sg37
S'BOS'
p1319
sg39
S'80'
p1320
sg41
S'0.2'
p1321
sg42
S'4.9'
p1322
sg44
S'4.4'
p1323
sg46
S'9.7'
p1324
sg48
S'1.8'
p1325
sg49
S'1980-81'
p1326
sg51
S'4.9'
p1327
sg53
S'3.4'
p1328
sg54
S'.505'
p1329
sg56
S'2820'
p1330
sg58
S'72'
p1331
sba(isrc.gp1.models.Per36Minutes
Per36Minutes
p1332
(dp1333
g8
S'0.4'
p1334
sg9
S'0.3'
p1335
sg10
S'.472'
p1336
sg12
S'9.0'
p1337
sg14
S'.375'
p1338
sg15
S'0.1'
p1339
sg16
S'14.3'
p1340
sg18
S'PG'
p1341
sg20
S'.747'
p1342
sg24
S'NBA'
p1343
sg26
S'0.9'
p1344
sg27
S'10.8'
p1345
sg29
S'2.2'
p1346
sg31
S'5.2'
p1347
sg33
S'1.9'
p1348
sg35
S'33'
p1349
sg37
S'BOS'
p1350
sg39
S'68'
p1351
sg41
S'0.0'
p1352
sg42
S'5.0'
p1353
sg44
S'3.9'
p1354
sg46
S'10.6'
p1355
sg48
S'1.5'
p1356
sg49
S'1981-82'
p1357
sg51
S'5.1'
p1358
sg53
S'3.0'
p1359
sg54
S'.475'
p1360
sg56
S'2167'
p1361
sg58
S'51'
p1362
sba(isrc.gp1.models.Per36Minutes
Per36Minutes
p1363
(dp1364
g8
S'0.5'
p1365
sg9
S'0.5'
p1366
sg10
S'.425'
p1367
sg12
S'8.1'
p1368
sg14
S'.208'
p1369
sg15
S'0.1'
p1370
sg16
S'13.8'
p1371
sg18
S'PG'
p1372
sg20
S'.743'
p1373
sg24
S'NBA'
p1374
sg26
S'0.8'
p1375
sg27
S'11.0'
p1376
sg29
S'2.2'
p1377
sg31
S'5.9'
p1378
sg33
S'1.8'
p1379
sg35
S'34'
p1380
sg37
S'BOS'
p1381
sg39
S'66'
p1382
sg41
S'0.1'
p1383
sg42
S'4.6'
p1384
sg44
S'4.4'
p1385
sg46
S'10.5'
p1386
sg48
S'1.3'
p1387
sg49
S'1982-83'
p1388
sg51
S'4.7'
p1389
sg53
S'3.2'
p1390
sg54
S'.435'
p1391
sg56
S'1811'
p1392
sg58
S'19'
p1393
sba(isrc.gp1.models.Per36Minutes
Per36Minutes
p1394
(dp1395
g8
S'0.6'
p1396
sg9
S'0.6'
p1397
sg10
S'.487'
p1398
sg12
S'5.5'
p1399
sg14
S'.222'
p1400
sg15
S'0.1'
p1401
sg16
S'11.8'
p1402
sg18
S'PG'
p1403
sg20
S'.634'
p1404
sg24
S'NBA'
p1405
sg26
S'1.1'
p1406
sg27
S'9.7'
p1407
sg29
S'2.7'
p1408
sg31
S'3.5'
p1409
sg33
S'2.6'
p1410
sg35
S'35'
p1411
sg37
S'MIL'
p1412
sg39
S'46'
p1413
sg41
S'0.0'
p1414
sg42
S'4.6'
p1415
sg44
S'2.2'
p1416
sg46
S'9.1'
p1417
sg48
S'2.1'
p1418
sg49
S'1983-84'
p1419
sg51
S'4.7'
p1420
sg53
S'2.7'
p1421
sg54
S'.506'
p1422
sg56
S'1038'
p1423
sg58
S'46'
p1424
sbasS'_fromYear'
p1425
S'1971'
p1426
sS'_url'
p1427
S'http://www.basketball-reference.com/players/a/architi01.html'
p1428
sS'_perGame'
p1429
(isrc.gp1.models.PerGame
PerGame
p1430
(dp1431
g8
S'0.3'
p1432
sg9
S'0.4'
p1433
sg10
S'.487'
p1434
sS'_effectiveFieldGalPercentage'
p1435
S'.495'
p1436
sg12
S'3.5'
p1437
sg14
S'.222'
p1438
sg15
S'0.1'
p1439
sg16
S'7.4'
p1440
sg18
S'PG'
p1441
sg20
S'.634'
p1442
sg24
S'NBA'
p1443
sg26
S'0.7'
p1444
sg29
S'1.7'
p1445
sS'_fieldGoalsttempted'
p1446
S'6.1'
p1447
sg31
S'2.2'
p1448
sg33
S'1.7'
p1449
sg35
S'35'
p1450
sg37
S'MIL'
p1451
sg39
S'46'
p1452
sg41
S'0.0'
p1453
sg42
S'2.9'
p1454
sg44
S'1.4'
p1455
sg46
S'5.7'
p1456
sg48
S'1.3'
p1457
sg49
S'1983-84'
p1458
sg51
S'3.0'
p1459
sg53
S'1.7'
p1460
sg54
S'.506'
p1461
sg56
S'22.6'
p1462
sg58
S'46'
p1463
sbsS'_weight'
p1464
S'150'
p1465
sS'_dob'
p1466
S'2-9-1948'
p1467
sS'_salary'
p1468
(lp1469
sg18
S'G'
p1470
sb.