(isrc.gp1.models.Player
Player
p0
(dp1
S'_experience'
p2
S'NA'
p3
sS'_totals'
p4
(lp5
(isrc.gp1.models.Totals
Totals
p6
(dp7
S'_offensiveRebounds'
p8
S'1'
p9
sS'_threePointsAttempted'
p10
S'6'
p11
sS'_fieldGoalsPercentage'
p12
S'.375'
p13
sS'_assist'
p14
S'3'
p15
sS'_threePointsPercentage'
p16
S'.333'
p17
sS'_threePoints'
p18
S'2'
p19
sS'_points'
p20
S'10'
p21
sS'_position'
p22
S'PG'
p23
sS'_freeThrowsPercentage'
p24
S'1.000'
p25
sS'_effectiveFieldGoalPercentage'
p26
S'.500'
p27
sS'_league'
p28
S'NBA'
p29
sS'_steals'
p30
g9
sS'_fieldGoalsAttempted'
p31
S'8'
p32
sS'_personalFouls'
p33
g15
sS'_freeThrowsAttempted'
p34
g19
sS'_totalRebounds'
p35
g9
sS'_age'
p36
S'26'
p37
sS'_team'
p38
S'ORL'
p39
sS'_games'
p40
g15
sS'_blocks'
p41
S'0'
p42
sS'_twoPoints'
p43
g9
sS'_freeThrows'
p44
g19
sS'_twoPointsAttempted'
p45
g19
sS'_defensiveRebounds'
p46
g42
sS'_season'
p47
S'1994-95'
p48
sS'_fieldGoals'
p49
g15
sS'_turnOvers'
p50
g9
sS'_twoPointsPercentage'
p51
S'.500'
p52
sS'_minutesPlayed'
p53
g32
sS'_gamesStarted'
p54
g42
sba(isrc.gp1.models.Totals
Totals
p55
(dp56
g8
g42
sg10
S'12'
p57
sg12
S'.500'
p58
sg14
S'5'
p59
sg16
S'.500'
p60
sg18
g11
sg20
S'42'
p61
sg22
S'PG'
p62
sg24
S'1.000'
p63
sg26
S'.594'
p64
sg28
S'NBA'
p65
sg30
g11
sg31
S'32'
p66
sg33
S'4'
p67
sg34
g67
sg35
g19
sg36
S'27'
p68
sg38
S'ORL'
p69
sg40
S'13'
p70
sg41
g42
sg43
S'10'
p71
sg44
g67
sg45
S'20'
p72
sg46
g19
sg47
S'1995-96'
p73
sg49
S'16'
p74
sg50
g11
sg51
S'.500'
p75
sg53
S'41'
p76
sg54
g42
sba(isrc.gp1.models.Totals
Totals
p77
(dp78
g8
S'35'
p79
sg10
S'181'
p80
sg12
S'.383'
p81
sg14
S'175'
p82
sg16
S'.304'
p83
sg18
S'55'
p84
sg20
S'411'
p85
sg22
S'PG'
p86
sg24
S'.868'
p87
sg26
S'.462'
p88
sg28
S'NBA'
p89
sg30
S'61'
p90
sg31
S'345'
p91
sg33
S'114'
p92
sg34
S'106'
p93
sg35
S'76'
p94
sg36
S'28'
p95
sg38
S'ORL'
p96
sg40
S'67'
p97
sg41
S'9'
p98
sg43
S'77'
p99
sg44
S'92'
p100
sg45
S'164'
p101
sg46
S'41'
p102
sg47
S'1996-97'
p103
sg49
S'132'
p104
sg50
S'99'
p105
sg51
S'.470'
p106
sg53
S'1010'
p107
sg54
g42
sba(isrc.gp1.models.Totals
Totals
p108
(dp109
g8
S'65'
p110
sg10
S'68'
p111
sg12
S'.411'
p112
sg14
S'236'
p113
sg16
S'.368'
p114
sg18
S'25'
p115
sg20
S'442'
p116
sg22
S'PG'
p117
sg24
S'.854'
p118
sg26
S'.443'
p119
sg28
S'NBA'
p120
sg30
S'58'
p121
sg31
S'380'
p122
sg33
S'96'
p123
sg34
S'123'
p124
sg35
S'159'
p125
sg36
S'29'
p126
sg38
S'ORL'
p127
sg40
S'48'
p128
sg41
g59
sg43
S'131'
p129
sg44
S'105'
p130
sg45
S'312'
p131
sg46
S'94'
p132
sg47
S'1997-98'
p133
sg49
S'156'
p134
sg50
S'112'
p135
sg51
S'.420'
p136
sg53
S'1236'
p137
sg54
S'17'
p138
sba(isrc.gp1.models.Totals
Totals
p139
(dp140
g8
S'53'
p141
sg10
S'189'
p142
sg12
S'.441'
p143
sg14
S'335'
p144
sg16
S'.365'
p145
sg18
S'69'
p146
sg20
S'690'
p147
sg22
S'PG'
p148
sg24
S'.904'
p149
sg26
S'.507'
p150
sg28
S'NBA'
p151
sg30
S'108'
p152
sg31
S'522'
p153
sg33
S'90'
p154
sg34
S'178'
p155
sg35
S'180'
p156
sg36
S'30'
p157
sg38
S'ORL'
p158
sg40
S'50'
p159
sg41
g67
sg43
S'161'
p160
sg44
S'161'
p161
sg45
S'333'
p162
sg46
S'127'
p163
sg47
S'1998-99'
p164
sg49
S'230'
p165
sg50
S'158'
p166
sg51
S'.483'
p167
sg53
S'1502'
p168
sg54
S'15'
p169
sba(isrc.gp1.models.Totals
Totals
p170
(dp171
g8
S'65'
p172
sg10
S'403'
p173
sg12
S'.433'
p174
sg14
S'501'
p175
sg16
S'.340'
p176
sg18
S'137'
p177
sg20
S'1330'
p178
sg22
S'PG'
p179
sg24
S'.911'
p180
sg26
S'.494'
p181
sg28
S'NBA'
p182
sg30
S'169'
p183
sg31
S'1119'
p184
sg33
S'137'
p185
sg34
S'247'
p186
sg35
S'270'
p187
sg36
S'31'
p188
sg38
S'ORL'
p189
sg40
S'82'
p190
sg41
g98
sg43
S'347'
p191
sg44
S'225'
p192
sg45
S'716'
p193
sg46
S'205'
p194
sg47
S'1999-00'
p195
sg49
S'484'
p196
sg50
S'248'
p197
sg51
S'.485'
p198
sg53
S'2590'
p199
sg54
S'82'
p200
sba(isrc.gp1.models.Totals
Totals
p201
(dp202
g8
S'94'
p203
sg10
S'403'
p204
sg12
S'.412'
p205
sg14
S'524'
p206
sg16
S'.355'
p207
sg18
S'143'
p208
sg20
S'1189'
p209
sg22
S'PG'
p210
sg24
S'.884'
p211
sg26
S'.484'
p212
sg28
S'NBA'
p213
sg30
S'135'
p214
sg31
S'1002'
p215
sg33
S'155'
p216
sg34
S'249'
p217
sg35
S'343'
p218
sg36
S'32'
p219
sg38
S'ORL'
p220
sg40
S'75'
p221
sg41
S'13'
p222
sg43
S'270'
p223
sg44
S'220'
p224
sg45
S'599'
p225
sg46
S'249'
p226
sg47
S'2000-01'
p227
sg49
S'413'
p228
sg50
S'200'
p229
sg51
S'.451'
p230
sg53
S'2767'
p231
sg54
S'75'
p232
sba(isrc.gp1.models.Totals
Totals
p233
(dp234
g8
S'83'
p235
sg10
S'398'
p236
sg12
S'.419'
p237
sg14
S'453'
p238
sg16
S'.349'
p239
sg18
S'139'
p240
sg20
S'1015'
p241
sg22
S'PG'
p242
sg24
S'.888'
p243
sg26
S'.503'
p244
sg28
S'NBA'
p245
sg30
S'157'
p246
sg31
S'828'
p247
sg33
S'166'
p248
sg34
S'205'
p249
sg35
S'319'
p250
sg36
S'33'
p251
sg38
S'ORL'
p252
sg40
S'82'
p253
sg41
S'10'
p254
sg43
S'208'
p255
sg44
S'182'
p256
sg45
S'430'
p257
sg46
S'236'
p258
sg47
S'2001-02'
p259
sg49
S'347'
p260
sg50
S'175'
p261
sg51
S'.484'
p262
sg53
S'2730'
p263
sg54
S'79'
p264
sba(isrc.gp1.models.Totals
Totals
p265
(dp266
g8
S'91'
p267
sg10
S'232'
p268
sg12
S'.409'
p269
sg14
S'323'
p270
sg16
S'.336'
p271
sg18
S'78'
p272
sg20
S'769'
p273
sg22
S'PG'
p274
sg24
S'.878'
p275
sg26
S'.470'
p276
sg28
S'NBA'
p277
sg30
S'135'
p278
sg31
S'643'
p279
sg33
S'167'
p280
sg34
S'188'
p281
sg35
S'295'
p282
sg36
S'34'
p283
sg38
S'ORL'
p284
sg40
S'82'
p285
sg41
S'13'
p286
sg43
S'185'
p287
sg44
S'165'
p288
sg45
S'411'
p289
sg46
S'204'
p290
sg47
S'2002-03'
p291
sg49
S'263'
p292
sg50
S'160'
p293
sg51
S'.450'
p294
sg53
S'2350'
p295
sg54
S'23'
p296
sba(isrc.gp1.models.Totals
Totals
p297
(dp298
g8
S'63'
p299
sg10
S'429'
p300
sg12
S'.395'
p301
sg14
S'311'
p302
sg16
S'.315'
p303
sg18
S'135'
p304
sg20
S'840'
p305
sg22
S'PG'
p306
sg24
S'.854'
p307
sg26
S'.487'
p308
sg28
S'NBA'
p309
sg30
S'133'
p310
sg31
S'736'
p311
sg33
S'148'
p312
sg34
S'144'
p313
sg35
S'226'
p314
sg36
S'35'
p315
sg38
S'NOH'
p316
sg40
S'79'
p317
sg41
S'16'
p318
sg43
S'156'
p319
sg44
S'123'
p320
sg45
S'307'
p321
sg46
S'163'
p322
sg47
S'2003-04'
p323
sg49
S'291'
p324
sg50
S'155'
p325
sg51
S'.508'
p326
sg53
S'2247'
p327
sg54
S'22'
p328
sba(isrc.gp1.models.Totals
Totals
p329
(dp330
g8
S'35'
p331
sg10
S'111'
p332
sg12
S'.321'
p333
sg14
S'178'
p334
sg16
S'.252'
p335
sg18
S'28'
p336
sg20
S'264'
p337
sg22
S'PG'
p338
sg24
S'.853'
p339
sg26
S'.372'
p340
sg28
S'NBA'
p341
sg30
S'45'
p342
sg31
S'277'
p343
sg33
S'92'
p344
sg34
S'68'
p345
sg35
S'115'
p346
sg36
S'36'
p347
sg38
S'TOT'
p348
sg40
S'66'
p349
sg41
g32
sg43
S'61'
p350
sg44
S'58'
p351
sg45
S'166'
p352
sg46
S'80'
p353
sg47
S'2004-05'
p354
sg49
S'89'
p355
sg50
S'67'
p356
sg51
S'.367'
p357
sg53
S'988'
p358
sg54
S'16'
p359
sba(isrc.gp1.models.Totals
Totals
p360
(dp361
g8
S'16'
p362
sg10
S'70'
p363
sg12
S'.333'
p364
sg14
S'65'
p365
sg16
S'.243'
p366
sg18
S'17'
p367
sg20
S'142'
p368
sg22
S'PG'
p369
sg24
S'.905'
p370
sg26
S'.387'
p371
sg28
S'NBA'
p372
sg30
S'15'
p373
sg31
S'159'
p374
sg33
S'30'
p375
sg34
S'21'
p376
sg35
S'48'
p377
sg36
S'36'
p378
sg38
S'NOH'
p379
sg40
S'14'
p380
sg41
g19
sg43
S'36'
p381
sg44
S'19'
p382
sg45
S'89'
p383
sg46
S'32'
p384
sg47
S'2004-05'
p385
sg49
S'53'
p386
sg50
S'28'
p387
sg51
S'.404'
p388
sg53
S'412'
p389
sg54
g98
sba(isrc.gp1.models.Totals
Totals
p390
(dp391
g8
S'19'
p392
sg10
S'41'
p393
sg12
S'.305'
p394
sg14
S'113'
p395
sg16
S'.268'
p396
sg18
S'11'
p397
sg20
S'122'
p398
sg22
S'PG'
p399
sg24
S'.830'
p400
sg26
S'.352'
p401
sg28
S'NBA'
p402
sg30
S'30'
p403
sg31
S'118'
p404
sg33
S'62'
p405
sg34
S'47'
p406
sg35
S'67'
p407
sg36
S'36'
p408
sg38
S'DAL'
p409
sg40
S'52'
p410
sg41
g11
sg43
S'25'
p411
sg44
S'39'
p412
sg45
S'77'
p413
sg46
S'48'
p414
sg47
S'2004-05'
p415
sg49
S'36'
p416
sg50
S'39'
p417
sg51
S'.325'
p418
sg53
S'576'
p419
sg54
S'7'
p420
sba(isrc.gp1.models.Totals
Totals
p421
(dp422
g8
S'18'
p423
sg10
S'48'
p424
sg12
S'.336'
p425
sg14
S'86'
p426
sg16
S'.229'
p427
sg18
S'11'
p428
sg20
S'130'
p429
sg22
S'PG'
p430
sg24
S'.786'
p431
sg26
S'.379'
p432
sg28
S'NBA'
p433
sg30
S'27'
p434
sg31
S'128'
p435
sg33
S'71'
p436
sg34
S'42'
p437
sg35
S'81'
p438
sg36
S'37'
p439
sg38
S'DAL'
p440
sg40
S'62'
p441
sg41
g15
sg43
S'32'
p442
sg44
S'33'
p443
sg45
S'80'
p444
sg46
S'63'
p445
sg47
S'2005-06'
p446
sg49
S'43'
p447
sg50
S'58'
p448
sg51
S'.400'
p449
sg53
S'622'
p450
sg54
g19
sba(isrc.gp1.models.Totals
Totals
p451
(dp452
g8
S'34'
p453
sg10
S'214'
p454
sg12
S'.414'
p455
sg14
S'191'
p456
sg16
S'.336'
p457
sg18
S'72'
p458
sg20
S'457'
p459
sg22
S'PG'
p460
sg24
S'.785'
p461
sg26
S'.509'
p462
sg28
S'NBA'
p463
sg30
S'70'
p464
sg31
S'377'
p465
sg33
S'102'
p466
sg34
S'93'
p467
sg35
S'135'
p468
sg36
S'38'
p469
sg38
S'IND'
p470
sg40
S'81'
p471
sg41
g11
sg43
S'84'
p472
sg44
S'73'
p473
sg45
S'163'
p474
sg46
S'101'
p475
sg47
S'2006-07'
p476
sg49
S'156'
p477
sg50
S'76'
p478
sg51
S'.515'
p479
sg53
S'1275'
p480
sg54
g67
sba(isrc.gp1.models.Totals
Totals
p481
(dp482
g8
S'17'
p483
sg10
S'69'
p484
sg12
S'.364'
p485
sg14
S'73'
p486
sg16
S'.333'
p487
sg18
S'23'
p488
sg20
S'123'
p489
sg22
S'PG'
p490
sg24
S'.667'
p491
sg26
S'.468'
p492
sg28
S'NBA'
p493
sg30
S'28'
p494
sg31
S'110'
p495
sg33
S'53'
p496
sg34
S'30'
p497
sg35
S'67'
p498
sg36
S'39'
p499
sg38
S'NJN'
p500
sg40
S'50'
p501
sg41
g19
sg43
S'17'
p502
sg44
S'20'
p503
sg45
S'41'
p504
sg46
S'50'
p505
sg47
S'2007-08'
p506
sg49
S'40'
p507
sg50
S'41'
p508
sg51
S'.415'
p509
sg53
S'549'
p510
sg54
g19
sbasS'_college'
p511
S'Fayetteville State University'
p512
sS'_toYear'
p513
S'2008'
p514
sS'_height'
p515
S'6-0'
p516
sS'_active'
p517
I00
sS'_shootingHand'
p518
VRight
p519
sS'_name'
p520
S'Darrell Armstrong'
p521
sS'_per100Possessions'
p522
(lp523
(isrc.gp1.models.Per100Possession
Per100Possession
p524
(dp525
g8
S'6.3'
p526
sg10
S'37.9'
p527
sg12
S'.375'
p528
sS'_offensiveRating'
p529
S'127'
p530
sg14
S'18.9'
p531
sg16
S'.333'
p532
sg18
S'12.6'
p533
sg20
S'63.1'
p534
sg22
S'PG'
p535
sS'_defensiveRating'
p536
S'103'
p537
sg24
S'1.000'
p538
sg28
S'NBA'
p539
sg30
S'6.3'
p540
sg31
S'50.5'
p541
sg33
S'18.9'
p542
sg34
S'12.6'
p543
sg35
S'6.3'
p544
sg36
S'26'
p545
sg38
S'ORL'
p546
sg40
g15
sg41
S'0.0'
p547
sg43
S'6.3'
p548
sg44
S'12.6'
p549
sg45
S'12.6'
p550
sg46
S'0.0'
p551
sg47
S'1994-95'
p552
sg49
S'18.9'
p553
sg50
S'6.3'
p554
sg51
S'.500'
p555
sg53
g32
sg54
g42
sba(isrc.gp1.models.Per100Possession
Per100Possession
p556
(dp557
g8
S'0.0'
p558
sg10
S'15.3'
p559
sg12
S'.500'
p560
sg529
S'104'
p561
sg14
S'6.4'
p562
sg16
S'.500'
p563
sg18
S'7.7'
p564
sg20
S'53.6'
p565
sg22
S'PG'
p566
sg536
S'98'
p567
sg24
S'1.000'
p568
sg28
S'NBA'
p569
sg30
S'7.7'
p570
sg31
S'40.8'
p571
sg33
S'5.1'
p572
sg34
S'5.1'
p573
sg35
S'2.6'
p574
sg36
S'27'
p575
sg38
S'ORL'
p576
sg40
S'13'
p577
sg41
S'0.0'
p578
sg43
S'12.8'
p579
sg44
S'5.1'
p580
sg45
S'25.5'
p581
sg46
S'2.6'
p582
sg47
S'1995-96'
p583
sg49
S'20.4'
p584
sg50
S'7.7'
p585
sg51
S'.500'
p586
sg53
S'41'
p587
sg54
g42
sba(isrc.gp1.models.Per100Possession
Per100Possession
p588
(dp589
g8
S'1.9'
p590
sg10
S'9.7'
p591
sg12
S'.383'
p592
sg529
S'103'
p593
sg14
S'9.4'
p594
sg16
S'.304'
p595
sg18
S'3.0'
p596
sg20
S'22.1'
p597
sg22
S'PG'
p598
sg536
S'107'
p599
sg24
S'.868'
p600
sg28
S'NBA'
p601
sg30
S'3.3'
p602
sg31
S'18.6'
p603
sg33
S'6.1'
p604
sg34
S'5.7'
p605
sg35
S'4.1'
p606
sg36
S'28'
p607
sg38
S'ORL'
p608
sg40
S'67'
p609
sg41
S'0.5'
p610
sg43
S'4.1'
p611
sg44
S'4.9'
p612
sg45
S'8.8'
p613
sg46
S'2.2'
p614
sg47
S'1996-97'
p615
sg49
S'7.1'
p616
sg50
S'5.3'
p617
sg51
S'.470'
p618
sg53
S'1010'
p619
sg54
g42
sba(isrc.gp1.models.Per100Possession
Per100Possession
p620
(dp621
g8
S'2.9'
p622
sg10
S'3.0'
p623
sg12
S'.411'
p624
sg529
S'104'
p625
sg14
S'10.5'
p626
sg16
S'.368'
p627
sg18
S'1.1'
p628
sg20
S'19.7'
p629
sg22
S'PG'
p630
sg536
S'105'
p631
sg24
S'.854'
p632
sg28
S'NBA'
p633
sg30
S'2.6'
p634
sg31
S'16.9'
p635
sg33
S'4.3'
p636
sg34
S'5.5'
p637
sg35
S'7.1'
p638
sg36
S'29'
p639
sg38
S'ORL'
p640
sg40
S'48'
p641
sg41
S'0.2'
p642
sg43
S'5.8'
p643
sg44
S'4.7'
p644
sg45
S'13.9'
p645
sg46
S'4.2'
p646
sg47
S'1997-98'
p647
sg49
S'7.0'
p648
sg50
S'5.0'
p649
sg51
S'.420'
p650
sg53
S'1236'
p651
sg54
S'17'
p652
sba(isrc.gp1.models.Per100Possession
Per100Possession
p653
(dp654
g8
S'1.9'
p655
sg10
S'6.8'
p656
sg12
S'.441'
p657
sg529
S'110'
p658
sg14
S'12.1'
p659
sg16
S'.365'
p660
sg18
S'2.5'
p661
sg20
S'24.8'
p662
sg22
S'PG'
p663
sg536
S'96'
p664
sg24
S'.904'
p665
sg28
S'NBA'
p666
sg30
S'3.9'
p667
sg31
S'18.8'
p668
sg33
S'3.2'
p669
sg34
S'6.4'
p670
sg35
S'6.5'
p671
sg36
S'30'
p672
sg38
S'ORL'
p673
sg40
S'50'
p674
sg41
S'0.1'
p675
sg43
S'5.8'
p676
sg44
S'5.8'
p677
sg45
S'12.0'
p678
sg46
S'4.6'
p679
sg47
S'1998-99'
p680
sg49
S'8.3'
p681
sg50
S'5.7'
p682
sg51
S'.483'
p683
sg53
S'1502'
p684
sg54
S'15'
p685
sba(isrc.gp1.models.Per100Possession
Per100Possession
p686
(dp687
g8
S'1.2'
p688
sg10
S'7.7'
p689
sg12
S'.433'
p690
sg529
S'107'
p691
sg14
S'9.5'
p692
sg16
S'.340'
p693
sg18
S'2.6'
p694
sg20
S'25.3'
p695
sg22
S'PG'
p696
sg536
S'102'
p697
sg24
S'.911'
p698
sg28
S'NBA'
p699
sg30
S'3.2'
p700
sg31
S'21.3'
p701
sg33
S'2.6'
p702
sg34
S'4.7'
p703
sg35
S'5.1'
p704
sg36
S'31'
p705
sg38
S'ORL'
p706
sg40
S'82'
p707
sg41
S'0.2'
p708
sg43
S'6.6'
p709
sg44
S'4.3'
p710
sg45
S'13.6'
p711
sg46
S'3.9'
p712
sg47
S'1999-00'
p713
sg49
S'9.2'
p714
sg50
S'4.7'
p715
sg51
S'.485'
p716
sg53
S'2590'
p717
sg54
S'82'
p718
sba(isrc.gp1.models.Per100Possession
Per100Possession
p719
(dp720
g8
S'1.8'
p721
sg10
S'7.5'
p722
sg12
S'.412'
p723
sg529
S'110'
p724
sg14
S'9.8'
p725
sg16
S'.355'
p726
sg18
S'2.7'
p727
sg20
S'22.1'
p728
sg22
S'PG'
p729
sg536
S'103'
p730
sg24
S'.884'
p731
sg28
S'NBA'
p732
sg30
S'2.5'
p733
sg31
S'18.7'
p734
sg33
S'2.9'
p735
sg34
S'4.6'
p736
sg35
S'6.4'
p737
sg36
S'32'
p738
sg38
S'ORL'
p739
sg40
S'75'
p740
sg41
S'0.2'
p741
sg43
S'5.0'
p742
sg44
S'4.1'
p743
sg45
S'11.2'
p744
sg46
S'4.6'
p745
sg47
S'2000-01'
p746
sg49
S'7.7'
p747
sg50
S'3.7'
p748
sg51
S'.451'
p749
sg53
S'2767'
p750
sg54
S'75'
p751
sba(isrc.gp1.models.Per100Possession
Per100Possession
p752
(dp753
g8
S'1.6'
p754
sg10
S'7.5'
p755
sg12
S'.419'
p756
sg529
S'112'
p757
sg14
S'8.5'
p758
sg16
S'.349'
p759
sg18
S'2.6'
p760
sg20
S'19.1'
p761
sg22
S'PG'
p762
sg536
S'105'
p763
sg24
S'.888'
p764
sg28
S'NBA'
p765
sg30
S'3.0'
p766
sg31
S'15.6'
p767
sg33
S'3.1'
p768
sg34
S'3.9'
p769
sg35
S'6.0'
p770
sg36
S'33'
p771
sg38
S'ORL'
p772
sg40
S'82'
p773
sg41
S'0.2'
p774
sg43
S'3.9'
p775
sg44
S'3.4'
p776
sg45
S'8.1'
p777
sg46
S'4.5'
p778
sg47
S'2001-02'
p779
sg49
S'6.5'
p780
sg50
S'3.3'
p781
sg51
S'.484'
p782
sg53
S'2730'
p783
sg54
S'79'
p784
sba(isrc.gp1.models.Per100Possession
Per100Possession
p785
(dp786
g8
S'2.0'
p787
sg10
S'5.1'
p788
sg12
S'.409'
p789
sg529
S'106'
p790
sg14
S'7.1'
p791
sg16
S'.336'
p792
sg18
S'1.7'
p793
sg20
S'16.9'
p794
sg22
S'PG'
p795
sg536
S'104'
p796
sg24
S'.878'
p797
sg28
S'NBA'
p798
sg30
S'3.0'
p799
sg31
S'14.1'
p800
sg33
S'3.7'
p801
sg34
S'4.1'
p802
sg35
S'6.5'
p803
sg36
S'34'
p804
sg38
S'ORL'
p805
sg40
S'82'
p806
sg41
S'0.3'
p807
sg43
S'4.1'
p808
sg44
S'3.6'
p809
sg45
S'9.0'
p810
sg46
S'4.5'
p811
sg47
S'2002-03'
p812
sg49
S'5.8'
p813
sg50
S'3.5'
p814
sg51
S'.450'
p815
sg53
S'2350'
p816
sg54
S'23'
p817
sba(isrc.gp1.models.Per100Possession
Per100Possession
p818
(dp819
g8
S'1.5'
p820
sg10
S'10.3'
p821
sg12
S'.395'
p822
sg529
S'105'
p823
sg14
S'7.5'
p824
sg16
S'.315'
p825
sg18
S'3.2'
p826
sg20
S'20.1'
p827
sg22
S'PG'
p828
sg536
S'102'
p829
sg24
S'.854'
p830
sg28
S'NBA'
p831
sg30
S'3.2'
p832
sg31
S'17.6'
p833
sg33
S'3.5'
p834
sg34
S'3.5'
p835
sg35
S'5.4'
p836
sg36
S'35'
p837
sg38
S'NOH'
p838
sg40
S'79'
p839
sg41
S'0.4'
p840
sg43
S'3.7'
p841
sg44
S'2.9'
p842
sg45
S'7.4'
p843
sg46
S'3.9'
p844
sg47
S'2003-04'
p845
sg49
S'7.0'
p846
sg50
S'3.7'
p847
sg51
S'.508'
p848
sg53
S'2247'
p849
sg54
S'22'
p850
sba(isrc.gp1.models.Per100Possession
Per100Possession
p851
(dp852
g8
S'1.9'
p853
sg10
S'6.0'
p854
sg12
S'.321'
p855
sg529
S'96'
p856
sg14
S'9.5'
p857
sg16
S'.252'
p858
sg18
S'1.5'
p859
sg20
S'14.2'
p860
sg22
S'PG'
p861
sg536
S'106'
p862
sg24
S'.853'
p863
sg28
S'NBA'
p864
sg30
S'2.4'
p865
sg31
S'14.9'
p866
sg33
S'4.9'
p867
sg34
S'3.6'
p868
sg35
S'6.2'
p869
sg36
S'36'
p870
sg38
S'TOT'
p871
sg40
S'66'
p872
sg41
S'0.4'
p873
sg43
S'3.3'
p874
sg44
S'3.1'
p875
sg45
S'8.9'
p876
sg46
S'4.3'
p877
sg47
S'2004-05'
p878
sg49
S'4.8'
p879
sg50
S'3.6'
p880
sg51
S'.367'
p881
sg53
S'988'
p882
sg54
S'16'
p883
sba(isrc.gp1.models.Per100Possession
Per100Possession
p884
(dp885
g8
S'2.1'
p886
sg10
S'9.3'
p887
sg12
S'.333'
p888
sg529
S'92'
p889
sg14
S'8.6'
p890
sg16
S'.243'
p891
sg18
S'2.3'
p892
sg20
S'18.9'
p893
sg22
S'PG'
p894
sg536
S'109'
p895
sg24
S'.905'
p896
sg28
S'NBA'
p897
sg30
S'2.0'
p898
sg31
S'21.2'
p899
sg33
S'4.0'
p900
sg34
S'2.8'
p901
sg35
S'6.4'
p902
sg36
S'36'
p903
sg38
S'NOH'
p904
sg40
S'14'
p905
sg41
S'0.3'
p906
sg43
S'4.8'
p907
sg44
S'2.5'
p908
sg45
S'11.8'
p909
sg46
S'4.3'
p910
sg47
S'2004-05'
p911
sg49
S'7.1'
p912
sg50
S'3.7'
p913
sg51
S'.404'
p914
sg53
S'412'
p915
sg54
g98
sba(isrc.gp1.models.Per100Possession
Per100Possession
p916
(dp917
g8
S'1.7'
p918
sg10
S'3.7'
p919
sg12
S'.305'
p920
sg529
S'100'
p921
sg14
S'10.2'
p922
sg16
S'.268'
p923
sg18
S'1.0'
p924
sg20
S'11.0'
p925
sg22
S'PG'
p926
sg536
S'105'
p927
sg24
S'.830'
p928
sg28
S'NBA'
p929
sg30
S'2.7'
p930
sg31
S'10.6'
p931
sg33
S'5.6'
p932
sg34
S'4.2'
p933
sg35
S'6.0'
p934
sg36
S'36'
p935
sg38
S'DAL'
p936
sg40
S'52'
p937
sg41
S'0.5'
p938
sg43
S'2.2'
p939
sg44
S'3.5'
p940
sg45
S'6.9'
p941
sg46
S'4.3'
p942
sg47
S'2004-05'
p943
sg49
S'3.2'
p944
sg50
S'3.5'
p945
sg51
S'.325'
p946
sg53
S'576'
p947
sg54
g420
sba(isrc.gp1.models.Per100Possession
Per100Possession
p948
(dp949
g8
S'1.6'
p950
sg10
S'4.2'
p951
sg12
S'.336'
p952
sg529
S'87'
p953
sg14
S'7.6'
p954
sg16
S'.229'
p955
sg18
S'1.0'
p956
sg20
S'11.4'
p957
sg22
S'PG'
p958
sg536
S'105'
p959
sg24
S'.786'
p960
sg28
S'NBA'
p961
sg30
S'2.4'
p962
sg31
S'11.3'
p963
sg33
S'6.2'
p964
sg34
S'3.7'
p965
sg35
S'7.1'
p966
sg36
S'37'
p967
sg38
S'DAL'
p968
sg40
S'62'
p969
sg41
S'0.3'
p970
sg43
S'2.8'
p971
sg44
S'2.9'
p972
sg45
S'7.0'
p973
sg46
S'5.5'
p974
sg47
S'2005-06'
p975
sg49
S'3.8'
p976
sg50
S'5.1'
p977
sg51
S'.400'
p978
sg53
S'622'
p979
sg54
g19
sba(isrc.gp1.models.Per100Possession
Per100Possession
p980
(dp981
g8
S'1.4'
p982
sg10
S'8.7'
p983
sg12
S'.414'
p984
sg529
S'110'
p985
sg14
S'7.8'
p986
sg16
S'.336'
p987
sg18
S'2.9'
p988
sg20
S'18.6'
p989
sg22
S'PG'
p990
sg536
S'105'
p991
sg24
S'.785'
p992
sg28
S'NBA'
p993
sg30
S'2.9'
p994
sg31
S'15.4'
p995
sg33
S'4.2'
p996
sg34
S'3.8'
p997
sg35
S'5.5'
p998
sg36
S'38'
p999
sg38
S'IND'
p1000
sg40
S'81'
p1001
sg41
S'0.2'
p1002
sg43
S'3.4'
p1003
sg44
S'3.0'
p1004
sg45
S'6.6'
p1005
sg46
S'4.1'
p1006
sg47
S'2006-07'
p1007
sg49
S'6.4'
p1008
sg50
S'3.1'
p1009
sg51
S'.515'
p1010
sg53
S'1275'
p1011
sg54
g67
sba(isrc.gp1.models.Per100Possession
Per100Possession
p1012
(dp1013
g8
S'1.6'
p1014
sg10
S'6.6'
p1015
sg12
S'.364'
p1016
sg529
S'95'
p1017
sg14
S'7.0'
p1018
sg16
S'.333'
p1019
sg18
S'2.2'
p1020
sg20
S'11.8'
p1021
sg22
S'PG'
p1022
sg536
S'109'
p1023
sg24
S'.667'
p1024
sg28
S'NBA'
p1025
sg30
S'2.7'
p1026
sg31
S'10.5'
p1027
sg33
S'5.1'
p1028
sg34
S'2.9'
p1029
sg35
S'6.4'
p1030
sg36
S'39'
p1031
sg38
S'NJN'
p1032
sg40
S'50'
p1033
sg41
S'0.2'
p1034
sg43
S'1.6'
p1035
sg44
S'1.9'
p1036
sg45
S'3.9'
p1037
sg46
S'4.8'
p1038
sg47
S'2007-08'
p1039
sg49
S'3.8'
p1040
sg50
S'3.9'
p1041
sg51
S'.415'
p1042
sg53
S'549'
p1043
sg54
g19
sbasS'_advanced'
p1044
(lp1045
(isrc.gp1.models.Advanced
Advanced
p1046
(dp1047
S'_offensiveReboundPercentage'
p1048
S'14.8'
p1049
sS'_turnOverPercentage'
p1050
S'10.1'
p1051
sS'_winSharesPer48Minutes'
p1052
S'.492'
p1053
sS'_stealPercentage'
p1054
S'6.3'
p1055
sS'_usagePercentage'
p1056
S'53.0'
p1057
sS'_totalReboundsPercentage'
p1058
S'7.2'
p1059
sS'_defensiveBoxPlusMinus'
p1060
S'3.1'
p1061
sg22
S'PG'
p1062
sS'_valueOverReplacementPlayer'
p1063
S'0.1'
p1064
sS'_trueShootingPercentage'
p1065
S'.563'
p1066
sS'_defensiveReboundPercentage'
p1067
S'0.0'
p1068
sS'_freeThrowsAttempRate'
p1069
S'.250'
p1070
sS'_threePointsAttempRate'
p1071
S'.750'
p1072
sg28
S'NBA'
p1073
sS'_offensiveBoxPlusMinues'
p1074
S'31.7'
p1075
sS'_assistPercentage'
p1076
S'76.1'
p1077
sS'_defensiveWinShares'
p1078
S'0.0'
p1079
sg36
S'26'
p1080
sg38
S'ORL'
p1081
sg40
g15
sS'_blockPercentage'
p1082
S'0.0'
p1083
sS'_playerEfficiencyRating'
p1084
S'40.2'
p1085
sS'_offensiveWinShares'
p1086
S'0.1'
p1087
sg53
g32
sS'_boxPlusMinus'
p1088
S'34.8'
p1089
sg47
S'1994-95'
p1090
sS'_winShares'
p1091
S'0.1'
p1092
sba(isrc.gp1.models.Advanced
Advanced
p1093
(dp1094
g1048
S'0.0'
p1095
sg1050
S'15.1'
p1096
sg1052
S'.158'
p1097
sg1054
S'7.7'
p1098
sg1056
S'43.8'
p1099
sg1058
S'2.8'
p1100
sg1060
S'-1.4'
p1101
sg22
S'PG'
p1102
sg1063
S'0.1'
p1103
sg1065
S'.622'
p1104
sg1067
S'5.6'
p1105
sg1069
S'.125'
p1106
sg1071
S'.375'
p1107
sg28
S'NBA'
p1108
sg1074
S'8.0'
p1109
sg1076
S'29.3'
p1110
sg1078
S'0.1'
p1111
sg36
S'27'
p1112
sg38
S'ORL'
p1113
sg40
S'13'
p1114
sg1082
S'0.0'
p1115
sg1084
S'32.4'
p1116
sg1086
S'0.0'
p1117
sg53
S'41'
p1118
sg1088
S'6.6'
p1119
sg47
S'1995-96'
p1120
sg1091
S'0.1'
p1121
sba(isrc.gp1.models.Advanced
Advanced
p1122
(dp1123
g1048
S'4.0'
p1124
sg1050
S'20.2'
p1125
sg1052
S'.085'
p1126
sg1054
S'3.3'
p1127
sg1056
S'22.4'
p1128
sg1058
S'4.4'
p1129
sg1060
S'-1.7'
p1130
sg22
S'PG'
p1131
sg1063
S'0.3'
p1132
sg1065
S'.525'
p1133
sg1067
S'4.9'
p1134
sg1069
S'.307'
p1135
sg1071
S'.525'
p1136
sg28
S'NBA'
p1137
sg1074
S'0.9'
p1138
sg1076
S'29.7'
p1139
sg1078
S'1.1'
p1140
sg36
S'28'
p1141
sg38
S'ORL'
p1142
sg40
S'67'
p1143
sg1082
S'0.7'
p1144
sg1084
S'14.7'
p1145
sg1086
S'0.7'
p1146
sg53
S'1010'
p1147
sg1088
S'-0.7'
p1148
sg47
S'1996-97'
p1149
sg1091
S'1.8'
p1150
sba(isrc.gp1.models.Advanced
Advanced
p1151
(dp1152
g1048
S'6.1'
p1153
sg1050
S'20.5'
p1154
sg1052
S'.096'
p1155
sg1054
S'2.6'
p1156
sg1056
S'20.2'
p1157
sg1058
S'7.6'
p1158
sg1060
S'0.0'
p1159
sg22
S'PG'
p1160
sg1063
S'1.0'
p1161
sg1065
S'.509'
p1162
sg1067
S'9.2'
p1163
sg1069
S'.324'
p1164
sg1071
S'.179'
p1165
sg28
S'NBA'
p1166
sg1074
S'1.1'
p1167
sg1076
S'33.4'
p1168
sg1078
S'1.3'
p1169
sg36
S'29'
p1170
sg38
S'ORL'
p1171
sg40
S'48'
p1172
sg1082
S'0.3'
p1173
sg1084
S'15.7'
p1174
sg1086
S'1.2'
p1175
sg53
S'1236'
p1176
sg1088
S'1.1'
p1177
sg47
S'1997-98'
p1178
sg1091
S'2.5'
p1179
sba(isrc.gp1.models.Advanced
Advanced
p1180
(dp1181
g1048
S'4.0'
p1182
sg1050
S'20.8'
p1183
sg1052
S'.205'
p1184
sg1054
S'3.9'
p1185
sg1056
S'22.9'
p1186
sg1058
S'7.0'
p1187
sg1060
S'0.8'
p1188
sg22
S'PG'
p1189
sg1063
S'3.0'
p1190
sg1065
S'.575'
p1191
sg1067
S'10.0'
p1192
sg1069
S'.341'
p1193
sg1071
S'.362'
p1194
sg28
S'NBA'
p1195
sg1074
S'5.1'
p1196
sg1076
S'40.8'
p1197
sg1078
S'2.7'
p1198
sg36
S'30'
p1199
sg38
S'ORL'
p1200
sg40
S'50'
p1201
sg1082
S'0.2'
p1202
sg1084
S'22.2'
p1203
sg1086
S'3.8'
p1204
sg53
S'1502'
p1205
sg1088
S'5.9'
p1206
sg47
S'1998-99'
p1207
sg1091
S'6.4'
p1208
sba(isrc.gp1.models.Advanced
Advanced
p1209
(dp1210
g1048
S'2.7'
p1211
sg1050
S'16.8'
p1212
sg1052
S'.149'
p1213
sg1054
S'3.2'
p1214
sg1056
S'23.9'
p1215
sg1058
S'5.7'
p1216
sg1060
S'0.0'
p1217
sg22
S'PG'
p1218
sg1063
S'4.2'
p1219
sg1065
S'.542'
p1220
sg1067
S'8.6'
p1221
sg1069
S'.221'
p1222
sg1071
S'.360'
p1223
sg28
S'NBA'
p1224
sg1074
S'4.3'
p1225
sg1076
S'31.4'
p1226
sg1078
S'3.4'
p1227
sg36
S'31'
p1228
sg38
S'ORL'
p1229
sg40
S'82'
p1230
sg1082
S'0.2'
p1231
sg1084
S'19.5'
p1232
sg1086
S'4.6'
p1233
sg53
S'2590'
p1234
sg1088
S'4.4'
p1235
sg47
S'1999-00'
p1236
sg1091
S'8.0'
p1237
sba(isrc.gp1.models.Advanced
Advanced
p1238
(dp1239
g1048
S'3.7'
p1240
sg1050
S'15.2'
p1241
sg1052
S'.151'
p1242
sg1054
S'2.5'
p1243
sg1056
S'21.0'
p1244
sg1058
S'6.9'
p1245
sg1060
S'-0.5'
p1246
sg22
S'PG'
p1247
sg1063
S'3.8'
p1248
sg1065
S'.535'
p1249
sg1067
S'10.2'
p1250
sg1069
S'.249'
p1251
sg1071
S'.402'
p1252
sg28
S'NBA'
p1253
sg1074
S'4.0'
p1254
sg1076
S'31.3'
p1255
sg1078
S'2.9'
p1256
sg36
S'32'
p1257
sg38
S'ORL'
p1258
sg40
S'75'
p1259
sg1082
S'0.3'
p1260
sg1084
S'18.6'
p1261
sg1086
S'5.8'
p1262
sg53
S'2767'
p1263
sg1088
S'3.5'
p1264
sg47
S'2000-01'
p1265
sg1091
S'8.7'
p1266
sba(isrc.gp1.models.Advanced
Advanced
p1267
(dp1268
g1048
S'3.4'
p1269
sg1050
S'16.0'
p1270
sg1052
S'.134'
p1271
sg1054
S'3.0'
p1272
sg1056
S'17.9'
p1273
sg1058
S'6.5'
p1274
sg1060
S'0.0'
p1275
sg22
S'PG'
p1276
sg1063
S'3.4'
p1277
sg1065
S'.553'
p1278
sg1067
S'9.7'
p1279
sg1069
S'.248'
p1280
sg1071
S'.481'
p1281
sg28
S'NBA'
p1282
sg1074
S'3.0'
p1283
sg1076
S'25.5'
p1284
sg1078
S'2.6'
p1285
sg36
S'33'
p1286
sg38
S'ORL'
p1287
sg40
S'82'
p1288
sg1082
S'0.3'
p1289
sg1084
S'16.7'
p1290
sg1086
S'5.0'
p1291
sg53
S'2730'
p1292
sg1088
S'3.0'
p1293
sg47
S'2001-02'
p1294
sg1091
S'7.6'
p1295
sba(isrc.gp1.models.Advanced
Advanced
p1296
(dp1297
g1048
S'4.3'
p1298
sg1050
S'18.1'
p1299
sg1052
S'.100'
p1300
sg1054
S'3.0'
p1301
sg1056
S'16.9'
p1302
sg1058
S'7.2'
p1303
sg1060
S'0.3'
p1304
sg22
S'PG'
p1305
sg1063
S'1.9'
p1306
sg1065
S'.530'
p1307
sg1067
S'10.2'
p1308
sg1069
S'.292'
p1309
sg1071
S'.361'
p1310
sg28
S'NBA'
p1311
sg1074
S'0.8'
p1312
sg1076
S'21.7'
p1313
sg1078
S'2.2'
p1314
sg36
S'34'
p1315
sg38
S'ORL'
p1316
sg40
S'82'
p1317
sg1082
S'0.4'
p1318
sg1084
S'14.6'
p1319
sg1086
S'2.7'
p1320
sg53
S'2350'
p1321
sg1088
S'1.2'
p1322
sg47
S'2002-03'
p1323
sg1091
S'4.9'
p1324
sba(isrc.gp1.models.Advanced
Advanced
p1325
(dp1326
g1048
S'3.1'
p1327
sg1050
S'16.2'
p1328
sg1052
S'.114'
p1329
sg1054
S'3.2'
p1330
sg1056
S'19.4'
p1331
sg1058
S'5.7'
p1332
sg1060
S'-0.3'
p1333
sg22
S'PG'
p1334
sg1063
S'2.2'
p1335
sg1065
S'.525'
p1336
sg1067
S'8.5'
p1337
sg1069
S'.196'
p1338
sg1071
S'.583'
p1339
sg28
S'NBA'
p1340
sg1074
S'2.3'
p1341
sg1076
S'24.3'
p1342
sg1078
S'2.5'
p1343
sg36
S'35'
p1344
sg38
S'NOH'
p1345
sg40
S'79'
p1346
sg1082
S'0.5'
p1347
sg1084
S'15.6'
p1348
sg1086
S'2.8'
p1349
sg53
S'2247'
p1350
sg1088
S'1.9'
p1351
sg47
S'2003-04'
p1352
sg1091
S'5.3'
p1353
sba(isrc.gp1.models.Advanced
Advanced
p1354
(dp1355
g1048
S'4.0'
p1356
sg1050
S'17.9'
p1357
sg1052
S'.039'
p1358
sg1054
S'2.4'
p1359
sg1056
S'17.3'
p1360
sg1058
S'6.7'
p1361
sg1060
S'-0.4'
p1362
sg22
S'PG'
p1363
sg1063
S'0.1'
p1364
sg1065
S'.430'
p1365
sg1067
S'9.3'
p1366
sg1069
S'.245'
p1367
sg1071
S'.401'
p1368
sg28
S'NBA'
p1369
sg1074
S'-1.2'
p1370
sg1076
S'27.9'
p1371
sg1078
S'1.0'
p1372
sg36
S'36'
p1373
sg38
S'TOT'
p1374
sg40
S'66'
p1375
sg1082
S'0.6'
p1376
sg1084
S'11.0'
p1377
sg1086
S'-0.2'
p1378
sg53
S'988'
p1379
sg1088
S'-1.6'
p1380
sg47
S'2004-05'
p1381
sg1091
S'0.8'
p1382
sba(isrc.gp1.models.Advanced
Advanced
p1383
(dp1384
g1048
S'4.4'
p1385
sg1050
S'14.3'
p1386
sg1052
S'-0.002'
p1387
sg1054
S'2.0'
p1388
sg1056
S'22.1'
p1389
sg1058
S'6.9'
p1390
sg1060
S'-1.3'
p1391
sg22
S'PG'
p1392
sg1063
S'0.0'
p1393
sg1065
S'.422'
p1394
sg1067
S'9.6'
p1395
sg1069
S'.132'
p1396
sg1071
S'.440'
p1397
sg28
S'NBA'
p1398
sg1074
S'-0.5'
p1399
sg1076
S'28.5'
p1400
sg1078
S'0.3'
p1401
sg36
S'36'
p1402
sg38
S'NOH'
p1403
sg40
S'14'
p1404
sg1082
S'0.4'
p1405
sg1084
S'11.1'
p1406
sg1086
S'-0.3'
p1407
sg53
S'412'
p1408
sg1088
S'-1.8'
p1409
sg47
S'2004-05'
p1410
sg1091
S'0.0'
p1411
sba(isrc.gp1.models.Advanced
Advanced
p1412
(dp1413
g1048
S'3.8'
p1414
sg1050
S'21.9'
p1415
sg1052
S'.069'
p1416
sg1054
S'2.7'
p1417
sg1056
S'13.8'
p1418
sg1058
S'6.5'
p1419
sg1060
S'0.2'
p1420
sg22
S'PG'
p1421
sg1063
S'0.1'
p1422
sg1065
S'.440'
p1423
sg1067
S'9.1'
p1424
sg1069
S'.398'
p1425
sg1071
S'.347'
p1426
sg28
S'NBA'
p1427
sg1074
S'-1.6'
p1428
sg1076
S'27.5'
p1429
sg1078
S'0.7'
p1430
sg36
S'36'
p1431
sg38
S'DAL'
p1432
sg40
S'52'
p1433
sg1082
S'0.8'
p1434
sg1084
S'10.9'
p1435
sg1086
S'0.1'
p1436
sg53
S'576'
p1437
sg1088
S'-1.5'
p1438
sg47
S'2004-05'
p1439
sg1091
S'0.8'
p1440
sba(isrc.gp1.models.Advanced
Advanced
p1441
(dp1442
g1048
S'3.6'
p1443
sg1050
S'28.4'
p1444
sg1052
S'.003'
p1445
sg1054
S'2.4'
p1446
sg1056
S'15.4'
p1447
sg1058
S'7.8'
p1448
sg1060
S'0.2'
p1449
sg22
S'PG'
p1450
sg1063
S'-0.1'
p1451
sg1065
S'.444'
p1452
sg1067
S'12.0'
p1453
sg1069
S'.328'
p1454
sg1071
S'.375'
p1455
sg28
S'NBA'
p1456
sg1074
S'-3.1'
p1457
sg1076
S'20.6'
p1458
sg1078
S'0.7'
p1459
sg36
S'37'
p1460
sg38
S'DAL'
p1461
sg40
S'62'
p1462
sg1082
S'0.4'
p1463
sg1084
S'7.3'
p1464
sg1086
S'-0.7'
p1465
sg53
S'622'
p1466
sg1088
S'-2.9'
p1467
sg47
S'2005-06'
p1468
sg1091
S'0.0'
p1469
sba(isrc.gp1.models.Advanced
Advanced
p1470
(dp1471
g1048
S'3.0'
p1472
sg1050
S'15.4'
p1473
sg1052
S'.121'
p1474
sg1054
S'2.9'
p1475
sg1056
S'17.4'
p1476
sg1058
S'6.1'
p1477
sg1060
S'-0.6'
p1478
sg22
S'PG'
p1479
sg1063
S'1.0'
p1480
sg1065
S'.547'
p1481
sg1067
S'9.3'
p1482
sg1069
S'.247'
p1483
sg1071
S'.568'
p1484
sg28
S'NBA'
p1485
sg1074
S'1.7'
p1486
sg1076
S'24.8'
p1487
sg1078
S'1.5'
p1488
sg36
S'38'
p1489
sg38
S'IND'
p1490
sg40
S'81'
p1491
sg1082
S'0.4'
p1492
sg1084
S'15.1'
p1493
sg1086
S'1.7'
p1494
sg53
S'1275'
p1495
sg1088
S'1.1'
p1496
sg47
S'2006-07'
p1497
sg1091
S'3.2'
p1498
sba(isrc.gp1.models.Advanced
Advanced
p1499
(dp1500
g1048
S'3.6'
p1501
sg1050
S'25.0'
p1502
sg1052
S'.024'
p1503
sg1054
S'2.7'
p1504
sg1056
S'13.7'
p1505
sg1058
S'7.1'
p1506
sg1060
S'-0.4'
p1507
sg22
S'PG'
p1508
sg1063
S'-0.1'
p1509
sg1065
S'.499'
p1510
sg1067
S'10.6'
p1511
sg1069
S'.273'
p1512
sg1071
S'.627'
p1513
sg28
S'NBA'
p1514
sg1074
S'-2.6'
p1515
sg1076
S'20.5'
p1516
sg1078
S'0.5'
p1517
sg36
S'39'
p1518
sg38
S'NJN'
p1519
sg40
S'50'
p1520
sg1082
S'0.3'
p1521
sg1084
S'8.7'
p1522
sg1086
S'-0.2'
p1523
sg53
S'549'
p1524
sg1088
S'-3.0'
p1525
sg47
S'2007-08'
p1526
sg1091
S'0.3'
p1527
sbasS'_per36Minutes'
p1528
(lp1529
(isrc.gp1.models.Per36Minutes
Per36Minutes
p1530
(dp1531
g8
S'4.5'
p1532
sg10
S'27.0'
p1533
sg12
S'.375'
p1534
sg14
S'13.5'
p1535
sg16
S'.333'
p1536
sg18
S'9.0'
p1537
sg20
S'45.0'
p1538
sg22
S'PG'
p1539
sg24
S'1.000'
p1540
sg28
S'NBA'
p1541
sg30
S'4.5'
p1542
sg31
S'36.0'
p1543
sg33
S'13.5'
p1544
sg34
S'9.0'
p1545
sg35
S'4.5'
p1546
sg36
S'26'
p1547
sg38
S'ORL'
p1548
sg40
g15
sg41
S'0.0'
p1549
sg43
S'4.5'
p1550
sg44
S'9.0'
p1551
sg45
S'9.0'
p1552
sg46
S'0.0'
p1553
sg47
S'1994-95'
p1554
sg49
S'13.5'
p1555
sg50
S'4.5'
p1556
sg51
S'.500'
p1557
sg53
g32
sg54
g42
sba(isrc.gp1.models.Per36Minutes
Per36Minutes
p1558
(dp1559
g8
S'0.0'
p1560
sg10
S'10.5'
p1561
sg12
S'.500'
p1562
sg14
S'4.4'
p1563
sg16
S'.500'
p1564
sg18
S'5.3'
p1565
sg20
S'36.9'
p1566
sg22
S'PG'
p1567
sg24
S'1.000'
p1568
sg28
S'NBA'
p1569
sg30
S'5.3'
p1570
sg31
S'28.1'
p1571
sg33
S'3.5'
p1572
sg34
S'3.5'
p1573
sg35
S'1.8'
p1574
sg36
S'27'
p1575
sg38
S'ORL'
p1576
sg40
S'13'
p1577
sg41
S'0.0'
p1578
sg43
S'8.8'
p1579
sg44
S'3.5'
p1580
sg45
S'17.6'
p1581
sg46
S'1.8'
p1582
sg47
S'1995-96'
p1583
sg49
S'14.0'
p1584
sg50
S'5.3'
p1585
sg51
S'.500'
p1586
sg53
S'41'
p1587
sg54
g42
sba(isrc.gp1.models.Per36Minutes
Per36Minutes
p1588
(dp1589
g8
S'1.2'
p1590
sg10
S'6.5'
p1591
sg12
S'.383'
p1592
sg14
S'6.2'
p1593
sg16
S'.304'
p1594
sg18
S'2.0'
p1595
sg20
S'14.6'
p1596
sg22
S'PG'
p1597
sg24
S'.868'
p1598
sg28
S'NBA'
p1599
sg30
S'2.2'
p1600
sg31
S'12.3'
p1601
sg33
S'4.1'
p1602
sg34
S'3.8'
p1603
sg35
S'2.7'
p1604
sg36
S'28'
p1605
sg38
S'ORL'
p1606
sg40
S'67'
p1607
sg41
S'0.3'
p1608
sg43
S'2.7'
p1609
sg44
S'3.3'
p1610
sg45
S'5.8'
p1611
sg46
S'1.5'
p1612
sg47
S'1996-97'
p1613
sg49
S'4.7'
p1614
sg50
S'3.5'
p1615
sg51
S'.470'
p1616
sg53
S'1010'
p1617
sg54
g42
sba(isrc.gp1.models.Per36Minutes
Per36Minutes
p1618
(dp1619
g8
S'1.9'
p1620
sg10
S'2.0'
p1621
sg12
S'.411'
p1622
sg14
S'6.9'
p1623
sg16
S'.368'
p1624
sg18
S'0.7'
p1625
sg20
S'12.9'
p1626
sg22
S'PG'
p1627
sg24
S'.854'
p1628
sg28
S'NBA'
p1629
sg30
S'1.7'
p1630
sg31
S'11.1'
p1631
sg33
S'2.8'
p1632
sg34
S'3.6'
p1633
sg35
S'4.6'
p1634
sg36
S'29'
p1635
sg38
S'ORL'
p1636
sg40
S'48'
p1637
sg41
S'0.1'
p1638
sg43
S'3.8'
p1639
sg44
S'3.1'
p1640
sg45
S'9.1'
p1641
sg46
S'2.7'
p1642
sg47
S'1997-98'
p1643
sg49
S'4.5'
p1644
sg50
S'3.3'
p1645
sg51
S'.420'
p1646
sg53
S'1236'
p1647
sg54
S'17'
p1648
sba(isrc.gp1.models.Per36Minutes
Per36Minutes
p1649
(dp1650
g8
S'1.3'
p1651
sg10
S'4.5'
p1652
sg12
S'.441'
p1653
sg14
S'8.0'
p1654
sg16
S'.365'
p1655
sg18
S'1.7'
p1656
sg20
S'16.5'
p1657
sg22
S'PG'
p1658
sg24
S'.904'
p1659
sg28
S'NBA'
p1660
sg30
S'2.6'
p1661
sg31
S'12.5'
p1662
sg33
S'2.2'
p1663
sg34
S'4.3'
p1664
sg35
S'4.3'
p1665
sg36
S'30'
p1666
sg38
S'ORL'
p1667
sg40
S'50'
p1668
sg41
S'0.1'
p1669
sg43
S'3.9'
p1670
sg44
S'3.9'
p1671
sg45
S'8.0'
p1672
sg46
S'3.0'
p1673
sg47
S'1998-99'
p1674
sg49
S'5.5'
p1675
sg50
S'3.8'
p1676
sg51
S'.483'
p1677
sg53
S'1502'
p1678
sg54
S'15'
p1679
sba(isrc.gp1.models.Per36Minutes
Per36Minutes
p1680
(dp1681
g8
S'0.9'
p1682
sg10
S'5.6'
p1683
sg12
S'.433'
p1684
sg14
S'7.0'
p1685
sg16
S'.340'
p1686
sg18
S'1.9'
p1687
sg20
S'18.5'
p1688
sg22
S'PG'
p1689
sg24
S'.911'
p1690
sg28
S'NBA'
p1691
sg30
S'2.3'
p1692
sg31
S'15.6'
p1693
sg33
S'1.9'
p1694
sg34
S'3.4'
p1695
sg35
S'3.8'
p1696
sg36
S'31'
p1697
sg38
S'ORL'
p1698
sg40
S'82'
p1699
sg41
S'0.1'
p1700
sg43
S'4.8'
p1701
sg44
S'3.1'
p1702
sg45
S'10.0'
p1703
sg46
S'2.8'
p1704
sg47
S'1999-00'
p1705
sg49
S'6.7'
p1706
sg50
S'3.4'
p1707
sg51
S'.485'
p1708
sg53
S'2590'
p1709
sg54
S'82'
p1710
sba(isrc.gp1.models.Per36Minutes
Per36Minutes
p1711
(dp1712
g8
S'1.2'
p1713
sg10
S'5.2'
p1714
sg12
S'.412'
p1715
sg14
S'6.8'
p1716
sg16
S'.355'
p1717
sg18
S'1.9'
p1718
sg20
S'15.5'
p1719
sg22
S'PG'
p1720
sg24
S'.884'
p1721
sg28
S'NBA'
p1722
sg30
S'1.8'
p1723
sg31
S'13.0'
p1724
sg33
S'2.0'
p1725
sg34
S'3.2'
p1726
sg35
S'4.5'
p1727
sg36
S'32'
p1728
sg38
S'ORL'
p1729
sg40
S'75'
p1730
sg41
S'0.2'
p1731
sg43
S'3.5'
p1732
sg44
S'2.9'
p1733
sg45
S'7.8'
p1734
sg46
S'3.2'
p1735
sg47
S'2000-01'
p1736
sg49
S'5.4'
p1737
sg50
S'2.6'
p1738
sg51
S'.451'
p1739
sg53
S'2767'
p1740
sg54
S'75'
p1741
sba(isrc.gp1.models.Per36Minutes
Per36Minutes
p1742
(dp1743
g8
S'1.1'
p1744
sg10
S'5.2'
p1745
sg12
S'.419'
p1746
sg14
S'6.0'
p1747
sg16
S'.349'
p1748
sg18
S'1.8'
p1749
sg20
S'13.4'
p1750
sg22
S'PG'
p1751
sg24
S'.888'
p1752
sg28
S'NBA'
p1753
sg30
S'2.1'
p1754
sg31
S'10.9'
p1755
sg33
S'2.2'
p1756
sg34
S'2.7'
p1757
sg35
S'4.2'
p1758
sg36
S'33'
p1759
sg38
S'ORL'
p1760
sg40
S'82'
p1761
sg41
S'0.1'
p1762
sg43
S'2.7'
p1763
sg44
S'2.4'
p1764
sg45
S'5.7'
p1765
sg46
S'3.1'
p1766
sg47
S'2001-02'
p1767
sg49
S'4.6'
p1768
sg50
S'2.3'
p1769
sg51
S'.484'
p1770
sg53
S'2730'
p1771
sg54
S'79'
p1772
sba(isrc.gp1.models.Per36Minutes
Per36Minutes
p1773
(dp1774
g8
S'1.4'
p1775
sg10
S'3.6'
p1776
sg12
S'.409'
p1777
sg14
S'4.9'
p1778
sg16
S'.336'
p1779
sg18
S'1.2'
p1780
sg20
S'11.8'
p1781
sg22
S'PG'
p1782
sg24
S'.878'
p1783
sg28
S'NBA'
p1784
sg30
S'2.1'
p1785
sg31
S'9.9'
p1786
sg33
S'2.6'
p1787
sg34
S'2.9'
p1788
sg35
S'4.5'
p1789
sg36
S'34'
p1790
sg38
S'ORL'
p1791
sg40
S'82'
p1792
sg41
S'0.2'
p1793
sg43
S'2.8'
p1794
sg44
S'2.5'
p1795
sg45
S'6.3'
p1796
sg46
S'3.1'
p1797
sg47
S'2002-03'
p1798
sg49
S'4.0'
p1799
sg50
S'2.5'
p1800
sg51
S'.450'
p1801
sg53
S'2350'
p1802
sg54
S'23'
p1803
sba(isrc.gp1.models.Per36Minutes
Per36Minutes
p1804
(dp1805
g8
S'1.0'
p1806
sg10
S'6.9'
p1807
sg12
S'.395'
p1808
sg14
S'5.0'
p1809
sg16
S'.315'
p1810
sg18
S'2.2'
p1811
sg20
S'13.5'
p1812
sg22
S'PG'
p1813
sg24
S'.854'
p1814
sg28
S'NBA'
p1815
sg30
S'2.1'
p1816
sg31
S'11.8'
p1817
sg33
S'2.4'
p1818
sg34
S'2.3'
p1819
sg35
S'3.6'
p1820
sg36
S'35'
p1821
sg38
S'NOH'
p1822
sg40
S'79'
p1823
sg41
S'0.3'
p1824
sg43
S'2.5'
p1825
sg44
S'2.0'
p1826
sg45
S'4.9'
p1827
sg46
S'2.6'
p1828
sg47
S'2003-04'
p1829
sg49
S'4.7'
p1830
sg50
S'2.5'
p1831
sg51
S'.508'
p1832
sg53
S'2247'
p1833
sg54
S'22'
p1834
sba(isrc.gp1.models.Per36Minutes
Per36Minutes
p1835
(dp1836
g8
S'1.3'
p1837
sg10
S'4.0'
p1838
sg12
S'.321'
p1839
sg14
S'6.5'
p1840
sg16
S'.252'
p1841
sg18
S'1.0'
p1842
sg20
S'9.6'
p1843
sg22
S'PG'
p1844
sg24
S'.853'
p1845
sg28
S'NBA'
p1846
sg30
S'1.6'
p1847
sg31
S'10.1'
p1848
sg33
S'3.4'
p1849
sg34
S'2.5'
p1850
sg35
S'4.2'
p1851
sg36
S'36'
p1852
sg38
S'TOT'
p1853
sg40
S'66'
p1854
sg41
S'0.3'
p1855
sg43
S'2.2'
p1856
sg44
S'2.1'
p1857
sg45
S'6.0'
p1858
sg46
S'2.9'
p1859
sg47
S'2004-05'
p1860
sg49
S'3.2'
p1861
sg50
S'2.4'
p1862
sg51
S'.367'
p1863
sg53
S'988'
p1864
sg54
S'16'
p1865
sba(isrc.gp1.models.Per36Minutes
Per36Minutes
p1866
(dp1867
g8
S'1.4'
p1868
sg10
S'6.1'
p1869
sg12
S'.333'
p1870
sg14
S'5.7'
p1871
sg16
S'.243'
p1872
sg18
S'1.5'
p1873
sg20
S'12.4'
p1874
sg22
S'PG'
p1875
sg24
S'.905'
p1876
sg28
S'NBA'
p1877
sg30
S'1.3'
p1878
sg31
S'13.9'
p1879
sg33
S'2.6'
p1880
sg34
S'1.8'
p1881
sg35
S'4.2'
p1882
sg36
S'36'
p1883
sg38
S'NOH'
p1884
sg40
S'14'
p1885
sg41
S'0.2'
p1886
sg43
S'3.1'
p1887
sg44
S'1.7'
p1888
sg45
S'7.8'
p1889
sg46
S'2.8'
p1890
sg47
S'2004-05'
p1891
sg49
S'4.6'
p1892
sg50
S'2.4'
p1893
sg51
S'.404'
p1894
sg53
S'412'
p1895
sg54
g98
sba(isrc.gp1.models.Per36Minutes
Per36Minutes
p1896
(dp1897
g8
S'1.2'
p1898
sg10
S'2.6'
p1899
sg12
S'.305'
p1900
sg14
S'7.1'
p1901
sg16
S'.268'
p1902
sg18
S'0.7'
p1903
sg20
S'7.6'
p1904
sg22
S'PG'
p1905
sg24
S'.830'
p1906
sg28
S'NBA'
p1907
sg30
S'1.9'
p1908
sg31
S'7.4'
p1909
sg33
S'3.9'
p1910
sg34
S'2.9'
p1911
sg35
S'4.2'
p1912
sg36
S'36'
p1913
sg38
S'DAL'
p1914
sg40
S'52'
p1915
sg41
S'0.4'
p1916
sg43
S'1.6'
p1917
sg44
S'2.4'
p1918
sg45
S'4.8'
p1919
sg46
S'3.0'
p1920
sg47
S'2004-05'
p1921
sg49
S'2.3'
p1922
sg50
S'2.4'
p1923
sg51
S'.325'
p1924
sg53
S'576'
p1925
sg54
g420
sba(isrc.gp1.models.Per36Minutes
Per36Minutes
p1926
(dp1927
g8
S'1.0'
p1928
sg10
S'2.8'
p1929
sg12
S'.336'
p1930
sg14
S'5.0'
p1931
sg16
S'.229'
p1932
sg18
S'0.6'
p1933
sg20
S'7.5'
p1934
sg22
S'PG'
p1935
sg24
S'.786'
p1936
sg28
S'NBA'
p1937
sg30
S'1.6'
p1938
sg31
S'7.4'
p1939
sg33
S'4.1'
p1940
sg34
S'2.4'
p1941
sg35
S'4.7'
p1942
sg36
S'37'
p1943
sg38
S'DAL'
p1944
sg40
S'62'
p1945
sg41
S'0.2'
p1946
sg43
S'1.9'
p1947
sg44
S'1.9'
p1948
sg45
S'4.6'
p1949
sg46
S'3.6'
p1950
sg47
S'2005-06'
p1951
sg49
S'2.5'
p1952
sg50
S'3.4'
p1953
sg51
S'.400'
p1954
sg53
S'622'
p1955
sg54
g19
sba(isrc.gp1.models.Per36Minutes
Per36Minutes
p1956
(dp1957
g8
S'1.0'
p1958
sg10
S'6.0'
p1959
sg12
S'.414'
p1960
sg14
S'5.4'
p1961
sg16
S'.336'
p1962
sg18
S'2.0'
p1963
sg20
S'12.9'
p1964
sg22
S'PG'
p1965
sg24
S'.785'
p1966
sg28
S'NBA'
p1967
sg30
S'2.0'
p1968
sg31
S'10.6'
p1969
sg33
S'2.9'
p1970
sg34
S'2.6'
p1971
sg35
S'3.8'
p1972
sg36
S'38'
p1973
sg38
S'IND'
p1974
sg40
S'81'
p1975
sg41
S'0.2'
p1976
sg43
S'2.4'
p1977
sg44
S'2.1'
p1978
sg45
S'4.6'
p1979
sg46
S'2.9'
p1980
sg47
S'2006-07'
p1981
sg49
S'4.4'
p1982
sg50
S'2.1'
p1983
sg51
S'.515'
p1984
sg53
S'1275'
p1985
sg54
g67
sba(isrc.gp1.models.Per36Minutes
Per36Minutes
p1986
(dp1987
g8
S'1.1'
p1988
sg10
S'4.5'
p1989
sg12
S'.364'
p1990
sg14
S'4.8'
p1991
sg16
S'.333'
p1992
sg18
S'1.5'
p1993
sg20
S'8.1'
p1994
sg22
S'PG'
p1995
sg24
S'.667'
p1996
sg28
S'NBA'
p1997
sg30
S'1.8'
p1998
sg31
S'7.2'
p1999
sg33
S'3.5'
p2000
sg34
S'2.0'
p2001
sg35
S'4.4'
p2002
sg36
S'39'
p2003
sg38
S'NJN'
p2004
sg40
S'50'
p2005
sg41
S'0.1'
p2006
sg43
S'1.1'
p2007
sg44
S'1.3'
p2008
sg45
S'2.7'
p2009
sg46
S'3.3'
p2010
sg47
S'2007-08'
p2011
sg49
S'2.6'
p2012
sg50
S'2.7'
p2013
sg51
S'.415'
p2014
sg53
S'549'
p2015
sg54
g19
sbasS'_fromYear'
p2016
S'1995'
p2017
sS'_url'
p2018
S'http://www.basketball-reference.com/players/a/armstda01.html'
p2019
sS'_perGame'
p2020
(isrc.gp1.models.PerGame
PerGame
p2021
(dp2022
g8
S'0.3'
p2023
sg10
S'1.4'
p2024
sg12
S'.364'
p2025
sS'_effectiveFieldGalPercentage'
p2026
S'.468'
p2027
sg14
S'1.5'
p2028
sg16
S'.333'
p2029
sg18
S'0.5'
p2030
sg20
S'2.5'
p2031
sg22
S'PG'
p2032
sg24
S'.667'
p2033
sg28
S'NBA'
p2034
sg30
S'0.6'
p2035
sg33
S'1.1'
p2036
sS'_fieldGoalsttempted'
p2037
S'2.2'
p2038
sg34
S'0.6'
p2039
sg35
S'1.3'
p2040
sg36
S'39'
p2041
sg38
S'NJN'
p2042
sg40
S'50'
p2043
sg41
S'0.0'
p2044
sg43
S'0.3'
p2045
sg44
S'0.4'
p2046
sg45
S'0.8'
p2047
sg46
S'1.0'
p2048
sg47
S'2007-08'
p2049
sg49
S'0.8'
p2050
sg50
S'0.8'
p2051
sg51
S'.415'
p2052
sg53
S'11.0'
p2053
sg54
g19
sbsS'_weight'
p2054
S'170'
p2055
sS'_dob'
p2056
S'22-6-1968'
p2057
sS'_salary'
p2058
(lp2059
(isrc.gp1.models.Salary
Salary
p2060
(dp2061
g38
S'Orlando Magic'
p2062
sg28
S'NBA'
p2063
sg2058
S'$350,000'
p2064
sg47
S'1995-96'
p2065
sba(isrc.gp1.models.Salary
Salary
p2066
(dp2067
g38
S'Orlando Magic'
p2068
sg28
S'NBA'
p2069
sg2058
S'$410,000'
p2070
sg47
S'1996-97'
p2071
sba(isrc.gp1.models.Salary
Salary
p2072
(dp2073
g38
S'Orlando Magic'
p2074
sg28
S'NBA'
p2075
sg2058
S'$350,000'
p2076
sg47
S'1997-98'
p2077
sba(isrc.gp1.models.Salary
Salary
p2078
(dp2079
g38
S'Orlando Magic'
p2080
sg28
S'NBA'
p2081
sg2058
S'$2,900,000'
p2082
sg47
S'1998-99'
p2083
sba(isrc.gp1.models.Salary
Salary
p2084
(dp2085
g38
S'Orlando Magic'
p2086
sg28
S'NBA'
p2087
sg2058
S'$4,125,000'
p2088
sg47
S'1999-00'
p2089
sba(isrc.gp1.models.Salary
Salary
p2090
(dp2091
g38
S'Orlando Magic'
p2092
sg28
S'NBA'
p2093
sg2058
S'$3,100,000'
p2094
sg47
S'2000-01'
p2095
sba(isrc.gp1.models.Salary
Salary
p2096
(dp2097
g38
S'Orlando Magic'
p2098
sg28
S'NBA'
p2099
sg2058
S'$4,005,000'
p2100
sg47
S'2001-02'
p2101
sba(isrc.gp1.models.Salary
Salary
p2102
(dp2103
g38
S'Orlando Magic'
p2104
sg28
S'NBA'
p2105
sg2058
S'$4,010,000'
p2106
sg47
S'2002-03'
p2107
sba(isrc.gp1.models.Salary
Salary
p2108
(dp2109
g38
S'New Orleans Hornets'
p2110
sg28
S'NBA'
p2111
sg2058
S'$2,475,000'
p2112
sg47
S'2003-04'
p2113
sba(isrc.gp1.models.Salary
Salary
p2114
(dp2115
g38
S'Dallas Mavericks'
p2116
sg28
S'NBA'
p2117
sg2058
S'$2,275,000'
p2118
sg47
S'2004-05'
p2119
sba(isrc.gp1.models.Salary
Salary
p2120
(dp2121
g38
S'Dallas Mavericks'
p2122
sg28
S'NBA'
p2123
sg2058
S'$1,138,500'
p2124
sg47
S'2005-06'
p2125
sba(isrc.gp1.models.Salary
Salary
p2126
(dp2127
g38
S'Indiana Pacers'
p2128
sg28
S'NBA'
p2129
sg2058
S'$1,178,348'
p2130
sg47
S'2006-07'
p2131
sba(isrc.gp1.models.Salary
Salary
p2132
(dp2133
g38
S'New Jersey Nets'
p2134
sg28
S'NBA'
p2135
sg2058
S'$1,219,590'
p2136
sg47
S'2007-08'
p2137
sbasg22
S'G'
p2138
sb.