(isrc.gp1.models.Player
Player
p0
(dp1
S'_experience'
p2
S'NA'
p3
sS'_totals'
p4
(lp5
(isrc.gp1.models.Totals
Totals
p6
(dp7
S'_offensiveRebounds'
p8
S'252'
p9
sS'_threePointsAttempted'
p10
S'12'
p11
sS'_fieldGoalsPercentage'
p12
S'.468'
p13
sS'_assist'
p14
S'95'
p15
sS'_threePointsPercentage'
p16
S'.333'
p17
sS'_threePoints'
p18
S'4'
p19
sS'_points'
p20
S'1427'
p21
sS'_position'
p22
S'PF'
p23
sS'_freeThrowsPercentage'
p24
S'.820'
p25
sS'_effectiveFieldGoalPercentage'
p26
S'.469'
p27
sS'_league'
p28
S'ABA'
p29
sS'_steals'
p30
g3
sS'_fieldGoalsAttempted'
p31
S'1204'
p32
sS'_personalFouls'
p33
S'321'
p34
sS'_freeThrowsAttempted'
p35
S'362'
p36
sS'_totalRebounds'
p37
S'713'
p38
sS'_age'
p39
S'26'
p40
sS'_team'
p41
S'HSM'
p42
sS'_games'
p43
S'76'
p44
sS'_blocks'
p45
g3
sS'_twoPoints'
p46
S'559'
p47
sS'_freeThrows'
p48
S'297'
p49
sS'_twoPointsAttempted'
p50
S'1192'
p51
sS'_defensiveRebounds'
p52
S'461'
p53
sS'_season'
p54
g3
sS'_fieldGoals'
p55
S'563'
p56
sS'_turnOvers'
p57
S'154'
p58
sS'_twoPointsPercentage'
p59
S'.469'
p60
sS'_minutesPlayed'
p61
S'2689'
p62
sS'_gamesStarted'
p63
g3
sba(isrc.gp1.models.Totals
Totals
p64
(dp65
g8
S'175'
p66
sg10
S'3'
p67
sg12
S'.476'
p68
sg14
S'103'
p69
sg16
S'.000'
p70
sg18
S'0'
p71
sg20
S'1046'
p72
sg22
S'SF'
p73
sg24
S'.833'
p74
sg26
S'.476'
p75
sg28
S'ABA'
p76
sg30
g3
sg31
S'888'
p77
sg33
S'304'
p78
sg35
S'240'
p79
sg37
S'597'
p80
sg39
S'27'
p81
sg41
S'HSM'
p82
sg43
S'78'
p83
sg45
g3
sg46
S'423'
p84
sg48
S'200'
p85
sg50
S'885'
p86
sg52
S'422'
p87
sg54
S'1968-69'
p88
sg55
S'423'
p89
sg57
S'156'
p90
sg59
S'.478'
p91
sg61
S'2429'
p92
sg63
g3
sba(isrc.gp1.models.Totals
Totals
p93
(dp94
g8
S'110'
p95
sg10
S'1'
p96
sg12
S'.521'
p97
sg14
S'45'
p98
sg16
S'.000'
p99
sg18
g71
sg20
S'729'
p100
sg22
S'PF'
p101
sg24
S'.810'
p102
sg26
S'.521'
p103
sg28
S'ABA'
p104
sg30
g3
sg31
S'593'
p105
sg33
S'249'
p106
sg35
S'137'
p107
sg37
S'379'
p108
sg39
S'28'
p109
sg41
S'INA'
p110
sg43
S'82'
p111
sg45
g3
sg46
S'309'
p112
sg48
S'111'
p113
sg50
S'592'
p114
sg52
S'269'
p115
sg54
S'1969-70'
p116
sg55
S'309'
p117
sg57
S'61'
p118
sg59
S'.522'
p119
sg61
S'1504'
p120
sg63
g3
sba(isrc.gp1.models.Totals
Totals
p121
(dp122
g8
S'151'
p123
sg10
S'8'
p124
sg12
S'.499'
p125
sg14
S'53'
p126
sg16
S'.625'
p127
sg18
S'5'
p128
sg20
S'880'
p129
sg22
S'PF'
p130
sg24
S'.865'
p131
sg26
S'.503'
p132
sg28
S'ABA'
p133
sg30
g3
sg31
S'741'
p134
sg33
S'260'
p135
sg35
S'156'
p136
sg37
S'426'
p137
sg39
S'29'
p138
sg41
S'TOT'
p139
sg43
S'80'
p140
sg45
g3
sg46
S'365'
p141
sg48
S'135'
p142
sg50
S'733'
p143
sg52
S'275'
p144
sg54
S'1970-71'
p145
sg55
S'370'
p146
sg57
S'77'
p147
sg59
S'.498'
p148
sg61
S'1643'
p149
sg63
g3
sba(isrc.gp1.models.Totals
Totals
p150
(dp151
g8
S'71'
p152
sg10
S'6'
p153
sg12
S'.497'
p154
sg14
S'22'
p155
sg16
S'.667'
p156
sg18
g19
sg20
S'440'
p157
sg22
S'PF'
p158
sg24
S'.899'
p159
sg26
S'.503'
p160
sg28
S'ABA'
p161
sg30
g3
sg31
S'376'
p162
sg33
S'153'
p163
sg35
S'69'
p164
sg37
S'217'
p165
sg39
S'29'
p166
sg41
S'INA'
p167
sg43
S'51'
p168
sg45
g3
sg46
S'183'
p169
sg48
S'62'
p170
sg50
S'370'
p171
sg52
S'146'
p172
sg54
S'1970-71'
p173
sg55
S'187'
p174
sg57
S'41'
p175
sg59
S'.495'
p176
sg61
S'840'
p177
sg63
g3
sba(isrc.gp1.models.Totals
Totals
p178
(dp179
g8
S'80'
p180
sg10
S'2'
p181
sg12
S'.501'
p182
sg14
S'31'
p183
sg16
S'.500'
p184
sg18
g96
sg20
S'440'
p185
sg22
S'PF'
p186
sg24
S'.839'
p187
sg26
S'.503'
p188
sg28
S'ABA'
p189
sg30
g3
sg31
S'365'
p190
sg33
S'107'
p191
sg35
S'87'
p192
sg37
S'209'
p193
sg39
S'29'
p194
sg41
S'DNR'
p195
sg43
S'29'
p196
sg45
g3
sg46
S'182'
p197
sg48
S'73'
p198
sg50
S'363'
p199
sg52
S'129'
p200
sg54
S'1970-71'
p201
sg55
S'183'
p202
sg57
S'36'
p203
sg59
S'.501'
p204
sg61
S'803'
p205
sg63
g3
sba(isrc.gp1.models.Totals
Totals
p206
(dp207
g8
S'167'
p208
sg10
g67
sg12
S'.456'
p209
sg14
S'113'
p210
sg16
S'.000'
p211
sg18
g71
sg20
S'1035'
p212
sg22
S'PF'
p213
sg24
S'.846'
p214
sg26
S'.456'
p215
sg28
S'ABA'
p216
sg30
g3
sg31
S'954'
p217
sg33
S'271'
p218
sg35
S'195'
p219
sg37
S'471'
p220
sg39
S'30'
p221
sg41
S'DNR'
p222
sg43
S'84'
p223
sg45
g3
sg46
S'435'
p224
sg48
S'165'
p225
sg50
S'951'
p226
sg52
S'304'
p227
sg54
S'1971-72'
p228
sg55
S'435'
p229
sg57
S'132'
p230
sg59
S'.457'
p231
sg61
S'2193'
p232
sg63
g3
sba(isrc.gp1.models.Totals
Totals
p233
(dp234
g8
g128
sg10
g96
sg12
S'.571'
p235
sg14
g96
sg16
S'.000'
p236
sg18
g71
sg20
S'43'
p237
sg22
S'PF'
p238
sg24
S'1.000'
p239
sg26
S'.571'
p240
sg28
S'ABA'
p241
sg30
g3
sg31
S'28'
p242
sg33
g153
sg35
S'11'
p243
sg37
S'18'
p244
sg39
S'31'
p245
sg41
S'TOT'
p246
sg43
S'14'
p247
sg45
g3
sg46
S'16'
p248
sg48
S'11'
p249
sg50
S'27'
p250
sg52
S'13'
p251
sg54
S'1972-73'
p252
sg55
S'16'
p253
sg57
g128
sg59
S'.593'
p254
sg61
S'96'
p255
sg63
g3
sba(isrc.gp1.models.Totals
Totals
p256
(dp257
g8
g96
sg10
g96
sg12
S'.563'
p258
sg14
g96
sg16
S'.000'
p259
sg18
g71
sg20
S'23'
p260
sg22
S'PF'
p261
sg24
S'1.000'
p262
sg26
S'.563'
p263
sg28
S'ABA'
p264
sg30
g3
sg31
S'16'
p265
sg33
g67
sg35
g128
sg37
g153
sg39
S'31'
p266
sg41
S'NYA'
p267
sg43
g124
sg45
g3
sg46
S'9'
p268
sg48
g128
sg50
S'15'
p269
sg52
g128
sg54
S'1972-73'
p270
sg55
g268
sg57
g96
sg59
S'.600'
p271
sg61
S'46'
p272
sg63
g3
sba(isrc.gp1.models.Totals
Totals
p273
(dp274
g8
g19
sg10
g71
sg12
S'.583'
p275
sg14
g71
sg16
g3
sg18
g71
sg20
S'20'
p276
sg22
S'PF'
p277
sg24
S'1.000'
p278
sg26
S'.583'
p279
sg28
S'ABA'
p280
sg30
g3
sg31
S'12'
p281
sg33
g67
sg35
g153
sg37
S'12'
p282
sg39
S'31'
p283
sg41
S'DLC'
p284
sg43
g153
sg45
g3
sg46
S'7'
p285
sg48
g153
sg50
S'12'
p286
sg52
g124
sg54
S'1972-73'
p287
sg55
g285
sg57
g19
sg59
S'.583'
p288
sg61
S'50'
p289
sg63
g3
sbasS'_college'
p290
S'Arizona State University'
p291
sS'_toYear'
p292
S'1973'
p293
sS'_height'
p294
S'6-7'
p295
sS'_active'
p296
I00
sS'_shootingHand'
p297
VRight
p298
sS'_name'
p299
S'Arthur Becker'
p300
sS'_per100Possessions'
p301
(lp302
sS'_advanced'
p303
(lp304
(isrc.gp1.models.Advanced
Advanced
p305
(dp306
S'_offensiveReboundPercentage'
p307
g3
sS'_turnOverPercentage'
p308
S'10.1'
p309
sS'_winSharesPer48Minutes'
p310
S'.171'
p311
sS'_stealPercentage'
p312
g3
sS'_usagePercentage'
p313
S'21.4'
p314
sS'_totalReboundsPercentage'
p315
S'11.5'
p316
sS'_defensiveBoxPlusMinus'
p317
g3
sg22
S'PF'
p318
sS'_valueOverReplacementPlayer'
p319
g3
sS'_trueShootingPercentage'
p320
S'.523'
p321
sS'_defensiveReboundPercentage'
p322
g3
sS'_freeThrowsAttempRate'
p323
S'.301'
p324
sS'_threePointsAttempRate'
p325
S'.010'
p326
sg28
S'ABA'
p327
sS'_offensiveBoxPlusMinues'
p328
g3
sS'_assistPercentage'
p329
S'5.8'
p330
sS'_defensiveWinShares'
p331
S'3.4'
p332
sg39
S'26'
p333
sg41
S'HSM'
p334
sg43
S'76'
p335
sS'_blockPercentage'
p336
g3
sS'_playerEfficiencyRating'
p337
S'20.4'
p338
sS'_offensiveWinShares'
p339
S'6.2'
p340
sg61
S'2689'
p341
sS'_boxPlusMinus'
p342
g3
sg54
g3
sS'_winShares'
p343
S'9.6'
p344
sba(isrc.gp1.models.Advanced
Advanced
p345
(dp346
g307
g3
sg308
S'13.6'
p347
sg310
S'.107'
p348
sg312
g3
sg313
S'17.1'
p349
sg315
S'10.4'
p350
sg317
g3
sg22
S'SF'
p351
sg319
g3
sg320
S'.526'
p352
sg322
g3
sg323
S'.270'
p353
sg325
S'.003'
p354
sg28
S'ABA'
p355
sg328
g3
sg329
S'6.3'
p356
sg331
S'2.1'
p357
sg39
S'27'
p358
sg41
S'HSM'
p359
sg43
S'78'
p360
sg336
g3
sg337
S'14.2'
p361
sg339
S'3.3'
p362
sg61
S'2429'
p363
sg342
g3
sg54
S'1968-69'
p364
sg343
S'5.4'
p365
sba(isrc.gp1.models.Advanced
Advanced
p366
(dp367
g307
g3
sg308
S'8.5'
p368
sg310
S'.147'
p369
sg312
g3
sg313
S'18.1'
p370
sg315
S'11.4'
p371
sg317
g3
sg22
S'PF'
p372
sg319
g3
sg320
S'.558'
p373
sg322
g3
sg323
S'.231'
p374
sg325
S'.002'
p375
sg28
S'ABA'
p376
sg328
g3
sg329
S'4.4'
p377
sg331
S'1.4'
p378
sg39
S'28'
p379
sg41
S'INA'
p380
sg43
S'82'
p381
sg336
g3
sg337
S'16.7'
p382
sg339
S'3.2'
p383
sg61
S'1504'
p384
sg342
g3
sg54
S'1969-70'
p385
sg343
S'4.6'
p386
sba(isrc.gp1.models.Advanced
Advanced
p387
(dp388
g307
g3
sg308
S'8.7'
p389
sg310
S'.129'
p390
sg312
g3
sg313
S'19.6'
p391
sg315
S'11.4'
p392
sg317
g3
sg22
S'PF'
p393
sg319
g3
sg320
S'.543'
p394
sg322
g3
sg323
S'.211'
p395
sg325
S'.011'
p396
sg28
S'ABA'
p397
sg328
g3
sg329
S'4.5'
p398
sg331
S'1.6'
p399
sg39
S'29'
p400
sg41
S'TOT'
p401
sg43
S'80'
p402
sg336
g3
sg337
S'16.7'
p403
sg339
S'2.8'
p404
sg61
S'1643'
p405
sg342
g3
sg54
S'1970-71'
p406
sg343
S'4.4'
p407
sba(isrc.gp1.models.Advanced
Advanced
p408
(dp409
g307
g3
sg308
S'9.2'
p410
sg310
S'.130'
p411
sg312
g3
sg313
S'20.0'
p412
sg315
S'11.7'
p413
sg317
g3
sg22
S'PF'
p414
sg319
g3
sg320
S'.541'
p415
sg322
g3
sg323
S'.184'
p416
sg325
S'.016'
p417
sg28
S'ABA'
p418
sg328
g3
sg329
S'3.7'
p419
sg331
S'0.9'
p420
sg39
S'29'
p421
sg41
S'INA'
p422
sg43
S'51'
p423
sg336
g3
sg337
S'15.3'
p424
sg339
S'1.4'
p425
sg61
S'840'
p426
sg342
g3
sg54
S'1970-71'
p427
sg343
S'2.3'
p428
sba(isrc.gp1.models.Advanced
Advanced
p429
(dp430
g307
g3
sg308
S'8.2'
p431
sg310
S'.128'
p432
sg312
g3
sg313
S'19.1'
p433
sg315
S'11.1'
p434
sg317
g3
sg22
S'PF'
p435
sg319
g3
sg320
S'.546'
p436
sg322
g3
sg323
S'.238'
p437
sg325
S'.005'
p438
sg28
S'ABA'
p439
sg328
g3
sg329
S'5.4'
p440
sg331
S'0.7'
p441
sg39
S'29'
p442
sg41
S'DNR'
p443
sg43
S'29'
p444
sg336
g3
sg337
S'18.2'
p445
sg339
S'1.4'
p446
sg61
S'803'
p447
sg342
g3
sg54
S'1970-71'
p448
sg343
S'2.1'
p449
sba(isrc.gp1.models.Advanced
Advanced
p450
(dp451
g307
S'6.7'
p452
sg308
S'11.3'
p453
sg310
S'.082'
p454
sg312
g3
sg313
S'20.0'
p455
sg315
S'9.7'
p456
sg317
g3
sg22
S'PF'
p457
sg319
g3
sg320
S'.498'
p458
sg322
S'12.9'
p459
sg323
S'.204'
p460
sg325
S'.003'
p461
sg28
S'ABA'
p462
sg328
g3
sg329
S'7.2'
p463
sg331
S'2.7'
p464
sg39
S'30'
p465
sg41
S'DNR'
p466
sg43
S'84'
p467
sg336
g3
sg337
S'13.2'
p468
sg339
S'1.1'
p469
sg61
S'2193'
p470
sg342
g3
sg54
S'1971-72'
p471
sg343
S'3.7'
p472
sba(isrc.gp1.models.Advanced
Advanced
p473
(dp474
g307
S'5.2'
p475
sg308
S'13.2'
p476
sg310
S'.173'
p477
sg312
g3
sg313
S'15.8'
p478
sg315
S'9.5'
p479
sg317
g3
sg22
S'PF'
p480
sg319
g3
sg320
S'.655'
p481
sg322
S'13.9'
p482
sg323
S'.393'
p483
sg325
S'.036'
p484
sg28
S'ABA'
p485
sg328
g3
sg329
S'1.6'
p486
sg331
S'0.0'
p487
sg39
S'31'
p488
sg41
S'TOT'
p489
sg43
S'14'
p490
sg336
g3
sg337
S'16.0'
p491
sg339
S'0.3'
p492
sg61
S'96'
p493
sg342
g3
sg54
S'1972-73'
p494
sg343
S'0.3'
p495
sba(isrc.gp1.models.Advanced
Advanced
p496
(dp497
g307
S'2.3'
p498
sg308
S'5.2'
p499
sg310
S'.162'
p500
sg312
g3
sg313
S'17.1'
p501
sg315
S'6.6'
p502
sg317
g3
sg22
S'PF'
p503
sg319
g3
sg320
S'.632'
p504
sg322
S'10.7'
p505
sg323
S'.313'
p506
sg325
S'.063'
p507
sg28
S'ABA'
p508
sg328
g3
sg329
S'3.4'
p509
sg331
S'0.0'
p510
sg39
S'31'
p511
sg41
S'NYA'
p512
sg43
g124
sg336
g3
sg337
S'17.8'
p513
sg339
S'0.2'
p514
sg61
S'46'
p515
sg342
g3
sg54
S'1972-73'
p516
sg343
S'0.2'
p517
sba(isrc.gp1.models.Advanced
Advanced
p518
(dp519
g307
S'7.8'
p520
sg308
S'21.5'
p521
sg310
S'.183'
p522
sg312
g3
sg313
S'14.6'
p523
sg315
S'12.2'
p524
sg317
g3
sg22
S'PF'
p525
sg319
g3
sg320
S'.683'
p526
sg322
S'16.8'
p527
sg323
S'.500'
p528
sg325
S'.000'
p529
sg28
S'ABA'
p530
sg328
g3
sg329
S'0.0'
p531
sg331
S'0.0'
p532
sg39
S'31'
p533
sg41
S'DLC'
p534
sg43
g153
sg336
g3
sg337
S'14.3'
p535
sg339
S'0.2'
p536
sg61
S'50'
p537
sg342
g3
sg54
S'1972-73'
p538
sg343
S'0.2'
p539
sbasS'_per36Minutes'
p540
(lp541
(isrc.gp1.models.Per36Minutes
Per36Minutes
p542
(dp543
g8
S'3.4'
p544
sg10
S'0.2'
p545
sg12
S'.468'
p546
sg14
S'1.3'
p547
sg16
S'.333'
p548
sg18
S'0.1'
p549
sg20
S'19.1'
p550
sg22
S'PF'
p551
sg24
S'.820'
p552
sg28
S'ABA'
p553
sg30
g3
sg31
S'16.1'
p554
sg33
S'4.3'
p555
sg35
S'4.8'
p556
sg37
S'9.5'
p557
sg39
S'26'
p558
sg41
S'HSM'
p559
sg43
S'76'
p560
sg45
g3
sg46
S'7.5'
p561
sg48
S'4.0'
p562
sg50
S'16.0'
p563
sg52
S'6.2'
p564
sg54
g3
sg55
S'7.5'
p565
sg57
S'2.1'
p566
sg59
S'.469'
p567
sg61
S'2689'
p568
sg63
g3
sba(isrc.gp1.models.Per36Minutes
Per36Minutes
p569
(dp570
g8
S'2.6'
p571
sg10
S'0.0'
p572
sg12
S'.476'
p573
sg14
S'1.5'
p574
sg16
S'.000'
p575
sg18
S'0.0'
p576
sg20
S'15.5'
p577
sg22
S'SF'
p578
sg24
S'.833'
p579
sg28
S'ABA'
p580
sg30
g3
sg31
S'13.2'
p581
sg33
S'4.5'
p582
sg35
S'3.6'
p583
sg37
S'8.8'
p584
sg39
S'27'
p585
sg41
S'HSM'
p586
sg43
S'78'
p587
sg45
g3
sg46
S'6.3'
p588
sg48
S'3.0'
p589
sg50
S'13.1'
p590
sg52
S'6.3'
p591
sg54
S'1968-69'
p592
sg55
S'6.3'
p593
sg57
S'2.3'
p594
sg59
S'.478'
p595
sg61
S'2429'
p596
sg63
g3
sba(isrc.gp1.models.Per36Minutes
Per36Minutes
p597
(dp598
g8
S'2.6'
p599
sg10
S'0.0'
p600
sg12
S'.521'
p601
sg14
S'1.1'
p602
sg16
S'.000'
p603
sg18
S'0.0'
p604
sg20
S'17.4'
p605
sg22
S'PF'
p606
sg24
S'.810'
p607
sg28
S'ABA'
p608
sg30
g3
sg31
S'14.2'
p609
sg33
S'6.0'
p610
sg35
S'3.3'
p611
sg37
S'9.1'
p612
sg39
S'28'
p613
sg41
S'INA'
p614
sg43
S'82'
p615
sg45
g3
sg46
S'7.4'
p616
sg48
S'2.7'
p617
sg50
S'14.2'
p618
sg52
S'6.4'
p619
sg54
S'1969-70'
p620
sg55
S'7.4'
p621
sg57
S'1.5'
p622
sg59
S'.522'
p623
sg61
S'1504'
p624
sg63
g3
sba(isrc.gp1.models.Per36Minutes
Per36Minutes
p625
(dp626
g8
S'3.3'
p627
sg10
S'0.2'
p628
sg12
S'.499'
p629
sg14
S'1.2'
p630
sg16
S'.625'
p631
sg18
S'0.1'
p632
sg20
S'19.3'
p633
sg22
S'PF'
p634
sg24
S'.865'
p635
sg28
S'ABA'
p636
sg30
g3
sg31
S'16.2'
p637
sg33
S'5.7'
p638
sg35
S'3.4'
p639
sg37
S'9.3'
p640
sg39
S'29'
p641
sg41
S'TOT'
p642
sg43
S'80'
p643
sg45
g3
sg46
S'8.0'
p644
sg48
S'3.0'
p645
sg50
S'16.1'
p646
sg52
S'6.0'
p647
sg54
S'1970-71'
p648
sg55
S'8.1'
p649
sg57
S'1.7'
p650
sg59
S'.498'
p651
sg61
S'1643'
p652
sg63
g3
sba(isrc.gp1.models.Per36Minutes
Per36Minutes
p653
(dp654
g8
S'3.0'
p655
sg10
S'0.3'
p656
sg12
S'.497'
p657
sg14
S'0.9'
p658
sg16
S'.667'
p659
sg18
S'0.2'
p660
sg20
S'18.9'
p661
sg22
S'PF'
p662
sg24
S'.899'
p663
sg28
S'ABA'
p664
sg30
g3
sg31
S'16.1'
p665
sg33
S'6.6'
p666
sg35
S'3.0'
p667
sg37
S'9.3'
p668
sg39
S'29'
p669
sg41
S'INA'
p670
sg43
S'51'
p671
sg45
g3
sg46
S'7.8'
p672
sg48
S'2.7'
p673
sg50
S'15.9'
p674
sg52
S'6.3'
p675
sg54
S'1970-71'
p676
sg55
S'8.0'
p677
sg57
S'1.8'
p678
sg59
S'.495'
p679
sg61
S'840'
p680
sg63
g3
sba(isrc.gp1.models.Per36Minutes
Per36Minutes
p681
(dp682
g8
S'3.6'
p683
sg10
S'0.1'
p684
sg12
S'.501'
p685
sg14
S'1.4'
p686
sg16
S'.500'
p687
sg18
S'0.0'
p688
sg20
S'19.7'
p689
sg22
S'PF'
p690
sg24
S'.839'
p691
sg28
S'ABA'
p692
sg30
g3
sg31
S'16.4'
p693
sg33
S'4.8'
p694
sg35
S'3.9'
p695
sg37
S'9.4'
p696
sg39
S'29'
p697
sg41
S'DNR'
p698
sg43
S'29'
p699
sg45
g3
sg46
S'8.2'
p700
sg48
S'3.3'
p701
sg50
S'16.3'
p702
sg52
S'5.8'
p703
sg54
S'1970-71'
p704
sg55
S'8.2'
p705
sg57
S'1.6'
p706
sg59
S'.501'
p707
sg61
S'803'
p708
sg63
g3
sba(isrc.gp1.models.Per36Minutes
Per36Minutes
p709
(dp710
g8
S'2.7'
p711
sg10
S'0.0'
p712
sg12
S'.456'
p713
sg14
S'1.9'
p714
sg16
S'.000'
p715
sg18
S'0.0'
p716
sg20
S'17.0'
p717
sg22
S'PF'
p718
sg24
S'.846'
p719
sg28
S'ABA'
p720
sg30
g3
sg31
S'15.7'
p721
sg33
S'4.4'
p722
sg35
S'3.2'
p723
sg37
S'7.7'
p724
sg39
S'30'
p725
sg41
S'DNR'
p726
sg43
S'84'
p727
sg45
g3
sg46
S'7.1'
p728
sg48
S'2.7'
p729
sg50
S'15.6'
p730
sg52
S'5.0'
p731
sg54
S'1971-72'
p732
sg55
S'7.1'
p733
sg57
S'2.2'
p734
sg59
S'.457'
p735
sg61
S'2193'
p736
sg63
g3
sba(isrc.gp1.models.Per36Minutes
Per36Minutes
p737
(dp738
g8
S'1.9'
p739
sg10
S'0.4'
p740
sg12
S'.571'
p741
sg14
S'0.4'
p742
sg16
S'.000'
p743
sg18
S'0.0'
p744
sg20
S'16.1'
p745
sg22
S'PF'
p746
sg24
S'1.000'
p747
sg28
S'ABA'
p748
sg30
g3
sg31
S'10.5'
p749
sg33
S'2.3'
p750
sg35
S'4.1'
p751
sg37
S'6.8'
p752
sg39
S'31'
p753
sg41
S'TOT'
p754
sg43
S'14'
p755
sg45
g3
sg46
S'6.0'
p756
sg48
S'4.1'
p757
sg50
S'10.1'
p758
sg52
S'4.9'
p759
sg54
S'1972-73'
p760
sg55
S'6.0'
p761
sg57
S'1.9'
p762
sg59
S'.593'
p763
sg61
S'96'
p764
sg63
g3
sba(isrc.gp1.models.Per36Minutes
Per36Minutes
p765
(dp766
g8
S'0.8'
p767
sg10
S'0.8'
p768
sg12
S'.563'
p769
sg14
S'0.8'
p770
sg16
S'.000'
p771
sg18
S'0.0'
p772
sg20
S'18.0'
p773
sg22
S'PF'
p774
sg24
S'1.000'
p775
sg28
S'ABA'
p776
sg30
g3
sg31
S'12.5'
p777
sg33
S'2.3'
p778
sg35
S'3.9'
p779
sg37
S'4.7'
p780
sg39
S'31'
p781
sg41
S'NYA'
p782
sg43
g124
sg45
g3
sg46
S'7.0'
p783
sg48
S'3.9'
p784
sg50
S'11.7'
p785
sg52
S'3.9'
p786
sg54
S'1972-73'
p787
sg55
S'7.0'
p788
sg57
S'0.8'
p789
sg59
S'.600'
p790
sg61
S'46'
p791
sg63
g3
sba(isrc.gp1.models.Per36Minutes
Per36Minutes
p792
(dp793
g8
S'2.9'
p794
sg10
S'0.0'
p795
sg12
S'.583'
p796
sg14
S'0.0'
p797
sg16
g3
sg18
S'0.0'
p798
sg20
S'14.4'
p799
sg22
S'PF'
p800
sg24
S'1.000'
p801
sg28
S'ABA'
p802
sg30
g3
sg31
S'8.6'
p803
sg33
S'2.2'
p804
sg35
S'4.3'
p805
sg37
S'8.6'
p806
sg39
S'31'
p807
sg41
S'DLC'
p808
sg43
g153
sg45
g3
sg46
S'5.0'
p809
sg48
S'4.3'
p810
sg50
S'8.6'
p811
sg52
S'5.8'
p812
sg54
S'1972-73'
p813
sg55
S'5.0'
p814
sg57
S'2.9'
p815
sg59
S'.583'
p816
sg61
S'50'
p817
sg63
g3
sbasS'_fromYear'
p818
S'1968'
p819
sS'_url'
p820
S'http://www.basketball-reference.com/players/b/beckear01.html'
p821
sS'_perGame'
p822
(isrc.gp1.models.PerGame
PerGame
p823
(dp824
g8
S'0.7'
p825
sg10
S'0.0'
p826
sg12
S'.583'
p827
sS'_effectiveFieldGalPercentage'
p828
S'.583'
p829
sg14
S'0.0'
p830
sg16
g3
sg18
S'0.0'
p831
sg20
S'3.3'
p832
sg22
S'PF'
p833
sg24
S'1.000'
p834
sg28
S'ABA'
p835
sg30
g3
sg33
S'0.5'
p836
sS'_fieldGoalsttempted'
p837
S'2.0'
p838
sg35
S'1.0'
p839
sg37
S'2.0'
p840
sg39
S'31'
p841
sg41
S'DLC'
p842
sg43
g153
sg45
g3
sg46
S'1.2'
p843
sg48
S'1.0'
p844
sg50
S'2.0'
p845
sg52
S'1.3'
p846
sg54
S'1972-73'
p847
sg55
S'1.2'
p848
sg57
S'0.7'
p849
sg59
S'.583'
p850
sg61
S'8.3'
p851
sg63
g3
sbsS'_weight'
p852
S'205'
p853
sS'_dob'
p854
S'12-1-1942'
p855
sS'_salary'
p856
(lp857
sg22
S'F'
p858
sb.