(isrc.gp1.models.Player
Player
p0
(dp1
S'_experience'
p2
S'NA'
p3
sS'_totals'
p4
(lp5
(isrc.gp1.models.Totals
Totals
p6
(dp7
S'_offensiveRebounds'
p8
S'12'
p9
sS'_threePointsAttempted'
p10
S'7'
p11
sS'_fieldGoalsPercentage'
p12
S'0'
p13
sS'_assist'
p14
S'5'
p15
sS'_threePointsPercentage'
p16
S'22'
p17
sS'_threePoints'
p18
g13
sS'_points'
p19
g3
sS'_position'
p20
S'C'
p21
sS'_freeThrowsPercentage'
p22
S'6'
p23
sS'_effectiveFieldGoalPercentage'
p24
S'2'
p25
sS'_league'
p26
S'NBA'
p27
sS'_steals'
p28
g15
sS'_fieldGoalsAttempted'
p29
S'.318'
p30
sS'_personalFouls'
p31
g3
sS'_freeThrowsAttempted'
p32
g23
sS'_totalRebounds'
p33
g13
sS'_age'
p34
S'23'
p35
sS'_team'
p36
S'DEN'
p37
sS'_games'
p38
S'8'
p39
sS'_blocks'
p40
g39
sS'_twoPoints'
p41
S'.318'
p42
sS'_freeThrows'
p43
S'1.000'
p44
sS'_twoPointsAttempted'
p45
S'.318'
p46
sS'_defensiveRebounds'
p47
S'3'
p48
sS'_season'
p49
S'1979-80'
p50
sS'_fieldGoals'
p51
S'22'
p52
sS'_turnOvers'
p53
S'16'
p54
sS'_twoPointsPercentage'
p55
g25
sS'_minutesPlayed'
p56
g11
sS'_gamesStarted'
p57
S'45'
p58
sbasS'_college'
p59
S'Augustana College (SD)'
p60
sS'_toYear'
p61
S'1980'
p62
sS'_height'
p63
S'6-9'
p64
sS'_active'
p65
I00
sS'_shootingHand'
p66
VRight
p67
sS'_name'
p68
S'Arvid Kramer'
p69
sS'_per100Possessions'
p70
(lp71
(isrc.gp1.models.Per100Possession
Per100Possession
p72
(dp73
g8
S'12.3'
p74
sg10
S'7.2'
p75
sg12
S'0.0'
p76
sS'_offensiveRating'
p77
g3
sg14
S'5.1'
p78
sg16
S'22.6'
p79
sg18
S'0.0'
p80
sg19
S'107'
p81
sg20
g21
sS'_defensiveRating'
p82
g3
sg22
S'6.2'
p83
sg26
S'NBA'
p84
sg28
S'5.1'
p85
sg29
S'.318'
p86
sg31
S'77'
p87
sg32
S'6.2'
p88
sg33
S'0.0'
p89
sg34
S'23'
p90
sg36
S'DEN'
p91
sg38
g39
sg40
S'8.2'
p92
sg41
S'.318'
p93
sg43
S'1.000'
p94
sg45
S'2.1'
p95
sg47
S'3.1'
p96
sg49
S'1979-80'
p97
sg51
S'22.6'
p98
sg53
S'16.4'
p99
sg55
S'2.1'
p100
sg56
S'7.2'
p101
sg57
S'45'
p102
sbasS'_advanced'
p103
(lp104
(isrc.gp1.models.Advanced
Advanced
p105
(dp106
S'_offensiveReboundPercentage'
p107
S'13.6'
p108
sS'_turnOverPercentage'
p109
S'17.9'
p110
sS'_winSharesPer48Minutes'
p111
S'-0.102'
p112
sS'_stealPercentage'
p113
S'0.0'
p114
sS'_usagePercentage'
p115
S'24.3'
p116
sS'_totalReboundsPercentage'
p117
S'13.9'
p118
sS'_defensiveBoxPlusMinus'
p119
S'-0.7'
p120
sg20
g21
sS'_valueOverReplacementPlayer'
p121
S'-0.1'
p122
sS'_trueShootingPercentage'
p123
S'.350'
p124
sS'_defensiveReboundPercentage'
p125
S'14.2'
p126
sS'_freeThrowsAttempRate'
p127
S'.091'
p128
sS'_threePointsAttempRate'
p129
S'.000'
p130
sg26
S'NBA'
p131
sS'_offensiveBoxPlusMinues'
p132
S'-7.6'
p133
sS'_assistPercentage'
p134
S'9.3'
p135
sS'_defensiveWinShares'
p136
S'0.0'
p137
sg34
S'23'
p138
sg36
S'DEN'
p139
sg38
g39
sS'_blockPercentage'
p140
S'6.0'
p141
sS'_playerEfficiencyRating'
p142
S'6.6'
p143
sS'_offensiveWinShares'
p144
S'-0.1'
p145
sg56
S'45'
p146
sS'_boxPlusMinus'
p147
S'-8.3'
p148
sg49
S'1979-80'
p149
sS'_winShares'
p150
S'-0.1'
p151
sbasS'_per36Minutes'
p152
(lp153
(isrc.gp1.models.Per36Minutes
Per36Minutes
p154
(dp155
g8
S'9.6'
p156
sg10
S'5.6'
p157
sg12
S'0.0'
p158
sg14
S'4.0'
p159
sg16
S'17.6'
p160
sg18
S'0.0'
p161
sg19
g3
sg20
g21
sg22
S'4.8'
p162
sg26
S'NBA'
p163
sg28
S'4.0'
p164
sg29
S'.318'
p165
sg31
g3
sg32
S'4.8'
p166
sg33
S'0.0'
p167
sg34
S'23'
p168
sg36
S'DEN'
p169
sg38
g39
sg40
S'6.4'
p170
sg41
S'.318'
p171
sg43
S'1.000'
p172
sg45
S'1.6'
p173
sg47
S'2.4'
p174
sg49
S'1979-80'
p175
sg51
S'17.6'
p176
sg53
S'12.8'
p177
sg55
S'1.6'
p178
sg56
S'5.6'
p179
sg57
S'45'
p180
sbasS'_fromYear'
p181
S'1980'
p182
sS'_url'
p183
S'http://www.basketball-reference.com/players/k/kramear01.html'
p184
sS'_perGame'
p185
(isrc.gp1.models.PerGame
PerGame
p186
(dp187
g8
S'1.5'
p188
sg10
S'0.9'
p189
sg12
S'0.0'
p190
sS'_effectiveFieldGalPercentage'
p191
S'0.3'
p192
sg14
S'0.6'
p193
sg16
S'2.8'
p194
sg18
S'0.0'
p195
sg19
g3
sg20
g21
sg22
S'0.8'
p196
sg26
S'NBA'
p197
sg28
S'0.6'
p198
sg31
g3
sS'_fieldGoalsttempted'
p199
S'.318'
p200
sg32
S'0.8'
p201
sg33
S'0.0'
p202
sg34
S'23'
p203
sg36
S'DEN'
p204
sg38
g39
sg40
S'1.0'
p205
sg41
S'.318'
p206
sg43
S'1.000'
p207
sg45
S'.318'
p208
sg47
S'0.4'
p209
sg49
S'1979-80'
p210
sg51
S'2.8'
p211
sg53
S'2.0'
p212
sg55
S'0.3'
p213
sg56
S'0.9'
p214
sg57
S'5.6'
p215
sbsS'_weight'
p216
S'220'
p217
sS'_dob'
p218
S'2-10-1956'
p219
sS'_salary'
p220
(lp221
sg20
g21
sb.