(isrc.gp1.models.Player
Player
p0
(dp1
S'_experience'
p2
S'NA'
p3
sS'_totals'
p4
(lp5
(isrc.gp1.models.Totals
Totals
p6
(dp7
S'_offensiveRebounds'
p8
g3
sS'_threePointsAttempted'
p9
S'.456'
p10
sS'_fieldGoalsPercentage'
p11
S'510'
p12
sS'_assist'
p13
g3
sS'_threePointsPercentage'
p14
S'.456'
p15
sS'_threePoints'
p16
S'1119'
p17
sS'_points'
p18
g3
sS'_position'
p19
S'PF'
p20
sS'_freeThrowsPercentage'
p21
S'1332'
p22
sS'_effectiveFieldGoalPercentage'
p23
S'790'
p24
sS'_league'
p25
S'NBA'
p26
sS'_steals'
p27
g3
sS'_fieldGoalsAttempted'
p28
S'.456'
p29
sS'_personalFouls'
p30
g3
sS'_freeThrowsAttempted'
p31
S'282'
p32
sS'_totalRebounds'
p33
g3
sS'_age'
p34
S'23'
p35
sS'_team'
p36
S'DET'
p37
sS'_games'
p38
S'75'
p39
sS'_blocks'
p40
g3
sS'_twoPoints'
p41
S'312'
p42
sS'_freeThrows'
p43
S'63'
p44
sS'_twoPointsAttempted'
p45
S'422'
p46
sS'_defensiveRebounds'
p47
g3
sS'_season'
p48
S'1959-60'
p49
sS'_fieldGoals'
p50
S'1119'
p51
sS'_turnOvers'
p52
g3
sS'_twoPointsPercentage'
p53
S'.739'
p54
sS'_minutesPlayed'
p55
S'510'
p56
sS'_gamesStarted'
p57
S'2346'
p58
sba(isrc.gp1.models.Totals
Totals
p59
(dp60
g8
g3
sg9
S'.469'
p61
sg11
S'607'
p62
sg13
g3
sg14
S'.469'
p63
sg16
S'1293'
p64
sg18
g3
sg19
S'PF'
p65
sg21
S'1815'
p66
sg23
S'1111'
p67
sg25
S'NBA'
p68
sg27
g3
sg28
S'.469'
p69
sg30
g3
sg31
S'297'
p70
sg33
g3
sg34
S'24'
p71
sg36
S'DET'
p72
sg38
S'77'
p73
sg40
g3
sg41
S'601'
p74
sg43
S'196'
p75
sg45
S'798'
p76
sg47
g3
sg48
S'1960-61'
p77
sg50
S'1293'
p78
sg52
g3
sg53
S'.753'
p79
sg55
S'607'
p80
sg57
S'2952'
p81
sba(isrc.gp1.models.Totals
Totals
p82
(dp83
g8
g3
sg9
S'.464'
p84
sg11
S'553'
p85
sg13
g3
sg14
S'.464'
p86
sg16
S'1193'
p87
sg18
g3
sg19
S'SF'
p88
sg21
S'1576'
p89
sg23
S'996'
p90
sg25
S'NBA'
p91
sg27
g3
sg28
S'.464'
p92
sg30
g3
sg31
S'317'
p93
sg33
g3
sg34
S'25'
p94
sg36
S'DET'
p95
sg38
S'79'
p96
sg40
g3
sg41
S'470'
p97
sg43
S'186'
p98
sg45
S'612'
p99
sg47
g3
sg48
S'1961-62'
p100
sg50
S'1193'
p101
sg52
g3
sg53
S'.768'
p102
sg55
S'553'
p103
sg57
S'2857'
p104
sba(isrc.gp1.models.Totals
Totals
p105
(dp106
g8
g3
sg9
S'.516'
p107
sg11
S'637'
p108
sg13
g3
sg14
S'.516'
p109
sg16
S'1235'
p110
sg18
g3
sg19
S'SF'
p111
sg21
S'1793'
p112
sg23
S'910'
p113
sg25
S'NBA'
p114
sg27
g3
sg28
S'.516'
p115
sg30
g3
sg31
S'300'
p116
sg33
g3
sg34
S'26'
p117
sg36
S'DET'
p118
sg38
S'79'
p119
sg40
g3
sg41
S'519'
p120
sg43
S'232'
p121
sg45
S'650'
p122
sg47
g3
sg48
S'1962-63'
p123
sg50
S'1235'
p124
sg52
g3
sg53
S'.798'
p125
sg55
S'637'
p126
sg57
S'2971'
p127
sba(isrc.gp1.models.Totals
Totals
p128
(dp129
g8
g3
sg9
S'.472'
p130
sg11
S'598'
p131
sg13
g3
sg14
S'.472'
p132
sg16
S'1267'
p133
sg18
g3
sg19
S'SF'
p134
sg21
S'1666'
p135
sg23
S'776'
p136
sg25
S'NBA'
p137
sg27
g3
sg28
S'.472'
p138
sg30
g3
sg31
S'290'
p139
sg33
g3
sg34
S'27'
p140
sg36
S'DET'
p141
sg38
S'77'
p142
sg40
g3
sg41
S'470'
p143
sg43
S'205'
p144
sg45
S'581'
p145
sg47
g3
sg48
S'1963-64'
p146
sg50
S'1267'
p147
sg52
g3
sg53
S'.809'
p148
sg55
S'598'
p149
sg57
S'2700'
p150
sba(isrc.gp1.models.Totals
Totals
p151
(dp152
g8
g3
sg9
S'.495'
p153
sg11
S'515'
p154
sg13
g3
sg14
S'.495'
p155
sg16
S'1040'
p156
sg18
g3
sg19
S'PF'
p157
sg21
S'1534'
p158
sg23
S'869'
p159
sg25
S'NBA'
p160
sg27
g3
sg28
S'.495'
p161
sg30
g3
sg31
S'345'
p162
sg33
g3
sg34
S'28'
p163
sg36
S'BAL'
p164
sg38
S'80'
p165
sg40
g3
sg41
S'504'
p166
sg43
S'208'
p167
sg45
S'629'
p168
sg47
g3
sg48
S'1964-65'
p169
sg50
S'1040'
p170
sg52
g3
sg53
S'.801'
p171
sg55
S'515'
p172
sg57
S'2975'
p173
sba(isrc.gp1.models.Totals
Totals
p174
(dp175
g8
g3
sg9
S'.488'
p176
sg11
S'481'
p177
sg13
g3
sg14
S'.488'
p178
sg16
S'986'
p179
sg18
g3
sg19
S'PF'
p180
sg21
S'1364'
p181
sg23
S'773'
p182
sg25
S'NBA'
p183
sg27
g3
sg28
S'.488'
p184
sg30
g3
sg31
S'306'
p185
sg33
g3
sg34
S'29'
p186
sg36
S'BAL'
p187
sg38
S'78'
p188
sg40
g3
sg41
S'402'
p189
sg43
S'155'
p190
sg45
S'551'
p191
sg47
g3
sg48
S'1965-66'
p192
sg50
S'986'
p193
sg52
g3
sg53
S'.730'
p194
sg55
S'481'
p195
sg57
S'2328'
p196
sba(isrc.gp1.models.Totals
Totals
p197
(dp198
g8
g3
sg9
S'.512'
p199
sg11
S'636'
p200
sg13
g3
sg14
S'.512'
p201
sg16
S'1242'
p202
sg18
g3
sg19
S'PF'
p203
sg21
S'1621'
p204
sg23
S'677'
p205
sg25
S'NBA'
p206
sg27
g3
sg28
S'.512'
p207
sg30
g3
sg31
S'296'
p208
sg33
g3
sg34
S'30'
p209
sg36
S'BOS'
p210
sg38
S'81'
p211
sg40
g3
sg41
S'349'
p212
sg43
S'103'
p213
sg45
S'471'
p214
sg47
g3
sg48
S'1966-67'
p215
sg50
S'1242'
p216
sg52
g3
sg53
S'.741'
p217
sg55
S'636'
p218
sg57
S'2503'
p219
sba(isrc.gp1.models.Totals
Totals
p220
(dp221
g8
g3
sg9
S'.481'
p222
sg11
S'643'
p223
sg13
g3
sg14
S'.481'
p224
sg16
S'1336'
p225
sg18
g3
sg19
S'PF'
p226
sg21
S'1621'
p227
sg23
S'805'
p228
sg25
S'NBA'
p229
sg27
g3
sg28
S'.481'
p230
sg30
g3
sg31
S'285'
p231
sg33
g3
sg34
S'31'
p232
sg36
S'BOS'
p233
sg38
S'82'
p234
sg40
g3
sg41
S'335'
p235
sg43
S'133'
p236
sg45
S'461'
p237
sg47
g3
sg48
S'1967-68'
p238
sg50
S'1336'
p239
sg52
g3
sg53
S'.727'
p240
sg55
S'643'
p241
sg57
S'2801'
p242
sba(isrc.gp1.models.Totals
Totals
p243
(dp244
g8
g3
sg9
S'.487'
p245
sg11
S'612'
p246
sg13
g3
sg14
S'.487'
p247
sg16
S'1257'
p248
sg18
g3
sg19
S'PF'
p249
sg21
S'1537'
p250
sg23
S'685'
p251
sg25
S'NBA'
p252
sg27
g3
sg28
S'.487'
p253
sg30
g3
sg31
S'285'
p254
sg33
g3
sg34
S'32'
p255
sg36
S'BOS'
p256
sg38
S'78'
p257
sg40
g3
sg41
S'313'
p258
sg43
S'137'
p259
sg45
S'426'
p260
sg47
g3
sg48
S'1968-69'
p261
sg50
S'1257'
p262
sg52
g3
sg53
S'.735'
p263
sg55
S'612'
p264
sg57
S'2527'
p265
sba(isrc.gp1.models.Totals
Totals
p266
(dp267
g8
g3
sg9
S'.429'
p268
sg11
S'399'
p269
sg13
g3
sg14
S'.429'
p270
sg16
S'931'
p271
sg18
g3
sg19
S'PF'
p272
sg21
S'1033'
p273
sg23
S'550'
p274
sg25
S'NBA'
p275
sg27
g3
sg28
S'.429'
p276
sg30
g3
sg31
S'261'
p277
sg33
g3
sg34
S'33'
p278
sg36
S'BOS'
p279
sg38
S'82'
p280
sg40
g3
sg41
S'235'
p281
sg43
S'120'
p282
sg45
S'308'
p283
sg47
g3
sg48
S'1969-70'
p284
sg50
S'931'
p285
sg52
g3
sg53
S'.763'
p286
sg55
S'399'
p287
sg57
S'2078'
p288
sba(isrc.gp1.models.Totals
Totals
p289
(dp290
g8
g3
sg9
S'.472'
p291
sg11
S'324'
p292
sg13
g3
sg14
S'.472'
p293
sg16
S'686'
p294
sg18
g3
sg19
S'PF'
p295
sg21
S'878'
p296
sg23
S'441'
p297
sg25
S'NBA'
p298
sg27
g3
sg28
S'.472'
p299
sg30
g3
sg31
S'234'
p300
sg33
g3
sg34
S'34'
p301
sg36
S'PHI'
p302
sg38
S'82'
p303
sg40
g3
sg41
S'230'
p304
sg43
S'115'
p305
sg45
S'315'
p306
sg47
g3
sg48
S'1970-71'
p307
sg50
S'686'
p308
sg52
g3
sg53
S'.730'
p309
sg55
S'324'
p310
sg57
S'1589'
p311
sbasS'_college'
p312
S'Mississippi State University'
p313
sS'_toYear'
p314
S'1971'
p315
sS'_height'
p316
S'6-7'
p317
sS'_active'
p318
I00
sS'_shootingHand'
p319
VRight
p320
sS'_name'
p321
S'Bailey Howell'
p322
sS'_per100Possessions'
p323
(lp324
sS'_advanced'
p325
(lp326
(isrc.gp1.models.Advanced
Advanced
p327
(dp328
S'_offensiveReboundPercentage'
p329
S'1.9'
p330
sS'_turnOverPercentage'
p331
g3
sS'_winSharesPer48Minutes'
p332
g3
sS'_stealPercentage'
p333
g3
sS'_usagePercentage'
p334
g3
sS'_totalReboundsPercentage'
p335
S'.156'
p336
sS'_defensiveBoxPlusMinus'
p337
g3
sg19
S'PF'
p338
sS'_valueOverReplacementPlayer'
p339
g3
sS'_trueShootingPercentage'
p340
S'.510'
p341
sS'_defensiveReboundPercentage'
p342
S'7.6'
p343
sS'_freeThrowsAttempRate'
p344
S'5.7'
p345
sS'_threePointsAttempRate'
p346
S'.377'
p347
sg25
S'NBA'
p348
sS'_offensiveBoxPlusMinues'
p349
g3
sS'_assistPercentage'
p350
g3
sS'_defensiveWinShares'
p351
g3
sg34
S'23'
p352
sg36
S'DET'
p353
sg38
S'75'
p354
sS'_blockPercentage'
p355
g3
sS'_playerEfficiencyRating'
p356
S'18.1'
p357
sS'_offensiveWinShares'
p358
g3
sg55
S'2346'
p359
sS'_boxPlusMinus'
p360
g3
sg48
S'1959-60'
p361
sS'_winShares'
p362
g3
sba(isrc.gp1.models.Advanced
Advanced
p363
(dp364
g329
S'1.6'
p365
sg331
g3
sg332
g3
sg333
g3
sg334
g3
sg335
S'.190'
p366
sg337
g3
sg19
S'PF'
p367
sg339
g3
sg340
S'.552'
p368
sg342
S'11.7'
p369
sg344
S'10.1'
p370
sg346
S'.617'
p371
sg25
S'NBA'
p372
sg349
g3
sg350
g3
sg351
g3
sg34
S'24'
p373
sg36
S'DET'
p374
sg38
S'77'
p375
sg355
g3
sg356
S'21.2'
p376
sg358
g3
sg55
S'2952'
p377
sg360
g3
sg48
S'1960-61'
p378
sg362
g3
sba(isrc.gp1.models.Advanced
Advanced
p379
(dp380
g329
S'3.1'
p381
sg331
g3
sg332
g3
sg333
g3
sg334
g3
sg335
S'.180'
p382
sg337
g3
sg19
S'SF'
p383
sg339
g3
sg340
S'.539'
p384
sg342
S'10.7'
p385
sg344
S'7.6'
p386
sg346
S'.513'
p387
sg25
S'NBA'
p388
sg349
g3
sg350
g3
sg351
g3
sg34
S'25'
p389
sg36
S'DET'
p390
sg38
S'79'
p391
sg355
g3
sg356
S'19.0'
p392
sg358
g3
sg55
S'2857'
p393
sg360
g3
sg48
S'1961-62'
p394
sg362
g3
sba(isrc.gp1.models.Advanced
Advanced
p395
(dp396
g329
S'2.9'
p397
sg331
g3
sg332
g3
sg333
g3
sg334
g3
sg335
S'.226'
p398
sg337
g3
sg19
S'SF'
p399
sg339
g3
sg340
S'.589'
p400
sg342
S'14.0'
p401
sg344
S'11.1'
p402
sg346
S'.526'
p403
sg25
S'NBA'
p404
sg349
g3
sg350
g3
sg351
g3
sg34
S'26'
p405
sg36
S'DET'
p406
sg38
S'79'
p407
sg355
g3
sg356
S'21.6'
p408
sg358
g3
sg55
S'2971'
p409
sg360
g3
sg48
S'1962-63'
p410
sg362
g3
sba(isrc.gp1.models.Advanced
Advanced
p411
(dp412
g329
S'1.4'
p413
sg331
g3
sg332
g3
sg333
g3
sg334
g3
sg335
S'.175'
p414
sg337
g3
sg19
S'SF'
p415
sg339
g3
sg340
S'.547'
p416
sg342
S'9.8'
p417
sg344
S'8.5'
p418
sg346
S'.459'
p419
sg25
S'NBA'
p420
sg349
g3
sg350
g3
sg351
g3
sg34
S'27'
p421
sg36
S'DET'
p422
sg38
S'77'
p423
sg355
g3
sg356
S'21.1'
p424
sg358
g3
sg55
S'2700'
p425
sg360
g3
sg48
S'1963-64'
p426
sg362
g3
sba(isrc.gp1.models.Advanced
Advanced
p427
(dp428
g329
S'10.1'
p429
sg331
g3
sg332
g3
sg333
g3
sg334
g3
sg335
S'10.9'
p430
sg337
g3
sg19
S'PF'
p431
sg339
g3
sg340
S'.582'
p432
sg342
S'0.7'
p433
sg344
S'9.9'
p434
sg346
S'.605'
p435
sg25
S'NBA'
p436
sg349
g3
sg350
S'.175'
p437
sg351
g3
sg34
S'28'
p438
sg36
S'BAL'
p439
sg38
S'80'
p440
sg355
g3
sg356
S'18.9'
p441
sg358
g3
sg55
S'2975'
p442
sg360
g3
sg48
S'1964-65'
p443
sg362
g3
sba(isrc.gp1.models.Advanced
Advanced
p444
(dp445
g329
S'6.8'
p446
sg331
g3
sg332
g3
sg333
g3
sg334
g3
sg335
S'8.7'
p447
sg337
g3
sg19
S'PF'
p448
sg339
g3
sg340
S'.555'
p449
sg342
S'1.9'
p450
sg344
S'9.1'
p451
sg346
S'.559'
p452
sg25
S'NBA'
p453
sg349
g3
sg350
S'.179'
p454
sg351
g3
sg34
S'29'
p455
sg36
S'BAL'
p456
sg38
S'78'
p457
sg355
g3
sg356
S'19.0'
p458
sg358
g3
sg55
S'2328'
p459
sg360
g3
sg48
S'1965-66'
p460
sg362
g3
sba(isrc.gp1.models.Advanced
Advanced
p461
(dp462
g329
S'8.0'
p463
sg331
g3
sg332
g3
sg333
g3
sg334
g3
sg335
S'11.8'
p464
sg337
g3
sg19
S'PF'
p465
sg339
g3
sg340
S'.559'
p466
sg342
S'3.8'
p467
sg344
S'5.9'
p468
sg346
S'.379'
p469
sg25
S'NBA'
p470
sg349
g3
sg350
S'.226'
p471
sg351
g3
sg34
S'30'
p472
sg36
S'BOS'
p473
sg38
S'81'
p474
sg355
g3
sg356
S'19.5'
p475
sg358
g3
sg55
S'2503'
p476
sg360
g3
sg48
S'1966-67'
p477
sg362
g3
sba(isrc.gp1.models.Advanced
Advanced
p478
(dp479
g329
S'5.6'
p480
sg331
g3
sg332
g3
sg333
g3
sg334
g3
sg335
S'10.1'
p481
sg337
g3
sg19
S'PF'
p482
sg339
g3
sg340
S'.527'
p483
sg342
S'4.5'
p484
sg344
S'6.7'
p485
sg346
S'.345'
p486
sg25
S'NBA'
p487
sg349
g3
sg350
S'.174'
p488
sg351
g3
sg34
S'31'
p489
sg36
S'BOS'
p490
sg38
S'82'
p491
sg355
g3
sg356
S'18.1'
p492
sg358
g3
sg55
S'2801'
p493
sg360
g3
sg48
S'1967-68'
p494
sg362
g3
sba(isrc.gp1.models.Advanced
Advanced
p495
(dp496
g329
S'6.4'
p497
sg331
g3
sg332
g3
sg333
g3
sg334
g3
sg335
S'11.3'
p498
sg337
g3
sg19
S'PF'
p499
sg339
g3
sg340
S'.532'
p500
sg342
S'4.9'
p501
sg344
S'8.2'
p502
sg346
S'.339'
p503
sg25
S'NBA'
p504
sg349
g3
sg350
S'.215'
p505
sg351
g3
sg34
S'32'
p506
sg36
S'BOS'
p507
sg38
S'78'
p508
sg355
g3
sg356
S'19.4'
p509
sg358
g3
sg55
S'2527'
p510
sg360
g3
sg48
S'1968-69'
p511
sg362
g3
sba(isrc.gp1.models.Advanced
Advanced
p512
(dp513
g329
S'0.7'
p514
sg331
g3
sg332
g3
sg333
g3
sg334
g3
sg335
S'3.1'
p515
sg337
g3
sg19
S'PF'
p516
sg339
g3
sg340
S'.484'
p517
sg342
S'2.4'
p518
sg344
S'7.9'
p519
sg346
S'.331'
p520
sg25
S'NBA'
p521
sg349
g3
sg350
S'.072'
p522
sg351
g3
sg34
S'33'
p523
sg36
S'BOS'
p524
sg38
S'82'
p525
sg355
g3
sg356
S'14.0'
p526
sg358
g3
sg55
S'2078'
p527
sg360
g3
sg48
S'1969-70'
p528
sg362
g3
sba(isrc.gp1.models.Advanced
Advanced
p529
(dp530
g329
S'10.2'
p531
sg331
g3
sg332
g3
sg333
S'.152'
p532
sg334
g3
sg335
S'1.8'
p533
sg337
g3
sg19
S'PF'
p534
sg339
g3
sg340
S'.532'
p535
sg342
S'3.2'
p536
sg344
S'12.4'
p537
sg346
S'.459'
p538
sg25
S'NBA'
p539
sg349
g3
sg350
S'5.0'
p540
sg351
g3
sg34
S'34'
p541
sg36
S'PHI'
p542
sg38
S'82'
p543
sg355
g3
sg356
S'17.0'
p544
sg358
g3
sg55
S'1589'
p545
sg360
g3
sg48
S'1970-71'
p546
sg362
g3
sbasS'_per36Minutes'
p547
(lp548
(isrc.gp1.models.Per36Minutes
Per36Minutes
p549
(dp550
g8
g3
sg9
S'.456'
p551
sg11
S'7.8'
p552
sg13
g3
sg14
S'4.8'
p553
sg16
S'17.2'
p554
sg18
g3
sg19
S'PF'
p555
sg21
S'20.4'
p556
sg25
S'NBA'
p557
sg27
g3
sg28
S'.456'
p558
sg30
g3
sg31
S'4.3'
p559
sg33
g3
sg34
S'23'
p560
sg36
S'DET'
p561
sg38
S'75'
p562
sg40
g3
sg41
S'6.5'
p563
sg43
S'1.0'
p564
sg45
S'.739'
p565
sg47
g3
sg48
S'1959-60'
p566
sg50
S'17.2'
p567
sg52
g3
sg53
S'12.1'
p568
sg55
S'7.8'
p569
sg57
S'2346'
p570
sba(isrc.gp1.models.Per36Minutes
Per36Minutes
p571
(dp572
g8
g3
sg9
S'.469'
p573
sg11
S'7.4'
p574
sg13
g3
sg14
S'7.3'
p575
sg16
S'15.8'
p576
sg18
g3
sg19
S'PF'
p577
sg21
S'22.1'
p578
sg25
S'NBA'
p579
sg27
g3
sg28
S'.469'
p580
sg30
g3
sg31
S'3.6'
p581
sg33
g3
sg34
S'24'
p582
sg36
S'DET'
p583
sg38
S'77'
p584
sg40
g3
sg41
S'9.7'
p585
sg43
S'2.4'
p586
sg45
S'.753'
p587
sg47
g3
sg48
S'1960-61'
p588
sg50
S'15.8'
p589
sg52
g3
sg53
S'13.5'
p590
sg55
S'7.4'
p591
sg57
S'2952'
p592
sba(isrc.gp1.models.Per36Minutes
Per36Minutes
p593
(dp594
g8
g3
sg9
S'.464'
p595
sg11
S'7.0'
p596
sg13
g3
sg14
S'5.9'
p597
sg16
S'15.0'
p598
sg18
g3
sg19
S'SF'
p599
sg21
S'19.9'
p600
sg25
S'NBA'
p601
sg27
g3
sg28
S'.464'
p602
sg30
g3
sg31
S'4.0'
p603
sg33
g3
sg34
S'25'
p604
sg36
S'DET'
p605
sg38
S'79'
p606
sg40
g3
sg41
S'7.7'
p607
sg43
S'2.3'
p608
sg45
S'.768'
p609
sg47
g3
sg48
S'1961-62'
p610
sg50
S'15.0'
p611
sg52
g3
sg53
S'12.6'
p612
sg55
S'7.0'
p613
sg57
S'2857'
p614
sba(isrc.gp1.models.Per36Minutes
Per36Minutes
p615
(dp616
g8
g3
sg9
S'.516'
p617
sg11
S'7.7'
p618
sg13
g3
sg14
S'6.3'
p619
sg16
S'15.0'
p620
sg18
g3
sg19
S'SF'
p621
sg21
S'21.7'
p622
sg25
S'NBA'
p623
sg27
g3
sg28
S'.516'
p624
sg30
g3
sg31
S'3.6'
p625
sg33
g3
sg34
S'26'
p626
sg36
S'DET'
p627
sg38
S'79'
p628
sg40
g3
sg41
S'7.9'
p629
sg43
S'2.8'
p630
sg45
S'.798'
p631
sg47
g3
sg48
S'1962-63'
p632
sg50
S'15.0'
p633
sg52
g3
sg53
S'11.0'
p634
sg55
S'7.7'
p635
sg57
S'2971'
p636
sba(isrc.gp1.models.Per36Minutes
Per36Minutes
p637
(dp638
g8
g3
sg9
S'.472'
p639
sg11
S'8.0'
p640
sg13
g3
sg14
S'6.3'
p641
sg16
S'16.9'
p642
sg18
g3
sg19
S'SF'
p643
sg21
S'22.2'
p644
sg25
S'NBA'
p645
sg27
g3
sg28
S'.472'
p646
sg30
g3
sg31
S'3.9'
p647
sg33
g3
sg34
S'27'
p648
sg36
S'DET'
p649
sg38
S'77'
p650
sg40
g3
sg41
S'7.7'
p651
sg43
S'2.7'
p652
sg45
S'.809'
p653
sg47
g3
sg48
S'1963-64'
p654
sg50
S'16.9'
p655
sg52
g3
sg53
S'10.3'
p656
sg55
S'8.0'
p657
sg57
S'2700'
p658
sba(isrc.gp1.models.Per36Minutes
Per36Minutes
p659
(dp660
g8
g3
sg9
S'.495'
p661
sg11
S'6.2'
p662
sg13
g3
sg14
S'6.1'
p663
sg16
S'12.6'
p664
sg18
g3
sg19
S'PF'
p665
sg21
S'18.6'
p666
sg25
S'NBA'
p667
sg27
g3
sg28
S'.495'
p668
sg30
g3
sg31
S'4.2'
p669
sg33
g3
sg34
S'28'
p670
sg36
S'BAL'
p671
sg38
S'80'
p672
sg40
g3
sg41
S'7.6'
p673
sg43
S'2.5'
p674
sg45
S'.801'
p675
sg47
g3
sg48
S'1964-65'
p676
sg50
S'12.6'
p677
sg52
g3
sg53
S'10.5'
p678
sg55
S'6.2'
p679
sg57
S'2975'
p680
sba(isrc.gp1.models.Per36Minutes
Per36Minutes
p681
(dp682
g8
g3
sg9
S'.488'
p683
sg11
S'7.4'
p684
sg13
g3
sg14
S'6.2'
p685
sg16
S'15.2'
p686
sg18
g3
sg19
S'PF'
p687
sg21
S'21.1'
p688
sg25
S'NBA'
p689
sg27
g3
sg28
S'.488'
p690
sg30
g3
sg31
S'4.7'
p691
sg33
g3
sg34
S'29'
p692
sg36
S'BAL'
p693
sg38
S'78'
p694
sg40
g3
sg41
S'8.5'
p695
sg43
S'2.4'
p696
sg45
S'.730'
p697
sg47
g3
sg48
S'1965-66'
p698
sg50
S'15.2'
p699
sg52
g3
sg53
S'12.0'
p700
sg55
S'7.4'
p701
sg57
S'2328'
p702
sba(isrc.gp1.models.Per36Minutes
Per36Minutes
p703
(dp704
g8
g3
sg9
S'.512'
p705
sg11
S'9.1'
p706
sg13
g3
sg14
S'5.0'
p707
sg16
S'17.9'
p708
sg18
g3
sg19
S'PF'
p709
sg21
S'23.3'
p710
sg25
S'NBA'
p711
sg27
g3
sg28
S'.512'
p712
sg30
g3
sg31
S'4.3'
p713
sg33
g3
sg34
S'30'
p714
sg36
S'BOS'
p715
sg38
S'81'
p716
sg40
g3
sg41
S'6.8'
p717
sg43
S'1.5'
p718
sg45
S'.741'
p719
sg47
g3
sg48
S'1966-67'
p720
sg50
S'17.9'
p721
sg52
g3
sg53
S'9.7'
p722
sg55
S'9.1'
p723
sg57
S'2503'
p724
sba(isrc.gp1.models.Per36Minutes
Per36Minutes
p725
(dp726
g8
g3
sg9
S'.481'
p727
sg11
S'8.3'
p728
sg13
g3
sg14
S'4.3'
p729
sg16
S'17.2'
p730
sg18
g3
sg19
S'PF'
p731
sg21
S'20.8'
p732
sg25
S'NBA'
p733
sg27
g3
sg28
S'.481'
p734
sg30
g3
sg31
S'3.7'
p735
sg33
g3
sg34
S'31'
p736
sg36
S'BOS'
p737
sg38
S'82'
p738
sg40
g3
sg41
S'5.9'
p739
sg43
S'1.7'
p740
sg45
S'.727'
p741
sg47
g3
sg48
S'1967-68'
p742
sg50
S'17.2'
p743
sg52
g3
sg53
S'10.3'
p744
sg55
S'8.3'
p745
sg57
S'2801'
p746
sba(isrc.gp1.models.Per36Minutes
Per36Minutes
p747
(dp748
g8
g3
sg9
S'.487'
p749
sg11
S'8.7'
p750
sg13
g3
sg14
S'4.5'
p751
sg16
S'17.9'
p752
sg18
g3
sg19
S'PF'
p753
sg21
S'21.9'
p754
sg25
S'NBA'
p755
sg27
g3
sg28
S'.487'
p756
sg30
g3
sg31
S'4.1'
p757
sg33
g3
sg34
S'32'
p758
sg36
S'BOS'
p759
sg38
S'78'
p760
sg40
g3
sg41
S'6.1'
p761
sg43
S'2.0'
p762
sg45
S'.735'
p763
sg47
g3
sg48
S'1968-69'
p764
sg50
S'17.9'
p765
sg52
g3
sg53
S'9.8'
p766
sg55
S'8.7'
p767
sg57
S'2527'
p768
sba(isrc.gp1.models.Per36Minutes
Per36Minutes
p769
(dp770
g8
g3
sg9
S'.429'
p771
sg11
S'6.9'
p772
sg13
g3
sg14
S'4.1'
p773
sg16
S'16.1'
p774
sg18
g3
sg19
S'PF'
p775
sg21
S'17.9'
p776
sg25
S'NBA'
p777
sg27
g3
sg28
S'.429'
p778
sg30
g3
sg31
S'4.5'
p779
sg33
g3
sg34
S'33'
p780
sg36
S'BOS'
p781
sg38
S'82'
p782
sg40
g3
sg41
S'5.3'
p783
sg43
S'2.1'
p784
sg45
S'.763'
p785
sg47
g3
sg48
S'1969-70'
p786
sg50
S'16.1'
p787
sg52
g3
sg53
S'9.5'
p788
sg55
S'6.9'
p789
sg57
S'2078'
p790
sba(isrc.gp1.models.Per36Minutes
Per36Minutes
p791
(dp792
g8
g3
sg9
S'.472'
p793
sg11
S'7.3'
p794
sg13
g3
sg14
S'5.2'
p795
sg16
S'15.5'
p796
sg18
g3
sg19
S'PF'
p797
sg21
S'19.9'
p798
sg25
S'NBA'
p799
sg27
g3
sg28
S'.472'
p800
sg30
g3
sg31
S'5.3'
p801
sg33
g3
sg34
S'34'
p802
sg36
S'PHI'
p803
sg38
S'82'
p804
sg40
g3
sg41
S'7.1'
p805
sg43
S'2.6'
p806
sg45
S'.730'
p807
sg47
g3
sg48
S'1970-71'
p808
sg50
S'15.5'
p809
sg52
g3
sg53
S'10.0'
p810
sg55
S'7.3'
p811
sg57
S'1589'
p812
sbasS'_fromYear'
p813
S'1960'
p814
sS'_url'
p815
S'http://www.basketball-reference.com/players/h/howelba01.html'
p816
sS'_perGame'
p817
(isrc.gp1.models.PerGame
PerGame
p818
(dp819
g8
g3
sg9
S'.472'
p820
sg11
S'4.0'
p821
sS'_effectiveFieldGalPercentage'
p822
S'5.4'
p823
sg13
g3
sg14
S'.472'
p824
sg16
S'8.4'
p825
sg18
g3
sg19
S'PF'
p826
sg21
S'10.7'
p827
sg25
S'NBA'
p828
sg27
g3
sg30
g3
sS'_fieldGoalsttempted'
p829
S'.472'
p830
sg31
S'2.9'
p831
sg33
g3
sg34
S'34'
p832
sg36
S'PHI'
p833
sg38
S'82'
p834
sg40
g3
sg41
S'2.8'
p835
sg43
S'1.4'
p836
sg45
S'3.8'
p837
sg47
g3
sg48
S'1970-71'
p838
sg50
S'8.4'
p839
sg52
g3
sg53
S'.730'
p840
sg55
S'4.0'
p841
sg57
S'19.4'
p842
sbsS'_weight'
p843
S'210'
p844
sS'_dob'
p845
S'20-1-1937'
p846
sS'_salary'
p847
(lp848
sg19
S'F'
p849
sb.