(isrc.gp1.models.Player
Player
p0
(dp1
S'_experience'
p2
S'NA'
p3
sS'_totals'
p4
(lp5
(isrc.gp1.models.Totals
Totals
p6
(dp7
S'_offensiveRebounds'
p8
S'111'
p9
sS'_threePointsAttempted'
p10
g3
sS'_fieldGoalsPercentage'
p11
S'.417'
p12
sS'_assist'
p13
S'60'
p14
sS'_threePointsPercentage'
p15
g3
sS'_threePoints'
p16
g3
sS'_points'
p17
S'476'
p18
sS'_position'
p19
S'C'
p20
sS'_freeThrowsPercentage'
p21
S'.683'
p22
sS'_effectiveFieldGoalPercentage'
p23
S'.417'
p24
sS'_league'
p25
S'NBA'
p26
sS'_steals'
p27
S'33'
p28
sS'_fieldGoalsAttempted'
p29
S'436'
p30
sS'_personalFouls'
p31
S'223'
p32
sS'_freeThrowsAttempted'
p33
S'164'
p34
sS'_totalRebounds'
p35
S'401'
p36
sS'_age'
p37
S'21'
p38
sS'_team'
p39
S'ATL'
p40
sS'_games'
p41
S'59'
p42
sS'_blocks'
p43
S'41'
p44
sS'_twoPoints'
p45
S'182'
p46
sS'_freeThrows'
p47
S'112'
p48
sS'_twoPointsAttempted'
p49
S'436'
p50
sS'_defensiveRebounds'
p51
S'290'
p52
sS'_season'
p53
S'1976-77'
p54
sS'_fieldGoals'
p55
S'182'
p56
sS'_turnOvers'
p57
g3
sS'_twoPointsPercentage'
p58
S'.417'
p59
sS'_minutesPlayed'
p60
S'1354'
p61
sS'_gamesStarted'
p62
g3
sba(isrc.gp1.models.Totals
Totals
p63
(dp64
g8
g3
sg10
g3
sg11
g3
sg13
g3
sg15
g3
sg16
g3
sg17
g3
sg19
g3
sg21
g3
sg23
g3
sg25
g3
sg27
g3
sg29
g3
sg31
g3
sg33
g3
sg35
g3
sg37
S'22'
p65
sg39
S'Did Not Play\xc2\xa0(other pro league\xe2\x80\x94CBA)'
p66
sg41
g3
sg43
g3
sg45
g3
sg47
g3
sg49
g3
sg51
g3
sg53
S'1977-78'
p67
sg55
g3
sg57
g3
sg58
g3
sg60
g3
sg62
g3
sba(isrc.gp1.models.Totals
Totals
p68
(dp69
g8
S'45'
p70
sg10
g3
sg11
S'.436'
p71
sg13
S'15'
p72
sg15
g3
sg16
g3
sg17
S'163'
p73
sg19
g20
sg21
S'.730'
p74
sg23
S'.436'
p75
sg25
S'NBA'
p76
sg27
S'10'
p77
sg29
S'156'
p78
sg31
S'76'
p79
sg33
S'37'
p80
sg35
S'119'
p81
sg37
S'23'
p82
sg39
S'TOT'
p83
sg41
S'39'
p84
sg43
S'11'
p85
sg45
S'68'
p86
sg47
S'27'
p87
sg49
S'156'
p88
sg51
S'74'
p89
sg53
S'1978-79'
p90
sg55
S'68'
p91
sg57
S'34'
p92
sg58
S'.436'
p93
sg60
S'476'
p94
sg62
g3
sba(isrc.gp1.models.Totals
Totals
p95
(dp96
g8
S'2'
p97
sg10
g3
sg11
S'.500'
p98
sg13
S'0'
p99
sg15
g3
sg16
g3
sg17
S'8'
p100
sg19
g20
sg21
S'1.000'
p101
sg23
S'.500'
p102
sg25
S'NBA'
p103
sg27
g99
sg29
S'6'
p104
sg31
S'5'
p105
sg33
g97
sg35
g104
sg37
S'23'
p106
sg39
S'HOU'
p107
sg41
g105
sg43
g99
sg45
S'3'
p108
sg47
g97
sg49
g104
sg51
S'4'
p109
sg53
S'1978-79'
p110
sg55
g108
sg57
S'1'
p111
sg58
S'.500'
p112
sg60
S'16'
p113
sg62
g3
sba(isrc.gp1.models.Totals
Totals
p114
(dp115
g8
S'12'
p116
sg10
g3
sg11
S'.438'
p117
sg13
g104
sg15
g3
sg16
g3
sg17
S'53'
p118
sg19
g20
sg21
S'.733'
p119
sg23
S'.438'
p120
sg25
S'NBA'
p121
sg27
g109
sg29
S'48'
p122
sg31
S'26'
p123
sg33
S'15'
p124
sg35
S'30'
p125
sg37
S'23'
p126
sg39
S'BOS'
p127
sg41
S'12'
p128
sg43
g109
sg45
S'21'
p129
sg47
S'11'
p130
sg49
S'48'
p131
sg51
S'18'
p132
sg53
S'1978-79'
p133
sg55
S'21'
p134
sg57
S'13'
p135
sg58
S'.438'
p136
sg60
S'131'
p137
sg62
g3
sba(isrc.gp1.models.Totals
Totals
p138
(dp139
g8
S'31'
p140
sg10
g3
sg11
S'.431'
p141
sg13
S'9'
p142
sg15
g3
sg16
g3
sg17
S'102'
p143
sg19
g20
sg21
S'.700'
p144
sg23
S'.431'
p145
sg25
S'NBA'
p146
sg27
g104
sg29
S'102'
p147
sg31
S'45'
p148
sg33
S'20'
p149
sg35
S'83'
p150
sg37
S'23'
p151
sg39
S'NYK'
p152
sg41
S'22'
p153
sg43
S'7'
p154
sg45
S'44'
p155
sg47
S'14'
p156
sg49
S'102'
p157
sg51
S'52'
p158
sg53
S'1978-79'
p159
sg55
S'44'
p160
sg57
S'20'
p161
sg58
S'.431'
p162
sg60
S'329'
p163
sg62
g3
sbasS'_college'
p164
S'University of Hawaii'
p165
sS'_toYear'
p166
S'1979'
p167
sS'_height'
p168
S'6-11'
p169
sS'_active'
p170
I00
sS'_shootingHand'
p171
VRight
p172
sS'_name'
p173
S'Tom Barker'
p174
sS'_per100Possessions'
p175
(lp176
(isrc.gp1.models.Per100Possession
Per100Possession
p177
(dp178
g8
S'3.8'
p179
sg10
g3
sg11
S'.417'
p180
sS'_offensiveRating'
p181
g3
sg13
S'2.0'
p182
sg15
g3
sg16
g3
sg17
S'16.1'
p183
sg19
g20
sS'_defensiveRating'
p184
S'99'
p185
sg21
S'.683'
p186
sg25
S'NBA'
p187
sg27
S'1.1'
p188
sg29
S'14.8'
p189
sg31
S'7.6'
p190
sg33
S'5.6'
p191
sg35
S'13.6'
p192
sg37
S'21'
p193
sg39
S'ATL'
p194
sg41
S'59'
p195
sg43
S'1.4'
p196
sg45
S'6.2'
p197
sg47
S'3.8'
p198
sg49
S'14.8'
p199
sg51
S'9.8'
p200
sg53
S'1976-77'
p201
sg55
S'6.2'
p202
sg57
g3
sg58
S'.417'
p203
sg60
S'1354'
p204
sg62
g3
sba(isrc.gp1.models.Per100Possession
Per100Possession
p205
(dp206
g8
S'4.3'
p207
sg10
g3
sg11
S'.436'
p208
sg181
S'94'
p209
sg13
S'1.4'
p210
sg15
g3
sg16
g3
sg17
S'15.6'
p211
sg19
g20
sg184
S'106'
p212
sg21
S'.730'
p213
sg25
S'NBA'
p214
sg27
S'1.0'
p215
sg29
S'14.9'
p216
sg31
S'7.3'
p217
sg33
S'3.5'
p218
sg35
S'11.4'
p219
sg37
S'23'
p220
sg39
S'TOT'
p221
sg41
S'39'
p222
sg43
S'1.1'
p223
sg45
S'6.5'
p224
sg47
S'2.6'
p225
sg49
S'14.9'
p226
sg51
S'7.1'
p227
sg53
S'1978-79'
p228
sg55
S'6.5'
p229
sg57
S'3.3'
p230
sg58
S'.436'
p231
sg60
S'476'
p232
sg62
g3
sba(isrc.gp1.models.Per100Possession
Per100Possession
p233
(dp234
g8
S'5.8'
p235
sg10
g3
sg11
S'.500'
p236
sg181
S'116'
p237
sg13
S'0.0'
p238
sg15
g3
sg16
g3
sg17
S'23.1'
p239
sg19
g20
sg184
S'107'
p240
sg21
S'1.000'
p241
sg25
S'NBA'
p242
sg27
S'0.0'
p243
sg29
S'17.3'
p244
sg31
S'14.4'
p245
sg33
S'5.8'
p246
sg35
S'17.3'
p247
sg37
S'23'
p248
sg39
S'HOU'
p249
sg41
g105
sg43
S'0.0'
p250
sg45
S'8.7'
p251
sg47
S'5.8'
p252
sg49
S'17.3'
p253
sg51
S'11.6'
p254
sg53
S'1978-79'
p255
sg55
S'8.7'
p256
sg57
S'2.9'
p257
sg58
S'.500'
p258
sg60
S'16'
p259
sg62
g3
sba(isrc.gp1.models.Per100Possession
Per100Possession
p260
(dp261
g8
S'4.1'
p262
sg10
g3
sg11
S'.438'
p263
sg181
S'92'
p264
sg13
S'2.1'
p265
sg15
g3
sg16
g3
sg17
S'18.2'
p266
sg19
g20
sg184
S'106'
p267
sg21
S'.733'
p268
sg25
S'NBA'
p269
sg27
S'1.4'
p270
sg29
S'16.5'
p271
sg31
S'8.9'
p272
sg33
S'5.2'
p273
sg35
S'10.3'
p274
sg37
S'23'
p275
sg39
S'BOS'
p276
sg41
S'12'
p277
sg43
S'1.4'
p278
sg45
S'7.2'
p279
sg47
S'3.8'
p280
sg49
S'16.5'
p281
sg51
S'6.2'
p282
sg53
S'1978-79'
p283
sg55
S'7.2'
p284
sg57
S'4.5'
p285
sg58
S'.438'
p286
sg60
S'131'
p287
sg62
g3
sba(isrc.gp1.models.Per100Possession
Per100Possession
p288
(dp289
g8
S'4.3'
p290
sg10
g3
sg11
S'.431'
p291
sg181
S'94'
p292
sg13
S'1.3'
p293
sg15
g3
sg16
g3
sg17
S'14.2'
p294
sg19
g20
sg184
S'106'
p295
sg21
S'.700'
p296
sg25
S'NBA'
p297
sg27
S'0.8'
p298
sg29
S'14.2'
p299
sg31
S'6.3'
p300
sg33
S'2.8'
p301
sg35
S'11.5'
p302
sg37
S'23'
p303
sg39
S'NYK'
p304
sg41
S'22'
p305
sg43
S'1.0'
p306
sg45
S'6.1'
p307
sg47
S'1.9'
p308
sg49
S'14.2'
p309
sg51
S'7.2'
p310
sg53
S'1978-79'
p311
sg55
S'6.1'
p312
sg57
S'2.8'
p313
sg58
S'.431'
p314
sg60
S'329'
p315
sg62
g3
sbasS'_advanced'
p316
(lp317
(isrc.gp1.models.Advanced
Advanced
p318
(dp319
S'_offensiveReboundPercentage'
p320
S'8.6'
p321
sS'_turnOverPercentage'
p322
g3
sS'_winSharesPer48Minutes'
p323
S'.035'
p324
sS'_stealPercentage'
p325
S'1.1'
p326
sS'_usagePercentage'
p327
g3
sS'_totalReboundsPercentage'
p328
S'15.8'
p329
sS'_defensiveBoxPlusMinus'
p330
S'0.2'
p331
sg19
g20
sS'_valueOverReplacementPlayer'
p332
S'-0.4'
p333
sS'_trueShootingPercentage'
p334
S'.468'
p335
sS'_defensiveReboundPercentage'
p336
S'23.2'
p337
sS'_freeThrowsAttempRate'
p338
S'.376'
p339
sS'_threePointsAttempRate'
p340
g3
sg25
S'NBA'
p341
sS'_offensiveBoxPlusMinues'
p342
S'-3.4'
p343
sS'_assistPercentage'
p344
S'6.4'
p345
sS'_defensiveWinShares'
p346
S'1.4'
p347
sg37
S'21'
p348
sg39
S'ATL'
p349
sg41
S'59'
p350
sS'_blockPercentage'
p351
S'1.7'
p352
sS'_playerEfficiencyRating'
p353
S'11.5'
p354
sS'_offensiveWinShares'
p355
S'-0.4'
p356
sg60
S'1354'
p357
sS'_boxPlusMinus'
p358
S'-3.2'
p359
sg53
S'1976-77'
p360
sS'_winShares'
p361
S'1.0'
p362
sba(isrc.gp1.models.Advanced
Advanced
p363
(dp364
g320
S'10.2'
p365
sg322
S'16.5'
p366
sg323
S'.031'
p367
sg325
S'1.0'
p368
sg327
S'17.0'
p369
sg328
S'13.6'
p370
sg330
S'-1.7'
p371
sg19
g20
sg332
S'-0.4'
p372
sg334
S'.473'
p373
sg336
S'17.0'
p374
sg338
S'.237'
p375
sg340
g3
sg25
S'NBA'
p376
sg342
S'-3.8'
p377
sg344
S'4.1'
p378
sg346
S'0.4'
p379
sg37
S'23'
p380
sg39
S'TOT'
p381
sg41
S'39'
p382
sg351
S'1.2'
p383
sg353
S'9.1'
p384
sg355
S'-0.1'
p385
sg60
S'476'
p386
sg358
S'-5.6'
p387
sg53
S'1978-79'
p388
sg361
S'0.3'
p389
sba(isrc.gp1.models.Advanced
Advanced
p390
(dp391
g320
S'13.8'
p392
sg322
S'12.7'
p393
sg323
S'.147'
p394
sg325
S'0.0'
p395
sg327
S'19.4'
p396
sg328
S'20.4'
p397
sg330
S'-8.1'
p398
sg19
g20
sg332
S'0.0'
p399
sg334
S'.581'
p400
sg336
S'26.8'
p401
sg338
S'.333'
p402
sg340
g3
sg25
S'NBA'
p403
sg342
S'-3.1'
p404
sg344
S'0.0'
p405
sg346
S'0.0'
p406
sg37
S'23'
p407
sg39
S'HOU'
p408
sg41
g105
sg351
S'0.0'
p409
sg353
S'13.2'
p410
sg355
S'0.0'
p411
sg60
S'16'
p412
sg358
S'-11.2'
p413
sg53
S'1978-79'
p414
sg361
S'0.0'
p415
sba(isrc.gp1.models.Advanced
Advanced
p416
(dp417
g320
S'10.1'
p418
sg322
S'19.2'
p419
sg323
S'.017'
p420
sg325
S'1.4'
p421
sg327
S'20.1'
p422
sg328
S'12.7'
p423
sg330
S'-1.4'
p424
sg19
g20
sg332
S'-0.1'
p425
sg334
S'.485'
p426
sg336
S'15.4'
p427
sg338
S'.313'
p428
sg340
g3
sg25
S'NBA'
p429
sg342
S'-3.8'
p430
sg344
S'6.2'
p431
sg346
S'0.1'
p432
sg37
S'23'
p433
sg39
S'BOS'
p434
sg41
S'12'
p435
sg351
S'1.6'
p436
sg353
S'9.5'
p437
sg355
S'-0.1'
p438
sg60
S'131'
p439
sg358
S'-5.2'
p440
sg53
S'1978-79'
p441
sg361
S'0.0'
p442
sba(isrc.gp1.models.Advanced
Advanced
p443
(dp444
g320
S'10.1'
p445
sg322
S'15.3'
p446
sg323
S'.031'
p447
sg325
S'0.8'
p448
sg327
S'15.6'
p449
sg328
S'13.6'
p450
sg330
S'-1.5'
p451
sg19
g20
sg332
S'-0.3'
p452
sg334
S'.460'
p453
sg336
S'17.1'
p454
sg338
S'.196'
p455
sg340
g3
sg25
S'NBA'
p456
sg342
S'-3.9'
p457
sg344
S'3.4'
p458
sg346
S'0.3'
p459
sg37
S'23'
p460
sg39
S'NYK'
p461
sg41
S'22'
p462
sg351
S'1.1'
p463
sg353
S'8.8'
p464
sg355
S'-0.1'
p465
sg60
S'329'
p466
sg358
S'-5.4'
p467
sg53
S'1978-79'
p468
sg361
S'0.2'
p469
sbasS'_per36Minutes'
p470
(lp471
(isrc.gp1.models.Per36Minutes
Per36Minutes
p472
(dp473
g8
S'3.0'
p474
sg10
g3
sg11
S'.417'
p475
sg13
S'1.6'
p476
sg15
g3
sg16
g3
sg17
S'12.7'
p477
sg19
g20
sg21
S'.683'
p478
sg25
S'NBA'
p479
sg27
S'0.9'
p480
sg29
S'11.6'
p481
sg31
S'5.9'
p482
sg33
S'4.4'
p483
sg35
S'10.7'
p484
sg37
S'21'
p485
sg39
S'ATL'
p486
sg41
S'59'
p487
sg43
S'1.1'
p488
sg45
S'4.8'
p489
sg47
S'3.0'
p490
sg49
S'11.6'
p491
sg51
S'7.7'
p492
sg53
S'1976-77'
p493
sg55
S'4.8'
p494
sg57
g3
sg58
S'.417'
p495
sg60
S'1354'
p496
sg62
g3
sba(isrc.gp1.models.Per36Minutes
Per36Minutes
p497
(dp498
g8
S'3.4'
p499
sg10
g3
sg11
S'.436'
p500
sg13
S'1.1'
p501
sg15
g3
sg16
g3
sg17
S'12.3'
p502
sg19
g20
sg21
S'.730'
p503
sg25
S'NBA'
p504
sg27
S'0.8'
p505
sg29
S'11.8'
p506
sg31
S'5.7'
p507
sg33
S'2.8'
p508
sg35
S'9.0'
p509
sg37
S'23'
p510
sg39
S'TOT'
p511
sg41
S'39'
p512
sg43
S'0.8'
p513
sg45
S'5.1'
p514
sg47
S'2.0'
p515
sg49
S'11.8'
p516
sg51
S'5.6'
p517
sg53
S'1978-79'
p518
sg55
S'5.1'
p519
sg57
S'2.6'
p520
sg58
S'.436'
p521
sg60
S'476'
p522
sg62
g3
sba(isrc.gp1.models.Per36Minutes
Per36Minutes
p523
(dp524
g8
S'4.5'
p525
sg10
g3
sg11
S'.500'
p526
sg13
S'0.0'
p527
sg15
g3
sg16
g3
sg17
S'18.0'
p528
sg19
g20
sg21
S'1.000'
p529
sg25
S'NBA'
p530
sg27
S'0.0'
p531
sg29
S'13.5'
p532
sg31
S'11.3'
p533
sg33
S'4.5'
p534
sg35
S'13.5'
p535
sg37
S'23'
p536
sg39
S'HOU'
p537
sg41
g105
sg43
S'0.0'
p538
sg45
S'6.8'
p539
sg47
S'4.5'
p540
sg49
S'13.5'
p541
sg51
S'9.0'
p542
sg53
S'1978-79'
p543
sg55
S'6.8'
p544
sg57
S'2.3'
p545
sg58
S'.500'
p546
sg60
S'16'
p547
sg62
g3
sba(isrc.gp1.models.Per36Minutes
Per36Minutes
p548
(dp549
g8
S'3.3'
p550
sg10
g3
sg11
S'.438'
p551
sg13
S'1.6'
p552
sg15
g3
sg16
g3
sg17
S'14.6'
p553
sg19
g20
sg21
S'.733'
p554
sg25
S'NBA'
p555
sg27
S'1.1'
p556
sg29
S'13.2'
p557
sg31
S'7.1'
p558
sg33
S'4.1'
p559
sg35
S'8.2'
p560
sg37
S'23'
p561
sg39
S'BOS'
p562
sg41
S'12'
p563
sg43
S'1.1'
p564
sg45
S'5.8'
p565
sg47
S'3.0'
p566
sg49
S'13.2'
p567
sg51
S'4.9'
p568
sg53
S'1978-79'
p569
sg55
S'5.8'
p570
sg57
S'3.6'
p571
sg58
S'.438'
p572
sg60
S'131'
p573
sg62
g3
sba(isrc.gp1.models.Per36Minutes
Per36Minutes
p574
(dp575
g8
S'3.4'
p576
sg10
g3
sg11
S'.431'
p577
sg13
S'1.0'
p578
sg15
g3
sg16
g3
sg17
S'11.2'
p579
sg19
g20
sg21
S'.700'
p580
sg25
S'NBA'
p581
sg27
S'0.7'
p582
sg29
S'11.2'
p583
sg31
S'4.9'
p584
sg33
S'2.2'
p585
sg35
S'9.1'
p586
sg37
S'23'
p587
sg39
S'NYK'
p588
sg41
S'22'
p589
sg43
S'0.8'
p590
sg45
S'4.8'
p591
sg47
S'1.5'
p592
sg49
S'11.2'
p593
sg51
S'5.7'
p594
sg53
S'1978-79'
p595
sg55
S'4.8'
p596
sg57
S'2.2'
p597
sg58
S'.431'
p598
sg60
S'329'
p599
sg62
g3
sbasS'_fromYear'
p600
S'1977'
p601
sS'_url'
p602
S'http://www.basketball-reference.com/players/b/barketo01.html'
p603
sS'_perGame'
p604
(isrc.gp1.models.PerGame
PerGame
p605
(dp606
g8
S'1.4'
p607
sg10
g3
sg11
S'.431'
p608
sS'_effectiveFieldGalPercentage'
p609
S'.431'
p610
sg13
S'0.4'
p611
sg15
g3
sg16
g3
sg17
S'4.6'
p612
sg19
g20
sg21
S'.700'
p613
sg25
S'NBA'
p614
sg27
S'0.3'
p615
sg31
S'2.0'
p616
sS'_fieldGoalsttempted'
p617
S'4.6'
p618
sg33
S'0.9'
p619
sg35
S'3.8'
p620
sg37
S'23'
p621
sg39
S'NYK'
p622
sg41
S'22'
p623
sg43
S'0.3'
p624
sg45
S'2.0'
p625
sg47
S'0.6'
p626
sg49
S'4.6'
p627
sg51
S'2.4'
p628
sg53
S'1978-79'
p629
sg55
S'2.0'
p630
sg57
S'0.9'
p631
sg58
S'.431'
p632
sg60
S'15.0'
p633
sg62
g3
sbsS'_weight'
p634
S'225'
p635
sS'_dob'
p636
S'11-3-1955'
p637
sS'_salary'
p638
(lp639
sg19
S'C-F'
p640
sb.