(isrc.gp1.models.Player
Player
p0
(dp1
S'_experience'
p2
S'NA'
p3
sS'_totals'
p4
(lp5
(isrc.gp1.models.Totals
Totals
p6
(dp7
S'_offensiveRebounds'
p8
S'419'
p9
sS'_threePointsAttempted'
p10
S'3'
p11
sS'_fieldGoalsPercentage'
p12
S'.498'
p13
sS'_assist'
p14
S'250'
p15
sS'_threePointsPercentage'
p16
S'.000'
p17
sS'_threePoints'
p18
S'0'
p19
sS'_points'
p20
S'1849'
p21
sS'_position'
p22
S'PF'
p23
sS'_freeThrowsPercentage'
p24
S'.670'
p25
sS'_effectiveFieldGoalPercentage'
p26
S'.498'
p27
sS'_league'
p28
S'ABA'
p29
sS'_steals'
p30
S'96'
p31
sS'_fieldGoalsAttempted'
p32
S'1561'
p33
sS'_personalFouls'
p34
S'328'
p35
sS'_freeThrowsAttempted'
p36
S'440'
p37
sS'_totalRebounds'
p38
S'1202'
p39
sS'_age'
p40
S'22'
p41
sS'_team'
p42
S'SSL'
p43
sS'_games'
p44
S'77'
p45
sS'_blocks'
p46
S'137'
p47
sS'_twoPoints'
p48
S'777'
p49
sS'_freeThrows'
p50
S'295'
p51
sS'_twoPointsAttempted'
p52
S'1558'
p53
sS'_defensiveRebounds'
p54
S'783'
p55
sS'_season'
p56
S'1974-75'
p57
sS'_fieldGoals'
p58
S'777'
p59
sS'_turnOvers'
p60
S'307'
p61
sS'_twoPointsPercentage'
p62
S'.499'
p63
sS'_minutesPlayed'
p64
S'3076'
p65
sS'_gamesStarted'
p66
g3
sba(isrc.gp1.models.Totals
Totals
p67
(dp68
g8
S'263'
p69
sg10
S'11'
p70
sg12
S'.503'
p71
sg14
S'149'
p72
sg16
S'.273'
p73
sg18
g11
sg20
S'1616'
p74
sg22
S'PF'
p75
sg24
S'.740'
p76
sg26
S'.504'
p77
sg28
S'ABA'
p78
sg30
S'124'
p79
sg32
S'1355'
p80
sg34
S'273'
p81
sg36
S'339'
p82
sg38
S'725'
p83
sg40
S'23'
p84
sg42
S'SSL'
p85
sg44
S'67'
p86
sg46
S'134'
p87
sg48
S'678'
p88
sg50
S'251'
p89
sg52
S'1344'
p90
sg54
S'462'
p91
sg56
S'1975-76'
p92
sg58
S'681'
p93
sg60
S'230'
p94
sg62
S'.504'
p95
sg64
S'2487'
p96
sg66
g3
sba(isrc.gp1.models.Totals
Totals
p97
(dp98
g8
S'69'
p99
sg10
g3
sg12
S'.447'
p100
sg14
S'45'
p101
sg16
g3
sg18
g3
sg20
S'510'
p102
sg22
S'PF'
p103
sg24
S'.679'
p104
sg26
S'.447'
p105
sg28
S'NBA'
p106
sg30
S'38'
p107
sg32
S'452'
p108
sg34
S'139'
p109
sg36
S'156'
p110
sg38
S'253'
p111
sg40
S'24'
p112
sg42
S'DET'
p113
sg44
S'53'
p114
sg46
S'33'
p115
sg48
S'202'
p116
sg50
S'106'
p117
sg52
S'452'
p118
sg54
S'184'
p119
sg56
S'1976-77'
p120
sg58
S'202'
p121
sg60
g3
sg62
S'.447'
p122
sg64
S'989'
p123
sg66
g3
sba(isrc.gp1.models.Totals
Totals
p124
(dp125
g8
S'135'
p126
sg10
g3
sg12
S'.422'
p127
sg14
S'136'
p128
sg16
g3
sg18
g3
sg20
S'686'
p129
sg22
S'PF'
p130
sg24
S'.703'
p131
sg26
S'.422'
p132
sg28
S'NBA'
p133
sg30
S'64'
p134
sg32
S'661'
p135
sg34
S'241'
p136
sg36
S'182'
p137
sg38
S'439'
p138
sg40
S'25'
p139
sg42
S'TOT'
p140
sg44
S'60'
p141
sg46
S'83'
p142
sg48
S'279'
p143
sg50
S'128'
p144
sg52
S'661'
p145
sg54
S'304'
p146
sg56
S'1977-78'
p147
sg58
S'279'
p148
sg60
S'136'
p149
sg62
S'.422'
p150
sg64
S'1646'
p151
sg66
g3
sba(isrc.gp1.models.Totals
Totals
p152
(dp153
g8
S'28'
p154
sg10
g3
sg12
S'.449'
p155
sg14
S'19'
p156
sg16
g3
sg18
g3
sg20
S'120'
p157
sg22
S'PF'
p158
sg24
S'.483'
p159
sg26
S'.449'
p160
sg28
S'NBA'
p161
sg30
S'7'
p162
sg32
S'118'
p163
sg34
S'43'
p164
sg36
S'29'
p165
sg38
S'91'
p166
sg40
S'25'
p167
sg42
S'DET'
p168
sg44
S'12'
p169
sg46
S'11'
p170
sg48
S'53'
p171
sg50
S'14'
p172
sg52
S'118'
p173
sg54
S'63'
p174
sg56
S'1977-78'
p175
sg58
S'53'
p176
sg60
S'29'
p177
sg62
S'.449'
p178
sg64
S'269'
p179
sg66
g3
sba(isrc.gp1.models.Totals
Totals
p180
(dp181
g8
S'107'
p182
sg10
g3
sg12
S'.416'
p183
sg14
S'117'
p184
sg16
g3
sg18
g3
sg20
S'566'
p185
sg22
S'PF'
p186
sg24
S'.745'
p187
sg26
S'.416'
p188
sg28
S'NBA'
p189
sg30
S'57'
p190
sg32
S'543'
p191
sg34
S'198'
p192
sg36
S'153'
p193
sg38
S'348'
p194
sg40
S'25'
p195
sg42
S'BUF'
p196
sg44
S'48'
p197
sg46
S'72'
p198
sg48
S'226'
p199
sg50
S'114'
p200
sg52
S'543'
p201
sg54
S'241'
p202
sg56
S'1977-78'
p203
sg58
S'226'
p204
sg60
S'107'
p205
sg62
S'.416'
p206
sg64
S'1377'
p207
sg66
g3
sba(isrc.gp1.models.Totals
Totals
p208
(dp209
g8
S'57'
p210
sg10
g3
sg12
S'.491'
p211
sg14
S'53'
p212
sg16
g3
sg18
g3
sg20
S'309'
p213
sg22
S'PF'
p214
sg24
S'.652'
p215
sg26
S'.491'
p216
sg28
S'NBA'
p217
sg30
S'38'
p218
sg32
S'271'
p219
sg34
S'144'
p220
sg36
S'66'
p221
sg38
S'177'
p222
sg40
S'26'
p223
sg42
S'BOS'
p224
sg44
S'38'
p225
sg46
S'39'
p226
sg48
S'133'
p227
sg50
S'43'
p228
sg52
S'271'
p229
sg54
S'120'
p230
sg56
S'1978-79'
p231
sg58
S'133'
p232
sg60
S'68'
p233
sg62
S'.491'
p234
sg64
S'796'
p235
sg66
g3
sba(isrc.gp1.models.Totals
Totals
p236
(dp237
g8
S'34'
p238
sg10
g19
sg12
S'.400'
p239
sg14
S'18'
p240
sg16
g3
sg18
g19
sg20
S'64'
p241
sg22
S'PF'
p242
sg24
S'.500'
p243
sg26
S'.400'
p244
sg28
S'NBA'
p245
sg30
S'5'
p246
sg32
S'60'
p247
sg34
S'52'
p248
sg36
S'32'
p249
sg38
S'77'
p250
sg40
S'27'
p251
sg42
S'SDC'
p252
sg44
S'20'
p253
sg46
S'12'
p254
sg48
S'24'
p255
sg50
S'16'
p256
sg52
S'60'
p257
sg54
S'43'
p258
sg56
S'1979-80'
p259
sg58
S'24'
p260
sg60
S'18'
p261
sg62
S'.400'
p262
sg64
S'287'
p263
sg66
g3
sbasS'_college'
p264
S'Providence College'
p265
sS'_toYear'
p266
S'1980'
p267
sS'_height'
p268
S'6-8'
p269
sS'_active'
p270
I00
sS'_shootingHand'
p271
VRight
p272
sS'_name'
p273
S'Marvin Barnes'
p274
sS'_per100Possessions'
p275
(lp276
(isrc.gp1.models.Per100Possession
Per100Possession
p277
(dp278
g8
S'6.2'
p279
sg10
S'0.0'
p280
sg12
S'.498'
p281
sS'_offensiveRating'
p282
S'106'
p283
sg14
S'3.7'
p284
sg16
S'.000'
p285
sg18
S'0.0'
p286
sg20
S'27.3'
p287
sg22
S'PF'
p288
sS'_defensiveRating'
p289
S'103'
p290
sg24
S'.670'
p291
sg28
S'ABA'
p292
sg30
S'1.4'
p293
sg32
S'23.1'
p294
sg34
S'4.8'
p295
sg36
S'6.5'
p296
sg38
S'17.8'
p297
sg40
S'22'
p298
sg42
S'SSL'
p299
sg44
S'77'
p300
sg46
S'2.0'
p301
sg48
S'11.5'
p302
sg50
S'4.4'
p303
sg52
S'23.0'
p304
sg54
S'11.6'
p305
sg56
S'1974-75'
p306
sg58
S'11.5'
p307
sg60
S'4.5'
p308
sg62
S'.499'
p309
sg64
S'3076'
p310
sg66
g3
sba(isrc.gp1.models.Per100Possession
Per100Possession
p311
(dp312
g8
S'4.8'
p313
sg10
S'0.2'
p314
sg12
S'.503'
p315
sg282
S'106'
p316
sg14
S'2.7'
p317
sg16
S'.273'
p318
sg18
S'0.1'
p319
sg20
S'29.5'
p320
sg22
S'PF'
p321
sg289
S'101'
p322
sg24
S'.740'
p323
sg28
S'ABA'
p324
sg30
S'2.3'
p325
sg32
S'24.7'
p326
sg34
S'5.0'
p327
sg36
S'6.2'
p328
sg38
S'13.2'
p329
sg40
S'23'
p330
sg42
S'SSL'
p331
sg44
S'67'
p332
sg46
S'2.4'
p333
sg48
S'12.4'
p334
sg50
S'4.6'
p335
sg52
S'24.5'
p336
sg54
S'8.4'
p337
sg56
S'1975-76'
p338
sg58
S'12.4'
p339
sg60
S'4.2'
p340
sg62
S'.504'
p341
sg64
S'2487'
p342
sg66
g3
sba(isrc.gp1.models.Per100Possession
Per100Possession
p343
(dp344
g8
S'3.1'
p345
sg10
g3
sg12
S'.447'
p346
sg282
g3
sg14
S'2.0'
p347
sg16
g3
sg18
g3
sg20
S'22.8'
p348
sg22
S'PF'
p349
sg289
S'99'
p350
sg24
S'.679'
p351
sg28
S'NBA'
p352
sg30
S'1.7'
p353
sg32
S'20.2'
p354
sg34
S'6.2'
p355
sg36
S'7.0'
p356
sg38
S'11.3'
p357
sg40
S'24'
p358
sg42
S'DET'
p359
sg44
S'53'
p360
sg46
S'1.5'
p361
sg48
S'9.0'
p362
sg50
S'4.7'
p363
sg52
S'20.2'
p364
sg54
S'8.2'
p365
sg56
S'1976-77'
p366
sg58
S'9.0'
p367
sg60
g3
sg62
S'.447'
p368
sg64
S'989'
p369
sg66
g3
sba(isrc.gp1.models.Per100Possession
Per100Possession
p370
(dp371
g8
S'3.8'
p372
sg10
g3
sg12
S'.422'
p373
sg282
S'93'
p374
sg14
S'3.8'
p375
sg16
g3
sg18
g3
sg20
S'19.1'
p376
sg22
S'PF'
p377
sg289
S'100'
p378
sg24
S'.703'
p379
sg28
S'NBA'
p380
sg30
S'1.8'
p381
sg32
S'18.4'
p382
sg34
S'6.7'
p383
sg36
S'5.1'
p384
sg38
S'12.2'
p385
sg40
S'25'
p386
sg42
S'TOT'
p387
sg44
S'60'
p388
sg46
S'2.3'
p389
sg48
S'7.8'
p390
sg50
S'3.6'
p391
sg52
S'18.4'
p392
sg54
S'8.5'
p393
sg56
S'1977-78'
p394
sg58
S'7.8'
p395
sg60
S'3.8'
p396
sg62
S'.422'
p397
sg64
S'1646'
p398
sg66
g3
sba(isrc.gp1.models.Per100Possession
Per100Possession
p399
(dp400
g8
S'4.6'
p401
sg10
g3
sg12
S'.449'
p402
sg282
S'89'
p403
sg14
S'3.1'
p404
sg16
g3
sg18
g3
sg20
S'19.9'
p405
sg22
S'PF'
p406
sg289
S'99'
p407
sg24
S'.483'
p408
sg28
S'NBA'
p409
sg30
S'1.2'
p410
sg32
S'19.6'
p411
sg34
S'7.1'
p412
sg36
S'4.8'
p413
sg38
S'15.1'
p414
sg40
S'25'
p415
sg42
S'DET'
p416
sg44
S'12'
p417
sg46
S'1.8'
p418
sg48
S'8.8'
p419
sg50
S'2.3'
p420
sg52
S'19.6'
p421
sg54
S'10.4'
p422
sg56
S'1977-78'
p423
sg58
S'8.8'
p424
sg60
S'4.8'
p425
sg62
S'.449'
p426
sg64
S'269'
p427
sg66
g3
sba(isrc.gp1.models.Per100Possession
Per100Possession
p428
(dp429
g8
S'3.6'
p430
sg10
g3
sg12
S'.416'
p431
sg282
S'94'
p432
sg14
S'3.9'
p433
sg16
g3
sg18
g3
sg20
S'18.9'
p434
sg22
S'PF'
p435
sg289
S'100'
p436
sg24
S'.745'
p437
sg28
S'NBA'
p438
sg30
S'1.9'
p439
sg32
S'18.1'
p440
sg34
S'6.6'
p441
sg36
S'5.1'
p442
sg38
S'11.6'
p443
sg40
S'25'
p444
sg42
S'BUF'
p445
sg44
S'48'
p446
sg46
S'2.4'
p447
sg48
S'7.5'
p448
sg50
S'3.8'
p449
sg52
S'18.1'
p450
sg54
S'8.1'
p451
sg56
S'1977-78'
p452
sg58
S'7.5'
p453
sg60
S'3.6'
p454
sg62
S'.416'
p455
sg64
S'1377'
p456
sg66
g3
sba(isrc.gp1.models.Per100Possession
Per100Possession
p457
(dp458
g8
S'3.2'
p459
sg10
g3
sg12
S'.491'
p460
sg282
S'96'
p461
sg14
S'3.0'
p462
sg16
g3
sg18
g3
sg20
S'17.5'
p463
sg22
S'PF'
p464
sg289
S'103'
p465
sg24
S'.652'
p466
sg28
S'NBA'
p467
sg30
S'2.2'
p468
sg32
S'15.3'
p469
sg34
S'8.2'
p470
sg36
S'3.7'
p471
sg38
S'10.0'
p472
sg40
S'26'
p473
sg42
S'BOS'
p474
sg44
S'38'
p475
sg46
S'2.2'
p476
sg48
S'7.5'
p477
sg50
S'2.4'
p478
sg52
S'15.3'
p479
sg54
S'6.8'
p480
sg56
S'1978-79'
p481
sg58
S'7.5'
p482
sg60
S'3.9'
p483
sg62
S'.491'
p484
sg64
S'796'
p485
sg66
g3
sba(isrc.gp1.models.Per100Possession
Per100Possession
p486
(dp487
g8
S'5.6'
p488
sg10
S'0.0'
p489
sg12
S'.400'
p490
sg282
S'95'
p491
sg14
S'3.0'
p492
sg16
g3
sg18
S'0.0'
p493
sg20
S'10.6'
p494
sg22
S'PF'
p495
sg289
S'109'
p496
sg24
S'.500'
p497
sg28
S'NBA'
p498
sg30
S'0.8'
p499
sg32
S'9.9'
p500
sg34
S'8.6'
p501
sg36
S'5.3'
p502
sg38
S'12.7'
p503
sg40
S'27'
p504
sg42
S'SDC'
p505
sg44
S'20'
p506
sg46
S'2.0'
p507
sg48
S'4.0'
p508
sg50
S'2.6'
p509
sg52
S'9.9'
p510
sg54
S'7.1'
p511
sg56
S'1979-80'
p512
sg58
S'4.0'
p513
sg60
S'3.0'
p514
sg62
S'.400'
p515
sg64
S'287'
p516
sg66
g3
sbasS'_advanced'
p517
(lp518
(isrc.gp1.models.Advanced
Advanced
p519
(dp520
S'_offensiveReboundPercentage'
p521
S'13.3'
p522
sS'_turnOverPercentage'
p523
S'14.9'
p524
sS'_winSharesPer48Minutes'
p525
S'.133'
p526
sS'_stealPercentage'
p527
S'1.4'
p528
sS'_usagePercentage'
p529
S'25.4'
p530
sS'_totalReboundsPercentage'
p531
S'19.5'
p532
sS'_defensiveBoxPlusMinus'
p533
S'0.8'
p534
sg22
S'PF'
p535
sS'_valueOverReplacementPlayer'
p536
S'3.5'
p537
sS'_trueShootingPercentage'
p538
S'.527'
p539
sS'_defensiveReboundPercentage'
p540
S'25.9'
p541
sS'_freeThrowsAttempRate'
p542
S'.282'
p543
sS'_threePointsAttempRate'
p544
S'.002'
p545
sg28
S'ABA'
p546
sS'_offensiveBoxPlusMinues'
p547
S'1.6'
p548
sS'_assistPercentage'
p549
S'12.0'
p550
sS'_defensiveWinShares'
p551
S'4.0'
p552
sg40
S'22'
p553
sg42
S'SSL'
p554
sg44
S'77'
p555
sS'_blockPercentage'
p556
S'2.3'
p557
sS'_playerEfficiencyRating'
p558
S'20.8'
p559
sS'_offensiveWinShares'
p560
S'4.6'
p561
sg64
S'3076'
p562
sS'_boxPlusMinus'
p563
S'2.5'
p564
sg56
S'1974-75'
p565
sS'_winShares'
p566
S'8.6'
p567
sba(isrc.gp1.models.Advanced
Advanced
p568
(dp569
g521
S'10.2'
p570
sg523
S'13.3'
p571
sg525
S'.146'
p572
sg527
S'2.3'
p573
sg529
S'26.6'
p574
sg531
S'14.1'
p575
sg533
S'0.8'
p576
sg22
S'PF'
p577
sg536
S'2.9'
p578
sg538
S'.537'
p579
sg540
S'18.0'
p580
sg542
S'.250'
p581
sg544
S'.008'
p582
sg28
S'ABA'
p583
sg547
S'1.8'
p584
sg549
S'9.2'
p585
sg551
S'3.5'
p586
sg40
S'23'
p587
sg42
S'SSL'
p588
sg44
S'67'
p589
sg556
S'2.9'
p590
sg558
S'21.6'
p591
sg560
S'4.1'
p592
sg64
S'2487'
p593
sg563
S'2.6'
p594
sg56
S'1975-76'
p595
sg566
S'7.6'
p596
sba(isrc.gp1.models.Advanced
Advanced
p597
(dp598
g521
S'7.2'
p599
sg523
g3
sg525
S'.063'
p600
sg527
S'1.7'
p601
sg529
g3
sg531
S'13.3'
p602
sg533
S'-1.2'
p603
sg22
S'PF'
p604
sg536
S'-0.3'
p605
sg538
S'.490'
p606
sg540
S'19.3'
p607
sg542
S'.345'
p608
sg544
g3
sg28
S'NBA'
p609
sg547
S'-1.9'
p610
sg549
S'6.1'
p611
sg551
S'1.0'
p612
sg40
S'24'
p613
sg42
S'DET'
p614
sg44
S'53'
p615
sg556
S'1.7'
p616
sg558
S'15.0'
p617
sg560
S'0.3'
p618
sg64
S'989'
p619
sg563
S'-3.2'
p620
sg56
S'1976-77'
p621
sg566
S'1.3'
p622
sba(isrc.gp1.models.Advanced
Advanced
p623
(dp624
g521
S'8.8'
p625
sg523
S'15.5'
p626
sg525
S'.060'
p627
sg527
S'1.8'
p628
sg529
S'21.1'
p629
sg531
S'14.2'
p630
sg533
S'1.2'
p631
sg22
S'PF'
p632
sg536
S'0.7'
p633
sg538
S'.463'
p634
sg540
S'19.6'
p635
sg542
S'.275'
p636
sg544
g3
sg28
S'NBA'
p637
sg547
S'-1.4'
p638
sg549
S'11.8'
p639
sg551
S'1.9'
p640
sg40
S'25'
p641
sg42
S'TOT'
p642
sg44
S'60'
p643
sg556
S'2.6'
p644
sg558
S'13.9'
p645
sg560
S'0.1'
p646
sg64
S'1646'
p647
sg563
S'-0.2'
p648
sg56
S'1977-78'
p649
sg566
S'2.0'
p650
sba(isrc.gp1.models.Advanced
Advanced
p651
(dp652
g521
S'11.1'
p653
sg523
S'18.2'
p654
sg525
S'.038'
p655
sg527
S'1.2'
p656
sg529
S'22.7'
p657
sg531
S'17.8'
p658
sg533
S'-0.1'
p659
sg22
S'PF'
p660
sg536
S'-0.1'
p661
sg538
S'.459'
p662
sg540
S'24.2'
p663
sg542
S'.246'
p664
sg544
g3
sg28
S'NBA'
p665
sg547
S'-2.8'
p666
sg549
S'10.1'
p667
sg551
S'0.3'
p668
sg40
S'25'
p669
sg42
S'DET'
p670
sg44
S'12'
p671
sg556
S'2.1'
p672
sg558
S'13.0'
p673
sg560
S'-0.1'
p674
sg64
S'269'
p675
sg563
S'-2.9'
p676
sg56
S'1977-78'
p677
sg566
S'0.2'
p678
sba(isrc.gp1.models.Advanced
Advanced
p679
(dp680
g521
S'8.4'
p681
sg523
S'14.9'
p682
sg525
S'.064'
p683
sg527
S'1.9'
p684
sg529
S'20.8'
p685
sg531
S'13.6'
p686
sg533
S'1.5'
p687
sg22
S'PF'
p688
sg536
S'0.8'
p689
sg538
S'.464'
p690
sg540
S'18.7'
p691
sg542
S'.282'
p692
sg544
g3
sg28
S'NBA'
p693
sg547
S'-1.2'
p694
sg549
S'12.2'
p695
sg551
S'1.6'
p696
sg40
S'25'
p697
sg42
S'BUF'
p698
sg44
S'48'
p699
sg556
S'2.7'
p700
sg558
S'14.1'
p701
sg560
S'0.3'
p702
sg64
S'1377'
p703
sg563
S'0.3'
p704
sg56
S'1977-78'
p705
sg566
S'1.8'
p706
sba(isrc.gp1.models.Advanced
Advanced
p707
(dp708
g521
S'7.9'
p709
sg523
S'18.5'
p710
sg525
S'.060'
p711
sg527
S'2.2'
p712
sg529
S'18.1'
p713
sg531
S'12.3'
p714
sg533
S'1.3'
p715
sg22
S'PF'
p716
sg536
S'0.3'
p717
sg538
S'.515'
p718
sg540
S'16.9'
p719
sg542
S'.244'
p720
sg544
g3
sg28
S'NBA'
p721
sg547
S'-2.0'
p722
sg549
S'9.1'
p723
sg551
S'0.9'
p724
sg40
S'26'
p725
sg42
S'BOS'
p726
sg44
S'38'
p727
sg556
S'2.5'
p728
sg558
S'12.3'
p729
sg560
S'0.1'
p730
sg64
S'796'
p731
sg563
S'-0.7'
p732
sg56
S'1978-79'
p733
sg566
S'1.0'
p734
sba(isrc.gp1.models.Advanced
Advanced
p735
(dp736
g521
S'12.4'
p737
sg523
S'19.5'
p738
sg525
S'.019'
p739
sg527
S'0.8'
p740
sg529
S'12.8'
p741
sg531
S'14.5'
p742
sg533
S'0.1'
p743
sg22
S'PF'
p744
sg536
S'-0.1'
p745
sg538
S'.432'
p746
sg540
S'16.8'
p747
sg542
S'.533'
p748
sg544
S'.000'
p749
sg28
S'NBA'
p750
sg547
S'-3.2'
p751
sg549
S'7.8'
p752
sg551
S'0.2'
p753
sg40
S'27'
p754
sg42
S'SDC'
p755
sg44
S'20'
p756
sg556
S'2.3'
p757
sg558
S'8.2'
p758
sg560
S'-0.1'
p759
sg64
S'287'
p760
sg563
S'-3.1'
p761
sg56
S'1979-80'
p762
sg566
S'0.1'
p763
sbasS'_per36Minutes'
p764
(lp765
(isrc.gp1.models.Per36Minutes
Per36Minutes
p766
(dp767
g8
S'4.9'
p768
sg10
S'0.0'
p769
sg12
S'.498'
p770
sg14
S'2.9'
p771
sg16
S'.000'
p772
sg18
S'0.0'
p773
sg20
S'21.6'
p774
sg22
S'PF'
p775
sg24
S'.670'
p776
sg28
S'ABA'
p777
sg30
S'1.1'
p778
sg32
S'18.3'
p779
sg34
S'3.8'
p780
sg36
S'5.1'
p781
sg38
S'14.1'
p782
sg40
S'22'
p783
sg42
S'SSL'
p784
sg44
S'77'
p785
sg46
S'1.6'
p786
sg48
S'9.1'
p787
sg50
S'3.5'
p788
sg52
S'18.2'
p789
sg54
S'9.2'
p790
sg56
S'1974-75'
p791
sg58
S'9.1'
p792
sg60
S'3.6'
p793
sg62
S'.499'
p794
sg64
S'3076'
p795
sg66
g3
sba(isrc.gp1.models.Per36Minutes
Per36Minutes
p796
(dp797
g8
S'3.8'
p798
sg10
S'0.2'
p799
sg12
S'.503'
p800
sg14
S'2.2'
p801
sg16
S'.273'
p802
sg18
S'0.0'
p803
sg20
S'23.4'
p804
sg22
S'PF'
p805
sg24
S'.740'
p806
sg28
S'ABA'
p807
sg30
S'1.8'
p808
sg32
S'19.6'
p809
sg34
S'4.0'
p810
sg36
S'4.9'
p811
sg38
S'10.5'
p812
sg40
S'23'
p813
sg42
S'SSL'
p814
sg44
S'67'
p815
sg46
S'1.9'
p816
sg48
S'9.8'
p817
sg50
S'3.6'
p818
sg52
S'19.5'
p819
sg54
S'6.7'
p820
sg56
S'1975-76'
p821
sg58
S'9.9'
p822
sg60
S'3.3'
p823
sg62
S'.504'
p824
sg64
S'2487'
p825
sg66
g3
sba(isrc.gp1.models.Per36Minutes
Per36Minutes
p826
(dp827
g8
S'2.5'
p828
sg10
g3
sg12
S'.447'
p829
sg14
S'1.6'
p830
sg16
g3
sg18
g3
sg20
S'18.6'
p831
sg22
S'PF'
p832
sg24
S'.679'
p833
sg28
S'NBA'
p834
sg30
S'1.4'
p835
sg32
S'16.5'
p836
sg34
S'5.1'
p837
sg36
S'5.7'
p838
sg38
S'9.2'
p839
sg40
S'24'
p840
sg42
S'DET'
p841
sg44
S'53'
p842
sg46
S'1.2'
p843
sg48
S'7.4'
p844
sg50
S'3.9'
p845
sg52
S'16.5'
p846
sg54
S'6.7'
p847
sg56
S'1976-77'
p848
sg58
S'7.4'
p849
sg60
g3
sg62
S'.447'
p850
sg64
S'989'
p851
sg66
g3
sba(isrc.gp1.models.Per36Minutes
Per36Minutes
p852
(dp853
g8
S'3.0'
p854
sg10
g3
sg12
S'.422'
p855
sg14
S'3.0'
p856
sg16
g3
sg18
g3
sg20
S'15.0'
p857
sg22
S'PF'
p858
sg24
S'.703'
p859
sg28
S'NBA'
p860
sg30
S'1.4'
p861
sg32
S'14.5'
p862
sg34
S'5.3'
p863
sg36
S'4.0'
p864
sg38
S'9.6'
p865
sg40
S'25'
p866
sg42
S'TOT'
p867
sg44
S'60'
p868
sg46
S'1.8'
p869
sg48
S'6.1'
p870
sg50
S'2.8'
p871
sg52
S'14.5'
p872
sg54
S'6.6'
p873
sg56
S'1977-78'
p874
sg58
S'6.1'
p875
sg60
S'3.0'
p876
sg62
S'.422'
p877
sg64
S'1646'
p878
sg66
g3
sba(isrc.gp1.models.Per36Minutes
Per36Minutes
p879
(dp880
g8
S'3.7'
p881
sg10
g3
sg12
S'.449'
p882
sg14
S'2.5'
p883
sg16
g3
sg18
g3
sg20
S'16.1'
p884
sg22
S'PF'
p885
sg24
S'.483'
p886
sg28
S'NBA'
p887
sg30
S'0.9'
p888
sg32
S'15.8'
p889
sg34
S'5.8'
p890
sg36
S'3.9'
p891
sg38
S'12.2'
p892
sg40
S'25'
p893
sg42
S'DET'
p894
sg44
S'12'
p895
sg46
S'1.5'
p896
sg48
S'7.1'
p897
sg50
S'1.9'
p898
sg52
S'15.8'
p899
sg54
S'8.4'
p900
sg56
S'1977-78'
p901
sg58
S'7.1'
p902
sg60
S'3.9'
p903
sg62
S'.449'
p904
sg64
S'269'
p905
sg66
g3
sba(isrc.gp1.models.Per36Minutes
Per36Minutes
p906
(dp907
g8
S'2.8'
p908
sg10
g3
sg12
S'.416'
p909
sg14
S'3.1'
p910
sg16
g3
sg18
g3
sg20
S'14.8'
p911
sg22
S'PF'
p912
sg24
S'.745'
p913
sg28
S'NBA'
p914
sg30
S'1.5'
p915
sg32
S'14.2'
p916
sg34
S'5.2'
p917
sg36
S'4.0'
p918
sg38
S'9.1'
p919
sg40
S'25'
p920
sg42
S'BUF'
p921
sg44
S'48'
p922
sg46
S'1.9'
p923
sg48
S'5.9'
p924
sg50
S'3.0'
p925
sg52
S'14.2'
p926
sg54
S'6.3'
p927
sg56
S'1977-78'
p928
sg58
S'5.9'
p929
sg60
S'2.8'
p930
sg62
S'.416'
p931
sg64
S'1377'
p932
sg66
g3
sba(isrc.gp1.models.Per36Minutes
Per36Minutes
p933
(dp934
g8
S'2.6'
p935
sg10
g3
sg12
S'.491'
p936
sg14
S'2.4'
p937
sg16
g3
sg18
g3
sg20
S'14.0'
p938
sg22
S'PF'
p939
sg24
S'.652'
p940
sg28
S'NBA'
p941
sg30
S'1.7'
p942
sg32
S'12.3'
p943
sg34
S'6.5'
p944
sg36
S'3.0'
p945
sg38
S'8.0'
p946
sg40
S'26'
p947
sg42
S'BOS'
p948
sg44
S'38'
p949
sg46
S'1.8'
p950
sg48
S'6.0'
p951
sg50
S'1.9'
p952
sg52
S'12.3'
p953
sg54
S'5.4'
p954
sg56
S'1978-79'
p955
sg58
S'6.0'
p956
sg60
S'3.1'
p957
sg62
S'.491'
p958
sg64
S'796'
p959
sg66
g3
sba(isrc.gp1.models.Per36Minutes
Per36Minutes
p960
(dp961
g8
S'4.3'
p962
sg10
S'0.0'
p963
sg12
S'.400'
p964
sg14
S'2.3'
p965
sg16
g3
sg18
S'0.0'
p966
sg20
S'8.0'
p967
sg22
S'PF'
p968
sg24
S'.500'
p969
sg28
S'NBA'
p970
sg30
S'0.6'
p971
sg32
S'7.5'
p972
sg34
S'6.5'
p973
sg36
S'4.0'
p974
sg38
S'9.7'
p975
sg40
S'27'
p976
sg42
S'SDC'
p977
sg44
S'20'
p978
sg46
S'1.5'
p979
sg48
S'3.0'
p980
sg50
S'2.0'
p981
sg52
S'7.5'
p982
sg54
S'5.4'
p983
sg56
S'1979-80'
p984
sg58
S'3.0'
p985
sg60
S'2.3'
p986
sg62
S'.400'
p987
sg64
S'287'
p988
sg66
g3
sbasS'_fromYear'
p989
S'1975'
p990
sS'_url'
p991
S'http://www.basketball-reference.com/players/b/barnema01.html'
p992
sS'_perGame'
p993
(isrc.gp1.models.PerGame
PerGame
p994
(dp995
g8
S'1.7'
p996
sg10
S'0.0'
p997
sg12
S'.400'
p998
sS'_effectiveFieldGalPercentage'
p999
S'.400'
p1000
sg14
S'0.9'
p1001
sg16
g3
sg18
S'0.0'
p1002
sg20
S'3.2'
p1003
sg22
S'PF'
p1004
sg24
S'.500'
p1005
sg28
S'NBA'
p1006
sg30
S'0.3'
p1007
sg34
S'2.6'
p1008
sS'_fieldGoalsttempted'
p1009
S'3.0'
p1010
sg36
S'1.6'
p1011
sg38
S'3.9'
p1012
sg40
S'27'
p1013
sg42
S'SDC'
p1014
sg44
S'20'
p1015
sg46
S'0.6'
p1016
sg48
S'1.2'
p1017
sg50
S'0.8'
p1018
sg52
S'3.0'
p1019
sg54
S'2.2'
p1020
sg56
S'1979-80'
p1021
sg58
S'1.2'
p1022
sg60
S'0.9'
p1023
sg62
S'.400'
p1024
sg64
S'14.4'
p1025
sg66
g3
sbsS'_weight'
p1026
S'210'
p1027
sS'_dob'
p1028
S'27-7-1952'
p1029
sS'_salary'
p1030
(lp1031
sg22
S'F-C'
p1032
sb.