(isrc.gp1.models.Player
Player
p0
(dp1
S'_experience'
p2
S'NA'
p3
sS'_totals'
p4
(lp5
(isrc.gp1.models.Totals
Totals
p6
(dp7
S'_offensiveRebounds'
p8
g3
sS'_threePointsAttempted'
p9
S'.341'
p10
sS'_fieldGoalsPercentage'
p11
S'43'
p12
sS'_assist'
p13
g3
sS'_threePointsPercentage'
p14
S'.341'
p15
sS'_threePoints'
p16
S'126'
p17
sS'_points'
p18
g3
sS'_position'
p19
S'PF'
p20
sS'_freeThrowsPercentage'
p21
S'109'
p22
sS'_effectiveFieldGoalPercentage'
p23
S'88'
p24
sS'_league'
p25
S'NBA'
p26
sS'_steals'
p27
g3
sS'_fieldGoalsAttempted'
p28
S'.341'
p29
sS'_personalFouls'
p30
g3
sS'_freeThrowsAttempted'
p31
S'30'
p32
sS'_totalRebounds'
p33
g3
sS'_age'
p34
S'23'
p35
sS'_team'
p36
S'DET'
p37
sS'_games'
p38
S'31'
p39
sS'_blocks'
p40
g3
sS'_twoPoints'
p41
S'23'
p42
sS'_freeThrows'
p43
S'12'
p44
sS'_twoPointsAttempted'
p45
S'29'
p46
sS'_defensiveRebounds'
p47
g3
sS'_season'
p48
S'1958-59'
p49
sS'_fieldGoals'
p50
S'126'
p51
sS'_turnOvers'
p52
g3
sS'_twoPointsPercentage'
p53
S'.793'
p54
sS'_minutesPlayed'
p55
S'43'
p56
sS'_gamesStarted'
p57
S'271'
p58
sba(isrc.gp1.models.Totals
Totals
p59
(dp60
g8
g3
sg9
S'.376'
p61
sg11
S'109'
p62
sg13
g3
sg14
S'.376'
p63
sg16
S'290'
p64
sg18
g3
sg19
S'SF'
p65
sg21
S'262'
p66
sg23
S'225'
p67
sg25
S'NBA'
p68
sg27
g3
sg28
S'.376'
p69
sg30
g3
sg31
S'93'
p70
sg33
g3
sg34
S'24'
p71
sg36
S'TOT'
p72
sg38
S'57'
p73
sg40
g3
sg41
S'44'
p74
sg43
S'39'
p75
sg45
S'67'
p76
sg47
g3
sg48
S'1959-60'
p77
sg50
S'290'
p78
sg52
g3
sg53
S'.657'
p79
sg55
S'109'
p80
sg57
S'715'
p81
sba(isrc.gp1.models.Totals
Totals
p82
(dp83
g8
g3
sg9
S'.367'
p84
sg11
S'60'
p85
sg13
g3
sg14
S'4'
p86
sg16
S'.367'
p87
sg18
g3
sg19
S'7'
p88
sg21
g3
sg23
S'6'
p89
sg25
S'NBA'
p90
sg27
g3
sg28
S'22'
p91
sg30
g3
sg31
S'48'
p92
sg33
g3
sg34
S'24'
p93
sg36
S'DET'
p94
sg38
S'116'
p95
sg40
g3
sg41
S'10'
p96
sg43
S'19'
p97
sg45
S'.400'
p98
sg47
g3
sg48
S'1959-60'
p99
sg50
S'.367'
p100
sg52
g3
sg53
S'48'
p101
sg55
S'60'
p102
sg57
S'22'
p103
sba(isrc.gp1.models.Totals
Totals
p104
(dp105
g8
g3
sg9
S'.378'
p106
sg11
S'87'
p107
sg13
g3
sg14
S'.378'
p108
sg16
S'230'
p109
sg18
g3
sg19
S'SF'
p110
sg21
S'214'
p111
sg23
S'177'
p112
sg25
S'NBA'
p113
sg27
g3
sg28
S'.378'
p114
sg30
g3
sg31
S'74'
p115
sg33
g3
sg34
S'24'
p116
sg36
S'SYR'
p117
sg38
S'50'
p118
sg40
g3
sg41
S'40'
p119
sg43
S'33'
p120
sg45
S'57'
p121
sg47
g3
sg48
S'1959-60'
p122
sg50
S'230'
p123
sg52
g3
sg53
S'.702'
p124
sg55
S'87'
p125
sg57
S'599'
p126
sba(isrc.gp1.models.Totals
Totals
p127
(dp128
g8
g3
sg9
S'.463'
p129
sg11
S'266'
p130
sg13
g3
sg14
S'.463'
p131
sg16
S'574'
p132
sg18
g3
sg19
S'SF'
p133
sg21
S'605'
p134
sg23
S'469'
p135
sg25
S'NBA'
p136
sg27
g3
sg28
S'.463'
p137
sg30
g3
sg31
S'246'
p138
sg33
g3
sg34
S'25'
p139
sg36
S'SYR'
p140
sg38
S'75'
p141
sg40
g3
sg41
S'73'
p142
sg43
S'85'
p143
sg45
S'108'
p144
sg47
g3
sg48
S'1960-61'
p145
sg50
S'574'
p146
sg52
g3
sg53
S'.676'
p147
sg55
S'266'
p148
sg57
S'1642'
p149
sba(isrc.gp1.models.Totals
Totals
p150
(dp151
g8
g3
sg9
S'.407'
p152
sg11
S'305'
p153
sg13
g3
sg14
S'.407'
p154
sg16
S'749'
p155
sg18
g3
sg19
S'SF'
p156
sg21
S'728'
p157
sg23
S'563'
p158
sg25
S'NBA'
p159
sg27
g3
sg28
S'.407'
p160
sg30
g3
sg31
S'211'
p161
sg33
g3
sg34
S'26'
p162
sg36
S'TOT'
p163
sg38
S'67'
p164
sg40
g3
sg41
S'118'
p165
sg43
S'115'
p166
sg45
S'181'
p167
sg47
g3
sg48
S'1961-62'
p168
sg50
S'749'
p169
sg52
g3
sg53
S'.652'
p170
sg55
S'305'
p171
sg57
S'1861'
p172
sba(isrc.gp1.models.Totals
Totals
p173
(dp174
g8
g3
sg9
S'.378'
p175
sg11
S'82'
p176
sg13
g3
sg14
S'.378'
p177
sg16
S'217'
p178
sg18
g3
sg19
S'SF'
p179
sg21
S'206'
p180
sg23
S'83'
p181
sg25
S'NBA'
p182
sg27
g3
sg28
S'.378'
p183
sg30
g3
sg31
S'55'
p184
sg33
g3
sg34
S'26'
p185
sg36
S'CHP'
p186
sg38
S'15'
p187
sg40
g3
sg41
S'42'
p188
sg43
S'31'
p189
sg45
S'59'
p190
sg47
g3
sg48
S'1961-62'
p191
sg50
S'217'
p192
sg52
g3
sg53
S'.712'
p193
sg55
S'82'
p194
sg57
S'498'
p195
sba(isrc.gp1.models.Totals
Totals
p196
(dp197
g8
g3
sg9
S'.419'
p198
sg11
S'223'
p199
sg13
g3
sg14
S'.419'
p200
sg16
S'532'
p201
sg18
g3
sg19
S'SF'
p202
sg21
S'522'
p203
sg23
S'480'
p204
sg25
S'NBA'
p205
sg27
g3
sg28
S'.419'
p206
sg30
g3
sg31
S'156'
p207
sg33
g3
sg34
S'26'
p208
sg36
S'STL'
p209
sg38
S'52'
p210
sg40
g3
sg41
S'76'
p211
sg43
S'84'
p212
sg45
S'122'
p213
sg47
g3
sg48
S'1961-62'
p214
sg50
S'532'
p215
sg52
g3
sg53
S'.623'
p216
sg55
S'223'
p217
sg57
S'1363'
p218
sba(isrc.gp1.models.Totals
Totals
p219
(dp220
g8
g3
sg9
S'.455'
p221
sg11
S'173'
p222
sg13
g3
sg14
S'.455'
p223
sg16
S'380'
p224
sg18
g3
sg19
S'SF'
p225
sg21
S'408'
p226
sg23
S'238'
p227
sg25
S'NBA'
p228
sg27
g3
sg28
S'.455'
p229
sg30
g3
sg31
S'135'
p230
sg33
g3
sg34
S'27'
p231
sg36
S'TOT'
p232
sg38
S'61'
p233
sg40
g3
sg41
S'62'
p234
sg43
S'83'
p235
sg45
S'96'
p236
sg47
g3
sg48
S'1962-63'
p237
sg50
S'380'
p238
sg52
g3
sg53
S'.646'
p239
sg55
S'173'
p240
sg57
S'1203'
p241
sba(isrc.gp1.models.Totals
Totals
p242
(dp243
g8
g3
sg9
S'.495'
p244
sg11
S'107'
p245
sg13
g3
sg14
S'.495'
p246
sg16
S'216'
p247
sg18
g3
sg19
S'SF'
p248
sg21
S'255'
p249
sg23
S'129'
p250
sg25
S'NBA'
p251
sg27
g3
sg28
S'.495'
p252
sg30
g3
sg31
S'86'
p253
sg33
g3
sg34
S'27'
p254
sg36
S'STL'
p255
sg38
S'42'
p256
sg40
g3
sg41
S'41'
p257
sg43
S'42'
p258
sg45
S'63'
p259
sg47
g3
sg48
S'1962-63'
p260
sg50
S'216'
p261
sg52
g3
sg53
S'.651'
p262
sg55
S'107'
p263
sg57
S'662'
p264
sba(isrc.gp1.models.Totals
Totals
p265
(dp266
g8
g3
sg9
S'.402'
p267
sg11
S'66'
p268
sg13
g3
sg14
S'.402'
p269
sg16
S'164'
p270
sg18
g3
sg19
S'SF'
p271
sg21
S'153'
p272
sg23
S'109'
p273
sg25
S'NBA'
p274
sg27
g3
sg28
S'.402'
p275
sg30
g3
sg31
S'49'
p276
sg33
g3
sg34
S'27'
p277
sg36
S'CHZ'
p278
sg38
S'19'
p279
sg40
g3
sg41
S'21'
p280
sg43
S'41'
p281
sg45
S'33'
p282
sg47
g3
sg48
S'1962-63'
p283
sg50
S'164'
p284
sg52
g3
sg53
S'.636'
p285
sg55
S'66'
p286
sg57
S'541'
p287
sba(isrc.gp1.models.Totals
Totals
p288
(dp289
g8
g3
sg9
S'.400'
p290
sg11
S'116'
p291
sg13
g3
sg14
S'.400'
p292
sg16
S'290'
p293
sg18
g3
sg19
S'SF'
p294
sg21
S'260'
p295
sg23
S'301'
p296
sg25
S'NBA'
p297
sg27
g3
sg28
S'.400'
p298
sg30
g3
sg31
S'166'
p299
sg33
g3
sg34
S'28'
p300
sg36
S'BAL'
p301
sg38
S'71'
p302
sg40
g3
sg41
S'28'
p303
sg43
S'47'
p304
sg45
S'42'
p305
sg47
g3
sg48
S'1963-64'
p306
sg50
S'290'
p307
sg52
g3
sg53
S'.667'
p308
sg55
S'116'
p309
sg57
S'1125'
p310
sbasS'_college'
p311
S'Bradley University'
p312
sS'_toYear'
p313
S'1964'
p314
sS'_height'
p315
S'6-7'
p316
sS'_active'
p317
I00
sS'_shootingHand'
p318
VRight
p319
sS'_name'
p320
S'Barney Cable'
p321
sS'_per100Possessions'
p322
(lp323
sS'_advanced'
p324
(lp325
(isrc.gp1.models.Advanced
Advanced
p326
(dp327
S'_offensiveReboundPercentage'
p328
S'0.3'
p329
sS'_turnOverPercentage'
p330
g3
sS'_winSharesPer48Minutes'
p331
g3
sS'_stealPercentage'
p332
g3
sS'_usagePercentage'
p333
g3
sS'_totalReboundsPercentage'
p334
S'.017'
p335
sS'_defensiveBoxPlusMinus'
p336
g3
sg19
S'PF'
p337
sS'_valueOverReplacementPlayer'
p338
g3
sS'_trueShootingPercentage'
p339
S'.393'
p340
sS'_defensiveReboundPercentage'
p341
S'0.1'
p342
sS'_freeThrowsAttempRate'
p343
S'-0.2'
p344
sS'_threePointsAttempRate'
p345
S'.230'
p346
sg25
S'NBA'
p347
sS'_offensiveBoxPlusMinues'
p348
g3
sS'_assistPercentage'
p349
g3
sS'_defensiveWinShares'
p350
g3
sg34
S'23'
p351
sg36
S'DET'
p352
sg38
S'31'
p353
sS'_blockPercentage'
p354
g3
sS'_playerEfficiencyRating'
p355
S'12.3'
p356
sS'_offensiveWinShares'
p357
g3
sg55
S'271'
p358
sS'_boxPlusMinus'
p359
g3
sg48
S'1958-59'
p360
sS'_winShares'
p361
g3
sba(isrc.gp1.models.Advanced
Advanced
p362
(dp363
g328
S'0.7'
p364
sg330
g3
sg331
g3
sg332
g3
sg333
g3
sg334
S'.026'
p365
sg336
g3
sg19
S'SF'
p366
sg338
g3
sg339
S'.410'
p367
sg341
S'0.4'
p368
sg343
S'-0.3'
p369
sg345
S'.231'
p370
sg25
S'NBA'
p371
sg348
g3
sg349
g3
sg350
g3
sg34
S'24'
p372
sg36
S'TOT'
p373
sg38
S'57'
p374
sg354
g3
sg355
S'10.5'
p375
sg357
g3
sg55
S'715'
p376
sg359
g3
sg48
S'1959-60'
p377
sg361
g3
sba(isrc.gp1.models.Advanced
Advanced
p378
(dp379
g328
S'-0.1'
p380
sg330
g3
sg331
g3
sg332
g3
sg333
g3
sg334
g3
sg336
g3
sg19
g88
sg338
g3
sg339
S'.167'
p381
sg341
S'-0.034'
p382
sg343
S'0.1'
p383
sg345
S'-0.2'
p384
sg25
S'NBA'
p385
sg348
g3
sg349
g3
sg350
g3
sg34
S'24'
p386
sg36
S'DET'
p387
sg38
S'116'
p388
sg354
g3
sg355
S'.373'
p389
sg357
g3
sg55
S'11.2'
p390
sg359
g3
sg48
S'1959-60'
p391
sg361
g3
sba(isrc.gp1.models.Advanced
Advanced
p392
(dp393
g328
S'0.6'
p394
sg330
g3
sg331
g3
sg332
g3
sg333
g3
sg334
S'.038'
p395
sg336
g3
sg19
S'SF'
p396
sg338
g3
sg339
S'.419'
p397
sg341
S'0.5'
p398
sg343
S'-0.1'
p399
sg345
S'.248'
p400
sg25
S'NBA'
p401
sg348
g3
sg349
g3
sg350
g3
sg34
S'24'
p402
sg36
S'SYR'
p403
sg38
S'50'
p404
sg354
g3
sg355
S'10.4'
p405
sg357
g3
sg55
S'599'
p406
sg359
g3
sg48
S'1959-60'
p407
sg361
g3
sba(isrc.gp1.models.Advanced
Advanced
p408
(dp409
g328
S'1.6'
p410
sg330
g3
sg331
g3
sg332
g3
sg333
g3
sg334
S'.096'
p411
sg336
g3
sg19
S'SF'
p412
sg338
g3
sg339
S'.487'
p413
sg341
S'3.3'
p414
sg343
S'1.7'
p415
sg345
S'.188'
p416
sg25
S'NBA'
p417
sg348
g3
sg349
g3
sg350
g3
sg34
S'25'
p418
sg36
S'SYR'
p419
sg38
S'75'
p420
sg354
g3
sg355
S'11.4'
p421
sg357
g3
sg55
S'1642'
p422
sg359
g3
sg48
S'1960-61'
p423
sg361
g3
sba(isrc.gp1.models.Advanced
Advanced
p424
(dp425
g328
S'0.9'
p426
sg330
g3
sg331
g3
sg332
g3
sg333
g3
sg334
S'.019'
p427
sg336
g3
sg19
S'SF'
p428
sg338
g3
sg339
S'.439'
p429
sg341
S'0.7'
p430
sg343
S'-0.1'
p431
sg345
S'.242'
p432
sg25
S'NBA'
p433
sg348
g3
sg349
g3
sg350
g3
sg34
S'26'
p434
sg36
S'TOT'
p435
sg38
S'67'
p436
sg354
g3
sg355
S'11.3'
p437
sg357
g3
sg55
S'1861'
p438
sg359
g3
sg48
S'1961-62'
p439
sg361
g3
sba(isrc.gp1.models.Advanced
Advanced
p440
(dp441
g328
S'0.2'
p442
sg330
g3
sg331
g3
sg332
g3
sg333
g3
sg334
S'.000'
p443
sg336
g3
sg19
S'SF'
p444
sg338
g3
sg339
S'.424'
p445
sg341
S'0.0'
p446
sg343
S'-0.2'
p447
sg345
S'.272'
p448
sg25
S'NBA'
p449
sg348
g3
sg349
g3
sg350
g3
sg34
S'26'
p450
sg36
S'CHP'
p451
sg38
S'15'
p452
sg354
g3
sg355
S'9.4'
p453
sg357
g3
sg55
S'498'
p454
sg359
g3
sg48
S'1961-62'
p455
sg361
g3
sba(isrc.gp1.models.Advanced
Advanced
p456
(dp457
g328
S'0.6'
p458
sg330
g3
sg331
g3
sg332
g3
sg333
g3
sg334
S'.026'
p459
sg336
g3
sg19
S'SF'
p460
sg338
g3
sg339
S'.446'
p461
sg341
S'0.7'
p462
sg343
S'0.1'
p463
sg345
S'.229'
p464
sg25
S'NBA'
p465
sg348
g3
sg349
g3
sg350
g3
sg34
S'26'
p466
sg36
S'STL'
p467
sg38
S'52'
p468
sg354
g3
sg355
S'12.1'
p469
sg357
g3
sg55
S'1363'
p470
sg359
g3
sg48
S'1961-62'
p471
sg361
g3
sba(isrc.gp1.models.Advanced
Advanced
p472
(dp473
g328
S'0.9'
p474
sg330
g3
sg331
g3
sg332
g3
sg333
g3
sg334
S'.066'
p475
sg336
g3
sg19
S'SF'
p476
sg338
g3
sg339
S'.483'
p477
sg341
S'1.6'
p478
sg343
S'0.7'
p479
sg345
S'.253'
p480
sg25
S'NBA'
p481
sg348
g3
sg349
g3
sg350
g3
sg34
S'27'
p482
sg36
S'TOT'
p483
sg38
S'61'
p484
sg354
g3
sg355
S'10.7'
p485
sg357
g3
sg55
S'1203'
p486
sg359
g3
sg48
S'1962-63'
p487
sg361
g3
sba(isrc.gp1.models.Advanced
Advanced
p488
(dp489
g328
S'0.8'
p490
sg330
g3
sg331
g3
sg332
g3
sg333
g3
sg334
S'.127'
p491
sg336
g3
sg19
S'SF'
p492
sg338
g3
sg339
S'.523'
p493
sg341
S'1.8'
p494
sg343
S'1.0'
p495
sg345
S'.292'
p496
sg25
S'NBA'
p497
sg348
g3
sg349
g3
sg350
g3
sg34
S'27'
p498
sg36
S'STL'
p499
sg38
S'42'
p500
sg354
g3
sg355
S'12.2'
p501
sg357
g3
sg55
S'662'
p502
sg359
g3
sg48
S'1962-63'
p503
sg361
g3
sba(isrc.gp1.models.Advanced
Advanced
p504
(dp505
g328
S'0.1'
p506
sg330
g3
sg331
g3
sg332
g3
sg333
g3
sg334
S'-0.010'
p507
sg336
g3
sg19
S'SF'
p508
sg338
g3
sg339
S'.429'
p509
sg341
S'-0.1'
p510
sg343
S'-0.2'
p511
sg345
S'.201'
p512
sg25
S'NBA'
p513
sg348
g3
sg349
g3
sg350
g3
sg34
S'27'
p514
sg36
S'CHZ'
p515
sg38
S'19'
p516
sg354
g3
sg355
S'9.0'
p517
sg357
g3
sg55
S'541'
p518
sg359
g3
sg48
S'1962-63'
p519
sg361
g3
sba(isrc.gp1.models.Advanced
Advanced
p520
(dp521
g328
S'0.8'
p522
sg330
g3
sg331
g3
sg332
g3
sg333
g3
sg334
S'.014'
p523
sg336
g3
sg19
S'SF'
p524
sg338
g3
sg339
S'.421'
p525
sg341
S'0.3'
p526
sg343
S'-0.4'
p527
sg345
S'.145'
p528
sg25
S'NBA'
p529
sg348
g3
sg349
g3
sg350
g3
sg34
S'28'
p530
sg36
S'BAL'
p531
sg38
S'71'
p532
sg354
g3
sg355
S'7.7'
p533
sg357
g3
sg55
S'1125'
p534
sg359
g3
sg48
S'1963-64'
p535
sg361
g3
sbasS'_per36Minutes'
p536
(lp537
(isrc.gp1.models.Per36Minutes
Per36Minutes
p538
(dp539
g8
g3
sg9
S'.341'
p540
sg11
S'5.7'
p541
sg13
g3
sg14
S'3.1'
p542
sg16
S'16.7'
p543
sg18
g3
sg19
S'PF'
p544
sg21
S'14.5'
p545
sg25
S'NBA'
p546
sg27
g3
sg28
S'.341'
p547
sg30
g3
sg31
S'4.0'
p548
sg33
g3
sg34
S'23'
p549
sg36
S'DET'
p550
sg38
S'31'
p551
sg40
g3
sg41
S'3.9'
p552
sg43
S'1.6'
p553
sg45
S'.793'
p554
sg47
g3
sg48
S'1958-59'
p555
sg50
S'16.7'
p556
sg52
g3
sg53
S'11.7'
p557
sg55
S'5.7'
p558
sg57
S'271'
p559
sba(isrc.gp1.models.Per36Minutes
Per36Minutes
p560
(dp561
g8
g3
sg9
S'.376'
p562
sg11
S'5.5'
p563
sg13
g3
sg14
S'2.2'
p564
sg16
S'14.6'
p565
sg18
g3
sg19
S'SF'
p566
sg21
S'13.2'
p567
sg25
S'NBA'
p568
sg27
g3
sg28
S'.376'
p569
sg30
g3
sg31
S'4.7'
p570
sg33
g3
sg34
S'24'
p571
sg36
S'TOT'
p572
sg38
S'57'
p573
sg40
g3
sg41
S'3.4'
p574
sg43
S'2.0'
p575
sg45
S'.657'
p576
sg47
g3
sg48
S'1959-60'
p577
sg50
S'14.6'
p578
sg52
g3
sg53
S'11.3'
p579
sg55
S'5.5'
p580
sg57
S'715'
p581
sba(isrc.gp1.models.Per36Minutes
Per36Minutes
p582
(dp583
g8
g3
sg9
S'1.2'
p584
sg11
S'18.6'
p585
sg13
g3
sg14
S'3.1'
p586
sg16
S'.367'
p587
sg18
g3
sg19
g88
sg21
g3
sg25
S'NBA'
p588
sg27
g3
sg28
S'6.8'
p589
sg30
g3
sg31
S'14.9'
p590
sg33
g3
sg34
S'24'
p591
sg36
S'DET'
p592
sg38
S'116'
p593
sg40
g3
sg41
S'.400'
p594
sg43
S'5.9'
p595
sg45
S'14.9'
p596
sg47
g3
sg48
S'1959-60'
p597
sg50
S'.367'
p598
sg52
g3
sg53
S'1.9'
p599
sg55
S'18.6'
p600
sg57
S'6.8'
p601
sba(isrc.gp1.models.Per36Minutes
Per36Minutes
p602
(dp603
g8
g3
sg9
S'.378'
p604
sg11
S'5.2'
p605
sg13
g3
sg14
S'2.4'
p606
sg16
S'13.8'
p607
sg18
g3
sg19
S'SF'
p608
sg21
S'12.9'
p609
sg25
S'NBA'
p610
sg27
g3
sg28
S'.378'
p611
sg30
g3
sg31
S'4.4'
p612
sg33
g3
sg34
S'24'
p613
sg36
S'SYR'
p614
sg38
S'50'
p615
sg40
g3
sg41
S'3.4'
p616
sg43
S'2.0'
p617
sg45
S'.702'
p618
sg47
g3
sg48
S'1959-60'
p619
sg50
S'13.8'
p620
sg52
g3
sg53
S'10.6'
p621
sg55
S'5.2'
p622
sg57
S'599'
p623
sba(isrc.gp1.models.Per36Minutes
Per36Minutes
p624
(dp625
g8
g3
sg9
S'.463'
p626
sg11
S'5.8'
p627
sg13
g3
sg14
S'1.6'
p628
sg16
S'12.6'
p629
sg18
g3
sg19
S'SF'
p630
sg21
S'13.3'
p631
sg25
S'NBA'
p632
sg27
g3
sg28
S'.463'
p633
sg30
g3
sg31
S'5.4'
p634
sg33
g3
sg34
S'25'
p635
sg36
S'SYR'
p636
sg38
S'75'
p637
sg40
g3
sg41
S'2.4'
p638
sg43
S'1.9'
p639
sg45
S'.676'
p640
sg47
g3
sg48
S'1960-61'
p641
sg50
S'12.6'
p642
sg52
g3
sg53
S'10.3'
p643
sg55
S'5.8'
p644
sg57
S'1642'
p645
sba(isrc.gp1.models.Per36Minutes
Per36Minutes
p646
(dp647
g8
g3
sg9
S'.407'
p648
sg11
S'5.9'
p649
sg13
g3
sg14
S'2.3'
p650
sg16
S'14.5'
p651
sg18
g3
sg19
S'SF'
p652
sg21
S'14.1'
p653
sg25
S'NBA'
p654
sg27
g3
sg28
S'.407'
p655
sg30
g3
sg31
S'4.1'
p656
sg33
g3
sg34
S'26'
p657
sg36
S'TOT'
p658
sg38
S'67'
p659
sg40
g3
sg41
S'3.5'
p660
sg43
S'2.2'
p661
sg45
S'.652'
p662
sg47
g3
sg48
S'1961-62'
p663
sg50
S'14.5'
p664
sg52
g3
sg53
S'10.9'
p665
sg55
S'5.9'
p666
sg57
S'1861'
p667
sba(isrc.gp1.models.Per36Minutes
Per36Minutes
p668
(dp669
g8
g3
sg9
S'.378'
p670
sg11
S'5.9'
p671
sg13
g3
sg14
S'3.0'
p672
sg16
S'15.7'
p673
sg18
g3
sg19
S'SF'
p674
sg21
S'14.9'
p675
sg25
S'NBA'
p676
sg27
g3
sg28
S'.378'
p677
sg30
g3
sg31
S'4.0'
p678
sg33
g3
sg34
S'26'
p679
sg36
S'CHP'
p680
sg38
S'15'
p681
sg40
g3
sg41
S'4.3'
p682
sg43
S'2.2'
p683
sg45
S'.712'
p684
sg47
g3
sg48
S'1961-62'
p685
sg50
S'15.7'
p686
sg52
g3
sg53
S'6.0'
p687
sg55
S'5.9'
p688
sg57
S'498'
p689
sba(isrc.gp1.models.Per36Minutes
Per36Minutes
p690
(dp691
g8
g3
sg9
S'.419'
p692
sg11
S'5.9'
p693
sg13
g3
sg14
S'2.0'
p694
sg16
S'14.1'
p695
sg18
g3
sg19
S'SF'
p696
sg21
S'13.8'
p697
sg25
S'NBA'
p698
sg27
g3
sg28
S'.419'
p699
sg30
g3
sg31
S'4.1'
p700
sg33
g3
sg34
S'26'
p701
sg36
S'STL'
p702
sg38
S'52'
p703
sg40
g3
sg41
S'3.2'
p704
sg43
S'2.2'
p705
sg45
S'.623'
p706
sg47
g3
sg48
S'1961-62'
p707
sg50
S'14.1'
p708
sg52
g3
sg53
S'12.7'
p709
sg55
S'5.9'
p710
sg57
S'1363'
p711
sba(isrc.gp1.models.Per36Minutes
Per36Minutes
p712
(dp713
g8
g3
sg9
S'.455'
p714
sg11
S'5.2'
p715
sg13
g3
sg14
S'1.9'
p716
sg16
S'11.4'
p717
sg18
g3
sg19
S'SF'
p718
sg21
S'12.2'
p719
sg25
S'NBA'
p720
sg27
g3
sg28
S'.455'
p721
sg30
g3
sg31
S'4.0'
p722
sg33
g3
sg34
S'27'
p723
sg36
S'TOT'
p724
sg38
S'61'
p725
sg40
g3
sg41
S'2.9'
p726
sg43
S'2.5'
p727
sg45
S'.646'
p728
sg47
g3
sg48
S'1962-63'
p729
sg50
S'11.4'
p730
sg52
g3
sg53
S'7.1'
p731
sg55
S'5.2'
p732
sg57
S'1203'
p733
sba(isrc.gp1.models.Per36Minutes
Per36Minutes
p734
(dp735
g8
g3
sg9
S'.495'
p736
sg11
S'5.8'
p737
sg13
g3
sg14
S'2.2'
p738
sg16
S'11.7'
p739
sg18
g3
sg19
S'SF'
p740
sg21
S'13.9'
p741
sg25
S'NBA'
p742
sg27
g3
sg28
S'.495'
p743
sg30
g3
sg31
S'4.7'
p744
sg33
g3
sg34
S'27'
p745
sg36
S'STL'
p746
sg38
S'42'
p747
sg40
g3
sg41
S'3.4'
p748
sg43
S'2.3'
p749
sg45
S'.651'
p750
sg47
g3
sg48
S'1962-63'
p751
sg50
S'11.7'
p752
sg52
g3
sg53
S'7.0'
p753
sg55
S'5.8'
p754
sg57
S'662'
p755
sba(isrc.gp1.models.Per36Minutes
Per36Minutes
p756
(dp757
g8
g3
sg9
S'.402'
p758
sg11
S'4.4'
p759
sg13
g3
sg14
S'1.4'
p760
sg16
S'10.9'
p761
sg18
g3
sg19
S'SF'
p762
sg21
S'10.2'
p763
sg25
S'NBA'
p764
sg27
g3
sg28
S'.402'
p765
sg30
g3
sg31
S'3.3'
p766
sg33
g3
sg34
S'27'
p767
sg36
S'CHZ'
p768
sg38
S'19'
p769
sg40
g3
sg41
S'2.2'
p770
sg43
S'2.7'
p771
sg45
S'.636'
p772
sg47
g3
sg48
S'1962-63'
p773
sg50
S'10.9'
p774
sg52
g3
sg53
S'7.3'
p775
sg55
S'4.4'
p776
sg57
S'541'
p777
sba(isrc.gp1.models.Per36Minutes
Per36Minutes
p778
(dp779
g8
g3
sg9
S'.400'
p780
sg11
S'3.7'
p781
sg13
g3
sg14
S'0.9'
p782
sg16
S'9.3'
p783
sg18
g3
sg19
S'SF'
p784
sg21
S'8.3'
p785
sg25
S'NBA'
p786
sg27
g3
sg28
S'.400'
p787
sg30
g3
sg31
S'5.3'
p788
sg33
g3
sg34
S'28'
p789
sg36
S'BAL'
p790
sg38
S'71'
p791
sg40
g3
sg41
S'1.3'
p792
sg43
S'1.5'
p793
sg45
S'.667'
p794
sg47
g3
sg48
S'1963-64'
p795
sg50
S'9.3'
p796
sg52
g3
sg53
S'9.6'
p797
sg55
S'3.7'
p798
sg57
S'1125'
p799
sbasS'_fromYear'
p800
S'1959'
p801
sS'_url'
p802
S'http://www.basketball-reference.com/players/c/cableba01.html'
p803
sS'_perGame'
p804
(isrc.gp1.models.PerGame
PerGame
p805
(dp806
g8
g3
sg9
S'.400'
p807
sg11
S'1.6'
p808
sS'_effectiveFieldGalPercentage'
p809
S'4.2'
p810
sg13
g3
sg14
S'.400'
p811
sg16
S'4.1'
p812
sg18
g3
sg19
S'SF'
p813
sg21
S'3.7'
p814
sg25
S'NBA'
p815
sg27
g3
sg30
g3
sS'_fieldGoalsttempted'
p816
S'.400'
p817
sg31
S'2.3'
p818
sg33
g3
sg34
S'28'
p819
sg36
S'BAL'
p820
sg38
S'71'
p821
sg40
g3
sg41
S'0.4'
p822
sg43
S'0.7'
p823
sg45
S'0.6'
p824
sg47
g3
sg48
S'1963-64'
p825
sg50
S'4.1'
p826
sg52
g3
sg53
S'.667'
p827
sg55
S'1.6'
p828
sg57
S'15.8'
p829
sbsS'_weight'
p830
S'175'
p831
sS'_dob'
p832
S'29-7-1935'
p833
sS'_salary'
p834
(lp835
sg19
S'F'
p836
sb.