(isrc.gp1.models.Player
Player
p0
(dp1
S'_experience'
p2
S'NA'
p3
sS'_totals'
p4
(lp5
(isrc.gp1.models.Totals
Totals
p6
(dp7
S'_offensiveRebounds'
p8
g3
sS'_threePointsAttempted'
p9
g3
sS'_fieldGoalsPercentage'
p10
S'.412'
p11
sS'_assist'
p12
S'160'
p13
sS'_threePointsPercentage'
p14
g3
sS'_threePoints'
p15
g3
sS'_points'
p16
S'706'
p17
sS'_position'
p18
S'SG'
p19
sS'_freeThrowsPercentage'
p20
S'.711'
p21
sS'_effectiveFieldGoalPercentage'
p22
S'.412'
p23
sS'_league'
p24
S'NBA'
p25
sS'_steals'
p26
g3
sS'_fieldGoalsAttempted'
p27
S'701'
p28
sS'_personalFouls'
p29
S'98'
p30
sS'_freeThrowsAttempted'
p31
S'180'
p32
sS'_totalRebounds'
p33
S'155'
p34
sS'_age'
p35
S'23'
p36
sS'_team'
p37
S'SYR'
p38
sS'_games'
p39
S'57'
p40
sS'_blocks'
p41
g3
sS'_twoPoints'
p42
S'289'
p43
sS'_freeThrows'
p44
S'128'
p45
sS'_twoPointsAttempted'
p46
S'701'
p47
sS'_defensiveRebounds'
p48
g3
sS'_season'
p49
S'1959-60'
p50
sS'_fieldGoals'
p51
S'289'
p52
sS'_turnOvers'
p53
g3
sS'_twoPointsPercentage'
p54
S'.412'
p55
sS'_minutesPlayed'
p56
S'1235'
p57
sS'_gamesStarted'
p58
g3
sba(isrc.gp1.models.Totals
Totals
p59
(dp60
g8
g3
sg9
g3
sg10
S'.452'
p61
sg12
S'218'
p62
sg14
g3
sg15
g3
sg16
S'1320'
p63
sg18
S'SG'
p64
sg20
S'.712'
p65
sg22
S'.452'
p66
sg24
S'NBA'
p67
sg26
g3
sg27
S'1194'
p68
sg29
S'169'
p69
sg31
S'337'
p70
sg33
S'283'
p71
sg35
S'24'
p72
sg37
S'SYR'
p73
sg39
S'78'
p74
sg41
g3
sg42
S'540'
p75
sg44
S'240'
p76
sg46
S'1194'
p77
sg48
g3
sg49
S'1960-61'
p78
sg51
S'540'
p79
sg53
g3
sg54
S'.452'
p80
sg56
S'2070'
p81
sg58
g3
sba(isrc.gp1.models.Totals
Totals
p82
(dp83
g8
g3
sg9
g3
sg10
g3
sg12
g3
sg14
g3
sg15
g3
sg16
g3
sg18
g3
sg20
g3
sg22
g3
sg24
g3
sg26
g3
sg27
g3
sg29
g3
sg31
g3
sg33
g3
sg35
S'25'
p84
sg37
S'Did Not Play\xc2\xa0(other pro league\xe2\x80\x94ABL)'
p85
sg39
g3
sg41
g3
sg42
g3
sg44
g3
sg46
g3
sg48
g3
sg49
S'1961-62'
p86
sg51
g3
sg53
g3
sg54
g3
sg56
g3
sg58
g3
sba(isrc.gp1.models.Totals
Totals
p87
(dp88
g8
g3
sg9
g3
sg10
S'.471'
p89
sg12
S'224'
p90
sg14
g3
sg15
g3
sg16
S'1437'
p91
sg18
S'SG'
p92
sg20
S'.815'
p93
sg22
S'.471'
p94
sg24
S'NBA'
p95
sg26
g3
sg27
S'1162'
p96
sg29
S'189'
p97
sg31
S'421'
p98
sg33
S'242'
p99
sg35
S'26'
p100
sg37
S'LAL'
p101
sg39
S'80'
p102
sg41
g3
sg42
S'547'
p103
sg44
S'343'
p104
sg46
S'1162'
p105
sg48
g3
sg49
S'1962-63'
p106
sg51
S'547'
p107
sg53
g3
sg54
S'.471'
p108
sg56
S'2544'
p109
sg58
g3
sba(isrc.gp1.models.Totals
Totals
p110
(dp111
g8
g3
sg9
g3
sg10
S'.452'
p112
sg12
S'238'
p113
sg14
g3
sg15
g3
sg16
S'1433'
p114
sg18
S'SG'
p115
sg20
S'.773'
p116
sg22
S'.452'
p117
sg24
S'NBA'
p118
sg26
g3
sg27
S'1197'
p119
sg29
S'233'
p120
sg31
S'454'
p121
sg33
S'250'
p122
sg35
S'27'
p123
sg37
S'LAL'
p124
sg39
S'78'
p125
sg41
g3
sg42
S'541'
p126
sg44
S'351'
p127
sg46
S'1197'
p128
sg48
g3
sg49
S'1963-64'
p129
sg51
S'541'
p130
sg53
g3
sg54
S'.452'
p131
sg56
S'2620'
p132
sg58
g3
sba(isrc.gp1.models.Totals
Totals
p133
(dp134
g8
g3
sg9
g3
sg10
S'.413'
p135
sg12
S'159'
p136
sg14
g3
sg15
g3
sg16
S'1020'
p137
sg18
S'SG'
p138
sg20
S'.799'
p139
sg22
S'.413'
p140
sg24
S'NBA'
p141
sg26
g3
sg27
S'908'
p142
sg29
S'209'
p143
sg31
S'338'
p144
sg33
S'200'
p145
sg35
S'28'
p146
sg37
S'LAL'
p147
sg39
S'74'
p148
sg41
g3
sg42
S'375'
p149
sg44
S'270'
p150
sg46
S'908'
p151
sg48
g3
sg49
S'1964-65'
p152
sg51
S'375'
p153
sg53
g3
sg54
S'.413'
p154
sg56
S'2026'
p155
sg58
g3
sba(isrc.gp1.models.Totals
Totals
p156
(dp157
g8
g3
sg9
g3
sg10
S'.469'
p158
sg12
S'259'
p159
sg14
g3
sg15
g3
sg16
S'1729'
p160
sg18
S'SG'
p161
sg20
S'.772'
p162
sg22
S'.469'
p163
sg24
S'NBA'
p164
sg26
g3
sg27
S'1344'
p165
sg29
S'235'
p166
sg31
S'605'
p167
sg33
S'310'
p168
sg35
S'29'
p169
sg37
S'NYK'
p170
sg39
S'75'
p171
sg41
g3
sg42
S'631'
p172
sg44
S'467'
p173
sg46
S'1344'
p174
sg48
g3
sg49
S'1965-66'
p175
sg51
S'631'
p176
sg53
g3
sg54
S'.469'
p177
sg56
S'2589'
p178
sg58
g3
sba(isrc.gp1.models.Totals
Totals
p179
(dp180
g8
g3
sg9
g3
sg10
S'.478'
p181
sg12
S'161'
p182
sg14
g3
sg15
g3
sg16
S'1139'
p183
sg18
S'SG'
p184
sg20
S'.783'
p185
sg22
S'.478'
p186
sg24
S'NBA'
p187
sg26
g3
sg27
S'949'
p188
sg29
S'185'
p189
sg31
S'295'
p190
sg33
S'226'
p191
sg35
S'30'
p192
sg37
S'NYK'
p193
sg39
S'67'
p194
sg41
g3
sg42
S'454'
p195
sg44
S'231'
p196
sg46
S'949'
p197
sg48
g3
sg49
S'1966-67'
p198
sg51
S'454'
p199
sg53
g3
sg54
S'.478'
p200
sg56
S'1969'
p201
sg58
g3
sba(isrc.gp1.models.Totals
Totals
p202
(dp203
g8
g3
sg9
g3
sg10
S'.482'
p204
sg12
S'242'
p205
sg14
g3
sg15
g3
sg16
S'1461'
p206
sg18
S'SG'
p207
sg20
S'.780'
p208
sg22
S'.482'
p209
sg24
S'NBA'
p210
sg26
g3
sg27
S'1159'
p211
sg29
S'222'
p212
sg31
S'440'
p213
sg33
S'238'
p214
sg35
S'31'
p215
sg37
S'NYK'
p216
sg39
S'81'
p217
sg41
g3
sg42
S'559'
p218
sg44
S'343'
p219
sg46
S'1159'
p220
sg48
g3
sg49
S'1967-68'
p221
sg51
S'559'
p222
sg53
g3
sg54
S'.482'
p223
sg56
S'2488'
p224
sg58
g3
sba(isrc.gp1.models.Totals
Totals
p225
(dp226
g8
g3
sg9
g3
sg10
S'.463'
p227
sg12
S'291'
p228
sg14
g3
sg15
g3
sg16
S'1442'
p229
sg18
S'SG'
p230
sg20
S'.774'
p231
sg22
S'.463'
p232
sg24
S'NBA'
p233
sg26
g3
sg27
S'1220'
p234
sg29
S'239'
p235
sg31
S'403'
p236
sg33
S'251'
p237
sg35
S'32'
p238
sg37
S'NYK'
p239
sg39
S'82'
p240
sg41
g3
sg42
S'565'
p241
sg44
S'312'
p242
sg46
S'1220'
p243
sg48
g3
sg49
S'1968-69'
p244
sg51
S'565'
p245
sg53
g3
sg54
S'.463'
p246
sg56
S'2953'
p247
sg58
g3
sba(isrc.gp1.models.Totals
Totals
p248
(dp249
g8
g3
sg9
g3
sg10
S'.475'
p250
sg12
S'298'
p251
sg14
g3
sg15
g3
sg16
S'1220'
p252
sg18
S'SG'
p253
sg20
S'.714'
p254
sg22
S'.475'
p255
sg24
S'NBA'
p256
sg26
g3
sg27
S'1039'
p257
sg29
S'220'
p258
sg31
S'325'
p259
sg33
S'221'
p260
sg35
S'33'
p261
sg37
S'NYK'
p262
sg39
S'82'
p263
sg41
g3
sg42
S'494'
p264
sg44
S'232'
p265
sg46
S'1039'
p266
sg48
g3
sg49
S'1969-70'
p267
sg51
S'494'
p268
sg53
g3
sg54
S'.475'
p269
sg56
S'2772'
p270
sg58
g3
sba(isrc.gp1.models.Totals
Totals
p271
(dp272
g8
g3
sg9
g3
sg10
S'.456'
p273
sg12
S'225'
p274
sg14
g3
sg15
g3
sg16
S'1273'
p275
sg18
S'SG'
p276
sg20
S'.694'
p277
sg22
S'.456'
p278
sg24
S'NBA'
p279
sg26
g3
sg27
S'1184'
p280
sg29
S'232'
p281
sg31
S'278'
p282
sg33
S'238'
p283
sg35
S'34'
p284
sg37
S'NYK'
p285
sg39
S'82'
p286
sg41
g3
sg42
S'540'
p287
sg44
S'193'
p288
sg46
S'1184'
p289
sg48
g3
sg49
S'1970-71'
p290
sg51
S'540'
p291
sg53
g3
sg54
S'.456'
p292
sg56
S'2843'
p293
sg58
g3
sba(isrc.gp1.models.Totals
Totals
p294
(dp295
g8
g3
sg9
g3
sg10
S'.437'
p296
sg12
S'198'
p297
sg14
g3
sg15
g3
sg16
S'964'
p298
sg18
S'SG'
p299
sg20
S'.753'
p300
sg22
S'.437'
p301
sg24
S'NBA'
p302
sg26
g3
sg27
S'918'
p303
sg29
S'229'
p304
sg31
S'215'
p305
sg33
S'153'
p306
sg35
S'35'
p307
sg37
S'NYK'
p308
sg39
S'79'
p309
sg41
g3
sg42
S'401'
p310
sg44
S'162'
p311
sg46
S'918'
p312
sg48
g3
sg49
S'1971-72'
p313
sg51
S'401'
p314
sg53
g3
sg54
S'.437'
p315
sg56
S'2256'
p316
sg58
g3
sba(isrc.gp1.models.Totals
Totals
p317
(dp318
g8
g3
sg9
g3
sg10
S'.389'
p319
sg12
S'50'
p320
sg14
g3
sg15
g3
sg16
S'192'
p321
sg18
S'SG'
p322
sg20
S'.533'
p323
sg22
S'.389'
p324
sg24
S'NBA'
p325
sg26
g3
sg27
S'226'
p326
sg29
S'52'
p327
sg31
S'30'
p328
sg33
S'41'
p329
sg35
S'36'
p330
sg37
S'NYK'
p331
sg39
S'51'
p332
sg41
g3
sg42
S'88'
p333
sg44
S'16'
p334
sg46
S'226'
p335
sg48
g3
sg49
S'1972-73'
p336
sg51
S'88'
p337
sg53
g3
sg54
S'.389'
p338
sg56
S'514'
p339
sg58
g3
sba(isrc.gp1.models.Totals
Totals
p340
(dp341
g8
S'1'
p342
sg9
g3
sg10
S'.385'
p343
sg12
S'6'
p344
sg14
g3
sg15
g3
sg16
S'22'
p345
sg18
S'SG'
p346
sg20
S'.667'
p347
sg22
S'.385'
p348
sg24
S'NBA'
p349
sg26
g342
sg27
S'26'
p350
sg29
S'2'
p351
sg31
S'3'
p352
sg33
S'4'
p353
sg35
S'37'
p354
sg37
S'NYK'
p355
sg39
S'5'
p356
sg41
S'0'
p357
sg42
S'10'
p358
sg44
g351
sg46
S'26'
p359
sg48
g352
sg49
S'1973-74'
p360
sg51
S'10'
p361
sg53
g3
sg54
S'.385'
p362
sg56
S'58'
p363
sg58
g3
sbasS'_college'
p364
S'Tennessee State University'
p365
sS'_toYear'
p366
S'1974'
p367
sS'_height'
p368
S'6-4'
p369
sS'_active'
p370
I00
sS'_shootingHand'
p371
VLeft
p372
sS'_name'
p373
S'Dick Barnett'
p374
sS'_per100Possessions'
p375
(lp376
(isrc.gp1.models.Per100Possession
Per100Possession
p377
(dp378
g8
S'0.8'
p379
sg9
g3
sg10
S'.385'
p380
sS'_offensiveRating'
p381
g3
sg12
S'4.8'
p382
sg14
g3
sg15
g3
sg16
S'17.6'
p383
sg18
S'SG'
p384
sS'_defensiveRating'
p385
S'99'
p386
sg20
S'.667'
p387
sg24
S'NBA'
p388
sg26
S'0.8'
p389
sg27
S'20.8'
p390
sg29
S'1.6'
p391
sg31
S'2.4'
p392
sg33
S'3.2'
p393
sg35
S'37'
p394
sg37
S'NYK'
p395
sg39
g356
sg41
S'0.0'
p396
sg42
S'8.0'
p397
sg44
S'1.6'
p398
sg46
S'20.8'
p399
sg48
S'2.4'
p400
sg49
S'1973-74'
p401
sg51
S'8.0'
p402
sg53
g3
sg54
S'.385'
p403
sg56
S'58'
p404
sg58
g3
sbasS'_advanced'
p405
(lp406
(isrc.gp1.models.Advanced
Advanced
p407
(dp408
S'_offensiveReboundPercentage'
p409
g3
sS'_turnOverPercentage'
p410
g3
sS'_winSharesPer48Minutes'
p411
S'.084'
p412
sS'_stealPercentage'
p413
g3
sS'_usagePercentage'
p414
g3
sS'_totalReboundsPercentage'
p415
g3
sS'_defensiveBoxPlusMinus'
p416
g3
sg18
S'SG'
p417
sS'_valueOverReplacementPlayer'
p418
g3
sS'_trueShootingPercentage'
p419
S'.452'
p420
sS'_defensiveReboundPercentage'
p421
g3
sS'_freeThrowsAttempRate'
p422
S'.257'
p423
sS'_threePointsAttempRate'
p424
g3
sg24
S'NBA'
p425
sS'_offensiveBoxPlusMinues'
p426
g3
sS'_assistPercentage'
p427
g3
sS'_defensiveWinShares'
p428
S'1.1'
p429
sg35
S'23'
p430
sg37
S'SYR'
p431
sg39
S'57'
p432
sS'_blockPercentage'
p433
g3
sS'_playerEfficiencyRating'
p434
S'15.1'
p435
sS'_offensiveWinShares'
p436
S'1.1'
p437
sg56
S'1235'
p438
sS'_boxPlusMinus'
p439
g3
sg49
S'1959-60'
p440
sS'_winShares'
p441
S'2.2'
p442
sba(isrc.gp1.models.Advanced
Advanced
p443
(dp444
g409
g3
sg410
g3
sg411
S'.135'
p445
sg413
g3
sg414
g3
sg415
g3
sg416
g3
sg18
S'SG'
p446
sg418
g3
sg419
S'.492'
p447
sg421
g3
sg422
S'.282'
p448
sg424
g3
sg24
S'NBA'
p449
sg426
g3
sg427
g3
sg428
S'1.7'
p450
sg35
S'24'
p451
sg37
S'SYR'
p452
sg39
S'78'
p453
sg433
g3
sg434
S'17.1'
p454
sg436
S'4.1'
p455
sg56
S'2070'
p456
sg439
g3
sg49
S'1960-61'
p457
sg441
S'5.8'
p458
sba(isrc.gp1.models.Advanced
Advanced
p459
(dp460
g409
g3
sg410
g3
sg411
S'.150'
p461
sg413
g3
sg414
g3
sg415
g3
sg416
g3
sg18
S'SG'
p462
sg418
g3
sg419
S'.533'
p463
sg421
g3
sg422
S'.362'
p464
sg424
g3
sg24
S'NBA'
p465
sg426
g3
sg427
g3
sg428
S'2.1'
p466
sg35
S'26'
p467
sg37
S'LAL'
p468
sg39
S'80'
p469
sg433
g3
sg434
S'16.3'
p470
sg436
S'5.9'
p471
sg56
S'2544'
p472
sg439
g3
sg49
S'1962-63'
p473
sg441
S'8.0'
p474
sba(isrc.gp1.models.Advanced
Advanced
p475
(dp476
g409
g3
sg410
g3
sg411
S'.119'
p477
sg413
g3
sg414
g3
sg415
g3
sg416
g3
sg18
S'SG'
p478
sg418
g3
sg419
S'.513'
p479
sg421
g3
sg422
S'.379'
p480
sg424
g3
sg24
S'NBA'
p481
sg426
g3
sg427
g3
sg428
S'1.2'
p482
sg35
S'27'
p483
sg37
S'LAL'
p484
sg39
S'78'
p485
sg433
g3
sg434
S'15.7'
p486
sg436
S'5.3'
p487
sg56
S'2620'
p488
sg439
g3
sg49
S'1963-64'
p489
sg441
S'6.5'
p490
sba(isrc.gp1.models.Advanced
Advanced
p491
(dp492
g409
g3
sg410
g3
sg411
S'.081'
p493
sg413
g3
sg414
g3
sg415
g3
sg416
g3
sg18
S'SG'
p494
sg418
g3
sg419
S'.483'
p495
sg421
g3
sg422
S'.372'
p496
sg424
g3
sg24
S'NBA'
p497
sg426
g3
sg427
S'11.6'
p498
sg428
S'0.9'
p499
sg35
S'28'
p500
sg37
S'LAL'
p501
sg39
S'74'
p502
sg433
g3
sg434
S'13.3'
p503
sg436
S'2.5'
p504
sg56
S'2026'
p505
sg439
g3
sg49
S'1964-65'
p506
sg441
S'3.4'
p507
sba(isrc.gp1.models.Advanced
Advanced
p508
(dp509
g409
g3
sg410
g3
sg411
S'.149'
p510
sg413
g3
sg414
g3
sg415
g3
sg416
g3
sg18
S'SG'
p511
sg418
g3
sg419
S'.537'
p512
sg421
g3
sg422
S'.450'
p513
sg424
g3
sg24
S'NBA'
p514
sg426
g3
sg427
S'14.7'
p515
sg428
S'0.5'
p516
sg35
S'29'
p517
sg37
S'NYK'
p518
sg39
S'75'
p519
sg433
g3
sg434
S'18.4'
p520
sg436
S'7.5'
p521
sg56
S'2589'
p522
sg439
g3
sg49
S'1965-66'
p523
sg441
S'8.0'
p524
sba(isrc.gp1.models.Advanced
Advanced
p525
(dp526
g409
g3
sg410
g3
sg411
S'.114'
p527
sg413
g3
sg414
g3
sg415
g3
sg416
g3
sg18
S'SG'
p528
sg418
g3
sg419
S'.528'
p529
sg421
g3
sg422
S'.311'
p530
sg424
g3
sg24
S'NBA'
p531
sg426
g3
sg427
S'11.6'
p532
sg428
S'0.5'
p533
sg35
S'30'
p534
sg37
S'NYK'
p535
sg39
S'67'
p536
sg433
g3
sg434
S'15.6'
p537
sg436
S'4.2'
p538
sg56
S'1969'
p539
sg439
g3
sg49
S'1966-67'
p540
sg441
S'4.7'
p541
sba(isrc.gp1.models.Advanced
Advanced
p542
(dp543
g409
g3
sg410
g3
sg411
S'.149'
p544
sg413
g3
sg414
g3
sg415
g3
sg416
g3
sg18
S'SG'
p545
sg418
g3
sg419
S'.540'
p546
sg421
g3
sg422
S'.380'
p547
sg424
g3
sg24
S'NBA'
p548
sg426
g3
sg427
S'13.9'
p549
sg428
S'1.8'
p550
sg35
S'31'
p551
sg37
S'NYK'
p552
sg39
S'81'
p553
sg433
g3
sg434
S'16.4'
p554
sg436
S'6.0'
p555
sg56
S'2488'
p556
sg439
g3
sg49
S'1967-68'
p557
sg441
S'7.7'
p558
sba(isrc.gp1.models.Advanced
Advanced
p559
(dp560
g409
g3
sg410
g3
sg411
S'.126'
p561
sg413
g3
sg414
g3
sg415
g3
sg416
g3
sg18
S'SG'
p562
sg418
g3
sg419
S'.516'
p563
sg421
g3
sg422
S'.330'
p564
sg424
g3
sg24
S'NBA'
p565
sg426
g3
sg427
S'13.7'
p566
sg428
S'2.6'
p567
sg35
S'32'
p568
sg37
S'NYK'
p569
sg39
S'82'
p570
sg433
g3
sg434
S'14.3'
p571
sg436
S'5.2'
p572
sg56
S'2953'
p573
sg439
g3
sg49
S'1968-69'
p574
sg441
S'7.8'
p575
sba(isrc.gp1.models.Advanced
Advanced
p576
(dp577
g409
g3
sg410
g3
sg411
S'.117'
p578
sg413
g3
sg414
g3
sg415
g3
sg416
g3
sg18
S'SG'
p579
sg418
g3
sg419
S'.516'
p580
sg421
g3
sg422
S'.313'
p581
sg424
g3
sg24
S'NBA'
p582
sg426
g3
sg427
S'13.7'
p583
sg428
S'3.7'
p584
sg35
S'33'
p585
sg37
S'NYK'
p586
sg39
S'82'
p587
sg433
g3
sg434
S'12.9'
p588
sg436
S'3.1'
p589
sg56
S'2772'
p590
sg439
g3
sg49
S'1969-70'
p591
sg441
S'6.8'
p592
sba(isrc.gp1.models.Advanced
Advanced
p593
(dp594
g409
g3
sg410
g3
sg411
S'.093'
p595
sg413
g3
sg414
g3
sg415
S'3.8'
p596
sg416
g3
sg18
S'SG'
p597
sg418
g3
sg419
S'.487'
p598
sg421
g3
sg422
S'.235'
p599
sg424
g3
sg24
S'NBA'
p600
sg426
g3
sg427
S'10.8'
p601
sg428
S'3.5'
p602
sg35
S'34'
p603
sg37
S'NYK'
p604
sg39
S'82'
p605
sg433
g3
sg434
S'12.3'
p606
sg436
S'2.0'
p607
sg56
S'2843'
p608
sg439
g3
sg49
S'1970-71'
p609
sg441
S'5.5'
p610
sba(isrc.gp1.models.Advanced
Advanced
p611
(dp612
g409
g3
sg410
g3
sg411
S'.055'
p613
sg413
g3
sg414
g3
sg415
S'3.3'
p614
sg416
g3
sg18
S'SG'
p615
sg418
g3
sg419
S'.476'
p616
sg421
g3
sg422
S'.234'
p617
sg424
g3
sg24
S'NBA'
p618
sg426
g3
sg427
S'12.3'
p619
sg428
S'1.9'
p620
sg35
S'35'
p621
sg37
S'NYK'
p622
sg39
S'79'
p623
sg433
g3
sg434
S'10.9'
p624
sg436
S'0.7'
p625
sg56
S'2256'
p626
sg439
g3
sg49
S'1971-72'
p627
sg441
S'2.6'
p628
sba(isrc.gp1.models.Advanced
Advanced
p629
(dp630
g409
g3
sg410
g3
sg411
S'-0.022'
p631
sg413
g3
sg414
g3
sg415
S'3.9'
p632
sg416
g3
sg18
S'SG'
p633
sg418
g3
sg419
S'.401'
p634
sg421
g3
sg422
S'.133'
p635
sg424
g3
sg24
S'NBA'
p636
sg426
g3
sg427
S'13.0'
p637
sg428
S'0.6'
p638
sg35
S'36'
p639
sg37
S'NYK'
p640
sg39
S'51'
p641
sg433
g3
sg434
S'8.1'
p642
sg436
S'-0.8'
p643
sg56
S'514'
p644
sg439
g3
sg49
S'1972-73'
p645
sg441
S'-0.2'
p646
sba(isrc.gp1.models.Advanced
Advanced
p647
(dp648
g409
S'1.8'
p649
sg410
g3
sg411
S'.005'
p650
sg413
S'0.8'
p651
sg414
g3
sg415
S'3.6'
p652
sg416
S'-3.0'
p653
sg18
S'SG'
p654
sg418
S'-0.1'
p655
sg419
S'.403'
p656
sg421
S'5.4'
p657
sg422
S'.115'
p658
sg424
g3
sg24
S'NBA'
p659
sg426
S'-5.2'
p660
sg427
S'14.6'
p661
sg428
S'0.0'
p662
sg35
S'37'
p663
sg37
S'NYK'
p664
sg39
g356
sg433
S'0.0'
p665
sg434
S'9.4'
p666
sg436
S'0.0'
p667
sg56
S'58'
p668
sg439
S'-8.2'
p669
sg49
S'1973-74'
p670
sg441
S'0.0'
p671
sbasS'_per36Minutes'
p672
(lp673
(isrc.gp1.models.Per36Minutes
Per36Minutes
p674
(dp675
g8
g3
sg9
g3
sg10
S'.412'
p676
sg12
S'4.7'
p677
sg14
g3
sg15
g3
sg16
S'20.6'
p678
sg18
S'SG'
p679
sg20
S'.711'
p680
sg24
S'NBA'
p681
sg26
g3
sg27
S'20.4'
p682
sg29
S'2.9'
p683
sg31
S'5.2'
p684
sg33
S'4.5'
p685
sg35
S'23'
p686
sg37
S'SYR'
p687
sg39
S'57'
p688
sg41
g3
sg42
S'8.4'
p689
sg44
S'3.7'
p690
sg46
S'20.4'
p691
sg48
g3
sg49
S'1959-60'
p692
sg51
S'8.4'
p693
sg53
g3
sg54
S'.412'
p694
sg56
S'1235'
p695
sg58
g3
sba(isrc.gp1.models.Per36Minutes
Per36Minutes
p696
(dp697
g8
g3
sg9
g3
sg10
S'.452'
p698
sg12
S'3.8'
p699
sg14
g3
sg15
g3
sg16
S'23.0'
p700
sg18
S'SG'
p701
sg20
S'.712'
p702
sg24
S'NBA'
p703
sg26
g3
sg27
S'20.8'
p704
sg29
S'2.9'
p705
sg31
S'5.9'
p706
sg33
S'4.9'
p707
sg35
S'24'
p708
sg37
S'SYR'
p709
sg39
S'78'
p710
sg41
g3
sg42
S'9.4'
p711
sg44
S'4.2'
p712
sg46
S'20.8'
p713
sg48
g3
sg49
S'1960-61'
p714
sg51
S'9.4'
p715
sg53
g3
sg54
S'.452'
p716
sg56
S'2070'
p717
sg58
g3
sba(isrc.gp1.models.Per36Minutes
Per36Minutes
p718
(dp719
g8
g3
sg9
g3
sg10
S'.471'
p720
sg12
S'3.2'
p721
sg14
g3
sg15
g3
sg16
S'20.3'
p722
sg18
S'SG'
p723
sg20
S'.815'
p724
sg24
S'NBA'
p725
sg26
g3
sg27
S'16.4'
p726
sg29
S'2.7'
p727
sg31
S'6.0'
p728
sg33
S'3.4'
p729
sg35
S'26'
p730
sg37
S'LAL'
p731
sg39
S'80'
p732
sg41
g3
sg42
S'7.7'
p733
sg44
S'4.9'
p734
sg46
S'16.4'
p735
sg48
g3
sg49
S'1962-63'
p736
sg51
S'7.7'
p737
sg53
g3
sg54
S'.471'
p738
sg56
S'2544'
p739
sg58
g3
sba(isrc.gp1.models.Per36Minutes
Per36Minutes
p740
(dp741
g8
g3
sg9
g3
sg10
S'.452'
p742
sg12
S'3.3'
p743
sg14
g3
sg15
g3
sg16
S'19.7'
p744
sg18
S'SG'
p745
sg20
S'.773'
p746
sg24
S'NBA'
p747
sg26
g3
sg27
S'16.4'
p748
sg29
S'3.2'
p749
sg31
S'6.2'
p750
sg33
S'3.4'
p751
sg35
S'27'
p752
sg37
S'LAL'
p753
sg39
S'78'
p754
sg41
g3
sg42
S'7.4'
p755
sg44
S'4.8'
p756
sg46
S'16.4'
p757
sg48
g3
sg49
S'1963-64'
p758
sg51
S'7.4'
p759
sg53
g3
sg54
S'.452'
p760
sg56
S'2620'
p761
sg58
g3
sba(isrc.gp1.models.Per36Minutes
Per36Minutes
p762
(dp763
g8
g3
sg9
g3
sg10
S'.413'
p764
sg12
S'2.8'
p765
sg14
g3
sg15
g3
sg16
S'18.1'
p766
sg18
S'SG'
p767
sg20
S'.799'
p768
sg24
S'NBA'
p769
sg26
g3
sg27
S'16.1'
p770
sg29
S'3.7'
p771
sg31
S'6.0'
p772
sg33
S'3.6'
p773
sg35
S'28'
p774
sg37
S'LAL'
p775
sg39
S'74'
p776
sg41
g3
sg42
S'6.7'
p777
sg44
S'4.8'
p778
sg46
S'16.1'
p779
sg48
g3
sg49
S'1964-65'
p780
sg51
S'6.7'
p781
sg53
g3
sg54
S'.413'
p782
sg56
S'2026'
p783
sg58
g3
sba(isrc.gp1.models.Per36Minutes
Per36Minutes
p784
(dp785
g8
g3
sg9
g3
sg10
S'.469'
p786
sg12
S'3.6'
p787
sg14
g3
sg15
g3
sg16
S'24.0'
p788
sg18
S'SG'
p789
sg20
S'.772'
p790
sg24
S'NBA'
p791
sg26
g3
sg27
S'18.7'
p792
sg29
S'3.3'
p793
sg31
S'8.4'
p794
sg33
S'4.3'
p795
sg35
S'29'
p796
sg37
S'NYK'
p797
sg39
S'75'
p798
sg41
g3
sg42
S'8.8'
p799
sg44
S'6.5'
p800
sg46
S'18.7'
p801
sg48
g3
sg49
S'1965-66'
p802
sg51
S'8.8'
p803
sg53
g3
sg54
S'.469'
p804
sg56
S'2589'
p805
sg58
g3
sba(isrc.gp1.models.Per36Minutes
Per36Minutes
p806
(dp807
g8
g3
sg9
g3
sg10
S'.478'
p808
sg12
S'2.9'
p809
sg14
g3
sg15
g3
sg16
S'20.8'
p810
sg18
S'SG'
p811
sg20
S'.783'
p812
sg24
S'NBA'
p813
sg26
g3
sg27
S'17.4'
p814
sg29
S'3.4'
p815
sg31
S'5.4'
p816
sg33
S'4.1'
p817
sg35
S'30'
p818
sg37
S'NYK'
p819
sg39
S'67'
p820
sg41
g3
sg42
S'8.3'
p821
sg44
S'4.2'
p822
sg46
S'17.4'
p823
sg48
g3
sg49
S'1966-67'
p824
sg51
S'8.3'
p825
sg53
g3
sg54
S'.478'
p826
sg56
S'1969'
p827
sg58
g3
sba(isrc.gp1.models.Per36Minutes
Per36Minutes
p828
(dp829
g8
g3
sg9
g3
sg10
S'.482'
p830
sg12
S'3.5'
p831
sg14
g3
sg15
g3
sg16
S'21.1'
p832
sg18
S'SG'
p833
sg20
S'.780'
p834
sg24
S'NBA'
p835
sg26
g3
sg27
S'16.8'
p836
sg29
S'3.2'
p837
sg31
S'6.4'
p838
sg33
S'3.4'
p839
sg35
S'31'
p840
sg37
S'NYK'
p841
sg39
S'81'
p842
sg41
g3
sg42
S'8.1'
p843
sg44
S'5.0'
p844
sg46
S'16.8'
p845
sg48
g3
sg49
S'1967-68'
p846
sg51
S'8.1'
p847
sg53
g3
sg54
S'.482'
p848
sg56
S'2488'
p849
sg58
g3
sba(isrc.gp1.models.Per36Minutes
Per36Minutes
p850
(dp851
g8
g3
sg9
g3
sg10
S'.463'
p852
sg12
S'3.5'
p853
sg14
g3
sg15
g3
sg16
S'17.6'
p854
sg18
S'SG'
p855
sg20
S'.774'
p856
sg24
S'NBA'
p857
sg26
g3
sg27
S'14.9'
p858
sg29
S'2.9'
p859
sg31
S'4.9'
p860
sg33
S'3.1'
p861
sg35
S'32'
p862
sg37
S'NYK'
p863
sg39
S'82'
p864
sg41
g3
sg42
S'6.9'
p865
sg44
S'3.8'
p866
sg46
S'14.9'
p867
sg48
g3
sg49
S'1968-69'
p868
sg51
S'6.9'
p869
sg53
g3
sg54
S'.463'
p870
sg56
S'2953'
p871
sg58
g3
sba(isrc.gp1.models.Per36Minutes
Per36Minutes
p872
(dp873
g8
g3
sg9
g3
sg10
S'.475'
p874
sg12
S'3.9'
p875
sg14
g3
sg15
g3
sg16
S'15.8'
p876
sg18
S'SG'
p877
sg20
S'.714'
p878
sg24
S'NBA'
p879
sg26
g3
sg27
S'13.5'
p880
sg29
S'2.9'
p881
sg31
S'4.2'
p882
sg33
S'2.9'
p883
sg35
S'33'
p884
sg37
S'NYK'
p885
sg39
S'82'
p886
sg41
g3
sg42
S'6.4'
p887
sg44
S'3.0'
p888
sg46
S'13.5'
p889
sg48
g3
sg49
S'1969-70'
p890
sg51
S'6.4'
p891
sg53
g3
sg54
S'.475'
p892
sg56
S'2772'
p893
sg58
g3
sba(isrc.gp1.models.Per36Minutes
Per36Minutes
p894
(dp895
g8
g3
sg9
g3
sg10
S'.456'
p896
sg12
S'2.8'
p897
sg14
g3
sg15
g3
sg16
S'16.1'
p898
sg18
S'SG'
p899
sg20
S'.694'
p900
sg24
S'NBA'
p901
sg26
g3
sg27
S'15.0'
p902
sg29
S'2.9'
p903
sg31
S'3.5'
p904
sg33
S'3.0'
p905
sg35
S'34'
p906
sg37
S'NYK'
p907
sg39
S'82'
p908
sg41
g3
sg42
S'6.8'
p909
sg44
S'2.4'
p910
sg46
S'15.0'
p911
sg48
g3
sg49
S'1970-71'
p912
sg51
S'6.8'
p913
sg53
g3
sg54
S'.456'
p914
sg56
S'2843'
p915
sg58
g3
sba(isrc.gp1.models.Per36Minutes
Per36Minutes
p916
(dp917
g8
g3
sg9
g3
sg10
S'.437'
p918
sg12
S'3.2'
p919
sg14
g3
sg15
g3
sg16
S'15.4'
p920
sg18
S'SG'
p921
sg20
S'.753'
p922
sg24
S'NBA'
p923
sg26
g3
sg27
S'14.6'
p924
sg29
S'3.7'
p925
sg31
S'3.4'
p926
sg33
S'2.4'
p927
sg35
S'35'
p928
sg37
S'NYK'
p929
sg39
S'79'
p930
sg41
g3
sg42
S'6.4'
p931
sg44
S'2.6'
p932
sg46
S'14.6'
p933
sg48
g3
sg49
S'1971-72'
p934
sg51
S'6.4'
p935
sg53
g3
sg54
S'.437'
p936
sg56
S'2256'
p937
sg58
g3
sba(isrc.gp1.models.Per36Minutes
Per36Minutes
p938
(dp939
g8
g3
sg9
g3
sg10
S'.389'
p940
sg12
S'3.5'
p941
sg14
g3
sg15
g3
sg16
S'13.4'
p942
sg18
S'SG'
p943
sg20
S'.533'
p944
sg24
S'NBA'
p945
sg26
g3
sg27
S'15.8'
p946
sg29
S'3.6'
p947
sg31
S'2.1'
p948
sg33
S'2.9'
p949
sg35
S'36'
p950
sg37
S'NYK'
p951
sg39
S'51'
p952
sg41
g3
sg42
S'6.2'
p953
sg44
S'1.1'
p954
sg46
S'15.8'
p955
sg48
g3
sg49
S'1972-73'
p956
sg51
S'6.2'
p957
sg53
g3
sg54
S'.389'
p958
sg56
S'514'
p959
sg58
g3
sba(isrc.gp1.models.Per36Minutes
Per36Minutes
p960
(dp961
g8
S'0.6'
p962
sg9
g3
sg10
S'.385'
p963
sg12
S'3.7'
p964
sg14
g3
sg15
g3
sg16
S'13.7'
p965
sg18
S'SG'
p966
sg20
S'.667'
p967
sg24
S'NBA'
p968
sg26
S'0.6'
p969
sg27
S'16.1'
p970
sg29
S'1.2'
p971
sg31
S'1.9'
p972
sg33
S'2.5'
p973
sg35
S'37'
p974
sg37
S'NYK'
p975
sg39
g356
sg41
S'0.0'
p976
sg42
S'6.2'
p977
sg44
S'1.2'
p978
sg46
S'16.1'
p979
sg48
S'1.9'
p980
sg49
S'1973-74'
p981
sg51
S'6.2'
p982
sg53
g3
sg54
S'.385'
p983
sg56
S'58'
p984
sg58
g3
sbasS'_fromYear'
p985
S'1960'
p986
sS'_url'
p987
S'http://www.basketball-reference.com/players/b/barnedi01.html'
p988
sS'_perGame'
p989
(isrc.gp1.models.PerGame
PerGame
p990
(dp991
g8
S'0.2'
p992
sg9
g3
sg10
S'.385'
p993
sS'_effectiveFieldGalPercentage'
p994
S'.385'
p995
sg12
S'1.2'
p996
sg14
g3
sg15
g3
sg16
S'4.4'
p997
sg18
S'SG'
p998
sg20
S'.667'
p999
sg24
S'NBA'
p1000
sg26
S'0.2'
p1001
sg29
S'0.4'
p1002
sS'_fieldGoalsttempted'
p1003
S'5.2'
p1004
sg31
S'0.6'
p1005
sg33
S'0.8'
p1006
sg35
S'37'
p1007
sg37
S'NYK'
p1008
sg39
g356
sg41
S'0.0'
p1009
sg42
S'2.0'
p1010
sg44
S'0.4'
p1011
sg46
S'5.2'
p1012
sg48
S'0.6'
p1013
sg49
S'1973-74'
p1014
sg51
S'2.0'
p1015
sg53
g3
sg54
S'.385'
p1016
sg56
S'11.6'
p1017
sg58
g3
sbsS'_weight'
p1018
S'190'
p1019
sS'_dob'
p1020
S'2-10-1936'
p1021
sS'_salary'
p1022
(lp1023
sg18
S'G-F'
p1024
sb.