(isrc.gp1.models.Player
Player
p0
(dp1
S'_experience'
p2
V3
p3
sS'_totals'
p4
(lp5
(isrc.gp1.models.Totals
Totals
p6
(dp7
S'_offensiveRebounds'
p8
S'5'
p9
sS'_threePointsAttempted'
p10
S'34'
p11
sS'_fieldGoalsPercentage'
p12
S'.371'
p13
sS'_assist'
p14
S'22'
p15
sS'_threePointsPercentage'
p16
S'.294'
p17
sS'_threePoints'
p18
S'10'
p19
sS'_points'
p20
S'123'
p21
sS'_position'
p22
S'SG'
p23
sS'_freeThrowsPercentage'
p24
S'.614'
p25
sS'_effectiveFieldGoalPercentage'
p26
S'.414'
p27
sS'_league'
p28
S'NBA'
p29
sS'_steals'
p30
S'17'
p31
sS'_fieldGoalsAttempted'
p32
S'116'
p33
sS'_personalFouls'
p34
S'27'
p35
sS'_freeThrowsAttempted'
p36
S'44'
p37
sS'_totalRebounds'
p38
S'22'
p39
sS'_age'
p40
S'23'
p41
sS'_team'
p42
S'GSW'
p43
sS'_games'
p44
S'61'
p45
sS'_blocks'
p46
S'4'
p47
sS'_twoPoints'
p48
S'33'
p49
sS'_freeThrows'
p50
S'27'
p51
sS'_twoPointsAttempted'
p52
S'82'
p53
sS'_defensiveRebounds'
p54
S'17'
p55
sS'_season'
p56
S'2012-13'
p57
sS'_fieldGoals'
p58
S'43'
p59
sS'_turnOvers'
p60
S'18'
p61
sS'_twoPointsPercentage'
p62
S'.402'
p63
sS'_minutesPlayed'
p64
S'267'
p65
sS'_gamesStarted'
p66
S'0'
p67
sba(isrc.gp1.models.Totals
Totals
p68
(dp69
g8
S'10'
p70
sg10
S'128'
p71
sg12
S'.429'
p72
sg14
S'91'
p73
sg16
S'.336'
p74
sg18
S'43'
p75
sg20
S'403'
p76
sg22
S'SG'
p77
sg24
S'.606'
p78
sg26
S'.491'
p79
sg28
S'NBA'
p80
sg30
S'43'
p81
sg32
S'343'
p82
sg34
S'102'
p83
sg36
S'109'
p84
sg38
S'117'
p85
sg40
S'24'
p86
sg42
S'TOT'
p87
sg44
S'67'
p88
sg46
S'13'
p89
sg48
S'104'
p90
sg50
S'66'
p91
sg52
S'215'
p92
sg54
S'107'
p93
sg56
S'2013-14'
p94
sg58
S'147'
p95
sg60
S'79'
p96
sg62
S'.484'
p97
sg64
S'911'
p98
sg66
S'15'
p99
sba(isrc.gp1.models.Totals
Totals
p100
(dp101
g8
g9
sg10
S'39'
p102
sg12
S'.371'
p103
sg14
S'20'
p104
sg16
S'.256'
p105
sg18
S'10'
p106
sg20
S'101'
p107
sg22
S'SG'
p108
sg24
S'.528'
p109
sg26
S'.423'
p110
sg28
S'NBA'
p111
sg30
S'12'
p112
sg32
S'97'
p113
sg34
S'42'
p114
sg36
S'36'
p115
sg38
S'40'
p116
sg40
S'24'
p117
sg42
S'GSW'
p118
sg44
S'44'
p119
sg46
S'6'
p120
sg48
S'26'
p121
sg50
S'19'
p122
sg52
S'58'
p123
sg54
S'35'
p124
sg56
S'2013-14'
p125
sg58
S'36'
p126
sg60
S'28'
p127
sg62
S'.448'
p128
sg64
S'268'
p129
sg66
g67
sba(isrc.gp1.models.Totals
Totals
p130
(dp131
g8
g9
sg10
S'89'
p132
sg12
S'.451'
p133
sg14
S'71'
p134
sg16
S'.371'
p135
sg18
S'33'
p136
sg20
S'302'
p137
sg22
S'SG'
p138
sg24
S'.644'
p139
sg26
S'.518'
p140
sg28
S'NBA'
p141
sg30
S'31'
p142
sg32
S'246'
p143
sg34
S'60'
p144
sg36
S'73'
p145
sg38
S'77'
p146
sg40
S'24'
p147
sg42
S'LAL'
p148
sg44
S'23'
p149
sg46
S'7'
p150
sg48
S'78'
p151
sg50
S'47'
p152
sg52
S'157'
p153
sg54
S'72'
p154
sg56
S'2013-14'
p155
sg58
S'111'
p156
sg60
S'51'
p157
sg62
S'.497'
p158
sg64
S'643'
p159
sg66
S'15'
p160
sba(isrc.gp1.models.Totals
Totals
p161
(dp162
g8
S'21'
p163
sg10
S'132'
p164
sg12
S'.426'
p165
sg14
S'78'
p166
sg16
S'.364'
p167
sg18
S'48'
p168
sg20
S'390'
p169
sg22
S'SG'
p170
sg24
S'.600'
p171
sg26
S'.498'
p172
sg28
S'NBA'
p173
sg30
S'52'
p174
sg32
S'331'
p175
sg34
S'127'
p176
sg36
S'100'
p177
sg38
S'222'
p178
sg40
S'25'
p179
sg42
S'ATL'
p180
sg44
S'75'
p181
sg46
S'33'
p182
sg48
S'93'
p183
sg50
S'60'
p184
sg52
S'199'
p185
sg54
S'201'
p186
sg56
S'2014-15'
p187
sg58
S'141'
p188
sg60
S'73'
p189
sg62
S'.467'
p190
sg64
S'1324'
p191
sg66
S'10'
p192
sba(isrc.gp1.models.Totals
Totals
p193
(dp194
g8
S'11'
p195
sg10
S'188'
p196
sg12
S'.458'
p197
sg14
S'106'
p198
sg16
S'.394'
p199
sg18
S'74'
p200
sg20
S'575'
p201
sg22
S'SF'
p202
sg24
S'.827'
p203
sg26
S'.538'
p204
sg28
S'NBA'
p205
sg30
S'57'
p206
sg32
S'459'
p207
sg34
S'105'
p208
sg36
S'98'
p209
sg38
S'220'
p210
sg40
S'26'
p211
sg42
S'ATL'
p212
sg44
S'46'
p213
sg46
S'20'
p214
sg48
S'136'
p215
sg50
S'81'
p216
sg52
S'271'
p217
sg54
S'209'
p218
sg56
S'2015-16'
p219
sg58
S'210'
p220
sg60
S'86'
p221
sg62
S'.502'
p222
sg64
S'1294'
p223
sg66
S'39'
p224
sbasS'_college'
p225
S'Old Dominion University'
p226
sS'_toYear'
p227
S'2016'
p228
sS'_height'
p229
S'6-5'
p230
sS'_active'
p231
I01
sS'_shootingHand'
p232
VLeft
p233
sS'_name'
p234
S'Kent Bazemore'
p235
sS'_per100Possessions'
p236
(lp237
(isrc.gp1.models.Per100Possession
Per100Possession
p238
(dp239
g8
S'1.0'
p240
sg10
S'6.5'
p241
sg12
S'.371'
p242
sS'_offensiveRating'
p243
S'91'
p244
sg14
S'4.2'
p245
sg16
S'.294'
p246
sg18
S'1.9'
p247
sg20
S'23.4'
p248
sg22
S'SG'
p249
sS'_defensiveRating'
p250
S'104'
p251
sg24
S'.614'
p252
sg28
S'NBA'
p253
sg30
S'3.2'
p254
sg32
S'22.1'
p255
sg34
S'5.1'
p256
sg36
S'8.4'
p257
sg38
S'4.2'
p258
sg40
S'23'
p259
sg42
S'GSW'
p260
sg44
S'61'
p261
sg46
S'0.8'
p262
sg48
S'6.3'
p263
sg50
S'5.1'
p264
sg52
S'15.6'
p265
sg54
S'3.2'
p266
sg56
S'2012-13'
p267
sg58
S'8.2'
p268
sg60
S'3.4'
p269
sg62
S'.402'
p270
sg64
S'267'
p271
sg66
g67
sba(isrc.gp1.models.Per100Possession
Per100Possession
p272
(dp273
g8
S'0.5'
p274
sg10
S'6.9'
p275
sg12
S'.429'
p276
sg243
S'93'
p277
sg14
S'4.9'
p278
sg16
S'.336'
p279
sg18
S'2.3'
p280
sg20
S'21.7'
p281
sg22
S'SG'
p282
sg250
S'108'
p283
sg24
S'.606'
p284
sg28
S'NBA'
p285
sg30
S'2.3'
p286
sg32
S'18.4'
p287
sg34
S'5.5'
p288
sg36
S'5.9'
p289
sg38
S'6.3'
p290
sg40
S'24'
p291
sg42
S'TOT'
p292
sg44
S'67'
p293
sg46
S'0.7'
p294
sg48
S'5.6'
p295
sg50
S'3.6'
p296
sg52
S'11.6'
p297
sg54
S'5.8'
p298
sg56
S'2013-14'
p299
sg58
S'7.9'
p300
sg60
S'4.2'
p301
sg62
S'.484'
p302
sg64
S'911'
p303
sg66
S'15'
p304
sba(isrc.gp1.models.Per100Possession
Per100Possession
p305
(dp306
g8
S'0.9'
p307
sg10
S'7.3'
p308
sg12
S'.371'
p309
sg243
S'81'
p310
sg14
S'3.7'
p311
sg16
S'.256'
p312
sg18
S'1.9'
p313
sg20
S'18.8'
p314
sg22
S'SG'
p315
sg250
S'101'
p316
sg24
S'.528'
p317
sg28
S'NBA'
p318
sg30
S'2.2'
p319
sg32
S'18.1'
p320
sg34
S'7.8'
p321
sg36
S'6.7'
p322
sg38
S'7.4'
p323
sg40
S'24'
p324
sg42
S'GSW'
p325
sg44
S'44'
p326
sg46
S'1.1'
p327
sg48
S'4.8'
p328
sg50
S'3.5'
p329
sg52
S'10.8'
p330
sg54
S'6.5'
p331
sg56
S'2013-14'
p332
sg58
S'6.7'
p333
sg60
S'5.2'
p334
sg62
S'.448'
p335
sg64
S'268'
p336
sg66
g67
sba(isrc.gp1.models.Per100Possession
Per100Possession
p337
(dp338
g8
S'0.4'
p339
sg10
S'6.7'
p340
sg12
S'.451'
p341
sg243
S'98'
p342
sg14
S'5.4'
p343
sg16
S'.371'
p344
sg18
S'2.5'
p345
sg20
S'22.8'
p346
sg22
S'SG'
p347
sg250
S'110'
p348
sg24
S'.644'
p349
sg28
S'NBA'
p350
sg30
S'2.3'
p351
sg32
S'18.6'
p352
sg34
S'4.5'
p353
sg36
S'5.5'
p354
sg38
S'5.8'
p355
sg40
S'24'
p356
sg42
S'LAL'
p357
sg44
S'23'
p358
sg46
S'0.5'
p359
sg48
S'5.9'
p360
sg50
S'3.6'
p361
sg52
S'11.9'
p362
sg54
S'5.4'
p363
sg56
S'2013-14'
p364
sg58
S'8.4'
p365
sg60
S'3.9'
p366
sg62
S'.497'
p367
sg64
S'643'
p368
sg66
S'15'
p369
sba(isrc.gp1.models.Per100Possession
Per100Possession
p370
(dp371
g8
S'0.8'
p372
sg10
S'5.1'
p373
sg12
S'.426'
p374
sg243
S'94'
p375
sg14
S'3.0'
p376
sg16
S'.364'
p377
sg18
S'1.9'
p378
sg20
S'15.1'
p379
sg22
S'SG'
p380
sg250
S'102'
p381
sg24
S'.600'
p382
sg28
S'NBA'
p383
sg30
S'2.0'
p384
sg32
S'12.8'
p385
sg34
S'4.9'
p386
sg36
S'3.9'
p387
sg38
S'8.6'
p388
sg40
S'25'
p389
sg42
S'ATL'
p390
sg44
S'75'
p391
sg46
S'1.3'
p392
sg48
S'3.6'
p393
sg50
S'2.3'
p394
sg52
S'7.7'
p395
sg54
S'7.8'
p396
sg56
S'2014-15'
p397
sg58
S'5.4'
p398
sg60
S'2.8'
p399
sg62
S'.467'
p400
sg64
S'1324'
p401
sg66
S'10'
p402
sba(isrc.gp1.models.Per100Possession
Per100Possession
p403
(dp404
g8
S'0.4'
p405
sg10
S'7.2'
p406
sg12
S'.458'
p407
sg243
S'102'
p408
sg14
S'4.1'
p409
sg16
S'.394'
p410
sg18
S'2.8'
p411
sg20
S'22.0'
p412
sg22
S'SF'
p413
sg250
S'102'
p414
sg24
S'.827'
p415
sg28
S'NBA'
p416
sg30
S'2.2'
p417
sg32
S'17.6'
p418
sg34
S'4.0'
p419
sg36
S'3.7'
p420
sg38
S'8.4'
p421
sg40
S'26'
p422
sg42
S'ATL'
p423
sg44
S'46'
p424
sg46
S'0.8'
p425
sg48
S'5.2'
p426
sg50
S'3.1'
p427
sg52
S'10.4'
p428
sg54
S'8.0'
p429
sg56
S'2015-16'
p430
sg58
S'8.0'
p431
sg60
S'3.3'
p432
sg62
S'.502'
p433
sg64
S'1294'
p434
sg66
S'39'
p435
sbasS'_advanced'
p436
(lp437
(isrc.gp1.models.Advanced
Advanced
p438
(dp439
S'_offensiveReboundPercentage'
p440
S'2.1'
p441
sS'_turnOverPercentage'
p442
S'11.7'
p443
sS'_winSharesPer48Minutes'
p444
S'.014'
p445
sS'_stealPercentage'
p446
S'3.2'
p447
sS'_usagePercentage'
p448
S'25.7'
p449
sS'_totalReboundsPercentage'
p450
S'4.5'
p451
sS'_defensiveBoxPlusMinus'
p452
S'-1.5'
p453
sg22
S'SG'
p454
sS'_valueOverReplacementPlayer'
p455
S'-0.2'
p456
sS'_trueShootingPercentage'
p457
S'.454'
p458
sS'_defensiveReboundPercentage'
p459
S'6.8'
p460
sS'_freeThrowsAttempRate'
p461
S'.379'
p462
sS'_threePointsAttempRate'
p463
S'.293'
p464
sg28
S'NBA'
p465
sS'_offensiveBoxPlusMinues'
p466
S'-3.4'
p467
sS'_assistPercentage'
p468
S'13.1'
p469
sS'_defensiveWinShares'
p470
S'0.3'
p471
sg40
S'23'
p472
sg42
S'GSW'
p473
sg44
S'61'
p474
sS'_blockPercentage'
p475
S'1.2'
p476
sS'_playerEfficiencyRating'
p477
S'11.3'
p478
sS'_offensiveWinShares'
p479
S'-0.3'
p480
sg64
S'267'
p481
sS'_boxPlusMinus'
p482
S'-4.9'
p483
sg56
S'2012-13'
p484
sS'_winShares'
p485
S'0.1'
p486
sba(isrc.gp1.models.Advanced
Advanced
p487
(dp488
g440
S'1.2'
p489
sg442
S'16.8'
p490
sg444
S'.011'
p491
sg446
S'2.3'
p492
sg448
S'22.6'
p493
sg450
S'6.9'
p494
sg452
S'-0.4'
p495
sg22
S'SG'
p496
sg455
S'-0.1'
p497
sg457
S'.515'
p498
sg459
S'12.6'
p499
sg461
S'.318'
p500
sg463
S'.373'
p501
sg28
S'NBA'
p502
sg466
S'-2.1'
p503
sg468
S'15.7'
p504
sg470
S'0.8'
p505
sg40
S'24'
p506
sg42
S'TOT'
p507
sg44
S'67'
p508
sg475
S'1.0'
p509
sg477
S'11.2'
p510
sg479
S'-0.6'
p511
sg64
S'911'
p512
sg482
S'-2.5'
p513
sg56
S'2013-14'
p514
sg485
S'0.2'
p515
sba(isrc.gp1.models.Advanced
Advanced
p516
(dp517
g440
S'2.1'
p518
sg442
S'19.9'
p519
sg444
S'-0.034'
p520
sg446
S'2.2'
p521
sg448
S'23.1'
p522
sg450
S'8.1'
p523
sg452
S'0.3'
p524
sg22
S'SG'
p525
sg455
S'-0.3'
p526
sg457
S'.448'
p527
sg459
S'14.0'
p528
sg461
S'.371'
p529
sg463
S'.402'
p530
sg28
S'NBA'
p531
sg466
S'-6.1'
p532
sg468
S'10.9'
p533
sg470
S'0.4'
p534
sg40
S'24'
p535
sg42
S'GSW'
p536
sg44
S'44'
p537
sg475
S'1.7'
p538
sg477
S'6.2'
p539
sg479
S'-0.6'
p540
sg64
S'268'
p541
sg482
S'-5.7'
p542
sg56
S'2013-14'
p543
sg485
S'-0.2'
p544
sba(isrc.gp1.models.Advanced
Advanced
p545
(dp546
g440
S'0.8'
p547
sg442
S'15.5'
p548
sg444
S'.029'
p549
sg446
S'2.3'
p550
sg448
S'22.3'
p551
sg450
S'6.4'
p552
sg452
S'-0.7'
p553
sg22
S'SG'
p554
sg455
S'0.1'
p555
sg457
S'.543'
p556
sg459
S'12.0'
p557
sg461
S'.297'
p558
sg463
S'.362'
p559
sg28
S'NBA'
p560
sg466
S'-0.5'
p561
sg468
S'17.7'
p562
sg470
S'0.4'
p563
sg40
S'24'
p564
sg42
S'LAL'
p565
sg44
S'23'
p566
sg475
S'0.8'
p567
sg477
S'13.3'
p568
sg479
S'0.0'
p569
sg64
S'643'
p570
sg482
S'-1.2'
p571
sg56
S'2013-14'
p572
sg485
S'0.4'
p573
sba(isrc.gp1.models.Advanced
Advanced
p574
(dp575
g440
S'1.9'
p576
sg442
S'16.3'
p577
sg444
S'.057'
p578
sg446
S'2.0'
p579
sg448
S'15.5'
p580
sg450
S'9.6'
p581
sg452
S'1.3'
p582
sg22
S'SG'
p583
sg455
S'0.1'
p584
sg457
S'.520'
p585
sg459
S'16.8'
p586
sg461
S'.302'
p587
sg463
S'.399'
p588
sg28
S'NBA'
p589
sg466
S'-3.1'
p590
sg468
S'8.6'
p591
sg470
S'1.9'
p592
sg40
S'25'
p593
sg42
S'ATL'
p594
sg44
S'75'
p595
sg475
S'2.1'
p596
sg477
S'9.7'
p597
sg479
S'-0.4'
p598
sg64
S'1324'
p599
sg482
S'-1.8'
p600
sg56
S'2014-15'
p601
sg485
S'1.6'
p602
sba(isrc.gp1.models.Advanced
Advanced
p603
(dp604
g440
S'1.0'
p605
sg442
S'14.6'
p606
sg444
S'.099'
p607
sg446
S'2.2'
p608
sg448
S'20.3'
p609
sg450
S'9.5'
p610
sg452
S'0.7'
p611
sg22
S'SF'
p612
sg455
S'0.7'
p613
sg457
S'.573'
p614
sg459
S'17.7'
p615
sg461
S'.214'
p616
sg463
S'.410'
p617
sg28
S'NBA'
p618
sg466
S'-0.5'
p619
sg468
S'12.9'
p620
sg470
S'1.9'
p621
sg40
S'26'
p622
sg42
S'ATL'
p623
sg44
S'46'
p624
sg475
S'1.2'
p625
sg477
S'14.4'
p626
sg479
S'0.7'
p627
sg64
S'1294'
p628
sg482
S'0.1'
p629
sg56
S'2015-16'
p630
sg485
S'2.7'
p631
sbasS'_per36Minutes'
p632
(lp633
(isrc.gp1.models.Per36Minutes
Per36Minutes
p634
(dp635
g8
S'0.7'
p636
sg10
S'4.6'
p637
sg12
S'.371'
p638
sg14
S'3.0'
p639
sg16
S'.294'
p640
sg18
S'1.3'
p641
sg20
S'16.6'
p642
sg22
S'SG'
p643
sg24
S'.614'
p644
sg28
S'NBA'
p645
sg30
S'2.3'
p646
sg32
S'15.6'
p647
sg34
S'3.6'
p648
sg36
S'5.9'
p649
sg38
S'3.0'
p650
sg40
S'23'
p651
sg42
S'GSW'
p652
sg44
S'61'
p653
sg46
S'0.5'
p654
sg48
S'4.4'
p655
sg50
S'3.6'
p656
sg52
S'11.1'
p657
sg54
S'2.3'
p658
sg56
S'2012-13'
p659
sg58
S'5.8'
p660
sg60
S'2.4'
p661
sg62
S'.402'
p662
sg64
S'267'
p663
sg66
g67
sba(isrc.gp1.models.Per36Minutes
Per36Minutes
p664
(dp665
g8
S'0.4'
p666
sg10
S'5.1'
p667
sg12
S'.429'
p668
sg14
S'3.6'
p669
sg16
S'.336'
p670
sg18
S'1.7'
p671
sg20
S'15.9'
p672
sg22
S'SG'
p673
sg24
S'.606'
p674
sg28
S'NBA'
p675
sg30
S'1.7'
p676
sg32
S'13.6'
p677
sg34
S'4.0'
p678
sg36
S'4.3'
p679
sg38
S'4.6'
p680
sg40
S'24'
p681
sg42
S'TOT'
p682
sg44
S'67'
p683
sg46
S'0.5'
p684
sg48
S'4.1'
p685
sg50
S'2.6'
p686
sg52
S'8.5'
p687
sg54
S'4.2'
p688
sg56
S'2013-14'
p689
sg58
S'5.8'
p690
sg60
S'3.1'
p691
sg62
S'.484'
p692
sg64
S'911'
p693
sg66
S'15'
p694
sba(isrc.gp1.models.Per36Minutes
Per36Minutes
p695
(dp696
g8
S'0.7'
p697
sg10
S'5.2'
p698
sg12
S'.371'
p699
sg14
S'2.7'
p700
sg16
S'.256'
p701
sg18
S'1.3'
p702
sg20
S'13.6'
p703
sg22
S'SG'
p704
sg24
S'.528'
p705
sg28
S'NBA'
p706
sg30
S'1.6'
p707
sg32
S'13.0'
p708
sg34
S'5.6'
p709
sg36
S'4.8'
p710
sg38
S'5.4'
p711
sg40
S'24'
p712
sg42
S'GSW'
p713
sg44
S'44'
p714
sg46
S'0.8'
p715
sg48
S'3.5'
p716
sg50
S'2.6'
p717
sg52
S'7.8'
p718
sg54
S'4.7'
p719
sg56
S'2013-14'
p720
sg58
S'4.8'
p721
sg60
S'3.8'
p722
sg62
S'.448'
p723
sg64
S'268'
p724
sg66
g67
sba(isrc.gp1.models.Per36Minutes
Per36Minutes
p725
(dp726
g8
S'0.3'
p727
sg10
S'5.0'
p728
sg12
S'.451'
p729
sg14
S'4.0'
p730
sg16
S'.371'
p731
sg18
S'1.8'
p732
sg20
S'16.9'
p733
sg22
S'SG'
p734
sg24
S'.644'
p735
sg28
S'NBA'
p736
sg30
S'1.7'
p737
sg32
S'13.8'
p738
sg34
S'3.4'
p739
sg36
S'4.1'
p740
sg38
S'4.3'
p741
sg40
S'24'
p742
sg42
S'LAL'
p743
sg44
S'23'
p744
sg46
S'0.4'
p745
sg48
S'4.4'
p746
sg50
S'2.6'
p747
sg52
S'8.8'
p748
sg54
S'4.0'
p749
sg56
S'2013-14'
p750
sg58
S'6.2'
p751
sg60
S'2.9'
p752
sg62
S'.497'
p753
sg64
S'643'
p754
sg66
S'15'
p755
sba(isrc.gp1.models.Per36Minutes
Per36Minutes
p756
(dp757
g8
S'0.6'
p758
sg10
S'3.6'
p759
sg12
S'.426'
p760
sg14
S'2.1'
p761
sg16
S'.364'
p762
sg18
S'1.3'
p763
sg20
S'10.6'
p764
sg22
S'SG'
p765
sg24
S'.600'
p766
sg28
S'NBA'
p767
sg30
S'1.4'
p768
sg32
S'9.0'
p769
sg34
S'3.5'
p770
sg36
S'2.7'
p771
sg38
S'6.0'
p772
sg40
S'25'
p773
sg42
S'ATL'
p774
sg44
S'75'
p775
sg46
S'0.9'
p776
sg48
S'2.5'
p777
sg50
S'1.6'
p778
sg52
S'5.4'
p779
sg54
S'5.5'
p780
sg56
S'2014-15'
p781
sg58
S'3.8'
p782
sg60
S'2.0'
p783
sg62
S'.467'
p784
sg64
S'1324'
p785
sg66
S'10'
p786
sba(isrc.gp1.models.Per36Minutes
Per36Minutes
p787
(dp788
g8
S'0.3'
p789
sg10
S'5.2'
p790
sg12
S'.458'
p791
sg14
S'2.9'
p792
sg16
S'.394'
p793
sg18
S'2.1'
p794
sg20
S'16.0'
p795
sg22
S'SF'
p796
sg24
S'.827'
p797
sg28
S'NBA'
p798
sg30
S'1.6'
p799
sg32
S'12.8'
p800
sg34
S'2.9'
p801
sg36
S'2.7'
p802
sg38
S'6.1'
p803
sg40
S'26'
p804
sg42
S'ATL'
p805
sg44
S'46'
p806
sg46
S'0.6'
p807
sg48
S'3.8'
p808
sg50
S'2.3'
p809
sg52
S'7.5'
p810
sg54
S'5.8'
p811
sg56
S'2015-16'
p812
sg58
S'5.8'
p813
sg60
S'2.4'
p814
sg62
S'.502'
p815
sg64
S'1294'
p816
sg66
S'39'
p817
sbasS'_fromYear'
p818
S'2013'
p819
sS'_url'
p820
S'http://www.basketball-reference.com/players/b/bazemke01.html'
p821
sS'_perGame'
p822
(isrc.gp1.models.PerGame
PerGame
p823
(dp824
g8
S'0.2'
p825
sg10
S'4.1'
p826
sg12
S'.458'
p827
sS'_effectiveFieldGalPercentage'
p828
S'.538'
p829
sg14
S'2.3'
p830
sg16
S'.394'
p831
sg18
S'1.6'
p832
sg20
S'12.5'
p833
sg22
S'SF'
p834
sg24
S'.827'
p835
sg28
S'NBA'
p836
sg30
S'1.2'
p837
sg34
S'2.3'
p838
sS'_fieldGoalsttempted'
p839
S'10.0'
p840
sg36
S'2.1'
p841
sg38
S'4.8'
p842
sg40
S'26'
p843
sg42
S'ATL'
p844
sg44
S'46'
p845
sg46
S'0.4'
p846
sg48
S'3.0'
p847
sg50
S'1.8'
p848
sg52
S'5.9'
p849
sg54
S'4.5'
p850
sg56
S'2015-16'
p851
sg58
S'4.6'
p852
sg60
S'1.9'
p853
sg62
S'.502'
p854
sg64
S'28.1'
p855
sg66
S'39'
p856
sbsS'_weight'
p857
S'201'
p858
sS'_dob'
p859
S'1-7-1989'
p860
sS'_salary'
p861
(lp862
(isrc.gp1.models.Salary
Salary
p863
(dp864
g42
S'Golden State Warriors'
p865
sg28
S'NBA'
p866
sg861
S'$473,604'
p867
sg56
S'2012-13'
p868
sba(isrc.gp1.models.Salary
Salary
p869
(dp870
g42
S'Golden State Warriors'
p871
sg28
S'NBA'
p872
sg861
S'$788,872'
p873
sg56
S'2013-14'
p874
sba(isrc.gp1.models.Salary
Salary
p875
(dp876
g42
S'Atlanta Hawks'
p877
sg28
S'NBA'
p878
sg861
S'$2,000,000'
p879
sg56
S'2014-15'
p880
sbasg22
S'G-F'
p881
sb.