(isrc.gp1.models.Player
Player
p0
(dp1
S'_experience'
p2
S'NA'
p3
sS'_totals'
p4
(lp5
(isrc.gp1.models.Totals
Totals
p6
(dp7
S'_offensiveRebounds'
p8
g3
sS'_threePointsAttempted'
p9
g3
sS'_fieldGoalsPercentage'
p10
S'.467'
p11
sS'_assist'
p12
S'121'
p13
sS'_threePointsPercentage'
p14
g3
sS'_threePoints'
p15
g3
sS'_points'
p16
S'501'
p17
sS'_position'
p18
S'PG'
p19
sS'_freeThrowsPercentage'
p20
S'.828'
p21
sS'_effectiveFieldGoalPercentage'
p22
S'.467'
p23
sS'_league'
p24
S'NBA'
p25
sS'_steals'
p26
g3
sS'_fieldGoalsAttempted'
p27
S'392'
p28
sS'_personalFouls'
p29
S'124'
p30
sS'_freeThrowsAttempted'
p31
S'163'
p32
sS'_totalRebounds'
p33
S'140'
p34
sS'_age'
p35
S'22'
p36
sS'_team'
p37
S'ATL'
p38
sS'_games'
p39
S'72'
p40
sS'_blocks'
p41
g3
sS'_twoPoints'
p42
S'183'
p43
sS'_freeThrows'
p44
S'135'
p45
sS'_twoPointsAttempted'
p46
S'392'
p47
sS'_defensiveRebounds'
p48
g3
sS'_season'
p49
S'1969-70'
p50
sS'_fieldGoals'
p51
S'183'
p52
sS'_turnOvers'
p53
g3
sS'_twoPointsPercentage'
p54
S'.467'
p55
sS'_minutesPlayed'
p56
S'941'
p57
sS'_gamesStarted'
p58
g3
sba(isrc.gp1.models.Totals
Totals
p59
(dp60
g8
g3
sg9
g3
sg10
g3
sg12
g3
sg14
g3
sg15
g3
sg16
g3
sg18
g3
sg20
g3
sg22
g3
sg24
g3
sg26
g3
sg27
g3
sg29
g3
sg31
g3
sg33
g3
sg35
S'23'
p61
sg37
S'Did Not Play\xc2\xa0(military service\xe2\x80\x94U.S. Army)'
p62
sg39
g3
sg41
g3
sg42
g3
sg44
g3
sg46
g3
sg48
g3
sg49
S'1970-71'
p63
sg51
g3
sg53
g3
sg54
g3
sg56
g3
sg58
g3
sba(isrc.gp1.models.Totals
Totals
p64
(dp65
g8
g3
sg9
g3
sg10
S'.464'
p66
sg12
S'456'
p67
sg14
g3
sg15
g3
sg16
S'1048'
p68
sg18
S'PG'
p69
sg20
S'.760'
p70
sg22
S'.464'
p71
sg24
S'NBA'
p72
sg26
g3
sg27
S'849'
p73
sg29
S'213'
p74
sg31
S'342'
p75
sg33
S'276'
p76
sg35
S'24'
p77
sg37
S'CLE'
p78
sg39
S'68'
p79
sg41
g3
sg42
S'394'
p80
sg44
S'260'
p81
sg46
S'849'
p82
sg48
g3
sg49
S'1971-72'
p83
sg51
S'394'
p84
sg53
g3
sg54
S'.464'
p85
sg56
S'2434'
p86
sg58
g3
sba(isrc.gp1.models.Totals
Totals
p87
(dp88
g8
g3
sg9
g3
sg10
S'.439'
p89
sg12
S'247'
p90
sg14
g3
sg15
g3
sg16
S'482'
p91
sg18
S'PG'
p92
sg20
S'.714'
p93
sg22
S'.439'
p94
sg24
S'NBA'
p95
sg26
g3
sg27
S'435'
p96
sg29
S'139'
p97
sg31
S'140'
p98
sg33
S'174'
p99
sg35
S'25'
p100
sg37
S'SEA'
p101
sg39
S'73'
p102
sg41
g3
sg42
S'191'
p103
sg44
S'100'
p104
sg46
S'435'
p105
sg48
g3
sg49
S'1972-73'
p106
sg51
S'191'
p107
sg53
g3
sg54
S'.439'
p108
sg56
S'1403'
p109
sg58
g3
sba(isrc.gp1.models.Totals
Totals
p110
(dp111
g8
S'136'
p112
sg9
g3
sg10
S'.512'
p113
sg12
S'300'
p114
sg14
g3
sg15
g3
sg16
S'805'
p115
sg18
S'PG'
p116
sg20
S'.739'
p117
sg22
S'.512'
p118
sg24
S'NBA'
p119
sg26
S'105'
p120
sg27
S'617'
p121
sg29
S'241'
p122
sg31
S'234'
p123
sg33
S'389'
p124
sg35
S'26'
p125
sg37
S'GSW'
p126
sg39
S'79'
p127
sg41
S'9'
p128
sg42
S'316'
p129
sg44
S'173'
p130
sg46
S'617'
p131
sg48
S'253'
p132
sg49
S'1973-74'
p133
sg51
S'316'
p134
sg53
g3
sg54
S'.512'
p135
sg56
S'2134'
p136
sg58
g3
sba(isrc.gp1.models.Totals
Totals
p137
(dp138
g8
S'116'
p139
sg9
g3
sg10
S'.528'
p140
sg12
S'345'
p141
sg14
g3
sg15
g3
sg16
S'1048'
p142
sg18
S'PG'
p143
sg20
S'.832'
p144
sg22
S'.528'
p145
sg24
S'NBA'
p146
sg26
S'132'
p147
sg27
S'773'
p148
sg29
S'297'
p149
sg31
S'279'
p150
sg33
S'316'
p151
sg35
S'27'
p152
sg37
S'GSW'
p153
sg39
S'82'
p154
sg41
S'11'
p155
sg42
S'408'
p156
sg44
S'232'
p157
sg46
S'773'
p158
sg48
S'200'
p159
sg49
S'1974-75'
p160
sg51
S'408'
p161
sg53
g3
sg54
S'.528'
p162
sg56
S'2521'
p163
sg58
g3
sba(isrc.gp1.models.Totals
Totals
p164
(dp165
g8
S'103'
p166
sg9
g3
sg10
S'.460'
p167
sg12
S'218'
p168
sg14
g3
sg15
g3
sg16
S'600'
p169
sg18
S'PG'
p170
sg20
S'.750'
p171
sg22
S'.460'
p172
sg24
S'NBA'
p173
sg26
S'81'
p174
sg27
S'496'
p175
sg29
S'216'
p176
sg31
S'192'
p177
sg33
S'310'
p178
sg35
S'28'
p179
sg37
S'TOT'
p180
sg39
S'75'
p181
sg41
S'8'
p182
sg42
S'228'
p183
sg44
S'144'
p184
sg46
S'496'
p185
sg48
S'207'
p186
sg49
S'1975-76'
p187
sg51
S'228'
p188
sg53
g3
sg54
S'.460'
p189
sg56
S'1704'
p190
sg58
g3
sba(isrc.gp1.models.Totals
Totals
p191
(dp192
g8
S'14'
p193
sg9
g3
sg10
S'.389'
p194
sg12
S'45'
p195
sg14
g3
sg15
g3
sg16
S'97'
p196
sg18
S'PG'
p197
sg20
S'.730'
p198
sg22
S'.389'
p199
sg24
S'NBA'
p200
sg26
S'10'
p201
sg27
S'90'
p202
sg29
S'36'
p203
sg31
S'37'
p204
sg33
S'43'
p205
sg35
S'28'
p206
sg37
S'CLE'
p207
sg39
S'15'
p208
sg41
S'2'
p209
sg42
S'35'
p210
sg44
S'27'
p211
sg46
S'90'
p212
sg48
S'29'
p213
sg49
S'1975-76'
p214
sg51
S'35'
p215
sg53
g3
sg54
S'.389'
p216
sg56
S'255'
p217
sg58
g3
sba(isrc.gp1.models.Totals
Totals
p218
(dp219
g8
S'89'
p220
sg9
g3
sg10
S'.475'
p221
sg12
S'173'
p222
sg14
g3
sg15
g3
sg16
S'503'
p223
sg18
S'PG'
p224
sg20
S'.755'
p225
sg22
S'.475'
p226
sg24
S'NBA'
p227
sg26
S'71'
p228
sg27
S'406'
p229
sg29
S'180'
p230
sg31
S'155'
p231
sg33
S'267'
p232
sg35
S'28'
p233
sg37
S'NYK'
p234
sg39
S'60'
p235
sg41
S'6'
p236
sg42
S'193'
p237
sg44
S'117'
p238
sg46
S'406'
p239
sg48
S'178'
p240
sg49
S'1975-76'
p241
sg51
S'193'
p242
sg53
g3
sg54
S'.475'
p243
sg56
S'1449'
p244
sg58
g3
sba(isrc.gp1.models.Totals
Totals
p245
(dp246
g8
S'50'
p247
sg9
g3
sg10
S'.505'
p248
sg12
S'144'
p249
sg14
g3
sg15
g3
sg16
S'371'
p250
sg18
S'PG'
p251
sg20
S'.688'
p252
sg22
S'.505'
p253
sg24
S'NBA'
p254
sg26
S'57'
p255
sg27
S'293'
p256
sg29
S'137'
p257
sg31
S'109'
p258
sg33
S'163'
p259
sg35
S'29'
p260
sg37
S'NYK'
p261
sg39
S'70'
p262
sg41
S'5'
p263
sg42
S'148'
p264
sg44
S'75'
p265
sg46
S'293'
p266
sg48
S'113'
p267
sg49
S'1976-77'
p268
sg51
S'148'
p269
sg53
g3
sg54
S'.505'
p270
sg56
S'1082'
p271
sg58
g3
sba(isrc.gp1.models.Totals
Totals
p272
(dp273
g8
S'76'
p274
sg9
g3
sg10
S'.502'
p275
sg12
S'339'
p276
sg14
g3
sg15
g3
sg16
S'745'
p277
sg18
S'PG'
p278
sg20
S'.806'
p279
sg22
S'.502'
p280
sg24
S'NBA'
p281
sg26
S'117'
p282
sg27
S'614'
p283
sg29
S'201'
p284
sg31
S'160'
p285
sg33
S'264'
p286
sg35
S'30'
p287
sg37
S'NYK'
p288
sg39
S'79'
p289
sg41
S'3'
p290
sg42
S'308'
p291
sg44
S'129'
p292
sg46
S'614'
p293
sg48
S'188'
p294
sg49
S'1977-78'
p295
sg51
S'308'
p296
sg53
S'154'
p297
sg54
S'.502'
p298
sg56
S'1979'
p299
sg58
g3
sba(isrc.gp1.models.Totals
Totals
p300
(dp301
g8
S'1'
p302
sg9
g3
sg10
S'.423'
p303
sg12
S'19'
p304
sg14
g3
sg15
g3
sg16
S'22'
p305
sg18
S'PG'
p306
sg20
g3
sg22
S'.423'
p307
sg24
S'NBA'
p308
sg26
S'7'
p309
sg27
S'26'
p310
sg29
S'13'
p311
sg31
S'0'
p312
sg33
S'10'
p313
sg35
S'31'
p314
sg37
S'NYK'
p315
sg39
g309
sg41
g312
sg42
S'11'
p316
sg44
g312
sg46
S'26'
p317
sg48
g128
sg49
S'1978-79'
p318
sg51
S'11'
p319
sg53
S'10'
p320
sg54
S'.423'
p321
sg56
S'85'
p322
sg58
g3
sbasS'_college'
p323
S'University of Louisville'
p324
sS'_toYear'
p325
S'1979'
p326
sS'_height'
p327
S'6-3'
p328
sS'_active'
p329
I00
sS'_shootingHand'
p330
VRight
p331
sS'_name'
p332
S'Butch Beard'
p333
sS'_per100Possessions'
p334
(lp335
(isrc.gp1.models.Per100Possession
Per100Possession
p336
(dp337
g8
S'2.8'
p338
sg9
g3
sg10
S'.512'
p339
sS'_offensiveRating'
p340
g3
sg12
S'6.2'
p341
sg14
g3
sg15
g3
sg16
S'16.6'
p342
sg18
S'PG'
p343
sS'_defensiveRating'
p344
S'99'
p345
sg20
S'.739'
p346
sg24
S'NBA'
p347
sg26
S'2.2'
p348
sg27
S'12.7'
p349
sg29
S'5.0'
p350
sg31
S'4.8'
p351
sg33
S'8.0'
p352
sg35
S'26'
p353
sg37
S'GSW'
p354
sg39
S'79'
p355
sg41
S'0.2'
p356
sg42
S'6.5'
p357
sg44
S'3.6'
p358
sg46
S'12.7'
p359
sg48
S'5.2'
p360
sg49
S'1973-74'
p361
sg51
S'6.5'
p362
sg53
g3
sg54
S'.512'
p363
sg56
S'2134'
p364
sg58
g3
sba(isrc.gp1.models.Per100Possession
Per100Possession
p365
(dp366
g8
S'2.1'
p367
sg9
g3
sg10
S'.528'
p368
sg340
g3
sg12
S'6.1'
p369
sg14
g3
sg15
g3
sg16
S'18.6'
p370
sg18
S'PG'
p371
sg344
S'100'
p372
sg20
S'.832'
p373
sg24
S'NBA'
p374
sg26
S'2.3'
p375
sg27
S'13.7'
p376
sg29
S'5.3'
p377
sg31
S'4.9'
p378
sg33
S'5.6'
p379
sg35
S'27'
p380
sg37
S'GSW'
p381
sg39
S'82'
p382
sg41
S'0.2'
p383
sg42
S'7.2'
p384
sg44
S'4.1'
p385
sg46
S'13.7'
p386
sg48
S'3.5'
p387
sg49
S'1974-75'
p388
sg51
S'7.2'
p389
sg53
g3
sg54
S'.528'
p390
sg56
S'2521'
p391
sg58
g3
sba(isrc.gp1.models.Per100Possession
Per100Possession
p392
(dp393
g8
S'2.8'
p394
sg9
g3
sg10
S'.460'
p395
sg340
g3
sg12
S'5.9'
p396
sg14
g3
sg15
g3
sg16
S'16.3'
p397
sg18
S'PG'
p398
sg344
S'98'
p399
sg20
S'.750'
p400
sg24
S'NBA'
p401
sg26
S'2.2'
p402
sg27
S'13.5'
p403
sg29
S'5.9'
p404
sg31
S'5.2'
p405
sg33
S'8.4'
p406
sg35
S'28'
p407
sg37
S'TOT'
p408
sg39
S'75'
p409
sg41
S'0.2'
p410
sg42
S'6.2'
p411
sg44
S'3.9'
p412
sg46
S'13.5'
p413
sg48
S'5.6'
p414
sg49
S'1975-76'
p415
sg51
S'6.2'
p416
sg53
g3
sg54
S'.460'
p417
sg56
S'1704'
p418
sg58
g3
sba(isrc.gp1.models.Per100Possession
Per100Possession
p419
(dp420
g8
S'2.6'
p421
sg9
g3
sg10
S'.389'
p422
sg340
g3
sg12
S'8.3'
p423
sg14
g3
sg15
g3
sg16
S'18.0'
p424
sg18
S'PG'
p425
sg344
S'97'
p426
sg20
S'.730'
p427
sg24
S'NBA'
p428
sg26
S'1.9'
p429
sg27
S'16.7'
p430
sg29
S'6.7'
p431
sg31
S'6.9'
p432
sg33
S'8.0'
p433
sg35
S'28'
p434
sg37
S'CLE'
p435
sg39
S'15'
p436
sg41
S'0.4'
p437
sg42
S'6.5'
p438
sg44
S'5.0'
p439
sg46
S'16.7'
p440
sg48
S'5.4'
p441
sg49
S'1975-76'
p442
sg51
S'6.5'
p443
sg53
g3
sg54
S'.389'
p444
sg56
S'255'
p445
sg58
g3
sba(isrc.gp1.models.Per100Possession
Per100Possession
p446
(dp447
g8
S'2.8'
p448
sg9
g3
sg10
S'.475'
p449
sg340
g3
sg12
S'5.5'
p450
sg14
g3
sg15
g3
sg16
S'16.0'
p451
sg18
S'PG'
p452
sg344
S'98'
p453
sg20
S'.755'
p454
sg24
S'NBA'
p455
sg26
S'2.3'
p456
sg27
S'12.9'
p457
sg29
S'5.7'
p458
sg31
S'4.9'
p459
sg33
S'8.5'
p460
sg35
S'28'
p461
sg37
S'NYK'
p462
sg39
S'60'
p463
sg41
S'0.2'
p464
sg42
S'6.1'
p465
sg44
S'3.7'
p466
sg46
S'12.9'
p467
sg48
S'5.7'
p468
sg49
S'1975-76'
p469
sg51
S'6.1'
p470
sg53
g3
sg54
S'.475'
p471
sg56
S'1449'
p472
sg58
g3
sba(isrc.gp1.models.Per100Possession
Per100Possession
p473
(dp474
g8
S'2.1'
p475
sg9
g3
sg10
S'.505'
p476
sg340
g3
sg12
S'5.9'
p477
sg14
g3
sg15
g3
sg16
S'15.2'
p478
sg18
S'PG'
p479
sg344
S'100'
p480
sg20
S'.688'
p481
sg24
S'NBA'
p482
sg26
S'2.3'
p483
sg27
S'12.0'
p484
sg29
S'5.6'
p485
sg31
S'4.5'
p486
sg33
S'6.7'
p487
sg35
S'29'
p488
sg37
S'NYK'
p489
sg39
S'70'
p490
sg41
S'0.2'
p491
sg42
S'6.1'
p492
sg44
S'3.1'
p493
sg46
S'12.0'
p494
sg48
S'4.6'
p495
sg49
S'1976-77'
p496
sg51
S'6.1'
p497
sg53
g3
sg54
S'.505'
p498
sg56
S'1082'
p499
sg58
g3
sba(isrc.gp1.models.Per100Possession
Per100Possession
p500
(dp501
g8
S'1.7'
p502
sg9
g3
sg10
S'.502'
p503
sg340
S'106'
p504
sg12
S'7.5'
p505
sg14
g3
sg15
g3
sg16
S'16.5'
p506
sg18
S'PG'
p507
sg344
S'103'
p508
sg20
S'.806'
p509
sg24
S'NBA'
p510
sg26
S'2.6'
p511
sg27
S'13.6'
p512
sg29
S'4.4'
p513
sg31
S'3.5'
p514
sg33
S'5.8'
p515
sg35
S'30'
p516
sg37
S'NYK'
p517
sg39
S'79'
p518
sg41
S'0.1'
p519
sg42
S'6.8'
p520
sg44
S'2.9'
p521
sg46
S'13.6'
p522
sg48
S'4.2'
p523
sg49
S'1977-78'
p524
sg51
S'6.8'
p525
sg53
S'3.4'
p526
sg54
S'.502'
p527
sg56
S'1979'
p528
sg58
g3
sba(isrc.gp1.models.Per100Possession
Per100Possession
p529
(dp530
g8
S'0.5'
p531
sg9
g3
sg10
S'.423'
p532
sg340
S'82'
p533
sg12
S'10.2'
p534
sg14
g3
sg15
g3
sg16
S'11.8'
p535
sg18
S'PG'
p536
sg344
S'102'
p537
sg20
g3
sg24
S'NBA'
p538
sg26
S'3.8'
p539
sg27
S'14.0'
p540
sg29
S'7.0'
p541
sg31
S'0.0'
p542
sg33
S'5.4'
p543
sg35
S'31'
p544
sg37
S'NYK'
p545
sg39
g309
sg41
S'0.0'
p546
sg42
S'5.9'
p547
sg44
S'0.0'
p548
sg46
S'14.0'
p549
sg48
S'4.8'
p550
sg49
S'1978-79'
p551
sg51
S'5.9'
p552
sg53
S'5.4'
p553
sg54
S'.423'
p554
sg56
S'85'
p555
sg58
g3
sbasS'_advanced'
p556
(lp557
(isrc.gp1.models.Advanced
Advanced
p558
(dp559
S'_offensiveReboundPercentage'
p560
g3
sS'_turnOverPercentage'
p561
g3
sS'_winSharesPer48Minutes'
p562
S'.113'
p563
sS'_stealPercentage'
p564
g3
sS'_usagePercentage'
p565
g3
sS'_totalReboundsPercentage'
p566
g3
sS'_defensiveBoxPlusMinus'
p567
g3
sg18
S'PG'
p568
sS'_valueOverReplacementPlayer'
p569
g3
sS'_trueShootingPercentage'
p570
S'.540'
p571
sS'_defensiveReboundPercentage'
p572
g3
sS'_freeThrowsAttempRate'
p573
S'.416'
p574
sS'_threePointsAttempRate'
p575
g3
sg24
S'NBA'
p576
sS'_offensiveBoxPlusMinues'
p577
g3
sS'_assistPercentage'
p578
S'16.7'
p579
sS'_defensiveWinShares'
p580
S'0.5'
p581
sg35
S'22'
p582
sg37
S'ATL'
p583
sg39
S'72'
p584
sS'_blockPercentage'
p585
g3
sS'_playerEfficiencyRating'
p586
S'15.7'
p587
sS'_offensiveWinShares'
p588
S'1.7'
p589
sg56
S'941'
p590
sS'_boxPlusMinus'
p591
g3
sg49
S'1969-70'
p592
sS'_winShares'
p593
S'2.2'
p594
sba(isrc.gp1.models.Advanced
Advanced
p595
(dp596
g560
g3
sg561
g3
sg562
S'.115'
p597
sg564
g3
sg565
g3
sg566
S'5.5'
p598
sg567
g3
sg18
S'PG'
p599
sg569
g3
sg570
S'.524'
p600
sg572
g3
sg573
S'.403'
p601
sg575
g3
sg24
S'NBA'
p602
sg577
g3
sg578
S'26.3'
p603
sg580
S'2.2'
p604
sg35
S'24'
p605
sg37
S'CLE'
p606
sg39
S'68'
p607
sg585
g3
sg586
S'15.7'
p608
sg588
S'3.7'
p609
sg56
S'2434'
p610
sg591
g3
sg49
S'1971-72'
p611
sg593
S'5.9'
p612
sba(isrc.gp1.models.Advanced
Advanced
p613
(dp614
g560
g3
sg561
g3
sg562
S'.051'
p615
sg564
g3
sg565
g3
sg566
S'5.9'
p616
sg567
g3
sg18
S'PG'
p617
sg569
g3
sg570
S'.485'
p618
sg572
g3
sg573
S'.322'
p619
sg575
g3
sg24
S'NBA'
p620
sg577
g3
sg578
S'23.9'
p621
sg580
S'0.5'
p622
sg35
S'25'
p623
sg37
S'SEA'
p624
sg39
S'73'
p625
sg585
g3
sg586
S'13.1'
p626
sg588
S'1.0'
p627
sg56
S'1403'
p628
sg591
g3
sg49
S'1972-73'
p629
sg593
S'1.5'
p630
sba(isrc.gp1.models.Advanced
Advanced
p631
(dp632
g560
S'6.2'
p633
sg561
g3
sg562
S'.126'
p634
sg564
S'2.2'
p635
sg565
g3
sg566
S'8.6'
p636
sg567
S'0.5'
p637
sg18
S'PG'
p638
sg569
S'2.4'
p639
sg570
S'.559'
p640
sg572
S'11.0'
p641
sg573
S'.379'
p642
sg575
g3
sg24
S'NBA'
p643
sg577
S'2.0'
p644
sg578
S'17.7'
p645
sg580
S'1.9'
p646
sg35
S'26'
p647
sg37
S'GSW'
p648
sg39
S'79'
p649
sg585
S'0.2'
p650
sg586
S'15.5'
p651
sg588
S'3.7'
p652
sg56
S'2134'
p653
sg591
S'2.5'
p654
sg49
S'1973-74'
p655
sg593
S'5.6'
p656
sba(isrc.gp1.models.Advanced
Advanced
p657
(dp658
g560
S'4.5'
p659
sg561
g3
sg562
S'.144'
p660
sg564
S'2.3'
p661
sg565
g3
sg566
S'6.1'
p662
sg567
S'-0.2'
p663
sg18
S'PG'
p664
sg569
S'2.6'
p665
sg570
S'.585'
p666
sg572
S'7.8'
p667
sg573
S'.361'
p668
sg575
g3
sg24
S'NBA'
p669
sg577
S'2.3'
p670
sg578
S'17.6'
p671
sg580
S'2.0'
p672
sg35
S'27'
p673
sg37
S'GSW'
p674
sg39
S'82'
p675
sg585
S'0.2'
p676
sg586
S'16.1'
p677
sg588
S'5.6'
p678
sg56
S'2521'
p679
sg591
S'2.1'
p680
sg49
S'1974-75'
p681
sg593
S'7.6'
p682
sba(isrc.gp1.models.Advanced
Advanced
p683
(dp684
g560
S'6.1'
p685
sg561
g3
sg562
S'.105'
p686
sg564
S'2.2'
p687
sg565
g3
sg566
S'9.4'
p688
sg567
S'1.1'
p689
sg18
S'PG'
p690
sg569
S'1.8'
p691
sg570
S'.517'
p692
sg572
S'12.7'
p693
sg573
S'.387'
p694
sg575
g3
sg24
S'NBA'
p695
sg577
S'1.1'
p696
sg578
S'17.3'
p697
sg580
S'1.8'
p698
sg35
S'28'
p699
sg37
S'TOT'
p700
sg39
S'75'
p701
sg585
S'0.3'
p702
sg586
S'14.5'
p703
sg588
S'1.9'
p704
sg56
S'1704'
p705
sg591
S'2.2'
p706
sg49
S'1975-76'
p707
sg593
S'3.7'
p708
sba(isrc.gp1.models.Advanced
Advanced
p709
(dp710
g560
S'5.5'
p711
sg561
g3
sg562
S'.073'
p712
sg564
S'1.9'
p713
sg565
g3
sg566
S'8.7'
p714
sg567
S'0.0'
p715
sg18
S'PG'
p716
sg569
S'0.2'
p717
sg570
S'.456'
p718
sg572
S'12.1'
p719
sg573
S'.411'
p720
sg575
g3
sg24
S'NBA'
p721
sg577
S'0.7'
p722
sg578
S'23.7'
p723
sg580
S'0.3'
p724
sg35
S'28'
p725
sg37
S'CLE'
p726
sg39
S'15'
p727
sg585
S'0.4'
p728
sg586
S'14.5'
p729
sg588
S'0.1'
p730
sg56
S'255'
p731
sg591
S'0.6'
p732
sg49
S'1975-76'
p733
sg593
S'0.4'
p734
sba(isrc.gp1.models.Advanced
Advanced
p735
(dp736
g560
S'6.2'
p737
sg561
g3
sg562
S'.110'
p738
sg564
S'2.3'
p739
sg565
g3
sg566
S'9.5'
p740
sg567
S'1.2'
p741
sg18
S'PG'
p742
sg569
S'1.6'
p743
sg570
S'.530'
p744
sg572
S'12.8'
p745
sg573
S'.382'
p746
sg575
g3
sg24
S'NBA'
p747
sg577
S'1.2'
p748
sg578
S'16.2'
p749
sg580
S'1.5'
p750
sg35
S'28'
p751
sg37
S'NYK'
p752
sg39
S'60'
p753
sg585
S'0.2'
p754
sg586
S'14.5'
p755
sg588
S'1.8'
p756
sg56
S'1449'
p757
sg591
S'2.5'
p758
sg49
S'1975-76'
p759
sg593
S'3.3'
p760
sba(isrc.gp1.models.Advanced
Advanced
p761
(dp762
g560
S'4.9'
p763
sg561
g3
sg562
S'.088'
p764
sg564
S'2.3'
p765
sg565
g3
sg566
S'7.9'
p766
sg567
S'0.4'
p767
sg18
S'PG'
p768
sg569
S'0.7'
p769
sg570
S'.544'
p770
sg572
S'10.7'
p771
sg573
S'.372'
p772
sg575
g3
sg24
S'NBA'
p773
sg577
S'-0.1'
p774
sg578
S'16.9'
p775
sg580
S'1.0'
p776
sg35
S'29'
p777
sg37
S'NYK'
p778
sg39
S'70'
p779
sg585
S'0.2'
p780
sg586
S'13.4'
p781
sg588
S'0.9'
p782
sg56
S'1082'
p783
sg591
S'0.4'
p784
sg49
S'1976-77'
p785
sg593
S'2.0'
p786
sba(isrc.gp1.models.Advanced
Advanced
p787
(dp788
g560
S'4.0'
p789
sg561
S'18.4'
p790
sg562
S'.107'
p791
sg564
S'2.6'
p792
sg565
S'16.0'
p793
sg566
S'6.9'
p794
sg567
S'-0.1'
p795
sg18
S'PG'
p796
sg569
S'1.3'
p797
sg570
S'.544'
p798
sg572
S'9.6'
p799
sg573
S'.261'
p800
sg575
g3
sg24
S'NBA'
p801
sg577
S'0.7'
p802
sg578
S'21.5'
p803
sg580
S'1.6'
p804
sg35
S'30'
p805
sg37
S'NYK'
p806
sg39
S'79'
p807
sg585
S'0.1'
p808
sg586
S'14.6'
p809
sg588
S'2.8'
p810
sg56
S'1979'
p811
sg591
S'0.6'
p812
sg49
S'1977-78'
p813
sg593
S'4.4'
p814
sba(isrc.gp1.models.Advanced
Advanced
p815
(dp816
g560
S'1.3'
p817
sg561
S'27.8'
p818
sg562
S'-0.012'
p819
sg564
S'3.8'
p820
sg565
S'16.6'
p821
sg566
S'6.3'
p822
sg567
S'0.1'
p823
sg18
S'PG'
p824
sg569
S'-0.1'
p825
sg570
S'.423'
p826
sg572
S'11.5'
p827
sg573
S'.000'
p828
sg575
g3
sg24
S'NBA'
p829
sg577
S'-4.9'
p830
sg578
S'27.9'
p831
sg580
S'0.1'
p832
sg35
S'31'
p833
sg37
S'NYK'
p834
sg39
g309
sg585
S'0.0'
p835
sg586
S'9.0'
p836
sg588
S'-0.1'
p837
sg56
S'85'
p838
sg591
S'-4.8'
p839
sg49
S'1978-79'
p840
sg593
S'0.0'
p841
sbasS'_per36Minutes'
p842
(lp843
(isrc.gp1.models.Per36Minutes
Per36Minutes
p844
(dp845
g8
g3
sg9
g3
sg10
S'.467'
p846
sg12
S'4.6'
p847
sg14
g3
sg15
g3
sg16
S'19.2'
p848
sg18
S'PG'
p849
sg20
S'.828'
p850
sg24
S'NBA'
p851
sg26
g3
sg27
S'15.0'
p852
sg29
S'4.7'
p853
sg31
S'6.2'
p854
sg33
S'5.4'
p855
sg35
S'22'
p856
sg37
S'ATL'
p857
sg39
S'72'
p858
sg41
g3
sg42
S'7.0'
p859
sg44
S'5.2'
p860
sg46
S'15.0'
p861
sg48
g3
sg49
S'1969-70'
p862
sg51
S'7.0'
p863
sg53
g3
sg54
S'.467'
p864
sg56
S'941'
p865
sg58
g3
sba(isrc.gp1.models.Per36Minutes
Per36Minutes
p866
(dp867
g8
g3
sg9
g3
sg10
S'.464'
p868
sg12
S'6.7'
p869
sg14
g3
sg15
g3
sg16
S'15.5'
p870
sg18
S'PG'
p871
sg20
S'.760'
p872
sg24
S'NBA'
p873
sg26
g3
sg27
S'12.6'
p874
sg29
S'3.2'
p875
sg31
S'5.1'
p876
sg33
S'4.1'
p877
sg35
S'24'
p878
sg37
S'CLE'
p879
sg39
S'68'
p880
sg41
g3
sg42
S'5.8'
p881
sg44
S'3.8'
p882
sg46
S'12.6'
p883
sg48
g3
sg49
S'1971-72'
p884
sg51
S'5.8'
p885
sg53
g3
sg54
S'.464'
p886
sg56
S'2434'
p887
sg58
g3
sba(isrc.gp1.models.Per36Minutes
Per36Minutes
p888
(dp889
g8
g3
sg9
g3
sg10
S'.439'
p890
sg12
S'6.3'
p891
sg14
g3
sg15
g3
sg16
S'12.4'
p892
sg18
S'PG'
p893
sg20
S'.714'
p894
sg24
S'NBA'
p895
sg26
g3
sg27
S'11.2'
p896
sg29
S'3.6'
p897
sg31
S'3.6'
p898
sg33
S'4.5'
p899
sg35
S'25'
p900
sg37
S'SEA'
p901
sg39
S'73'
p902
sg41
g3
sg42
S'4.9'
p903
sg44
S'2.6'
p904
sg46
S'11.2'
p905
sg48
g3
sg49
S'1972-73'
p906
sg51
S'4.9'
p907
sg53
g3
sg54
S'.439'
p908
sg56
S'1403'
p909
sg58
g3
sba(isrc.gp1.models.Per36Minutes
Per36Minutes
p910
(dp911
g8
S'2.3'
p912
sg9
g3
sg10
S'.512'
p913
sg12
S'5.1'
p914
sg14
g3
sg15
g3
sg16
S'13.6'
p915
sg18
S'PG'
p916
sg20
S'.739'
p917
sg24
S'NBA'
p918
sg26
S'1.8'
p919
sg27
S'10.4'
p920
sg29
S'4.1'
p921
sg31
S'3.9'
p922
sg33
S'6.6'
p923
sg35
S'26'
p924
sg37
S'GSW'
p925
sg39
S'79'
p926
sg41
S'0.2'
p927
sg42
S'5.3'
p928
sg44
S'2.9'
p929
sg46
S'10.4'
p930
sg48
S'4.3'
p931
sg49
S'1973-74'
p932
sg51
S'5.3'
p933
sg53
g3
sg54
S'.512'
p934
sg56
S'2134'
p935
sg58
g3
sba(isrc.gp1.models.Per36Minutes
Per36Minutes
p936
(dp937
g8
S'1.7'
p938
sg9
g3
sg10
S'.528'
p939
sg12
S'4.9'
p940
sg14
g3
sg15
g3
sg16
S'15.0'
p941
sg18
S'PG'
p942
sg20
S'.832'
p943
sg24
S'NBA'
p944
sg26
S'1.9'
p945
sg27
S'11.0'
p946
sg29
S'4.2'
p947
sg31
S'4.0'
p948
sg33
S'4.5'
p949
sg35
S'27'
p950
sg37
S'GSW'
p951
sg39
S'82'
p952
sg41
S'0.2'
p953
sg42
S'5.8'
p954
sg44
S'3.3'
p955
sg46
S'11.0'
p956
sg48
S'2.9'
p957
sg49
S'1974-75'
p958
sg51
S'5.8'
p959
sg53
g3
sg54
S'.528'
p960
sg56
S'2521'
p961
sg58
g3
sba(isrc.gp1.models.Per36Minutes
Per36Minutes
p962
(dp963
g8
S'2.2'
p964
sg9
g3
sg10
S'.460'
p965
sg12
S'4.6'
p966
sg14
g3
sg15
g3
sg16
S'12.7'
p967
sg18
S'PG'
p968
sg20
S'.750'
p969
sg24
S'NBA'
p970
sg26
S'1.7'
p971
sg27
S'10.5'
p972
sg29
S'4.6'
p973
sg31
S'4.1'
p974
sg33
S'6.5'
p975
sg35
S'28'
p976
sg37
S'TOT'
p977
sg39
S'75'
p978
sg41
S'0.2'
p979
sg42
S'4.8'
p980
sg44
S'3.0'
p981
sg46
S'10.5'
p982
sg48
S'4.4'
p983
sg49
S'1975-76'
p984
sg51
S'4.8'
p985
sg53
g3
sg54
S'.460'
p986
sg56
S'1704'
p987
sg58
g3
sba(isrc.gp1.models.Per36Minutes
Per36Minutes
p988
(dp989
g8
S'2.0'
p990
sg9
g3
sg10
S'.389'
p991
sg12
S'6.4'
p992
sg14
g3
sg15
g3
sg16
S'13.7'
p993
sg18
S'PG'
p994
sg20
S'.730'
p995
sg24
S'NBA'
p996
sg26
S'1.4'
p997
sg27
S'12.7'
p998
sg29
S'5.1'
p999
sg31
S'5.2'
p1000
sg33
S'6.1'
p1001
sg35
S'28'
p1002
sg37
S'CLE'
p1003
sg39
S'15'
p1004
sg41
S'0.3'
p1005
sg42
S'4.9'
p1006
sg44
S'3.8'
p1007
sg46
S'12.7'
p1008
sg48
S'4.1'
p1009
sg49
S'1975-76'
p1010
sg51
S'4.9'
p1011
sg53
g3
sg54
S'.389'
p1012
sg56
S'255'
p1013
sg58
g3
sba(isrc.gp1.models.Per36Minutes
Per36Minutes
p1014
(dp1015
g8
S'2.2'
p1016
sg9
g3
sg10
S'.475'
p1017
sg12
S'4.3'
p1018
sg14
g3
sg15
g3
sg16
S'12.5'
p1019
sg18
S'PG'
p1020
sg20
S'.755'
p1021
sg24
S'NBA'
p1022
sg26
S'1.8'
p1023
sg27
S'10.1'
p1024
sg29
S'4.5'
p1025
sg31
S'3.9'
p1026
sg33
S'6.6'
p1027
sg35
S'28'
p1028
sg37
S'NYK'
p1029
sg39
S'60'
p1030
sg41
S'0.1'
p1031
sg42
S'4.8'
p1032
sg44
S'2.9'
p1033
sg46
S'10.1'
p1034
sg48
S'4.4'
p1035
sg49
S'1975-76'
p1036
sg51
S'4.8'
p1037
sg53
g3
sg54
S'.475'
p1038
sg56
S'1449'
p1039
sg58
g3
sba(isrc.gp1.models.Per36Minutes
Per36Minutes
p1040
(dp1041
g8
S'1.7'
p1042
sg9
g3
sg10
S'.505'
p1043
sg12
S'4.8'
p1044
sg14
g3
sg15
g3
sg16
S'12.3'
p1045
sg18
S'PG'
p1046
sg20
S'.688'
p1047
sg24
S'NBA'
p1048
sg26
S'1.9'
p1049
sg27
S'9.7'
p1050
sg29
S'4.6'
p1051
sg31
S'3.6'
p1052
sg33
S'5.4'
p1053
sg35
S'29'
p1054
sg37
S'NYK'
p1055
sg39
S'70'
p1056
sg41
S'0.2'
p1057
sg42
S'4.9'
p1058
sg44
S'2.5'
p1059
sg46
S'9.7'
p1060
sg48
S'3.8'
p1061
sg49
S'1976-77'
p1062
sg51
S'4.9'
p1063
sg53
g3
sg54
S'.505'
p1064
sg56
S'1082'
p1065
sg58
g3
sba(isrc.gp1.models.Per36Minutes
Per36Minutes
p1066
(dp1067
g8
S'1.4'
p1068
sg9
g3
sg10
S'.502'
p1069
sg12
S'6.2'
p1070
sg14
g3
sg15
g3
sg16
S'13.6'
p1071
sg18
S'PG'
p1072
sg20
S'.806'
p1073
sg24
S'NBA'
p1074
sg26
S'2.1'
p1075
sg27
S'11.2'
p1076
sg29
S'3.7'
p1077
sg31
S'2.9'
p1078
sg33
S'4.8'
p1079
sg35
S'30'
p1080
sg37
S'NYK'
p1081
sg39
S'79'
p1082
sg41
S'0.1'
p1083
sg42
S'5.6'
p1084
sg44
S'2.3'
p1085
sg46
S'11.2'
p1086
sg48
S'3.4'
p1087
sg49
S'1977-78'
p1088
sg51
S'5.6'
p1089
sg53
S'2.8'
p1090
sg54
S'.502'
p1091
sg56
S'1979'
p1092
sg58
g3
sba(isrc.gp1.models.Per36Minutes
Per36Minutes
p1093
(dp1094
g8
S'0.4'
p1095
sg9
g3
sg10
S'.423'
p1096
sg12
S'8.0'
p1097
sg14
g3
sg15
g3
sg16
S'9.3'
p1098
sg18
S'PG'
p1099
sg20
g3
sg24
S'NBA'
p1100
sg26
S'3.0'
p1101
sg27
S'11.0'
p1102
sg29
S'5.5'
p1103
sg31
S'0.0'
p1104
sg33
S'4.2'
p1105
sg35
S'31'
p1106
sg37
S'NYK'
p1107
sg39
g309
sg41
S'0.0'
p1108
sg42
S'4.7'
p1109
sg44
S'0.0'
p1110
sg46
S'11.0'
p1111
sg48
S'3.8'
p1112
sg49
S'1978-79'
p1113
sg51
S'4.7'
p1114
sg53
S'4.2'
p1115
sg54
S'.423'
p1116
sg56
S'85'
p1117
sg58
g3
sbasS'_fromYear'
p1118
S'1970'
p1119
sS'_url'
p1120
S'http://www.basketball-reference.com/players/b/beardbu01.html'
p1121
sS'_perGame'
p1122
(isrc.gp1.models.PerGame
PerGame
p1123
(dp1124
g8
S'0.1'
p1125
sg9
g3
sg10
S'.423'
p1126
sS'_effectiveFieldGalPercentage'
p1127
S'.423'
p1128
sg12
S'2.7'
p1129
sg14
g3
sg15
g3
sg16
S'3.1'
p1130
sg18
S'PG'
p1131
sg20
g3
sg24
S'NBA'
p1132
sg26
S'1.0'
p1133
sg29
S'1.9'
p1134
sS'_fieldGoalsttempted'
p1135
S'3.7'
p1136
sg31
S'0.0'
p1137
sg33
S'1.4'
p1138
sg35
S'31'
p1139
sg37
S'NYK'
p1140
sg39
g309
sg41
S'0.0'
p1141
sg42
S'1.6'
p1142
sg44
S'0.0'
p1143
sg46
S'3.7'
p1144
sg48
S'1.3'
p1145
sg49
S'1978-79'
p1146
sg51
S'1.6'
p1147
sg53
S'1.4'
p1148
sg54
S'.423'
p1149
sg56
S'12.1'
p1150
sg58
g3
sbsS'_weight'
p1151
S'185'
p1152
sS'_dob'
p1153
S'4-5-1947'
p1154
sS'_salary'
p1155
(lp1156
sg18
S'G'
p1157
sb.