(isrc.gp1.models.Player
Player
p0
(dp1
S'_experience'
p2
S'NA'
p3
sS'_totals'
p4
(lp5
(isrc.gp1.models.Totals
Totals
p6
(dp7
S'_offensiveRebounds'
p8
g3
sS'_threePointsAttempted'
p9
g3
sS'_fieldGoalsPercentage'
p10
S'.519'
p11
sS'_assist'
p12
S'210'
p13
sS'_threePointsPercentage'
p14
g3
sS'_threePoints'
p15
g3
sS'_points'
p16
S'2495'
p17
sS'_position'
p18
S'C'
p19
sS'_freeThrowsPercentage'
p20
S'.644'
p21
sS'_effectiveFieldGoalPercentage'
p22
S'.519'
p23
sS'_league'
p24
S'NBA'
p25
sS'_steals'
p26
g3
sS'_fieldGoalsAttempted'
p27
S'1875'
p28
sS'_personalFouls'
p29
S'281'
p30
sS'_freeThrowsAttempted'
p31
S'853'
p32
sS'_totalRebounds'
p33
S'1500'
p34
sS'_age'
p35
S'22'
p36
sS'_team'
p37
S'CHP'
p38
sS'_games'
p39
S'79'
p40
sS'_blocks'
p41
g3
sS'_twoPoints'
p42
S'973'
p43
sS'_freeThrows'
p44
S'549'
p45
sS'_twoPointsAttempted'
p46
S'1875'
p47
sS'_defensiveRebounds'
p48
g3
sS'_season'
p49
S'1961-62'
p50
sS'_fieldGoals'
p51
S'973'
p52
sS'_turnOvers'
p53
g3
sS'_twoPointsPercentage'
p54
S'.519'
p55
sS'_minutesPlayed'
p56
S'3344'
p57
sS'_gamesStarted'
p58
g3
sba(isrc.gp1.models.Totals
Totals
p59
(dp60
g8
g3
sg9
g3
sg10
S'.527'
p61
sg12
S'233'
p62
sg14
g3
sg15
g3
sg16
S'2233'
p63
sg18
g19
sg20
S'.674'
p64
sg22
S'.527'
p65
sg24
S'NBA'
p66
sg26
g3
sg27
S'1595'
p67
sg29
S'283'
p68
sg31
S'821'
p69
sg33
S'1309'
p70
sg35
S'23'
p71
sg37
S'CHZ'
p72
sg39
S'80'
p73
sg41
g3
sg42
S'840'
p74
sg44
S'553'
p75
sg46
S'1595'
p76
sg48
g3
sg49
S'1962-63'
p77
sg51
S'840'
p78
sg53
g3
sg54
S'.527'
p79
sg56
S'3306'
p80
sg58
g3
sba(isrc.gp1.models.Totals
Totals
p81
(dp82
g8
g3
sg9
g3
sg10
S'.513'
p83
sg12
S'126'
p84
sg14
g3
sg15
g3
sg16
S'2159'
p85
sg18
g19
sg20
S'.651'
p86
sg22
S'.513'
p87
sg24
S'NBA'
p88
sg26
g3
sg27
S'1582'
p89
sg29
S'300'
p90
sg31
S'825'
p91
sg33
S'1361'
p92
sg35
S'24'
p93
sg37
S'BAL'
p94
sg39
S'80'
p95
sg41
g3
sg42
S'811'
p96
sg44
S'537'
p97
sg46
S'1582'
p98
sg48
g3
sg49
S'1963-64'
p99
sg51
S'811'
p100
sg53
g3
sg54
S'.513'
p101
sg56
S'3394'
p102
sg58
g3
sba(isrc.gp1.models.Totals
Totals
p103
(dp104
g8
g3
sg9
g3
sg10
S'.509'
p105
sg12
S'191'
p106
sg14
g3
sg15
g3
sg16
S'1981'
p107
sg18
g19
sg20
S'.685'
p108
sg22
S'.509'
p109
sg24
S'NBA'
p110
sg26
g3
sg27
S'1441'
p111
sg29
S'260'
p112
sg31
S'752'
p113
sg33
S'1166'
p114
sg35
S'25'
p115
sg37
S'BAL'
p116
sg39
S'80'
p117
sg41
g3
sg42
S'733'
p118
sg44
S'515'
p119
sg46
S'1441'
p120
sg48
g3
sg49
S'1964-65'
p121
sg51
S'733'
p122
sg53
g3
sg54
S'.509'
p123
sg56
S'3301'
p124
sg58
g3
sba(isrc.gp1.models.Totals
Totals
p125
(dp126
g8
g3
sg9
g3
sg10
S'.506'
p127
sg12
S'235'
p128
sg14
g3
sg15
g3
sg16
S'1820'
p129
sg18
g19
sg20
S'.624'
p130
sg22
S'.506'
p131
sg24
S'NBA'
p132
sg26
g3
sg27
S'1373'
p133
sg29
S'294'
p134
sg31
S'689'
p135
sg33
S'1254'
p136
sg35
S'26'
p137
sg37
S'TOT'
p138
sg39
S'80'
p139
sg41
g3
sg42
S'695'
p140
sg44
S'430'
p141
sg46
S'1373'
p142
sg48
g3
sg49
S'1965-66'
p143
sg51
S'695'
p144
sg53
g3
sg54
S'.506'
p145
sg56
S'3352'
p146
sg58
g3
sba(isrc.gp1.models.Totals
Totals
p147
(dp148
g8
g3
sg9
g3
sg10
S'.452'
p149
sg12
S'18'
p150
sg14
g3
sg15
g3
sg16
S'152'
p151
sg18
g19
sg20
S'.597'
p152
sg22
S'.452'
p153
sg24
S'NBA'
p154
sg26
g3
sg27
S'124'
p155
sg29
S'32'
p156
sg31
S'67'
p157
sg33
S'102'
p158
sg35
S'26'
p159
sg37
S'BAL'
p160
sg39
S'8'
p161
sg41
g3
sg42
S'56'
p162
sg44
S'40'
p163
sg46
S'124'
p164
sg48
g3
sg49
S'1965-66'
p165
sg51
S'56'
p166
sg53
g3
sg54
S'.452'
p167
sg56
S'268'
p168
sg58
g3
sba(isrc.gp1.models.Totals
Totals
p169
(dp170
g8
g3
sg9
g3
sg10
S'.512'
p171
sg12
S'217'
p172
sg14
g3
sg15
g3
sg16
S'1668'
p173
sg18
g19
sg20
S'.627'
p174
sg22
S'.512'
p175
sg24
S'NBA'
p176
sg26
g3
sg27
S'1249'
p177
sg29
S'262'
p178
sg31
S'622'
p179
sg33
S'1152'
p180
sg35
S'26'
p181
sg37
S'NYK'
p182
sg39
S'72'
p183
sg41
g3
sg42
S'639'
p184
sg44
S'390'
p185
sg46
S'1249'
p186
sg48
g3
sg49
S'1965-66'
p187
sg51
S'639'
p188
sg53
g3
sg54
S'.512'
p189
sg56
S'3084'
p190
sg58
g3
sba(isrc.gp1.models.Totals
Totals
p191
(dp192
g8
g3
sg9
g3
sg10
S'.521'
p193
sg12
S'206'
p194
sg14
g3
sg15
g3
sg16
S'1499'
p195
sg18
g19
sg20
S'.636'
p196
sg22
S'.521'
p197
sg24
S'NBA'
p198
sg26
g3
sg27
S'1084'
p199
sg29
S'275'
p200
sg31
S'580'
p201
sg33
S'1064'
p202
sg35
S'27'
p203
sg37
S'NYK'
p204
sg39
S'79'
p205
sg41
g3
sg42
S'565'
p206
sg44
S'369'
p207
sg46
S'1084'
p208
sg48
g3
sg49
S'1966-67'
p209
sg51
S'565'
p210
sg53
g3
sg54
S'.521'
p211
sg56
S'3010'
p212
sg58
g3
sba(isrc.gp1.models.Totals
Totals
p213
(dp214
g8
g3
sg9
g3
sg10
S'.541'
p215
sg12
S'164'
p216
sg14
g3
sg15
g3
sg16
S'1372'
p217
sg18
g19
sg20
S'.662'
p218
sg22
S'.541'
p219
sg24
S'NBA'
p220
sg26
g3
sg27
S'944'
p221
sg29
S'259'
p222
sg31
S'529'
p223
sg33
S'961'
p224
sg35
S'28'
p225
sg37
S'NYK'
p226
sg39
S'82'
p227
sg41
g3
sg42
S'511'
p228
sg44
S'350'
p229
sg46
S'944'
p230
sg48
g3
sg49
S'1967-68'
p231
sg51
S'511'
p232
sg53
g3
sg54
S'.541'
p233
sg56
S'2695'
p234
sg58
g3
sba(isrc.gp1.models.Totals
Totals
p235
(dp236
g8
g3
sg9
g3
sg10
S'.510'
p237
sg12
S'176'
p238
sg14
g3
sg15
g3
sg16
S'1527'
p239
sg18
g19
sg20
S'.649'
p240
sg22
S'.510'
p241
sg24
S'NBA'
p242
sg26
g3
sg27
S'1103'
p243
sg29
S'320'
p244
sg31
S'618'
p245
sg33
S'1101'
p246
sg35
S'29'
p247
sg37
S'TOT'
p248
sg39
S'88'
p249
sg41
g3
sg42
S'563'
p250
sg44
S'401'
p251
sg46
S'1103'
p252
sg48
g3
sg49
S'1968-69'
p253
sg51
S'563'
p254
sg53
g3
sg54
S'.510'
p255
sg56
S'3159'
p256
sg58
g3
sba(isrc.gp1.models.Totals
Totals
p257
(dp258
g8
g3
sg9
g3
sg10
S'.507'
p259
sg12
S'77'
p260
sg14
g3
sg15
g3
sg16
S'533'
p261
sg18
g19
sg20
S'.619'
p262
sg22
S'.507'
p263
sg24
S'NBA'
p264
sg26
g3
sg27
S'402'
p265
sg29
S'123'
p266
sg31
S'202'
p267
sg33
S'385'
p268
sg35
S'29'
p269
sg37
S'NYK'
p270
sg39
S'35'
p271
sg41
g3
sg42
S'204'
p272
sg44
S'125'
p273
sg46
S'402'
p274
sg48
g3
sg49
S'1968-69'
p275
sg51
S'204'
p276
sg53
g3
sg54
S'.507'
p277
sg56
S'1136'
p278
sg58
g3
sba(isrc.gp1.models.Totals
Totals
p279
(dp280
g8
g3
sg9
g3
sg10
S'.512'
p281
sg12
S'99'
p282
sg14
g3
sg15
g3
sg16
S'994'
p283
sg18
g19
sg20
S'.663'
p284
sg22
S'.512'
p285
sg24
S'NBA'
p286
sg26
g3
sg27
S'701'
p287
sg29
S'197'
p288
sg31
S'416'
p289
sg33
S'716'
p290
sg35
S'29'
p291
sg37
S'DET'
p292
sg39
S'53'
p293
sg41
g3
sg42
S'359'
p294
sg44
S'276'
p295
sg46
S'701'
p296
sg48
g3
sg49
S'1968-69'
p297
sg51
S'359'
p298
sg53
g3
sg54
S'.512'
p299
sg56
S'2023'
p300
sg58
g3
sba(isrc.gp1.models.Totals
Totals
p301
(dp302
g8
g3
sg9
g3
sg10
S'.523'
p303
sg12
S'143'
p304
sg14
g3
sg15
g3
sg16
S'917'
p305
sg18
g19
sg20
S'.576'
p306
sg22
S'.523'
p307
sg24
S'NBA'
p308
sg26
g3
sg27
S'671'
p309
sg29
S'260'
p310
sg31
S'373'
p311
sg33
S'707'
p312
sg35
S'30'
p313
sg37
S'TOT'
p314
sg39
S'79'
p315
sg41
g3
sg42
S'351'
p316
sg44
S'215'
p317
sg46
S'671'
p318
sg48
g3
sg49
S'1969-70'
p319
sg51
S'351'
p320
sg53
g3
sg54
S'.523'
p321
sg56
S'2028'
p322
sg58
g3
sba(isrc.gp1.models.Totals
Totals
p323
(dp324
g8
g3
sg9
g3
sg10
S'.547'
p325
sg12
S'55'
p326
sg14
g3
sg15
g3
sg16
S'560'
p327
sg18
g19
sg20
S'.562'
p328
sg22
S'.547'
p329
sg24
S'NBA'
p330
sg26
g3
sg27
S'384'
p331
sg29
S'163'
p332
sg31
S'249'
p333
sg33
S'397'
p334
sg35
S'30'
p335
sg37
S'DET'
p336
sg39
S'56'
p337
sg41
g3
sg42
S'210'
p338
sg44
S'140'
p339
sg46
S'384'
p340
sg48
g3
sg49
S'1969-70'
p341
sg51
S'210'
p342
sg53
g3
sg54
S'.547'
p343
sg56
S'1173'
p344
sg58
g3
sba(isrc.gp1.models.Totals
Totals
p345
(dp346
g8
g3
sg9
g3
sg10
S'.491'
p347
sg12
S'88'
p348
sg14
g3
sg15
g3
sg16
S'357'
p349
sg18
g19
sg20
S'.605'
p350
sg22
S'.491'
p351
sg24
S'NBA'
p352
sg26
g3
sg27
S'287'
p353
sg29
S'97'
p354
sg31
S'124'
p355
sg33
S'310'
p356
sg35
S'30'
p357
sg37
S'ATL'
p358
sg39
S'23'
p359
sg41
g3
sg42
S'141'
p360
sg44
S'75'
p361
sg46
S'287'
p362
sg48
g3
sg49
S'1969-70'
p363
sg51
S'141'
p364
sg53
g3
sg54
S'.491'
p365
sg56
S'855'
p366
sg58
g3
sba(isrc.gp1.models.Totals
Totals
p367
(dp368
g8
g3
sg9
g3
sg10
S'.493'
p369
sg12
S'230'
p370
sg14
g3
sg15
g3
sg16
S'1202'
p371
sg18
g19
sg20
S'.604'
p372
sg22
S'.493'
p373
sg24
S'NBA'
p374
sg26
g3
sg27
S'879'
p375
sg29
S'271'
p376
sg31
S'556'
p377
sg33
S'1060'
p378
sg35
S'31'
p379
sg37
S'ATL'
p380
sg39
S'82'
p381
sg41
g3
sg42
S'433'
p382
sg44
S'336'
p383
sg46
S'879'
p384
sg48
g3
sg49
S'1970-71'
p385
sg51
S'433'
p386
sg53
g3
sg54
S'.493'
p387
sg56
S'2908'
p388
sg58
g3
sba(isrc.gp1.models.Totals
Totals
p389
(dp390
g8
g3
sg9
g3
sg10
S'.545'
p391
sg12
S'262'
p392
sg14
g3
sg15
g3
sg16
S'1526'
p393
sg18
g19
sg20
S'.585'
p394
sg22
S'.545'
p395
sg24
S'NBA'
p396
sg26
g3
sg27
S'1089'
p397
sg29
S'255'
p398
sg31
S'581'
p399
sg33
S'1049'
p400
sg35
S'32'
p401
sg37
S'ATL'
p402
sg39
S'82'
p403
sg41
g3
sg42
S'593'
p404
sg44
S'340'
p405
sg46
S'1089'
p406
sg48
g3
sg49
S'1971-72'
p407
sg51
S'593'
p408
sg53
g3
sg54
S'.545'
p409
sg56
S'3187'
p410
sg58
g3
sba(isrc.gp1.models.Totals
Totals
p411
(dp412
g8
g3
sg9
g3
sg10
S'.505'
p413
sg12
S'179'
p414
sg14
g3
sg15
g3
sg16
S'1193'
p415
sg18
g19
sg20
S'.538'
p416
sg22
S'.505'
p417
sg24
S'NBA'
p418
sg26
g3
sg27
S'901'
p419
sg29
S'244'
p420
sg31
S'526'
p421
sg33
S'964'
p422
sg35
S'33'
p423
sg37
S'ATL'
p424
sg39
S'74'
p425
sg41
g3
sg42
S'455'
p426
sg44
S'283'
p427
sg46
S'901'
p428
sg48
g3
sg49
S'1972-73'
p429
sg51
S'455'
p430
sg53
g3
sg54
S'.505'
p431
sg56
S'2802'
p432
sg58
g3
sba(isrc.gp1.models.Totals
Totals
p433
(dp434
g8
S'264'
p435
sg9
g3
sg10
S'.486'
p436
sg12
S'189'
p437
sg14
g3
sg15
g3
sg16
S'1011'
p438
sg18
g19
sg20
S'.608'
p439
sg22
S'.486'
p440
sg24
S'NBA'
p441
sg26
S'52'
p442
sg27
S'801'
p443
sg29
S'232'
p444
sg31
S'383'
p445
sg33
S'740'
p446
sg35
S'34'
p447
sg37
S'ATL'
p448
sg39
S'77'
p449
sg41
S'48'
p450
sg42
S'389'
p451
sg44
S'233'
p452
sg46
S'801'
p453
sg48
S'476'
p454
sg49
S'1973-74'
p455
sg51
S'389'
p456
sg53
g3
sg54
S'.486'
p457
sg56
S'2440'
p458
sg58
g3
sba(isrc.gp1.models.Totals
Totals
p459
(dp460
g8
S'0'
p461
sg9
g3
sg10
S'1.000'
p462
sg12
g461
sg14
g3
sg15
g3
sg16
S'6'
p463
sg18
g19
sg20
S'1.000'
p464
sg22
S'1.000'
p465
sg24
S'NBA'
p466
sg26
g461
sg27
S'2'
p467
sg29
g467
sg31
g467
sg33
S'5'
p468
sg35
S'35'
p469
sg37
S'NOJ'
p470
sg39
S'1'
p471
sg41
g461
sg42
g467
sg44
g467
sg46
g467
sg48
g468
sg49
S'1974-75'
p472
sg51
g467
sg53
g3
sg54
S'1.000'
p473
sg56
S'14'
p474
sg58
g3
sbasS'_college'
p475
S'Indiana University'
p476
sS'_toYear'
p477
S'1975'
p478
sS'_height'
p479
S'6-11'
p480
sS'_active'
p481
I00
sS'_shootingHand'
p482
VRight
p483
sS'_name'
p484
S'Walt Bellamy'
p485
sS'_per100Possessions'
p486
(lp487
(isrc.gp1.models.Per100Possession
Per100Possession
p488
(dp489
g8
S'4.7'
p490
sg9
g3
sg10
S'.486'
p491
sS'_offensiveRating'
p492
g3
sg12
S'3.4'
p493
sg14
g3
sg15
g3
sg16
S'18.0'
p494
sg18
g19
sS'_defensiveRating'
p495
S'99'
p496
sg20
S'.608'
p497
sg24
S'NBA'
p498
sg26
S'0.9'
p499
sg27
S'14.2'
p500
sg29
S'4.1'
p501
sg31
S'6.8'
p502
sg33
S'13.1'
p503
sg35
S'34'
p504
sg37
S'ATL'
p505
sg39
S'77'
p506
sg41
S'0.9'
p507
sg42
S'6.9'
p508
sg44
S'4.1'
p509
sg46
S'14.2'
p510
sg48
S'8.5'
p511
sg49
S'1973-74'
p512
sg51
S'6.9'
p513
sg53
g3
sg54
S'.486'
p514
sg56
S'2440'
p515
sg58
g3
sba(isrc.gp1.models.Per100Possession
Per100Possession
p516
(dp517
g8
S'0.0'
p518
sg9
g3
sg10
S'1.000'
p519
sg492
g3
sg12
S'0.0'
p520
sg14
g3
sg15
g3
sg16
S'18.8'
p521
sg18
g19
sg495
S'97'
p522
sg20
S'1.000'
p523
sg24
S'NBA'
p524
sg26
S'0.0'
p525
sg27
S'6.3'
p526
sg29
S'6.3'
p527
sg31
S'6.3'
p528
sg33
S'15.7'
p529
sg35
S'35'
p530
sg37
S'NOJ'
p531
sg39
g471
sg41
S'0.0'
p532
sg42
S'6.3'
p533
sg44
S'6.3'
p534
sg46
S'6.3'
p535
sg48
S'15.7'
p536
sg49
S'1974-75'
p537
sg51
S'6.3'
p538
sg53
g3
sg54
S'1.000'
p539
sg56
S'14'
p540
sg58
g3
sbasS'_advanced'
p541
(lp542
(isrc.gp1.models.Advanced
Advanced
p543
(dp544
S'_offensiveReboundPercentage'
p545
g3
sS'_turnOverPercentage'
p546
g3
sS'_winSharesPer48Minutes'
p547
S'.233'
p548
sS'_stealPercentage'
p549
g3
sS'_usagePercentage'
p550
g3
sS'_totalReboundsPercentage'
p551
g3
sS'_defensiveBoxPlusMinus'
p552
g3
sg18
g19
sS'_valueOverReplacementPlayer'
p553
g3
sS'_trueShootingPercentage'
p554
S'.554'
p555
sS'_defensiveReboundPercentage'
p556
g3
sS'_freeThrowsAttempRate'
p557
S'.455'
p558
sS'_threePointsAttempRate'
p559
g3
sg24
S'NBA'
p560
sS'_offensiveBoxPlusMinues'
p561
g3
sS'_assistPercentage'
p562
g3
sS'_defensiveWinShares'
p563
S'2.8'
p564
sg35
S'22'
p565
sg37
S'CHP'
p566
sg39
S'79'
p567
sS'_blockPercentage'
p568
g3
sS'_playerEfficiencyRating'
p569
S'26.3'
p570
sS'_offensiveWinShares'
p571
S'13.4'
p572
sg56
S'3344'
p573
sS'_boxPlusMinus'
p574
g3
sg49
S'1961-62'
p575
sS'_winShares'
p576
S'16.3'
p577
sba(isrc.gp1.models.Advanced
Advanced
p578
(dp579
g545
g3
sg546
g3
sg547
S'.199'
p580
sg549
g3
sg550
g3
sg551
g3
sg552
g3
sg18
g19
sg553
g3
sg554
S'.571'
p581
sg556
g3
sg557
S'.515'
p582
sg559
g3
sg24
S'NBA'
p583
sg561
g3
sg562
g3
sg563
S'1.1'
p584
sg35
S'23'
p585
sg37
S'CHZ'
p586
sg39
S'80'
p587
sg568
g3
sg569
S'24.9'
p588
sg571
S'12.6'
p589
sg56
S'3306'
p590
sg574
g3
sg49
S'1962-63'
p591
sg576
S'13.7'
p592
sba(isrc.gp1.models.Advanced
Advanced
p593
(dp594
g545
g3
sg546
g3
sg547
S'.203'
p595
sg549
g3
sg550
g3
sg551
g3
sg552
g3
sg18
g19
sg553
g3
sg554
S'.555'
p596
sg556
g3
sg557
S'.521'
p597
sg559
g3
sg24
S'NBA'
p598
sg561
g3
sg562
g3
sg563
S'2.9'
p599
sg35
S'24'
p600
sg37
S'BAL'
p601
sg39
S'80'
p602
sg568
g3
sg569
S'23.3'
p603
sg571
S'11.4'
p604
sg56
S'3394'
p605
sg574
g3
sg49
S'1963-64'
p606
sg576
S'14.4'
p607
sba(isrc.gp1.models.Advanced
Advanced
p608
(dp609
g545
g3
sg546
g3
sg547
S'.175'
p610
sg549
g3
sg550
g3
sg551
g3
sg552
g3
sg18
g19
sg553
g3
sg554
S'.559'
p611
sg556
g3
sg557
S'.522'
p612
sg559
g3
sg24
S'NBA'
p613
sg561
g3
sg562
S'8.8'
p614
sg563
S'0.9'
p615
sg35
S'25'
p616
sg37
S'BAL'
p617
sg39
S'80'
p618
sg568
g3
sg569
S'21.7'
p619
sg571
S'11.2'
p620
sg56
S'3301'
p621
sg574
g3
sg49
S'1964-65'
p622
sg576
S'12.1'
p623
sba(isrc.gp1.models.Advanced
Advanced
p624
(dp625
g545
g3
sg546
g3
sg547
S'.136'
p626
sg549
g3
sg550
g3
sg551
g3
sg552
g3
sg18
g19
sg553
g3
sg554
S'.543'
p627
sg556
g3
sg557
S'.502'
p628
sg559
g3
sg24
S'NBA'
p629
sg561
g3
sg562
S'9.8'
p630
sg563
S'1.2'
p631
sg35
S'26'
p632
sg37
S'TOT'
p633
sg39
S'80'
p634
sg568
g3
sg569
S'19.3'
p635
sg571
S'8.3'
p636
sg56
S'3352'
p637
sg574
g3
sg49
S'1965-66'
p638
sg576
S'9.5'
p639
sba(isrc.gp1.models.Advanced
Advanced
p640
(dp641
g545
g3
sg546
g3
sg547
S'.108'
p642
sg549
g3
sg550
g3
sg551
g3
sg552
g3
sg18
g19
sg553
g3
sg554
S'.495'
p643
sg556
g3
sg557
S'.540'
p644
sg559
g3
sg24
S'NBA'
p645
sg561
g3
sg562
S'9.3'
p646
sg563
S'0.2'
p647
sg35
S'26'
p648
sg37
S'BAL'
p649
sg39
g161
sg568
g3
sg569
S'17.7'
p650
sg571
S'0.4'
p651
sg56
S'268'
p652
sg574
g3
sg49
S'1965-66'
p653
sg576
S'0.6'
p654
sba(isrc.gp1.models.Advanced
Advanced
p655
(dp656
g545
g3
sg546
g3
sg547
S'.139'
p657
sg549
g3
sg550
g3
sg551
g3
sg552
g3
sg18
g19
sg553
g3
sg554
S'.548'
p658
sg556
g3
sg557
S'.498'
p659
sg559
g3
sg24
S'NBA'
p660
sg561
g3
sg562
S'9.8'
p661
sg563
S'1.0'
p662
sg35
S'26'
p663
sg37
S'NYK'
p664
sg39
S'72'
p665
sg568
g3
sg569
S'19.4'
p666
sg571
S'7.9'
p667
sg56
S'3084'
p668
sg574
g3
sg49
S'1965-66'
p669
sg576
S'8.9'
p670
sba(isrc.gp1.models.Advanced
Advanced
p671
(dp672
g545
g3
sg546
g3
sg547
S'.140'
p673
sg549
g3
sg550
g3
sg551
g3
sg552
g3
sg18
g19
sg553
g3
sg554
S'.560'
p674
sg556
g3
sg557
S'.535'
p675
sg559
g3
sg24
S'NBA'
p676
sg561
g3
sg562
S'9.2'
p677
sg563
S'1.4'
p678
sg35
S'27'
p679
sg37
S'NYK'
p680
sg39
S'79'
p681
sg568
g3
sg569
S'18.4'
p682
sg571
S'7.4'
p683
sg56
S'3010'
p684
sg574
g3
sg49
S'1966-67'
p685
sg576
S'8.8'
p686
sba(isrc.gp1.models.Advanced
Advanced
p687
(dp688
g545
g3
sg546
g3
sg547
S'.198'
p689
sg549
g3
sg550
g3
sg551
g3
sg552
g3
sg18
g19
sg553
g3
sg554
S'.583'
p690
sg556
g3
sg557
S'.560'
p691
sg559
g3
sg24
S'NBA'
p692
sg561
g3
sg562
S'8.3'
p693
sg563
S'3.3'
p694
sg35
S'28'
p695
sg37
S'NYK'
p696
sg39
S'82'
p697
sg568
g3
sg569
S'19.1'
p698
sg571
S'7.9'
p699
sg56
S'2695'
p700
sg574
g3
sg49
S'1967-68'
p701
sg576
S'11.1'
p702
sba(isrc.gp1.models.Advanced
Advanced
p703
(dp704
g545
g3
sg546
g3
sg547
S'.157'
p705
sg549
g3
sg550
g3
sg551
g3
sg552
g3
sg18
g19
sg553
g3
sg554
S'.555'
p706
sg556
g3
sg557
S'.560'
p707
sg559
g3
sg24
S'NBA'
p708
sg561
g3
sg562
S'7.6'
p709
sg563
S'2.6'
p710
sg35
S'29'
p711
sg37
S'TOT'
p712
sg39
S'88'
p713
sg568
g3
sg569
S'18.0'
p714
sg571
S'7.7'
p715
sg56
S'3159'
p716
sg574
g3
sg49
S'1968-69'
p717
sg576
S'10.4'
p718
sba(isrc.gp1.models.Advanced
Advanced
p719
(dp720
g545
g3
sg546
g3
sg547
S'.181'
p721
sg549
g3
sg550
g3
sg551
g3
sg552
g3
sg18
g19
sg553
g3
sg554
S'.543'
p722
sg556
g3
sg557
S'.502'
p723
sg559
g3
sg24
S'NBA'
p724
sg561
g3
sg562
S'9.3'
p725
sg563
S'1.8'
p726
sg35
S'29'
p727
sg37
S'NYK'
p728
sg39
S'35'
p729
sg568
g3
sg569
S'17.9'
p730
sg571
S'2.5'
p731
sg56
S'1136'
p732
sg574
g3
sg49
S'1968-69'
p733
sg576
S'4.3'
p734
sba(isrc.gp1.models.Advanced
Advanced
p735
(dp736
g545
g3
sg546
g3
sg547
S'.144'
p737
sg549
g3
sg550
g3
sg551
g3
sg552
g3
sg18
g19
sg553
g3
sg554
S'.562'
p738
sg556
g3
sg557
S'.593'
p739
sg559
g3
sg24
S'NBA'
p740
sg561
g3
sg562
S'6.6'
p741
sg563
S'0.9'
p742
sg35
S'29'
p743
sg37
S'DET'
p744
sg39
S'53'
p745
sg568
g3
sg569
S'18.0'
p746
sg571
S'5.2'
p747
sg56
S'2023'
p748
sg574
g3
sg49
S'1968-69'
p749
sg576
S'6.1'
p750
sba(isrc.gp1.models.Advanced
Advanced
p751
(dp752
g545
g3
sg546
g3
sg547
S'.115'
p753
sg549
g3
sg550
g3
sg551
g3
sg552
g3
sg18
g19
sg553
g3
sg554
S'.549'
p754
sg556
g3
sg557
S'.556'
p755
sg559
g3
sg24
S'NBA'
p756
sg561
g3
sg562
S'9.2'
p757
sg563
S'1.3'
p758
sg35
S'30'
p759
sg37
S'TOT'
p760
sg39
S'79'
p761
sg568
g3
sg569
S'16.4'
p762
sg571
S'3.5'
p763
sg56
S'2028'
p764
sg574
g3
sg49
S'1969-70'
p765
sg576
S'4.9'
p766
sba(isrc.gp1.models.Advanced
Advanced
p767
(dp768
g545
g3
sg546
g3
sg547
S'.133'
p769
sg549
g3
sg550
g3
sg551
g3
sg552
g3
sg18
g19
sg553
g3
sg554
S'.567'
p770
sg556
g3
sg557
S'.648'
p771
sg559
g3
sg24
S'NBA'
p772
sg561
g3
sg562
S'6.5'
p773
sg563
S'0.7'
p774
sg35
S'30'
p775
sg37
S'DET'
p776
sg39
S'56'
p777
sg568
g3
sg569
S'16.7'
p778
sg571
S'2.6'
p779
sg56
S'1173'
p780
sg574
g3
sg49
S'1969-70'
p781
sg576
S'3.3'
p782
sba(isrc.gp1.models.Advanced
Advanced
p783
(dp784
g545
g3
sg546
g3
sg547
S'.090'
p785
sg549
g3
sg550
g3
sg551
g3
sg552
g3
sg18
g19
sg553
g3
sg554
S'.523'
p786
sg556
g3
sg557
S'.432'
p787
sg559
g3
sg24
S'NBA'
p788
sg561
g3
sg562
S'12.9'
p789
sg563
S'0.6'
p790
sg35
S'30'
p791
sg37
S'ATL'
p792
sg39
S'23'
p793
sg568
g3
sg569
S'16.0'
p794
sg571
S'1.0'
p795
sg56
S'855'
p796
sg574
g3
sg49
S'1969-70'
p797
sg576
S'1.6'
p798
sba(isrc.gp1.models.Advanced
Advanced
p799
(dp800
g545
g3
sg546
g3
sg547
S'.102'
p801
sg549
g3
sg550
g3
sg551
S'16.5'
p802
sg552
g3
sg18
g19
sg553
g3
sg554
S'.535'
p803
sg556
g3
sg557
S'.633'
p804
sg559
g3
sg24
S'NBA'
p805
sg561
g3
sg562
S'10.3'
p806
sg563
S'1.6'
p807
sg35
S'31'
p808
sg37
S'ATL'
p809
sg39
S'82'
p810
sg568
g3
sg569
S'16.5'
p811
sg571
S'4.6'
p812
sg56
S'2908'
p813
sg574
g3
sg49
S'1970-71'
p814
sg576
S'6.2'
p815
sba(isrc.gp1.models.Advanced
Advanced
p816
(dp817
g545
g3
sg546
g3
sg547
S'.155'
p818
sg549
g3
sg550
g3
sg551
S'16.1'
p819
sg552
g3
sg18
g19
sg553
g3
sg554
S'.567'
p820
sg556
g3
sg557
S'.534'
p821
sg559
g3
sg24
S'NBA'
p822
sg561
g3
sg562
S'11.8'
p823
sg563
S'2.5'
p824
sg35
S'32'
p825
sg37
S'ATL'
p826
sg39
S'82'
p827
sg568
g3
sg569
S'19.0'
p828
sg571
S'7.8'
p829
sg56
S'3187'
p830
sg574
g3
sg49
S'1971-72'
p831
sg576
S'10.3'
p832
sba(isrc.gp1.models.Advanced
Advanced
p833
(dp834
g545
g3
sg546
g3
sg547
S'.122'
p835
sg549
g3
sg550
g3
sg551
S'16.4'
p836
sg552
g3
sg18
g19
sg553
g3
sg554
S'.527'
p837
sg556
g3
sg557
S'.584'
p838
sg559
g3
sg24
S'NBA'
p839
sg561
g3
sg562
S'8.3'
p840
sg563
S'2.9'
p841
sg35
S'33'
p842
sg37
S'ATL'
p843
sg39
S'74'
p844
sg568
g3
sg569
S'15.9'
p845
sg571
S'4.2'
p846
sg56
S'2802'
p847
sg574
g3
sg49
S'1972-73'
p848
sg576
S'7.1'
p849
sba(isrc.gp1.models.Advanced
Advanced
p850
(dp851
g545
S'10.7'
p852
sg546
g3
sg547
S'.107'
p853
sg549
S'0.9'
p854
sg550
g3
sg551
S'15.3'
p855
sg552
S'0.1'
p856
sg18
g19
sg553
S'1.4'
p857
sg554
S'.521'
p858
sg556
S'20.0'
p859
sg557
S'.478'
p860
sg559
g3
sg24
S'NBA'
p861
sg561
S'0.2'
p862
sg562
S'10.3'
p863
sg563
S'2.2'
p864
sg35
S'34'
p865
sg37
S'ATL'
p866
sg39
S'77'
p867
sg568
S'1.0'
p868
sg569
S'15.2'
p869
sg571
S'3.2'
p870
sg56
S'2440'
p871
sg574
S'0.3'
p872
sg49
S'1973-74'
p873
sg576
S'5.4'
p874
sba(isrc.gp1.models.Advanced
Advanced
p875
(dp876
g545
S'0.0'
p877
sg546
g3
sg547
S'.222'
p878
sg549
S'0.0'
p879
sg550
g3
sg551
S'17.9'
p880
sg552
S'-5.5'
p881
sg18
g19
sg553
S'0.0'
p882
sg554
S'1.042'
p883
sg556
S'37.0'
p884
sg557
S'1.000'
p885
sg559
g3
sg24
S'NBA'
p886
sg561
S'-3.1'
p887
sg562
S'0.0'
p888
sg563
S'0.0'
p889
sg35
S'35'
p890
sg37
S'NOJ'
p891
sg39
g471
sg568
S'0.0'
p892
sg569
S'16.4'
p893
sg571
S'0.0'
p894
sg56
S'14'
p895
sg574
S'-8.6'
p896
sg49
S'1974-75'
p897
sg576
S'0.1'
p898
sbasS'_per36Minutes'
p899
(lp900
(isrc.gp1.models.Per36Minutes
Per36Minutes
p901
(dp902
g8
g3
sg9
g3
sg10
S'.519'
p903
sg12
S'2.3'
p904
sg14
g3
sg15
g3
sg16
S'26.9'
p905
sg18
g19
sg20
S'.644'
p906
sg24
S'NBA'
p907
sg26
g3
sg27
S'20.2'
p908
sg29
S'3.0'
p909
sg31
S'9.2'
p910
sg33
S'16.1'
p911
sg35
S'22'
p912
sg37
S'CHP'
p913
sg39
S'79'
p914
sg41
g3
sg42
S'10.5'
p915
sg44
S'5.9'
p916
sg46
S'20.2'
p917
sg48
g3
sg49
S'1961-62'
p918
sg51
S'10.5'
p919
sg53
g3
sg54
S'.519'
p920
sg56
S'3344'
p921
sg58
g3
sba(isrc.gp1.models.Per36Minutes
Per36Minutes
p922
(dp923
g8
g3
sg9
g3
sg10
S'.527'
p924
sg12
S'2.5'
p925
sg14
g3
sg15
g3
sg16
S'24.3'
p926
sg18
g19
sg20
S'.674'
p927
sg24
S'NBA'
p928
sg26
g3
sg27
S'17.4'
p929
sg29
S'3.1'
p930
sg31
S'8.9'
p931
sg33
S'14.3'
p932
sg35
S'23'
p933
sg37
S'CHZ'
p934
sg39
S'80'
p935
sg41
g3
sg42
S'9.1'
p936
sg44
S'6.0'
p937
sg46
S'17.4'
p938
sg48
g3
sg49
S'1962-63'
p939
sg51
S'9.1'
p940
sg53
g3
sg54
S'.527'
p941
sg56
S'3306'
p942
sg58
g3
sba(isrc.gp1.models.Per36Minutes
Per36Minutes
p943
(dp944
g8
g3
sg9
g3
sg10
S'.513'
p945
sg12
S'1.3'
p946
sg14
g3
sg15
g3
sg16
S'22.9'
p947
sg18
g19
sg20
S'.651'
p948
sg24
S'NBA'
p949
sg26
g3
sg27
S'16.8'
p950
sg29
S'3.2'
p951
sg31
S'8.8'
p952
sg33
S'14.4'
p953
sg35
S'24'
p954
sg37
S'BAL'
p955
sg39
S'80'
p956
sg41
g3
sg42
S'8.6'
p957
sg44
S'5.7'
p958
sg46
S'16.8'
p959
sg48
g3
sg49
S'1963-64'
p960
sg51
S'8.6'
p961
sg53
g3
sg54
S'.513'
p962
sg56
S'3394'
p963
sg58
g3
sba(isrc.gp1.models.Per36Minutes
Per36Minutes
p964
(dp965
g8
g3
sg9
g3
sg10
S'.509'
p966
sg12
S'2.1'
p967
sg14
g3
sg15
g3
sg16
S'21.6'
p968
sg18
g19
sg20
S'.685'
p969
sg24
S'NBA'
p970
sg26
g3
sg27
S'15.7'
p971
sg29
S'2.8'
p972
sg31
S'8.2'
p973
sg33
S'12.7'
p974
sg35
S'25'
p975
sg37
S'BAL'
p976
sg39
S'80'
p977
sg41
g3
sg42
S'8.0'
p978
sg44
S'5.6'
p979
sg46
S'15.7'
p980
sg48
g3
sg49
S'1964-65'
p981
sg51
S'8.0'
p982
sg53
g3
sg54
S'.509'
p983
sg56
S'3301'
p984
sg58
g3
sba(isrc.gp1.models.Per36Minutes
Per36Minutes
p985
(dp986
g8
g3
sg9
g3
sg10
S'.506'
p987
sg12
S'2.5'
p988
sg14
g3
sg15
g3
sg16
S'19.5'
p989
sg18
g19
sg20
S'.624'
p990
sg24
S'NBA'
p991
sg26
g3
sg27
S'14.7'
p992
sg29
S'3.2'
p993
sg31
S'7.4'
p994
sg33
S'13.5'
p995
sg35
S'26'
p996
sg37
S'TOT'
p997
sg39
S'80'
p998
sg41
g3
sg42
S'7.5'
p999
sg44
S'4.6'
p1000
sg46
S'14.7'
p1001
sg48
g3
sg49
S'1965-66'
p1002
sg51
S'7.5'
p1003
sg53
g3
sg54
S'.506'
p1004
sg56
S'3352'
p1005
sg58
g3
sba(isrc.gp1.models.Per36Minutes
Per36Minutes
p1006
(dp1007
g8
g3
sg9
g3
sg10
S'.452'
p1008
sg12
S'2.4'
p1009
sg14
g3
sg15
g3
sg16
S'20.4'
p1010
sg18
g19
sg20
S'.597'
p1011
sg24
S'NBA'
p1012
sg26
g3
sg27
S'16.7'
p1013
sg29
S'4.3'
p1014
sg31
S'9.0'
p1015
sg33
S'13.7'
p1016
sg35
S'26'
p1017
sg37
S'BAL'
p1018
sg39
g161
sg41
g3
sg42
S'7.5'
p1019
sg44
S'5.4'
p1020
sg46
S'16.7'
p1021
sg48
g3
sg49
S'1965-66'
p1022
sg51
S'7.5'
p1023
sg53
g3
sg54
S'.452'
p1024
sg56
S'268'
p1025
sg58
g3
sba(isrc.gp1.models.Per36Minutes
Per36Minutes
p1026
(dp1027
g8
g3
sg9
g3
sg10
S'.512'
p1028
sg12
S'2.5'
p1029
sg14
g3
sg15
g3
sg16
S'19.5'
p1030
sg18
g19
sg20
S'.627'
p1031
sg24
S'NBA'
p1032
sg26
g3
sg27
S'14.6'
p1033
sg29
S'3.1'
p1034
sg31
S'7.3'
p1035
sg33
S'13.4'
p1036
sg35
S'26'
p1037
sg37
S'NYK'
p1038
sg39
S'72'
p1039
sg41
g3
sg42
S'7.5'
p1040
sg44
S'4.6'
p1041
sg46
S'14.6'
p1042
sg48
g3
sg49
S'1965-66'
p1043
sg51
S'7.5'
p1044
sg53
g3
sg54
S'.512'
p1045
sg56
S'3084'
p1046
sg58
g3
sba(isrc.gp1.models.Per36Minutes
Per36Minutes
p1047
(dp1048
g8
g3
sg9
g3
sg10
S'.521'
p1049
sg12
S'2.5'
p1050
sg14
g3
sg15
g3
sg16
S'17.9'
p1051
sg18
g19
sg20
S'.636'
p1052
sg24
S'NBA'
p1053
sg26
g3
sg27
S'13.0'
p1054
sg29
S'3.3'
p1055
sg31
S'6.9'
p1056
sg33
S'12.7'
p1057
sg35
S'27'
p1058
sg37
S'NYK'
p1059
sg39
S'79'
p1060
sg41
g3
sg42
S'6.8'
p1061
sg44
S'4.4'
p1062
sg46
S'13.0'
p1063
sg48
g3
sg49
S'1966-67'
p1064
sg51
S'6.8'
p1065
sg53
g3
sg54
S'.521'
p1066
sg56
S'3010'
p1067
sg58
g3
sba(isrc.gp1.models.Per36Minutes
Per36Minutes
p1068
(dp1069
g8
g3
sg9
g3
sg10
S'.541'
p1070
sg12
S'2.2'
p1071
sg14
g3
sg15
g3
sg16
S'18.3'
p1072
sg18
g19
sg20
S'.662'
p1073
sg24
S'NBA'
p1074
sg26
g3
sg27
S'12.6'
p1075
sg29
S'3.5'
p1076
sg31
S'7.1'
p1077
sg33
S'12.8'
p1078
sg35
S'28'
p1079
sg37
S'NYK'
p1080
sg39
S'82'
p1081
sg41
g3
sg42
S'6.8'
p1082
sg44
S'4.7'
p1083
sg46
S'12.6'
p1084
sg48
g3
sg49
S'1967-68'
p1085
sg51
S'6.8'
p1086
sg53
g3
sg54
S'.541'
p1087
sg56
S'2695'
p1088
sg58
g3
sba(isrc.gp1.models.Per36Minutes
Per36Minutes
p1089
(dp1090
g8
g3
sg9
g3
sg10
S'.510'
p1091
sg12
S'2.0'
p1092
sg14
g3
sg15
g3
sg16
S'17.4'
p1093
sg18
g19
sg20
S'.649'
p1094
sg24
S'NBA'
p1095
sg26
g3
sg27
S'12.6'
p1096
sg29
S'3.6'
p1097
sg31
S'7.0'
p1098
sg33
S'12.5'
p1099
sg35
S'29'
p1100
sg37
S'TOT'
p1101
sg39
S'88'
p1102
sg41
g3
sg42
S'6.4'
p1103
sg44
S'4.6'
p1104
sg46
S'12.6'
p1105
sg48
g3
sg49
S'1968-69'
p1106
sg51
S'6.4'
p1107
sg53
g3
sg54
S'.510'
p1108
sg56
S'3159'
p1109
sg58
g3
sba(isrc.gp1.models.Per36Minutes
Per36Minutes
p1110
(dp1111
g8
g3
sg9
g3
sg10
S'.507'
p1112
sg12
S'2.4'
p1113
sg14
g3
sg15
g3
sg16
S'16.9'
p1114
sg18
g19
sg20
S'.619'
p1115
sg24
S'NBA'
p1116
sg26
g3
sg27
S'12.7'
p1117
sg29
S'3.9'
p1118
sg31
S'6.4'
p1119
sg33
S'12.2'
p1120
sg35
S'29'
p1121
sg37
S'NYK'
p1122
sg39
S'35'
p1123
sg41
g3
sg42
S'6.5'
p1124
sg44
S'4.0'
p1125
sg46
S'12.7'
p1126
sg48
g3
sg49
S'1968-69'
p1127
sg51
S'6.5'
p1128
sg53
g3
sg54
S'.507'
p1129
sg56
S'1136'
p1130
sg58
g3
sba(isrc.gp1.models.Per36Minutes
Per36Minutes
p1131
(dp1132
g8
g3
sg9
g3
sg10
S'.512'
p1133
sg12
S'1.8'
p1134
sg14
g3
sg15
g3
sg16
S'17.7'
p1135
sg18
g19
sg20
S'.663'
p1136
sg24
S'NBA'
p1137
sg26
g3
sg27
S'12.5'
p1138
sg29
S'3.5'
p1139
sg31
S'7.4'
p1140
sg33
S'12.7'
p1141
sg35
S'29'
p1142
sg37
S'DET'
p1143
sg39
S'53'
p1144
sg41
g3
sg42
S'6.4'
p1145
sg44
S'4.9'
p1146
sg46
S'12.5'
p1147
sg48
g3
sg49
S'1968-69'
p1148
sg51
S'6.4'
p1149
sg53
g3
sg54
S'.512'
p1150
sg56
S'2023'
p1151
sg58
g3
sba(isrc.gp1.models.Per36Minutes
Per36Minutes
p1152
(dp1153
g8
g3
sg9
g3
sg10
S'.523'
p1154
sg12
S'2.5'
p1155
sg14
g3
sg15
g3
sg16
S'16.3'
p1156
sg18
g19
sg20
S'.576'
p1157
sg24
S'NBA'
p1158
sg26
g3
sg27
S'11.9'
p1159
sg29
S'4.6'
p1160
sg31
S'6.6'
p1161
sg33
S'12.6'
p1162
sg35
S'30'
p1163
sg37
S'TOT'
p1164
sg39
S'79'
p1165
sg41
g3
sg42
S'6.2'
p1166
sg44
S'3.8'
p1167
sg46
S'11.9'
p1168
sg48
g3
sg49
S'1969-70'
p1169
sg51
S'6.2'
p1170
sg53
g3
sg54
S'.523'
p1171
sg56
S'2028'
p1172
sg58
g3
sba(isrc.gp1.models.Per36Minutes
Per36Minutes
p1173
(dp1174
g8
g3
sg9
g3
sg10
S'.547'
p1175
sg12
S'1.7'
p1176
sg14
g3
sg15
g3
sg16
S'17.2'
p1177
sg18
g19
sg20
S'.562'
p1178
sg24
S'NBA'
p1179
sg26
g3
sg27
S'11.8'
p1180
sg29
S'5.0'
p1181
sg31
S'7.6'
p1182
sg33
S'12.2'
p1183
sg35
S'30'
p1184
sg37
S'DET'
p1185
sg39
S'56'
p1186
sg41
g3
sg42
S'6.4'
p1187
sg44
S'4.3'
p1188
sg46
S'11.8'
p1189
sg48
g3
sg49
S'1969-70'
p1190
sg51
S'6.4'
p1191
sg53
g3
sg54
S'.547'
p1192
sg56
S'1173'
p1193
sg58
g3
sba(isrc.gp1.models.Per36Minutes
Per36Minutes
p1194
(dp1195
g8
g3
sg9
g3
sg10
S'.491'
p1196
sg12
S'3.7'
p1197
sg14
g3
sg15
g3
sg16
S'15.0'
p1198
sg18
g19
sg20
S'.605'
p1199
sg24
S'NBA'
p1200
sg26
g3
sg27
S'12.1'
p1201
sg29
S'4.1'
p1202
sg31
S'5.2'
p1203
sg33
S'13.1'
p1204
sg35
S'30'
p1205
sg37
S'ATL'
p1206
sg39
S'23'
p1207
sg41
g3
sg42
S'5.9'
p1208
sg44
S'3.2'
p1209
sg46
S'12.1'
p1210
sg48
g3
sg49
S'1969-70'
p1211
sg51
S'5.9'
p1212
sg53
g3
sg54
S'.491'
p1213
sg56
S'855'
p1214
sg58
g3
sba(isrc.gp1.models.Per36Minutes
Per36Minutes
p1215
(dp1216
g8
g3
sg9
g3
sg10
S'.493'
p1217
sg12
S'2.8'
p1218
sg14
g3
sg15
g3
sg16
S'14.9'
p1219
sg18
g19
sg20
S'.604'
p1220
sg24
S'NBA'
p1221
sg26
g3
sg27
S'10.9'
p1222
sg29
S'3.4'
p1223
sg31
S'6.9'
p1224
sg33
S'13.1'
p1225
sg35
S'31'
p1226
sg37
S'ATL'
p1227
sg39
S'82'
p1228
sg41
g3
sg42
S'5.4'
p1229
sg44
S'4.2'
p1230
sg46
S'10.9'
p1231
sg48
g3
sg49
S'1970-71'
p1232
sg51
S'5.4'
p1233
sg53
g3
sg54
S'.493'
p1234
sg56
S'2908'
p1235
sg58
g3
sba(isrc.gp1.models.Per36Minutes
Per36Minutes
p1236
(dp1237
g8
g3
sg9
g3
sg10
S'.545'
p1238
sg12
S'3.0'
p1239
sg14
g3
sg15
g3
sg16
S'17.2'
p1240
sg18
g19
sg20
S'.585'
p1241
sg24
S'NBA'
p1242
sg26
g3
sg27
S'12.3'
p1243
sg29
S'2.9'
p1244
sg31
S'6.6'
p1245
sg33
S'11.8'
p1246
sg35
S'32'
p1247
sg37
S'ATL'
p1248
sg39
S'82'
p1249
sg41
g3
sg42
S'6.7'
p1250
sg44
S'3.8'
p1251
sg46
S'12.3'
p1252
sg48
g3
sg49
S'1971-72'
p1253
sg51
S'6.7'
p1254
sg53
g3
sg54
S'.545'
p1255
sg56
S'3187'
p1256
sg58
g3
sba(isrc.gp1.models.Per36Minutes
Per36Minutes
p1257
(dp1258
g8
g3
sg9
g3
sg10
S'.505'
p1259
sg12
S'2.3'
p1260
sg14
g3
sg15
g3
sg16
S'15.3'
p1261
sg18
g19
sg20
S'.538'
p1262
sg24
S'NBA'
p1263
sg26
g3
sg27
S'11.6'
p1264
sg29
S'3.1'
p1265
sg31
S'6.8'
p1266
sg33
S'12.4'
p1267
sg35
S'33'
p1268
sg37
S'ATL'
p1269
sg39
S'74'
p1270
sg41
g3
sg42
S'5.8'
p1271
sg44
S'3.6'
p1272
sg46
S'11.6'
p1273
sg48
g3
sg49
S'1972-73'
p1274
sg51
S'5.8'
p1275
sg53
g3
sg54
S'.505'
p1276
sg56
S'2802'
p1277
sg58
g3
sba(isrc.gp1.models.Per36Minutes
Per36Minutes
p1278
(dp1279
g8
S'3.9'
p1280
sg9
g3
sg10
S'.486'
p1281
sg12
S'2.8'
p1282
sg14
g3
sg15
g3
sg16
S'14.9'
p1283
sg18
g19
sg20
S'.608'
p1284
sg24
S'NBA'
p1285
sg26
S'0.8'
p1286
sg27
S'11.8'
p1287
sg29
S'3.4'
p1288
sg31
S'5.7'
p1289
sg33
S'10.9'
p1290
sg35
S'34'
p1291
sg37
S'ATL'
p1292
sg39
S'77'
p1293
sg41
S'0.7'
p1294
sg42
S'5.7'
p1295
sg44
S'3.4'
p1296
sg46
S'11.8'
p1297
sg48
S'7.0'
p1298
sg49
S'1973-74'
p1299
sg51
S'5.7'
p1300
sg53
g3
sg54
S'.486'
p1301
sg56
S'2440'
p1302
sg58
g3
sba(isrc.gp1.models.Per36Minutes
Per36Minutes
p1303
(dp1304
g8
S'0.0'
p1305
sg9
g3
sg10
S'1.000'
p1306
sg12
S'0.0'
p1307
sg14
g3
sg15
g3
sg16
S'15.4'
p1308
sg18
g19
sg20
S'1.000'
p1309
sg24
S'NBA'
p1310
sg26
S'0.0'
p1311
sg27
S'5.1'
p1312
sg29
S'5.1'
p1313
sg31
S'5.1'
p1314
sg33
S'12.9'
p1315
sg35
S'35'
p1316
sg37
S'NOJ'
p1317
sg39
g471
sg41
S'0.0'
p1318
sg42
S'5.1'
p1319
sg44
S'5.1'
p1320
sg46
S'5.1'
p1321
sg48
S'12.9'
p1322
sg49
S'1974-75'
p1323
sg51
S'5.1'
p1324
sg53
g3
sg54
S'1.000'
p1325
sg56
S'14'
p1326
sg58
g3
sbasS'_fromYear'
p1327
S'1962'
p1328
sS'_url'
p1329
S'http://www.basketball-reference.com/players/b/bellawa01.html'
p1330
sS'_perGame'
p1331
(isrc.gp1.models.PerGame
PerGame
p1332
(dp1333
g8
S'0.0'
p1334
sg9
g3
sg10
S'1.000'
p1335
sS'_effectiveFieldGalPercentage'
p1336
S'1.000'
p1337
sg12
S'0.0'
p1338
sg14
g3
sg15
g3
sg16
S'6.0'
p1339
sg18
g19
sg20
S'1.000'
p1340
sg24
S'NBA'
p1341
sg26
S'0.0'
p1342
sg29
S'2.0'
p1343
sS'_fieldGoalsttempted'
p1344
S'2.0'
p1345
sg31
S'2.0'
p1346
sg33
S'5.0'
p1347
sg35
S'35'
p1348
sg37
S'NOJ'
p1349
sg39
g471
sg41
S'0.0'
p1350
sg42
S'2.0'
p1351
sg44
S'2.0'
p1352
sg46
S'2.0'
p1353
sg48
S'5.0'
p1354
sg49
S'1974-75'
p1355
sg51
S'2.0'
p1356
sg53
g3
sg54
S'1.000'
p1357
sg56
S'14.0'
p1358
sg58
g3
sbsS'_weight'
p1359
S'225'
p1360
sS'_dob'
p1361
S'24-7-1939'
p1362
sS'_salary'
p1363
(lp1364
sg18
g19
sb.