(isrc.gp1.models.Player
Player
p0
(dp1
S'_experience'
p2
S'NA'
p3
sS'_totals'
p4
(lp5
(isrc.gp1.models.Totals
Totals
p6
(dp7
S'_offensiveRebounds'
p8
g3
sS'_threePointsAttempted'
p9
S'2'
p10
sS'_fieldGoalsPercentage'
p11
S'.000'
p12
sS'_assist'
p13
g3
sS'_threePointsPercentage'
p14
S'4'
p15
sS'_threePoints'
p16
S'.000'
p17
sS'_points'
p18
g3
sS'_position'
p19
g10
sS'_freeThrowsPercentage'
p20
g3
sS'_effectiveFieldGoalPercentage'
p21
g10
sS'_league'
p22
S'BAA'
p23
sS'_steals'
p24
g3
sS'_fieldGoalsAttempted'
p25
g10
sS'_personalFouls'
p26
g3
sS'_freeThrowsAttempted'
p27
g3
sS'_totalRebounds'
p28
g3
sS'_age'
p29
S'33'
p30
sS'_team'
p31
S'WSC'
p32
sS'_games'
p33
S'0'
p34
sS'_blocks'
p35
g3
sS'_twoPoints'
p36
S'.500'
p37
sS'_freeThrows'
p38
g3
sS'_twoPointsAttempted'
p39
g34
sS'_defensiveRebounds'
p40
g3
sS'_season'
p41
S'1946-47'
p42
sS'_fieldGoals'
p43
g34
sS'_turnOvers'
p44
g3
sS'_twoPointsPercentage'
p45
S'3'
p46
sS'_minutesPlayed'
p47
S'.000'
p48
sS'_gamesStarted'
p49
g10
sbasS'_college'
p50
S'George Washington University'
p51
sS'_toYear'
p52
S'1947'
p53
sS'_height'
p54
S'6-1'
p55
sS'_active'
p56
I00
sS'_shootingHand'
p57
VRight
p58
sS'_name'
p59
S'Ben Goldfaden'
p60
sS'_per100Possessions'
p61
(lp62
sS'_advanced'
p63
(lp64
(isrc.gp1.models.Advanced
Advanced
p65
(dp66
S'_offensiveReboundPercentage'
p67
g3
sS'_turnOverPercentage'
p68
g3
sS'_winSharesPer48Minutes'
p69
g3
sS'_stealPercentage'
p70
g3
sS'_usagePercentage'
p71
g3
sS'_totalReboundsPercentage'
p72
g3
sS'_defensiveBoxPlusMinus'
p73
g3
sg19
g10
sS'_valueOverReplacementPlayer'
p74
g3
sS'_trueShootingPercentage'
p75
S'0.0'
p76
sS'_defensiveReboundPercentage'
p77
g3
sS'_freeThrowsAttempRate'
p78
g3
sS'_threePointsAttempRate'
p79
S'0.0'
p80
sg22
S'BAA'
p81
sS'_offensiveBoxPlusMinues'
p82
g3
sS'_assistPercentage'
p83
g3
sS'_defensiveWinShares'
p84
g3
sg29
S'33'
p85
sg31
S'WSC'
p86
sg33
S'.266'
p87
sS'_blockPercentage'
p88
g3
sS'_playerEfficiencyRating'
p89
S'0.0'
p90
sS'_offensiveWinShares'
p91
g3
sg47
S'2.000'
p92
sS'_boxPlusMinus'
p93
g3
sg41
S'1946-47'
p94
sS'_winShares'
p95
g3
sbasS'_per36Minutes'
p96
(lp97
(isrc.gp1.models.Per36Minutes
Per36Minutes
p98
(dp99
g8
g3
sg9
g3
sg11
g3
sg13
g3
sg14
g3
sg16
g3
sg18
g3
sg19
g10
sg20
g3
sg22
S'BAA'
p100
sg24
g3
sg25
g3
sg26
g3
sg27
g3
sg28
g3
sg29
S'33'
p101
sg31
S'WSC'
p102
sg33
S'.000'
p103
sg35
g3
sg36
g3
sg38
g3
sg39
g3
sg40
g3
sg41
S'1946-47'
p104
sg43
g3
sg44
g3
sg45
g3
sg47
S'.500'
p105
sg49
S'.000'
p106
sbasS'_fromYear'
p107
S'1947'
p108
sS'_url'
p109
S'http://www.basketball-reference.com/players/g/goldfbe01.html'
p110
sS'_perGame'
p111
(isrc.gp1.models.PerGame
PerGame
p112
(dp113
g8
g3
sg9
S'1.0'
p114
sg11
S'.000'
p115
sS'_effectiveFieldGalPercentage'
p116
S'1.0'
p117
sg13
g3
sg14
S'2.0'
p118
sg16
S'.000'
p119
sg18
g3
sg19
g10
sg20
g3
sg22
S'BAA'
p120
sg24
g3
sg26
g3
sS'_fieldGoalsttempted'
p121
S'1.0'
p122
sg27
g3
sg28
g3
sg29
S'33'
p123
sg31
S'WSC'
p124
sg33
S'0.0'
p125
sg35
g3
sg36
S'.500'
p126
sg38
g3
sg39
S'0.0'
p127
sg40
g3
sg41
S'1946-47'
p128
sg43
S'0.0'
p129
sg44
g3
sg45
S'1.5'
p130
sg47
S'.000'
p131
sg49
S'1.0'
p132
sbsS'_weight'
p133
S'185'
p134
sS'_dob'
p135
S'6-9-1913'
p136
sS'_salary'
p137
(lp138
sg19
S'F'
p139
sb.