(isrc.gp1.models.Player
Player
p0
(dp1
S'_experience'
p2
S'NA'
p3
sS'_totals'
p4
(lp5
(isrc.gp1.models.Totals
Totals
p6
(dp7
S'_offensiveRebounds'
p8
S'15'
p9
sS'_threePointsAttempted'
p10
S'1'
p11
sS'_fieldGoalsPercentage'
p12
S'.483'
p13
sS'_assist'
p14
S'9'
p15
sS'_threePointsPercentage'
p16
S'.000'
p17
sS'_threePoints'
p18
S'0'
p19
sS'_points'
p20
S'61'
p21
sS'_position'
p22
S'SF'
p23
sS'_freeThrowsPercentage'
p24
S'.625'
p25
sS'_effectiveFieldGoalPercentage'
p26
S'.483'
p27
sS'_league'
p28
S'NBA'
p29
sS'_steals'
p30
S'7'
p31
sS'_fieldGoalsAttempted'
p32
S'58'
p33
sS'_personalFouls'
p34
S'30'
p35
sS'_freeThrowsAttempted'
p36
S'8'
p37
sS'_totalRebounds'
p38
S'38'
p39
sS'_age'
p40
S'23'
p41
sS'_team'
p42
S'CLE'
p43
sS'_games'
p44
S'21'
p45
sS'_blocks'
p46
g11
sS'_twoPoints'
p47
S'28'
p48
sS'_freeThrows'
p49
S'5'
p50
sS'_twoPointsAttempted'
p51
S'57'
p52
sS'_defensiveRebounds'
p53
S'23'
p54
sS'_season'
p55
S'1985-86'
p56
sS'_fieldGoals'
p57
S'28'
p58
sS'_turnOvers'
p59
S'10'
p60
sS'_twoPointsPercentage'
p61
S'.491'
p62
sS'_minutesPlayed'
p63
S'266'
p64
sS'_gamesStarted'
p65
g19
sba(isrc.gp1.models.Totals
Totals
p66
(dp67
g8
S'63'
p68
sg10
g37
sg12
S'.456'
p69
sg14
S'84'
p70
sg16
S'.125'
p71
sg18
g11
sg20
S'353'
p72
sg22
S'PF'
p73
sg24
S'.632'
p74
sg26
S'.457'
p75
sg28
S'NBA'
p76
sg30
S'27'
p77
sg32
S'360'
p78
sg34
S'200'
p79
sg36
S'38'
p80
sg38
S'183'
p81
sg40
S'24'
p82
sg42
S'GSW'
p83
sg44
S'63'
p84
sg46
g37
sg47
S'163'
p85
sg49
S'24'
p86
sg51
S'352'
p87
sg53
S'120'
p88
sg55
S'1986-87'
p89
sg57
S'164'
p90
sg59
S'43'
p91
sg61
S'.463'
p92
sg63
S'1284'
p93
sg65
S'34'
p94
sba(isrc.gp1.models.Totals
Totals
p95
(dp96
g8
S'133'
p97
sg10
S'35'
p98
sg12
S'.467'
p99
sg14
S'138'
p100
sg16
S'.257'
p101
sg18
g15
sg20
S'612'
p102
sg22
S'PF'
p103
sg24
S'.784'
p104
sg26
S'.476'
p105
sg28
S'NBA'
p106
sg30
S'39'
p107
sg32
S'552'
p108
sg34
S'246'
p109
sg36
S'111'
p110
sg38
S'335'
p111
sg40
S'25'
p112
sg42
S'GSW'
p113
sg44
S'81'
p114
sg46
g37
sg47
S'249'
p115
sg49
S'87'
p116
sg51
S'517'
p117
sg53
S'202'
p118
sg55
S'1987-88'
p119
sg57
S'258'
p120
sg59
S'93'
p121
sg61
S'.482'
p122
sg63
S'2039'
p123
sg65
S'41'
p124
sba(isrc.gp1.models.Totals
Totals
p125
(dp126
g8
g37
sg10
g19
sg12
S'.684'
p127
sg14
S'4'
p128
sg16
S'13'
p129
sg18
g19
sg20
g3
sg22
S'PF'
p130
sg24
g128
sg26
g15
sg28
S'NBA'
p131
sg30
g19
sg32
S'19'
p132
sg34
S'35'
p133
sg36
S'.600'
p134
sg38
g50
sg40
S'26'
p135
sg42
S'GSW'
p136
sg44
S'11'
p137
sg46
S'3'
p138
sg47
S'19'
p139
sg49
S'15'
p140
sg51
S'.684'
p141
sg53
S'12'
p142
sg55
S'1988-89'
p143
sg57
S'13'
p144
sg59
S'11'
p145
sg61
S'.684'
p146
sg63
S'103'
p147
sg65
g19
sbasS'_college'
p148
S'University of California, Irvine'
p149
sS'_toYear'
p150
S'1989'
p151
sS'_height'
p152
S'6-8'
p153
sS'_active'
p154
I00
sS'_shootingHand'
p155
VRight
p156
sS'_name'
p157
S'Ben McDonald'
p158
sS'_per100Possessions'
p159
(lp160
(isrc.gp1.models.Per100Possession
Per100Possession
p161
(dp162
g8
S'2.7'
p163
sg10
S'0.2'
p164
sg12
S'.483'
p165
sS'_offensiveRating'
p166
S'100'
p167
sg14
S'1.6'
p168
sg16
S'.000'
p169
sg18
S'0.0'
p170
sg20
S'10.8'
p171
sg22
S'SF'
p172
sS'_defensiveRating'
p173
S'111'
p174
sg24
S'.625'
p175
sg28
S'NBA'
p176
sg30
S'1.2'
p177
sg32
S'10.3'
p178
sg34
S'5.3'
p179
sg36
S'1.4'
p180
sg38
S'6.7'
p181
sg40
S'23'
p182
sg42
S'CLE'
p183
sg44
S'21'
p184
sg46
S'0.2'
p185
sg47
S'5.0'
p186
sg49
S'0.9'
p187
sg51
S'10.1'
p188
sg53
S'4.1'
p189
sg55
S'1985-86'
p190
sg57
S'5.0'
p191
sg59
S'1.8'
p192
sg61
S'.491'
p193
sg63
S'266'
p194
sg65
g19
sba(isrc.gp1.models.Per100Possession
Per100Possession
p195
(dp196
g8
S'2.3'
p197
sg10
S'0.3'
p198
sg12
S'.456'
p199
sg166
S'102'
p200
sg14
S'3.1'
p201
sg16
S'.125'
p202
sg18
S'0.0'
p203
sg20
S'13.0'
p204
sg22
S'PF'
p205
sg173
S'114'
p206
sg24
S'.632'
p207
sg28
S'NBA'
p208
sg30
S'1.0'
p209
sg32
S'13.2'
p210
sg34
S'7.4'
p211
sg36
S'1.4'
p212
sg38
S'6.7'
p213
sg40
S'24'
p214
sg42
S'GSW'
p215
sg44
S'63'
p216
sg46
S'0.3'
p217
sg47
S'6.0'
p218
sg49
S'0.9'
p219
sg51
S'12.9'
p220
sg53
S'4.4'
p221
sg55
S'1986-87'
p222
sg57
S'6.0'
p223
sg59
S'1.6'
p224
sg61
S'.463'
p225
sg63
S'1284'
p226
sg65
S'34'
p227
sba(isrc.gp1.models.Per100Possession
Per100Possession
p228
(dp229
g8
S'3.1'
p230
sg10
S'0.8'
p231
sg12
S'.467'
p232
sg166
S'105'
p233
sg14
S'3.2'
p234
sg16
S'.257'
p235
sg18
S'0.2'
p236
sg20
S'14.2'
p237
sg22
S'PF'
p238
sg173
S'116'
p239
sg24
S'.784'
p240
sg28
S'NBA'
p241
sg30
S'0.9'
p242
sg32
S'12.8'
p243
sg34
S'5.7'
p244
sg36
S'2.6'
p245
sg38
S'7.8'
p246
sg40
S'25'
p247
sg42
S'GSW'
p248
sg44
S'81'
p249
sg46
S'0.2'
p250
sg47
S'5.8'
p251
sg49
S'2.0'
p252
sg51
S'12.0'
p253
sg53
S'4.7'
p254
sg55
S'1987-88'
p255
sg57
S'6.0'
p256
sg59
S'2.2'
p257
sg61
S'.482'
p258
sg63
S'2039'
p259
sg65
S'41'
p260
sba(isrc.gp1.models.Per100Possession
Per100Possession
p261
(dp262
g8
S'3.5'
p263
sg10
S'0.0'
p264
sg12
S'.684'
p265
sg166
S'111'
p266
sg14
S'1.7'
p267
sg16
S'5.6'
p268
sg18
S'0.0'
p269
sg20
S'132'
p270
sg22
S'PF'
p271
sg173
g3
sg24
S'1.7'
p272
sg28
S'NBA'
p273
sg30
S'0.0'
p274
sg32
S'8.3'
p275
sg34
S'15.2'
p276
sg36
S'.600'
p277
sg38
S'2.2'
p278
sg40
S'26'
p279
sg42
S'GSW'
p280
sg44
S'11'
p281
sg46
S'1.3'
p282
sg47
S'8.3'
p283
sg49
S'6.5'
p284
sg51
S'.684'
p285
sg53
S'5.2'
p286
sg55
S'1988-89'
p287
sg57
S'5.6'
p288
sg59
S'4.8'
p289
sg61
S'3.9'
p290
sg63
S'103'
p291
sg65
g19
sbasS'_advanced'
p292
(lp293
(isrc.gp1.models.Advanced
Advanced
p294
(dp295
S'_offensiveReboundPercentage'
p296
S'6.2'
p297
sS'_turnOverPercentage'
p298
S'14.0'
p299
sS'_winSharesPer48Minutes'
p300
S'.033'
p301
sS'_stealPercentage'
p302
S'1.2'
p303
sS'_usagePercentage'
p304
S'11.0'
p305
sS'_totalReboundsPercentage'
p306
S'7.9'
p307
sS'_defensiveBoxPlusMinus'
p308
S'-0.1'
p309
sg22
S'SF'
p310
sS'_valueOverReplacementPlayer'
p311
S'-0.1'
p312
sS'_trueShootingPercentage'
p313
S'.496'
p314
sS'_defensiveReboundPercentage'
p315
S'9.5'
p316
sS'_freeThrowsAttempRate'
p317
S'.138'
p318
sS'_threePointsAttempRate'
p319
S'.017'
p320
sg28
S'NBA'
p321
sS'_offensiveBoxPlusMinues'
p322
S'-3.0'
p323
sS'_assistPercentage'
p324
S'4.4'
p325
sS'_defensiveWinShares'
p326
S'0.2'
p327
sg40
S'23'
p328
sg42
S'CLE'
p329
sg44
S'21'
p330
sS'_blockPercentage'
p331
S'0.2'
p332
sS'_playerEfficiencyRating'
p333
S'6.7'
p334
sS'_offensiveWinShares'
p335
S'0.0'
p336
sg63
S'266'
p337
sS'_boxPlusMinus'
p338
S'-3.0'
p339
sg55
S'1985-86'
p340
sS'_winShares'
p341
S'0.2'
p342
sba(isrc.gp1.models.Advanced
Advanced
p343
(dp344
g296
S'5.3'
p345
sg298
S'10.2'
p346
sg300
S'.027'
p347
sg302
S'1.0'
p348
sg304
S'13.2'
p349
sg306
S'7.8'
p350
sg308
S'-0.4'
p351
sg22
S'PF'
p352
sg311
S'-0.3'
p353
sg313
S'.469'
p354
sg315
S'10.3'
p355
sg317
S'.106'
p356
sg319
S'.022'
p357
sg28
S'NBA'
p358
sg322
S'-2.5'
p359
sg324
S'8.6'
p360
sg326
S'0.5'
p361
sg40
S'24'
p362
sg42
S'GSW'
p363
sg44
S'63'
p364
sg331
S'0.4'
p365
sg333
S'7.2'
p366
sg335
S'0.2'
p367
sg63
S'1284'
p368
sg338
S'-2.9'
p369
sg55
S'1986-87'
p370
sg341
S'0.7'
p371
sba(isrc.gp1.models.Advanced
Advanced
p372
(dp373
g296
S'7.1'
p374
sg298
S'13.4'
p375
sg300
S'.031'
p376
sg302
S'0.9'
p377
sg304
S'13.8'
p378
sg306
S'9.1'
p379
sg308
S'-1.1'
p380
sg22
S'PF'
p381
sg311
S'-0.4'
p382
sg313
S'.509'
p383
sg315
S'11.3'
p384
sg317
S'.201'
p385
sg319
S'.063'
p386
sg28
S'NBA'
p387
sg322
S'-1.7'
p388
sg324
S'9.0'
p389
sg326
S'0.3'
p390
sg40
S'25'
p391
sg42
S'GSW'
p392
sg44
S'81'
p393
sg331
S'0.2'
p394
sg333
S'9.0'
p395
sg335
S'1.0'
p396
sg63
S'2039'
p397
sg338
S'-2.8'
p398
sg55
S'1987-88'
p399
sg341
S'1.3'
p400
sba(isrc.gp1.models.Advanced
Advanced
p401
(dp402
g296
S'3.9'
p403
sg298
S'10.5'
p404
sg300
S'.131'
p405
sg302
S'1.7'
p406
sg304
S'10.5'
p407
sg306
S'5.8'
p408
sg308
S'-1.4'
p409
sg22
S'PF'
p410
sg311
S'0.0'
p411
sg313
S'.684'
p412
sg315
S'7.7'
p413
sg317
S'.789'
p414
sg319
S'.000'
p415
sg28
S'NBA'
p416
sg322
S'-0.7'
p417
sg324
S'6.0'
p418
sg326
S'0.1'
p419
sg40
S'26'
p420
sg42
S'GSW'
p421
sg44
S'11'
p422
sg331
S'0.0'
p423
sg333
S'12.0'
p424
sg335
S'0.2'
p425
sg63
S'103'
p426
sg338
S'-2.1'
p427
sg55
S'1988-89'
p428
sg341
S'0.3'
p429
sbasS'_per36Minutes'
p430
(lp431
(isrc.gp1.models.Per36Minutes
Per36Minutes
p432
(dp433
g8
S'2.0'
p434
sg10
S'0.1'
p435
sg12
S'.483'
p436
sg14
S'1.2'
p437
sg16
S'.000'
p438
sg18
S'0.0'
p439
sg20
S'8.3'
p440
sg22
S'SF'
p441
sg24
S'.625'
p442
sg28
S'NBA'
p443
sg30
S'0.9'
p444
sg32
S'7.8'
p445
sg34
S'4.1'
p446
sg36
S'1.1'
p447
sg38
S'5.1'
p448
sg40
S'23'
p449
sg42
S'CLE'
p450
sg44
S'21'
p451
sg46
S'0.1'
p452
sg47
S'3.8'
p453
sg49
S'0.7'
p454
sg51
S'7.7'
p455
sg53
S'3.1'
p456
sg55
S'1985-86'
p457
sg57
S'3.8'
p458
sg59
S'1.4'
p459
sg61
S'.491'
p460
sg63
S'266'
p461
sg65
g19
sba(isrc.gp1.models.Per36Minutes
Per36Minutes
p462
(dp463
g8
S'1.8'
p464
sg10
S'0.2'
p465
sg12
S'.456'
p466
sg14
S'2.4'
p467
sg16
S'.125'
p468
sg18
S'0.0'
p469
sg20
S'9.9'
p470
sg22
S'PF'
p471
sg24
S'.632'
p472
sg28
S'NBA'
p473
sg30
S'0.8'
p474
sg32
S'10.1'
p475
sg34
S'5.6'
p476
sg36
S'1.1'
p477
sg38
S'5.1'
p478
sg40
S'24'
p479
sg42
S'GSW'
p480
sg44
S'63'
p481
sg46
S'0.2'
p482
sg47
S'4.6'
p483
sg49
S'0.7'
p484
sg51
S'9.9'
p485
sg53
S'3.4'
p486
sg55
S'1986-87'
p487
sg57
S'4.6'
p488
sg59
S'1.2'
p489
sg61
S'.463'
p490
sg63
S'1284'
p491
sg65
S'34'
p492
sba(isrc.gp1.models.Per36Minutes
Per36Minutes
p493
(dp494
g8
S'2.3'
p495
sg10
S'0.6'
p496
sg12
S'.467'
p497
sg14
S'2.4'
p498
sg16
S'.257'
p499
sg18
S'0.2'
p500
sg20
S'10.8'
p501
sg22
S'PF'
p502
sg24
S'.784'
p503
sg28
S'NBA'
p504
sg30
S'0.7'
p505
sg32
S'9.7'
p506
sg34
S'4.3'
p507
sg36
S'2.0'
p508
sg38
S'5.9'
p509
sg40
S'25'
p510
sg42
S'GSW'
p511
sg44
S'81'
p512
sg46
S'0.1'
p513
sg47
S'4.4'
p514
sg49
S'1.5'
p515
sg51
S'9.1'
p516
sg53
S'3.6'
p517
sg55
S'1987-88'
p518
sg57
S'4.6'
p519
sg59
S'1.6'
p520
sg61
S'.482'
p521
sg63
S'2039'
p522
sg65
S'41'
p523
sba(isrc.gp1.models.Per36Minutes
Per36Minutes
p524
(dp525
g8
S'2.8'
p526
sg10
S'0.0'
p527
sg12
S'.684'
p528
sg14
S'1.4'
p529
sg16
S'4.5'
p530
sg18
S'0.0'
p531
sg20
g3
sg22
S'PF'
p532
sg24
S'1.4'
p533
sg28
S'NBA'
p534
sg30
S'0.0'
p535
sg32
S'6.6'
p536
sg34
S'12.2'
p537
sg36
S'.600'
p538
sg38
S'1.7'
p539
sg40
S'26'
p540
sg42
S'GSW'
p541
sg44
S'11'
p542
sg46
S'1.0'
p543
sg47
S'6.6'
p544
sg49
S'5.2'
p545
sg51
S'.684'
p546
sg53
S'4.2'
p547
sg55
S'1988-89'
p548
sg57
S'4.5'
p549
sg59
S'3.8'
p550
sg61
S'3.1'
p551
sg63
S'103'
p552
sg65
g19
sbasS'_fromYear'
p553
S'1986'
p554
sS'_url'
p555
S'http://www.basketball-reference.com/players/m/mcdonbe01.html'
p556
sS'_perGame'
p557
(isrc.gp1.models.PerGame
PerGame
p558
(dp559
g8
S'0.7'
p560
sg10
S'0.0'
p561
sg12
S'.684'
p562
sS'_effectiveFieldGalPercentage'
p563
S'0.8'
p564
sg14
S'0.4'
p565
sg16
S'1.2'
p566
sg18
S'0.0'
p567
sg20
g3
sg22
S'PF'
p568
sg24
S'0.4'
p569
sg28
S'NBA'
p570
sg30
S'0.0'
p571
sg34
S'3.2'
p572
sS'_fieldGoalsttempted'
p573
S'1.7'
p574
sg36
S'.600'
p575
sg38
S'0.5'
p576
sg40
S'26'
p577
sg42
S'GSW'
p578
sg44
S'11'
p579
sg46
S'0.3'
p580
sg47
S'1.7'
p581
sg49
S'1.4'
p582
sg51
S'.684'
p583
sg53
S'1.1'
p584
sg55
S'1988-89'
p585
sg57
S'1.2'
p586
sg59
S'1.0'
p587
sg61
S'.684'
p588
sg63
S'9.4'
p589
sg65
g19
sbsS'_weight'
p590
S'210'
p591
sS'_dob'
p592
S'20-7-1962'
p593
sS'_salary'
p594
(lp595
(isrc.gp1.models.Salary
Salary
p596
(dp597
g42
S'Golden State Warriors'
p598
sg28
S'NBA'
p599
sg594
S'$135,000'
p600
sg55
S'1987-88'
p601
sbasg22
S'F'
p602
sb.