(isrc.gp1.models.Player
Player
p0
(dp1
S'_experience'
p2
S'NA'
p3
sS'_totals'
p4
(lp5
(isrc.gp1.models.Totals
Totals
p6
(dp7
S'_offensiveRebounds'
p8
g3
sS'_threePointsAttempted'
p9
g3
sS'_fieldGoalsPercentage'
p10
S'.450'
p11
sS'_assist'
p12
S'4'
p13
sS'_threePointsPercentage'
p14
g3
sS'_threePoints'
p15
g3
sS'_points'
p16
S'125'
p17
sS'_position'
p18
S'PF'
p19
sS'_freeThrowsPercentage'
p20
S'.714'
p21
sS'_effectiveFieldGoalPercentage'
p22
S'.450'
p23
sS'_league'
p24
S'NBA'
p25
sS'_steals'
p26
g3
sS'_fieldGoalsAttempted'
p27
S'111'
p28
sS'_personalFouls'
p29
S'42'
p30
sS'_freeThrowsAttempted'
p31
S'35'
p32
sS'_totalRebounds'
p33
S'86'
p34
sS'_age'
p35
S'26'
p36
sS'_team'
p37
S'SYR'
p38
sS'_games'
p39
S'26'
p40
sS'_blocks'
p41
g3
sS'_twoPoints'
p42
S'50'
p43
sS'_freeThrows'
p44
S'25'
p45
sS'_twoPointsAttempted'
p46
S'111'
p47
sS'_defensiveRebounds'
p48
g3
sS'_season'
p49
S'1962-63'
p50
sS'_fieldGoals'
p51
S'50'
p52
sS'_turnOvers'
p53
g3
sS'_twoPointsPercentage'
p54
S'.450'
p55
sS'_minutesPlayed'
p56
S'206'
p57
sS'_gamesStarted'
p58
g3
sba(isrc.gp1.models.Totals
Totals
p59
(dp60
g8
g3
sg9
g3
sg10
S'.435'
p61
sg12
S'71'
p62
sg14
g3
sg15
g3
sg16
S'650'
p63
sg18
S'PF'
p64
sg20
S'.721'
p65
sg22
S'.435'
p66
sg24
S'NBA'
p67
sg26
g3
sg27
S'494'
p68
sg29
S'274'
p69
sg31
S'305'
p70
sg33
S'619'
p71
sg35
S'27'
p72
sg37
S'PHI'
p73
sg39
S'79'
p74
sg41
g3
sg42
S'215'
p75
sg44
S'220'
p76
sg46
S'494'
p77
sg48
g3
sg49
S'1963-64'
p78
sg51
S'215'
p79
sg53
g3
sg54
S'.435'
p80
sg56
S'1740'
p81
sg58
g3
sba(isrc.gp1.models.Totals
Totals
p82
(dp83
g8
g3
sg9
g3
sg10
S'.372'
p84
sg12
S'53'
p85
sg14
g3
sg15
g3
sg16
S'312'
p86
sg18
S'SF'
p87
sg20
S'.705'
p88
sg22
S'.372'
p89
sg24
S'NBA'
p90
sg26
g3
sg27
S'253'
p91
sg29
S'170'
p92
sg31
S'176'
p93
sg33
S'277'
p94
sg35
S'28'
p95
sg37
S'PHI'
p96
sg39
S'64'
p97
sg41
g3
sg42
S'94'
p98
sg44
S'124'
p99
sg46
S'253'
p100
sg48
g3
sg49
S'1964-65'
p101
sg51
S'94'
p102
sg53
g3
sg54
S'.372'
p103
sg56
S'900'
p104
sg58
g3
sba(isrc.gp1.models.Totals
Totals
p105
(dp106
g8
g3
sg9
g3
sg10
S'.408'
p107
sg12
S'25'
p108
sg14
g3
sg15
g3
sg16
S'296'
p109
sg18
S'SF'
p110
sg20
S'.660'
p111
sg22
S'.408'
p112
sg24
S'NBA'
p113
sg26
g3
sg27
S'284'
p114
sg29
S'129'
p115
sg31
S'97'
p116
sg33
S'217'
p117
sg35
S'29'
p118
sg37
S'TOT'
p119
sg39
S'57'
p120
sg41
g3
sg42
S'116'
p121
sg44
S'64'
p122
sg46
S'284'
p123
sg48
g3
sg49
S'1965-66'
p124
sg51
S'116'
p125
sg53
g3
sg54
S'.408'
p126
sg56
S'773'
p127
sg58
g3
sba(isrc.gp1.models.Totals
Totals
p128
(dp129
g8
g3
sg9
g3
sg10
S'.333'
p130
sg12
S'0'
p131
sg14
g3
sg15
g3
sg16
S'2'
p132
sg18
S'SF'
p133
sg20
g3
sg22
S'.333'
p134
sg24
S'NBA'
p135
sg26
g3
sg27
S'3'
p136
sg29
S'1'
p137
sg31
g131
sg33
g132
sg35
S'29'
p138
sg37
S'PHI'
p139
sg39
g137
sg41
g3
sg42
g137
sg44
g131
sg46
g136
sg48
g3
sg49
S'1965-66'
p140
sg51
g137
sg53
g3
sg54
S'.333'
p141
sg56
S'6'
p142
sg58
g3
sba(isrc.gp1.models.Totals
Totals
p143
(dp144
g8
g3
sg9
g3
sg10
S'.409'
p145
sg12
S'25'
p146
sg14
g3
sg15
g3
sg16
S'294'
p147
sg18
S'SF'
p148
sg20
S'.660'
p149
sg22
S'.409'
p150
sg24
S'NBA'
p151
sg26
g3
sg27
S'281'
p152
sg29
S'128'
p153
sg31
S'97'
p154
sg33
S'215'
p155
sg35
S'29'
p156
sg37
S'BAL'
p157
sg39
S'56'
p158
sg41
g3
sg42
S'115'
p159
sg44
S'64'
p160
sg46
S'281'
p161
sg48
g3
sg49
S'1965-66'
p162
sg51
S'115'
p163
sg53
g3
sg54
S'.409'
p164
sg56
S'767'
p165
sg58
g3
sba(isrc.gp1.models.Totals
Totals
p166
(dp167
g8
g3
sg9
g3
sg10
S'.401'
p168
sg12
S'51'
p169
sg14
g3
sg15
g3
sg16
S'384'
p170
sg18
S'SF'
p171
sg20
S'.788'
p172
sg22
S'.401'
p173
sg24
S'NBA'
p174
sg26
g3
sg27
S'312'
p175
sg29
S'176'
p176
sg31
S'170'
p177
sg33
S'325'
p178
sg35
S'30'
p179
sg37
S'BAL'
p180
sg39
S'62'
p181
sg41
g3
sg42
S'125'
p182
sg44
S'134'
p183
sg46
S'312'
p184
sg48
g3
sg49
S'1966-67'
p185
sg51
S'125'
p186
sg53
g3
sg54
S'.401'
p187
sg56
S'1037'
p188
sg58
g3
sba(isrc.gp1.models.Totals
Totals
p189
(dp190
g8
g3
sg9
S'166'
p191
sg10
S'.442'
p192
sg12
S'96'
p193
sg14
S'.313'
p194
sg15
S'52'
p195
sg16
S'1235'
p196
sg18
S'SF'
p197
sg20
S'.805'
p198
sg22
S'.468'
p199
sg24
S'ABA'
p200
sg26
g3
sg27
S'985'
p201
sg29
S'276'
p202
sg31
S'389'
p203
sg33
S'608'
p204
sg35
S'31'
p205
sg37
S'ANA'
p206
sg39
S'71'
p207
sg41
g3
sg42
S'383'
p208
sg44
S'313'
p209
sg46
S'819'
p210
sg48
g3
sg49
g3
sg51
S'435'
p211
sg53
S'161'
p212
sg54
S'.468'
p213
sg56
S'2297'
p214
sg58
g3
sba(isrc.gp1.models.Totals
Totals
p215
(dp216
g8
S'51'
p217
sg9
S'121'
p218
sg10
S'.407'
p219
sg12
S'26'
p220
sg14
S'.256'
p221
sg15
S'31'
p222
sg16
S'491'
p223
sg18
S'SF'
p224
sg20
S'.748'
p225
sg22
S'.443'
p226
sg24
S'ABA'
p227
sg26
g3
sg27
S'423'
p228
sg29
S'127'
p229
sg31
S'155'
p230
sg33
S'194'
p231
sg35
S'32'
p232
sg37
S'LAS'
p233
sg39
S'35'
p234
sg41
g3
sg42
S'141'
p235
sg44
S'116'
p236
sg46
S'302'
p237
sg48
S'143'
p238
sg49
S'1968-69'
p239
sg51
S'172'
p240
sg53
S'53'
p241
sg54
S'.467'
p242
sg56
S'876'
p243
sg58
g3
sba(isrc.gp1.models.Totals
Totals
p244
(dp245
g8
S'26'
p246
sg9
S'58'
p247
sg10
S'.353'
p248
sg12
S'30'
p249
sg14
S'.259'
p250
sg15
S'15'
p251
sg16
S'193'
p252
sg18
S'SF'
p253
sg20
S'.763'
p254
sg22
S'.397'
p255
sg24
S'ABA'
p256
sg26
g3
sg27
S'170'
p257
sg29
S'98'
p258
sg31
S'76'
p259
sg33
S'110'
p260
sg35
S'33'
p261
sg37
S'DNR'
p262
sg39
S'42'
p263
sg41
g3
sg42
S'45'
p264
sg44
S'58'
p265
sg46
S'112'
p266
sg48
S'84'
p267
sg49
S'1969-70'
p268
sg51
S'60'
p269
sg53
S'36'
p270
sg54
S'.402'
p271
sg56
S'475'
p272
sg58
g3
sbasS'_college'
p273
S'Tennessee State University'
p274
sS'_toYear'
p275
S'1970'
p276
sS'_height'
p277
S'6-5'
p278
sS'_active'
p279
I00
sS'_shootingHand'
p280
VRight
p281
sS'_name'
p282
S'Ben Warley'
p283
sS'_per100Possessions'
p284
(lp285
sS'_advanced'
p286
(lp287
(isrc.gp1.models.Advanced
Advanced
p288
(dp289
S'_offensiveReboundPercentage'
p290
g3
sS'_turnOverPercentage'
p291
g3
sS'_winSharesPer48Minutes'
p292
S'.117'
p293
sS'_stealPercentage'
p294
g3
sS'_usagePercentage'
p295
g3
sS'_totalReboundsPercentage'
p296
g3
sS'_defensiveBoxPlusMinus'
p297
g3
sg18
S'PF'
p298
sS'_valueOverReplacementPlayer'
p299
g3
sS'_trueShootingPercentage'
p300
S'.494'
p301
sS'_defensiveReboundPercentage'
p302
g3
sS'_freeThrowsAttempRate'
p303
S'.315'
p304
sS'_threePointsAttempRate'
p305
g3
sg24
S'NBA'
p306
sS'_offensiveBoxPlusMinues'
p307
g3
sS'_assistPercentage'
p308
g3
sS'_defensiveWinShares'
p309
S'0.3'
p310
sg35
S'26'
p311
sg37
S'SYR'
p312
sg39
S'26'
p313
sS'_blockPercentage'
p314
g3
sS'_playerEfficiencyRating'
p315
S'16.8'
p316
sS'_offensiveWinShares'
p317
S'0.2'
p318
sg56
S'206'
p319
sS'_boxPlusMinus'
p320
g3
sg49
S'1962-63'
p321
sS'_winShares'
p322
S'0.5'
p323
sba(isrc.gp1.models.Advanced
Advanced
p324
(dp325
g290
g3
sg291
g3
sg292
S'.104'
p326
sg294
g3
sg295
g3
sg296
g3
sg297
g3
sg18
S'PF'
p327
sg299
g3
sg300
S'.517'
p328
sg302
g3
sg303
S'.617'
p329
sg305
g3
sg24
S'NBA'
p330
sg307
g3
sg308
g3
sg309
S'1.4'
p331
sg35
S'27'
p332
sg37
S'PHI'
p333
sg39
S'79'
p334
sg314
g3
sg315
S'13.5'
p335
sg317
S'2.4'
p336
sg56
S'1740'
p337
sg320
g3
sg49
S'1963-64'
p338
sg322
S'3.8'
p339
sba(isrc.gp1.models.Advanced
Advanced
p340
(dp341
g290
g3
sg291
g3
sg292
S'.080'
p342
sg294
g3
sg295
g3
sg296
g3
sg297
g3
sg18
S'SF'
p343
sg299
g3
sg300
S'.472'
p344
sg302
g3
sg303
S'.696'
p345
sg305
g3
sg24
S'NBA'
p346
sg307
g3
sg308
S'7.6'
p347
sg309
S'0.9'
p348
sg35
S'28'
p349
sg37
S'PHI'
p350
sg39
S'64'
p351
sg314
g3
sg315
S'11.2'
p352
sg317
S'0.6'
p353
sg56
S'900'
p354
sg320
g3
sg49
S'1964-65'
p355
sg322
S'1.5'
p356
sba(isrc.gp1.models.Advanced
Advanced
p357
(dp358
g290
g3
sg291
g3
sg292
S'.034'
p359
sg294
g3
sg295
g3
sg296
g3
sg297
g3
sg18
S'SF'
p360
sg299
g3
sg300
S'.453'
p361
sg302
g3
sg303
S'.342'
p362
sg305
g3
sg24
S'NBA'
p363
sg307
g3
sg308
S'4.1'
p364
sg309
S'0.5'
p365
sg35
S'29'
p366
sg37
S'TOT'
p367
sg39
S'57'
p368
sg314
g3
sg315
S'9.6'
p369
sg317
S'0.0'
p370
sg56
S'773'
p371
sg320
g3
sg49
S'1965-66'
p372
sg322
S'0.6'
p373
sba(isrc.gp1.models.Advanced
Advanced
p374
(dp375
g290
g3
sg291
g3
sg292
S'-0.091'
p376
sg294
g3
sg295
g3
sg296
g3
sg297
g3
sg18
S'SF'
p377
sg299
g3
sg300
S'.333'
p378
sg302
g3
sg303
S'.000'
p379
sg305
g3
sg24
S'NBA'
p380
sg307
g3
sg308
S'0.0'
p381
sg309
S'0.0'
p382
sg35
S'29'
p383
sg37
S'PHI'
p384
sg39
g137
sg314
g3
sg315
S'5.2'
p385
sg317
S'0.0'
p386
sg56
g142
sg320
g3
sg49
S'1965-66'
p387
sg322
S'0.0'
p388
sba(isrc.gp1.models.Advanced
Advanced
p389
(dp390
g290
g3
sg291
g3
sg292
S'.035'
p391
sg294
g3
sg295
g3
sg296
g3
sg297
g3
sg18
S'SF'
p392
sg299
g3
sg300
S'.454'
p393
sg302
g3
sg303
S'.345'
p394
sg305
g3
sg24
S'NBA'
p395
sg307
g3
sg308
S'4.2'
p396
sg309
S'0.5'
p397
sg35
S'29'
p398
sg37
S'BAL'
p399
sg39
S'56'
p400
sg314
g3
sg315
S'9.6'
p401
sg317
S'0.1'
p402
sg56
S'767'
p403
sg320
g3
sg49
S'1965-66'
p404
sg322
S'0.6'
p405
sba(isrc.gp1.models.Advanced
Advanced
p406
(dp407
g290
g3
sg291
g3
sg292
S'.078'
p408
sg294
g3
sg295
g3
sg296
g3
sg297
g3
sg18
S'SF'
p409
sg299
g3
sg300
S'.496'
p410
sg302
g3
sg303
S'.545'
p411
sg305
g3
sg24
S'NBA'
p412
sg307
g3
sg308
S'6.0'
p413
sg309
S'0.8'
p414
sg35
S'30'
p415
sg37
S'BAL'
p416
sg39
S'62'
p417
sg314
g3
sg315
S'11.7'
p418
sg317
S'0.9'
p419
sg56
S'1037'
p420
sg320
g3
sg49
S'1966-67'
p421
sg322
S'1.7'
p422
sba(isrc.gp1.models.Advanced
Advanced
p423
(dp424
g290
g3
sg291
S'12.2'
p425
sg292
S'.132'
p426
sg294
g3
sg295
S'20.7'
p427
sg296
S'11.6'
p428
sg297
g3
sg18
S'SF'
p429
sg299
g3
sg300
S'.534'
p430
sg302
g3
sg303
S'.395'
p431
sg305
S'.169'
p432
sg24
S'ABA'
p433
sg307
g3
sg308
S'6.4'
p434
sg309
S'0.7'
p435
sg35
S'31'
p436
sg37
S'ANA'
p437
sg39
S'71'
p438
sg314
g3
sg315
S'18.2'
p439
sg317
S'5.6'
p440
sg56
S'2297'
p441
sg320
g3
sg49
g3
sg322
S'6.3'
p442
sba(isrc.gp1.models.Advanced
Advanced
p443
(dp444
g290
g3
sg291
S'9.7'
p445
sg292
S'.075'
p446
sg294
g3
sg295
S'22.8'
p447
sg296
S'10.1'
p448
sg297
g3
sg18
S'SF'
p449
sg299
g3
sg300
S'.500'
p450
sg302
g3
sg303
S'.366'
p451
sg305
S'.286'
p452
sg24
S'ABA'
p453
sg307
g3
sg308
S'4.6'
p454
sg309
S'0.4'
p455
sg35
S'32'
p456
sg37
S'LAS'
p457
sg39
S'35'
p458
sg314
g3
sg315
S'15.5'
p459
sg317
S'0.9'
p460
sg56
S'876'
p461
sg320
g3
sg49
S'1968-69'
p462
sg322
S'1.4'
p463
sba(isrc.gp1.models.Advanced
Advanced
p464
(dp465
g290
g3
sg291
S'15.0'
p466
sg292
S'.077'
p467
sg294
g3
sg295
S'18.7'
p468
sg296
S'10.2'
p469
sg297
g3
sg18
S'SF'
p470
sg299
g3
sg300
S'.474'
p471
sg302
g3
sg303
S'.447'
p472
sg305
S'.341'
p473
sg24
S'ABA'
p474
sg307
g3
sg308
S'8.0'
p475
sg309
S'0.7'
p476
sg35
S'33'
p477
sg37
S'DNR'
p478
sg39
S'42'
p479
sg314
g3
sg315
S'9.6'
p480
sg317
S'0.1'
p481
sg56
S'475'
p482
sg320
g3
sg49
S'1969-70'
p483
sg322
S'0.8'
p484
sbasS'_per36Minutes'
p485
(lp486
(isrc.gp1.models.Per36Minutes
Per36Minutes
p487
(dp488
g8
g3
sg9
g3
sg10
S'.450'
p489
sg12
S'0.7'
p490
sg14
g3
sg15
g3
sg16
S'21.8'
p491
sg18
S'PF'
p492
sg20
S'.714'
p493
sg24
S'NBA'
p494
sg26
g3
sg27
S'19.4'
p495
sg29
S'7.3'
p496
sg31
S'6.1'
p497
sg33
S'15.0'
p498
sg35
S'26'
p499
sg37
S'SYR'
p500
sg39
S'26'
p501
sg41
g3
sg42
S'8.7'
p502
sg44
S'4.4'
p503
sg46
S'19.4'
p504
sg48
g3
sg49
S'1962-63'
p505
sg51
S'8.7'
p506
sg53
g3
sg54
S'.450'
p507
sg56
S'206'
p508
sg58
g3
sba(isrc.gp1.models.Per36Minutes
Per36Minutes
p509
(dp510
g8
g3
sg9
g3
sg10
S'.435'
p511
sg12
S'1.5'
p512
sg14
g3
sg15
g3
sg16
S'13.4'
p513
sg18
S'PF'
p514
sg20
S'.721'
p515
sg24
S'NBA'
p516
sg26
g3
sg27
S'10.2'
p517
sg29
S'5.7'
p518
sg31
S'6.3'
p519
sg33
S'12.8'
p520
sg35
S'27'
p521
sg37
S'PHI'
p522
sg39
S'79'
p523
sg41
g3
sg42
S'4.4'
p524
sg44
S'4.6'
p525
sg46
S'10.2'
p526
sg48
g3
sg49
S'1963-64'
p527
sg51
S'4.4'
p528
sg53
g3
sg54
S'.435'
p529
sg56
S'1740'
p530
sg58
g3
sba(isrc.gp1.models.Per36Minutes
Per36Minutes
p531
(dp532
g8
g3
sg9
g3
sg10
S'.372'
p533
sg12
S'2.1'
p534
sg14
g3
sg15
g3
sg16
S'12.5'
p535
sg18
S'SF'
p536
sg20
S'.705'
p537
sg24
S'NBA'
p538
sg26
g3
sg27
S'10.1'
p539
sg29
S'6.8'
p540
sg31
S'7.0'
p541
sg33
S'11.1'
p542
sg35
S'28'
p543
sg37
S'PHI'
p544
sg39
S'64'
p545
sg41
g3
sg42
S'3.8'
p546
sg44
S'5.0'
p547
sg46
S'10.1'
p548
sg48
g3
sg49
S'1964-65'
p549
sg51
S'3.8'
p550
sg53
g3
sg54
S'.372'
p551
sg56
S'900'
p552
sg58
g3
sba(isrc.gp1.models.Per36Minutes
Per36Minutes
p553
(dp554
g8
g3
sg9
g3
sg10
S'.408'
p555
sg12
S'1.2'
p556
sg14
g3
sg15
g3
sg16
S'13.8'
p557
sg18
S'SF'
p558
sg20
S'.660'
p559
sg24
S'NBA'
p560
sg26
g3
sg27
S'13.2'
p561
sg29
S'6.0'
p562
sg31
S'4.5'
p563
sg33
S'10.1'
p564
sg35
S'29'
p565
sg37
S'TOT'
p566
sg39
S'57'
p567
sg41
g3
sg42
S'5.4'
p568
sg44
S'3.0'
p569
sg46
S'13.2'
p570
sg48
g3
sg49
S'1965-66'
p571
sg51
S'5.4'
p572
sg53
g3
sg54
S'.408'
p573
sg56
S'773'
p574
sg58
g3
sba(isrc.gp1.models.Per36Minutes
Per36Minutes
p575
(dp576
g8
g3
sg9
g3
sg10
S'.333'
p577
sg12
S'0.0'
p578
sg14
g3
sg15
g3
sg16
S'12.0'
p579
sg18
S'SF'
p580
sg20
g3
sg24
S'NBA'
p581
sg26
g3
sg27
S'18.0'
p582
sg29
S'6.0'
p583
sg31
S'0.0'
p584
sg33
S'12.0'
p585
sg35
S'29'
p586
sg37
S'PHI'
p587
sg39
g137
sg41
g3
sg42
S'6.0'
p588
sg44
S'0.0'
p589
sg46
S'18.0'
p590
sg48
g3
sg49
S'1965-66'
p591
sg51
S'6.0'
p592
sg53
g3
sg54
S'.333'
p593
sg56
g142
sg58
g3
sba(isrc.gp1.models.Per36Minutes
Per36Minutes
p594
(dp595
g8
g3
sg9
g3
sg10
S'.409'
p596
sg12
S'1.2'
p597
sg14
g3
sg15
g3
sg16
S'13.8'
p598
sg18
S'SF'
p599
sg20
S'.660'
p600
sg24
S'NBA'
p601
sg26
g3
sg27
S'13.2'
p602
sg29
S'6.0'
p603
sg31
S'4.6'
p604
sg33
S'10.1'
p605
sg35
S'29'
p606
sg37
S'BAL'
p607
sg39
S'56'
p608
sg41
g3
sg42
S'5.4'
p609
sg44
S'3.0'
p610
sg46
S'13.2'
p611
sg48
g3
sg49
S'1965-66'
p612
sg51
S'5.4'
p613
sg53
g3
sg54
S'.409'
p614
sg56
S'767'
p615
sg58
g3
sba(isrc.gp1.models.Per36Minutes
Per36Minutes
p616
(dp617
g8
g3
sg9
g3
sg10
S'.401'
p618
sg12
S'1.8'
p619
sg14
g3
sg15
g3
sg16
S'13.3'
p620
sg18
S'SF'
p621
sg20
S'.788'
p622
sg24
S'NBA'
p623
sg26
g3
sg27
S'10.8'
p624
sg29
S'6.1'
p625
sg31
S'5.9'
p626
sg33
S'11.3'
p627
sg35
S'30'
p628
sg37
S'BAL'
p629
sg39
S'62'
p630
sg41
g3
sg42
S'4.3'
p631
sg44
S'4.7'
p632
sg46
S'10.8'
p633
sg48
g3
sg49
S'1966-67'
p634
sg51
S'4.3'
p635
sg53
g3
sg54
S'.401'
p636
sg56
S'1037'
p637
sg58
g3
sba(isrc.gp1.models.Per36Minutes
Per36Minutes
p638
(dp639
g8
g3
sg9
S'2.6'
p640
sg10
S'.442'
p641
sg12
S'1.5'
p642
sg14
S'.313'
p643
sg15
S'0.8'
p644
sg16
S'19.4'
p645
sg18
S'SF'
p646
sg20
S'.805'
p647
sg24
S'ABA'
p648
sg26
g3
sg27
S'15.4'
p649
sg29
S'4.3'
p650
sg31
S'6.1'
p651
sg33
S'9.5'
p652
sg35
S'31'
p653
sg37
S'ANA'
p654
sg39
S'71'
p655
sg41
g3
sg42
S'6.0'
p656
sg44
S'4.9'
p657
sg46
S'12.8'
p658
sg48
g3
sg49
g3
sg51
S'6.8'
p659
sg53
S'2.5'
p660
sg54
S'.468'
p661
sg56
S'2297'
p662
sg58
g3
sba(isrc.gp1.models.Per36Minutes
Per36Minutes
p663
(dp664
g8
S'2.1'
p665
sg9
S'5.0'
p666
sg10
S'.407'
p667
sg12
S'1.1'
p668
sg14
S'.256'
p669
sg15
S'1.3'
p670
sg16
S'20.2'
p671
sg18
S'SF'
p672
sg20
S'.748'
p673
sg24
S'ABA'
p674
sg26
g3
sg27
S'17.4'
p675
sg29
S'5.2'
p676
sg31
S'6.4'
p677
sg33
S'8.0'
p678
sg35
S'32'
p679
sg37
S'LAS'
p680
sg39
S'35'
p681
sg41
g3
sg42
S'5.8'
p682
sg44
S'4.8'
p683
sg46
S'12.4'
p684
sg48
S'5.9'
p685
sg49
S'1968-69'
p686
sg51
S'7.1'
p687
sg53
S'2.2'
p688
sg54
S'.467'
p689
sg56
S'876'
p690
sg58
g3
sba(isrc.gp1.models.Per36Minutes
Per36Minutes
p691
(dp692
g8
S'2.0'
p693
sg9
S'4.4'
p694
sg10
S'.353'
p695
sg12
S'2.3'
p696
sg14
S'.259'
p697
sg15
S'1.1'
p698
sg16
S'14.6'
p699
sg18
S'SF'
p700
sg20
S'.763'
p701
sg24
S'ABA'
p702
sg26
g3
sg27
S'12.9'
p703
sg29
S'7.4'
p704
sg31
S'5.8'
p705
sg33
S'8.3'
p706
sg35
S'33'
p707
sg37
S'DNR'
p708
sg39
S'42'
p709
sg41
g3
sg42
S'3.4'
p710
sg44
S'4.4'
p711
sg46
S'8.5'
p712
sg48
S'6.4'
p713
sg49
S'1969-70'
p714
sg51
S'4.5'
p715
sg53
S'2.7'
p716
sg54
S'.402'
p717
sg56
S'475'
p718
sg58
g3
sbasS'_fromYear'
p719
S'1963'
p720
sS'_url'
p721
S'http://www.basketball-reference.com/players/w/warlebe01.html'
p722
sS'_perGame'
p723
(isrc.gp1.models.PerGame
PerGame
p724
(dp725
g8
S'0.6'
p726
sg9
S'1.4'
p727
sg10
S'.353'
p728
sS'_effectiveFieldGalPercentage'
p729
S'.397'
p730
sg12
S'0.7'
p731
sg14
S'.259'
p732
sg15
S'0.4'
p733
sg16
S'4.6'
p734
sg18
S'SF'
p735
sg20
S'.763'
p736
sg24
S'ABA'
p737
sg26
g3
sg29
S'2.3'
p738
sS'_fieldGoalsttempted'
p739
S'4.0'
p740
sg31
S'1.8'
p741
sg33
S'2.6'
p742
sg35
S'33'
p743
sg37
S'DNR'
p744
sg39
S'42'
p745
sg41
g3
sg42
S'1.1'
p746
sg44
S'1.4'
p747
sg46
S'2.7'
p748
sg48
S'2.0'
p749
sg49
S'1969-70'
p750
sg51
S'1.4'
p751
sg53
S'0.9'
p752
sg54
S'.402'
p753
sg56
S'11.3'
p754
sg58
g3
sbsS'_weight'
p755
S'200'
p756
sS'_dob'
p757
S'4-9-1936'
p758
sS'_salary'
p759
(lp760
sg18
S'F-G'
p761
sb.