(isrc.gp1.models.Player
Player
p0
(dp1
S'_experience'
p2
S'NA'
p3
sS'_totals'
p4
(lp5
(isrc.gp1.models.Totals
Totals
p6
(dp7
S'_offensiveRebounds'
p8
S'9'
p9
sS'_threePointsAttempted'
p10
S'8'
p11
sS'_fieldGoalsPercentage'
p12
S'0'
p13
sS'_assist'
p14
S'1'
p15
sS'_threePointsPercentage'
p16
S'18'
p17
sS'_threePoints'
p18
g13
sS'_points'
p19
g3
sS'_position'
p20
S'SF'
p21
sS'_freeThrowsPercentage'
p22
S'2'
p23
sS'_effectiveFieldGoalPercentage'
p24
g23
sS'_league'
p25
S'NBA'
p26
sS'_steals'
p27
S'3'
p28
sS'_fieldGoalsAttempted'
p29
S'.444'
p30
sS'_personalFouls'
p31
g3
sS'_freeThrowsAttempted'
p32
S'7'
p33
sS'_totalRebounds'
p34
g13
sS'_age'
p35
S'23'
p36
sS'_team'
p37
S'GSW'
p38
sS'_games'
p39
g33
sS'_blocks'
p40
g11
sS'_twoPoints'
p41
S'.444'
p42
sS'_freeThrows'
p43
S'.500'
p44
sS'_twoPointsAttempted'
p45
S'.444'
p46
sS'_defensiveRebounds'
p47
g15
sS'_season'
p48
S'1980-81'
p49
sS'_fieldGoals'
p50
S'18'
p51
sS'_turnOvers'
p52
S'17'
p53
sS'_twoPointsPercentage'
p54
g15
sS'_minutesPlayed'
p55
g11
sS'_gamesStarted'
p56
S'54'
p57
sbasS'_college'
p58
S'University of Iowa'
p59
sS'_toYear'
p60
S'1981'
p61
sS'_height'
p62
S'6-7'
p63
sS'_active'
p64
I00
sS'_shootingHand'
p65
VRight
p66
sS'_name'
p67
S'Bill Mayfield'
p68
sS'_per100Possessions'
p69
(lp70
(isrc.gp1.models.Per100Possession
Per100Possession
p71
(dp72
g8
S'7.9'
p73
sg10
S'7.0'
p74
sg12
S'0.0'
p75
sS'_offensiveRating'
p76
g3
sg14
S'0.9'
p77
sg16
S'15.8'
p78
sg18
S'0.0'
p79
sg19
S'115'
p80
sg20
S'SF'
p81
sS'_defensiveRating'
p82
g3
sg22
S'1.8'
p83
sg25
S'NBA'
p84
sg27
S'2.6'
p85
sg29
S'.444'
p86
sg31
S'98'
p87
sg32
S'6.2'
p88
sg34
S'0.0'
p89
sg35
S'23'
p90
sg37
S'GSW'
p91
sg39
g33
sg40
S'7.0'
p92
sg41
S'.444'
p93
sg43
S'.500'
p94
sg45
S'0.9'
p95
sg47
S'0.9'
p96
sg48
S'1980-81'
p97
sg50
S'15.8'
p98
sg52
S'15.0'
p99
sg54
S'1.8'
p100
sg55
S'7.0'
p101
sg56
S'54'
p102
sbasS'_advanced'
p103
(lp104
(isrc.gp1.models.Advanced
Advanced
p105
(dp106
S'_offensiveReboundPercentage'
p107
S'14.2'
p108
sS'_turnOverPercentage'
p109
S'13.7'
p110
sS'_winSharesPer48Minutes'
p111
S'.000'
p112
sS'_stealPercentage'
p113
S'0.0'
p114
sS'_usagePercentage'
p115
S'16.1'
p116
sS'_totalReboundsPercentage'
p117
S'9.2'
p118
sS'_defensiveBoxPlusMinus'
p119
S'-3.8'
p120
sg20
S'SF'
p121
sS'_valueOverReplacementPlayer'
p122
S'-0.1'
p123
sS'_trueShootingPercentage'
p124
S'.450'
p125
sS'_defensiveReboundPercentage'
p126
S'4.2'
p127
sS'_freeThrowsAttempRate'
p128
S'.111'
p129
sS'_threePointsAttempRate'
p130
S'.000'
p131
sg25
S'NBA'
p132
sS'_offensiveBoxPlusMinues'
p133
S'-2.6'
p134
sS'_assistPercentage'
p135
S'2.5'
p136
sS'_defensiveWinShares'
p137
S'0.0'
p138
sg35
S'23'
p139
sg37
S'GSW'
p140
sg39
g33
sS'_blockPercentage'
p141
S'1.0'
p142
sS'_playerEfficiencyRating'
p143
S'6.8'
p144
sS'_offensiveWinShares'
p145
S'0.0'
p146
sg55
S'54'
p147
sS'_boxPlusMinus'
p148
S'-6.4'
p149
sg48
S'1980-81'
p150
sS'_winShares'
p151
S'0.0'
p152
sbasS'_per36Minutes'
p153
(lp154
(isrc.gp1.models.Per36Minutes
Per36Minutes
p155
(dp156
g8
S'6.0'
p157
sg10
S'5.3'
p158
sg12
S'0.0'
p159
sg14
S'0.7'
p160
sg16
S'12.0'
p161
sg18
S'0.0'
p162
sg19
g3
sg20
S'SF'
p163
sg22
S'1.3'
p164
sg25
S'NBA'
p165
sg27
S'2.0'
p166
sg29
S'.444'
p167
sg31
g3
sg32
S'4.7'
p168
sg34
S'0.0'
p169
sg35
S'23'
p170
sg37
S'GSW'
p171
sg39
g33
sg40
S'5.3'
p172
sg41
S'.444'
p173
sg43
S'.500'
p174
sg45
S'0.7'
p175
sg47
S'0.7'
p176
sg48
S'1980-81'
p177
sg50
S'12.0'
p178
sg52
S'11.3'
p179
sg54
S'1.3'
p180
sg55
S'5.3'
p181
sg56
S'54'
p182
sbasS'_fromYear'
p183
S'1981'
p184
sS'_url'
p185
S'http://www.basketball-reference.com/players/m/mayfibi01.html'
p186
sS'_perGame'
p187
(isrc.gp1.models.PerGame
PerGame
p188
(dp189
g8
S'1.3'
p190
sg10
S'1.1'
p191
sg12
S'0.0'
p192
sS'_effectiveFieldGalPercentage'
p193
S'0.3'
p194
sg14
S'0.1'
p195
sg16
S'2.6'
p196
sg18
S'0.0'
p197
sg19
g3
sg20
S'SF'
p198
sg22
S'0.3'
p199
sg25
S'NBA'
p200
sg27
S'0.4'
p201
sg31
g3
sS'_fieldGoalsttempted'
p202
S'.444'
p203
sg32
S'1.0'
p204
sg34
S'0.0'
p205
sg35
S'23'
p206
sg37
S'GSW'
p207
sg39
g33
sg40
S'1.1'
p208
sg41
S'.444'
p209
sg43
S'.500'
p210
sg45
S'.444'
p211
sg47
S'0.1'
p212
sg48
S'1980-81'
p213
sg50
S'2.6'
p214
sg52
S'2.4'
p215
sg54
S'0.1'
p216
sg55
S'1.1'
p217
sg56
S'7.7'
p218
sbsS'_weight'
p219
S'205'
p220
sS'_dob'
p221
S'17-10-1957'
p222
sS'_salary'
p223
(lp224
sg20
S'F'
p225
sb.