(isrc.gp1.models.Player
Player
p0
(dp1
S'_experience'
p2
S'NA'
p3
sS'_totals'
p4
(lp5
(isrc.gp1.models.Totals
Totals
p6
(dp7
S'_offensiveRebounds'
p8
S'701'
p9
sS'_threePointsAttempted'
p10
S'.000'
p11
sS'_fieldGoalsPercentage'
p12
S'0'
p13
sS'_assist'
p14
S'206'
p15
sS'_threePointsPercentage'
p16
S'510'
p17
sS'_threePoints'
p18
S'2'
p19
sS'_points'
p20
g3
sS'_position'
p21
S'C'
p22
sS'_freeThrowsPercentage'
p23
S'239'
p24
sS'_effectiveFieldGoalPercentage'
p25
S'201'
p26
sS'_league'
p27
S'ABA'
p28
sS'_steals'
p29
S'274'
p30
sS'_fieldGoalsAttempted'
p31
S'.524'
p32
sS'_personalFouls'
p33
g3
sS'_freeThrowsAttempted'
p34
S'.747'
p35
sS'_totalRebounds'
p36
S'160'
p37
sS'_age'
p38
S'22'
p39
sS'_team'
p40
S'NYA'
p41
sS'_games'
p42
S'83'
p43
sS'_blocks'
p44
S'1221'
p45
sS'_twoPoints'
p46
S'971'
p47
sS'_freeThrows'
p48
S'269'
p49
sS'_twoPointsAttempted'
p50
S'.525'
p51
sS'_defensiveRebounds'
p52
S'940'
p53
sS'_season'
p54
S'1970-71'
p55
sS'_fieldGoals'
p56
S'973'
p57
sS'_turnOvers'
p58
g3
sS'_twoPointsPercentage'
p59
S'.524'
p60
sS'_minutesPlayed'
p61
S'510'
p62
sS'_gamesStarted'
p63
S'2758'
p64
sba(isrc.gp1.models.Totals
Totals
p65
(dp66
g8
S'772'
p67
sg10
S'.000'
p68
sg12
g13
sg14
S'214'
p69
sg16
S'498'
p70
sg18
S'3'
p71
sg20
g3
sg21
g22
sg23
S'263'
p72
sg25
S'207'
p73
sg27
S'ABA'
p74
sg29
S'298'
p75
sg31
S'.488'
p76
sg33
g3
sg34
S'.692'
p77
sg36
S'128'
p78
sg38
S'23'
p79
sg40
S'NYA'
p80
sg42
S'83'
p81
sg44
S'1203'
p82
sg46
S'1018'
p83
sg48
S'299'
p84
sg50
S'.489'
p85
sg52
S'1035'
p86
sg54
S'1971-72'
p87
sg56
S'1021'
p88
sg58
g3
sg59
S'.488'
p89
sg61
S'498'
p90
sg63
S'2824'
p91
sba(isrc.gp1.models.Totals
Totals
p92
(dp93
g8
S'736'
p94
sg10
S'.000'
p95
sg12
g13
sg14
S'214'
p96
sg16
S'532'
p97
sg18
g19
sg20
g3
sg21
g22
sg23
S'279'
p98
sg25
S'287'
p99
sg27
S'ABA'
p100
sg29
S'213'
p101
sg31
S'.518'
p102
sg33
g3
sg34
S'.709'
p103
sg36
S'189'
p104
sg38
S'24'
p105
sg40
S'NYA'
p106
sg42
S'81'
p107
sg44
S'259'
p108
sg46
S'1025'
p109
sg48
S'405'
p110
sg50
S'.519'
p111
sg52
S'1015'
p112
sg54
S'1972-73'
p113
sg56
S'1027'
p114
sg58
S'1351'
p115
sg59
S'.518'
p116
sg61
S'532'
p117
sg63
S'2800'
p118
sba(isrc.gp1.models.Totals
Totals
p119
(dp120
g8
S'571'
p121
sg10
S'.000'
p122
sg12
g13
sg14
S'60'
p123
sg16
S'519'
p124
sg18
S'1'
p125
sg20
g3
sg21
g22
sg23
S'211'
p126
sg25
S'222'
p127
sg27
S'ABA'
p128
sg29
S'147'
p129
sg31
S'.494'
p130
sg33
S'1260'
p131
sg34
S'.721'
p132
sg36
S'167'
p133
sg38
S'25'
p134
sg40
S'NYA'
p135
sg42
S'77'
p136
sg44
S'175'
p137
sg46
S'1050'
p138
sg48
S'308'
p139
sg50
S'.494'
p140
sg52
S'782'
p141
sg54
S'1973-74'
p142
sg56
S'1051'
p143
sg58
S'238'
p144
sg59
S'.494'
p145
sg61
S'519'
p146
sg63
S'2596'
p147
sba(isrc.gp1.models.Totals
Totals
p148
(dp149
g8
S'598'
p150
sg10
S'.000'
p151
sg12
g13
sg14
S'59'
p152
sg16
S'524'
p153
sg18
g71
sg20
g3
sg21
g22
sg23
S'174'
p154
sg25
S'214'
p155
sg27
S'ABA'
p156
sg29
S'137'
p157
sg31
S'.485'
p158
sg33
S'1262'
p159
sg34
S'.748'
p160
sg36
S'179'
p161
sg38
S'26'
p162
sg40
S'NYA'
p163
sg42
S'80'
p164
sg44
S'149'
p165
sg46
S'1077'
p166
sg48
S'286'
p167
sg50
S'.487'
p168
sg52
S'772'
p169
sg54
S'1974-75'
p170
sg56
S'1080'
p171
sg58
S'273'
p172
sg59
S'.485'
p173
sg61
S'524'
p174
sg63
S'2826'
p175
sba(isrc.gp1.models.Totals
Totals
p176
(dp177
g8
S'652'
p178
sg10
S'.000'
p179
sg12
g13
sg14
S'61'
p180
sg16
S'566'
p181
sg18
g19
sg20
g3
sg21
g22
sg23
S'210'
p182
sg25
S'238'
p183
sg27
S'ABA'
p184
sg29
S'253'
p185
sg31
S'.504'
p186
sg33
S'1370'
p187
sg34
S'.735'
p188
sg36
S'340'
p189
sg38
S'27'
p190
sg40
S'SAA'
p191
sg42
S'83'
p192
sg44
S'231'
p193
sg46
S'1122'
p194
sg48
S'324'
p195
sg50
S'.504'
p196
sg52
S'862'
p197
sg54
S'1975-76'
p198
sg56
S'1124'
p199
sg58
S'232'
p200
sg59
S'.504'
p201
sg61
S'566'
p202
sg63
S'2958'
p203
sba(isrc.gp1.models.Totals
Totals
p204
(dp205
g8
S'55'
p206
sg10
S'.473'
p207
sg12
S'521'
p208
sg14
S'1280'
p209
sg16
S'.473'
p210
sg18
S'1102'
p211
sg20
g3
sg21
g22
sg23
S'223'
p212
sg25
S'192'
p213
sg27
S'NBA'
p214
sg29
g3
sg31
S'.473'
p215
sg33
g3
sg34
S'687'
p216
sg36
S'262'
p217
sg38
S'28'
p218
sg40
S'SAS'
p219
sg42
S'82'
p220
sg44
g3
sg46
S'238'
p221
sg48
S'495'
p222
sg50
S'320'
p223
sg52
S'173'
p224
sg54
S'1976-77'
p225
sg56
S'1102'
p226
sg58
g3
sg59
S'.744'
p227
sg61
S'521'
p228
sg63
S'2694'
p229
sba(isrc.gp1.models.Totals
Totals
p230
(dp231
g8
S'42'
p232
sg10
S'.529'
p233
sg12
S'518'
p234
sg14
S'222'
p235
sg16
S'.529'
p236
sg18
S'979'
p237
sg20
g3
sg21
g22
sg23
S'213'
p238
sg25
S'172'
p239
sg27
S'NBA'
p240
sg29
S'1266'
p241
sg31
S'.529'
p242
sg33
g3
sg34
S'675'
p243
sg36
S'167'
p244
sg38
S'29'
p245
sg40
S'SAS'
p246
sg42
S'80'
p247
sg44
g3
sg46
S'230'
p248
sg48
S'503'
p249
sg50
S'306'
p250
sg52
S'194'
p251
sg54
S'1977-78'
p252
sg56
S'979'
p253
sg58
g3
sg59
S'.752'
p254
sg61
S'518'
p255
sg63
S'2479'
p256
sba(isrc.gp1.models.Totals
Totals
p257
(dp258
g8
S'35'
p259
sg10
S'.526'
p260
sg12
S'399'
p261
sg14
S'204'
p262
sg16
S'.526'
p263
sg18
S'758'
p264
sg20
g3
sg21
g22
sg23
S'178'
p265
sg25
S'169'
p266
sg27
S'NBA'
p267
sg29
S'912'
p268
sg31
S'.526'
p269
sg33
g3
sg34
S'625'
p270
sg36
S'157'
p271
sg38
S'30'
p272
sg40
S'SAS'
p273
sg42
S'79'
p274
sg44
g3
sg46
S'114'
p275
sg48
S'456'
p276
sg50
S'194'
p277
sg52
S'125'
p278
sg54
S'1978-79'
p279
sg56
S'758'
p280
sg58
g3
sg59
S'.588'
p281
sg61
S'399'
p282
sg63
S'2122'
p283
sba(isrc.gp1.models.Totals
Totals
p284
(dp285
g8
S'399'
p286
sg10
S'.000'
p287
sg12
g13
sg14
S'69'
p288
sg16
S'327'
p289
sg18
g125
sg20
g3
sg21
g22
sg23
S'187'
p290
sg25
S'109'
p291
sg27
S'NBA'
p292
sg29
S'84'
p293
sg31
S'.486'
p294
sg33
S'763'
p295
sg34
S'.599'
p296
sg36
S'188'
p297
sg38
S'31'
p298
sg40
S'TOT'
p299
sg42
S'84'
p300
sg44
S'115'
p301
sg46
S'672'
p302
sg48
S'182'
p303
sg50
S'.487'
p304
sg52
S'586'
p305
sg54
S'1979-80'
p306
sg56
S'673'
p307
sg58
S'213'
p308
sg59
S'.486'
p309
sg61
S'327'
p310
sg63
S'2193'
p311
sba(isrc.gp1.models.Totals
Totals
p312
(dp313
g8
S'226'
p314
sg10
S'.000'
p315
sg12
g13
sg14
S'47'
p316
sg16
S'189'
p317
sg18
g125
sg20
g3
sg21
g22
sg23
S'95'
p318
sg25
S'66'
p319
sg27
S'NBA'
p320
sg29
S'45'
p321
sg31
S'.496'
p322
sg33
S'444'
p323
sg34
S'.660'
p324
sg36
S'118'
p325
sg38
S'31'
p326
sg40
S'SAS'
p327
sg42
S'47'
p328
sg44
S'58'
p329
sg46
S'380'
p330
sg48
S'100'
p331
sg50
S'.497'
p332
sg52
S'321'
p333
sg54
S'1979-80'
p334
sg56
S'381'
p335
sg58
S'127'
p336
sg59
S'.496'
p337
sg61
S'189'
p338
sg63
S'1213'
p339
sba(isrc.gp1.models.Totals
Totals
p340
(dp341
g8
S'265'
p342
sg10
S'138'
p343
sg12
g13
sg14
S'39'
p344
sg16
S'292'
p345
sg18
g13
sg20
g3
sg21
g22
sg23
S'173'
p346
sg25
S'82'
p347
sg27
S'NBA'
p348
sg29
S'57'
p349
sg31
S'.473'
p350
sg33
g3
sg34
S'92'
p351
sg36
S'22'
p352
sg38
S'31'
p353
sg40
S'HOU'
p354
sg42
S'37'
p355
sg44
S'86'
p356
sg46
S'.473'
p357
sg48
S'.524'
p358
sg50
S'.473'
p359
sg52
S'70'
p360
sg54
S'1979-80'
p361
sg56
S'292'
p362
sg58
S'319'
p363
sg59
S'43'
p364
sg61
S'138'
p365
sg63
S'980'
p366
sba(isrc.gp1.models.Totals
Totals
p367
(dp368
g8
S'280'
p369
sg10
S'.000'
p370
sg12
g13
sg14
S'28'
p371
sg16
S'262'
p372
sg18
g71
sg20
g3
sg21
S'PF'
p373
sg23
S'111'
p374
sg25
S'75'
p375
sg27
S'NBA'
p376
sg29
S'72'
p377
sg31
S'.507'
p378
sg33
S'599'
p379
sg34
S'.490'
p380
sg36
S'105'
p381
sg38
S'32'
p382
sg40
S'HOU'
p383
sg42
S'81'
p384
sg44
S'89'
p385
sg46
S'514'
p386
sg48
S'153'
p387
sg50
S'.510'
p388
sg52
S'391'
p389
sg54
S'1980-81'
p390
sg56
S'517'
p391
sg58
S'182'
p392
sg59
S'.507'
p393
sg61
S'262'
p394
sg63
S'1659'
p395
sba(isrc.gp1.models.Totals
Totals
p396
(dp397
g8
S'126'
p398
sg10
g13
sg12
S'.394'
p399
sg14
S'15'
p400
sg16
S'89'
p401
sg18
g13
sg20
g3
sg21
g22
sg23
S'54'
p402
sg25
S'34'
p403
sg27
S'NBA'
p404
sg29
S'22'
p405
sg31
S'226'
p406
sg33
S'212'
p407
sg34
S'.523'
p408
sg36
S'41'
p409
sg38
S'33'
p410
sg40
S'HOU'
p411
sg42
S'65'
p412
sg44
S'45'
p413
sg46
S'226'
p414
sg48
S'65'
p415
sg50
S'.394'
p416
sg52
S'180'
p417
sg54
S'1981-82'
p418
sg56
S'89'
p419
sg58
S'99'
p420
sg59
S'.394'
p421
sg61
S'807'
p422
sg63
g71
sba(isrc.gp1.models.Totals
Totals
p423
(dp424
g8
S'136'
p425
sg10
g13
sg12
S'.445'
p426
sg14
S'17'
p427
sg16
S'101'
p428
sg18
g13
sg20
g3
sg21
g22
sg23
S'64'
p429
sg25
S'27'
p430
sg27
S'NBA'
p431
sg29
S'18'
p432
sg31
S'227'
p433
sg33
S'229'
p434
sg34
S'.458'
p435
sg36
S'61'
p436
sg38
S'34'
p437
sg40
S'TOT'
p438
sg42
S'64'
p439
sg44
S'47'
p440
sg46
S'227'
p441
sg48
S'59'
p442
sg50
S'.445'
p443
sg52
S'200'
p444
sg54
S'1982-83'
p445
sg56
S'101'
p446
sg58
S'109'
p447
sg59
S'.445'
p448
sg61
S'820'
p449
sg63
g13
sba(isrc.gp1.models.Totals
Totals
p450
(dp451
g8
S'113'
p452
sg10
g13
sg12
S'.445'
p453
sg14
S'12'
p454
sg16
S'89'
p455
sg18
g13
sg20
g3
sg21
g22
sg23
S'54'
p456
sg25
S'26'
p457
sg27
S'NBA'
p458
sg29
S'12'
p459
sg31
S'200'
p460
sg33
S'204'
p461
sg34
S'.456'
p462
sg36
S'57'
p463
sg38
S'34'
p464
sg40
S'HOU'
p465
sg42
S'57'
p466
sg44
S'41'
p467
sg46
S'200'
p468
sg48
S'57'
p469
sg50
S'.445'
p470
sg52
S'167'
p471
sg54
S'1982-83'
p472
sg56
S'89'
p473
sg58
S'95'
p474
sg59
S'.445'
p475
sg61
S'695'
p476
sg63
g13
sba(isrc.gp1.models.Totals
Totals
p477
(dp478
g8
S'23'
p479
sg10
g13
sg12
S'.444'
p480
sg14
S'5'
p481
sg16
S'12'
p482
sg18
g13
sg20
g3
sg21
g22
sg23
S'10'
p483
sg25
g125
sg27
S'NBA'
p484
sg29
S'6'
p485
sg31
S'27'
p486
sg33
S'25'
p487
sg34
S'.500'
p488
sg36
S'4'
p489
sg38
S'34'
p490
sg40
S'SAS'
p491
sg42
S'7'
p492
sg44
g485
sg46
S'27'
p493
sg48
g19
sg50
S'.444'
p494
sg52
S'33'
p495
sg54
S'1982-83'
p496
sg56
S'12'
p497
sg58
S'14'
p498
sg59
S'.444'
p499
sg61
S'125'
p500
sg63
g13
sba(isrc.gp1.models.Totals
Totals
p501
(dp502
g8
S'78'
p503
sg10
g13
sg12
S'.409'
p504
sg14
S'8'
p505
sg16
S'36'
p506
sg18
g13
sg20
g3
sg21
g22
sg23
S'35'
p507
sg25
S'17'
p508
sg27
S'NBA'
p509
sg29
g492
sg31
S'88'
p510
sg33
S'89'
p511
sg34
S'.515'
p512
sg36
S'18'
p513
sg38
S'35'
p514
sg40
S'ATL'
p515
sg42
S'40'
p516
sg44
S'22'
p517
sg46
S'88'
p518
sg48
S'33'
p519
sg50
S'.409'
p520
sg52
S'113'
p521
sg54
S'1983-84'
p522
sg56
S'36'
p523
sg58
S'57'
p524
sg59
S'.409'
p525
sg61
S'486'
p526
sg63
g489
sba(isrc.gp1.models.Totals
Totals
p527
(dp528
g8
S'72'
p529
sg10
g13
sg12
S'.368'
p530
sg14
g485
sg16
S'32'
p531
sg18
g13
sg20
g3
sg21
g22
sg23
S'24'
p532
sg25
S'18'
p533
sg27
S'NBA'
p534
sg29
S'11'
p535
sg31
S'87'
p536
sg33
S'82'
p537
sg34
S'.643'
p538
sg36
S'16'
p539
sg38
S'36'
p540
sg40
S'UTA'
p541
sg42
S'62'
p542
sg44
S'30'
p543
sg46
S'87'
p544
sg48
S'28'
p545
sg50
S'.368'
p546
sg52
S'96'
p547
sg54
S'1984-85'
p548
sg56
S'32'
p549
sg58
S'51'
p550
sg59
S'.368'
p551
sg61
S'370'
p552
sg63
g13
sbasS'_college'
p553
S"St. John's University"
p554
sS'_toYear'
p555
S'1985'
p556
sS'_height'
p557
S'6-11'
p558
sS'_active'
p559
I00
sS'_shootingHand'
p560
VRight
p561
sS'_name'
p562
S'Billy Paultz'
p563
sS'_per100Possessions'
p564
(lp565
(isrc.gp1.models.Per100Possession
Per100Possession
p566
(dp567
g8
S'10.1'
p568
sg10
S'.000'
p569
sg12
S'0.0'
p570
sS'_offensiveRating'
p571
S'96'
p572
sg14
S'1.1'
p573
sg16
S'9.1'
p574
sg18
S'0.0'
p575
sg20
S'107'
p576
sg21
g22
sS'_defensiveRating'
p577
g3
sg23
S'3.7'
p578
sg27
S'ABA'
p579
sg29
S'2.6'
p580
sg31
S'.494'
p581
sg33
S'22.2'
p582
sg34
S'.721'
p583
sg36
S'2.9'
p584
sg38
S'25'
p585
sg40
S'NYA'
p586
sg42
S'77'
p587
sg44
S'3.1'
p588
sg46
S'18.5'
p589
sg48
S'5.4'
p590
sg50
S'.494'
p591
sg52
S'13.8'
p592
sg54
S'1973-74'
p593
sg56
S'18.5'
p594
sg58
S'4.2'
p595
sg59
S'3.9'
p596
sg61
S'9.1'
p597
sg63
S'2596'
p598
sba(isrc.gp1.models.Per100Possession
Per100Possession
p599
(dp600
g8
S'9.8'
p601
sg10
S'.000'
p602
sg12
S'0.0'
p603
sg571
S'98'
p604
sg14
S'1.0'
p605
sg16
S'8.6'
p606
sg18
S'0.0'
p607
sg20
S'107'
p608
sg21
g22
sg577
g3
sg23
S'2.9'
p609
sg27
S'ABA'
p610
sg29
S'2.3'
p611
sg31
S'.485'
p612
sg33
S'20.7'
p613
sg34
S'.748'
p614
sg36
S'2.9'
p615
sg38
S'26'
p616
sg40
S'NYA'
p617
sg42
S'80'
p618
sg44
S'2.4'
p619
sg46
S'17.7'
p620
sg48
S'4.7'
p621
sg50
S'.487'
p622
sg52
S'12.7'
p623
sg54
S'1974-75'
p624
sg56
S'17.7'
p625
sg58
S'4.5'
p626
sg59
S'3.5'
p627
sg61
S'8.6'
p628
sg63
S'2826'
p629
sba(isrc.gp1.models.Per100Possession
Per100Possession
p630
(dp631
g8
S'9.9'
p632
sg10
S'.000'
p633
sg12
S'0.0'
p634
sg571
S'100'
p635
sg14
S'0.9'
p636
sg16
S'8.6'
p637
sg18
S'0.0'
p638
sg20
S'108'
p639
sg21
g22
sg577
g3
sg23
S'3.2'
p640
sg27
S'ABA'
p641
sg29
S'3.8'
p642
sg31
S'.504'
p643
sg33
S'20.8'
p644
sg34
S'.735'
p645
sg36
S'5.2'
p646
sg38
S'27'
p647
sg40
S'SAA'
p648
sg42
S'83'
p649
sg44
S'3.5'
p650
sg46
S'17.1'
p651
sg48
S'4.9'
p652
sg50
S'.504'
p653
sg52
S'13.1'
p654
sg54
S'1975-76'
p655
sg56
S'17.1'
p656
sg58
S'3.5'
p657
sg59
S'3.6'
p658
sg61
S'8.6'
p659
sg63
S'2958'
p660
sba(isrc.gp1.models.Per100Possession
Per100Possession
p661
(dp662
g8
S'0.9'
p663
sg10
S'.473'
p664
sg12
S'8.3'
p665
sg571
g3
sg14
S'20.4'
p666
sg16
S'3.8'
p667
sg18
S'17.6'
p668
sg20
g3
sg21
g22
sg577
g3
sg23
S'3.6'
p669
sg27
S'NBA'
p670
sg29
S'101'
p671
sg31
S'.473'
p672
sg33
g3
sg34
S'10.9'
p673
sg36
S'4.2'
p674
sg38
S'28'
p675
sg40
S'SAS'
p676
sg42
S'82'
p677
sg44
g3
sg46
S'5.1'
p678
sg48
S'7.9'
p679
sg50
S'.744'
p680
sg52
S'2.8'
p681
sg54
S'1976-77'
p682
sg56
S'17.6'
p683
sg58
g3
sg59
S'3.1'
p684
sg61
S'8.3'
p685
sg63
S'2694'
p686
sba(isrc.gp1.models.Per100Possession
Per100Possession
p687
(dp688
g8
S'0.7'
p689
sg10
S'.529'
p690
sg12
S'9.2'
p691
sg571
g3
sg14
S'3.9'
p692
sg16
S'4.1'
p693
sg18
S'17.4'
p694
sg20
g3
sg21
g22
sg577
g3
sg23
S'3.8'
p695
sg27
S'NBA'
p696
sg29
S'22.5'
p697
sg31
S'.529'
p698
sg33
g3
sg34
S'12.0'
p699
sg36
S'3.0'
p700
sg38
S'29'
p701
sg40
S'SAS'
p702
sg42
S'80'
p703
sg44
S'111'
p704
sg46
S'5.4'
p705
sg48
S'8.9'
p706
sg50
S'.752'
p707
sg52
S'3.4'
p708
sg54
S'1977-78'
p709
sg56
S'17.4'
p710
sg58
S'100'
p711
sg59
S'3.1'
p712
sg61
S'9.2'
p713
sg63
S'2479'
p714
sba(isrc.gp1.models.Per100Possession
Per100Possession
p715
(dp716
g8
S'0.7'
p717
sg10
S'.526'
p718
sg12
S'8.2'
p719
sg571
g3
sg14
S'4.2'
p720
sg16
S'2.3'
p721
sg18
S'15.5'
p722
sg20
g3
sg21
g22
sg577
g3
sg23
S'3.6'
p723
sg27
S'NBA'
p724
sg29
S'18.7'
p725
sg31
S'.526'
p726
sg33
g3
sg34
S'12.8'
p727
sg36
S'3.2'
p728
sg38
S'30'
p729
sg40
S'SAS'
p730
sg42
S'79'
p731
sg44
S'104'
p732
sg46
S'4.0'
p733
sg48
S'9.3'
p734
sg50
S'.588'
p735
sg52
S'2.6'
p736
sg54
S'1978-79'
p737
sg56
S'15.5'
p738
sg58
S'101'
p739
sg59
S'3.5'
p740
sg61
S'8.2'
p741
sg63
S'2122'
p742
sba(isrc.gp1.models.Per100Possession
Per100Possession
p743
(dp744
g8
S'8.3'
p745
sg10
S'.000'
p746
sg12
S'0.0'
p747
sg571
S'107'
p748
sg14
S'1.4'
p749
sg16
S'6.8'
p750
sg18
S'0.0'
p751
sg20
S'107'
p752
sg21
g22
sg577
g3
sg23
S'3.9'
p753
sg27
S'NBA'
p754
sg29
S'1.7'
p755
sg31
S'.486'
p756
sg33
S'15.8'
p757
sg34
S'.599'
p758
sg36
S'3.9'
p759
sg38
S'31'
p760
sg40
S'TOT'
p761
sg42
S'84'
p762
sg44
S'2.4'
p763
sg46
S'13.9'
p764
sg48
S'3.8'
p765
sg50
S'.487'
p766
sg52
S'12.1'
p767
sg54
S'1979-80'
p768
sg56
S'13.9'
p769
sg58
S'4.4'
p770
sg59
S'2.3'
p771
sg61
S'6.8'
p772
sg63
S'2193'
p773
sba(isrc.gp1.models.Per100Possession
Per100Possession
p774
(dp775
g8
S'8.2'
p776
sg10
S'.000'
p777
sg12
S'0.0'
p778
sg571
S'107'
p779
sg14
S'1.7'
p780
sg16
S'6.8'
p781
sg18
S'0.0'
p782
sg20
S'111'
p783
sg21
g22
sg577
g3
sg23
S'3.4'
p784
sg27
S'NBA'
p785
sg29
S'1.6'
p786
sg31
S'.496'
p787
sg33
S'16.0'
p788
sg34
S'.660'
p789
sg36
S'4.3'
p790
sg38
S'31'
p791
sg40
S'SAS'
p792
sg42
S'47'
p793
sg44
S'2.1'
p794
sg46
S'13.7'
p795
sg48
S'3.6'
p796
sg50
S'.497'
p797
sg52
S'11.6'
p798
sg54
S'1979-80'
p799
sg56
S'13.8'
p800
sg58
S'4.6'
p801
sg59
S'2.4'
p802
sg61
S'6.8'
p803
sg63
S'1213'
p804
sba(isrc.gp1.models.Per100Possession
Per100Possession
p805
(dp806
g8
S'12.8'
p807
sg10
S'6.7'
p808
sg12
S'0.0'
p809
sg571
g3
sg14
S'1.9'
p810
sg16
S'14.1'
p811
sg18
S'0.0'
p812
sg20
S'107'
p813
sg21
g22
sg577
g3
sg23
S'8.4'
p814
sg27
S'NBA'
p815
sg29
S'2.8'
p816
sg31
S'.473'
p817
sg33
S'103'
p818
sg34
S'4.5'
p819
sg36
S'1.1'
p820
sg38
S'31'
p821
sg40
S'HOU'
p822
sg42
S'37'
p823
sg44
S'4.2'
p824
sg46
S'.473'
p825
sg48
S'.524'
p826
sg50
S'2.1'
p827
sg52
S'3.4'
p828
sg54
S'1979-80'
p829
sg56
S'14.1'
p830
sg58
S'15.4'
p831
sg59
S'4.0'
p832
sg61
S'6.7'
p833
sg63
S'980'
p834
sba(isrc.gp1.models.Per100Possession
Per100Possession
p835
(dp836
g8
S'8.1'
p837
sg10
S'.000'
p838
sg12
S'0.0'
p839
sg571
S'106'
p840
sg14
S'0.8'
p841
sg16
S'7.5'
p842
sg18
S'0.1'
p843
sg20
S'103'
p844
sg21
S'PF'
p845
sg577
g3
sg23
S'3.2'
p846
sg27
S'NBA'
p847
sg29
S'2.1'
p848
sg31
S'.507'
p849
sg33
S'17.2'
p850
sg34
S'.490'
p851
sg36
S'3.0'
p852
sg38
S'32'
p853
sg40
S'HOU'
p854
sg42
S'81'
p855
sg44
S'2.6'
p856
sg46
S'14.8'
p857
sg48
S'4.4'
p858
sg50
S'.510'
p859
sg52
S'11.3'
p860
sg54
S'1980-81'
p861
sg56
S'14.9'
p862
sg58
S'5.2'
p863
sg59
S'2.2'
p864
sg61
S'7.5'
p865
sg63
S'1659'
p866
sba(isrc.gp1.models.Per100Possession
Per100Possession
p867
(dp868
g8
S'7.7'
p869
sg10
S'0.0'
p870
sg12
S'.394'
p871
sg571
S'108'
p872
sg14
S'0.9'
p873
sg16
S'5.4'
p874
sg18
S'0.0'
p875
sg20
S'90'
p876
sg21
g22
sg577
g3
sg23
S'3.3'
p877
sg27
S'NBA'
p878
sg29
S'1.3'
p879
sg31
S'13.8'
p880
sg33
S'13.0'
p881
sg34
S'.523'
p882
sg36
S'2.5'
p883
sg38
S'33'
p884
sg40
S'HOU'
p885
sg42
S'65'
p886
sg44
S'2.8'
p887
sg46
S'13.8'
p888
sg48
S'4.0'
p889
sg50
S'.394'
p890
sg52
S'11.0'
p891
sg54
S'1981-82'
p892
sg56
S'5.4'
p893
sg58
S'6.1'
p894
sg59
S'2.1'
p895
sg61
S'807'
p896
sg63
g71
sba(isrc.gp1.models.Per100Possession
Per100Possession
p897
(dp898
g8
S'7.8'
p899
sg10
S'0.0'
p900
sg12
S'.445'
p901
sg571
S'108'
p902
sg14
S'1.0'
p903
sg16
S'5.8'
p904
sg18
S'0.0'
p905
sg20
S'94'
p906
sg21
g22
sg577
g3
sg23
S'3.7'
p907
sg27
S'NBA'
p908
sg29
S'1.0'
p909
sg31
S'13.0'
p910
sg33
S'13.1'
p911
sg34
S'.458'
p912
sg36
S'3.5'
p913
sg38
S'34'
p914
sg40
S'TOT'
p915
sg42
S'64'
p916
sg44
S'2.7'
p917
sg46
S'13.0'
p918
sg48
S'3.4'
p919
sg50
S'.445'
p920
sg52
S'11.4'
p921
sg54
S'1982-83'
p922
sg56
S'5.8'
p923
sg58
S'6.2'
p924
sg59
S'1.5'
p925
sg61
S'820'
p926
sg63
g13
sba(isrc.gp1.models.Per100Possession
Per100Possession
p927
(dp928
g8
S'7.6'
p929
sg10
S'0.0'
p930
sg12
S'.445'
p931
sg571
S'108'
p932
sg14
S'0.8'
p933
sg16
S'6.0'
p934
sg18
S'0.0'
p935
sg20
S'93'
p936
sg21
g22
sg577
g3
sg23
S'3.7'
p937
sg27
S'NBA'
p938
sg29
S'0.8'
p939
sg31
S'13.5'
p940
sg33
S'13.8'
p941
sg34
S'.456'
p942
sg36
S'3.9'
p943
sg38
S'34'
p944
sg40
S'HOU'
p945
sg42
S'57'
p946
sg44
S'2.8'
p947
sg46
S'13.5'
p948
sg48
S'3.9'
p949
sg50
S'.445'
p950
sg52
S'11.3'
p951
sg54
S'1982-83'
p952
sg56
S'6.0'
p953
sg58
S'6.4'
p954
sg59
S'1.8'
p955
sg61
S'695'
p956
sg63
g13
sba(isrc.gp1.models.Per100Possession
Per100Possession
p957
(dp958
g8
S'8.5'
p959
sg10
S'0.0'
p960
sg12
S'.444'
p961
sg571
S'103'
p962
sg14
S'1.9'
p963
sg16
S'4.5'
p964
sg18
S'0.0'
p965
sg20
S'94'
p966
sg21
g22
sg577
g3
sg23
S'3.7'
p967
sg27
S'NBA'
p968
sg29
S'2.2'
p969
sg31
S'10.0'
p970
sg33
S'9.3'
p971
sg34
S'.500'
p972
sg36
S'1.5'
p973
sg38
S'34'
p974
sg40
S'SAS'
p975
sg42
g492
sg44
S'2.2'
p976
sg46
S'10.0'
p977
sg48
S'0.7'
p978
sg50
S'.444'
p979
sg52
S'12.3'
p980
sg54
S'1982-83'
p981
sg56
S'4.5'
p982
sg58
S'5.2'
p983
sg59
S'0.4'
p984
sg61
S'125'
p985
sg63
g13
sba(isrc.gp1.models.Per100Possession
Per100Possession
p986
(dp987
g8
S'8.1'
p988
sg10
S'0.0'
p989
sg12
S'.409'
p990
sg571
S'107'
p991
sg14
S'0.8'
p992
sg16
S'3.7'
p993
sg18
S'0.0'
p994
sg20
S'91'
p995
sg21
g22
sg577
g3
sg23
S'3.6'
p996
sg27
S'NBA'
p997
sg29
S'0.7'
p998
sg31
S'9.1'
p999
sg33
S'9.2'
p1000
sg34
S'.515'
p1001
sg36
S'1.9'
p1002
sg38
S'35'
p1003
sg40
S'ATL'
p1004
sg42
S'40'
p1005
sg44
S'2.3'
p1006
sg46
S'9.1'
p1007
sg48
S'3.4'
p1008
sg50
S'.409'
p1009
sg52
S'11.7'
p1010
sg54
S'1983-84'
p1011
sg56
S'3.7'
p1012
sg58
S'5.9'
p1013
sg59
S'1.8'
p1014
sg61
S'486'
p1015
sg63
g489
sba(isrc.gp1.models.Per100Possession
Per100Possession
p1016
(dp1017
g8
S'8.9'
p1018
sg10
S'0.0'
p1019
sg12
S'.368'
p1020
sg571
S'103'
p1021
sg14
S'0.7'
p1022
sg16
S'3.9'
p1023
sg18
S'0.0'
p1024
sg20
S'79'
p1025
sg21
g22
sg577
g3
sg23
S'3.0'
p1026
sg27
S'NBA'
p1027
sg29
S'1.4'
p1028
sg31
S'10.7'
p1029
sg33
S'10.1'
p1030
sg34
S'.643'
p1031
sg36
S'2.0'
p1032
sg38
S'36'
p1033
sg40
S'UTA'
p1034
sg42
S'62'
p1035
sg44
S'3.7'
p1036
sg46
S'10.7'
p1037
sg48
S'3.5'
p1038
sg50
S'.368'
p1039
sg52
S'11.8'
p1040
sg54
S'1984-85'
p1041
sg56
S'3.9'
p1042
sg58
S'6.3'
p1043
sg59
S'2.2'
p1044
sg61
S'370'
p1045
sg63
g13
sbasS'_advanced'
p1046
(lp1047
(isrc.gp1.models.Advanced
Advanced
p1048
(dp1049
S'_offensiveReboundPercentage'
p1050
S'16.6'
p1051
sS'_turnOverPercentage'
p1052
S'7.0'
p1053
sS'_winSharesPer48Minutes'
p1054
g3
sS'_stealPercentage'
p1055
S'5.0'
p1056
sS'_usagePercentage'
p1057
S'.122'
p1058
sS'_totalReboundsPercentage'
p1059
S'15.9'
p1060
sS'_defensiveBoxPlusMinus'
p1061
g3
sg21
g22
sS'_valueOverReplacementPlayer'
p1062
g3
sS'_trueShootingPercentage'
p1063
S'.559'
p1064
sS'_defensiveReboundPercentage'
p1065
S'8.1'
p1066
sS'_freeThrowsAttempRate'
p1067
S'.276'
p1068
sS'_threePointsAttempRate'
p1069
S'.002'
p1070
sg27
S'ABA'
p1071
sS'_offensiveBoxPlusMinues'
p1072
g3
sS'_assistPercentage'
p1073
S'17.9'
p1074
sS'_defensiveWinShares'
p1075
g3
sg38
S'22'
p1076
sg40
S'NYA'
p1077
sg42
S'83'
p1078
sS'_blockPercentage'
p1079
S'2.1'
p1080
sS'_playerEfficiencyRating'
p1081
S'17.2'
p1082
sS'_offensiveWinShares'
p1083
g3
sg61
S'2758'
p1084
sS'_boxPlusMinus'
p1085
g3
sg54
S'1970-71'
p1086
sS'_winShares'
p1087
g3
sba(isrc.gp1.models.Advanced
Advanced
p1088
(dp1089
g1050
S'9.3'
p1090
sg1052
S'2.7'
p1091
sg1054
g3
sg1055
S'15.7'
p1092
sg1057
S'2.3'
p1093
sg1059
S'17.8'
p1094
sg1061
g3
sg21
g22
sg1062
g3
sg1063
S'.522'
p1095
sg1065
S'25.8'
p1096
sg1067
S'.293'
p1097
sg1069
S'.003'
p1098
sg27
S'ABA'
p1099
sg1072
g3
sg1073
S'6.2'
p1100
sg1075
S'.085'
p1101
sg38
S'23'
p1102
sg40
S'NYA'
p1103
sg42
S'83'
p1104
sg1079
S'18.8'
p1105
sg1081
S'15.3'
p1106
sg1083
S'5.0'
p1107
sg61
S'2824'
p1108
sg1085
g3
sg54
S'1971-72'
p1109
sg1087
g3
sba(isrc.gp1.models.Advanced
Advanced
p1110
(dp1111
g1050
S'10.5'
p1112
sg1052
S'20.7'
p1113
sg1054
g3
sg1055
S'4.2'
p1114
sg1057
S'5.2'
p1115
sg1059
S'18.4'
p1116
sg1061
g3
sg21
g22
sg1062
g3
sg1063
S'.560'
p1117
sg1065
S'25.9'
p1118
sg1067
S'.394'
p1119
sg1069
S'.002'
p1120
sg27
S'ABA'
p1121
sg1072
g3
sg1073
S'10.4'
p1122
sg1075
S'5.6'
p1123
sg38
S'24'
p1124
sg40
S'NYA'
p1125
sg42
S'81'
p1126
sg1079
S'15.0'
p1127
sg1081
S'21.7'
p1128
sg1083
S'0.4'
p1129
sg61
S'2800'
p1130
sg1085
g3
sg54
S'1972-73'
p1131
sg1087
S'.095'
p1132
sba(isrc.gp1.models.Advanced
Advanced
p1133
(dp1134
g1050
S'8.2'
p1135
sg1052
S'12.9'
p1136
sg1054
S'.165'
p1137
sg1055
S'1.1'
p1138
sg1057
S'20.3'
p1139
sg1059
S'14.9'
p1140
sg1061
S'2.0'
p1141
sg21
g22
sg1062
S'2.7'
p1142
sg1063
S'.531'
p1143
sg1065
S'21.3'
p1144
sg1067
S'.293'
p1145
sg1069
S'.001'
p1146
sg27
S'ABA'
p1147
sg1072
S'0.1'
p1148
sg1073
S'8.6'
p1149
sg1075
S'4.9'
p1150
sg38
S'25'
p1151
sg40
S'NYA'
p1152
sg42
S'77'
p1153
sg1079
S'3.1'
p1154
sg1081
S'18.2'
p1155
sg1083
S'4.0'
p1156
sg61
S'2596'
p1157
sg1085
S'2.1'
p1158
sg54
S'1973-74'
p1159
sg1087
S'8.9'
p1160
sba(isrc.gp1.models.Advanced
Advanced
p1161
(dp1162
g1050
S'6.4'
p1163
sg1052
S'11.0'
p1164
sg1054
S'.152'
p1165
sg1055
S'1.0'
p1166
sg1057
S'19.2'
p1167
sg1059
S'13.8'
p1168
sg1061
S'1.9'
p1169
sg21
g22
sg1062
S'2.3'
p1170
sg1063
S'.523'
p1171
sg1065
S'21.0'
p1172
sg1067
S'.265'
p1173
sg1069
S'.003'
p1174
sg27
S'ABA'
p1175
sg1072
S'-0.6'
p1176
sg1073
S'8.3'
p1177
sg1075
S'5.4'
p1178
sg38
S'26'
p1179
sg40
S'NYA'
p1180
sg42
S'80'
p1181
sg1079
S'2.7'
p1182
sg1081
S'16.3'
p1183
sg1083
S'3.6'
p1184
sg61
S'2826'
p1185
sg1085
S'1.3'
p1186
sg54
S'1974-75'
p1187
sg1087
S'9.0'
p1188
sba(isrc.gp1.models.Advanced
Advanced
p1189
(dp1190
g1050
S'7.3'
p1191
sg1052
S'15.4'
p1192
sg1054
S'.141'
p1193
sg1055
S'0.9'
p1194
sg1057
S'19.5'
p1195
sg1059
S'14.5'
p1196
sg1061
S'2.9'
p1197
sg21
g22
sg1062
S'4.3'
p1198
sg1063
S'.541'
p1199
sg1065
S'21.1'
p1200
sg1067
S'.288'
p1201
sg1069
S'.002'
p1202
sg27
S'ABA'
p1203
sg1072
S'0.8'
p1204
sg1073
S'15.0'
p1205
sg1075
S'4.4'
p1206
sg38
S'27'
p1207
sg40
S'SAA'
p1208
sg42
S'83'
p1209
sg1079
S'4.5'
p1210
sg1081
S'18.6'
p1211
sg1083
S'4.3'
p1212
sg61
S'2958'
p1213
sg1085
S'3.8'
p1214
sg54
S'1975-76'
p1215
sg1087
S'8.7'
p1216
sba(isrc.gp1.models.Advanced
Advanced
p1217
(dp1218
g1050
S'18.7'
p1219
sg1052
S'2.3'
p1220
sg1054
S'0.2'
p1221
sg1055
S'3.1'
p1222
sg1057
S'5.3'
p1223
sg1059
S'11.1'
p1224
sg1061
g3
sg21
g22
sg1062
g3
sg1063
S'.515'
p1225
sg1065
S'13.1'
p1226
sg1067
S'7.4'
p1227
sg1069
S'.290'
p1228
sg27
S'NBA'
p1229
sg1072
S'1.5'
p1230
sg1073
S'0.9'
p1231
sg1075
S'-0.3'
p1232
sg38
S'28'
p1233
sg40
S'SAS'
p1234
sg42
S'82'
p1235
sg1079
S'3.0'
p1236
sg1081
S'15.8'
p1237
sg1083
S'.095'
p1238
sg61
S'2694'
p1239
sg1085
g3
sg54
S'1976-77'
p1240
sg1087
S'0.5'
p1241
sba(isrc.gp1.models.Advanced
Advanced
p1242
(dp1243
g1050
S'20.4'
p1244
sg1052
S'20.0'
p1245
sg1054
S'1.7'
p1246
sg1055
S'3.8'
p1247
sg1057
S'5.6'
p1248
sg1059
S'11.5'
p1249
sg1061
S'2.9'
p1250
sg21
g22
sg1062
g3
sg1063
S'.568'
p1251
sg1065
S'14.3'
p1252
sg1067
S'7.6'
p1253
sg1069
S'.313'
p1254
sg27
S'NBA'
p1255
sg1072
S'1.2'
p1256
sg1073
S'0.7'
p1257
sg1075
S'8.6'
p1258
sg38
S'29'
p1259
sg40
S'SAS'
p1260
sg42
S'80'
p1261
sg1079
S'13.0'
p1262
sg1081
S'19.8'
p1263
sg1083
S'3.0'
p1264
sg61
S'2479'
p1265
sg1085
S'3.1'
p1266
sg54
S'1977-78'
p1267
sg1087
S'.166'
p1268
sba(isrc.gp1.models.Advanced
Advanced
p1269
(dp1270
g1050
S'21.8'
p1271
sg1052
S'17.8'
p1272
sg1054
S'-0.4'
p1273
sg1055
S'2.9'
p1274
sg1057
S'2.1'
p1275
sg1059
S'10.5'
p1276
sg1061
S'1.0'
p1277
sg21
g22
sg1062
g3
sg1063
S'.541'
p1278
sg1065
S'15.5'
p1279
sg1067
S'8.7'
p1280
sg1069
S'.256'
p1281
sg27
S'NBA'
p1282
sg1072
S'1.4'
p1283
sg1073
S'0.7'
p1284
sg1075
S'5.1'
p1285
sg38
S'30'
p1286
sg40
S'SAS'
p1287
sg42
S'79'
p1288
sg1079
S'15.7'
p1289
sg1081
S'15.5'
p1290
sg1083
S'2.9'
p1291
sg61
S'2122'
p1292
sg1085
S'1.6'
p1293
sg54
S'1978-79'
p1294
sg1087
S'.114'
p1295
sba(isrc.gp1.models.Advanced
Advanced
p1296
(dp1297
g1050
S'9.2'
p1298
sg1052
S'13.2'
p1299
sg1054
S'.088'
p1300
sg1055
S'1.4'
p1301
sg1057
S'15.3'
p1302
sg1059
S'14.5'
p1303
sg1061
S'1.2'
p1304
sg21
g22
sg1062
S'1.6'
p1305
sg1063
S'.507'
p1306
sg1065
S'19.8'
p1307
sg1067
S'.270'
p1308
sg1069
S'.001'
p1309
sg27
S'NBA'
p1310
sg1072
S'-0.3'
p1311
sg1073
S'10.7'
p1312
sg1075
S'1.9'
p1313
sg38
S'31'
p1314
sg40
S'TOT'
p1315
sg42
S'84'
p1316
sg1079
S'2.0'
p1317
sg1081
S'13.9'
p1318
sg1083
S'2.1'
p1319
sg61
S'2193'
p1320
sg1085
S'0.8'
p1321
sg54
S'1979-80'
p1322
sg1087
S'4.0'
p1323
sba(isrc.gp1.models.Advanced
Advanced
p1324
(dp1325
g1050
S'8.5'
p1326
sg1052
S'12.0'
p1327
sg1054
S'.104'
p1328
sg1055
S'1.7'
p1329
sg1057
S'15.1'
p1330
sg1059
S'14.2'
p1331
sg1061
S'1.2'
p1332
sg21
g22
sg1062
S'1.1'
p1333
sg1063
S'.522'
p1334
sg1065
S'19.6'
p1335
sg1067
S'.262'
p1336
sg1069
S'.003'
p1337
sg27
S'NBA'
p1338
sg1072
S'0.3'
p1339
sg1073
S'11.9'
p1340
sg1075
S'1.1'
p1341
sg38
S'31'
p1342
sg40
S'SAS'
p1343
sg42
S'47'
p1344
sg1079
S'1.9'
p1345
sg1081
S'14.7'
p1346
sg1083
S'1.6'
p1347
sg61
S'1213'
p1348
sg1085
S'1.5'
p1349
sg54
S'1979-80'
p1350
sg1087
S'2.6'
p1351
sba(isrc.gp1.models.Advanced
Advanced
p1352
(dp1353
g1050
S'10.1'
p1354
sg1052
S'14.8'
p1355
sg1054
S'.068'
p1356
sg1055
S'1.1'
p1357
sg1057
S'15.5'
p1358
sg1059
S'14.9'
p1359
sg1061
S'1.1'
p1360
sg21
g22
sg1062
S'0.5'
p1361
sg1063
S'.486'
p1362
sg1065
S'20.1'
p1363
sg1067
S'.281'
p1364
sg1069
S'.000'
p1365
sg27
S'NBA'
p1366
sg1072
S'-1.2'
p1367
sg1073
S'9.4'
p1368
sg1075
S'0.8'
p1369
sg38
S'31'
p1370
sg40
S'HOU'
p1371
sg42
S'37'
p1372
sg1079
S'2.2'
p1373
sg1081
S'12.8'
p1374
sg1083
S'0.5'
p1375
sg61
S'980'
p1376
sg1085
S'-0.1'
p1377
sg54
S'1979-80'
p1378
sg1087
S'1.4'
p1379
sba(isrc.gp1.models.Advanced
Advanced
p1380
(dp1381
g1050
S'7.4'
p1382
sg1052
S'13.2'
p1383
sg1054
S'.077'
p1384
sg1055
S'0.8'
p1385
sg1057
S'16.5'
p1386
sg1059
S'13.1'
p1387
sg1061
S'0.7'
p1388
sg21
S'PF'
p1389
sg1062
S'0.5'
p1390
sg1063
S'.513'
p1391
sg1065
S'19.0'
p1392
sg1067
S'.296'
p1393
sg1069
S'.006'
p1394
sg27
S'NBA'
p1395
sg1072
S'-1.6'
p1396
sg1073
S'8.5'
p1397
sg1075
S'1.6'
p1398
sg38
S'32'
p1399
sg40
S'HOU'
p1400
sg42
S'81'
p1401
sg1079
S'2.4'
p1402
sg1081
S'12.9'
p1403
sg1083
S'1.0'
p1404
sg61
S'1659'
p1405
sg1085
S'-0.9'
p1406
sg54
S'1980-81'
p1407
sg1087
S'2.7'
p1408
sba(isrc.gp1.models.Advanced
Advanced
p1409
(dp1410
g1050
S'7.1'
p1411
sg1052
S'15.0'
p1412
sg1054
S'.007'
p1413
sg1055
S'0.9'
p1414
sg1057
S'15.2'
p1415
sg1059
S'12.3'
p1416
sg1061
S'-0.1'
p1417
sg21
g22
sg1062
S'-0.6'
p1418
sg1063
S'.416'
p1419
sg1065
S'17.9'
p1420
sg1067
S'.288'
p1421
sg1069
S'.000'
p1422
sg27
S'NBA'
p1423
sg1072
S'-4.8'
p1424
sg1073
S'6.6'
p1425
sg1075
S'0.7'
p1426
sg38
S'33'
p1427
sg40
S'HOU'
p1428
sg42
S'65'
p1429
sg1079
S'1.5'
p1430
sg1081
S'7.7'
p1431
sg1083
S'-0.6'
p1432
sg61
S'807'
p1433
sg1085
S'-5.0'
p1434
sg54
S'1981-82'
p1435
sg1087
S'0.1'
p1436
sba(isrc.gp1.models.Advanced
Advanced
p1437
(dp1438
g1050
S'8.0'
p1439
sg1052
S'15.7'
p1440
sg1054
S'.020'
p1441
sg1055
S'1.0'
p1442
sg1057
S'14.6'
p1443
sg1059
S'13.1'
p1444
sg1061
S'-0.2'
p1445
sg21
g22
sg1062
S'-0.4'
p1446
sg1063
S'.453'
p1447
sg1065
S'18.7'
p1448
sg1067
S'.260'
p1449
sg1069
S'.000'
p1450
sg27
S'NBA'
p1451
sg1072
S'-3.7'
p1452
sg1073
S'10.3'
p1453
sg1075
S'0.6'
p1454
sg38
S'34'
p1455
sg40
S'TOT'
p1456
sg42
S'64'
p1457
sg1079
S'1.2'
p1458
sg1081
S'9.5'
p1459
sg1083
S'-0.2'
p1460
sg61
S'820'
p1461
sg1085
S'-3.8'
p1462
sg54
S'1982-83'
p1463
sg1087
S'0.3'
p1464
sba(isrc.gp1.models.Advanced
Advanced
p1465
(dp1466
g1050
S'7.8'
p1467
sg1052
S'15.4'
p1468
sg1054
S'.014'
p1469
sg1055
S'0.8'
p1470
sg1057
S'15.3'
p1471
sg1059
S'12.9'
p1472
sg1061
S'-0.5'
p1473
sg21
g22
sg1062
S'-0.4'
p1474
sg1063
S'.453'
p1475
sg1065
S'18.6'
p1476
sg1067
S'.285'
p1477
sg1069
S'.000'
p1478
sg27
S'NBA'
p1479
sg1072
S'-3.7'
p1480
sg1073
S'11.4'
p1481
sg1075
S'0.4'
p1482
sg38
S'34'
p1483
sg40
S'HOU'
p1484
sg42
S'57'
p1485
sg1079
S'1.0'
p1486
sg1081
S'9.6'
p1487
sg1083
S'-0.2'
p1488
sg61
S'695'
p1489
sg1085
S'-4.2'
p1490
sg54
S'1982-83'
p1491
sg1087
S'0.2'
p1492
sba(isrc.gp1.models.Advanced
Advanced
p1493
(dp1494
g1050
S'9.1'
p1495
sg1052
S'17.7'
p1496
sg1054
S'.052'
p1497
sg1055
S'1.9'
p1498
sg1057
S'10.8'
p1499
sg1059
S'14.4'
p1500
sg1061
S'1.6'
p1501
sg21
g22
sg1062
S'0.0'
p1502
sg1063
S'.448'
p1503
sg1065
S'19.4'
p1504
sg1067
S'.074'
p1505
sg1069
S'.000'
p1506
sg27
S'NBA'
p1507
sg1072
S'-3.2'
p1508
sg1073
S'3.8'
p1509
sg1075
S'0.2'
p1510
sg38
S'34'
p1511
sg40
S'SAS'
p1512
sg42
g492
sg1079
S'2.6'
p1513
sg1081
S'9.4'
p1514
sg1083
S'0.0'
p1515
sg61
S'125'
p1516
sg1085
S'-1.6'
p1517
sg54
S'1982-83'
p1518
sg1087
S'0.1'
p1519
sba(isrc.gp1.models.Advanced
Advanced
p1520
(dp1521
g1050
S'8.1'
p1522
sg1052
S'17.7'
p1523
sg1054
S'.027'
p1524
sg1055
S'0.8'
p1525
sg1057
S'11.1'
p1526
sg1059
S'13.3'
p1527
sg1061
S'0.5'
p1528
sg21
g22
sg1062
S'-0.3'
p1529
sg1063
S'.434'
p1530
sg1065
S'18.6'
p1531
sg1067
S'.375'
p1532
sg1069
S'.000'
p1533
sg27
S'NBA'
p1534
sg1072
S'-4.7'
p1535
sg1073
S'5.0'
p1536
sg1075
S'0.5'
p1537
sg38
S'35'
p1538
sg40
S'ATL'
p1539
sg42
S'40'
p1540
sg1079
S'0.9'
p1541
sg1081
S'6.6'
p1542
sg1083
S'-0.3'
p1543
sg61
S'486'
p1544
sg1085
S'-4.2'
p1545
sg54
S'1983-84'
p1546
sg1087
S'0.3'
p1547
sba(isrc.gp1.models.Advanced
Advanced
p1548
(dp1549
g1050
S'6.9'
p1550
sg1052
S'23.2'
p1551
sg1054
S'-0.006'
p1552
sg1055
S'0.7'
p1553
sg1057
S'13.9'
p1554
sg1059
S'13.4'
p1555
sg1061
S'0.9'
p1556
sg21
g22
sg1062
S'-0.4'
p1557
sg1063
S'.413'
p1558
sg1065
S'19.6'
p1559
sg1067
S'.322'
p1560
sg1069
S'.000'
p1561
sg27
S'NBA'
p1562
sg1072
S'-7.4'
p1563
sg1073
S'5.4'
p1564
sg1075
S'0.6'
p1565
sg38
S'36'
p1566
sg40
S'UTA'
p1567
sg42
S'62'
p1568
sg1079
S'1.6'
p1569
sg1081
S'5.0'
p1570
sg1083
S'-0.6'
p1571
sg61
S'370'
p1572
sg1085
S'-6.6'
p1573
sg54
S'1984-85'
p1574
sg1087
S'0.0'
p1575
sbasS'_per36Minutes'
p1576
(lp1577
(isrc.gp1.models.Per36Minutes
Per36Minutes
p1578
(dp1579
g8
S'9.2'
p1580
sg10
S'.000'
p1581
sg12
S'0.0'
p1582
sg14
S'2.7'
p1583
sg16
S'6.7'
p1584
sg18
S'0.0'
p1585
sg20
g3
sg21
g22
sg23
S'3.1'
p1586
sg27
S'ABA'
p1587
sg29
S'3.6'
p1588
sg31
S'.524'
p1589
sg33
g3
sg34
S'.747'
p1590
sg36
S'2.1'
p1591
sg38
S'22'
p1592
sg40
S'NYA'
p1593
sg42
S'83'
p1594
sg44
S'15.9'
p1595
sg46
S'12.7'
p1596
sg48
S'3.5'
p1597
sg50
S'.525'
p1598
sg52
S'12.3'
p1599
sg54
S'1970-71'
p1600
sg56
S'12.7'
p1601
sg58
g3
sg59
S'2.6'
p1602
sg61
S'6.7'
p1603
sg63
S'2758'
p1604
sba(isrc.gp1.models.Per36Minutes
Per36Minutes
p1605
(dp1606
g8
S'9.8'
p1607
sg10
S'.000'
p1608
sg12
S'0.0'
p1609
sg14
S'2.7'
p1610
sg16
S'6.3'
p1611
sg18
S'0.0'
p1612
sg20
g3
sg21
g22
sg23
S'3.4'
p1613
sg27
S'ABA'
p1614
sg29
S'3.8'
p1615
sg31
S'.488'
p1616
sg33
g3
sg34
S'.692'
p1617
sg36
S'1.6'
p1618
sg38
S'23'
p1619
sg40
S'NYA'
p1620
sg42
S'83'
p1621
sg44
S'15.3'
p1622
sg46
S'13.0'
p1623
sg48
S'3.8'
p1624
sg50
S'.489'
p1625
sg52
S'13.2'
p1626
sg54
S'1971-72'
p1627
sg56
S'13.0'
p1628
sg58
g3
sg59
S'2.6'
p1629
sg61
S'6.3'
p1630
sg63
S'2824'
p1631
sba(isrc.gp1.models.Per36Minutes
Per36Minutes
p1632
(dp1633
g8
S'9.5'
p1634
sg10
S'.000'
p1635
sg12
S'0.0'
p1636
sg14
S'2.8'
p1637
sg16
S'6.8'
p1638
sg18
S'0.0'
p1639
sg20
g3
sg21
g22
sg23
S'3.6'
p1640
sg27
S'ABA'
p1641
sg29
S'2.7'
p1642
sg31
S'.518'
p1643
sg33
g3
sg34
S'.709'
p1644
sg36
S'2.4'
p1645
sg38
S'24'
p1646
sg40
S'NYA'
p1647
sg42
S'81'
p1648
sg44
S'3.3'
p1649
sg46
S'13.2'
p1650
sg48
S'5.2'
p1651
sg50
S'.519'
p1652
sg52
S'13.1'
p1653
sg54
S'1972-73'
p1654
sg56
S'13.2'
p1655
sg58
S'17.4'
p1656
sg59
S'3.7'
p1657
sg61
S'6.8'
p1658
sg63
S'2800'
p1659
sba(isrc.gp1.models.Per36Minutes
Per36Minutes
p1660
(dp1661
g8
S'7.9'
p1662
sg10
S'.000'
p1663
sg12
S'0.0'
p1664
sg14
S'0.8'
p1665
sg16
S'7.2'
p1666
sg18
S'0.0'
p1667
sg20
g3
sg21
g22
sg23
S'2.9'
p1668
sg27
S'ABA'
p1669
sg29
S'2.0'
p1670
sg31
S'.494'
p1671
sg33
S'17.5'
p1672
sg34
S'.721'
p1673
sg36
S'2.3'
p1674
sg38
S'25'
p1675
sg40
S'NYA'
p1676
sg42
S'77'
p1677
sg44
S'2.4'
p1678
sg46
S'14.6'
p1679
sg48
S'4.3'
p1680
sg50
S'.494'
p1681
sg52
S'10.8'
p1682
sg54
S'1973-74'
p1683
sg56
S'14.6'
p1684
sg58
S'3.3'
p1685
sg59
S'3.1'
p1686
sg61
S'7.2'
p1687
sg63
S'2596'
p1688
sba(isrc.gp1.models.Per36Minutes
Per36Minutes
p1689
(dp1690
g8
S'7.6'
p1691
sg10
S'.000'
p1692
sg12
S'0.0'
p1693
sg14
S'0.8'
p1694
sg16
S'6.7'
p1695
sg18
S'0.0'
p1696
sg20
g3
sg21
g22
sg23
S'2.2'
p1697
sg27
S'ABA'
p1698
sg29
S'1.7'
p1699
sg31
S'.485'
p1700
sg33
S'16.1'
p1701
sg34
S'.748'
p1702
sg36
S'2.3'
p1703
sg38
S'26'
p1704
sg40
S'NYA'
p1705
sg42
S'80'
p1706
sg44
S'1.9'
p1707
sg46
S'13.7'
p1708
sg48
S'3.6'
p1709
sg50
S'.487'
p1710
sg52
S'9.8'
p1711
sg54
S'1974-75'
p1712
sg56
S'13.8'
p1713
sg58
S'3.5'
p1714
sg59
S'2.7'
p1715
sg61
S'6.7'
p1716
sg63
S'2826'
p1717
sba(isrc.gp1.models.Per36Minutes
Per36Minutes
p1718
(dp1719
g8
S'7.9'
p1720
sg10
S'.000'
p1721
sg12
S'0.0'
p1722
sg14
S'0.7'
p1723
sg16
S'6.9'
p1724
sg18
S'0.0'
p1725
sg20
g3
sg21
g22
sg23
S'2.6'
p1726
sg27
S'ABA'
p1727
sg29
S'3.1'
p1728
sg31
S'.504'
p1729
sg33
S'16.7'
p1730
sg34
S'.735'
p1731
sg36
S'4.1'
p1732
sg38
S'27'
p1733
sg40
S'SAA'
p1734
sg42
S'83'
p1735
sg44
S'2.8'
p1736
sg46
S'13.7'
p1737
sg48
S'3.9'
p1738
sg50
S'.504'
p1739
sg52
S'10.5'
p1740
sg54
S'1975-76'
p1741
sg56
S'13.7'
p1742
sg58
S'2.8'
p1743
sg59
S'2.9'
p1744
sg61
S'6.9'
p1745
sg63
S'2958'
p1746
sba(isrc.gp1.models.Per36Minutes
Per36Minutes
p1747
(dp1748
g8
S'0.7'
p1749
sg10
S'.473'
p1750
sg12
S'7.0'
p1751
sg14
S'17.1'
p1752
sg16
S'3.2'
p1753
sg18
S'14.7'
p1754
sg20
g3
sg21
g22
sg23
S'3.0'
p1755
sg27
S'NBA'
p1756
sg29
g3
sg31
S'.473'
p1757
sg33
g3
sg34
S'9.2'
p1758
sg36
S'3.5'
p1759
sg38
S'28'
p1760
sg40
S'SAS'
p1761
sg42
S'82'
p1762
sg44
g3
sg46
S'4.3'
p1763
sg48
S'6.6'
p1764
sg50
S'.744'
p1765
sg52
S'2.3'
p1766
sg54
S'1976-77'
p1767
sg56
S'14.7'
p1768
sg58
g3
sg59
S'2.6'
p1769
sg61
S'7.0'
p1770
sg63
S'2694'
p1771
sba(isrc.gp1.models.Per36Minutes
Per36Minutes
p1772
(dp1773
g8
S'0.6'
p1774
sg10
S'.529'
p1775
sg12
S'7.5'
p1776
sg14
S'3.2'
p1777
sg16
S'3.3'
p1778
sg18
S'14.2'
p1779
sg20
g3
sg21
g22
sg23
S'3.1'
p1780
sg27
S'NBA'
p1781
sg29
S'18.4'
p1782
sg31
S'.529'
p1783
sg33
g3
sg34
S'9.8'
p1784
sg36
S'2.4'
p1785
sg38
S'29'
p1786
sg40
S'SAS'
p1787
sg42
S'80'
p1788
sg44
g3
sg46
S'4.4'
p1789
sg48
S'7.3'
p1790
sg50
S'.752'
p1791
sg52
S'2.8'
p1792
sg54
S'1977-78'
p1793
sg56
S'14.2'
p1794
sg58
g3
sg59
S'2.5'
p1795
sg61
S'7.5'
p1796
sg63
S'2479'
p1797
sba(isrc.gp1.models.Per36Minutes
Per36Minutes
p1798
(dp1799
g8
S'0.6'
p1800
sg10
S'.526'
p1801
sg12
S'6.8'
p1802
sg14
S'3.5'
p1803
sg16
S'1.9'
p1804
sg18
S'12.9'
p1805
sg20
g3
sg21
g22
sg23
S'3.0'
p1806
sg27
S'NBA'
p1807
sg29
S'15.5'
p1808
sg31
S'.526'
p1809
sg33
g3
sg34
S'10.6'
p1810
sg36
S'2.7'
p1811
sg38
S'30'
p1812
sg40
S'SAS'
p1813
sg42
S'79'
p1814
sg44
g3
sg46
S'3.3'
p1815
sg48
S'7.7'
p1816
sg50
S'.588'
p1817
sg52
S'2.1'
p1818
sg54
S'1978-79'
p1819
sg56
S'12.9'
p1820
sg58
g3
sg59
S'2.9'
p1821
sg61
S'6.8'
p1822
sg63
S'2122'
p1823
sba(isrc.gp1.models.Per36Minutes
Per36Minutes
p1824
(dp1825
g8
S'6.5'
p1826
sg10
S'.000'
p1827
sg12
S'0.0'
p1828
sg14
S'1.1'
p1829
sg16
S'5.4'
p1830
sg18
S'0.0'
p1831
sg20
g3
sg21
g22
sg23
S'3.1'
p1832
sg27
S'NBA'
p1833
sg29
S'1.4'
p1834
sg31
S'.486'
p1835
sg33
S'12.5'
p1836
sg34
S'.599'
p1837
sg36
S'3.1'
p1838
sg38
S'31'
p1839
sg40
S'TOT'
p1840
sg42
S'84'
p1841
sg44
S'1.9'
p1842
sg46
S'11.0'
p1843
sg48
S'3.0'
p1844
sg50
S'.487'
p1845
sg52
S'9.6'
p1846
sg54
S'1979-80'
p1847
sg56
S'11.0'
p1848
sg58
S'3.5'
p1849
sg59
S'1.8'
p1850
sg61
S'5.4'
p1851
sg63
S'2193'
p1852
sba(isrc.gp1.models.Per36Minutes
Per36Minutes
p1853
(dp1854
g8
S'6.7'
p1855
sg10
S'.000'
p1856
sg12
S'0.0'
p1857
sg14
S'1.4'
p1858
sg16
S'5.6'
p1859
sg18
S'0.0'
p1860
sg20
g3
sg21
g22
sg23
S'2.8'
p1861
sg27
S'NBA'
p1862
sg29
S'1.3'
p1863
sg31
S'.496'
p1864
sg33
S'13.2'
p1865
sg34
S'.660'
p1866
sg36
S'3.5'
p1867
sg38
S'31'
p1868
sg40
S'SAS'
p1869
sg42
S'47'
p1870
sg44
S'1.7'
p1871
sg46
S'11.3'
p1872
sg48
S'3.0'
p1873
sg50
S'.497'
p1874
sg52
S'9.5'
p1875
sg54
S'1979-80'
p1876
sg56
S'11.3'
p1877
sg58
S'3.8'
p1878
sg59
S'2.0'
p1879
sg61
S'5.6'
p1880
sg63
S'1213'
p1881
sba(isrc.gp1.models.Per36Minutes
Per36Minutes
p1882
(dp1883
g8
S'9.7'
p1884
sg10
S'5.1'
p1885
sg12
S'0.0'
p1886
sg14
S'1.4'
p1887
sg16
S'10.7'
p1888
sg18
S'0.0'
p1889
sg20
g3
sg21
g22
sg23
S'6.4'
p1890
sg27
S'NBA'
p1891
sg29
S'2.1'
p1892
sg31
S'.473'
p1893
sg33
g3
sg34
S'3.4'
p1894
sg36
S'0.8'
p1895
sg38
S'31'
p1896
sg40
S'HOU'
p1897
sg42
S'37'
p1898
sg44
S'3.2'
p1899
sg46
S'.473'
p1900
sg48
S'.524'
p1901
sg50
S'1.6'
p1902
sg52
S'2.6'
p1903
sg54
S'1979-80'
p1904
sg56
S'10.7'
p1905
sg58
S'11.7'
p1906
sg59
S'3.0'
p1907
sg61
S'5.1'
p1908
sg63
S'980'
p1909
sba(isrc.gp1.models.Per36Minutes
Per36Minutes
p1910
(dp1911
g8
S'6.1'
p1912
sg10
S'.000'
p1913
sg12
S'0.0'
p1914
sg14
S'0.6'
p1915
sg16
S'5.7'
p1916
sg18
S'0.1'
p1917
sg20
g3
sg21
S'PF'
p1918
sg23
S'2.4'
p1919
sg27
S'NBA'
p1920
sg29
S'1.6'
p1921
sg31
S'.507'
p1922
sg33
S'13.0'
p1923
sg34
S'.490'
p1924
sg36
S'2.3'
p1925
sg38
S'32'
p1926
sg40
S'HOU'
p1927
sg42
S'81'
p1928
sg44
S'1.9'
p1929
sg46
S'11.2'
p1930
sg48
S'3.3'
p1931
sg50
S'.510'
p1932
sg52
S'8.5'
p1933
sg54
S'1980-81'
p1934
sg56
S'11.2'
p1935
sg58
S'3.9'
p1936
sg59
S'1.6'
p1937
sg61
S'5.7'
p1938
sg63
S'1659'
p1939
sba(isrc.gp1.models.Per36Minutes
Per36Minutes
p1940
(dp1941
g8
S'5.6'
p1942
sg10
S'0.0'
p1943
sg12
S'.394'
p1944
sg14
S'0.7'
p1945
sg16
S'4.0'
p1946
sg18
S'0.0'
p1947
sg20
g3
sg21
g22
sg23
S'2.4'
p1948
sg27
S'NBA'
p1949
sg29
S'1.0'
p1950
sg31
S'10.1'
p1951
sg33
S'9.5'
p1952
sg34
S'.523'
p1953
sg36
S'1.8'
p1954
sg38
S'33'
p1955
sg40
S'HOU'
p1956
sg42
S'65'
p1957
sg44
S'2.0'
p1958
sg46
S'10.1'
p1959
sg48
S'2.9'
p1960
sg50
S'.394'
p1961
sg52
S'8.0'
p1962
sg54
S'1981-82'
p1963
sg56
S'4.0'
p1964
sg58
S'4.4'
p1965
sg59
S'1.5'
p1966
sg61
S'807'
p1967
sg63
g71
sba(isrc.gp1.models.Per36Minutes
Per36Minutes
p1968
(dp1969
g8
S'6.0'
p1970
sg10
S'0.0'
p1971
sg12
S'.445'
p1972
sg14
S'0.7'
p1973
sg16
S'4.4'
p1974
sg18
S'0.0'
p1975
sg20
g3
sg21
g22
sg23
S'2.8'
p1976
sg27
S'NBA'
p1977
sg29
S'0.8'
p1978
sg31
S'10.0'
p1979
sg33
S'10.1'
p1980
sg34
S'.458'
p1981
sg36
S'2.7'
p1982
sg38
S'34'
p1983
sg40
S'TOT'
p1984
sg42
S'64'
p1985
sg44
S'2.1'
p1986
sg46
S'10.0'
p1987
sg48
S'2.6'
p1988
sg50
S'.445'
p1989
sg52
S'8.8'
p1990
sg54
S'1982-83'
p1991
sg56
S'4.4'
p1992
sg58
S'4.8'
p1993
sg59
S'1.2'
p1994
sg61
S'820'
p1995
sg63
g13
sba(isrc.gp1.models.Per36Minutes
Per36Minutes
p1996
(dp1997
g8
S'5.9'
p1998
sg10
S'0.0'
p1999
sg12
S'.445'
p2000
sg14
S'0.6'
p2001
sg16
S'4.6'
p2002
sg18
S'0.0'
p2003
sg20
g3
sg21
g22
sg23
S'2.8'
p2004
sg27
S'NBA'
p2005
sg29
S'0.6'
p2006
sg31
S'10.4'
p2007
sg33
S'10.6'
p2008
sg34
S'.456'
p2009
sg36
S'3.0'
p2010
sg38
S'34'
p2011
sg40
S'HOU'
p2012
sg42
S'57'
p2013
sg44
S'2.1'
p2014
sg46
S'10.4'
p2015
sg48
S'3.0'
p2016
sg50
S'.445'
p2017
sg52
S'8.7'
p2018
sg54
S'1982-83'
p2019
sg56
S'4.6'
p2020
sg58
S'4.9'
p2021
sg59
S'1.3'
p2022
sg61
S'695'
p2023
sg63
g13
sba(isrc.gp1.models.Per36Minutes
Per36Minutes
p2024
(dp2025
g8
S'6.6'
p2026
sg10
S'0.0'
p2027
sg12
S'.444'
p2028
sg14
S'1.4'
p2029
sg16
S'3.5'
p2030
sg18
S'0.0'
p2031
sg20
g3
sg21
g22
sg23
S'2.9'
p2032
sg27
S'NBA'
p2033
sg29
S'1.7'
p2034
sg31
S'7.8'
p2035
sg33
S'7.2'
p2036
sg34
S'.500'
p2037
sg36
S'1.2'
p2038
sg38
S'34'
p2039
sg40
S'SAS'
p2040
sg42
g492
sg44
S'1.7'
p2041
sg46
S'7.8'
p2042
sg48
S'0.6'
p2043
sg50
S'.444'
p2044
sg52
S'9.5'
p2045
sg54
S'1982-83'
p2046
sg56
S'3.5'
p2047
sg58
S'4.0'
p2048
sg59
S'0.3'
p2049
sg61
S'125'
p2050
sg63
g13
sba(isrc.gp1.models.Per36Minutes
Per36Minutes
p2051
(dp2052
g8
S'5.8'
p2053
sg10
S'0.0'
p2054
sg12
S'.409'
p2055
sg14
S'0.6'
p2056
sg16
S'2.7'
p2057
sg18
S'0.0'
p2058
sg20
g3
sg21
g22
sg23
S'2.6'
p2059
sg27
S'NBA'
p2060
sg29
S'0.5'
p2061
sg31
S'6.5'
p2062
sg33
S'6.6'
p2063
sg34
S'.515'
p2064
sg36
S'1.3'
p2065
sg38
S'35'
p2066
sg40
S'ATL'
p2067
sg42
S'40'
p2068
sg44
S'1.6'
p2069
sg46
S'6.5'
p2070
sg48
S'2.4'
p2071
sg50
S'.409'
p2072
sg52
S'8.4'
p2073
sg54
S'1983-84'
p2074
sg56
S'2.7'
p2075
sg58
S'4.2'
p2076
sg59
S'1.3'
p2077
sg61
S'486'
p2078
sg63
g489
sba(isrc.gp1.models.Per36Minutes
Per36Minutes
p2079
(dp2080
g8
S'7.0'
p2081
sg10
S'0.0'
p2082
sg12
S'.368'
p2083
sg14
S'0.6'
p2084
sg16
S'3.1'
p2085
sg18
S'0.0'
p2086
sg20
g3
sg21
g22
sg23
S'2.3'
p2087
sg27
S'NBA'
p2088
sg29
S'1.1'
p2089
sg31
S'8.5'
p2090
sg33
S'8.0'
p2091
sg34
S'.643'
p2092
sg36
S'1.6'
p2093
sg38
S'36'
p2094
sg40
S'UTA'
p2095
sg42
S'62'
p2096
sg44
S'2.9'
p2097
sg46
S'8.5'
p2098
sg48
S'2.7'
p2099
sg50
S'.368'
p2100
sg52
S'9.3'
p2101
sg54
S'1984-85'
p2102
sg56
S'3.1'
p2103
sg58
S'5.0'
p2104
sg59
S'1.8'
p2105
sg61
S'370'
p2106
sg63
g13
sbasS'_fromYear'
p2107
S'1971'
p2108
sS'_url'
p2109
S'http://www.basketball-reference.com/players/p/paultbi01.html'
p2110
sS'_perGame'
p2111
(isrc.gp1.models.PerGame
PerGame
p2112
(dp2113
g8
S'1.2'
p2114
sg10
S'0.0'
p2115
sg12
S'.368'
p2116
sS'_effectiveFieldGalPercentage'
p2117
S'0.3'
p2118
sg14
S'0.1'
p2119
sg16
S'0.5'
p2120
sg18
S'0.0'
p2121
sg20
g3
sg21
g22
sg23
S'0.4'
p2122
sg27
S'NBA'
p2123
sg29
S'0.2'
p2124
sg33
S'1.3'
p2125
sS'_fieldGoalsttempted'
p2126
S'1.4'
p2127
sg34
S'.643'
p2128
sg36
S'0.3'
p2129
sg38
S'36'
p2130
sg40
S'UTA'
p2131
sg42
S'62'
p2132
sg44
S'0.5'
p2133
sg46
S'1.4'
p2134
sg48
S'0.5'
p2135
sg50
S'.368'
p2136
sg52
S'1.5'
p2137
sg54
S'1984-85'
p2138
sg56
S'0.5'
p2139
sg58
S'0.8'
p2140
sg59
S'.368'
p2141
sg61
S'6.0'
p2142
sg63
g13
sbsS'_weight'
p2143
S'235'
p2144
sS'_dob'
p2145
S'30-7-1948'
p2146
sS'_salary'
p2147
(lp2148
sg21
S'C-F'
p2149
sb.