(isrc.gp1.models.Player
Player
p0
(dp1
S'_experience'
p2
S'NA'
p3
sS'_totals'
p4
(lp5
(isrc.gp1.models.Totals
Totals
p6
(dp7
S'_offensiveRebounds'
p8
g3
sS'_threePointsAttempted'
p9
S'.427'
p10
sS'_fieldGoalsPercentage'
p11
S'277'
p12
sS'_assist'
p13
g3
sS'_threePointsPercentage'
p14
S'.427'
p15
sS'_threePoints'
p16
S'649'
p17
sS'_points'
p18
g3
sS'_position'
p19
S'C'
p20
sS'_freeThrowsPercentage'
p21
S'706'
p22
sS'_effectiveFieldGoalPercentage'
p23
S'943'
p24
sS'_league'
p25
S'NBA'
p26
sS'_steals'
p27
g3
sS'_fieldGoalsAttempted'
p28
S'.427'
p29
sS'_personalFouls'
p30
g3
sS'_freeThrowsAttempted'
p31
S'143'
p32
sS'_totalRebounds'
p33
g3
sS'_age'
p34
S'22'
p35
sS'_team'
p36
S'BOS'
p37
sS'_games'
p38
S'48'
p39
sS'_blocks'
p40
g3
sS'_twoPoints'
p41
S'152'
p42
sS'_freeThrows'
p43
S'88'
p44
sS'_twoPointsAttempted'
p45
S'309'
p46
sS'_defensiveRebounds'
p47
g3
sS'_season'
p48
S'1956-57'
p49
sS'_fieldGoals'
p50
S'649'
p51
sS'_turnOvers'
p52
g3
sS'_twoPointsPercentage'
p53
S'.492'
p54
sS'_minutesPlayed'
p55
S'277'
p56
sS'_gamesStarted'
p57
S'1695'
p58
sba(isrc.gp1.models.Totals
Totals
p59
(dp60
g8
g3
sg9
S'.442'
p61
sg11
S'456'
p62
sg13
g3
sg14
S'.442'
p63
sg16
S'1032'
p64
sg18
g3
sg19
g20
sg21
S'1142'
p65
sg23
S'1564'
p66
sg25
S'NBA'
p67
sg27
g3
sg28
S'.442'
p68
sg30
g3
sg31
S'181'
p69
sg33
g3
sg34
S'23'
p70
sg36
S'BOS'
p71
sg38
S'69'
p72
sg40
g3
sg41
S'230'
p73
sg43
S'202'
p74
sg45
S'443'
p75
sg47
g3
sg48
S'1957-58'
p76
sg50
S'1032'
p77
sg52
g3
sg53
S'.519'
p78
sg55
S'456'
p79
sg57
S'2640'
p80
sba(isrc.gp1.models.Totals
Totals
p81
(dp82
g8
g3
sg9
S'.457'
p83
sg11
S'456'
p84
sg13
g3
sg14
S'.457'
p85
sg16
S'997'
p86
sg18
g3
sg19
g20
sg21
S'1168'
p87
sg23
S'1612'
p88
sg25
S'NBA'
p89
sg27
g3
sg28
S'.457'
p90
sg30
g3
sg31
S'161'
p91
sg33
g3
sg34
S'24'
p92
sg36
S'BOS'
p93
sg38
S'70'
p94
sg40
g3
sg41
S'256'
p95
sg43
S'222'
p96
sg45
S'428'
p97
sg47
g3
sg48
S'1958-59'
p98
sg50
S'997'
p99
sg52
g3
sg53
S'.598'
p100
sg55
S'456'
p101
sg57
S'2979'
p102
sba(isrc.gp1.models.Totals
Totals
p103
(dp104
g8
g3
sg9
S'.467'
p105
sg11
S'555'
p106
sg13
g3
sg14
S'.467'
p107
sg16
S'1189'
p108
sg18
g3
sg19
g20
sg21
S'1350'
p109
sg23
S'1778'
p110
sg25
S'NBA'
p111
sg27
g3
sg28
S'.467'
p112
sg30
g3
sg31
S'210'
p113
sg33
g3
sg34
S'25'
p114
sg36
S'BOS'
p115
sg38
S'74'
p116
sg40
g3
sg41
S'240'
p117
sg43
S'277'
p118
sg45
S'392'
p119
sg47
g3
sg48
S'1959-60'
p120
sg50
S'1189'
p121
sg52
g3
sg53
S'.612'
p122
sg55
S'555'
p123
sg57
S'3146'
p124
sba(isrc.gp1.models.Totals
Totals
p125
(dp126
g8
g3
sg9
S'.426'
p127
sg11
S'532'
p128
sg13
g3
sg14
S'.426'
p129
sg16
S'1250'
p130
sg18
g3
sg19
g20
sg21
S'1322'
p131
sg23
S'1868'
p132
sg25
S'NBA'
p133
sg27
g3
sg28
S'.426'
p134
sg30
g3
sg31
S'155'
p135
sg33
g3
sg34
S'26'
p136
sg36
S'BOS'
p137
sg38
S'78'
p138
sg40
g3
sg41
S'258'
p139
sg43
S'268'
p140
sg45
S'469'
p141
sg47
g3
sg48
S'1960-61'
p142
sg50
S'1250'
p143
sg52
g3
sg53
S'.550'
p144
sg55
S'532'
p145
sg57
S'3458'
p146
sba(isrc.gp1.models.Totals
Totals
p147
(dp148
g8
g3
sg9
S'.457'
p149
sg11
S'575'
p150
sg13
g3
sg14
S'.457'
p151
sg16
S'1258'
p152
sg18
g3
sg19
g20
sg21
S'1436'
p153
sg23
S'1790'
p154
sg25
S'NBA'
p155
sg27
g3
sg28
S'.457'
p156
sg30
g3
sg31
S'207'
p157
sg33
g3
sg34
S'27'
p158
sg36
S'BOS'
p159
sg38
S'76'
p160
sg40
g3
sg41
S'286'
p161
sg43
S'341'
p162
sg45
S'481'
p163
sg47
g3
sg48
S'1961-62'
p164
sg50
S'1258'
p165
sg52
g3
sg53
S'.595'
p166
sg55
S'575'
p167
sg57
S'3433'
p168
sba(isrc.gp1.models.Totals
Totals
p169
(dp170
g8
g3
sg9
S'.432'
p171
sg11
S'511'
p172
sg13
g3
sg14
S'.432'
p173
sg16
S'1182'
p174
sg18
g3
sg19
g20
sg21
S'1309'
p175
sg23
S'1843'
p176
sg25
S'NBA'
p177
sg27
g3
sg28
S'.432'
p178
sg30
g3
sg31
S'189'
p179
sg33
g3
sg34
S'28'
p180
sg36
S'BOS'
p181
sg38
S'78'
p182
sg40
g3
sg41
S'287'
p183
sg43
S'348'
p184
sg45
S'517'
p185
sg47
g3
sg48
S'1962-63'
p186
sg50
S'1182'
p187
sg52
g3
sg53
S'.555'
p188
sg55
S'511'
p189
sg57
S'3500'
p190
sba(isrc.gp1.models.Totals
Totals
p191
(dp192
g8
g3
sg9
S'.433'
p193
sg11
S'466'
p194
sg13
g3
sg14
S'.433'
p195
sg16
S'1077'
p196
sg18
g3
sg19
g20
sg21
S'1168'
p197
sg23
S'1930'
p198
sg25
S'NBA'
p199
sg27
g3
sg28
S'.433'
p200
sg30
g3
sg31
S'190'
p201
sg33
g3
sg34
S'29'
p202
sg36
S'BOS'
p203
sg38
S'78'
p204
sg40
g3
sg41
S'236'
p205
sg43
S'370'
p206
sg45
S'429'
p207
sg47
g3
sg48
S'1963-64'
p208
sg50
S'1077'
p209
sg52
g3
sg53
S'.550'
p210
sg55
S'466'
p211
sg57
S'3482'
p212
sba(isrc.gp1.models.Totals
Totals
p213
(dp214
g8
g3
sg9
S'.438'
p215
sg11
S'429'
p216
sg13
g3
sg14
S'.438'
p217
sg16
S'980'
p218
sg18
g3
sg19
g20
sg21
S'1102'
p219
sg23
S'1878'
p220
sg25
S'NBA'
p221
sg27
g3
sg28
S'.438'
p222
sg30
g3
sg31
S'204'
p223
sg33
g3
sg34
S'30'
p224
sg36
S'BOS'
p225
sg38
S'78'
p226
sg40
g3
sg41
S'244'
p227
sg43
S'410'
p228
sg45
S'426'
p229
sg47
g3
sg48
S'1964-65'
p230
sg50
S'980'
p231
sg52
g3
sg53
S'.573'
p232
sg55
S'429'
p233
sg57
S'3466'
p234
sba(isrc.gp1.models.Totals
Totals
p235
(dp236
g8
g3
sg9
S'.415'
p237
sg11
S'391'
p238
sg13
g3
sg14
S'.415'
p239
sg16
S'943'
p240
sg18
g3
sg19
g20
sg21
S'1005'
p241
sg23
S'1779'
p242
sg25
S'NBA'
p243
sg27
g3
sg28
S'.415'
p244
sg30
g3
sg31
S'221'
p245
sg33
g3
sg34
S'31'
p246
sg36
S'BOS'
p247
sg38
S'78'
p248
sg40
g3
sg41
S'223'
p249
sg43
S'371'
p250
sg45
S'405'
p251
sg47
g3
sg48
S'1965-66'
p252
sg50
S'943'
p253
sg52
g3
sg53
S'.551'
p254
sg55
S'391'
p255
sg57
S'3386'
p256
sba(isrc.gp1.models.Totals
Totals
p257
(dp258
g8
g3
sg9
S'.454'
p259
sg11
S'395'
p260
sg13
g3
sg14
S'.454'
p261
sg16
S'870'
p262
sg18
g3
sg19
g20
sg21
S'1075'
p263
sg23
S'1700'
p264
sg25
S'NBA'
p265
sg27
g3
sg28
S'.454'
p266
sg30
g3
sg31
S'258'
p267
sg33
g3
sg34
S'32'
p268
sg36
S'BOS'
p269
sg38
S'81'
p270
sg40
g3
sg41
S'285'
p271
sg43
S'472'
p272
sg45
S'467'
p273
sg47
g3
sg48
S'1966-67'
p274
sg50
S'870'
p275
sg52
g3
sg53
S'.610'
p276
sg55
S'395'
p277
sg57
S'3297'
p278
sba(isrc.gp1.models.Totals
Totals
p279
(dp280
g8
g3
sg9
S'.425'
p281
sg11
S'365'
p282
sg13
g3
sg14
S'.425'
p283
sg16
S'858'
p284
sg18
g3
sg19
g20
sg21
S'977'
p285
sg23
S'1451'
p286
sg25
S'NBA'
p287
sg27
g3
sg28
S'.425'
p288
sg30
g3
sg31
S'242'
p289
sg33
g3
sg34
S'33'
p290
sg36
S'BOS'
p291
sg38
S'78'
p292
sg40
g3
sg41
S'247'
p293
sg43
S'357'
p294
sg45
S'460'
p295
sg47
g3
sg48
S'1967-68'
p296
sg50
S'858'
p297
sg52
g3
sg53
S'.537'
p298
sg55
S'365'
p299
sg57
S'2953'
p300
sba(isrc.gp1.models.Totals
Totals
p301
(dp302
g8
g3
sg9
S'.433'
p303
sg11
S'279'
p304
sg13
g3
sg14
S'.433'
p305
sg16
S'645'
p306
sg18
g3
sg19
g20
sg21
S'762'
p307
sg23
S'1484'
p308
sg25
S'NBA'
p309
sg27
g3
sg28
S'.433'
p310
sg30
g3
sg31
S'231'
p311
sg33
g3
sg34
S'34'
p312
sg36
S'BOS'
p313
sg38
S'77'
p314
sg40
g3
sg41
S'204'
p315
sg43
S'374'
p316
sg45
S'388'
p317
sg47
g3
sg48
S'1968-69'
p318
sg50
S'645'
p319
sg52
g3
sg53
S'.526'
p320
sg55
S'279'
p321
sg57
S'3291'
p322
sbasS'_college'
p323
S'University of San Francisco'
p324
sS'_toYear'
p325
S'1969'
p326
sS'_height'
p327
S'6-10'
p328
sS'_active'
p329
I00
sS'_shootingHand'
p330
VLeft
p331
sS'_name'
p332
S'Bill Russell'
p333
sS'_per100Possessions'
p334
(lp335
sS'_advanced'
p336
(lp337
(isrc.gp1.models.Advanced
Advanced
p338
(dp339
S'_offensiveReboundPercentage'
p340
S'4.6'
p341
sS'_turnOverPercentage'
p342
g3
sS'_winSharesPer48Minutes'
p343
g3
sS'_stealPercentage'
p344
g3
sS'_usagePercentage'
p345
g3
sS'_totalReboundsPercentage'
p346
S'.176'
p347
sS'_defensiveBoxPlusMinus'
p348
g3
sg19
g20
sS'_valueOverReplacementPlayer'
p349
g3
sS'_trueShootingPercentage'
p350
S'.450'
p351
sS'_defensiveReboundPercentage'
p352
S'6.2'
p353
sS'_freeThrowsAttempRate'
p354
S'1.6'
p355
sS'_threePointsAttempRate'
p356
S'.476'
p357
sg25
S'NBA'
p358
sS'_offensiveBoxPlusMinues'
p359
g3
sS'_assistPercentage'
p360
g3
sS'_defensiveWinShares'
p361
g3
sg34
S'22'
p362
sg36
S'BOS'
p363
sg38
S'48'
p364
sS'_blockPercentage'
p365
g3
sS'_playerEfficiencyRating'
p366
S'20.9'
p367
sS'_offensiveWinShares'
p368
g3
sg55
S'1695'
p369
sS'_boxPlusMinus'
p370
g3
sg48
S'1956-57'
p371
sS'_winShares'
p372
g3
sba(isrc.gp1.models.Advanced
Advanced
p373
(dp374
g340
S'7.7'
p375
sg342
g3
sg343
g3
sg344
g3
sg345
g3
sg346
S'.206'
p376
sg348
g3
sg19
g20
sg349
g3
sg350
S'.465'
p377
sg352
S'11.3'
p378
sg354
S'3.7'
p379
sg356
S'.429'
p380
sg25
S'NBA'
p381
sg359
g3
sg360
g3
sg361
g3
sg34
S'23'
p382
sg36
S'BOS'
p383
sg38
S'69'
p384
sg365
g3
sg366
S'22.8'
p385
sg368
g3
sg55
S'2640'
p386
sg370
g3
sg48
S'1957-58'
p387
sg372
g3
sba(isrc.gp1.models.Advanced
Advanced
p388
(dp389
g340
S'8.2'
p390
sg342
g3
sg343
g3
sg344
g3
sg345
g3
sg346
S'.208'
p391
sg348
g3
sg19
g20
sg349
g3
sg350
S'.493'
p392
sg352
S'12.9'
p393
sg354
S'4.7'
p394
sg356
S'.429'
p395
sg25
S'NBA'
p396
sg359
g3
sg360
g3
sg361
g3
sg34
S'24'
p397
sg36
S'BOS'
p398
sg38
S'70'
p399
sg365
g3
sg366
S'20.7'
p400
sg368
g3
sg55
S'2979'
p401
sg370
g3
sg48
S'1958-59'
p402
sg372
g3
sba(isrc.gp1.models.Advanced
Advanced
p403
(dp404
g340
S'8.9'
p405
sg342
g3
sg343
g3
sg344
g3
sg345
g3
sg346
S'.211'
p406
sg348
g3
sg19
g20
sg349
g3
sg350
S'.496'
p407
sg352
S'13.8'
p408
sg354
S'4.9'
p409
sg356
S'.330'
p410
sg25
S'NBA'
p411
sg359
g3
sg360
g3
sg361
g3
sg34
S'25'
p412
sg36
S'BOS'
p413
sg38
S'74'
p414
sg365
g3
sg366
S'20.1'
p415
sg368
g3
sg55
S'3146'
p416
sg370
g3
sg48
S'1959-60'
p417
sg372
g3
sba(isrc.gp1.models.Advanced
Advanced
p418
(dp419
g340
S'11.3'
p420
sg342
g3
sg343
g3
sg344
g3
sg345
g3
sg346
S'.181'
p421
sg348
g3
sg19
g20
sg349
g3
sg350
S'.454'
p422
sg352
S'13.0'
p423
sg354
S'1.7'
p424
sg356
S'.375'
p425
sg25
S'NBA'
p426
sg359
g3
sg360
g3
sg361
g3
sg34
S'26'
p427
sg36
S'BOS'
p428
sg38
S'78'
p429
sg365
g3
sg366
S'18.1'
p430
sg368
g3
sg55
S'3458'
p431
sg370
g3
sg48
S'1960-61'
p432
sg372
g3
sba(isrc.gp1.models.Advanced
Advanced
p433
(dp434
g340
S'11.6'
p435
sg342
g3
sg343
g3
sg344
g3
sg345
g3
sg346
S'.217'
p436
sg348
g3
sg19
g20
sg349
g3
sg350
S'.489'
p437
sg352
S'15.5'
p438
sg354
S'3.9'
p439
sg356
S'.382'
p440
sg25
S'NBA'
p441
sg359
g3
sg360
g3
sg361
g3
sg34
S'27'
p442
sg36
S'BOS'
p443
sg38
S'76'
p444
sg365
g3
sg366
S'19.4'
p445
sg368
g3
sg55
S'3433'
p446
sg370
g3
sg48
S'1961-62'
p447
sg372
g3
sba(isrc.gp1.models.Advanced
Advanced
p448
(dp449
g340
S'12.6'
p450
sg342
g3
sg343
g3
sg344
g3
sg345
g3
sg346
S'.185'
p451
sg348
g3
sg19
g20
sg349
g3
sg350
S'.464'
p452
sg352
S'13.5'
p453
sg354
S'1.0'
p454
sg356
S'.437'
p455
sg25
S'NBA'
p456
sg359
g3
sg360
g3
sg361
g3
sg34
S'28'
p457
sg36
S'BOS'
p458
sg38
S'78'
p459
sg365
g3
sg366
S'18.2'
p460
sg368
g3
sg55
S'3500'
p461
sg370
g3
sg48
S'1962-63'
p462
sg372
g3
sba(isrc.gp1.models.Advanced
Advanced
p463
(dp464
g340
S'16.0'
p465
sg342
g3
sg343
g3
sg344
g3
sg345
g3
sg346
S'.238'
p466
sg348
g3
sg19
g20
sg349
g3
sg350
S'.461'
p467
sg352
S'17.3'
p468
sg354
S'1.3'
p469
sg356
S'.398'
p470
sg25
S'NBA'
p471
sg359
g3
sg360
g3
sg361
g3
sg34
S'29'
p472
sg36
S'BOS'
p473
sg38
S'78'
p474
sg365
g3
sg366
S'19.3'
p475
sg368
g3
sg55
S'3482'
p476
sg370
g3
sg48
S'1963-64'
p477
sg372
g3
sba(isrc.gp1.models.Advanced
Advanced
p478
(dp479
g340
S'2.4'
p480
sg342
g3
sg343
g3
sg344
g3
sg345
g3
sg346
S'16.9'
p481
sg348
g3
sg19
g20
sg349
g3
sg350
S'.472'
p482
sg352
S'14.4'
p483
sg354
S'14.8'
p484
sg356
S'.435'
p485
sg25
S'NBA'
p486
sg359
g3
sg360
S'.234'
p487
sg361
g3
sg34
S'30'
p488
sg36
S'BOS'
p489
sg38
S'78'
p490
sg365
g3
sg366
S'19.5'
p491
sg368
g3
sg55
S'3466'
p492
sg370
g3
sg48
S'1964-65'
p493
sg372
g3
sba(isrc.gp1.models.Advanced
Advanced
p494
(dp495
g340
S'0.3'
p496
sg342
g3
sg343
g3
sg344
g3
sg345
g3
sg346
S'11.7'
p497
sg348
g3
sg19
g20
sg349
g3
sg350
S'.448'
p498
sg352
S'11.4'
p499
sg354
S'13.8'
p500
sg356
S'.429'
p501
sg25
S'NBA'
p502
sg359
g3
sg360
S'.165'
p503
sg361
g3
sg34
S'31'
p504
sg36
S'BOS'
p505
sg38
S'78'
p506
sg365
g3
sg366
S'17.3'
p507
sg368
g3
sg55
S'3386'
p508
sg370
g3
sg48
S'1965-66'
p509
sg372
g3
sba(isrc.gp1.models.Advanced
Advanced
p510
(dp511
g340
S'3.0'
p512
sg342
g3
sg343
g3
sg344
g3
sg345
g3
sg346
S'12.2'
p513
sg348
g3
sg19
g20
sg349
g3
sg350
S'.500'
p514
sg352
S'9.2'
p515
sg354
S'17.3'
p516
sg356
S'.537'
p517
sg25
S'NBA'
p518
sg359
g3
sg360
S'.178'
p519
sg361
g3
sg34
S'32'
p520
sg36
S'BOS'
p521
sg38
S'81'
p522
sg365
g3
sg366
S'18.6'
p523
sg368
g3
sg55
S'3297'
p524
sg370
g3
sg48
S'1966-67'
p525
sg372
g3
sba(isrc.gp1.models.Advanced
Advanced
p526
(dp527
g340
S'0.4'
p528
sg342
g3
sg343
g3
sg344
g3
sg345
g3
sg346
S'8.2'
p529
sg348
g3
sg19
g20
sg349
g3
sg350
S'.461'
p530
sg352
S'7.8'
p531
sg354
S'14.9'
p532
sg356
S'.536'
p533
sg25
S'NBA'
p534
sg359
g3
sg360
S'.133'
p535
sg361
g3
sg34
S'33'
p536
sg36
S'BOS'
p537
sg38
S'78'
p538
sg365
g3
sg366
S'17.0'
p539
sg368
g3
sg55
S'2953'
p540
sg370
g3
sg48
S'1967-68'
p541
sg372
g3
sba(isrc.gp1.models.Advanced
Advanced
p542
(dp543
g340
S'1.0'
p544
sg342
g3
sg343
g3
sg344
g3
sg345
g3
sg346
S'10.9'
p545
sg348
g3
sg19
g20
sg349
g3
sg350
S'.467'
p546
sg352
S'9.9'
p547
sg354
S'13.9'
p548
sg356
S'.602'
p549
sg25
S'NBA'
p550
sg359
g3
sg360
S'.159'
p551
sg361
g3
sg34
S'34'
p552
sg36
S'BOS'
p553
sg38
S'77'
p554
sg365
g3
sg366
S'15.2'
p555
sg368
g3
sg55
S'3291'
p556
sg370
g3
sg48
S'1968-69'
p557
sg372
g3
sbasS'_per36Minutes'
p558
(lp559
(isrc.gp1.models.Per36Minutes
Per36Minutes
p560
(dp561
g8
g3
sg9
S'.427'
p562
sg11
S'5.9'
p563
sg13
g3
sg14
S'3.2'
p564
sg16
S'13.8'
p565
sg18
g3
sg19
g20
sg21
S'15.0'
p566
sg25
S'NBA'
p567
sg27
g3
sg28
S'.427'
p568
sg30
g3
sg31
S'3.0'
p569
sg33
g3
sg34
S'22'
p570
sg36
S'BOS'
p571
sg38
S'48'
p572
sg40
g3
sg41
S'6.6'
p573
sg43
S'1.9'
p574
sg45
S'.492'
p575
sg47
g3
sg48
S'1956-57'
p576
sg50
S'13.8'
p577
sg52
g3
sg53
S'20.0'
p578
sg55
S'5.9'
p579
sg57
S'1695'
p580
sba(isrc.gp1.models.Per36Minutes
Per36Minutes
p581
(dp582
g8
g3
sg9
S'.442'
p583
sg11
S'6.2'
p584
sg13
g3
sg14
S'3.1'
p585
sg16
S'14.1'
p586
sg18
g3
sg19
g20
sg21
S'15.6'
p587
sg25
S'NBA'
p588
sg27
g3
sg28
S'.442'
p589
sg30
g3
sg31
S'2.5'
p590
sg33
g3
sg34
S'23'
p591
sg36
S'BOS'
p592
sg38
S'69'
p593
sg40
g3
sg41
S'6.0'
p594
sg43
S'2.8'
p595
sg45
S'.519'
p596
sg47
g3
sg48
S'1957-58'
p597
sg50
S'14.1'
p598
sg52
g3
sg53
S'21.3'
p599
sg55
S'6.2'
p600
sg57
S'2640'
p601
sba(isrc.gp1.models.Per36Minutes
Per36Minutes
p602
(dp603
g8
g3
sg9
S'.457'
p604
sg11
S'5.5'
p605
sg13
g3
sg14
S'3.1'
p606
sg16
S'12.0'
p607
sg18
g3
sg19
g20
sg21
S'14.1'
p608
sg25
S'NBA'
p609
sg27
g3
sg28
S'.457'
p610
sg30
g3
sg31
S'1.9'
p611
sg33
g3
sg34
S'24'
p612
sg36
S'BOS'
p613
sg38
S'70'
p614
sg40
g3
sg41
S'5.2'
p615
sg43
S'2.7'
p616
sg45
S'.598'
p617
sg47
g3
sg48
S'1958-59'
p618
sg50
S'12.0'
p619
sg52
g3
sg53
S'19.5'
p620
sg55
S'5.5'
p621
sg57
S'2979'
p622
sba(isrc.gp1.models.Per36Minutes
Per36Minutes
p623
(dp624
g8
g3
sg9
S'.467'
p625
sg11
S'6.4'
p626
sg13
g3
sg14
S'2.7'
p627
sg16
S'13.6'
p628
sg18
g3
sg19
g20
sg21
S'15.4'
p629
sg25
S'NBA'
p630
sg27
g3
sg28
S'.467'
p631
sg30
g3
sg31
S'2.4'
p632
sg33
g3
sg34
S'25'
p633
sg36
S'BOS'
p634
sg38
S'74'
p635
sg40
g3
sg41
S'4.5'
p636
sg43
S'3.2'
p637
sg45
S'.612'
p638
sg47
g3
sg48
S'1959-60'
p639
sg50
S'13.6'
p640
sg52
g3
sg53
S'20.3'
p641
sg55
S'6.4'
p642
sg57
S'3146'
p643
sba(isrc.gp1.models.Per36Minutes
Per36Minutes
p644
(dp645
g8
g3
sg9
S'.426'
p646
sg11
S'5.5'
p647
sg13
g3
sg14
S'2.7'
p648
sg16
S'13.0'
p649
sg18
g3
sg19
g20
sg21
S'13.8'
p650
sg25
S'NBA'
p651
sg27
g3
sg28
S'.426'
p652
sg30
g3
sg31
S'1.6'
p653
sg33
g3
sg34
S'26'
p654
sg36
S'BOS'
p655
sg38
S'78'
p656
sg40
g3
sg41
S'4.9'
p657
sg43
S'2.8'
p658
sg45
S'.550'
p659
sg47
g3
sg48
S'1960-61'
p660
sg50
S'13.0'
p661
sg52
g3
sg53
S'19.4'
p662
sg55
S'5.5'
p663
sg57
S'3458'
p664
sba(isrc.gp1.models.Per36Minutes
Per36Minutes
p665
(dp666
g8
g3
sg9
S'.457'
p667
sg11
S'6.0'
p668
sg13
g3
sg14
S'3.0'
p669
sg16
S'13.2'
p670
sg18
g3
sg19
g20
sg21
S'15.1'
p671
sg25
S'NBA'
p672
sg27
g3
sg28
S'.457'
p673
sg30
g3
sg31
S'2.2'
p674
sg33
g3
sg34
S'27'
p675
sg36
S'BOS'
p676
sg38
S'76'
p677
sg40
g3
sg41
S'5.0'
p678
sg43
S'3.6'
p679
sg45
S'.595'
p680
sg47
g3
sg48
S'1961-62'
p681
sg50
S'13.2'
p682
sg52
g3
sg53
S'18.8'
p683
sg55
S'6.0'
p684
sg57
S'3433'
p685
sba(isrc.gp1.models.Per36Minutes
Per36Minutes
p686
(dp687
g8
g3
sg9
S'.432'
p688
sg11
S'5.3'
p689
sg13
g3
sg14
S'3.0'
p690
sg16
S'12.2'
p691
sg18
g3
sg19
g20
sg21
S'13.5'
p692
sg25
S'NBA'
p693
sg27
g3
sg28
S'.432'
p694
sg30
g3
sg31
S'1.9'
p695
sg33
g3
sg34
S'28'
p696
sg36
S'BOS'
p697
sg38
S'78'
p698
sg40
g3
sg41
S'5.3'
p699
sg43
S'3.6'
p700
sg45
S'.555'
p701
sg47
g3
sg48
S'1962-63'
p702
sg50
S'12.2'
p703
sg52
g3
sg53
S'19.0'
p704
sg55
S'5.3'
p705
sg57
S'3500'
p706
sba(isrc.gp1.models.Per36Minutes
Per36Minutes
p707
(dp708
g8
g3
sg9
S'.433'
p709
sg11
S'4.8'
p710
sg13
g3
sg14
S'2.4'
p711
sg16
S'11.1'
p712
sg18
g3
sg19
g20
sg21
S'12.1'
p713
sg25
S'NBA'
p714
sg27
g3
sg28
S'.433'
p715
sg30
g3
sg31
S'2.0'
p716
sg33
g3
sg34
S'29'
p717
sg36
S'BOS'
p718
sg38
S'78'
p719
sg40
g3
sg41
S'4.4'
p720
sg43
S'3.8'
p721
sg45
S'.550'
p722
sg47
g3
sg48
S'1963-64'
p723
sg50
S'11.1'
p724
sg52
g3
sg53
S'20.0'
p725
sg55
S'4.8'
p726
sg57
S'3482'
p727
sba(isrc.gp1.models.Per36Minutes
Per36Minutes
p728
(dp729
g8
g3
sg9
S'.438'
p730
sg11
S'4.5'
p731
sg13
g3
sg14
S'2.5'
p732
sg16
S'10.2'
p733
sg18
g3
sg19
g20
sg21
S'11.4'
p734
sg25
S'NBA'
p735
sg27
g3
sg28
S'.438'
p736
sg30
g3
sg31
S'2.1'
p737
sg33
g3
sg34
S'30'
p738
sg36
S'BOS'
p739
sg38
S'78'
p740
sg40
g3
sg41
S'4.4'
p741
sg43
S'4.3'
p742
sg45
S'.573'
p743
sg47
g3
sg48
S'1964-65'
p744
sg50
S'10.2'
p745
sg52
g3
sg53
S'19.5'
p746
sg55
S'4.5'
p747
sg57
S'3466'
p748
sba(isrc.gp1.models.Per36Minutes
Per36Minutes
p749
(dp750
g8
g3
sg9
S'.415'
p751
sg11
S'4.2'
p752
sg13
g3
sg14
S'2.4'
p753
sg16
S'10.0'
p754
sg18
g3
sg19
g20
sg21
S'10.7'
p755
sg25
S'NBA'
p756
sg27
g3
sg28
S'.415'
p757
sg30
g3
sg31
S'2.3'
p758
sg33
g3
sg34
S'31'
p759
sg36
S'BOS'
p760
sg38
S'78'
p761
sg40
g3
sg41
S'4.3'
p762
sg43
S'3.9'
p763
sg45
S'.551'
p764
sg47
g3
sg48
S'1965-66'
p765
sg50
S'10.0'
p766
sg52
g3
sg53
S'18.9'
p767
sg55
S'4.2'
p768
sg57
S'3386'
p769
sba(isrc.gp1.models.Per36Minutes
Per36Minutes
p770
(dp771
g8
g3
sg9
S'.454'
p772
sg11
S'4.3'
p773
sg13
g3
sg14
S'3.1'
p774
sg16
S'9.5'
p775
sg18
g3
sg19
g20
sg21
S'11.7'
p776
sg25
S'NBA'
p777
sg27
g3
sg28
S'.454'
p778
sg30
g3
sg31
S'2.8'
p779
sg33
g3
sg34
S'32'
p780
sg36
S'BOS'
p781
sg38
S'81'
p782
sg40
g3
sg41
S'5.1'
p783
sg43
S'5.2'
p784
sg45
S'.610'
p785
sg47
g3
sg48
S'1966-67'
p786
sg50
S'9.5'
p787
sg52
g3
sg53
S'18.6'
p788
sg55
S'4.3'
p789
sg57
S'3297'
p790
sba(isrc.gp1.models.Per36Minutes
Per36Minutes
p791
(dp792
g8
g3
sg9
S'.425'
p793
sg11
S'4.4'
p794
sg13
g3
sg14
S'3.0'
p795
sg16
S'10.5'
p796
sg18
g3
sg19
g20
sg21
S'11.9'
p797
sg25
S'NBA'
p798
sg27
g3
sg28
S'.425'
p799
sg30
g3
sg31
S'3.0'
p800
sg33
g3
sg34
S'33'
p801
sg36
S'BOS'
p802
sg38
S'78'
p803
sg40
g3
sg41
S'5.6'
p804
sg43
S'4.4'
p805
sg45
S'.537'
p806
sg47
g3
sg48
S'1967-68'
p807
sg50
S'10.5'
p808
sg52
g3
sg53
S'17.7'
p809
sg55
S'4.4'
p810
sg57
S'2953'
p811
sba(isrc.gp1.models.Per36Minutes
Per36Minutes
p812
(dp813
g8
g3
sg9
S'.433'
p814
sg11
S'3.1'
p815
sg13
g3
sg14
S'2.2'
p816
sg16
S'7.1'
p817
sg18
g3
sg19
g20
sg21
S'8.3'
p818
sg25
S'NBA'
p819
sg27
g3
sg28
S'.433'
p820
sg30
g3
sg31
S'2.5'
p821
sg33
g3
sg34
S'34'
p822
sg36
S'BOS'
p823
sg38
S'77'
p824
sg40
g3
sg41
S'4.2'
p825
sg43
S'4.1'
p826
sg45
S'.526'
p827
sg47
g3
sg48
S'1968-69'
p828
sg50
S'7.1'
p829
sg52
g3
sg53
S'16.2'
p830
sg55
S'3.1'
p831
sg57
S'3291'
p832
sbasS'_fromYear'
p833
S'1957'
p834
sS'_url'
p835
S'http://www.basketball-reference.com/players/r/russebi01.html'
p836
sS'_perGame'
p837
(isrc.gp1.models.PerGame
PerGame
p838
(dp839
g8
g3
sg9
S'.433'
p840
sg11
S'3.6'
p841
sS'_effectiveFieldGalPercentage'
p842
S'19.3'
p843
sg13
g3
sg14
S'.433'
p844
sg16
S'8.4'
p845
sg18
g3
sg19
g20
sg21
S'9.9'
p846
sg25
S'NBA'
p847
sg27
g3
sg30
g3
sS'_fieldGoalsttempted'
p848
S'.433'
p849
sg31
S'3.0'
p850
sg33
g3
sg34
S'34'
p851
sg36
S'BOS'
p852
sg38
S'77'
p853
sg40
g3
sg41
S'2.6'
p854
sg43
S'4.9'
p855
sg45
S'5.0'
p856
sg47
g3
sg48
S'1968-69'
p857
sg50
S'8.4'
p858
sg52
g3
sg53
S'.526'
p859
sg55
S'3.6'
p860
sg57
S'42.7'
p861
sbsS'_weight'
p862
S'215'
p863
sS'_dob'
p864
S'12-2-1934'
p865
sS'_salary'
p866
(lp867
sg19
g20
sb.