(isrc.gp1.models.Player
Player
p0
(dp1
S'_experience'
p2
S'NA'
p3
sS'_totals'
p4
(lp5
(isrc.gp1.models.Totals
Totals
p6
(dp7
S'_offensiveRebounds'
p8
g3
sS'_threePointsAttempted'
p9
g3
sS'_fieldGoalsPercentage'
p10
S'.427'
p11
sS'_assist'
p12
S'75'
p13
sS'_threePointsPercentage'
p14
g3
sS'_threePoints'
p15
g3
sS'_points'
p16
S'550'
p17
sS'_position'
p18
S'SF'
p19
sS'_freeThrowsPercentage'
p20
S'.688'
p21
sS'_effectiveFieldGoalPercentage'
p22
S'.427'
p23
sS'_league'
p24
S'NBA'
p25
sS'_steals'
p26
g3
sS'_fieldGoalsAttempted'
p27
S'567'
p28
sS'_personalFouls'
p29
S'119'
p30
sS'_freeThrowsAttempted'
p31
S'96'
p32
sS'_totalRebounds'
p33
S'328'
p34
sS'_age'
p35
S'23'
p36
sS'_team'
p37
S'SDR'
p38
sS'_games'
p39
S'75'
p40
sS'_blocks'
p41
g3
sS'_twoPoints'
p42
S'242'
p43
sS'_freeThrows'
p44
S'66'
p45
sS'_twoPointsAttempted'
p46
S'567'
p47
sS'_defensiveRebounds'
p48
g3
sS'_season'
p49
S'1969-70'
p50
sS'_fieldGoals'
p51
S'242'
p52
sS'_turnOvers'
p53
g3
sS'_twoPointsPercentage'
p54
S'.427'
p55
sS'_minutesPlayed'
p56
S'1198'
p57
sS'_gamesStarted'
p58
g3
sba(isrc.gp1.models.Totals
Totals
p59
(dp60
g8
g3
sg9
g3
sg10
S'.448'
p61
sg12
S'258'
p62
sg14
g3
sg15
g3
sg16
S'1168'
p63
sg18
S'SG'
p64
sg20
S'.761'
p65
sg22
S'.448'
p66
sg24
S'NBA'
p67
sg26
g3
sg27
S'1106'
p68
sg29
S'175'
p69
sg31
S'234'
p70
sg33
S'429'
p71
sg35
S'24'
p72
sg37
S'CLE'
p73
sg39
S'77'
p74
sg41
g3
sg42
S'495'
p75
sg44
S'178'
p76
sg46
S'1106'
p77
sg48
g3
sg49
S'1970-71'
p78
sg51
S'495'
p79
sg53
g3
sg54
S'.448'
p80
sg56
S'2332'
p81
sg58
g3
sba(isrc.gp1.models.Totals
Totals
p82
(dp83
g8
g3
sg9
g3
sg10
S'.443'
p84
sg12
S'247'
p85
sg14
g3
sg15
g3
sg16
S'1232'
p86
sg18
S'SF'
p87
sg20
S'.795'
p88
sg22
S'.443'
p89
sg24
S'NBA'
p90
sg26
g3
sg27
S'1190'
p91
sg29
S'222'
p92
sg31
S'224'
p93
sg33
S'502'
p94
sg35
S'25'
p95
sg37
S'CLE'
p96
sg39
S'82'
p97
sg41
g3
sg42
S'527'
p98
sg44
S'178'
p99
sg46
S'1190'
p100
sg48
g3
sg49
S'1971-72'
p101
sg51
S'527'
p102
sg53
g3
sg54
S'.443'
p103
sg56
S'2734'
p104
sg58
g3
sba(isrc.gp1.models.Totals
Totals
p105
(dp106
g8
g3
sg9
g3
sg10
S'.444'
p107
sg12
S'108'
p108
sg14
g3
sg15
g3
sg16
S'600'
p109
sg18
S'SG'
p110
sg20
S'.790'
p111
sg22
S'.444'
p112
sg24
S'NBA'
p113
sg26
g3
sg27
S'603'
p114
sg29
S'80'
p115
sg31
S'81'
p116
sg33
S'199'
p117
sg35
S'26'
p118
sg37
S'CLE'
p119
sg39
S'73'
p120
sg41
g3
sg42
S'268'
p121
sg44
S'64'
p122
sg46
S'603'
p123
sg48
g3
sg49
S'1972-73'
p124
sg51
S'268'
p125
sg53
g3
sg54
S'.444'
p126
sg56
S'1068'
p127
sg58
g3
sba(isrc.gp1.models.Totals
Totals
p128
(dp129
g8
S'134'
p130
sg9
g3
sg10
S'.455'
p131
sg12
S'198'
p132
sg14
g3
sg15
g3
sg16
S'1211'
p133
sg18
S'SF'
p134
sg20
S'.822'
p135
sg22
S'.455'
p136
sg24
S'NBA'
p137
sg26
S'89'
p138
sg27
S'1179'
p139
sg29
S'242'
p140
sg31
S'169'
p141
sg33
S'435'
p142
sg35
S'27'
p143
sg37
S'CLE'
p144
sg39
S'82'
p145
sg41
S'30'
p146
sg42
S'536'
p147
sg44
S'139'
p148
sg46
S'1179'
p149
sg48
S'301'
p150
sg49
S'1973-74'
p151
sg51
S'536'
p152
sg53
g3
sg54
S'.455'
p153
sg56
S'2612'
p154
sg58
g3
sba(isrc.gp1.models.Totals
Totals
p155
(dp156
g8
S'108'
p157
sg9
g3
sg10
S'.483'
p158
sg12
S'229'
p159
sg14
g3
sg15
g3
sg16
S'1302'
p160
sg18
S'SF'
p161
sg20
S'.825'
p162
sg22
S'.483'
p163
sg24
S'NBA'
p164
sg26
S'80'
p165
sg27
S'1212'
p166
sg29
S'227'
p167
sg31
S'160'
p168
sg33
S'407'
p169
sg35
S'28'
p170
sg37
S'CLE'
p171
sg39
S'82'
p172
sg41
S'26'
p173
sg42
S'585'
p174
sg44
S'132'
p175
sg46
S'1212'
p176
sg48
S'299'
p177
sg49
S'1974-75'
p178
sg51
S'585'
p179
sg53
g3
sg54
S'.483'
p180
sg56
S'2636'
p181
sg58
g3
sba(isrc.gp1.models.Totals
Totals
p182
(dp183
g8
S'83'
p184
sg9
g3
sg10
S'.442'
p185
sg12
S'155'
p186
sg14
g3
sg15
g3
sg16
S'1101'
p187
sg18
S'SG'
p188
sg20
S'.816'
p189
sg22
S'.442'
p190
sg24
S'NBA'
p191
sg26
S'58'
p192
sg27
S'1121'
p193
sg29
S'231'
p194
sg31
S'136'
p195
sg33
S'341'
p196
sg35
S'29'
p197
sg37
S'CLE'
p198
sg39
S'81'
p199
sg41
S'36'
p200
sg42
S'495'
p201
sg44
S'111'
p202
sg46
S'1121'
p203
sg48
S'258'
p204
sg49
S'1975-76'
p205
sg51
S'495'
p206
sg53
g3
sg54
S'.442'
p207
sg56
S'2338'
p208
sg58
g3
sba(isrc.gp1.models.Totals
Totals
p209
(dp210
g8
S'92'
p211
sg9
g3
sg10
S'.446'
p212
sg12
S'152'
p213
sg14
g3
sg15
g3
sg16
S'1174'
p214
sg18
S'SF'
p215
sg20
S'.818'
p216
sg22
S'.446'
p217
sg24
S'NBA'
p218
sg26
S'61'
p219
sg27
S'1149'
p220
sg29
S'211'
p221
sg31
S'181'
p222
sg33
S'317'
p223
sg35
S'30'
p224
sg37
S'CLE'
p225
sg39
S'81'
p226
sg41
S'30'
p227
sg42
S'513'
p228
sg44
S'148'
p229
sg46
S'1149'
p230
sg48
S'225'
p231
sg49
S'1976-77'
p232
sg51
S'513'
p233
sg53
g3
sg54
S'.446'
p234
sg56
S'2135'
p235
sg58
g3
sba(isrc.gp1.models.Totals
Totals
p236
(dp237
g8
S'65'
p238
sg9
g3
sg10
S'.439'
p239
sg12
S'91'
p240
sg14
g3
sg15
g3
sg16
S'846'
p241
sg18
S'SG'
p242
sg20
S'.800'
p243
sg22
S'.439'
p244
sg24
S'NBA'
p245
sg26
S'38'
p246
sg27
S'840'
p247
sg29
S'155'
p248
sg31
S'135'
p249
sg33
S'207'
p250
sg35
S'31'
p251
sg37
S'CLE'
p252
sg39
S'82'
p253
sg41
S'21'
p254
sg42
S'369'
p255
sg44
S'108'
p256
sg46
S'840'
p257
sg48
S'142'
p258
sg49
S'1977-78'
p259
sg51
S'369'
p260
sg53
S'81'
p261
sg54
S'.439'
p262
sg56
S'1581'
p263
sg58
g3
sba(isrc.gp1.models.Totals
Totals
p264
(dp265
g8
S'77'
p266
sg9
g3
sg10
S'.460'
p267
sg12
S'121'
p268
sg14
g3
sg15
g3
sg16
S'805'
p269
sg18
S'SG'
p270
sg20
S'.783'
p271
sg22
S'.460'
p272
sg24
S'NBA'
p273
sg26
S'43'
p274
sg27
S'784'
p275
sg29
S'188'
p276
sg31
S'106'
p277
sg33
S'206'
p278
sg35
S'32'
p279
sg37
S'CLE'
p280
sg39
S'72'
p281
sg41
S'7'
p282
sg42
S'361'
p283
sg44
S'83'
p284
sg46
S'784'
p285
sg48
S'129'
p286
sg49
S'1978-79'
p287
sg51
S'361'
p288
sg53
S'75'
p289
sg54
S'.460'
p290
sg56
S'1650'
p291
sg58
g3
sba(isrc.gp1.models.Totals
Totals
p292
(dp293
g8
S'94'
p294
sg9
S'81'
p295
sg10
S'.432'
p296
sg12
S'100'
p297
sg14
S'.284'
p298
sg15
S'23'
p299
sg16
S'893'
p300
sg18
S'SF-SG'
p301
sg20
S'.870'
p302
sg22
S'.445'
p303
sg24
S'NBA'
p304
sg26
S'62'
p305
sg27
S'891'
p306
sg29
S'209'
p307
sg31
S'115'
p308
sg33
S'259'
p309
sg35
S'33'
p310
sg37
S'TOT'
p311
sg39
S'78'
p312
sg41
S'17'
p313
sg42
S'362'
p314
sg44
S'100'
p315
sg46
S'810'
p316
sg48
S'165'
p317
sg49
S'1979-80'
p318
sg51
S'385'
p319
sg53
S'81'
p320
sg54
S'.447'
p321
sg56
S'2123'
p322
sg58
g3
sba(isrc.gp1.models.Totals
Totals
p323
(dp324
g8
S'2'
p325
sg9
S'5'
p326
sg10
S'.458'
p327
sg12
g282
sg14
S'.200'
p328
sg15
S'1'
p329
sg16
S'74'
p330
sg18
S'SG'
p331
sg20
S'.875'
p332
sg22
S'.465'
p333
sg24
S'NBA'
p334
sg26
S'3'
p335
sg27
S'72'
p336
sg29
S'21'
p337
sg31
S'8'
p338
sg33
S'14'
p339
sg35
S'33'
p340
sg37
S'CLE'
p341
sg39
g338
sg41
g325
sg42
S'32'
p342
sg44
g282
sg46
S'67'
p343
sg48
S'12'
p344
sg49
S'1979-80'
p345
sg51
S'33'
p346
sg53
S'9'
p347
sg54
S'.478'
p348
sg56
S'135'
p349
sg58
g3
sba(isrc.gp1.models.Totals
Totals
p350
(dp351
g8
S'92'
p352
sg9
S'76'
p353
sg10
S'.430'
p354
sg12
S'93'
p355
sg14
S'.289'
p356
sg15
S'22'
p357
sg16
S'819'
p358
sg18
S'SF'
p359
sg20
S'.869'
p360
sg22
S'.443'
p361
sg24
S'NBA'
p362
sg26
S'59'
p363
sg27
S'819'
p364
sg29
S'188'
p365
sg31
S'107'
p366
sg33
S'245'
p367
sg35
S'33'
p368
sg37
S'SDC'
p369
sg39
S'70'
p370
sg41
S'15'
p371
sg42
S'330'
p372
sg44
S'93'
p373
sg46
S'743'
p374
sg48
S'153'
p375
sg49
S'1979-80'
p376
sg51
S'352'
p377
sg53
S'72'
p378
sg54
S'.444'
p379
sg56
S'1988'
p380
sg58
g3
sbasS'_college'
p381
S'University of Tulsa'
p382
sS'_toYear'
p383
S'1980'
p384
sS'_height'
p385
S'6-5'
p386
sS'_active'
p387
I00
sS'_shootingHand'
p388
VRight
p389
sS'_name'
p390
S'Bingo Smith'
p391
sS'_per100Possessions'
p392
(lp393
(isrc.gp1.models.Per100Possession
Per100Possession
p394
(dp395
g8
S'2.4'
p396
sg9
g3
sg10
S'.455'
p397
sS'_offensiveRating'
p398
g3
sg12
S'3.5'
p399
sg14
g3
sg15
g3
sg16
S'21.4'
p400
sg18
S'SF'
p401
sS'_defensiveRating'
p402
S'100'
p403
sg20
S'.822'
p404
sg24
S'NBA'
p405
sg26
S'1.6'
p406
sg27
S'20.8'
p407
sg29
S'4.3'
p408
sg31
S'3.0'
p409
sg33
S'7.7'
p410
sg35
S'27'
p411
sg37
S'CLE'
p412
sg39
S'82'
p413
sg41
S'0.5'
p414
sg42
S'9.5'
p415
sg44
S'2.5'
p416
sg46
S'20.8'
p417
sg48
S'5.3'
p418
sg49
S'1973-74'
p419
sg51
S'9.5'
p420
sg53
g3
sg54
S'.455'
p421
sg56
S'2612'
p422
sg58
g3
sba(isrc.gp1.models.Per100Possession
Per100Possession
p423
(dp424
g8
S'2.0'
p425
sg9
g3
sg10
S'.483'
p426
sg398
g3
sg12
S'4.2'
p427
sg14
g3
sg15
g3
sg16
S'23.6'
p428
sg18
S'SF'
p429
sg402
S'99'
p430
sg20
S'.825'
p431
sg24
S'NBA'
p432
sg26
S'1.5'
p433
sg27
S'22.0'
p434
sg29
S'4.1'
p435
sg31
S'2.9'
p436
sg33
S'7.4'
p437
sg35
S'28'
p438
sg37
S'CLE'
p439
sg39
S'82'
p440
sg41
S'0.5'
p441
sg42
S'10.6'
p442
sg44
S'2.4'
p443
sg46
S'22.0'
p444
sg48
S'5.4'
p445
sg49
S'1974-75'
p446
sg51
S'10.6'
p447
sg53
g3
sg54
S'.483'
p448
sg56
S'2636'
p449
sg58
g3
sba(isrc.gp1.models.Per100Possession
Per100Possession
p450
(dp451
g8
S'1.7'
p452
sg9
g3
sg10
S'.442'
p453
sg398
g3
sg12
S'3.1'
p454
sg14
g3
sg15
g3
sg16
S'22.2'
p455
sg18
S'SG'
p456
sg402
S'99'
p457
sg20
S'.816'
p458
sg24
S'NBA'
p459
sg26
S'1.2'
p460
sg27
S'22.7'
p461
sg29
S'4.7'
p462
sg31
S'2.7'
p463
sg33
S'6.9'
p464
sg35
S'29'
p465
sg37
S'CLE'
p466
sg39
S'81'
p467
sg41
S'0.7'
p468
sg42
S'10.0'
p469
sg44
S'2.2'
p470
sg46
S'22.7'
p471
sg48
S'5.2'
p472
sg49
S'1975-76'
p473
sg51
S'10.0'
p474
sg53
g3
sg54
S'.442'
p475
sg56
S'2338'
p476
sg58
g3
sba(isrc.gp1.models.Per100Possession
Per100Possession
p477
(dp478
g8
S'2.0'
p479
sg9
g3
sg10
S'.446'
p480
sg398
g3
sg12
S'3.4'
p481
sg14
g3
sg15
g3
sg16
S'26.0'
p482
sg18
S'SF'
p483
sg402
S'100'
p484
sg20
S'.818'
p485
sg24
S'NBA'
p486
sg26
S'1.4'
p487
sg27
S'25.4'
p488
sg29
S'4.7'
p489
sg31
S'4.0'
p490
sg33
S'7.0'
p491
sg35
S'30'
p492
sg37
S'CLE'
p493
sg39
S'81'
p494
sg41
S'0.7'
p495
sg42
S'11.4'
p496
sg44
S'3.3'
p497
sg46
S'25.4'
p498
sg48
S'5.0'
p499
sg49
S'1976-77'
p500
sg51
S'11.4'
p501
sg53
g3
sg54
S'.446'
p502
sg56
S'2135'
p503
sg58
g3
sba(isrc.gp1.models.Per100Possession
Per100Possession
p504
(dp505
g8
S'1.9'
p506
sg9
g3
sg10
S'.439'
p507
sg398
S'98'
p508
sg12
S'2.7'
p509
sg14
g3
sg15
g3
sg16
S'24.8'
p510
sg18
S'SG'
p511
sg402
S'102'
p512
sg20
S'.800'
p513
sg24
S'NBA'
p514
sg26
S'1.1'
p515
sg27
S'24.6'
p516
sg29
S'4.5'
p517
sg31
S'4.0'
p518
sg33
S'6.1'
p519
sg35
S'31'
p520
sg37
S'CLE'
p521
sg39
S'82'
p522
sg41
S'0.6'
p523
sg42
S'10.8'
p524
sg44
S'3.2'
p525
sg46
S'24.6'
p526
sg48
S'4.2'
p527
sg49
S'1977-78'
p528
sg51
S'10.8'
p529
sg53
S'2.4'
p530
sg54
S'.439'
p531
sg56
S'1581'
p532
sg58
g3
sba(isrc.gp1.models.Per100Possession
Per100Possession
p533
(dp534
g8
S'2.2'
p535
sg9
g3
sg10
S'.460'
p536
sg398
S'103'
p537
sg12
S'3.4'
p538
sg14
g3
sg15
g3
sg16
S'22.8'
p539
sg18
S'SG'
p540
sg402
S'110'
p541
sg20
S'.783'
p542
sg24
S'NBA'
p543
sg26
S'1.2'
p544
sg27
S'22.2'
p545
sg29
S'5.3'
p546
sg31
S'3.0'
p547
sg33
S'5.8'
p548
sg35
S'32'
p549
sg37
S'CLE'
p550
sg39
S'72'
p551
sg41
S'0.2'
p552
sg42
S'10.2'
p553
sg44
S'2.4'
p554
sg46
S'22.2'
p555
sg48
S'3.7'
p556
sg49
S'1978-79'
p557
sg51
S'10.2'
p558
sg53
S'2.1'
p559
sg54
S'.460'
p560
sg56
S'1650'
p561
sg58
g3
sba(isrc.gp1.models.Per100Possession
Per100Possession
p562
(dp563
g8
S'2.1'
p564
sg9
S'1.8'
p565
sg10
S'.432'
p566
sg398
S'103'
p567
sg12
S'2.2'
p568
sg14
S'.284'
p569
sg15
S'0.5'
p570
sg16
S'19.9'
p571
sg18
S'SF-SG'
p572
sg402
S'112'
p573
sg20
S'.870'
p574
sg24
S'NBA'
p575
sg26
S'1.4'
p576
sg27
S'19.8'
p577
sg29
S'4.6'
p578
sg31
S'2.6'
p579
sg33
S'5.8'
p580
sg35
S'33'
p581
sg37
S'TOT'
p582
sg39
S'78'
p583
sg41
S'0.4'
p584
sg42
S'8.1'
p585
sg44
S'2.2'
p586
sg46
S'18.0'
p587
sg48
S'3.7'
p588
sg49
S'1979-80'
p589
sg51
S'8.6'
p590
sg53
S'1.8'
p591
sg54
S'.447'
p592
sg56
S'2123'
p593
sg58
g3
sba(isrc.gp1.models.Per100Possession
Per100Possession
p594
(dp595
g8
S'0.7'
p596
sg9
S'1.7'
p597
sg10
S'.458'
p598
sg398
S'97'
p599
sg12
S'2.4'
p600
sg14
S'.200'
p601
sg15
S'0.3'
p602
sg16
S'24.9'
p603
sg18
S'SG'
p604
sg402
S'109'
p605
sg20
S'.875'
p606
sg24
S'NBA'
p607
sg26
S'1.0'
p608
sg27
S'24.2'
p609
sg29
S'7.1'
p610
sg31
S'2.7'
p611
sg33
S'4.7'
p612
sg35
S'33'
p613
sg37
S'CLE'
p614
sg39
g338
sg41
S'0.7'
p615
sg42
S'10.8'
p616
sg44
S'2.4'
p617
sg46
S'22.5'
p618
sg48
S'4.0'
p619
sg49
S'1979-80'
p620
sg51
S'11.1'
p621
sg53
S'3.0'
p622
sg54
S'.478'
p623
sg56
S'135'
p624
sg58
g3
sba(isrc.gp1.models.Per100Possession
Per100Possession
p625
(dp626
g8
S'2.2'
p627
sg9
S'1.8'
p628
sg10
S'.430'
p629
sg398
S'104'
p630
sg12
S'2.2'
p631
sg14
S'.289'
p632
sg15
S'0.5'
p633
sg16
S'19.5'
p634
sg18
S'SF'
p635
sg402
S'112'
p636
sg20
S'.869'
p637
sg24
S'NBA'
p638
sg26
S'1.4'
p639
sg27
S'19.5'
p640
sg29
S'4.5'
p641
sg31
S'2.5'
p642
sg33
S'5.8'
p643
sg35
S'33'
p644
sg37
S'SDC'
p645
sg39
S'70'
p646
sg41
S'0.4'
p647
sg42
S'7.9'
p648
sg44
S'2.2'
p649
sg46
S'17.7'
p650
sg48
S'3.6'
p651
sg49
S'1979-80'
p652
sg51
S'8.4'
p653
sg53
S'1.7'
p654
sg54
S'.444'
p655
sg56
S'1988'
p656
sg58
g3
sbasS'_advanced'
p657
(lp658
(isrc.gp1.models.Advanced
Advanced
p659
(dp660
S'_offensiveReboundPercentage'
p661
g3
sS'_turnOverPercentage'
p662
g3
sS'_winSharesPer48Minutes'
p663
S'.043'
p664
sS'_stealPercentage'
p665
g3
sS'_usagePercentage'
p666
g3
sS'_totalReboundsPercentage'
p667
g3
sS'_defensiveBoxPlusMinus'
p668
g3
sg18
S'SF'
p669
sS'_valueOverReplacementPlayer'
p670
g3
sS'_trueShootingPercentage'
p671
S'.451'
p672
sS'_defensiveReboundPercentage'
p673
g3
sS'_freeThrowsAttempRate'
p674
S'.169'
p675
sS'_threePointsAttempRate'
p676
g3
sg24
S'NBA'
p677
sS'_offensiveBoxPlusMinues'
p678
g3
sS'_assistPercentage'
p679
S'8.1'
p680
sS'_defensiveWinShares'
p681
S'1.7'
p682
sg35
S'23'
p683
sg37
S'SDR'
p684
sg39
S'75'
p685
sS'_blockPercentage'
p686
g3
sS'_playerEfficiencyRating'
p687
S'12.4'
p688
sS'_offensiveWinShares'
p689
S'-0.6'
p690
sg56
S'1198'
p691
sS'_boxPlusMinus'
p692
g3
sg49
S'1969-70'
p693
sS'_winShares'
p694
S'1.1'
p695
sba(isrc.gp1.models.Advanced
Advanced
p696
(dp697
g661
g3
sg662
g3
sg663
S'.049'
p698
sg665
g3
sg666
g3
sg667
S'8.9'
p699
sg668
g3
sg18
S'SG'
p700
sg670
g3
sg671
S'.483'
p701
sg673
g3
sg674
S'.212'
p702
sg676
g3
sg24
S'NBA'
p703
sg678
g3
sg679
S'17.7'
p704
sg681
S'0.8'
p705
sg35
S'24'
p706
sg37
S'CLE'
p707
sg39
S'77'
p708
sg686
g3
sg687
S'15.5'
p709
sg689
S'1.6'
p710
sg56
S'2332'
p711
sg692
g3
sg49
S'1970-71'
p712
sg694
S'2.4'
p713
sba(isrc.gp1.models.Advanced
Advanced
p714
(dp715
g661
g3
sg662
g3
sg663
S'.057'
p716
sg665
g3
sg666
g3
sg667
S'8.9'
p717
sg668
g3
sg18
S'SF'
p718
sg670
g3
sg671
S'.478'
p719
sg673
g3
sg674
S'.188'
p720
sg676
g3
sg24
S'NBA'
p721
sg678
g3
sg679
S'13.2'
p722
sg681
S'2.3'
p723
sg35
S'25'
p724
sg37
S'CLE'
p725
sg39
S'82'
p726
sg686
g3
sg687
S'13.5'
p727
sg689
S'1.0'
p728
sg56
S'2734'
p729
sg692
g3
sg49
S'1971-72'
p730
sg694
S'3.3'
p731
sba(isrc.gp1.models.Advanced
Advanced
p732
(dp733
g661
g3
sg662
g3
sg663
S'.074'
p734
sg665
g3
sg666
g3
sg667
S'9.0'
p735
sg668
g3
sg18
S'SG'
p736
sg670
g3
sg671
S'.470'
p737
sg673
g3
sg674
S'.134'
p738
sg676
g3
sg24
S'NBA'
p739
sg678
g3
sg679
S'16.5'
p740
sg681
S'1.3'
p741
sg35
S'26'
p742
sg37
S'CLE'
p743
sg39
S'73'
p744
sg686
g3
sg687
S'16.3'
p745
sg689
S'0.4'
p746
sg56
S'1068'
p747
sg692
g3
sg49
S'1972-73'
p748
sg694
S'1.6'
p749
sba(isrc.gp1.models.Advanced
Advanced
p750
(dp751
g661
S'5.0'
p752
sg662
g3
sg663
S'.077'
p753
sg665
S'1.6'
p754
sg666
g3
sg667
S'8.5'
p755
sg668
S'-0.6'
p756
sg18
S'SF'
p757
sg670
S'0.7'
p758
sg671
S'.483'
p759
sg673
S'12.5'
p760
sg674
S'.143'
p761
sg676
g3
sg24
S'NBA'
p762
sg678
S'-0.4'
p763
sg679
S'11.5'
p764
sg681
S'1.8'
p765
sg35
S'27'
p766
sg37
S'CLE'
p767
sg39
S'82'
p768
sg686
S'0.6'
p769
sg687
S'13.9'
p770
sg689
S'2.4'
p771
sg56
S'2612'
p772
sg692
S'-1.0'
p773
sg49
S'1973-74'
p774
sg694
S'4.2'
p775
sba(isrc.gp1.models.Advanced
Advanced
p776
(dp777
g661
S'4.3'
p778
sg662
g3
sg663
S'.112'
p779
sg665
S'1.5'
p780
sg666
g3
sg667
S'8.2'
p781
sg668
S'-0.4'
p782
sg18
S'SF'
p783
sg670
S'1.8'
p784
sg671
S'.508'
p785
sg673
S'12.1'
p786
sg674
S'.132'
p787
sg676
g3
sg24
S'NBA'
p788
sg678
S'1.1'
p789
sg679
S'13.7'
p790
sg681
S'2.3'
p791
sg35
S'28'
p792
sg37
S'CLE'
p793
sg39
S'82'
p794
sg686
S'0.5'
p795
sg687
S'15.9'
p796
sg689
S'3.8'
p797
sg56
S'2636'
p798
sg692
S'0.7'
p799
sg49
S'1974-75'
p800
sg694
S'6.1'
p801
sba(isrc.gp1.models.Advanced
Advanced
p802
(dp803
g661
S'3.5'
p804
sg662
g3
sg663
S'.077'
p805
sg665
S'1.2'
p806
sg666
g3
sg667
S'7.5'
p807
sg668
S'-0.8'
p808
sg18
S'SG'
p809
sg670
S'0.1'
p810
sg671
S'.466'
p811
sg673
S'11.7'
p812
sg674
S'.121'
p813
sg676
g3
sg24
S'NBA'
p814
sg678
S'-1.1'
p815
sg679
S'9.9'
p816
sg681
S'2.3'
p817
sg35
S'29'
p818
sg37
S'CLE'
p819
sg39
S'81'
p820
sg686
S'0.8'
p821
sg687
S'13.1'
p822
sg689
S'1.5'
p823
sg56
S'2338'
p824
sg692
S'-1.9'
p825
sg49
S'1975-76'
p826
sg694
S'3.7'
p827
sba(isrc.gp1.models.Advanced
Advanced
p828
(dp829
g661
S'4.2'
p830
sg662
g3
sg663
S'.095'
p831
sg665
S'1.4'
p832
sg666
g3
sg667
S'7.5'
p833
sg668
S'-1.3'
p834
sg18
S'SF'
p835
sg670
S'0.4'
p836
sg671
S'.478'
p837
sg673
S'11.1'
p838
sg674
S'.158'
p839
sg676
g3
sg24
S'NBA'
p840
sg678
S'0.0'
p841
sg679
S'11.3'
p842
sg681
S'2.0'
p843
sg35
S'30'
p844
sg37
S'CLE'
p845
sg39
S'81'
p846
sg686
S'0.8'
p847
sg687
S'15.0'
p848
sg689
S'2.2'
p849
sg56
S'2135'
p850
sg692
S'-1.3'
p851
sg49
S'1976-77'
p852
sg694
S'4.2'
p853
sba(isrc.gp1.models.Advanced
Advanced
p854
(dp855
g661
S'4.1'
p856
sg662
S'8.3'
p857
sg663
S'.076'
p858
sg665
S'1.1'
p859
sg666
S'24.6'
p860
sg667
S'6.6'
p861
sg668
S'-2.1'
p862
sg18
S'SG'
p863
sg670
S'-0.4'
p864
sg671
S'.470'
p865
sg673
S'9.2'
p866
sg674
S'.161'
p867
sg676
g3
sg24
S'NBA'
p868
sg678
S'-0.9'
p869
sg679
S'8.9'
p870
sg681
S'1.3'
p871
sg35
S'31'
p872
sg37
S'CLE'
p873
sg39
S'82'
p874
sg686
S'0.7'
p875
sg687
S'14.3'
p876
sg689
S'1.2'
p877
sg56
S'1581'
p878
sg692
S'-2.9'
p879
sg49
S'1977-78'
p880
sg694
S'2.5'
p881
sba(isrc.gp1.models.Advanced
Advanced
p882
(dp883
g661
S'4.8'
p884
sg662
S'8.3'
p885
sg663
S'.061'
p886
sg665
S'1.2'
p887
sg666
S'21.8'
p888
sg667
S'6.8'
p889
sg668
S'-2.6'
p890
sg18
S'SG'
p891
sg670
S'-0.4'
p892
sg671
S'.485'
p893
sg673
S'9.1'
p894
sg674
S'.135'
p895
sg676
g3
sg24
S'NBA'
p896
sg678
S'-0.3'
p897
sg679
S'10.7'
p898
sg681
S'0.5'
p899
sg35
S'32'
p900
sg37
S'CLE'
p901
sg39
S'72'
p902
sg686
S'0.2'
p903
sg687
S'13.4'
p904
sg689
S'1.6'
p905
sg56
S'1650'
p906
sg692
S'-2.9'
p907
sg49
S'1978-79'
p908
sg694
S'2.1'
p909
sba(isrc.gp1.models.Advanced
Advanced
p910
(dp911
g661
S'4.6'
p912
sg662
S'7.9'
p913
sg663
S'.047'
p914
sg665
S'1.4'
p915
sg666
S'19.2'
p916
sg667
S'6.6'
p917
sg668
S'-2.1'
p918
sg18
S'SF-SG'
p919
sg670
S'-0.7'
p920
sg671
S'.474'
p921
sg673
S'8.7'
p922
sg674
S'.129'
p923
sg676
S'.091'
p924
sg24
S'NBA'
p925
sg678
S'-1.2'
p926
sg679
S'6.6'
p927
sg681
S'0.5'
p928
sg35
S'33'
p929
sg37
S'TOT'
p930
sg39
S'78'
p931
sg686
S'0.4'
p932
sg687
S'11.3'
p933
sg689
S'1.5'
p934
sg56
S'2123'
p935
sg692
S'-3.3'
p936
sg49
S'1979-80'
p937
sg694
S'2.1'
p938
sba(isrc.gp1.models.Advanced
Advanced
p939
(dp940
g661
S'1.5'
p941
sg662
S'10.6'
p942
sg663
S'.028'
p943
sg665
S'1.0'
p944
sg666
S'24.0'
p945
sg667
S'5.5'
p946
sg668
S'-3.0'
p947
sg18
S'SG'
p948
sg670
S'-0.1'
p949
sg671
S'.490'
p950
sg673
S'9.8'
p951
sg674
S'.111'
p952
sg676
S'.069'
p953
sg24
S'NBA'
p954
sg678
S'-2.7'
p955
sg679
S'7.3'
p956
sg681
S'0.1'
p957
sg35
S'33'
p958
sg37
S'CLE'
p959
sg39
g338
sg686
S'0.8'
p960
sg687
S'10.8'
p961
sg689
S'0.0'
p962
sg56
S'135'
p963
sg692
S'-5.7'
p964
sg49
S'1979-80'
p965
sg694
S'0.1'
p966
sba(isrc.gp1.models.Advanced
Advanced
p967
(dp968
g661
S'4.8'
p969
sg662
S'7.7'
p970
sg663
S'.048'
p971
sg665
S'1.4'
p972
sg666
S'18.9'
p973
sg667
S'6.7'
p974
sg668
S'-2.0'
p975
sg18
S'SF'
p976
sg670
S'-0.6'
p977
sg671
S'.473'
p978
sg673
S'8.6'
p979
sg674
S'.131'
p980
sg676
S'.093'
p981
sg24
S'NBA'
p982
sg678
S'-1.1'
p983
sg679
S'6.5'
p984
sg681
S'0.5'
p985
sg35
S'33'
p986
sg37
S'SDC'
p987
sg39
S'70'
p988
sg686
S'0.4'
p989
sg687
S'11.4'
p990
sg689
S'1.5'
p991
sg56
S'1988'
p992
sg692
S'-3.1'
p993
sg49
S'1979-80'
p994
sg694
S'2.0'
p995
sbasS'_per36Minutes'
p996
(lp997
(isrc.gp1.models.Per36Minutes
Per36Minutes
p998
(dp999
g8
g3
sg9
g3
sg10
S'.427'
p1000
sg12
S'2.3'
p1001
sg14
g3
sg15
g3
sg16
S'16.5'
p1002
sg18
S'SF'
p1003
sg20
S'.688'
p1004
sg24
S'NBA'
p1005
sg26
g3
sg27
S'17.0'
p1006
sg29
S'3.6'
p1007
sg31
S'2.9'
p1008
sg33
S'9.9'
p1009
sg35
S'23'
p1010
sg37
S'SDR'
p1011
sg39
S'75'
p1012
sg41
g3
sg42
S'7.3'
p1013
sg44
S'2.0'
p1014
sg46
S'17.0'
p1015
sg48
g3
sg49
S'1969-70'
p1016
sg51
S'7.3'
p1017
sg53
g3
sg54
S'.427'
p1018
sg56
S'1198'
p1019
sg58
g3
sba(isrc.gp1.models.Per36Minutes
Per36Minutes
p1020
(dp1021
g8
g3
sg9
g3
sg10
S'.448'
p1022
sg12
S'4.0'
p1023
sg14
g3
sg15
g3
sg16
S'18.0'
p1024
sg18
S'SG'
p1025
sg20
S'.761'
p1026
sg24
S'NBA'
p1027
sg26
g3
sg27
S'17.1'
p1028
sg29
S'2.7'
p1029
sg31
S'3.6'
p1030
sg33
S'6.6'
p1031
sg35
S'24'
p1032
sg37
S'CLE'
p1033
sg39
S'77'
p1034
sg41
g3
sg42
S'7.6'
p1035
sg44
S'2.7'
p1036
sg46
S'17.1'
p1037
sg48
g3
sg49
S'1970-71'
p1038
sg51
S'7.6'
p1039
sg53
g3
sg54
S'.448'
p1040
sg56
S'2332'
p1041
sg58
g3
sba(isrc.gp1.models.Per36Minutes
Per36Minutes
p1042
(dp1043
g8
g3
sg9
g3
sg10
S'.443'
p1044
sg12
S'3.3'
p1045
sg14
g3
sg15
g3
sg16
S'16.2'
p1046
sg18
S'SF'
p1047
sg20
S'.795'
p1048
sg24
S'NBA'
p1049
sg26
g3
sg27
S'15.7'
p1050
sg29
S'2.9'
p1051
sg31
S'2.9'
p1052
sg33
S'6.6'
p1053
sg35
S'25'
p1054
sg37
S'CLE'
p1055
sg39
S'82'
p1056
sg41
g3
sg42
S'6.9'
p1057
sg44
S'2.3'
p1058
sg46
S'15.7'
p1059
sg48
g3
sg49
S'1971-72'
p1060
sg51
S'6.9'
p1061
sg53
g3
sg54
S'.443'
p1062
sg56
S'2734'
p1063
sg58
g3
sba(isrc.gp1.models.Per36Minutes
Per36Minutes
p1064
(dp1065
g8
g3
sg9
g3
sg10
S'.444'
p1066
sg12
S'3.6'
p1067
sg14
g3
sg15
g3
sg16
S'20.2'
p1068
sg18
S'SG'
p1069
sg20
S'.790'
p1070
sg24
S'NBA'
p1071
sg26
g3
sg27
S'20.3'
p1072
sg29
S'2.7'
p1073
sg31
S'2.7'
p1074
sg33
S'6.7'
p1075
sg35
S'26'
p1076
sg37
S'CLE'
p1077
sg39
S'73'
p1078
sg41
g3
sg42
S'9.0'
p1079
sg44
S'2.2'
p1080
sg46
S'20.3'
p1081
sg48
g3
sg49
S'1972-73'
p1082
sg51
S'9.0'
p1083
sg53
g3
sg54
S'.444'
p1084
sg56
S'1068'
p1085
sg58
g3
sba(isrc.gp1.models.Per36Minutes
Per36Minutes
p1086
(dp1087
g8
S'1.8'
p1088
sg9
g3
sg10
S'.455'
p1089
sg12
S'2.7'
p1090
sg14
g3
sg15
g3
sg16
S'16.7'
p1091
sg18
S'SF'
p1092
sg20
S'.822'
p1093
sg24
S'NBA'
p1094
sg26
S'1.2'
p1095
sg27
S'16.2'
p1096
sg29
S'3.3'
p1097
sg31
S'2.3'
p1098
sg33
S'6.0'
p1099
sg35
S'27'
p1100
sg37
S'CLE'
p1101
sg39
S'82'
p1102
sg41
S'0.4'
p1103
sg42
S'7.4'
p1104
sg44
S'1.9'
p1105
sg46
S'16.2'
p1106
sg48
S'4.1'
p1107
sg49
S'1973-74'
p1108
sg51
S'7.4'
p1109
sg53
g3
sg54
S'.455'
p1110
sg56
S'2612'
p1111
sg58
g3
sba(isrc.gp1.models.Per36Minutes
Per36Minutes
p1112
(dp1113
g8
S'1.5'
p1114
sg9
g3
sg10
S'.483'
p1115
sg12
S'3.1'
p1116
sg14
g3
sg15
g3
sg16
S'17.8'
p1117
sg18
S'SF'
p1118
sg20
S'.825'
p1119
sg24
S'NBA'
p1120
sg26
S'1.1'
p1121
sg27
S'16.6'
p1122
sg29
S'3.1'
p1123
sg31
S'2.2'
p1124
sg33
S'5.6'
p1125
sg35
S'28'
p1126
sg37
S'CLE'
p1127
sg39
S'82'
p1128
sg41
S'0.4'
p1129
sg42
S'8.0'
p1130
sg44
S'1.8'
p1131
sg46
S'16.6'
p1132
sg48
S'4.1'
p1133
sg49
S'1974-75'
p1134
sg51
S'8.0'
p1135
sg53
g3
sg54
S'.483'
p1136
sg56
S'2636'
p1137
sg58
g3
sba(isrc.gp1.models.Per36Minutes
Per36Minutes
p1138
(dp1139
g8
S'1.3'
p1140
sg9
g3
sg10
S'.442'
p1141
sg12
S'2.4'
p1142
sg14
g3
sg15
g3
sg16
S'17.0'
p1143
sg18
S'SG'
p1144
sg20
S'.816'
p1145
sg24
S'NBA'
p1146
sg26
S'0.9'
p1147
sg27
S'17.3'
p1148
sg29
S'3.6'
p1149
sg31
S'2.1'
p1150
sg33
S'5.3'
p1151
sg35
S'29'
p1152
sg37
S'CLE'
p1153
sg39
S'81'
p1154
sg41
S'0.6'
p1155
sg42
S'7.6'
p1156
sg44
S'1.7'
p1157
sg46
S'17.3'
p1158
sg48
S'4.0'
p1159
sg49
S'1975-76'
p1160
sg51
S'7.6'
p1161
sg53
g3
sg54
S'.442'
p1162
sg56
S'2338'
p1163
sg58
g3
sba(isrc.gp1.models.Per36Minutes
Per36Minutes
p1164
(dp1165
g8
S'1.6'
p1166
sg9
g3
sg10
S'.446'
p1167
sg12
S'2.6'
p1168
sg14
g3
sg15
g3
sg16
S'19.8'
p1169
sg18
S'SF'
p1170
sg20
S'.818'
p1171
sg24
S'NBA'
p1172
sg26
S'1.0'
p1173
sg27
S'19.4'
p1174
sg29
S'3.6'
p1175
sg31
S'3.1'
p1176
sg33
S'5.3'
p1177
sg35
S'30'
p1178
sg37
S'CLE'
p1179
sg39
S'81'
p1180
sg41
S'0.5'
p1181
sg42
S'8.7'
p1182
sg44
S'2.5'
p1183
sg46
S'19.4'
p1184
sg48
S'3.8'
p1185
sg49
S'1976-77'
p1186
sg51
S'8.7'
p1187
sg53
g3
sg54
S'.446'
p1188
sg56
S'2135'
p1189
sg58
g3
sba(isrc.gp1.models.Per36Minutes
Per36Minutes
p1190
(dp1191
g8
S'1.5'
p1192
sg9
g3
sg10
S'.439'
p1193
sg12
S'2.1'
p1194
sg14
g3
sg15
g3
sg16
S'19.3'
p1195
sg18
S'SG'
p1196
sg20
S'.800'
p1197
sg24
S'NBA'
p1198
sg26
S'0.9'
p1199
sg27
S'19.1'
p1200
sg29
S'3.5'
p1201
sg31
S'3.1'
p1202
sg33
S'4.7'
p1203
sg35
S'31'
p1204
sg37
S'CLE'
p1205
sg39
S'82'
p1206
sg41
S'0.5'
p1207
sg42
S'8.4'
p1208
sg44
S'2.5'
p1209
sg46
S'19.1'
p1210
sg48
S'3.2'
p1211
sg49
S'1977-78'
p1212
sg51
S'8.4'
p1213
sg53
S'1.8'
p1214
sg54
S'.439'
p1215
sg56
S'1581'
p1216
sg58
g3
sba(isrc.gp1.models.Per36Minutes
Per36Minutes
p1217
(dp1218
g8
S'1.7'
p1219
sg9
g3
sg10
S'.460'
p1220
sg12
S'2.6'
p1221
sg14
g3
sg15
g3
sg16
S'17.6'
p1222
sg18
S'SG'
p1223
sg20
S'.783'
p1224
sg24
S'NBA'
p1225
sg26
S'0.9'
p1226
sg27
S'17.1'
p1227
sg29
S'4.1'
p1228
sg31
S'2.3'
p1229
sg33
S'4.5'
p1230
sg35
S'32'
p1231
sg37
S'CLE'
p1232
sg39
S'72'
p1233
sg41
S'0.2'
p1234
sg42
S'7.9'
p1235
sg44
S'1.8'
p1236
sg46
S'17.1'
p1237
sg48
S'2.8'
p1238
sg49
S'1978-79'
p1239
sg51
S'7.9'
p1240
sg53
S'1.6'
p1241
sg54
S'.460'
p1242
sg56
S'1650'
p1243
sg58
g3
sba(isrc.gp1.models.Per36Minutes
Per36Minutes
p1244
(dp1245
g8
S'1.6'
p1246
sg9
S'1.4'
p1247
sg10
S'.432'
p1248
sg12
S'1.7'
p1249
sg14
S'.284'
p1250
sg15
S'0.4'
p1251
sg16
S'15.1'
p1252
sg18
S'SF-SG'
p1253
sg20
S'.870'
p1254
sg24
S'NBA'
p1255
sg26
S'1.1'
p1256
sg27
S'15.1'
p1257
sg29
S'3.5'
p1258
sg31
S'2.0'
p1259
sg33
S'4.4'
p1260
sg35
S'33'
p1261
sg37
S'TOT'
p1262
sg39
S'78'
p1263
sg41
S'0.3'
p1264
sg42
S'6.1'
p1265
sg44
S'1.7'
p1266
sg46
S'13.7'
p1267
sg48
S'2.8'
p1268
sg49
S'1979-80'
p1269
sg51
S'6.5'
p1270
sg53
S'1.4'
p1271
sg54
S'.447'
p1272
sg56
S'2123'
p1273
sg58
g3
sba(isrc.gp1.models.Per36Minutes
Per36Minutes
p1274
(dp1275
g8
S'0.5'
p1276
sg9
S'1.3'
p1277
sg10
S'.458'
p1278
sg12
S'1.9'
p1279
sg14
S'.200'
p1280
sg15
S'0.3'
p1281
sg16
S'19.7'
p1282
sg18
S'SG'
p1283
sg20
S'.875'
p1284
sg24
S'NBA'
p1285
sg26
S'0.8'
p1286
sg27
S'19.2'
p1287
sg29
S'5.6'
p1288
sg31
S'2.1'
p1289
sg33
S'3.7'
p1290
sg35
S'33'
p1291
sg37
S'CLE'
p1292
sg39
g338
sg41
S'0.5'
p1293
sg42
S'8.5'
p1294
sg44
S'1.9'
p1295
sg46
S'17.9'
p1296
sg48
S'3.2'
p1297
sg49
S'1979-80'
p1298
sg51
S'8.8'
p1299
sg53
S'2.4'
p1300
sg54
S'.478'
p1301
sg56
S'135'
p1302
sg58
g3
sba(isrc.gp1.models.Per36Minutes
Per36Minutes
p1303
(dp1304
g8
S'1.7'
p1305
sg9
S'1.4'
p1306
sg10
S'.430'
p1307
sg12
S'1.7'
p1308
sg14
S'.289'
p1309
sg15
S'0.4'
p1310
sg16
S'14.8'
p1311
sg18
S'SF'
p1312
sg20
S'.869'
p1313
sg24
S'NBA'
p1314
sg26
S'1.1'
p1315
sg27
S'14.8'
p1316
sg29
S'3.4'
p1317
sg31
S'1.9'
p1318
sg33
S'4.4'
p1319
sg35
S'33'
p1320
sg37
S'SDC'
p1321
sg39
S'70'
p1322
sg41
S'0.3'
p1323
sg42
S'6.0'
p1324
sg44
S'1.7'
p1325
sg46
S'13.5'
p1326
sg48
S'2.8'
p1327
sg49
S'1979-80'
p1328
sg51
S'6.4'
p1329
sg53
S'1.3'
p1330
sg54
S'.444'
p1331
sg56
S'1988'
p1332
sg58
g3
sbasS'_fromYear'
p1333
S'1970'
p1334
sS'_url'
p1335
S'http://www.basketball-reference.com/players/s/smithbi02.html'
p1336
sS'_perGame'
p1337
(isrc.gp1.models.PerGame
PerGame
p1338
(dp1339
g8
S'1.3'
p1340
sg9
S'1.1'
p1341
sg10
S'.430'
p1342
sS'_effectiveFieldGalPercentage'
p1343
S'.443'
p1344
sg12
S'1.3'
p1345
sg14
S'.289'
p1346
sg15
S'0.3'
p1347
sg16
S'11.7'
p1348
sg18
S'SF'
p1349
sg20
S'.869'
p1350
sg24
S'NBA'
p1351
sg26
S'0.8'
p1352
sg29
S'2.7'
p1353
sS'_fieldGoalsttempted'
p1354
S'11.7'
p1355
sg31
S'1.5'
p1356
sg33
S'3.5'
p1357
sg35
S'33'
p1358
sg37
S'SDC'
p1359
sg39
S'70'
p1360
sg41
S'0.2'
p1361
sg42
S'4.7'
p1362
sg44
S'1.3'
p1363
sg46
S'10.6'
p1364
sg48
S'2.2'
p1365
sg49
S'1979-80'
p1366
sg51
S'5.0'
p1367
sg53
S'1.0'
p1368
sg54
S'.444'
p1369
sg56
S'28.4'
p1370
sg58
g3
sbsS'_weight'
p1371
S'195'
p1372
sS'_dob'
p1373
S'26-2-1946'
p1374
sS'_salary'
p1375
(lp1376
sg18
S'F-G'
p1377
sb.