(isrc.gp1.models.Player
Player
p0
(dp1
S'_experience'
p2
S'NA'
p3
sS'_totals'
p4
(lp5
(isrc.gp1.models.Totals
Totals
p6
(dp7
S'_offensiveRebounds'
p8
g3
sS'_threePointsAttempted'
p9
g3
sS'_fieldGoalsPercentage'
p10
S'.263'
p11
sS'_assist'
p12
S'171'
p13
sS'_threePointsPercentage'
p14
g3
sS'_threePoints'
p15
g3
sS'_points'
p16
S'601'
p17
sS'_position'
p18
g3
sS'_freeThrowsPercentage'
p19
S'.741'
p20
sS'_effectiveFieldGoalPercentage'
p21
S'.263'
p22
sS'_league'
p23
S'BAA'
p24
sS'_steals'
p25
g3
sS'_fieldGoalsAttempted'
p26
S'771'
p27
sS'_personalFouls'
p28
S'243'
p29
sS'_freeThrowsAttempted'
p30
S'263'
p31
sS'_totalRebounds'
p32
g3
sS'_age'
p33
S'28'
p34
sS'_team'
p35
S'TOT'
p36
sS'_games'
p37
S'60'
p38
sS'_blocks'
p39
g3
sS'_twoPoints'
p40
S'203'
p41
sS'_freeThrows'
p42
S'195'
p43
sS'_twoPointsAttempted'
p44
S'771'
p45
sS'_defensiveRebounds'
p46
g3
sS'_season'
p47
S'1948-49'
p48
sS'_fieldGoals'
p49
S'203'
p50
sS'_turnOvers'
p51
g3
sS'_twoPointsPercentage'
p52
S'.263'
p53
sS'_minutesPlayed'
p54
g3
sS'_gamesStarted'
p55
g3
sba(isrc.gp1.models.Totals
Totals
p56
(dp57
g8
g3
sg9
g3
sg10
S'.259'
p58
sg12
S'35'
p59
sg14
g3
sg15
g3
sg16
S'164'
p60
sg18
g3
sg19
S'.712'
p61
sg21
S'.259'
p62
sg23
S'BAA'
p63
sg25
g3
sg26
S'216'
p64
sg28
S'79'
p65
sg30
S'73'
p66
sg32
g3
sg33
S'28'
p67
sg35
S'FTW'
p68
sg37
S'22'
p69
sg39
g3
sg40
S'56'
p70
sg42
S'52'
p71
sg44
S'216'
p72
sg46
g3
sg47
S'1948-49'
p73
sg49
S'56'
p74
sg51
g3
sg52
S'.259'
p75
sg54
g3
sg55
g3
sba(isrc.gp1.models.Totals
Totals
p76
(dp77
g8
g3
sg9
g3
sg10
S'.265'
p78
sg12
S'136'
p79
sg14
g3
sg15
g3
sg16
S'437'
p80
sg18
g3
sg19
S'.753'
p81
sg21
S'.265'
p82
sg23
S'BAA'
p83
sg25
g3
sg26
S'555'
p84
sg28
S'164'
p85
sg30
S'190'
p86
sg32
g3
sg33
S'28'
p87
sg35
S'INJ'
p88
sg37
S'38'
p89
sg39
g3
sg40
S'147'
p90
sg42
S'143'
p91
sg44
S'555'
p92
sg46
g3
sg47
S'1948-49'
p93
sg49
S'147'
p94
sg51
g3
sg52
S'.265'
p95
sg54
g3
sg55
g3
sba(isrc.gp1.models.Totals
Totals
p96
(dp97
g8
g3
sg9
g3
sg10
S'.327'
p98
sg12
S'142'
p99
sg14
g3
sg15
g3
sg16
S'597'
p100
sg18
g3
sg19
S'.757'
p101
sg21
S'.327'
p102
sg23
S'NBA'
p103
sg25
g3
sg26
S'678'
p104
sg28
S'244'
p105
sg30
S'202'
p106
sg32
g3
sg33
S'29'
p107
sg35
S'BLB'
p108
sg37
S'68'
p109
sg39
g3
sg40
S'222'
p110
sg42
S'153'
p111
sg44
S'678'
p112
sg46
g3
sg47
S'1949-50'
p113
sg49
S'222'
p114
sg51
g3
sg52
S'.327'
p115
sg54
g3
sg55
g3
sbasS'_college'
p116
S'Western Kentucky University'
p117
sS'_toYear'
p118
S'1950'
p119
sS'_height'
p120
S'6-4'
p121
sS'_active'
p122
I00
sS'_shootingHand'
p123
VRight
p124
sS'_name'
p125
S'Blackie Towery'
p126
sS'_per100Possessions'
p127
(lp128
sS'_advanced'
p129
(lp130
(isrc.gp1.models.Advanced
Advanced
p131
(dp132
S'_offensiveReboundPercentage'
p133
g3
sS'_turnOverPercentage'
p134
g3
sS'_winSharesPer48Minutes'
p135
g3
sS'_stealPercentage'
p136
g3
sS'_usagePercentage'
p137
g3
sS'_totalReboundsPercentage'
p138
g3
sS'_defensiveBoxPlusMinus'
p139
g3
sg18
g3
sS'_valueOverReplacementPlayer'
p140
g3
sS'_trueShootingPercentage'
p141
S'.339'
p142
sS'_defensiveReboundPercentage'
p143
g3
sS'_freeThrowsAttempRate'
p144
S'.341'
p145
sS'_threePointsAttempRate'
p146
g3
sg23
S'BAA'
p147
sS'_offensiveBoxPlusMinues'
p148
g3
sS'_assistPercentage'
p149
g3
sS'_defensiveWinShares'
p150
S'3.0'
p151
sg33
S'28'
p152
sg35
S'TOT'
p153
sg37
S'60'
p154
sS'_blockPercentage'
p155
g3
sS'_playerEfficiencyRating'
p156
g3
sS'_offensiveWinShares'
p157
S'-1.4'
p158
sg54
g3
sS'_boxPlusMinus'
p159
g3
sg47
S'1948-49'
p160
sS'_winShares'
p161
S'1.6'
p162
sba(isrc.gp1.models.Advanced
Advanced
p163
(dp164
g133
g3
sg134
g3
sg135
g3
sg136
g3
sg137
g3
sg138
g3
sg139
g3
sg18
g3
sg140
g3
sg141
S'.330'
p165
sg143
g3
sg144
S'.338'
p166
sg146
g3
sg23
S'BAA'
p167
sg148
g3
sg149
g3
sg150
S'1.0'
p168
sg33
S'28'
p169
sg35
S'FTW'
p170
sg37
S'22'
p171
sg155
g3
sg156
g3
sg157
S'-0.6'
p172
sg54
g3
sg159
g3
sg47
S'1948-49'
p173
sg161
S'0.4'
p174
sba(isrc.gp1.models.Advanced
Advanced
p175
(dp176
g133
g3
sg134
g3
sg135
g3
sg136
g3
sg137
g3
sg138
g3
sg139
g3
sg18
g3
sg140
g3
sg141
S'.342'
p177
sg143
g3
sg144
S'.342'
p178
sg146
g3
sg23
S'BAA'
p179
sg148
g3
sg149
g3
sg150
S'2.0'
p180
sg33
S'28'
p181
sg35
S'INJ'
p182
sg37
S'38'
p183
sg155
g3
sg156
g3
sg157
S'-0.7'
p184
sg54
g3
sg159
g3
sg47
S'1948-49'
p185
sg161
S'1.2'
p186
sba(isrc.gp1.models.Advanced
Advanced
p187
(dp188
g133
g3
sg134
g3
sg135
g3
sg136
g3
sg137
g3
sg138
g3
sg139
g3
sg18
g3
sg140
g3
sg141
S'.389'
p189
sg143
g3
sg144
S'.298'
p190
sg146
g3
sg23
S'NBA'
p191
sg148
g3
sg149
g3
sg150
S'1.9'
p192
sg33
S'29'
p193
sg35
S'BLB'
p194
sg37
S'68'
p195
sg155
g3
sg156
g3
sg157
S'0.7'
p196
sg54
g3
sg159
g3
sg47
S'1949-50'
p197
sg161
S'2.6'
p198
sbasS'_per36Minutes'
p199
(lp200
(isrc.gp1.models.Per36Minutes
Per36Minutes
p201
(dp202
g8
g3
sg9
g3
sg10
S'.263'
p203
sg12
g3
sg14
g3
sg15
g3
sg16
g3
sg18
g3
sg19
S'.741'
p204
sg23
S'BAA'
p205
sg25
g3
sg26
g3
sg28
g3
sg30
g3
sg32
g3
sg33
S'28'
p206
sg35
S'TOT'
p207
sg37
S'60'
p208
sg39
g3
sg40
g3
sg42
g3
sg44
g3
sg46
g3
sg47
S'1948-49'
p209
sg49
g3
sg51
g3
sg52
S'.263'
p210
sg54
g3
sg55
g3
sba(isrc.gp1.models.Per36Minutes
Per36Minutes
p211
(dp212
g8
g3
sg9
g3
sg10
S'.259'
p213
sg12
g3
sg14
g3
sg15
g3
sg16
g3
sg18
g3
sg19
S'.712'
p214
sg23
S'BAA'
p215
sg25
g3
sg26
g3
sg28
g3
sg30
g3
sg32
g3
sg33
S'28'
p216
sg35
S'FTW'
p217
sg37
S'22'
p218
sg39
g3
sg40
g3
sg42
g3
sg44
g3
sg46
g3
sg47
S'1948-49'
p219
sg49
g3
sg51
g3
sg52
S'.259'
p220
sg54
g3
sg55
g3
sba(isrc.gp1.models.Per36Minutes
Per36Minutes
p221
(dp222
g8
g3
sg9
g3
sg10
S'.265'
p223
sg12
g3
sg14
g3
sg15
g3
sg16
g3
sg18
g3
sg19
S'.753'
p224
sg23
S'BAA'
p225
sg25
g3
sg26
g3
sg28
g3
sg30
g3
sg32
g3
sg33
S'28'
p226
sg35
S'INJ'
p227
sg37
S'38'
p228
sg39
g3
sg40
g3
sg42
g3
sg44
g3
sg46
g3
sg47
S'1948-49'
p229
sg49
g3
sg51
g3
sg52
S'.265'
p230
sg54
g3
sg55
g3
sba(isrc.gp1.models.Per36Minutes
Per36Minutes
p231
(dp232
g8
g3
sg9
g3
sg10
S'.327'
p233
sg12
g3
sg14
g3
sg15
g3
sg16
g3
sg18
g3
sg19
S'.757'
p234
sg23
S'NBA'
p235
sg25
g3
sg26
g3
sg28
g3
sg30
g3
sg32
g3
sg33
S'29'
p236
sg35
S'BLB'
p237
sg37
S'68'
p238
sg39
g3
sg40
g3
sg42
g3
sg44
g3
sg46
g3
sg47
S'1949-50'
p239
sg49
g3
sg51
g3
sg52
S'.327'
p240
sg54
g3
sg55
g3
sbasS'_fromYear'
p241
S'1949'
p242
sS'_url'
p243
S'http://www.basketball-reference.com/players/t/towerbl01.html'
p244
sS'_perGame'
p245
(isrc.gp1.models.PerGame
PerGame
p246
(dp247
g8
g3
sg9
g3
sg10
S'.327'
p248
sS'_effectiveFieldGalPercentage'
p249
S'.327'
p250
sg12
S'2.1'
p251
sg14
g3
sg15
g3
sg16
S'8.8'
p252
sg18
g3
sg19
S'.757'
p253
sg23
S'NBA'
p254
sg25
g3
sg28
S'3.6'
p255
sS'_fieldGoalsttempted'
p256
S'10.0'
p257
sg30
S'3.0'
p258
sg32
g3
sg33
S'29'
p259
sg35
S'BLB'
p260
sg37
S'68'
p261
sg39
g3
sg40
S'3.3'
p262
sg42
S'2.3'
p263
sg44
S'10.0'
p264
sg46
g3
sg47
S'1949-50'
p265
sg49
S'3.3'
p266
sg51
g3
sg52
S'.327'
p267
sg54
g3
sg55
g3
sbsS'_weight'
p268
S'210'
p269
sS'_dob'
p270
S'20-6-1920'
p271
sS'_salary'
p272
(lp273
sg18
S'F-C'
p274
sb.