(isrc.gp1.models.Player
Player
p0
(dp1
S'_experience'
p2
S'NA'
p3
sS'_totals'
p4
(lp5
(isrc.gp1.models.Totals
Totals
p6
(dp7
S'_offensiveRebounds'
p8
S'79'
p9
sS'_threePointsAttempted'
p10
S'.000'
p11
sS'_fieldGoalsPercentage'
p12
S'0'
p13
sS'_assist'
p14
S'792'
p15
sS'_threePointsPercentage'
p16
S'325'
p17
sS'_threePoints'
p18
S'4'
p19
sS'_points'
p20
g3
sS'_position'
p21
S'PF'
p22
sS'_freeThrowsPercentage'
p23
S'506'
p24
sS'_effectiveFieldGoalPercentage'
p25
S'142'
p26
sS'_league'
p27
S'ABA'
p28
sS'_steals'
p29
g3
sS'_fieldGoalsAttempted'
p30
S'.442'
p31
sS'_personalFouls'
p32
g3
sS'_freeThrowsAttempted'
p33
S'.747'
p34
sS'_totalRebounds'
p35
S'203'
p36
sS'_age'
p37
S'23'
p38
sS'_team'
p39
S'ANA'
p40
sS'_games'
p41
S'76'
p42
sS'_blocks'
p43
g3
sS'_twoPoints'
p44
S'732'
p45
sS'_freeThrows'
p46
S'190'
p47
sS'_twoPointsAttempted'
p48
S'.444'
p49
sS'_defensiveRebounds'
p50
S'111'
p51
sS'_season'
p52
S'1967-68'
p53
sS'_fieldGoals'
p54
S'736'
p55
sS'_turnOvers'
p56
g3
sS'_twoPointsPercentage'
p57
S'.442'
p58
sS'_minutesPlayed'
p59
S'325'
p60
sS'_gamesStarted'
p61
S'1492'
p62
sba(isrc.gp1.models.Totals
Totals
p63
(dp64
g8
S'74'
p65
sg10
S'.000'
p66
sg12
g13
sg14
S'35'
p67
sg16
S'92'
p68
sg18
S'2'
p69
sg20
g3
sg21
S'PF'
p70
sg23
S'42'
p71
sg25
S'48'
p72
sg27
S'ABA'
p73
sg29
S'76'
p74
sg30
S'.416'
p75
sg32
g3
sg33
S'.571'
p76
sg35
S'30'
p77
sg37
S'24'
p78
sg39
S'DLC'
p79
sg41
S'42'
p80
sg43
S'232'
p81
sg44
S'219'
p82
sg46
S'84'
p83
sg48
S'.420'
p84
sg50
S'116'
p85
sg52
S'1968-69'
p86
sg54
S'221'
p87
sg56
g3
sg57
S'.416'
p88
sg59
S'92'
p89
sg61
S'479'
p90
sba(isrc.gp1.models.Totals
Totals
p91
(dp92
g8
S'301'
p93
sg10
S'.200'
p94
sg12
g69
sg14
S'145'
p95
sg16
S'283'
p96
sg18
S'10'
p97
sg20
g3
sg21
S'PF'
p98
sg23
S'153'
p99
sg25
S'207'
p100
sg27
S'ABA'
p101
sg29
S'192'
p102
sg30
S'.421'
p103
sg32
g3
sg33
S'.841'
p104
sg35
S'126'
p105
sg37
S'25'
p106
sg39
S'DLC'
p107
sg41
S'80'
p108
sg43
S'779'
p109
sg44
S'667'
p110
sg46
S'246'
p111
sg48
S'.424'
p112
sg50
S'454'
p113
sg52
S'1969-70'
p114
sg54
S'677'
p115
sg56
g3
sg57
S'.422'
p116
sg59
S'285'
p117
sg61
S'1536'
p118
sba(isrc.gp1.models.Totals
Totals
p119
(dp120
g8
S'172'
p121
sg10
S'.214'
p122
sg12
S'9'
p123
sg14
S'79'
p124
sg16
S'167'
p125
sg18
S'42'
p126
sg20
g3
sg21
S'PF'
p127
sg23
S'138'
p128
sg25
S'93'
p129
sg27
S'ABA'
p130
sg29
S'124'
p131
sg30
S'.399'
p132
sg32
g3
sg33
S'.823'
p133
sg35
S'85'
p134
sg37
S'26'
p135
sg39
S'TEX'
p136
sg41
S'71'
p137
sg43
S'454'
p138
sg44
S'399'
p139
sg46
S'113'
p140
sg48
S'.419'
p141
sg50
S'310'
p142
sg52
S'1970-71'
p143
sg54
S'441'
p144
sg56
g3
sg57
S'.409'
p145
sg59
S'176'
p146
sg61
S'970'
p147
sbasS'_college'
p148
S'Stanford University'
p149
sS'_toYear'
p150
S'1971'
p151
sS'_height'
p152
S'6-7'
p153
sS'_active'
p154
I00
sS'_shootingHand'
p155
VRight
p156
sS'_name'
p157
S'Bob Bedell'
p158
sS'_per100Possessions'
p159
(lp160
sS'_advanced'
p161
(lp162
(isrc.gp1.models.Advanced
Advanced
p163
(dp164
S'_offensiveReboundPercentage'
p165
S'14.8'
p166
sS'_turnOverPercentage'
p167
S'2.2'
p168
sS'_winSharesPer48Minutes'
p169
g3
sS'_stealPercentage'
p170
S'1.7'
p171
sS'_usagePercentage'
p172
S'.072'
p173
sS'_totalReboundsPercentage'
p174
S'11.9'
p175
sS'_defensiveBoxPlusMinus'
p176
g3
sg21
S'PF'
p177
sS'_valueOverReplacementPlayer'
p178
g3
sS'_trueShootingPercentage'
p179
S'.483'
p180
sS'_defensiveReboundPercentage'
p181
S'8.5'
p182
sS'_freeThrowsAttempRate'
p183
S'.258'
p184
sS'_threePointsAttempRate'
p185
S'.005'
p186
sg27
S'ABA'
p187
sS'_offensiveBoxPlusMinues'
p188
g3
sS'_assistPercentage'
p189
S'22.5'
p190
sS'_defensiveWinShares'
p191
g3
sg37
S'23'
p192
sg39
S'ANA'
p193
sg41
S'76'
p194
sS'_blockPercentage'
p195
S'0.6'
p196
sS'_playerEfficiencyRating'
p197
S'17.7'
p198
sS'_offensiveWinShares'
p199
g3
sg59
S'1492'
p200
sS'_boxPlusMinus'
p201
g3
sg52
S'1967-68'
p202
sS'_winShares'
p203
g3
sba(isrc.gp1.models.Advanced
Advanced
p204
(dp205
g165
S'11.1'
p206
sg167
S'0.1'
p207
sg169
g3
sg170
S'-0.2'
p208
sg172
S'.014'
p209
sg174
S'11.9'
p210
sg176
g3
sg21
S'PF'
p211
sg178
g3
sg179
S'.450'
p212
sg181
S'9.6'
p213
sg183
S'.380'
p214
sg185
S'.009'
p215
sg27
S'ABA'
p216
sg188
g3
sg189
S'23.2'
p217
sg191
g3
sg37
S'24'
p218
sg39
S'DLC'
p219
sg41
S'42'
p220
sg195
S'0.3'
p221
sg197
S'13.1'
p222
sg199
g3
sg59
S'479'
p223
sg201
g3
sg52
S'1968-69'
p224
sg203
g3
sba(isrc.gp1.models.Advanced
Advanced
p225
(dp226
g165
S'12.9'
p227
sg167
S'2.4'
p228
sg169
g3
sg170
S'1.2'
p229
sg172
S'.076'
p230
sg174
S'15.6'
p231
sg176
g3
sg21
S'PF'
p232
sg178
g3
sg179
S'.496'
p233
sg181
S'11.0'
p234
sg183
S'.363'
p235
sg185
S'.015'
p236
sg27
S'ABA'
p237
sg188
g3
sg189
S'21.8'
p238
sg191
g3
sg37
S'25'
p239
sg39
S'DLC'
p240
sg41
S'80'
p241
sg195
S'1.2'
p242
sg197
S'15.9'
p243
sg199
g3
sg59
S'1536'
p244
sg201
g3
sg52
S'1969-70'
p245
sg203
g3
sba(isrc.gp1.models.Advanced
Advanced
p246
(dp247
g165
S'13.6'
p248
sg167
S'0.8'
p249
sg169
g3
sg170
S'-0.2'
p250
sg172
S'.039'
p251
sg174
S'13.9'
p252
sg176
g3
sg21
S'PF'
p253
sg178
g3
sg179
S'.463'
p254
sg181
S'11.1'
p255
sg183
S'.256'
p256
sg185
S'.095'
p257
sg27
S'ABA'
p258
sg188
g3
sg189
S'20.7'
p259
sg191
g3
sg37
S'26'
p260
sg39
S'TEX'
p261
sg41
S'71'
p262
sg195
S'1.0'
p263
sg197
S'14.2'
p264
sg199
g3
sg59
S'970'
p265
sg201
g3
sg52
S'1970-71'
p266
sg203
g3
sbasS'_per36Minutes'
p267
(lp268
(isrc.gp1.models.Per36Minutes
Per36Minutes
p269
(dp270
g8
S'1.9'
p271
sg10
S'.000'
p272
sg12
S'0.0'
p273
sg14
S'19.1'
p274
sg16
S'7.8'
p275
sg18
S'0.1'
p276
sg20
g3
sg21
S'PF'
p277
sg23
S'12.2'
p278
sg27
S'ABA'
p279
sg29
g3
sg30
S'.442'
p280
sg32
g3
sg33
S'.747'
p281
sg35
S'4.9'
p282
sg37
S'23'
p283
sg39
S'ANA'
p284
sg41
S'76'
p285
sg43
g3
sg44
S'17.7'
p286
sg46
S'4.6'
p287
sg48
S'.444'
p288
sg50
S'2.7'
p289
sg52
S'1967-68'
p290
sg54
S'17.8'
p291
sg56
g3
sg57
S'3.4'
p292
sg59
S'7.8'
p293
sg61
S'1492'
p294
sba(isrc.gp1.models.Per36Minutes
Per36Minutes
p295
(dp296
g8
S'5.6'
p297
sg10
S'.000'
p298
sg12
S'0.0'
p299
sg14
S'2.6'
p300
sg16
S'6.9'
p301
sg18
S'0.2'
p302
sg20
g3
sg21
S'PF'
p303
sg23
S'3.2'
p304
sg27
S'ABA'
p305
sg29
S'5.7'
p306
sg30
S'.416'
p307
sg32
g3
sg33
S'.571'
p308
sg35
S'2.3'
p309
sg37
S'24'
p310
sg39
S'DLC'
p311
sg41
S'42'
p312
sg43
S'17.4'
p313
sg44
S'16.5'
p314
sg46
S'6.3'
p315
sg48
S'.420'
p316
sg50
S'8.7'
p317
sg52
S'1968-69'
p318
sg54
S'16.6'
p319
sg56
g3
sg57
S'3.6'
p320
sg59
S'6.9'
p321
sg61
S'479'
p322
sba(isrc.gp1.models.Per36Minutes
Per36Minutes
p323
(dp324
g8
S'7.1'
p325
sg10
S'.200'
p326
sg12
S'0.0'
p327
sg14
S'3.4'
p328
sg16
S'6.6'
p329
sg18
S'0.2'
p330
sg20
g3
sg21
S'PF'
p331
sg23
S'3.6'
p332
sg27
S'ABA'
p333
sg29
S'4.5'
p334
sg30
S'.421'
p335
sg32
g3
sg33
S'.841'
p336
sg35
S'3.0'
p337
sg37
S'25'
p338
sg39
S'DLC'
p339
sg41
S'80'
p340
sg43
S'18.3'
p341
sg44
S'15.6'
p342
sg46
S'5.8'
p343
sg48
S'.424'
p344
sg50
S'10.6'
p345
sg52
S'1969-70'
p346
sg54
S'15.9'
p347
sg56
g3
sg57
S'4.9'
p348
sg59
S'6.7'
p349
sg61
S'1536'
p350
sba(isrc.gp1.models.Per36Minutes
Per36Minutes
p351
(dp352
g8
S'6.4'
p353
sg10
S'.214'
p354
sg12
S'0.3'
p355
sg14
S'2.9'
p356
sg16
S'6.2'
p357
sg18
S'1.6'
p358
sg20
g3
sg21
S'PF'
p359
sg23
S'5.1'
p360
sg27
S'ABA'
p361
sg29
S'4.6'
p362
sg30
S'.399'
p363
sg32
g3
sg33
S'.823'
p364
sg35
S'3.2'
p365
sg37
S'26'
p366
sg39
S'TEX'
p367
sg41
S'71'
p368
sg43
S'16.8'
p369
sg44
S'14.8'
p370
sg46
S'4.2'
p371
sg48
S'.419'
p372
sg50
S'11.5'
p373
sg52
S'1970-71'
p374
sg54
S'16.4'
p375
sg56
g3
sg57
S'3.5'
p376
sg59
S'6.5'
p377
sg61
S'970'
p378
sbasS'_fromYear'
p379
S'1968'
p380
sS'_url'
p381
S'http://www.basketball-reference.com/players/b/bedelbo01.html'
p382
sS'_perGame'
p383
(isrc.gp1.models.PerGame
PerGame
p384
(dp385
g8
S'2.4'
p386
sg10
S'.214'
p387
sg12
S'0.1'
p388
sS'_effectiveFieldGalPercentage'
p389
S'1.3'
p390
sg14
S'1.1'
p391
sg16
S'2.4'
p392
sg18
S'0.6'
p393
sg20
g3
sg21
S'PF'
p394
sg23
S'1.9'
p395
sg27
S'ABA'
p396
sg29
S'1.7'
p397
sg32
g3
sS'_fieldGoalsttempted'
p398
S'.399'
p399
sg33
S'.823'
p400
sg35
S'1.2'
p401
sg37
S'26'
p402
sg39
S'TEX'
p403
sg41
S'71'
p404
sg43
S'6.4'
p405
sg44
S'5.6'
p406
sg46
S'1.6'
p407
sg48
S'.419'
p408
sg50
S'4.4'
p409
sg52
S'1970-71'
p410
sg54
S'6.2'
p411
sg56
g3
sg57
S'.409'
p412
sg59
S'2.5'
p413
sg61
S'13.7'
p414
sbsS'_weight'
p415
S'205'
p416
sS'_dob'
p417
S'26-6-1944'
p418
sS'_salary'
p419
(lp420
sg21
S'F'
p421
sb.