(isrc.gp1.models.Player
Player
p0
(dp1
S'_experience'
p2
S'NA'
p3
sS'_totals'
p4
(lp5
(isrc.gp1.models.Totals
Totals
p6
(dp7
S'_offensiveRebounds'
p8
g3
sS'_threePointsAttempted'
p9
g3
sS'_fieldGoalsPercentage'
p10
S'.391'
p11
sS'_assist'
p12
S'41'
p13
sS'_threePointsPercentage'
p14
g3
sS'_threePoints'
p15
g3
sS'_points'
p16
S'179'
p17
sS'_position'
p18
S'SG'
p19
sS'_freeThrowsPercentage'
p20
S'.772'
p21
sS'_effectiveFieldGoalPercentage'
p22
S'.391'
p23
sS'_league'
p24
S'NBA'
p25
sS'_steals'
p26
g3
sS'_fieldGoalsAttempted'
p27
S'151'
p28
sS'_personalFouls'
p29
S'40'
p30
sS'_freeThrowsAttempted'
p31
S'79'
p32
sS'_totalRebounds'
p33
S'56'
p34
sS'_age'
p35
S'22'
p36
sS'_team'
p37
S'SFW'
p38
sS'_games'
p39
S'41'
p40
sS'_blocks'
p41
g3
sS'_twoPoints'
p42
S'59'
p43
sS'_freeThrows'
p44
S'61'
p45
sS'_twoPointsAttempted'
p46
S'151'
p47
sS'_defensiveRebounds'
p48
g3
sS'_season'
p49
S'1967-68'
p50
sS'_fieldGoals'
p51
S'59'
p52
sS'_turnOvers'
p53
g3
sS'_twoPointsPercentage'
p54
S'.391'
p55
sS'_minutesPlayed'
p56
S'342'
p57
sS'_gamesStarted'
p58
g3
sba(isrc.gp1.models.Totals
Totals
p59
(dp60
g8
g3
sg9
g3
sg10
S'.390'
p61
sg12
S'76'
p62
sg14
g3
sg15
g3
sg16
S'309'
p63
sg18
S'SG'
p64
sg20
S'.735'
p65
sg22
S'.390'
p66
sg24
S'NBA'
p67
sg26
g3
sg27
S'290'
p68
sg29
S'117'
p69
sg31
S'113'
p70
sg33
S'114'
p71
sg35
S'23'
p72
sg37
S'SFW'
p73
sg39
S'62'
p74
sg41
g3
sg42
S'113'
p75
sg44
S'83'
p76
sg46
S'290'
p77
sg48
g3
sg49
S'1968-69'
p78
sg51
S'113'
p79
sg53
g3
sg54
S'.390'
p80
sg56
S'756'
p81
sg58
g3
sba(isrc.gp1.models.Totals
Totals
p82
(dp83
g8
g3
sg9
g3
sg10
S'.382'
p84
sg12
S'194'
p85
sg14
g3
sg15
g3
sg16
S'526'
p86
sg18
S'SG'
p87
sg20
S'.658'
p88
sg22
S'.382'
p89
sg24
S'NBA'
p90
sg26
g3
sg27
S'557'
p91
sg29
S'170'
p92
sg31
S'152'
p93
sg33
S'157'
p94
sg35
S'24'
p95
sg37
S'SFW'
p96
sg39
S'73'
p97
sg41
g3
sg42
S'213'
p98
sg44
S'100'
p99
sg46
S'557'
p100
sg48
g3
sg49
S'1969-70'
p101
sg51
S'213'
p102
sg53
g3
sg54
S'.382'
p103
sg56
S'1353'
p104
sg58
g3
sba(isrc.gp1.models.Totals
Totals
p105
(dp106
g8
g3
sg9
g3
sg10
S'.370'
p107
sg12
S'244'
p108
sg14
g3
sg15
g3
sg16
S'467'
p109
sg18
S'SG'
p110
sg20
S'.717'
p111
sg22
S'.370'
p112
sg24
S'NBA'
p113
sg26
g3
sg27
S'484'
p114
sg29
S'176'
p115
sg31
S'152'
p116
sg33
S'206'
p117
sg35
S'25'
p118
sg37
S'CLE'
p119
sg39
S'79'
p120
sg41
g3
sg42
S'179'
p121
sg44
S'109'
p122
sg46
S'484'
p123
sg48
g3
sg49
S'1970-71'
p124
sg51
S'179'
p125
sg53
g3
sg54
S'.370'
p126
sg56
S'1852'
p127
sg58
g3
sbasS'_college'
p128
S'University of North Carolina'
p129
sS'_toYear'
p130
S'1971'
p131
sS'_height'
p132
S'6-3'
p133
sS'_active'
p134
I00
sS'_shootingHand'
p135
VRight
p136
sS'_name'
p137
S'Bobby Lewis'
p138
sS'_per100Possessions'
p139
(lp140
sS'_advanced'
p141
(lp142
(isrc.gp1.models.Advanced
Advanced
p143
(dp144
S'_offensiveReboundPercentage'
p145
g3
sS'_turnOverPercentage'
p146
g3
sS'_winSharesPer48Minutes'
p147
S'.095'
p148
sS'_stealPercentage'
p149
g3
sS'_usagePercentage'
p150
g3
sS'_totalReboundsPercentage'
p151
g3
sS'_defensiveBoxPlusMinus'
p152
g3
sg18
S'SG'
p153
sS'_valueOverReplacementPlayer'
p154
g3
sS'_trueShootingPercentage'
p155
S'.482'
p156
sS'_defensiveReboundPercentage'
p157
g3
sS'_freeThrowsAttempRate'
p158
S'.523'
p159
sS'_threePointsAttempRate'
p160
g3
sg24
S'NBA'
p161
sS'_offensiveBoxPlusMinues'
p162
g3
sS'_assistPercentage'
p163
S'16.1'
p164
sS'_defensiveWinShares'
p165
S'0.4'
p166
sg35
S'22'
p167
sg37
S'SFW'
p168
sg39
S'41'
p169
sS'_blockPercentage'
p170
g3
sS'_playerEfficiencyRating'
p171
S'14.4'
p172
sS'_offensiveWinShares'
p173
S'0.2'
p174
sg56
S'342'
p175
sS'_boxPlusMinus'
p176
g3
sg49
S'1967-68'
p177
sS'_winShares'
p178
S'0.7'
p179
sba(isrc.gp1.models.Advanced
Advanced
p180
(dp181
g145
g3
sg146
g3
sg147
S'.062'
p182
sg149
g3
sg150
g3
sg151
g3
sg152
g3
sg18
S'SG'
p183
sg154
g3
sg155
S'.455'
p184
sg157
g3
sg158
S'.390'
p185
sg160
g3
sg24
S'NBA'
p186
sg162
g3
sg163
S'14.2'
p187
sg165
S'0.9'
p188
sg35
S'23'
p189
sg37
S'SFW'
p190
sg39
S'62'
p191
sg170
g3
sg171
S'10.8'
p192
sg173
S'0.1'
p193
sg56
S'756'
p194
sg176
g3
sg49
S'1968-69'
p195
sg178
S'1.0'
p196
sba(isrc.gp1.models.Advanced
Advanced
p197
(dp198
g145
g3
sg146
g3
sg147
S'-0.005'
p199
sg149
g3
sg150
g3
sg151
g3
sg152
g3
sg18
S'SG'
p200
sg154
g3
sg155
S'.422'
p201
sg157
g3
sg158
S'.273'
p202
sg160
g3
sg24
S'NBA'
p203
sg162
g3
sg163
S'19.4'
p204
sg165
S'1.5'
p205
sg35
S'24'
p206
sg37
S'SFW'
p207
sg39
S'73'
p208
sg170
g3
sg171
S'10.0'
p209
sg173
S'-1.6'
p210
sg56
S'1353'
p211
sg176
g3
sg49
S'1969-70'
p212
sg178
S'-0.1'
p213
sba(isrc.gp1.models.Advanced
Advanced
p214
(dp215
g145
g3
sg146
g3
sg147
S'-0.012'
p216
sg149
g3
sg150
g3
sg151
S'5.4'
p217
sg152
g3
sg18
S'SG'
p218
sg154
g3
sg155
S'.424'
p219
sg157
g3
sg158
S'.314'
p220
sg160
g3
sg24
S'NBA'
p221
sg162
g3
sg163
S'17.8'
p222
sg165
S'0.6'
p223
sg35
S'25'
p224
sg37
S'CLE'
p225
sg39
S'79'
p226
sg170
g3
sg171
S'8.2'
p227
sg173
S'-1.0'
p228
sg56
S'1852'
p229
sg176
g3
sg49
S'1970-71'
p230
sg178
S'-0.4'
p231
sbasS'_per36Minutes'
p232
(lp233
(isrc.gp1.models.Per36Minutes
Per36Minutes
p234
(dp235
g8
g3
sg9
g3
sg10
S'.391'
p236
sg12
S'4.3'
p237
sg14
g3
sg15
g3
sg16
S'18.8'
p238
sg18
S'SG'
p239
sg20
S'.772'
p240
sg24
S'NBA'
p241
sg26
g3
sg27
S'15.9'
p242
sg29
S'4.2'
p243
sg31
S'8.3'
p244
sg33
S'5.9'
p245
sg35
S'22'
p246
sg37
S'SFW'
p247
sg39
S'41'
p248
sg41
g3
sg42
S'6.2'
p249
sg44
S'6.4'
p250
sg46
S'15.9'
p251
sg48
g3
sg49
S'1967-68'
p252
sg51
S'6.2'
p253
sg53
g3
sg54
S'.391'
p254
sg56
S'342'
p255
sg58
g3
sba(isrc.gp1.models.Per36Minutes
Per36Minutes
p256
(dp257
g8
g3
sg9
g3
sg10
S'.390'
p258
sg12
S'3.6'
p259
sg14
g3
sg15
g3
sg16
S'14.7'
p260
sg18
S'SG'
p261
sg20
S'.735'
p262
sg24
S'NBA'
p263
sg26
g3
sg27
S'13.8'
p264
sg29
S'5.6'
p265
sg31
S'5.4'
p266
sg33
S'5.4'
p267
sg35
S'23'
p268
sg37
S'SFW'
p269
sg39
S'62'
p270
sg41
g3
sg42
S'5.4'
p271
sg44
S'4.0'
p272
sg46
S'13.8'
p273
sg48
g3
sg49
S'1968-69'
p274
sg51
S'5.4'
p275
sg53
g3
sg54
S'.390'
p276
sg56
S'756'
p277
sg58
g3
sba(isrc.gp1.models.Per36Minutes
Per36Minutes
p278
(dp279
g8
g3
sg9
g3
sg10
S'.382'
p280
sg12
S'5.2'
p281
sg14
g3
sg15
g3
sg16
S'14.0'
p282
sg18
S'SG'
p283
sg20
S'.658'
p284
sg24
S'NBA'
p285
sg26
g3
sg27
S'14.8'
p286
sg29
S'4.5'
p287
sg31
S'4.0'
p288
sg33
S'4.2'
p289
sg35
S'24'
p290
sg37
S'SFW'
p291
sg39
S'73'
p292
sg41
g3
sg42
S'5.7'
p293
sg44
S'2.7'
p294
sg46
S'14.8'
p295
sg48
g3
sg49
S'1969-70'
p296
sg51
S'5.7'
p297
sg53
g3
sg54
S'.382'
p298
sg56
S'1353'
p299
sg58
g3
sba(isrc.gp1.models.Per36Minutes
Per36Minutes
p300
(dp301
g8
g3
sg9
g3
sg10
S'.370'
p302
sg12
S'4.7'
p303
sg14
g3
sg15
g3
sg16
S'9.1'
p304
sg18
S'SG'
p305
sg20
S'.717'
p306
sg24
S'NBA'
p307
sg26
g3
sg27
S'9.4'
p308
sg29
S'3.4'
p309
sg31
S'3.0'
p310
sg33
S'4.0'
p311
sg35
S'25'
p312
sg37
S'CLE'
p313
sg39
S'79'
p314
sg41
g3
sg42
S'3.5'
p315
sg44
S'2.1'
p316
sg46
S'9.4'
p317
sg48
g3
sg49
S'1970-71'
p318
sg51
S'3.5'
p319
sg53
g3
sg54
S'.370'
p320
sg56
S'1852'
p321
sg58
g3
sbasS'_fromYear'
p322
S'1968'
p323
sS'_url'
p324
S'http://www.basketball-reference.com/players/l/lewisbo01.html'
p325
sS'_perGame'
p326
(isrc.gp1.models.PerGame
PerGame
p327
(dp328
g8
g3
sg9
g3
sg10
S'.370'
p329
sS'_effectiveFieldGalPercentage'
p330
S'.370'
p331
sg12
S'3.1'
p332
sg14
g3
sg15
g3
sg16
S'5.9'
p333
sg18
S'SG'
p334
sg20
S'.717'
p335
sg24
S'NBA'
p336
sg26
g3
sg29
S'2.2'
p337
sS'_fieldGoalsttempted'
p338
S'6.1'
p339
sg31
S'1.9'
p340
sg33
S'2.6'
p341
sg35
S'25'
p342
sg37
S'CLE'
p343
sg39
S'79'
p344
sg41
g3
sg42
S'2.3'
p345
sg44
S'1.4'
p346
sg46
S'6.1'
p347
sg48
g3
sg49
S'1970-71'
p348
sg51
S'2.3'
p349
sg53
g3
sg54
S'.370'
p350
sg56
S'23.4'
p351
sg58
g3
sbsS'_weight'
p352
S'175'
p353
sS'_dob'
p354
S'20-3-1945'
p355
sS'_salary'
p356
(lp357
sg18
S'G'
p358
sb.