(isrc.gp1.models.Player
Player
p0
(dp1
S'_experience'
p2
S'NA'
p3
sS'_totals'
p4
(lp5
(isrc.gp1.models.Totals
Totals
p6
(dp7
S'_offensiveRebounds'
p8
g3
sS'_threePointsAttempted'
p9
S'.364'
p10
sS'_fieldGoalsPercentage'
p11
S'871'
p12
sS'_assist'
p13
g3
sS'_threePointsPercentage'
p14
S'270'
p15
sS'_threePoints'
p16
S'.364'
p17
sS'_points'
p18
g3
sS'_position'
p19
S'PG'
p20
sS'_freeThrowsPercentage'
p21
g3
sS'_effectiveFieldGoalPercentage'
p22
S'197'
p23
sS'_league'
p24
S'BAA'
p25
sS'_steals'
p26
g3
sS'_fieldGoalsAttempted'
p27
S'317'
p28
sS'_personalFouls'
p29
g3
sS'_freeThrowsAttempted'
p30
g3
sS'_totalRebounds'
p31
g3
sS'_age'
p32
S'29'
p33
sS'_team'
p34
S'ROC'
p35
sS'_games'
p36
S'60'
p37
sS'_blocks'
p38
g3
sS'_twoPoints'
p39
S'348'
p40
sS'_freeThrows'
p41
S'904'
p42
sS'_twoPointsAttempted'
p43
S'.776'
p44
sS'_defensiveRebounds'
p45
g3
sS'_season'
p46
S'1948-49'
p47
sS'_fieldGoals'
p48
S'.364'
p49
sS'_turnOvers'
p50
g3
sS'_twoPointsPercentage'
p51
S'321'
p52
sS'_minutesPlayed'
p53
S'871'
p54
sS'_gamesStarted'
p55
S'317'
p56
sba(isrc.gp1.models.Totals
Totals
p57
(dp58
g8
g3
sg9
S'.357'
p59
sg11
S'887'
p60
sg13
g3
sg14
S'261'
p61
sg16
S'.357'
p62
sg18
g3
sg19
S'PG'
p63
sg21
g3
sg22
S'187'
p64
sg24
S'NBA'
p65
sg26
g3
sg27
S'317'
p66
sg29
g3
sg30
g3
sg31
g3
sg32
S'30'
p67
sg34
S'ROC'
p68
sg36
S'64'
p69
sg38
g3
sg39
S'347'
p70
sg41
S'895'
p71
sg43
S'.752'
p72
sg45
g3
sg46
S'1949-50'
p73
sg48
S'.357'
p74
sg50
g3
sg51
S'294'
p75
sg53
S'887'
p76
sg55
S'317'
p77
sba(isrc.gp1.models.Totals
Totals
p78
(dp79
g8
g3
sg9
S'.372'
p80
sg11
S'877'
p81
sg13
g3
sg14
S'303'
p82
sg16
S'.372'
p83
sg18
g3
sg19
S'PG'
p84
sg21
g3
sg22
S'287'
p85
sg24
S'NBA'
p86
sg26
g3
sg27
S'326'
p87
sg29
g3
sg30
S'955'
p88
sg31
g3
sg32
S'31'
p89
sg34
S'ROC'
p90
sg36
S'63'
p91
sg38
g3
sg39
S'381'
p92
sg41
S'208'
p93
sg43
S'.795'
p94
sg45
g3
sg46
S'1950-51'
p95
sg48
S'.372'
p96
sg50
g3
sg51
S'197'
p97
sg53
S'877'
p98
sg55
S'326'
p99
sba(isrc.gp1.models.Totals
Totals
p100
(dp101
g8
g3
sg9
S'.383'
p102
sg11
S'379'
p103
sg13
g3
sg14
S'.383'
p104
sg16
S'990'
p105
sg18
g3
sg19
S'PG'
p106
sg21
S'1052'
p107
sg22
S'189'
p108
sg24
S'NBA'
p109
sg26
g3
sg27
S'.383'
p110
sg29
g3
sg30
S'269'
p111
sg31
g3
sg32
S'32'
p112
sg34
S'ROC'
p113
sg36
S'65'
p114
sg38
g3
sg39
S'294'
p115
sg41
S'390'
p116
sg43
S'379'
p117
sg45
g3
sg46
S'1951-52'
p118
sg48
S'990'
p119
sg50
g3
sg51
S'.776'
p120
sg53
S'379'
p121
sg55
S'2394'
p122
sba(isrc.gp1.models.Totals
Totals
p123
(dp124
g8
g3
sg9
S'.385'
p125
sg11
S'339'
p126
sg13
g3
sg14
S'.385'
p127
sg16
S'880'
p128
sg18
g3
sg19
S'PG'
p129
sg21
S'1029'
p130
sg22
S'195'
p131
sg24
S'NBA'
p132
sg26
g3
sg27
S'.385'
p133
sg29
g3
sg30
S'261'
p134
sg31
g3
sg32
S'33'
p135
sg34
S'ROC'
p136
sg36
S'66'
p137
sg38
g3
sg39
S'351'
p138
sg41
S'280'
p139
sg43
S'466'
p140
sg45
g3
sg46
S'1952-53'
p141
sg48
S'880'
p142
sg50
g3
sg51
S'.753'
p143
sg53
S'339'
p144
sg55
S'2216'
p145
sba(isrc.gp1.models.Totals
Totals
p146
(dp147
g8
g3
sg9
S'.371'
p148
sg11
S'288'
p149
sg13
g3
sg14
S'.371'
p150
sg16
S'777'
p151
sg18
g3
sg19
S'PG'
p152
sg21
S'887'
p153
sg22
S'194'
p154
sg24
S'NBA'
p155
sg26
g3
sg27
S'.371'
p156
sg29
g3
sg30
S'224'
p157
sg31
g3
sg32
S'34'
p158
sg34
S'ROC'
p159
sg36
S'72'
p160
sg38
g3
sg39
S'311'
p161
sg41
S'323'
p162
sg43
S'433'
p163
sg45
g3
sg46
S'1953-54'
p164
sg48
S'777'
p165
sg50
g3
sg51
S'.718'
p166
sg53
S'288'
p167
sg55
S'2137'
p168
sba(isrc.gp1.models.Totals
Totals
p169
(dp170
g8
g3
sg9
S'.415'
p171
sg11
S'326'
p172
sg13
g3
sg14
S'.415'
p173
sg16
S'785'
p174
sg18
g3
sg19
S'PG'
p175
sg21
S'872'
p176
sg22
S'205'
p177
sg24
S'NBA'
p178
sg26
g3
sg27
S'.415'
p179
sg29
g3
sg30
S'220'
p180
sg31
g3
sg32
S'35'
p181
sg34
S'ROC'
p182
sg36
S'72'
p183
sg38
g3
sg39
S'220'
p184
sg41
S'355'
p185
sg43
S'293'
p186
sg45
g3
sg46
S'1954-55'
p187
sg48
S'785'
p188
sg50
g3
sg51
S'.751'
p189
sg53
S'326'
p190
sg55
S'1870'
p191
sbasS'_college'
p192
S'Seton Hall University'
p193
sS'_toYear'
p194
S'1955'
p195
sS'_height'
p196
S'6-1'
p197
sS'_active'
p198
I00
sS'_shootingHand'
p199
VRight
p200
sS'_name'
p201
S'Bob Davies'
p202
sS'_per100Possessions'
p203
(lp204
sS'_advanced'
p205
(lp206
(isrc.gp1.models.Advanced
Advanced
p207
(dp208
S'_offensiveReboundPercentage'
p209
g3
sS'_turnOverPercentage'
p210
g3
sS'_winSharesPer48Minutes'
p211
g3
sS'_stealPercentage'
p212
g3
sS'_usagePercentage'
p213
g3
sS'_totalReboundsPercentage'
p214
g3
sS'_defensiveBoxPlusMinus'
p215
g3
sg19
S'PG'
p216
sS'_valueOverReplacementPlayer'
p217
g3
sS'_trueShootingPercentage'
p218
S'7.1'
p219
sS'_defensiveReboundPercentage'
p220
g3
sS'_freeThrowsAttempRate'
p221
S'8.6'
p222
sS'_threePointsAttempRate'
p223
S'1.5'
p224
sg24
S'BAA'
p225
sS'_offensiveBoxPlusMinues'
p226
g3
sS'_assistPercentage'
p227
g3
sS'_defensiveWinShares'
p228
g3
sg32
S'29'
p229
sg34
S'ROC'
p230
sg36
S'60'
p231
sS'_blockPercentage'
p232
g3
sS'_playerEfficiencyRating'
p233
S'.400'
p234
sS'_offensiveWinShares'
p235
g3
sg53
S'.441'
p236
sS'_boxPlusMinus'
p237
g3
sg46
S'1948-49'
p238
sS'_winShares'
p239
g3
sba(isrc.gp1.models.Advanced
Advanced
p240
(dp241
g209
g3
sg210
g3
sg211
g3
sg212
g3
sg213
g3
sg214
g3
sg215
g3
sg19
S'PG'
p242
sg217
g3
sg218
S'4.7'
p243
sg220
g3
sg221
S'7.7'
p244
sg223
S'2.9'
p245
sg24
S'NBA'
p246
sg226
g3
sg227
g3
sg228
g3
sg32
S'30'
p247
sg34
S'ROC'
p248
sg36
S'64'
p249
sg232
g3
sg233
S'.391'
p250
sg235
g3
sg53
S'.430'
p251
sg237
g3
sg46
S'1949-50'
p252
sg239
g3
sba(isrc.gp1.models.Advanced
Advanced
p253
(dp254
g209
g3
sg210
g3
sg211
g3
sg212
g3
sg213
g3
sg214
g3
sg215
g3
sg19
S'PG'
p255
sg217
g3
sg218
S'5.3'
p256
sg220
g3
sg221
S'6.9'
p257
sg223
S'1.6'
p258
sg24
S'NBA'
p259
sg226
g3
sg227
g3
sg228
g3
sg32
S'31'
p260
sg34
S'ROC'
p261
sg36
S'63'
p262
sg232
g3
sg233
S'.434'
p263
sg235
g3
sg53
S'.457'
p264
sg237
g3
sg46
S'1950-51'
p265
sg239
g3
sba(isrc.gp1.models.Advanced
Advanced
p266
(dp267
g209
S'1.6'
p268
sg210
g3
sg211
g3
sg212
g3
sg213
g3
sg214
S'.126'
p269
sg215
g3
sg19
S'PG'
p270
sg217
g3
sg218
S'.455'
p271
sg220
S'6.3'
p272
sg221
S'4.7'
p273
sg223
S'.383'
p274
sg24
S'NBA'
p275
sg226
g3
sg227
g3
sg228
g3
sg32
S'32'
p276
sg34
S'ROC'
p277
sg36
S'65'
p278
sg232
g3
sg233
S'17.4'
p279
sg235
g3
sg53
S'2394'
p280
sg237
g3
sg46
S'1951-52'
p281
sg239
g3
sba(isrc.gp1.models.Advanced
Advanced
p282
(dp283
g209
S'2.2'
p284
sg210
g3
sg211
g3
sg212
g3
sg213
g3
sg214
S'.161'
p285
sg215
g3
sg19
S'PG'
p286
sg217
g3
sg218
S'.474'
p287
sg220
S'7.4'
p288
sg221
S'5.2'
p289
sg223
S'.530'
p290
sg24
S'NBA'
p291
sg226
g3
sg227
g3
sg228
g3
sg32
S'33'
p292
sg34
S'ROC'
p293
sg36
S'66'
p294
sg232
g3
sg233
S'18.1'
p295
sg235
g3
sg53
S'2216'
p296
sg237
g3
sg46
S'1952-53'
p297
sg239
g3
sba(isrc.gp1.models.Advanced
Advanced
p298
(dp299
g209
S'3.3'
p300
sg210
g3
sg211
g3
sg212
g3
sg213
g3
sg214
S'.172'
p301
sg215
g3
sg19
S'PG'
p302
sg217
g3
sg218
S'.458'
p303
sg220
S'7.7'
p304
sg221
S'4.4'
p305
sg223
S'.557'
p306
sg24
S'NBA'
p307
sg226
g3
sg227
g3
sg228
g3
sg32
S'34'
p308
sg34
S'ROC'
p309
sg36
S'72'
p310
sg232
g3
sg233
S'18.0'
p311
sg235
g3
sg53
S'2137'
p312
sg237
g3
sg46
S'1953-54'
p313
sg239
g3
sba(isrc.gp1.models.Advanced
Advanced
p314
(dp315
g209
S'1.2'
p316
sg210
g3
sg211
g3
sg212
g3
sg213
g3
sg214
S'.132'
p317
sg215
g3
sg19
S'PG'
p318
sg217
g3
sg218
S'.477'
p319
sg220
S'5.2'
p320
sg221
S'4.0'
p321
sg223
S'.373'
p322
sg24
S'NBA'
p323
sg226
g3
sg227
g3
sg228
g3
sg32
S'35'
p324
sg34
S'ROC'
p325
sg36
S'72'
p326
sg232
g3
sg233
S'18.5'
p327
sg235
g3
sg53
S'1870'
p328
sg237
g3
sg46
S'1954-55'
p329
sg239
g3
sbasS'_per36Minutes'
p330
(lp331
(isrc.gp1.models.Per36Minutes
Per36Minutes
p332
(dp333
g8
g3
sg9
g3
sg11
g3
sg13
g3
sg14
g3
sg16
g3
sg18
g3
sg19
S'PG'
p334
sg21
g3
sg24
S'BAA'
p335
sg26
g3
sg27
g3
sg29
g3
sg30
g3
sg31
g3
sg32
S'29'
p336
sg34
S'ROC'
p337
sg36
S'60'
p338
sg38
g3
sg39
g3
sg41
g3
sg43
g3
sg45
g3
sg46
S'1948-49'
p339
sg48
S'.776'
p340
sg50
g3
sg51
g3
sg53
S'.364'
p341
sg55
S'.364'
p342
sba(isrc.gp1.models.Per36Minutes
Per36Minutes
p343
(dp344
g8
g3
sg9
g3
sg11
g3
sg13
g3
sg14
g3
sg16
g3
sg18
g3
sg19
S'PG'
p345
sg21
g3
sg24
S'NBA'
p346
sg26
g3
sg27
g3
sg29
g3
sg30
g3
sg31
g3
sg32
S'30'
p347
sg34
S'ROC'
p348
sg36
S'64'
p349
sg38
g3
sg39
g3
sg41
g3
sg43
g3
sg45
g3
sg46
S'1949-50'
p350
sg48
S'.752'
p351
sg50
g3
sg51
g3
sg53
S'.357'
p352
sg55
S'.357'
p353
sba(isrc.gp1.models.Per36Minutes
Per36Minutes
p354
(dp355
g8
g3
sg9
g3
sg11
g3
sg13
g3
sg14
g3
sg16
g3
sg18
g3
sg19
S'PG'
p356
sg21
g3
sg24
S'NBA'
p357
sg26
g3
sg27
g3
sg29
g3
sg30
g3
sg31
g3
sg32
S'31'
p358
sg34
S'ROC'
p359
sg36
S'63'
p360
sg38
g3
sg39
g3
sg41
g3
sg43
g3
sg45
g3
sg46
S'1950-51'
p361
sg48
S'.795'
p362
sg50
g3
sg51
g3
sg53
S'.372'
p363
sg55
S'.372'
p364
sba(isrc.gp1.models.Per36Minutes
Per36Minutes
p365
(dp366
g8
g3
sg9
S'.383'
p367
sg11
S'5.7'
p368
sg13
g3
sg14
S'4.4'
p369
sg16
S'14.9'
p370
sg18
g3
sg19
S'PG'
p371
sg21
S'15.8'
p372
sg24
S'NBA'
p373
sg26
g3
sg27
S'.383'
p374
sg29
g3
sg30
S'4.0'
p375
sg31
g3
sg32
S'32'
p376
sg34
S'ROC'
p377
sg36
S'65'
p378
sg38
g3
sg39
S'5.7'
p379
sg41
S'5.9'
p380
sg43
S'.776'
p381
sg45
g3
sg46
S'1951-52'
p382
sg48
S'14.9'
p383
sg50
g3
sg51
S'2.8'
p384
sg53
S'5.7'
p385
sg55
S'2394'
p386
sba(isrc.gp1.models.Per36Minutes
Per36Minutes
p387
(dp388
g8
g3
sg9
S'.385'
p389
sg11
S'5.5'
p390
sg13
g3
sg14
S'5.7'
p391
sg16
S'14.3'
p392
sg18
g3
sg19
S'PG'
p393
sg21
S'16.7'
p394
sg24
S'NBA'
p395
sg26
g3
sg27
S'.385'
p396
sg29
g3
sg30
S'4.2'
p397
sg31
g3
sg32
S'33'
p398
sg34
S'ROC'
p399
sg36
S'66'
p400
sg38
g3
sg39
S'7.6'
p401
sg41
S'4.5'
p402
sg43
S'.753'
p403
sg45
g3
sg46
S'1952-53'
p404
sg48
S'14.3'
p405
sg50
g3
sg51
S'3.2'
p406
sg53
S'5.5'
p407
sg55
S'2216'
p408
sba(isrc.gp1.models.Per36Minutes
Per36Minutes
p409
(dp410
g8
g3
sg9
S'.371'
p411
sg11
S'4.9'
p412
sg13
g3
sg14
S'5.2'
p413
sg16
S'13.1'
p414
sg18
g3
sg19
S'PG'
p415
sg21
S'14.9'
p416
sg24
S'NBA'
p417
sg26
g3
sg27
S'.371'
p418
sg29
g3
sg30
S'3.8'
p419
sg31
g3
sg32
S'34'
p420
sg34
S'ROC'
p421
sg36
S'72'
p422
sg38
g3
sg39
S'7.3'
p423
sg41
S'5.4'
p424
sg43
S'.718'
p425
sg45
g3
sg46
S'1953-54'
p426
sg48
S'13.1'
p427
sg50
g3
sg51
S'3.3'
p428
sg53
S'4.9'
p429
sg55
S'2137'
p430
sba(isrc.gp1.models.Per36Minutes
Per36Minutes
p431
(dp432
g8
g3
sg9
S'.415'
p433
sg11
S'6.3'
p434
sg13
g3
sg14
S'4.2'
p435
sg16
S'15.1'
p436
sg18
g3
sg19
S'PG'
p437
sg21
S'16.8'
p438
sg24
S'NBA'
p439
sg26
g3
sg27
S'.415'
p440
sg29
g3
sg30
S'4.2'
p441
sg31
g3
sg32
S'35'
p442
sg34
S'ROC'
p443
sg36
S'72'
p444
sg38
g3
sg39
S'5.6'
p445
sg41
S'6.8'
p446
sg43
S'.751'
p447
sg45
g3
sg46
S'1954-55'
p448
sg48
S'15.1'
p449
sg50
g3
sg51
S'3.9'
p450
sg53
S'6.3'
p451
sg55
S'1870'
p452
sbasS'_fromYear'
p453
S'1949'
p454
sS'_url'
p455
S'http://www.basketball-reference.com/players/d/daviebo01.html'
p456
sS'_perGame'
p457
(isrc.gp1.models.PerGame
PerGame
p458
(dp459
g8
g3
sg9
S'.415'
p460
sg11
S'4.5'
p461
sS'_effectiveFieldGalPercentage'
p462
S'2.8'
p463
sg13
g3
sg14
S'.415'
p464
sg16
S'10.9'
p465
sg18
g3
sg19
S'PG'
p466
sg21
S'12.1'
p467
sg24
S'NBA'
p468
sg26
g3
sg29
g3
sS'_fieldGoalsttempted'
p469
S'.415'
p470
sg30
S'3.1'
p471
sg31
g3
sg32
S'35'
p472
sg34
S'ROC'
p473
sg36
S'72'
p474
sg38
g3
sg39
S'3.1'
p475
sg41
S'4.9'
p476
sg43
S'4.1'
p477
sg45
g3
sg46
S'1954-55'
p478
sg48
S'10.9'
p479
sg50
g3
sg51
S'.751'
p480
sg53
S'4.5'
p481
sg55
S'26.0'
p482
sbsS'_weight'
p483
S'175'
p484
sS'_dob'
p485
S'15-1-1920'
p486
sS'_salary'
p487
(lp488
sg19
S'G-F'
p489
sb.