(isrc.gp1.models.Player
Player
p0
(dp1
S'_experience'
p2
S'NA'
p3
sS'_totals'
p4
(lp5
(isrc.gp1.models.Totals
Totals
p6
(dp7
S'_offensiveRebounds'
p8
S'819'
p9
sS'_threePointsAttempted'
p10
S'468'
p11
sS'_fieldGoalsPercentage'
p12
S'1'
p13
sS'_assist'
p14
S'162'
p15
sS'_threePointsPercentage'
p16
S'927'
p17
sS'_threePoints'
p18
S'.000'
p19
sS'_points'
p20
g3
sS'_position'
p21
S'71'
p22
sS'_freeThrowsPercentage'
p23
S'506'
p24
sS'_effectiveFieldGoalPercentage'
p25
S'369'
p26
sS'_league'
p27
S'PF'
p28
sS'_steals'
p29
S'1156'
p30
sS'_fieldGoalsAttempted'
p31
S'0'
p32
sS'_personalFouls'
p33
g3
sS'_freeThrowsAttempted'
p34
S'313'
p35
sS'_totalRebounds'
p36
S'143'
p37
sS'_age'
p38
S'INA'
p39
sS'_team'
p40
S'ABA'
p41
sS'_games'
p42
S'2385'
p43
sS'_blocks'
p44
g3
sS'_twoPoints'
p45
S'.505'
p46
sS'_freeThrows'
p47
S'.596'
p48
sS'_twoPointsAttempted'
p49
S'.504'
p50
sS'_defensiveRebounds'
p51
S'69'
p52
sS'_season'
p53
S'25'
p54
sS'_fieldGoals'
p55
S'.504'
p56
sS'_turnOvers'
p57
g3
sS'_twoPointsPercentage'
p58
S'220'
p59
sS'_minutesPlayed'
p60
S'928'
p61
sS'_gamesStarted'
p62
S'468'
p63
sba(isrc.gp1.models.Totals
Totals
p64
(dp65
g8
S'798'
p66
sg10
S'583'
p67
sg12
S'5'
p68
sg14
S'231'
p69
sg16
S'1140'
p70
sg18
S'.000'
p71
sg20
g3
sg21
S'78'
p72
sg23
S'485'
p73
sg25
S'491'
p74
sg27
S'PF'
p75
sg29
S'1472'
p76
sg31
g32
sg33
g3
sg34
S'313'
p77
sg36
S'178'
p78
sg38
S'INA'
p79
sg40
S'ABA'
p80
sg42
S'2721'
p81
sg44
g3
sg45
S'.511'
p82
sg47
S'.623'
p83
sg49
S'.509'
p84
sg51
S'87'
p85
sg53
S'26'
p86
sg55
S'.509'
p87
sg57
g3
sg58
S'306'
p88
sg60
S'1145'
p89
sg62
S'583'
p90
sba(isrc.gp1.models.Totals
Totals
p91
(dp92
g8
S'539'
p93
sg10
S'.286'
p94
sg12
S'2'
p95
sg14
S'185'
p96
sg16
S'671'
p97
sg18
S'7'
p98
sg20
g3
sg21
S'PF'
p99
sg23
S'337'
p100
sg25
S'343'
p101
sg27
S'ABA'
p102
sg29
S'206'
p103
sg31
S'.483'
p104
sg33
g3
sg34
S'.683'
p105
sg36
S'123'
p106
sg38
S'27'
p107
sg40
S'INA'
p108
sg42
S'82'
p109
sg44
S'1691'
p110
sg45
S'1386'
p111
sg47
S'502'
p112
sg49
S'.484'
p113
sg51
S'876'
p114
sg53
S'1969-70'
p115
sg55
S'1393'
p116
sg57
g3
sg58
S'.484'
p117
sg60
S'673'
p118
sg62
S'3222'
p119
sba(isrc.gp1.models.Totals
Totals
p120
(dp121
g8
S'507'
p122
sg10
S'.250'
p123
sg12
g95
sg14
S'138'
p124
sg16
S'649'
p125
sg18
S'8'
p126
sg20
g3
sg21
S'PF'
p127
sg23
S'267'
p128
sg25
S'237'
p129
sg27
S'ABA'
p130
sg29
S'192'
p131
sg31
S'.499'
p132
sg33
g3
sg34
S'.712'
p133
sg36
S'104'
p134
sg38
S'28'
p135
sg40
S'INA'
p136
sg42
S'82'
p137
sg44
S'1541'
p138
sg45
S'1297'
p139
sg47
S'333'
p140
sg49
S'.500'
p141
sg51
S'774'
p142
sg53
S'1970-71'
p143
sg55
S'1305'
p144
sg57
g3
sg58
S'.500'
p145
sg60
S'651'
p146
sg62
S'3137'
p147
sba(isrc.gp1.models.Totals
Totals
p148
(dp149
g8
S'500'
p150
sg10
S'.211'
p151
sg12
S'4'
p152
sg14
S'166'
p153
sg16
S'518'
p154
sg18
S'19'
p155
sg20
g3
sg21
S'PF'
p156
sg23
S'264'
p157
sg25
S'202'
p158
sg27
S'ABA'
p159
sg29
S'185'
p160
sg31
S'.479'
p161
sg33
g3
sg34
S'.724'
p162
sg36
S'83'
p163
sg38
S'29'
p164
sg40
S'INA'
p165
sg42
S'83'
p166
sg44
S'1250'
p167
sg45
S'1071'
p168
sg47
S'279'
p169
sg49
S'.484'
p170
sg51
S'764'
p171
sg53
S'1971-72'
p172
sg55
S'1090'
p173
sg57
g3
sg58
S'.481'
p174
sg60
S'522'
p175
sg62
S'2905'
p176
sba(isrc.gp1.models.Totals
Totals
p177
(dp178
g8
S'513'
p179
sg10
S'.000'
p180
sg12
g32
sg14
S'214'
p181
sg16
S'650'
p182
sg18
g152
sg20
g3
sg21
S'C'
p183
sg23
S'338'
p184
sg25
S'269'
p185
sg27
S'ABA'
p186
sg29
S'166'
p187
sg31
S'.483'
p188
sg33
g3
sg34
S'.666'
p189
sg36
S'239'
p190
sg38
S'30'
p191
sg40
S'DLC'
p192
sg42
S'84'
p193
sg44
S'1569'
p194
sg45
S'1343'
p195
sg47
S'404'
p196
sg49
S'.484'
p197
sg51
S'851'
p198
sg53
S'1972-73'
p199
sg55
S'1347'
p200
sg57
g3
sg58
S'.483'
p201
sg60
S'650'
p202
sg62
S'3409'
p203
sba(isrc.gp1.models.Totals
Totals
p204
(dp205
g8
S'220'
p206
sg10
S'.333'
p207
sg12
g95
sg14
S'28'
p208
sg16
S'312'
p209
sg18
S'6'
p210
sg20
g3
sg21
S'C-PF'
p211
sg23
S'173'
p212
sg25
S'106'
p213
sg27
S'ABA'
p214
sg29
S'33'
p215
sg31
S'.488'
p216
sg33
S'736'
p217
sg34
S'.642'
p218
sg36
S'94'
p219
sg38
S'31'
p220
sg40
S'TOT'
p221
sg42
S'75'
p222
sg44
S'98'
p223
sg45
S'638'
p224
sg47
S'165'
p225
sg49
S'.489'
p226
sg51
S'393'
p227
sg53
S'1973-74'
p228
sg55
S'644'
p229
sg57
S'113'
p230
sg58
S'.489'
p231
sg60
S'314'
p232
sg62
S'1645'
p233
sba(isrc.gp1.models.Totals
Totals
p234
(dp235
g8
S'101'
p236
sg10
S'100'
p237
sg12
g32
sg14
S'11'
p238
sg16
S'195'
p239
sg18
g32
sg20
g3
sg21
S'PF'
p240
sg23
S'58'
p241
sg25
S'46'
p242
sg27
S'ABA'
p243
sg29
S'34'
p244
sg31
S'.513'
p245
sg33
g3
sg34
S'43'
p246
sg36
g98
sg38
S'31'
p247
sg40
S'SAA'
p248
sg42
S'19'
p249
sg44
S'21'
p250
sg45
S'.513'
p251
sg47
S'.630'
p252
sg49
S'.513'
p253
sg51
S'44'
p254
sg53
S'1973-74'
p255
sg55
S'195'
p256
sg57
S'229'
p257
sg58
S'29'
p258
sg60
S'100'
p259
sg62
S'488'
p260
sba(isrc.gp1.models.Totals
Totals
p261
(dp262
g8
S'162'
p263
sg10
S'.333'
p264
sg12
g95
sg14
S'21'
p265
sg16
S'212'
p266
sg18
g210
sg20
g3
sg21
g183
sg23
S'130'
p267
sg25
S'77'
p268
sg27
S'ABA'
p269
sg29
S'22'
p270
sg31
S'.477'
p271
sg33
S'507'
p272
sg34
S'.647'
p273
sg36
S'50'
p274
sg38
S'31'
p275
sg40
S'INA'
p276
sg42
S'56'
p277
sg44
S'64'
p278
sg45
S'443'
p279
sg47
S'119'
p280
sg49
S'.479'
p281
sg51
S'292'
p282
sg53
S'1973-74'
p283
sg55
S'449'
p284
sg57
S'92'
p285
sg58
S'.479'
p286
sg60
S'214'
p287
sg62
S'1157'
p288
sba(isrc.gp1.models.Totals
Totals
p289
(dp290
g8
S'133'
p291
sg10
S'.167'
p292
sg12
g95
sg14
S'9'
p293
sg16
S'187'
p294
sg18
S'12'
p295
sg20
g3
sg21
S'PF'
p296
sg23
S'98'
p297
sg25
S'62'
p298
sg27
S'ABA'
p299
sg29
S'18'
p300
sg31
S'.504'
p301
sg33
S'442'
p302
sg34
S'.633'
p303
sg36
S'49'
p304
sg38
S'32'
p305
sg40
S'INA'
p306
sg42
S'59'
p307
sg44
S'55'
p308
sg45
S'363'
p309
sg47
S'98'
p310
sg49
S'.515'
p311
sg51
S'231'
p312
sg53
S'1974-75'
p313
sg55
S'375'
p314
sg57
S'108'
p315
sg58
S'.507'
p316
sg60
S'189'
p317
sg62
S'1077'
p318
sba(isrc.gp1.models.Totals
Totals
p319
(dp320
g8
S'12'
p321
sg10
g126
sg12
g32
sg14
g13
sg16
S'21'
p322
sg18
g32
sg20
g3
sg21
S'PF'
p323
sg23
g68
sg25
S'3'
p324
sg27
S'ABA'
p325
sg29
g68
sg31
S'.381'
p326
sg33
g3
sg34
g98
sg36
g32
sg38
S'33'
p327
sg40
S'INA'
p328
sg42
g152
sg44
g95
sg45
S'.381'
p329
sg47
S'1.000'
p330
sg49
S'.381'
p331
sg51
g32
sg53
S'1975-76'
p332
sg55
S'21'
p333
sg57
S'19'
p334
sg58
g324
sg60
g126
sg62
S'53'
p335
sbasS'_college'
p336
S'Drake University'
p337
sS'_toYear'
p338
S'1976'
p339
sS'_height'
p340
S'6-9'
p341
sS'_active'
p342
I00
sS'_shootingHand'
p343
VRight
p344
sS'_name'
p345
S'Bob Netolicky'
p346
sS'_per100Possessions'
p347
(lp348
(isrc.gp1.models.Per100Possession
Per100Possession
p349
(dp350
g8
S'6.4'
p351
sg10
S'.333'
p352
sg12
S'0.1'
p353
sS'_offensiveRating'
p354
S'103'
p355
sg14
S'0.8'
p356
sg16
S'9.0'
p357
sg18
S'0.2'
p358
sg20
S'106'
p359
sg21
S'C-PF'
p360
sS'_defensiveRating'
p361
g3
sg23
S'5.0'
p362
sg27
S'ABA'
p363
sg29
S'1.0'
p364
sg31
S'.488'
p365
sg33
S'21.3'
p366
sg34
S'.642'
p367
sg36
S'2.7'
p368
sg38
S'31'
p369
sg40
S'TOT'
p370
sg42
S'75'
p371
sg44
S'2.8'
p372
sg45
S'18.5'
p373
sg47
S'4.8'
p374
sg49
S'.489'
p375
sg51
S'11.4'
p376
sg53
S'1973-74'
p377
sg55
S'18.7'
p378
sg57
S'3.3'
p379
sg58
S'3.1'
p380
sg60
S'9.1'
p381
sg62
S'1645'
p382
sba(isrc.gp1.models.Per100Possession
Per100Possession
p383
(dp384
g8
S'10.5'
p385
sg10
S'10.4'
p386
sg12
S'0.0'
p387
sg354
g3
sg14
S'1.1'
p388
sg16
S'20.2'
p389
sg18
S'0.0'
p390
sg20
S'102'
p391
sg21
S'PF'
p392
sg361
g3
sg23
S'6.0'
p393
sg27
S'ABA'
p394
sg29
S'3.5'
p395
sg31
S'.513'
p396
sg33
S'106'
p397
sg34
S'4.5'
p398
sg36
S'0.7'
p399
sg38
S'31'
p400
sg40
S'SAA'
p401
sg42
S'19'
p402
sg44
S'2.2'
p403
sg45
S'.513'
p404
sg47
S'.630'
p405
sg49
S'3.0'
p406
sg51
S'4.6'
p407
sg53
S'1973-74'
p408
sg55
S'20.2'
p409
sg57
S'23.7'
p410
sg58
S'4.8'
p411
sg60
S'10.4'
p412
sg62
S'488'
p413
sba(isrc.gp1.models.Per100Possession
Per100Possession
p414
(dp415
g8
S'6.5'
p416
sg10
S'.333'
p417
sg12
S'0.1'
p418
sg354
S'103'
p419
sg14
S'0.8'
p420
sg16
S'8.5'
p421
sg18
S'0.2'
p422
sg20
S'106'
p423
sg21
g183
sg361
g3
sg23
S'5.2'
p424
sg27
S'ABA'
p425
sg29
S'0.9'
p426
sg31
S'.477'
p427
sg33
S'20.4'
p428
sg34
S'.647'
p429
sg36
S'2.0'
p430
sg38
S'31'
p431
sg40
S'INA'
p432
sg42
S'56'
p433
sg44
S'2.6'
p434
sg45
S'17.8'
p435
sg47
S'4.8'
p436
sg49
S'.479'
p437
sg51
S'11.8'
p438
sg53
S'1973-74'
p439
sg55
S'18.1'
p440
sg57
S'3.7'
p441
sg58
S'3.1'
p442
sg60
S'8.6'
p443
sg62
S'1157'
p444
sba(isrc.gp1.models.Per100Possession
Per100Possession
p445
(dp446
g8
S'5.6'
p447
sg10
S'.167'
p448
sg12
S'0.1'
p449
sg354
S'109'
p450
sg14
S'0.4'
p451
sg16
S'7.9'
p452
sg18
S'0.5'
p453
sg20
S'111'
p454
sg21
S'PF'
p455
sg361
g3
sg23
S'4.2'
p456
sg27
S'ABA'
p457
sg29
S'0.8'
p458
sg31
S'.504'
p459
sg33
S'18.7'
p460
sg34
S'.633'
p461
sg36
S'2.1'
p462
sg38
S'32'
p463
sg40
S'INA'
p464
sg42
S'59'
p465
sg44
S'2.3'
p466
sg45
S'15.4'
p467
sg47
S'4.2'
p468
sg49
S'.515'
p469
sg51
S'9.8'
p470
sg53
S'1974-75'
p471
sg55
S'15.9'
p472
sg57
S'4.6'
p473
sg58
S'2.6'
p474
sg60
S'8.0'
p475
sg62
S'1077'
p476
sba(isrc.gp1.models.Per100Possession
Per100Possession
p477
(dp478
g8
S'10.1'
p479
sg10
S'6.7'
p480
sg12
S'0.0'
p481
sg354
g3
sg14
S'0.8'
p482
sg16
S'17.7'
p483
sg18
S'0.0'
p484
sg20
S'110'
p485
sg21
S'PF'
p486
sg361
g3
sg23
S'4.2'
p487
sg27
S'ABA'
p488
sg29
S'4.2'
p489
sg31
S'.381'
p490
sg33
S'85'
p491
sg34
S'5.9'
p492
sg36
S'0.0'
p493
sg38
S'33'
p494
sg40
S'INA'
p495
sg42
g152
sg44
S'1.7'
p496
sg45
S'.381'
p497
sg47
S'1.000'
p498
sg49
S'2.5'
p499
sg51
S'0.0'
p500
sg53
S'1975-76'
p501
sg55
S'17.7'
p502
sg57
S'16.0'
p503
sg58
S'2.5'
p504
sg60
S'6.7'
p505
sg62
S'53'
p506
sbasS'_advanced'
p507
(lp508
(isrc.gp1.models.Advanced
Advanced
p509
(dp510
S'_offensiveReboundPercentage'
p511
S'4.5'
p512
sS'_turnOverPercentage'
p513
S'.149'
p514
sS'_winSharesPer48Minutes'
p515
g3
sS'_stealPercentage'
p516
S'2.2'
p517
sS'_usagePercentage'
p518
g3
sS'_totalReboundsPercentage'
p519
S'19.3'
p520
sS'_defensiveBoxPlusMinus'
p521
g3
sg21
S'71'
p522
sS'_valueOverReplacementPlayer'
p523
g3
sS'_trueShootingPercentage'
p524
S'.001'
p525
sS'_defensiveReboundPercentage'
p526
S'11.6'
p527
sS'_freeThrowsAttempRate'
p528
S'15.4'
p529
sS'_threePointsAttempRate'
p530
S'.398'
p531
sg27
S'PF'
p532
sS'_offensiveBoxPlusMinues'
p533
g3
sS'_assistPercentage'
p534
S'5.2'
p535
sS'_defensiveWinShares'
p536
g3
sg38
S'INA'
p537
sg40
S'ABA'
p538
sg42
S'2385'
p539
sS'_blockPercentage'
p540
S'7.4'
p541
sS'_playerEfficiencyRating'
p542
S'.530'
p543
sS'_offensiveWinShares'
p544
g3
sg60
S'21.4'
p545
sS'_boxPlusMinus'
p546
g3
sg53
S'25'
p547
sS'_winShares'
p548
g3
sba(isrc.gp1.models.Advanced
Advanced
p549
(dp550
g511
S'4.5'
p551
sg513
S'.147'
p552
sg515
g3
sg516
S'3.1'
p553
sg518
g3
sg519
S'20.1'
p554
sg521
g3
sg21
S'78'
p555
sg523
g3
sg524
S'.004'
p556
sg526
S'11.6'
p557
sg528
S'12.7'
p558
sg530
S'.429'
p559
sg27
S'PF'
p560
sg533
g3
sg534
S'5.3'
p561
sg536
g3
sg38
S'INA'
p562
sg40
S'ABA'
p563
sg42
S'2721'
p564
sg540
S'8.3'
p565
sg542
S'.541'
p566
sg544
g3
sg60
S'19.1'
p567
sg546
g3
sg53
S'26'
p568
sg548
g3
sba(isrc.gp1.models.Advanced
Advanced
p569
(dp570
g511
S'12.2'
p571
sg513
S'8.2'
p572
sg515
g3
sg516
S'4.9'
p573
sg518
S'.122'
p574
sg519
S'10.3'
p575
sg521
g3
sg21
S'PF'
p576
sg523
g3
sg524
S'.524'
p577
sg526
S'5.6'
p578
sg528
S'.360'
p579
sg530
S'.005'
p580
sg27
S'ABA'
p581
sg533
g3
sg534
S'21.3'
p582
sg536
g3
sg38
S'27'
p583
sg40
S'INA'
p584
sg42
S'82'
p585
sg540
S'3.3'
p586
sg542
S'19.1'
p587
sg544
g3
sg60
S'3222'
p588
sg546
g3
sg53
S'1969-70'
p589
sg548
g3
sba(isrc.gp1.models.Advanced
Advanced
p590
(dp591
g511
S'11.1'
p592
sg513
S'7.5'
p593
sg515
g3
sg516
S'4.2'
p594
sg518
S'.114'
p595
sg519
S'8.7'
p596
sg521
g3
sg21
S'PF'
p597
sg523
g3
sg524
S'.531'
p598
sg526
S'4.6'
p599
sg528
S'.255'
p600
sg530
S'.006'
p601
sg27
S'ABA'
p602
sg533
g3
sg534
S'19.0'
p603
sg536
g3
sg38
S'28'
p604
sg40
S'INA'
p605
sg42
S'82'
p606
sg540
S'3.3'
p607
sg542
S'16.7'
p608
sg544
g3
sg60
S'3137'
p609
sg546
g3
sg53
S'1970-71'
p610
sg548
g3
sba(isrc.gp1.models.Advanced
Advanced
p611
(dp612
g511
S'8.6'
p613
sg513
S'2.5'
p614
sg515
g3
sg516
S'12.0'
p615
sg518
S'3.1'
p616
sg519
S'12.0'
p617
sg521
g3
sg21
S'PF'
p618
sg523
g3
sg524
S'.515'
p619
sg526
S'15.2'
p620
sg528
S'.256'
p621
sg530
S'.017'
p622
sg27
S'ABA'
p623
sg533
g3
sg534
S'4.1'
p624
sg536
S'.093'
p625
sg38
S'29'
p626
sg40
S'INA'
p627
sg42
S'83'
p628
sg540
S'18.3'
p629
sg542
S'15.1'
p630
sg544
S'5.6'
p631
sg60
S'2905'
p632
sg546
g3
sg53
S'1971-72'
p633
sg548
g3
sba(isrc.gp1.models.Advanced
Advanced
p634
(dp635
g511
S'9.7'
p636
sg513
S'2.5'
p637
sg515
g3
sg516
S'12.3'
p638
sg518
S'2.4'
p639
sg519
S'12.6'
p640
sg521
g3
sg21
g183
sg523
g3
sg524
S'.515'
p641
sg526
S'15.8'
p642
sg528
S'.300'
p643
sg530
S'.003'
p644
sg27
S'ABA'
p645
sg533
g3
sg534
S'10.5'
p646
sg536
S'.069'
p647
sg38
S'30'
p648
sg40
S'DLC'
p649
sg42
S'84'
p650
sg540
S'19.9'
p651
sg542
S'16.4'
p652
sg544
S'4.9'
p653
sg60
S'3409'
p654
sg546
g3
sg53
S'1972-73'
p655
sg548
g3
sba(isrc.gp1.models.Advanced
Advanced
p656
(dp657
g511
S'10.4'
p658
sg513
S'12.0'
p659
sg515
S'.120'
p660
sg516
S'0.8'
p661
sg518
S'19.9'
p662
sg519
S'11.7'
p663
sg521
S'-0.6'
p664
sg21
S'C-PF'
p665
sg523
S'0.6'
p666
sg524
S'.514'
p667
sg526
S'13.1'
p668
sg528
S'.256'
p669
sg530
S'.009'
p670
sg27
S'ABA'
p671
sg533
S'0.0'
p672
sg534
S'8.8'
p673
sg536
S'1.8'
p674
sg38
S'31'
p675
sg40
S'TOT'
p676
sg42
S'75'
p677
sg540
S'1.1'
p678
sg542
S'16.1'
p679
sg544
S'2.3'
p680
sg60
S'1645'
p681
sg546
S'-0.6'
p682
sg53
S'1973-74'
p683
sg548
S'4.1'
p684
sba(isrc.gp1.models.Advanced
Advanced
p685
(dp686
g511
S'9.5'
p687
sg513
S'13.6'
p688
sg515
S'.129'
p689
sg516
S'0.7'
p690
sg518
S'21.9'
p691
sg519
S'11.2'
p692
sg521
S'0.2'
p693
sg21
S'PF'
p694
sg523
S'0.4'
p695
sg524
S'.532'
p696
sg526
S'13.1'
p697
sg528
S'.236'
p698
sg530
S'.000'
p699
sg27
S'ABA'
p700
sg533
S'1.1'
p701
sg534
S'14.6'
p702
sg536
S'0.5'
p703
sg38
S'31'
p704
sg40
S'SAA'
p705
sg42
S'19'
p706
sg540
S'1.4'
p707
sg542
S'18.1'
p708
sg544
S'0.8'
p709
sg60
S'488'
p710
sg546
S'1.3'
p711
sg53
S'1973-74'
p712
sg548
S'1.3'
p713
sba(isrc.gp1.models.Advanced
Advanced
p714
(dp715
g511
S'10.7'
p716
sg513
S'11.3'
p717
sg515
S'.116'
p718
sg516
S'0.8'
p719
sg518
S'19.1'
p720
sg519
S'11.9'
p721
sg521
S'-0.9'
p722
sg21
g183
sg523
S'0.2'
p723
sg524
S'.506'
p724
sg526
S'13.1'
p725
sg528
S'.265'
p726
sg530
S'.013'
p727
sg27
S'ABA'
p728
sg533
S'-0.5'
p729
sg534
S'6.3'
p730
sg536
S'1.2'
p731
sg38
S'31'
p732
sg40
S'INA'
p733
sg42
S'56'
p734
sg540
S'1.0'
p735
sg542
S'15.2'
p736
sg544
S'1.6'
p737
sg60
S'1157'
p738
sg546
S'-1.4'
p739
sg53
S'1973-74'
p740
sg548
S'2.8'
p741
sba(isrc.gp1.models.Advanced
Advanced
p742
(dp743
g511
S'8.3'
p744
sg513
S'11.6'
p745
sg515
S'.093'
p746
sg516
S'0.4'
p747
sg518
S'16.5'
p748
sg519
S'10.3'
p749
sg521
S'-2.2'
p750
sg21
S'PF'
p751
sg523
S'-0.3'
p752
sg524
S'.529'
p753
sg526
S'12.5'
p754
sg528
S'.261'
p755
sg530
S'.032'
p756
sg27
S'ABA'
p757
sg533
S'-1.0'
p758
sg534
S'5.8'
p759
sg536
S'0.5'
p760
sg38
S'32'
p761
sg40
S'INA'
p762
sg42
S'59'
p763
sg540
S'0.9'
p764
sg542
S'12.9'
p765
sg544
S'1.6'
p766
sg60
S'1077'
p767
sg546
S'-3.2'
p768
sg53
S'1974-75'
p769
sg548
S'2.1'
p770
sba(isrc.gp1.models.Advanced
Advanced
p771
(dp772
g511
S'11.4'
p773
sg513
S'18.3'
p774
sg515
S'-0.044'
p775
sg516
S'0.0'
p776
sg518
S'19.1'
p777
sg519
S'10.3'
p778
sg521
S'-4.9'
p779
sg21
S'PF'
p780
sg523
S'-0.1'
p781
sg524
S'.426'
p782
sg526
S'9.0'
p783
sg528
S'.143'
p784
sg530
S'.000'
p785
sg27
S'ABA'
p786
sg533
S'-6.9'
p787
sg534
S'0.0'
p788
sg536
S'0.0'
p789
sg38
S'33'
p790
sg40
S'INA'
p791
sg42
g152
sg540
S'1.0'
p792
sg542
S'7.1'
p793
sg544
S'-0.1'
p794
sg60
S'53'
p795
sg546
S'-11.9'
p796
sg53
S'1975-76'
p797
sg548
S'0.0'
p798
sbasS'_per36Minutes'
p799
(lp800
(isrc.gp1.models.Per36Minutes
Per36Minutes
p801
(dp802
g8
S'12.4'
p803
sg10
S'7.1'
p804
sg12
S'0.0'
p805
sg14
S'2.4'
p806
sg16
S'14.0'
p807
sg18
S'.000'
p808
sg20
g3
sg21
S'71'
p809
sg23
S'7.6'
p810
sg27
S'PF'
p811
sg29
S'17.4'
p812
sg31
S'0.0'
p813
sg33
g3
sg34
S'4.7'
p814
sg36
S'2.2'
p815
sg38
S'INA'
p816
sg40
S'ABA'
p817
sg42
S'2385'
p818
sg44
g3
sg45
S'.505'
p819
sg47
S'.596'
p820
sg49
S'3.3'
p821
sg51
S'1.0'
p822
sg53
S'25'
p823
sg55
S'.504'
p824
sg57
g3
sg58
S'5.6'
p825
sg60
S'14.0'
p826
sg62
S'7.1'
p827
sba(isrc.gp1.models.Per36Minutes
Per36Minutes
p828
(dp829
g8
S'10.6'
p830
sg10
S'7.7'
p831
sg12
S'0.1'
p832
sg14
S'3.1'
p833
sg16
S'15.1'
p834
sg18
S'.000'
p835
sg20
g3
sg21
S'78'
p836
sg23
S'6.4'
p837
sg27
S'PF'
p838
sg29
S'19.5'
p839
sg31
S'0.0'
p840
sg33
g3
sg34
S'4.1'
p841
sg36
S'2.4'
p842
sg38
S'INA'
p843
sg40
S'ABA'
p844
sg42
S'2721'
p845
sg44
g3
sg45
S'.511'
p846
sg47
S'.623'
p847
sg49
S'4.0'
p848
sg51
S'1.2'
p849
sg53
S'26'
p850
sg55
S'.509'
p851
sg57
g3
sg58
S'6.5'
p852
sg60
S'15.1'
p853
sg62
S'7.7'
p854
sba(isrc.gp1.models.Per36Minutes
Per36Minutes
p855
(dp856
g8
S'6.0'
p857
sg10
S'.286'
p858
sg12
S'0.0'
p859
sg14
S'2.1'
p860
sg16
S'7.5'
p861
sg18
S'0.1'
p862
sg20
g3
sg21
S'PF'
p863
sg23
S'3.8'
p864
sg27
S'ABA'
p865
sg29
S'2.3'
p866
sg31
S'.483'
p867
sg33
g3
sg34
S'.683'
p868
sg36
S'1.4'
p869
sg38
S'27'
p870
sg40
S'INA'
p871
sg42
S'82'
p872
sg44
S'18.9'
p873
sg45
S'15.5'
p874
sg47
S'5.6'
p875
sg49
S'.484'
p876
sg51
S'9.8'
p877
sg53
S'1969-70'
p878
sg55
S'15.6'
p879
sg57
g3
sg58
S'3.8'
p880
sg60
S'7.5'
p881
sg62
S'3222'
p882
sba(isrc.gp1.models.Per36Minutes
Per36Minutes
p883
(dp884
g8
S'5.8'
p885
sg10
S'.250'
p886
sg12
S'0.0'
p887
sg14
S'1.6'
p888
sg16
S'7.4'
p889
sg18
S'0.1'
p890
sg20
g3
sg21
S'PF'
p891
sg23
S'3.1'
p892
sg27
S'ABA'
p893
sg29
S'2.2'
p894
sg31
S'.499'
p895
sg33
g3
sg34
S'.712'
p896
sg36
S'1.2'
p897
sg38
S'28'
p898
sg40
S'INA'
p899
sg42
S'82'
p900
sg44
S'17.7'
p901
sg45
S'14.9'
p902
sg47
S'3.8'
p903
sg49
S'.500'
p904
sg51
S'8.9'
p905
sg53
S'1970-71'
p906
sg55
S'15.0'
p907
sg57
g3
sg58
S'2.7'
p908
sg60
S'7.5'
p909
sg62
S'3137'
p910
sba(isrc.gp1.models.Per36Minutes
Per36Minutes
p911
(dp912
g8
S'6.2'
p913
sg10
S'.211'
p914
sg12
S'0.0'
p915
sg14
S'2.1'
p916
sg16
S'6.4'
p917
sg18
S'0.2'
p918
sg20
g3
sg21
S'PF'
p919
sg23
S'3.3'
p920
sg27
S'ABA'
p921
sg29
S'2.3'
p922
sg31
S'.479'
p923
sg33
g3
sg34
S'.724'
p924
sg36
S'1.0'
p925
sg38
S'29'
p926
sg40
S'INA'
p927
sg42
S'83'
p928
sg44
S'15.5'
p929
sg45
S'13.3'
p930
sg47
S'3.5'
p931
sg49
S'.484'
p932
sg51
S'9.5'
p933
sg53
S'1971-72'
p934
sg55
S'13.5'
p935
sg57
g3
sg58
S'2.5'
p936
sg60
S'6.5'
p937
sg62
S'2905'
p938
sba(isrc.gp1.models.Per36Minutes
Per36Minutes
p939
(dp940
g8
S'5.4'
p941
sg10
S'.000'
p942
sg12
S'0.0'
p943
sg14
S'2.3'
p944
sg16
S'6.9'
p945
sg18
S'0.0'
p946
sg20
g3
sg21
g183
sg23
S'3.6'
p947
sg27
S'ABA'
p948
sg29
S'1.8'
p949
sg31
S'.483'
p950
sg33
g3
sg34
S'.666'
p951
sg36
S'2.5'
p952
sg38
S'30'
p953
sg40
S'DLC'
p954
sg42
S'84'
p955
sg44
S'16.6'
p956
sg45
S'14.2'
p957
sg47
S'4.3'
p958
sg49
S'.484'
p959
sg51
S'9.0'
p960
sg53
S'1972-73'
p961
sg55
S'14.2'
p962
sg57
g3
sg58
S'2.8'
p963
sg60
S'6.9'
p964
sg62
S'3409'
p965
sba(isrc.gp1.models.Per36Minutes
Per36Minutes
p966
(dp967
g8
S'4.8'
p968
sg10
S'.333'
p969
sg12
S'0.0'
p970
sg14
S'0.6'
p971
sg16
S'6.8'
p972
sg18
S'0.1'
p973
sg20
g3
sg21
S'C-PF'
p974
sg23
S'3.8'
p975
sg27
S'ABA'
p976
sg29
S'0.7'
p977
sg31
S'.488'
p978
sg33
S'16.1'
p979
sg34
S'.642'
p980
sg36
S'2.1'
p981
sg38
S'31'
p982
sg40
S'TOT'
p983
sg42
S'75'
p984
sg44
S'2.1'
p985
sg45
S'14.0'
p986
sg47
S'3.6'
p987
sg49
S'.489'
p988
sg51
S'8.6'
p989
sg53
S'1973-74'
p990
sg55
S'14.1'
p991
sg57
S'2.5'
p992
sg58
S'2.3'
p993
sg60
S'6.9'
p994
sg62
S'1645'
p995
sba(isrc.gp1.models.Per36Minutes
Per36Minutes
p996
(dp997
g8
S'7.5'
p998
sg10
S'7.4'
p999
sg12
S'0.0'
p1000
sg14
S'0.8'
p1001
sg16
S'14.4'
p1002
sg18
S'0.0'
p1003
sg20
g3
sg21
S'PF'
p1004
sg23
S'4.3'
p1005
sg27
S'ABA'
p1006
sg29
S'2.5'
p1007
sg31
S'.513'
p1008
sg33
g3
sg34
S'3.2'
p1009
sg36
S'0.5'
p1010
sg38
S'31'
p1011
sg40
S'SAA'
p1012
sg42
S'19'
p1013
sg44
S'1.5'
p1014
sg45
S'.513'
p1015
sg47
S'.630'
p1016
sg49
S'2.1'
p1017
sg51
S'3.2'
p1018
sg53
S'1973-74'
p1019
sg55
S'14.4'
p1020
sg57
S'16.9'
p1021
sg58
S'3.4'
p1022
sg60
S'7.4'
p1023
sg62
S'488'
p1024
sba(isrc.gp1.models.Per36Minutes
Per36Minutes
p1025
(dp1026
g8
S'5.0'
p1027
sg10
S'.333'
p1028
sg12
S'0.1'
p1029
sg14
S'0.7'
p1030
sg16
S'6.6'
p1031
sg18
S'0.2'
p1032
sg20
g3
sg21
g183
sg23
S'4.0'
p1033
sg27
S'ABA'
p1034
sg29
S'0.7'
p1035
sg31
S'.477'
p1036
sg33
S'15.8'
p1037
sg34
S'.647'
p1038
sg36
S'1.6'
p1039
sg38
S'31'
p1040
sg40
S'INA'
p1041
sg42
S'56'
p1042
sg44
S'2.0'
p1043
sg45
S'13.8'
p1044
sg47
S'3.7'
p1045
sg49
S'.479'
p1046
sg51
S'9.1'
p1047
sg53
S'1973-74'
p1048
sg55
S'14.0'
p1049
sg57
S'2.9'
p1050
sg58
S'2.4'
p1051
sg60
S'6.7'
p1052
sg62
S'1157'
p1053
sba(isrc.gp1.models.Per36Minutes
Per36Minutes
p1054
(dp1055
g8
S'4.4'
p1056
sg10
S'.167'
p1057
sg12
S'0.1'
p1058
sg14
S'0.3'
p1059
sg16
S'6.3'
p1060
sg18
S'0.4'
p1061
sg20
g3
sg21
S'PF'
p1062
sg23
S'3.3'
p1063
sg27
S'ABA'
p1064
sg29
S'0.6'
p1065
sg31
S'.504'
p1066
sg33
S'14.8'
p1067
sg34
S'.633'
p1068
sg36
S'1.6'
p1069
sg38
S'32'
p1070
sg40
S'INA'
p1071
sg42
S'59'
p1072
sg44
S'1.8'
p1073
sg45
S'12.1'
p1074
sg47
S'3.3'
p1075
sg49
S'.515'
p1076
sg51
S'7.7'
p1077
sg53
S'1974-75'
p1078
sg55
S'12.5'
p1079
sg57
S'3.6'
p1080
sg58
S'2.1'
p1081
sg60
S'6.3'
p1082
sg62
S'1077'
p1083
sba(isrc.gp1.models.Per36Minutes
Per36Minutes
p1084
(dp1085
g8
S'8.2'
p1086
sg10
S'5.4'
p1087
sg12
S'0.0'
p1088
sg14
S'0.7'
p1089
sg16
S'14.3'
p1090
sg18
S'0.0'
p1091
sg20
g3
sg21
S'PF'
p1092
sg23
S'3.4'
p1093
sg27
S'ABA'
p1094
sg29
S'3.4'
p1095
sg31
S'.381'
p1096
sg33
g3
sg34
S'4.8'
p1097
sg36
S'0.0'
p1098
sg38
S'33'
p1099
sg40
S'INA'
p1100
sg42
g152
sg44
S'1.4'
p1101
sg45
S'.381'
p1102
sg47
S'1.000'
p1103
sg49
S'2.0'
p1104
sg51
S'0.0'
p1105
sg53
S'1975-76'
p1106
sg55
S'14.3'
p1107
sg57
S'12.9'
p1108
sg58
S'2.0'
p1109
sg60
S'5.4'
p1110
sg62
S'53'
p1111
sbasS'_fromYear'
p1112
S'1968'
p1113
sS'_url'
p1114
S'http://www.basketball-reference.com/players/n/netolbo01.html'
p1115
sS'_perGame'
p1116
(isrc.gp1.models.PerGame
PerGame
p1117
(dp1118
g8
S'3.0'
p1119
sg10
S'2.0'
p1120
sg12
S'0.0'
p1121
sS'_effectiveFieldGalPercentage'
p1122
S'0.8'
p1123
sg14
S'0.3'
p1124
sg16
S'5.3'
p1125
sg18
S'0.0'
p1126
sg20
g3
sg21
S'PF'
p1127
sg23
S'1.3'
p1128
sg27
S'ABA'
p1129
sg29
S'1.3'
p1130
sg33
g3
sS'_fieldGoalsttempted'
p1131
S'.381'
p1132
sg34
S'1.8'
p1133
sg36
S'0.0'
p1134
sg38
S'33'
p1135
sg40
S'INA'
p1136
sg42
g152
sg44
S'0.5'
p1137
sg45
S'.381'
p1138
sg47
S'1.000'
p1139
sg49
S'.381'
p1140
sg51
S'0.0'
p1141
sg53
S'1975-76'
p1142
sg55
S'5.3'
p1143
sg57
S'4.8'
p1144
sg58
S'0.8'
p1145
sg60
S'2.0'
p1146
sg62
S'13.3'
p1147
sbsS'_weight'
p1148
S'220'
p1149
sS'_dob'
p1150
S'2-8-1942'
p1151
sS'_salary'
p1152
(lp1153
sg21
S'F-C'
p1154
sb.