(isrc.gp1.models.Player
Player
p0
(dp1
S'_experience'
p2
S'NA'
p3
sS'_totals'
p4
(lp5
(isrc.gp1.models.Totals
Totals
p6
(dp7
S'_offensiveRebounds'
p8
g3
sS'_threePointsAttempted'
p9
g3
sS'_fieldGoalsPercentage'
p10
S'.277'
p11
sS'_assist'
p12
S'99'
p13
sS'_threePointsPercentage'
p14
g3
sS'_threePoints'
p15
g3
sS'_points'
p16
S'466'
p17
sS'_position'
p18
g3
sS'_freeThrowsPercentage'
p19
S'.725'
p20
sS'_effectiveFieldGoalPercentage'
p21
S'.277'
p22
sS'_league'
p23
S'BAA'
p24
sS'_steals'
p25
g3
sS'_fieldGoalsAttempted'
p26
S'661'
p27
sS'_personalFouls'
p28
S'101'
p29
sS'_freeThrowsAttempted'
p30
S'138'
p31
sS'_totalRebounds'
p32
g3
sS'_age'
p33
S'28'
p34
sS'_team'
p35
S'FTW'
p36
sS'_games'
p37
S'53'
p38
sS'_blocks'
p39
g3
sS'_twoPoints'
p40
S'183'
p41
sS'_freeThrows'
p42
S'100'
p43
sS'_twoPointsAttempted'
p44
S'661'
p45
sS'_defensiveRebounds'
p46
g3
sS'_season'
p47
S'1948-49'
p48
sS'_fieldGoals'
p49
S'183'
p50
sS'_turnOvers'
p51
g3
sS'_twoPointsPercentage'
p52
S'.277'
p53
sS'_minutesPlayed'
p54
g3
sS'_gamesStarted'
p55
g3
sba(isrc.gp1.models.Totals
Totals
p56
(dp57
g8
g3
sg9
g3
sg10
S'.281'
p58
sg12
S'38'
p59
sg14
g3
sg15
g3
sg16
S'113'
p60
sg18
g3
sg19
S'.675'
p61
sg21
S'.281'
p62
sg23
S'NBA'
p63
sg25
g3
sg26
S'153'
p64
sg28
S'40'
p65
sg30
S'40'
p66
sg32
g3
sg33
S'29'
p67
sg35
S'TOT'
p68
sg37
S'29'
p69
sg39
g3
sg40
S'43'
p70
sg42
S'27'
p71
sg44
S'153'
p72
sg46
g3
sg47
S'1949-50'
p73
sg49
S'43'
p74
sg51
g3
sg52
S'.281'
p75
sg54
g3
sg55
g3
sba(isrc.gp1.models.Totals
Totals
p76
(dp77
g8
g3
sg9
g3
sg10
S'.282'
p78
sg12
S'2'
p79
sg14
g3
sg15
g3
sg16
S'27'
p80
sg18
g3
sg19
S'.833'
p81
sg21
S'.282'
p82
sg23
S'NBA'
p83
sg25
g3
sg26
S'39'
p84
sg28
S'15'
p85
sg30
S'6'
p86
sg32
g3
sg33
S'29'
p87
sg35
S'BLB'
p88
sg37
S'8'
p89
sg39
g3
sg40
S'11'
p90
sg42
S'5'
p91
sg44
S'39'
p92
sg46
g3
sg47
S'1949-50'
p93
sg49
S'11'
p94
sg51
g3
sg52
S'.282'
p95
sg54
g3
sg55
g3
sba(isrc.gp1.models.Totals
Totals
p96
(dp97
g8
g3
sg9
g3
sg10
S'.281'
p98
sg12
S'36'
p99
sg14
g3
sg15
g3
sg16
S'86'
p100
sg18
g3
sg19
S'.647'
p101
sg21
S'.281'
p102
sg23
S'NBA'
p103
sg25
g3
sg26
S'114'
p104
sg28
S'25'
p105
sg30
S'34'
p106
sg32
g3
sg33
S'29'
p107
sg35
S'WAT'
p108
sg37
S'21'
p109
sg39
g3
sg40
S'32'
p110
sg42
S'22'
p111
sg44
S'114'
p112
sg46
g3
sg47
S'1949-50'
p113
sg49
S'32'
p114
sg51
g3
sg52
S'.281'
p115
sg54
g3
sg55
g3
sbasS'_college'
p116
S"St. John's University"
p117
sS'_toYear'
p118
S'1950'
p119
sS'_height'
p120
S'6-0'
p121
sS'_active'
p122
I00
sS'_shootingHand'
p123
VRight
p124
sS'_name'
p125
S'Bob Tough'
p126
sS'_per100Possessions'
p127
(lp128
sS'_advanced'
p129
(lp130
(isrc.gp1.models.Advanced
Advanced
p131
(dp132
S'_offensiveReboundPercentage'
p133
g3
sS'_turnOverPercentage'
p134
g3
sS'_winSharesPer48Minutes'
p135
g3
sS'_stealPercentage'
p136
g3
sS'_usagePercentage'
p137
g3
sS'_totalReboundsPercentage'
p138
g3
sS'_defensiveBoxPlusMinus'
p139
g3
sg18
g3
sS'_valueOverReplacementPlayer'
p140
g3
sS'_trueShootingPercentage'
p141
S'.323'
p142
sS'_defensiveReboundPercentage'
p143
g3
sS'_freeThrowsAttempRate'
p144
S'.209'
p145
sS'_threePointsAttempRate'
p146
g3
sg23
S'BAA'
p147
sS'_offensiveBoxPlusMinues'
p148
g3
sS'_assistPercentage'
p149
g3
sS'_defensiveWinShares'
p150
S'2.1'
p151
sg33
S'28'
p152
sg35
S'FTW'
p153
sg37
S'53'
p154
sS'_blockPercentage'
p155
g3
sS'_playerEfficiencyRating'
p156
g3
sS'_offensiveWinShares'
p157
S'-2.3'
p158
sg54
g3
sS'_boxPlusMinus'
p159
g3
sg47
S'1948-49'
p160
sS'_winShares'
p161
S'-0.2'
p162
sba(isrc.gp1.models.Advanced
Advanced
p163
(dp164
g133
g3
sg134
g3
sg135
g3
sg136
g3
sg137
g3
sg138
g3
sg139
g3
sg18
g3
sg140
g3
sg141
S'.331'
p165
sg143
g3
sg144
S'.261'
p166
sg146
g3
sg23
S'NBA'
p167
sg148
g3
sg149
g3
sg150
S'0.0'
p168
sg33
S'29'
p169
sg35
S'TOT'
p170
sg37
S'29'
p171
sg155
g3
sg156
g3
sg157
S'-0.6'
p172
sg54
g3
sg159
g3
sg47
S'1949-50'
p173
sg161
S'-0.6'
p174
sba(isrc.gp1.models.Advanced
Advanced
p175
(dp176
g133
g3
sg134
g3
sg135
g3
sg136
g3
sg137
g3
sg138
g3
sg139
g3
sg18
g3
sg140
g3
sg141
S'.324'
p177
sg143
g3
sg144
S'.154'
p178
sg146
g3
sg23
S'NBA'
p179
sg148
g3
sg149
g3
sg150
S'0.1'
p180
sg33
S'29'
p181
sg35
S'BLB'
p182
sg37
g89
sg155
g3
sg156
g3
sg157
S'-0.2'
p183
sg54
g3
sg159
g3
sg47
S'1949-50'
p184
sg161
S'-0.1'
p185
sba(isrc.gp1.models.Advanced
Advanced
p186
(dp187
g133
g3
sg134
g3
sg135
g3
sg136
g3
sg137
g3
sg138
g3
sg139
g3
sg18
g3
sg140
g3
sg141
S'.333'
p188
sg143
g3
sg144
S'.298'
p189
sg146
g3
sg23
S'NBA'
p190
sg148
g3
sg149
g3
sg150
S'-0.1'
p191
sg33
S'29'
p192
sg35
S'WAT'
p193
sg37
S'21'
p194
sg155
g3
sg156
g3
sg157
S'-0.4'
p195
sg54
g3
sg159
g3
sg47
S'1949-50'
p196
sg161
S'-0.5'
p197
sbasS'_per36Minutes'
p198
(lp199
(isrc.gp1.models.Per36Minutes
Per36Minutes
p200
(dp201
g8
g3
sg9
g3
sg10
S'.277'
p202
sg12
g3
sg14
g3
sg15
g3
sg16
g3
sg18
g3
sg19
S'.725'
p203
sg23
S'BAA'
p204
sg25
g3
sg26
g3
sg28
g3
sg30
g3
sg32
g3
sg33
S'28'
p205
sg35
S'FTW'
p206
sg37
S'53'
p207
sg39
g3
sg40
g3
sg42
g3
sg44
g3
sg46
g3
sg47
S'1948-49'
p208
sg49
g3
sg51
g3
sg52
S'.277'
p209
sg54
g3
sg55
g3
sba(isrc.gp1.models.Per36Minutes
Per36Minutes
p210
(dp211
g8
g3
sg9
g3
sg10
S'.281'
p212
sg12
g3
sg14
g3
sg15
g3
sg16
g3
sg18
g3
sg19
S'.675'
p213
sg23
S'NBA'
p214
sg25
g3
sg26
g3
sg28
g3
sg30
g3
sg32
g3
sg33
S'29'
p215
sg35
S'TOT'
p216
sg37
S'29'
p217
sg39
g3
sg40
g3
sg42
g3
sg44
g3
sg46
g3
sg47
S'1949-50'
p218
sg49
g3
sg51
g3
sg52
S'.281'
p219
sg54
g3
sg55
g3
sba(isrc.gp1.models.Per36Minutes
Per36Minutes
p220
(dp221
g8
g3
sg9
g3
sg10
S'.282'
p222
sg12
g3
sg14
g3
sg15
g3
sg16
g3
sg18
g3
sg19
S'.833'
p223
sg23
S'NBA'
p224
sg25
g3
sg26
g3
sg28
g3
sg30
g3
sg32
g3
sg33
S'29'
p225
sg35
S'BLB'
p226
sg37
g89
sg39
g3
sg40
g3
sg42
g3
sg44
g3
sg46
g3
sg47
S'1949-50'
p227
sg49
g3
sg51
g3
sg52
S'.282'
p228
sg54
g3
sg55
g3
sba(isrc.gp1.models.Per36Minutes
Per36Minutes
p229
(dp230
g8
g3
sg9
g3
sg10
S'.281'
p231
sg12
g3
sg14
g3
sg15
g3
sg16
g3
sg18
g3
sg19
S'.647'
p232
sg23
S'NBA'
p233
sg25
g3
sg26
g3
sg28
g3
sg30
g3
sg32
g3
sg33
S'29'
p234
sg35
S'WAT'
p235
sg37
S'21'
p236
sg39
g3
sg40
g3
sg42
g3
sg44
g3
sg46
g3
sg47
S'1949-50'
p237
sg49
g3
sg51
g3
sg52
S'.281'
p238
sg54
g3
sg55
g3
sbasS'_fromYear'
p239
S'1949'
p240
sS'_url'
p241
S'http://www.basketball-reference.com/players/t/toughbo01.html'
p242
sS'_perGame'
p243
(isrc.gp1.models.PerGame
PerGame
p244
(dp245
g8
g3
sg9
g3
sg10
S'.281'
p246
sS'_effectiveFieldGalPercentage'
p247
S'.281'
p248
sg12
S'1.7'
p249
sg14
g3
sg15
g3
sg16
S'4.1'
p250
sg18
g3
sg19
S'.647'
p251
sg23
S'NBA'
p252
sg25
g3
sg28
S'1.2'
p253
sS'_fieldGoalsttempted'
p254
S'5.4'
p255
sg30
S'1.6'
p256
sg32
g3
sg33
S'29'
p257
sg35
S'WAT'
p258
sg37
S'21'
p259
sg39
g3
sg40
S'1.5'
p260
sg42
S'1.0'
p261
sg44
S'5.4'
p262
sg46
g3
sg47
S'1949-50'
p263
sg49
S'1.5'
p264
sg51
g3
sg52
S'.281'
p265
sg54
g3
sg55
g3
sbsS'_weight'
p266
S'185'
p267
sS'_dob'
p268
S'28-8-1920'
p269
sS'_salary'
p270
(lp271
sg18
S'G-F'
p272
sb.