(isrc.gp1.models.Player
Player
p0
(dp1
S'_experience'
p2
S'NA'
p3
sS'_totals'
p4
(lp5
(isrc.gp1.models.Totals
Totals
p6
(dp7
S'_offensiveRebounds'
p8
S'19'
p9
sS'_threePointsAttempted'
p10
S'0'
p11
sS'_fieldGoalsPercentage'
p12
S'.462'
p13
sS'_assist'
p14
S'2'
p15
sS'_threePointsPercentage'
p16
g3
sS'_threePoints'
p17
g11
sS'_points'
p18
S'56'
p19
sS'_position'
p20
S'PF'
p21
sS'_freeThrowsPercentage'
p22
S'.615'
p23
sS'_effectiveFieldGoalPercentage'
p24
S'.462'
p25
sS'_league'
p26
S'NBA'
p27
sS'_steals'
p28
S'4'
p29
sS'_fieldGoalsAttempted'
p30
S'52'
p31
sS'_personalFouls'
p32
S'25'
p33
sS'_freeThrowsAttempted'
p34
S'13'
p35
sS'_totalRebounds'
p36
S'39'
p37
sS'_age'
p38
S'23'
p39
sS'_team'
p40
S'WSB'
p41
sS'_games'
p42
S'13'
p43
sS'_blocks'
p44
g15
sS'_twoPoints'
p45
S'24'
p46
sS'_freeThrows'
p47
S'8'
p48
sS'_twoPointsAttempted'
p49
S'52'
p50
sS'_defensiveRebounds'
p51
S'20'
p52
sS'_season'
p53
S'1979-80'
p54
sS'_fieldGoals'
p55
S'24'
p56
sS'_turnOvers'
p57
g48
sS'_twoPointsPercentage'
p58
S'.462'
p59
sS'_minutesPlayed'
p60
S'125'
p61
sS'_gamesStarted'
p62
g3
sbasS'_college'
p63
S'University of Maryland'
p64
sS'_toYear'
p65
S'1980'
p66
sS'_height'
p67
S'6-8'
p68
sS'_active'
p69
I00
sS'_shootingHand'
p70
VRight
p71
sS'_name'
p72
S'Lawrence Boston'
p73
sS'_per100Possessions'
p74
(lp75
(isrc.gp1.models.Per100Possession
Per100Possession
p76
(dp77
g8
S'7.1'
p78
sg10
S'0.0'
p79
sg12
S'.462'
p80
sS'_offensiveRating'
p81
S'100'
p82
sg14
S'0.7'
p83
sg16
g3
sg17
S'0.0'
p84
sg18
S'21.0'
p85
sg20
S'PF'
p86
sS'_defensiveRating'
p87
S'105'
p88
sg22
S'.615'
p89
sg26
S'NBA'
p90
sg28
S'1.5'
p91
sg30
S'19.5'
p92
sg32
S'9.4'
p93
sg34
S'4.9'
p94
sg36
S'14.6'
p95
sg38
S'23'
p96
sg40
S'WSB'
p97
sg42
S'13'
p98
sg44
S'0.7'
p99
sg45
S'9.0'
p100
sg47
S'3.0'
p101
sg49
S'19.5'
p102
sg51
S'7.5'
p103
sg53
S'1979-80'
p104
sg55
S'9.0'
p105
sg57
S'3.0'
p106
sg58
S'.462'
p107
sg60
S'125'
p108
sg62
g3
sbasS'_advanced'
p109
(lp110
(isrc.gp1.models.Advanced
Advanced
p111
(dp112
S'_offensiveReboundPercentage'
p113
S'15.1'
p114
sS'_turnOverPercentage'
p115
S'12.2'
p116
sS'_winSharesPer48Minutes'
p117
S'.075'
p118
sS'_stealPercentage'
p119
S'1.5'
p120
sS'_usagePercentage'
p121
S'20.7'
p122
sS'_totalReboundsPercentage'
p123
S'15.7'
p124
sS'_defensiveBoxPlusMinus'
p125
S'-2.4'
p126
sg20
S'PF'
p127
sS'_valueOverReplacementPlayer'
p128
S'-0.1'
p129
sS'_trueShootingPercentage'
p130
S'.485'
p131
sS'_defensiveReboundPercentage'
p132
S'16.2'
p133
sS'_freeThrowsAttempRate'
p134
S'.250'
p135
sS'_threePointsAttempRate'
p136
S'.000'
p137
sg26
S'NBA'
p138
sS'_offensiveBoxPlusMinues'
p139
S'-2.3'
p140
sS'_assistPercentage'
p141
S'2.3'
p142
sS'_defensiveWinShares'
p143
S'0.1'
p144
sg38
S'23'
p145
sg40
S'WSB'
p146
sg42
S'13'
p147
sS'_blockPercentage'
p148
S'0.8'
p149
sS'_playerEfficiencyRating'
p150
S'12.6'
p151
sS'_offensiveWinShares'
p152
S'0.1'
p153
sg60
S'125'
p154
sS'_boxPlusMinus'
p155
S'-4.7'
p156
sg53
S'1979-80'
p157
sS'_winShares'
p158
S'0.2'
p159
sbasS'_per36Minutes'
p160
(lp161
(isrc.gp1.models.Per36Minutes
Per36Minutes
p162
(dp163
g8
S'5.5'
p164
sg10
S'0.0'
p165
sg12
S'.462'
p166
sg14
S'0.6'
p167
sg16
g3
sg17
S'0.0'
p168
sg18
S'16.1'
p169
sg20
S'PF'
p170
sg22
S'.615'
p171
sg26
S'NBA'
p172
sg28
S'1.2'
p173
sg30
S'15.0'
p174
sg32
S'7.2'
p175
sg34
S'3.7'
p176
sg36
S'11.2'
p177
sg38
S'23'
p178
sg40
S'WSB'
p179
sg42
S'13'
p180
sg44
S'0.6'
p181
sg45
S'6.9'
p182
sg47
S'2.3'
p183
sg49
S'15.0'
p184
sg51
S'5.8'
p185
sg53
S'1979-80'
p186
sg55
S'6.9'
p187
sg57
S'2.3'
p188
sg58
S'.462'
p189
sg60
S'125'
p190
sg62
g3
sbasS'_fromYear'
p191
S'1980'
p192
sS'_url'
p193
S'http://www.basketball-reference.com/players/b/bostola01.html'
p194
sS'_perGame'
p195
(isrc.gp1.models.PerGame
PerGame
p196
(dp197
g8
S'1.5'
p198
sg10
S'0.0'
p199
sg12
S'.462'
p200
sS'_effectiveFieldGalPercentage'
p201
S'.462'
p202
sg14
S'0.2'
p203
sg16
g3
sg17
S'0.0'
p204
sg18
S'4.3'
p205
sg20
S'PF'
p206
sg22
S'.615'
p207
sg26
S'NBA'
p208
sg28
S'0.3'
p209
sg32
S'1.9'
p210
sS'_fieldGoalsttempted'
p211
S'4.0'
p212
sg34
S'1.0'
p213
sg36
S'3.0'
p214
sg38
S'23'
p215
sg40
S'WSB'
p216
sg42
S'13'
p217
sg44
S'0.2'
p218
sg45
S'1.8'
p219
sg47
S'0.6'
p220
sg49
S'4.0'
p221
sg51
S'1.5'
p222
sg53
S'1979-80'
p223
sg55
S'1.8'
p224
sg57
S'0.6'
p225
sg58
S'.462'
p226
sg60
S'9.6'
p227
sg62
g3
sbsS'_weight'
p228
S'225'
p229
sS'_dob'
p230
S'18-5-1956'
p231
sS'_salary'
p232
(lp233
sg20
S'F'
p234
sb.