(isrc.gp1.models.Player
Player
p0
(dp1
S'_experience'
p2
S'NA'
p3
sS'_totals'
p4
(lp5
(isrc.gp1.models.Totals
Totals
p6
(dp7
S'_offensiveRebounds'
p8
S'207'
p9
sS'_threePointsAttempted'
p10
S'0'
p11
sS'_fieldGoalsPercentage'
p12
S'.537'
p13
sS'_assist'
p14
S'215'
p15
sS'_threePointsPercentage'
p16
g3
sS'_threePoints'
p17
g11
sS'_points'
p18
S'758'
p19
sS'_position'
p20
S'C'
p21
sS'_freeThrowsPercentage'
p22
S'.711'
p23
sS'_effectiveFieldGoalPercentage'
p24
S'.537'
p25
sS'_league'
p26
S'NBA'
p27
sS'_steals'
p28
S'55'
p29
sS'_fieldGoalsAttempted'
p30
S'557'
p31
sS'_personalFouls'
p32
S'278'
p33
sS'_freeThrowsAttempted'
p34
S'225'
p35
sS'_totalRebounds'
p36
S'656'
p37
sS'_age'
p38
S'23'
p39
sS'_team'
p40
S'POR'
p41
sS'_games'
p42
S'76'
p43
sS'_blocks'
p44
S'203'
p45
sS'_twoPoints'
p46
S'299'
p47
sS'_freeThrows'
p48
S'160'
p49
sS'_twoPointsAttempted'
p50
S'557'
p51
sS'_defensiveRebounds'
p52
S'449'
p53
sS'_season'
p54
S'1984-85'
p55
sS'_fieldGoals'
p56
S'299'
p57
sS'_turnOvers'
p58
S'172'
p59
sS'_twoPointsPercentage'
p60
S'.537'
p61
sS'_minutesPlayed'
p62
S'2216'
p63
sS'_gamesStarted'
p64
S'62'
p65
sba(isrc.gp1.models.Totals
Totals
p66
(dp67
g8
S'93'
p68
sg10
g11
sg12
S'.484'
p69
sg14
S'99'
p70
sg16
g3
sg17
g11
sg18
S'448'
p71
sg20
g21
sg22
S'.708'
p72
sg24
S'.484'
p73
sg26
S'NBA'
p74
sg28
S'21'
p75
sg30
S'345'
p76
sg32
S'142'
p77
sg34
S'161'
p78
sg36
S'327'
p79
sg38
S'24'
p80
sg40
S'POR'
p81
sg42
S'38'
p82
sg44
S'96'
p83
sg46
S'167'
p84
sg48
S'114'
p85
sg50
S'345'
p86
sg52
S'234'
p87
sg54
S'1985-86'
p88
sg56
S'167'
p89
sg58
S'88'
p90
sg60
S'.484'
p91
sg62
S'1132'
p92
sg64
S'34'
p93
sba(isrc.gp1.models.Totals
Totals
p94
(dp95
g8
S'14'
p96
sg10
g11
sg12
S'.455'
p97
sg14
S'9'
p98
sg16
g3
sg17
g11
sg18
S'80'
p99
sg20
g21
sg22
S'.667'
p100
sg24
S'.455'
p101
sg26
S'NBA'
p102
sg28
S'1'
p103
sg30
S'66'
p104
sg32
S'19'
p105
sg34
S'30'
p106
sg36
S'33'
p107
sg38
S'25'
p108
sg40
S'POR'
p109
sg42
S'5'
p110
sg44
S'10'
p111
sg46
S'30'
p112
sg48
S'20'
p113
sg50
S'66'
p114
sg52
S'19'
p115
sg54
S'1986-87'
p116
sg56
S'30'
p117
sg58
S'15'
p118
sg60
S'.455'
p119
sg62
S'163'
p120
sg64
g110
sba(isrc.gp1.models.Totals
Totals
p121
(dp122
g8
g3
sg10
g3
sg12
g3
sg14
g3
sg16
g3
sg17
g3
sg18
g3
sg20
g3
sg22
g3
sg24
g3
sg26
g3
sg28
g3
sg30
g3
sg32
g3
sg34
g3
sg36
g3
sg38
S'26'
p123
sg40
S'Did Not Play\xc2\xa0(injury\xe2\x80\x94leg)'
p124
sg42
g3
sg44
g3
sg46
g3
sg48
g3
sg50
g3
sg52
g3
sg54
S'1987-88'
p125
sg56
g3
sg58
g3
sg60
g3
sg62
g3
sg64
g3
sba(isrc.gp1.models.Totals
Totals
p126
(dp127
g8
S'36'
p128
sg10
S'7'
p129
sg12
S'.451'
p130
sg14
S'36'
p131
sg16
S'.714'
p132
sg17
g110
sg18
S'171'
p133
sg20
g21
sg22
S'.571'
p134
sg24
S'.467'
p135
sg26
S'NBA'
p136
sg28
g129
sg30
S'153'
p137
sg32
S'43'
p138
sg34
S'49'
p139
sg36
S'106'
p140
sg38
S'27'
p141
sg40
S'POR'
p142
sg42
S'20'
p143
sg44
S'33'
p144
sg46
S'64'
p145
sg48
S'28'
p146
sg50
S'146'
p147
sg52
S'70'
p148
sg54
S'1988-89'
p149
sg56
S'69'
p150
sg58
S'33'
p151
sg60
S'.438'
p152
sg62
S'412'
p153
sg64
g11
sba(isrc.gp1.models.Totals
Totals
p154
(dp155
g8
S'206'
p156
sg10
S'31'
p157
sg12
S'.416'
p158
sg14
S'91'
p159
sg16
S'.323'
p160
sg17
S'10'
p161
sg18
S'998'
p162
sg20
g21
sg22
S'.776'
p163
sg24
S'.422'
p164
sg26
S'NBA'
p165
sg28
S'38'
p166
sg30
S'834'
p167
sg32
S'211'
p168
sg34
S'379'
p169
sg36
S'690'
p170
sg38
S'28'
p171
sg40
S'NJN'
p172
sg42
S'68'
p173
sg44
S'121'
p174
sg46
S'337'
p175
sg48
S'294'
p176
sg50
S'803'
p177
sg52
S'484'
p178
sg54
S'1989-90'
p179
sg56
S'347'
p180
sg58
S'125'
p181
sg60
S'.420'
p182
sg62
S'2207'
p183
sg64
S'54'
p184
sba(isrc.gp1.models.Totals
Totals
p185
(dp186
g8
S'176'
p187
sg10
S'22'
p188
sg12
S'.434'
p189
sg14
S'147'
p190
sg16
S'.182'
p191
sg17
S'4'
p192
sg18
S'801'
p193
sg20
g21
sg22
S'.732'
p194
sg24
S'.437'
p195
sg26
S'NBA'
p196
sg28
S'43'
p197
sg30
S'723'
p198
sg32
S'175'
p199
sg34
S'231'
p200
sg36
S'480'
p201
sg38
S'29'
p202
sg40
S'NJN'
p203
sg42
S'62'
p204
sg44
S'90'
p205
sg46
S'310'
p206
sg48
S'169'
p207
sg50
S'701'
p208
sg52
S'304'
p209
sg54
S'1990-91'
p210
sg56
S'314'
p211
sg58
S'141'
p212
sg60
S'.442'
p213
sg62
S'1916'
p214
sg64
S'51'
p215
sba(isrc.gp1.models.Totals
Totals
p216
(dp217
g8
S'203'
p218
sg10
S'25'
p219
sg12
S'.445'
p220
sg14
S'186'
p221
sg16
S'.320'
p222
sg17
S'8'
p223
sg18
S'1062'
p224
sg20
g21
sg22
S'.757'
p225
sg24
S'.449'
p226
sg26
S'NBA'
p227
sg28
S'41'
p228
sg30
S'947'
p229
sg32
S'212'
p230
sg34
S'280'
p231
sg36
S'578'
p232
sg38
S'30'
p233
sg40
S'NJN'
p234
sg42
S'71'
p235
sg44
S'120'
p236
sg46
S'413'
p237
sg48
S'212'
p238
sg50
S'922'
p239
sg52
S'375'
p240
sg54
S'1991-92'
p241
sg56
S'421'
p242
sg58
S'150'
p243
sg60
S'.448'
p244
sg62
S'2179'
p245
sg64
S'61'
p246
sba(isrc.gp1.models.Totals
Totals
p247
(dp248
g8
S'158'
p249
sg10
S'6'
p250
sg12
S'.450'
p251
sg14
S'127'
p252
sg16
S'.333'
p253
sg17
S'2'
p254
sg18
S'717'
p255
sg20
g21
sg22
S'.779'
p256
sg24
S'.451'
p257
sg26
S'NBA'
p258
sg28
S'32'
p259
sg30
S'638'
p260
sg32
S'226'
p261
sg34
S'181'
p262
sg36
S'556'
p263
sg38
S'31'
p264
sg40
S'NJN'
p265
sg42
S'79'
p266
sg44
S'128'
p267
sg46
S'285'
p268
sg48
S'141'
p269
sg50
S'632'
p270
sg52
S'398'
p271
sg54
S'1992-93'
p272
sg56
S'287'
p273
sg58
S'120'
p274
sg60
S'.451'
p275
sg62
S'2092'
p276
sg64
S'65'
p277
sba(isrc.gp1.models.Totals
Totals
p278
(dp279
g8
S'27'
p280
sg10
g192
sg12
S'.436'
p281
sg14
S'47'
p282
sg16
S'.250'
p283
sg17
g103
sg18
S'223'
p284
sg20
g21
sg22
S'.867'
p285
sg24
S'.439'
p286
sg26
S'NBA'
p287
sg28
g192
sg30
S'172'
p288
sg32
S'65'
p289
sg34
S'83'
p290
sg36
S'131'
p291
sg38
S'32'
p292
sg40
S'LAL'
p293
sg42
S'25'
p294
sg44
S'28'
p295
sg46
S'74'
p296
sg48
S'72'
p297
sg50
S'168'
p298
sg52
S'104'
p299
sg54
S'1993-94'
p300
sg56
S'75'
p301
sg58
S'43'
p302
sg60
S'.440'
p303
sg62
S'556'
p304
sg64
g129
sba(isrc.gp1.models.Totals
Totals
p305
(dp306
g8
S'72'
p307
sg10
S'11'
p308
sg12
S'.442'
p309
sg14
S'118'
p310
sg16
S'.182'
p311
sg17
g254
sg18
S'306'
p312
sg20
g21
sg22
S'.764'
p313
sg24
S'.446'
p314
sg26
S'NBA'
p315
sg28
S'21'
p316
sg30
S'267'
p317
sg32
S'182'
p318
sg34
S'89'
p319
sg36
S'288'
p320
sg38
S'33'
p321
sg40
S'LAL'
p322
sg42
S'67'
p323
sg44
S'80'
p324
sg46
S'116'
p325
sg48
S'68'
p326
sg50
S'256'
p327
sg52
S'216'
p328
sg54
S'1994-95'
p329
sg56
S'118'
p330
sg58
S'91'
p331
sg60
S'.453'
p332
sg62
S'1225'
p333
sg64
S'10'
p334
sbasS'_college'
p335
S'University of Kentucky'
p336
sS'_toYear'
p337
S'1995'
p338
sS'_height'
p339
S'7-1'
p340
sS'_active'
p341
I00
sS'_shootingHand'
p342
VRight
p343
sS'_name'
p344
S'Sam Bowie'
p345
sS'_per100Possessions'
p346
(lp347
(isrc.gp1.models.Per100Possession
Per100Possession
p348
(dp349
g8
S'4.3'
p350
sg10
S'0.0'
p351
sg12
S'.537'
p352
sS'_offensiveRating'
p353
S'110'
p354
sg14
S'4.5'
p355
sg16
g3
sg17
S'0.0'
p356
sg18
S'15.9'
p357
sg20
g21
sS'_defensiveRating'
p358
S'103'
p359
sg22
S'.711'
p360
sg26
S'NBA'
p361
sg28
S'1.2'
p362
sg30
S'11.7'
p363
sg32
S'5.8'
p364
sg34
S'4.7'
p365
sg36
S'13.7'
p366
sg38
S'23'
p367
sg40
S'POR'
p368
sg42
S'76'
p369
sg44
S'4.2'
p370
sg46
S'6.3'
p371
sg48
S'3.3'
p372
sg50
S'11.7'
p373
sg52
S'9.4'
p374
sg54
S'1984-85'
p375
sg56
S'6.3'
p376
sg58
S'3.6'
p377
sg60
S'.537'
p378
sg62
S'2216'
p379
sg64
S'62'
p380
sba(isrc.gp1.models.Per100Possession
Per100Possession
p381
(dp382
g8
S'3.8'
p383
sg10
S'0.0'
p384
sg12
S'.484'
p385
sg353
S'106'
p386
sg14
S'4.0'
p387
sg16
g3
sg17
S'0.0'
p388
sg18
S'18.2'
p389
sg20
g21
sg358
S'105'
p390
sg22
S'.708'
p391
sg26
S'NBA'
p392
sg28
S'0.9'
p393
sg30
S'14.0'
p394
sg32
S'5.8'
p395
sg34
S'6.5'
p396
sg36
S'13.3'
p397
sg38
S'24'
p398
sg40
S'POR'
p399
sg42
S'38'
p400
sg44
S'3.9'
p401
sg46
S'6.8'
p402
sg48
S'4.6'
p403
sg50
S'14.0'
p404
sg52
S'9.5'
p405
sg54
S'1985-86'
p406
sg56
S'6.8'
p407
sg58
S'3.6'
p408
sg60
S'.484'
p409
sg62
S'1132'
p410
sg64
S'34'
p411
sba(isrc.gp1.models.Per100Possession
Per100Possession
p412
(dp413
g8
S'3.9'
p414
sg10
S'0.0'
p415
sg12
S'.455'
p416
sg353
S'99'
p417
sg14
S'2.5'
p418
sg16
g3
sg17
S'0.0'
p419
sg18
S'22.4'
p420
sg20
g21
sg358
S'110'
p421
sg22
S'.667'
p422
sg26
S'NBA'
p423
sg28
S'0.3'
p424
sg30
S'18.5'
p425
sg32
S'5.3'
p426
sg34
S'8.4'
p427
sg36
S'9.3'
p428
sg38
S'25'
p429
sg40
S'POR'
p430
sg42
g110
sg44
S'2.8'
p431
sg46
S'8.4'
p432
sg48
S'5.6'
p433
sg50
S'18.5'
p434
sg52
S'5.3'
p435
sg54
S'1986-87'
p436
sg56
S'8.4'
p437
sg58
S'4.2'
p438
sg60
S'.455'
p439
sg62
S'163'
p440
sg64
g110
sba(isrc.gp1.models.Per100Possession
Per100Possession
p441
(dp442
g8
S'4.0'
p443
sg10
S'0.8'
p444
sg12
S'.451'
p445
sg353
S'100'
p446
sg14
S'4.0'
p447
sg16
S'.714'
p448
sg17
S'0.6'
p449
sg18
S'19.2'
p450
sg20
g21
sg358
S'106'
p451
sg22
S'.571'
p452
sg26
S'NBA'
p453
sg28
S'0.8'
p454
sg30
S'17.2'
p455
sg32
S'4.8'
p456
sg34
S'5.5'
p457
sg36
S'11.9'
p458
sg38
S'27'
p459
sg40
S'POR'
p460
sg42
S'20'
p461
sg44
S'3.7'
p462
sg46
S'7.2'
p463
sg48
S'3.1'
p464
sg50
S'16.4'
p465
sg52
S'7.8'
p466
sg54
S'1988-89'
p467
sg56
S'7.7'
p468
sg58
S'3.7'
p469
sg60
S'.438'
p470
sg62
S'412'
p471
sg64
g11
sba(isrc.gp1.models.Per100Possession
Per100Possession
p472
(dp473
g8
S'4.5'
p474
sg10
S'0.7'
p475
sg12
S'.416'
p476
sg353
S'107'
p477
sg14
S'2.0'
p478
sg16
S'.323'
p479
sg17
S'0.2'
p480
sg18
S'21.9'
p481
sg20
g21
sg358
S'106'
p482
sg22
S'.776'
p483
sg26
S'NBA'
p484
sg28
S'0.8'
p485
sg30
S'18.3'
p486
sg32
S'4.6'
p487
sg34
S'8.3'
p488
sg36
S'15.1'
p489
sg38
S'28'
p490
sg40
S'NJN'
p491
sg42
S'68'
p492
sg44
S'2.7'
p493
sg46
S'7.4'
p494
sg48
S'6.4'
p495
sg50
S'17.6'
p496
sg52
S'10.6'
p497
sg54
S'1989-90'
p498
sg56
S'7.6'
p499
sg58
S'2.7'
p500
sg60
S'.420'
p501
sg62
S'2207'
p502
sg64
S'54'
p503
sba(isrc.gp1.models.Per100Possession
Per100Possession
p504
(dp505
g8
S'4.4'
p506
sg10
S'0.6'
p507
sg12
S'.434'
p508
sg353
S'101'
p509
sg14
S'3.7'
p510
sg16
S'.182'
p511
sg17
S'0.1'
p512
sg18
S'20.2'
p513
sg20
g21
sg358
S'107'
p514
sg22
S'.732'
p515
sg26
S'NBA'
p516
sg28
S'1.1'
p517
sg30
S'18.2'
p518
sg32
S'4.4'
p519
sg34
S'5.8'
p520
sg36
S'12.1'
p521
sg38
S'29'
p522
sg40
S'NJN'
p523
sg42
S'62'
p524
sg44
S'2.3'
p525
sg46
S'7.8'
p526
sg48
S'4.3'
p527
sg50
S'17.7'
p528
sg52
S'7.7'
p529
sg54
S'1990-91'
p530
sg56
S'7.9'
p531
sg58
S'3.6'
p532
sg60
S'.442'
p533
sg62
S'1916'
p534
sg64
S'51'
p535
sba(isrc.gp1.models.Per100Possession
Per100Possession
p536
(dp537
g8
S'4.6'
p538
sg10
S'0.6'
p539
sg12
S'.445'
p540
sg353
S'107'
p541
sg14
S'4.2'
p542
sg16
S'.320'
p543
sg17
S'0.2'
p544
sg18
S'23.9'
p545
sg20
g21
sg358
S'108'
p546
sg22
S'.757'
p547
sg26
S'NBA'
p548
sg28
S'0.9'
p549
sg30
S'21.3'
p550
sg32
S'4.8'
p551
sg34
S'6.3'
p552
sg36
S'13.0'
p553
sg38
S'30'
p554
sg40
S'NJN'
p555
sg42
S'71'
p556
sg44
S'2.7'
p557
sg46
S'9.3'
p558
sg48
S'4.8'
p559
sg50
S'20.7'
p560
sg52
S'8.4'
p561
sg54
S'1991-92'
p562
sg56
S'9.5'
p563
sg58
S'3.4'
p564
sg60
S'.448'
p565
sg62
S'2179'
p566
sg64
S'61'
p567
sba(isrc.gp1.models.Per100Possession
Per100Possession
p568
(dp569
g8
S'3.8'
p570
sg10
S'0.1'
p571
sg12
S'.450'
p572
sg353
S'104'
p573
sg14
S'3.0'
p574
sg16
S'.333'
p575
sg17
S'0.0'
p576
sg18
S'17.1'
p577
sg20
g21
sg358
S'103'
p578
sg22
S'.779'
p579
sg26
S'NBA'
p580
sg28
S'0.8'
p581
sg30
S'15.2'
p582
sg32
S'5.4'
p583
sg34
S'4.3'
p584
sg36
S'13.3'
p585
sg38
S'31'
p586
sg40
S'NJN'
p587
sg42
S'79'
p588
sg44
S'3.1'
p589
sg46
S'6.8'
p590
sg48
S'3.4'
p591
sg50
S'15.1'
p592
sg52
S'9.5'
p593
sg54
S'1992-93'
p594
sg56
S'6.9'
p595
sg58
S'2.9'
p596
sg60
S'.451'
p597
sg62
S'2092'
p598
sg64
S'65'
p599
sba(isrc.gp1.models.Per100Possession
Per100Possession
p600
(dp601
g8
S'2.4'
p602
sg10
S'0.4'
p603
sg12
S'.436'
p604
sg353
S'104'
p605
sg14
S'4.3'
p606
sg16
S'.250'
p607
sg17
S'0.1'
p608
sg18
S'20.2'
p609
sg20
g21
sg358
S'108'
p610
sg22
S'.867'
p611
sg26
S'NBA'
p612
sg28
S'0.4'
p613
sg30
S'15.6'
p614
sg32
S'5.9'
p615
sg34
S'7.5'
p616
sg36
S'11.8'
p617
sg38
S'32'
p618
sg40
S'LAL'
p619
sg42
S'25'
p620
sg44
S'2.5'
p621
sg46
S'6.7'
p622
sg48
S'6.5'
p623
sg50
S'15.2'
p624
sg52
S'9.4'
p625
sg54
S'1993-94'
p626
sg56
S'6.8'
p627
sg58
S'3.9'
p628
sg60
S'.440'
p629
sg62
S'556'
p630
sg64
g129
sba(isrc.gp1.models.Per100Possession
Per100Possession
p631
(dp632
g8
S'3.0'
p633
sg10
S'0.5'
p634
sg12
S'.442'
p635
sg353
S'97'
p636
sg14
S'4.9'
p637
sg16
S'.182'
p638
sg17
S'0.1'
p639
sg18
S'12.6'
p640
sg20
g21
sg358
S'107'
p641
sg22
S'.764'
p642
sg26
S'NBA'
p643
sg28
S'0.9'
p644
sg30
S'11.0'
p645
sg32
S'7.5'
p646
sg34
S'3.7'
p647
sg36
S'11.9'
p648
sg38
S'33'
p649
sg40
S'LAL'
p650
sg42
S'67'
p651
sg44
S'3.3'
p652
sg46
S'4.8'
p653
sg48
S'2.8'
p654
sg50
S'10.5'
p655
sg52
S'8.9'
p656
sg54
S'1994-95'
p657
sg56
S'4.9'
p658
sg58
S'3.7'
p659
sg60
S'.453'
p660
sg62
S'1225'
p661
sg64
S'10'
p662
sbasS'_advanced'
p663
(lp664
(isrc.gp1.models.Advanced
Advanced
p665
(dp666
S'_offensiveReboundPercentage'
p667
S'10.5'
p668
sS'_turnOverPercentage'
p669
S'20.8'
p670
sS'_winSharesPer48Minutes'
p671
S'.123'
p672
sS'_stealPercentage'
p673
S'1.2'
p674
sS'_usagePercentage'
p675
S'14.8'
p676
sS'_totalReboundsPercentage'
p677
S'16.6'
p678
sS'_defensiveBoxPlusMinus'
p679
S'3.8'
p680
sg20
g21
sS'_valueOverReplacementPlayer'
p681
S'3.1'
p682
sS'_trueShootingPercentage'
p683
S'.578'
p684
sS'_defensiveReboundPercentage'
p685
S'22.6'
p686
sS'_freeThrowsAttempRate'
p687
S'.404'
p688
sS'_threePointsAttempRate'
p689
S'.000'
p690
sg26
S'NBA'
p691
sS'_offensiveBoxPlusMinues'
p692
S'-0.3'
p693
sS'_assistPercentage'
p694
S'12.2'
p695
sS'_defensiveWinShares'
p696
S'3.5'
p697
sg38
S'23'
p698
sg40
S'POR'
p699
sg42
S'76'
p700
sS'_blockPercentage'
p701
S'5.0'
p702
sS'_playerEfficiencyRating'
p703
S'15.7'
p704
sS'_offensiveWinShares'
p705
S'2.2'
p706
sg62
S'2216'
p707
sS'_boxPlusMinus'
p708
S'3.6'
p709
sg54
S'1984-85'
p710
sS'_winShares'
p711
S'5.7'
p712
sba(isrc.gp1.models.Advanced
Advanced
p713
(dp714
g667
S'9.3'
p715
sg669
S'17.5'
p716
sg671
S'.100'
p717
sg673
S'0.9'
p718
sg675
S'17.6'
p719
sg677
S'16.4'
p720
sg679
S'2.9'
p721
sg20
g21
sg681
S'1.0'
p722
sg683
S'.539'
p723
sg685
S'23.5'
p724
sg687
S'.467'
p725
sg689
S'.000'
p726
sg26
S'NBA'
p727
sg692
S'-1.3'
p728
sg694
S'11.5'
p729
sg696
S'1.5'
p730
sg38
S'24'
p731
sg40
S'POR'
p732
sg42
S'38'
p733
sg701
S'4.8'
p734
sg703
S'15.2'
p735
sg705
S'0.9'
p736
sg62
S'1132'
p737
sg708
S'1.6'
p738
sg54
S'1985-86'
p739
sg711
S'2.4'
p740
sba(isrc.gp1.models.Advanced
Advanced
p741
(dp742
g667
S'9.8'
p743
sg669
S'15.9'
p744
sg671
S'.034'
p745
sg673
S'0.3'
p746
sg675
S'22.7'
p747
sg677
S'11.3'
p748
sg679
S'-1.0'
p749
sg20
g21
sg681
S'-0.1'
p750
sg683
S'.505'
p751
sg685
S'12.8'
p752
sg687
S'.455'
p753
sg689
S'.000'
p754
sg26
S'NBA'
p755
sg692
S'-3.2'
p756
sg694
S'7.5'
p757
sg696
S'0.1'
p758
sg38
S'25'
p759
sg40
S'POR'
p760
sg42
g110
sg701
S'3.4'
p761
sg703
S'11.8'
p762
sg705
S'0.0'
p763
sg62
S'163'
p764
sg708
S'-4.2'
p765
sg54
S'1986-87'
p766
sg711
S'0.1'
p767
sba(isrc.gp1.models.Advanced
Advanced
p768
(dp769
g667
S'9.2'
p770
sg669
S'15.9'
p771
sg671
S'.063'
p772
sg673
S'0.8'
p773
sg675
S'19.4'
p774
sg677
S'14.0'
p775
sg679
S'1.4'
p776
sg20
g21
sg681
S'0.1'
p777
sg683
S'.490'
p778
sg685
S'19.1'
p779
sg687
S'.320'
p780
sg689
S'.046'
p781
sg26
S'NBA'
p782
sg692
S'-2.7'
p783
sg694
S'11.4'
p784
sg696
S'0.5'
p785
sg38
S'27'
p786
sg40
S'POR'
p787
sg42
S'20'
p788
sg701
S'4.7'
p789
sg703
S'13.7'
p790
sg705
S'0.0'
p791
sg62
S'412'
p792
sg708
S'-1.2'
p793
sg54
S'1988-89'
p794
sg711
S'0.5'
p795
sba(isrc.gp1.models.Advanced
Advanced
p796
(dp797
g667
S'9.3'
p798
sg669
S'11.1'
p799
sg671
S'.103'
p800
sg673
S'0.8'
p801
sg675
S'20.5'
p802
sg677
S'16.6'
p803
sg679
S'0.7'
p804
sg20
g21
sg681
S'0.4'
p805
sg683
S'.499'
p806
sg685
S'24.9'
p807
sg687
S'.454'
p808
sg689
S'.037'
p809
sg26
S'NBA'
p810
sg692
S'-2.0'
p811
sg694
S'6.4'
p812
sg696
S'2.8'
p813
sg38
S'28'
p814
sg40
S'NJN'
p815
sg42
S'68'
p816
sg701
S'3.3'
p817
sg703
S'16.2'
p818
sg705
S'1.9'
p819
sg62
S'2207'
p820
sg708
S'-1.2'
p821
sg54
S'1989-90'
p822
sg711
S'4.7'
p823
sba(isrc.gp1.models.Advanced
Advanced
p824
(dp825
g667
S'9.3'
p826
sg669
S'14.6'
p827
sg671
S'.066'
p828
sg673
S'1.1'
p829
sg675
S'20.3'
p830
sg677
S'13.1'
p831
sg679
S'1.2'
p832
sg20
g21
sg681
S'0.7'
p833
sg683
S'.486'
p834
sg685
S'17.3'
p835
sg687
S'.320'
p836
sg689
S'.030'
p837
sg26
S'NBA'
p838
sg692
S'-1.8'
p839
sg694
S'11.4'
p840
sg696
S'2.2'
p841
sg38
S'29'
p842
sg40
S'NJN'
p843
sg42
S'62'
p844
sg701
S'2.8'
p845
sg703
S'14.1'
p846
sg705
S'0.4'
p847
sg62
S'1916'
p848
sg708
S'-0.6'
p849
sg54
S'1990-91'
p850
sg711
S'2.6'
p851
sba(isrc.gp1.models.Advanced
Advanced
p852
(dp853
g667
S'9.5'
p854
sg669
S'12.3'
p855
sg671
S'.101'
p856
sg673
S'0.9'
p857
sg675
S'22.5'
p858
sg677
S'14.0'
p859
sg679
S'0.7'
p860
sg20
g21
sg681
S'1.1'
p861
sg683
S'.496'
p862
sg685
S'18.9'
p863
sg687
S'.296'
p864
sg689
S'.026'
p865
sg26
S'NBA'
p866
sg692
S'-0.7'
p867
sg694
S'12.5'
p868
sg696
S'2.4'
p869
sg38
S'30'
p870
sg40
S'NJN'
p871
sg42
S'71'
p872
sg701
S'3.3'
p873
sg703
S'16.4'
p874
sg705
S'2.2'
p875
sg62
S'2179'
p876
sg708
S'0.0'
p877
sg54
S'1991-92'
p878
sg711
S'4.6'
p879
sba(isrc.gp1.models.Advanced
Advanced
p880
(dp881
g667
S'8.2'
p882
sg669
S'14.3'
p883
sg671
S'.098'
p884
sg673
S'0.8'
p885
sg675
S'16.8'
p886
sg677
S'14.5'
p887
sg679
S'2.5'
p888
sg20
g21
sg681
S'1.0'
p889
sg683
S'.500'
p890
sg685
S'20.9'
p891
sg687
S'.284'
p892
sg689
S'.009'
p893
sg26
S'NBA'
p894
sg692
S'-2.5'
p895
sg694
S'8.8'
p896
sg696
S'3.3'
p897
sg38
S'31'
p898
sg40
S'NJN'
p899
sg42
S'79'
p900
sg701
S'3.8'
p901
sg703
S'13.2'
p902
sg705
S'0.9'
p903
sg62
S'2092'
p904
sg708
S'0.0'
p905
sg54
S'1992-93'
p906
sg711
S'4.3'
p907
sba(isrc.gp1.models.Advanced
Advanced
p908
(dp909
g667
S'5.1'
p910
sg669
S'17.1'
p911
sg671
S'.073'
p912
sg673
S'0.4'
p913
sg675
S'19.1'
p914
sg677
S'12.8'
p915
sg679
S'0.0'
p916
sg20
g21
sg681
S'-0.1'
p917
sg683
S'.535'
p918
sg685
S'21.2'
p919
sg687
S'.483'
p920
sg689
S'.023'
p921
sg26
S'NBA'
p922
sg692
S'-3.0'
p923
sg694
S'12.1'
p924
sg696
S'0.4'
p925
sg38
S'32'
p926
sg40
S'LAL'
p927
sg42
S'25'
p928
sg701
S'3.2'
p929
sg703
S'13.6'
p930
sg705
S'0.4'
p931
sg62
S'556'
p932
sg708
S'-3.1'
p933
sg54
S'1993-94'
p934
sg711
S'0.8'
p935
sba(isrc.gp1.models.Advanced
Advanced
p936
(dp937
g667
S'6.5'
p938
sg669
S'22.9'
p939
sg671
S'.044'
p940
sg673
S'0.9'
p941
sg675
S'14.0'
p942
sg677
S'13.0'
p943
sg679
S'2.3'
p944
sg20
g21
sg681
S'0.0'
p945
sg683
S'.500'
p946
sg685
S'19.5'
p947
sg687
S'.333'
p948
sg689
S'.041'
p949
sg26
S'NBA'
p950
sg692
S'-4.2'
p951
sg694
S'13.2'
p952
sg696
S'1.4'
p953
sg38
S'33'
p954
sg40
S'LAL'
p955
sg42
S'67'
p956
sg701
S'4.5'
p957
sg703
S'10.4'
p958
sg705
S'-0.3'
p959
sg62
S'1225'
p960
sg708
S'-1.9'
p961
sg54
S'1994-95'
p962
sg711
S'1.1'
p963
sbasS'_per36Minutes'
p964
(lp965
(isrc.gp1.models.Per36Minutes
Per36Minutes
p966
(dp967
g8
S'3.4'
p968
sg10
S'0.0'
p969
sg12
S'.537'
p970
sg14
S'3.5'
p971
sg16
g3
sg17
S'0.0'
p972
sg18
S'12.3'
p973
sg20
g21
sg22
S'.711'
p974
sg26
S'NBA'
p975
sg28
S'0.9'
p976
sg30
S'9.0'
p977
sg32
S'4.5'
p978
sg34
S'3.7'
p979
sg36
S'10.7'
p980
sg38
S'23'
p981
sg40
S'POR'
p982
sg42
S'76'
p983
sg44
S'3.3'
p984
sg46
S'4.9'
p985
sg48
S'2.6'
p986
sg50
S'9.0'
p987
sg52
S'7.3'
p988
sg54
S'1984-85'
p989
sg56
S'4.9'
p990
sg58
S'2.8'
p991
sg60
S'.537'
p992
sg62
S'2216'
p993
sg64
S'62'
p994
sba(isrc.gp1.models.Per36Minutes
Per36Minutes
p995
(dp996
g8
S'3.0'
p997
sg10
S'0.0'
p998
sg12
S'.484'
p999
sg14
S'3.1'
p1000
sg16
g3
sg17
S'0.0'
p1001
sg18
S'14.2'
p1002
sg20
g21
sg22
S'.708'
p1003
sg26
S'NBA'
p1004
sg28
S'0.7'
p1005
sg30
S'11.0'
p1006
sg32
S'4.5'
p1007
sg34
S'5.1'
p1008
sg36
S'10.4'
p1009
sg38
S'24'
p1010
sg40
S'POR'
p1011
sg42
S'38'
p1012
sg44
S'3.1'
p1013
sg46
S'5.3'
p1014
sg48
S'3.6'
p1015
sg50
S'11.0'
p1016
sg52
S'7.4'
p1017
sg54
S'1985-86'
p1018
sg56
S'5.3'
p1019
sg58
S'2.8'
p1020
sg60
S'.484'
p1021
sg62
S'1132'
p1022
sg64
S'34'
p1023
sba(isrc.gp1.models.Per36Minutes
Per36Minutes
p1024
(dp1025
g8
S'3.1'
p1026
sg10
S'0.0'
p1027
sg12
S'.455'
p1028
sg14
S'2.0'
p1029
sg16
g3
sg17
S'0.0'
p1030
sg18
S'17.7'
p1031
sg20
g21
sg22
S'.667'
p1032
sg26
S'NBA'
p1033
sg28
S'0.2'
p1034
sg30
S'14.6'
p1035
sg32
S'4.2'
p1036
sg34
S'6.6'
p1037
sg36
S'7.3'
p1038
sg38
S'25'
p1039
sg40
S'POR'
p1040
sg42
g110
sg44
S'2.2'
p1041
sg46
S'6.6'
p1042
sg48
S'4.4'
p1043
sg50
S'14.6'
p1044
sg52
S'4.2'
p1045
sg54
S'1986-87'
p1046
sg56
S'6.6'
p1047
sg58
S'3.3'
p1048
sg60
S'.455'
p1049
sg62
S'163'
p1050
sg64
g110
sba(isrc.gp1.models.Per36Minutes
Per36Minutes
p1051
(dp1052
g8
S'3.1'
p1053
sg10
S'0.6'
p1054
sg12
S'.451'
p1055
sg14
S'3.1'
p1056
sg16
S'.714'
p1057
sg17
S'0.4'
p1058
sg18
S'14.9'
p1059
sg20
g21
sg22
S'.571'
p1060
sg26
S'NBA'
p1061
sg28
S'0.6'
p1062
sg30
S'13.4'
p1063
sg32
S'3.8'
p1064
sg34
S'4.3'
p1065
sg36
S'9.3'
p1066
sg38
S'27'
p1067
sg40
S'POR'
p1068
sg42
S'20'
p1069
sg44
S'2.9'
p1070
sg46
S'5.6'
p1071
sg48
S'2.4'
p1072
sg50
S'12.8'
p1073
sg52
S'6.1'
p1074
sg54
S'1988-89'
p1075
sg56
S'6.0'
p1076
sg58
S'2.9'
p1077
sg60
S'.438'
p1078
sg62
S'412'
p1079
sg64
g11
sba(isrc.gp1.models.Per36Minutes
Per36Minutes
p1080
(dp1081
g8
S'3.4'
p1082
sg10
S'0.5'
p1083
sg12
S'.416'
p1084
sg14
S'1.5'
p1085
sg16
S'.323'
p1086
sg17
S'0.2'
p1087
sg18
S'16.3'
p1088
sg20
g21
sg22
S'.776'
p1089
sg26
S'NBA'
p1090
sg28
S'0.6'
p1091
sg30
S'13.6'
p1092
sg32
S'3.4'
p1093
sg34
S'6.2'
p1094
sg36
S'11.3'
p1095
sg38
S'28'
p1096
sg40
S'NJN'
p1097
sg42
S'68'
p1098
sg44
S'2.0'
p1099
sg46
S'5.5'
p1100
sg48
S'4.8'
p1101
sg50
S'13.1'
p1102
sg52
S'7.9'
p1103
sg54
S'1989-90'
p1104
sg56
S'5.7'
p1105
sg58
S'2.0'
p1106
sg60
S'.420'
p1107
sg62
S'2207'
p1108
sg64
S'54'
p1109
sba(isrc.gp1.models.Per36Minutes
Per36Minutes
p1110
(dp1111
g8
S'3.3'
p1112
sg10
S'0.4'
p1113
sg12
S'.434'
p1114
sg14
S'2.8'
p1115
sg16
S'.182'
p1116
sg17
S'0.1'
p1117
sg18
S'15.1'
p1118
sg20
g21
sg22
S'.732'
p1119
sg26
S'NBA'
p1120
sg28
S'0.8'
p1121
sg30
S'13.6'
p1122
sg32
S'3.3'
p1123
sg34
S'4.3'
p1124
sg36
S'9.0'
p1125
sg38
S'29'
p1126
sg40
S'NJN'
p1127
sg42
S'62'
p1128
sg44
S'1.7'
p1129
sg46
S'5.8'
p1130
sg48
S'3.2'
p1131
sg50
S'13.2'
p1132
sg52
S'5.7'
p1133
sg54
S'1990-91'
p1134
sg56
S'5.9'
p1135
sg58
S'2.6'
p1136
sg60
S'.442'
p1137
sg62
S'1916'
p1138
sg64
S'51'
p1139
sba(isrc.gp1.models.Per36Minutes
Per36Minutes
p1140
(dp1141
g8
S'3.4'
p1142
sg10
S'0.4'
p1143
sg12
S'.445'
p1144
sg14
S'3.1'
p1145
sg16
S'.320'
p1146
sg17
S'0.1'
p1147
sg18
S'17.5'
p1148
sg20
g21
sg22
S'.757'
p1149
sg26
S'NBA'
p1150
sg28
S'0.7'
p1151
sg30
S'15.6'
p1152
sg32
S'3.5'
p1153
sg34
S'4.6'
p1154
sg36
S'9.5'
p1155
sg38
S'30'
p1156
sg40
S'NJN'
p1157
sg42
S'71'
p1158
sg44
S'2.0'
p1159
sg46
S'6.8'
p1160
sg48
S'3.5'
p1161
sg50
S'15.2'
p1162
sg52
S'6.2'
p1163
sg54
S'1991-92'
p1164
sg56
S'7.0'
p1165
sg58
S'2.5'
p1166
sg60
S'.448'
p1167
sg62
S'2179'
p1168
sg64
S'61'
p1169
sba(isrc.gp1.models.Per36Minutes
Per36Minutes
p1170
(dp1171
g8
S'2.7'
p1172
sg10
S'0.1'
p1173
sg12
S'.450'
p1174
sg14
S'2.2'
p1175
sg16
S'.333'
p1176
sg17
S'0.0'
p1177
sg18
S'12.3'
p1178
sg20
g21
sg22
S'.779'
p1179
sg26
S'NBA'
p1180
sg28
S'0.6'
p1181
sg30
S'11.0'
p1182
sg32
S'3.9'
p1183
sg34
S'3.1'
p1184
sg36
S'9.6'
p1185
sg38
S'31'
p1186
sg40
S'NJN'
p1187
sg42
S'79'
p1188
sg44
S'2.2'
p1189
sg46
S'4.9'
p1190
sg48
S'2.4'
p1191
sg50
S'10.9'
p1192
sg52
S'6.8'
p1193
sg54
S'1992-93'
p1194
sg56
S'4.9'
p1195
sg58
S'2.1'
p1196
sg60
S'.451'
p1197
sg62
S'2092'
p1198
sg64
S'65'
p1199
sba(isrc.gp1.models.Per36Minutes
Per36Minutes
p1200
(dp1201
g8
S'1.7'
p1202
sg10
S'0.3'
p1203
sg12
S'.436'
p1204
sg14
S'3.0'
p1205
sg16
S'.250'
p1206
sg17
S'0.1'
p1207
sg18
S'14.4'
p1208
sg20
g21
sg22
S'.867'
p1209
sg26
S'NBA'
p1210
sg28
S'0.3'
p1211
sg30
S'11.1'
p1212
sg32
S'4.2'
p1213
sg34
S'5.4'
p1214
sg36
S'8.5'
p1215
sg38
S'32'
p1216
sg40
S'LAL'
p1217
sg42
S'25'
p1218
sg44
S'1.8'
p1219
sg46
S'4.8'
p1220
sg48
S'4.7'
p1221
sg50
S'10.9'
p1222
sg52
S'6.7'
p1223
sg54
S'1993-94'
p1224
sg56
S'4.9'
p1225
sg58
S'2.8'
p1226
sg60
S'.440'
p1227
sg62
S'556'
p1228
sg64
g129
sba(isrc.gp1.models.Per36Minutes
Per36Minutes
p1229
(dp1230
g8
S'2.1'
p1231
sg10
S'0.3'
p1232
sg12
S'.442'
p1233
sg14
S'3.5'
p1234
sg16
S'.182'
p1235
sg17
S'0.1'
p1236
sg18
S'9.0'
p1237
sg20
g21
sg22
S'.764'
p1238
sg26
S'NBA'
p1239
sg28
S'0.6'
p1240
sg30
S'7.8'
p1241
sg32
S'5.3'
p1242
sg34
S'2.6'
p1243
sg36
S'8.5'
p1244
sg38
S'33'
p1245
sg40
S'LAL'
p1246
sg42
S'67'
p1247
sg44
S'2.4'
p1248
sg46
S'3.4'
p1249
sg48
S'2.0'
p1250
sg50
S'7.5'
p1251
sg52
S'6.3'
p1252
sg54
S'1994-95'
p1253
sg56
S'3.5'
p1254
sg58
S'2.7'
p1255
sg60
S'.453'
p1256
sg62
S'1225'
p1257
sg64
S'10'
p1258
sbasS'_fromYear'
p1259
S'1985'
p1260
sS'_url'
p1261
S'http://www.basketball-reference.com/players/b/bowiesa01.html'
p1262
sS'_perGame'
p1263
(isrc.gp1.models.PerGame
PerGame
p1264
(dp1265
g8
S'1.1'
p1266
sg10
S'0.2'
p1267
sg12
S'.442'
p1268
sS'_effectiveFieldGalPercentage'
p1269
S'.446'
p1270
sg14
S'1.8'
p1271
sg16
S'.182'
p1272
sg17
S'0.0'
p1273
sg18
S'4.6'
p1274
sg20
g21
sg22
S'.764'
p1275
sg26
S'NBA'
p1276
sg28
S'0.3'
p1277
sg32
S'2.7'
p1278
sS'_fieldGoalsttempted'
p1279
S'4.0'
p1280
sg34
S'1.3'
p1281
sg36
S'4.3'
p1282
sg38
S'33'
p1283
sg40
S'LAL'
p1284
sg42
S'67'
p1285
sg44
S'1.2'
p1286
sg46
S'1.7'
p1287
sg48
S'1.0'
p1288
sg50
S'3.8'
p1289
sg52
S'3.2'
p1290
sg54
S'1994-95'
p1291
sg56
S'1.8'
p1292
sg58
S'1.4'
p1293
sg60
S'.453'
p1294
sg62
S'18.3'
p1295
sg64
S'10'
p1296
sbsS'_weight'
p1297
S'235'
p1298
sS'_dob'
p1299
S'17-3-1961'
p1300
sS'_salary'
p1301
(lp1302
(isrc.gp1.models.Salary
Salary
p1303
(dp1304
g40
S'Portland Trail Blazers'
p1305
sg26
S'NBA'
p1306
sg1301
S'$400,000'
p1307
sg54
S'1985-86'
p1308
sba(isrc.gp1.models.Salary
Salary
p1309
(dp1310
g40
S'Portland Trail Blazers'
p1311
sg26
S'NBA'
p1312
sg1301
S'$1,055,000'
p1313
sg54
S'1987-88'
p1314
sba(isrc.gp1.models.Salary
Salary
p1315
(dp1316
g40
S'Portland Trail Blazers'
p1317
sg26
S'NBA'
p1318
sg1301
S'$1,080,000'
p1319
sg54
S'1988-89'
p1320
sba(isrc.gp1.models.Salary
Salary
p1321
(dp1322
g40
S'New Jersey Nets'
p1323
sg26
S'NBA'
p1324
sg1301
S'$2,000,000'
p1325
sg54
S'1990-91'
p1326
sba(isrc.gp1.models.Salary
Salary
p1327
(dp1328
g40
S'New Jersey Nets'
p1329
sg26
S'NBA'
p1330
sg1301
S'$2,000,000'
p1331
sg54
S'1991-92'
p1332
sba(isrc.gp1.models.Salary
Salary
p1333
(dp1334
g40
S'New Jersey Nets'
p1335
sg26
S'NBA'
p1336
sg1301
S'$2,600,000'
p1337
sg54
S'1992-93'
p1338
sba(isrc.gp1.models.Salary
Salary
p1339
(dp1340
g40
S'Los Angeles Lakers'
p1341
sg26
S'NBA'
p1342
sg1301
S'$3,200,000'
p1343
sg54
S'1993-94'
p1344
sba(isrc.gp1.models.Salary
Salary
p1345
(dp1346
g40
S'Los Angeles Lakers'
p1347
sg26
S'NBA'
p1348
sg1301
S'$3,200,000'
p1349
sg54
S'1994-95'
p1350
sbasg20
S'C-F'
p1351
sb.