(isrc.gp1.models.Player
Player
p0
(dp1
S'_experience'
p2
S'NA'
p3
sS'_totals'
p4
(lp5
(isrc.gp1.models.Totals
Totals
p6
(dp7
S'_offensiveRebounds'
p8
S'25'
p9
sS'_threePointsAttempted'
p10
S'5'
p11
sS'_fieldGoalsPercentage'
p12
S'.500'
p13
sS'_assist'
p14
S'29'
p15
sS'_threePointsPercentage'
p16
S'.200'
p17
sS'_threePoints'
p18
S'1'
p19
sS'_points'
p20
S'155'
p21
sS'_position'
p22
S'SG'
p23
sS'_freeThrowsPercentage'
p24
S'.667'
p25
sS'_effectiveFieldGoalPercentage'
p26
S'.503'
p27
sS'_league'
p28
S'NBA'
p29
sS'_steals'
p30
S'18'
p31
sS'_fieldGoalsAttempted'
p32
S'144'
p33
sS'_personalFouls'
p34
S'43'
p35
sS'_freeThrowsAttempted'
p36
S'15'
p37
sS'_totalRebounds'
p38
S'56'
p39
sS'_age'
p40
S'25'
p41
sS'_team'
p42
S'SAS'
p43
sS'_games'
p44
S'18'
p45
sS'_blocks'
p46
S'4'
p47
sS'_twoPoints'
p48
S'71'
p49
sS'_freeThrows'
p50
S'10'
p51
sS'_twoPointsAttempted'
p52
S'139'
p53
sS'_defensiveRebounds'
p54
S'31'
p55
sS'_season'
p56
S'1988-89'
p57
sS'_fieldGoals'
p58
S'72'
p59
sS'_turnOvers'
p60
S'22'
p61
sS'_twoPointsPercentage'
p62
S'.511'
p63
sS'_minutesPlayed'
p64
S'438'
p65
sS'_gamesStarted'
p66
g11
sba(isrc.gp1.models.Totals
Totals
p67
(dp68
g8
S'36'
p69
sg10
S'21'
p70
sg12
S'.406'
p71
sg14
S'96'
p72
sg16
S'.286'
p73
sg18
S'6'
p74
sg20
S'284'
p75
sg22
S'SG'
p76
sg24
S'.741'
p77
sg26
S'.416'
p78
sg28
S'NBA'
p79
sg30
S'42'
p80
sg32
S'293'
p81
sg34
S'80'
p82
sg36
S'54'
p83
sg38
S'118'
p84
sg40
S'26'
p85
sg42
S'HOU'
p86
sg44
S'66'
p87
sg46
g11
sg48
S'113'
p88
sg50
S'40'
p89
sg52
S'272'
p90
sg54
S'82'
p91
sg56
S'1989-90'
p92
sg58
S'119'
p93
sg60
S'59'
p94
sg62
S'.415'
p95
sg64
S'918'
p96
sg66
S'0'
p97
sba(isrc.gp1.models.Totals
Totals
p98
(dp99
g8
g3
sg10
g3
sg12
g3
sg14
g3
sg16
g3
sg18
g3
sg20
g3
sg22
g3
sg24
g3
sg26
g3
sg28
g3
sg30
g3
sg32
g3
sg34
g3
sg36
g3
sg38
g3
sg40
S'27'
p100
sg42
S'Did Not Play\xc2\xa0(other pro league\xe2\x80\x94Italy)'
p101
sg44
g3
sg46
g3
sg48
g3
sg50
g3
sg52
g3
sg54
g3
sg56
S'1990-91'
p102
sg58
g3
sg60
g3
sg62
g3
sg64
g3
sg66
g3
sba(isrc.gp1.models.Totals
Totals
p103
(dp104
g8
S'70'
p105
sg10
S'44'
p106
sg12
S'.493'
p107
sg14
S'163'
p108
sg16
S'.386'
p109
sg18
S'17'
p110
sg20
S'758'
p111
sg22
S'SG'
p112
sg24
S'.860'
p113
sg26
S'.506'
p114
sg28
S'NBA'
p115
sg30
S'55'
p116
sg32
S'633'
p117
sg34
S'101'
p118
sg36
S'136'
p119
sg38
S'245'
p120
sg40
S'28'
p121
sg42
S'ORL'
p122
sg44
S'52'
p123
sg46
S'38'
p124
sg48
S'295'
p125
sg50
S'117'
p126
sg52
S'589'
p127
sg54
S'175'
p128
sg56
S'1991-92'
p129
sg58
S'312'
p130
sg60
S'107'
p131
sg62
S'.501'
p132
sg64
S'1721'
p133
sg66
S'26'
p134
sba(isrc.gp1.models.Totals
Totals
p135
(dp136
g8
S'36'
p137
sg10
S'48'
p138
sg12
S'.471'
p139
sg14
S'175'
p140
sg16
S'.313'
p141
sg18
S'15'
p142
sg20
S'618'
p143
sg22
S'SG'
p144
sg24
S'.798'
p145
sg26
S'.484'
p146
sg28
S'NBA'
p147
sg30
S'54'
p148
sg32
S'569'
p149
sg34
S'131'
p150
sg36
S'84'
p151
sg38
S'194'
p152
sg40
S'29'
p153
sg42
S'ORL'
p154
sg44
S'77'
p155
sg46
S'14'
p156
sg48
S'253'
p157
sg50
S'67'
p158
sg52
S'521'
p159
sg54
S'158'
p160
sg56
S'1992-93'
p161
sg58
S'268'
p162
sg60
S'84'
p163
sg62
S'.486'
p164
sg64
S'1761'
p165
sg66
S'45'
p166
sba(isrc.gp1.models.Totals
Totals
p167
(dp168
g8
S'29'
p169
sg10
S'18'
p170
sg12
S'.481'
p171
sg14
S'102'
p172
sg16
S'.056'
p173
sg18
g19
sg20
S'320'
p174
sg22
S'SG'
p175
sg24
S'.837'
p176
sg26
S'.483'
p177
sg28
S'NBA'
p178
sg30
S'32'
p179
sg32
S'289'
p180
sg34
S'81'
p181
sg36
S'49'
p182
sg38
S'120'
p183
sg40
S'30'
p184
sg42
S'ORL'
p185
sg44
S'70'
p186
sg46
S'12'
p187
sg48
S'138'
p188
sg50
S'41'
p189
sg52
S'271'
p190
sg54
S'91'
p191
sg56
S'1993-94'
p192
sg58
S'139'
p193
sg60
S'58'
p194
sg62
S'.509'
p195
sg64
S'948'
p196
sg66
g97
sba(isrc.gp1.models.Totals
Totals
p197
(dp198
g8
S'54'
p199
sg10
S'40'
p200
sg12
S'.480'
p201
sg14
S'159'
p202
sg16
S'.300'
p203
sg18
S'12'
p204
sg20
S'427'
p205
sg22
S'SG'
p206
sg24
S'.836'
p207
sg26
S'.496'
p208
sg28
S'NBA'
p209
sg30
S'47'
p210
sg32
S'369'
p211
sg34
S'138'
p212
sg36
S'73'
p213
sg38
S'139'
p214
sg40
S'31'
p215
sg42
S'ORL'
p216
sg44
S'77'
p217
sg46
S'21'
p218
sg48
S'165'
p219
sg50
S'61'
p220
sg52
S'329'
p221
sg54
S'85'
p222
sg56
S'1994-95'
p223
sg58
S'177'
p224
sg60
S'86'
p225
sg62
S'.502'
p226
sg64
S'1261'
p227
sg66
g47
sba(isrc.gp1.models.Totals
Totals
p228
(dp229
g8
S'40'
p230
sg10
S'31'
p231
sg12
S'.471'
p232
sg14
S'105'
p233
sg16
S'.387'
p234
sg18
S'12'
p235
sg20
S'308'
p236
sg22
S'SG'
p237
sg24
S'.870'
p238
sg26
S'.493'
p239
sg28
S'NBA'
p240
sg30
S'34'
p241
sg32
S'272'
p242
sg34
S'112'
p243
sg36
S'46'
p244
sg38
S'123'
p245
sg40
S'32'
p246
sg42
S'ORL'
p247
sg44
S'74'
p248
sg46
S'10'
p249
sg48
S'116'
p250
sg50
S'40'
p251
sg52
S'241'
p252
sg54
S'83'
p253
sg56
S'1995-96'
p254
sg58
S'128'
p255
sg60
S'55'
p256
sg62
S'.481'
p257
sg64
S'1078'
p258
sg66
g47
sba(isrc.gp1.models.Totals
Totals
p259
(dp260
g8
g3
sg10
g3
sg12
g3
sg14
g3
sg16
g3
sg18
g3
sg20
g3
sg22
g3
sg24
g3
sg26
g3
sg28
g3
sg30
g3
sg32
g3
sg34
g3
sg36
g3
sg38
g3
sg40
S'33'
p261
sg42
S'Did Not Play\xc2\xa0(other pro league\xe2\x80\x94Italy)'
p262
sg44
g3
sg46
g3
sg48
g3
sg50
g3
sg52
g3
sg54
g3
sg56
S'1996-97'
p263
sg58
g3
sg60
g3
sg62
g3
sg64
g3
sg66
g3
sba(isrc.gp1.models.Totals
Totals
p264
(dp265
g8
S'9'
p266
sg10
g47
sg12
S'.542'
p267
sg14
S'11'
p268
sg16
S'.750'
p269
sg18
S'3'
p270
sg20
S'75'
p271
sg22
S'SG'
p272
sg24
S'.889'
p273
sg26
S'.568'
p274
sg28
S'NBA'
p275
sg30
g74
sg32
S'59'
p276
sg34
S'25'
p277
sg36
g266
sg38
S'26'
p278
sg40
S'34'
p279
sg42
S'NYK'
p280
sg44
S'27'
p281
sg46
S'2'
p282
sg48
S'29'
p283
sg50
S'8'
p284
sg52
S'55'
p285
sg54
S'17'
p286
sg56
S'1997-98'
p287
sg58
S'32'
p288
sg60
S'7'
p289
sg62
S'.527'
p290
sg64
S'224'
p291
sg66
g270
sbasS'_college'
p292
S'University of Oklahoma'
p293
sS'_toYear'
p294
S'1998'
p295
sS'_height'
p296
S'6-6'
p297
sS'_active'
p298
I00
sS'_shootingHand'
p299
VRight
p300
sS'_name'
p301
S'Anthony Bowie'
p302
sS'_per100Possessions'
p303
(lp304
(isrc.gp1.models.Per100Possession
Per100Possession
p305
(dp306
g8
S'2.6'
p307
sg10
S'0.5'
p308
sg12
S'.500'
p309
sS'_offensiveRating'
p310
S'104'
p311
sg14
S'3.1'
p312
sg16
S'.200'
p313
sg18
S'0.1'
p314
sg20
S'16.3'
p315
sg22
S'SG'
p316
sS'_defensiveRating'
p317
S'111'
p318
sg24
S'.667'
p319
sg28
S'NBA'
p320
sg30
S'1.9'
p321
sg32
S'15.2'
p322
sg34
S'4.5'
p323
sg36
S'1.6'
p324
sg38
S'5.9'
p325
sg40
S'25'
p326
sg42
S'SAS'
p327
sg44
S'18'
p328
sg46
S'0.4'
p329
sg48
S'7.5'
p330
sg50
S'1.1'
p331
sg52
S'14.6'
p332
sg54
S'3.3'
p333
sg56
S'1988-89'
p334
sg58
S'7.6'
p335
sg60
S'2.3'
p336
sg62
S'.511'
p337
sg64
S'438'
p338
sg66
g11
sba(isrc.gp1.models.Per100Possession
Per100Possession
p339
(dp340
g8
S'1.9'
p341
sg10
S'1.1'
p342
sg12
S'.406'
p343
sg310
S'93'
p344
sg14
S'5.0'
p345
sg16
S'.286'
p346
sg18
S'0.3'
p347
sg20
S'14.7'
p348
sg22
S'SG'
p349
sg317
S'105'
p350
sg24
S'.741'
p351
sg28
S'NBA'
p352
sg30
S'2.2'
p353
sg32
S'15.1'
p354
sg34
S'4.1'
p355
sg36
S'2.8'
p356
sg38
S'6.1'
p357
sg40
S'26'
p358
sg42
S'HOU'
p359
sg44
S'66'
p360
sg46
S'0.3'
p361
sg48
S'5.8'
p362
sg50
S'2.1'
p363
sg52
S'14.1'
p364
sg54
S'4.2'
p365
sg56
S'1989-90'
p366
sg58
S'6.2'
p367
sg60
S'3.0'
p368
sg62
S'.415'
p369
sg64
S'918'
p370
sg66
g97
sba(isrc.gp1.models.Per100Possession
Per100Possession
p371
(dp372
g8
S'2.0'
p373
sg10
S'1.3'
p374
sg12
S'.493'
p375
sg310
S'109'
p376
sg14
S'4.6'
p377
sg16
S'.386'
p378
sg18
S'0.5'
p379
sg20
S'21.6'
p380
sg22
S'SG'
p381
sg317
S'111'
p382
sg24
S'.860'
p383
sg28
S'NBA'
p384
sg30
S'1.6'
p385
sg32
S'18.0'
p386
sg34
S'2.9'
p387
sg36
S'3.9'
p388
sg38
S'7.0'
p389
sg40
S'28'
p390
sg42
S'ORL'
p391
sg44
S'52'
p392
sg46
S'1.1'
p393
sg48
S'8.4'
p394
sg50
S'3.3'
p395
sg52
S'16.8'
p396
sg54
S'5.0'
p397
sg56
S'1991-92'
p398
sg58
S'8.9'
p399
sg60
S'3.0'
p400
sg62
S'.501'
p401
sg64
S'1721'
p402
sg66
S'26'
p403
sba(isrc.gp1.models.Per100Possession
Per100Possession
p404
(dp405
g8
S'1.0'
p406
sg10
S'1.4'
p407
sg12
S'.471'
p408
sg310
S'105'
p409
sg14
S'5.0'
p410
sg16
S'.313'
p411
sg18
S'0.4'
p412
sg20
S'17.5'
p413
sg22
S'SG'
p414
sg317
S'109'
p415
sg24
S'.798'
p416
sg28
S'NBA'
p417
sg30
S'1.5'
p418
sg32
S'16.1'
p419
sg34
S'3.7'
p420
sg36
S'2.4'
p421
sg38
S'5.5'
p422
sg40
S'29'
p423
sg42
S'ORL'
p424
sg44
S'77'
p425
sg46
S'0.4'
p426
sg48
S'7.2'
p427
sg50
S'1.9'
p428
sg52
S'14.7'
p429
sg54
S'4.5'
p430
sg56
S'1992-93'
p431
sg58
S'7.6'
p432
sg60
S'2.4'
p433
sg62
S'.486'
p434
sg64
S'1761'
p435
sg66
S'45'
p436
sba(isrc.gp1.models.Per100Possession
Per100Possession
p437
(dp438
g8
S'1.5'
p439
sg10
S'1.0'
p440
sg12
S'.481'
p441
sg310
S'104'
p442
sg14
S'5.4'
p443
sg16
S'.056'
p444
sg18
S'0.1'
p445
sg20
S'17.0'
p446
sg22
S'SG'
p447
sg317
S'108'
p448
sg24
S'.837'
p449
sg28
S'NBA'
p450
sg30
S'1.7'
p451
sg32
S'15.4'
p452
sg34
S'4.3'
p453
sg36
S'2.6'
p454
sg38
S'6.4'
p455
sg40
S'30'
p456
sg42
S'ORL'
p457
sg44
S'70'
p458
sg46
S'0.6'
p459
sg48
S'7.3'
p460
sg50
S'2.2'
p461
sg52
S'14.4'
p462
sg54
S'4.8'
p463
sg56
S'1993-94'
p464
sg58
S'7.4'
p465
sg60
S'3.1'
p466
sg62
S'.509'
p467
sg64
S'948'
p468
sg66
g97
sba(isrc.gp1.models.Per100Possession
Per100Possession
p469
(dp470
g8
S'2.2'
p471
sg10
S'1.6'
p472
sg12
S'.480'
p473
sg310
S'107'
p474
sg14
S'6.4'
p475
sg16
S'.300'
p476
sg18
S'0.5'
p477
sg20
S'17.1'
p478
sg22
S'SG'
p479
sg317
S'110'
p480
sg24
S'.836'
p481
sg28
S'NBA'
p482
sg30
S'1.9'
p483
sg32
S'14.8'
p484
sg34
S'5.5'
p485
sg36
S'2.9'
p486
sg38
S'5.6'
p487
sg40
S'31'
p488
sg42
S'ORL'
p489
sg44
S'77'
p490
sg46
S'0.8'
p491
sg48
S'6.6'
p492
sg50
S'2.4'
p493
sg52
S'13.2'
p494
sg54
S'3.4'
p495
sg56
S'1994-95'
p496
sg58
S'7.1'
p497
sg60
S'3.4'
p498
sg62
S'.502'
p499
sg64
S'1261'
p500
sg66
g47
sba(isrc.gp1.models.Per100Possession
Per100Possession
p501
(dp502
g8
S'1.9'
p503
sg10
S'1.5'
p504
sg12
S'.471'
p505
sg310
S'106'
p506
sg14
S'5.1'
p507
sg16
S'.387'
p508
sg18
S'0.6'
p509
sg20
S'14.9'
p510
sg22
S'SG'
p511
sg317
S'109'
p512
sg24
S'.870'
p513
sg28
S'NBA'
p514
sg30
S'1.6'
p515
sg32
S'13.2'
p516
sg34
S'5.4'
p517
sg36
S'2.2'
p518
sg38
S'6.0'
p519
sg40
S'32'
p520
sg42
S'ORL'
p521
sg44
S'74'
p522
sg46
S'0.5'
p523
sg48
S'5.6'
p524
sg50
S'1.9'
p525
sg52
S'11.7'
p526
sg54
S'4.0'
p527
sg56
S'1995-96'
p528
sg58
S'6.2'
p529
sg60
S'2.7'
p530
sg62
S'.481'
p531
sg64
S'1078'
p532
sg66
g47
sba(isrc.gp1.models.Per100Possession
Per100Possession
p533
(dp534
g8
S'2.2'
p535
sg10
S'1.0'
p536
sg12
S'.542'
p537
sg310
S'117'
p538
sg14
S'2.7'
p539
sg16
S'.750'
p540
sg18
S'0.7'
p541
sg20
S'18.2'
p542
sg22
S'SG'
p543
sg317
S'103'
p544
sg24
S'.889'
p545
sg28
S'NBA'
p546
sg30
S'1.5'
p547
sg32
S'14.3'
p548
sg34
S'6.1'
p549
sg36
S'2.2'
p550
sg38
S'6.3'
p551
sg40
S'34'
p552
sg42
S'NYK'
p553
sg44
S'27'
p554
sg46
S'0.5'
p555
sg48
S'7.0'
p556
sg50
S'1.9'
p557
sg52
S'13.4'
p558
sg54
S'4.1'
p559
sg56
S'1997-98'
p560
sg58
S'7.8'
p561
sg60
S'1.7'
p562
sg62
S'.527'
p563
sg64
S'224'
p564
sg66
g270
sbasS'_advanced'
p565
(lp566
(isrc.gp1.models.Advanced
Advanced
p567
(dp568
S'_offensiveReboundPercentage'
p569
S'6.0'
p570
sS'_turnOverPercentage'
p571
S'12.7'
p572
sS'_winSharesPer48Minutes'
p573
S'.054'
p574
sS'_stealPercentage'
p575
S'1.9'
p576
sS'_usagePercentage'
p577
S'15.3'
p578
sS'_totalReboundsPercentage'
p579
S'7.0'
p580
sS'_defensiveBoxPlusMinus'
p581
S'-0.6'
p582
sg22
S'SG'
p583
sS'_valueOverReplacementPlayer'
p584
S'-0.1'
p585
sS'_trueShootingPercentage'
p586
S'.515'
p587
sS'_defensiveReboundPercentage'
p588
S'8.1'
p589
sS'_freeThrowsAttempRate'
p590
S'.104'
p591
sS'_threePointsAttempRate'
p592
S'.035'
p593
sg28
S'NBA'
p594
sS'_offensiveBoxPlusMinues'
p595
S'-1.9'
p596
sS'_assistPercentage'
p597
S'9.3'
p598
sS'_defensiveWinShares'
p599
S'0.3'
p600
sg40
S'25'
p601
sg42
S'SAS'
p602
sg44
S'18'
p603
sS'_blockPercentage'
p604
S'0.5'
p605
sS'_playerEfficiencyRating'
p606
S'10.6'
p607
sS'_offensiveWinShares'
p608
S'0.2'
p609
sg64
S'438'
p610
sS'_boxPlusMinus'
p611
S'-2.5'
p612
sg56
S'1988-89'
p613
sS'_winShares'
p614
S'0.5'
p615
sba(isrc.gp1.models.Advanced
Advanced
p616
(dp617
g569
S'4.2'
p618
sg571
S'15.7'
p619
sg573
S'.037'
p620
sg575
S'2.2'
p621
sg577
S'16.6'
p622
sg579
S'6.8'
p623
sg581
S'0.4'
p624
sg22
S'SG'
p625
sg584
S'-0.4'
p626
sg586
S'.448'
p627
sg588
S'9.3'
p628
sg590
S'.184'
p629
sg592
S'.072'
p630
sg28
S'NBA'
p631
sg595
S'-4.0'
p632
sg597
S'13.9'
p633
sg599
S'1.3'
p634
sg40
S'26'
p635
sg42
S'HOU'
p636
sg44
S'66'
p637
sg604
S'0.3'
p638
sg606
S'8.8'
p639
sg608
S'-0.6'
p640
sg64
S'918'
p641
sg611
S'-3.6'
p642
sg56
S'1989-90'
p643
sg614
S'0.7'
p644
sba(isrc.gp1.models.Advanced
Advanced
p645
(dp646
g569
S'4.4'
p647
sg571
S'13.4'
p648
sg573
S'.082'
p649
sg575
S'1.6'
p650
sg577
S'19.3'
p651
sg579
S'8.0'
p652
sg581
S'0.5'
p653
sg22
S'SG'
p654
sg584
S'1.2'
p655
sg586
S'.547'
p656
sg588
S'11.7'
p657
sg590
S'.215'
p658
sg592
S'.070'
p659
sg28
S'NBA'
p660
sg595
S'0.2'
p661
sg597
S'14.9'
p662
sg599
S'1.1'
p663
sg40
S'28'
p664
sg42
S'ORL'
p665
sg44
S'52'
p666
sg604
S'1.4'
p667
sg606
S'14.7'
p668
sg608
S'1.8'
p669
sg64
S'1721'
p670
sg611
S'0.7'
p671
sg56
S'1991-92'
p672
sg614
S'2.9'
p673
sba(isrc.gp1.models.Advanced
Advanced
p674
(dp675
g569
S'2.5'
p676
sg571
S'12.2'
p677
sg573
S'.069'
p678
sg575
S'1.5'
p679
sg577
S'16.9'
p680
sg579
S'6.2'
p681
sg581
S'-0.1'
p682
sg22
S'SG'
p683
sg584
S'0.2'
p684
sg586
S'.510'
p685
sg588
S'9.6'
p686
sg590
S'.148'
p687
sg592
S'.084'
p688
sg28
S'NBA'
p689
sg595
S'-1.6'
p690
sg597
S'14.9'
p691
sg599
S'1.6'
p692
sg40
S'29'
p693
sg42
S'ORL'
p694
sg44
S'77'
p695
sg604
S'0.5'
p696
sg606
S'11.2'
p697
sg608
S'0.9'
p698
sg64
S'1761'
p699
sg611
S'-1.6'
p700
sg56
S'1992-93'
p701
sg614
S'2.5'
p702
sba(isrc.gp1.models.Advanced
Advanced
p703
(dp704
g569
S'3.5'
p705
sg571
S'15.7'
p706
sg573
S'.065'
p707
sg575
S'1.7'
p708
sg577
S'16.6'
p709
sg579
S'7.1'
p710
sg581
S'-0.7'
p711
sg22
S'SG'
p712
sg584
S'-0.2'
p713
sg586
S'.515'
p714
sg588
S'10.7'
p715
sg590
S'.170'
p716
sg592
S'.062'
p717
sg28
S'NBA'
p718
sg595
S'-2.2'
p719
sg597
S'15.4'
p720
sg599
S'0.7'
p721
sg40
S'30'
p722
sg42
S'ORL'
p723
sg44
S'70'
p724
sg604
S'0.8'
p725
sg606
S'11.5'
p726
sg608
S'0.6'
p727
sg64
S'948'
p728
sg611
S'-2.9'
p729
sg56
S'1993-94'
p730
sg614
S'1.3'
p731
sba(isrc.gp1.models.Advanced
Advanced
p732
(dp733
g569
S'5.1'
p734
sg571
S'17.7'
p735
sg573
S'.077'
p736
sg575
S'1.9'
p737
sg577
S'16.6'
p738
sg579
S'6.3'
p739
sg581
S'-0.7'
p740
sg22
S'SG'
p741
sg584
S'0.0'
p742
sg586
S'.532'
p743
sg588
S'7.5'
p744
sg590
S'.198'
p745
sg592
S'.108'
p746
sg28
S'NBA'
p747
sg595
S'-1.2'
p748
sg597
S'17.3'
p749
sg599
S'1.0'
p750
sg40
S'31'
p751
sg42
S'ORL'
p752
sg44
S'77'
p753
sg604
S'1.1'
p754
sg606
S'11.7'
p755
sg608
S'1.0'
p756
sg64
S'1261'
p757
sg611
S'-2.0'
p758
sg56
S'1994-95'
p759
sg614
S'2.0'
p760
sba(isrc.gp1.models.Advanced
Advanced
p761
(dp762
g569
S'4.4'
p763
sg571
S'15.8'
p764
sg573
S'.071'
p765
sg575
S'1.6'
p766
sg577
S'14.6'
p767
sg579
S'6.6'
p768
sg581
S'-0.7'
p769
sg22
S'SG'
p770
sg584
S'-0.3'
p771
sg586
S'.527'
p772
sg588
S'8.8'
p773
sg590
S'.169'
p774
sg592
S'.114'
p775
sg28
S'NBA'
p776
sg595
S'-2.2'
p777
sg597
S'14.2'
p778
sg599
S'0.9'
p779
sg40
S'32'
p780
sg42
S'ORL'
p781
sg44
S'74'
p782
sg604
S'0.7'
p783
sg606
S'10.4'
p784
sg608
S'0.7'
p785
sg64
S'1078'
p786
sg611
S'-3.0'
p787
sg56
S'1995-96'
p788
sg614
S'1.6'
p789
sba(isrc.gp1.models.Advanced
Advanced
p790
(dp791
g569
S'4.8'
p792
sg571
S'10.0'
p793
sg573
S'.148'
p794
sg575
S'1.5'
p795
sg577
S'14.6'
p796
sg579
S'7.0'
p797
sg581
S'0.2'
p798
sg22
S'SG'
p799
sg584
S'0.1'
p800
sg586
S'.596'
p801
sg588
S'9.2'
p802
sg590
S'.153'
p803
sg592
S'.068'
p804
sg28
S'NBA'
p805
sg595
S'-0.9'
p806
sg597
S'8.5'
p807
sg599
S'0.3'
p808
sg40
S'34'
p809
sg42
S'NYK'
p810
sg44
S'27'
p811
sg604
S'0.7'
p812
sg606
S'12.9'
p813
sg608
S'0.4'
p814
sg64
S'224'
p815
sg611
S'-0.8'
p816
sg56
S'1997-98'
p817
sg614
S'0.7'
p818
sbasS'_per36Minutes'
p819
(lp820
(isrc.gp1.models.Per36Minutes
Per36Minutes
p821
(dp822
g8
S'2.1'
p823
sg10
S'0.4'
p824
sg12
S'.500'
p825
sg14
S'2.4'
p826
sg16
S'.200'
p827
sg18
S'0.1'
p828
sg20
S'12.7'
p829
sg22
S'SG'
p830
sg24
S'.667'
p831
sg28
S'NBA'
p832
sg30
S'1.5'
p833
sg32
S'11.8'
p834
sg34
S'3.5'
p835
sg36
S'1.2'
p836
sg38
S'4.6'
p837
sg40
S'25'
p838
sg42
S'SAS'
p839
sg44
S'18'
p840
sg46
S'0.3'
p841
sg48
S'5.8'
p842
sg50
S'0.8'
p843
sg52
S'11.4'
p844
sg54
S'2.5'
p845
sg56
S'1988-89'
p846
sg58
S'5.9'
p847
sg60
S'1.8'
p848
sg62
S'.511'
p849
sg64
S'438'
p850
sg66
g11
sba(isrc.gp1.models.Per36Minutes
Per36Minutes
p851
(dp852
g8
S'1.4'
p853
sg10
S'0.8'
p854
sg12
S'.406'
p855
sg14
S'3.8'
p856
sg16
S'.286'
p857
sg18
S'0.2'
p858
sg20
S'11.1'
p859
sg22
S'SG'
p860
sg24
S'.741'
p861
sg28
S'NBA'
p862
sg30
S'1.6'
p863
sg32
S'11.5'
p864
sg34
S'3.1'
p865
sg36
S'2.1'
p866
sg38
S'4.6'
p867
sg40
S'26'
p868
sg42
S'HOU'
p869
sg44
S'66'
p870
sg46
S'0.2'
p871
sg48
S'4.4'
p872
sg50
S'1.6'
p873
sg52
S'10.7'
p874
sg54
S'3.2'
p875
sg56
S'1989-90'
p876
sg58
S'4.7'
p877
sg60
S'2.3'
p878
sg62
S'.415'
p879
sg64
S'918'
p880
sg66
g97
sba(isrc.gp1.models.Per36Minutes
Per36Minutes
p881
(dp882
g8
S'1.5'
p883
sg10
S'0.9'
p884
sg12
S'.493'
p885
sg14
S'3.4'
p886
sg16
S'.386'
p887
sg18
S'0.4'
p888
sg20
S'15.9'
p889
sg22
S'SG'
p890
sg24
S'.860'
p891
sg28
S'NBA'
p892
sg30
S'1.2'
p893
sg32
S'13.2'
p894
sg34
S'2.1'
p895
sg36
S'2.8'
p896
sg38
S'5.1'
p897
sg40
S'28'
p898
sg42
S'ORL'
p899
sg44
S'52'
p900
sg46
S'0.8'
p901
sg48
S'6.2'
p902
sg50
S'2.4'
p903
sg52
S'12.3'
p904
sg54
S'3.7'
p905
sg56
S'1991-92'
p906
sg58
S'6.5'
p907
sg60
S'2.2'
p908
sg62
S'.501'
p909
sg64
S'1721'
p910
sg66
S'26'
p911
sba(isrc.gp1.models.Per36Minutes
Per36Minutes
p912
(dp913
g8
S'0.7'
p914
sg10
S'1.0'
p915
sg12
S'.471'
p916
sg14
S'3.6'
p917
sg16
S'.313'
p918
sg18
S'0.3'
p919
sg20
S'12.6'
p920
sg22
S'SG'
p921
sg24
S'.798'
p922
sg28
S'NBA'
p923
sg30
S'1.1'
p924
sg32
S'11.6'
p925
sg34
S'2.7'
p926
sg36
S'1.7'
p927
sg38
S'4.0'
p928
sg40
S'29'
p929
sg42
S'ORL'
p930
sg44
S'77'
p931
sg46
S'0.3'
p932
sg48
S'5.2'
p933
sg50
S'1.4'
p934
sg52
S'10.7'
p935
sg54
S'3.2'
p936
sg56
S'1992-93'
p937
sg58
S'5.5'
p938
sg60
S'1.7'
p939
sg62
S'.486'
p940
sg64
S'1761'
p941
sg66
S'45'
p942
sba(isrc.gp1.models.Per36Minutes
Per36Minutes
p943
(dp944
g8
S'1.1'
p945
sg10
S'0.7'
p946
sg12
S'.481'
p947
sg14
S'3.9'
p948
sg16
S'.056'
p949
sg18
S'0.0'
p950
sg20
S'12.2'
p951
sg22
S'SG'
p952
sg24
S'.837'
p953
sg28
S'NBA'
p954
sg30
S'1.2'
p955
sg32
S'11.0'
p956
sg34
S'3.1'
p957
sg36
S'1.9'
p958
sg38
S'4.6'
p959
sg40
S'30'
p960
sg42
S'ORL'
p961
sg44
S'70'
p962
sg46
S'0.5'
p963
sg48
S'5.2'
p964
sg50
S'1.6'
p965
sg52
S'10.3'
p966
sg54
S'3.5'
p967
sg56
S'1993-94'
p968
sg58
S'5.3'
p969
sg60
S'2.2'
p970
sg62
S'.509'
p971
sg64
S'948'
p972
sg66
g97
sba(isrc.gp1.models.Per36Minutes
Per36Minutes
p973
(dp974
g8
S'1.5'
p975
sg10
S'1.1'
p976
sg12
S'.480'
p977
sg14
S'4.5'
p978
sg16
S'.300'
p979
sg18
S'0.3'
p980
sg20
S'12.2'
p981
sg22
S'SG'
p982
sg24
S'.836'
p983
sg28
S'NBA'
p984
sg30
S'1.3'
p985
sg32
S'10.5'
p986
sg34
S'3.9'
p987
sg36
S'2.1'
p988
sg38
S'4.0'
p989
sg40
S'31'
p990
sg42
S'ORL'
p991
sg44
S'77'
p992
sg46
S'0.6'
p993
sg48
S'4.7'
p994
sg50
S'1.7'
p995
sg52
S'9.4'
p996
sg54
S'2.4'
p997
sg56
S'1994-95'
p998
sg58
S'5.1'
p999
sg60
S'2.5'
p1000
sg62
S'.502'
p1001
sg64
S'1261'
p1002
sg66
g47
sba(isrc.gp1.models.Per36Minutes
Per36Minutes
p1003
(dp1004
g8
S'1.3'
p1005
sg10
S'1.0'
p1006
sg12
S'.471'
p1007
sg14
S'3.5'
p1008
sg16
S'.387'
p1009
sg18
S'0.4'
p1010
sg20
S'10.3'
p1011
sg22
S'SG'
p1012
sg24
S'.870'
p1013
sg28
S'NBA'
p1014
sg30
S'1.1'
p1015
sg32
S'9.1'
p1016
sg34
S'3.7'
p1017
sg36
S'1.5'
p1018
sg38
S'4.1'
p1019
sg40
S'32'
p1020
sg42
S'ORL'
p1021
sg44
S'74'
p1022
sg46
S'0.3'
p1023
sg48
S'3.9'
p1024
sg50
S'1.3'
p1025
sg52
S'8.0'
p1026
sg54
S'2.8'
p1027
sg56
S'1995-96'
p1028
sg58
S'4.3'
p1029
sg60
S'1.8'
p1030
sg62
S'.481'
p1031
sg64
S'1078'
p1032
sg66
g47
sba(isrc.gp1.models.Per36Minutes
Per36Minutes
p1033
(dp1034
g8
S'1.4'
p1035
sg10
S'0.6'
p1036
sg12
S'.542'
p1037
sg14
S'1.8'
p1038
sg16
S'.750'
p1039
sg18
S'0.5'
p1040
sg20
S'12.1'
p1041
sg22
S'SG'
p1042
sg24
S'.889'
p1043
sg28
S'NBA'
p1044
sg30
S'1.0'
p1045
sg32
S'9.5'
p1046
sg34
S'4.0'
p1047
sg36
S'1.4'
p1048
sg38
S'4.2'
p1049
sg40
S'34'
p1050
sg42
S'NYK'
p1051
sg44
S'27'
p1052
sg46
S'0.3'
p1053
sg48
S'4.7'
p1054
sg50
S'1.3'
p1055
sg52
S'8.8'
p1056
sg54
S'2.7'
p1057
sg56
S'1997-98'
p1058
sg58
S'5.1'
p1059
sg60
S'1.1'
p1060
sg62
S'.527'
p1061
sg64
S'224'
p1062
sg66
g270
sbasS'_fromYear'
p1063
S'1989'
p1064
sS'_url'
p1065
S'http://www.basketball-reference.com/players/b/bowiean01.html'
p1066
sS'_perGame'
p1067
(isrc.gp1.models.PerGame
PerGame
p1068
(dp1069
g8
S'0.3'
p1070
sg10
S'0.1'
p1071
sg12
S'.542'
p1072
sS'_effectiveFieldGalPercentage'
p1073
S'.568'
p1074
sg14
S'0.4'
p1075
sg16
S'.750'
p1076
sg18
S'0.1'
p1077
sg20
S'2.8'
p1078
sg22
S'SG'
p1079
sg24
S'.889'
p1080
sg28
S'NBA'
p1081
sg30
S'0.2'
p1082
sg34
S'0.9'
p1083
sS'_fieldGoalsttempted'
p1084
S'2.2'
p1085
sg36
S'0.3'
p1086
sg38
S'1.0'
p1087
sg40
S'34'
p1088
sg42
S'NYK'
p1089
sg44
S'27'
p1090
sg46
S'0.1'
p1091
sg48
S'1.1'
p1092
sg50
S'0.3'
p1093
sg52
S'2.0'
p1094
sg54
S'0.6'
p1095
sg56
S'1997-98'
p1096
sg58
S'1.2'
p1097
sg60
S'0.3'
p1098
sg62
S'.527'
p1099
sg64
S'8.3'
p1100
sg66
g270
sbsS'_weight'
p1101
S'190'
p1102
sS'_dob'
p1103
S'9-11-1963'
p1104
sS'_salary'
p1105
(lp1106
(isrc.gp1.models.Salary
Salary
p1107
(dp1108
g42
S'Orlando Magic'
p1109
sg28
S'NBA'
p1110
sg1105
S'$900,000'
p1111
sg56
S'1992-93'
p1112
sba(isrc.gp1.models.Salary
Salary
p1113
(dp1114
g42
S'Orlando Magic'
p1115
sg28
S'NBA'
p1116
sg1105
S'$900,000'
p1117
sg56
S'1993-94'
p1118
sba(isrc.gp1.models.Salary
Salary
p1119
(dp1120
g42
S'Orlando Magic'
p1121
sg28
S'NBA'
p1122
sg1105
S'$900,000'
p1123
sg56
S'1994-95'
p1124
sba(isrc.gp1.models.Salary
Salary
p1125
(dp1126
g42
S'Orlando Magic'
p1127
sg28
S'NBA'
p1128
sg1105
S'$370,000'
p1129
sg56
S'1995-96'
p1130
sbasg22
S'G-F'
p1131
sb.