(isrc.gp1.models.Player
Player
p0
(dp1
S'_experience'
p2
VRookie
p3
sS'_totals'
p4
(lp5
(isrc.gp1.models.Totals
Totals
p6
(dp7
S'_offensiveRebounds'
p8
S'2'
p9
sS'_threePointsAttempted'
p10
S'0'
p11
sS'_fieldGoalsPercentage'
p12
S'.333'
p13
sS'_assist'
p14
g11
sS'_threePointsPercentage'
p15
S'NA'
p16
sS'_threePoints'
p17
g11
sS'_points'
p18
g9
sS'_position'
p19
S'PF'
p20
sS'_freeThrowsPercentage'
p21
g16
sS'_effectiveFieldGoalPercentage'
p22
S'.333'
p23
sS'_league'
p24
S'NBA'
p25
sS'_steals'
p26
g11
sS'_fieldGoalsAttempted'
p27
S'3'
p28
sS'_personalFouls'
p29
g9
sS'_freeThrowsAttempted'
p30
g11
sS'_totalRebounds'
p31
g28
sS'_age'
p32
S'22'
p33
sS'_team'
p34
S'LAC'
p35
sS'_games'
p36
g9
sS'_blocks'
p37
S'1'
p38
sS'_twoPoints'
p39
g38
sS'_freeThrows'
p40
g11
sS'_twoPointsAttempted'
p41
g28
sS'_defensiveRebounds'
p42
g38
sS'_season'
p43
S'2015-16'
p44
sS'_fieldGoals'
p45
g38
sS'_turnOvers'
p46
g11
sS'_twoPointsPercentage'
p47
S'.333'
p48
sS'_minutesPlayed'
p49
S'13'
p50
sS'_gamesStarted'
p51
g11
sbasS'_college'
p52
S'Michigan State University'
p53
sS'_toYear'
p54
S'2016'
p55
sS'_height'
p56
S'6-6'
p57
sS'_active'
p58
I01
sS'_shootingHand'
p59
VRight
p60
sS'_name'
p61
S'Branden Dawson'
p62
sS'_per100Possessions'
p63
(lp64
(isrc.gp1.models.Per100Possession
Per100Possession
p65
(dp66
g8
S'7.7'
p67
sg10
S'0.0'
p68
sg12
S'.333'
p69
sS'_offensiveRating'
p70
S'103'
p71
sg14
S'0.0'
p72
sg15
g16
sg17
S'0.0'
p73
sg18
S'7.7'
p74
sg19
S'PF'
p75
sS'_defensiveRating'
p76
S'106'
p77
sg21
g16
sg24
S'NBA'
p78
sg26
S'0.0'
p79
sg27
S'11.5'
p80
sg29
S'7.7'
p81
sg30
S'0.0'
p82
sg31
S'11.5'
p83
sg32
S'22'
p84
sg34
S'LAC'
p85
sg36
g9
sg37
S'3.8'
p86
sg39
S'3.8'
p87
sg40
S'0.0'
p88
sg41
S'11.5'
p89
sg42
S'3.8'
p90
sg43
S'2015-16'
p91
sg45
S'3.8'
p92
sg46
S'0.0'
p93
sg47
S'.333'
p94
sg49
S'13'
p95
sg51
g11
sbasS'_advanced'
p96
(lp97
(isrc.gp1.models.Advanced
Advanced
p98
(dp99
S'_offensiveReboundPercentage'
p100
S'16.9'
p101
sS'_turnOverPercentage'
p102
S'0.0'
p103
sS'_winSharesPer48Minutes'
p104
S'.064'
p105
sS'_stealPercentage'
p106
S'0.0'
p107
sS'_usagePercentage'
p108
S'10.4'
p109
sS'_totalReboundsPercentage'
p110
S'12.6'
p111
sS'_defensiveBoxPlusMinus'
p112
S'-1.1'
p113
sg19
S'PF'
p114
sS'_valueOverReplacementPlayer'
p115
S'0.0'
p116
sS'_trueShootingPercentage'
p117
S'.333'
p118
sS'_defensiveReboundPercentage'
p119
S'8.4'
p120
sS'_freeThrowsAttempRate'
p121
S'.000'
p122
sS'_threePointsAttempRate'
p123
S'.000'
p124
sg24
S'NBA'
p125
sS'_offensiveBoxPlusMinues'
p126
S'-5.3'
p127
sS'_assistPercentage'
p128
S'0.0'
p129
sS'_defensiveWinShares'
p130
S'0.0'
p131
sg32
S'22'
p132
sg34
S'LAC'
p133
sg36
g9
sS'_blockPercentage'
p134
S'6.0'
p135
sS'_playerEfficiencyRating'
p136
S'7.9'
p137
sS'_offensiveWinShares'
p138
S'0.0'
p139
sg49
S'13'
p140
sS'_boxPlusMinus'
p141
S'-6.3'
p142
sg43
S'2015-16'
p143
sS'_winShares'
p144
S'0.0'
p145
sbasS'_per36Minutes'
p146
(lp147
(isrc.gp1.models.Per36Minutes
Per36Minutes
p148
(dp149
g8
S'5.5'
p150
sg10
S'0.0'
p151
sg12
S'.333'
p152
sg14
S'0.0'
p153
sg15
g16
sg17
S'0.0'
p154
sg18
S'5.5'
p155
sg19
S'PF'
p156
sg21
g16
sg24
S'NBA'
p157
sg26
S'0.0'
p158
sg27
S'8.3'
p159
sg29
S'5.5'
p160
sg30
S'0.0'
p161
sg31
S'8.3'
p162
sg32
S'22'
p163
sg34
S'LAC'
p164
sg36
g9
sg37
S'2.8'
p165
sg39
S'2.8'
p166
sg40
S'0.0'
p167
sg41
S'8.3'
p168
sg42
S'2.8'
p169
sg43
S'2015-16'
p170
sg45
S'2.8'
p171
sg46
S'0.0'
p172
sg47
S'.333'
p173
sg49
S'13'
p174
sg51
g11
sbasS'_fromYear'
p175
S'2016'
p176
sS'_url'
p177
S'http://www.basketball-reference.com/players/d/dawsobr01.html'
p178
sS'_perGame'
p179
(isrc.gp1.models.PerGame
PerGame
p180
(dp181
g8
S'1.0'
p182
sg10
S'0.0'
p183
sg12
S'.333'
p184
sS'_effectiveFieldGalPercentage'
p185
S'.333'
p186
sg14
S'0.0'
p187
sg15
g16
sg17
S'0.0'
p188
sg18
S'1.0'
p189
sg19
S'PF'
p190
sg21
g16
sg24
S'NBA'
p191
sg26
S'0.0'
p192
sg29
S'1.0'
p193
sS'_fieldGoalsttempted'
p194
S'1.5'
p195
sg30
S'0.0'
p196
sg31
S'1.5'
p197
sg32
S'22'
p198
sg34
S'LAC'
p199
sg36
g9
sg37
S'0.5'
p200
sg39
S'0.5'
p201
sg40
S'0.0'
p202
sg41
S'1.5'
p203
sg42
S'0.5'
p204
sg43
S'2015-16'
p205
sg45
S'0.5'
p206
sg46
S'0.0'
p207
sg47
S'.333'
p208
sg49
S'6.5'
p209
sg51
g11
sbsS'_weight'
p210
S'225'
p211
sS'_dob'
p212
S'1-2-1993'
p213
sS'_salary'
p214
(lp215
sg19
S'F'
p216
sb.