(isrc.gp1.models.Player
Player
p0
(dp1
S'_experience'
p2
S'NA'
p3
sS'_totals'
p4
(lp5
(isrc.gp1.models.Totals
Totals
p6
(dp7
S'_offensiveRebounds'
p8
S'113'
p9
sS'_threePointsAttempted'
p10
g3
sS'_fieldGoalsPercentage'
p11
S'.439'
p12
sS'_assist'
p13
S'157'
p14
sS'_threePointsPercentage'
p15
g3
sS'_threePoints'
p16
g3
sS'_points'
p17
S'700'
p18
sS'_position'
p19
S'SF'
p20
sS'_freeThrowsPercentage'
p21
S'.795'
p22
sS'_effectiveFieldGoalPercentage'
p23
S'.439'
p24
sS'_league'
p25
S'NBA'
p26
sS'_steals'
p27
S'52'
p28
sS'_fieldGoalsAttempted'
p29
S'651'
p30
sS'_personalFouls'
p31
S'235'
p32
sS'_freeThrowsAttempted'
p33
S'161'
p34
sS'_totalRebounds'
p35
S'294'
p36
sS'_age'
p37
S'22'
p38
sS'_team'
p39
S'MIL'
p40
sS'_games'
p41
S'81'
p42
sS'_blocks'
p43
S'21'
p44
sS'_twoPoints'
p45
S'286'
p46
sS'_freeThrows'
p47
S'128'
p48
sS'_twoPointsAttempted'
p49
S'651'
p50
sS'_defensiveRebounds'
p51
S'181'
p52
sS'_season'
p53
S'1975-76'
p54
sS'_fieldGoals'
p55
S'286'
p56
sS'_turnOvers'
p57
g3
sS'_twoPointsPercentage'
p58
S'.439'
p59
sS'_minutesPlayed'
p60
S'1646'
p61
sS'_gamesStarted'
p62
g3
sba(isrc.gp1.models.Totals
Totals
p63
(dp64
g8
S'129'
p65
sg10
g3
sg11
S'.449'
p66
sg13
S'205'
p67
sg15
g3
sg16
g3
sg17
S'1179'
p68
sg19
S'SF'
p69
sg21
S'.864'
p70
sg23
S'.449'
p71
sg25
S'NBA'
p72
sg27
S'82'
p73
sg29
S'1094'
p74
sg31
S'221'
p75
sg33
S'228'
p76
sg35
S'416'
p77
sg37
S'23'
p78
sg39
S'MIL'
p79
sg41
S'82'
p80
sg43
S'26'
p81
sg45
S'491'
p82
sg47
S'197'
p83
sg49
S'1094'
p84
sg51
S'287'
p85
sg53
S'1976-77'
p86
sg55
S'491'
p87
sg57
g3
sg58
S'.449'
p88
sg60
S'2410'
p89
sg62
g3
sba(isrc.gp1.models.Totals
Totals
p90
(dp91
g8
S'114'
p92
sg10
g3
sg11
S'.503'
p93
sg13
S'175'
p94
sg15
g3
sg16
g3
sg17
S'1118'
p95
sg19
S'SF'
p96
sg21
S'.810'
p97
sg23
S'.503'
p98
sg25
S'NBA'
p99
sg27
S'72'
p100
sg29
S'947'
p101
sg31
S'202'
p102
sg33
S'205'
p103
sg35
S'290'
p104
sg37
S'24'
p105
sg39
S'MIL'
p106
sg41
S'82'
p107
sg43
S'30'
p108
sg45
S'476'
p109
sg47
S'166'
p110
sg49
S'947'
p111
sg51
S'176'
p112
sg53
S'1977-78'
p113
sg55
S'476'
p114
sg57
S'176'
p115
sg58
S'.503'
p116
sg60
S'1876'
p117
sg62
g3
sba(isrc.gp1.models.Totals
Totals
p118
(dp119
g8
S'113'
p120
sg10
g3
sg11
S'.506'
p121
sg13
S'163'
p122
sg15
g3
sg16
g3
sg17
S'1269'
p123
sg19
S'SG'
p124
sg21
S'.829'
p125
sg23
S'.506'
p126
sg25
S'NBA'
p127
sg27
S'88'
p128
sg29
S'1067'
p129
sg31
S'184'
p130
sg33
S'228'
p131
sg35
S'297'
p132
sg37
S'25'
p133
sg39
S'MIL'
p134
sg41
S'82'
p135
sg43
S'41'
p136
sg45
S'540'
p137
sg47
S'189'
p138
sg49
S'1067'
p139
sg51
S'184'
p140
sg53
S'1978-79'
p141
sg55
S'540'
p142
sg57
S'138'
p143
sg58
S'.506'
p144
sg60
S'1963'
p145
sg62
g3
sba(isrc.gp1.models.Totals
Totals
p146
(dp147
g8
S'104'
p148
sg10
S'27'
p149
sg11
S'.478'
p150
sg13
S'237'
p151
sg15
S'.185'
p152
sg16
S'5'
p153
sg17
S'1423'
p154
sg19
S'SF'
p155
sg21
S'.865'
p156
sg23
S'.480'
p157
sg25
S'NBA'
p158
sg27
S'94'
p159
sg29
S'1243'
p160
sg31
S'216'
p161
sg33
S'266'
p162
sg35
S'301'
p163
sg37
S'26'
p164
sg39
S'MIL'
p165
sg41
S'81'
p166
sg43
S'20'
p167
sg45
S'589'
p168
sg47
S'230'
p169
sg49
S'1216'
p170
sg51
S'197'
p171
sg53
S'1979-80'
p172
sg55
S'594'
p173
sg57
S'172'
p174
sg58
S'.484'
p175
sg60
S'2316'
p176
sg62
g3
sba(isrc.gp1.models.Totals
Totals
p177
(dp178
g8
S'78'
p179
sg10
S'21'
p180
sg11
S'.487'
p181
sg13
S'234'
p182
sg15
S'.143'
p183
sg16
S'3'
p184
sg17
S'1290'
p185
sg19
S'SF'
p186
sg21
S'.884'
p187
sg23
S'.489'
p188
sg25
S'NBA'
p189
sg27
S'88'
p190
sg29
S'1102'
p191
sg31
S'182'
p192
sg33
S'241'
p193
sg35
S'289'
p194
sg37
S'27'
p195
sg39
S'MIL'
p196
sg41
S'77'
p197
sg43
S'28'
p198
sg45
S'534'
p199
sg47
S'213'
p200
sg49
S'1081'
p201
sg51
S'211'
p202
sg53
S'1980-81'
p203
sg55
S'537'
p204
sg57
S'150'
p205
sg58
S'.494'
p206
sg60
S'2215'
p207
sg62
g3
sba(isrc.gp1.models.Totals
Totals
p208
(dp209
g8
S'37'
p210
sg10
S'9'
p211
sg11
S'.483'
p212
sg13
S'109'
p213
sg15
S'.444'
p214
sg16
S'4'
p215
sg17
S'511'
p216
sg19
S'SF'
p217
sg21
S'.864'
p218
sg23
S'.487'
p219
sg25
S'NBA'
p220
sg27
S'28'
p221
sg29
S'433'
p222
sg31
S'91'
p223
sg33
S'103'
p224
sg35
S'125'
p225
sg37
S'28'
p226
sg39
S'MIL'
p227
sg41
S'41'
p228
sg43
g184
sg45
S'205'
p229
sg47
S'89'
p230
sg49
S'424'
p231
sg51
S'88'
p232
sg53
S'1981-82'
p233
sg55
S'209'
p234
sg57
S'64'
p235
sg58
S'.483'
p236
sg60
S'924'
p237
sg62
g215
sba(isrc.gp1.models.Totals
Totals
p238
(dp239
g8
S'44'
p240
sg10
S'13'
p241
sg11
S'.492'
p242
sg13
S'207'
p243
sg15
S'.077'
p244
sg16
S'1'
p245
sg17
S'1007'
p246
sg19
S'SF'
p247
sg21
S'.837'
p248
sg23
S'.492'
p249
sg25
S'NBA'
p250
sg27
S'40'
p251
sg29
S'856'
p252
sg31
S'155'
p253
sg33
S'196'
p254
sg35
S'246'
p255
sg37
S'29'
p256
sg39
S'MIL'
p257
sg41
S'70'
p258
sg43
g211
sg45
S'420'
p259
sg47
S'164'
p260
sg49
S'843'
p261
sg51
S'202'
p262
sg53
S'1982-83'
p263
sg55
S'421'
p264
sg57
S'122'
p265
sg58
S'.498'
p266
sg60
S'1855'
p267
sg62
g153
sba(isrc.gp1.models.Totals
Totals
p268
(dp269
g8
S'80'
p270
sg10
S'31'
p271
sg11
S'.465'
p272
sg13
S'265'
p273
sg15
S'.194'
p274
sg16
S'6'
p275
sg17
S'1220'
p276
sg19
S'SF'
p277
sg21
S'.807'
p278
sg23
S'.468'
p279
sg25
S'NBA'
p280
sg27
S'53'
p281
sg29
S'1094'
p282
sg31
S'224'
p283
sg33
S'243'
p284
sg35
S'332'
p285
sg37
S'30'
p286
sg39
S'MIL'
p287
sg41
S'81'
p288
sg43
S'14'
p289
sg45
S'503'
p290
sg47
S'196'
p291
sg49
S'1063'
p292
sg51
S'252'
p293
sg53
S'1983-84'
p294
sg55
S'509'
p295
sg57
S'148'
p296
sg58
S'.473'
p297
sg60
S'2431'
p298
sg62
S'10'
p299
sba(isrc.gp1.models.Totals
Totals
p300
(dp301
g8
S'55'
p302
sg10
S'39'
p303
sg11
S'.465'
p304
sg13
S'171'
p305
sg15
S'.359'
p306
sg16
S'14'
p307
sg17
S'1115'
p308
sg19
S'SF'
p309
sg21
S'.879'
p310
sg23
S'.472'
p311
sg25
S'NBA'
p312
sg27
S'47'
p313
sg29
S'990'
p314
sg31
S'128'
p315
sg33
S'206'
p316
sg35
S'230'
p317
sg37
S'31'
p318
sg39
S'LAC'
p319
sg41
S'80'
p320
sg43
S'18'
p321
sg45
S'446'
p322
sg47
S'181'
p323
sg49
S'951'
p324
sg51
S'175'
p325
sg53
S'1984-85'
p326
sg55
S'460'
p327
sg57
S'116'
p328
sg58
S'.469'
p329
sg60
S'2042'
p330
sg62
S'15'
p331
sba(isrc.gp1.models.Totals
Totals
p332
(dp333
g8
S'29'
p334
sg10
S'18'
p335
sg11
S'.441'
p336
sg13
S'108'
p337
sg15
S'.333'
p338
sg16
g275
sg17
S'510'
p339
sg19
S'SF'
p340
sg21
S'.891'
p341
sg23
S'.448'
p342
sg25
S'NBA'
p343
sg27
S'31'
p344
sg29
S'451'
p345
sg31
S'81'
p346
sg33
S'119'
p347
sg35
S'123'
p348
sg37
S'32'
p349
sg39
S'LAC'
p350
sg41
S'58'
p351
sg43
S'8'
p352
sg45
S'193'
p353
sg47
S'106'
p354
sg49
S'433'
p355
sg51
S'94'
p356
sg53
S'1985-86'
p357
sg55
S'199'
p358
sg57
S'68'
p359
sg58
S'.446'
p360
sg60
S'1161'
p361
sg62
S'14'
p362
sba(isrc.gp1.models.Totals
Totals
p363
(dp364
g8
S'14'
p365
sg10
g275
sg11
S'.462'
p366
sg13
S'35'
p367
sg15
S'.167'
p368
sg16
g245
sg17
S'175'
p369
sg19
S'SF'
p370
sg21
S'.800'
p371
sg23
S'.465'
p372
sg25
S'NBA'
p373
sg27
S'10'
p374
sg29
S'171'
p375
sg31
S'50'
p376
sg33
S'20'
p377
sg35
S'52'
p378
sg37
S'33'
p379
sg39
S'MIL'
p380
sg41
S'34'
p381
sg43
S'2'
p382
sg45
S'78'
p383
sg47
S'16'
p384
sg49
S'165'
p385
sg51
S'38'
p386
sg53
S'1986-87'
p387
sg55
S'79'
p388
sg57
S'15'
p389
sg58
S'.473'
p390
sg60
S'418'
p391
sg62
g215
sbasS'_college'
p392
S'University of Louisville'
p393
sS'_toYear'
p394
S'1987'
p395
sS'_height'
p396
S'6-5'
p397
sS'_active'
p398
I00
sS'_shootingHand'
p399
VRight
p400
sS'_name'
p401
S'Junior Bridgeman'
p402
sS'_per100Possessions'
p403
(lp404
(isrc.gp1.models.Per100Possession
Per100Possession
p405
(dp406
g8
S'3.2'
p407
sg10
g3
sg11
S'.439'
p408
sS'_offensiveRating'
p409
g3
sg13
S'4.4'
p410
sg15
g3
sg16
g3
sg17
S'19.7'
p411
sg19
S'SF'
p412
sS'_defensiveRating'
p413
S'100'
p414
sg21
S'.795'
p415
sg25
S'NBA'
p416
sg27
S'1.5'
p417
sg29
S'18.3'
p418
sg31
S'6.6'
p419
sg33
S'4.5'
p420
sg35
S'8.3'
p421
sg37
S'22'
p422
sg39
S'MIL'
p423
sg41
S'81'
p424
sg43
S'0.6'
p425
sg45
S'8.0'
p426
sg47
S'3.6'
p427
sg49
S'18.3'
p428
sg51
S'5.1'
p429
sg53
S'1975-76'
p430
sg55
S'8.0'
p431
sg57
g3
sg58
S'.439'
p432
sg60
S'1646'
p433
sg62
g3
sba(isrc.gp1.models.Per100Possession
Per100Possession
p434
(dp435
g8
S'2.4'
p436
sg10
g3
sg11
S'.449'
p437
sg409
g3
sg13
S'3.8'
p438
sg15
g3
sg16
g3
sg17
S'21.7'
p439
sg19
S'SF'
p440
sg413
S'104'
p441
sg21
S'.864'
p442
sg25
S'NBA'
p443
sg27
S'1.5'
p444
sg29
S'20.1'
p445
sg31
S'4.1'
p446
sg33
S'4.2'
p447
sg35
S'7.7'
p448
sg37
S'23'
p449
sg39
S'MIL'
p450
sg41
S'82'
p451
sg43
S'0.5'
p452
sg45
S'9.0'
p453
sg47
S'3.6'
p454
sg49
S'20.1'
p455
sg51
S'5.3'
p456
sg53
S'1976-77'
p457
sg55
S'9.0'
p458
sg57
g3
sg58
S'.449'
p459
sg60
S'2410'
p460
sg62
g3
sba(isrc.gp1.models.Per100Possession
Per100Possession
p461
(dp462
g8
S'2.7'
p463
sg10
g3
sg11
S'.503'
p464
sg409
S'103'
p465
sg13
S'4.1'
p466
sg15
g3
sg16
g3
sg17
S'26.3'
p467
sg19
S'SF'
p468
sg413
S'104'
p469
sg21
S'.810'
p470
sg25
S'NBA'
p471
sg27
S'1.7'
p472
sg29
S'22.3'
p473
sg31
S'4.8'
p474
sg33
S'4.8'
p475
sg35
S'6.8'
p476
sg37
S'24'
p477
sg39
S'MIL'
p478
sg41
S'82'
p479
sg43
S'0.7'
p480
sg45
S'11.2'
p481
sg47
S'3.9'
p482
sg49
S'22.3'
p483
sg51
S'4.1'
p484
sg53
S'1977-78'
p485
sg55
S'11.2'
p486
sg57
S'4.1'
p487
sg58
S'.503'
p488
sg60
S'1876'
p489
sg62
g3
sba(isrc.gp1.models.Per100Possession
Per100Possession
p490
(dp491
g8
S'2.6'
p492
sg10
g3
sg11
S'.506'
p493
sg409
S'108'
p494
sg13
S'3.7'
p495
sg15
g3
sg16
g3
sg17
S'29.1'
p496
sg19
S'SG'
p497
sg413
S'105'
p498
sg21
S'.829'
p499
sg25
S'NBA'
p500
sg27
S'2.0'
p501
sg29
S'24.5'
p502
sg31
S'4.2'
p503
sg33
S'5.2'
p504
sg35
S'6.8'
p505
sg37
S'25'
p506
sg39
S'MIL'
p507
sg41
S'82'
p508
sg43
S'0.9'
p509
sg45
S'12.4'
p510
sg47
S'4.3'
p511
sg49
S'24.5'
p512
sg51
S'4.2'
p513
sg53
S'1978-79'
p514
sg55
S'12.4'
p515
sg57
S'3.2'
p516
sg58
S'.506'
p517
sg60
S'1963'
p518
sg62
g3
sba(isrc.gp1.models.Per100Possession
Per100Possession
p519
(dp520
g8
S'2.1'
p521
sg10
S'0.5'
p522
sg11
S'.478'
p523
sg409
S'107'
p524
sg13
S'4.8'
p525
sg15
S'.185'
p526
sg16
S'0.1'
p527
sg17
S'28.8'
p528
sg19
S'SF'
p529
sg413
S'105'
p530
sg21
S'.865'
p531
sg25
S'NBA'
p532
sg27
S'1.9'
p533
sg29
S'25.1'
p534
sg31
S'4.4'
p535
sg33
S'5.4'
p536
sg35
S'6.1'
p537
sg37
S'26'
p538
sg39
S'MIL'
p539
sg41
S'81'
p540
sg43
S'0.4'
p541
sg45
S'11.9'
p542
sg47
S'4.7'
p543
sg49
S'24.6'
p544
sg51
S'4.0'
p545
sg53
S'1979-80'
p546
sg55
S'12.0'
p547
sg57
S'3.5'
p548
sg58
S'.484'
p549
sg60
S'2316'
p550
sg62
g3
sba(isrc.gp1.models.Per100Possession
Per100Possession
p551
(dp552
g8
S'1.6'
p553
sg10
S'0.4'
p554
sg11
S'.487'
p555
sg409
S'110'
p556
sg13
S'4.9'
p557
sg15
S'.143'
p558
sg16
S'0.1'
p559
sg17
S'27.0'
p560
sg19
S'SF'
p561
sg413
S'104'
p562
sg21
S'.884'
p563
sg25
S'NBA'
p564
sg27
S'1.8'
p565
sg29
S'23.0'
p566
sg31
S'3.8'
p567
sg33
S'5.0'
p568
sg35
S'6.0'
p569
sg37
S'27'
p570
sg39
S'MIL'
p571
sg41
S'77'
p572
sg43
S'0.6'
p573
sg45
S'11.2'
p574
sg47
S'4.5'
p575
sg49
S'22.6'
p576
sg51
S'4.4'
p577
sg53
S'1980-81'
p578
sg55
S'11.2'
p579
sg57
S'3.1'
p580
sg58
S'.494'
p581
sg60
S'2215'
p582
sg62
g3
sba(isrc.gp1.models.Per100Possession
Per100Possession
p583
(dp584
g8
S'1.9'
p585
sg10
S'0.5'
p586
sg11
S'.483'
p587
sg409
S'110'
p588
sg13
S'5.7'
p589
sg15
S'.444'
p590
sg16
S'0.2'
p591
sg17
S'26.5'
p592
sg19
S'SF'
p593
sg413
S'105'
p594
sg21
S'.864'
p595
sg25
S'NBA'
p596
sg27
S'1.5'
p597
sg29
S'22.5'
p598
sg31
S'4.7'
p599
sg33
S'5.4'
p600
sg35
S'6.5'
p601
sg37
S'28'
p602
sg39
S'MIL'
p603
sg41
S'41'
p604
sg43
S'0.2'
p605
sg45
S'10.6'
p606
sg47
S'4.6'
p607
sg49
S'22.0'
p608
sg51
S'4.6'
p609
sg53
S'1981-82'
p610
sg55
S'10.9'
p611
sg57
S'3.3'
p612
sg58
S'.483'
p613
sg60
S'924'
p614
sg62
g215
sba(isrc.gp1.models.Per100Possession
Per100Possession
p615
(dp616
g8
S'1.1'
p617
sg10
S'0.3'
p618
sg11
S'.492'
p619
sg409
S'107'
p620
sg13
S'5.4'
p621
sg15
S'.077'
p622
sg16
S'0.0'
p623
sg17
S'26.1'
p624
sg19
S'SF'
p625
sg413
S'104'
p626
sg21
S'.837'
p627
sg25
S'NBA'
p628
sg27
S'1.0'
p629
sg29
S'22.1'
p630
sg31
S'4.0'
p631
sg33
S'5.1'
p632
sg35
S'6.4'
p633
sg37
S'29'
p634
sg39
S'MIL'
p635
sg41
S'70'
p636
sg43
S'0.2'
p637
sg45
S'10.9'
p638
sg47
S'4.2'
p639
sg49
S'21.8'
p640
sg51
S'5.2'
p641
sg53
S'1982-83'
p642
sg55
S'10.9'
p643
sg57
S'3.2'
p644
sg58
S'.498'
p645
sg60
S'1855'
p646
sg62
g153
sba(isrc.gp1.models.Per100Possession
Per100Possession
p647
(dp648
g8
S'1.6'
p649
sg10
S'0.6'
p650
sg11
S'.465'
p651
sg409
S'106'
p652
sg13
S'5.4'
p653
sg15
S'.194'
p654
sg16
S'0.1'
p655
sg17
S'24.9'
p656
sg19
S'SF'
p657
sg413
S'106'
p658
sg21
S'.807'
p659
sg25
S'NBA'
p660
sg27
S'1.1'
p661
sg29
S'22.3'
p662
sg31
S'4.6'
p663
sg33
S'5.0'
p664
sg35
S'6.8'
p665
sg37
S'30'
p666
sg39
S'MIL'
p667
sg41
S'81'
p668
sg43
S'0.3'
p669
sg45
S'10.2'
p670
sg47
S'4.0'
p671
sg49
S'21.7'
p672
sg51
S'5.1'
p673
sg53
S'1983-84'
p674
sg55
S'10.4'
p675
sg57
S'3.0'
p676
sg58
S'.473'
p677
sg60
S'2431'
p678
sg62
S'10'
p679
sba(isrc.gp1.models.Per100Possession
Per100Possession
p680
(dp681
g8
S'1.3'
p682
sg10
S'0.9'
p683
sg11
S'.465'
p684
sg409
S'107'
p685
sg13
S'4.0'
p686
sg15
S'.359'
p687
sg16
S'0.3'
p688
sg17
S'26.0'
p689
sg19
S'SF'
p690
sg413
S'113'
p691
sg21
S'.879'
p692
sg25
S'NBA'
p693
sg27
S'1.1'
p694
sg29
S'23.1'
p695
sg31
S'3.0'
p696
sg33
S'4.8'
p697
sg35
S'5.4'
p698
sg37
S'31'
p699
sg39
S'LAC'
p700
sg41
S'80'
p701
sg43
S'0.4'
p702
sg45
S'10.4'
p703
sg47
S'4.2'
p704
sg49
S'22.1'
p705
sg51
S'4.1'
p706
sg53
S'1984-85'
p707
sg55
S'10.7'
p708
sg57
S'2.7'
p709
sg58
S'.469'
p710
sg60
S'2042'
p711
sg62
S'15'
p712
sba(isrc.gp1.models.Per100Possession
Per100Possession
p713
(dp714
g8
S'1.2'
p715
sg10
S'0.7'
p716
sg11
S'.441'
p717
sg409
S'104'
p718
sg13
S'4.3'
p719
sg15
S'.333'
p720
sg16
S'0.2'
p721
sg17
S'20.5'
p722
sg19
S'SF'
p723
sg413
S'115'
p724
sg21
S'.891'
p725
sg25
S'NBA'
p726
sg27
S'1.2'
p727
sg29
S'18.2'
p728
sg31
S'3.3'
p729
sg33
S'4.8'
p730
sg35
S'5.0'
p731
sg37
S'32'
p732
sg39
S'LAC'
p733
sg41
S'58'
p734
sg43
S'0.3'
p735
sg45
S'7.8'
p736
sg47
S'4.3'
p737
sg49
S'17.4'
p738
sg51
S'3.8'
p739
sg53
S'1985-86'
p740
sg55
S'8.0'
p741
sg57
S'2.7'
p742
sg58
S'.446'
p743
sg60
S'1161'
p744
sg62
S'14'
p745
sba(isrc.gp1.models.Per100Possession
Per100Possession
p746
(dp747
g8
S'1.6'
p748
sg10
S'0.7'
p749
sg11
S'.462'
p750
sg409
S'104'
p751
sg13
S'4.0'
p752
sg15
S'.167'
p753
sg16
S'0.1'
p754
sg17
S'20.0'
p755
sg19
S'SF'
p756
sg413
S'109'
p757
sg21
S'.800'
p758
sg25
S'NBA'
p759
sg27
S'1.1'
p760
sg29
S'19.6'
p761
sg31
S'5.7'
p762
sg33
S'2.3'
p763
sg35
S'6.0'
p764
sg37
S'33'
p765
sg39
S'MIL'
p766
sg41
S'34'
p767
sg43
S'0.2'
p768
sg45
S'8.9'
p769
sg47
S'1.8'
p770
sg49
S'18.9'
p771
sg51
S'4.3'
p772
sg53
S'1986-87'
p773
sg55
S'9.0'
p774
sg57
S'1.7'
p775
sg58
S'.473'
p776
sg60
S'418'
p777
sg62
g215
sbasS'_advanced'
p778
(lp779
(isrc.gp1.models.Advanced
Advanced
p780
(dp781
S'_offensiveReboundPercentage'
p782
S'7.4'
p783
sS'_turnOverPercentage'
p784
g3
sS'_winSharesPer48Minutes'
p785
S'.060'
p786
sS'_stealPercentage'
p787
S'1.5'
p788
sS'_usagePercentage'
p789
g3
sS'_totalReboundsPercentage'
p790
S'9.3'
p791
sS'_defensiveBoxPlusMinus'
p792
S'-0.8'
p793
sg19
S'SF'
p794
sS'_valueOverReplacementPlayer'
p795
S'0.4'
p796
sS'_trueShootingPercentage'
p797
S'.485'
p798
sS'_defensiveReboundPercentage'
p799
S'11.1'
p800
sS'_freeThrowsAttempRate'
p801
S'.247'
p802
sS'_threePointsAttempRate'
p803
g3
sg25
S'NBA'
p804
sS'_offensiveBoxPlusMinues'
p805
S'-0.3'
p806
sS'_assistPercentage'
p807
S'13.7'
p808
sS'_defensiveWinShares'
p809
S'1.2'
p810
sg37
S'22'
p811
sg39
S'MIL'
p812
sg41
S'81'
p813
sS'_blockPercentage'
p814
S'0.7'
p815
sS'_playerEfficiencyRating'
p816
S'13.7'
p817
sS'_offensiveWinShares'
p818
S'0.8'
p819
sg60
S'1646'
p820
sS'_boxPlusMinus'
p821
S'-1.1'
p822
sg53
S'1975-76'
p823
sS'_winShares'
p824
S'2.1'
p825
sba(isrc.gp1.models.Advanced
Advanced
p826
(dp827
g782
S'5.5'
p828
sg784
g3
sg785
S'.071'
p829
sg787
S'1.5'
p830
sg789
g3
sg790
S'8.9'
p831
sg792
S'-1.1'
p832
sg19
S'SF'
p833
sg795
S'0.5'
p834
sg797
S'.494'
p835
sg799
S'12.4'
p836
sg801
S'.208'
p837
sg803
g3
sg25
S'NBA'
p838
sg805
S'-0.2'
p839
sg807
S'11.7'
p840
sg809
S'1.1'
p841
sg37
S'23'
p842
sg39
S'MIL'
p843
sg41
S'82'
p844
sg814
S'0.5'
p845
sg816
S'14.4'
p846
sg818
S'2.5'
p847
sg60
S'2410'
p848
sg821
S'-1.2'
p849
sg53
S'1976-77'
p850
sg824
S'3.6'
p851
sba(isrc.gp1.models.Advanced
Advanced
p852
(dp853
g782
S'6.3'
p854
sg784
S'14.5'
p855
sg785
S'.102'
p856
sg787
S'1.7'
p857
sg789
S'24.5'
p858
sg790
S'8.2'
p859
sg792
S'-1.7'
p860
sg19
S'SF'
p861
sg795
S'0.7'
p862
sg797
S'.539'
p863
sg799
S'10.1'
p864
sg801
S'.216'
p865
sg803
g3
sg25
S'NBA'
p866
sg805
S'1.1'
p867
sg807
S'13.4'
p868
sg809
S'1.1'
p869
sg37
S'24'
p870
sg39
S'MIL'
p871
sg41
S'82'
p872
sg814
S'0.8'
p873
sg816
S'17.0'
p874
sg818
S'2.9'
p875
sg60
S'1876'
p876
sg821
S'-0.6'
p877
sg53
S'1977-78'
p878
sg824
S'4.0'
p879
sba(isrc.gp1.models.Advanced
Advanced
p880
(dp881
g782
S'6.4'
p882
sg784
S'10.6'
p883
sg785
S'.134'
p884
sg787
S'2.0'
p885
sg789
S'25.8'
p886
sg790
S'8.4'
p887
sg792
S'-1.2'
p888
sg19
S'SG'
p889
sg795
S'1.3'
p890
sg797
S'.544'
p891
sg799
S'10.4'
p892
sg801
S'.214'
p893
sg803
g3
sg25
S'NBA'
p894
sg805
S'1.7'
p895
sg807
S'11.7'
p896
sg809
S'1.8'
p897
sg37
S'25'
p898
sg39
S'MIL'
p899
sg41
S'82'
p900
sg814
S'1.1'
p901
sg816
S'18.8'
p902
sg818
S'3.7'
p903
sg60
S'1963'
p904
sg821
S'0.5'
p905
sg53
S'1978-79'
p906
sg824
S'5.5'
p907
sba(isrc.gp1.models.Advanced
Advanced
p908
(dp909
g782
S'5.0'
p910
sg784
S'11.2'
p911
sg785
S'.127'
p912
sg787
S'1.9'
p913
sg789
S'26.3'
p914
sg790
S'7.1'
p915
sg792
S'-1.1'
p916
sg19
S'SF'
p917
sg795
S'1.2'
p918
sg797
S'.523'
p919
sg799
S'9.0'
p920
sg801
S'.214'
p921
sg803
S'.022'
p922
sg25
S'NBA'
p923
sg805
S'1.2'
p924
sg807
S'15.2'
p925
sg809
S'2.5'
p926
sg37
S'26'
p927
sg39
S'MIL'
p928
sg41
S'81'
p929
sg814
S'0.5'
p930
sg816
S'17.1'
p931
sg818
S'3.6'
p932
sg60
S'2316'
p933
sg821
S'0.1'
p934
sg53
S'1979-80'
p935
sg824
S'6.1'
p936
sba(isrc.gp1.models.Advanced
Advanced
p937
(dp938
g782
S'4.0'
p939
sg784
S'11.0'
p940
sg785
S'.146'
p941
sg787
S'1.8'
p942
sg789
S'24.0'
p943
sg790
S'7.2'
p944
sg792
S'-0.8'
p945
sg19
S'SF'
p946
sg795
S'1.2'
p947
sg797
S'.534'
p948
sg799
S'10.2'
p949
sg801
S'.219'
p950
sg803
S'.019'
p951
sg25
S'NBA'
p952
sg805
S'0.9'
p953
sg807
S'15.1'
p954
sg809
S'2.8'
p955
sg37
S'27'
p956
sg39
S'MIL'
p957
sg41
S'77'
p958
sg814
S'0.7'
p959
sg816
S'17.1'
p960
sg818
S'3.9'
p961
sg60
S'2215'
p962
sg821
S'0.2'
p963
sg53
S'1980-81'
p964
sg824
S'6.7'
p965
sba(isrc.gp1.models.Advanced
Advanced
p966
(dp967
g782
S'4.8'
p968
sg784
S'11.8'
p969
sg785
S'.136'
p970
sg787
S'1.5'
p971
sg789
S'24.1'
p972
sg790
S'7.8'
p973
sg792
S'-1.2'
p974
sg19
S'SF'
p975
sg795
S'0.3'
p976
sg797
S'.534'
p977
sg799
S'10.5'
p978
sg801
S'.238'
p979
sg803
S'.021'
p980
sg25
S'NBA'
p981
sg805
S'0.3'
p982
sg807
S'17.6'
p983
sg809
S'1.2'
p984
sg37
S'28'
p985
sg39
S'MIL'
p986
sg41
S'41'
p987
sg814
S'0.2'
p988
sg816
S'16.0'
p989
sg818
S'1.4'
p990
sg60
S'924'
p991
sg821
S'-0.9'
p992
sg53
S'1981-82'
p993
sg824
S'2.6'
p994
sba(isrc.gp1.models.Advanced
Advanced
p995
(dp996
g782
S'2.7'
p997
sg784
S'11.5'
p998
sg785
S'.125'
p999
sg787
S'1.0'
p1000
sg789
S'23.7'
p1001
sg790
S'7.3'
p1002
sg792
S'-1.2'
p1003
sg19
S'SF'
p1004
sg795
S'0.6'
p1005
sg797
S'.534'
p1006
sg799
S'11.4'
p1007
sg801
S'.229'
p1008
sg803
S'.015'
p1009
sg25
S'NBA'
p1010
sg805
S'0.4'
p1011
sg807
S'17.1'
p1012
sg809
S'2.1'
p1013
sg37
S'29'
p1014
sg39
S'MIL'
p1015
sg41
S'70'
p1016
sg814
S'0.3'
p1017
sg816
S'16.1'
p1018
sg818
S'2.7'
p1019
sg60
S'1855'
p1020
sg821
S'-0.8'
p1021
sg53
S'1982-83'
p1022
sg824
S'4.8'
p1023
sba(isrc.gp1.models.Advanced
Advanced
p1024
(dp1025
g782
S'3.9'
p1026
sg784
S'11.0'
p1027
sg785
S'.100'
p1028
sg787
S'1.1'
p1029
sg789
S'23.4'
p1030
sg790
S'7.8'
p1031
sg792
S'-0.6'
p1032
sg19
S'SF'
p1033
sg795
S'0.6'
p1034
sg797
S'.508'
p1035
sg799
S'11.3'
p1036
sg801
S'.222'
p1037
sg803
S'.028'
p1038
sg25
S'NBA'
p1039
sg805
S'-0.4'
p1040
sg807
S'16.7'
p1041
sg809
S'3.0'
p1042
sg37
S'30'
p1043
sg39
S'MIL'
p1044
sg41
S'81'
p1045
sg814
S'0.3'
p1046
sg816
S'14.3'
p1047
sg818
S'2.1'
p1048
sg60
S'2431'
p1049
sg821
S'-1.0'
p1050
sg53
S'1983-84'
p1051
sg824
S'5.1'
p1052
sba(isrc.gp1.models.Advanced
Advanced
p1053
(dp1054
g782
S'3.1'
p1055
sg784
S'9.7'
p1056
sg785
S'.074'
p1057
sg787
S'1.1'
p1058
sg789
S'23.9'
p1059
sg790
S'6.2'
p1060
sg792
S'-2.2'
p1061
sg19
S'SF'
p1062
sg795
S'-0.3'
p1063
sg797
S'.516'
p1064
sg799
S'9.2'
p1065
sg801
S'.208'
p1066
sg803
S'.039'
p1067
sg25
S'NBA'
p1068
sg805
S'-0.5'
p1069
sg807
S'12.5'
p1070
sg809
S'0.9'
p1071
sg37
S'31'
p1072
sg39
S'LAC'
p1073
sg41
S'80'
p1074
sg814
S'0.5'
p1075
sg816
S'14.8'
p1076
sg818
S'2.2'
p1077
sg60
S'2042'
p1078
sg821
S'-2.7'
p1079
sg53
S'1984-85'
p1080
sg824
S'3.1'
p1081
sba(isrc.gp1.models.Advanced
Advanced
p1082
(dp1083
g782
S'2.7'
p1084
sg784
S'11.9'
p1085
sg785
S'.033'
p1086
sg787
S'1.2'
p1087
sg789
S'19.7'
p1088
sg790
S'5.9'
p1089
sg792
S'-2.4'
p1090
sg19
S'SF'
p1091
sg795
S'-0.7'
p1092
sg797
S'.507'
p1093
sg799
S'9.1'
p1094
sg801
S'.264'
p1095
sg803
S'.040'
p1096
sg25
S'NBA'
p1097
sg805
S'-1.8'
p1098
sg807
S'13.6'
p1099
sg809
S'0.1'
p1100
sg37
S'32'
p1101
sg39
S'LAC'
p1102
sg41
S'58'
p1103
sg814
S'0.4'
p1104
sg816
S'12.0'
p1105
sg818
S'0.7'
p1106
sg60
S'1161'
p1107
sg821
S'-4.2'
p1108
sg53
S'1985-86'
p1109
sg824
S'0.8'
p1110
sba(isrc.gp1.models.Advanced
Advanced
p1111
(dp1112
g782
S'3.7'
p1113
sg784
S'7.7'
p1114
sg785
S'.069'
p1115
sg787
S'1.1'
p1116
sg789
S'19.1'
p1117
sg790
S'6.9'
p1118
sg792
S'-1.7'
p1119
sg19
S'SF'
p1120
sg795
S'-0.2'
p1121
sg797
S'.487'
p1122
sg799
S'10.2'
p1123
sg801
S'.117'
p1124
sg803
S'.035'
p1125
sg25
S'NBA'
p1126
sg805
S'-2.2'
p1127
sg807
S'12.2'
p1128
sg809
S'0.4'
p1129
sg37
S'33'
p1130
sg39
S'MIL'
p1131
sg41
S'34'
p1132
sg814
S'0.3'
p1133
sg816
S'11.1'
p1134
sg818
S'0.2'
p1135
sg60
S'418'
p1136
sg821
S'-3.8'
p1137
sg53
S'1986-87'
p1138
sg824
S'0.6'
p1139
sbasS'_per36Minutes'
p1140
(lp1141
(isrc.gp1.models.Per36Minutes
Per36Minutes
p1142
(dp1143
g8
S'2.5'
p1144
sg10
g3
sg11
S'.439'
p1145
sg13
S'3.4'
p1146
sg15
g3
sg16
g3
sg17
S'15.3'
p1147
sg19
S'SF'
p1148
sg21
S'.795'
p1149
sg25
S'NBA'
p1150
sg27
S'1.1'
p1151
sg29
S'14.2'
p1152
sg31
S'5.1'
p1153
sg33
S'3.5'
p1154
sg35
S'6.4'
p1155
sg37
S'22'
p1156
sg39
S'MIL'
p1157
sg41
S'81'
p1158
sg43
S'0.5'
p1159
sg45
S'6.3'
p1160
sg47
S'2.8'
p1161
sg49
S'14.2'
p1162
sg51
S'4.0'
p1163
sg53
S'1975-76'
p1164
sg55
S'6.3'
p1165
sg57
g3
sg58
S'.439'
p1166
sg60
S'1646'
p1167
sg62
g3
sba(isrc.gp1.models.Per36Minutes
Per36Minutes
p1168
(dp1169
g8
S'1.9'
p1170
sg10
g3
sg11
S'.449'
p1171
sg13
S'3.1'
p1172
sg15
g3
sg16
g3
sg17
S'17.6'
p1173
sg19
S'SF'
p1174
sg21
S'.864'
p1175
sg25
S'NBA'
p1176
sg27
S'1.2'
p1177
sg29
S'16.3'
p1178
sg31
S'3.3'
p1179
sg33
S'3.4'
p1180
sg35
S'6.2'
p1181
sg37
S'23'
p1182
sg39
S'MIL'
p1183
sg41
S'82'
p1184
sg43
S'0.4'
p1185
sg45
S'7.3'
p1186
sg47
S'2.9'
p1187
sg49
S'16.3'
p1188
sg51
S'4.3'
p1189
sg53
S'1976-77'
p1190
sg55
S'7.3'
p1191
sg57
g3
sg58
S'.449'
p1192
sg60
S'2410'
p1193
sg62
g3
sba(isrc.gp1.models.Per36Minutes
Per36Minutes
p1194
(dp1195
g8
S'2.2'
p1196
sg10
g3
sg11
S'.503'
p1197
sg13
S'3.4'
p1198
sg15
g3
sg16
g3
sg17
S'21.5'
p1199
sg19
S'SF'
p1200
sg21
S'.810'
p1201
sg25
S'NBA'
p1202
sg27
S'1.4'
p1203
sg29
S'18.2'
p1204
sg31
S'3.9'
p1205
sg33
S'3.9'
p1206
sg35
S'5.6'
p1207
sg37
S'24'
p1208
sg39
S'MIL'
p1209
sg41
S'82'
p1210
sg43
S'0.6'
p1211
sg45
S'9.1'
p1212
sg47
S'3.2'
p1213
sg49
S'18.2'
p1214
sg51
S'3.4'
p1215
sg53
S'1977-78'
p1216
sg55
S'9.1'
p1217
sg57
S'3.4'
p1218
sg58
S'.503'
p1219
sg60
S'1876'
p1220
sg62
g3
sba(isrc.gp1.models.Per36Minutes
Per36Minutes
p1221
(dp1222
g8
S'2.1'
p1223
sg10
g3
sg11
S'.506'
p1224
sg13
S'3.0'
p1225
sg15
g3
sg16
g3
sg17
S'23.3'
p1226
sg19
S'SG'
p1227
sg21
S'.829'
p1228
sg25
S'NBA'
p1229
sg27
S'1.6'
p1230
sg29
S'19.6'
p1231
sg31
S'3.4'
p1232
sg33
S'4.2'
p1233
sg35
S'5.4'
p1234
sg37
S'25'
p1235
sg39
S'MIL'
p1236
sg41
S'82'
p1237
sg43
S'0.8'
p1238
sg45
S'9.9'
p1239
sg47
S'3.5'
p1240
sg49
S'19.6'
p1241
sg51
S'3.4'
p1242
sg53
S'1978-79'
p1243
sg55
S'9.9'
p1244
sg57
S'2.5'
p1245
sg58
S'.506'
p1246
sg60
S'1963'
p1247
sg62
g3
sba(isrc.gp1.models.Per36Minutes
Per36Minutes
p1248
(dp1249
g8
S'1.6'
p1250
sg10
S'0.4'
p1251
sg11
S'.478'
p1252
sg13
S'3.7'
p1253
sg15
S'.185'
p1254
sg16
S'0.1'
p1255
sg17
S'22.1'
p1256
sg19
S'SF'
p1257
sg21
S'.865'
p1258
sg25
S'NBA'
p1259
sg27
S'1.5'
p1260
sg29
S'19.3'
p1261
sg31
S'3.4'
p1262
sg33
S'4.1'
p1263
sg35
S'4.7'
p1264
sg37
S'26'
p1265
sg39
S'MIL'
p1266
sg41
S'81'
p1267
sg43
S'0.3'
p1268
sg45
S'9.2'
p1269
sg47
S'3.6'
p1270
sg49
S'18.9'
p1271
sg51
S'3.1'
p1272
sg53
S'1979-80'
p1273
sg55
S'9.2'
p1274
sg57
S'2.7'
p1275
sg58
S'.484'
p1276
sg60
S'2316'
p1277
sg62
g3
sba(isrc.gp1.models.Per36Minutes
Per36Minutes
p1278
(dp1279
g8
S'1.3'
p1280
sg10
S'0.3'
p1281
sg11
S'.487'
p1282
sg13
S'3.8'
p1283
sg15
S'.143'
p1284
sg16
S'0.0'
p1285
sg17
S'21.0'
p1286
sg19
S'SF'
p1287
sg21
S'.884'
p1288
sg25
S'NBA'
p1289
sg27
S'1.4'
p1290
sg29
S'17.9'
p1291
sg31
S'3.0'
p1292
sg33
S'3.9'
p1293
sg35
S'4.7'
p1294
sg37
S'27'
p1295
sg39
S'MIL'
p1296
sg41
S'77'
p1297
sg43
S'0.5'
p1298
sg45
S'8.7'
p1299
sg47
S'3.5'
p1300
sg49
S'17.6'
p1301
sg51
S'3.4'
p1302
sg53
S'1980-81'
p1303
sg55
S'8.7'
p1304
sg57
S'2.4'
p1305
sg58
S'.494'
p1306
sg60
S'2215'
p1307
sg62
g3
sba(isrc.gp1.models.Per36Minutes
Per36Minutes
p1308
(dp1309
g8
S'1.4'
p1310
sg10
S'0.4'
p1311
sg11
S'.483'
p1312
sg13
S'4.2'
p1313
sg15
S'.444'
p1314
sg16
S'0.2'
p1315
sg17
S'19.9'
p1316
sg19
S'SF'
p1317
sg21
S'.864'
p1318
sg25
S'NBA'
p1319
sg27
S'1.1'
p1320
sg29
S'16.9'
p1321
sg31
S'3.5'
p1322
sg33
S'4.0'
p1323
sg35
S'4.9'
p1324
sg37
S'28'
p1325
sg39
S'MIL'
p1326
sg41
S'41'
p1327
sg43
S'0.1'
p1328
sg45
S'8.0'
p1329
sg47
S'3.5'
p1330
sg49
S'16.5'
p1331
sg51
S'3.4'
p1332
sg53
S'1981-82'
p1333
sg55
S'8.1'
p1334
sg57
S'2.5'
p1335
sg58
S'.483'
p1336
sg60
S'924'
p1337
sg62
g215
sba(isrc.gp1.models.Per36Minutes
Per36Minutes
p1338
(dp1339
g8
S'0.9'
p1340
sg10
S'0.3'
p1341
sg11
S'.492'
p1342
sg13
S'4.0'
p1343
sg15
S'.077'
p1344
sg16
S'0.0'
p1345
sg17
S'19.5'
p1346
sg19
S'SF'
p1347
sg21
S'.837'
p1348
sg25
S'NBA'
p1349
sg27
S'0.8'
p1350
sg29
S'16.6'
p1351
sg31
S'3.0'
p1352
sg33
S'3.8'
p1353
sg35
S'4.8'
p1354
sg37
S'29'
p1355
sg39
S'MIL'
p1356
sg41
S'70'
p1357
sg43
S'0.2'
p1358
sg45
S'8.2'
p1359
sg47
S'3.2'
p1360
sg49
S'16.4'
p1361
sg51
S'3.9'
p1362
sg53
S'1982-83'
p1363
sg55
S'8.2'
p1364
sg57
S'2.4'
p1365
sg58
S'.498'
p1366
sg60
S'1855'
p1367
sg62
g153
sba(isrc.gp1.models.Per36Minutes
Per36Minutes
p1368
(dp1369
g8
S'1.2'
p1370
sg10
S'0.5'
p1371
sg11
S'.465'
p1372
sg13
S'3.9'
p1373
sg15
S'.194'
p1374
sg16
S'0.1'
p1375
sg17
S'18.1'
p1376
sg19
S'SF'
p1377
sg21
S'.807'
p1378
sg25
S'NBA'
p1379
sg27
S'0.8'
p1380
sg29
S'16.2'
p1381
sg31
S'3.3'
p1382
sg33
S'3.6'
p1383
sg35
S'4.9'
p1384
sg37
S'30'
p1385
sg39
S'MIL'
p1386
sg41
S'81'
p1387
sg43
S'0.2'
p1388
sg45
S'7.4'
p1389
sg47
S'2.9'
p1390
sg49
S'15.7'
p1391
sg51
S'3.7'
p1392
sg53
S'1983-84'
p1393
sg55
S'7.5'
p1394
sg57
S'2.2'
p1395
sg58
S'.473'
p1396
sg60
S'2431'
p1397
sg62
S'10'
p1398
sba(isrc.gp1.models.Per36Minutes
Per36Minutes
p1399
(dp1400
g8
S'1.0'
p1401
sg10
S'0.7'
p1402
sg11
S'.465'
p1403
sg13
S'3.0'
p1404
sg15
S'.359'
p1405
sg16
S'0.2'
p1406
sg17
S'19.7'
p1407
sg19
S'SF'
p1408
sg21
S'.879'
p1409
sg25
S'NBA'
p1410
sg27
S'0.8'
p1411
sg29
S'17.5'
p1412
sg31
S'2.3'
p1413
sg33
S'3.6'
p1414
sg35
S'4.1'
p1415
sg37
S'31'
p1416
sg39
S'LAC'
p1417
sg41
S'80'
p1418
sg43
S'0.3'
p1419
sg45
S'7.9'
p1420
sg47
S'3.2'
p1421
sg49
S'16.8'
p1422
sg51
S'3.1'
p1423
sg53
S'1984-85'
p1424
sg55
S'8.1'
p1425
sg57
S'2.0'
p1426
sg58
S'.469'
p1427
sg60
S'2042'
p1428
sg62
S'15'
p1429
sba(isrc.gp1.models.Per36Minutes
Per36Minutes
p1430
(dp1431
g8
S'0.9'
p1432
sg10
S'0.6'
p1433
sg11
S'.441'
p1434
sg13
S'3.3'
p1435
sg15
S'.333'
p1436
sg16
S'0.2'
p1437
sg17
S'15.8'
p1438
sg19
S'SF'
p1439
sg21
S'.891'
p1440
sg25
S'NBA'
p1441
sg27
S'1.0'
p1442
sg29
S'14.0'
p1443
sg31
S'2.5'
p1444
sg33
S'3.7'
p1445
sg35
S'3.8'
p1446
sg37
S'32'
p1447
sg39
S'LAC'
p1448
sg41
S'58'
p1449
sg43
S'0.2'
p1450
sg45
S'6.0'
p1451
sg47
S'3.3'
p1452
sg49
S'13.4'
p1453
sg51
S'2.9'
p1454
sg53
S'1985-86'
p1455
sg55
S'6.2'
p1456
sg57
S'2.1'
p1457
sg58
S'.446'
p1458
sg60
S'1161'
p1459
sg62
S'14'
p1460
sba(isrc.gp1.models.Per36Minutes
Per36Minutes
p1461
(dp1462
g8
S'1.2'
p1463
sg10
S'0.5'
p1464
sg11
S'.462'
p1465
sg13
S'3.0'
p1466
sg15
S'.167'
p1467
sg16
S'0.1'
p1468
sg17
S'15.1'
p1469
sg19
S'SF'
p1470
sg21
S'.800'
p1471
sg25
S'NBA'
p1472
sg27
S'0.9'
p1473
sg29
S'14.7'
p1474
sg31
S'4.3'
p1475
sg33
S'1.7'
p1476
sg35
S'4.5'
p1477
sg37
S'33'
p1478
sg39
S'MIL'
p1479
sg41
S'34'
p1480
sg43
S'0.2'
p1481
sg45
S'6.7'
p1482
sg47
S'1.4'
p1483
sg49
S'14.2'
p1484
sg51
S'3.3'
p1485
sg53
S'1986-87'
p1486
sg55
S'6.8'
p1487
sg57
S'1.3'
p1488
sg58
S'.473'
p1489
sg60
S'418'
p1490
sg62
g215
sbasS'_fromYear'
p1491
S'1976'
p1492
sS'_url'
p1493
S'http://www.basketball-reference.com/players/b/bridgju01.html'
p1494
sS'_perGame'
p1495
(isrc.gp1.models.PerGame
PerGame
p1496
(dp1497
g8
S'0.4'
p1498
sg10
S'0.2'
p1499
sg11
S'.462'
p1500
sS'_effectiveFieldGalPercentage'
p1501
S'.465'
p1502
sg13
S'1.0'
p1503
sg15
S'.167'
p1504
sg16
S'0.0'
p1505
sg17
S'5.1'
p1506
sg19
S'SF'
p1507
sg21
S'.800'
p1508
sg25
S'NBA'
p1509
sg27
S'0.3'
p1510
sg31
S'1.5'
p1511
sS'_fieldGoalsttempted'
p1512
S'5.0'
p1513
sg33
S'0.6'
p1514
sg35
S'1.5'
p1515
sg37
S'33'
p1516
sg39
S'MIL'
p1517
sg41
S'34'
p1518
sg43
S'0.1'
p1519
sg45
S'2.3'
p1520
sg47
S'0.5'
p1521
sg49
S'4.9'
p1522
sg51
S'1.1'
p1523
sg53
S'1986-87'
p1524
sg55
S'2.3'
p1525
sg57
S'0.4'
p1526
sg58
S'.473'
p1527
sg60
S'12.3'
p1528
sg62
g215
sbsS'_weight'
p1529
S'210'
p1530
sS'_dob'
p1531
S'17-9-1953'
p1532
sS'_salary'
p1533
(lp1534
(isrc.gp1.models.Salary
Salary
p1535
(dp1536
g39
S'Los Angeles Clippers'
p1537
sg25
S'NBA'
p1538
sg1533
S'$350,000'
p1539
sg53
S'1985-86'
p1540
sbasg19
S'F-G'
p1541
sb.