(isrc.gp1.models.Player
Player
p0
(dp1
S'_experience'
p2
S'NA'
p3
sS'_totals'
p4
(lp5
(isrc.gp1.models.Totals
Totals
p6
(dp7
S'_offensiveRebounds'
p8
g3
sS'_threePointsAttempted'
p9
g3
sS'_fieldGoalsPercentage'
p10
S'.328'
p11
sS'_assist'
p12
S'60'
p13
sS'_threePointsPercentage'
p14
g3
sS'_threePoints'
p15
g3
sS'_points'
p16
S'140'
p17
sS'_position'
p18
S'SG'
p19
sS'_freeThrowsPercentage'
p20
S'.759'
p21
sS'_effectiveFieldGoalPercentage'
p22
S'.328'
p23
sS'_league'
p24
S'NBA'
p25
sS'_steals'
p26
g3
sS'_fieldGoalsAttempted'
p27
S'180'
p28
sS'_personalFouls'
p29
S'44'
p30
sS'_freeThrowsAttempted'
p31
S'29'
p32
sS'_totalRebounds'
p33
S'37'
p34
sS'_age'
p35
S'23'
p36
sS'_team'
p37
S'SEA'
p38
sS'_games'
p39
S'33'
p40
sS'_blocks'
p41
g3
sS'_twoPoints'
p42
S'59'
p43
sS'_freeThrows'
p44
S'22'
p45
sS'_twoPointsAttempted'
p46
S'180'
p47
sS'_defensiveRebounds'
p48
g3
sS'_season'
p49
S'1971-72'
p50
sS'_fieldGoals'
p51
S'59'
p52
sS'_turnOvers'
p53
g3
sS'_twoPointsPercentage'
p54
S'.328'
p55
sS'_minutesPlayed'
p56
S'359'
p57
sS'_gamesStarted'
p58
g3
sba(isrc.gp1.models.Totals
Totals
p59
(dp60
g8
g3
sg9
g3
sg10
S'.455'
p61
sg12
S'438'
p62
sg14
g3
sg15
g3
sg16
S'1063'
p63
sg18
S'SG'
p64
sg20
S'.818'
p65
sg22
S'.455'
p66
sg24
S'NBA'
p67
sg26
g3
sg27
S'1035'
p68
sg29
S'226'
p69
sg31
S'148'
p70
sg33
S'318'
p71
sg35
S'24'
p72
sg37
S'SEA'
p73
sg39
S'79'
p74
sg41
g3
sg42
S'471'
p75
sg44
S'121'
p76
sg46
S'1035'
p77
sg48
g3
sg49
S'1972-73'
p78
sg51
S'471'
p79
sg53
g3
sg54
S'.455'
p80
sg56
S'2320'
p81
sg58
g3
sba(isrc.gp1.models.Totals
Totals
p82
(dp83
g8
S'114'
p84
sg9
g3
sg10
S'.471'
p85
sg12
S'414'
p86
sg14
g3
sg15
g3
sg16
S'1351'
p87
sg18
S'SG'
p88
sg20
S'.863'
p89
sg22
S'.471'
p90
sg24
S'NBA'
p91
sg26
S'136'
p92
sg27
S'1226'
p93
sg29
S'276'
p94
sg31
S'226'
p95
sg33
S'401'
p96
sg35
S'25'
p97
sg37
S'SEA'
p98
sg39
S'82'
p99
sg41
S'18'
p100
sg42
S'578'
p101
sg44
S'195'
p102
sg46
S'1226'
p103
sg48
S'287'
p104
sg49
S'1973-74'
p105
sg51
S'578'
p106
sg53
g3
sg54
S'.471'
p107
sg56
S'2501'
p108
sg58
g3
sba(isrc.gp1.models.Totals
Totals
p109
(dp110
g8
S'113'
p111
sg9
g3
sg10
S'.480'
p112
sg12
S'284'
p113
sg14
g3
sg15
g3
sg16
S'1700'
p114
sg18
S'SG'
p115
sg20
S'.831'
p116
sg22
S'.480'
p117
sg24
S'NBA'
p118
sg26
S'187'
p119
sg27
S'1537'
p120
sg29
S'227'
p121
sg31
S'272'
p122
sg33
S'343'
p123
sg35
S'26'
p124
sg37
S'SEA'
p125
sg39
S'81'
p126
sg41
S'14'
p127
sg42
S'737'
p128
sg44
S'226'
p129
sg46
S'1537'
p130
sg48
S'230'
p131
sg49
S'1974-75'
p132
sg51
S'737'
p133
sg53
g3
sg54
S'.480'
p134
sg56
S'2669'
p135
sg58
g3
sba(isrc.gp1.models.Totals
Totals
p136
(dp137
g8
S'111'
p138
sg9
g3
sg10
S'.488'
p139
sg12
S'207'
p140
sg14
g3
sg15
g3
sg16
S'1757'
p141
sg18
S'SG'
p142
sg20
S'.869'
p143
sg22
S'.488'
p144
sg24
S'NBA'
p145
sg26
S'143'
p146
sg27
S'1522'
p147
sg29
S'186'
p148
sg31
S'314'
p149
sg33
S'317'
p150
sg35
S'27'
p151
sg37
S'SEA'
p152
sg39
S'76'
p153
sg41
S'18'
p154
sg42
S'742'
p155
sg44
S'273'
p156
sg46
S'1522'
p157
sg48
S'206'
p158
sg49
S'1975-76'
p159
sg51
S'742'
p160
sg53
g3
sg54
S'.488'
p161
sg56
S'2516'
p162
sg58
g3
sba(isrc.gp1.models.Totals
Totals
p163
(dp164
g8
S'68'
p165
sg9
g3
sg10
S'.479'
p166
sg12
S'176'
p167
sg14
g3
sg15
g3
sg16
S'1236'
p168
sg18
S'SG'
p169
sg20
S'.884'
p170
sg22
S'.479'
p171
sg24
S'NBA'
p172
sg26
S'124'
p173
sg27
S'1114'
p174
sg29
S'140'
p175
sg31
S'190'
p176
sg33
S'232'
p177
sg35
S'28'
p178
sg37
S'SEA'
p179
sg39
S'72'
p180
sg41
S'19'
p181
sg42
S'534'
p182
sg44
S'168'
p183
sg46
S'1114'
p184
sg48
S'164'
p185
sg49
S'1976-77'
p186
sg51
S'534'
p187
sg53
g3
sg54
S'.479'
p188
sg56
S'2098'
p189
sg58
g3
sba(isrc.gp1.models.Totals
Totals
p190
(dp191
g8
S'61'
p192
sg9
g3
sg10
S'.488'
p193
sg12
S'240'
p194
sg14
g3
sg15
g3
sg16
S'1192'
p195
sg18
S'SG'
p196
sg20
S'.898'
p197
sg22
S'.488'
p198
sg24
S'NBA'
p199
sg26
S'110'
p200
sg27
S'1042'
p201
sg29
S'145'
p202
sg31
S'196'
p203
sg33
S'188'
p204
sg35
S'29'
p205
sg37
S'SEA'
p206
sg39
S'72'
p207
sg41
S'25'
p208
sg42
S'508'
p209
sg44
S'176'
p210
sg46
S'1042'
p211
sg48
S'127'
p212
sg49
S'1977-78'
p213
sg51
S'508'
p214
sg53
S'164'
p215
sg54
S'.488'
p216
sg56
S'1965'
p217
sg58
g3
sba(isrc.gp1.models.Totals
Totals
p218
(dp219
g8
S'38'
p220
sg9
g3
sg10
S'.469'
p221
sg12
S'260'
p222
sg14
g3
sg15
g3
sg16
S'1075'
p223
sg18
S'PG'
p224
sg20
S'.888'
p225
sg22
S'.469'
p226
sg24
S'NBA'
p227
sg26
S'119'
p228
sg27
S'951'
p229
sg29
S'142'
p230
sg31
S'206'
p231
sg33
S'172'
p232
sg35
S'30'
p233
sg37
S'SEA'
p234
sg39
S'77'
p235
sg41
S'23'
p236
sg42
S'446'
p237
sg44
S'183'
p238
sg46
S'951'
p239
sg48
S'134'
p240
sg49
S'1978-79'
p241
sg51
S'446'
p242
sg53
S'164'
p243
sg54
S'.469'
p244
sg56
S'1961'
p245
sg58
g3
sba(isrc.gp1.models.Totals
Totals
p246
(dp247
g8
S'35'
p248
sg9
S'88'
p249
sg10
S'.479'
p250
sg12
S'174'
p251
sg14
S'.443'
p252
sg15
S'39'
p253
sg16
S'960'
p254
sg18
S'SG'
p255
sg20
S'.837'
p256
sg22
S'.502'
p257
sg24
S'NBA'
p258
sg26
S'65'
p259
sg27
S'843'
p260
sg29
S'117'
p261
sg31
S'135'
p262
sg33
S'155'
p263
sg35
S'31'
p264
sg37
S'SEA'
p265
sg39
S'80'
p266
sg41
S'17'
p267
sg42
S'365'
p268
sg44
S'113'
p269
sg46
S'755'
p270
sg48
S'120'
p271
sg49
S'1979-80'
p272
sg51
S'404'
p273
sg53
S'105'
p274
sg54
S'.483'
p275
sg56
S'1701'
p276
sg58
g3
sba(isrc.gp1.models.Totals
Totals
p277
(dp278
g8
S'53'
p279
sg9
S'64'
p280
sg10
S'.488'
p281
sg12
S'233'
p282
sg14
S'.359'
p283
sg15
S'23'
p284
sg16
S'1206'
p285
sg18
S'SG'
p286
sg20
S'.832'
p287
sg22
S'.499'
p288
sg24
S'NBA'
p289
sg26
S'88'
p290
sg27
S'1035'
p291
sg29
S'141'
p292
sg31
S'208'
p293
sg33
S'175'
p294
sg35
S'32'
p295
sg37
S'SEA'
p296
sg39
S'78'
p297
sg41
S'13'
p298
sg42
S'482'
p299
sg44
S'173'
p300
sg46
S'971'
p301
sg48
S'122'
p302
sg49
S'1980-81'
p303
sg51
S'505'
p304
sg53
S'131'
p305
sg54
S'.496'
p306
sg56
S'1986'
p307
sg58
g3
sba(isrc.gp1.models.Totals
Totals
p308
(dp309
g8
S'42'
p310
sg9
S'77'
p311
sg10
S'.455'
p312
sg12
S'238'
p313
sg14
S'.325'
p314
sg15
S'25'
p315
sg16
S'922'
p316
sg18
S'SG'
p317
sg20
S'.860'
p318
sg22
S'.470'
p319
sg24
S'NBA'
p320
sg26
S'69'
p321
sg27
S'863'
p322
sg29
S'111'
p323
sg31
S'129'
p324
sg33
S'140'
p325
sg35
S'33'
p326
sg37
S'SEA'
p327
sg39
S'82'
p328
sg41
S'4'
p329
sg42
S'368'
p330
sg44
S'111'
p331
sg46
S'786'
p332
sg48
S'98'
p333
sg49
S'1981-82'
p334
sg51
S'393'
p335
sg53
S'96'
p336
sg54
S'.468'
p337
sg56
S'1785'
p338
sg58
S'2'
p339
sba(isrc.gp1.models.Totals
Totals
p340
(dp341
g8
S'32'
p342
sg9
S'32'
p343
sg10
S'.520'
p344
sg12
S'242'
p345
sg14
S'.438'
p346
sg15
S'14'
p347
sg16
S'814'
p348
sg18
S'PG'
p349
sg20
S'.806'
p350
sg22
S'.529'
p351
sg24
S'NBA'
p352
sg26
S'59'
p353
sg27
S'714'
p354
sg29
S'98'
p355
sg31
S'72'
p356
sg33
S'97'
p357
sg35
S'34'
p358
sg37
S'SEA'
p359
sg39
S'80'
p360
sg41
S'13'
p361
sg42
S'357'
p362
sg44
S'58'
p363
sg46
S'682'
p364
sg48
S'65'
p365
sg49
S'1982-83'
p366
sg51
S'371'
p367
sg53
S'110'
p368
sg54
S'.523'
p369
sg56
S'1432'
p370
sg58
S'1'
p371
sba(isrc.gp1.models.Totals
Totals
p372
(dp373
g8
S'14'
p374
sg9
S'34'
p375
sg10
S'.510'
p376
sg12
S'194'
p377
sg14
S'.265'
p378
sg15
S'9'
p379
sg16
S'602'
p380
sg18
S'SG'
p381
sg20
S'.895'
p382
sg22
S'.519'
p383
sg24
S'NBA'
p384
sg26
S'49'
p385
sg27
S'506'
p386
sg29
S'84'
p387
sg31
S'86'
p388
sg33
S'62'
p389
sg35
S'35'
p390
sg37
S'SEA'
p391
sg39
S'71'
p392
sg41
g339
sg42
S'249'
p393
sg44
S'77'
p394
sg46
S'472'
p395
sg48
S'48'
p396
sg49
S'1983-84'
p397
sg51
S'258'
p398
sg53
S'70'
p399
sg54
S'.528'
p400
sg56
S'1129'
p401
sg58
g371
sbasS'_college'
p402
S'University of Iowa'
p403
sS'_toYear'
p404
S'1984'
p405
sS'_height'
p406
S'6-3'
p407
sS'_active'
p408
I00
sS'_shootingHand'
p409
VRight
p410
sS'_name'
p411
S'Fred Brown'
p412
sS'_per100Possessions'
p413
(lp414
(isrc.gp1.models.Per100Possession
Per100Possession
p415
(dp416
g8
S'2.0'
p417
sg9
g3
sg10
S'.471'
p418
sS'_offensiveRating'
p419
g3
sg12
S'7.2'
p420
sg14
g3
sg15
g3
sg16
S'23.5'
p421
sg18
S'SG'
p422
sS'_defensiveRating'
p423
S'98'
p424
sg20
S'.863'
p425
sg24
S'NBA'
p426
sg26
S'2.4'
p427
sg27
S'21.4'
p428
sg29
S'4.8'
p429
sg31
S'3.9'
p430
sg33
S'7.0'
p431
sg35
S'25'
p432
sg37
S'SEA'
p433
sg39
S'82'
p434
sg41
S'0.3'
p435
sg42
S'10.1'
p436
sg44
S'3.4'
p437
sg46
S'21.4'
p438
sg48
S'5.0'
p439
sg49
S'1973-74'
p440
sg51
S'10.1'
p441
sg53
g3
sg54
S'.471'
p442
sg56
S'2501'
p443
sg58
g3
sba(isrc.gp1.models.Per100Possession
Per100Possession
p444
(dp445
g8
S'1.9'
p446
sg9
g3
sg10
S'.480'
p447
sg419
g3
sg12
S'4.8'
p448
sg14
g3
sg15
g3
sg16
S'29.0'
p449
sg18
S'SG'
p450
sg423
S'97'
p451
sg20
S'.831'
p452
sg24
S'NBA'
p453
sg26
S'3.2'
p454
sg27
S'26.2'
p455
sg29
S'3.9'
p456
sg31
S'4.6'
p457
sg33
S'5.8'
p458
sg35
S'26'
p459
sg37
S'SEA'
p460
sg39
S'81'
p461
sg41
S'0.2'
p462
sg42
S'12.6'
p463
sg44
S'3.9'
p464
sg46
S'26.2'
p465
sg48
S'3.9'
p466
sg49
S'1974-75'
p467
sg51
S'12.6'
p468
sg53
g3
sg54
S'.480'
p469
sg56
S'2669'
p470
sg58
g3
sba(isrc.gp1.models.Per100Possession
Per100Possession
p471
(dp472
g8
S'2.0'
p473
sg9
g3
sg10
S'.488'
p474
sg419
g3
sg12
S'3.7'
p475
sg14
g3
sg15
g3
sg16
S'31.1'
p476
sg18
S'SG'
p477
sg423
S'99'
p478
sg20
S'.869'
p479
sg24
S'NBA'
p480
sg26
S'2.5'
p481
sg27
S'27.0'
p482
sg29
S'3.3'
p483
sg31
S'5.6'
p484
sg33
S'5.6'
p485
sg35
S'27'
p486
sg37
S'SEA'
p487
sg39
S'76'
p488
sg41
S'0.3'
p489
sg42
S'13.1'
p490
sg44
S'4.8'
p491
sg46
S'27.0'
p492
sg48
S'3.6'
p493
sg49
S'1975-76'
p494
sg51
S'13.1'
p495
sg53
g3
sg54
S'.488'
p496
sg56
S'2516'
p497
sg58
g3
sba(isrc.gp1.models.Per100Possession
Per100Possession
p498
(dp499
g8
S'1.5'
p500
sg9
g3
sg10
S'.479'
p501
sg419
g3
sg12
S'3.8'
p502
sg14
g3
sg15
g3
sg16
S'26.5'
p503
sg18
S'SG'
p504
sg423
S'99'
p505
sg20
S'.884'
p506
sg24
S'NBA'
p507
sg26
S'2.7'
p508
sg27
S'23.9'
p509
sg29
S'3.0'
p510
sg31
S'4.1'
p511
sg33
S'5.0'
p512
sg35
S'28'
p513
sg37
S'SEA'
p514
sg39
S'72'
p515
sg41
S'0.4'
p516
sg42
S'11.4'
p517
sg44
S'3.6'
p518
sg46
S'23.9'
p519
sg48
S'3.5'
p520
sg49
S'1976-77'
p521
sg51
S'11.4'
p522
sg53
g3
sg54
S'.479'
p523
sg56
S'2098'
p524
sg58
g3
sba(isrc.gp1.models.Per100Possession
Per100Possession
p525
(dp526
g8
S'1.4'
p527
sg9
g3
sg10
S'.488'
p528
sg419
S'106'
p529
sg12
S'5.6'
p530
sg14
g3
sg15
g3
sg16
S'27.8'
p531
sg18
S'SG'
p532
sg423
S'99'
p533
sg20
S'.898'
p534
sg24
S'NBA'
p535
sg26
S'2.6'
p536
sg27
S'24.3'
p537
sg29
S'3.4'
p538
sg31
S'4.6'
p539
sg33
S'4.4'
p540
sg35
S'29'
p541
sg37
S'SEA'
p542
sg39
S'72'
p543
sg41
S'0.6'
p544
sg42
S'11.8'
p545
sg44
S'4.1'
p546
sg46
S'24.3'
p547
sg48
S'3.0'
p548
sg49
S'1977-78'
p549
sg51
S'11.8'
p550
sg53
S'3.8'
p551
sg54
S'.488'
p552
sg56
S'1965'
p553
sg58
g3
sba(isrc.gp1.models.Per100Possession
Per100Possession
p554
(dp555
g8
S'0.9'
p556
sg9
g3
sg10
S'.469'
p557
sg419
S'104'
p558
sg12
S'6.2'
p559
sg14
g3
sg15
g3
sg16
S'25.5'
p560
sg18
S'PG'
p561
sg423
S'100'
p562
sg20
S'.888'
p563
sg24
S'NBA'
p564
sg26
S'2.8'
p565
sg27
S'22.5'
p566
sg29
S'3.4'
p567
sg31
S'4.9'
p568
sg33
S'4.1'
p569
sg35
S'30'
p570
sg37
S'SEA'
p571
sg39
S'77'
p572
sg41
S'0.5'
p573
sg42
S'10.6'
p574
sg44
S'4.3'
p575
sg46
S'22.5'
p576
sg48
S'3.2'
p577
sg49
S'1978-79'
p578
sg51
S'10.6'
p579
sg53
S'3.9'
p580
sg54
S'.469'
p581
sg56
S'1961'
p582
sg58
g3
sba(isrc.gp1.models.Per100Possession
Per100Possession
p583
(dp584
g8
S'1.0'
p585
sg9
S'2.4'
p586
sg10
S'.479'
p587
sg419
S'109'
p588
sg12
S'4.8'
p589
sg14
S'.443'
p590
sg15
S'1.1'
p591
sg16
S'26.6'
p592
sg18
S'SG'
p593
sg423
S'104'
p594
sg20
S'.837'
p595
sg24
S'NBA'
p596
sg26
S'1.8'
p597
sg27
S'23.4'
p598
sg29
S'3.2'
p599
sg31
S'3.7'
p600
sg33
S'4.3'
p601
sg35
S'31'
p602
sg37
S'SEA'
p603
sg39
S'80'
p604
sg41
S'0.5'
p605
sg42
S'10.1'
p606
sg44
S'3.1'
p607
sg46
S'20.9'
p608
sg48
S'3.3'
p609
sg49
S'1979-80'
p610
sg51
S'11.2'
p611
sg53
S'2.9'
p612
sg54
S'.483'
p613
sg56
S'1701'
p614
sg58
g3
sba(isrc.gp1.models.Per100Possession
Per100Possession
p615
(dp616
g8
S'1.3'
p617
sg9
S'1.5'
p618
sg10
S'.488'
p619
sg419
S'109'
p620
sg12
S'5.6'
p621
sg14
S'.359'
p622
sg15
S'0.6'
p623
sg16
S'29.1'
p624
sg18
S'SG'
p625
sg423
S'107'
p626
sg20
S'.832'
p627
sg24
S'NBA'
p628
sg26
S'2.1'
p629
sg27
S'24.9'
p630
sg29
S'3.4'
p631
sg31
S'5.0'
p632
sg33
S'4.2'
p633
sg35
S'32'
p634
sg37
S'SEA'
p635
sg39
S'78'
p636
sg41
S'0.3'
p637
sg42
S'11.6'
p638
sg44
S'4.2'
p639
sg46
S'23.4'
p640
sg48
S'2.9'
p641
sg49
S'1980-81'
p642
sg51
S'12.2'
p643
sg53
S'3.2'
p644
sg54
S'.496'
p645
sg56
S'1986'
p646
sg58
g3
sba(isrc.gp1.models.Per100Possession
Per100Possession
p647
(dp648
g8
S'1.1'
p649
sg9
S'2.1'
p650
sg10
S'.455'
p651
sg419
S'105'
p652
sg12
S'6.4'
p653
sg14
S'.325'
p654
sg15
S'0.7'
p655
sg16
S'24.8'
p656
sg18
S'SG'
p657
sg423
S'106'
p658
sg20
S'.860'
p659
sg24
S'NBA'
p660
sg26
S'1.9'
p661
sg27
S'23.2'
p662
sg29
S'3.0'
p663
sg31
S'3.5'
p664
sg33
S'3.8'
p665
sg35
S'33'
p666
sg37
S'SEA'
p667
sg39
S'82'
p668
sg41
S'0.1'
p669
sg42
S'9.9'
p670
sg44
S'3.0'
p671
sg46
S'21.1'
p672
sg48
S'2.6'
p673
sg49
S'1981-82'
p674
sg51
S'10.6'
p675
sg53
S'2.6'
p676
sg54
S'.468'
p677
sg56
S'1785'
p678
sg58
g339
sba(isrc.gp1.models.Per100Possession
Per100Possession
p679
(dp680
g8
S'1.0'
p681
sg9
S'1.0'
p682
sg10
S'.520'
p683
sg419
S'108'
p684
sg12
S'7.9'
p685
sg14
S'.438'
p686
sg15
S'0.5'
p687
sg16
S'26.4'
p688
sg18
S'PG'
p689
sg423
S'106'
p690
sg20
S'.806'
p691
sg24
S'NBA'
p692
sg26
S'1.9'
p693
sg27
S'23.2'
p694
sg29
S'3.2'
p695
sg31
S'2.3'
p696
sg33
S'3.2'
p697
sg35
S'34'
p698
sg37
S'SEA'
p699
sg39
S'80'
p700
sg41
S'0.4'
p701
sg42
S'11.6'
p702
sg44
S'1.9'
p703
sg46
S'22.2'
p704
sg48
S'2.1'
p705
sg49
S'1982-83'
p706
sg51
S'12.1'
p707
sg53
S'3.6'
p708
sg54
S'.523'
p709
sg56
S'1432'
p710
sg58
g371
sba(isrc.gp1.models.Per100Possession
Per100Possession
p711
(dp712
g8
S'0.6'
p713
sg9
S'1.4'
p714
sg10
S'.510'
p715
sg419
S'111'
p716
sg12
S'8.3'
p717
sg14
S'.265'
p718
sg15
S'0.4'
p719
sg16
S'25.7'
p720
sg18
S'SG'
p721
sg423
S'110'
p722
sg20
S'.895'
p723
sg24
S'NBA'
p724
sg26
S'2.1'
p725
sg27
S'21.6'
p726
sg29
S'3.6'
p727
sg31
S'3.7'
p728
sg33
S'2.6'
p729
sg35
S'35'
p730
sg37
S'SEA'
p731
sg39
S'71'
p732
sg41
S'0.1'
p733
sg42
S'10.6'
p734
sg44
S'3.3'
p735
sg46
S'20.1'
p736
sg48
S'2.0'
p737
sg49
S'1983-84'
p738
sg51
S'11.0'
p739
sg53
S'3.0'
p740
sg54
S'.528'
p741
sg56
S'1129'
p742
sg58
g371
sbasS'_advanced'
p743
(lp744
(isrc.gp1.models.Advanced
Advanced
p745
(dp746
S'_offensiveReboundPercentage'
p747
g3
sS'_turnOverPercentage'
p748
g3
sS'_winSharesPer48Minutes'
p749
S'-0.115'
p750
sS'_stealPercentage'
p751
g3
sS'_usagePercentage'
p752
g3
sS'_totalReboundsPercentage'
p753
S'4.9'
p754
sS'_defensiveBoxPlusMinus'
p755
g3
sg18
S'SG'
p756
sS'_valueOverReplacementPlayer'
p757
g3
sS'_trueShootingPercentage'
p758
S'.363'
p759
sS'_defensiveReboundPercentage'
p760
g3
sS'_freeThrowsAttempRate'
p761
S'.161'
p762
sS'_threePointsAttempRate'
p763
g3
sg24
S'NBA'
p764
sS'_offensiveBoxPlusMinues'
p765
g3
sS'_assistPercentage'
p766
S'23.5'
p767
sS'_defensiveWinShares'
p768
S'0.2'
p769
sg35
S'23'
p770
sg37
S'SEA'
p771
sg39
S'33'
p772
sS'_blockPercentage'
p773
g3
sS'_playerEfficiencyRating'
p774
S'8.5'
p775
sS'_offensiveWinShares'
p776
S'-1.1'
p777
sg56
S'359'
p778
sS'_boxPlusMinus'
p779
g3
sg49
S'1971-72'
p780
sS'_winShares'
p781
S'-0.9'
p782
sba(isrc.gp1.models.Advanced
Advanced
p783
(dp784
g747
g3
sg748
g3
sg749
S'.057'
p785
sg751
g3
sg752
g3
sg753
S'6.5'
p786
sg755
g3
sg18
S'SG'
p787
sg757
g3
sg758
S'.483'
p788
sg760
g3
sg761
S'.143'
p789
sg763
g3
sg24
S'NBA'
p790
sg765
g3
sg766
S'28.2'
p791
sg768
S'1.0'
p792
sg35
S'24'
p793
sg37
S'SEA'
p794
sg39
S'79'
p795
sg773
g3
sg774
S'16.0'
p796
sg776
S'1.8'
p797
sg56
S'2320'
p798
sg779
g3
sg49
S'1972-73'
p799
sg781
S'2.8'
p800
sba(isrc.gp1.models.Advanced
Advanced
p801
(dp802
g747
S'4.2'
p803
sg748
g3
sg749
S'.123'
p804
sg751
S'2.4'
p805
sg752
g3
sg753
S'7.8'
p806
sg755
S'0.2'
p807
sg18
S'SG'
p808
sg757
S'3.3'
p809
sg758
S'.510'
p810
sg760
S'11.7'
p811
sg761
S'.184'
p812
sg763
g3
sg24
S'NBA'
p813
sg765
S'3.1'
p814
sg766
S'24.5'
p815
sg768
S'2.4'
p816
sg35
S'25'
p817
sg37
S'SEA'
p818
sg39
S'82'
p819
sg773
S'0.4'
p820
sg774
S'17.9'
p821
sg776
S'4.0'
p822
sg56
S'2501'
p823
sg779
S'3.3'
p824
sg49
S'1973-74'
p825
sg781
S'6.4'
p826
sba(isrc.gp1.models.Advanced
Advanced
p827
(dp828
g747
S'4.3'
p829
sg748
g3
sg749
S'.142'
p830
sg751
S'3.2'
p831
sg752
g3
sg753
S'6.6'
p832
sg755
S'-0.2'
p833
sg18
S'SG'
p834
sg757
S'3.6'
p835
sg758
S'.513'
p836
sg760
S'8.9'
p837
sg761
S'.177'
p838
sg763
g3
sg24
S'NBA'
p839
sg765
S'3.6'
p840
sg766
S'17.7'
p841
sg768
S'2.9'
p842
sg35
S'26'
p843
sg37
S'SEA'
p844
sg39
S'81'
p845
sg773
S'0.3'
p846
sg774
S'19.8'
p847
sg776
S'5.0'
p848
sg56
S'2669'
p849
sg779
S'3.4'
p850
sg49
S'1974-75'
p851
sg781
S'7.9'
p852
sba(isrc.gp1.models.Advanced
Advanced
p853
(dp854
g747
S'4.4'
p855
sg748
g3
sg749
S'.167'
p856
sg751
S'2.5'
p857
sg752
g3
sg753
S'6.5'
p858
sg755
S'-1.4'
p859
sg18
S'SG'
p860
sg757
S'2.7'
p861
sg758
S'.529'
p862
sg760
S'8.7'
p863
sg761
S'.206'
p864
sg763
g3
sg24
S'NBA'
p865
sg765
S'3.6'
p866
sg766
S'13.7'
p867
sg768
S'2.2'
p868
sg35
S'27'
p869
sg37
S'SEA'
p870
sg39
S'76'
p871
sg773
S'0.4'
p872
sg774
S'20.4'
p873
sg776
S'6.6'
p874
sg56
S'2516'
p875
sg779
S'2.2'
p876
sg49
S'1975-76'
p877
sg781
S'8.8'
p878
sba(isrc.gp1.models.Advanced
Advanced
p879
(dp880
g747
S'3.2'
p881
sg748
g3
sg749
S'.140'
p882
sg751
S'2.7'
p883
sg752
g3
sg753
S'5.7'
p884
sg755
S'-0.5'
p885
sg18
S'SG'
p886
sg757
S'1.5'
p887
sg758
S'.516'
p888
sg760
S'8.4'
p889
sg761
S'.171'
p890
sg763
g3
sg24
S'NBA'
p891
sg765
S'1.3'
p892
sg766
S'13.7'
p893
sg768
S'2.2'
p894
sg35
S'28'
p895
sg37
S'SEA'
p896
sg39
S'72'
p897
sg773
S'0.5'
p898
sg774
S'17.4'
p899
sg776
S'3.9'
p900
sg56
S'2098'
p901
sg779
S'0.8'
p902
sg49
S'1976-77'
p903
sg781
S'6.1'
p904
sba(isrc.gp1.models.Advanced
Advanced
p905
(dp906
g747
S'3.0'
p907
sg748
S'12.7'
p908
sg749
S'.163'
p909
sg751
S'2.6'
p910
sg752
S'25.0'
p911
sg753
S'4.9'
p912
sg755
S'-0.5'
p913
sg18
S'SG'
p914
sg757
S'1.9'
p915
sg758
S'.528'
p916
sg760
S'6.9'
p917
sg761
S'.188'
p918
sg763
g3
sg24
S'NBA'
p919
sg765
S'2.4'
p920
sg766
S'19.9'
p921
sg768
S'2.5'
p922
sg35
S'29'
p923
sg37
S'SEA'
p924
sg39
S'72'
p925
sg773
S'0.7'
p926
sg774
S'19.6'
p927
sg776
S'4.1'
p928
sg56
S'1965'
p929
sg779
S'1.9'
p930
sg49
S'1977-78'
p931
sg781
S'6.7'
p932
sba(isrc.gp1.models.Advanced
Advanced
p933
(dp934
g747
S'2.0'
p935
sg748
S'13.6'
p936
sg749
S'.127'
p937
sg751
S'2.8'
p938
sg752
S'24.1'
p939
sg753
S'4.6'
p940
sg755
S'-0.1'
p941
sg18
S'PG'
p942
sg757
S'1.2'
p943
sg758
S'.516'
p944
sg760
S'7.2'
p945
sg761
S'.217'
p946
sg763
g3
sg24
S'NBA'
p947
sg765
S'0.4'
p948
sg766
S'20.1'
p949
sg768
S'2.9'
p950
sg35
S'30'
p951
sg37
S'SEA'
p952
sg39
S'77'
p953
sg773
S'0.6'
p954
sg774
S'16.9'
p955
sg776
S'2.3'
p956
sg56
S'1961'
p957
sg779
S'0.3'
p958
sg49
S'1978-79'
p959
sg781
S'5.2'
p960
sba(isrc.gp1.models.Advanced
Advanced
p961
(dp962
g747
S'2.2'
p963
sg748
S'10.4'
p964
sg749
S'.138'
p965
sg751
S'1.8'
p966
sg752
S'23.4'
p967
sg753
S'4.8'
p968
sg755
S'-1.5'
p969
sg18
S'SG'
p970
sg757
S'0.6'
p971
sg758
S'.532'
p972
sg760
S'7.5'
p973
sg761
S'.160'
p974
sg763
S'.104'
p975
sg24
S'NBA'
p976
sg765
S'0.8'
p977
sg766
S'15.5'
p978
sg768
S'2.1'
p979
sg35
S'31'
p980
sg37
S'SEA'
p981
sg39
S'80'
p982
sg773
S'0.6'
p983
sg774
S'16.4'
p984
sg776
S'2.8'
p985
sg56
S'1701'
p986
sg779
S'-0.7'
p987
sg49
S'1979-80'
p988
sg781
S'4.9'
p989
sba(isrc.gp1.models.Advanced
Advanced
p990
(dp991
g747
S'3.0'
p992
sg748
S'10.4'
p993
sg749
S'.127'
p994
sg751
S'2.1'
p995
sg752
S'25.8'
p996
sg753
S'4.8'
p997
sg755
S'-1.8'
p998
sg18
S'SG'
p999
sg757
S'1.2'
p1000
sg758
S'.535'
p1001
sg760
S'6.6'
p1002
sg761
S'.201'
p1003
sg763
S'.062'
p1004
sg24
S'NBA'
p1005
sg765
S'2.2'
p1006
sg766
S'19.9'
p1007
sg768
S'1.8'
p1008
sg35
S'32'
p1009
sg37
S'SEA'
p1010
sg39
S'78'
p1011
sg773
S'0.4'
p1012
sg774
S'18.3'
p1013
sg776
S'3.5'
p1014
sg56
S'1986'
p1015
sg779
S'0.5'
p1016
sg49
S'1980-81'
p1017
sg781
S'5.2'
p1018
sba(isrc.gp1.models.Advanced
Advanced
p1019
(dp1020
g747
S'2.6'
p1021
sg748
S'9.5'
p1022
sg749
S'.104'
p1023
sg751
S'1.9'
p1024
sg752
S'23.6'
p1025
sg753
S'4.3'
p1026
sg755
S'-1.6'
p1027
sg18
S'SG'
p1028
sg757
S'0.2'
p1029
sg758
S'.501'
p1030
sg760
S'5.8'
p1031
sg761
S'.149'
p1032
sg763
S'.089'
p1033
sg24
S'NBA'
p1034
sg765
S'0.1'
p1035
sg766
S'20.1'
p1036
sg768
S'2.2'
p1037
sg35
S'33'
p1038
sg37
S'SEA'
p1039
sg39
S'82'
p1040
sg773
S'0.1'
p1041
sg774
S'15.2'
p1042
sg776
S'1.7'
p1043
sg56
S'1785'
p1044
sg779
S'-1.5'
p1045
sg49
S'1981-82'
p1046
sg781
S'3.9'
p1047
sba(isrc.gp1.models.Advanced
Advanced
p1048
(dp1049
g747
S'2.5'
p1050
sg748
S'12.9'
p1051
sg749
S'.120'
p1052
sg751
S'1.9'
p1053
sg752
S'23.9'
p1054
sg753
S'3.6'
p1055
sg755
S'-2.3'
p1056
sg18
S'PG'
p1057
sg757
S'0.4'
p1058
sg758
S'.546'
p1059
sg760
S'4.6'
p1060
sg761
S'.101'
p1061
sg763
S'.045'
p1062
sg24
S'NBA'
p1063
sg765
S'1.4'
p1064
sg766
S'26.0'
p1065
sg768
S'1.3'
p1066
sg35
S'34'
p1067
sg37
S'SEA'
p1068
sg39
S'80'
p1069
sg773
S'0.5'
p1070
sg774
S'17.7'
p1071
sg776
S'2.3'
p1072
sg56
S'1432'
p1073
sg779
S'-0.9'
p1074
sg49
S'1982-83'
p1075
sg781
S'3.6'
p1076
sba(isrc.gp1.models.Advanced
Advanced
p1077
(dp1078
g747
S'1.4'
p1079
sg748
S'11.4'
p1080
sg749
S'.111'
p1081
sg751
S'2.1'
p1082
sg752
S'22.6'
p1083
sg753
S'3.1'
p1084
sg755
S'-3.1'
p1085
sg18
S'SG'
p1086
sg757
S'0.0'
p1087
sg758
S'.553'
p1088
sg760
S'4.8'
p1089
sg761
S'.170'
p1090
sg763
S'.067'
p1091
sg24
S'NBA'
p1092
sg765
S'1.1'
p1093
sg766
S'26.6'
p1094
sg768
S'0.8'
p1095
sg35
S'35'
p1096
sg37
S'SEA'
p1097
sg39
S'71'
p1098
sg773
S'0.1'
p1099
sg774
S'17.1'
p1100
sg776
S'1.8'
p1101
sg56
S'1129'
p1102
sg779
S'-2.0'
p1103
sg49
S'1983-84'
p1104
sg781
S'2.6'
p1105
sbasS'_per36Minutes'
p1106
(lp1107
(isrc.gp1.models.Per36Minutes
Per36Minutes
p1108
(dp1109
g8
g3
sg9
g3
sg10
S'.328'
p1110
sg12
S'6.0'
p1111
sg14
g3
sg15
g3
sg16
S'14.0'
p1112
sg18
S'SG'
p1113
sg20
S'.759'
p1114
sg24
S'NBA'
p1115
sg26
g3
sg27
S'18.1'
p1116
sg29
S'4.4'
p1117
sg31
S'2.9'
p1118
sg33
S'3.7'
p1119
sg35
S'23'
p1120
sg37
S'SEA'
p1121
sg39
S'33'
p1122
sg41
g3
sg42
S'5.9'
p1123
sg44
S'2.2'
p1124
sg46
S'18.1'
p1125
sg48
g3
sg49
S'1971-72'
p1126
sg51
S'5.9'
p1127
sg53
g3
sg54
S'.328'
p1128
sg56
S'359'
p1129
sg58
g3
sba(isrc.gp1.models.Per36Minutes
Per36Minutes
p1130
(dp1131
g8
g3
sg9
g3
sg10
S'.455'
p1132
sg12
S'6.8'
p1133
sg14
g3
sg15
g3
sg16
S'16.5'
p1134
sg18
S'SG'
p1135
sg20
S'.818'
p1136
sg24
S'NBA'
p1137
sg26
g3
sg27
S'16.1'
p1138
sg29
S'3.5'
p1139
sg31
S'2.3'
p1140
sg33
S'4.9'
p1141
sg35
S'24'
p1142
sg37
S'SEA'
p1143
sg39
S'79'
p1144
sg41
g3
sg42
S'7.3'
p1145
sg44
S'1.9'
p1146
sg46
S'16.1'
p1147
sg48
g3
sg49
S'1972-73'
p1148
sg51
S'7.3'
p1149
sg53
g3
sg54
S'.455'
p1150
sg56
S'2320'
p1151
sg58
g3
sba(isrc.gp1.models.Per36Minutes
Per36Minutes
p1152
(dp1153
g8
S'1.6'
p1154
sg9
g3
sg10
S'.471'
p1155
sg12
S'6.0'
p1156
sg14
g3
sg15
g3
sg16
S'19.4'
p1157
sg18
S'SG'
p1158
sg20
S'.863'
p1159
sg24
S'NBA'
p1160
sg26
S'2.0'
p1161
sg27
S'17.6'
p1162
sg29
S'4.0'
p1163
sg31
S'3.3'
p1164
sg33
S'5.8'
p1165
sg35
S'25'
p1166
sg37
S'SEA'
p1167
sg39
S'82'
p1168
sg41
S'0.3'
p1169
sg42
S'8.3'
p1170
sg44
S'2.8'
p1171
sg46
S'17.6'
p1172
sg48
S'4.1'
p1173
sg49
S'1973-74'
p1174
sg51
S'8.3'
p1175
sg53
g3
sg54
S'.471'
p1176
sg56
S'2501'
p1177
sg58
g3
sba(isrc.gp1.models.Per36Minutes
Per36Minutes
p1178
(dp1179
g8
S'1.5'
p1180
sg9
g3
sg10
S'.480'
p1181
sg12
S'3.8'
p1182
sg14
g3
sg15
g3
sg16
S'22.9'
p1183
sg18
S'SG'
p1184
sg20
S'.831'
p1185
sg24
S'NBA'
p1186
sg26
S'2.5'
p1187
sg27
S'20.7'
p1188
sg29
S'3.1'
p1189
sg31
S'3.7'
p1190
sg33
S'4.6'
p1191
sg35
S'26'
p1192
sg37
S'SEA'
p1193
sg39
S'81'
p1194
sg41
S'0.2'
p1195
sg42
S'9.9'
p1196
sg44
S'3.0'
p1197
sg46
S'20.7'
p1198
sg48
S'3.1'
p1199
sg49
S'1974-75'
p1200
sg51
S'9.9'
p1201
sg53
g3
sg54
S'.480'
p1202
sg56
S'2669'
p1203
sg58
g3
sba(isrc.gp1.models.Per36Minutes
Per36Minutes
p1204
(dp1205
g8
S'1.6'
p1206
sg9
g3
sg10
S'.488'
p1207
sg12
S'3.0'
p1208
sg14
g3
sg15
g3
sg16
S'25.1'
p1209
sg18
S'SG'
p1210
sg20
S'.869'
p1211
sg24
S'NBA'
p1212
sg26
S'2.0'
p1213
sg27
S'21.8'
p1214
sg29
S'2.7'
p1215
sg31
S'4.5'
p1216
sg33
S'4.5'
p1217
sg35
S'27'
p1218
sg37
S'SEA'
p1219
sg39
S'76'
p1220
sg41
S'0.3'
p1221
sg42
S'10.6'
p1222
sg44
S'3.9'
p1223
sg46
S'21.8'
p1224
sg48
S'2.9'
p1225
sg49
S'1975-76'
p1226
sg51
S'10.6'
p1227
sg53
g3
sg54
S'.488'
p1228
sg56
S'2516'
p1229
sg58
g3
sba(isrc.gp1.models.Per36Minutes
Per36Minutes
p1230
(dp1231
g8
S'1.2'
p1232
sg9
g3
sg10
S'.479'
p1233
sg12
S'3.0'
p1234
sg14
g3
sg15
g3
sg16
S'21.2'
p1235
sg18
S'SG'
p1236
sg20
S'.884'
p1237
sg24
S'NBA'
p1238
sg26
S'2.1'
p1239
sg27
S'19.1'
p1240
sg29
S'2.4'
p1241
sg31
S'3.3'
p1242
sg33
S'4.0'
p1243
sg35
S'28'
p1244
sg37
S'SEA'
p1245
sg39
S'72'
p1246
sg41
S'0.3'
p1247
sg42
S'9.2'
p1248
sg44
S'2.9'
p1249
sg46
S'19.1'
p1250
sg48
S'2.8'
p1251
sg49
S'1976-77'
p1252
sg51
S'9.2'
p1253
sg53
g3
sg54
S'.479'
p1254
sg56
S'2098'
p1255
sg58
g3
sba(isrc.gp1.models.Per36Minutes
Per36Minutes
p1256
(dp1257
g8
S'1.1'
p1258
sg9
g3
sg10
S'.488'
p1259
sg12
S'4.4'
p1260
sg14
g3
sg15
g3
sg16
S'21.8'
p1261
sg18
S'SG'
p1262
sg20
S'.898'
p1263
sg24
S'NBA'
p1264
sg26
S'2.0'
p1265
sg27
S'19.1'
p1266
sg29
S'2.7'
p1267
sg31
S'3.6'
p1268
sg33
S'3.4'
p1269
sg35
S'29'
p1270
sg37
S'SEA'
p1271
sg39
S'72'
p1272
sg41
S'0.5'
p1273
sg42
S'9.3'
p1274
sg44
S'3.2'
p1275
sg46
S'19.1'
p1276
sg48
S'2.3'
p1277
sg49
S'1977-78'
p1278
sg51
S'9.3'
p1279
sg53
S'3.0'
p1280
sg54
S'.488'
p1281
sg56
S'1965'
p1282
sg58
g3
sba(isrc.gp1.models.Per36Minutes
Per36Minutes
p1283
(dp1284
g8
S'0.7'
p1285
sg9
g3
sg10
S'.469'
p1286
sg12
S'4.8'
p1287
sg14
g3
sg15
g3
sg16
S'19.7'
p1288
sg18
S'PG'
p1289
sg20
S'.888'
p1290
sg24
S'NBA'
p1291
sg26
S'2.2'
p1292
sg27
S'17.5'
p1293
sg29
S'2.6'
p1294
sg31
S'3.8'
p1295
sg33
S'3.2'
p1296
sg35
S'30'
p1297
sg37
S'SEA'
p1298
sg39
S'77'
p1299
sg41
S'0.4'
p1300
sg42
S'8.2'
p1301
sg44
S'3.4'
p1302
sg46
S'17.5'
p1303
sg48
S'2.5'
p1304
sg49
S'1978-79'
p1305
sg51
S'8.2'
p1306
sg53
S'3.0'
p1307
sg54
S'.469'
p1308
sg56
S'1961'
p1309
sg58
g3
sba(isrc.gp1.models.Per36Minutes
Per36Minutes
p1310
(dp1311
g8
S'0.7'
p1312
sg9
S'1.9'
p1313
sg10
S'.479'
p1314
sg12
S'3.7'
p1315
sg14
S'.443'
p1316
sg15
S'0.8'
p1317
sg16
S'20.3'
p1318
sg18
S'SG'
p1319
sg20
S'.837'
p1320
sg24
S'NBA'
p1321
sg26
S'1.4'
p1322
sg27
S'17.8'
p1323
sg29
S'2.5'
p1324
sg31
S'2.9'
p1325
sg33
S'3.3'
p1326
sg35
S'31'
p1327
sg37
S'SEA'
p1328
sg39
S'80'
p1329
sg41
S'0.4'
p1330
sg42
S'7.7'
p1331
sg44
S'2.4'
p1332
sg46
S'16.0'
p1333
sg48
S'2.5'
p1334
sg49
S'1979-80'
p1335
sg51
S'8.6'
p1336
sg53
S'2.2'
p1337
sg54
S'.483'
p1338
sg56
S'1701'
p1339
sg58
g3
sba(isrc.gp1.models.Per36Minutes
Per36Minutes
p1340
(dp1341
g8
S'1.0'
p1342
sg9
S'1.2'
p1343
sg10
S'.488'
p1344
sg12
S'4.2'
p1345
sg14
S'.359'
p1346
sg15
S'0.4'
p1347
sg16
S'21.9'
p1348
sg18
S'SG'
p1349
sg20
S'.832'
p1350
sg24
S'NBA'
p1351
sg26
S'1.6'
p1352
sg27
S'18.8'
p1353
sg29
S'2.6'
p1354
sg31
S'3.8'
p1355
sg33
S'3.2'
p1356
sg35
S'32'
p1357
sg37
S'SEA'
p1358
sg39
S'78'
p1359
sg41
S'0.2'
p1360
sg42
S'8.7'
p1361
sg44
S'3.1'
p1362
sg46
S'17.6'
p1363
sg48
S'2.2'
p1364
sg49
S'1980-81'
p1365
sg51
S'9.2'
p1366
sg53
S'2.4'
p1367
sg54
S'.496'
p1368
sg56
S'1986'
p1369
sg58
g3
sba(isrc.gp1.models.Per36Minutes
Per36Minutes
p1370
(dp1371
g8
S'0.8'
p1372
sg9
S'1.6'
p1373
sg10
S'.455'
p1374
sg12
S'4.8'
p1375
sg14
S'.325'
p1376
sg15
S'0.5'
p1377
sg16
S'18.6'
p1378
sg18
S'SG'
p1379
sg20
S'.860'
p1380
sg24
S'NBA'
p1381
sg26
S'1.4'
p1382
sg27
S'17.4'
p1383
sg29
S'2.2'
p1384
sg31
S'2.6'
p1385
sg33
S'2.8'
p1386
sg35
S'33'
p1387
sg37
S'SEA'
p1388
sg39
S'82'
p1389
sg41
S'0.1'
p1390
sg42
S'7.4'
p1391
sg44
S'2.2'
p1392
sg46
S'15.9'
p1393
sg48
S'2.0'
p1394
sg49
S'1981-82'
p1395
sg51
S'7.9'
p1396
sg53
S'1.9'
p1397
sg54
S'.468'
p1398
sg56
S'1785'
p1399
sg58
g339
sba(isrc.gp1.models.Per36Minutes
Per36Minutes
p1400
(dp1401
g8
S'0.8'
p1402
sg9
S'0.8'
p1403
sg10
S'.520'
p1404
sg12
S'6.1'
p1405
sg14
S'.438'
p1406
sg15
S'0.4'
p1407
sg16
S'20.5'
p1408
sg18
S'PG'
p1409
sg20
S'.806'
p1410
sg24
S'NBA'
p1411
sg26
S'1.5'
p1412
sg27
S'17.9'
p1413
sg29
S'2.5'
p1414
sg31
S'1.8'
p1415
sg33
S'2.4'
p1416
sg35
S'34'
p1417
sg37
S'SEA'
p1418
sg39
S'80'
p1419
sg41
S'0.3'
p1420
sg42
S'9.0'
p1421
sg44
S'1.5'
p1422
sg46
S'17.1'
p1423
sg48
S'1.6'
p1424
sg49
S'1982-83'
p1425
sg51
S'9.3'
p1426
sg53
S'2.8'
p1427
sg54
S'.523'
p1428
sg56
S'1432'
p1429
sg58
g371
sba(isrc.gp1.models.Per36Minutes
Per36Minutes
p1430
(dp1431
g8
S'0.4'
p1432
sg9
S'1.1'
p1433
sg10
S'.510'
p1434
sg12
S'6.2'
p1435
sg14
S'.265'
p1436
sg15
S'0.3'
p1437
sg16
S'19.2'
p1438
sg18
S'SG'
p1439
sg20
S'.895'
p1440
sg24
S'NBA'
p1441
sg26
S'1.6'
p1442
sg27
S'16.1'
p1443
sg29
S'2.7'
p1444
sg31
S'2.7'
p1445
sg33
S'2.0'
p1446
sg35
S'35'
p1447
sg37
S'SEA'
p1448
sg39
S'71'
p1449
sg41
S'0.1'
p1450
sg42
S'7.9'
p1451
sg44
S'2.5'
p1452
sg46
S'15.1'
p1453
sg48
S'1.5'
p1454
sg49
S'1983-84'
p1455
sg51
S'8.2'
p1456
sg53
S'2.2'
p1457
sg54
S'.528'
p1458
sg56
S'1129'
p1459
sg58
g371
sbasS'_fromYear'
p1460
S'1972'
p1461
sS'_url'
p1462
S'http://www.basketball-reference.com/players/b/brownfr01.html'
p1463
sS'_perGame'
p1464
(isrc.gp1.models.PerGame
PerGame
p1465
(dp1466
g8
S'0.2'
p1467
sg9
S'0.5'
p1468
sg10
S'.510'
p1469
sS'_effectiveFieldGalPercentage'
p1470
S'.519'
p1471
sg12
S'2.7'
p1472
sg14
S'.265'
p1473
sg15
S'0.1'
p1474
sg16
S'8.5'
p1475
sg18
S'SG'
p1476
sg20
S'.895'
p1477
sg24
S'NBA'
p1478
sg26
S'0.7'
p1479
sg29
S'1.2'
p1480
sS'_fieldGoalsttempted'
p1481
S'7.1'
p1482
sg31
S'1.2'
p1483
sg33
S'0.9'
p1484
sg35
S'35'
p1485
sg37
S'SEA'
p1486
sg39
S'71'
p1487
sg41
S'0.0'
p1488
sg42
S'3.5'
p1489
sg44
S'1.1'
p1490
sg46
S'6.6'
p1491
sg48
S'0.7'
p1492
sg49
S'1983-84'
p1493
sg51
S'3.6'
p1494
sg53
S'1.0'
p1495
sg54
S'.528'
p1496
sg56
S'15.9'
p1497
sg58
g371
sbsS'_weight'
p1498
S'182'
p1499
sS'_dob'
p1500
S'7-8-1948'
p1501
sS'_salary'
p1502
(lp1503
sg18
S'G'
p1504
sb.