(isrc.gp1.models.Player
Player
p0
(dp1
S'_experience'
p2
S'NA'
p3
sS'_totals'
p4
(lp5
(isrc.gp1.models.Totals
Totals
p6
(dp7
S'_offensiveRebounds'
p8
S'8'
p9
sS'_threePointsAttempted'
p10
S'28'
p11
sS'_fieldGoalsPercentage'
p12
S'.327'
p13
sS'_assist'
p14
S'83'
p15
sS'_threePointsPercentage'
p16
S'.214'
p17
sS'_threePoints'
p18
S'6'
p19
sS'_points'
p20
S'94'
p21
sS'_position'
p22
S'PG'
p23
sS'_freeThrowsPercentage'
p24
S'.649'
p25
sS'_effectiveFieldGoalPercentage'
p26
S'.357'
p27
sS'_league'
p28
S'NBA'
p29
sS'_steals'
p30
S'22'
p31
sS'_fieldGoalsAttempted'
p32
S'98'
p33
sS'_personalFouls'
p34
S'51'
p35
sS'_freeThrowsAttempted'
p36
S'37'
p37
sS'_totalRebounds'
p38
S'40'
p39
sS'_age'
p40
S'22'
p41
sS'_team'
p42
S'UTA'
p43
sS'_games'
p44
S'49'
p45
sS'_blocks'
p46
S'7'
p47
sS'_twoPoints'
p48
S'26'
p49
sS'_freeThrows'
p50
S'24'
p51
sS'_twoPointsAttempted'
p52
S'70'
p53
sS'_defensiveRebounds'
p54
S'32'
p55
sS'_season'
p56
S'2006-07'
p57
sS'_fieldGoals'
p58
S'32'
p59
sS'_turnOvers'
p60
S'31'
p61
sS'_twoPointsPercentage'
p62
S'.371'
p63
sS'_minutesPlayed'
p64
S'450'
p65
sS'_gamesStarted'
p66
S'0'
p67
sba(isrc.gp1.models.Totals
Totals
p68
(dp69
g8
g3
sg10
g3
sg12
g3
sg14
g3
sg16
g3
sg18
g3
sg20
g3
sg22
g3
sg24
g3
sg26
g3
sg28
g3
sg30
g3
sg32
g3
sg34
g3
sg36
g3
sg38
g3
sg40
S'23'
p70
sg42
S'Did Not Play'
p71
sg44
g3
sg46
g3
sg48
g3
sg50
g3
sg52
g3
sg54
g3
sg56
S'2007-08'
p72
sg58
g3
sg60
g3
sg62
g3
sg64
g3
sg66
g3
sba(isrc.gp1.models.Totals
Totals
p73
(dp74
g8
g47
sg10
S'24'
p75
sg12
S'.367'
p76
sg14
S'36'
p77
sg16
S'.292'
p78
sg18
g47
sg20
S'46'
p79
sg22
S'PG'
p80
sg24
S'.600'
p81
sg26
S'.439'
p82
sg28
S'NBA'
p83
sg30
S'10'
p84
sg32
S'49'
p85
sg34
S'28'
p86
sg36
S'5'
p87
sg38
S'29'
p88
sg40
S'24'
p89
sg42
S'TOT'
p90
sg44
S'19'
p91
sg46
g67
sg48
S'11'
p92
sg50
S'3'
p93
sg52
S'25'
p94
sg54
S'22'
p95
sg56
S'2008-09'
p96
sg58
S'18'
p97
sg60
S'17'
p98
sg62
S'.440'
p99
sg64
S'261'
p100
sg66
S'11'
p101
sba(isrc.gp1.models.Totals
Totals
p102
(dp103
g8
g47
sg10
S'20'
p104
sg12
S'.386'
p105
sg14
S'33'
p106
sg16
S'.300'
p107
sg18
g19
sg20
S'41'
p108
sg22
S'PG'
p109
sg24
S'.333'
p110
sg26
S'.455'
p111
sg28
S'NBA'
p112
sg30
S'10'
p113
sg32
S'44'
p114
sg34
S'22'
p115
sg36
g93
sg38
S'28'
p116
sg40
S'24'
p117
sg42
S'WAS'
p118
sg44
S'17'
p119
sg46
g67
sg48
S'11'
p120
sg50
S'1'
p121
sg52
S'24'
p122
sg54
S'21'
p123
sg56
S'2008-09'
p124
sg58
S'17'
p125
sg60
S'14'
p126
sg62
S'.458'
p127
sg64
S'233'
p128
sg66
S'11'
p129
sba(isrc.gp1.models.Totals
Totals
p130
(dp131
g8
g67
sg10
S'4'
p132
sg12
S'.200'
p133
sg14
g93
sg16
S'.250'
p134
sg18
g121
sg20
g87
sg22
S'PG'
p135
sg24
S'1.000'
p136
sg26
S'.300'
p137
sg28
S'NBA'
p138
sg30
g67
sg32
g87
sg34
g19
sg36
S'2'
p139
sg38
g121
sg40
S'24'
p140
sg42
S'PHO'
p141
sg44
g139
sg46
g67
sg48
g67
sg50
g139
sg52
g121
sg54
g121
sg56
S'2008-09'
p142
sg58
g121
sg60
g93
sg62
S'.000'
p143
sg64
S'28'
p144
sg66
g67
sbasS'_college'
p145
S'University of Illinois at Urbana-Champaign'
p146
sS'_toYear'
p147
S'2009'
p148
sS'_height'
p149
S'6-0'
p150
sS'_active'
p151
I00
sS'_shootingHand'
p152
VRight
p153
sS'_name'
p154
S'Dee Brown'
p155
sS'_per100Possessions'
p156
(lp157
(isrc.gp1.models.Per100Possession
Per100Possession
p158
(dp159
g8
S'0.9'
p160
sg10
S'3.3'
p161
sg12
S'.327'
p162
sS'_offensiveRating'
p163
S'93'
p164
sg14
S'9.7'
p165
sg16
S'.214'
p166
sg18
S'0.7'
p167
sg20
S'10.9'
p168
sg22
S'PG'
p169
sS'_defensiveRating'
p170
S'107'
p171
sg24
S'.649'
p172
sg28
S'NBA'
p173
sg30
S'2.6'
p174
sg32
S'11.4'
p175
sg34
S'5.9'
p176
sg36
S'4.3'
p177
sg38
S'4.7'
p178
sg40
S'22'
p179
sg42
S'UTA'
p180
sg44
S'49'
p181
sg46
S'0.8'
p182
sg48
S'3.0'
p183
sg50
S'2.8'
p184
sg52
S'8.2'
p185
sg54
S'3.7'
p186
sg56
S'2006-07'
p187
sg58
S'3.7'
p188
sg60
S'3.6'
p189
sg62
S'.371'
p190
sg64
S'450'
p191
sg66
g67
sba(isrc.gp1.models.Per100Possession
Per100Possession
p192
(dp193
g8
S'1.4'
p194
sg10
S'4.8'
p195
sg12
S'.367'
p196
sg163
S'92'
p197
sg14
S'7.2'
p198
sg16
S'.292'
p199
sg18
S'1.4'
p200
sg20
S'9.2'
p201
sg22
S'PG'
p202
sg170
S'115'
p203
sg24
S'.600'
p204
sg28
S'NBA'
p205
sg30
S'2.0'
p206
sg32
S'9.8'
p207
sg34
S'5.6'
p208
sg36
S'1.0'
p209
sg38
S'5.8'
p210
sg40
S'24'
p211
sg42
S'TOT'
p212
sg44
S'19'
p213
sg46
S'0.0'
p214
sg48
S'2.2'
p215
sg50
S'0.6'
p216
sg52
S'5.0'
p217
sg54
S'4.4'
p218
sg56
S'2008-09'
p219
sg58
S'3.6'
p220
sg60
S'3.4'
p221
sg62
S'.440'
p222
sg64
S'261'
p223
sg66
S'11'
p224
sba(isrc.gp1.models.Per100Possession
Per100Possession
p225
(dp226
g8
S'1.6'
p227
sg10
S'4.5'
p228
sg12
S'.386'
p229
sg163
S'94'
p230
sg14
S'7.5'
p231
sg16
S'.300'
p232
sg18
S'1.4'
p233
sg20
S'9.3'
p234
sg22
S'PG'
p235
sg170
S'114'
p236
sg24
S'.333'
p237
sg28
S'NBA'
p238
sg30
S'2.3'
p239
sg32
S'10.0'
p240
sg34
S'5.0'
p241
sg36
S'0.7'
p242
sg38
S'6.3'
p243
sg40
S'24'
p244
sg42
S'WAS'
p245
sg44
S'17'
p246
sg46
S'0.0'
p247
sg48
S'2.5'
p248
sg50
S'0.2'
p249
sg52
S'5.4'
p250
sg54
S'4.8'
p251
sg56
S'2008-09'
p252
sg58
S'3.8'
p253
sg60
S'3.2'
p254
sg62
S'.458'
p255
sg64
S'233'
p256
sg66
S'11'
p257
sba(isrc.gp1.models.Per100Possession
Per100Possession
p258
(dp259
g8
S'0.0'
p260
sg10
S'7.1'
p261
sg12
S'.200'
p262
sg163
S'74'
p263
sg14
S'5.4'
p264
sg16
S'.250'
p265
sg18
S'1.8'
p266
sg20
S'8.9'
p267
sg22
S'PG'
p268
sg170
S'119'
p269
sg24
S'1.000'
p270
sg28
S'NBA'
p271
sg30
S'0.0'
p272
sg32
S'8.9'
p273
sg34
S'10.7'
p274
sg36
S'3.6'
p275
sg38
S'1.8'
p276
sg40
S'24'
p277
sg42
S'PHO'
p278
sg44
g139
sg46
S'0.0'
p279
sg48
S'0.0'
p280
sg50
S'3.6'
p281
sg52
S'1.8'
p282
sg54
S'1.8'
p283
sg56
S'2008-09'
p284
sg58
S'1.8'
p285
sg60
S'5.4'
p286
sg62
S'.000'
p287
sg64
S'28'
p288
sg66
g67
sbasS'_advanced'
p289
(lp290
(isrc.gp1.models.Advanced
Advanced
p291
(dp292
S'_offensiveReboundPercentage'
p293
S'2.2'
p294
sS'_turnOverPercentage'
p295
S'21.3'
p296
sS'_winSharesPer48Minutes'
p297
S'.024'
p298
sS'_stealPercentage'
p299
S'2.6'
p300
sS'_usagePercentage'
p301
S'14.5'
p302
sS'_totalReboundsPercentage'
p303
S'5.4'
p304
sS'_defensiveBoxPlusMinus'
p305
S'-0.3'
p306
sg22
S'PG'
p307
sS'_valueOverReplacementPlayer'
p308
S'-0.2'
p309
sS'_trueShootingPercentage'
p310
S'.411'
p311
sS'_defensiveReboundPercentage'
p312
S'8.6'
p313
sS'_freeThrowsAttempRate'
p314
S'.378'
p315
sS'_threePointsAttempRate'
p316
S'.286'
p317
sg28
S'NBA'
p318
sS'_offensiveBoxPlusMinues'
p319
S'-3.4'
p320
sS'_assistPercentage'
p321
S'26.2'
p322
sS'_defensiveWinShares'
p323
S'0.5'
p324
sg40
S'22'
p325
sg42
S'UTA'
p326
sg44
S'49'
p327
sS'_blockPercentage'
p328
S'1.3'
p329
sS'_playerEfficiencyRating'
p330
S'8.6'
p331
sS'_offensiveWinShares'
p332
S'-0.2'
p333
sg64
S'450'
p334
sS'_boxPlusMinus'
p335
S'-3.7'
p336
sg56
S'2006-07'
p337
sS'_winShares'
p338
S'0.2'
p339
sba(isrc.gp1.models.Advanced
Advanced
p340
(dp341
g293
S'3.1'
p342
sg295
S'24.9'
p343
sg297
S'-0.018'
p344
sg299
S'2.0'
p345
sg301
S'11.8'
p346
sg303
S'6.5'
p347
sg305
S'-1.7'
p348
sg22
S'PG'
p349
sg308
S'-0.2'
p350
sg310
S'.449'
p351
sg312
S'10.1'
p352
sg314
S'.102'
p353
sg316
S'.490'
p354
sg28
S'NBA'
p355
sg319
S'-3.2'
p356
sg321
S'19.8'
p357
sg323
S'0.1'
p358
sg40
S'24'
p359
sg42
S'TOT'
p360
sg44
S'19'
p361
sg328
S'0.0'
p362
sg330
S'6.6'
p363
sg332
S'-0.2'
p364
sg64
S'261'
p365
sg335
S'-4.9'
p366
sg56
S'2008-09'
p367
sg338
S'-0.1'
p368
sba(isrc.gp1.models.Advanced
Advanced
p369
(dp370
g293
S'3.4'
p371
sg295
S'23.6'
p372
sg297
S'-0.006'
p373
sg299
S'2.3'
p374
sg301
S'11.6'
p375
sg303
S'7.1'
p376
sg305
S'-1.3'
p377
sg22
S'PG'
p378
sg308
S'-0.1'
p379
sg310
S'.452'
p380
sg312
S'10.9'
p381
sg314
S'.068'
p382
sg316
S'.455'
p383
sg28
S'NBA'
p384
sg319
S'-2.9'
p385
sg321
S'20.6'
p386
sg323
S'0.1'
p387
sg40
S'24'
p388
sg42
S'WAS'
p389
sg44
S'17'
p390
sg328
S'0.0'
p391
sg330
S'7.8'
p392
sg332
S'-0.1'
p393
sg64
S'233'
p394
sg335
S'-4.2'
p395
sg56
S'2008-09'
p396
sg338
S'0.0'
p397
sba(isrc.gp1.models.Advanced
Advanced
p398
(dp399
g293
S'0.0'
p400
sg295
S'33.8'
p401
sg297
S'-0.116'
p402
sg299
S'0.0'
p403
sg301
S'14.0'
p404
sg303
S'2.1'
p405
sg305
S'-4.5'
p406
sg22
S'PG'
p407
sg308
S'-0.1'
p408
sg310
S'.425'
p409
sg312
S'4.0'
p410
sg314
S'.400'
p411
sg316
S'.800'
p412
sg28
S'NBA'
p413
sg319
S'-6.0'
p414
sg321
S'13.1'
p415
sg323
S'0.0'
p416
sg40
S'24'
p417
sg42
S'PHO'
p418
sg44
g139
sg328
S'0.0'
p419
sg330
S'-2.9'
p420
sg332
S'-0.1'
p421
sg64
S'28'
p422
sg335
S'-10.5'
p423
sg56
S'2008-09'
p424
sg338
S'-0.1'
p425
sbasS'_per36Minutes'
p426
(lp427
(isrc.gp1.models.Per36Minutes
Per36Minutes
p428
(dp429
g8
S'0.6'
p430
sg10
S'2.2'
p431
sg12
S'.327'
p432
sg14
S'6.6'
p433
sg16
S'.214'
p434
sg18
S'0.5'
p435
sg20
S'7.5'
p436
sg22
S'PG'
p437
sg24
S'.649'
p438
sg28
S'NBA'
p439
sg30
S'1.8'
p440
sg32
S'7.8'
p441
sg34
S'4.1'
p442
sg36
S'3.0'
p443
sg38
S'3.2'
p444
sg40
S'22'
p445
sg42
S'UTA'
p446
sg44
S'49'
p447
sg46
S'0.6'
p448
sg48
S'2.1'
p449
sg50
S'1.9'
p450
sg52
S'5.6'
p451
sg54
S'2.6'
p452
sg56
S'2006-07'
p453
sg58
S'2.6'
p454
sg60
S'2.5'
p455
sg62
S'.371'
p456
sg64
S'450'
p457
sg66
g67
sba(isrc.gp1.models.Per36Minutes
Per36Minutes
p458
(dp459
g8
S'1.0'
p460
sg10
S'3.3'
p461
sg12
S'.367'
p462
sg14
S'5.0'
p463
sg16
S'.292'
p464
sg18
S'1.0'
p465
sg20
S'6.3'
p466
sg22
S'PG'
p467
sg24
S'.600'
p468
sg28
S'NBA'
p469
sg30
S'1.4'
p470
sg32
S'6.8'
p471
sg34
S'3.9'
p472
sg36
S'0.7'
p473
sg38
S'4.0'
p474
sg40
S'24'
p475
sg42
S'TOT'
p476
sg44
S'19'
p477
sg46
S'0.0'
p478
sg48
S'1.5'
p479
sg50
S'0.4'
p480
sg52
S'3.4'
p481
sg54
S'3.0'
p482
sg56
S'2008-09'
p483
sg58
S'2.5'
p484
sg60
S'2.3'
p485
sg62
S'.440'
p486
sg64
S'261'
p487
sg66
S'11'
p488
sba(isrc.gp1.models.Per36Minutes
Per36Minutes
p489
(dp490
g8
S'1.1'
p491
sg10
S'3.1'
p492
sg12
S'.386'
p493
sg14
S'5.1'
p494
sg16
S'.300'
p495
sg18
S'0.9'
p496
sg20
S'6.3'
p497
sg22
S'PG'
p498
sg24
S'.333'
p499
sg28
S'NBA'
p500
sg30
S'1.5'
p501
sg32
S'6.8'
p502
sg34
S'3.4'
p503
sg36
S'0.5'
p504
sg38
S'4.3'
p505
sg40
S'24'
p506
sg42
S'WAS'
p507
sg44
S'17'
p508
sg46
S'0.0'
p509
sg48
S'1.7'
p510
sg50
S'0.2'
p511
sg52
S'3.7'
p512
sg54
S'3.2'
p513
sg56
S'2008-09'
p514
sg58
S'2.6'
p515
sg60
S'2.2'
p516
sg62
S'.458'
p517
sg64
S'233'
p518
sg66
S'11'
p519
sba(isrc.gp1.models.Per36Minutes
Per36Minutes
p520
(dp521
g8
S'0.0'
p522
sg10
S'5.1'
p523
sg12
S'.200'
p524
sg14
S'3.9'
p525
sg16
S'.250'
p526
sg18
S'1.3'
p527
sg20
S'6.4'
p528
sg22
S'PG'
p529
sg24
S'1.000'
p530
sg28
S'NBA'
p531
sg30
S'0.0'
p532
sg32
S'6.4'
p533
sg34
S'7.7'
p534
sg36
S'2.6'
p535
sg38
S'1.3'
p536
sg40
S'24'
p537
sg42
S'PHO'
p538
sg44
g139
sg46
S'0.0'
p539
sg48
S'0.0'
p540
sg50
S'2.6'
p541
sg52
S'1.3'
p542
sg54
S'1.3'
p543
sg56
S'2008-09'
p544
sg58
S'1.3'
p545
sg60
S'3.9'
p546
sg62
S'.000'
p547
sg64
S'28'
p548
sg66
g67
sbasS'_fromYear'
p549
S'2007'
p550
sS'_url'
p551
S'http://www.basketball-reference.com/players/b/brownde03.html'
p552
sS'_perGame'
p553
(isrc.gp1.models.PerGame
PerGame
p554
(dp555
g8
S'0.0'
p556
sg10
S'2.0'
p557
sg12
S'.200'
p558
sS'_effectiveFieldGalPercentage'
p559
S'.300'
p560
sg14
S'1.5'
p561
sg16
S'.250'
p562
sg18
S'0.5'
p563
sg20
S'2.5'
p564
sg22
S'PG'
p565
sg24
S'1.000'
p566
sg28
S'NBA'
p567
sg30
S'0.0'
p568
sg34
S'3.0'
p569
sS'_fieldGoalsttempted'
p570
S'2.5'
p571
sg36
S'1.0'
p572
sg38
S'0.5'
p573
sg40
S'24'
p574
sg42
S'PHO'
p575
sg44
g139
sg46
S'0.0'
p576
sg48
S'0.0'
p577
sg50
S'1.0'
p578
sg52
S'0.5'
p579
sg54
S'0.5'
p580
sg56
S'2008-09'
p581
sg58
S'0.5'
p582
sg60
S'1.5'
p583
sg62
S'.000'
p584
sg64
S'14.0'
p585
sg66
g67
sbsS'_weight'
p586
S'185'
p587
sS'_dob'
p588
S'17-8-1984'
p589
sS'_salary'
p590
(lp591
(isrc.gp1.models.Salary
Salary
p592
(dp593
g42
S'Utah Jazz'
p594
sg28
S'NBA'
p595
sg590
S'$412,718'
p596
sg56
S'2006-07'
p597
sba(isrc.gp1.models.Salary
Salary
p598
(dp599
g42
S'Washington Wizards'
p600
sg28
S'NBA'
p601
sg590
S'$184,157'
p602
sg56
S'2008-09'
p603
sba(isrc.gp1.models.Salary
Salary
p604
(dp605
g42
S'Phoenix Suns'
p606
sg28
S'NBA'
p607
sg590
S'$54,410'
p608
sg56
S'2008-09'
p609
sbasg22
S'G'
p610
sb.