(isrc.gp1.models.Player
Player
p0
(dp1
S'_experience'
p2
S'NA'
p3
sS'_totals'
p4
(lp5
(isrc.gp1.models.Totals
Totals
p6
(dp7
S'_offensiveRebounds'
p8
S'12'
p9
sS'_threePointsAttempted'
p10
S'12'
p11
sS'_fieldGoalsPercentage'
p12
S'.426'
p13
sS'_assist'
p14
S'70'
p15
sS'_threePointsPercentage'
p16
S'.333'
p17
sS'_threePoints'
p18
S'4'
p19
sS'_points'
p20
S'123'
p21
sS'_position'
p22
S'SG'
p23
sS'_freeThrowsPercentage'
p24
S'.750'
p25
sS'_effectiveFieldGoalPercentage'
p26
S'.443'
p27
sS'_league'
p28
S'NBA'
p29
sS'_steals'
p30
S'19'
p31
sS'_fieldGoalsAttempted'
p32
S'115'
p33
sS'_personalFouls'
p34
S'26'
p35
sS'_freeThrowsAttempted'
p36
S'28'
p37
sS'_totalRebounds'
p38
S'42'
p39
sS'_age'
p40
S'22'
p41
sS'_team'
p42
S'HOU'
p43
sS'_games'
p44
S'40'
p45
sS'_blocks'
p46
S'3'
p47
sS'_twoPoints'
p48
S'45'
p49
sS'_freeThrows'
p50
S'21'
p51
sS'_twoPointsAttempted'
p52
S'103'
p53
sS'_defensiveRebounds'
p54
S'30'
p55
sS'_season'
p56
S'2001-02'
p57
sS'_fieldGoals'
p58
S'49'
p59
sS'_turnOvers'
p60
S'40'
p61
sS'_twoPointsPercentage'
p62
S'.437'
p63
sS'_minutesPlayed'
p64
S'403'
p65
sS'_gamesStarted'
p66
S'1'
p67
sba(isrc.gp1.models.Totals
Totals
p68
(dp69
g8
S'8'
p70
sg10
g67
sg12
S'.458'
p71
sg14
S'39'
p72
sg16
S'.000'
p73
sg18
S'0'
p74
sg20
S'65'
p75
sg22
S'PG'
p76
sg24
S'.786'
p77
sg26
S'.458'
p78
sg28
S'NBA'
p79
sg30
S'13'
p80
sg32
S'59'
p81
sg34
S'9'
p82
sg36
S'14'
p83
sg38
S'30'
p84
sg40
S'23'
p85
sg42
S'CLE'
p86
sg44
S'15'
p87
sg46
g74
sg48
S'27'
p88
sg50
S'11'
p89
sg52
S'58'
p90
sg54
S'22'
p91
sg56
S'2002-03'
p92
sg58
S'27'
p93
sg60
S'22'
p94
sg62
S'.466'
p95
sg64
S'168'
p96
sg66
g74
sba(isrc.gp1.models.Totals
Totals
p97
(dp98
g8
g74
sg10
g74
sg12
S'.500'
p99
sg14
S'2'
p100
sg16
g3
sg18
g74
sg20
S'6'
p101
sg22
S'PG'
p102
sg24
S'.500'
p103
sg26
S'.500'
p104
sg28
S'NBA'
p105
sg30
g74
sg32
g19
sg34
g67
sg36
g19
sg38
g67
sg40
S'24'
p106
sg42
S'NOH'
p107
sg44
g47
sg46
g74
sg48
g100
sg50
g100
sg52
g19
sg54
g67
sg56
S'2003-04'
p108
sg58
g100
sg60
S'7'
p109
sg62
S'.500'
p110
sg64
S'17'
p111
sg66
g74
sba(isrc.gp1.models.Totals
Totals
p112
(dp113
g8
S'21'
p114
sg10
S'72'
p115
sg12
S'.356'
p116
sg14
S'155'
p117
sg16
S'.361'
p118
sg18
S'26'
p119
sg20
S'333'
p120
sg22
S'PG'
p121
sg24
S'.787'
p122
sg26
S'.394'
p123
sg28
S'NBA'
p124
sg30
S'32'
p125
sg32
S'348'
p126
sg34
S'59'
p127
sg36
S'75'
p128
sg38
S'93'
p129
sg40
S'25'
p130
sg42
S'LAL'
p131
sg44
S'76'
p132
sg46
g67
sg48
S'98'
p133
sg50
S'59'
p134
sg52
S'276'
p135
sg54
S'72'
p136
sg56
S'2004-05'
p137
sg58
S'124'
p138
sg60
S'74'
p139
sg62
S'.355'
p140
sg64
S'1066'
p141
sg66
g74
sbasS'_college'
p142
S'McNeese State University'
p143
sS'_toYear'
p144
S'2005'
p145
sS'_height'
p146
S'6-2'
p147
sS'_active'
p148
I00
sS'_shootingHand'
p149
VRight
p150
sS'_name'
p151
S'Tierre Brown'
p152
sS'_per100Possessions'
p153
(lp154
(isrc.gp1.models.Per100Possession
Per100Possession
p155
(dp156
g8
S'1.6'
p157
sg10
S'1.6'
p158
sg12
S'.426'
p159
sS'_offensiveRating'
p160
S'94'
p161
sg14
S'9.5'
p162
sg16
S'.333'
p163
sg18
S'0.5'
p164
sg20
S'16.6'
p165
sg22
S'SG'
p166
sS'_defensiveRating'
p167
S'109'
p168
sg24
S'.750'
p169
sg28
S'NBA'
p170
sg30
S'2.6'
p171
sg32
S'15.5'
p172
sg34
S'3.5'
p173
sg36
S'3.8'
p174
sg38
S'5.7'
p175
sg40
S'22'
p176
sg42
S'HOU'
p177
sg44
S'40'
p178
sg46
S'0.4'
p179
sg48
S'6.1'
p180
sg50
S'2.8'
p181
sg52
S'13.9'
p182
sg54
S'4.1'
p183
sg56
S'2001-02'
p184
sg58
S'6.6'
p185
sg60
S'5.4'
p186
sg62
S'.437'
p187
sg64
S'403'
p188
sg66
g67
sba(isrc.gp1.models.Per100Possession
Per100Possession
p189
(dp190
g8
S'2.4'
p191
sg10
S'0.3'
p192
sg12
S'.458'
p193
sg160
S'94'
p194
sg14
S'11.9'
p195
sg16
S'.000'
p196
sg18
S'0.0'
p197
sg20
S'19.8'
p198
sg22
S'PG'
p199
sg167
S'103'
p200
sg24
S'.786'
p201
sg28
S'NBA'
p202
sg30
S'4.0'
p203
sg32
S'17.9'
p204
sg34
S'2.7'
p205
sg36
S'4.3'
p206
sg38
S'9.1'
p207
sg40
S'23'
p208
sg42
S'CLE'
p209
sg44
S'15'
p210
sg46
S'0.0'
p211
sg48
S'8.2'
p212
sg50
S'3.3'
p213
sg52
S'17.6'
p214
sg54
S'6.7'
p215
sg56
S'2002-03'
p216
sg58
S'8.2'
p217
sg60
S'6.7'
p218
sg62
S'.466'
p219
sg64
S'168'
p220
sg66
g74
sba(isrc.gp1.models.Per100Possession
Per100Possession
p221
(dp222
g8
S'0.0'
p223
sg10
S'0.0'
p224
sg12
S'.500'
p225
sg160
S'50'
p226
sg14
S'6.3'
p227
sg16
g3
sg18
S'0.0'
p228
sg20
S'19.0'
p229
sg22
S'PG'
p230
sg167
S'110'
p231
sg24
S'.500'
p232
sg28
S'NBA'
p233
sg30
S'0.0'
p234
sg32
S'12.7'
p235
sg34
S'3.2'
p236
sg36
S'12.7'
p237
sg38
S'3.2'
p238
sg40
S'24'
p239
sg42
S'NOH'
p240
sg44
g47
sg46
S'0.0'
p241
sg48
S'6.3'
p242
sg50
S'6.3'
p243
sg52
S'12.7'
p244
sg54
S'3.2'
p245
sg56
S'2003-04'
p246
sg58
S'6.3'
p247
sg60
S'22.2'
p248
sg62
S'.500'
p249
sg64
S'17'
p250
sg66
g74
sba(isrc.gp1.models.Per100Possession
Per100Possession
p251
(dp252
g8
S'1.0'
p253
sg10
S'3.6'
p254
sg12
S'.356'
p255
sg160
S'94'
p256
sg14
S'7.7'
p257
sg16
S'.361'
p258
sg18
S'1.3'
p259
sg20
S'16.5'
p260
sg22
S'PG'
p261
sg167
S'114'
p262
sg24
S'.787'
p263
sg28
S'NBA'
p264
sg30
S'1.6'
p265
sg32
S'17.3'
p266
sg34
S'2.9'
p267
sg36
S'3.7'
p268
sg38
S'4.6'
p269
sg40
S'25'
p270
sg42
S'LAL'
p271
sg44
S'76'
p272
sg46
S'0.0'
p273
sg48
S'4.9'
p274
sg50
S'2.9'
p275
sg52
S'13.7'
p276
sg54
S'3.6'
p277
sg56
S'2004-05'
p278
sg58
S'6.1'
p279
sg60
S'3.7'
p280
sg62
S'.355'
p281
sg64
S'1066'
p282
sg66
g74
sbasS'_advanced'
p283
(lp284
(isrc.gp1.models.Advanced
Advanced
p285
(dp286
S'_offensiveReboundPercentage'
p287
S'3.4'
p288
sS'_turnOverPercentage'
p289
S'23.9'
p290
sS'_winSharesPer48Minutes'
p291
S'.006'
p292
sS'_stealPercentage'
p293
S'2.6'
p294
sS'_usagePercentage'
p295
S'19.3'
p296
sS'_totalReboundsPercentage'
p297
S'6.0'
p298
sS'_defensiveBoxPlusMinus'
p299
S'-1.7'
p300
sg22
S'SG'
p301
sS'_valueOverReplacementPlayer'
p302
S'-0.3'
p303
sS'_trueShootingPercentage'
p304
S'.483'
p305
sS'_defensiveReboundPercentage'
p306
S'8.6'
p307
sS'_freeThrowsAttempRate'
p308
S'.243'
p309
sS'_threePointsAttempRate'
p310
S'.104'
p311
sg28
S'NBA'
p312
sS'_offensiveBoxPlusMinues'
p313
S'-3.1'
p314
sS'_assistPercentage'
p315
S'29.5'
p316
sS'_defensiveWinShares'
p317
S'0.2'
p318
sg40
S'22'
p319
sg42
S'HOU'
p320
sg44
S'40'
p321
sS'_blockPercentage'
p322
S'0.5'
p323
sS'_playerEfficiencyRating'
p324
S'12.4'
p325
sS'_offensiveWinShares'
p326
S'-0.1'
p327
sg64
S'403'
p328
sS'_boxPlusMinus'
p329
S'-4.8'
p330
sg56
S'2001-02'
p331
sS'_winShares'
p332
S'0.1'
p333
sba(isrc.gp1.models.Advanced
Advanced
p334
(dp335
g287
S'5.2'
p336
sg289
S'25.2'
p337
sg291
S'.044'
p338
sg293
S'4.0'
p339
sg295
S'22.5'
p340
sg297
S'10.0'
p341
sg299
S'-0.4'
p342
sg22
S'PG'
p343
sg302
S'0.0'
p344
sg304
S'.499'
p345
sg306
S'14.9'
p346
sg308
S'.237'
p347
sg310
S'.017'
p348
sg28
S'NBA'
p349
sg313
S'-1.2'
p350
sg315
S'41.6'
p351
sg317
S'0.2'
p352
sg40
S'23'
p353
sg42
S'CLE'
p354
sg44
S'15'
p355
sg322
S'0.0'
p356
sg324
S'17.4'
p357
sg326
S'0.0'
p358
sg64
S'168'
p359
sg329
S'-1.6'
p360
sg56
S'2002-03'
p361
sg332
S'0.2'
p362
sba(isrc.gp1.models.Advanced
Advanced
p363
(dp364
g287
S'0.0'
p365
sg289
S'54.9'
p366
sg291
S'-0.497'
p367
sg293
S'0.0'
p368
sg295
S'34.3'
p369
sg297
S'3.4'
p370
sg299
S'-4.7'
p371
sg22
S'PG'
p372
sg302
S'-0.1'
p373
sg304
S'.521'
p374
sg306
S'6.9'
p375
sg308
S'1.000'
p376
sg310
S'.000'
p377
sg28
S'NBA'
p378
sg313
S'-19.6'
p379
sg315
S'20.2'
p380
sg317
S'0.0'
p381
sg40
S'24'
p382
sg42
S'NOH'
p383
sg44
g47
sg322
S'0.0'
p384
sg324
S'-9.2'
p385
sg326
S'-0.2'
p386
sg64
S'17'
p387
sg329
S'-24.3'
p388
sg56
S'2003-04'
p389
sg332
S'-0.2'
p390
sba(isrc.gp1.models.Advanced
Advanced
p391
(dp392
g287
S'2.2'
p393
sg289
S'16.3'
p394
sg291
S'-0.021'
p395
sg293
S'1.6'
p396
sg295
S'19.3'
p397
sg297
S'4.9'
p398
sg299
S'-3.1'
p399
sg22
S'PG'
p400
sg302
S'-1.2'
p401
sg304
S'.437'
p402
sg306
S'7.6'
p403
sg308
S'.216'
p404
sg310
S'.207'
p405
sg28
S'NBA'
p406
sg313
S'-3.5'
p407
sg315
S'23.6'
p408
sg317
S'0.0'
p409
sg40
S'25'
p410
sg42
S'LAL'
p411
sg44
S'76'
p412
sg322
S'0.1'
p413
sg324
S'9.5'
p414
sg326
S'-0.5'
p415
sg64
S'1066'
p416
sg329
S'-6.6'
p417
sg56
S'2004-05'
p418
sg332
S'-0.5'
p419
sbasS'_per36Minutes'
p420
(lp421
(isrc.gp1.models.Per36Minutes
Per36Minutes
p422
(dp423
g8
S'1.1'
p424
sg10
S'1.1'
p425
sg12
S'.426'
p426
sg14
S'6.3'
p427
sg16
S'.333'
p428
sg18
S'0.4'
p429
sg20
S'11.0'
p430
sg22
S'SG'
p431
sg24
S'.750'
p432
sg28
S'NBA'
p433
sg30
S'1.7'
p434
sg32
S'10.3'
p435
sg34
S'2.3'
p436
sg36
S'2.5'
p437
sg38
S'3.8'
p438
sg40
S'22'
p439
sg42
S'HOU'
p440
sg44
S'40'
p441
sg46
S'0.3'
p442
sg48
S'4.0'
p443
sg50
S'1.9'
p444
sg52
S'9.2'
p445
sg54
S'2.7'
p446
sg56
S'2001-02'
p447
sg58
S'4.4'
p448
sg60
S'3.6'
p449
sg62
S'.437'
p450
sg64
S'403'
p451
sg66
g67
sba(isrc.gp1.models.Per36Minutes
Per36Minutes
p452
(dp453
g8
S'1.7'
p454
sg10
S'0.2'
p455
sg12
S'.458'
p456
sg14
S'8.4'
p457
sg16
S'.000'
p458
sg18
S'0.0'
p459
sg20
S'13.9'
p460
sg22
S'PG'
p461
sg24
S'.786'
p462
sg28
S'NBA'
p463
sg30
S'2.8'
p464
sg32
S'12.6'
p465
sg34
S'1.9'
p466
sg36
S'3.0'
p467
sg38
S'6.4'
p468
sg40
S'23'
p469
sg42
S'CLE'
p470
sg44
S'15'
p471
sg46
S'0.0'
p472
sg48
S'5.8'
p473
sg50
S'2.4'
p474
sg52
S'12.4'
p475
sg54
S'4.7'
p476
sg56
S'2002-03'
p477
sg58
S'5.8'
p478
sg60
S'4.7'
p479
sg62
S'.466'
p480
sg64
S'168'
p481
sg66
g74
sba(isrc.gp1.models.Per36Minutes
Per36Minutes
p482
(dp483
g8
S'0.0'
p484
sg10
S'0.0'
p485
sg12
S'.500'
p486
sg14
S'4.2'
p487
sg16
g3
sg18
S'0.0'
p488
sg20
S'12.7'
p489
sg22
S'PG'
p490
sg24
S'.500'
p491
sg28
S'NBA'
p492
sg30
S'0.0'
p493
sg32
S'8.5'
p494
sg34
S'2.1'
p495
sg36
S'8.5'
p496
sg38
S'2.1'
p497
sg40
S'24'
p498
sg42
S'NOH'
p499
sg44
g47
sg46
S'0.0'
p500
sg48
S'4.2'
p501
sg50
S'4.2'
p502
sg52
S'8.5'
p503
sg54
S'2.1'
p504
sg56
S'2003-04'
p505
sg58
S'4.2'
p506
sg60
S'14.8'
p507
sg62
S'.500'
p508
sg64
S'17'
p509
sg66
g74
sba(isrc.gp1.models.Per36Minutes
Per36Minutes
p510
(dp511
g8
S'0.7'
p512
sg10
S'2.4'
p513
sg12
S'.356'
p514
sg14
S'5.2'
p515
sg16
S'.361'
p516
sg18
S'0.9'
p517
sg20
S'11.2'
p518
sg22
S'PG'
p519
sg24
S'.787'
p520
sg28
S'NBA'
p521
sg30
S'1.1'
p522
sg32
S'11.8'
p523
sg34
S'2.0'
p524
sg36
S'2.5'
p525
sg38
S'3.1'
p526
sg40
S'25'
p527
sg42
S'LAL'
p528
sg44
S'76'
p529
sg46
S'0.0'
p530
sg48
S'3.3'
p531
sg50
S'2.0'
p532
sg52
S'9.3'
p533
sg54
S'2.4'
p534
sg56
S'2004-05'
p535
sg58
S'4.2'
p536
sg60
S'2.5'
p537
sg62
S'.355'
p538
sg64
S'1066'
p539
sg66
g74
sbasS'_fromYear'
p540
S'2002'
p541
sS'_url'
p542
S'http://www.basketball-reference.com/players/b/brownti01.html'
p543
sS'_perGame'
p544
(isrc.gp1.models.PerGame
PerGame
p545
(dp546
g8
S'0.3'
p547
sg10
S'0.9'
p548
sg12
S'.356'
p549
sS'_effectiveFieldGalPercentage'
p550
S'.394'
p551
sg14
S'2.0'
p552
sg16
S'.361'
p553
sg18
S'0.3'
p554
sg20
S'4.4'
p555
sg22
S'PG'
p556
sg24
S'.787'
p557
sg28
S'NBA'
p558
sg30
S'0.4'
p559
sg34
S'0.8'
p560
sS'_fieldGoalsttempted'
p561
S'4.6'
p562
sg36
S'1.0'
p563
sg38
S'1.2'
p564
sg40
S'25'
p565
sg42
S'LAL'
p566
sg44
S'76'
p567
sg46
S'0.0'
p568
sg48
S'1.3'
p569
sg50
S'0.8'
p570
sg52
S'3.6'
p571
sg54
S'0.9'
p572
sg56
S'2004-05'
p573
sg58
S'1.6'
p574
sg60
S'1.0'
p575
sg62
S'.355'
p576
sg64
S'14.0'
p577
sg66
g74
sbsS'_weight'
p578
S'189'
p579
sS'_dob'
p580
S'3-6-1979'
p581
sS'_salary'
p582
(lp583
(isrc.gp1.models.Salary
Salary
p584
(dp585
g42
S'Houston Rockets'
p586
sg28
S'NBA'
p587
sg582
S'$332,817'
p588
sg56
S'2001-02'
p589
sba(isrc.gp1.models.Salary
Salary
p590
(dp591
g42
S'Los Angeles Lakers'
p592
sg28
S'NBA'
p593
sg582
S'$720,046'
p594
sg56
S'2004-05'
p595
sbasg22
S'G'
p596
sb.