(isrc.gp1.models.Player
Player
p0
(dp1
S'_experience'
p2
S'NA'
p3
sS'_totals'
p4
(lp5
(isrc.gp1.models.Totals
Totals
p6
(dp7
S'_offensiveRebounds'
p8
g3
sS'_threePointsAttempted'
p9
g3
sS'_fieldGoalsPercentage'
p10
S'.348'
p11
sS'_assist'
p12
S'99'
p13
sS'_threePointsPercentage'
p14
g3
sS'_threePoints'
p15
g3
sS'_points'
p16
S'692'
p17
sS'_position'
p18
S'PF'
p19
sS'_freeThrowsPercentage'
p20
S'.790'
p21
sS'_effectiveFieldGoalPercentage'
p22
S'.348'
p23
sS'_league'
p24
S'BAA'
p25
sS'_steals'
p26
g3
sS'_fieldGoalsAttempted'
p27
S'644'
p28
sS'_personalFouls'
p29
S'201'
p30
sS'_freeThrowsAttempted'
p31
S'309'
p32
sS'_totalRebounds'
p33
g3
sS'_age'
p34
S'23'
p35
sS'_team'
p36
S'BLB'
p37
sS'_games'
p38
S'60'
p39
sS'_blocks'
p40
g3
sS'_twoPoints'
p41
S'224'
p42
sS'_freeThrows'
p43
S'244'
p44
sS'_twoPointsAttempted'
p45
S'644'
p46
sS'_defensiveRebounds'
p47
g3
sS'_season'
p48
S'1948-49'
p49
sS'_fieldGoals'
p50
S'224'
p51
sS'_turnOvers'
p52
g3
sS'_twoPointsPercentage'
p53
S'.348'
p54
sS'_minutesPlayed'
p55
g3
sS'_gamesStarted'
p56
g3
sba(isrc.gp1.models.Totals
Totals
p57
(dp58
g8
g3
sg9
g3
sg10
S'.304'
p59
sg12
S'146'
p60
sg14
g3
sg15
g3
sg16
S'595'
p61
sg18
S'PF'
p62
sg20
S'.757'
p63
sg22
S'.304'
p64
sg24
S'NBA'
p65
sg26
g3
sg27
S'652'
p66
sg29
S'259'
p67
sg31
S'263'
p68
sg33
g3
sg34
S'24'
p69
sg36
S'BLB'
p70
sg38
S'66'
p71
sg40
g3
sg41
S'198'
p72
sg43
S'199'
p73
sg45
S'652'
p74
sg47
g3
sg48
S'1949-50'
p75
sg50
S'198'
p76
sg52
g3
sg53
S'.304'
p77
sg55
g3
sg56
g3
sba(isrc.gp1.models.Totals
Totals
p78
(dp79
g8
g3
sg9
g3
sg10
S'.356'
p80
sg12
S'135'
p81
sg14
g3
sg15
g3
sg16
S'496'
p82
sg18
S'PF'
p83
sg20
S'.744'
p84
sg22
S'.356'
p85
sg24
S'NBA'
p86
sg26
g3
sg27
S'464'
p87
sg29
S'203'
p88
sg31
S'223'
p89
sg33
S'452'
p90
sg34
S'25'
p91
sg36
S'BLB'
p92
sg38
S'64'
p93
sg40
g3
sg41
S'165'
p94
sg43
S'166'
p95
sg45
S'464'
p96
sg47
g3
sg48
S'1950-51'
p97
sg50
S'165'
p98
sg52
g3
sg53
S'.356'
p99
sg55
g3
sg56
g3
sba(isrc.gp1.models.Totals
Totals
p100
(dp101
g8
g3
sg9
g3
sg10
S'.404'
p102
sg12
S'91'
p103
sg14
g3
sg15
g3
sg16
S'254'
p104
sg18
S'PF'
p105
sg20
S'.674'
p106
sg22
S'.404'
p107
sg24
S'NBA'
p108
sg26
g3
sg27
S'240'
p109
sg29
S'196'
p110
sg31
S'89'
p111
sg33
S'232'
p112
sg34
S'26'
p113
sg36
S'PHW'
p114
sg38
S'63'
p115
sg40
g3
sg41
S'97'
p116
sg43
S'60'
p117
sg45
S'240'
p118
sg47
g3
sg48
S'1951-52'
p119
sg50
S'97'
p120
sg52
g3
sg53
S'.404'
p121
sg55
S'1126'
p122
sg56
g3
sbasS'_college'
p123
S'Columbia University'
p124
sS'_toYear'
p125
S'1952'
p126
sS'_height'
p127
S'6-5'
p128
sS'_active'
p129
I00
sS'_shootingHand'
p130
VRight
p131
sS'_name'
p132
S'Walt Budko'
p133
sS'_per100Possessions'
p134
(lp135
sS'_advanced'
p136
(lp137
(isrc.gp1.models.Advanced
Advanced
p138
(dp139
S'_offensiveReboundPercentage'
p140
g3
sS'_turnOverPercentage'
p141
g3
sS'_winSharesPer48Minutes'
p142
g3
sS'_stealPercentage'
p143
g3
sS'_usagePercentage'
p144
g3
sS'_totalReboundsPercentage'
p145
g3
sS'_defensiveBoxPlusMinus'
p146
g3
sg18
S'PF'
p147
sS'_valueOverReplacementPlayer'
p148
g3
sS'_trueShootingPercentage'
p149
S'.444'
p150
sS'_defensiveReboundPercentage'
p151
g3
sS'_freeThrowsAttempRate'
p152
S'.480'
p153
sS'_threePointsAttempRate'
p154
g3
sg24
S'BAA'
p155
sS'_offensiveBoxPlusMinues'
p156
g3
sS'_assistPercentage'
p157
g3
sS'_defensiveWinShares'
p158
S'0.8'
p159
sg34
S'23'
p160
sg36
S'BLB'
p161
sg38
S'60'
p162
sS'_blockPercentage'
p163
g3
sS'_playerEfficiencyRating'
p164
g3
sS'_offensiveWinShares'
p165
S'4.8'
p166
sg55
g3
sS'_boxPlusMinus'
p167
g3
sg48
S'1948-49'
p168
sS'_winShares'
p169
S'5.6'
p170
sba(isrc.gp1.models.Advanced
Advanced
p171
(dp172
g140
g3
sg141
g3
sg142
g3
sg143
g3
sg144
g3
sg145
g3
sg146
g3
sg18
S'PF'
p173
sg148
g3
sg149
S'.388'
p174
sg151
g3
sg152
S'.403'
p175
sg154
g3
sg24
S'NBA'
p176
sg156
g3
sg157
g3
sg158
S'2.0'
p177
sg34
S'24'
p178
sg36
S'BLB'
p179
sg38
S'66'
p180
sg163
g3
sg164
g3
sg165
S'0.7'
p181
sg55
g3
sg167
g3
sg48
S'1949-50'
p182
sg169
S'2.7'
p183
sba(isrc.gp1.models.Advanced
Advanced
p184
(dp185
g140
g3
sg141
g3
sg142
g3
sg143
g3
sg144
g3
sg145
g3
sg146
g3
sg18
S'PF'
p186
sg148
g3
sg149
S'.441'
p187
sg151
g3
sg152
S'.481'
p188
sg154
g3
sg24
S'NBA'
p189
sg156
g3
sg157
g3
sg158
S'1.9'
p190
sg34
S'25'
p191
sg36
S'BLB'
p192
sg38
S'64'
p193
sg163
g3
sg164
g3
sg165
S'2.1'
p194
sg55
g3
sg167
g3
sg48
S'1950-51'
p195
sg169
S'4.0'
p196
sba(isrc.gp1.models.Advanced
Advanced
p197
(dp198
g140
g3
sg141
g3
sg142
S'.065'
p199
sg143
g3
sg144
g3
sg145
g3
sg146
g3
sg18
S'PF'
p200
sg148
g3
sg149
S'.455'
p201
sg151
g3
sg152
S'.371'
p202
sg154
g3
sg24
S'NBA'
p203
sg156
g3
sg157
g3
sg158
S'0.4'
p204
sg34
S'26'
p205
sg36
S'PHW'
p206
sg38
S'63'
p207
sg163
g3
sg164
S'10.2'
p208
sg165
S'1.1'
p209
sg55
S'1126'
p210
sg167
g3
sg48
S'1951-52'
p211
sg169
S'1.5'
p212
sbasS'_per36Minutes'
p213
(lp214
(isrc.gp1.models.Per36Minutes
Per36Minutes
p215
(dp216
g8
g3
sg9
g3
sg10
S'.348'
p217
sg12
g3
sg14
g3
sg15
g3
sg16
g3
sg18
S'PF'
p218
sg20
S'.790'
p219
sg24
S'BAA'
p220
sg26
g3
sg27
g3
sg29
g3
sg31
g3
sg33
g3
sg34
S'23'
p221
sg36
S'BLB'
p222
sg38
S'60'
p223
sg40
g3
sg41
g3
sg43
g3
sg45
g3
sg47
g3
sg48
S'1948-49'
p224
sg50
g3
sg52
g3
sg53
S'.348'
p225
sg55
g3
sg56
g3
sba(isrc.gp1.models.Per36Minutes
Per36Minutes
p226
(dp227
g8
g3
sg9
g3
sg10
S'.304'
p228
sg12
g3
sg14
g3
sg15
g3
sg16
g3
sg18
S'PF'
p229
sg20
S'.757'
p230
sg24
S'NBA'
p231
sg26
g3
sg27
g3
sg29
g3
sg31
g3
sg33
g3
sg34
S'24'
p232
sg36
S'BLB'
p233
sg38
S'66'
p234
sg40
g3
sg41
g3
sg43
g3
sg45
g3
sg47
g3
sg48
S'1949-50'
p235
sg50
g3
sg52
g3
sg53
S'.304'
p236
sg55
g3
sg56
g3
sba(isrc.gp1.models.Per36Minutes
Per36Minutes
p237
(dp238
g8
g3
sg9
g3
sg10
S'.356'
p239
sg12
g3
sg14
g3
sg15
g3
sg16
g3
sg18
S'PF'
p240
sg20
S'.744'
p241
sg24
S'NBA'
p242
sg26
g3
sg27
g3
sg29
g3
sg31
g3
sg33
g3
sg34
S'25'
p243
sg36
S'BLB'
p244
sg38
S'64'
p245
sg40
g3
sg41
g3
sg43
g3
sg45
g3
sg47
g3
sg48
S'1950-51'
p246
sg50
g3
sg52
g3
sg53
S'.356'
p247
sg55
g3
sg56
g3
sba(isrc.gp1.models.Per36Minutes
Per36Minutes
p248
(dp249
g8
g3
sg9
g3
sg10
S'.404'
p250
sg12
S'2.9'
p251
sg14
g3
sg15
g3
sg16
S'8.1'
p252
sg18
S'PF'
p253
sg20
S'.674'
p254
sg24
S'NBA'
p255
sg26
g3
sg27
S'7.7'
p256
sg29
S'6.3'
p257
sg31
S'2.8'
p258
sg33
S'7.4'
p259
sg34
S'26'
p260
sg36
S'PHW'
p261
sg38
S'63'
p262
sg40
g3
sg41
S'3.1'
p263
sg43
S'1.9'
p264
sg45
S'7.7'
p265
sg47
g3
sg48
S'1951-52'
p266
sg50
S'3.1'
p267
sg52
g3
sg53
S'.404'
p268
sg55
S'1126'
p269
sg56
g3
sbasS'_fromYear'
p270
S'1949'
p271
sS'_url'
p272
S'http://www.basketball-reference.com/players/b/budkowa01.html'
p273
sS'_perGame'
p274
(isrc.gp1.models.PerGame
PerGame
p275
(dp276
g8
g3
sg9
g3
sg10
S'.404'
p277
sS'_effectiveFieldGalPercentage'
p278
S'.404'
p279
sg12
S'1.4'
p280
sg14
g3
sg15
g3
sg16
S'4.0'
p281
sg18
S'PF'
p282
sg20
S'.674'
p283
sg24
S'NBA'
p284
sg26
g3
sg29
S'3.1'
p285
sS'_fieldGoalsttempted'
p286
S'3.8'
p287
sg31
S'1.4'
p288
sg33
S'3.7'
p289
sg34
S'26'
p290
sg36
S'PHW'
p291
sg38
S'63'
p292
sg40
g3
sg41
S'1.5'
p293
sg43
S'1.0'
p294
sg45
S'3.8'
p295
sg47
g3
sg48
S'1951-52'
p296
sg50
S'1.5'
p297
sg52
g3
sg53
S'.404'
p298
sg55
S'17.9'
p299
sg56
g3
sbsS'_weight'
p300
S'220'
p301
sS'_dob'
p302
S'30-7-1925'
p303
sS'_salary'
p304
(lp305
sg18
S'F-C'
p306
sb.