(isrc.gp1.models.Player
Player
p0
(dp1
S'_experience'
p2
S'NA'
p3
sS'_totals'
p4
(lp5
(isrc.gp1.models.Totals
Totals
p6
(dp7
S'_offensiveRebounds'
p8
g3
sS'_threePointsAttempted'
p9
S'.323'
p10
sS'_fieldGoalsPercentage'
p11
S'43'
p12
sS'_assist'
p13
g3
sS'_threePointsPercentage'
p14
S'.323'
p15
sS'_threePoints'
p16
S'133'
p17
sS'_points'
p18
g3
sS'_position'
p19
S'PF'
p20
sS'_freeThrowsPercentage'
p21
S'113'
p22
sS'_effectiveFieldGoalPercentage'
p23
S'105'
p24
sS'_league'
p25
S'NBA'
p26
sS'_steals'
p27
g3
sS'_fieldGoalsAttempted'
p28
S'.323'
p29
sS'_personalFouls'
p30
g3
sS'_freeThrowsAttempted'
p31
S'78'
p32
sS'_totalRebounds'
p33
g3
sS'_age'
p34
S'22'
p35
sS'_team'
p36
S'CIN'
p37
sS'_games'
p38
S'52'
p39
sS'_blocks'
p40
g3
sS'_twoPoints'
p41
S'27'
p42
sS'_freeThrows'
p43
S'42'
p44
sS'_twoPointsAttempted'
p45
S'39'
p46
sS'_defensiveRebounds'
p47
g3
sS'_season'
p48
S'1962-63'
p49
sS'_fieldGoals'
p50
S'133'
p51
sS'_turnOvers'
p52
g3
sS'_twoPointsPercentage'
p53
S'.692'
p54
sS'_minutesPlayed'
p55
S'43'
p56
sS'_gamesStarted'
p57
S'373'
p58
sba(isrc.gp1.models.Totals
Totals
p59
(dp60
g8
g3
sg9
S'.405'
p61
sg11
S'85'
p62
sg13
g3
sg14
S'.405'
p63
sg16
S'210'
p64
sg18
g3
sg19
S'PF'
p65
sg21
S'202'
p66
sg23
S'149'
p67
sg25
S'NBA'
p68
sg27
g3
sg28
S'.405'
p69
sg30
g3
sg31
S'78'
p70
sg33
g3
sg34
S'23'
p71
sg36
S'CIN'
p72
sg38
S'49'
p73
sg40
g3
sg41
S'32'
p74
sg43
S'29'
p75
sg45
S'57'
p76
sg47
g3
sg48
S'1963-64'
p77
sg50
S'210'
p78
sg52
g3
sg53
S'.561'
p79
sg55
S'85'
p80
sg57
S'513'
p81
sba(isrc.gp1.models.Totals
Totals
p82
(dp83
g8
g3
sg9
S'.438'
p84
sg11
S'224'
p85
sg13
g3
sg14
S'.438'
p86
sg16
S'512'
p87
sg18
g3
sg19
S'PF'
p88
sg21
S'592'
p89
sg23
S'333'
p90
sg25
S'NBA'
p91
sg27
g3
sg28
S'.438'
p92
sg30
g3
sg31
S'203'
p93
sg33
g3
sg34
S'24'
p94
sg36
S'CIN'
p95
sg38
S'79'
p96
sg40
g3
sg41
S'144'
p97
sg43
S'84'
p98
sg45
S'195'
p99
sg47
g3
sg48
S'1964-65'
p100
sg50
S'512'
p101
sg52
g3
sg53
S'.738'
p102
sg55
S'224'
p103
sg57
S'1372'
p104
sba(isrc.gp1.models.Totals
Totals
p105
(dp106
g8
g3
sg9
S'.420'
p107
sg11
S'81'
p108
sg13
g3
sg14
S'.420'
p109
sg16
S'193'
p110
sg18
g3
sg19
S'PF'
p111
sg21
S'201'
p112
sg23
S'192'
p113
sg25
S'NBA'
p114
sg27
g3
sg28
S'.420'
p115
sg30
g3
sg31
S'81'
p116
sg33
g3
sg34
S'25'
p117
sg36
S'TOT'
p118
sg38
S'59'
p119
sg40
g3
sg41
S'39'
p120
sg43
S'20'
p121
sg45
S'88'
p122
sg47
g3
sg48
S'1965-66'
p123
sg50
S'193'
p124
sg52
g3
sg53
S'.443'
p125
sg55
S'81'
p126
sg57
S'602'
p127
sba(isrc.gp1.models.Totals
Totals
p128
(dp129
g8
g3
sg9
S'.375'
p130
sg11
S'3'
p131
sg13
g3
sg14
S'.375'
p132
sg16
S'8'
p133
sg18
g3
sg19
S'PF'
p134
sg21
S'7'
p135
sg23
S'13'
p136
sg25
S'NBA'
p137
sg27
g3
sg28
S'.375'
p138
sg30
g3
sg31
S'4'
p139
sg33
g3
sg34
S'25'
p140
sg36
S'CIN'
p141
sg38
g139
sg40
g3
sg41
S'1'
p142
sg43
S'2'
p143
sg45
g131
sg47
g3
sg48
S'1965-66'
p144
sg50
g133
sg52
g3
sg53
S'.333'
p145
sg55
g131
sg57
S'36'
p146
sba(isrc.gp1.models.Totals
Totals
p147
(dp148
g8
g3
sg9
S'.422'
p149
sg11
S'78'
p150
sg13
g3
sg14
S'.422'
p151
sg16
S'185'
p152
sg18
g3
sg19
S'PF'
p153
sg21
S'194'
p154
sg23
S'179'
p155
sg25
S'NBA'
p156
sg27
g3
sg28
S'.422'
p157
sg30
g3
sg31
S'77'
p158
sg33
g3
sg34
S'25'
p159
sg36
S'SFW'
p160
sg38
S'55'
p161
sg40
g3
sg41
S'38'
p162
sg43
S'18'
p163
sg45
S'85'
p164
sg47
g3
sg48
S'1965-66'
p165
sg50
S'185'
p166
sg52
g3
sg53
S'.447'
p167
sg55
S'78'
p168
sg57
S'566'
p169
sba(isrc.gp1.models.Totals
Totals
p170
(dp171
g8
g3
sg9
S'.449'
p172
sg11
S'75'
p173
sg13
g3
sg14
S'.449'
p174
sg16
S'167'
p175
sg18
g3
sg19
S'PF'
p176
sg21
S'173'
p177
sg23
S'103'
p178
sg25
S'NBA'
p179
sg27
g3
sg28
S'.449'
p180
sg30
g3
sg31
S'51'
p181
sg33
g3
sg34
S'26'
p182
sg36
S'SFW'
p183
sg38
S'40'
p184
sg40
g3
sg41
S'23'
p185
sg43
S'32'
p186
sg45
S'58'
p187
sg47
g3
sg48
S'1966-67'
p188
sg50
S'167'
p189
sg52
g3
sg53
S'.397'
p190
sg55
S'75'
p191
sg57
S'348'
p192
sba(isrc.gp1.models.Totals
Totals
p193
(dp194
g8
g3
sg9
S'.456'
p195
sg11
S'130'
p196
sg13
g3
sg14
S'.456'
p197
sg16
S'285'
p198
sg18
g3
sg19
S'PF'
p199
sg21
S'277'
p200
sg23
S'204'
p201
sg25
S'NBA'
p202
sg27
g3
sg28
S'.456'
p203
sg30
g3
sg31
S'136'
p204
sg33
g3
sg34
S'27'
p205
sg36
S'SEA'
p206
sg38
S'73'
p207
sg40
g3
sg41
S'17'
p208
sg43
S'75'
p209
sg45
S'62'
p210
sg47
g3
sg48
S'1967-68'
p211
sg50
S'285'
p212
sg52
g3
sg53
S'.274'
p213
sg55
S'130'
p214
sg57
S'897'
p215
sba(isrc.gp1.models.Totals
Totals
p216
(dp217
g8
g3
sg9
S'.357'
p218
sg11
S'15'
p219
sg13
g3
sg14
S'.357'
p220
sg16
S'42'
p221
sg18
g3
sg19
S'PF'
p222
sg21
S'34'
p223
sg23
S'25'
p224
sg25
S'NBA'
p225
sg27
g3
sg28
S'.357'
p226
sg30
g3
sg31
S'14'
p227
sg33
g3
sg34
S'28'
p228
sg36
S'TOT'
p229
sg38
S'17'
p230
sg40
g3
sg41
g139
sg43
S'11'
p231
sg45
S'18'
p232
sg47
g3
sg48
S'1968-69'
p233
sg50
S'42'
p234
sg52
g3
sg53
S'.222'
p235
sg55
S'15'
p236
sg57
S'113'
p237
sba(isrc.gp1.models.Totals
Totals
p238
(dp239
g8
g3
sg9
S'.368'
p240
sg11
g135
sg13
g3
sg14
S'.368'
p241
sg16
S'19'
p242
sg18
g3
sg19
S'PF'
p243
sg21
S'14'
p244
sg23
S'14'
p245
sg25
S'NBA'
p246
sg27
g3
sg28
S'.368'
p247
sg30
g3
sg31
S'6'
p248
sg33
g3
sg34
S'28'
p249
sg36
S'BOS'
p250
sg38
g135
sg40
g3
sg41
S'0'
p251
sg43
g139
sg45
g248
sg47
g3
sg48
S'1968-69'
p252
sg50
S'19'
p253
sg52
g3
sg53
S'.000'
p254
sg55
g135
sg57
S'43'
p255
sba(isrc.gp1.models.Totals
Totals
p256
(dp257
g8
g3
sg9
S'.348'
p258
sg11
g133
sg13
g3
sg14
S'.348'
p259
sg16
S'23'
p260
sg18
g3
sg19
S'PF'
p261
sg21
S'20'
p262
sg23
S'11'
p263
sg25
S'NBA'
p264
sg27
g3
sg28
S'.348'
p265
sg30
g3
sg31
g133
sg33
g3
sg34
S'28'
p266
sg36
S'DET'
p267
sg38
S'10'
p268
sg40
g3
sg41
g139
sg43
g135
sg45
S'12'
p269
sg47
g3
sg48
S'1968-69'
p270
sg50
S'23'
p271
sg52
g3
sg53
S'.333'
p272
sg55
g133
sg57
S'70'
p273
sba(isrc.gp1.models.Totals
Totals
p274
(dp275
g8
S'234'
p276
sg9
S'.250'
p277
sg11
g142
sg13
S'113'
p278
sg14
S'157'
p279
sg16
g139
sg18
g3
sg19
S'PF'
p280
sg21
S'140'
p281
sg23
S'26'
p282
sg25
S'ABA'
p283
sg27
S'234'
p284
sg28
S'.479'
p285
sg30
g3
sg31
S'.356'
p286
sg33
S'249'
p287
sg34
S'29'
p288
sg36
S'KEN'
p289
sg38
S'84'
p290
sg40
S'343'
p291
sg41
S'326'
p292
sg43
S'73'
p293
sg45
S'.482'
p294
sg47
S'374'
p295
sg48
S'1969-70'
p296
sg50
S'330'
p297
sg52
g3
sg53
S'.480'
p298
sg55
S'158'
p299
sg57
S'1375'
p300
sbasS'_college'
p301
S'University of Louisville'
p302
sS'_toYear'
p303
S'1970'
p304
sS'_height'
p305
S'6-8'
p306
sS'_active'
p307
I00
sS'_shootingHand'
p308
VRight
p309
sS'_name'
p310
S'Bud Olsen'
p311
sS'_per100Possessions'
p312
(lp313
sS'_advanced'
p314
(lp315
(isrc.gp1.models.Advanced
Advanced
p316
(dp317
S'_offensiveReboundPercentage'
p318
S'0.3'
p319
sS'_turnOverPercentage'
p320
g3
sS'_winSharesPer48Minutes'
p321
g3
sS'_stealPercentage'
p322
g3
sS'_usagePercentage'
p323
g3
sS'_totalReboundsPercentage'
p324
S'-0.043'
p325
sS'_defensiveBoxPlusMinus'
p326
g3
sg19
S'PF'
p327
sS'_valueOverReplacementPlayer'
p328
g3
sS'_trueShootingPercentage'
p329
S'.376'
p330
sS'_defensiveReboundPercentage'
p331
S'-0.3'
p332
sS'_freeThrowsAttempRate'
p333
S'-0.6'
p334
sS'_threePointsAttempRate'
p335
S'.293'
p336
sg25
S'NBA'
p337
sS'_offensiveBoxPlusMinues'
p338
g3
sS'_assistPercentage'
p339
g3
sS'_defensiveWinShares'
p340
g3
sg34
S'22'
p341
sg36
S'CIN'
p342
sg38
S'52'
p343
sS'_blockPercentage'
p344
g3
sS'_playerEfficiencyRating'
p345
S'7.9'
p346
sS'_offensiveWinShares'
p347
g3
sg55
S'373'
p348
sS'_boxPlusMinus'
p349
g3
sg48
S'1962-63'
p350
sS'_winShares'
p351
g3
sba(isrc.gp1.models.Advanced
Advanced
p352
(dp353
g318
S'0.5'
p354
sg320
g3
sg321
g3
sg322
g3
sg323
g3
sg324
S'.022'
p355
sg326
g3
sg19
S'PF'
p356
sg328
g3
sg329
S'.430'
p357
sg331
S'0.2'
p358
sg333
S'-0.2'
p359
sg335
S'.271'
p360
sg25
S'NBA'
p361
sg338
g3
sg339
g3
sg340
g3
sg34
S'23'
p362
sg36
S'CIN'
p363
sg38
S'49'
p364
sg344
g3
sg345
S'10.9'
p365
sg347
g3
sg55
S'513'
p366
sg349
g3
sg48
S'1963-64'
p367
sg351
g3
sba(isrc.gp1.models.Advanced
Advanced
p368
(dp369
g318
S'1.7'
p370
sg320
g3
sg321
g3
sg322
g3
sg323
g3
sg324
S'2.5'
p371
sg326
g3
sg19
S'PF'
p372
sg328
g3
sg329
S'.495'
p373
sg331
S'0.7'
p374
sg333
S'8.3'
p375
sg335
S'.381'
p376
sg25
S'NBA'
p377
sg338
g3
sg339
S'.087'
p378
sg340
g3
sg34
S'24'
p379
sg36
S'CIN'
p380
sg38
S'79'
p381
sg344
g3
sg345
S'13.0'
p382
sg347
g3
sg55
S'1372'
p383
sg349
g3
sg48
S'1964-65'
p384
sg351
g3
sba(isrc.gp1.models.Advanced
Advanced
p385
(dp386
g318
S'-0.2'
p387
sg320
g3
sg321
g3
sg322
g3
sg323
g3
sg324
S'0.4'
p388
sg326
g3
sg19
S'PF'
p389
sg328
g3
sg329
S'.434'
p390
sg331
S'0.6'
p391
sg333
S'4.2'
p392
sg335
S'.456'
p393
sg25
S'NBA'
p394
sg338
g3
sg339
S'.035'
p395
sg340
g3
sg34
S'25'
p396
sg36
S'TOT'
p397
sg38
S'59'
p398
sg344
g3
sg345
S'9.5'
p399
sg347
g3
sg55
S'602'
p400
sg349
g3
sg48
S'1965-66'
p401
sg351
g3
sba(isrc.gp1.models.Advanced
Advanced
p402
(dp403
g318
S'0.0'
p404
sg320
g3
sg321
g3
sg322
g3
sg323
g3
sg324
S'0.0'
p405
sg326
g3
sg19
S'PF'
p406
sg328
g3
sg329
S'.376'
p407
sg331
S'0.0'
p408
sg333
S'6.5'
p409
sg335
S'.375'
p410
sg25
S'NBA'
p411
sg338
g3
sg339
S'-0.006'
p412
sg340
g3
sg34
S'25'
p413
sg36
S'CIN'
p414
sg38
g139
sg344
g3
sg345
S'8.1'
p415
sg347
g3
sg55
S'36'
p416
sg349
g3
sg48
S'1965-66'
p417
sg351
g3
sba(isrc.gp1.models.Advanced
Advanced
p418
(dp419
g318
S'-0.2'
p420
sg320
g3
sg321
g3
sg322
g3
sg323
g3
sg324
S'0.4'
p421
sg326
g3
sg19
S'PF'
p422
sg328
g3
sg329
S'.436'
p423
sg331
S'0.6'
p424
sg333
S'4.0'
p425
sg335
S'.459'
p426
sg25
S'NBA'
p427
sg338
g3
sg339
S'.037'
p428
sg340
g3
sg34
S'25'
p429
sg36
S'SFW'
p430
sg38
S'55'
p431
sg344
g3
sg345
S'9.6'
p432
sg347
g3
sg55
S'566'
p433
sg349
g3
sg48
S'1965-66'
p434
sg351
g3
sba(isrc.gp1.models.Advanced
Advanced
p435
(dp436
g318
S'-0.1'
p437
sg320
g3
sg321
g3
sg322
g3
sg323
g3
sg324
S'0.5'
p438
sg326
g3
sg19
S'PF'
p439
sg328
g3
sg329
S'.449'
p440
sg331
S'0.5'
p441
sg333
S'12.1'
p442
sg335
S'.347'
p443
sg25
S'NBA'
p444
sg338
g3
sg339
S'.068'
p445
sg340
g3
sg34
S'26'
p446
sg36
S'SFW'
p447
sg38
S'40'
p448
sg344
g3
sg345
S'13.4'
p449
sg347
g3
sg55
S'348'
p450
sg349
g3
sg48
S'1966-67'
p451
sg351
g3
sba(isrc.gp1.models.Advanced
Advanced
p452
(dp453
g318
S'-0.2'
p454
sg320
g3
sg321
g3
sg322
g3
sg323
g3
sg324
S'0.2'
p455
sg326
g3
sg19
S'PF'
p456
sg328
g3
sg329
S'.444'
p457
sg331
S'0.5'
p458
sg333
S'10.3'
p459
sg335
S'.218'
p460
sg25
S'NBA'
p461
sg338
g3
sg339
S'.012'
p462
sg340
g3
sg34
S'27'
p463
sg36
S'SEA'
p464
sg38
S'73'
p465
sg344
g3
sg345
S'8.5'
p466
sg347
g3
sg55
S'897'
p467
sg349
g3
sg48
S'1967-68'
p468
sg351
g3
sba(isrc.gp1.models.Advanced
Advanced
p469
(dp470
g318
S'-0.3'
p471
sg320
g3
sg321
g3
sg322
g3
sg323
g3
sg324
S'-0.2'
p472
sg326
g3
sg19
S'PF'
p473
sg328
g3
sg329
S'.341'
p474
sg331
S'0.1'
p475
sg333
S'12.5'
p476
sg335
S'.429'
p477
sg25
S'NBA'
p478
sg338
g3
sg339
S'-0.077'
p479
sg340
g3
sg34
S'28'
p480
sg36
S'TOT'
p481
sg38
S'17'
p482
sg344
g3
sg345
S'6.7'
p483
sg347
g3
sg55
S'113'
p484
sg349
g3
sg48
S'1968-69'
p485
sg351
g3
sba(isrc.gp1.models.Advanced
Advanced
p486
(dp487
g318
S'-0.2'
p488
sg320
g3
sg321
g3
sg322
g3
sg323
g3
sg324
S'-0.1'
p489
sg326
g3
sg19
S'PF'
p490
sg328
g3
sg329
S'.323'
p491
sg331
S'0.1'
p492
sg333
S'12.6'
p493
sg335
S'.316'
p494
sg25
S'NBA'
p495
sg338
g3
sg339
S'-0.065'
p496
sg340
g3
sg34
S'28'
p497
sg36
S'BOS'
p498
sg38
g135
sg344
g3
sg345
S'7.8'
p499
sg347
g3
sg55
S'43'
p500
sg349
g3
sg48
S'1968-69'
p501
sg351
g3
sba(isrc.gp1.models.Advanced
Advanced
p502
(dp503
g318
S'-0.1'
p504
sg320
g3
sg321
g3
sg322
g3
sg323
g3
sg324
S'-0.1'
p505
sg326
g3
sg19
S'PF'
p506
sg328
g3
sg329
S'.354'
p507
sg331
S'0.0'
p508
sg333
S'12.5'
p509
sg335
S'.522'
p510
sg25
S'NBA'
p511
sg338
g3
sg339
S'-0.084'
p512
sg340
g3
sg34
S'28'
p513
sg36
S'DET'
p514
sg38
S'10'
p515
sg344
g3
sg345
S'6.1'
p516
sg347
g3
sg55
S'70'
p517
sg349
g3
sg48
S'1968-69'
p518
sg351
g3
sba(isrc.gp1.models.Advanced
Advanced
p519
(dp520
g318
S'11.9'
p521
sg320
S'2.8'
p522
sg321
g3
sg322
S'0.3'
p523
sg323
S'.099'
p524
sg324
S'23.8'
p525
sg326
g3
sg19
S'PF'
p526
sg328
g3
sg329
S'.474'
p527
sg331
S'23.6'
p528
sg333
S'.221'
p529
sg335
S'.012'
p530
sg25
S'ABA'
p531
sg338
g3
sg339
S'12.5'
p532
sg340
g3
sg34
S'29'
p533
sg36
S'KEN'
p534
sg38
S'84'
p535
sg344
S'2.5'
p536
sg345
S'11.5'
p537
sg347
g3
sg55
S'1375'
p538
sg349
g3
sg48
S'1969-70'
p539
sg351
g3
sbasS'_per36Minutes'
p540
(lp541
(isrc.gp1.models.Per36Minutes
Per36Minutes
p542
(dp543
g8
g3
sg9
S'.323'
p544
sg11
S'4.2'
p545
sg13
g3
sg14
S'2.6'
p546
sg16
S'12.8'
p547
sg18
g3
sg19
S'PF'
p548
sg21
S'10.9'
p549
sg25
S'NBA'
p550
sg27
g3
sg28
S'.323'
p551
sg30
g3
sg31
S'7.5'
p552
sg33
g3
sg34
S'22'
p553
sg36
S'CIN'
p554
sg38
S'52'
p555
sg40
g3
sg41
S'3.8'
p556
sg43
S'4.1'
p557
sg45
S'.692'
p558
sg47
g3
sg48
S'1962-63'
p559
sg50
S'12.8'
p560
sg52
g3
sg53
S'10.1'
p561
sg55
S'4.2'
p562
sg57
S'373'
p563
sba(isrc.gp1.models.Per36Minutes
Per36Minutes
p564
(dp565
g8
g3
sg9
S'.405'
p566
sg11
S'6.0'
p567
sg13
g3
sg14
S'2.2'
p568
sg16
S'14.7'
p569
sg18
g3
sg19
S'PF'
p570
sg21
S'14.2'
p571
sg25
S'NBA'
p572
sg27
g3
sg28
S'.405'
p573
sg30
g3
sg31
S'5.5'
p574
sg33
g3
sg34
S'23'
p575
sg36
S'CIN'
p576
sg38
S'49'
p577
sg40
g3
sg41
S'4.0'
p578
sg43
S'2.0'
p579
sg45
S'.561'
p580
sg47
g3
sg48
S'1963-64'
p581
sg50
S'14.7'
p582
sg52
g3
sg53
S'10.5'
p583
sg55
S'6.0'
p584
sg57
S'513'
p585
sba(isrc.gp1.models.Per36Minutes
Per36Minutes
p586
(dp587
g8
g3
sg9
S'.438'
p588
sg11
S'5.9'
p589
sg13
g3
sg14
S'3.8'
p590
sg16
S'13.4'
p591
sg18
g3
sg19
S'PF'
p592
sg21
S'15.5'
p593
sg25
S'NBA'
p594
sg27
g3
sg28
S'.438'
p595
sg30
g3
sg31
S'5.3'
p596
sg33
g3
sg34
S'24'
p597
sg36
S'CIN'
p598
sg38
S'79'
p599
sg40
g3
sg41
S'5.1'
p600
sg43
S'2.2'
p601
sg45
S'.738'
p602
sg47
g3
sg48
S'1964-65'
p603
sg50
S'13.4'
p604
sg52
g3
sg53
S'8.7'
p605
sg55
S'5.9'
p606
sg57
S'1372'
p607
sba(isrc.gp1.models.Per36Minutes
Per36Minutes
p608
(dp609
g8
g3
sg9
S'.420'
p610
sg11
S'4.8'
p611
sg13
g3
sg14
S'2.3'
p612
sg16
S'11.5'
p613
sg18
g3
sg19
S'PF'
p614
sg21
S'12.0'
p615
sg25
S'NBA'
p616
sg27
g3
sg28
S'.420'
p617
sg30
g3
sg31
S'4.8'
p618
sg33
g3
sg34
S'25'
p619
sg36
S'TOT'
p620
sg38
S'59'
p621
sg40
g3
sg41
S'5.3'
p622
sg43
S'1.2'
p623
sg45
S'.443'
p624
sg47
g3
sg48
S'1965-66'
p625
sg50
S'11.5'
p626
sg52
g3
sg53
S'11.5'
p627
sg55
S'4.8'
p628
sg57
S'602'
p629
sba(isrc.gp1.models.Per36Minutes
Per36Minutes
p630
(dp631
g8
g3
sg9
S'.375'
p632
sg11
S'3.0'
p633
sg13
g3
sg14
S'1.0'
p634
sg16
S'8.0'
p635
sg18
g3
sg19
S'PF'
p636
sg21
S'7.0'
p637
sg25
S'NBA'
p638
sg27
g3
sg28
S'.375'
p639
sg30
g3
sg31
S'4.0'
p640
sg33
g3
sg34
S'25'
p641
sg36
S'CIN'
p642
sg38
g139
sg40
g3
sg41
S'3.0'
p643
sg43
S'2.0'
p644
sg45
S'.333'
p645
sg47
g3
sg48
S'1965-66'
p646
sg50
S'8.0'
p647
sg52
g3
sg53
S'13.0'
p648
sg55
S'3.0'
p649
sg57
S'36'
p650
sba(isrc.gp1.models.Per36Minutes
Per36Minutes
p651
(dp652
g8
g3
sg9
S'.422'
p653
sg11
S'5.0'
p654
sg13
g3
sg14
S'2.4'
p655
sg16
S'11.8'
p656
sg18
g3
sg19
S'PF'
p657
sg21
S'12.3'
p658
sg25
S'NBA'
p659
sg27
g3
sg28
S'.422'
p660
sg30
g3
sg31
S'4.9'
p661
sg33
g3
sg34
S'25'
p662
sg36
S'SFW'
p663
sg38
S'55'
p664
sg40
g3
sg41
S'5.4'
p665
sg43
S'1.1'
p666
sg45
S'.447'
p667
sg47
g3
sg48
S'1965-66'
p668
sg50
S'11.8'
p669
sg52
g3
sg53
S'11.4'
p670
sg55
S'5.0'
p671
sg57
S'566'
p672
sba(isrc.gp1.models.Per36Minutes
Per36Minutes
p673
(dp674
g8
g3
sg9
S'.449'
p675
sg11
S'7.8'
p676
sg13
g3
sg14
S'2.4'
p677
sg16
S'17.3'
p678
sg18
g3
sg19
S'PF'
p679
sg21
S'17.9'
p680
sg25
S'NBA'
p681
sg27
g3
sg28
S'.449'
p682
sg30
g3
sg31
S'5.3'
p683
sg33
g3
sg34
S'26'
p684
sg36
S'SFW'
p685
sg38
S'40'
p686
sg40
g3
sg41
S'6.0'
p687
sg43
S'3.3'
p688
sg45
S'.397'
p689
sg47
g3
sg48
S'1966-67'
p690
sg50
S'17.3'
p691
sg52
g3
sg53
S'10.7'
p692
sg55
S'7.8'
p693
sg57
S'348'
p694
sba(isrc.gp1.models.Per36Minutes
Per36Minutes
p695
(dp696
g8
g3
sg9
S'.456'
p697
sg11
S'5.2'
p698
sg13
g3
sg14
S'0.7'
p699
sg16
S'11.4'
p700
sg18
g3
sg19
S'PF'
p701
sg21
S'11.1'
p702
sg25
S'NBA'
p703
sg27
g3
sg28
S'.456'
p704
sg30
g3
sg31
S'5.5'
p705
sg33
g3
sg34
S'27'
p706
sg36
S'SEA'
p707
sg38
S'73'
p708
sg40
g3
sg41
S'2.5'
p709
sg43
S'3.0'
p710
sg45
S'.274'
p711
sg47
g3
sg48
S'1967-68'
p712
sg50
S'11.4'
p713
sg52
g3
sg53
S'8.2'
p714
sg55
S'5.2'
p715
sg57
S'897'
p716
sba(isrc.gp1.models.Per36Minutes
Per36Minutes
p717
(dp718
g8
g3
sg9
S'.357'
p719
sg11
S'4.8'
p720
sg13
g3
sg14
S'1.3'
p721
sg16
S'13.4'
p722
sg18
g3
sg19
S'PF'
p723
sg21
S'10.8'
p724
sg25
S'NBA'
p725
sg27
g3
sg28
S'.357'
p726
sg30
g3
sg31
S'4.5'
p727
sg33
g3
sg34
S'28'
p728
sg36
S'TOT'
p729
sg38
S'17'
p730
sg40
g3
sg41
S'5.7'
p731
sg43
S'3.5'
p732
sg45
S'.222'
p733
sg47
g3
sg48
S'1968-69'
p734
sg50
S'13.4'
p735
sg52
g3
sg53
S'8.0'
p736
sg55
S'4.8'
p737
sg57
S'113'
p738
sba(isrc.gp1.models.Per36Minutes
Per36Minutes
p739
(dp740
g8
g3
sg9
S'.368'
p741
sg11
S'5.9'
p742
sg13
g3
sg14
S'0.0'
p743
sg16
S'15.9'
p744
sg18
g3
sg19
S'PF'
p745
sg21
S'11.7'
p746
sg25
S'NBA'
p747
sg27
g3
sg28
S'.368'
p748
sg30
g3
sg31
S'5.0'
p749
sg33
g3
sg34
S'28'
p750
sg36
S'BOS'
p751
sg38
g135
sg40
g3
sg41
S'5.0'
p752
sg43
S'3.3'
p753
sg45
S'.000'
p754
sg47
g3
sg48
S'1968-69'
p755
sg50
S'15.9'
p756
sg52
g3
sg53
S'11.7'
p757
sg55
S'5.9'
p758
sg57
S'43'
p759
sba(isrc.gp1.models.Per36Minutes
Per36Minutes
p760
(dp761
g8
g3
sg9
S'.348'
p762
sg11
S'4.1'
p763
sg13
g3
sg14
S'2.1'
p764
sg16
S'11.8'
p765
sg18
g3
sg19
S'PF'
p766
sg21
S'10.3'
p767
sg25
S'NBA'
p768
sg27
g3
sg28
S'.348'
p769
sg30
g3
sg31
S'4.1'
p770
sg33
g3
sg34
S'28'
p771
sg36
S'DET'
p772
sg38
S'10'
p773
sg40
g3
sg41
S'6.2'
p774
sg43
S'3.6'
p775
sg45
S'.333'
p776
sg47
g3
sg48
S'1968-69'
p777
sg50
S'11.8'
p778
sg52
g3
sg53
S'5.7'
p779
sg55
S'4.1'
p780
sg57
S'70'
p781
sba(isrc.gp1.models.Per36Minutes
Per36Minutes
p782
(dp783
g8
S'6.1'
p784
sg9
S'.250'
p785
sg11
S'0.0'
p786
sg13
S'3.0'
p787
sg14
S'4.1'
p788
sg16
S'0.1'
p789
sg18
g3
sg19
S'PF'
p790
sg21
S'3.7'
p791
sg25
S'ABA'
p792
sg27
S'6.1'
p793
sg28
S'.479'
p794
sg30
g3
sg31
S'.356'
p795
sg33
S'6.5'
p796
sg34
S'29'
p797
sg36
S'KEN'
p798
sg38
S'84'
p799
sg40
S'9.0'
p800
sg41
S'8.5'
p801
sg43
S'1.9'
p802
sg45
S'.482'
p803
sg47
S'9.8'
p804
sg48
S'1969-70'
p805
sg50
S'8.6'
p806
sg52
g3
sg53
S'0.7'
p807
sg55
S'4.1'
p808
sg57
S'1375'
p809
sbasS'_fromYear'
p810
S'1963'
p811
sS'_url'
p812
S'http://www.basketball-reference.com/players/o/olsenbu01.html'
p813
sS'_perGame'
p814
(isrc.gp1.models.PerGame
PerGame
p815
(dp816
g8
S'2.8'
p817
sg9
S'.250'
p818
sg11
S'0.0'
p819
sS'_effectiveFieldGalPercentage'
p820
S'0.3'
p821
sg13
S'1.3'
p822
sg14
S'1.9'
p823
sg16
S'0.0'
p824
sg18
g3
sg19
S'PF'
p825
sg21
S'1.7'
p826
sg25
S'ABA'
p827
sg27
S'2.8'
p828
sg30
g3
sS'_fieldGoalsttempted'
p829
S'.479'
p830
sg31
S'.356'
p831
sg33
S'3.0'
p832
sg34
S'29'
p833
sg36
S'KEN'
p834
sg38
S'84'
p835
sg40
S'4.1'
p836
sg41
S'3.9'
p837
sg43
S'0.9'
p838
sg45
S'.482'
p839
sg47
S'4.5'
p840
sg48
S'1969-70'
p841
sg50
S'3.9'
p842
sg52
g3
sg53
S'.480'
p843
sg55
S'1.9'
p844
sg57
S'16.4'
p845
sbsS'_weight'
p846
S'220'
p847
sS'_dob'
p848
S'25-7-1940'
p849
sS'_salary'
p850
(lp851
sg19
S'F-C'
p852
sb.