(isrc.gp1.models.Player
Player
p0
(dp1
S'_experience'
p2
S'NA'
p3
sS'_totals'
p4
(lp5
(isrc.gp1.models.Totals
Totals
p6
(dp7
S'_offensiveRebounds'
p8
S'108'
p9
sS'_threePointsAttempted'
p10
S'36'
p11
sS'_fieldGoalsPercentage'
p12
S'.450'
p13
sS'_assist'
p14
S'131'
p15
sS'_threePointsPercentage'
p16
S'.222'
p17
sS'_threePoints'
p18
S'8'
p19
sS'_points'
p20
S'1413'
p21
sS'_position'
p22
S'SG'
p23
sS'_freeThrowsPercentage'
p24
S'.767'
p25
sS'_effectiveFieldGoalPercentage'
p26
S'.453'
p27
sS'_league'
p28
S'ABA'
p29
sS'_steals'
p30
S'103'
p31
sS'_fieldGoalsAttempted'
p32
S'1247'
p33
sS'_personalFouls'
p34
S'188'
p35
sS'_freeThrowsAttempted'
p36
S'369'
p37
sS'_totalRebounds'
p38
S'202'
p39
sS'_age'
p40
S'22'
p41
sS'_team'
p42
S'VIR'
p43
sS'_games'
p44
S'71'
p45
sS'_blocks'
p46
S'9'
p47
sS'_twoPoints'
p48
S'553'
p49
sS'_freeThrows'
p50
S'283'
p51
sS'_twoPointsAttempted'
p52
S'1211'
p53
sS'_defensiveRebounds'
p54
S'94'
p55
sS'_season'
p56
S'1975-76'
p57
sS'_fieldGoals'
p58
S'561'
p59
sS'_turnOvers'
p60
S'181'
p61
sS'_twoPointsPercentage'
p62
S'.457'
p63
sS'_minutesPlayed'
p64
S'2181'
p65
sS'_gamesStarted'
p66
g3
sba(isrc.gp1.models.Totals
Totals
p67
(dp68
g8
S'26'
p69
sg10
g3
sg12
S'.420'
p70
sg14
S'62'
p71
sg16
g3
sg18
g3
sg20
S'347'
p72
sg22
S'SG'
p73
sg24
S'.600'
p74
sg26
S'.420'
p75
sg28
S'NBA'
p76
sg30
S'47'
p77
sg32
S'352'
p78
sg34
S'88'
p79
sg36
S'85'
p80
sg38
S'66'
p81
sg40
S'23'
p82
sg42
S'NYK'
p83
sg44
S'61'
p84
sg46
S'1'
p85
sg48
S'148'
p86
sg50
S'51'
p87
sg52
S'352'
p88
sg54
S'40'
p89
sg56
S'1976-77'
p90
sg58
S'148'
p91
sg60
g3
sg62
S'.420'
p92
sg64
S'608'
p93
sg66
g3
sba(isrc.gp1.models.Totals
Totals
p94
(dp95
g8
S'0'
p96
sg10
g3
sg12
S'.500'
p97
sg14
g85
sg16
g3
sg18
g3
sg20
S'2'
p98
sg22
S'SG'
p99
sg24
g3
sg26
S'.500'
p100
sg28
S'NBA'
p101
sg30
g85
sg32
g98
sg34
g85
sg36
g96
sg38
g96
sg40
S'24'
p102
sg42
S'NYK'
p103
sg44
g98
sg46
g96
sg48
g85
sg50
g96
sg52
g98
sg54
g96
sg56
S'1977-78'
p104
sg58
g85
sg60
g96
sg62
S'.500'
p105
sg64
S'15'
p106
sg66
g3
sbasS'_college'
p107
S'University of Utah'
p108
sS'_toYear'
p109
S'1978'
p110
sS'_height'
p111
S'6-2'
p112
sS'_active'
p113
I00
sS'_shootingHand'
p114
VRight
p115
sS'_name'
p116
S'Ticky Burden'
p117
sS'_per100Possessions'
p118
(lp119
(isrc.gp1.models.Per100Possession
Per100Possession
p120
(dp121
g8
S'2.2'
p122
sg10
S'0.7'
p123
sg12
S'.450'
p124
sS'_offensiveRating'
p125
S'102'
p126
sg14
S'2.7'
p127
sg16
S'.222'
p128
sg18
S'0.2'
p129
sg20
S'29.1'
p130
sg22
S'SG'
p131
sS'_defensiveRating'
p132
S'111'
p133
sg24
S'.767'
p134
sg28
S'ABA'
p135
sg30
S'2.1'
p136
sg32
S'25.7'
p137
sg34
S'3.9'
p138
sg36
S'7.6'
p139
sg38
S'4.2'
p140
sg40
S'22'
p141
sg42
S'VIR'
p142
sg44
S'71'
p143
sg46
S'0.2'
p144
sg48
S'11.4'
p145
sg50
S'5.8'
p146
sg52
S'24.9'
p147
sg54
S'1.9'
p148
sg56
S'1975-76'
p149
sg58
S'11.5'
p150
sg60
S'3.7'
p151
sg62
S'.457'
p152
sg64
S'2181'
p153
sg66
g3
sba(isrc.gp1.models.Per100Possession
Per100Possession
p154
(dp155
g8
S'1.9'
p156
sg10
g3
sg12
S'.420'
p157
sg125
g3
sg14
S'4.5'
p158
sg16
g3
sg18
g3
sg20
S'25.3'
p159
sg22
S'SG'
p160
sg132
S'99'
p161
sg24
S'.600'
p162
sg28
S'NBA'
p163
sg30
S'3.4'
p164
sg32
S'25.7'
p165
sg34
S'6.4'
p166
sg36
S'6.2'
p167
sg38
S'4.8'
p168
sg40
S'23'
p169
sg42
S'NYK'
p170
sg44
S'61'
p171
sg46
S'0.1'
p172
sg48
S'10.8'
p173
sg50
S'3.7'
p174
sg52
S'25.7'
p175
sg54
S'2.9'
p176
sg56
S'1976-77'
p177
sg58
S'10.8'
p178
sg60
g3
sg62
S'.420'
p179
sg64
S'608'
p180
sg66
g3
sba(isrc.gp1.models.Per100Possession
Per100Possession
p181
(dp182
g8
S'0.0'
p183
sg10
g3
sg12
S'.500'
p184
sg125
S'121'
p185
sg14
S'2.9'
p186
sg16
g3
sg18
g3
sg20
S'5.8'
p187
sg22
S'SG'
p188
sg132
S'105'
p189
sg24
g3
sg28
S'NBA'
p190
sg30
S'2.9'
p191
sg32
S'5.8'
p192
sg34
S'2.9'
p193
sg36
S'0.0'
p194
sg38
S'0.0'
p195
sg40
S'24'
p196
sg42
S'NYK'
p197
sg44
g98
sg46
S'0.0'
p198
sg48
S'2.9'
p199
sg50
S'0.0'
p200
sg52
S'5.8'
p201
sg54
S'0.0'
p202
sg56
S'1977-78'
p203
sg58
S'2.9'
p204
sg60
S'0.0'
p205
sg62
S'.500'
p206
sg64
S'15'
p207
sg66
g3
sbasS'_advanced'
p208
(lp209
(isrc.gp1.models.Advanced
Advanced
p210
(dp211
S'_offensiveReboundPercentage'
p212
S'4.7'
p213
sS'_turnOverPercentage'
p214
S'11.4'
p215
sS'_winSharesPer48Minutes'
p216
S'.056'
p217
sS'_stealPercentage'
p218
S'2.1'
p219
sS'_usagePercentage'
p220
S'27.4'
p221
sS'_totalReboundsPercentage'
p222
S'4.6'
p223
sS'_defensiveBoxPlusMinus'
p224
S'-3.0'
p225
sg22
S'SG'
p226
sS'_valueOverReplacementPlayer'
p227
S'-0.3'
p228
sS'_trueShootingPercentage'
p229
S'.501'
p230
sS'_defensiveReboundPercentage'
p231
S'4.5'
p232
sS'_freeThrowsAttempRate'
p233
S'.296'
p234
sS'_threePointsAttempRate'
p235
S'.029'
p236
sg28
S'ABA'
p237
sS'_offensiveBoxPlusMinues'
p238
S'0.4'
p239
sS'_assistPercentage'
p240
S'10.1'
p241
sS'_defensiveWinShares'
p242
S'0.5'
p243
sg40
S'22'
p244
sg42
S'VIR'
p245
sg44
S'71'
p246
sS'_blockPercentage'
p247
S'0.2'
p248
sS'_playerEfficiencyRating'
p249
S'15.5'
p250
sS'_offensiveWinShares'
p251
S'2.1'
p252
sg64
S'2181'
p253
sS'_boxPlusMinus'
p254
S'-2.5'
p255
sg56
S'1975-76'
p256
sS'_winShares'
p257
S'2.6'
p258
sba(isrc.gp1.models.Advanced
Advanced
p259
(dp260
g212
S'4.6'
p261
sg214
g3
sg216
S'-0.004'
p262
sg218
S'3.4'
p263
sg220
g3
sg222
S'5.7'
p264
sg224
S'-1.9'
p265
sg22
S'SG'
p266
sg227
S'-0.2'
p267
sg229
S'.446'
p268
sg231
S'6.8'
p269
sg233
S'.241'
p270
sg235
g3
sg28
S'NBA'
p271
sg238
S'-1.5'
p272
sg240
S'14.9'
p273
sg242
S'0.7'
p274
sg40
S'23'
p275
sg42
S'NYK'
p276
sg44
S'61'
p277
sg247
S'0.1'
p278
sg249
S'14.6'
p279
sg251
S'-0.7'
p280
sg64
S'608'
p281
sg254
S'-3.4'
p282
sg56
S'1976-77'
p283
sg257
S'0.0'
p284
sba(isrc.gp1.models.Advanced
Advanced
p285
(dp286
g212
S'0.0'
p287
sg214
S'0.0'
p288
sg216
S'.067'
p289
sg218
S'2.9'
p290
sg220
S'5.0'
p291
sg222
S'0.0'
p292
sg224
S'-1.8'
p293
sg22
S'SG'
p294
sg227
S'0.0'
p295
sg229
S'.500'
p296
sg231
S'0.0'
p297
sg233
S'.000'
p298
sg235
g3
sg28
S'NBA'
p299
sg238
S'-3.0'
p300
sg240
S'7.5'
p301
sg242
S'0.0'
p302
sg40
S'24'
p303
sg42
S'NYK'
p304
sg44
g98
sg247
S'0.0'
p305
sg249
S'6.9'
p306
sg251
S'0.0'
p307
sg64
S'15'
p308
sg254
S'-4.8'
p309
sg56
S'1977-78'
p310
sg257
S'0.0'
p311
sbasS'_per36Minutes'
p312
(lp313
(isrc.gp1.models.Per36Minutes
Per36Minutes
p314
(dp315
g8
S'1.8'
p316
sg10
S'0.6'
p317
sg12
S'.450'
p318
sg14
S'2.2'
p319
sg16
S'.222'
p320
sg18
S'0.1'
p321
sg20
S'23.3'
p322
sg22
S'SG'
p323
sg24
S'.767'
p324
sg28
S'ABA'
p325
sg30
S'1.7'
p326
sg32
S'20.6'
p327
sg34
S'3.1'
p328
sg36
S'6.1'
p329
sg38
S'3.3'
p330
sg40
S'22'
p331
sg42
S'VIR'
p332
sg44
S'71'
p333
sg46
S'0.1'
p334
sg48
S'9.1'
p335
sg50
S'4.7'
p336
sg52
S'20.0'
p337
sg54
S'1.6'
p338
sg56
S'1975-76'
p339
sg58
S'9.3'
p340
sg60
S'3.0'
p341
sg62
S'.457'
p342
sg64
S'2181'
p343
sg66
g3
sba(isrc.gp1.models.Per36Minutes
Per36Minutes
p344
(dp345
g8
S'1.5'
p346
sg10
g3
sg12
S'.420'
p347
sg14
S'3.7'
p348
sg16
g3
sg18
g3
sg20
S'20.5'
p349
sg22
S'SG'
p350
sg24
S'.600'
p351
sg28
S'NBA'
p352
sg30
S'2.8'
p353
sg32
S'20.8'
p354
sg34
S'5.2'
p355
sg36
S'5.0'
p356
sg38
S'3.9'
p357
sg40
S'23'
p358
sg42
S'NYK'
p359
sg44
S'61'
p360
sg46
S'0.1'
p361
sg48
S'8.8'
p362
sg50
S'3.0'
p363
sg52
S'20.8'
p364
sg54
S'2.4'
p365
sg56
S'1976-77'
p366
sg58
S'8.8'
p367
sg60
g3
sg62
S'.420'
p368
sg64
S'608'
p369
sg66
g3
sba(isrc.gp1.models.Per36Minutes
Per36Minutes
p370
(dp371
g8
S'0.0'
p372
sg10
g3
sg12
S'.500'
p373
sg14
S'2.4'
p374
sg16
g3
sg18
g3
sg20
S'4.8'
p375
sg22
S'SG'
p376
sg24
g3
sg28
S'NBA'
p377
sg30
S'2.4'
p378
sg32
S'4.8'
p379
sg34
S'2.4'
p380
sg36
S'0.0'
p381
sg38
S'0.0'
p382
sg40
S'24'
p383
sg42
S'NYK'
p384
sg44
g98
sg46
S'0.0'
p385
sg48
S'2.4'
p386
sg50
S'0.0'
p387
sg52
S'4.8'
p388
sg54
S'0.0'
p389
sg56
S'1977-78'
p390
sg58
S'2.4'
p391
sg60
S'0.0'
p392
sg62
S'.500'
p393
sg64
S'15'
p394
sg66
g3
sbasS'_fromYear'
p395
S'1976'
p396
sS'_url'
p397
S'http://www.basketball-reference.com/players/b/burdeti01.html'
p398
sS'_perGame'
p399
(isrc.gp1.models.PerGame
PerGame
p400
(dp401
g8
S'0.0'
p402
sg10
g3
sg12
S'.500'
p403
sS'_effectiveFieldGalPercentage'
p404
S'.500'
p405
sg14
S'0.5'
p406
sg16
g3
sg18
g3
sg20
S'1.0'
p407
sg22
S'SG'
p408
sg24
g3
sg28
S'NBA'
p409
sg30
S'0.5'
p410
sg34
S'0.5'
p411
sS'_fieldGoalsttempted'
p412
S'1.0'
p413
sg36
S'0.0'
p414
sg38
S'0.0'
p415
sg40
S'24'
p416
sg42
S'NYK'
p417
sg44
g98
sg46
S'0.0'
p418
sg48
S'0.5'
p419
sg50
S'0.0'
p420
sg52
S'1.0'
p421
sg54
S'0.0'
p422
sg56
S'1977-78'
p423
sg58
S'0.5'
p424
sg60
S'0.0'
p425
sg62
S'.500'
p426
sg64
S'7.5'
p427
sg66
g3
sbsS'_weight'
p428
S'185'
p429
sS'_dob'
p430
S'28-2-1953'
p431
sS'_salary'
p432
(lp433
sg22
S'G'
p434
sb.