(isrc.gp1.models.Player
Player
p0
(dp1
S'_experience'
p2
S'NA'
p3
sS'_totals'
p4
(lp5
(isrc.gp1.models.Totals
Totals
p6
(dp7
S'_offensiveRebounds'
p8
S'1'
p9
sS'_threePointsAttempted'
p10
S'11'
p11
sS'_fieldGoalsPercentage'
p12
S'.467'
p13
sS'_assist'
p14
S'28'
p15
sS'_threePointsPercentage'
p16
S'.273'
p17
sS'_threePoints'
p18
S'3'
p19
sS'_points'
p20
S'73'
p21
sS'_position'
p22
S'PG'
p23
sS'_freeThrowsPercentage'
p24
S'.737'
p25
sS'_effectiveFieldGoalPercentage'
p26
S'.492'
p27
sS'_league'
p28
S'NBA'
p29
sS'_steals'
p30
S'13'
p31
sS'_fieldGoalsAttempted'
p32
S'60'
p33
sS'_personalFouls'
p34
S'25'
p35
sS'_freeThrowsAttempted'
p36
S'19'
p37
sS'_totalRebounds'
p38
S'12'
p39
sS'_age'
p40
S'24'
p41
sS'_team'
p42
S'MEM'
p43
sS'_games'
p44
S'24'
p45
sS'_blocks'
p46
g9
sS'_twoPoints'
p47
S'25'
p48
sS'_freeThrows'
p49
S'14'
p50
sS'_twoPointsAttempted'
p51
S'49'
p52
sS'_defensiveRebounds'
p53
S'11'
p54
sS'_season'
p55
S'2004-05'
p56
sS'_fieldGoals'
p57
S'28'
p58
sS'_turnOvers'
p59
S'12'
p60
sS'_twoPointsPercentage'
p61
S'.510'
p62
sS'_minutesPlayed'
p63
S'219'
p64
sS'_gamesStarted'
p65
S'0'
p66
sba(isrc.gp1.models.Totals
Totals
p67
(dp68
g8
S'4'
p69
sg10
S'6'
p70
sg12
S'.354'
p71
sg14
S'76'
p72
sg16
S'.167'
p73
sg18
g9
sg20
S'113'
p74
sg22
S'PG'
p75
sg24
S'.435'
p76
sg26
S'.358'
p77
sg28
S'NBA'
p78
sg30
S'20'
p79
sg32
S'144'
p80
sg34
S'45'
p81
sg36
S'23'
p82
sg38
S'37'
p83
sg40
S'25'
p84
sg42
S'MEM'
p85
sg44
S'57'
p86
sg46
g66
sg47
S'50'
p87
sg49
S'10'
p88
sg51
S'138'
p89
sg53
S'33'
p90
sg55
S'2005-06'
p91
sg57
S'51'
p92
sg59
S'36'
p93
sg61
S'.362'
p94
sg63
S'570'
p95
sg65
g9
sbasS'_college'
p96
S'University of Memphis'
p97
sS'_toYear'
p98
S'2006'
p99
sS'_height'
p100
S'6-1'
p101
sS'_active'
p102
I00
sS'_shootingHand'
p103
VRight
p104
sS'_name'
p105
S'Antonio Burks'
p106
sS'_per100Possessions'
p107
(lp108
(isrc.gp1.models.Per100Possession
Per100Possession
p109
(dp110
g8
S'0.2'
p111
sg10
S'2.7'
p112
sg12
S'.467'
p113
sS'_offensiveRating'
p114
S'106'
p115
sg14
S'6.9'
p116
sg16
S'.273'
p117
sg18
S'0.7'
p118
sg20
S'18.1'
p119
sg22
S'PG'
p120
sS'_defensiveRating'
p121
S'104'
p122
sg24
S'.737'
p123
sg28
S'NBA'
p124
sg30
S'3.2'
p125
sg32
S'14.9'
p126
sg34
S'6.2'
p127
sg36
S'4.7'
p128
sg38
S'3.0'
p129
sg40
S'24'
p130
sg42
S'MEM'
p131
sg44
S'24'
p132
sg46
S'0.2'
p133
sg47
S'6.2'
p134
sg49
S'3.5'
p135
sg51
S'12.1'
p136
sg53
S'2.7'
p137
sg55
S'2004-05'
p138
sg57
S'6.9'
p139
sg59
S'3.0'
p140
sg61
S'.510'
p141
sg63
S'219'
p142
sg65
g66
sba(isrc.gp1.models.Per100Possession
Per100Possession
p143
(dp144
g8
S'0.4'
p145
sg10
S'0.6'
p146
sg12
S'.354'
p147
sg114
S'80'
p148
sg14
S'7.4'
p149
sg16
S'.167'
p150
sg18
S'0.1'
p151
sg20
S'11.0'
p152
sg22
S'PG'
p153
sg121
S'105'
p154
sg24
S'.435'
p155
sg28
S'NBA'
p156
sg30
S'2.0'
p157
sg32
S'14.1'
p158
sg34
S'4.4'
p159
sg36
S'2.2'
p160
sg38
S'3.6'
p161
sg40
S'25'
p162
sg42
S'MEM'
p163
sg44
S'57'
p164
sg46
S'0.0'
p165
sg47
S'4.9'
p166
sg49
S'1.0'
p167
sg51
S'13.5'
p168
sg53
S'3.2'
p169
sg55
S'2005-06'
p170
sg57
S'5.0'
p171
sg59
S'3.5'
p172
sg61
S'.362'
p173
sg63
S'570'
p174
sg65
g9
sbasS'_advanced'
p175
(lp176
(isrc.gp1.models.Advanced
Advanced
p177
(dp178
S'_offensiveReboundPercentage'
p179
S'0.5'
p180
sS'_turnOverPercentage'
p181
S'14.9'
p182
sS'_winSharesPer48Minutes'
p183
S'.103'
p184
sS'_stealPercentage'
p185
S'3.2'
p186
sS'_usagePercentage'
p187
S'17.3'
p188
sS'_totalReboundsPercentage'
p189
S'3.3'
p190
sS'_defensiveBoxPlusMinus'
p191
S'-0.9'
p192
sg22
S'PG'
p193
sS'_valueOverReplacementPlayer'
p194
S'0.0'
p195
sS'_trueShootingPercentage'
p196
S'.534'
p197
sS'_defensiveReboundPercentage'
p198
S'6.0'
p199
sS'_freeThrowsAttempRate'
p200
S'.317'
p201
sS'_threePointsAttempRate'
p202
S'.183'
p203
sg28
S'NBA'
p204
sS'_offensiveBoxPlusMinues'
p205
S'-1.7'
p206
sS'_assistPercentage'
p207
S'21.9'
p208
sS'_defensiveWinShares'
p209
S'0.3'
p210
sg40
S'24'
p211
sg42
S'MEM'
p212
sg44
S'24'
p213
sS'_blockPercentage'
p214
S'0.4'
p215
sS'_playerEfficiencyRating'
p216
S'12.8'
p217
sS'_offensiveWinShares'
p218
S'0.2'
p219
sg63
S'219'
p220
sS'_boxPlusMinus'
p221
S'-2.5'
p222
sg55
S'2004-05'
p223
sS'_winShares'
p224
S'0.5'
p225
sba(isrc.gp1.models.Advanced
Advanced
p226
(dp227
g179
S'0.9'
p228
sg181
S'18.9'
p229
sg183
S'-0.033'
p230
sg185
S'2.0'
p231
sg187
S'16.2'
p232
sg189
S'3.9'
p233
sg191
S'-1.3'
p234
sg22
S'PG'
p235
sg194
S'-0.9'
p236
sg196
S'.367'
p237
sg198
S'7.0'
p238
sg200
S'.160'
p239
sg202
S'.042'
p240
sg28
S'NBA'
p241
sg205
S'-6.9'
p242
sg207
S'22.1'
p243
sg209
S'0.7'
p244
sg40
S'25'
p245
sg42
S'MEM'
p246
sg44
S'57'
p247
sg214
S'0.0'
p248
sg216
S'5.1'
p249
sg218
S'-1.1'
p250
sg63
S'570'
p251
sg221
S'-8.2'
p252
sg55
S'2005-06'
p253
sg224
S'-0.4'
p254
sbasS'_per36Minutes'
p255
(lp256
(isrc.gp1.models.Per36Minutes
Per36Minutes
p257
(dp258
g8
S'0.2'
p259
sg10
S'1.8'
p260
sg12
S'.467'
p261
sg14
S'4.6'
p262
sg16
S'.273'
p263
sg18
S'0.5'
p264
sg20
S'12.0'
p265
sg22
S'PG'
p266
sg24
S'.737'
p267
sg28
S'NBA'
p268
sg30
S'2.1'
p269
sg32
S'9.9'
p270
sg34
S'4.1'
p271
sg36
S'3.1'
p272
sg38
S'2.0'
p273
sg40
S'24'
p274
sg42
S'MEM'
p275
sg44
S'24'
p276
sg46
S'0.2'
p277
sg47
S'4.1'
p278
sg49
S'2.3'
p279
sg51
S'8.1'
p280
sg53
S'1.8'
p281
sg55
S'2004-05'
p282
sg57
S'4.6'
p283
sg59
S'2.0'
p284
sg61
S'.510'
p285
sg63
S'219'
p286
sg65
g66
sba(isrc.gp1.models.Per36Minutes
Per36Minutes
p287
(dp288
g8
S'0.3'
p289
sg10
S'0.4'
p290
sg12
S'.354'
p291
sg14
S'4.8'
p292
sg16
S'.167'
p293
sg18
S'0.1'
p294
sg20
S'7.1'
p295
sg22
S'PG'
p296
sg24
S'.435'
p297
sg28
S'NBA'
p298
sg30
S'1.3'
p299
sg32
S'9.1'
p300
sg34
S'2.8'
p301
sg36
S'1.5'
p302
sg38
S'2.3'
p303
sg40
S'25'
p304
sg42
S'MEM'
p305
sg44
S'57'
p306
sg46
S'0.0'
p307
sg47
S'3.2'
p308
sg49
S'0.6'
p309
sg51
S'8.7'
p310
sg53
S'2.1'
p311
sg55
S'2005-06'
p312
sg57
S'3.2'
p313
sg59
S'2.3'
p314
sg61
S'.362'
p315
sg63
S'570'
p316
sg65
g9
sbasS'_fromYear'
p317
S'2005'
p318
sS'_url'
p319
S'http://www.basketball-reference.com/players/b/burksan01.html'
p320
sS'_perGame'
p321
(isrc.gp1.models.PerGame
PerGame
p322
(dp323
g8
S'0.1'
p324
sg10
S'0.1'
p325
sg12
S'.354'
p326
sS'_effectiveFieldGalPercentage'
p327
S'.358'
p328
sg14
S'1.3'
p329
sg16
S'.167'
p330
sg18
S'0.0'
p331
sg20
S'2.0'
p332
sg22
S'PG'
p333
sg24
S'.435'
p334
sg28
S'NBA'
p335
sg30
S'0.4'
p336
sg34
S'0.8'
p337
sS'_fieldGoalsttempted'
p338
S'2.5'
p339
sg36
S'0.4'
p340
sg38
S'0.6'
p341
sg40
S'25'
p342
sg42
S'MEM'
p343
sg44
S'57'
p344
sg46
S'0.0'
p345
sg47
S'0.9'
p346
sg49
S'0.2'
p347
sg51
S'2.4'
p348
sg53
S'0.6'
p349
sg55
S'2005-06'
p350
sg57
S'0.9'
p351
sg59
S'0.6'
p352
sg61
S'.362'
p353
sg63
S'10.0'
p354
sg65
g9
sbsS'_weight'
p355
S'200'
p356
sS'_dob'
p357
S'25-2-1980'
p358
sS'_salary'
p359
(lp360
(isrc.gp1.models.Salary
Salary
p361
(dp362
g42
S'Memphis Grizzlies'
p363
sg28
S'NBA'
p364
sg359
S'$385,277'
p365
sg55
S'2004-05'
p366
sba(isrc.gp1.models.Salary
Salary
p367
(dp368
g42
S'Memphis Grizzlies'
p369
sg28
S'NBA'
p370
sg359
S'$641,748'
p371
sg55
S'2005-06'
p372
sbasg22
S'G'
p373
sb.