(isrc.gp1.models.Player
Player
p0
(dp1
S'_experience'
p2
V4
p3
sS'_totals'
p4
(lp5
(isrc.gp1.models.Totals
Totals
p6
(dp7
S'_offensiveRebounds'
p8
S'57'
p9
sS'_threePointsAttempted'
p10
S'45'
p11
sS'_fieldGoalsPercentage'
p12
S'.429'
p13
sS'_assist'
p14
S'55'
p15
sS'_threePointsPercentage'
p16
S'.333'
p17
sS'_threePoints'
p18
S'15'
p19
sS'_points'
p20
S'425'
p21
sS'_position'
p22
S'SG'
p23
sS'_freeThrowsPercentage'
p24
S'.727'
p25
sS'_effectiveFieldGoalPercentage'
p26
S'.450'
p27
sS'_league'
p28
S'NBA'
p29
sS'_steals'
p30
S'27'
p31
sS'_fieldGoalsAttempted'
p32
S'357'
p33
sS'_personalFouls'
p34
S'84'
p35
sS'_freeThrowsAttempted'
p36
S'143'
p37
sS'_totalRebounds'
p38
S'132'
p39
sS'_age'
p40
S'20'
p41
sS'_team'
p42
S'UTA'
p43
sS'_games'
p44
S'59'
p45
sS'_blocks'
p46
S'5'
p47
sS'_twoPoints'
p48
S'138'
p49
sS'_freeThrows'
p50
S'104'
p51
sS'_twoPointsAttempted'
p52
S'312'
p53
sS'_defensiveRebounds'
p54
S'75'
p55
sS'_season'
p56
S'2011-12'
p57
sS'_fieldGoals'
p58
S'153'
p59
sS'_turnOvers'
p60
S'51'
p61
sS'_twoPointsPercentage'
p62
S'.442'
p63
sS'_minutesPlayed'
p64
S'939'
p65
sS'_gamesStarted'
p66
S'0'
p67
sba(isrc.gp1.models.Totals
Totals
p68
(dp69
g8
S'37'
p70
sg10
S'92'
p71
sg12
S'.420'
p72
sg14
S'92'
p73
sg16
S'.359'
p74
sg18
S'33'
p75
sg20
S'451'
p76
sg22
S'SG'
p77
sg24
S'.713'
p78
sg26
S'.463'
p79
sg28
S'NBA'
p80
sg30
S'35'
p81
sg32
S'388'
p82
sg34
S'114'
p83
sg36
S'129'
p84
sg38
S'145'
p85
sg40
S'21'
p86
sg42
S'UTA'
p87
sg44
S'64'
p88
sg46
S'13'
p89
sg48
S'130'
p90
sg50
S'92'
p91
sg52
S'296'
p92
sg54
S'108'
p93
sg56
S'2012-13'
p94
sg58
S'163'
p95
sg60
S'74'
p96
sg62
S'.439'
p97
sg64
S'1137'
p98
sg66
g67
sba(isrc.gp1.models.Totals
Totals
p99
(dp100
g8
S'59'
p101
sg10
S'143'
p102
sg12
S'.457'
p103
sg14
S'212'
p104
sg16
S'.350'
p105
sg18
S'50'
p106
sg20
S'1089'
p107
sg22
S'SG'
p108
sg24
S'.748'
p109
sg26
S'.487'
p110
sg28
S'NBA'
p111
sg30
S'69'
p112
sg32
S'831'
p113
sg34
S'190'
p114
sg36
S'373'
p115
sg38
S'257'
p116
sg40
S'22'
p117
sg42
S'UTA'
p118
sg44
S'78'
p119
sg46
S'14'
p120
sg48
S'330'
p121
sg50
S'279'
p122
sg52
S'688'
p123
sg54
S'198'
p124
sg56
S'2013-14'
p125
sg58
S'380'
p126
sg60
S'149'
p127
sg62
S'.480'
p128
sg64
S'2193'
p129
sg66
S'12'
p130
sba(isrc.gp1.models.Totals
Totals
p131
(dp132
g8
S'19'
p133
sg10
S'68'
p134
sg12
S'.403'
p135
sg14
S'82'
p136
sg16
S'.382'
p137
sg18
S'26'
p138
sg20
S'374'
p139
sg22
S'SG'
p140
sg24
S'.822'
p141
sg26
S'.447'
p142
sg28
S'NBA'
p143
sg30
S'17'
p144
sg32
S'300'
p145
sg34
S'64'
p146
sg36
S'129'
p147
sg38
S'114'
p148
sg40
S'23'
p149
sg42
S'UTA'
p150
sg44
S'27'
p151
sg46
g47
sg48
S'95'
p152
sg50
S'106'
p153
sg52
S'232'
p154
sg54
S'95'
p155
sg56
S'2014-15'
p156
sg58
S'121'
p157
sg60
S'52'
p158
sg62
S'.409'
p159
sg64
S'899'
p160
sg66
S'27'
p161
sba(isrc.gp1.models.Totals
Totals
p162
(dp163
g8
S'16'
p164
sg10
S'75'
p165
sg12
S'.409'
p166
sg14
S'59'
p167
sg16
S'.387'
p168
sg18
S'29'
p169
sg20
S'401'
p170
sg22
S'SG'
p171
sg24
S'.752'
p172
sg26
S'.454'
p173
sg28
S'NBA'
p174
sg30
S'16'
p175
sg32
S'325'
p176
sg34
S'69'
p177
sg36
S'141'
p178
sg38
S'100'
p179
sg40
S'24'
p180
sg42
S'UTA'
p181
sg44
S'28'
p182
sg46
S'4'
p183
sg48
S'104'
p184
sg50
S'106'
p185
sg52
S'250'
p186
sg54
S'84'
p187
sg56
S'2015-16'
p188
sg58
S'133'
p189
sg60
S'49'
p190
sg62
S'.416'
p191
sg64
S'760'
p192
sg66
S'3'
p193
sbasS'_college'
p194
S'University of Colorado'
p195
sS'_toYear'
p196
S'2016'
p197
sS'_height'
p198
S'6-6'
p199
sS'_active'
p200
I01
sS'_shootingHand'
p201
VRight
p202
sS'_name'
p203
S'Alec Burks'
p204
sS'_per100Possessions'
p205
(lp206
(isrc.gp1.models.Per100Possession
Per100Possession
p207
(dp208
g8
S'3.2'
p209
sg10
S'2.5'
p210
sg12
S'.429'
p211
sS'_offensiveRating'
p212
S'105'
p213
sg14
S'3.1'
p214
sg16
S'.333'
p215
sg18
S'0.8'
p216
sg20
S'23.8'
p217
sg22
S'SG'
p218
sS'_defensiveRating'
p219
S'109'
p220
sg24
S'.727'
p221
sg28
S'NBA'
p222
sg30
S'1.5'
p223
sg32
S'20.0'
p224
sg34
S'4.7'
p225
sg36
S'8.0'
p226
sg38
S'7.4'
p227
sg40
S'20'
p228
sg42
S'UTA'
p229
sg44
S'59'
p230
sg46
S'0.3'
p231
sg48
S'7.7'
p232
sg50
S'5.8'
p233
sg52
S'17.4'
p234
sg54
S'4.2'
p235
sg56
S'2011-12'
p236
sg58
S'8.6'
p237
sg60
S'2.9'
p238
sg62
S'.442'
p239
sg64
S'939'
p240
sg66
g67
sba(isrc.gp1.models.Per100Possession
Per100Possession
p241
(dp242
g8
S'1.7'
p243
sg10
S'4.3'
p244
sg12
S'.420'
p245
sg212
S'100'
p246
sg14
S'4.3'
p247
sg16
S'.359'
p248
sg18
S'1.5'
p249
sg20
S'20.9'
p250
sg22
S'SG'
p251
sg219
S'109'
p252
sg24
S'.713'
p253
sg28
S'NBA'
p254
sg30
S'1.6'
p255
sg32
S'18.0'
p256
sg34
S'5.3'
p257
sg36
S'6.0'
p258
sg38
S'6.7'
p259
sg40
S'21'
p260
sg42
S'UTA'
p261
sg44
S'64'
p262
sg46
S'0.6'
p263
sg48
S'6.0'
p264
sg50
S'4.3'
p265
sg52
S'13.7'
p266
sg54
S'5.0'
p267
sg56
S'2012-13'
p268
sg58
S'7.6'
p269
sg60
S'3.4'
p270
sg62
S'.439'
p271
sg64
S'1137'
p272
sg66
g67
sba(isrc.gp1.models.Per100Possession
Per100Possession
p273
(dp274
g8
S'1.4'
p275
sg10
S'3.4'
p276
sg12
S'.457'
p277
sg212
S'106'
p278
sg14
S'5.1'
p279
sg16
S'.350'
p280
sg18
S'1.2'
p281
sg20
S'26.1'
p282
sg22
S'SG'
p283
sg219
S'113'
p284
sg24
S'.748'
p285
sg28
S'NBA'
p286
sg30
S'1.7'
p287
sg32
S'19.9'
p288
sg34
S'4.6'
p289
sg36
S'8.9'
p290
sg38
S'6.2'
p291
sg40
S'22'
p292
sg42
S'UTA'
p293
sg44
S'78'
p294
sg46
S'0.3'
p295
sg48
S'7.9'
p296
sg50
S'6.7'
p297
sg52
S'16.5'
p298
sg54
S'4.7'
p299
sg56
S'2013-14'
p300
sg58
S'9.1'
p301
sg60
S'3.6'
p302
sg62
S'.480'
p303
sg64
S'2193'
p304
sg66
S'12'
p305
sba(isrc.gp1.models.Per100Possession
Per100Possession
p306
(dp307
g8
S'1.1'
p308
sg10
S'4.0'
p309
sg12
S'.403'
p310
sg212
S'107'
p311
sg14
S'4.8'
p312
sg16
S'.382'
p313
sg18
S'1.5'
p314
sg20
S'22.1'
p315
sg22
S'SG'
p316
sg219
S'109'
p317
sg24
S'.822'
p318
sg28
S'NBA'
p319
sg30
S'1.0'
p320
sg32
S'17.7'
p321
sg34
S'3.8'
p322
sg36
S'7.6'
p323
sg38
S'6.7'
p324
sg40
S'23'
p325
sg42
S'UTA'
p326
sg44
S'27'
p327
sg46
S'0.3'
p328
sg48
S'5.6'
p329
sg50
S'6.3'
p330
sg52
S'13.7'
p331
sg54
S'5.6'
p332
sg56
S'2014-15'
p333
sg58
S'7.1'
p334
sg60
S'3.1'
p335
sg62
S'.409'
p336
sg64
S'899'
p337
sg66
S'27'
p338
sba(isrc.gp1.models.Per100Possession
Per100Possession
p339
(dp340
g8
S'1.1'
p341
sg10
S'5.2'
p342
sg12
S'.409'
p343
sg212
S'104'
p344
sg14
S'4.1'
p345
sg16
S'.387'
p346
sg18
S'2.0'
p347
sg20
S'27.9'
p348
sg22
S'SG'
p349
sg219
S'108'
p350
sg24
S'.752'
p351
sg28
S'NBA'
p352
sg30
S'1.1'
p353
sg32
S'22.6'
p354
sg34
S'4.8'
p355
sg36
S'9.8'
p356
sg38
S'7.0'
p357
sg40
S'24'
p358
sg42
S'UTA'
p359
sg44
S'28'
p360
sg46
S'0.3'
p361
sg48
S'7.2'
p362
sg50
S'7.4'
p363
sg52
S'17.4'
p364
sg54
S'5.9'
p365
sg56
S'2015-16'
p366
sg58
S'9.3'
p367
sg60
S'3.4'
p368
sg62
S'.416'
p369
sg64
S'760'
p370
sg66
g193
sbasS'_advanced'
p371
(lp372
(isrc.gp1.models.Advanced
Advanced
p373
(dp374
S'_offensiveReboundPercentage'
p375
S'6.9'
p376
sS'_turnOverPercentage'
p377
S'10.8'
p378
sS'_winSharesPer48Minutes'
p379
S'.076'
p380
sS'_stealPercentage'
p381
S'1.5'
p382
sS'_usagePercentage'
p383
S'22.5'
p384
sS'_totalReboundsPercentage'
p385
S'8.1'
p386
sS'_defensiveBoxPlusMinus'
p387
S'-2.2'
p388
sg22
S'SG'
p389
sS'_valueOverReplacementPlayer'
p390
S'-0.1'
p391
sS'_trueShootingPercentage'
p392
S'.506'
p393
sS'_defensiveReboundPercentage'
p394
S'9.3'
p395
sS'_freeThrowsAttempRate'
p396
S'.401'
p397
sS'_threePointsAttempRate'
p398
S'.126'
p399
sg28
S'NBA'
p400
sS'_offensiveBoxPlusMinues'
p401
S'-0.2'
p402
sS'_assistPercentage'
p403
S'9.5'
p404
sS'_defensiveWinShares'
p405
S'0.4'
p406
sg40
S'20'
p407
sg42
S'UTA'
p408
sg44
S'59'
p409
sS'_blockPercentage'
p410
S'0.4'
p411
sS'_playerEfficiencyRating'
p412
S'14.0'
p413
sS'_offensiveWinShares'
p414
S'1.1'
p415
sg64
S'939'
p416
sS'_boxPlusMinus'
p417
S'-2.5'
p418
sg56
S'2011-12'
p419
sS'_winShares'
p420
S'1.5'
p421
sba(isrc.gp1.models.Advanced
Advanced
p422
(dp423
g375
S'3.8'
p424
sg377
S'14.3'
p425
sg379
S'.044'
p426
sg381
S'1.6'
p427
sg383
S'20.7'
p428
sg385
S'7.5'
p429
sg387
S'-1.3'
p430
sg22
S'SG'
p431
sg390
S'-0.2'
p432
sg392
S'.507'
p433
sg394
S'11.2'
p434
sg396
S'.332'
p435
sg398
S'.237'
p436
sg28
S'NBA'
p437
sg401
S'-1.4'
p438
sg403
S'13.0'
p439
sg405
S'0.7'
p440
sg40
S'21'
p441
sg42
S'UTA'
p442
sg44
S'64'
p443
sg410
S'0.9'
p444
sg412
S'11.5'
p445
sg414
S'0.3'
p446
sg64
S'1137'
p447
sg417
S'-2.7'
p448
sg56
S'2012-13'
p449
sg420
S'1.0'
p450
sba(isrc.gp1.models.Advanced
Advanced
p451
(dp452
g375
S'3.0'
p453
sg377
S'13.0'
p454
sg379
S'.070'
p455
sg381
S'1.7'
p456
sg383
S'23.9'
p457
sg385
S'6.8'
p458
sg387
S'-1.7'
p459
sg22
S'SG'
p460
sg390
S'0.5'
p461
sg392
S'.547'
p462
sg394
S'10.7'
p463
sg396
S'.449'
p464
sg398
S'.172'
p465
sg28
S'NBA'
p466
sg401
S'0.5'
p467
sg403
S'16.9'
p468
sg405
S'0.6'
p469
sg40
S'22'
p470
sg42
S'UTA'
p471
sg44
S'78'
p472
sg410
S'0.5'
p473
sg412
S'15.8'
p474
sg414
S'2.6'
p475
sg64
S'2193'
p476
sg417
S'-1.2'
p477
sg56
S'2013-14'
p478
sg420
S'3.2'
p479
sba(isrc.gp1.models.Advanced
Advanced
p480
(dp481
g375
S'2.5'
p482
sg377
S'12.7'
p483
sg379
S'.089'
p484
sg381
S'1.0'
p485
sg383
S'20.8'
p486
sg385
S'7.3'
p487
sg387
S'-1.1'
p488
sg22
S'SG'
p489
sg390
S'0.1'
p490
sg392
S'.524'
p491
sg394
S'12.1'
p492
sg396
S'.430'
p493
sg398
S'.227'
p494
sg28
S'NBA'
p495
sg401
S'-0.4'
p496
sg403
S'15.2'
p497
sg405
S'0.6'
p498
sg40
S'23'
p499
sg42
S'UTA'
p500
sg44
S'27'
p501
sg410
S'0.4'
p502
sg412
S'13.0'
p503
sg414
S'1.1'
p504
sg64
S'899'
p505
sg417
S'-1.6'
p506
sg56
S'2014-15'
p507
sg420
S'1.7'
p508
sba(isrc.gp1.models.Advanced
Advanced
p509
(dp510
g375
S'2.5'
p511
sg377
S'11.2'
p512
sg379
S'.086'
p513
sg381
S'1.1'
p514
sg383
S'26.5'
p515
sg385
S'7.7'
p516
sg387
S'-2.1'
p517
sg22
S'SG'
p518
sg390
S'-0.1'
p519
sg392
S'.518'
p520
sg394
S'13.0'
p521
sg396
S'.434'
p522
sg398
S'.231'
p523
sg28
S'NBA'
p524
sg401
S'-0.4'
p525
sg403
S'13.9'
p526
sg405
S'0.6'
p527
sg40
S'24'
p528
sg42
S'UTA'
p529
sg44
S'28'
p530
sg410
S'0.4'
p531
sg412
S'14.7'
p532
sg414
S'0.8'
p533
sg64
S'760'
p534
sg417
S'-2.6'
p535
sg56
S'2015-16'
p536
sg420
S'1.4'
p537
sbasS'_per36Minutes'
p538
(lp539
(isrc.gp1.models.Per36Minutes
Per36Minutes
p540
(dp541
g8
S'2.2'
p542
sg10
S'1.7'
p543
sg12
S'.429'
p544
sg14
S'2.1'
p545
sg16
S'.333'
p546
sg18
S'0.6'
p547
sg20
S'16.3'
p548
sg22
S'SG'
p549
sg24
S'.727'
p550
sg28
S'NBA'
p551
sg30
S'1.0'
p552
sg32
S'13.7'
p553
sg34
S'3.2'
p554
sg36
S'5.5'
p555
sg38
S'5.1'
p556
sg40
S'20'
p557
sg42
S'UTA'
p558
sg44
S'59'
p559
sg46
S'0.2'
p560
sg48
S'5.3'
p561
sg50
S'4.0'
p562
sg52
S'12.0'
p563
sg54
S'2.9'
p564
sg56
S'2011-12'
p565
sg58
S'5.9'
p566
sg60
S'2.0'
p567
sg62
S'.442'
p568
sg64
S'939'
p569
sg66
g67
sba(isrc.gp1.models.Per36Minutes
Per36Minutes
p570
(dp571
g8
S'1.2'
p572
sg10
S'2.9'
p573
sg12
S'.420'
p574
sg14
S'2.9'
p575
sg16
S'.359'
p576
sg18
S'1.0'
p577
sg20
S'14.3'
p578
sg22
S'SG'
p579
sg24
S'.713'
p580
sg28
S'NBA'
p581
sg30
S'1.1'
p582
sg32
S'12.3'
p583
sg34
S'3.6'
p584
sg36
S'4.1'
p585
sg38
S'4.6'
p586
sg40
S'21'
p587
sg42
S'UTA'
p588
sg44
S'64'
p589
sg46
S'0.4'
p590
sg48
S'4.1'
p591
sg50
S'2.9'
p592
sg52
S'9.4'
p593
sg54
S'3.4'
p594
sg56
S'2012-13'
p595
sg58
S'5.2'
p596
sg60
S'2.3'
p597
sg62
S'.439'
p598
sg64
S'1137'
p599
sg66
g67
sba(isrc.gp1.models.Per36Minutes
Per36Minutes
p600
(dp601
g8
S'1.0'
p602
sg10
S'2.3'
p603
sg12
S'.457'
p604
sg14
S'3.5'
p605
sg16
S'.350'
p606
sg18
S'0.8'
p607
sg20
S'17.9'
p608
sg22
S'SG'
p609
sg24
S'.748'
p610
sg28
S'NBA'
p611
sg30
S'1.1'
p612
sg32
S'13.6'
p613
sg34
S'3.1'
p614
sg36
S'6.1'
p615
sg38
S'4.2'
p616
sg40
S'22'
p617
sg42
S'UTA'
p618
sg44
S'78'
p619
sg46
S'0.2'
p620
sg48
S'5.4'
p621
sg50
S'4.6'
p622
sg52
S'11.3'
p623
sg54
S'3.3'
p624
sg56
S'2013-14'
p625
sg58
S'6.2'
p626
sg60
S'2.4'
p627
sg62
S'.480'
p628
sg64
S'2193'
p629
sg66
S'12'
p630
sba(isrc.gp1.models.Per36Minutes
Per36Minutes
p631
(dp632
g8
S'0.8'
p633
sg10
S'2.7'
p634
sg12
S'.403'
p635
sg14
S'3.3'
p636
sg16
S'.382'
p637
sg18
S'1.0'
p638
sg20
S'15.0'
p639
sg22
S'SG'
p640
sg24
S'.822'
p641
sg28
S'NBA'
p642
sg30
S'0.7'
p643
sg32
S'12.0'
p644
sg34
S'2.6'
p645
sg36
S'5.2'
p646
sg38
S'4.6'
p647
sg40
S'23'
p648
sg42
S'UTA'
p649
sg44
S'27'
p650
sg46
S'0.2'
p651
sg48
S'3.8'
p652
sg50
S'4.2'
p653
sg52
S'9.3'
p654
sg54
S'3.8'
p655
sg56
S'2014-15'
p656
sg58
S'4.8'
p657
sg60
S'2.1'
p658
sg62
S'.409'
p659
sg64
S'899'
p660
sg66
S'27'
p661
sba(isrc.gp1.models.Per36Minutes
Per36Minutes
p662
(dp663
g8
S'0.8'
p664
sg10
S'3.6'
p665
sg12
S'.409'
p666
sg14
S'2.8'
p667
sg16
S'.387'
p668
sg18
S'1.4'
p669
sg20
S'19.0'
p670
sg22
S'SG'
p671
sg24
S'.752'
p672
sg28
S'NBA'
p673
sg30
S'0.8'
p674
sg32
S'15.4'
p675
sg34
S'3.3'
p676
sg36
S'6.7'
p677
sg38
S'4.7'
p678
sg40
S'24'
p679
sg42
S'UTA'
p680
sg44
S'28'
p681
sg46
S'0.2'
p682
sg48
S'4.9'
p683
sg50
S'5.0'
p684
sg52
S'11.8'
p685
sg54
S'4.0'
p686
sg56
S'2015-16'
p687
sg58
S'6.3'
p688
sg60
S'2.3'
p689
sg62
S'.416'
p690
sg64
S'760'
p691
sg66
g193
sbasS'_fromYear'
p692
S'2012'
p693
sS'_url'
p694
S'http://www.basketball-reference.com/players/b/burksal01.html'
p695
sS'_perGame'
p696
(isrc.gp1.models.PerGame
PerGame
p697
(dp698
g8
S'0.6'
p699
sg10
S'2.7'
p700
sg12
S'.409'
p701
sS'_effectiveFieldGalPercentage'
p702
S'.454'
p703
sg14
S'2.1'
p704
sg16
S'.387'
p705
sg18
S'1.0'
p706
sg20
S'14.3'
p707
sg22
S'SG'
p708
sg24
S'.752'
p709
sg28
S'NBA'
p710
sg30
S'0.6'
p711
sg34
S'2.5'
p712
sS'_fieldGoalsttempted'
p713
S'11.6'
p714
sg36
S'5.0'
p715
sg38
S'3.6'
p716
sg40
S'24'
p717
sg42
S'UTA'
p718
sg44
S'28'
p719
sg46
S'0.1'
p720
sg48
S'3.7'
p721
sg50
S'3.8'
p722
sg52
S'8.9'
p723
sg54
S'3.0'
p724
sg56
S'2015-16'
p725
sg58
S'4.8'
p726
sg60
S'1.8'
p727
sg62
S'.416'
p728
sg64
S'27.1'
p729
sg66
g193
sbsS'_weight'
p730
S'214'
p731
sS'_dob'
p732
S'20-7-1991'
p733
sS'_salary'
p734
(lp735
(isrc.gp1.models.Salary
Salary
p736
(dp737
g42
S'Utah Jazz'
p738
sg28
S'NBA'
p739
sg734
S'$2,020,200'
p740
sg56
S'2011-12'
p741
sba(isrc.gp1.models.Salary
Salary
p742
(dp743
g42
S'Utah Jazz'
p744
sg28
S'NBA'
p745
sg734
S'$2,171,640'
p746
sg56
S'2012-13'
p747
sba(isrc.gp1.models.Salary
Salary
p748
(dp749
g42
S'Utah Jazz'
p750
sg28
S'NBA'
p751
sg734
S'$2,202,000'
p752
sg56
S'2013-14'
p753
sba(isrc.gp1.models.Salary
Salary
p754
(dp755
g42
S'Utah Jazz'
p756
sg28
S'NBA'
p757
sg734
S'$3,034,356'
p758
sg56
S'2014-15'
p759
sbasg22
S'G'
p760
sb.