(isrc.gp1.models.Player
Player
p0
(dp1
S'_experience'
p2
S'NA'
p3
sS'_totals'
p4
(lp5
(isrc.gp1.models.Totals
Totals
p6
(dp7
S'_offensiveRebounds'
p8
g3
sS'_threePointsAttempted'
p9
g3
sS'_fieldGoalsPercentage'
p10
S'.248'
p11
sS'_assist'
p12
S'27'
p13
sS'_threePointsPercentage'
p14
g3
sS'_threePoints'
p15
g3
sS'_points'
p16
S'77'
p17
sS'_position'
p18
S'SF'
p19
sS'_freeThrowsPercentage'
p20
S'.583'
p21
sS'_effectiveFieldGoalPercentage'
p22
S'.248'
p23
sS'_league'
p24
S'NBA'
p25
sS'_steals'
p26
g3
sS'_fieldGoalsAttempted'
p27
S'113'
p28
sS'_personalFouls'
p29
S'51'
p30
sS'_freeThrowsAttempted'
p31
S'36'
p32
sS'_totalRebounds'
p33
S'106'
p34
sS'_age'
p35
S'26'
p36
sS'_team'
p37
S'FTW'
p38
sS'_games'
p39
S'33'
p40
sS'_blocks'
p41
g3
sS'_twoPoints'
p42
S'28'
p43
sS'_freeThrows'
p44
S'21'
p45
sS'_twoPointsAttempted'
p46
S'113'
p47
sS'_defensiveRebounds'
p48
g3
sS'_season'
p49
S'1950-51'
p50
sS'_fieldGoals'
p51
S'28'
p52
sS'_turnOvers'
p53
g3
sS'_twoPointsPercentage'
p54
S'.248'
p55
sS'_minutesPlayed'
p56
g3
sS'_gamesStarted'
p57
g3
sba(isrc.gp1.models.Totals
Totals
p58
(dp59
g8
g3
sg9
g3
sg10
S'.269'
p60
sg12
S'27'
p61
sg14
g3
sg15
g3
sg16
S'110'
p62
sg18
S'SF'
p63
sg20
S'.667'
p64
sg22
S'.269'
p65
sg24
S'NBA'
p66
sg26
g3
sg27
S'156'
p67
sg29
S'69'
p68
sg31
S'39'
p69
sg33
S'99'
p70
sg35
S'27'
p71
sg37
S'TOT'
p72
sg39
S'41'
p73
sg41
g3
sg42
S'42'
p74
sg44
S'26'
p75
sg46
S'156'
p76
sg48
g3
sg49
S'1951-52'
p77
sg51
S'42'
p78
sg53
g3
sg54
S'.269'
p79
sg56
S'514'
p80
sg57
g3
sba(isrc.gp1.models.Totals
Totals
p81
(dp82
g8
g3
sg9
g3
sg10
S'.240'
p83
sg12
S'11'
p84
sg14
g3
sg15
g3
sg16
S'43'
p85
sg18
S'SF'
p86
sg20
S'.583'
p87
sg22
S'.240'
p88
sg24
S'NBA'
p89
sg26
g3
sg27
S'75'
p90
sg29
S'39'
p91
sg31
S'12'
p92
sg33
S'49'
p93
sg35
S'27'
p94
sg37
S'FTW'
p95
sg39
S'29'
p96
sg41
g3
sg42
S'18'
p97
sg44
S'7'
p98
sg46
S'75'
p99
sg48
g3
sg49
S'1951-52'
p100
sg51
S'18'
p101
sg53
g3
sg54
S'.240'
p102
sg56
S'245'
p103
sg57
g3
sba(isrc.gp1.models.Totals
Totals
p104
(dp105
g8
g3
sg9
g3
sg10
S'.296'
p106
sg12
S'16'
p107
sg14
g3
sg15
g3
sg16
S'67'
p108
sg18
S'SF'
p109
sg20
S'.704'
p110
sg22
S'.296'
p111
sg24
S'NBA'
p112
sg26
g3
sg27
S'81'
p113
sg29
S'30'
p114
sg31
S'27'
p115
sg33
S'50'
p116
sg35
S'27'
p117
sg37
S'MLH'
p118
sg39
S'12'
p119
sg41
g3
sg42
S'24'
p120
sg44
S'19'
p121
sg46
S'81'
p122
sg48
g3
sg49
S'1951-52'
p123
sg51
S'24'
p124
sg53
g3
sg54
S'.296'
p125
sg56
S'269'
p126
sg57
g3
sbasS'_college'
p127
S'University of Tennessee'
p128
sS'_toYear'
p129
S'1952'
p130
sS'_height'
p131
S'6-5'
p132
sS'_active'
p133
I00
sS'_shootingHand'
p134
VRight
p135
sS'_name'
p136
S'Art Burris'
p137
sS'_per100Possessions'
p138
(lp139
sS'_advanced'
p140
(lp141
(isrc.gp1.models.Advanced
Advanced
p142
(dp143
S'_offensiveReboundPercentage'
p144
g3
sS'_turnOverPercentage'
p145
g3
sS'_winSharesPer48Minutes'
p146
g3
sS'_stealPercentage'
p147
g3
sS'_usagePercentage'
p148
g3
sS'_totalReboundsPercentage'
p149
g3
sS'_defensiveBoxPlusMinus'
p150
g3
sg18
S'SF'
p151
sS'_valueOverReplacementPlayer'
p152
g3
sS'_trueShootingPercentage'
p153
S'.299'
p154
sS'_defensiveReboundPercentage'
p155
g3
sS'_freeThrowsAttempRate'
p156
S'.319'
p157
sS'_threePointsAttempRate'
p158
g3
sg24
S'NBA'
p159
sS'_offensiveBoxPlusMinues'
p160
g3
sS'_assistPercentage'
p161
g3
sS'_defensiveWinShares'
p162
S'0.6'
p163
sg35
S'26'
p164
sg37
S'FTW'
p165
sg39
S'33'
p166
sS'_blockPercentage'
p167
g3
sS'_playerEfficiencyRating'
p168
g3
sS'_offensiveWinShares'
p169
S'-0.9'
p170
sg56
g3
sS'_boxPlusMinus'
p171
g3
sg49
S'1950-51'
p172
sS'_winShares'
p173
S'-0.3'
p174
sba(isrc.gp1.models.Advanced
Advanced
p175
(dp176
g144
g3
sg145
g3
sg146
S'-0.073'
p177
sg147
g3
sg148
g3
sg149
g3
sg150
g3
sg18
S'SF'
p178
sg152
g3
sg153
S'.318'
p179
sg155
g3
sg156
S'.250'
p180
sg158
g3
sg24
S'NBA'
p181
sg160
g3
sg161
g3
sg162
S'0.4'
p182
sg35
S'27'
p183
sg37
S'TOT'
p184
sg39
S'41'
p185
sg167
g3
sg168
S'5.5'
p186
sg169
S'-1.2'
p187
sg56
S'514'
p188
sg171
g3
sg49
S'1951-52'
p189
sg173
S'-0.8'
p190
sba(isrc.gp1.models.Advanced
Advanced
p191
(dp192
g144
g3
sg145
g3
sg146
S'-0.132'
p193
sg147
g3
sg148
g3
sg149
g3
sg150
g3
sg18
S'SF'
p194
sg152
g3
sg153
S'.268'
p195
sg155
g3
sg156
S'.160'
p196
sg158
g3
sg24
S'NBA'
p197
sg160
g3
sg161
g3
sg162
S'0.2'
p198
sg35
S'27'
p199
sg37
S'FTW'
p200
sg39
S'29'
p201
sg167
g3
sg168
S'1.9'
p202
sg169
S'-0.9'
p203
sg56
S'245'
p204
sg171
g3
sg49
S'1951-52'
p205
sg173
S'-0.7'
p206
sba(isrc.gp1.models.Advanced
Advanced
p207
(dp208
g144
g3
sg145
g3
sg146
S'-0.021'
p209
sg147
g3
sg148
g3
sg149
g3
sg150
g3
sg18
S'SF'
p210
sg152
g3
sg153
S'.361'
p211
sg155
g3
sg156
S'.333'
p212
sg158
g3
sg24
S'NBA'
p213
sg160
g3
sg161
g3
sg162
S'0.2'
p214
sg35
S'27'
p215
sg37
S'MLH'
p216
sg39
S'12'
p217
sg167
g3
sg168
S'8.8'
p218
sg169
S'-0.3'
p219
sg56
S'269'
p220
sg171
g3
sg49
S'1951-52'
p221
sg173
S'-0.1'
p222
sbasS'_per36Minutes'
p223
(lp224
(isrc.gp1.models.Per36Minutes
Per36Minutes
p225
(dp226
g8
g3
sg9
g3
sg10
S'.248'
p227
sg12
g3
sg14
g3
sg15
g3
sg16
g3
sg18
S'SF'
p228
sg20
S'.583'
p229
sg24
S'NBA'
p230
sg26
g3
sg27
g3
sg29
g3
sg31
g3
sg33
g3
sg35
S'26'
p231
sg37
S'FTW'
p232
sg39
S'33'
p233
sg41
g3
sg42
g3
sg44
g3
sg46
g3
sg48
g3
sg49
S'1950-51'
p234
sg51
g3
sg53
g3
sg54
S'.248'
p235
sg56
g3
sg57
g3
sba(isrc.gp1.models.Per36Minutes
Per36Minutes
p236
(dp237
g8
g3
sg9
g3
sg10
S'.269'
p238
sg12
S'1.9'
p239
sg14
g3
sg15
g3
sg16
S'7.7'
p240
sg18
S'SF'
p241
sg20
S'.667'
p242
sg24
S'NBA'
p243
sg26
g3
sg27
S'10.9'
p244
sg29
S'4.8'
p245
sg31
S'2.7'
p246
sg33
S'6.9'
p247
sg35
S'27'
p248
sg37
S'TOT'
p249
sg39
S'41'
p250
sg41
g3
sg42
S'2.9'
p251
sg44
S'1.8'
p252
sg46
S'10.9'
p253
sg48
g3
sg49
S'1951-52'
p254
sg51
S'2.9'
p255
sg53
g3
sg54
S'.269'
p256
sg56
S'514'
p257
sg57
g3
sba(isrc.gp1.models.Per36Minutes
Per36Minutes
p258
(dp259
g8
g3
sg9
g3
sg10
S'.240'
p260
sg12
S'1.6'
p261
sg14
g3
sg15
g3
sg16
S'6.3'
p262
sg18
S'SF'
p263
sg20
S'.583'
p264
sg24
S'NBA'
p265
sg26
g3
sg27
S'11.0'
p266
sg29
S'5.7'
p267
sg31
S'1.8'
p268
sg33
S'7.2'
p269
sg35
S'27'
p270
sg37
S'FTW'
p271
sg39
S'29'
p272
sg41
g3
sg42
S'2.6'
p273
sg44
S'1.0'
p274
sg46
S'11.0'
p275
sg48
g3
sg49
S'1951-52'
p276
sg51
S'2.6'
p277
sg53
g3
sg54
S'.240'
p278
sg56
S'245'
p279
sg57
g3
sba(isrc.gp1.models.Per36Minutes
Per36Minutes
p280
(dp281
g8
g3
sg9
g3
sg10
S'.296'
p282
sg12
S'2.1'
p283
sg14
g3
sg15
g3
sg16
S'9.0'
p284
sg18
S'SF'
p285
sg20
S'.704'
p286
sg24
S'NBA'
p287
sg26
g3
sg27
S'10.8'
p288
sg29
S'4.0'
p289
sg31
S'3.6'
p290
sg33
S'6.7'
p291
sg35
S'27'
p292
sg37
S'MLH'
p293
sg39
S'12'
p294
sg41
g3
sg42
S'3.2'
p295
sg44
S'2.5'
p296
sg46
S'10.8'
p297
sg48
g3
sg49
S'1951-52'
p298
sg51
S'3.2'
p299
sg53
g3
sg54
S'.296'
p300
sg56
S'269'
p301
sg57
g3
sbasS'_fromYear'
p302
S'1951'
p303
sS'_url'
p304
S'http://www.basketball-reference.com/players/b/burriar01.html'
p305
sS'_perGame'
p306
(isrc.gp1.models.PerGame
PerGame
p307
(dp308
g8
g3
sg9
g3
sg10
S'.296'
p309
sS'_effectiveFieldGalPercentage'
p310
S'.296'
p311
sg12
S'1.3'
p312
sg14
g3
sg15
g3
sg16
S'5.6'
p313
sg18
S'SF'
p314
sg20
S'.704'
p315
sg24
S'NBA'
p316
sg26
g3
sg29
S'2.5'
p317
sS'_fieldGoalsttempted'
p318
S'6.8'
p319
sg31
S'2.3'
p320
sg33
S'4.2'
p321
sg35
S'27'
p322
sg37
S'MLH'
p323
sg39
S'12'
p324
sg41
g3
sg42
S'2.0'
p325
sg44
S'1.6'
p326
sg46
S'6.8'
p327
sg48
g3
sg49
S'1951-52'
p328
sg51
S'2.0'
p329
sg53
g3
sg54
S'.296'
p330
sg56
S'22.4'
p331
sg57
g3
sbsS'_weight'
p332
S'220'
p333
sS'_dob'
p334
S'7-4-1924'
p335
sS'_salary'
p336
(lp337
sg18
S'F'
p338
sb.