(isrc.gp1.models.Player
Player
p0
(dp1
S'_experience'
p2
S'NA'
p3
sS'_totals'
p4
(lp5
(isrc.gp1.models.Totals
Totals
p6
(dp7
S'_offensiveRebounds'
p8
S'86'
p9
sS'_threePointsAttempted'
p10
S'.457'
p11
sS'_fieldGoalsPercentage'
p12
S'290'
p13
sS'_assist'
p14
S'146'
p15
sS'_threePointsPercentage'
p16
S'.457'
p17
sS'_threePoints'
p18
S'634'
p19
sS'_points'
p20
g3
sS'_position'
p21
S'PG'
p22
sS'_freeThrowsPercentage'
p23
S'295'
p24
sS'_effectiveFieldGoalPercentage'
p25
S'33'
p26
sS'_league'
p27
S'NBA'
p28
sS'_steals'
p29
S'755'
p30
sS'_fieldGoalsAttempted'
p31
S'.457'
p32
sS'_personalFouls'
p33
g3
sS'_freeThrowsAttempted'
p34
S'126'
p35
sS'_totalRebounds'
p36
S'154'
p37
sS'_age'
p38
S'22'
p39
sS'_team'
p40
S'TOT'
p41
sS'_games'
p42
S'82'
p43
sS'_blocks'
p44
g3
sS'_twoPoints'
p45
S'175'
p46
sS'_freeThrows'
p47
S'93'
p48
sS'_twoPointsAttempted'
p49
S'230'
p50
sS'_defensiveRebounds'
p51
S'1'
p52
sS'_season'
p53
S'1978-79'
p54
sS'_fieldGoals'
p55
S'634'
p56
sS'_turnOvers'
p57
g3
sS'_twoPointsPercentage'
p58
S'.761'
p59
sS'_minutesPlayed'
p60
S'290'
p61
sS'_gamesStarted'
p62
S'1779'
p63
sba(isrc.gp1.models.Totals
Totals
p64
(dp65
g8
S'56'
p66
sg10
S'.460'
p67
sg12
S'144'
p68
sg14
S'88'
p69
sg16
S'.460'
p70
sg18
S'313'
p71
sg20
g3
sg21
S'PG'
p72
sg23
S'169'
p73
sg25
S'11'
p74
sg27
S'NBA'
p75
sg29
S'376'
p76
sg31
S'.460'
p77
sg33
g3
sg34
S'59'
p78
sg36
S'96'
p79
sg38
S'22'
p80
sg40
S'ATL'
p81
sg42
S'49'
p82
sg44
g3
sg45
S'88'
p83
sg47
S'48'
p84
sg49
S'117'
p85
sg51
g52
sg53
S'1978-79'
p86
sg55
S'313'
p87
sg57
g3
sg58
S'.752'
p88
sg60
S'144'
p89
sg62
S'997'
p90
sba(isrc.gp1.models.Totals
Totals
p91
(dp92
g8
S'30'
p93
sg10
S'.455'
p94
sg12
S'146'
p95
sg14
S'58'
p96
sg16
S'.455'
p97
sg18
S'321'
p98
sg20
g3
sg21
S'PG'
p99
sg23
S'126'
p100
sg25
S'22'
p101
sg27
S'NBA'
p102
sg29
S'379'
p103
sg31
S'.455'
p104
sg33
g3
sg34
S'67'
p105
sg36
S'58'
p106
sg38
S'22'
p107
sg40
S'CLE'
p108
sg42
S'33'
p109
sg44
g3
sg45
S'87'
p110
sg47
S'45'
p111
sg49
S'113'
p112
sg51
S'0'
p113
sg53
S'1978-79'
p114
sg55
S'321'
p115
sg57
g3
sg58
S'.770'
p116
sg60
S'146'
p117
sg62
S'782'
p118
sba(isrc.gp1.models.Totals
Totals
p119
(dp120
g8
S'11'
p121
sg10
S'6'
p122
sg12
g113
sg14
g113
sg16
S'24'
p123
sg18
g113
sg20
g3
sg21
S'PG'
p124
sg23
S'4'
p125
sg25
S'8'
p126
sg27
S'NBA'
p127
sg29
S'10'
p128
sg31
S'.250'
p129
sg33
g3
sg34
S'7'
p130
sg36
g52
sg38
S'23'
p131
sg40
S'TOT'
p132
sg42
S'14'
p133
sg44
S'2'
p134
sg45
S'.250'
p135
sg47
S'.750'
p136
sg49
S'.250'
p137
sg51
S'12'
p138
sg53
S'1979-80'
p139
sg55
S'24'
p140
sg57
S'18'
p141
sg58
g122
sg60
g122
sg62
S'55'
p142
sba(isrc.gp1.models.Totals
Totals
p143
(dp144
g8
S'3'
p145
sg10
g134
sg12
g113
sg14
g113
sg16
S'11'
p146
sg18
g113
sg20
g3
sg21
S'PG'
p147
sg23
g113
sg25
g52
sg27
S'NBA'
p148
sg29
g145
sg31
S'.182'
p149
sg33
g3
sg34
g145
sg36
g113
sg38
S'23'
p150
sg40
S'CLE'
p151
sg42
g145
sg44
g113
sg45
S'.182'
p152
sg47
S'.000'
p153
sg49
S'.182'
p154
sg51
g145
sg53
S'1979-80'
p155
sg55
S'11'
p156
sg57
g125
sg58
g113
sg60
g134
sg62
S'24'
p157
sba(isrc.gp1.models.Totals
Totals
p158
(dp159
g8
g126
sg10
g125
sg12
g113
sg14
g113
sg16
S'13'
p160
sg18
g113
sg20
g3
sg21
S'PG'
p161
sg23
g125
sg25
g130
sg27
S'NBA'
p162
sg29
g130
sg31
S'.308'
p163
sg33
g3
sg34
g125
sg36
g52
sg38
S'23'
p164
sg40
S'LAL'
p165
sg42
S'11'
p166
sg44
g134
sg45
S'.308'
p167
sg47
S'.857'
p168
sg49
S'.308'
p169
sg51
S'9'
p170
sg53
S'1979-80'
p171
sg55
S'13'
p172
sg57
S'14'
p173
sg58
g122
sg60
g125
sg62
S'31'
p174
sbasS'_college'
p175
S'Marquette University'
p176
sS'_toYear'
p177
S'1980'
p178
sS'_height'
p179
S'6-0'
p180
sS'_active'
p181
I00
sS'_shootingHand'
p182
VRight
p183
sS'_name'
p184
S'Butch Lee'
p185
sS'_per100Possessions'
p186
(lp187
(isrc.gp1.models.Per100Possession
Per100Possession
p188
(dp189
g8
S'2.3'
p190
sg10
S'.457'
p191
sg12
S'7.6'
p192
sS'_offensiveRating'
p193
g3
sg14
S'3.8'
p194
sg16
S'4.6'
p195
sg18
S'16.7'
p196
sg20
g3
sg21
S'PG'
p197
sS'_defensiveRating'
p198
g3
sg23
S'7.8'
p199
sg27
S'NBA'
p200
sg29
S'19.9'
p201
sg31
S'.457'
p202
sg33
g3
sg34
S'3.3'
p203
sg36
S'4.1'
p204
sg38
S'22'
p205
sg40
S'TOT'
p206
sg42
S'82'
p207
sg44
S'102'
p208
sg45
S'6.1'
p209
sg47
S'2.4'
p210
sg49
S'.761'
p211
sg51
S'0.0'
p212
sg53
S'1978-79'
p213
sg55
S'16.7'
p214
sg57
S'107'
p215
sg58
S'0.9'
p216
sg60
S'7.6'
p217
sg62
S'1779'
p218
sba(isrc.gp1.models.Per100Possession
Per100Possession
p219
(dp220
g8
S'2.6'
p221
sg10
S'.460'
p222
sg12
S'6.8'
p223
sg193
g3
sg14
S'4.1'
p224
sg16
S'4.1'
p225
sg18
S'14.7'
p226
sg20
g3
sg21
S'PG'
p227
sg198
g3
sg23
S'7.9'
p228
sg27
S'NBA'
p229
sg29
S'17.7'
p230
sg31
S'.460'
p231
sg33
g3
sg34
S'2.8'
p232
sg36
S'4.5'
p233
sg38
S'22'
p234
sg40
S'ATL'
p235
sg42
S'49'
p236
sg44
S'99'
p237
sg45
S'5.5'
p238
sg47
S'2.3'
p239
sg49
S'.752'
p240
sg51
S'0.0'
p241
sg53
S'1978-79'
p242
sg55
S'14.7'
p243
sg57
S'105'
p244
sg58
S'0.5'
p245
sg60
S'6.8'
p246
sg62
S'997'
p247
sba(isrc.gp1.models.Per100Possession
Per100Possession
p248
(dp249
g8
S'1.8'
p250
sg10
S'.455'
p251
sg12
S'8.7'
p252
sg193
g3
sg14
S'3.5'
p253
sg16
S'5.2'
p254
sg18
S'19.2'
p255
sg20
g3
sg21
S'PG'
p256
sg198
g3
sg23
S'7.5'
p257
sg27
S'NBA'
p258
sg29
S'22.7'
p259
sg31
S'.455'
p260
sg33
g3
sg34
S'4.0'
p261
sg36
S'3.5'
p262
sg38
S'22'
p263
sg40
S'CLE'
p264
sg42
S'33'
p265
sg44
S'105'
p266
sg45
S'6.8'
p267
sg47
S'2.7'
p268
sg49
S'.770'
p269
sg51
S'0.0'
p270
sg53
S'1978-79'
p271
sg55
S'19.2'
p272
sg57
S'110'
p273
sg58
S'1.3'
p274
sg60
S'8.7'
p275
sg62
S'782'
p276
sba(isrc.gp1.models.Per100Possession
Per100Possession
p277
(dp278
g8
S'9.2'
p279
sg10
S'5.0'
p280
sg12
S'0.0'
p281
sg193
g3
sg14
S'0.0'
p282
sg16
S'20.0'
p283
sg18
S'0.0'
p284
sg20
S'110'
p285
sg21
S'PG'
p286
sg198
g3
sg23
S'3.3'
p287
sg27
S'NBA'
p288
sg29
S'8.3'
p289
sg31
S'.250'
p290
sg33
S'75'
p291
sg34
S'5.8'
p292
sg36
S'0.8'
p293
sg38
S'23'
p294
sg40
S'TOT'
p295
sg42
S'14'
p296
sg44
S'1.7'
p297
sg45
S'.250'
p298
sg47
S'.750'
p299
sg49
S'5.0'
p300
sg51
S'10.0'
p301
sg53
S'1979-80'
p302
sg55
S'20.0'
p303
sg57
S'15.0'
p304
sg58
S'6.7'
p305
sg60
S'5.0'
p306
sg62
S'55'
p307
sba(isrc.gp1.models.Per100Possession
Per100Possession
p308
(dp309
g8
S'5.7'
p310
sg10
S'3.8'
p311
sg12
S'0.0'
p312
sg193
g3
sg14
S'0.0'
p313
sg16
S'20.8'
p314
sg18
S'0.0'
p315
sg20
S'115'
p316
sg21
S'PG'
p317
sg198
g3
sg23
S'0.0'
p318
sg27
S'NBA'
p319
sg29
S'5.7'
p320
sg31
S'.182'
p321
sg33
S'53'
p322
sg34
S'5.7'
p323
sg36
S'0.0'
p324
sg38
S'23'
p325
sg40
S'CLE'
p326
sg42
g145
sg44
S'0.0'
p327
sg45
S'.182'
p328
sg47
S'.000'
p329
sg49
S'0.0'
p330
sg51
S'5.7'
p331
sg53
S'1979-80'
p332
sg55
S'20.8'
p333
sg57
S'7.6'
p334
sg58
S'1.9'
p335
sg60
S'3.8'
p336
sg62
S'24'
p337
sba(isrc.gp1.models.Per100Possession
Per100Possession
p338
(dp339
g8
S'11.9'
p340
sg10
S'6.0'
p341
sg12
S'0.0'
p342
sg193
g3
sg14
S'0.0'
p343
sg16
S'19.3'
p344
sg18
S'0.0'
p345
sg20
S'106'
p346
sg21
S'PG'
p347
sg198
g3
sg23
S'6.0'
p348
sg27
S'NBA'
p349
sg29
S'10.4'
p350
sg31
S'.308'
p351
sg33
S'87'
p352
sg34
S'6.0'
p353
sg36
S'1.5'
p354
sg38
S'23'
p355
sg40
S'LAL'
p356
sg42
S'11'
p357
sg44
S'3.0'
p358
sg45
S'.308'
p359
sg47
S'.857'
p360
sg49
S'8.9'
p361
sg51
S'13.4'
p362
sg53
S'1979-80'
p363
sg55
S'19.3'
p364
sg57
S'20.8'
p365
sg58
S'10.4'
p366
sg60
S'6.0'
p367
sg62
S'31'
p368
sbasS'_advanced'
p369
(lp370
(isrc.gp1.models.Advanced
Advanced
p371
(dp372
S'_offensiveReboundPercentage'
p373
S'6.0'
p374
sS'_turnOverPercentage'
p375
S'19.8'
p376
sS'_winSharesPer48Minutes'
p377
S'-0.6'
p378
sS'_stealPercentage'
p379
S'0.0'
p380
sS'_usagePercentage'
p381
S'1.5'
p382
sS'_totalReboundsPercentage'
p383
S'22.8'
p384
sS'_defensiveBoxPlusMinus'
p385
S'-2.5'
p386
sg21
S'PG'
p387
sS'_valueOverReplacementPlayer'
p388
g3
sS'_trueShootingPercentage'
p389
S'.513'
p390
sS'_defensiveReboundPercentage'
p391
S'3.9'
p392
sS'_freeThrowsAttempRate'
p393
S'1.9'
p394
sS'_threePointsAttempRate'
p395
S'.363'
p396
sg27
S'NBA'
p397
sS'_offensiveBoxPlusMinues'
p398
S'-1.9'
p399
sS'_assistPercentage'
p400
S'2.3'
p401
sS'_defensiveWinShares'
p402
S'2.6'
p403
sg38
S'22'
p404
sg40
S'TOT'
p405
sg42
S'82'
p406
sS'_blockPercentage'
p407
S'17.3'
p408
sS'_playerEfficiencyRating'
p409
S'13.8'
p410
sS'_offensiveWinShares'
p411
S'1.1'
p412
sg60
S'1779'
p413
sS'_boxPlusMinus'
p414
S'-0.2'
p415
sg53
S'1978-79'
p416
sS'_winShares'
p417
S'.069'
p418
sba(isrc.gp1.models.Advanced
Advanced
p419
(dp420
g373
S'5.4'
p421
sg375
S'18.3'
p422
sg377
S'-1.4'
p423
sg379
S'0.1'
p424
sg381
S'0.4'
p425
sg383
S'23.0'
p426
sg385
S'-2.9'
p427
sg21
S'PG'
p428
sg388
g3
sg389
S'.516'
p429
sg391
S'3.2'
p430
sg393
S'1.1'
p431
sg395
S'.374'
p432
sg27
S'NBA'
p433
sg398
S'-1.4'
p434
sg400
S'2.6'
p435
sg402
S'1.2'
p436
sg38
S'22'
p437
sg40
S'ATL'
p438
sg42
S'49'
p439
sg407
S'20.8'
p440
sg409
S'12.2'
p441
sg411
S'0.9'
p442
sg60
S'997'
p443
sg414
S'-0.2'
p444
sg53
S'1978-79'
p445
sg417
S'.060'
p446
sba(isrc.gp1.models.Advanced
Advanced
p447
(dp448
g373
S'6.7'
p449
sg375
S'21.8'
p450
sg377
S'0.5'
p451
sg379
S'0.0'
p452
sg381
S'1.1'
p453
sg383
S'22.5'
p454
sg385
S'-2.0'
p455
sg21
S'PG'
p456
sg388
g3
sg389
S'.511'
p457
sg391
S'4.7'
p458
sg393
S'2.9'
p459
sg395
S'.352'
p460
sg27
S'NBA'
p461
sg398
S'-2.6'
p462
sg400
S'1.8'
p463
sg402
S'1.3'
p464
sg38
S'22'
p465
sg40
S'CLE'
p466
sg42
S'33'
p467
sg407
S'13.5'
p468
sg409
S'15.7'
p469
sg411
S'0.2'
p470
sg60
S'782'
p471
sg414
S'0.0'
p472
sg53
S'1978-79'
p473
sg417
S'.081'
p474
sba(isrc.gp1.models.Advanced
Advanced
p475
(dp476
g373
S'14.2'
p477
sg375
S'26.7'
p478
sg377
S'-0.165'
p479
sg379
S'0.8'
p480
sg381
S'26.9'
p481
sg383
S'10.8'
p482
sg385
S'-2.3'
p483
sg21
S'PG'
p484
sg388
S'-0.1'
p485
sg389
S'.327'
p486
sg391
S'7.3'
p487
sg393
S'.333'
p488
sg395
S'.000'
p489
sg27
S'NBA'
p490
sg398
S'-6.7'
p491
sg400
S'25.5'
p492
sg402
S'0.0'
p493
sg38
S'23'
p494
sg40
S'TOT'
p495
sg42
S'14'
p496
sg407
S'0.0'
p497
sg409
S'5.3'
p498
sg411
S'-0.2'
p499
sg60
S'55'
p500
sg414
S'-9.0'
p501
sg53
S'1979-80'
p502
sg417
S'-0.2'
p503
sba(isrc.gp1.models.Advanced
Advanced
p504
(dp505
g373
S'12.6'
p506
sg375
S'20.8'
p507
sg377
S'-0.314'
p508
sg379
S'0.0'
p509
sg381
S'23.1'
p510
sg383
S'6.6'
p511
sg385
S'-3.6'
p512
sg21
S'PG'
p513
sg388
S'-0.1'
p514
sg389
S'.175'
p515
sg391
S'0.0'
p516
sg393
S'.091'
p517
sg395
S'.000'
p518
sg27
S'NBA'
p519
sg398
S'-10.3'
p520
sg400
S'14.3'
p521
sg402
S'0.0'
p522
sg38
S'23'
p523
sg40
S'CLE'
p524
sg42
g145
sg407
S'0.0'
p525
sg409
S'-4.0'
p526
sg411
S'-0.2'
p527
sg60
S'24'
p528
sg414
S'-13.9'
p529
sg53
S'1979-80'
p530
sg417
S'-0.2'
p531
sba(isrc.gp1.models.Advanced
Advanced
p532
(dp533
g373
S'15.4'
p534
sg375
S'30.3'
p535
sg377
S'-0.051'
p536
sg379
S'1.5'
p537
sg381
S'29.8'
p538
sg383
S'14.1'
p539
sg385
S'-1.3'
p540
sg21
S'PG'
p541
sg388
S'0.0'
p542
sg389
S'.435'
p543
sg391
S'12.9'
p544
sg393
S'.538'
p545
sg395
S'.000'
p546
sg27
S'NBA'
p547
sg398
S'-3.8'
p548
sg400
S'34.1'
p549
sg402
S'0.0'
p550
sg38
S'23'
p551
sg40
S'LAL'
p552
sg42
S'11'
p553
sg407
S'0.0'
p554
sg409
S'12.4'
p555
sg411
S'-0.1'
p556
sg60
S'31'
p557
sg414
S'-5.1'
p558
sg53
S'1979-80'
p559
sg417
S'0.0'
p560
sbasS'_per36Minutes'
p561
(lp562
(isrc.gp1.models.Per36Minutes
Per36Minutes
p563
(dp564
g8
S'1.7'
p565
sg10
S'.457'
p566
sg12
S'5.9'
p567
sg14
S'3.0'
p568
sg16
S'3.5'
p569
sg18
S'12.8'
p570
sg20
g3
sg21
S'PG'
p571
sg23
S'6.0'
p572
sg27
S'NBA'
p573
sg29
S'15.3'
p574
sg31
S'.457'
p575
sg33
g3
sg34
S'2.5'
p576
sg36
S'3.1'
p577
sg38
S'22'
p578
sg40
S'TOT'
p579
sg42
S'82'
p580
sg44
g3
sg45
S'4.7'
p581
sg47
S'1.9'
p582
sg49
S'.761'
p583
sg51
S'0.0'
p584
sg53
S'1978-79'
p585
sg55
S'12.8'
p586
sg57
g3
sg58
S'0.7'
p587
sg60
S'5.9'
p588
sg62
S'1779'
p589
sba(isrc.gp1.models.Per36Minutes
Per36Minutes
p590
(dp591
g8
S'2.0'
p592
sg10
S'.460'
p593
sg12
S'5.2'
p594
sg14
S'3.2'
p595
sg16
S'3.2'
p596
sg18
S'11.3'
p597
sg20
g3
sg21
S'PG'
p598
sg23
S'6.1'
p599
sg27
S'NBA'
p600
sg29
S'13.6'
p601
sg31
S'.460'
p602
sg33
g3
sg34
S'2.1'
p603
sg36
S'3.5'
p604
sg38
S'22'
p605
sg40
S'ATL'
p606
sg42
S'49'
p607
sg44
g3
sg45
S'4.2'
p608
sg47
S'1.7'
p609
sg49
S'.752'
p610
sg51
S'0.0'
p611
sg53
S'1978-79'
p612
sg55
S'11.3'
p613
sg57
g3
sg58
S'0.4'
p614
sg60
S'5.2'
p615
sg62
S'997'
p616
sba(isrc.gp1.models.Per36Minutes
Per36Minutes
p617
(dp618
g8
S'1.4'
p619
sg10
S'.455'
p620
sg12
S'6.7'
p621
sg14
S'2.7'
p622
sg16
S'4.0'
p623
sg18
S'14.8'
p624
sg20
g3
sg21
S'PG'
p625
sg23
S'5.8'
p626
sg27
S'NBA'
p627
sg29
S'17.4'
p628
sg31
S'.455'
p629
sg33
g3
sg34
S'3.1'
p630
sg36
S'2.7'
p631
sg38
S'22'
p632
sg40
S'CLE'
p633
sg42
S'33'
p634
sg44
g3
sg45
S'5.2'
p635
sg47
S'2.1'
p636
sg49
S'.770'
p637
sg51
S'0.0'
p638
sg53
S'1978-79'
p639
sg55
S'14.8'
p640
sg57
g3
sg58
S'1.0'
p641
sg60
S'6.7'
p642
sg62
S'782'
p643
sba(isrc.gp1.models.Per36Minutes
Per36Minutes
p644
(dp645
g8
S'7.2'
p646
sg10
S'3.9'
p647
sg12
S'0.0'
p648
sg14
S'0.0'
p649
sg16
S'15.7'
p650
sg18
S'0.0'
p651
sg20
g3
sg21
S'PG'
p652
sg23
S'2.6'
p653
sg27
S'NBA'
p654
sg29
S'6.5'
p655
sg31
S'.250'
p656
sg33
g3
sg34
S'4.6'
p657
sg36
S'0.7'
p658
sg38
S'23'
p659
sg40
S'TOT'
p660
sg42
S'14'
p661
sg44
S'1.3'
p662
sg45
S'.250'
p663
sg47
S'.750'
p664
sg49
S'3.9'
p665
sg51
S'7.9'
p666
sg53
S'1979-80'
p667
sg55
S'15.7'
p668
sg57
S'11.8'
p669
sg58
S'5.2'
p670
sg60
S'3.9'
p671
sg62
S'55'
p672
sba(isrc.gp1.models.Per36Minutes
Per36Minutes
p673
(dp674
g8
S'4.5'
p675
sg10
S'3.0'
p676
sg12
S'0.0'
p677
sg14
S'0.0'
p678
sg16
S'16.5'
p679
sg18
S'0.0'
p680
sg20
g3
sg21
S'PG'
p681
sg23
S'0.0'
p682
sg27
S'NBA'
p683
sg29
S'4.5'
p684
sg31
S'.182'
p685
sg33
g3
sg34
S'4.5'
p686
sg36
S'0.0'
p687
sg38
S'23'
p688
sg40
S'CLE'
p689
sg42
g145
sg44
S'0.0'
p690
sg45
S'.182'
p691
sg47
S'.000'
p692
sg49
S'0.0'
p693
sg51
S'4.5'
p694
sg53
S'1979-80'
p695
sg55
S'16.5'
p696
sg57
S'6.0'
p697
sg58
S'1.5'
p698
sg60
S'3.0'
p699
sg62
S'24'
p700
sba(isrc.gp1.models.Per36Minutes
Per36Minutes
p701
(dp702
g8
S'9.3'
p703
sg10
S'4.6'
p704
sg12
S'0.0'
p705
sg14
S'0.0'
p706
sg16
S'15.1'
p707
sg18
S'0.0'
p708
sg20
g3
sg21
S'PG'
p709
sg23
S'4.6'
p710
sg27
S'NBA'
p711
sg29
S'8.1'
p712
sg31
S'.308'
p713
sg33
g3
sg34
S'4.6'
p714
sg36
S'1.2'
p715
sg38
S'23'
p716
sg40
S'LAL'
p717
sg42
S'11'
p718
sg44
S'2.3'
p719
sg45
S'.308'
p720
sg47
S'.857'
p721
sg49
S'7.0'
p722
sg51
S'10.5'
p723
sg53
S'1979-80'
p724
sg55
S'15.1'
p725
sg57
S'16.3'
p726
sg58
S'8.1'
p727
sg60
S'4.6'
p728
sg62
S'31'
p729
sbasS'_fromYear'
p730
S'1979'
p731
sS'_url'
p732
S'http://www.basketball-reference.com/players/l/leebu01.html'
p733
sS'_perGame'
p734
(isrc.gp1.models.PerGame
PerGame
p735
(dp736
g8
S'0.7'
p737
sg10
S'0.4'
p738
sg12
S'0.0'
p739
sS'_effectiveFieldGalPercentage'
p740
S'0.6'
p741
sg14
S'0.0'
p742
sg16
S'1.2'
p743
sg18
S'0.0'
p744
sg20
g3
sg21
S'PG'
p745
sg23
S'0.4'
p746
sg27
S'NBA'
p747
sg29
S'0.6'
p748
sg33
g3
sS'_fieldGoalsttempted'
p749
S'.308'
p750
sg34
S'0.4'
p751
sg36
S'0.1'
p752
sg38
S'23'
p753
sg40
S'LAL'
p754
sg42
S'11'
p755
sg44
S'0.2'
p756
sg45
S'.308'
p757
sg47
S'.857'
p758
sg49
S'.308'
p759
sg51
S'0.8'
p760
sg53
S'1979-80'
p761
sg55
S'1.2'
p762
sg57
S'1.3'
p763
sg58
S'0.5'
p764
sg60
S'0.4'
p765
sg62
S'2.8'
p766
sbsS'_weight'
p767
S'185'
p768
sS'_dob'
p769
S'5-12-1956'
p770
sS'_salary'
p771
(lp772
sg21
S'G'
p773
sb.