(isrc.gp1.models.Player
Player
p0
(dp1
S'_experience'
p2
S'NA'
p3
sS'_totals'
p4
(lp5
(isrc.gp1.models.Totals
Totals
p6
(dp7
S'_offensiveRebounds'
p8
S'47'
p9
sS'_threePointsAttempted'
p10
S'.000'
p11
sS'_fieldGoalsPercentage'
p12
S'0'
p13
sS'_assist'
p14
S'13'
p15
sS'_threePointsPercentage'
p16
S'30'
p17
sS'_threePoints'
p18
S'1'
p19
sS'_points'
p20
g3
sS'_position'
p21
S'C'
p22
sS'_freeThrowsPercentage'
p23
S'44'
p24
sS'_effectiveFieldGoalPercentage'
p25
S'10'
p26
sS'_league'
p27
S'ABA'
p28
sS'_steals'
p29
S'23'
p30
sS'_fieldGoalsAttempted'
p31
S'.492'
p32
sS'_personalFouls'
p33
g3
sS'_freeThrowsAttempted'
p34
S'.556'
p35
sS'_totalRebounds'
p36
S'6'
p37
sS'_age'
p38
S'24'
p39
sS'_team'
p40
S'MMF'
p41
sS'_games'
p42
S'12'
p43
sS'_blocks'
p44
S'70'
p45
sS'_twoPoints'
p46
S'60'
p47
sS'_freeThrows'
p48
S'18'
p49
sS'_twoPointsAttempted'
p50
S'.500'
p51
sS'_defensiveRebounds'
p52
S'91'
p53
sS'_season'
p54
S'1969-70'
p55
sS'_fieldGoals'
p56
S'61'
p57
sS'_turnOvers'
p58
g3
sS'_twoPointsPercentage'
p59
S'.492'
p60
sS'_minutesPlayed'
p61
S'30'
p62
sS'_gamesStarted'
p63
S'221'
p64
sbasS'_college'
p65
S'Cheyney University of Pennsylvania'
p66
sS'_toYear'
p67
S'1970'
p68
sS'_height'
p69
S'6-10'
p70
sS'_active'
p71
I00
sS'_shootingHand'
p72
VRight
p73
sS'_name'
p74
S'Butch Booker'
p75
sS'_per100Possessions'
p76
(lp77
sS'_advanced'
p78
(lp79
(isrc.gp1.models.Advanced
Advanced
p80
(dp81
S'_offensiveReboundPercentage'
p82
S'18.7'
p83
sS'_turnOverPercentage'
p84
S'0.4'
p85
sS'_winSharesPer48Minutes'
p86
g3
sS'_stealPercentage'
p87
S'0.1'
p88
sS'_usagePercentage'
p89
S'.082'
p90
sS'_totalReboundsPercentage'
p91
S'15.9'
p92
sS'_defensiveBoxPlusMinus'
p93
g3
sg21
g22
sS'_valueOverReplacementPlayer'
p94
g3
sS'_trueShootingPercentage'
p95
S'.508'
p96
sS'_defensiveReboundPercentage'
p97
S'3.6'
p98
sS'_freeThrowsAttempRate'
p99
S'.295'
p100
sS'_threePointsAttempRate'
p101
S'.016'
p102
sg27
S'ABA'
p103
sS'_offensiveBoxPlusMinues'
p104
g3
sS'_assistPercentage'
p105
S'13.3'
p106
sS'_defensiveWinShares'
p107
g3
sg38
S'24'
p108
sg40
S'MMF'
p109
sg42
S'12'
p110
sS'_blockPercentage'
p111
S'0.2'
p112
sS'_playerEfficiencyRating'
p113
S'15.7'
p114
sS'_offensiveWinShares'
p115
g3
sg61
S'221'
p116
sS'_boxPlusMinus'
p117
g3
sg54
S'1969-70'
p118
sS'_winShares'
p119
g3
sbasS'_per36Minutes'
p120
(lp121
(isrc.gp1.models.Per36Minutes
Per36Minutes
p122
(dp123
g8
S'7.7'
p124
sg10
S'.000'
p125
sg12
S'0.0'
p126
sg14
S'2.1'
p127
sg16
S'4.9'
p128
sg18
S'0.2'
p129
sg20
g3
sg21
g22
sg23
S'7.2'
p130
sg27
S'ABA'
p131
sg29
S'3.7'
p132
sg31
S'.492'
p133
sg33
g3
sg34
S'.556'
p134
sg36
S'1.0'
p135
sg38
S'24'
p136
sg40
S'MMF'
p137
sg42
S'12'
p138
sg44
S'11.4'
p139
sg46
S'9.8'
p140
sg48
S'2.9'
p141
sg50
S'.500'
p142
sg52
S'14.8'
p143
sg54
S'1969-70'
p144
sg56
S'9.9'
p145
sg58
g3
sg59
S'1.6'
p146
sg61
S'4.9'
p147
sg63
S'221'
p148
sbasS'_fromYear'
p149
S'1970'
p150
sS'_url'
p151
S'http://www.basketball-reference.com/players/b/bookebu01.html'
p152
sS'_perGame'
p153
(isrc.gp1.models.PerGame
PerGame
p154
(dp155
g8
S'3.9'
p156
sg10
S'.000'
p157
sg12
S'0.0'
p158
sS'_effectiveFieldGalPercentage'
p159
S'0.8'
p160
sg14
S'1.1'
p161
sg16
S'2.5'
p162
sg18
S'0.1'
p163
sg20
g3
sg21
g22
sg23
S'3.7'
p164
sg27
S'ABA'
p165
sg29
S'1.9'
p166
sg33
g3
sS'_fieldGoalsttempted'
p167
S'.492'
p168
sg34
S'.556'
p169
sg36
S'0.5'
p170
sg38
S'24'
p171
sg40
S'MMF'
p172
sg42
S'12'
p173
sg44
S'5.8'
p174
sg46
S'5.0'
p175
sg48
S'1.5'
p176
sg50
S'.500'
p177
sg52
S'7.6'
p178
sg54
S'1969-70'
p179
sg56
S'5.1'
p180
sg58
g3
sg59
S'.492'
p181
sg61
S'2.5'
p182
sg63
S'18.4'
p183
sbsS'_weight'
p184
S'230'
p185
sS'_dob'
p186
S'20-7-1945'
p187
sS'_salary'
p188
(lp189
sg21
g22
sb.