(isrc.gp1.models.Player
Player
p0
(dp1
S'_experience'
p2
V13
p3
sS'_totals'
p4
(lp5
(isrc.gp1.models.Totals
Totals
p6
(dp7
S'_offensiveRebounds'
p8
S'135'
p9
sS'_threePointsAttempted'
p10
S'107'
p11
sS'_fieldGoalsPercentage'
p12
S'.416'
p13
sS'_assist'
p14
S'213'
p15
sS'_threePointsPercentage'
p16
S'.318'
p17
sS'_threePoints'
p18
S'34'
p19
sS'_points'
p20
S'1201'
p21
sS'_position'
p22
S'SF'
p23
sS'_freeThrowsPercentage'
p24
S'.824'
p25
sS'_effectiveFieldGoalPercentage'
p26
S'.432'
p27
sS'_league'
p28
S'NBA'
p29
sS'_steals'
p30
S'137'
p31
sS'_fieldGoalsAttempted'
p32
S'1032'
p33
sS'_personalFouls'
p34
S'230'
p35
sS'_freeThrowsAttempted'
p36
S'375'
p37
sS'_totalRebounds'
p38
S'397'
p39
sS'_age'
p40
S'22'
p41
sS'_team'
p42
S'MIA'
p43
sS'_games'
p44
S'78'
p45
sS'_blocks'
p46
S'31'
p47
sS'_twoPoints'
p48
S'395'
p49
sS'_freeThrows'
p50
S'309'
p51
sS'_twoPointsAttempted'
p52
S'925'
p53
sS'_defensiveRebounds'
p54
S'262'
p55
sS'_season'
p56
S'2002-03'
p57
sS'_fieldGoals'
p58
S'429'
p59
sS'_turnOvers'
p60
S'192'
p61
sS'_twoPointsPercentage'
p62
S'.427'
p63
sS'_minutesPlayed'
p64
S'2858'
p65
sS'_gamesStarted'
p66
S'78'
p67
sba(isrc.gp1.models.Totals
Totals
p68
(dp69
g8
S'92'
p70
sg10
S'42'
p71
sg12
S'.380'
p72
sg14
S'126'
p73
sg16
S'.238'
p74
sg18
S'10'
p75
sg20
S'623'
p76
sg22
S'SF'
p77
sg24
S'.756'
p78
sg26
S'.388'
p79
sg28
S'NBA'
p80
sg30
S'75'
p81
sg32
S'631'
p82
sg34
S'162'
p83
sg36
S'176'
p84
sg38
S'326'
p85
sg40
S'23'
p86
sg42
S'MIA'
p87
sg44
S'68'
p88
sg46
S'13'
p89
sg48
S'230'
p90
sg50
S'133'
p91
sg52
S'589'
p92
sg54
S'234'
p93
sg56
S'2003-04'
p94
sg58
S'240'
p95
sg60
S'91'
p96
sg62
S'.390'
p97
sg64
S'2030'
p98
sg66
S'56'
p99
sba(isrc.gp1.models.Totals
Totals
p100
(dp101
g8
S'146'
p102
sg10
S'125'
p103
sg12
S'.445'
p104
sg14
S'146'
p105
sg16
S'.304'
p106
sg18
S'38'
p107
sg20
S'1195'
p108
sg22
S'SF'
p109
sg24
S'.862'
p110
sg26
S'.464'
p111
sg28
S'NBA'
p112
sg30
S'110'
p113
sg32
S'991'
p114
sg34
S'213'
p115
sg36
S'319'
p116
sg38
S'450'
p117
sg40
S'24'
p118
sg42
S'LAL'
p119
sg44
S'77'
p120
sg46
S'23'
p121
sg48
S'403'
p122
sg50
S'275'
p123
sg52
S'866'
p124
sg54
S'304'
p125
sg56
S'2004-05'
p126
sg58
S'441'
p127
sg60
S'125'
p128
sg62
S'.465'
p129
sg64
S'2746'
p130
sg66
S'77'
p131
sba(isrc.gp1.models.Totals
Totals
p132
(dp133
g8
S'114'
p134
sg10
S'120'
p135
sg12
S'.455'
p136
sg14
S'186'
p137
sg16
S'.342'
p138
sg18
S'41'
p139
sg20
S'1318'
p140
sg22
S'SF'
p141
sg24
S'.870'
p142
sg26
S'.474'
p143
sg28
S'NBA'
p144
sg30
S'127'
p145
sg32
S'1086'
p146
sg34
S'238'
p147
sg36
S'332'
p148
sg38
S'466'
p149
sg40
S'25'
p150
sg42
S'WAS'
p151
sg44
S'75'
p152
sg46
S'18'
p153
sg48
S'453'
p154
sg50
S'289'
p155
sg52
S'966'
p156
sg54
S'352'
p157
sg56
S'2005-06'
p158
sg58
S'494'
p159
sg60
S'175'
p160
sg62
S'.469'
p161
sg64
S'2708'
p162
sg66
S'54'
p163
sba(isrc.gp1.models.Totals
Totals
p164
(dp165
g8
S'147'
p166
sg10
S'72'
p167
sg12
S'.463'
p168
sg14
S'233'
p169
sg16
S'.250'
p170
sg18
S'18'
p171
sg20
S'1203'
p172
sg22
S'SF'
p173
sg24
S'.863'
p174
sg26
S'.472'
p175
sg28
S'NBA'
p176
sg30
S'134'
p177
sg32
S'975'
p178
sg34
S'188'
p179
sg36
S'328'
p180
sg38
S'467'
p181
sg40
S'26'
p182
sg42
S'WAS'
p183
sg44
S'63'
p184
sg46
S'17'
p185
sg48
S'433'
p186
sg50
S'283'
p187
sg52
S'903'
p188
sg54
S'320'
p189
sg56
S'2006-07'
p190
sg58
S'451'
p191
sg60
S'181'
p192
sg62
S'.480'
p193
sg64
S'2474'
p194
sg66
S'63'
p195
sba(isrc.gp1.models.Totals
Totals
p196
(dp197
g8
S'93'
p198
sg10
S'185'
p199
sg12
S'.466'
p200
sg14
S'284'
p201
sg16
S'.357'
p202
sg18
S'66'
p203
sg20
S'1180'
p204
sg22
S'SF'
p205
sg24
S'.901'
p206
sg26
S'.501'
p207
sg28
S'NBA'
p208
sg30
S'128'
p209
sg32
S'943'
p210
sg34
S'160'
p211
sg36
S'262'
p212
sg38
S'388'
p213
sg40
S'27'
p214
sg42
S'WAS'
p215
sg44
S'58'
p216
sg46
S'20'
p217
sg48
S'373'
p218
sg50
S'236'
p219
sg52
S'758'
p220
sg54
S'295'
p221
sg56
S'2007-08'
p222
sg58
S'439'
p223
sg60
S'150'
p224
sg62
S'.492'
p225
sg64
S'2314'
p226
sg66
S'58'
p227
sba(isrc.gp1.models.Totals
Totals
p228
(dp229
g8
S'118'
p230
sg10
S'210'
p231
sg12
S'.453'
p232
sg14
S'290'
p233
sg16
S'.310'
p234
sg18
S'65'
p235
sg20
S'1392'
p236
sg22
S'SG'
p237
sg24
S'.858'
p238
sg26
S'.482'
p239
sg28
S'NBA'
p240
sg30
S'106'
p241
sg32
S'1085'
p242
sg34
S'165'
p243
sg36
S'402'
p244
sg38
S'414'
p245
sg40
S'28'
p246
sg42
S'WAS'
p247
sg44
S'67'
p248
sg46
S'20'
p249
sg48
S'426'
p250
sg50
S'345'
p251
sg52
S'875'
p252
sg54
S'296'
p253
sg56
S'2008-09'
p254
sg58
S'491'
p255
sg60
S'210'
p256
sg62
S'.487'
p257
sg64
S'2585'
p258
sg66
S'67'
p259
sba(isrc.gp1.models.Totals
Totals
p260
(dp261
g8
S'104'
p262
sg10
S'145'
p263
sg12
S'.428'
p264
sg14
S'156'
p265
sg16
S'.290'
p266
sg18
S'42'
p267
sg20
S'1206'
p268
sg22
S'SF-SG'
p269
sg24
S'.838'
p270
sg26
S'.448'
p271
sg28
S'NBA'
p272
sg30
S'116'
p273
sg32
S'1051'
p274
sg34
S'193'
p275
sg36
S'315'
p276
sg38
S'461'
p277
sg40
S'29'
p278
sg42
S'TOT'
p279
sg44
S'74'
p280
sg46
S'24'
p281
sg48
S'408'
p282
sg50
S'264'
p283
sg52
S'906'
p284
sg54
S'357'
p285
sg56
S'2009-10'
p286
sg58
S'450'
p287
sg60
S'160'
p288
sg62
S'.450'
p289
sg64
S'2783'
p290
sg66
S'74'
p291
sba(isrc.gp1.models.Totals
Totals
p292
(dp293
g8
S'68'
p294
sg10
S'95'
p295
sg12
S'.422'
p296
sg14
S'107'
p297
sg16
S'.263'
p298
sg18
S'25'
p299
sg20
S'796'
p300
sg22
S'SF'
p301
sg24
S'.877'
p302
sg26
S'.440'
p303
sg28
S'NBA'
p304
sg30
S'68'
p305
sg32
S'694'
p306
sg34
S'126'
p307
sg36
S'211'
p308
sg38
S'316'
p309
sg40
S'29'
p310
sg42
S'WAS'
p311
sg44
S'47'
p312
sg46
S'15'
p313
sg48
S'268'
p314
sg50
S'185'
p315
sg52
S'599'
p316
sg54
S'248'
p317
sg56
S'2009-10'
p318
sg58
S'293'
p319
sg60
S'113'
p320
sg62
S'.447'
p321
sg64
S'1853'
p322
sg66
S'47'
p323
sba(isrc.gp1.models.Totals
Totals
p324
(dp325
g8
S'36'
p326
sg10
S'50'
p327
sg12
S'.440'
p328
sg14
S'49'
p329
sg16
S'.340'
p330
sg18
S'17'
p331
sg20
S'410'
p332
sg22
S'SG'
p333
sg24
S'.760'
p334
sg26
S'.464'
p335
sg28
S'NBA'
p336
sg30
S'48'
p337
sg32
S'357'
p338
sg34
S'67'
p339
sg36
S'104'
p340
sg38
S'145'
p341
sg40
S'29'
p342
sg42
S'DAL'
p343
sg44
S'27'
p344
sg46
S'9'
p345
sg48
S'140'
p346
sg50
S'79'
p347
sg52
S'307'
p348
sg54
S'109'
p349
sg56
S'2009-10'
p350
sg58
S'157'
p351
sg60
S'47'
p352
sg62
S'.456'
p353
sg64
S'930'
p354
sg66
S'27'
p355
sba(isrc.gp1.models.Totals
Totals
p356
(dp357
g8
S'22'
p358
sg10
S'65'
p359
sg12
S'.450'
p360
sg14
S'46'
p361
sg16
S'.431'
p362
sg18
S'28'
p363
sg20
S'436'
p364
sg22
S'SF'
p365
sg24
S'.773'
p366
sg26
S'.487'
p367
sg28
S'NBA'
p368
sg30
S'28'
p369
sg32
S'378'
p370
sg34
S'59'
p371
sg36
S'88'
p372
sg38
S'118'
p373
sg40
S'30'
p374
sg42
S'DAL'
p375
sg44
S'29'
p376
sg46
S'8'
p377
sg48
S'142'
p378
sg50
S'68'
p379
sg52
S'313'
p380
sg54
S'96'
p381
sg56
S'2010-11'
p382
sg58
S'170'
p383
sg60
S'49'
p384
sg62
S'.454'
p385
sg64
S'867'
p386
sg66
S'29'
p387
sba(isrc.gp1.models.Totals
Totals
p388
(dp389
g8
S'44'
p390
sg10
S'257'
p391
sg12
S'.407'
p392
sg14
S'78'
p393
sg16
S'.358'
p394
sg18
S'92'
p395
sg20
S'753'
p396
sg22
S'SF'
p397
sg24
S'.813'
p398
sg26
S'.472'
p399
sg28
S'NBA'
p400
sg30
S'52'
p401
sg32
S'705'
p402
sg34
S'123'
p403
sg36
S'107'
p404
sg38
S'230'
p405
sg40
S'31'
p406
sg42
S'LAC'
p407
sg44
S'63'
p408
sg46
g345
sg48
S'195'
p409
sg50
S'87'
p410
sg52
S'448'
p411
sg54
S'186'
p412
sg56
S'2011-12'
p413
sg58
S'287'
p414
sg60
S'77'
p415
sg62
S'.435'
p416
sg64
S'1871'
p417
sg66
S'63'
p418
sba(isrc.gp1.models.Totals
Totals
p419
(dp420
g8
S'41'
p421
sg10
S'330'
p422
sg12
S'.424'
p423
sg14
S'78'
p424
sg16
S'.388'
p425
sg18
S'128'
p426
sg20
S'813'
p427
sg22
S'SF'
p428
sg24
S'.833'
p429
sg26
S'.513'
p430
sg28
S'NBA'
p431
sg30
S'51'
p432
sg32
S'720'
p433
sg34
S'139'
p434
sg36
S'90'
p435
sg38
S'223'
p436
sg40
S'32'
p437
sg42
S'LAC'
p438
sg44
S'78'
p439
sg46
S'11'
p440
sg48
S'177'
p441
sg50
S'75'
p442
sg52
S'390'
p443
sg54
S'182'
p444
sg56
S'2012-13'
p445
sg58
S'305'
p446
sg60
S'72'
p447
sg62
S'.454'
p448
sg64
S'1879'
p449
sg66
S'78'
p450
sba(isrc.gp1.models.Totals
Totals
p451
(dp452
g8
S'21'
p453
sg10
S'249'
p454
sg12
S'.394'
p455
sg14
S'82'
p456
sg16
S'.394'
p457
sg18
S'98'
p458
sg20
S'587'
p459
sg22
S'SF'
p460
sg24
S'.840'
p461
sg26
S'.485'
p462
sg28
S'NBA'
p463
sg30
S'47'
p464
sg32
S'540'
p465
sg34
S'120'
p466
sg36
S'75'
p467
sg38
S'229'
p468
sg40
S'33'
p469
sg42
S'TOT'
p470
sg44
S'56'
p471
sg46
S'17'
p472
sg48
S'115'
p473
sg50
S'63'
p474
sg52
S'291'
p475
sg54
S'208'
p476
sg56
S'2013-14'
p477
sg58
S'213'
p478
sg60
S'60'
p479
sg62
S'.395'
p480
sg64
S'1419'
p481
sg66
S'13'
p482
sba(isrc.gp1.models.Totals
Totals
p483
(dp484
g8
S'16'
p485
sg10
S'147'
p486
sg12
S'.387'
p487
sg14
S'56'
p488
sg16
S'.361'
p489
sg18
S'53'
p490
sg20
S'374'
p491
sg22
S'SF'
p492
sg24
S'.839'
p493
sg26
S'.462'
p494
sg28
S'NBA'
p495
sg30
S'23'
p496
sg32
S'354'
p497
sg34
S'64'
p498
sg36
S'56'
p499
sg38
S'158'
p500
sg40
S'33'
p501
sg42
S'MIL'
p502
sg44
S'34'
p503
sg46
S'11'
p504
sg48
S'84'
p505
sg50
S'47'
p506
sg52
S'207'
p507
sg54
S'142'
p508
sg56
S'2013-14'
p509
sg58
S'137'
p510
sg60
S'52'
p511
sg62
S'.406'
p512
sg64
S'821'
p513
sg66
S'13'
p514
sba(isrc.gp1.models.Totals
Totals
p515
(dp516
g8
S'5'
p517
sg10
S'102'
p518
sg12
S'.409'
p519
sg14
S'26'
p520
sg16
S'.441'
p521
sg18
S'45'
p522
sg20
S'213'
p523
sg22
S'SF'
p524
sg24
S'.842'
p525
sg26
S'.530'
p526
sg28
S'NBA'
p527
sg30
S'24'
p528
sg32
S'186'
p529
sg34
S'56'
p530
sg36
S'19'
p531
sg38
S'71'
p532
sg40
S'33'
p533
sg42
S'OKC'
p534
sg44
S'22'
p535
sg46
S'6'
p536
sg48
S'31'
p537
sg50
S'16'
p538
sg52
S'84'
p539
sg54
S'66'
p540
sg56
S'2013-14'
p541
sg58
S'76'
p542
sg60
g377
sg62
S'.369'
p543
sg64
S'598'
p544
sg66
S'0'
p545
sba(isrc.gp1.models.Totals
Totals
p546
(dp547
g8
S'21'
p548
sg10
S'219'
p549
sg12
S'.407'
p550
sg14
S'79'
p551
sg16
S'.379'
p552
sg18
S'83'
p553
sg20
S'460'
p554
sg22
S'SF'
p555
sg24
S'.902'
p556
sg26
S'.511'
p557
sg28
S'NBA'
p558
sg30
S'43'
p559
sg32
S'396'
p560
sg34
S'120'
p561
sg36
S'61'
p562
sg38
S'196'
p563
sg40
S'34'
p564
sg42
S'DET'
p565
sg44
S'78'
p566
sg46
S'4'
p567
sg48
S'78'
p568
sg50
S'55'
p569
sg52
S'177'
p570
sg54
S'175'
p571
sg56
S'2014-15'
p572
sg58
S'161'
p573
sg60
S'49'
p574
sg62
S'.441'
p575
sg64
S'1623'
p576
sg66
S'21'
p577
sba(isrc.gp1.models.Totals
Totals
p578
(dp579
g8
S'3'
p580
sg10
g377
sg12
S'.423'
p581
sg14
g580
sg16
S'.125'
p582
sg18
S'1'
p583
sg20
S'24'
p584
sg22
S'SF'
p585
sg24
S'.500'
p586
sg26
S'.442'
p587
sg28
S'NBA'
p588
sg30
g517
sg32
S'26'
p589
sg34
S'7'
p590
sg36
S'2'
p591
sg38
S'11'
p592
sg40
S'35'
p593
sg42
S'SAC'
p594
sg44
g345
sg46
g545
sg48
S'10'
p595
sg50
g583
sg52
S'18'
p596
sg54
g377
sg56
S'2015-16'
p597
sg58
S'11'
p598
sg60
g591
sg62
S'.556'
p599
sg64
S'86'
p600
sg66
g583
sbasS'_college'
p601
S'University of Connecticut'
p602
sS'_toYear'
p603
S'2016'
p604
sS'_height'
p605
S'6-7'
p606
sS'_active'
p607
I01
sS'_shootingHand'
p608
VRight
p609
sS'_name'
p610
S'Caron Butler'
p611
sS'_per100Possessions'
p612
(lp613
(isrc.gp1.models.Per100Possession
Per100Possession
p614
(dp615
g8
S'2.6'
p616
sg10
S'2.0'
p617
sg12
S'.416'
p618
sS'_offensiveRating'
p619
S'99'
p620
sg14
S'4.1'
p621
sg16
S'.318'
p622
sg18
S'0.7'
p623
sg20
S'23.0'
p624
sg22
S'SF'
p625
sS'_defensiveRating'
p626
S'102'
p627
sg24
S'.824'
p628
sg28
S'NBA'
p629
sg30
S'2.6'
p630
sg32
S'19.7'
p631
sg34
S'4.4'
p632
sg36
S'7.2'
p633
sg38
S'7.6'
p634
sg40
S'22'
p635
sg42
S'MIA'
p636
sg44
S'78'
p637
sg46
S'0.6'
p638
sg48
S'7.6'
p639
sg50
S'5.9'
p640
sg52
S'17.7'
p641
sg54
S'5.0'
p642
sg56
S'2002-03'
p643
sg58
S'8.2'
p644
sg60
S'3.7'
p645
sg62
S'.427'
p646
sg64
S'2858'
p647
sg66
S'78'
p648
sba(isrc.gp1.models.Per100Possession
Per100Possession
p649
(dp650
g8
S'2.5'
p651
sg10
S'1.1'
p652
sg12
S'.380'
p653
sg619
S'94'
p654
sg14
S'3.4'
p655
sg16
S'.238'
p656
sg18
S'0.3'
p657
sg20
S'16.7'
p658
sg22
S'SF'
p659
sg626
S'102'
p660
sg24
S'.756'
p661
sg28
S'NBA'
p662
sg30
S'2.0'
p663
sg32
S'17.0'
p664
sg34
S'4.4'
p665
sg36
S'4.7'
p666
sg38
S'8.8'
p667
sg40
S'23'
p668
sg42
S'MIA'
p669
sg44
S'68'
p670
sg46
S'0.3'
p671
sg48
S'6.2'
p672
sg50
S'3.6'
p673
sg52
S'15.8'
p674
sg54
S'6.3'
p675
sg56
S'2003-04'
p676
sg58
S'6.5'
p677
sg60
S'2.4'
p678
sg62
S'.390'
p679
sg64
S'2030'
p680
sg66
S'56'
p681
sba(isrc.gp1.models.Per100Possession
Per100Possession
p682
(dp683
g8
S'2.8'
p684
sg10
S'2.4'
p685
sg12
S'.445'
p686
sg619
S'110'
p687
sg14
S'2.8'
p688
sg16
S'.304'
p689
sg18
S'0.7'
p690
sg20
S'23.0'
p691
sg22
S'SF'
p692
sg626
S'111'
p693
sg24
S'.862'
p694
sg28
S'NBA'
p695
sg30
S'2.1'
p696
sg32
S'19.1'
p697
sg34
S'4.1'
p698
sg36
S'6.1'
p699
sg38
S'8.7'
p700
sg40
S'24'
p701
sg42
S'LAL'
p702
sg44
S'77'
p703
sg46
S'0.4'
p704
sg48
S'7.8'
p705
sg50
S'5.3'
p706
sg52
S'16.7'
p707
sg54
S'5.9'
p708
sg56
S'2004-05'
p709
sg58
S'8.5'
p710
sg60
S'2.4'
p711
sg62
S'.465'
p712
sg64
S'2746'
p713
sg66
S'77'
p714
sba(isrc.gp1.models.Per100Possession
Per100Possession
p715
(dp716
g8
S'2.2'
p717
sg10
S'2.3'
p718
sg12
S'.455'
p719
sg619
S'107'
p720
sg14
S'3.6'
p721
sg16
S'.342'
p722
sg18
S'0.8'
p723
sg20
S'25.3'
p724
sg22
S'SF'
p725
sg626
S'106'
p726
sg24
S'.870'
p727
sg28
S'NBA'
p728
sg30
S'2.4'
p729
sg32
S'20.9'
p730
sg34
S'4.6'
p731
sg36
S'6.4'
p732
sg38
S'9.0'
p733
sg40
S'25'
p734
sg42
S'WAS'
p735
sg44
S'75'
p736
sg46
S'0.3'
p737
sg48
S'8.7'
p738
sg50
S'5.6'
p739
sg52
S'18.6'
p740
sg54
S'6.8'
p741
sg56
S'2005-06'
p742
sg58
S'9.5'
p743
sg60
S'3.4'
p744
sg62
S'.469'
p745
sg64
S'2708'
p746
sg66
S'54'
p747
sba(isrc.gp1.models.Per100Possession
Per100Possession
p748
(dp749
g8
S'3.0'
p750
sg10
S'1.5'
p751
sg12
S'.463'
p752
sg619
S'108'
p753
sg14
S'4.8'
p754
sg16
S'.250'
p755
sg18
S'0.4'
p756
sg20
S'24.8'
p757
sg22
S'SF'
p758
sg626
S'109'
p759
sg24
S'.863'
p760
sg28
S'NBA'
p761
sg30
S'2.8'
p762
sg32
S'20.1'
p763
sg34
S'3.9'
p764
sg36
S'6.8'
p765
sg38
S'9.6'
p766
sg40
S'26'
p767
sg42
S'WAS'
p768
sg44
S'63'
p769
sg46
S'0.4'
p770
sg48
S'8.9'
p771
sg50
S'5.8'
p772
sg52
S'18.6'
p773
sg54
S'6.6'
p774
sg56
S'2006-07'
p775
sg58
S'9.3'
p776
sg60
S'3.7'
p777
sg62
S'.480'
p778
sg64
S'2474'
p779
sg66
S'63'
p780
sba(isrc.gp1.models.Per100Possession
Per100Possession
p781
(dp782
g8
S'2.2'
p783
sg10
S'4.3'
p784
sg12
S'.466'
p785
sg619
S'113'
p786
sg14
S'6.6'
p787
sg16
S'.357'
p788
sg18
S'1.5'
p789
sg20
S'27.4'
p790
sg22
S'SF'
p791
sg626
S'107'
p792
sg24
S'.901'
p793
sg28
S'NBA'
p794
sg30
S'3.0'
p795
sg32
S'21.9'
p796
sg34
S'3.7'
p797
sg36
S'6.1'
p798
sg38
S'9.0'
p799
sg40
S'27'
p800
sg42
S'WAS'
p801
sg44
S'58'
p802
sg46
S'0.5'
p803
sg48
S'8.6'
p804
sg50
S'5.5'
p805
sg52
S'17.6'
p806
sg54
S'6.8'
p807
sg56
S'2007-08'
p808
sg58
S'10.2'
p809
sg60
S'3.5'
p810
sg62
S'.492'
p811
sg64
S'2314'
p812
sg66
S'58'
p813
sba(isrc.gp1.models.Per100Possession
Per100Possession
p814
(dp815
g8
S'2.4'
p816
sg10
S'4.3'
p817
sg12
S'.453'
p818
sg619
S'108'
p819
sg14
S'5.9'
p820
sg16
S'.310'
p821
sg18
S'1.3'
p822
sg20
S'28.4'
p823
sg22
S'SG'
p824
sg626
S'113'
p825
sg24
S'.858'
p826
sg28
S'NBA'
p827
sg30
S'2.2'
p828
sg32
S'22.1'
p829
sg34
S'3.4'
p830
sg36
S'8.2'
p831
sg38
S'8.4'
p832
sg40
S'28'
p833
sg42
S'WAS'
p834
sg44
S'67'
p835
sg46
S'0.4'
p836
sg48
S'8.7'
p837
sg50
S'7.0'
p838
sg52
S'17.9'
p839
sg54
S'6.0'
p840
sg56
S'2008-09'
p841
sg58
S'10.0'
p842
sg60
S'4.3'
p843
sg62
S'.487'
p844
sg64
S'2585'
p845
sg66
S'67'
p846
sba(isrc.gp1.models.Per100Possession
Per100Possession
p847
(dp848
g8
S'2.0'
p849
sg10
S'2.7'
p850
sg12
S'.428'
p851
sg619
S'101'
p852
sg14
S'2.9'
p853
sg16
S'.290'
p854
sg18
S'0.8'
p855
sg20
S'22.6'
p856
sg22
S'SF-SG'
p857
sg626
S'108'
p858
sg24
S'.838'
p859
sg28
S'NBA'
p860
sg30
S'2.2'
p861
sg32
S'19.7'
p862
sg34
S'3.6'
p863
sg36
S'5.9'
p864
sg38
S'8.6'
p865
sg40
S'29'
p866
sg42
S'TOT'
p867
sg44
S'74'
p868
sg46
S'0.5'
p869
sg48
S'7.7'
p870
sg50
S'5.0'
p871
sg52
S'17.0'
p872
sg54
S'6.7'
p873
sg56
S'2009-10'
p874
sg58
S'8.4'
p875
sg60
S'3.0'
p876
sg62
S'.450'
p877
sg64
S'2783'
p878
sg66
S'74'
p879
sba(isrc.gp1.models.Per100Possession
Per100Possession
p880
(dp881
g8
S'1.9'
p882
sg10
S'2.7'
p883
sg12
S'.422'
p884
sg619
S'101'
p885
sg14
S'3.0'
p886
sg16
S'.263'
p887
sg18
S'0.7'
p888
sg20
S'22.5'
p889
sg22
S'SF'
p890
sg626
S'109'
p891
sg24
S'.877'
p892
sg28
S'NBA'
p893
sg30
S'1.9'
p894
sg32
S'19.6'
p895
sg34
S'3.6'
p896
sg36
S'6.0'
p897
sg38
S'8.9'
p898
sg40
S'29'
p899
sg42
S'WAS'
p900
sg44
S'47'
p901
sg46
S'0.4'
p902
sg48
S'7.6'
p903
sg50
S'5.2'
p904
sg52
S'16.9'
p905
sg54
S'7.0'
p906
sg56
S'2009-10'
p907
sg58
S'8.3'
p908
sg60
S'3.2'
p909
sg62
S'.447'
p910
sg64
S'1853'
p911
sg66
S'47'
p912
sba(isrc.gp1.models.Per100Possession
Per100Possession
p913
(dp914
g8
S'2.0'
p915
sg10
S'2.8'
p916
sg12
S'.440'
p917
sg619
S'101'
p918
sg14
S'2.7'
p919
sg16
S'.340'
p920
sg18
S'0.9'
p921
sg20
S'22.9'
p922
sg22
S'SG'
p923
sg626
S'105'
p924
sg24
S'.760'
p925
sg28
S'NBA'
p926
sg30
S'2.7'
p927
sg32
S'19.9'
p928
sg34
S'3.7'
p929
sg36
S'5.8'
p930
sg38
S'8.1'
p931
sg40
S'29'
p932
sg42
S'DAL'
p933
sg44
S'27'
p934
sg46
S'0.5'
p935
sg48
S'7.8'
p936
sg50
S'4.4'
p937
sg52
S'17.1'
p938
sg54
S'6.1'
p939
sg56
S'2009-10'
p940
sg58
S'8.8'
p941
sg60
S'2.6'
p942
sg62
S'.456'
p943
sg64
S'930'
p944
sg66
S'27'
p945
sba(isrc.gp1.models.Per100Possession
Per100Possession
p946
(dp947
g8
S'1.3'
p948
sg10
S'3.9'
p949
sg12
S'.450'
p950
sg619
S'100'
p951
sg14
S'2.8'
p952
sg16
S'.431'
p953
sg18
S'1.7'
p954
sg20
S'26.4'
p955
sg22
S'SF'
p956
sg626
S'106'
p957
sg24
S'.773'
p958
sg28
S'NBA'
p959
sg30
S'1.7'
p960
sg32
S'22.9'
p961
sg34
S'3.6'
p962
sg36
S'5.3'
p963
sg38
S'7.2'
p964
sg40
S'30'
p965
sg42
S'DAL'
p966
sg44
S'29'
p967
sg46
S'0.5'
p968
sg48
S'8.6'
p969
sg50
S'4.1'
p970
sg52
S'19.0'
p971
sg54
S'5.8'
p972
sg56
S'2010-11'
p973
sg58
S'10.3'
p974
sg60
S'3.0'
p975
sg62
S'.454'
p976
sg64
S'867'
p977
sg66
S'29'
p978
sba(isrc.gp1.models.Per100Possession
Per100Possession
p979
(dp980
g8
S'1.3'
p981
sg10
S'7.4'
p982
sg12
S'.407'
p983
sg619
S'102'
p984
sg14
S'2.2'
p985
sg16
S'.358'
p986
sg18
S'2.6'
p987
sg20
S'21.7'
p988
sg22
S'SF'
p989
sg626
S'108'
p990
sg24
S'.813'
p991
sg28
S'NBA'
p992
sg30
S'1.5'
p993
sg32
S'20.3'
p994
sg34
S'3.5'
p995
sg36
S'3.1'
p996
sg38
S'6.6'
p997
sg40
S'31'
p998
sg42
S'LAC'
p999
sg44
S'63'
p1000
sg46
S'0.3'
p1001
sg48
S'5.6'
p1002
sg50
S'2.5'
p1003
sg52
S'12.9'
p1004
sg54
S'5.4'
p1005
sg56
S'2011-12'
p1006
sg58
S'8.3'
p1007
sg60
S'2.2'
p1008
sg62
S'.435'
p1009
sg64
S'1871'
p1010
sg66
S'63'
p1011
sba(isrc.gp1.models.Per100Possession
Per100Possession
p1012
(dp1013
g8
S'1.1'
p1014
sg10
S'9.2'
p1015
sg12
S'.424'
p1016
sg619
S'107'
p1017
sg14
S'2.2'
p1018
sg16
S'.388'
p1019
sg18
S'3.6'
p1020
sg20
S'22.8'
p1021
sg22
S'SF'
p1022
sg626
S'107'
p1023
sg24
S'.833'
p1024
sg28
S'NBA'
p1025
sg30
S'1.4'
p1026
sg32
S'20.2'
p1027
sg34
S'3.9'
p1028
sg36
S'2.5'
p1029
sg38
S'6.3'
p1030
sg40
S'32'
p1031
sg42
S'LAC'
p1032
sg44
S'78'
p1033
sg46
S'0.3'
p1034
sg48
S'5.0'
p1035
sg50
S'2.1'
p1036
sg52
S'10.9'
p1037
sg54
S'5.1'
p1038
sg56
S'2012-13'
p1039
sg58
S'8.5'
p1040
sg60
S'2.0'
p1041
sg62
S'.454'
p1042
sg64
S'1879'
p1043
sg66
S'78'
p1044
sba(isrc.gp1.models.Per100Possession
Per100Possession
p1045
(dp1046
g8
S'0.8'
p1047
sg10
S'9.0'
p1048
sg12
S'.394'
p1049
sg619
S'102'
p1050
sg14
S'3.0'
p1051
sg16
S'.394'
p1052
sg18
S'3.6'
p1053
sg20
S'21.3'
p1054
sg22
S'SF'
p1055
sg626
S'108'
p1056
sg24
S'.840'
p1057
sg28
S'NBA'
p1058
sg30
S'1.7'
p1059
sg32
S'19.6'
p1060
sg34
S'4.3'
p1061
sg36
S'2.7'
p1062
sg38
S'8.3'
p1063
sg40
S'33'
p1064
sg42
S'TOT'
p1065
sg44
S'56'
p1066
sg46
S'0.6'
p1067
sg48
S'4.2'
p1068
sg50
S'2.3'
p1069
sg52
S'10.5'
p1070
sg54
S'7.5'
p1071
sg56
S'2013-14'
p1072
sg58
S'7.7'
p1073
sg60
S'2.2'
p1074
sg62
S'.395'
p1075
sg64
S'1419'
p1076
sg66
S'13'
p1077
sba(isrc.gp1.models.Per100Possession
Per100Possession
p1078
(dp1079
g8
S'1.0'
p1080
sg10
S'9.4'
p1081
sg12
S'.387'
p1082
sg619
S'96'
p1083
sg14
S'3.6'
p1084
sg16
S'.361'
p1085
sg18
S'3.4'
p1086
sg20
S'23.8'
p1087
sg22
S'SF'
p1088
sg626
S'110'
p1089
sg24
S'.839'
p1090
sg28
S'NBA'
p1091
sg30
S'1.5'
p1092
sg32
S'22.6'
p1093
sg34
S'4.1'
p1094
sg36
S'3.6'
p1095
sg38
S'10.1'
p1096
sg40
S'33'
p1097
sg42
S'MIL'
p1098
sg44
S'34'
p1099
sg46
S'0.7'
p1100
sg48
S'5.4'
p1101
sg50
S'3.0'
p1102
sg52
S'13.2'
p1103
sg54
S'9.0'
p1104
sg56
S'2013-14'
p1105
sg58
S'8.7'
p1106
sg60
S'3.3'
p1107
sg62
S'.406'
p1108
sg64
S'821'
p1109
sg66
S'13'
p1110
sba(isrc.gp1.models.Per100Possession
Per100Possession
p1111
(dp1112
g8
S'0.4'
p1113
sg10
S'8.6'
p1114
sg12
S'.409'
p1115
sg619
S'115'
p1116
sg14
S'2.2'
p1117
sg16
S'.441'
p1118
sg18
S'3.8'
p1119
sg20
S'17.9'
p1120
sg22
S'SF'
p1121
sg626
S'105'
p1122
sg24
S'.842'
p1123
sg28
S'NBA'
p1124
sg30
S'2.0'
p1125
sg32
S'15.6'
p1126
sg34
S'4.7'
p1127
sg36
S'1.6'
p1128
sg38
S'6.0'
p1129
sg40
S'33'
p1130
sg42
S'OKC'
p1131
sg44
S'22'
p1132
sg46
S'0.5'
p1133
sg48
S'2.6'
p1134
sg50
S'1.3'
p1135
sg52
S'7.1'
p1136
sg54
S'5.6'
p1137
sg56
S'2013-14'
p1138
sg58
S'6.4'
p1139
sg60
S'0.7'
p1140
sg62
S'.369'
p1141
sg64
S'598'
p1142
sg66
g545
sba(isrc.gp1.models.Per100Possession
Per100Possession
p1143
(dp1144
g8
S'0.7'
p1145
sg10
S'7.0'
p1146
sg12
S'.407'
p1147
sg619
S'108'
p1148
sg14
S'2.5'
p1149
sg16
S'.379'
p1150
sg18
S'2.6'
p1151
sg20
S'14.7'
p1152
sg22
S'SF'
p1153
sg626
S'109'
p1154
sg24
S'.902'
p1155
sg28
S'NBA'
p1156
sg30
S'1.4'
p1157
sg32
S'12.6'
p1158
sg34
S'3.8'
p1159
sg36
S'1.9'
p1160
sg38
S'6.2'
p1161
sg40
S'34'
p1162
sg42
S'DET'
p1163
sg44
S'78'
p1164
sg46
S'0.1'
p1165
sg48
S'2.5'
p1166
sg50
S'1.8'
p1167
sg52
S'5.6'
p1168
sg54
S'5.6'
p1169
sg56
S'2014-15'
p1170
sg58
S'5.1'
p1171
sg60
S'1.6'
p1172
sg62
S'.441'
p1173
sg64
S'1623'
p1174
sg66
S'21'
p1175
sba(isrc.gp1.models.Per100Possession
Per100Possession
p1176
(dp1177
g8
S'1.7'
p1178
sg10
S'4.5'
p1179
sg12
S'.423'
p1180
sg619
S'94'
p1181
sg14
S'1.7'
p1182
sg16
S'.125'
p1183
sg18
S'0.6'
p1184
sg20
S'13.4'
p1185
sg22
S'SF'
p1186
sg626
S'107'
p1187
sg24
S'.500'
p1188
sg28
S'NBA'
p1189
sg30
S'2.8'
p1190
sg32
S'14.5'
p1191
sg34
S'3.9'
p1192
sg36
S'1.1'
p1193
sg38
S'6.2'
p1194
sg40
S'35'
p1195
sg42
S'SAC'
p1196
sg44
g345
sg46
S'0.0'
p1197
sg48
S'5.6'
p1198
sg50
S'0.6'
p1199
sg52
S'10.1'
p1200
sg54
S'4.5'
p1201
sg56
S'2015-16'
p1202
sg58
S'6.2'
p1203
sg60
S'1.1'
p1204
sg62
S'.556'
p1205
sg64
S'86'
p1206
sg66
g583
sbasS'_advanced'
p1207
(lp1208
(isrc.gp1.models.Advanced
Advanced
p1209
(dp1210
S'_offensiveReboundPercentage'
p1211
S'5.3'
p1212
sS'_turnOverPercentage'
p1213
S'13.8'
p1214
sS'_winSharesPer48Minutes'
p1215
S'.086'
p1216
sS'_stealPercentage'
p1217
S'2.6'
p1218
sS'_usagePercentage'
p1219
S'22.9'
p1220
sS'_totalReboundsPercentage'
p1221
S'8.0'
p1222
sS'_defensiveBoxPlusMinus'
p1223
S'1.6'
p1224
sg22
S'SF'
p1225
sS'_valueOverReplacementPlayer'
p1226
S'2.7'
p1227
sS'_trueShootingPercentage'
p1228
S'.502'
p1229
sS'_defensiveReboundPercentage'
p1230
S'10.9'
p1231
sS'_freeThrowsAttempRate'
p1232
S'.363'
p1233
sS'_threePointsAttempRate'
p1234
S'.104'
p1235
sg28
S'NBA'
p1236
sS'_offensiveBoxPlusMinues'
p1237
S'0.1'
p1238
sS'_assistPercentage'
p1239
S'14.1'
p1240
sS'_defensiveWinShares'
p1241
S'3.6'
p1242
sg40
S'22'
p1243
sg42
S'MIA'
p1244
sg44
S'78'
p1245
sS'_blockPercentage'
p1246
S'0.9'
p1247
sS'_playerEfficiencyRating'
p1248
S'15.1'
p1249
sS'_offensiveWinShares'
p1250
S'1.6'
p1251
sg64
S'2858'
p1252
sS'_boxPlusMinus'
p1253
S'1.7'
p1254
sg56
S'2002-03'
p1255
sS'_winShares'
p1256
S'5.1'
p1257
sba(isrc.gp1.models.Advanced
Advanced
p1258
(dp1259
g1211
S'5.2'
p1260
sg1213
S'11.4'
p1261
sg1215
S'.050'
p1262
sg1217
S'2.0'
p1263
sg1219
S'18.5'
p1264
sg1221
S'9.4'
p1265
sg1223
S'0.7'
p1266
sg22
S'SF'
p1267
sg1226
S'-0.1'
p1268
sg1228
S'.440'
p1269
sg1230
S'13.6'
p1270
sg1232
S'.279'
p1271
sg1234
S'.067'
p1272
sg28
S'NBA'
p1273
sg1237
S'-2.8'
p1274
sg1239
S'10.8'
p1275
sg1241
S'2.4'
p1276
sg40
S'23'
p1277
sg42
S'MIA'
p1278
sg44
S'68'
p1279
sg1246
S'0.5'
p1280
sg1248
S'10.7'
p1281
sg1250
S'-0.2'
p1282
sg64
S'2030'
p1283
sg1253
S'-2.1'
p1284
sg56
S'2003-04'
p1285
sg1256
S'2.1'
p1286
sba(isrc.gp1.models.Advanced
Advanced
p1287
(dp1288
g1211
S'6.0'
p1289
sg1213
S'9.9'
p1290
sg1215
S'.093'
p1291
sg1217
S'2.1'
p1292
sg1219
S'20.7'
p1293
sg1221
S'9.2'
p1294
sg1223
S'-0.7'
p1295
sg22
S'SF'
p1296
sg1226
S'1.2'
p1297
sg1228
S'.528'
p1298
sg1230
S'12.4'
p1299
sg1232
S'.322'
p1300
sg1234
S'.126'
p1301
sg28
S'NBA'
p1302
sg1237
S'0.4'
p1303
sg1239
S'9.3'
p1304
sg1241
S'1.2'
p1305
sg40
S'24'
p1306
sg42
S'LAL'
p1307
sg44
S'77'
p1308
sg1246
S'0.6'
p1309
sg1248
S'15.8'
p1310
sg1250
S'4.1'
p1311
sg64
S'2746'
p1312
sg1253
S'-0.2'
p1313
sg56
S'2004-05'
p1314
sg1256
S'5.3'
p1315
sba(isrc.gp1.models.Advanced
Advanced
p1316
(dp1317
g1211
S'4.8'
p1318
sg1213
S'12.4'
p1319
sg1215
S'.112'
p1320
sg1217
S'2.4'
p1321
sg1219
S'23.2'
p1322
sg1221
S'10.0'
p1323
sg1223
S'0.3'
p1324
sg22
S'SF'
p1325
sg1226
S'1.9'
p1326
sg1228
S'.535'
p1327
sg1230
S'15.6'
p1328
sg1232
S'.306'
p1329
sg1234
S'.110'
p1330
sg28
S'NBA'
p1331
sg1237
S'0.5'
p1332
sg1239
S'12.1'
p1333
sg1241
S'2.8'
p1334
sg40
S'25'
p1335
sg42
S'WAS'
p1336
sg44
S'75'
p1337
sg1246
S'0.5'
p1338
sg1248
S'17.0'
p1339
sg1250
S'3.5'
p1340
sg64
S'2708'
p1341
sg1253
S'0.8'
p1342
sg56
S'2005-06'
p1343
sg1256
S'6.3'
p1344
sba(isrc.gp1.models.Advanced
Advanced
p1345
(dp1346
g1211
S'6.6'
p1347
sg1213
S'13.9'
p1348
sg1215
S'.103'
p1349
sg1217
S'2.8'
p1350
sg1219
S'23.1'
p1351
sg1221
S'10.8'
p1352
sg1223
S'0.5'
p1353
sg22
S'SF'
p1354
sg1226
S'2.5'
p1355
sg1228
S'.537'
p1356
sg1230
S'15.3'
p1357
sg1232
S'.336'
p1358
sg1234
S'.074'
p1359
sg28
S'NBA'
p1360
sg1237
S'1.4'
p1361
sg1239
S'15.9'
p1362
sg1241
S'1.9'
p1363
sg40
S'26'
p1364
sg42
S'WAS'
p1365
sg44
S'63'
p1366
sg1246
S'0.5'
p1367
sg1248
S'18.3'
p1368
sg1250
S'3.4'
p1369
sg64
S'2474'
p1370
sg1253
S'1.9'
p1371
sg56
S'2006-07'
p1372
sg1256
S'5.3'
p1373
sba(isrc.gp1.models.Advanced
Advanced
p1374
(dp1375
g1211
S'4.6'
p1376
sg1213
S'12.4'
p1377
sg1215
S'.150'
p1378
sg1217
S'3.0'
p1379
sg1219
S'24.0'
p1380
sg1221
S'9.8'
p1381
sg1223
S'1.0'
p1382
sg22
S'SF'
p1383
sg1226
S'3.9'
p1384
sg1228
S'.558'
p1385
sg1230
S'15.4'
p1386
sg1232
S'.278'
p1387
sg1234
S'.196'
p1388
sg28
S'NBA'
p1389
sg1237
S'3.7'
p1390
sg1239
S'21.9'
p1391
sg1241
S'2.4'
p1392
sg40
S'27'
p1393
sg42
S'WAS'
p1394
sg44
S'58'
p1395
sg1246
S'0.7'
p1396
sg1248
S'20.7'
p1397
sg1250
S'4.8'
p1398
sg64
S'2314'
p1399
sg1253
S'4.7'
p1400
sg56
S'2007-08'
p1401
sg1256
S'7.2'
p1402
sba(isrc.gp1.models.Advanced
Advanced
p1403
(dp1404
g1211
S'5.2'
p1405
sg1213
S'14.3'
p1406
sg1215
S'.083'
p1407
sg1217
S'2.2'
p1408
sg1219
S'25.9'
p1409
sg1221
S'9.4'
p1410
sg1223
S'-0.8'
p1411
sg22
S'SG'
p1412
sg1226
S'2.5'
p1413
sg1228
S'.552'
p1414
sg1230
S'13.8'
p1415
sg1232
S'.371'
p1416
sg1234
S'.194'
p1417
sg28
S'NBA'
p1418
sg1237
S'2.6'
p1419
sg1239
S'19.7'
p1420
sg1241
S'1.1'
p1421
sg40
S'28'
p1422
sg42
S'WAS'
p1423
sg44
S'67'
p1424
sg1246
S'0.6'
p1425
sg1248
S'18.8'
p1426
sg1250
S'3.4'
p1427
sg64
S'2585'
p1428
sg1253
S'1.8'
p1429
sg56
S'2008-09'
p1430
sg1256
S'4.5'
p1431
sba(isrc.gp1.models.Advanced
Advanced
p1432
(dp1433
g1211
S'4.3'
p1434
sg1213
S'11.9'
p1435
sg1215
S'.061'
p1436
sg1217
S'2.2'
p1437
sg1219
S'22.1'
p1438
sg1221
S'9.5'
p1439
sg1223
S'0.4'
p1440
sg22
S'SF-SG'
p1441
sg1226
S'1.0'
p1442
sg1228
S'.507'
p1443
sg1230
S'14.9'
p1444
sg1232
S'.300'
p1445
sg1234
S'.138'
p1446
sg28
S'NBA'
p1447
sg1237
S'-1.1'
p1448
sg1239
S'9.2'
p1449
sg1241
S'2.9'
p1450
sg40
S'29'
p1451
sg42
S'TOT'
p1452
sg44
S'74'
p1453
sg1246
S'0.7'
p1454
sg1248
S'13.7'
p1455
sg1250
S'0.6'
p1456
sg64
S'2783'
p1457
sg1253
S'-0.6'
p1458
sg56
S'2009-10'
p1459
sg1256
S'3.5'
p1460
sba(isrc.gp1.models.Advanced
Advanced
p1461
(dp1462
g1211
S'4.2'
p1463
sg1213
S'12.6'
p1464
sg1215
S'.054'
p1465
sg1217
S'1.9'
p1466
sg1219
S'22.0'
p1467
sg1221
S'9.8'
p1468
sg1223
S'0.3'
p1469
sg22
S'SF'
p1470
sg1226
S'0.6'
p1471
sg1228
S'.506'
p1472
sg1230
S'15.6'
p1473
sg1232
S'.304'
p1474
sg1234
S'.137'
p1475
sg28
S'NBA'
p1476
sg1237
S'-1.0'
p1477
sg1239
S'9.6'
p1478
sg1241
S'1.7'
p1479
sg40
S'29'
p1480
sg42
S'WAS'
p1481
sg44
S'47'
p1482
sg1246
S'0.6'
p1483
sg1248
S'13.5'
p1484
sg1250
S'0.4'
p1485
sg64
S'1853'
p1486
sg1253
S'-0.8'
p1487
sg56
S'2009-10'
p1488
sg1256
S'2.1'
p1489
sba(isrc.gp1.models.Advanced
Advanced
p1490
(dp1491
g1211
S'4.5'
p1492
sg1213
S'10.5'
p1493
sg1215
S'.075'
p1494
sg1217
S'2.7'
p1495
sg1219
S'22.3'
p1496
sg1221
S'8.9'
p1497
sg1223
S'0.8'
p1498
sg22
S'SG'
p1499
sg1226
S'0.4'
p1500
sg1228
S'.509'
p1501
sg1230
S'13.3'
p1502
sg1232
S'.291'
p1503
sg1234
S'.140'
p1504
sg28
S'NBA'
p1505
sg1237
S'-1.1'
p1506
sg1239
S'8.5'
p1507
sg1241
S'1.2'
p1508
sg40
S'29'
p1509
sg42
S'DAL'
p1510
sg44
S'27'
p1511
sg1246
S'0.7'
p1512
sg1248
S'14.2'
p1513
sg1250
S'0.2'
p1514
sg64
S'930'
p1515
sg1253
S'-0.3'
p1516
sg56
S'2009-10'
p1517
sg1256
S'1.4'
p1518
sba(isrc.gp1.models.Advanced
Advanced
p1519
(dp1520
g1211
S'3.1'
p1521
sg1213
S'10.5'
p1522
sg1215
S'.067'
p1523
sg1217
S'1.7'
p1524
sg1219
S'25.1'
p1525
sg1221
S'8.0'
p1526
sg1223
S'0.0'
p1527
sg22
S'SF'
p1528
sg1226
S'0.1'
p1529
sg1228
S'.523'
p1530
sg1230
S'12.5'
p1531
sg1232
S'.233'
p1532
sg1234
S'.172'
p1533
sg28
S'NBA'
p1534
sg1237
S'-1.4'
p1535
sg1239
S'9.1'
p1536
sg1241
S'1.0'
p1537
sg40
S'30'
p1538
sg42
S'DAL'
p1539
sg44
S'29'
p1540
sg1246
S'0.7'
p1541
sg1248
S'14.2'
p1542
sg1250
S'0.2'
p1543
sg64
S'867'
p1544
sg1253
S'-1.4'
p1545
sg56
S'2010-11'
p1546
sg1256
S'1.2'
p1547
sba(isrc.gp1.models.Advanced
Advanced
p1548
(dp1549
g1211
S'2.8'
p1550
sg1213
S'9.3'
p1551
sg1215
S'.059'
p1552
sg1217
S'1.5'
p1553
sg1219
S'20.4'
p1554
sg1221
S'7.3'
p1555
sg1223
S'-1.5'
p1556
sg22
S'SF'
p1557
sg1226
S'-0.1'
p1558
sg1228
S'.501'
p1559
sg1230
S'12.0'
p1560
sg1232
S'.152'
p1561
sg1234
S'.365'
p1562
sg28
S'NBA'
p1563
sg1237
S'-0.7'
p1564
sg1239
S'6.8'
p1565
sg1241
S'1.1'
p1566
sg40
S'31'
p1567
sg42
S'LAC'
p1568
sg44
S'63'
p1569
sg1246
S'0.4'
p1570
sg1248
S'11.7'
p1571
sg1250
S'1.2'
p1572
sg64
S'1871'
p1573
sg1253
S'-2.2'
p1574
sg56
S'2011-12'
p1575
sg1256
S'2.3'
p1576
sba(isrc.gp1.models.Advanced
Advanced
p1577
(dp1578
g1211
S'2.6'
p1579
sg1213
S'8.7'
p1580
sg1215
S'.091'
p1581
sg1217
S'1.4'
p1582
sg1219
S'20.2'
p1583
sg1221
S'7.1'
p1584
sg1223
S'-1.9'
p1585
sg22
S'SF'
p1586
sg1226
S'0.2'
p1587
sg1228
S'.535'
p1588
sg1230
S'11.4'
p1589
sg1232
S'.125'
p1590
sg1234
S'.458'
p1591
sg28
S'NBA'
p1592
sg1237
S'0.3'
p1593
sg1239
S'6.5'
p1594
sg1241
S'1.6'
p1595
sg40
S'32'
p1596
sg42
S'LAC'
p1597
sg44
S'78'
p1598
sg1246
S'0.5'
p1599
sg1248
S'12.4'
p1600
sg1250
S'1.9'
p1601
sg64
S'1879'
p1602
sg1253
S'-1.6'
p1603
sg56
S'2012-13'
p1604
sg1256
S'3.6'
p1605
sba(isrc.gp1.models.Advanced
Advanced
p1606
(dp1607
g1211
S'1.7'
p1608
sg1213
S'9.5'
p1609
sg1215
S'.062'
p1610
sg1217
S'1.7'
p1611
sg1219
S'20.1'
p1612
sg1221
S'9.2'
p1613
sg1223
S'-1.4'
p1614
sg22
S'SF'
p1615
sg1226
S'0.0'
p1616
sg1228
S'.512'
p1617
sg1230
S'16.8'
p1618
sg1232
S'.139'
p1619
sg1234
S'.461'
p1620
sg28
S'NBA'
p1621
sg1237
S'-0.7'
p1622
sg1239
S'9.6'
p1623
sg1241
S'1.2'
p1624
sg40
S'33'
p1625
sg42
S'TOT'
p1626
sg44
S'56'
p1627
sg1246
S'1.0'
p1628
sg1248
S'12.2'
p1629
sg1250
S'0.6'
p1630
sg64
S'1419'
p1631
sg1253
S'-2.1'
p1632
sg56
S'2013-14'
p1633
sg1256
S'1.8'
p1634
sba(isrc.gp1.models.Advanced
Advanced
p1635
(dp1636
g1211
S'2.2'
p1637
sg1213
S'12.1'
p1638
sg1215
S'.014'
p1639
sg1217
S'1.5'
p1640
sg1219
S'23.7'
p1641
sg1221
S'11.0'
p1642
sg1223
S'-2.1'
p1643
sg22
S'SF'
p1644
sg1226
S'-0.4'
p1645
sg1228
S'.494'
p1646
sg1230
S'20.5'
p1647
sg1232
S'.158'
p1648
sg1234
S'.415'
p1649
sg28
S'NBA'
p1650
sg1237
S'-1.7'
p1651
sg1239
S'11.9'
p1652
sg1241
S'0.5'
p1653
sg40
S'33'
p1654
sg42
S'MIL'
p1655
sg44
S'34'
p1656
sg1246
S'1.1'
p1657
sg1248
S'12.4'
p1658
sg1250
S'-0.2'
p1659
sg64
S'821'
p1660
sg1253
S'-3.9'
p1661
sg56
S'2013-14'
p1662
sg1256
S'0.2'
p1663
sba(isrc.gp1.models.Advanced
Advanced
p1664
(dp1665
g1211
S'1.0'
p1666
sg1213
S'4.0'
p1667
sg1215
S'.127'
p1668
sg1217
S'2.0'
p1669
sg1219
S'15.0'
p1670
sg1221
S'6.7'
p1671
sg1223
S'-0.4'
p1672
sg22
S'SF'
p1673
sg1226
S'0.3'
p1674
sg1228
S'.548'
p1675
sg1230
S'11.9'
p1676
sg1232
S'.102'
p1677
sg1234
S'.548'
p1678
sg28
S'NBA'
p1679
sg1237
S'0.6'
p1680
sg1239
S'6.4'
p1681
sg1241
S'0.7'
p1682
sg40
S'33'
p1683
sg42
S'OKC'
p1684
sg44
S'22'
p1685
sg1246
S'0.8'
p1686
sg1248
S'11.9'
p1687
sg1250
S'0.9'
p1688
sg64
S'598'
p1689
sg1253
S'0.2'
p1690
sg56
S'2013-14'
p1691
sg1256
S'1.6'
p1692
sba(isrc.gp1.models.Advanced
Advanced
p1693
(dp1694
g1211
S'1.4'
p1695
sg1213
S'10.4'
p1696
sg1215
S'.070'
p1697
sg1217
S'1.4'
p1698
sg1219
S'12.9'
p1699
sg1221
S'6.6'
p1700
sg1223
S'-0.5'
p1701
sg22
S'SF'
p1702
sg1226
S'0.2'
p1703
sg1228
S'.544'
p1704
sg1230
S'12.2'
p1705
sg1232
S'.154'
p1706
sg1234
S'.553'
p1707
sg28
S'NBA'
p1708
sg1237
S'-1.0'
p1709
sg1239
S'7.3'
p1710
sg1241
S'1.0'
p1711
sg40
S'34'
p1712
sg42
S'DET'
p1713
sg44
S'78'
p1714
sg1246
S'0.2'
p1715
sg1248
S'9.3'
p1716
sg1250
S'1.3'
p1717
sg64
S'1623'
p1718
sg1253
S'-1.5'
p1719
sg56
S'2014-15'
p1720
sg1256
S'2.4'
p1721
sba(isrc.gp1.models.Advanced
Advanced
p1722
(dp1723
g1211
S'3.8'
p1724
sg1213
S'6.9'
p1725
sg1215
S'.026'
p1726
sg1217
S'2.8'
p1727
sg1219
S'14.2'
p1728
sg1221
S'6.9'
p1729
sg1223
S'-0.6'
p1730
sg22
S'SF'
p1731
sg1226
S'0.0'
p1732
sg1228
S'.446'
p1733
sg1230
S'9.9'
p1734
sg1232
S'.077'
p1735
sg1234
S'.308'
p1736
sg28
S'NBA'
p1737
sg1237
S'-2.9'
p1738
sg1239
S'5.0'
p1739
sg1241
S'0.1'
p1740
sg40
S'35'
p1741
sg42
S'SAC'
p1742
sg44
g345
sg1246
S'0.0'
p1743
sg1248
S'8.5'
p1744
sg1250
S'0.0'
p1745
sg64
S'86'
p1746
sg1253
S'-3.4'
p1747
sg56
S'2015-16'
p1748
sg1256
S'0.0'
p1749
sbasS'_per36Minutes'
p1750
(lp1751
(isrc.gp1.models.Per36Minutes
Per36Minutes
p1752
(dp1753
g8
S'1.7'
p1754
sg10
S'1.3'
p1755
sg12
S'.416'
p1756
sg14
S'2.7'
p1757
sg16
S'.318'
p1758
sg18
S'0.4'
p1759
sg20
S'15.1'
p1760
sg22
S'SF'
p1761
sg24
S'.824'
p1762
sg28
S'NBA'
p1763
sg30
S'1.7'
p1764
sg32
S'13.0'
p1765
sg34
S'2.9'
p1766
sg36
S'4.7'
p1767
sg38
S'5.0'
p1768
sg40
S'22'
p1769
sg42
S'MIA'
p1770
sg44
S'78'
p1771
sg46
S'0.4'
p1772
sg48
S'5.0'
p1773
sg50
S'3.9'
p1774
sg52
S'11.7'
p1775
sg54
S'3.3'
p1776
sg56
S'2002-03'
p1777
sg58
S'5.4'
p1778
sg60
S'2.4'
p1779
sg62
S'.427'
p1780
sg64
S'2858'
p1781
sg66
S'78'
p1782
sba(isrc.gp1.models.Per36Minutes
Per36Minutes
p1783
(dp1784
g8
S'1.6'
p1785
sg10
S'0.7'
p1786
sg12
S'.380'
p1787
sg14
S'2.2'
p1788
sg16
S'.238'
p1789
sg18
S'0.2'
p1790
sg20
S'11.0'
p1791
sg22
S'SF'
p1792
sg24
S'.756'
p1793
sg28
S'NBA'
p1794
sg30
S'1.3'
p1795
sg32
S'11.2'
p1796
sg34
S'2.9'
p1797
sg36
S'3.1'
p1798
sg38
S'5.8'
p1799
sg40
S'23'
p1800
sg42
S'MIA'
p1801
sg44
S'68'
p1802
sg46
S'0.2'
p1803
sg48
S'4.1'
p1804
sg50
S'2.4'
p1805
sg52
S'10.4'
p1806
sg54
S'4.1'
p1807
sg56
S'2003-04'
p1808
sg58
S'4.3'
p1809
sg60
S'1.6'
p1810
sg62
S'.390'
p1811
sg64
S'2030'
p1812
sg66
S'56'
p1813
sba(isrc.gp1.models.Per36Minutes
Per36Minutes
p1814
(dp1815
g8
S'1.9'
p1816
sg10
S'1.6'
p1817
sg12
S'.445'
p1818
sg14
S'1.9'
p1819
sg16
S'.304'
p1820
sg18
S'0.5'
p1821
sg20
S'15.7'
p1822
sg22
S'SF'
p1823
sg24
S'.862'
p1824
sg28
S'NBA'
p1825
sg30
S'1.4'
p1826
sg32
S'13.0'
p1827
sg34
S'2.8'
p1828
sg36
S'4.2'
p1829
sg38
S'5.9'
p1830
sg40
S'24'
p1831
sg42
S'LAL'
p1832
sg44
S'77'
p1833
sg46
S'0.3'
p1834
sg48
S'5.3'
p1835
sg50
S'3.6'
p1836
sg52
S'11.4'
p1837
sg54
S'4.0'
p1838
sg56
S'2004-05'
p1839
sg58
S'5.8'
p1840
sg60
S'1.6'
p1841
sg62
S'.465'
p1842
sg64
S'2746'
p1843
sg66
S'77'
p1844
sba(isrc.gp1.models.Per36Minutes
Per36Minutes
p1845
(dp1846
g8
S'1.5'
p1847
sg10
S'1.6'
p1848
sg12
S'.455'
p1849
sg14
S'2.5'
p1850
sg16
S'.342'
p1851
sg18
S'0.5'
p1852
sg20
S'17.5'
p1853
sg22
S'SF'
p1854
sg24
S'.870'
p1855
sg28
S'NBA'
p1856
sg30
S'1.7'
p1857
sg32
S'14.4'
p1858
sg34
S'3.2'
p1859
sg36
S'4.4'
p1860
sg38
S'6.2'
p1861
sg40
S'25'
p1862
sg42
S'WAS'
p1863
sg44
S'75'
p1864
sg46
S'0.2'
p1865
sg48
S'6.0'
p1866
sg50
S'3.8'
p1867
sg52
S'12.8'
p1868
sg54
S'4.7'
p1869
sg56
S'2005-06'
p1870
sg58
S'6.6'
p1871
sg60
S'2.3'
p1872
sg62
S'.469'
p1873
sg64
S'2708'
p1874
sg66
S'54'
p1875
sba(isrc.gp1.models.Per36Minutes
Per36Minutes
p1876
(dp1877
g8
S'2.1'
p1878
sg10
S'1.0'
p1879
sg12
S'.463'
p1880
sg14
S'3.4'
p1881
sg16
S'.250'
p1882
sg18
S'0.3'
p1883
sg20
S'17.5'
p1884
sg22
S'SF'
p1885
sg24
S'.863'
p1886
sg28
S'NBA'
p1887
sg30
S'1.9'
p1888
sg32
S'14.2'
p1889
sg34
S'2.7'
p1890
sg36
S'4.8'
p1891
sg38
S'6.8'
p1892
sg40
S'26'
p1893
sg42
S'WAS'
p1894
sg44
S'63'
p1895
sg46
S'0.2'
p1896
sg48
S'6.3'
p1897
sg50
S'4.1'
p1898
sg52
S'13.1'
p1899
sg54
S'4.7'
p1900
sg56
S'2006-07'
p1901
sg58
S'6.6'
p1902
sg60
S'2.6'
p1903
sg62
S'.480'
p1904
sg64
S'2474'
p1905
sg66
S'63'
p1906
sba(isrc.gp1.models.Per36Minutes
Per36Minutes
p1907
(dp1908
g8
S'1.4'
p1909
sg10
S'2.9'
p1910
sg12
S'.466'
p1911
sg14
S'4.4'
p1912
sg16
S'.357'
p1913
sg18
S'1.0'
p1914
sg20
S'18.4'
p1915
sg22
S'SF'
p1916
sg24
S'.901'
p1917
sg28
S'NBA'
p1918
sg30
S'2.0'
p1919
sg32
S'14.7'
p1920
sg34
S'2.5'
p1921
sg36
S'4.1'
p1922
sg38
S'6.0'
p1923
sg40
S'27'
p1924
sg42
S'WAS'
p1925
sg44
S'58'
p1926
sg46
S'0.3'
p1927
sg48
S'5.8'
p1928
sg50
S'3.7'
p1929
sg52
S'11.8'
p1930
sg54
S'4.6'
p1931
sg56
S'2007-08'
p1932
sg58
S'6.8'
p1933
sg60
S'2.3'
p1934
sg62
S'.492'
p1935
sg64
S'2314'
p1936
sg66
S'58'
p1937
sba(isrc.gp1.models.Per36Minutes
Per36Minutes
p1938
(dp1939
g8
S'1.6'
p1940
sg10
S'2.9'
p1941
sg12
S'.453'
p1942
sg14
S'4.0'
p1943
sg16
S'.310'
p1944
sg18
S'0.9'
p1945
sg20
S'19.4'
p1946
sg22
S'SG'
p1947
sg24
S'.858'
p1948
sg28
S'NBA'
p1949
sg30
S'1.5'
p1950
sg32
S'15.1'
p1951
sg34
S'2.3'
p1952
sg36
S'5.6'
p1953
sg38
S'5.8'
p1954
sg40
S'28'
p1955
sg42
S'WAS'
p1956
sg44
S'67'
p1957
sg46
S'0.3'
p1958
sg48
S'5.9'
p1959
sg50
S'4.8'
p1960
sg52
S'12.2'
p1961
sg54
S'4.1'
p1962
sg56
S'2008-09'
p1963
sg58
S'6.8'
p1964
sg60
S'2.9'
p1965
sg62
S'.487'
p1966
sg64
S'2585'
p1967
sg66
S'67'
p1968
sba(isrc.gp1.models.Per36Minutes
Per36Minutes
p1969
(dp1970
g8
S'1.3'
p1971
sg10
S'1.9'
p1972
sg12
S'.428'
p1973
sg14
S'2.0'
p1974
sg16
S'.290'
p1975
sg18
S'0.5'
p1976
sg20
S'15.6'
p1977
sg22
S'SF-SG'
p1978
sg24
S'.838'
p1979
sg28
S'NBA'
p1980
sg30
S'1.5'
p1981
sg32
S'13.6'
p1982
sg34
S'2.5'
p1983
sg36
S'4.1'
p1984
sg38
S'6.0'
p1985
sg40
S'29'
p1986
sg42
S'TOT'
p1987
sg44
S'74'
p1988
sg46
S'0.3'
p1989
sg48
S'5.3'
p1990
sg50
S'3.4'
p1991
sg52
S'11.7'
p1992
sg54
S'4.6'
p1993
sg56
S'2009-10'
p1994
sg58
S'5.8'
p1995
sg60
S'2.1'
p1996
sg62
S'.450'
p1997
sg64
S'2783'
p1998
sg66
S'74'
p1999
sba(isrc.gp1.models.Per36Minutes
Per36Minutes
p2000
(dp2001
g8
S'1.3'
p2002
sg10
S'1.8'
p2003
sg12
S'.422'
p2004
sg14
S'2.1'
p2005
sg16
S'.263'
p2006
sg18
S'0.5'
p2007
sg20
S'15.5'
p2008
sg22
S'SF'
p2009
sg24
S'.877'
p2010
sg28
S'NBA'
p2011
sg30
S'1.3'
p2012
sg32
S'13.5'
p2013
sg34
S'2.4'
p2014
sg36
S'4.1'
p2015
sg38
S'6.1'
p2016
sg40
S'29'
p2017
sg42
S'WAS'
p2018
sg44
S'47'
p2019
sg46
S'0.3'
p2020
sg48
S'5.2'
p2021
sg50
S'3.6'
p2022
sg52
S'11.6'
p2023
sg54
S'4.8'
p2024
sg56
S'2009-10'
p2025
sg58
S'5.7'
p2026
sg60
S'2.2'
p2027
sg62
S'.447'
p2028
sg64
S'1853'
p2029
sg66
S'47'
p2030
sba(isrc.gp1.models.Per36Minutes
Per36Minutes
p2031
(dp2032
g8
S'1.4'
p2033
sg10
S'1.9'
p2034
sg12
S'.440'
p2035
sg14
S'1.9'
p2036
sg16
S'.340'
p2037
sg18
S'0.7'
p2038
sg20
S'15.9'
p2039
sg22
S'SG'
p2040
sg24
S'.760'
p2041
sg28
S'NBA'
p2042
sg30
S'1.9'
p2043
sg32
S'13.8'
p2044
sg34
S'2.6'
p2045
sg36
S'4.0'
p2046
sg38
S'5.6'
p2047
sg40
S'29'
p2048
sg42
S'DAL'
p2049
sg44
S'27'
p2050
sg46
S'0.3'
p2051
sg48
S'5.4'
p2052
sg50
S'3.1'
p2053
sg52
S'11.9'
p2054
sg54
S'4.2'
p2055
sg56
S'2009-10'
p2056
sg58
S'6.1'
p2057
sg60
S'1.8'
p2058
sg62
S'.456'
p2059
sg64
S'930'
p2060
sg66
S'27'
p2061
sba(isrc.gp1.models.Per36Minutes
Per36Minutes
p2062
(dp2063
g8
S'0.9'
p2064
sg10
S'2.7'
p2065
sg12
S'.450'
p2066
sg14
S'1.9'
p2067
sg16
S'.431'
p2068
sg18
S'1.2'
p2069
sg20
S'18.1'
p2070
sg22
S'SF'
p2071
sg24
S'.773'
p2072
sg28
S'NBA'
p2073
sg30
S'1.2'
p2074
sg32
S'15.7'
p2075
sg34
S'2.4'
p2076
sg36
S'3.7'
p2077
sg38
S'4.9'
p2078
sg40
S'30'
p2079
sg42
S'DAL'
p2080
sg44
S'29'
p2081
sg46
S'0.3'
p2082
sg48
S'5.9'
p2083
sg50
S'2.8'
p2084
sg52
S'13.0'
p2085
sg54
S'4.0'
p2086
sg56
S'2010-11'
p2087
sg58
S'7.1'
p2088
sg60
S'2.0'
p2089
sg62
S'.454'
p2090
sg64
S'867'
p2091
sg66
S'29'
p2092
sba(isrc.gp1.models.Per36Minutes
Per36Minutes
p2093
(dp2094
g8
S'0.8'
p2095
sg10
S'4.9'
p2096
sg12
S'.407'
p2097
sg14
S'1.5'
p2098
sg16
S'.358'
p2099
sg18
S'1.8'
p2100
sg20
S'14.5'
p2101
sg22
S'SF'
p2102
sg24
S'.813'
p2103
sg28
S'NBA'
p2104
sg30
S'1.0'
p2105
sg32
S'13.6'
p2106
sg34
S'2.4'
p2107
sg36
S'2.1'
p2108
sg38
S'4.4'
p2109
sg40
S'31'
p2110
sg42
S'LAC'
p2111
sg44
S'63'
p2112
sg46
S'0.2'
p2113
sg48
S'3.8'
p2114
sg50
S'1.7'
p2115
sg52
S'8.6'
p2116
sg54
S'3.6'
p2117
sg56
S'2011-12'
p2118
sg58
S'5.5'
p2119
sg60
S'1.5'
p2120
sg62
S'.435'
p2121
sg64
S'1871'
p2122
sg66
S'63'
p2123
sba(isrc.gp1.models.Per36Minutes
Per36Minutes
p2124
(dp2125
g8
S'0.8'
p2126
sg10
S'6.3'
p2127
sg12
S'.424'
p2128
sg14
S'1.5'
p2129
sg16
S'.388'
p2130
sg18
S'2.5'
p2131
sg20
S'15.6'
p2132
sg22
S'SF'
p2133
sg24
S'.833'
p2134
sg28
S'NBA'
p2135
sg30
S'1.0'
p2136
sg32
S'13.8'
p2137
sg34
S'2.7'
p2138
sg36
S'1.7'
p2139
sg38
S'4.3'
p2140
sg40
S'32'
p2141
sg42
S'LAC'
p2142
sg44
S'78'
p2143
sg46
S'0.2'
p2144
sg48
S'3.4'
p2145
sg50
S'1.4'
p2146
sg52
S'7.5'
p2147
sg54
S'3.5'
p2148
sg56
S'2012-13'
p2149
sg58
S'5.8'
p2150
sg60
S'1.4'
p2151
sg62
S'.454'
p2152
sg64
S'1879'
p2153
sg66
S'78'
p2154
sba(isrc.gp1.models.Per36Minutes
Per36Minutes
p2155
(dp2156
g8
S'0.5'
p2157
sg10
S'6.3'
p2158
sg12
S'.394'
p2159
sg14
S'2.1'
p2160
sg16
S'.394'
p2161
sg18
S'2.5'
p2162
sg20
S'14.9'
p2163
sg22
S'SF'
p2164
sg24
S'.840'
p2165
sg28
S'NBA'
p2166
sg30
S'1.2'
p2167
sg32
S'13.7'
p2168
sg34
S'3.0'
p2169
sg36
S'1.9'
p2170
sg38
S'5.8'
p2171
sg40
S'33'
p2172
sg42
S'TOT'
p2173
sg44
S'56'
p2174
sg46
S'0.4'
p2175
sg48
S'2.9'
p2176
sg50
S'1.6'
p2177
sg52
S'7.4'
p2178
sg54
S'5.3'
p2179
sg56
S'2013-14'
p2180
sg58
S'5.4'
p2181
sg60
S'1.5'
p2182
sg62
S'.395'
p2183
sg64
S'1419'
p2184
sg66
S'13'
p2185
sba(isrc.gp1.models.Per36Minutes
Per36Minutes
p2186
(dp2187
g8
S'0.7'
p2188
sg10
S'6.4'
p2189
sg12
S'.387'
p2190
sg14
S'2.5'
p2191
sg16
S'.361'
p2192
sg18
S'2.3'
p2193
sg20
S'16.4'
p2194
sg22
S'SF'
p2195
sg24
S'.839'
p2196
sg28
S'NBA'
p2197
sg30
S'1.0'
p2198
sg32
S'15.5'
p2199
sg34
S'2.8'
p2200
sg36
S'2.5'
p2201
sg38
S'6.9'
p2202
sg40
S'33'
p2203
sg42
S'MIL'
p2204
sg44
S'34'
p2205
sg46
S'0.5'
p2206
sg48
S'3.7'
p2207
sg50
S'2.1'
p2208
sg52
S'9.1'
p2209
sg54
S'6.2'
p2210
sg56
S'2013-14'
p2211
sg58
S'6.0'
p2212
sg60
S'2.3'
p2213
sg62
S'.406'
p2214
sg64
S'821'
p2215
sg66
S'13'
p2216
sba(isrc.gp1.models.Per36Minutes
Per36Minutes
p2217
(dp2218
g8
S'0.3'
p2219
sg10
S'6.1'
p2220
sg12
S'.409'
p2221
sg14
S'1.6'
p2222
sg16
S'.441'
p2223
sg18
S'2.7'
p2224
sg20
S'12.8'
p2225
sg22
S'SF'
p2226
sg24
S'.842'
p2227
sg28
S'NBA'
p2228
sg30
S'1.4'
p2229
sg32
S'11.2'
p2230
sg34
S'3.4'
p2231
sg36
S'1.1'
p2232
sg38
S'4.3'
p2233
sg40
S'33'
p2234
sg42
S'OKC'
p2235
sg44
S'22'
p2236
sg46
S'0.4'
p2237
sg48
S'1.9'
p2238
sg50
S'1.0'
p2239
sg52
S'5.1'
p2240
sg54
S'4.0'
p2241
sg56
S'2013-14'
p2242
sg58
S'4.6'
p2243
sg60
S'0.5'
p2244
sg62
S'.369'
p2245
sg64
S'598'
p2246
sg66
g545
sba(isrc.gp1.models.Per36Minutes
Per36Minutes
p2247
(dp2248
g8
S'0.5'
p2249
sg10
S'4.9'
p2250
sg12
S'.407'
p2251
sg14
S'1.8'
p2252
sg16
S'.379'
p2253
sg18
S'1.8'
p2254
sg20
S'10.2'
p2255
sg22
S'SF'
p2256
sg24
S'.902'
p2257
sg28
S'NBA'
p2258
sg30
S'1.0'
p2259
sg32
S'8.8'
p2260
sg34
S'2.7'
p2261
sg36
S'1.4'
p2262
sg38
S'4.3'
p2263
sg40
S'34'
p2264
sg42
S'DET'
p2265
sg44
S'78'
p2266
sg46
S'0.1'
p2267
sg48
S'1.7'
p2268
sg50
S'1.2'
p2269
sg52
S'3.9'
p2270
sg54
S'3.9'
p2271
sg56
S'2014-15'
p2272
sg58
S'3.6'
p2273
sg60
S'1.1'
p2274
sg62
S'.441'
p2275
sg64
S'1623'
p2276
sg66
S'21'
p2277
sba(isrc.gp1.models.Per36Minutes
Per36Minutes
p2278
(dp2279
g8
S'1.3'
p2280
sg10
S'3.3'
p2281
sg12
S'.423'
p2282
sg14
S'1.3'
p2283
sg16
S'.125'
p2284
sg18
S'0.4'
p2285
sg20
S'10.0'
p2286
sg22
S'SF'
p2287
sg24
S'.500'
p2288
sg28
S'NBA'
p2289
sg30
S'2.1'
p2290
sg32
S'10.9'
p2291
sg34
S'2.9'
p2292
sg36
S'0.8'
p2293
sg38
S'4.6'
p2294
sg40
S'35'
p2295
sg42
S'SAC'
p2296
sg44
g345
sg46
S'0.0'
p2297
sg48
S'4.2'
p2298
sg50
S'0.4'
p2299
sg52
S'7.5'
p2300
sg54
S'3.3'
p2301
sg56
S'2015-16'
p2302
sg58
S'4.6'
p2303
sg60
S'0.8'
p2304
sg62
S'.556'
p2305
sg64
S'86'
p2306
sg66
g583
sbasS'_fromYear'
p2307
S'2003'
p2308
sS'_url'
p2309
S'http://www.basketball-reference.com/players/b/butleca01.html'
p2310
sS'_perGame'
p2311
(isrc.gp1.models.PerGame
PerGame
p2312
(dp2313
g8
S'0.3'
p2314
sg10
S'0.9'
p2315
sg12
S'.423'
p2316
sS'_effectiveFieldGalPercentage'
p2317
S'.442'
p2318
sg14
S'0.3'
p2319
sg16
S'.125'
p2320
sg18
S'0.1'
p2321
sg20
S'2.7'
p2322
sg22
S'SF'
p2323
sg24
S'.500'
p2324
sg28
S'NBA'
p2325
sg30
S'0.6'
p2326
sg34
S'0.8'
p2327
sS'_fieldGoalsttempted'
p2328
S'2.9'
p2329
sg36
S'0.2'
p2330
sg38
S'1.2'
p2331
sg40
S'35'
p2332
sg42
S'SAC'
p2333
sg44
g345
sg46
S'0.0'
p2334
sg48
S'1.1'
p2335
sg50
S'0.1'
p2336
sg52
S'2.0'
p2337
sg54
S'0.9'
p2338
sg56
S'2015-16'
p2339
sg58
S'1.2'
p2340
sg60
S'0.2'
p2341
sg62
S'.556'
p2342
sg64
S'9.6'
p2343
sg66
g583
sbsS'_weight'
p2344
S'228'
p2345
sS'_dob'
p2346
S'13-3-1980'
p2347
sS'_salary'
p2348
(lp2349
(isrc.gp1.models.Salary
Salary
p2350
(dp2351
g42
S'Miami Heat'
p2352
sg28
S'NBA'
p2353
sg2348
S'$1,678,800'
p2354
sg56
S'2002-03'
p2355
sba(isrc.gp1.models.Salary
Salary
p2356
(dp2357
g42
S'Miami Heat'
p2358
sg28
S'NBA'
p2359
sg2348
S'$1,804,680'
p2360
sg56
S'2003-04'
p2361
sba(isrc.gp1.models.Salary
Salary
p2362
(dp2363
g42
S'Los Angeles Lakers'
p2364
sg28
S'NBA'
p2365
sg2348
S'$1,930,680'
p2366
sg56
S'2004-05'
p2367
sba(isrc.gp1.models.Salary
Salary
p2368
(dp2369
g42
S'Washington Wizards'
p2370
sg28
S'NBA'
p2371
sg2348
S'$2,461,617'
p2372
sg56
S'2005-06'
p2373
sba(isrc.gp1.models.Salary
Salary
p2374
(dp2375
g42
S'Washington Wizards'
p2376
sg28
S'NBA'
p2377
sg2348
S'$7,438,000'
p2378
sg56
S'2006-07'
p2379
sba(isrc.gp1.models.Salary
Salary
p2380
(dp2381
g42
S'Washington Wizards'
p2382
sg28
S'NBA'
p2383
sg2348
S'$8,218,990'
p2384
sg56
S'2007-08'
p2385
sba(isrc.gp1.models.Salary
Salary
p2386
(dp2387
g42
S'Washington Wizards'
p2388
sg28
S'NBA'
p2389
sg2348
S'$9,249,980'
p2390
sg56
S'2008-09'
p2391
sba(isrc.gp1.models.Salary
Salary
p2392
(dp2393
g42
S'Dallas Mavericks'
p2394
sg28
S'NBA'
p2395
sg2348
S'$9,780,970'
p2396
sg56
S'2009-10'
p2397
sba(isrc.gp1.models.Salary
Salary
p2398
(dp2399
g42
S'Dallas Mavericks'
p2400
sg28
S'NBA'
p2401
sg2348
S'$10,561,960'
p2402
sg56
S'2010-11'
p2403
sba(isrc.gp1.models.Salary
Salary
p2404
(dp2405
g42
S'Los Angeles Clippers'
p2406
sg28
S'NBA'
p2407
sg2348
S'$8,000,000'
p2408
sg56
S'2011-12'
p2409
sba(isrc.gp1.models.Salary
Salary
p2410
(dp2411
g42
S'Los Angeles Clippers'
p2412
sg28
S'NBA'
p2413
sg2348
S'$8,000,000'
p2414
sg56
S'2012-13'
p2415
sba(isrc.gp1.models.Salary
Salary
p2416
(dp2417
g42
S'Phoenix Suns'
p2418
sg28
S'NBA'
p2419
sg2348
S'$8,000,000'
p2420
sg56
S'2013-14'
p2421
sba(isrc.gp1.models.Salary
Salary
p2422
(dp2423
g42
S'Milwaukee Bucks'
p2424
sg28
S'NBA'
p2425
sg2348
S'$4,500,000'
p2426
sg56
S'2014-15'
p2427
sbasg22
S'F'
p2428
sb.