(isrc.gp1.models.Player
Player
p0
(dp1
S'_experience'
p2
V1 year
p3
sS'_totals'
p4
(lp5
(isrc.gp1.models.Totals
Totals
p6
(dp7
S'_offensiveRebounds'
p8
S'6'
p9
sS'_threePointsAttempted'
p10
g9
sS'_fieldGoalsPercentage'
p11
S'.273'
p12
sS'_assist'
p13
S'1'
p14
sS'_threePointsPercentage'
p15
S'.000'
p16
sS'_threePoints'
p17
S'0'
p18
sS'_points'
p19
S'10'
p20
sS'_position'
p21
S'PF'
p22
sS'_freeThrowsPercentage'
p23
S'1.000'
p24
sS'_effectiveFieldGoalPercentage'
p25
S'.273'
p26
sS'_league'
p27
S'NBA'
p28
sS'_steals'
p29
S'2'
p30
sS'_fieldGoalsAttempted'
p31
S'11'
p32
sS'_personalFouls'
p33
g30
sS'_freeThrowsAttempted'
p34
S'4'
p35
sS'_totalRebounds'
p36
S'11'
p37
sS'_age'
p38
S'27'
p39
sS'_team'
p40
S'SAS'
p41
sS'_games'
p42
g30
sS'_blocks'
p43
g18
sS'_twoPoints'
p44
S'3'
p45
sS'_freeThrows'
p46
g35
sS'_twoPointsAttempted'
p47
S'5'
p48
sS'_defensiveRebounds'
p49
g48
sS'_season'
p50
S'2011-12'
p51
sS'_fieldGoals'
p52
g45
sS'_turnOvers'
p53
g18
sS'_twoPointsPercentage'
p54
S'.600'
p55
sS'_minutesPlayed'
p56
S'37'
p57
sS'_gamesStarted'
p58
g18
sbasS'_college'
p59
S'Vanderbilt University'
p60
sS'_toYear'
p61
S'2012'
p62
sS'_height'
p63
S'6-7'
p64
sS'_active'
p65
I01
sS'_shootingHand'
p66
VRight
p67
sS'_name'
p68
S'Derrick Byars'
p69
sS'_per100Possessions'
p70
(lp71
(isrc.gp1.models.Per100Possession
Per100Possession
p72
(dp73
g8
S'8.4'
p74
sg10
S'8.4'
p75
sg11
S'.273'
p76
sS'_offensiveRating'
p77
S'113'
p78
sg13
S'1.4'
p79
sg15
S'.000'
p80
sg17
S'0.0'
p81
sg19
S'14.0'
p82
sg21
S'PF'
p83
sS'_defensiveRating'
p84
S'102'
p85
sg23
S'1.000'
p86
sg27
S'NBA'
p87
sg29
S'2.8'
p88
sg31
S'15.4'
p89
sg33
S'2.8'
p90
sg34
S'5.6'
p91
sg36
S'15.4'
p92
sg38
S'27'
p93
sg40
S'SAS'
p94
sg42
g30
sg43
S'0.0'
p95
sg44
S'4.2'
p96
sg46
S'5.6'
p97
sg47
S'7.0'
p98
sg49
S'7.0'
p99
sg50
S'2011-12'
p100
sg52
S'4.2'
p101
sg53
S'0.0'
p102
sg54
S'.600'
p103
sg56
S'37'
p104
sg58
g18
sbasS'_advanced'
p105
(lp106
(isrc.gp1.models.Advanced
Advanced
p107
(dp108
S'_offensiveReboundPercentage'
p109
S'19.0'
p110
sS'_turnOverPercentage'
p111
S'0.0'
p112
sS'_winSharesPer48Minutes'
p113
S'.147'
p114
sS'_stealPercentage'
p115
S'2.8'
p116
sS'_usagePercentage'
p117
S'15.7'
p118
sS'_totalReboundsPercentage'
p119
S'17.1'
p120
sS'_defensiveBoxPlusMinus'
p121
S'-1.1'
p122
sg21
S'PF'
p123
sS'_valueOverReplacementPlayer'
p124
S'0.0'
p125
sS'_trueShootingPercentage'
p126
S'.392'
p127
sS'_defensiveReboundPercentage'
p128
S'15.2'
p129
sS'_freeThrowsAttempRate'
p130
S'.364'
p131
sS'_threePointsAttempRate'
p132
S'.545'
p133
sg27
S'NBA'
p134
sS'_offensiveBoxPlusMinues'
p135
S'1.6'
p136
sS'_assistPercentage'
p137
S'3.7'
p138
sS'_defensiveWinShares'
p139
S'0.1'
p140
sg38
S'27'
p141
sg40
S'SAS'
p142
sg42
g30
sS'_blockPercentage'
p143
S'0.0'
p144
sS'_playerEfficiencyRating'
p145
S'14.9'
p146
sS'_offensiveWinShares'
p147
S'0.1'
p148
sg56
S'37'
p149
sS'_boxPlusMinus'
p150
S'0.6'
p151
sg50
S'2011-12'
p152
sS'_winShares'
p153
S'0.1'
p154
sbasS'_per36Minutes'
p155
(lp156
(isrc.gp1.models.Per36Minutes
Per36Minutes
p157
(dp158
g8
S'5.8'
p159
sg10
S'5.8'
p160
sg11
S'.273'
p161
sg13
S'1.0'
p162
sg15
S'.000'
p163
sg17
S'0.0'
p164
sg19
S'9.7'
p165
sg21
S'PF'
p166
sg23
S'1.000'
p167
sg27
S'NBA'
p168
sg29
S'1.9'
p169
sg31
S'10.7'
p170
sg33
S'1.9'
p171
sg34
S'3.9'
p172
sg36
S'10.7'
p173
sg38
S'27'
p174
sg40
S'SAS'
p175
sg42
g30
sg43
S'0.0'
p176
sg44
S'2.9'
p177
sg46
S'3.9'
p178
sg47
S'4.9'
p179
sg49
S'4.9'
p180
sg50
S'2011-12'
p181
sg52
S'2.9'
p182
sg53
S'0.0'
p183
sg54
S'.600'
p184
sg56
S'37'
p185
sg58
g18
sbasS'_fromYear'
p186
S'2012'
p187
sS'_url'
p188
S'http://www.basketball-reference.com/players/b/byarsde01.html'
p189
sS'_perGame'
p190
(isrc.gp1.models.PerGame
PerGame
p191
(dp192
g8
S'3.0'
p193
sg10
S'3.0'
p194
sg11
S'.273'
p195
sS'_effectiveFieldGalPercentage'
p196
S'.273'
p197
sg13
S'0.5'
p198
sg15
S'.000'
p199
sg17
S'0.0'
p200
sg19
S'5.0'
p201
sg21
S'PF'
p202
sg23
S'1.000'
p203
sg27
S'NBA'
p204
sg29
S'1.0'
p205
sg33
S'1.0'
p206
sS'_fieldGoalsttempted'
p207
S'5.5'
p208
sg34
S'2.0'
p209
sg36
S'5.5'
p210
sg38
S'27'
p211
sg40
S'SAS'
p212
sg42
g30
sg43
S'0.0'
p213
sg44
S'1.5'
p214
sg46
S'2.0'
p215
sg47
S'2.5'
p216
sg49
S'2.5'
p217
sg50
S'2011-12'
p218
sg52
S'1.5'
p219
sg53
S'0.0'
p220
sg54
S'.600'
p221
sg56
S'18.5'
p222
sg58
g18
sbsS'_weight'
p223
S'220'
p224
sS'_dob'
p225
S'25-4-1984'
p226
sS'_salary'
p227
(lp228
sg21
S'F'
p229
sb.