(isrc.gp1.models.Player
Player
p0
(dp1
S'_experience'
p2
V8
p3
sS'_totals'
p4
(lp5
(isrc.gp1.models.Totals
Totals
p6
(dp7
S'_offensiveRebounds'
p8
S'3'
p9
sS'_threePointsAttempted'
p10
S'9'
p11
sS'_fieldGoalsPercentage'
p12
S'.404'
p13
sS'_assist'
p14
S'19'
p15
sS'_threePointsPercentage'
p16
S'.222'
p17
sS'_threePoints'
p18
S'2'
p19
sS'_points'
p20
S'54'
p21
sS'_position'
p22
S'PG'
p23
sS'_freeThrowsPercentage'
p24
S'.625'
p25
sS'_effectiveFieldGoalPercentage'
p26
S'.423'
p27
sS'_league'
p28
S'NBA'
p29
sS'_steals'
p30
S'7'
p31
sS'_fieldGoalsAttempted'
p32
S'52'
p33
sS'_personalFouls'
p34
S'10'
p35
sS'_freeThrowsAttempted'
p36
S'16'
p37
sS'_totalRebounds'
p38
S'12'
p39
sS'_age'
p40
S'23'
p41
sS'_team'
p42
S'GSW'
p43
sS'_games'
p44
S'15'
p45
sS'_blocks'
p46
S'0'
p47
sS'_twoPoints'
p48
S'19'
p49
sS'_freeThrows'
p50
S'10'
p51
sS'_twoPointsAttempted'
p52
S'43'
p53
sS'_defensiveRebounds'
p54
g11
sS'_season'
p55
S'2005-06'
p56
sS'_fieldGoals'
p57
S'21'
p58
sS'_turnOvers'
p59
S'14'
p60
sS'_twoPointsPercentage'
p61
S'.442'
p62
sS'_minutesPlayed'
p63
S'162'
p64
sS'_gamesStarted'
p65
g47
sba(isrc.gp1.models.Totals
Totals
p66
(dp67
g8
S'NA'
p68
sg10
g68
sg12
g68
sg14
g68
sg16
g68
sg18
g68
sg20
g68
sg22
g68
sg24
g68
sg26
g68
sg28
g68
sg30
g68
sg32
g68
sg34
g68
sg36
g68
sg38
g68
sg40
S'24'
p69
sg42
S'Did Not Play\xc2\xa0(other pro league\xe2\x80\x94Israel)'
p70
sg44
g68
sg46
g68
sg48
g68
sg50
g68
sg52
g68
sg54
g68
sg55
S'2006-07'
p71
sg57
g68
sg59
g68
sg61
g68
sg63
g68
sg65
g68
sba(isrc.gp1.models.Totals
Totals
p72
(dp73
g8
g68
sg10
g68
sg12
g68
sg14
g68
sg16
g68
sg18
g68
sg20
g68
sg22
g68
sg24
g68
sg26
g68
sg28
g68
sg30
g68
sg32
g68
sg34
g68
sg36
g68
sg38
g68
sg40
S'25'
p74
sg42
S'Did Not Play\xc2\xa0(other pro league\xe2\x80\x94Israel)'
p75
sg44
g68
sg46
g68
sg48
g68
sg50
g68
sg52
g68
sg54
g68
sg55
S'2007-08'
p76
sg57
g68
sg59
g68
sg61
g68
sg63
g68
sg65
g68
sba(isrc.gp1.models.Totals
Totals
p77
(dp78
g8
S'19'
p79
sg10
S'19'
p80
sg12
S'.456'
p81
sg14
S'157'
p82
sg16
S'.158'
p83
sg18
g9
sg20
S'410'
p84
sg22
S'PG'
p85
sg24
S'.798'
p86
sg26
S'.461'
p87
sg28
S'NBA'
p88
sg30
S'34'
p89
sg32
S'342'
p90
sg34
S'85'
p91
sg36
S'119'
p92
sg38
S'75'
p93
sg40
S'26'
p94
sg42
S'DET'
p95
sg44
S'57'
p96
sg46
g19
sg48
S'153'
p97
sg50
S'95'
p98
sg52
S'323'
p99
sg54
S'56'
p100
sg55
S'2008-09'
p101
sg57
S'156'
p102
sg59
S'76'
p103
sg61
S'.474'
p104
sg63
S'803'
p105
sg65
S'1'
p106
sba(isrc.gp1.models.Totals
Totals
p107
(dp108
g8
S'24'
p109
sg10
S'55'
p110
sg12
S'.444'
p111
sg14
S'283'
p112
sg16
S'.218'
p113
sg18
S'12'
p114
sg20
S'628'
p115
sg22
S'PG'
p116
sg24
S'.798'
p117
sg26
S'.455'
p118
sg28
S'NBA'
p119
sg30
S'55'
p120
sg32
S'534'
p121
sg34
S'143'
p122
sg36
S'178'
p123
sg38
S'142'
p124
sg40
S'27'
p125
sg42
S'DET'
p126
sg44
S'63'
p127
sg46
g31
sg48
S'225'
p128
sg50
S'142'
p129
sg52
S'479'
p130
sg54
S'118'
p131
sg55
S'2009-10'
p132
sg57
S'237'
p133
sg59
S'115'
p134
sg61
S'.470'
p135
sg63
S'1667'
p136
sg65
S'20'
p137
sba(isrc.gp1.models.Totals
Totals
p138
(dp139
g8
S'15'
p140
sg10
S'50'
p141
sg12
S'.448'
p142
sg14
S'195'
p143
sg16
S'.320'
p144
sg18
S'16'
p145
sg20
S'482'
p146
sg22
S'PG'
p147
sg24
S'.836'
p148
sg26
S'.468'
p149
sg28
S'NBA'
p150
sg30
S'52'
p151
sg32
S'406'
p152
sg34
S'113'
p153
sg36
S'122'
p154
sg38
S'74'
p155
sg40
S'28'
p156
sg42
S'DET'
p157
sg44
S'61'
p158
sg46
S'4'
p159
sg48
S'166'
p160
sg50
S'102'
p161
sg52
S'356'
p162
sg54
S'59'
p163
sg55
S'2010-11'
p164
sg57
S'182'
p165
sg59
S'83'
p166
sg61
S'.466'
p167
sg63
S'1125'
p168
sg65
S'5'
p169
sba(isrc.gp1.models.Totals
Totals
p170
(dp171
g8
S'10'
p172
sg10
S'29'
p173
sg12
S'.381'
p174
sg14
S'66'
p175
sg16
S'.241'
p176
sg18
g31
sg20
S'204'
p177
sg22
S'PG'
p178
sg24
S'.766'
p179
sg26
S'.399'
p180
sg28
S'NBA'
p181
sg30
S'23'
p182
sg32
S'194'
p183
sg34
S'61'
p184
sg36
S'64'
p185
sg38
S'56'
p186
sg40
S'29'
p187
sg42
S'DET'
p188
sg44
S'36'
p189
sg46
g9
sg48
S'67'
p190
sg50
S'49'
p191
sg52
S'165'
p192
sg54
S'46'
p193
sg55
S'2011-12'
p194
sg57
S'74'
p195
sg59
S'54'
p196
sg61
S'.406'
p197
sg63
S'514'
p198
sg65
g47
sba(isrc.gp1.models.Totals
Totals
p199
(dp200
g8
S'28'
p201
sg10
S'76'
p202
sg12
S'.469'
p203
sg14
S'231'
p204
sg16
S'.316'
p205
sg18
S'24'
p206
sg20
S'636'
p207
sg22
S'PG'
p208
sg24
S'.809'
p209
sg26
S'.491'
p210
sg28
S'NBA'
p211
sg30
S'45'
p212
sg32
S'540'
p213
sg34
S'128'
p214
sg36
S'131'
p215
sg38
S'97'
p216
sg40
S'30'
p217
sg42
S'DET'
p218
sg44
S'65'
p219
sg46
g169
sg48
S'229'
p220
sg50
S'106'
p221
sg52
S'464'
p222
sg54
S'69'
p223
sg55
S'2012-13'
p224
sg57
S'253'
p225
sg59
S'125'
p226
sg61
S'.494'
p227
sg63
S'1219'
p228
sg65
g47
sba(isrc.gp1.models.Totals
Totals
p229
(dp230
g8
S'24'
p231
sg10
S'62'
p232
sg12
S'.428'
p233
sg14
S'216'
p234
sg16
S'.323'
p235
sg18
S'20'
p236
sg20
S'485'
p237
sg22
S'PG'
p238
sg24
S'.802'
p239
sg26
S'.451'
p240
sg28
S'NBA'
p241
sg30
S'39'
p242
sg32
S'430'
p243
sg34
S'121'
p244
sg36
S'121'
p245
sg38
S'99'
p246
sg40
S'31'
p247
sg42
S'DET'
p248
sg44
S'56'
p249
sg46
g31
sg48
S'164'
p250
sg50
S'97'
p251
sg52
S'368'
p252
sg54
S'75'
p253
sg55
S'2013-14'
p254
sg57
S'184'
p255
sg59
S'103'
p256
sg61
S'.446'
p257
sg63
S'1054'
p258
sg65
g9
sba(isrc.gp1.models.Totals
Totals
p259
(dp260
g8
g19
sg10
g11
sg12
S'.323'
p261
sg14
S'18'
p262
sg16
S'.000'
p263
sg18
g47
sg20
S'22'
p264
sg22
S'SG'
p265
sg24
S'.500'
p266
sg26
S'.323'
p267
sg28
S'NBA'
p268
sg30
g106
sg32
S'31'
p269
sg34
g11
sg36
g159
sg38
S'6'
p270
sg40
S'32'
p271
sg42
S'WAS'
p272
sg44
g31
sg46
g106
sg48
S'10'
p273
sg50
g19
sg52
S'22'
p274
sg54
g159
sg55
S'2014-15'
p275
sg57
S'10'
p276
sg59
S'8'
p277
sg61
S'.455'
p278
sg63
S'67'
p279
sg65
g47
sbasS'_college'
p280
S'Georgia Institute of Technology'
p281
sS'_toYear'
p282
S'2015'
p283
sS'_height'
p284
S'6-0'
p285
sS'_active'
p286
I01
sS'_shootingHand'
p287
VRight
p288
sS'_name'
p289
S'Will Bynum'
p290
sS'_per100Possessions'
p291
(lp292
(isrc.gp1.models.Per100Possession
Per100Possession
p293
(dp294
g8
S'1.0'
p295
sg10
S'2.9'
p296
sg12
S'.404'
p297
sS'_offensiveRating'
p298
S'88'
p299
sg14
S'6.0'
p300
sg16
S'.222'
p301
sg18
S'0.6'
p302
sg20
S'17.2'
p303
sg22
S'PG'
p304
sS'_defensiveRating'
p305
S'108'
p306
sg24
S'.625'
p307
sg28
S'NBA'
p308
sg30
S'2.2'
p309
sg32
S'16.5'
p310
sg34
S'3.2'
p311
sg36
S'5.1'
p312
sg38
S'3.8'
p313
sg40
S'23'
p314
sg42
S'GSW'
p315
sg44
S'15'
p316
sg46
S'0.0'
p317
sg48
S'6.0'
p318
sg50
S'3.2'
p319
sg52
S'13.7'
p320
sg54
S'2.9'
p321
sg55
S'2005-06'
p322
sg57
S'6.7'
p323
sg59
S'4.4'
p324
sg61
S'.442'
p325
sg63
S'162'
p326
sg65
g47
sba(isrc.gp1.models.Per100Possession
Per100Possession
p327
(dp328
g8
S'1.3'
p329
sg10
S'1.3'
p330
sg12
S'.456'
p331
sg298
S'103'
p332
sg14
S'10.8'
p333
sg16
S'.158'
p334
sg18
S'0.2'
p335
sg20
S'28.3'
p336
sg22
S'PG'
p337
sg305
S'109'
p338
sg24
S'.798'
p339
sg28
S'NBA'
p340
sg30
S'2.3'
p341
sg32
S'23.6'
p342
sg34
S'5.9'
p343
sg36
S'8.2'
p344
sg38
S'5.2'
p345
sg40
S'26'
p346
sg42
S'DET'
p347
sg44
S'57'
p348
sg46
S'0.1'
p349
sg48
S'10.5'
p350
sg50
S'6.5'
p351
sg52
S'22.3'
p352
sg54
S'3.9'
p353
sg55
S'2008-09'
p354
sg57
S'10.8'
p355
sg59
S'5.2'
p356
sg61
S'.474'
p357
sg63
S'803'
p358
sg65
g106
sba(isrc.gp1.models.Per100Possession
Per100Possession
p359
(dp360
g8
S'0.8'
p361
sg10
S'1.8'
p362
sg12
S'.444'
p363
sg298
S'105'
p364
sg14
S'9.2'
p365
sg16
S'.218'
p366
sg18
S'0.4'
p367
sg20
S'20.4'
p368
sg22
S'PG'
p369
sg305
S'113'
p370
sg24
S'.798'
p371
sg28
S'NBA'
p372
sg30
S'1.8'
p373
sg32
S'17.4'
p374
sg34
S'4.7'
p375
sg36
S'5.8'
p376
sg38
S'4.6'
p377
sg40
S'27'
p378
sg42
S'DET'
p379
sg44
S'63'
p380
sg46
S'0.2'
p381
sg48
S'7.3'
p382
sg50
S'4.6'
p383
sg52
S'15.6'
p384
sg54
S'3.8'
p385
sg55
S'2009-10'
p386
sg57
S'7.7'
p387
sg59
S'3.7'
p388
sg61
S'.470'
p389
sg63
S'1667'
p390
sg65
S'20'
p391
sba(isrc.gp1.models.Per100Possession
Per100Possession
p392
(dp393
g8
S'0.7'
p394
sg10
S'2.4'
p395
sg12
S'.448'
p396
sg298
S'106'
p397
sg14
S'9.3'
p398
sg16
S'.320'
p399
sg18
S'0.8'
p400
sg20
S'23.1'
p401
sg22
S'PG'
p402
sg305
S'113'
p403
sg24
S'.836'
p404
sg28
S'NBA'
p405
sg30
S'2.5'
p406
sg32
S'19.4'
p407
sg34
S'5.4'
p408
sg36
S'5.8'
p409
sg38
S'3.5'
p410
sg40
S'28'
p411
sg42
S'DET'
p412
sg44
S'61'
p413
sg46
S'0.2'
p414
sg48
S'7.9'
p415
sg50
S'4.9'
p416
sg52
S'17.0'
p417
sg54
S'2.8'
p418
sg55
S'2010-11'
p419
sg57
S'8.7'
p420
sg59
S'4.0'
p421
sg61
S'.466'
p422
sg63
S'1125'
p423
sg65
g169
sba(isrc.gp1.models.Per100Possession
Per100Possession
p424
(dp425
g8
S'1.0'
p426
sg10
S'3.0'
p427
sg12
S'.381'
p428
sg298
S'88'
p429
sg14
S'6.9'
p430
sg16
S'.241'
p431
sg18
S'0.7'
p432
sg20
S'21.3'
p433
sg22
S'PG'
p434
sg305
S'106'
p435
sg24
S'.766'
p436
sg28
S'NBA'
p437
sg30
S'2.4'
p438
sg32
S'20.3'
p439
sg34
S'6.4'
p440
sg36
S'6.7'
p441
sg38
S'5.9'
p442
sg40
S'29'
p443
sg42
S'DET'
p444
sg44
S'36'
p445
sg46
S'0.3'
p446
sg48
S'7.0'
p447
sg50
S'5.1'
p448
sg52
S'17.3'
p449
sg54
S'4.8'
p450
sg55
S'2011-12'
p451
sg57
S'7.7'
p452
sg59
S'5.7'
p453
sg61
S'.406'
p454
sg63
S'514'
p455
sg65
g47
sba(isrc.gp1.models.Per100Possession
Per100Possession
p456
(dp457
g8
S'1.2'
p458
sg10
S'3.3'
p459
sg12
S'.469'
p460
sg298
S'103'
p461
sg14
S'10.0'
p462
sg16
S'.316'
p463
sg18
S'1.0'
p464
sg20
S'27.6'
p465
sg22
S'PG'
p466
sg305
S'111'
p467
sg24
S'.809'
p468
sg28
S'NBA'
p469
sg30
S'2.0'
p470
sg32
S'23.4'
p471
sg34
S'5.5'
p472
sg36
S'5.7'
p473
sg38
S'4.2'
p474
sg40
S'30'
p475
sg42
S'DET'
p476
sg44
S'65'
p477
sg46
S'0.2'
p478
sg48
S'9.9'
p479
sg50
S'4.6'
p480
sg52
S'20.1'
p481
sg54
S'3.0'
p482
sg55
S'2012-13'
p483
sg57
S'11.0'
p484
sg59
S'5.4'
p485
sg61
S'.494'
p486
sg63
S'1219'
p487
sg65
g47
sba(isrc.gp1.models.Per100Possession
Per100Possession
p488
(dp489
g8
S'1.2'
p490
sg10
S'3.0'
p491
sg12
S'.428'
p492
sg298
S'102'
p493
sg14
S'10.4'
p494
sg16
S'.323'
p495
sg18
S'1.0'
p496
sg20
S'23.3'
p497
sg22
S'PG'
p498
sg305
S'112'
p499
sg24
S'.802'
p500
sg28
S'NBA'
p501
sg30
S'1.9'
p502
sg32
S'20.6'
p503
sg34
S'5.8'
p504
sg36
S'5.8'
p505
sg38
S'4.7'
p506
sg40
S'31'
p507
sg42
S'DET'
p508
sg44
S'56'
p509
sg46
S'0.3'
p510
sg48
S'7.9'
p511
sg50
S'4.7'
p512
sg52
S'17.7'
p513
sg54
S'3.6'
p514
sg55
S'2013-14'
p515
sg57
S'8.8'
p516
sg59
S'4.9'
p517
sg61
S'.446'
p518
sg63
S'1054'
p519
sg65
g9
sba(isrc.gp1.models.Per100Possession
Per100Possession
p520
(dp521
g8
S'1.5'
p522
sg10
S'6.9'
p523
sg12
S'.323'
p524
sg298
S'77'
p525
sg14
S'13.8'
p526
sg16
S'.000'
p527
sg18
S'0.0'
p528
sg20
S'16.8'
p529
sg22
S'SG'
p530
sg305
S'107'
p531
sg24
S'.500'
p532
sg28
S'NBA'
p533
sg30
S'0.8'
p534
sg32
S'23.7'
p535
sg34
S'6.9'
p536
sg36
S'3.1'
p537
sg38
S'4.6'
p538
sg40
S'32'
p539
sg42
S'WAS'
p540
sg44
g31
sg46
S'0.8'
p541
sg48
S'7.6'
p542
sg50
S'1.5'
p543
sg52
S'16.8'
p544
sg54
S'3.1'
p545
sg55
S'2014-15'
p546
sg57
S'7.6'
p547
sg59
S'6.1'
p548
sg61
S'.455'
p549
sg63
S'67'
p550
sg65
g47
sbasS'_advanced'
p551
(lp552
(isrc.gp1.models.Advanced
Advanced
p553
(dp554
S'_offensiveReboundPercentage'
p555
S'2.0'
p556
sS'_turnOverPercentage'
p557
S'19.2'
p558
sS'_winSharesPer48Minutes'
p559
S'-0.021'
p560
sS'_stealPercentage'
p561
S'2.2'
p562
sS'_usagePercentage'
p563
S'20.1'
p564
sS'_totalReboundsPercentage'
p565
S'4.1'
p566
sS'_defensiveBoxPlusMinus'
p567
S'-1.8'
p568
sg22
S'PG'
p569
sS'_valueOverReplacementPlayer'
p570
S'-0.2'
p571
sS'_trueShootingPercentage'
p572
S'.457'
p573
sS'_defensiveReboundPercentage'
p574
S'6.3'
p575
sS'_freeThrowsAttempRate'
p576
S'.308'
p577
sS'_threePointsAttempRate'
p578
S'.173'
p579
sg28
S'NBA'
p580
sS'_offensiveBoxPlusMinues'
p581
S'-4.8'
p582
sS'_assistPercentage'
p583
S'19.2'
p584
sS'_defensiveWinShares'
p585
S'0.1'
p586
sg40
S'23'
p587
sg42
S'GSW'
p588
sg44
S'15'
p589
sS'_blockPercentage'
p590
S'0.0'
p591
sS'_playerEfficiencyRating'
p592
S'8.7'
p593
sS'_offensiveWinShares'
p594
S'-0.2'
p595
sg63
S'162'
p596
sS'_boxPlusMinus'
p597
S'-6.6'
p598
sg55
S'2005-06'
p599
sS'_winShares'
p600
S'-0.1'
p601
sba(isrc.gp1.models.Advanced
Advanced
p602
(dp603
g555
S'2.8'
p604
sg557
S'16.2'
p605
sg559
S'.078'
p606
sg561
S'2.3'
p607
sg563
S'27.9'
p608
sg565
S'5.5'
p609
sg567
S'-1.9'
p610
sg22
S'PG'
p611
sg570
S'0.1'
p612
sg572
S'.520'
p613
sg574
S'8.4'
p614
sg576
S'.348'
p615
sg578
S'.056'
p616
sg28
S'NBA'
p617
sg581
S'0.2'
p618
sg583
S'35.3'
p619
sg585
S'0.8'
p620
sg40
S'26'
p621
sg42
S'DET'
p622
sg44
S'57'
p623
sg590
S'0.2'
p624
sg592
S'17.4'
p625
sg594
S'0.5'
p626
sg63
S'803'
p627
sg597
S'-1.7'
p628
sg55
S'2008-09'
p629
sg600
S'1.3'
p630
sba(isrc.gp1.models.Advanced
Advanced
p631
(dp632
g555
S'1.6'
p633
sg557
S'15.8'
p634
sg559
S'.054'
p635
sg561
S'1.8'
p636
sg563
S'20.1'
p637
sg565
S'5.2'
p638
sg567
S'-2.0'
p639
sg22
S'PG'
p640
sg570
S'-0.2'
p641
sg572
S'.513'
p642
sg574
S'9.2'
p643
sg576
S'.333'
p644
sg578
S'.103'
p645
sg28
S'NBA'
p646
sg581
S'-0.6'
p647
sg583
S'28.2'
p648
sg585
S'0.6'
p649
sg40
S'27'
p650
sg42
S'DET'
p651
sg44
S'63'
p652
sg590
S'0.4'
p653
sg592
S'13.8'
p654
sg594
S'1.3'
p655
sg63
S'1667'
p656
sg597
S'-2.5'
p657
sg55
S'2009-10'
p658
sg600
S'1.9'
p659
sba(isrc.gp1.models.Advanced
Advanced
p660
(dp661
g555
S'1.6'
p662
sg557
S'15.3'
p663
sg559
S'.066'
p664
sg561
S'2.5'
p665
sg563
S'22.5'
p666
sg565
S'4.0'
p667
sg567
S'-2.9'
p668
sg22
S'PG'
p669
sg570
S'-0.3'
p670
sg572
S'.524'
p671
sg574
S'6.7'
p672
sg576
S'.300'
p673
sg578
S'.123'
p674
sg28
S'NBA'
p675
sg581
S'-0.2'
p676
sg583
S'28.6'
p677
sg585
S'0.4'
p678
sg40
S'28'
p679
sg42
S'DET'
p680
sg44
S'61'
p681
sg590
S'0.3'
p682
sg592
S'15.2'
p683
sg594
S'1.1'
p684
sg63
S'1125'
p685
sg597
S'-3.1'
p686
sg55
S'2010-11'
p687
sg600
S'1.5'
p688
sba(isrc.gp1.models.Advanced
Advanced
p689
(dp690
g555
S'2.3'
p691
sg557
S'19.6'
p692
sg559
S'-0.022'
p693
sg561
S'2.4'
p694
sg563
S'24.8'
p695
sg565
S'6.5'
p696
sg567
S'-1.6'
p697
sg22
S'PG'
p698
sg570
S'-0.4'
p699
sg572
S'.459'
p700
sg574
S'11.1'
p701
sg576
S'.330'
p702
sg578
S'.149'
p703
sg28
S'NBA'
p704
sg581
S'-3.6'
p705
sg583
S'22.4'
p706
sg585
S'0.4'
p707
sg40
S'29'
p708
sg42
S'DET'
p709
sg44
S'36'
p710
sg590
S'0.5'
p711
sg592
S'10.0'
p712
sg594
S'-0.7'
p713
sg63
S'514'
p714
sg597
S'-5.2'
p715
sg55
S'2011-12'
p716
sg600
S'-0.2'
p717
sba(isrc.gp1.models.Advanced
Advanced
p718
(dp719
g555
S'2.6'
p720
sg557
S'17.3'
p721
sg559
S'.067'
p722
sg561
S'2.0'
p723
sg563
S'27.0'
p724
sg565
S'4.6'
p725
sg567
S'-3.2'
p726
sg22
S'PG'
p727
sg570
S'-0.1'
p728
sg572
S'.532'
p729
sg574
S'6.6'
p730
sg576
S'.243'
p731
sg578
S'.141'
p732
sg28
S'NBA'
p733
sg581
S'0.8'
p734
sg583
S'34.8'
p735
sg585
S'0.5'
p736
sg40
S'30'
p737
sg42
S'DET'
p738
sg44
S'65'
p739
sg590
S'0.3'
p740
sg592
S'16.6'
p741
sg594
S'1.2'
p742
sg63
S'1219'
p743
sg597
S'-2.4'
p744
sg55
S'2012-13'
p745
sg600
S'1.7'
p746
sba(isrc.gp1.models.Advanced
Advanced
p747
(dp748
g555
S'2.4'
p749
sg557
S'17.6'
p750
sg559
S'.047'
p751
sg561
S'1.9'
p752
sg563
S'23.8'
p753
sg565
S'5.1'
p754
sg567
S'-2.8'
p755
sg22
S'PG'
p756
sg570
S'-0.4'
p757
sg572
S'.502'
p758
sg574
S'8.2'
p759
sg576
S'.281'
p760
sg578
S'.144'
p761
sg28
S'NBA'
p762
sg581
S'-0.7'
p763
sg583
S'32.5'
p764
sg585
S'0.4'
p765
sg40
S'31'
p766
sg42
S'DET'
p767
sg44
S'56'
p768
sg590
S'0.5'
p769
sg592
S'14.4'
p770
sg594
S'0.6'
p771
sg63
S'1054'
p772
sg597
S'-3.5'
p773
sg55
S'2013-14'
p774
sg600
S'1.0'
p775
sba(isrc.gp1.models.Advanced
Advanced
p776
(dp777
g555
S'3.4'
p778
sg557
S'19.6'
p779
sg559
S'-0.132'
p780
sg561
S'0.8'
p781
sg563
S'27.6'
p782
sg565
S'5.0'
p783
sg567
S'-3.3'
p784
sg22
S'SG'
p785
sg570
S'-0.1'
p786
sg572
S'.336'
p787
sg574
S'6.6'
p788
sg576
S'.129'
p789
sg578
S'.290'
p790
sg28
S'NBA'
p791
sg581
S'-5.8'
p792
sg583
S'42.2'
p793
sg585
S'0.1'
p794
sg40
S'32'
p795
sg42
S'WAS'
p796
sg44
g31
sg590
S'1.2'
p797
sg592
S'4.8'
p798
sg594
S'-0.2'
p799
sg63
S'67'
p800
sg597
S'-9.1'
p801
sg55
S'2014-15'
p802
sg600
S'-0.2'
p803
sbasS'_per36Minutes'
p804
(lp805
(isrc.gp1.models.Per36Minutes
Per36Minutes
p806
(dp807
g8
S'0.7'
p808
sg10
S'2.0'
p809
sg12
S'.404'
p810
sg14
S'4.2'
p811
sg16
S'.222'
p812
sg18
S'0.4'
p813
sg20
S'12.0'
p814
sg22
S'PG'
p815
sg24
S'.625'
p816
sg28
S'NBA'
p817
sg30
S'1.6'
p818
sg32
S'11.6'
p819
sg34
S'2.2'
p820
sg36
S'3.6'
p821
sg38
S'2.7'
p822
sg40
S'23'
p823
sg42
S'GSW'
p824
sg44
S'15'
p825
sg46
S'0.0'
p826
sg48
S'4.2'
p827
sg50
S'2.2'
p828
sg52
S'9.6'
p829
sg54
S'2.0'
p830
sg55
S'2005-06'
p831
sg57
S'4.7'
p832
sg59
S'3.1'
p833
sg61
S'.442'
p834
sg63
S'162'
p835
sg65
g47
sba(isrc.gp1.models.Per36Minutes
Per36Minutes
p836
(dp837
g8
S'0.9'
p838
sg10
S'0.9'
p839
sg12
S'.456'
p840
sg14
S'7.0'
p841
sg16
S'.158'
p842
sg18
S'0.1'
p843
sg20
S'18.4'
p844
sg22
S'PG'
p845
sg24
S'.798'
p846
sg28
S'NBA'
p847
sg30
S'1.5'
p848
sg32
S'15.3'
p849
sg34
S'3.8'
p850
sg36
S'5.3'
p851
sg38
S'3.4'
p852
sg40
S'26'
p853
sg42
S'DET'
p854
sg44
S'57'
p855
sg46
S'0.1'
p856
sg48
S'6.9'
p857
sg50
S'4.3'
p858
sg52
S'14.5'
p859
sg54
S'2.5'
p860
sg55
S'2008-09'
p861
sg57
S'7.0'
p862
sg59
S'3.4'
p863
sg61
S'.474'
p864
sg63
S'803'
p865
sg65
g106
sba(isrc.gp1.models.Per36Minutes
Per36Minutes
p866
(dp867
g8
S'0.5'
p868
sg10
S'1.2'
p869
sg12
S'.444'
p870
sg14
S'6.1'
p871
sg16
S'.218'
p872
sg18
S'0.3'
p873
sg20
S'13.6'
p874
sg22
S'PG'
p875
sg24
S'.798'
p876
sg28
S'NBA'
p877
sg30
S'1.2'
p878
sg32
S'11.5'
p879
sg34
S'3.1'
p880
sg36
S'3.8'
p881
sg38
S'3.1'
p882
sg40
S'27'
p883
sg42
S'DET'
p884
sg44
S'63'
p885
sg46
S'0.2'
p886
sg48
S'4.9'
p887
sg50
S'3.1'
p888
sg52
S'10.3'
p889
sg54
S'2.5'
p890
sg55
S'2009-10'
p891
sg57
S'5.1'
p892
sg59
S'2.5'
p893
sg61
S'.470'
p894
sg63
S'1667'
p895
sg65
S'20'
p896
sba(isrc.gp1.models.Per36Minutes
Per36Minutes
p897
(dp898
g8
S'0.5'
p899
sg10
S'1.6'
p900
sg12
S'.448'
p901
sg14
S'6.2'
p902
sg16
S'.320'
p903
sg18
S'0.5'
p904
sg20
S'15.4'
p905
sg22
S'PG'
p906
sg24
S'.836'
p907
sg28
S'NBA'
p908
sg30
S'1.7'
p909
sg32
S'13.0'
p910
sg34
S'3.6'
p911
sg36
S'3.9'
p912
sg38
S'2.4'
p913
sg40
S'28'
p914
sg42
S'DET'
p915
sg44
S'61'
p916
sg46
S'0.1'
p917
sg48
S'5.3'
p918
sg50
S'3.3'
p919
sg52
S'11.4'
p920
sg54
S'1.9'
p921
sg55
S'2010-11'
p922
sg57
S'5.8'
p923
sg59
S'2.7'
p924
sg61
S'.466'
p925
sg63
S'1125'
p926
sg65
g169
sba(isrc.gp1.models.Per36Minutes
Per36Minutes
p927
(dp928
g8
S'0.7'
p929
sg10
S'2.0'
p930
sg12
S'.381'
p931
sg14
S'4.6'
p932
sg16
S'.241'
p933
sg18
S'0.5'
p934
sg20
S'14.3'
p935
sg22
S'PG'
p936
sg24
S'.766'
p937
sg28
S'NBA'
p938
sg30
S'1.6'
p939
sg32
S'13.6'
p940
sg34
S'4.3'
p941
sg36
S'4.5'
p942
sg38
S'3.9'
p943
sg40
S'29'
p944
sg42
S'DET'
p945
sg44
S'36'
p946
sg46
S'0.2'
p947
sg48
S'4.7'
p948
sg50
S'3.4'
p949
sg52
S'11.6'
p950
sg54
S'3.2'
p951
sg55
S'2011-12'
p952
sg57
S'5.2'
p953
sg59
S'3.8'
p954
sg61
S'.406'
p955
sg63
S'514'
p956
sg65
g47
sba(isrc.gp1.models.Per36Minutes
Per36Minutes
p957
(dp958
g8
S'0.8'
p959
sg10
S'2.2'
p960
sg12
S'.469'
p961
sg14
S'6.8'
p962
sg16
S'.316'
p963
sg18
S'0.7'
p964
sg20
S'18.8'
p965
sg22
S'PG'
p966
sg24
S'.809'
p967
sg28
S'NBA'
p968
sg30
S'1.3'
p969
sg32
S'15.9'
p970
sg34
S'3.8'
p971
sg36
S'3.9'
p972
sg38
S'2.9'
p973
sg40
S'30'
p974
sg42
S'DET'
p975
sg44
S'65'
p976
sg46
S'0.1'
p977
sg48
S'6.8'
p978
sg50
S'3.1'
p979
sg52
S'13.7'
p980
sg54
S'2.0'
p981
sg55
S'2012-13'
p982
sg57
S'7.5'
p983
sg59
S'3.7'
p984
sg61
S'.494'
p985
sg63
S'1219'
p986
sg65
g47
sba(isrc.gp1.models.Per36Minutes
Per36Minutes
p987
(dp988
g8
S'0.8'
p989
sg10
S'2.1'
p990
sg12
S'.428'
p991
sg14
S'7.4'
p992
sg16
S'.323'
p993
sg18
S'0.7'
p994
sg20
S'16.6'
p995
sg22
S'PG'
p996
sg24
S'.802'
p997
sg28
S'NBA'
p998
sg30
S'1.3'
p999
sg32
S'14.7'
p1000
sg34
S'4.1'
p1001
sg36
S'4.1'
p1002
sg38
S'3.4'
p1003
sg40
S'31'
p1004
sg42
S'DET'
p1005
sg44
S'56'
p1006
sg46
S'0.2'
p1007
sg48
S'5.6'
p1008
sg50
S'3.3'
p1009
sg52
S'12.6'
p1010
sg54
S'2.6'
p1011
sg55
S'2013-14'
p1012
sg57
S'6.3'
p1013
sg59
S'3.5'
p1014
sg61
S'.446'
p1015
sg63
S'1054'
p1016
sg65
g9
sba(isrc.gp1.models.Per36Minutes
Per36Minutes
p1017
(dp1018
g8
S'1.1'
p1019
sg10
S'4.8'
p1020
sg12
S'.323'
p1021
sg14
S'9.7'
p1022
sg16
S'.000'
p1023
sg18
S'0.0'
p1024
sg20
S'11.8'
p1025
sg22
S'SG'
p1026
sg24
S'.500'
p1027
sg28
S'NBA'
p1028
sg30
S'0.5'
p1029
sg32
S'16.7'
p1030
sg34
S'4.8'
p1031
sg36
S'2.1'
p1032
sg38
S'3.2'
p1033
sg40
S'32'
p1034
sg42
S'WAS'
p1035
sg44
g31
sg46
S'0.5'
p1036
sg48
S'5.4'
p1037
sg50
S'1.1'
p1038
sg52
S'11.8'
p1039
sg54
S'2.1'
p1040
sg55
S'2014-15'
p1041
sg57
S'5.4'
p1042
sg59
S'4.3'
p1043
sg61
S'.455'
p1044
sg63
S'67'
p1045
sg65
g47
sbasS'_fromYear'
p1046
S'2006'
p1047
sS'_url'
p1048
S'http://www.basketball-reference.com/players/b/bynumwi01.html'
p1049
sS'_perGame'
p1050
(isrc.gp1.models.PerGame
PerGame
p1051
(dp1052
g8
S'0.3'
p1053
sg10
S'1.3'
p1054
sg12
S'.323'
p1055
sS'_effectiveFieldGalPercentage'
p1056
S'.323'
p1057
sg14
S'2.6'
p1058
sg16
S'.000'
p1059
sg18
S'0.0'
p1060
sg20
S'3.1'
p1061
sg22
S'SG'
p1062
sg24
S'.500'
p1063
sg28
S'NBA'
p1064
sg30
S'0.1'
p1065
sg34
S'1.3'
p1066
sS'_fieldGoalsttempted'
p1067
S'4.4'
p1068
sg36
S'0.6'
p1069
sg38
S'0.9'
p1070
sg40
S'32'
p1071
sg42
S'WAS'
p1072
sg44
g31
sg46
S'0.1'
p1073
sg48
S'1.4'
p1074
sg50
S'0.3'
p1075
sg52
S'3.1'
p1076
sg54
S'0.6'
p1077
sg55
S'2014-15'
p1078
sg57
S'1.4'
p1079
sg59
S'1.1'
p1080
sg61
S'.455'
p1081
sg63
S'9.6'
p1082
sg65
g47
sbsS'_weight'
p1083
S'185'
p1084
sS'_dob'
p1085
S'4-1-1983'
p1086
sS'_salary'
p1087
(lp1088
(isrc.gp1.models.Salary
Salary
p1089
(dp1090
g42
S'Detroit Pistons'
p1091
sg28
S'NBA'
p1092
sg1087
S'$711,517'
p1093
sg55
S'2008-09'
p1094
sba(isrc.gp1.models.Salary
Salary
p1095
(dp1096
g42
S'Detroit Pistons'
p1097
sg28
S'NBA'
p1098
sg1087
S'$825,497'
p1099
sg55
S'2009-10'
p1100
sba(isrc.gp1.models.Salary
Salary
p1101
(dp1102
g42
S'Detroit Pistons'
p1103
sg28
S'NBA'
p1104
sg1087
S'$3,250,000'
p1105
sg55
S'2010-11'
p1106
sba(isrc.gp1.models.Salary
Salary
p1107
(dp1108
g42
S'Detroit Pistons'
p1109
sg28
S'NBA'
p1110
sg1087
S'$3,250,000'
p1111
sg55
S'2011-12'
p1112
sba(isrc.gp1.models.Salary
Salary
p1113
(dp1114
g42
S'Detroit Pistons'
p1115
sg28
S'NBA'
p1116
sg1087
S'$3,250,000'
p1117
sg55
S'2012-13'
p1118
sba(isrc.gp1.models.Salary
Salary
p1119
(dp1120
g42
S'Detroit Pistons'
p1121
sg28
S'NBA'
p1122
sg1087
S'$2,790,343'
p1123
sg55
S'2013-14'
p1124
sba(isrc.gp1.models.Salary
Salary
p1125
(dp1126
g42
S'Boston Celtics'
p1127
sg28
S'NBA'
p1128
sg1087
S'$2,915,908'
p1129
sg55
S'2014-15'
p1130
sba(isrc.gp1.models.Salary
Salary
p1131
(dp1132
g42
S'Washington Wizards'
p1133
sg28
S'NBA'
p1134
sg1087
S'$144,468'
p1135
sg55
S'2014-15'
p1136
sbasg22
S'G'
p1137
sb.