(isrc.gp1.models.Player
Player
p0
(dp1
S'_experience'
p2
S'NA'
p3
sS'_totals'
p4
(lp5
(isrc.gp1.models.Totals
Totals
p6
(dp7
S'_offensiveRebounds'
p8
S'12'
p9
sS'_threePointsAttempted'
p10
S'14'
p11
sS'_fieldGoalsPercentage'
p12
S'0'
p13
sS'_assist'
p14
g3
sS'_threePointsPercentage'
p15
S'.286'
p16
sS'_threePoints'
p17
S'4'
p18
sS'_points'
p19
g3
sS'_position'
p20
S'8'
p21
sS'_freeThrowsPercentage'
p22
S'1'
p23
sS'_effectiveFieldGoalPercentage'
p24
S'.625'
p25
sS'_league'
p26
S'ABA'
p27
sS'_steals'
p28
g3
sS'_fieldGoalsAttempted'
p29
g13
sS'_personalFouls'
p30
g3
sS'_freeThrowsAttempted'
p31
g13
sS'_totalRebounds'
p32
g3
sS'_age'
p33
S'23'
p34
sS'_team'
p35
S'PTP'
p36
sS'_games'
p37
S'52'
p38
sS'_blocks'
p39
g3
sS'_twoPoints'
p40
S'.286'
p41
sS'_freeThrows'
p42
S'10'
p43
sS'_twoPointsAttempted'
p44
S'5'
p45
sS'_defensiveRebounds'
p46
S'13'
p47
sS'_season'
p48
S'1967-68'
p49
sS'_fieldGoals'
p50
S'.286'
p51
sS'_turnOvers'
p52
g3
sS'_twoPointsPercentage'
p53
g21
sS'_minutesPlayed'
p54
S'14'
p55
sS'_gamesStarted'
p56
g18
sbasS'_college'
p57
S'Gannon University'
p58
sS'_toYear'
p59
S'1968'
p60
sS'_height'
p61
S'6-2'
p62
sS'_active'
p63
I00
sS'_shootingHand'
p64
VRight
p65
sS'_name'
p66
S'Calvin Graham'
p67
sS'_per100Possessions'
p68
(lp69
sS'_advanced'
p70
(lp71
(isrc.gp1.models.Advanced
Advanced
p72
(dp73
S'_offensiveReboundPercentage'
p74
S'0.0'
p75
sS'_turnOverPercentage'
p76
S'-0.036'
p77
sS'_winSharesPer48Minutes'
p78
g3
sS'_stealPercentage'
p79
S'0.0'
p80
sS'_usagePercentage'
p81
g3
sS'_totalReboundsPercentage'
p82
S'13.3'
p83
sS'_defensiveBoxPlusMinus'
p84
g3
sg20
g21
sS'_valueOverReplacementPlayer'
p85
g3
sS'_trueShootingPercentage'
p86
S'.000'
p87
sS'_defensiveReboundPercentage'
p88
S'5.4'
p89
sS'_freeThrowsAttempRate'
p90
S'8.1'
p91
sS'_threePointsAttempRate'
p92
S'.571'
p93
sg26
S'ABA'
p94
sS'_offensiveBoxPlusMinues'
p95
g3
sS'_assistPercentage'
p96
S'-0.1'
p97
sS'_defensiveWinShares'
p98
g3
sg33
S'23'
p99
sg35
S'PTP'
p100
sg37
S'52'
p101
sS'_blockPercentage'
p102
S'0.0'
p103
sS'_playerEfficiencyRating'
p104
S'.371'
p105
sS'_offensiveWinShares'
p106
g3
sg54
S'2.2'
p107
sS'_boxPlusMinus'
p108
g3
sg48
S'1967-68'
p109
sS'_winShares'
p110
g3
sbasS'_per36Minutes'
p111
(lp112
(isrc.gp1.models.Per36Minutes
Per36Minutes
p113
(dp114
g8
S'8.3'
p115
sg10
S'9.7'
p116
sg12
S'0.0'
p117
sg14
g3
sg15
S'.286'
p118
sg17
S'2.8'
p119
sg19
g3
sg20
g21
sg22
S'0.7'
p120
sg26
S'ABA'
p121
sg28
g3
sg29
S'0.0'
p122
sg30
g3
sg31
S'0.0'
p123
sg32
g3
sg33
S'23'
p124
sg35
S'PTP'
p125
sg37
S'52'
p126
sg39
g3
sg40
S'3.5'
p127
sg42
S'6.9'
p128
sg44
S'5.5'
p129
sg46
S'9.0'
p130
sg48
S'1967-68'
p131
sg50
S'.286'
p132
sg52
g3
sg53
S'.625'
p133
sg54
S'9.7'
p134
sg56
S'2.8'
p135
sbasS'_fromYear'
p136
S'1968'
p137
sS'_url'
p138
S'http://www.basketball-reference.com/players/g/grahaca01.html'
p139
sS'_perGame'
p140
(isrc.gp1.models.PerGame
PerGame
p141
(dp142
g8
S'1.5'
p143
sg10
S'1.8'
p144
sg12
S'0.0'
p145
sS'_effectiveFieldGalPercentage'
p146
S'.625'
p147
sg14
g3
sg15
S'.286'
p148
sg17
S'0.5'
p149
sg19
g3
sg20
g21
sg22
S'0.1'
p150
sg26
S'ABA'
p151
sg28
g3
sg30
g3
sS'_fieldGoalsttempted'
p152
S'0.0'
p153
sg31
S'0.0'
p154
sg32
g3
sg33
S'23'
p155
sg35
S'PTP'
p156
sg37
S'6.5'
p157
sg39
g3
sg40
S'.286'
p158
sg42
S'1.3'
p159
sg44
S'0.6'
p160
sg46
S'1.6'
p161
sg48
S'1967-68'
p162
sg50
S'.286'
p163
sg52
g3
sg53
S'1.0'
p164
sg54
S'1.8'
p165
sg56
S'0.5'
p166
sbsS'_weight'
p167
S'195'
p168
sS'_dob'
p169
S'7-6-1944'
p170
sS'_salary'
p171
(lp172
sg20
S'G'
p173
sb.