(isrc.gp1.models.Player
Player
p0
(dp1
S'_experience'
p2
S'NA'
p3
sS'_totals'
p4
(lp5
(isrc.gp1.models.Totals
Totals
p6
(dp7
S'_offensiveRebounds'
p8
S'73'
p9
sS'_threePointsAttempted'
p10
S'.000'
p11
sS'_fieldGoalsPercentage'
p12
S'0'
p13
sS'_assist'
p14
S'60'
p15
sS'_threePointsPercentage'
p16
S'172'
p17
sS'_threePoints'
p18
S'4'
p19
sS'_points'
p20
g3
sS'_position'
p21
S'PG'
p22
sS'_freeThrowsPercentage'
p23
S'37'
p24
sS'_effectiveFieldGoalPercentage'
p25
S'71'
p26
sS'_league'
p27
S'NBA'
p28
sS'_steals'
p29
S'3'
p30
sS'_fieldGoalsAttempted'
p31
S'.479'
p32
sS'_personalFouls'
p33
S'415'
p34
sS'_freeThrowsAttempted'
p35
S'.563'
p36
sS'_totalRebounds'
p37
S'149'
p38
sS'_age'
p39
S'22'
p40
sS'_team'
p41
S'TOT'
p42
sS'_games'
p43
S'67'
p44
sS'_blocks'
p45
S'116'
p46
sS'_twoPoints'
p47
S'355'
p48
sS'_freeThrows'
p49
S'126'
p50
sS'_twoPointsAttempted'
p51
S'.485'
p52
sS'_defensiveRebounds'
p53
S'110'
p54
sS'_season'
p55
S'1980-81'
p56
sS'_fieldGoals'
p57
S'359'
p58
sS'_turnOvers'
p59
S'141'
p60
sS'_twoPointsPercentage'
p61
S'.479'
p62
sS'_minutesPlayed'
p63
S'172'
p64
sS'_gamesStarted'
p65
S'1109'
p66
sba(isrc.gp1.models.Totals
Totals
p67
(dp68
g8
S'36'
p69
sg10
S'.000'
p70
sg12
g13
sg14
S'28'
p71
sg16
S'65'
p72
sg18
S'1'
p73
sg20
g3
sg21
S'PG'
p74
sg23
S'13'
p75
sg25
S'35'
p76
sg27
S'NBA'
p77
sg29
S'2'
p78
sg31
S'.436'
p79
sg33
S'165'
p80
sg35
S'.593'
p81
sg37
S'80'
p82
sg39
S'22'
p83
sg41
S'DEN'
p84
sg43
S'27'
p85
sg45
S'63'
p86
sg47
S'148'
p87
sg49
S'59'
p88
sg51
S'.439'
p89
sg53
S'49'
p90
sg55
S'1980-81'
p91
sg57
S'149'
p92
sg59
S'52'
p93
sg61
S'.436'
p94
sg63
S'65'
p95
sg65
S'493'
p96
sba(isrc.gp1.models.Totals
Totals
p97
(dp98
g8
S'37'
p99
sg10
S'.000'
p100
sg12
g13
sg14
S'32'
p101
sg16
S'107'
p102
sg18
g30
sg20
g3
sg21
S'PG'
p103
sg23
S'24'
p104
sg25
S'36'
p105
sg27
S'NBA'
p106
sg29
g73
sg31
S'.510'
p107
sg33
S'250'
p108
sg35
S'.537'
p109
sg37
S'69'
p110
sg39
S'22'
p111
sg41
S'UTA'
p112
sg43
S'40'
p113
sg45
S'53'
p114
sg47
S'207'
p115
sg49
S'67'
p116
sg51
S'.517'
p117
sg53
S'61'
p118
sg55
S'1980-81'
p119
sg57
S'210'
p120
sg59
S'89'
p121
sg61
S'.510'
p122
sg63
S'107'
p123
sg65
S'616'
p124
sba(isrc.gp1.models.Totals
Totals
p125
(dp126
g8
S'67'
p127
sg10
S'5'
p128
sg12
S'.454'
p129
sg14
S'89'
p130
sg16
S'.000'
p131
sg18
g13
sg20
S'589'
p132
sg21
S'SG'
p133
sg23
S'.567'
p134
sg25
S'.454'
p135
sg27
S'NBA'
p136
sg29
S'66'
p137
sg31
S'555'
p138
sg33
S'184'
p139
sg35
S'150'
p140
sg37
S'161'
p141
sg39
S'23'
p142
sg41
S'UTA'
p143
sg43
S'80'
p144
sg45
g19
sg47
S'252'
p145
sg49
S'85'
p146
sg51
S'550'
p147
sg53
S'94'
p148
sg55
S'1981-82'
p149
sg57
S'252'
p150
sg59
S'101'
p151
sg61
S'.458'
p152
sg63
S'1322'
p153
sg65
g73
sba(isrc.gp1.models.Totals
Totals
p154
(dp155
g8
S'8'
p156
sg10
g73
sg12
S'.441'
p157
sg14
S'11'
p158
sg16
S'.000'
p159
sg18
g13
sg20
S'63'
p160
sg21
S'SG'
p161
sg23
S'.647'
p162
sg25
S'.441'
p163
sg27
S'NBA'
p164
sg29
S'6'
p165
sg31
S'59'
p166
sg33
S'17'
p167
sg35
S'17'
p168
sg37
S'26'
p169
sg39
S'24'
p170
sg41
S'CLE'
p171
sg43
S'9'
p172
sg45
g13
sg47
S'26'
p173
sg49
S'11'
p174
sg51
S'58'
p175
sg53
S'18'
p176
sg55
S'1982-83'
p177
sg57
S'26'
p178
sg59
S'11'
p179
sg61
S'.448'
p180
sg63
S'148'
p181
sg65
g78
sbasS'_college'
p182
S'Indiana State University'
p183
sS'_toYear'
p184
S'1983'
p185
sS'_height'
p186
S'6-1'
p187
sS'_active'
p188
I00
sS'_shootingHand'
p189
VLeft
p190
sS'_name'
p191
S'Carl Nicks'
p192
sS'_per100Possessions'
p193
(lp194
(isrc.gp1.models.Per100Possession
Per100Possession
p195
(dp196
g8
S'3.1'
p197
sg10
S'.000'
p198
sg12
S'0.0'
p199
sS'_offensiveRating'
p200
S'110'
p201
sg14
S'2.5'
p202
sg16
S'7.2'
p203
sg18
S'0.2'
p204
sg20
S'92'
p205
sg21
S'PG'
p206
sS'_defensiveRating'
p207
g3
sg23
S'1.6'
p208
sg27
S'NBA'
p209
sg29
S'0.1'
p210
sg31
S'.479'
p211
sg33
S'17.4'
p212
sg35
S'.563'
p213
sg37
S'6.3'
p214
sg39
S'22'
p215
sg41
S'TOT'
p216
sg43
S'67'
p217
sg45
S'4.9'
p218
sg47
S'14.9'
p219
sg49
S'5.3'
p220
sg51
S'.485'
p221
sg53
S'4.6'
p222
sg55
S'1980-81'
p223
sg57
S'15.1'
p224
sg59
S'5.9'
p225
sg61
S'3.0'
p226
sg63
S'7.2'
p227
sg65
S'1109'
p228
sba(isrc.gp1.models.Per100Possession
Per100Possession
p229
(dp230
g8
S'3.2'
p231
sg10
S'.000'
p232
sg12
S'0.0'
p233
sg200
S'110'
p234
sg14
S'2.5'
p235
sg16
S'5.8'
p236
sg18
S'0.1'
p237
sg20
S'85'
p238
sg21
S'PG'
p239
sg207
g3
sg23
S'1.2'
p240
sg27
S'NBA'
p241
sg29
S'0.2'
p242
sg31
S'.436'
p243
sg33
S'14.6'
p244
sg35
S'.593'
p245
sg37
S'7.1'
p246
sg39
S'22'
p247
sg41
S'DEN'
p248
sg43
S'27'
p249
sg45
S'5.6'
p250
sg47
S'13.1'
p251
sg49
S'5.2'
p252
sg51
S'.439'
p253
sg53
S'4.3'
p254
sg55
S'1980-81'
p255
sg57
S'13.2'
p256
sg59
S'4.6'
p257
sg61
S'3.1'
p258
sg63
S'5.8'
p259
sg65
S'493'
p260
sba(isrc.gp1.models.Per100Possession
Per100Possession
p261
(dp262
g8
S'3.0'
p263
sg10
S'.000'
p264
sg12
S'0.0'
p265
sg200
S'110'
p266
sg14
S'2.6'
p267
sg16
S'8.5'
p268
sg18
S'0.2'
p269
sg20
S'97'
p270
sg21
S'PG'
p271
sg207
g3
sg23
S'1.9'
p272
sg27
S'NBA'
p273
sg29
S'0.1'
p274
sg31
S'.510'
p275
sg33
S'19.9'
p276
sg35
S'.537'
p277
sg37
S'5.5'
p278
sg39
S'22'
p279
sg41
S'UTA'
p280
sg43
S'40'
p281
sg45
S'4.2'
p282
sg47
S'16.5'
p283
sg49
S'5.3'
p284
sg51
S'.517'
p285
sg53
S'4.9'
p286
sg55
S'1980-81'
p287
sg57
S'16.8'
p288
sg59
S'7.1'
p289
sg61
S'2.9'
p290
sg63
S'8.5'
p291
sg65
S'616'
p292
sba(isrc.gp1.models.Per100Possession
Per100Possession
p293
(dp294
g8
S'2.3'
p295
sg10
S'0.2'
p296
sg12
S'.454'
p297
sg200
S'94'
p298
sg14
S'3.1'
p299
sg16
S'.000'
p300
sg18
S'0.0'
p301
sg20
S'20.6'
p302
sg21
S'SG'
p303
sg207
S'112'
p304
sg23
S'.567'
p305
sg27
S'NBA'
p306
sg29
S'2.3'
p307
sg31
S'19.4'
p308
sg33
S'6.4'
p309
sg35
S'5.2'
p310
sg37
S'5.6'
p311
sg39
S'23'
p312
sg41
S'UTA'
p313
sg43
S'80'
p314
sg45
S'0.1'
p315
sg47
S'8.8'
p316
sg49
S'3.0'
p317
sg51
S'19.2'
p318
sg53
S'3.3'
p319
sg55
S'1981-82'
p320
sg57
S'8.8'
p321
sg59
S'3.5'
p322
sg61
S'.458'
p323
sg63
S'1322'
p324
sg65
g73
sba(isrc.gp1.models.Per100Possession
Per100Possession
p325
(dp326
g8
S'2.7'
p327
sg10
S'0.3'
p328
sg12
S'.441'
p329
sg200
S'95'
p330
sg14
S'3.7'
p331
sg16
S'.000'
p332
sg18
S'0.0'
p333
sg20
S'20.9'
p334
sg21
S'SG'
p335
sg207
S'107'
p336
sg23
S'.647'
p337
sg27
S'NBA'
p338
sg29
S'2.0'
p339
sg31
S'19.6'
p340
sg33
S'5.7'
p341
sg35
S'5.7'
p342
sg37
S'8.6'
p343
sg39
S'24'
p344
sg41
S'CLE'
p345
sg43
g172
sg45
S'0.0'
p346
sg47
S'8.6'
p347
sg49
S'3.7'
p348
sg51
S'19.3'
p349
sg53
S'6.0'
p350
sg55
S'1982-83'
p351
sg57
S'8.6'
p352
sg59
S'3.7'
p353
sg61
S'.448'
p354
sg63
S'148'
p355
sg65
g78
sbasS'_advanced'
p356
(lp357
(isrc.gp1.models.Advanced
Advanced
p358
(dp359
S'_offensiveReboundPercentage'
p360
S'3.7'
p361
sS'_turnOverPercentage'
p362
S'21.9'
p363
sS'_winSharesPer48Minutes'
p364
S'-0.008'
p365
sS'_stealPercentage'
p366
S'2.5'
p367
sS'_usagePercentage'
p368
S'19.3'
p369
sS'_totalReboundsPercentage'
p370
S'5.4'
p371
sS'_defensiveBoxPlusMinus'
p372
S'-1.5'
p373
sg21
S'PG'
p374
sS'_valueOverReplacementPlayer'
p375
S'-0.6'
p376
sS'_trueShootingPercentage'
p377
S'.501'
p378
sS'_defensiveReboundPercentage'
p379
S'7.2'
p380
sS'_freeThrowsAttempRate'
p381
S'.351'
p382
sS'_threePointsAttempRate'
p383
S'.011'
p384
sg27
S'NBA'
p385
sS'_offensiveBoxPlusMinues'
p386
S'-2.6'
p387
sS'_assistPercentage'
p388
S'18.1'
p389
sS'_defensiveWinShares'
p390
S'0.5'
p391
sg39
S'22'
p392
sg41
S'TOT'
p393
sg43
S'67'
p394
sS'_blockPercentage'
p395
S'0.1'
p396
sS'_playerEfficiencyRating'
p397
S'10.2'
p398
sS'_offensiveWinShares'
p399
S'-0.7'
p400
sg63
S'1109'
p401
sS'_boxPlusMinus'
p402
S'-4.1'
p403
sg55
S'1980-81'
p404
sS'_winShares'
p405
S'-0.2'
p406
sba(isrc.gp1.models.Advanced
Advanced
p407
(dp408
g360
S'2.6'
p409
sg362
S'26.5'
p410
sg364
S'-0.043'
p411
sg366
S'2.5'
p412
sg368
S'17.9'
p413
sg370
S'5.1'
p414
sg372
S'-1.1'
p415
sg21
S'PG'
p416
sg375
S'-0.3'
p417
sg377
S'.472'
p418
sg379
S'7.6'
p419
sg381
S'.396'
p420
sg383
S'.007'
p421
sg27
S'NBA'
p422
sg386
S'-3.6'
p423
sg388
S'19.9'
p424
sg390
S'0.2'
p425
sg39
S'22'
p426
sg41
S'DEN'
p427
sg43
S'27'
p428
sg395
S'0.2'
p429
sg397
S'8.3'
p430
sg399
S'-0.7'
p431
sg63
S'493'
p432
sg402
S'-4.7'
p433
sg55
S'1980-81'
p434
sg405
S'-0.4'
p435
sba(isrc.gp1.models.Advanced
Advanced
p436
(dp437
g360
S'4.5'
p438
sg362
S'18.1'
p439
sg364
S'.021'
p440
sg366
S'2.6'
p441
sg368
S'20.4'
p442
sg370
S'5.7'
p443
sg372
S'-1.8'
p444
sg21
S'PG'
p445
sg375
S'-0.2'
p446
sg377
S'.522'
p447
sg379
S'6.8'
p448
sg381
S'.319'
p449
sg383
S'.014'
p450
sg27
S'NBA'
p451
sg386
S'-1.8'
p452
sg388
S'16.7'
p453
sg390
S'0.3'
p454
sg39
S'22'
p455
sg41
S'UTA'
p456
sg43
S'40'
p457
sg395
S'0.1'
p458
sg397
S'11.7'
p459
sg399
S'0.0'
p460
sg63
S'616'
p461
sg402
S'-3.6'
p462
sg55
S'1980-81'
p463
sg405
S'0.3'
p464
sba(isrc.gp1.models.Advanced
Advanced
p465
(dp466
g360
S'5.4'
p467
sg362
S'14.0'
p468
sg364
S'-0.010'
p469
sg366
S'2.3'
p470
sg368
S'21.9'
p471
sg370
S'6.5'
p472
sg372
S'-2.1'
p473
sg21
S'SG'
p474
sg375
S'-1.0'
p475
sg377
S'.474'
p476
sg379
S'7.8'
p477
sg381
S'.270'
p478
sg383
S'.009'
p479
sg27
S'NBA'
p480
sg386
S'-2.8'
p481
sg388
S'9.1'
p482
sg390
S'0.5'
p483
sg39
S'23'
p484
sg41
S'UTA'
p485
sg43
S'80'
p486
sg395
S'0.2'
p487
sg397
S'10.5'
p488
sg399
S'-0.8'
p489
sg63
S'1322'
p490
sg402
S'-4.9'
p491
sg55
S'1981-82'
p492
sg405
S'-0.3'
p493
sba(isrc.gp1.models.Advanced
Advanced
p494
(dp495
g360
S'6.0'
p496
sg362
S'14.2'
p497
sg364
S'.032'
p498
sg366
S'2.0'
p499
sg368
S'22.0'
p500
sg370
S'10.0'
p501
sg372
S'-1.1'
p502
sg21
S'SG'
p503
sg375
S'-0.1'
p504
sg377
S'.474'
p505
sg379
S'14.2'
p506
sg381
S'.288'
p507
sg383
S'.017'
p508
sg27
S'NBA'
p509
sg386
S'-2.5'
p510
sg388
S'11.5'
p511
sg390
S'0.1'
p512
sg39
S'24'
p513
sg41
S'CLE'
p514
sg43
g172
sg395
S'0.0'
p515
sg397
S'12.1'
p516
sg399
S'0.0'
p517
sg63
S'148'
p518
sg402
S'-3.6'
p519
sg55
S'1982-83'
p520
sg405
S'0.1'
p521
sbasS'_per36Minutes'
p522
(lp523
(isrc.gp1.models.Per36Minutes
Per36Minutes
p524
(dp525
g8
S'2.4'
p526
sg10
S'.000'
p527
sg12
S'0.0'
p528
sg14
S'1.9'
p529
sg16
S'5.6'
p530
sg18
S'0.1'
p531
sg20
g3
sg21
S'PG'
p532
sg23
S'1.2'
p533
sg27
S'NBA'
p534
sg29
S'0.1'
p535
sg31
S'.479'
p536
sg33
S'13.5'
p537
sg35
S'.563'
p538
sg37
S'4.8'
p539
sg39
S'22'
p540
sg41
S'TOT'
p541
sg43
S'67'
p542
sg45
S'3.8'
p543
sg47
S'11.5'
p544
sg49
S'4.1'
p545
sg51
S'.485'
p546
sg53
S'3.6'
p547
sg55
S'1980-81'
p548
sg57
S'11.7'
p549
sg59
S'4.6'
p550
sg61
S'2.3'
p551
sg63
S'5.6'
p552
sg65
S'1109'
p553
sba(isrc.gp1.models.Per36Minutes
Per36Minutes
p554
(dp555
g8
S'2.6'
p556
sg10
S'.000'
p557
sg12
S'0.0'
p558
sg14
S'2.0'
p559
sg16
S'4.7'
p560
sg18
S'0.1'
p561
sg20
g3
sg21
S'PG'
p562
sg23
S'0.9'
p563
sg27
S'NBA'
p564
sg29
S'0.1'
p565
sg31
S'.436'
p566
sg33
S'12.0'
p567
sg35
S'.593'
p568
sg37
S'5.8'
p569
sg39
S'22'
p570
sg41
S'DEN'
p571
sg43
S'27'
p572
sg45
S'4.6'
p573
sg47
S'10.8'
p574
sg49
S'4.3'
p575
sg51
S'.439'
p576
sg53
S'3.6'
p577
sg55
S'1980-81'
p578
sg57
S'10.9'
p579
sg59
S'3.8'
p580
sg61
S'2.6'
p581
sg63
S'4.7'
p582
sg65
S'493'
p583
sba(isrc.gp1.models.Per36Minutes
Per36Minutes
p584
(dp585
g8
S'2.2'
p586
sg10
S'.000'
p587
sg12
S'0.0'
p588
sg14
S'1.9'
p589
sg16
S'6.3'
p590
sg18
S'0.2'
p591
sg20
g3
sg21
S'PG'
p592
sg23
S'1.4'
p593
sg27
S'NBA'
p594
sg29
S'0.1'
p595
sg31
S'.510'
p596
sg33
S'14.6'
p597
sg35
S'.537'
p598
sg37
S'4.0'
p599
sg39
S'22'
p600
sg41
S'UTA'
p601
sg43
S'40'
p602
sg45
S'3.1'
p603
sg47
S'12.1'
p604
sg49
S'3.9'
p605
sg51
S'.517'
p606
sg53
S'3.6'
p607
sg55
S'1980-81'
p608
sg57
S'12.3'
p609
sg59
S'5.2'
p610
sg61
S'2.1'
p611
sg63
S'6.3'
p612
sg65
S'616'
p613
sba(isrc.gp1.models.Per36Minutes
Per36Minutes
p614
(dp615
g8
S'1.8'
p616
sg10
S'0.1'
p617
sg12
S'.454'
p618
sg14
S'2.4'
p619
sg16
S'.000'
p620
sg18
S'0.0'
p621
sg20
S'16.0'
p622
sg21
S'SG'
p623
sg23
S'.567'
p624
sg27
S'NBA'
p625
sg29
S'1.8'
p626
sg31
S'15.1'
p627
sg33
S'5.0'
p628
sg35
S'4.1'
p629
sg37
S'4.4'
p630
sg39
S'23'
p631
sg41
S'UTA'
p632
sg43
S'80'
p633
sg45
S'0.1'
p634
sg47
S'6.9'
p635
sg49
S'2.3'
p636
sg51
S'15.0'
p637
sg53
S'2.6'
p638
sg55
S'1981-82'
p639
sg57
S'6.9'
p640
sg59
S'2.8'
p641
sg61
S'.458'
p642
sg63
S'1322'
p643
sg65
g73
sba(isrc.gp1.models.Per36Minutes
Per36Minutes
p644
(dp645
g8
S'1.9'
p646
sg10
S'0.2'
p647
sg12
S'.441'
p648
sg14
S'2.7'
p649
sg16
S'.000'
p650
sg18
S'0.0'
p651
sg20
S'15.3'
p652
sg21
S'SG'
p653
sg23
S'.647'
p654
sg27
S'NBA'
p655
sg29
S'1.5'
p656
sg31
S'14.4'
p657
sg33
S'4.1'
p658
sg35
S'4.1'
p659
sg37
S'6.3'
p660
sg39
S'24'
p661
sg41
S'CLE'
p662
sg43
g172
sg45
S'0.0'
p663
sg47
S'6.3'
p664
sg49
S'2.7'
p665
sg51
S'14.1'
p666
sg53
S'4.4'
p667
sg55
S'1982-83'
p668
sg57
S'6.3'
p669
sg59
S'2.7'
p670
sg61
S'.448'
p671
sg63
S'148'
p672
sg65
g78
sbasS'_fromYear'
p673
S'1981'
p674
sS'_url'
p675
S'http://www.basketball-reference.com/players/n/nicksca01.html'
p676
sS'_perGame'
p677
(isrc.gp1.models.PerGame
PerGame
p678
(dp679
g8
S'0.9'
p680
sg10
S'0.1'
p681
sg12
S'.441'
p682
sS'_effectiveFieldGalPercentage'
p683
S'.441'
p684
sg14
S'1.2'
p685
sg16
S'.000'
p686
sg18
S'0.0'
p687
sg20
S'7.0'
p688
sg21
S'SG'
p689
sg23
S'.647'
p690
sg27
S'NBA'
p691
sg29
S'0.7'
p692
sg33
S'1.9'
p693
sS'_fieldGoalsttempted'
p694
S'6.6'
p695
sg35
S'1.9'
p696
sg37
S'2.9'
p697
sg39
S'24'
p698
sg41
S'CLE'
p699
sg43
g172
sg45
S'0.0'
p700
sg47
S'2.9'
p701
sg49
S'1.2'
p702
sg51
S'6.4'
p703
sg53
S'2.0'
p704
sg55
S'1982-83'
p705
sg57
S'2.9'
p706
sg59
S'1.2'
p707
sg61
S'.448'
p708
sg63
S'16.4'
p709
sg65
g78
sbsS'_weight'
p710
S'175'
p711
sS'_dob'
p712
S'6-10-1958'
p713
sS'_salary'
p714
(lp715
sg21
S'G'
p716
sb.