(isrc.gp1.models.Player
Player
p0
(dp1
S'_experience'
p2
S'NA'
p3
sS'_totals'
p4
(lp5
(isrc.gp1.models.Totals
Totals
p6
(dp7
S'_offensiveRebounds'
p8
S'171'
p9
sS'_threePointsAttempted'
p10
S'24'
p11
sS'_fieldGoalsPercentage'
p12
S'.483'
p13
sS'_assist'
p14
S'224'
p15
sS'_threePointsPercentage'
p16
S'.375'
p17
sS'_threePoints'
p18
S'9'
p19
sS'_points'
p20
S'906'
p21
sS'_position'
p22
S'SF'
p23
sS'_freeThrowsPercentage'
p24
S'.665'
p25
sS'_effectiveFieldGoalPercentage'
p26
S'.489'
p27
sS'_league'
p28
S'ABA'
p29
sS'_steals'
p30
S'127'
p31
sS'_fieldGoalsAttempted'
p32
S'786'
p33
sS'_personalFouls'
p34
S'225'
p35
sS'_freeThrowsAttempted'
p36
S'206'
p37
sS'_totalRebounds'
p38
S'459'
p39
sS'_age'
p40
S'25'
p41
sS'_team'
p42
S'SSL'
p43
sS'_games'
p44
S'74'
p45
sS'_blocks'
p46
S'44'
p47
sS'_twoPoints'
p48
S'371'
p49
sS'_freeThrows'
p50
S'137'
p51
sS'_twoPointsAttempted'
p52
S'762'
p53
sS'_defensiveRebounds'
p54
S'288'
p55
sS'_season'
p56
S'1975-76'
p57
sS'_fieldGoals'
p58
S'380'
p59
sS'_turnOvers'
p60
S'162'
p61
sS'_twoPointsPercentage'
p62
S'.487'
p63
sS'_minutesPlayed'
p64
S'2174'
p65
sS'_gamesStarted'
p66
g3
sba(isrc.gp1.models.Totals
Totals
p67
(dp68
g8
S'211'
p69
sg10
g3
sg12
S'.476'
p70
sg14
S'181'
p71
sg16
g3
sg18
g3
sg20
S'1091'
p72
sg22
S'SF'
p73
sg24
S'.735'
p74
sg26
S'.476'
p75
sg28
S'NBA'
p76
sg30
S'165'
p77
sg32
S'931'
p78
sg34
S'287'
p79
sg36
S'279'
p80
sg38
S'631'
p81
sg40
S'26'
p82
sg42
S'DET'
p83
sg44
S'82'
p84
sg46
S'58'
p85
sg48
S'443'
p86
sg50
S'205'
p87
sg52
S'931'
p88
sg54
S'420'
p89
sg56
S'1976-77'
p90
sg58
S'443'
p91
sg60
g3
sg62
S'.476'
p92
sg64
S'2643'
p93
sg66
g3
sba(isrc.gp1.models.Totals
Totals
p94
(dp95
g8
S'202'
p96
sg10
g3
sg12
S'.455'
p97
sg14
S'185'
p98
sg16
g3
sg18
g3
sg20
S'980'
p99
sg22
S'SF'
p100
sg24
S'.738'
p101
sg26
S'.455'
p102
sg28
S'NBA'
p103
sg30
S'147'
p104
sg32
S'857'
p105
sg34
S'243'
p106
sg36
S'271'
p107
sg38
S'557'
p108
sg40
S'27'
p109
sg42
S'DET'
p110
sg44
S'79'
p111
sg46
S'27'
p112
sg48
S'390'
p113
sg50
S'200'
p114
sg52
S'857'
p115
sg54
S'355'
p116
sg56
S'1977-78'
p117
sg58
S'390'
p118
sg60
S'210'
p119
sg62
S'.455'
p120
sg64
S'2556'
p121
sg66
g3
sba(isrc.gp1.models.Totals
Totals
p122
(dp123
g8
S'219'
p124
sg10
g3
sg12
S'.514'
p125
sg14
S'262'
p126
sg16
g3
sg18
g3
sg20
S'1497'
p127
sg22
S'SF'
p128
sg24
S'.743'
p129
sg26
S'.514'
p130
sg28
S'NBA'
p131
sg30
S'197'
p132
sg32
S'1143'
p133
sg34
S'279'
p134
sg36
S'435'
p135
sg38
S'589'
p136
sg40
S'28'
p137
sg42
S'DET'
p138
sg44
S'80'
p139
sg46
S'46'
p140
sg48
S'587'
p141
sg50
S'323'
p142
sg52
S'1143'
p143
sg54
S'370'
p144
sg56
S'1978-79'
p145
sg58
S'587'
p146
sg60
S'255'
p147
sg62
S'.514'
p148
sg64
S'3207'
p149
sg66
g3
sba(isrc.gp1.models.Totals
Totals
p150
(dp151
g8
S'106'
p152
sg10
S'41'
p153
sg12
S'.474'
p154
sg14
S'156'
p155
sg16
S'.293'
p156
sg18
S'12'
p157
sg20
S'914'
p158
sg22
S'SF'
p159
sg24
S'.739'
p160
sg26
S'.482'
p161
sg28
S'NBA'
p162
sg30
S'120'
p163
sg32
S'763'
p164
sg34
S'214'
p165
sg36
S'241'
p166
sg38
S'330'
p167
sg40
S'29'
p168
sg42
S'BOS'
p169
sg44
S'82'
p170
sg46
S'36'
p171
sg48
S'350'
p172
sg50
S'178'
p173
sg52
S'722'
p174
sg54
S'224'
p175
sg56
S'1979-80'
p176
sg58
S'362'
p177
sg60
S'143'
p178
sg62
S'.485'
p179
sg64
S'1994'
p180
sg66
S'7'
p181
sba(isrc.gp1.models.Totals
Totals
p182
(dp183
g8
S'26'
p184
sg10
S'14'
p185
sg12
S'.449'
p186
sg14
S'56'
p187
sg16
S'.071'
p188
sg18
S'1'
p189
sg20
S'248'
p190
sg22
S'SF'
p191
sg24
S'.791'
p192
sg26
S'.451'
p193
sg28
S'NBA'
p194
sg30
S'30'
p195
sg32
S'216'
p196
sg34
S'74'
p197
sg36
S'67'
p198
sg38
S'83'
p199
sg40
S'30'
p200
sg42
S'BOS'
p201
sg44
S'41'
p202
sg46
S'18'
p203
sg48
S'96'
p204
sg50
S'53'
p205
sg52
S'202'
p206
sg54
S'57'
p207
sg56
S'1980-81'
p208
sg58
S'97'
p209
sg60
S'47'
p210
sg62
S'.475'
p211
sg64
S'655'
p212
sg66
g181
sba(isrc.gp1.models.Totals
Totals
p213
(dp214
g8
S'56'
p215
sg10
S'17'
p216
sg12
S'.450'
p217
sg14
S'128'
p218
sg16
S'.294'
p219
sg18
S'5'
p220
sg20
S'455'
p221
sg22
S'SF'
p222
sg24
S'.707'
p223
sg26
S'.456'
p224
sg28
S'NBA'
p225
sg30
S'67'
p226
sg32
S'409'
p227
sg34
S'136'
p228
sg36
S'116'
p229
sg38
S'150'
p230
sg40
S'31'
p231
sg42
S'BOS'
p232
sg44
S'56'
p233
sg46
S'21'
p234
sg48
S'179'
p235
sg50
S'82'
p236
sg52
S'392'
p237
sg54
S'94'
p238
sg56
S'1981-82'
p239
sg58
S'184'
p240
sg60
S'63'
p241
sg62
S'.457'
p242
sg64
S'1296'
p243
sg66
S'27'
p244
sba(isrc.gp1.models.Totals
Totals
p245
(dp246
g8
S'51'
p247
sg10
S'19'
p248
sg12
S'.429'
p249
sg14
S'71'
p250
sg16
S'.158'
p251
sg18
S'3'
p252
sg20
S'333'
p253
sg22
S'SF'
p254
sg24
S'.741'
p255
sg26
S'.433'
p256
sg28
S'NBA'
p257
sg30
S'48'
p258
sg32
S'315'
p259
sg34
S'140'
p260
sg36
S'81'
p261
sg38
S'137'
p262
sg40
S'32'
p263
sg42
S'BOS'
p264
sg44
S'77'
p265
sg46
S'10'
p266
sg48
S'132'
p267
sg50
S'60'
p268
sg52
S'296'
p269
sg54
S'86'
p270
sg56
S'1982-83'
p271
sg58
S'135'
p272
sg60
S'79'
p273
sg62
S'.446'
p274
sg64
S'883'
p275
sg66
S'0'
p276
sba(isrc.gp1.models.Totals
Totals
p277
(dp278
g8
S'26'
p279
sg10
S'15'
p280
sg12
S'.409'
p281
sg14
S'49'
p282
sg16
S'.200'
p283
sg18
g252
sg20
S'185'
p284
sg22
S'SF'
p285
sg24
S'.875'
p286
sg26
S'.418'
p287
sg28
S'NBA'
p288
sg30
S'17'
p289
sg32
S'171'
p290
sg34
S'67'
p291
sg36
S'48'
p292
sg38
S'75'
p293
sg40
S'33'
p294
sg42
S'BOS'
p295
sg44
S'60'
p296
sg46
S'4'
p297
sg48
S'67'
p298
sg50
S'42'
p299
sg52
S'156'
p300
sg54
S'49'
p301
sg56
S'1983-84'
p302
sg58
S'70'
p303
sg60
S'46'
p304
sg62
S'.429'
p305
sg64
S'585'
p306
sg66
g189
sba(isrc.gp1.models.Totals
Totals
p307
(dp308
g8
S'21'
p309
sg10
S'23'
p310
sg12
S'.416'
p311
sg14
S'24'
p312
sg16
S'.391'
p313
sg18
g19
sg20
S'150'
p314
sg22
S'SF'
p315
sg24
S'1.000'
p316
sg26
S'.446'
p317
sg28
S'NBA'
p318
sg30
S'21'
p319
sg32
S'149'
p320
sg34
S'44'
p321
sg36
S'17'
p322
sg38
S'43'
p323
sg40
S'34'
p324
sg42
S'BOS'
p325
sg44
S'47'
p326
sg46
S'6'
p327
sg48
S'53'
p328
sg50
S'17'
p329
sg52
S'126'
p330
sg54
S'22'
p331
sg56
S'1984-85'
p332
sg58
S'62'
p333
sg60
S'24'
p334
sg62
S'.421'
p335
sg64
S'397'
p336
sg66
g276
sbasS'_college'
p337
S'Guilford College'
p338
sS'_toYear'
p339
S'1985'
p340
sS'_height'
p341
S'6-6'
p342
sS'_active'
p343
I00
sS'_shootingHand'
p344
VRight
p345
sS'_name'
p346
S'M.L. Carr'
p347
sS'_per100Possessions'
p348
(lp349
(isrc.gp1.models.Per100Possession
Per100Possession
p350
(dp351
g8
S'3.6'
p352
sg10
S'0.5'
p353
sg12
S'.483'
p354
sS'_offensiveRating'
p355
S'104'
p356
sg14
S'4.7'
p357
sg16
S'.375'
p358
sg18
S'0.2'
p359
sg20
S'18.9'
p360
sg22
S'SF'
p361
sS'_defensiveRating'
p362
S'104'
p363
sg24
S'.665'
p364
sg28
S'ABA'
p365
sg30
S'2.7'
p366
sg32
S'16.4'
p367
sg34
S'4.7'
p368
sg36
S'4.3'
p369
sg38
S'9.6'
p370
sg40
S'25'
p371
sg42
S'SSL'
p372
sg44
S'74'
p373
sg46
S'0.9'
p374
sg48
S'7.8'
p375
sg50
S'2.9'
p376
sg52
S'15.9'
p377
sg54
S'6.0'
p378
sg56
S'1975-76'
p379
sg58
S'7.9'
p380
sg60
S'3.4'
p381
sg62
S'.487'
p382
sg64
S'2174'
p383
sg66
g3
sba(isrc.gp1.models.Per100Possession
Per100Possession
p384
(dp385
g8
S'3.5'
p386
sg10
g3
sg12
S'.476'
p387
sg355
g3
sg14
S'3.0'
p388
sg16
g3
sg18
g3
sg20
S'18.2'
p389
sg22
S'SF'
p390
sg362
S'99'
p391
sg24
S'.735'
p392
sg28
S'NBA'
p393
sg30
S'2.8'
p394
sg32
S'15.5'
p395
sg34
S'4.8'
p396
sg36
S'4.7'
p397
sg38
S'10.5'
p398
sg40
S'26'
p399
sg42
S'DET'
p400
sg44
S'82'
p401
sg46
S'1.0'
p402
sg48
S'7.4'
p403
sg50
S'3.4'
p404
sg52
S'15.5'
p405
sg54
S'7.0'
p406
sg56
S'1976-77'
p407
sg58
S'7.4'
p408
sg60
g3
sg62
S'.476'
p409
sg64
S'2643'
p410
sg66
g3
sba(isrc.gp1.models.Per100Possession
Per100Possession
p411
(dp412
g8
S'3.5'
p413
sg10
g3
sg12
S'.455'
p414
sg355
S'99'
p415
sg14
S'3.2'
p416
sg16
g3
sg18
g3
sg20
S'17.1'
p417
sg22
S'SF'
p418
sg362
S'100'
p419
sg24
S'.738'
p420
sg28
S'NBA'
p421
sg30
S'2.6'
p422
sg32
S'14.9'
p423
sg34
S'4.2'
p424
sg36
S'4.7'
p425
sg38
S'9.7'
p426
sg40
S'27'
p427
sg42
S'DET'
p428
sg44
S'79'
p429
sg46
S'0.5'
p430
sg48
S'6.8'
p431
sg50
S'3.5'
p432
sg52
S'14.9'
p433
sg54
S'6.2'
p434
sg56
S'1977-78'
p435
sg58
S'6.8'
p436
sg60
S'3.7'
p437
sg62
S'.455'
p438
sg64
S'2556'
p439
sg66
g3
sba(isrc.gp1.models.Per100Possession
Per100Possession
p440
(dp441
g8
S'3.1'
p442
sg10
g3
sg12
S'.514'
p443
sg355
S'107'
p444
sg14
S'3.7'
p445
sg16
g3
sg18
g3
sg20
S'20.9'
p446
sg22
S'SF'
p447
sg362
S'104'
p448
sg24
S'.743'
p449
sg28
S'NBA'
p450
sg30
S'2.8'
p451
sg32
S'16.0'
p452
sg34
S'3.9'
p453
sg36
S'6.1'
p454
sg38
S'8.2'
p455
sg40
S'28'
p456
sg42
S'DET'
p457
sg44
S'80'
p458
sg46
S'0.6'
p459
sg48
S'8.2'
p460
sg50
S'4.5'
p461
sg52
S'16.0'
p462
sg54
S'5.2'
p463
sg56
S'1978-79'
p464
sg58
S'8.2'
p465
sg60
S'3.6'
p466
sg62
S'.514'
p467
sg64
S'3207'
p468
sg66
g3
sba(isrc.gp1.models.Per100Possession
Per100Possession
p469
(dp470
g8
S'2.5'
p471
sg10
S'1.0'
p472
sg12
S'.474'
p473
sg355
S'105'
p474
sg14
S'3.7'
p475
sg16
S'.293'
p476
sg18
S'0.3'
p477
sg20
S'21.4'
p478
sg22
S'SF'
p479
sg362
S'100'
p480
sg24
S'.739'
p481
sg28
S'NBA'
p482
sg30
S'2.8'
p483
sg32
S'17.9'
p484
sg34
S'5.0'
p485
sg36
S'5.7'
p486
sg38
S'7.7'
p487
sg40
S'29'
p488
sg42
S'BOS'
p489
sg44
S'82'
p490
sg46
S'0.8'
p491
sg48
S'8.2'
p492
sg50
S'4.2'
p493
sg52
S'16.9'
p494
sg54
S'5.3'
p495
sg56
S'1979-80'
p496
sg58
S'8.5'
p497
sg60
S'3.4'
p498
sg62
S'.485'
p499
sg64
S'1994'
p500
sg66
g181
sba(isrc.gp1.models.Per100Possession
Per100Possession
p501
(dp502
g8
S'1.9'
p503
sg10
S'1.0'
p504
sg12
S'.449'
p505
sg355
S'100'
p506
sg14
S'4.1'
p507
sg16
S'.071'
p508
sg18
S'0.1'
p509
sg20
S'18.0'
p510
sg22
S'SF'
p511
sg362
S'103'
p512
sg24
S'.791'
p513
sg28
S'NBA'
p514
sg30
S'2.2'
p515
sg32
S'15.7'
p516
sg34
S'5.4'
p517
sg36
S'4.9'
p518
sg38
S'6.0'
p519
sg40
S'30'
p520
sg42
S'BOS'
p521
sg44
S'41'
p522
sg46
S'1.3'
p523
sg48
S'7.0'
p524
sg50
S'3.9'
p525
sg52
S'14.7'
p526
sg54
S'4.1'
p527
sg56
S'1980-81'
p528
sg58
S'7.1'
p529
sg60
S'3.4'
p530
sg62
S'.475'
p531
sg64
S'655'
p532
sg66
g181
sba(isrc.gp1.models.Per100Possession
Per100Possession
p533
(dp534
g8
S'2.0'
p535
sg10
S'0.6'
p536
sg12
S'.450'
p537
sg355
S'106'
p538
sg14
S'4.7'
p539
sg16
S'.294'
p540
sg18
S'0.2'
p541
sg20
S'16.6'
p542
sg22
S'SF'
p543
sg362
S'104'
p544
sg24
S'.707'
p545
sg28
S'NBA'
p546
sg30
S'2.4'
p547
sg32
S'14.9'
p548
sg34
S'5.0'
p549
sg36
S'4.2'
p550
sg38
S'5.5'
p551
sg40
S'31'
p552
sg42
S'BOS'
p553
sg44
S'56'
p554
sg46
S'0.8'
p555
sg48
S'6.5'
p556
sg50
S'3.0'
p557
sg52
S'14.3'
p558
sg54
S'3.4'
p559
sg56
S'1981-82'
p560
sg58
S'6.7'
p561
sg60
S'2.3'
p562
sg62
S'.457'
p563
sg64
S'1296'
p564
sg66
S'27'
p565
sba(isrc.gp1.models.Per100Possession
Per100Possession
p566
(dp567
g8
S'2.7'
p568
sg10
S'1.0'
p569
sg12
S'.429'
p570
sg355
S'93'
p571
sg14
S'3.7'
p572
sg16
S'.158'
p573
sg18
S'0.2'
p574
sg20
S'17.4'
p575
sg22
S'SF'
p576
sg362
S'102'
p577
sg24
S'.741'
p578
sg28
S'NBA'
p579
sg30
S'2.5'
p580
sg32
S'16.5'
p581
sg34
S'7.3'
p582
sg36
S'4.2'
p583
sg38
S'7.2'
p584
sg40
S'32'
p585
sg42
S'BOS'
p586
sg44
S'77'
p587
sg46
S'0.5'
p588
sg48
S'6.9'
p589
sg50
S'3.1'
p590
sg52
S'15.5'
p591
sg54
S'4.5'
p592
sg56
S'1982-83'
p593
sg58
S'7.1'
p594
sg60
S'4.1'
p595
sg62
S'.446'
p596
sg64
S'883'
p597
sg66
g276
sba(isrc.gp1.models.Per100Possession
Per100Possession
p598
(dp599
g8
S'2.1'
p600
sg10
S'1.2'
p601
sg12
S'.409'
p602
sg355
S'95'
p603
sg14
S'4.0'
p604
sg16
S'.200'
p605
sg18
S'0.2'
p606
sg20
S'15.2'
p607
sg22
S'SF'
p608
sg362
S'107'
p609
sg24
S'.875'
p610
sg28
S'NBA'
p611
sg30
S'1.4'
p612
sg32
S'14.1'
p613
sg34
S'5.5'
p614
sg36
S'3.9'
p615
sg38
S'6.2'
p616
sg40
S'33'
p617
sg42
S'BOS'
p618
sg44
S'60'
p619
sg46
S'0.3'
p620
sg48
S'5.5'
p621
sg50
S'3.5'
p622
sg52
S'12.8'
p623
sg54
S'4.0'
p624
sg56
S'1983-84'
p625
sg58
S'5.8'
p626
sg60
S'3.8'
p627
sg62
S'.429'
p628
sg64
S'585'
p629
sg66
g189
sba(isrc.gp1.models.Per100Possession
Per100Possession
p630
(dp631
g8
S'2.5'
p632
sg10
S'2.7'
p633
sg12
S'.416'
p634
sg355
S'98'
p635
sg14
S'2.9'
p636
sg16
S'.391'
p637
sg18
S'1.1'
p638
sg20
S'17.9'
p639
sg22
S'SF'
p640
sg362
S'107'
p641
sg24
S'1.000'
p642
sg28
S'NBA'
p643
sg30
S'2.5'
p644
sg32
S'17.7'
p645
sg34
S'5.2'
p646
sg36
S'2.0'
p647
sg38
S'5.1'
p648
sg40
S'34'
p649
sg42
S'BOS'
p650
sg44
S'47'
p651
sg46
S'0.7'
p652
sg48
S'6.3'
p653
sg50
S'2.0'
p654
sg52
S'15.0'
p655
sg54
S'2.6'
p656
sg56
S'1984-85'
p657
sg58
S'7.4'
p658
sg60
S'2.9'
p659
sg62
S'.421'
p660
sg64
S'397'
p661
sg66
g276
sbasS'_advanced'
p662
(lp663
(isrc.gp1.models.Advanced
Advanced
p664
(dp665
S'_offensiveReboundPercentage'
p666
S'7.6'
p667
sS'_turnOverPercentage'
p668
S'15.6'
p669
sS'_winSharesPer48Minutes'
p670
S'.099'
p671
sS'_stealPercentage'
p672
S'2.7'
p673
sS'_usagePercentage'
p674
S'18.2'
p675
sS'_totalReboundsPercentage'
p676
S'10.2'
p677
sS'_defensiveBoxPlusMinus'
p678
S'1.1'
p679
sg22
S'SF'
p680
sS'_valueOverReplacementPlayer'
p681
S'1.9'
p682
sS'_trueShootingPercentage'
p683
S'.517'
p684
sS'_defensiveReboundPercentage'
p685
S'12.9'
p686
sS'_freeThrowsAttempRate'
p687
S'.262'
p688
sS'_threePointsAttempRate'
p689
S'.031'
p690
sg28
S'ABA'
p691
sS'_offensiveBoxPlusMinues'
p692
S'0.4'
p693
sS'_assistPercentage'
p694
S'13.7'
p695
sS'_defensiveWinShares'
p696
S'2.4'
p697
sg40
S'25'
p698
sg42
S'SSL'
p699
sg44
S'74'
p700
sS'_blockPercentage'
p701
S'1.1'
p702
sS'_playerEfficiencyRating'
p703
S'15.3'
p704
sS'_offensiveWinShares'
p705
S'2.1'
p706
sg64
S'2174'
p707
sS'_boxPlusMinus'
p708
S'1.6'
p709
sg56
S'1975-76'
p710
sS'_winShares'
p711
S'4.5'
p712
sba(isrc.gp1.models.Advanced
Advanced
p713
(dp714
g666
S'8.3'
p715
sg668
g3
sg670
S'.107'
p716
sg672
S'2.8'
p717
sg674
g3
sg676
S'12.4'
p718
sg678
S'1.8'
p719
sg22
S'SF'
p720
sg681
S'2.9'
p721
sg683
S'.518'
p722
sg685
S'16.4'
p723
sg687
S'.300'
p724
sg689
g3
sg28
S'NBA'
p725
sg692
S'0.5'
p726
sg694
S'8.7'
p727
sg696
S'3.0'
p728
sg40
S'26'
p729
sg42
S'DET'
p730
sg44
S'82'
p731
sg701
S'1.1'
p732
sg703
S'15.2'
p733
sg705
S'2.9'
p734
sg64
S'2643'
p735
sg708
S'2.3'
p736
sg56
S'1976-77'
p737
sg711
S'5.9'
p738
sba(isrc.gp1.models.Advanced
Advanced
p739
(dp740
g666
S'8.4'
p741
sg668
S'17.7'
p742
sg670
S'.085'
p743
sg672
S'2.6'
p744
sg674
S'17.8'
p745
sg676
S'11.4'
p746
sg678
S'1.2'
p747
sg22
S'SF'
p748
sg681
S'2.0'
p749
sg683
S'.502'
p750
sg685
S'14.3'
p751
sg687
S'.316'
p752
sg689
g3
sg28
S'NBA'
p753
sg692
S'-0.1'
p754
sg694
S'9.8'
p755
sg696
S'2.8'
p756
sg40
S'27'
p757
sg42
S'DET'
p758
sg44
S'79'
p759
sg701
S'0.5'
p760
sg703
S'13.6'
p761
sg705
S'1.7'
p762
sg64
S'2556'
p763
sg708
S'1.1'
p764
sg56
S'1977-78'
p765
sg711
S'4.5'
p766
sba(isrc.gp1.models.Advanced
Advanced
p767
(dp768
g666
S'6.9'
p769
sg668
S'16.0'
p770
sg670
S'.118'
p771
sg672
S'2.8'
p772
sg674
S'18.9'
p773
sg676
S'9.5'
p774
sg678
S'1.9'
p775
sg22
S'SF'
p776
sg681
S'4.6'
p777
sg683
S'.561'
p778
sg685
S'12.4'
p779
sg687
S'.381'
p780
sg689
g3
sg28
S'NBA'
p781
sg692
S'1.8'
p782
sg694
S'10.8'
p783
sg696
S'3.4'
p784
sg40
S'28'
p785
sg42
S'DET'
p786
sg44
S'80'
p787
sg701
S'0.7'
p788
sg703
S'16.3'
p789
sg705
S'4.5'
p790
sg64
S'3207'
p791
sg708
S'3.7'
p792
sg56
S'1978-79'
p793
sg711
S'7.9'
p794
sba(isrc.gp1.models.Advanced
Advanced
p795
(dp796
g666
S'6.0'
p797
sg668
S'14.1'
p798
sg670
S'.125'
p799
sg672
S'2.8'
p800
sg674
S'20.2'
p801
sg676
S'9.2'
p802
sg678
S'1.5'
p803
sg22
S'SF'
p804
sg681
S'1.7'
p805
sg683
S'.526'
p806
sg685
S'12.3'
p807
sg687
S'.316'
p808
sg689
S'.054'
p809
sg28
S'NBA'
p810
sg692
S'-0.2'
p811
sg694
S'10.7'
p812
sg696
S'3.2'
p813
sg40
S'29'
p814
sg42
S'BOS'
p815
sg44
S'82'
p816
sg701
S'1.0'
p817
sg703
S'14.6'
p818
sg705
S'1.9'
p819
sg64
S'1994'
p820
sg708
S'1.3'
p821
sg56
S'1979-80'
p822
sg711
S'5.2'
p823
sba(isrc.gp1.models.Advanced
Advanced
p824
(dp825
g666
S'4.7'
p826
sg668
S'16.1'
p827
sg670
S'.082'
p828
sg672
S'2.2'
p829
sg674
S'18.2'
p830
sg676
S'7.2'
p831
sg678
S'0.5'
p832
sg22
S'SF'
p833
sg681
S'0.1'
p834
sg683
S'.505'
p835
sg685
S'9.5'
p836
sg687
S'.310'
p837
sg689
S'.065'
p838
sg28
S'NBA'
p839
sg692
S'-1.8'
p840
sg694
S'11.3'
p841
sg696
S'0.9'
p842
sg40
S'30'
p843
sg42
S'BOS'
p844
sg44
S'41'
p845
sg701
S'1.5'
p846
sg703
S'11.6'
p847
sg705
S'0.2'
p848
sg64
S'655'
p849
sg708
S'-1.3'
p850
sg56
S'1980-81'
p851
sg711
S'1.1'
p852
sba(isrc.gp1.models.Advanced
Advanced
p853
(dp854
g666
S'4.9'
p855
sg668
S'12.0'
p856
sg670
S'.103'
p857
sg672
S'2.4'
p858
sg674
S'16.2'
p859
sg676
S'6.4'
p860
sg678
S'1.3'
p861
sg22
S'SF'
p862
sg681
S'0.9'
p863
sg683
S'.495'
p864
sg685
S'7.8'
p865
sg687
S'.284'
p866
sg689
S'.042'
p867
sg28
S'NBA'
p868
sg692
S'-0.5'
p869
sg694
S'12.6'
p870
sg696
S'1.8'
p871
sg40
S'31'
p872
sg42
S'BOS'
p873
sg44
S'56'
p874
sg701
S'0.9'
p875
sg703
S'11.9'
p876
sg705
S'1.0'
p877
sg64
S'1296'
p878
sg708
S'0.8'
p879
sg56
S'1981-82'
p880
sg711
S'2.8'
p881
sba(isrc.gp1.models.Advanced
Advanced
p882
(dp883
g666
S'6.2'
p884
sg668
S'18.4'
p885
sg670
S'.046'
p886
sg672
S'2.5'
p887
sg674
S'19.1'
p888
sg676
S'8.3'
p889
sg678
S'0.2'
p890
sg22
S'SF'
p891
sg681
S'-0.1'
p892
sg683
S'.475'
p893
sg685
S'10.4'
p894
sg687
S'.257'
p895
sg689
S'.060'
p896
sg28
S'NBA'
p897
sg692
S'-2.8'
p898
sg694
S'10.3'
p899
sg696
S'1.2'
p900
sg40
S'32'
p901
sg42
S'BOS'
p902
sg44
S'77'
p903
sg701
S'0.6'
p904
sg703
S'9.7'
p905
sg705
S'-0.4'
p906
sg64
S'883'
p907
sg708
S'-2.6'
p908
sg56
S'1982-83'
p909
sg711
S'0.8'
p910
sba(isrc.gp1.models.Advanced
Advanced
p911
(dp912
g666
S'5.2'
p913
sg668
S'19.3'
p914
sg670
S'.034'
p915
sg672
S'1.4'
p916
sg674
S'16.7'
p917
sg676
S'7.3'
p918
sg678
S'-0.6'
p919
sg22
S'SF'
p920
sg681
S'-0.3'
p921
sg683
S'.481'
p922
sg685
S'9.2'
p923
sg687
S'.281'
p924
sg689
S'.088'
p925
sg28
S'NBA'
p926
sg692
S'-3.5'
p927
sg694
S'10.7'
p928
sg696
S'0.6'
p929
sg40
S'33'
p930
sg42
S'BOS'
p931
sg44
S'60'
p932
sg701
S'0.4'
p933
sg703
S'7.8'
p934
sg705
S'-0.2'
p935
sg64
S'585'
p936
sg708
S'-4.1'
p937
sg56
S'1983-84'
p938
sg711
S'0.4'
p939
sba(isrc.gp1.models.Advanced
Advanced
p940
(dp941
g666
S'6.1'
p942
sg668
S'13.3'
p943
sg670
S'.050'
p944
sg672
S'2.5'
p945
sg674
S'18.5'
p946
sg676
S'6.0'
p947
sg678
S'-0.8'
p948
sg22
S'SF'
p949
sg681
S'-0.1'
p950
sg683
S'.479'
p951
sg685
S'5.8'
p952
sg687
S'.114'
p953
sg689
S'.154'
p954
sg28
S'NBA'
p955
sg692
S'-2.3'
p956
sg694
S'7.7'
p957
sg696
S'0.5'
p958
sg40
S'34'
p959
sg42
S'BOS'
p960
sg44
S'47'
p961
sg701
S'0.8'
p962
sg703
S'9.9'
p963
sg705
S'0.0'
p964
sg64
S'397'
p965
sg708
S'-3.1'
p966
sg56
S'1984-85'
p967
sg711
S'0.4'
p968
sbasS'_per36Minutes'
p969
(lp970
(isrc.gp1.models.Per36Minutes
Per36Minutes
p971
(dp972
g8
S'2.8'
p973
sg10
S'0.4'
p974
sg12
S'.483'
p975
sg14
S'3.7'
p976
sg16
S'.375'
p977
sg18
S'0.1'
p978
sg20
S'15.0'
p979
sg22
S'SF'
p980
sg24
S'.665'
p981
sg28
S'ABA'
p982
sg30
S'2.1'
p983
sg32
S'13.0'
p984
sg34
S'3.7'
p985
sg36
S'3.4'
p986
sg38
S'7.6'
p987
sg40
S'25'
p988
sg42
S'SSL'
p989
sg44
S'74'
p990
sg46
S'0.7'
p991
sg48
S'6.1'
p992
sg50
S'2.3'
p993
sg52
S'12.6'
p994
sg54
S'4.8'
p995
sg56
S'1975-76'
p996
sg58
S'6.3'
p997
sg60
S'2.7'
p998
sg62
S'.487'
p999
sg64
S'2174'
p1000
sg66
g3
sba(isrc.gp1.models.Per36Minutes
Per36Minutes
p1001
(dp1002
g8
S'2.9'
p1003
sg10
g3
sg12
S'.476'
p1004
sg14
S'2.5'
p1005
sg16
g3
sg18
g3
sg20
S'14.9'
p1006
sg22
S'SF'
p1007
sg24
S'.735'
p1008
sg28
S'NBA'
p1009
sg30
S'2.2'
p1010
sg32
S'12.7'
p1011
sg34
S'3.9'
p1012
sg36
S'3.8'
p1013
sg38
S'8.6'
p1014
sg40
S'26'
p1015
sg42
S'DET'
p1016
sg44
S'82'
p1017
sg46
S'0.8'
p1018
sg48
S'6.0'
p1019
sg50
S'2.8'
p1020
sg52
S'12.7'
p1021
sg54
S'5.7'
p1022
sg56
S'1976-77'
p1023
sg58
S'6.0'
p1024
sg60
g3
sg62
S'.476'
p1025
sg64
S'2643'
p1026
sg66
g3
sba(isrc.gp1.models.Per36Minutes
Per36Minutes
p1027
(dp1028
g8
S'2.8'
p1029
sg10
g3
sg12
S'.455'
p1030
sg14
S'2.6'
p1031
sg16
g3
sg18
g3
sg20
S'13.8'
p1032
sg22
S'SF'
p1033
sg24
S'.738'
p1034
sg28
S'NBA'
p1035
sg30
S'2.1'
p1036
sg32
S'12.1'
p1037
sg34
S'3.4'
p1038
sg36
S'3.8'
p1039
sg38
S'7.8'
p1040
sg40
S'27'
p1041
sg42
S'DET'
p1042
sg44
S'79'
p1043
sg46
S'0.4'
p1044
sg48
S'5.5'
p1045
sg50
S'2.8'
p1046
sg52
S'12.1'
p1047
sg54
S'5.0'
p1048
sg56
S'1977-78'
p1049
sg58
S'5.5'
p1050
sg60
S'3.0'
p1051
sg62
S'.455'
p1052
sg64
S'2556'
p1053
sg66
g3
sba(isrc.gp1.models.Per36Minutes
Per36Minutes
p1054
(dp1055
g8
S'2.5'
p1056
sg10
g3
sg12
S'.514'
p1057
sg14
S'2.9'
p1058
sg16
g3
sg18
g3
sg20
S'16.8'
p1059
sg22
S'SF'
p1060
sg24
S'.743'
p1061
sg28
S'NBA'
p1062
sg30
S'2.2'
p1063
sg32
S'12.8'
p1064
sg34
S'3.1'
p1065
sg36
S'4.9'
p1066
sg38
S'6.6'
p1067
sg40
S'28'
p1068
sg42
S'DET'
p1069
sg44
S'80'
p1070
sg46
S'0.5'
p1071
sg48
S'6.6'
p1072
sg50
S'3.6'
p1073
sg52
S'12.8'
p1074
sg54
S'4.2'
p1075
sg56
S'1978-79'
p1076
sg58
S'6.6'
p1077
sg60
S'2.9'
p1078
sg62
S'.514'
p1079
sg64
S'3207'
p1080
sg66
g3
sba(isrc.gp1.models.Per36Minutes
Per36Minutes
p1081
(dp1082
g8
S'1.9'
p1083
sg10
S'0.7'
p1084
sg12
S'.474'
p1085
sg14
S'2.8'
p1086
sg16
S'.293'
p1087
sg18
S'0.2'
p1088
sg20
S'16.5'
p1089
sg22
S'SF'
p1090
sg24
S'.739'
p1091
sg28
S'NBA'
p1092
sg30
S'2.2'
p1093
sg32
S'13.8'
p1094
sg34
S'3.9'
p1095
sg36
S'4.4'
p1096
sg38
S'6.0'
p1097
sg40
S'29'
p1098
sg42
S'BOS'
p1099
sg44
S'82'
p1100
sg46
S'0.6'
p1101
sg48
S'6.3'
p1102
sg50
S'3.2'
p1103
sg52
S'13.0'
p1104
sg54
S'4.0'
p1105
sg56
S'1979-80'
p1106
sg58
S'6.5'
p1107
sg60
S'2.6'
p1108
sg62
S'.485'
p1109
sg64
S'1994'
p1110
sg66
g181
sba(isrc.gp1.models.Per36Minutes
Per36Minutes
p1111
(dp1112
g8
S'1.4'
p1113
sg10
S'0.8'
p1114
sg12
S'.449'
p1115
sg14
S'3.1'
p1116
sg16
S'.071'
p1117
sg18
S'0.1'
p1118
sg20
S'13.6'
p1119
sg22
S'SF'
p1120
sg24
S'.791'
p1121
sg28
S'NBA'
p1122
sg30
S'1.6'
p1123
sg32
S'11.9'
p1124
sg34
S'4.1'
p1125
sg36
S'3.7'
p1126
sg38
S'4.6'
p1127
sg40
S'30'
p1128
sg42
S'BOS'
p1129
sg44
S'41'
p1130
sg46
S'1.0'
p1131
sg48
S'5.3'
p1132
sg50
S'2.9'
p1133
sg52
S'11.1'
p1134
sg54
S'3.1'
p1135
sg56
S'1980-81'
p1136
sg58
S'5.3'
p1137
sg60
S'2.6'
p1138
sg62
S'.475'
p1139
sg64
S'655'
p1140
sg66
g181
sba(isrc.gp1.models.Per36Minutes
Per36Minutes
p1141
(dp1142
g8
S'1.6'
p1143
sg10
S'0.5'
p1144
sg12
S'.450'
p1145
sg14
S'3.6'
p1146
sg16
S'.294'
p1147
sg18
S'0.1'
p1148
sg20
S'12.6'
p1149
sg22
S'SF'
p1150
sg24
S'.707'
p1151
sg28
S'NBA'
p1152
sg30
S'1.9'
p1153
sg32
S'11.4'
p1154
sg34
S'3.8'
p1155
sg36
S'3.2'
p1156
sg38
S'4.2'
p1157
sg40
S'31'
p1158
sg42
S'BOS'
p1159
sg44
S'56'
p1160
sg46
S'0.6'
p1161
sg48
S'5.0'
p1162
sg50
S'2.3'
p1163
sg52
S'10.9'
p1164
sg54
S'2.6'
p1165
sg56
S'1981-82'
p1166
sg58
S'5.1'
p1167
sg60
S'1.7'
p1168
sg62
S'.457'
p1169
sg64
S'1296'
p1170
sg66
S'27'
p1171
sba(isrc.gp1.models.Per36Minutes
Per36Minutes
p1172
(dp1173
g8
S'2.1'
p1174
sg10
S'0.8'
p1175
sg12
S'.429'
p1176
sg14
S'2.9'
p1177
sg16
S'.158'
p1178
sg18
S'0.1'
p1179
sg20
S'13.6'
p1180
sg22
S'SF'
p1181
sg24
S'.741'
p1182
sg28
S'NBA'
p1183
sg30
S'2.0'
p1184
sg32
S'12.8'
p1185
sg34
S'5.7'
p1186
sg36
S'3.3'
p1187
sg38
S'5.6'
p1188
sg40
S'32'
p1189
sg42
S'BOS'
p1190
sg44
S'77'
p1191
sg46
S'0.4'
p1192
sg48
S'5.4'
p1193
sg50
S'2.4'
p1194
sg52
S'12.1'
p1195
sg54
S'3.5'
p1196
sg56
S'1982-83'
p1197
sg58
S'5.5'
p1198
sg60
S'3.2'
p1199
sg62
S'.446'
p1200
sg64
S'883'
p1201
sg66
g276
sba(isrc.gp1.models.Per36Minutes
Per36Minutes
p1202
(dp1203
g8
S'1.6'
p1204
sg10
S'0.9'
p1205
sg12
S'.409'
p1206
sg14
S'3.0'
p1207
sg16
S'.200'
p1208
sg18
S'0.2'
p1209
sg20
S'11.4'
p1210
sg22
S'SF'
p1211
sg24
S'.875'
p1212
sg28
S'NBA'
p1213
sg30
S'1.0'
p1214
sg32
S'10.5'
p1215
sg34
S'4.1'
p1216
sg36
S'3.0'
p1217
sg38
S'4.6'
p1218
sg40
S'33'
p1219
sg42
S'BOS'
p1220
sg44
S'60'
p1221
sg46
S'0.2'
p1222
sg48
S'4.1'
p1223
sg50
S'2.6'
p1224
sg52
S'9.6'
p1225
sg54
S'3.0'
p1226
sg56
S'1983-84'
p1227
sg58
S'4.3'
p1228
sg60
S'2.8'
p1229
sg62
S'.429'
p1230
sg64
S'585'
p1231
sg66
g189
sba(isrc.gp1.models.Per36Minutes
Per36Minutes
p1232
(dp1233
g8
S'1.9'
p1234
sg10
S'2.1'
p1235
sg12
S'.416'
p1236
sg14
S'2.2'
p1237
sg16
S'.391'
p1238
sg18
S'0.8'
p1239
sg20
S'13.6'
p1240
sg22
S'SF'
p1241
sg24
S'1.000'
p1242
sg28
S'NBA'
p1243
sg30
S'1.9'
p1244
sg32
S'13.5'
p1245
sg34
S'4.0'
p1246
sg36
S'1.5'
p1247
sg38
S'3.9'
p1248
sg40
S'34'
p1249
sg42
S'BOS'
p1250
sg44
S'47'
p1251
sg46
S'0.5'
p1252
sg48
S'4.8'
p1253
sg50
S'1.5'
p1254
sg52
S'11.4'
p1255
sg54
S'2.0'
p1256
sg56
S'1984-85'
p1257
sg58
S'5.6'
p1258
sg60
S'2.2'
p1259
sg62
S'.421'
p1260
sg64
S'397'
p1261
sg66
g276
sbasS'_fromYear'
p1262
S'1976'
p1263
sS'_url'
p1264
S'http://www.basketball-reference.com/players/c/carrml01.html'
p1265
sS'_perGame'
p1266
(isrc.gp1.models.PerGame
PerGame
p1267
(dp1268
g8
S'0.4'
p1269
sg10
S'0.5'
p1270
sg12
S'.416'
p1271
sS'_effectiveFieldGalPercentage'
p1272
S'.446'
p1273
sg14
S'0.5'
p1274
sg16
S'.391'
p1275
sg18
S'0.2'
p1276
sg20
S'3.2'
p1277
sg22
S'SF'
p1278
sg24
S'1.000'
p1279
sg28
S'NBA'
p1280
sg30
S'0.4'
p1281
sg34
S'0.9'
p1282
sS'_fieldGoalsttempted'
p1283
S'3.2'
p1284
sg36
S'0.4'
p1285
sg38
S'0.9'
p1286
sg40
S'34'
p1287
sg42
S'BOS'
p1288
sg44
S'47'
p1289
sg46
S'0.1'
p1290
sg48
S'1.1'
p1291
sg50
S'0.4'
p1292
sg52
S'2.7'
p1293
sg54
S'0.5'
p1294
sg56
S'1984-85'
p1295
sg58
S'1.3'
p1296
sg60
S'0.5'
p1297
sg62
S'.421'
p1298
sg64
S'8.4'
p1299
sg66
g276
sbsS'_weight'
p1300
S'205'
p1301
sS'_dob'
p1302
S'9-1-1951'
p1303
sS'_salary'
p1304
(lp1305
sg22
S'F-G'
p1306
sb.