(isrc.gp1.models.Player
Player
p0
(dp1
S'_experience'
p2
S'NA'
p3
sS'_totals'
p4
(lp5
(isrc.gp1.models.Totals
Totals
p6
(dp7
S'_offensiveRebounds'
p8
S'38'
p9
sS'_threePointsAttempted'
p10
S'19'
p11
sS'_fieldGoalsPercentage'
p12
S'.459'
p13
sS'_assist'
p14
S'71'
p15
sS'_threePointsPercentage'
p16
S'.263'
p17
sS'_threePoints'
p18
S'5'
p19
sS'_points'
p20
S'342'
p21
sS'_position'
p22
S'SG'
p23
sS'_freeThrowsPercentage'
p24
S'.770'
p25
sS'_effectiveFieldGoalPercentage'
p26
S'.467'
p27
sS'_league'
p28
S'NBA'
p29
sS'_steals'
p30
S'19'
p31
sS'_fieldGoalsAttempted'
p32
S'316'
p33
sS'_personalFouls'
p34
S'81'
p35
sS'_freeThrowsAttempted'
p36
S'61'
p37
sS'_totalRebounds'
p38
S'86'
p39
sS'_age'
p40
S'22'
p41
sS'_team'
p42
S'DEN'
p43
sS'_games'
p44
S'55'
p45
sS'_blocks'
p46
S'4'
p47
sS'_twoPoints'
p48
S'140'
p49
sS'_freeThrows'
p50
S'47'
p51
sS'_twoPointsAttempted'
p52
S'297'
p53
sS'_defensiveRebounds'
p54
S'48'
p55
sS'_season'
p56
S'1983-84'
p57
sS'_fieldGoals'
p58
S'145'
p59
sS'_turnOvers'
p60
S'42'
p61
sS'_twoPointsPercentage'
p62
S'.471'
p63
sS'_minutesPlayed'
p64
S'688'
p65
sS'_gamesStarted'
p66
g19
sba(isrc.gp1.models.Totals
Totals
p67
(dp68
g8
S'1'
p69
sg10
S'3'
p70
sg12
S'.174'
p71
sg14
g47
sg16
S'.000'
p72
sg18
S'0'
p73
sg20
S'9'
p74
sg22
S'SG'
p75
sg24
S'1.000'
p76
sg26
S'.174'
p77
sg28
S'NBA'
p78
sg30
g69
sg32
S'23'
p79
sg34
g47
sg36
g69
sg38
g70
sg40
S'23'
p80
sg42
S'DAL'
p81
sg44
S'11'
p82
sg46
g73
sg48
g47
sg50
g69
sg52
S'20'
p83
sg54
S'2'
p84
sg56
S'1984-85'
p85
sg58
g47
sg60
S'8'
p86
sg62
S'.200'
p87
sg64
S'66'
p88
sg66
g73
sbasS'_college'
p89
S'Louisiana State University'
p90
sS'_toYear'
p91
S'1985'
p92
sS'_height'
p93
S'6-5'
p94
sS'_active'
p95
I00
sS'_shootingHand'
p96
VRight
p97
sS'_name'
p98
S'Howard Carter'
p99
sS'_per100Possessions'
p100
(lp101
(isrc.gp1.models.Per100Possession
Per100Possession
p102
(dp103
g8
S'2.4'
p104
sg10
S'1.2'
p105
sg12
S'.459'
p106
sS'_offensiveRating'
p107
S'102'
p108
sg14
S'4.5'
p109
sg16
S'.263'
p110
sg18
S'0.3'
p111
sg20
S'21.6'
p112
sg22
S'SG'
p113
sS'_defensiveRating'
p114
S'115'
p115
sg24
S'.770'
p116
sg28
S'NBA'
p117
sg30
S'1.2'
p118
sg32
S'20.0'
p119
sg34
S'5.1'
p120
sg36
S'3.9'
p121
sg38
S'5.4'
p122
sg40
S'22'
p123
sg42
S'DEN'
p124
sg44
S'55'
p125
sg46
S'0.3'
p126
sg48
S'8.8'
p127
sg50
S'3.0'
p128
sg52
S'18.8'
p129
sg54
S'3.0'
p130
sg56
S'1983-84'
p131
sg58
S'9.2'
p132
sg60
S'2.7'
p133
sg62
S'.471'
p134
sg64
S'688'
p135
sg66
g19
sba(isrc.gp1.models.Per100Possession
Per100Possession
p136
(dp137
g8
S'0.7'
p138
sg10
S'2.2'
p139
sg12
S'.174'
p140
sg107
S'40'
p141
sg14
S'2.9'
p142
sg16
S'.000'
p143
sg18
S'0.0'
p144
sg20
S'6.6'
p145
sg22
S'SG'
p146
sg114
S'114'
p147
sg24
S'1.000'
p148
sg28
S'NBA'
p149
sg30
S'0.7'
p150
sg32
S'16.9'
p151
sg34
S'2.9'
p152
sg36
S'0.7'
p153
sg38
S'2.2'
p154
sg40
S'23'
p155
sg42
S'DAL'
p156
sg44
S'11'
p157
sg46
S'0.0'
p158
sg48
S'2.9'
p159
sg50
S'0.7'
p160
sg52
S'14.7'
p161
sg54
S'1.5'
p162
sg56
S'1984-85'
p163
sg58
S'2.9'
p164
sg60
S'5.9'
p165
sg62
S'.200'
p166
sg64
S'66'
p167
sg66
g73
sbasS'_advanced'
p168
(lp169
(isrc.gp1.models.Advanced
Advanced
p170
(dp171
S'_offensiveReboundPercentage'
p172
S'5.7'
p173
sS'_turnOverPercentage'
p174
S'10.9'
p175
sS'_winSharesPer48Minutes'
p176
S'.028'
p177
sS'_stealPercentage'
p178
S'1.2'
p179
sS'_usagePercentage'
p180
S'21.1'
p181
sS'_totalReboundsPercentage'
p182
S'6.6'
p183
sS'_defensiveBoxPlusMinus'
p184
S'-3.3'
p185
sg22
S'SG'
p186
sS'_valueOverReplacementPlayer'
p187
S'-0.4'
p188
sS'_trueShootingPercentage'
p189
S'.499'
p190
sS'_defensiveReboundPercentage'
p191
S'7.5'
p192
sS'_freeThrowsAttempRate'
p193
S'.193'
p194
sS'_threePointsAttempRate'
p195
S'.060'
p196
sg28
S'NBA'
p197
sS'_offensiveBoxPlusMinues'
p198
S'-1.2'
p199
sS'_assistPercentage'
p200
S'13.2'
p201
sS'_defensiveWinShares'
p202
S'0.1'
p203
sg40
S'22'
p204
sg42
S'DEN'
p205
sg44
S'55'
p206
sS'_blockPercentage'
p207
S'0.3'
p208
sS'_playerEfficiencyRating'
p209
S'12.0'
p210
sS'_offensiveWinShares'
p211
S'0.3'
p212
sg64
S'688'
p213
sS'_boxPlusMinus'
p214
S'-4.5'
p215
sg56
S'1983-84'
p216
sS'_winShares'
p217
S'0.4'
p218
sba(isrc.gp1.models.Advanced
Advanced
p219
(dp220
g172
S'1.7'
p221
sg174
S'25.4'
p222
sg176
S'-0.309'
p223
sg178
S'0.7'
p224
sg180
S'19.9'
p225
sg182
S'2.6'
p226
sg184
S'-3.0'
p227
sg22
S'SG'
p228
sg187
S'-0.2'
p229
sg189
S'.192'
p230
sg191
S'3.5'
p231
sg193
S'.043'
p232
sg195
S'.130'
p233
sg28
S'NBA'
p234
sg198
S'-13.3'
p235
sg200
S'7.3'
p236
sg202
S'0.0'
p237
sg40
S'23'
p238
sg42
S'DAL'
p239
sg44
S'11'
p240
sg207
S'0.0'
p241
sg209
S'-7.4'
p242
sg211
S'-0.4'
p243
sg64
S'66'
p244
sg214
S'-16.3'
p245
sg56
S'1984-85'
p246
sg217
S'-0.4'
p247
sbasS'_per36Minutes'
p248
(lp249
(isrc.gp1.models.Per36Minutes
Per36Minutes
p250
(dp251
g8
S'2.0'
p252
sg10
S'1.0'
p253
sg12
S'.459'
p254
sg14
S'3.7'
p255
sg16
S'.263'
p256
sg18
S'0.3'
p257
sg20
S'17.9'
p258
sg22
S'SG'
p259
sg24
S'.770'
p260
sg28
S'NBA'
p261
sg30
S'1.0'
p262
sg32
S'16.5'
p263
sg34
S'4.2'
p264
sg36
S'3.2'
p265
sg38
S'4.5'
p266
sg40
S'22'
p267
sg42
S'DEN'
p268
sg44
S'55'
p269
sg46
S'0.2'
p270
sg48
S'7.3'
p271
sg50
S'2.5'
p272
sg52
S'15.5'
p273
sg54
S'2.5'
p274
sg56
S'1983-84'
p275
sg58
S'7.6'
p276
sg60
S'2.2'
p277
sg62
S'.471'
p278
sg64
S'688'
p279
sg66
g19
sba(isrc.gp1.models.Per36Minutes
Per36Minutes
p280
(dp281
g8
S'0.5'
p282
sg10
S'1.6'
p283
sg12
S'.174'
p284
sg14
S'2.2'
p285
sg16
S'.000'
p286
sg18
S'0.0'
p287
sg20
S'4.9'
p288
sg22
S'SG'
p289
sg24
S'1.000'
p290
sg28
S'NBA'
p291
sg30
S'0.5'
p292
sg32
S'12.5'
p293
sg34
S'2.2'
p294
sg36
S'0.5'
p295
sg38
S'1.6'
p296
sg40
S'23'
p297
sg42
S'DAL'
p298
sg44
S'11'
p299
sg46
S'0.0'
p300
sg48
S'2.2'
p301
sg50
S'0.5'
p302
sg52
S'10.9'
p303
sg54
S'1.1'
p304
sg56
S'1984-85'
p305
sg58
S'2.2'
p306
sg60
S'4.4'
p307
sg62
S'.200'
p308
sg64
S'66'
p309
sg66
g73
sbasS'_fromYear'
p310
S'1984'
p311
sS'_url'
p312
S'http://www.basketball-reference.com/players/c/carteho01.html'
p313
sS'_perGame'
p314
(isrc.gp1.models.PerGame
PerGame
p315
(dp316
g8
S'0.1'
p317
sg10
S'0.3'
p318
sg12
S'.174'
p319
sS'_effectiveFieldGalPercentage'
p320
S'.174'
p321
sg14
S'0.4'
p322
sg16
S'.000'
p323
sg18
S'0.0'
p324
sg20
S'0.8'
p325
sg22
S'SG'
p326
sg24
S'1.000'
p327
sg28
S'NBA'
p328
sg30
S'0.1'
p329
sg34
S'0.4'
p330
sS'_fieldGoalsttempted'
p331
S'2.1'
p332
sg36
S'0.1'
p333
sg38
S'0.3'
p334
sg40
S'23'
p335
sg42
S'DAL'
p336
sg44
S'11'
p337
sg46
S'0.0'
p338
sg48
S'0.4'
p339
sg50
S'0.1'
p340
sg52
S'1.8'
p341
sg54
S'0.2'
p342
sg56
S'1984-85'
p343
sg58
S'0.4'
p344
sg60
S'0.7'
p345
sg62
S'.200'
p346
sg64
S'6.0'
p347
sg66
g73
sbsS'_weight'
p348
S'215'
p349
sS'_dob'
p350
S'26-10-1961'
p351
sS'_salary'
p352
(lp353
sg22
S'G'
p354
sb.