(isrc.gp1.models.Player
Player
p0
(dp1
S'_experience'
p2
S'NA'
p3
sS'_totals'
p4
(lp5
(isrc.gp1.models.Totals
Totals
p6
(dp7
S'_offensiveRebounds'
p8
S'53'
p9
sS'_threePointsAttempted'
p10
S'0'
p11
sS'_fieldGoalsPercentage'
p12
S'.326'
p13
sS'_assist'
p14
S'19'
p15
sS'_threePointsPercentage'
p16
g3
sS'_threePoints'
p17
g11
sS'_points'
p18
S'78'
p19
sS'_position'
p20
S'C'
p21
sS'_freeThrowsPercentage'
p22
S'.564'
p23
sS'_effectiveFieldGoalPercentage'
p24
S'.326'
p25
sS'_league'
p26
S'NBA'
p27
sS'_steals'
p28
S'12'
p29
sS'_fieldGoalsAttempted'
p30
S'86'
p31
sS'_personalFouls'
p32
S'123'
p33
sS'_freeThrowsAttempted'
p34
S'39'
p35
sS'_totalRebounds'
p36
S'166'
p37
sS'_age'
p38
S'25'
p39
sS'_team'
p40
S'NYK'
p41
sS'_games'
p42
S'53'
p43
sS'_blocks'
p44
S'42'
p45
sS'_twoPoints'
p46
S'28'
p47
sS'_freeThrows'
p48
S'22'
p49
sS'_twoPointsAttempted'
p50
S'86'
p51
sS'_defensiveRebounds'
p52
S'113'
p53
sS'_season'
p54
S'1984-85'
p55
sS'_fieldGoals'
p56
S'28'
p57
sS'_turnOvers'
p58
S'45'
p59
sS'_twoPointsPercentage'
p60
S'.326'
p61
sS'_minutesPlayed'
p62
S'653'
p63
sS'_gamesStarted'
p64
S'2'
p65
sba(isrc.gp1.models.Totals
Totals
p66
(dp67
g8
g3
sg10
g3
sg12
g3
sg14
g3
sg16
g3
sg17
g3
sg18
g3
sg20
g3
sg22
g3
sg24
g3
sg26
g3
sg28
g3
sg30
g3
sg32
g3
sg34
g3
sg36
g3
sg38
S'26'
p68
sg40
S'Did Not Play'
p69
sg42
g3
sg44
g3
sg46
g3
sg48
g3
sg50
g3
sg52
g3
sg54
S'1985-86'
p70
sg56
g3
sg58
g3
sg60
g3
sg62
g3
sg64
g3
sba(isrc.gp1.models.Totals
Totals
p71
(dp72
g8
g3
sg10
g3
sg12
g3
sg14
g3
sg16
g3
sg17
g3
sg18
g3
sg20
g3
sg22
g3
sg24
g3
sg26
g3
sg28
g3
sg30
g3
sg32
g3
sg34
g3
sg36
g3
sg38
S'27'
p73
sg40
S'Did Not Play\xc2\xa0(other pro league\xe2\x80\x94CBA)'
p74
sg42
g3
sg44
g3
sg46
g3
sg48
g3
sg50
g3
sg52
g3
sg54
S'1986-87'
p75
sg56
g3
sg58
g3
sg60
g3
sg62
g3
sg64
g3
sba(isrc.gp1.models.Totals
Totals
p76
(dp77
g8
g3
sg10
g3
sg12
g3
sg14
g3
sg16
g3
sg17
g3
sg18
g3
sg20
g3
sg22
g3
sg24
g3
sg26
g3
sg28
g3
sg30
g3
sg32
g3
sg34
g3
sg36
g3
sg38
S'28'
p78
sg40
S'Did Not Play\xc2\xa0(other pro league\xe2\x80\x94CBA)'
p79
sg42
g3
sg44
g3
sg46
g3
sg48
g3
sg50
g3
sg52
g3
sg54
S'1987-88'
p80
sg56
g3
sg58
g3
sg60
g3
sg62
g3
sg64
g3
sba(isrc.gp1.models.Totals
Totals
p81
(dp82
g8
g11
sg10
g11
sg12
S'.667'
p83
sg14
g11
sg16
g3
sg17
g11
sg18
S'6'
p84
sg20
g21
sg22
S'.400'
p85
sg24
S'.667'
p86
sg26
S'NBA'
p87
sg28
g11
sg30
S'3'
p88
sg32
g65
sg34
S'5'
p89
sg36
g65
sg38
S'29'
p90
sg40
S'NJN'
p91
sg42
g89
sg44
g65
sg46
g65
sg48
g65
sg50
g88
sg52
g65
sg54
S'1988-89'
p92
sg56
g65
sg58
g65
sg60
S'.667'
p93
sg62
S'16'
p94
sg64
g11
sbasS'_college'
p95
S'Texas Southern University'
p96
sS'_toYear'
p97
S'1989'
p98
sS'_height'
p99
S'7-1'
p100
sS'_active'
p101
I00
sS'_shootingHand'
p102
VRight
p103
sS'_name'
p104
S'Ron Cavenall'
p105
sS'_per100Possessions'
p106
(lp107
(isrc.gp1.models.Per100Possession
Per100Possession
p108
(dp109
g8
S'3.9'
p110
sg10
S'0.0'
p111
sg12
S'.326'
p112
sS'_offensiveRating'
p113
S'76'
p114
sg14
S'1.4'
p115
sg16
g3
sg17
S'0.0'
p116
sg18
S'5.8'
p117
sg20
g21
sS'_defensiveRating'
p118
S'107'
p119
sg22
S'.564'
p120
sg26
S'NBA'
p121
sg28
S'0.9'
p122
sg30
S'6.4'
p123
sg32
S'9.1'
p124
sg34
S'2.9'
p125
sg36
S'12.3'
p126
sg38
S'25'
p127
sg40
S'NYK'
p128
sg42
S'53'
p129
sg44
S'3.1'
p130
sg46
S'2.1'
p131
sg48
S'1.6'
p132
sg50
S'6.4'
p133
sg52
S'8.3'
p134
sg54
S'1984-85'
p135
sg56
S'2.1'
p136
sg58
S'3.3'
p137
sg60
S'.326'
p138
sg62
S'653'
p139
sg64
g65
sba(isrc.gp1.models.Per100Possession
Per100Possession
p140
(dp141
g8
S'0.0'
p142
sg10
S'0.0'
p143
sg12
S'.667'
p144
sg113
S'79'
p145
sg14
S'0.0'
p146
sg16
g3
sg17
S'0.0'
p147
sg18
S'18.0'
p148
sg20
g21
sg118
S'108'
p149
sg22
S'.400'
p150
sg26
S'NBA'
p151
sg28
S'0.0'
p152
sg30
S'9.0'
p153
sg32
S'6.0'
p154
sg34
S'15.0'
p155
sg36
S'6.0'
p156
sg38
S'29'
p157
sg40
S'NJN'
p158
sg42
g89
sg44
S'6.0'
p159
sg46
S'6.0'
p160
sg48
S'6.0'
p161
sg50
S'9.0'
p162
sg52
S'6.0'
p163
sg54
S'1988-89'
p164
sg56
S'6.0'
p165
sg58
S'6.0'
p166
sg60
S'.667'
p167
sg62
S'16'
p168
sg64
g11
sbasS'_advanced'
p169
(lp170
(isrc.gp1.models.Advanced
Advanced
p171
(dp172
S'_offensiveReboundPercentage'
p173
S'9.2'
p174
sS'_turnOverPercentage'
p175
S'30.4'
p176
sS'_winSharesPer48Minutes'
p177
S'-0.016'
p178
sS'_stealPercentage'
p179
S'0.9'
p180
sS'_usagePercentage'
p181
S'9.4'
p182
sS'_totalReboundsPercentage'
p183
S'14.7'
p184
sS'_defensiveBoxPlusMinus'
p185
S'2.4'
p186
sg20
g21
sS'_valueOverReplacementPlayer'
p187
S'-0.4'
p188
sS'_trueShootingPercentage'
p189
S'.378'
p190
sS'_defensiveReboundPercentage'
p191
S'20.7'
p192
sS'_freeThrowsAttempRate'
p193
S'.453'
p194
sS'_threePointsAttempRate'
p195
S'.000'
p196
sg26
S'NBA'
p197
sS'_offensiveBoxPlusMinues'
p198
S'-6.8'
p199
sS'_assistPercentage'
p200
S'3.5'
p201
sS'_defensiveWinShares'
p202
S'0.7'
p203
sg38
S'25'
p204
sg40
S'NYK'
p205
sg42
S'53'
p206
sS'_blockPercentage'
p207
S'3.9'
p208
sS'_playerEfficiencyRating'
p209
S'4.1'
p210
sS'_offensiveWinShares'
p211
S'-1.0'
p212
sg62
S'653'
p213
sS'_boxPlusMinus'
p214
S'-4.4'
p215
sg54
S'1984-85'
p216
sS'_winShares'
p217
S'-0.2'
p218
sba(isrc.gp1.models.Advanced
Advanced
p219
(dp220
g173
S'0.0'
p221
sg175
S'27.8'
p222
sg177
S'-0.055'
p223
sg179
S'0.0'
p224
sg181
S'18.4'
p225
sg183
S'6.9'
p226
sg185
S'-0.6'
p227
sg20
g21
sg187
S'0.0'
p228
sg189
S'.577'
p229
sg191
S'14.4'
p230
sg193
S'1.667'
p231
sg195
S'.000'
p232
sg26
S'NBA'
p233
sg198
S'-9.7'
p234
sg200
S'0.0'
p235
sg202
S'0.0'
p236
sg38
S'29'
p237
sg40
S'NJN'
p238
sg42
g89
sg207
S'7.4'
p239
sg209
S'7.4'
p240
sg211
S'0.0'
p241
sg62
S'16'
p242
sg214
S'-10.4'
p243
sg54
S'1988-89'
p244
sg217
S'0.0'
p245
sbasS'_per36Minutes'
p246
(lp247
(isrc.gp1.models.Per36Minutes
Per36Minutes
p248
(dp249
g8
S'2.9'
p250
sg10
S'0.0'
p251
sg12
S'.326'
p252
sg14
S'1.0'
p253
sg16
g3
sg17
S'0.0'
p254
sg18
S'4.3'
p255
sg20
g21
sg22
S'.564'
p256
sg26
S'NBA'
p257
sg28
S'0.7'
p258
sg30
S'4.7'
p259
sg32
S'6.8'
p260
sg34
S'2.2'
p261
sg36
S'9.2'
p262
sg38
S'25'
p263
sg40
S'NYK'
p264
sg42
S'53'
p265
sg44
S'2.3'
p266
sg46
S'1.5'
p267
sg48
S'1.2'
p268
sg50
S'4.7'
p269
sg52
S'6.2'
p270
sg54
S'1984-85'
p271
sg56
S'1.5'
p272
sg58
S'2.5'
p273
sg60
S'.326'
p274
sg62
S'653'
p275
sg64
g65
sba(isrc.gp1.models.Per36Minutes
Per36Minutes
p276
(dp277
g8
S'0.0'
p278
sg10
S'0.0'
p279
sg12
S'.667'
p280
sg14
S'0.0'
p281
sg16
g3
sg17
S'0.0'
p282
sg18
S'13.5'
p283
sg20
g21
sg22
S'.400'
p284
sg26
S'NBA'
p285
sg28
S'0.0'
p286
sg30
S'6.8'
p287
sg32
S'4.5'
p288
sg34
S'11.3'
p289
sg36
S'4.5'
p290
sg38
S'29'
p291
sg40
S'NJN'
p292
sg42
g89
sg44
S'4.5'
p293
sg46
S'4.5'
p294
sg48
S'4.5'
p295
sg50
S'6.8'
p296
sg52
S'4.5'
p297
sg54
S'1988-89'
p298
sg56
S'4.5'
p299
sg58
S'4.5'
p300
sg60
S'.667'
p301
sg62
S'16'
p302
sg64
g11
sbasS'_fromYear'
p303
S'1985'
p304
sS'_url'
p305
S'http://www.basketball-reference.com/players/c/cavenro01.html'
p306
sS'_perGame'
p307
(isrc.gp1.models.PerGame
PerGame
p308
(dp309
g8
S'0.0'
p310
sg10
S'0.0'
p311
sg12
S'.667'
p312
sS'_effectiveFieldGalPercentage'
p313
S'.667'
p314
sg14
S'0.0'
p315
sg16
g3
sg17
S'0.0'
p316
sg18
S'1.2'
p317
sg20
g21
sg22
S'.400'
p318
sg26
S'NBA'
p319
sg28
S'0.0'
p320
sg32
S'0.4'
p321
sS'_fieldGoalsttempted'
p322
S'0.6'
p323
sg34
S'1.0'
p324
sg36
S'0.4'
p325
sg38
S'29'
p326
sg40
S'NJN'
p327
sg42
g89
sg44
S'0.4'
p328
sg46
S'0.4'
p329
sg48
S'0.4'
p330
sg50
S'0.6'
p331
sg52
S'0.4'
p332
sg54
S'1988-89'
p333
sg56
S'0.4'
p334
sg58
S'0.4'
p335
sg60
S'.667'
p336
sg62
S'3.2'
p337
sg64
g11
sbsS'_weight'
p338
S'230'
p339
sS'_dob'
p340
S'30-4-1959'
p341
sS'_salary'
p342
(lp343
(isrc.gp1.models.Salary
Salary
p344
(dp345
g40
S'New Jersey Nets'
p346
sg26
S'NBA'
p347
sg342
S'$100,000'
p348
sg54
S'1988-89'
p349
sbasg20
g21
sb.