(isrc.gp1.models.Player
Player
p0
(dp1
S'_experience'
p2
S'NA'
p3
sS'_totals'
p4
(lp5
(isrc.gp1.models.Totals
Totals
p6
(dp7
S'_offensiveRebounds'
p8
g3
sS'_threePointsAttempted'
p9
S'.436'
p10
sS'_fieldGoalsPercentage'
p11
S'344'
p12
sS'_assist'
p13
g3
sS'_threePointsPercentage'
p14
S'.436'
p15
sS'_threePoints'
p16
S'789'
p17
sS'_points'
p18
g3
sS'_position'
p19
S'SF'
p20
sS'_freeThrowsPercentage'
p21
S'867'
p22
sS'_effectiveFieldGoalPercentage'
p23
S'251'
p24
sS'_league'
p25
S'NBA'
p26
sS'_steals'
p27
g3
sS'_fieldGoalsAttempted'
p28
S'.436'
p29
sS'_personalFouls'
p30
g3
sS'_freeThrowsAttempted'
p31
S'174'
p32
sS'_totalRebounds'
p33
g3
sS'_age'
p34
S'22'
p35
sS'_team'
p36
S'NYK'
p37
sS'_games'
p38
S'77'
p39
sS'_blocks'
p40
g3
sS'_twoPoints'
p41
S'179'
p42
sS'_freeThrows'
p43
S'187'
p44
sS'_twoPointsAttempted'
p45
S'228'
p46
sS'_defensiveRebounds'
p47
g3
sS'_season'
p48
S'1966-67'
p49
sS'_fieldGoals'
p50
S'789'
p51
sS'_turnOvers'
p52
g3
sS'_twoPointsPercentage'
p53
S'.785'
p54
sS'_minutesPlayed'
p55
S'344'
p56
sS'_gamesStarted'
p57
S'1696'
p58
sba(isrc.gp1.models.Totals
Totals
p59
(dp60
g8
g3
sg9
S'.462'
p61
sg11
S'551'
p62
sg13
g3
sg14
S'.462'
p63
sg16
S'1192'
p64
sg18
g3
sg19
S'SF'
p65
sg21
S'1384'
p66
sg23
S'374'
p67
sg25
S'NBA'
p68
sg27
g3
sg28
S'.462'
p69
sg30
g3
sg31
S'223'
p70
sg33
g3
sg34
S'23'
p71
sg36
S'NYK'
p72
sg38
S'82'
p73
sg40
g3
sg41
S'282'
p74
sg43
S'195'
p75
sg45
S'349'
p76
sg47
g3
sg48
S'1967-68'
p77
sg50
S'1192'
p78
sg52
g3
sg53
S'.808'
p79
sg55
S'551'
p80
sg57
S'2296'
p81
sba(isrc.gp1.models.Totals
Totals
p82
(dp83
g8
g3
sg9
S'.450'
p84
sg11
S'362'
p85
sg13
g3
sg14
S'.450'
p86
sg16
S'804'
p87
sg18
g3
sg19
S'SF'
p88
sg21
S'915'
p89
sg23
S'209'
p90
sg25
S'NBA'
p91
sg27
g3
sg28
S'.450'
p92
sg30
g3
sg31
S'140'
p93
sg33
g3
sg34
S'24'
p94
sg36
S'NYK'
p95
sg38
S'50'
p96
sg40
g3
sg41
S'191'
p97
sg43
S'115'
p98
sg45
S'240'
p99
sg47
g3
sg48
S'1968-69'
p100
sg50
S'804'
p101
sg52
g3
sg53
S'.796'
p102
sg55
S'362'
p103
sg57
S'1645'
p104
sba(isrc.gp1.models.Totals
Totals
p105
(dp106
g8
g3
sg9
S'.498'
p107
sg11
S'385'
p108
sg13
g3
sg14
S'.498'
p109
sg16
S'773'
p110
sg18
g3
sg19
S'SF'
p111
sg21
S'894'
p112
sg23
S'236'
p113
sg25
S'NBA'
p114
sg27
g3
sg28
S'.498'
p115
sg30
g3
sg31
S'137'
p116
sg33
g3
sg34
S'25'
p117
sg36
S'NYK'
p118
sg38
S'78'
p119
sg40
g3
sg41
S'124'
p120
sg43
S'135'
p121
sg45
S'160'
p122
sg47
g3
sg48
S'1969-70'
p123
sg50
S'773'
p124
sg52
g3
sg53
S'.775'
p125
sg55
S'385'
p126
sg57
S'1563'
p127
sba(isrc.gp1.models.Totals
Totals
p128
(dp129
g8
g3
sg9
S'.429'
p130
sg11
S'216'
p131
sg13
g3
sg14
S'.429'
p132
sg16
S'504'
p133
sg18
g3
sg19
S'SF'
p134
sg21
S'524'
p135
sg23
S'192'
p136
sg25
S'NBA'
p137
sg27
g3
sg28
S'.429'
p138
sg30
g3
sg31
S'74'
p139
sg33
g3
sg34
S'26'
p140
sg36
S'NYK'
p141
sg38
S'57'
p142
sg40
g3
sg41
S'92'
p143
sg43
S'77'
p144
sg45
S'119'
p145
sg47
g3
sg48
S'1970-71'
p146
sg50
S'504'
p147
sg52
g3
sg53
S'.773'
p148
sg55
S'216'
p149
sg57
S'1056'
p150
sba(isrc.gp1.models.Totals
Totals
p151
(dp152
g8
g3
sg9
S'.455'
p153
sg11
S'689'
p154
sg13
g3
sg14
S'.455'
p155
sg16
S'1514'
p156
sg18
g3
sg19
S'SF'
p157
sg21
S'1693'
p158
sg23
S'428'
p159
sg25
S'NBA'
p160
sg27
g3
sg28
S'.455'
p161
sg30
g3
sg31
S'176'
p162
sg33
g3
sg34
S'27'
p163
sg36
S'GSW'
p164
sg38
S'79'
p165
sg40
g3
sg41
S'315'
p166
sg43
S'248'
p167
sg45
S'378'
p168
sg47
g3
sg48
S'1971-72'
p169
sg50
S'1514'
p170
sg52
g3
sg53
S'.833'
p171
sg55
S'689'
p172
sg57
S'2902'
p173
sba(isrc.gp1.models.Totals
Totals
p174
(dp175
g8
g3
sg9
S'.458'
p176
sg11
S'541'
p177
sg13
g3
sg14
S'.458'
p178
sg16
S'1182'
p179
sg18
g3
sg19
S'SF'
p180
sg21
S'1254'
p181
sg23
S'350'
p182
sg25
S'NBA'
p183
sg27
g3
sg28
S'.458'
p184
sg30
g3
sg31
S'171'
p185
sg33
g3
sg34
S'28'
p186
sg36
S'GSW'
p187
sg38
S'80'
p188
sg40
g3
sg41
S'172'
p189
sg43
S'187'
p190
sg45
S'199'
p191
sg47
g3
sg48
S'1972-73'
p192
sg50
S'1182'
p193
sg52
g3
sg53
S'.864'
p194
sg55
S'541'
p195
sg57
S'2429'
p196
sba(isrc.gp1.models.Totals
Totals
p197
(dp198
g8
S'54'
p199
sg9
S'.482'
p200
sg11
S'738'
p201
sg13
S'1684'
p202
sg14
S'.482'
p203
sg16
S'1531'
p204
sg18
g3
sg19
S'SF'
p205
sg21
S'192'
p206
sg23
S'142'
p207
sg25
S'NBA'
p208
sg27
g3
sg28
S'.482'
p209
sg30
g3
sg31
S'353'
p210
sg33
S'194'
p211
sg34
S'29'
p212
sg36
S'GSW'
p213
sg38
S'82'
p214
sg40
g3
sg41
S'208'
p215
sg43
S'211'
p216
sg45
S'249'
p217
sg47
S'17'
p218
sg48
S'1973-74'
p219
sg50
S'1531'
p220
sg52
g3
sg53
S'.835'
p221
sg55
S'738'
p222
sg57
S'2574'
p223
sba(isrc.gp1.models.Totals
Totals
p224
(dp225
g8
S'27'
p226
sg9
S'.455'
p227
sg11
S'264'
p228
sg13
S'629'
p229
sg14
S'.455'
p230
sg16
S'580'
p231
sg18
g3
sg19
S'SF'
p232
sg21
S'109'
p233
sg23
S'34'
p234
sg25
S'NBA'
p235
sg27
g3
sg28
S'.455'
p236
sg30
g3
sg31
S'115'
p237
sg33
S'56'
p238
sg34
S'30'
p239
sg36
S'LAL'
p240
sg38
S'40'
p241
sg40
g3
sg41
S'101'
p242
sg43
S'81'
p243
sg45
S'113'
p244
sg47
S'2'
p245
sg48
S'1974-75'
p246
sg50
S'580'
p247
sg52
g3
sg53
S'.894'
p248
sg55
S'264'
p249
sg57
S'1055'
p250
sba(isrc.gp1.models.Totals
Totals
p251
(dp252
g8
S'53'
p253
sg9
S'.463'
p254
sg11
S'371'
p255
sg13
S'874'
p256
sg14
S'.463'
p257
sg16
S'802'
p258
sg18
g3
sg19
S'SF'
p259
sg21
S'122'
p260
sg23
S'50'
p261
sg25
S'NBA'
p262
sg27
g3
sg28
S'.463'
p263
sg30
g3
sg31
S'183'
p264
sg33
S'122'
p265
sg34
S'31'
p266
sg36
S'LAL'
p267
sg38
S'74'
p268
sg40
g3
sg41
S'132'
p269
sg43
S'133'
p270
sg45
S'148'
p271
sg47
S'3'
p272
sg48
S'1975-76'
p273
sg50
S'802'
p274
sg52
g3
sg53
S'.892'
p275
sg55
S'371'
p276
sg57
S'1625'
p277
sba(isrc.gp1.models.Totals
Totals
p278
(dp279
g8
S'86'
p280
sg9
S'.490'
p281
sg11
S'578'
p282
sg13
S'1344'
p283
sg14
S'.490'
p284
sg16
S'1179'
p285
sg18
g3
sg19
S'SF'
p286
sg21
S'210'
p287
sg23
S'86'
p288
sg25
S'NBA'
p289
sg27
g3
sg28
S'.490'
p290
sg30
g3
sg31
S'294'
p291
sg33
S'163'
p292
sg34
S'32'
p293
sg36
S'LAL'
p294
sg38
S'82'
p295
sg40
g3
sg41
S'188'
p296
sg43
S'208'
p297
sg45
S'219'
p298
sg47
S'7'
p299
sg48
S'1976-77'
p300
sg50
S'1179'
p301
sg52
g3
sg53
S'.858'
p302
sg55
S'578'
p303
sg57
S'2583'
p304
sba(isrc.gp1.models.Totals
Totals
p305
(dp306
g8
S'19'
p307
sg9
S'.438'
p308
sg11
S'133'
p309
sg13
S'63'
p310
sg14
S'.438'
p311
sg16
S'304'
p312
sg18
g3
sg19
S'SF'
p313
sg21
S'61'
p314
sg23
S'31'
p315
sg25
S'NBA'
p316
sg27
S'315'
p317
sg28
S'.438'
p318
sg30
g3
sg31
S'83'
p319
sg33
S'35'
p320
sg34
S'33'
p321
sg36
S'CHI'
p322
sg38
S'36'
p323
sg40
g3
sg41
S'49'
p324
sg43
S'52'
p325
sg45
S'57'
p326
sg47
S'4'
p327
sg48
S'1977-78'
p328
sg50
S'304'
p329
sg52
g3
sg53
S'.860'
p330
sg55
S'133'
p331
sg57
S'789'
p332
sbasS'_college'
p333
S'University of Michigan'
p334
sS'_toYear'
p335
S'1978'
p336
sS'_height'
p337
S'6-5'
p338
sS'_active'
p339
I00
sS'_shootingHand'
p340
VRight
p341
sS'_name'
p342
S'Cazzie Russell'
p343
sS'_per100Possessions'
p344
(lp345
(isrc.gp1.models.Per100Possession
Per100Possession
p346
(dp347
g8
S'0.9'
p348
sg9
S'.482'
p349
sg11
S'12.6'
p350
sS'_offensiveRating'
p351
g3
sg13
S'28.8'
p352
sg14
S'3.6'
p353
sg16
S'26.2'
p354
sg18
g3
sg19
S'SF'
p355
sS'_defensiveRating'
p356
g3
sg21
S'3.3'
p357
sg25
S'NBA'
p358
sg27
S'102'
p359
sg28
S'.482'
p360
sg30
g3
sg31
S'6.0'
p361
sg33
S'3.3'
p362
sg34
S'29'
p363
sg36
S'GSW'
p364
sg38
S'82'
p365
sg40
g3
sg41
S'4.3'
p366
sg43
S'3.6'
p367
sg45
S'.835'
p368
sg47
S'0.3'
p369
sg48
S'1973-74'
p370
sg50
S'26.2'
p371
sg52
g3
sg53
S'2.4'
p372
sg55
S'12.6'
p373
sg57
S'2574'
p374
sba(isrc.gp1.models.Per100Possession
Per100Possession
p375
(dp376
g8
S'1.2'
p377
sg9
S'.455'
p378
sg11
S'11.3'
p379
sg351
g3
sg13
S'26.9'
p380
sg14
S'4.3'
p381
sg16
S'24.8'
p382
sg18
g3
sg19
S'SF'
p383
sg356
g3
sg21
S'4.7'
p384
sg25
S'NBA'
p385
sg27
S'104'
p386
sg28
S'.455'
p387
sg30
g3
sg31
S'4.9'
p388
sg33
S'2.4'
p389
sg34
S'30'
p390
sg36
S'LAL'
p391
sg38
S'40'
p392
sg40
g3
sg41
S'4.8'
p393
sg43
S'3.5'
p394
sg45
S'.894'
p395
sg47
S'0.1'
p396
sg48
S'1974-75'
p397
sg50
S'24.8'
p398
sg52
g3
sg53
S'1.5'
p399
sg55
S'11.3'
p400
sg57
S'1055'
p401
sba(isrc.gp1.models.Per100Possession
Per100Possession
p402
(dp403
g8
S'1.4'
p404
sg9
S'.463'
p405
sg11
S'10.1'
p406
sg351
g3
sg13
S'23.9'
p407
sg14
S'3.6'
p408
sg16
S'21.9'
p409
sg18
g3
sg19
S'SF'
p410
sg356
g3
sg21
S'3.3'
p411
sg25
S'NBA'
p412
sg27
S'102'
p413
sg28
S'.463'
p414
sg30
g3
sg31
S'5.0'
p415
sg33
S'3.3'
p416
sg34
S'31'
p417
sg36
S'LAL'
p418
sg38
S'74'
p419
sg40
g3
sg41
S'4.0'
p420
sg43
S'3.6'
p421
sg45
S'.892'
p422
sg47
S'0.1'
p423
sg48
S'1975-76'
p424
sg50
S'21.9'
p425
sg52
g3
sg53
S'1.4'
p426
sg55
S'10.1'
p427
sg57
S'1625'
p428
sba(isrc.gp1.models.Per100Possession
Per100Possession
p429
(dp430
g8
S'1.5'
p431
sg9
S'.490'
p432
sg11
S'10.3'
p433
sg351
g3
sg13
S'23.9'
p434
sg14
S'3.3'
p435
sg16
S'20.9'
p436
sg18
g3
sg19
S'SF'
p437
sg356
g3
sg21
S'3.7'
p438
sg25
S'NBA'
p439
sg27
S'102'
p440
sg28
S'.490'
p441
sg30
g3
sg31
S'5.2'
p442
sg33
S'2.9'
p443
sg34
S'32'
p444
sg36
S'LAL'
p445
sg38
S'82'
p446
sg40
g3
sg41
S'3.9'
p447
sg43
S'3.7'
p448
sg45
S'.858'
p449
sg47
S'0.1'
p450
sg48
S'1976-77'
p451
sg50
S'20.9'
p452
sg52
g3
sg53
S'1.5'
p453
sg55
S'10.3'
p454
sg57
S'2583'
p455
sba(isrc.gp1.models.Per100Possession
Per100Possession
p456
(dp457
g8
S'1.1'
p458
sg9
S'.438'
p459
sg11
S'8.0'
p460
sg351
g3
sg13
S'3.8'
p461
sg14
S'2.9'
p462
sg16
S'18.2'
p463
sg18
g3
sg19
S'SF'
p464
sg356
g3
sg21
S'3.7'
p465
sg25
S'NBA'
p466
sg27
S'18.9'
p467
sg28
S'.438'
p468
sg30
g3
sg31
S'5.0'
p469
sg33
S'2.1'
p470
sg34
S'33'
p471
sg36
S'CHI'
p472
sg38
S'36'
p473
sg40
S'102'
p474
sg41
S'3.4'
p475
sg43
S'3.1'
p476
sg45
S'.860'
p477
sg47
S'0.2'
p478
sg48
S'1977-78'
p479
sg50
S'18.2'
p480
sg52
S'106'
p481
sg53
S'1.9'
p482
sg55
S'8.0'
p483
sg57
S'789'
p484
sbasS'_advanced'
p485
(lp486
(isrc.gp1.models.Advanced
Advanced
p487
(dp488
S'_offensiveReboundPercentage'
p489
S'1.6'
p490
sS'_turnOverPercentage'
p491
g3
sS'_winSharesPer48Minutes'
p492
g3
sS'_stealPercentage'
p493
g3
sS'_usagePercentage'
p494
g3
sS'_totalReboundsPercentage'
p495
S'2.2'
p496
sS'_defensiveBoxPlusMinus'
p497
g3
sg19
S'SF'
p498
sS'_valueOverReplacementPlayer'
p499
g3
sS'_trueShootingPercentage'
p500
S'.487'
p501
sS'_defensiveReboundPercentage'
p502
S'0.6'
p503
sS'_freeThrowsAttempRate'
p504
S'15.1'
p505
sS'_threePointsAttempRate'
p506
S'.289'
p507
sg25
S'NBA'
p508
sS'_offensiveBoxPlusMinues'
p509
g3
sS'_assistPercentage'
p510
S'.061'
p511
sS'_defensiveWinShares'
p512
g3
sg34
S'22'
p513
sg36
S'NYK'
p514
sg38
S'77'
p515
sS'_blockPercentage'
p516
g3
sS'_playerEfficiencyRating'
p517
S'14.2'
p518
sS'_offensiveWinShares'
p519
g3
sg55
S'1696'
p520
sS'_boxPlusMinus'
p521
g3
sg48
S'1966-67'
p522
sS'_winShares'
p523
g3
sba(isrc.gp1.models.Advanced
Advanced
p524
(dp525
g489
S'4.0'
p526
sg491
g3
sg492
g3
sg493
g3
sg494
g3
sg495
S'5.9'
p527
sg497
g3
sg19
S'SF'
p528
sg499
g3
sg500
S'.514'
p529
sg502
S'1.9'
p530
sg504
S'12.4'
p531
sg506
S'.293'
p532
sg25
S'NBA'
p533
sg509
g3
sg510
S'.124'
p534
sg512
g3
sg34
S'23'
p535
sg36
S'NYK'
p536
sg38
S'82'
p537
sg516
g3
sg517
S'16.7'
p538
sg519
g3
sg55
S'2296'
p539
sg521
g3
sg48
S'1967-68'
p540
sg523
g3
sba(isrc.gp1.models.Advanced
Advanced
p541
(dp542
g489
S'2.6'
p543
sg491
g3
sg492
g3
sg493
g3
sg494
g3
sg495
S'4.1'
p544
sg497
g3
sg19
S'SF'
p545
sg499
g3
sg500
S'.503'
p546
sg502
S'1.5'
p547
sg504
S'10.1'
p548
sg506
S'.299'
p549
sg25
S'NBA'
p550
sg509
g3
sg510
S'.119'
p551
sg512
g3
sg34
S'24'
p552
sg36
S'NYK'
p553
sg38
S'50'
p554
sg516
g3
sg517
S'15.2'
p555
sg519
g3
sg55
S'1645'
p556
sg521
g3
sg48
S'1968-69'
p557
sg523
g3
sba(isrc.gp1.models.Advanced
Advanced
p558
(dp559
g489
S'2.8'
p560
sg491
g3
sg492
g3
sg493
g3
sg494
g3
sg495
S'5.2'
p561
sg497
g3
sg19
S'SF'
p562
sg499
g3
sg500
S'.530'
p563
sg502
S'2.4'
p564
sg504
S'12.0'
p565
sg506
S'.207'
p566
sg25
S'NBA'
p567
sg509
g3
sg510
S'.161'
p568
sg512
g3
sg34
S'25'
p569
sg36
S'NYK'
p570
sg38
S'78'
p571
sg516
g3
sg517
S'16.9'
p572
sg519
g3
sg55
S'1563'
p573
sg521
g3
sg48
S'1969-70'
p574
sg523
g3
sba(isrc.gp1.models.Advanced
Advanced
p575
(dp576
g489
S'10.2'
p577
sg491
g3
sg492
g3
sg493
S'.093'
p578
sg494
g3
sg495
S'1.7'
p579
sg497
g3
sg19
S'SF'
p580
sg499
g3
sg500
S'.471'
p581
sg502
S'0.3'
p582
sg504
S'8.3'
p583
sg506
S'.236'
p584
sg25
S'NBA'
p585
sg509
g3
sg510
S'2.0'
p586
sg512
g3
sg34
S'26'
p587
sg36
S'NYK'
p588
sg38
S'57'
p589
sg516
g3
sg517
S'14.7'
p590
sg519
g3
sg55
S'1056'
p591
sg521
g3
sg48
S'1970-71'
p592
sg523
g3
sba(isrc.gp1.models.Advanced
Advanced
p593
(dp594
g489
S'13.3'
p595
sg491
g3
sg492
g3
sg493
S'.120'
p596
sg494
g3
sg495
S'3.5'
p597
sg497
g3
sg19
S'SF'
p598
sg499
g3
sg500
S'.504'
p599
sg502
S'3.7'
p600
sg504
S'6.6'
p601
sg506
S'.250'
p602
sg25
S'NBA'
p603
sg509
g3
sg510
S'7.3'
p604
sg512
g3
sg34
S'27'
p605
sg36
S'GSW'
p606
sg38
S'79'
p607
sg516
g3
sg517
S'17.3'
p608
sg519
g3
sg55
S'2902'
p609
sg521
g3
sg48
S'1971-72'
p610
sg523
g3
sba(isrc.gp1.models.Advanced
Advanced
p611
(dp612
g489
S'10.7'
p613
sg491
g3
sg492
g3
sg493
S'.104'
p614
sg494
g3
sg495
S'2.7'
p615
sg497
g3
sg19
S'SF'
p616
sg499
g3
sg500
S'.494'
p617
sg502
S'2.5'
p618
sg504
S'6.6'
p619
sg506
S'.168'
p620
sg25
S'NBA'
p621
sg509
g3
sg510
S'5.2'
p622
sg512
g3
sg34
S'28'
p623
sg36
S'GSW'
p624
sg38
S'80'
p625
sg516
g3
sg517
S'15.0'
p626
sg519
g3
sg55
S'2429'
p627
sg521
g3
sg48
S'1972-73'
p628
sg523
g3
sba(isrc.gp1.models.Advanced
Advanced
p629
(dp630
g489
S'7.6'
p631
sg491
S'1.1'
p632
sg492
S'-1.2'
p633
sg493
S'0.3'
p634
sg494
S'7.1'
p635
sg495
S'11.3'
p636
sg497
g3
sg19
S'SF'
p637
sg499
g3
sg500
S'.513'
p638
sg502
S'6.5'
p639
sg504
S'5.3'
p640
sg506
S'.163'
p641
sg25
S'NBA'
p642
sg509
S'0.5'
p643
sg510
S'0.9'
p644
sg512
S'1.8'
p645
sg34
S'29'
p646
sg36
S'GSW'
p647
sg38
S'82'
p648
sg516
S'6.0'
p649
sg517
S'17.6'
p650
sg519
S'.133'
p651
sg55
S'2574'
p652
sg521
g3
sg48
S'1973-74'
p653
sg523
S'-3.0'
p654
sba(isrc.gp1.models.Advanced
Advanced
p655
(dp656
g489
S'7.3'
p657
sg491
S'0.2'
p658
sg492
S'-2.9'
p659
sg493
S'0.1'
p660
sg494
S'1.8'
p661
sg495
S'17.0'
p662
sg497
g3
sg19
S'SF'
p663
sg499
g3
sg500
S'.499'
p664
sg502
S'5.2'
p665
sg504
S'3.1'
p666
sg506
S'.195'
p667
sg25
S'NBA'
p668
sg509
S'-0.2'
p669
sg510
S'1.2'
p670
sg512
S'0.3'
p671
sg34
S'30'
p672
sg36
S'LAL'
p673
sg38
S'40'
p674
sg516
S'1.6'
p675
sg517
S'16.5'
p676
sg519
S'.083'
p677
sg55
S'1055'
p678
sg521
g3
sg48
S'1974-75'
p679
sg523
S'-3.2'
p680
sba(isrc.gp1.models.Advanced
Advanced
p681
(dp682
g489
S'7.6'
p683
sg491
S'0.9'
p684
sg492
S'-3.7'
p685
sg493
S'0.1'
p686
sg494
S'3.0'
p687
sg495
S'11.2'
p688
sg497
g3
sg19
S'SF'
p689
sg499
g3
sg500
S'.504'
p690
sg502
S'5.4'
p691
sg504
S'3.1'
p692
sg506
S'.185'
p693
sg25
S'NBA'
p694
sg509
S'-0.7'
p695
sg510
S'1.4'
p696
sg512
S'-1.0'
p697
sg34
S'31'
p698
sg36
S'LAL'
p699
sg38
S'74'
p700
sg516
S'2.2'
p701
sg517
S'14.7'
p702
sg519
S'.090'
p703
sg55
S'1625'
p704
sg521
g3
sg48
S'1975-76'
p705
sg523
S'-2.7'
p706
sba(isrc.gp1.models.Advanced
Advanced
p707
(dp708
g489
S'8.0'
p709
sg491
S'1.7'
p710
sg492
S'-0.8'
p711
sg493
S'0.1'
p712
sg494
S'6.6'
p713
sg495
S'11.6'
p714
sg497
g3
sg19
S'SF'
p715
sg499
g3
sg500
S'.527'
p716
sg502
S'5.8'
p717
sg504
S'3.5'
p718
sg506
S'.186'
p719
sg25
S'NBA'
p720
sg509
S'0.8'
p721
sg510
S'1.5'
p722
sg512
S'0.6'
p723
sg34
S'32'
p724
sg36
S'LAL'
p725
sg38
S'82'
p726
sg516
S'4.9'
p727
sg517
S'15.3'
p728
sg519
S'.123'
p729
sg55
S'2583'
p730
sg521
g3
sg48
S'1976-77'
p731
sg523
S'-1.4'
p732
sba(isrc.gp1.models.Advanced
Advanced
p733
(dp734
g489
S'7.1'
p735
sg491
S'18.6'
p736
sg492
S'-0.9'
p737
sg493
S'0.3'
p738
sg494
S'0.8'
p739
sg495
S'11.5'
p740
sg497
S'-3.2'
p741
sg19
S'SF'
p742
sg499
g3
sg500
S'.479'
p743
sg502
S'5.7'
p744
sg504
S'4.3'
p745
sg506
S'.188'
p746
sg25
S'NBA'
p747
sg509
S'-2.3'
p748
sg510
S'1.1'
p749
sg512
S'1.1'
p750
sg34
S'33'
p751
sg36
S'CHI'
p752
sg38
S'36'
p753
sg516
S'9.6'
p754
sg517
S'11.6'
p755
sg519
S'0.3'
p756
sg55
S'789'
p757
sg521
S'-0.2'
p758
sg48
S'1977-78'
p759
sg523
S'.070'
p760
sbasS'_per36Minutes'
p761
(lp762
(isrc.gp1.models.Per36Minutes
Per36Minutes
p763
(dp764
g8
g3
sg9
S'.436'
p765
sg11
S'7.3'
p766
sg13
g3
sg14
S'3.8'
p767
sg16
S'16.7'
p768
sg18
g3
sg19
S'SF'
p769
sg21
S'18.4'
p770
sg25
S'NBA'
p771
sg27
g3
sg28
S'.436'
p772
sg30
g3
sg31
S'3.7'
p773
sg33
g3
sg34
S'22'
p774
sg36
S'NYK'
p775
sg38
S'77'
p776
sg40
g3
sg41
S'4.8'
p777
sg43
S'4.0'
p778
sg45
S'.785'
p779
sg47
g3
sg48
S'1966-67'
p780
sg50
S'16.7'
p781
sg52
g3
sg53
S'5.3'
p782
sg55
S'7.3'
p783
sg57
S'1696'
p784
sba(isrc.gp1.models.Per36Minutes
Per36Minutes
p785
(dp786
g8
g3
sg9
S'.462'
p787
sg11
S'8.6'
p788
sg13
g3
sg14
S'4.4'
p789
sg16
S'18.7'
p790
sg18
g3
sg19
S'SF'
p791
sg21
S'21.7'
p792
sg25
S'NBA'
p793
sg27
g3
sg28
S'.462'
p794
sg30
g3
sg31
S'3.5'
p795
sg33
g3
sg34
S'23'
p796
sg36
S'NYK'
p797
sg38
S'82'
p798
sg40
g3
sg41
S'5.5'
p799
sg43
S'3.1'
p800
sg45
S'.808'
p801
sg47
g3
sg48
S'1967-68'
p802
sg50
S'18.7'
p803
sg52
g3
sg53
S'5.9'
p804
sg55
S'8.6'
p805
sg57
S'2296'
p806
sba(isrc.gp1.models.Per36Minutes
Per36Minutes
p807
(dp808
g8
g3
sg9
S'.450'
p809
sg11
S'7.9'
p810
sg13
g3
sg14
S'4.2'
p811
sg16
S'17.6'
p812
sg18
g3
sg19
S'SF'
p813
sg21
S'20.0'
p814
sg25
S'NBA'
p815
sg27
g3
sg28
S'.450'
p816
sg30
g3
sg31
S'3.1'
p817
sg33
g3
sg34
S'24'
p818
sg36
S'NYK'
p819
sg38
S'50'
p820
sg40
g3
sg41
S'5.3'
p821
sg43
S'2.5'
p822
sg45
S'.796'
p823
sg47
g3
sg48
S'1968-69'
p824
sg50
S'17.6'
p825
sg52
g3
sg53
S'4.6'
p826
sg55
S'7.9'
p827
sg57
S'1645'
p828
sba(isrc.gp1.models.Per36Minutes
Per36Minutes
p829
(dp830
g8
g3
sg9
S'.498'
p831
sg11
S'8.9'
p832
sg13
g3
sg14
S'2.9'
p833
sg16
S'17.8'
p834
sg18
g3
sg19
S'SF'
p835
sg21
S'20.6'
p836
sg25
S'NBA'
p837
sg27
g3
sg28
S'.498'
p838
sg30
g3
sg31
S'3.2'
p839
sg33
g3
sg34
S'25'
p840
sg36
S'NYK'
p841
sg38
S'78'
p842
sg40
g3
sg41
S'3.7'
p843
sg43
S'3.1'
p844
sg45
S'.775'
p845
sg47
g3
sg48
S'1969-70'
p846
sg50
S'17.8'
p847
sg52
g3
sg53
S'5.4'
p848
sg55
S'8.9'
p849
sg57
S'1563'
p850
sba(isrc.gp1.models.Per36Minutes
Per36Minutes
p851
(dp852
g8
g3
sg9
S'.429'
p853
sg11
S'7.4'
p854
sg13
g3
sg14
S'3.1'
p855
sg16
S'17.2'
p856
sg18
g3
sg19
S'SF'
p857
sg21
S'17.9'
p858
sg25
S'NBA'
p859
sg27
g3
sg28
S'.429'
p860
sg30
g3
sg31
S'2.5'
p861
sg33
g3
sg34
S'26'
p862
sg36
S'NYK'
p863
sg38
S'57'
p864
sg40
g3
sg41
S'4.1'
p865
sg43
S'2.6'
p866
sg45
S'.773'
p867
sg47
g3
sg48
S'1970-71'
p868
sg50
S'17.2'
p869
sg52
g3
sg53
S'6.5'
p870
sg55
S'7.4'
p871
sg57
S'1056'
p872
sba(isrc.gp1.models.Per36Minutes
Per36Minutes
p873
(dp874
g8
g3
sg9
S'.455'
p875
sg11
S'8.5'
p876
sg13
g3
sg14
S'3.9'
p877
sg16
S'18.8'
p878
sg18
g3
sg19
S'SF'
p879
sg21
S'21.0'
p880
sg25
S'NBA'
p881
sg27
g3
sg28
S'.455'
p882
sg30
g3
sg31
S'2.2'
p883
sg33
g3
sg34
S'27'
p884
sg36
S'GSW'
p885
sg38
S'79'
p886
sg40
g3
sg41
S'4.7'
p887
sg43
S'3.1'
p888
sg45
S'.833'
p889
sg47
g3
sg48
S'1971-72'
p890
sg50
S'18.8'
p891
sg52
g3
sg53
S'5.3'
p892
sg55
S'8.5'
p893
sg57
S'2902'
p894
sba(isrc.gp1.models.Per36Minutes
Per36Minutes
p895
(dp896
g8
g3
sg9
S'.458'
p897
sg11
S'8.0'
p898
sg13
g3
sg14
S'2.5'
p899
sg16
S'17.5'
p900
sg18
g3
sg19
S'SF'
p901
sg21
S'18.6'
p902
sg25
S'NBA'
p903
sg27
g3
sg28
S'.458'
p904
sg30
g3
sg31
S'2.5'
p905
sg33
g3
sg34
S'28'
p906
sg36
S'GSW'
p907
sg38
S'80'
p908
sg40
g3
sg41
S'2.9'
p909
sg43
S'2.8'
p910
sg45
S'.864'
p911
sg47
g3
sg48
S'1972-73'
p912
sg50
S'17.5'
p913
sg52
g3
sg53
S'5.2'
p914
sg55
S'8.0'
p915
sg57
S'2429'
p916
sba(isrc.gp1.models.Per36Minutes
Per36Minutes
p917
(dp918
g8
S'0.8'
p919
sg9
S'.482'
p920
sg11
S'10.3'
p921
sg13
S'23.6'
p922
sg14
S'2.9'
p923
sg16
S'21.4'
p924
sg18
g3
sg19
S'SF'
p925
sg21
S'2.7'
p926
sg25
S'NBA'
p927
sg27
g3
sg28
S'.482'
p928
sg30
g3
sg31
S'4.9'
p929
sg33
S'2.7'
p930
sg34
S'29'
p931
sg36
S'GSW'
p932
sg38
S'82'
p933
sg40
g3
sg41
S'3.5'
p934
sg43
S'3.0'
p935
sg45
S'.835'
p936
sg47
S'0.2'
p937
sg48
S'1973-74'
p938
sg50
S'21.4'
p939
sg52
g3
sg53
S'2.0'
p940
sg55
S'10.3'
p941
sg57
S'2574'
p942
sba(isrc.gp1.models.Per36Minutes
Per36Minutes
p943
(dp944
g8
S'0.9'
p945
sg9
S'.455'
p946
sg11
S'9.0'
p947
sg13
S'21.5'
p948
sg14
S'3.4'
p949
sg16
S'19.8'
p950
sg18
g3
sg19
S'SF'
p951
sg21
S'3.7'
p952
sg25
S'NBA'
p953
sg27
g3
sg28
S'.455'
p954
sg30
g3
sg31
S'3.9'
p955
sg33
S'1.9'
p956
sg34
S'30'
p957
sg36
S'LAL'
p958
sg38
S'40'
p959
sg40
g3
sg41
S'3.9'
p960
sg43
S'2.8'
p961
sg45
S'.894'
p962
sg47
S'0.1'
p963
sg48
S'1974-75'
p964
sg50
S'19.8'
p965
sg52
g3
sg53
S'1.2'
p966
sg55
S'9.0'
p967
sg57
S'1055'
p968
sba(isrc.gp1.models.Per36Minutes
Per36Minutes
p969
(dp970
g8
S'1.2'
p971
sg9
S'.463'
p972
sg11
S'8.2'
p973
sg13
S'19.4'
p974
sg14
S'2.9'
p975
sg16
S'17.8'
p976
sg18
g3
sg19
S'SF'
p977
sg21
S'2.7'
p978
sg25
S'NBA'
p979
sg27
g3
sg28
S'.463'
p980
sg30
g3
sg31
S'4.1'
p981
sg33
S'2.7'
p982
sg34
S'31'
p983
sg36
S'LAL'
p984
sg38
S'74'
p985
sg40
g3
sg41
S'3.3'
p986
sg43
S'2.9'
p987
sg45
S'.892'
p988
sg47
S'0.1'
p989
sg48
S'1975-76'
p990
sg50
S'17.8'
p991
sg52
g3
sg53
S'1.1'
p992
sg55
S'8.2'
p993
sg57
S'1625'
p994
sba(isrc.gp1.models.Per36Minutes
Per36Minutes
p995
(dp996
g8
S'1.2'
p997
sg9
S'.490'
p998
sg11
S'8.1'
p999
sg13
S'18.7'
p1000
sg14
S'2.6'
p1001
sg16
S'16.4'
p1002
sg18
g3
sg19
S'SF'
p1003
sg21
S'2.9'
p1004
sg25
S'NBA'
p1005
sg27
g3
sg28
S'.490'
p1006
sg30
g3
sg31
S'4.1'
p1007
sg33
S'2.3'
p1008
sg34
S'32'
p1009
sg36
S'LAL'
p1010
sg38
S'82'
p1011
sg40
g3
sg41
S'3.1'
p1012
sg43
S'2.9'
p1013
sg45
S'.858'
p1014
sg47
S'0.1'
p1015
sg48
S'1976-77'
p1016
sg50
S'16.4'
p1017
sg52
g3
sg53
S'1.2'
p1018
sg55
S'8.1'
p1019
sg57
S'2583'
p1020
sba(isrc.gp1.models.Per36Minutes
Per36Minutes
p1021
(dp1022
g8
S'0.9'
p1023
sg9
S'.438'
p1024
sg11
S'6.1'
p1025
sg13
S'2.9'
p1026
sg14
S'2.2'
p1027
sg16
S'13.9'
p1028
sg18
g3
sg19
S'SF'
p1029
sg21
S'2.8'
p1030
sg25
S'NBA'
p1031
sg27
S'14.4'
p1032
sg28
S'.438'
p1033
sg30
g3
sg31
S'3.8'
p1034
sg33
S'1.6'
p1035
sg34
S'33'
p1036
sg36
S'CHI'
p1037
sg38
S'36'
p1038
sg40
g3
sg41
S'2.6'
p1039
sg43
S'2.4'
p1040
sg45
S'.860'
p1041
sg47
S'0.2'
p1042
sg48
S'1977-78'
p1043
sg50
S'13.9'
p1044
sg52
g3
sg53
S'1.4'
p1045
sg55
S'6.1'
p1046
sg57
S'789'
p1047
sbasS'_fromYear'
p1048
S'1967'
p1049
sS'_url'
p1050
S'http://www.basketball-reference.com/players/r/russeca01.html'
p1051
sS'_perGame'
p1052
(isrc.gp1.models.PerGame
PerGame
p1053
(dp1054
g8
S'0.5'
p1055
sg9
S'.438'
p1056
sg11
S'3.7'
p1057
sS'_effectiveFieldGalPercentage'
p1058
S'0.9'
p1059
sg13
S'1.8'
p1060
sg14
S'.438'
p1061
sg16
S'8.4'
p1062
sg18
g3
sg19
S'SF'
p1063
sg21
S'1.7'
p1064
sg25
S'NBA'
p1065
sg27
S'8.8'
p1066
sg30
g3
sS'_fieldGoalsttempted'
p1067
S'.438'
p1068
sg31
S'2.3'
p1069
sg33
S'1.0'
p1070
sg34
S'33'
p1071
sg36
S'CHI'
p1072
sg38
S'36'
p1073
sg40
g3
sg41
S'1.4'
p1074
sg43
S'1.4'
p1075
sg45
S'1.6'
p1076
sg47
S'0.1'
p1077
sg48
S'1977-78'
p1078
sg50
S'8.4'
p1079
sg52
g3
sg53
S'.860'
p1080
sg55
S'3.7'
p1081
sg57
S'21.9'
p1082
sbsS'_weight'
p1083
S'218'
p1084
sS'_dob'
p1085
S'7-6-1944'
p1086
sS'_salary'
p1087
(lp1088
sg19
S'F-G'
p1089
sb.