(isrc.gp1.models.Player
Player
p0
(dp1
S'_experience'
p2
S'NA'
p3
sS'_totals'
p4
(lp5
(isrc.gp1.models.Totals
Totals
p6
(dp7
S'_offensiveRebounds'
p8
S'6'
p9
sS'_threePointsAttempted'
p10
S'0'
p11
sS'_fieldGoalsPercentage'
p12
S'.375'
p13
sS'_assist'
p14
g11
sS'_threePointsPercentage'
p15
S'3'
p16
sS'_threePoints'
p17
g11
sS'_points'
p18
g3
sS'_position'
p19
S'PF'
p20
sS'_freeThrowsPercentage'
p21
S'5'
p22
sS'_effectiveFieldGoalPercentage'
p23
S'2'
p24
sS'_league'
p25
S'NBA'
p26
sS'_steals'
p27
g24
sS'_fieldGoalsAttempted'
p28
S'8'
p29
sS'_personalFouls'
p30
g29
sS'_freeThrowsAttempted'
p31
S'1.000'
p32
sS'_totalRebounds'
p33
g11
sS'_age'
p34
S'22'
p35
sS'_team'
p36
S'LAC'
p37
sS'_games'
p38
S'7'
p39
sS'_blocks'
p40
g24
sS'_twoPoints'
p41
g29
sS'_freeThrows'
p42
g24
sS'_twoPointsAttempted'
p43
S'.375'
p44
sS'_defensiveRebounds'
p45
S'11'
p46
sS'_season'
p47
S'1990-91'
p48
sS'_fieldGoals'
p49
g16
sS'_turnOvers'
p50
g22
sS'_twoPointsPercentage'
p51
S'.375'
p52
sS'_minutesPlayed'
p53
S'26'
p54
sS'_gamesStarted'
p55
g11
sbasS'_college'
p56
S'University of North Carolina at Charlotte'
p57
sS'_toYear'
p58
S'1991'
p59
sS'_height'
p60
S'6-8'
p61
sS'_active'
p62
I00
sS'_shootingHand'
p63
VRight
p64
sS'_name'
p65
S'Cedric Ball'
p66
sS'_per100Possessions'
p67
(lp68
(isrc.gp1.models.Per100Possession
Per100Possession
p69
(dp70
g8
S'11.1'
p71
sg10
S'0.0'
p72
sg12
S'.375'
p73
sS'_offensiveRating'
p74
S'104'
p75
sg14
S'0.0'
p76
sg15
S'5.5'
p77
sg17
S'0.0'
p78
sg18
S'96'
p79
sg19
S'PF'
p80
sS'_defensiveRating'
p81
g3
sg21
S'9.2'
p82
sg25
S'NBA'
p83
sg27
S'3.7'
p84
sg28
S'14.8'
p85
sg30
S'14.8'
p86
sg31
S'1.000'
p87
sg33
S'0.0'
p88
sg34
S'22'
p89
sg36
S'LAC'
p90
sg38
g39
sg40
S'3.7'
p91
sg41
S'14.8'
p92
sg42
S'3.7'
p93
sg43
S'.375'
p94
sg45
S'20.3'
p95
sg47
S'1990-91'
p96
sg49
S'5.5'
p97
sg50
S'9.2'
p98
sg51
S'3.7'
p99
sg53
S'26'
p100
sg55
g11
sbasS'_advanced'
p101
(lp102
(isrc.gp1.models.Advanced
Advanced
p103
(dp104
S'_offensiveReboundPercentage'
p105
S'20.4'
p106
sS'_turnOverPercentage'
p107
S'18.4'
p108
sS'_winSharesPer48Minutes'
p109
S'.054'
p110
sS'_stealPercentage'
p111
S'0.0'
p112
sS'_usagePercentage'
p113
S'17.0'
p114
sS'_totalReboundsPercentage'
p115
S'22.8'
p116
sS'_defensiveBoxPlusMinus'
p117
S'-4.3'
p118
sg19
S'PF'
p119
sS'_valueOverReplacementPlayer'
p120
S'-0.1'
p121
sS'_trueShootingPercentage'
p122
S'.450'
p123
sS'_defensiveReboundPercentage'
p124
S'25.3'
p125
sS'_freeThrowsAttempRate'
p126
S'.250'
p127
sS'_threePointsAttempRate'
p128
S'.000'
p129
sg25
S'NBA'
p130
sS'_offensiveBoxPlusMinues'
p131
S'-7.4'
p132
sS'_assistPercentage'
p133
S'0.0'
p134
sS'_defensiveWinShares'
p135
S'0.0'
p136
sg34
S'22'
p137
sg36
S'LAC'
p138
sg38
g39
sS'_blockPercentage'
p139
S'4.6'
p140
sS'_playerEfficiencyRating'
p141
S'10.8'
p142
sS'_offensiveWinShares'
p143
S'0.0'
p144
sg53
S'26'
p145
sS'_boxPlusMinus'
p146
S'-11.7'
p147
sg47
S'1990-91'
p148
sS'_winShares'
p149
S'0.0'
p150
sbasS'_per36Minutes'
p151
(lp152
(isrc.gp1.models.Per36Minutes
Per36Minutes
p153
(dp154
g8
S'8.3'
p155
sg10
S'0.0'
p156
sg12
S'.375'
p157
sg14
S'0.0'
p158
sg15
S'4.2'
p159
sg17
S'0.0'
p160
sg18
g3
sg19
S'PF'
p161
sg21
S'6.9'
p162
sg25
S'NBA'
p163
sg27
S'2.8'
p164
sg28
S'11.1'
p165
sg30
S'11.1'
p166
sg31
S'1.000'
p167
sg33
S'0.0'
p168
sg34
S'22'
p169
sg36
S'LAC'
p170
sg38
g39
sg40
S'2.8'
p171
sg41
S'11.1'
p172
sg42
S'2.8'
p173
sg43
S'.375'
p174
sg45
S'15.2'
p175
sg47
S'1990-91'
p176
sg49
S'4.2'
p177
sg50
S'6.9'
p178
sg51
S'2.8'
p179
sg53
S'26'
p180
sg55
g11
sbasS'_fromYear'
p181
S'1991'
p182
sS'_url'
p183
S'http://www.basketball-reference.com/players/b/ballce01.html'
p184
sS'_perGame'
p185
(isrc.gp1.models.PerGame
PerGame
p186
(dp187
g8
S'0.9'
p188
sg10
S'0.0'
p189
sg12
S'.375'
p190
sS'_effectiveFieldGalPercentage'
p191
S'0.3'
p192
sg14
S'0.0'
p193
sg15
S'0.4'
p194
sg17
S'0.0'
p195
sg18
g3
sg19
S'PF'
p196
sg21
S'0.7'
p197
sg25
S'NBA'
p198
sg27
S'0.3'
p199
sg30
S'1.1'
p200
sS'_fieldGoalsttempted'
p201
S'1.1'
p202
sg31
S'1.000'
p203
sg33
S'0.0'
p204
sg34
S'22'
p205
sg36
S'LAC'
p206
sg38
g39
sg40
S'0.3'
p207
sg41
S'1.1'
p208
sg42
S'0.3'
p209
sg43
S'.375'
p210
sg45
S'1.6'
p211
sg47
S'1990-91'
p212
sg49
S'0.4'
p213
sg50
S'0.7'
p214
sg51
S'.375'
p215
sg53
S'3.7'
p216
sg55
g11
sbsS'_weight'
p217
S'210'
p218
sS'_dob'
p219
S'16-4-1968'
p220
sS'_salary'
p221
(lp222
sg19
S'F'
p223
sb.