(isrc.gp1.models.Player
Player
p0
(dp1
S'_experience'
p2
S'NA'
p3
sS'_totals'
p4
(lp5
(isrc.gp1.models.Totals
Totals
p6
(dp7
S'_offensiveRebounds'
p8
S'77'
p9
sS'_threePointsAttempted'
p10
S'6'
p11
sS'_fieldGoalsPercentage'
p12
S'.487'
p13
sS'_assist'
p14
S'35'
p15
sS'_threePointsPercentage'
p16
S'.167'
p17
sS'_threePoints'
p18
S'1'
p19
sS'_points'
p20
S'519'
p21
sS'_position'
p22
S'SF'
p23
sS'_freeThrowsPercentage'
p24
S'.663'
p25
sS'_effectiveFieldGoalPercentage'
p26
S'.488'
p27
sS'_league'
p28
S'NBA'
p29
sS'_steals'
p30
S'22'
p31
sS'_fieldGoalsAttempted'
p32
S'419'
p33
sS'_personalFouls'
p34
S'70'
p35
sS'_freeThrowsAttempted'
p36
S'166'
p37
sS'_totalRebounds'
p38
S'150'
p39
sS'_age'
p40
S'21'
p41
sS'_team'
p42
S'PHO'
p43
sS'_games'
p44
S'63'
p45
sS'_blocks'
p46
S'5'
p47
sS'_twoPoints'
p48
S'203'
p49
sS'_freeThrows'
p50
S'110'
p51
sS'_twoPointsAttempted'
p52
S'413'
p53
sS'_defensiveRebounds'
p54
S'73'
p55
sS'_season'
p56
S'1990-91'
p57
sS'_fieldGoals'
p58
S'204'
p59
sS'_turnOvers'
p60
S'69'
p61
sS'_twoPointsPercentage'
p62
S'.492'
p63
sS'_minutesPlayed'
p64
S'730'
p65
sS'_gamesStarted'
p66
S'0'
p67
sba(isrc.gp1.models.Totals
Totals
p68
(dp69
g8
S'60'
p70
sg10
g11
sg12
S'.482'
p71
sg14
S'50'
p72
sg16
S'.167'
p73
sg18
g19
sg20
S'462'
p74
sg22
S'SF'
p75
sg24
S'.736'
p76
sg26
S'.484'
p77
sg28
S'NBA'
p78
sg30
S'16'
p79
sg32
S'365'
p80
sg34
S'52'
p81
sg36
S'148'
p82
sg38
S'152'
p83
sg40
S'22'
p84
sg42
S'PHO'
p85
sg44
S'64'
p86
sg46
S'11'
p87
sg48
S'175'
p88
sg50
S'109'
p89
sg52
S'359'
p90
sg54
S'92'
p91
sg56
S'1991-92'
p92
sg58
S'176'
p93
sg60
S'71'
p94
sg62
S'.487'
p95
sg64
S'725'
p96
sg66
S'4'
p97
sba(isrc.gp1.models.Totals
Totals
p98
(dp99
g8
S'172'
p100
sg10
S'2'
p101
sg12
S'.576'
p102
sg14
S'77'
p103
sg16
S'.000'
p104
sg18
g67
sg20
S'949'
p105
sg22
S'SF'
p106
sg24
S'.725'
p107
sg26
S'.576'
p108
sg28
S'NBA'
p109
sg30
S'54'
p110
sg32
S'662'
p111
sg34
S'103'
p112
sg36
S'258'
p113
sg38
S'408'
p114
sg40
S'23'
p115
sg42
S'PHO'
p116
sg44
S'74'
p117
sg46
S'28'
p118
sg48
S'381'
p119
sg50
S'187'
p120
sg52
S'660'
p121
sg54
S'236'
p122
sg56
S'1992-93'
p123
sg58
S'381'
p124
sg60
S'106'
p125
sg62
S'.577'
p126
sg64
S'1607'
p127
sg66
S'46'
p128
sba(isrc.gp1.models.Totals
Totals
p129
(dp130
g8
S'153'
p131
sg10
S'9'
p132
sg12
S'.535'
p133
sg14
S'91'
p134
sg16
S'.000'
p135
sg18
g67
sg20
S'1010'
p136
sg22
S'SF'
p137
sg24
S'.724'
p138
sg26
S'.535'
p139
sg28
S'NBA'
p140
sg30
S'59'
p141
sg32
S'795'
p142
sg34
S'124'
p143
sg36
S'221'
p144
sg38
S'344'
p145
sg40
S'24'
p146
sg42
S'PHO'
p147
sg44
S'53'
p148
sg46
S'23'
p149
sg48
S'425'
p150
sg50
S'160'
p151
sg52
S'786'
p152
sg54
S'191'
p153
sg56
S'1993-94'
p154
sg58
S'425'
p155
sg60
S'93'
p156
sg62
S'.541'
p157
sg64
S'1602'
p158
sg66
S'43'
p159
sba(isrc.gp1.models.Totals
Totals
p160
(dp161
g8
S'169'
p162
sg10
S'146'
p163
sg12
S'.509'
p164
sg14
S'105'
p165
sg16
S'.397'
p166
sg18
S'58'
p167
sg20
S'1261'
p168
sg22
S'SF'
p169
sg24
S'.716'
p170
sg26
S'.538'
p171
sg28
S'NBA'
p172
sg30
S'60'
p173
sg32
S'977'
p174
sg34
S'131'
p175
sg36
S'292'
p176
sg38
S'464'
p177
sg40
S'25'
p178
sg42
S'LAL'
p179
sg44
S'58'
p180
sg46
S'19'
p181
sg48
S'439'
p182
sg50
S'209'
p183
sg52
S'831'
p184
sg54
S'295'
p185
sg56
S'1994-95'
p186
sg58
S'497'
p187
sg60
S'143'
p188
sg62
S'.528'
p189
sg64
S'2029'
p190
sg66
S'54'
p191
sba(isrc.gp1.models.Totals
Totals
p192
(dp193
g8
S'215'
p194
sg10
S'184'
p195
sg12
S'.530'
p196
sg14
S'119'
p197
sg16
S'.277'
p198
sg18
S'51'
p199
sg20
S'1656'
p200
sg22
S'SF'
p201
sg24
S'.804'
p202
sg26
S'.552'
p203
sg28
S'NBA'
p204
sg30
S'94'
p205
sg32
S'1203'
p206
sg34
S'144'
p207
sg36
S'409'
p208
sg38
S'536'
p209
sg40
S'26'
p210
sg42
S'LAL'
p211
sg44
S'78'
p212
sg46
S'22'
p213
sg48
S'587'
p214
sg50
S'329'
p215
sg52
S'1019'
p216
sg54
S'321'
p217
sg56
S'1995-96'
p218
sg58
S'638'
p219
sg60
S'167'
p220
sg62
S'.576'
p221
sg64
S'2628'
p222
sg66
S'71'
p223
sba(isrc.gp1.models.Totals
Totals
p224
(dp225
g8
S'102'
p226
sg10
S'102'
p227
sg12
S'.457'
p228
sg14
S'64'
p229
sg16
S'.255'
p230
sg18
S'26'
p231
sg20
S'729'
p232
sg22
S'SF'
p233
sg24
S'.747'
p234
sg26
S'.478'
p235
sg28
S'NBA'
p236
sg30
S'33'
p237
sg32
S'617'
p238
sg34
S'113'
p239
sg36
S'186'
p240
sg38
S'330'
p241
sg40
S'27'
p242
sg42
S'TOT'
p243
sg44
S'50'
p244
sg46
S'23'
p245
sg48
S'256'
p246
sg50
S'139'
p247
sg52
S'515'
p248
sg54
S'228'
p249
sg56
S'1996-97'
p250
sg58
S'282'
p251
sg60
S'85'
p252
sg62
S'.497'
p253
sg64
S'1426'
p254
sg66
S'40'
p255
sba(isrc.gp1.models.Totals
Totals
p256
(dp257
g8
S'11'
p258
sg10
S'21'
p259
sg12
S'.410'
p260
sg14
S'15'
p261
sg16
S'.238'
p262
sg18
g47
sg20
S'86'
p263
sg22
S'SF'
p264
sg24
S'.867'
p265
sg26
S'.440'
p266
sg28
S'NBA'
p267
sg30
g47
sg32
S'83'
p268
sg34
S'19'
p269
sg36
S'15'
p270
sg38
S'53'
p271
sg40
S'27'
p272
sg42
S'LAL'
p273
sg44
S'8'
p274
sg46
g11
sg48
S'29'
p275
sg50
S'13'
p276
sg52
S'62'
p277
sg54
S'42'
p278
sg56
S'1996-97'
p279
sg58
S'34'
p280
sg60
S'17'
p281
sg62
S'.468'
p282
sg64
S'279'
p283
sg66
g274
sba(isrc.gp1.models.Totals
Totals
p284
(dp285
g8
S'91'
p286
sg10
S'81'
p287
sg12
S'.464'
p288
sg14
S'49'
p289
sg16
S'.259'
p290
sg18
S'21'
p291
sg20
S'643'
p292
sg22
S'SF'
p293
sg24
S'.737'
p294
sg26
S'.484'
p295
sg28
S'NBA'
p296
sg30
S'28'
p297
sg32
S'534'
p298
sg34
S'94'
p299
sg36
S'171'
p300
sg38
S'277'
p301
sg40
S'27'
p302
sg42
S'PHO'
p303
sg44
S'42'
p304
sg46
S'17'
p305
sg48
S'227'
p306
sg50
S'126'
p307
sg52
S'453'
p308
sg54
S'186'
p309
sg56
S'1996-97'
p310
sg58
S'248'
p311
sg60
S'68'
p312
sg62
S'.501'
p313
sg64
S'1147'
p314
sg66
S'32'
p315
sba(isrc.gp1.models.Totals
Totals
p316
(dp317
g8
S'75'
p318
sg10
S'70'
p319
sg12
S'.492'
p320
sg14
S'60'
p321
sg16
S'.300'
p322
sg18
S'21'
p323
sg20
S'536'
p324
sg22
S'SF'
p325
sg24
S'.738'
p326
sg26
S'.517'
p327
sg28
S'NBA'
p328
sg30
S'33'
p329
sg32
S'415'
p330
sg34
S'88'
p331
sg36
S'145'
p332
sg38
S'221'
p333
sg40
S'28'
p334
sg42
S'TOT'
p335
sg44
S'47'
p336
sg46
S'16'
p337
sg48
S'183'
p338
sg50
S'107'
p339
sg52
S'345'
p340
sg54
S'146'
p341
sg56
S'1997-98'
p342
sg58
S'204'
p343
sg60
S'72'
p344
sg62
S'.530'
p345
sg64
S'990'
p346
sg66
S'25'
p347
sba(isrc.gp1.models.Totals
Totals
p348
(dp349
g8
S'51'
p350
sg10
S'50'
p351
sg12
S'.500'
p352
sg14
S'35'
p353
sg16
S'.300'
p354
sg18
S'15'
p355
sg20
S'333'
p356
sg22
S'SF'
p357
sg24
S'.714'
p358
sg26
S'.529'
p359
sg28
S'NBA'
p360
sg30
S'22'
p361
sg32
S'258'
p362
sg34
S'59'
p363
sg36
S'84'
p364
sg38
S'149'
p365
sg40
S'28'
p366
sg42
S'PHO'
p367
sg44
S'35'
p368
sg46
g274
sg48
S'114'
p369
sg50
S'60'
p370
sg52
S'208'
p371
sg54
S'98'
p372
sg56
S'1997-98'
p373
sg58
S'129'
p374
sg60
S'39'
p375
sg62
S'.548'
p376
sg64
S'626'
p377
sg66
S'16'
p378
sba(isrc.gp1.models.Totals
Totals
p379
(dp380
g8
S'24'
p381
sg10
S'20'
p382
sg12
S'.478'
p383
sg14
S'25'
p384
sg16
S'.300'
p385
sg18
g11
sg20
S'203'
p386
sg22
S'SF'
p387
sg24
S'.770'
p388
sg26
S'.497'
p389
sg28
S'NBA'
p390
sg30
S'11'
p391
sg32
S'157'
p392
sg34
S'29'
p393
sg36
S'61'
p394
sg38
S'72'
p395
sg40
S'28'
p396
sg42
S'DAL'
p397
sg44
S'12'
p398
sg46
g274
sg48
S'69'
p399
sg50
S'47'
p400
sg52
S'137'
p401
sg54
S'48'
p402
sg56
S'1997-98'
p403
sg58
S'75'
p404
sg60
S'33'
p405
sg62
S'.504'
p406
sg64
S'364'
p407
sg66
g132
sba(isrc.gp1.models.Totals
Totals
p408
(dp409
g8
S'23'
p410
sg10
S'28'
p411
sg12
S'.421'
p412
sg14
S'12'
p413
sg16
S'.393'
p414
sg18
S'11'
p415
sg20
S'163'
p416
sg22
S'SF'
p417
sg24
S'.694'
p418
sg26
S'.461'
p419
sg28
S'NBA'
p420
sg30
S'7'
p421
sg32
S'140'
p422
sg34
S'23'
p423
sg36
S'49'
p424
sg38
S'85'
p425
sg40
S'29'
p426
sg42
S'DAL'
p427
sg44
S'13'
p428
sg46
g47
sg48
S'48'
p429
sg50
S'34'
p430
sg52
S'112'
p431
sg54
S'62'
p432
sg56
S'1998-99'
p433
sg58
S'59'
p434
sg60
S'28'
p435
sg62
S'.429'
p436
sg64
S'352'
p437
sg66
g47
sba(isrc.gp1.models.Totals
Totals
p438
(dp439
g8
S'172'
p440
sg10
S'134'
p441
sg12
S'.446'
p442
sg14
S'90'
p443
sg16
S'.328'
p444
sg18
S'44'
p445
sg20
S'1147'
p446
sg22
S'SF'
p447
sg24
S'.843'
p448
sg26
S'.468'
p449
sg28
S'NBA'
p450
sg30
S'56'
p451
sg32
S'1002'
p452
sg34
S'165'
p453
sg36
S'248'
p454
sg38
S'462'
p455
sg40
S'30'
p456
sg42
S'DAL'
p457
sg44
S'69'
p458
sg46
S'24'
p459
sg48
S'403'
p460
sg50
S'209'
p461
sg52
S'868'
p462
sg54
S'290'
p463
sg56
S'1999-00'
p464
sg58
S'447'
p465
sg60
S'125'
p466
sg62
S'.464'
p467
sg64
S'2064'
p468
sg66
S'25'
p469
sba(isrc.gp1.models.Totals
Totals
p470
(dp471
g8
S'34'
p472
sg10
S'73'
p473
sg12
S'.441'
p474
sg14
S'20'
p475
sg16
S'.301'
p476
sg18
S'22'
p477
sg20
S'261'
p478
sg22
S'SF'
p479
sg24
S'.860'
p480
sg26
S'.489'
p481
sg28
S'NBA'
p482
sg30
S'16'
p483
sg32
S'229'
p484
sg34
S'61'
p485
sg36
S'43'
p486
sg38
S'106'
p487
sg40
S'31'
p488
sg42
S'TOT'
p489
sg44
S'40'
p490
sg46
g421
sg48
S'79'
p491
sg50
S'37'
p492
sg52
S'156'
p493
sg54
S'72'
p494
sg56
S'2000-01'
p495
sg58
S'101'
p496
sg60
S'32'
p497
sg62
S'.506'
p498
sg64
S'559'
p499
sg66
g67
sba(isrc.gp1.models.Totals
Totals
p500
(dp501
g8
g421
sg10
S'40'
p502
sg12
S'.394'
p503
sg14
g421
sg16
S'.275'
p504
sg18
S'11'
p505
sg20
S'75'
p506
sg22
S'SF'
p507
sg24
S'.800'
p508
sg26
S'.472'
p509
sg28
S'NBA'
p510
sg30
g11
sg32
S'71'
p511
sg34
S'19'
p512
sg36
S'10'
p513
sg38
S'26'
p514
sg40
S'31'
p515
sg42
S'DET'
p516
sg44
S'13'
p517
sg46
S'3'
p518
sg48
S'17'
p519
sg50
g274
sg52
S'31'
p520
sg54
S'19'
p521
sg56
S'2000-01'
p522
sg58
S'28'
p523
sg60
g132
sg62
S'.548'
p524
sg64
S'166'
p525
sg66
g67
sba(isrc.gp1.models.Totals
Totals
p526
(dp527
g8
S'27'
p528
sg10
S'33'
p529
sg12
S'.462'
p530
sg14
S'13'
p531
sg16
S'.333'
p532
sg18
S'11'
p533
sg20
S'186'
p534
sg22
S'SF'
p535
sg24
S'.879'
p536
sg26
S'.497'
p537
sg28
S'NBA'
p538
sg30
S'10'
p539
sg32
S'158'
p540
sg34
S'42'
p541
sg36
S'33'
p542
sg38
S'80'
p543
sg40
S'31'
p544
sg42
S'MIA'
p545
sg44
S'27'
p546
sg46
g97
sg48
S'62'
p547
sg50
S'29'
p548
sg52
S'125'
p549
sg54
S'53'
p550
sg56
S'2000-01'
p551
sg58
S'73'
p552
sg60
S'23'
p553
sg62
S'.496'
p554
sg64
S'393'
p555
sg66
g67
sbasS'_college'
p556
S'California State University, Fullerton'
p557
sS'_toYear'
p558
S'2001'
p559
sS'_height'
p560
S'6-6'
p561
sS'_active'
p562
I00
sS'_shootingHand'
p563
VRight
p564
sS'_name'
p565
S'Cedric Ceballos'
p566
sS'_per100Possessions'
p567
(lp568
(isrc.gp1.models.Per100Possession
Per100Possession
p569
(dp570
g8
S'5.0'
p571
sg10
S'0.4'
p572
sg12
S'.487'
p573
sS'_offensiveRating'
p574
S'104'
p575
sg14
S'2.3'
p576
sg16
S'.167'
p577
sg18
S'0.1'
p578
sg20
S'33.8'
p579
sg22
S'SF'
p580
sS'_defensiveRating'
p581
S'109'
p582
sg24
S'.663'
p583
sg28
S'NBA'
p584
sg30
S'1.4'
p585
sg32
S'27.3'
p586
sg34
S'4.6'
p587
sg36
S'10.8'
p588
sg38
S'9.8'
p589
sg40
S'21'
p590
sg42
S'PHO'
p591
sg44
S'63'
p592
sg46
S'0.3'
p593
sg48
S'13.2'
p594
sg50
S'7.2'
p595
sg52
S'26.9'
p596
sg54
S'4.8'
p597
sg56
S'1990-91'
p598
sg58
S'13.3'
p599
sg60
S'4.5'
p600
sg62
S'.492'
p601
sg64
S'730'
p602
sg66
g67
sba(isrc.gp1.models.Per100Possession
Per100Possession
p603
(dp604
g8
S'4.0'
p605
sg10
S'0.4'
p606
sg12
S'.482'
p607
sg574
S'104'
p608
sg14
S'3.3'
p609
sg16
S'.167'
p610
sg18
S'0.1'
p611
sg20
S'30.8'
p612
sg22
S'SF'
p613
sg581
S'108'
p614
sg24
S'.736'
p615
sg28
S'NBA'
p616
sg30
S'1.1'
p617
sg32
S'24.3'
p618
sg34
S'3.5'
p619
sg36
S'9.9'
p620
sg38
S'10.1'
p621
sg40
S'22'
p622
sg42
S'PHO'
p623
sg44
S'64'
p624
sg46
S'0.7'
p625
sg48
S'11.7'
p626
sg50
S'7.3'
p627
sg52
S'23.9'
p628
sg54
S'6.1'
p629
sg56
S'1991-92'
p630
sg58
S'11.7'
p631
sg60
S'4.7'
p632
sg62
S'.487'
p633
sg64
S'725'
p634
sg66
g97
sba(isrc.gp1.models.Per100Possession
Per100Possession
p635
(dp636
g8
S'5.1'
p637
sg10
S'0.1'
p638
sg12
S'.576'
p639
sg574
S'120'
p640
sg14
S'2.3'
p641
sg16
S'.000'
p642
sg18
S'0.0'
p643
sg20
S'28.4'
p644
sg22
S'SF'
p645
sg581
S'107'
p646
sg24
S'.725'
p647
sg28
S'NBA'
p648
sg30
S'1.6'
p649
sg32
S'19.8'
p650
sg34
S'3.1'
p651
sg36
S'7.7'
p652
sg38
S'12.2'
p653
sg40
S'23'
p654
sg42
S'PHO'
p655
sg44
S'74'
p656
sg46
S'0.8'
p657
sg48
S'11.4'
p658
sg50
S'5.6'
p659
sg52
S'19.8'
p660
sg54
S'7.1'
p661
sg56
S'1992-93'
p662
sg58
S'11.4'
p663
sg60
S'3.2'
p664
sg62
S'.577'
p665
sg64
S'1607'
p666
sg66
S'46'
p667
sba(isrc.gp1.models.Per100Possession
Per100Possession
p668
(dp669
g8
S'4.7'
p670
sg10
S'0.3'
p671
sg12
S'.535'
p672
sg574
S'115'
p673
sg14
S'2.8'
p674
sg16
S'.000'
p675
sg18
S'0.0'
p676
sg20
S'31.3'
p677
sg22
S'SF'
p678
sg581
S'108'
p679
sg24
S'.724'
p680
sg28
S'NBA'
p681
sg30
S'1.8'
p682
sg32
S'24.6'
p683
sg34
S'3.8'
p684
sg36
S'6.8'
p685
sg38
S'10.7'
p686
sg40
S'24'
p687
sg42
S'PHO'
p688
sg44
S'53'
p689
sg46
S'0.7'
p690
sg48
S'13.2'
p691
sg50
S'5.0'
p692
sg52
S'24.3'
p693
sg54
S'5.9'
p694
sg56
S'1993-94'
p695
sg58
S'13.2'
p696
sg60
S'2.9'
p697
sg62
S'.541'
p698
sg64
S'1602'
p699
sg66
S'43'
p700
sba(isrc.gp1.models.Per100Possession
Per100Possession
p701
(dp702
g8
S'4.2'
p703
sg10
S'3.6'
p704
sg12
S'.509'
p705
sg574
S'111'
p706
sg14
S'2.6'
p707
sg16
S'.397'
p708
sg18
S'1.4'
p709
sg20
S'31.3'
p710
sg22
S'SF'
p711
sg581
S'110'
p712
sg24
S'.716'
p713
sg28
S'NBA'
p714
sg30
S'1.5'
p715
sg32
S'24.3'
p716
sg34
S'3.3'
p717
sg36
S'7.3'
p718
sg38
S'11.5'
p719
sg40
S'25'
p720
sg42
S'LAL'
p721
sg44
S'58'
p722
sg46
S'0.5'
p723
sg48
S'10.9'
p724
sg50
S'5.2'
p725
sg52
S'20.7'
p726
sg54
S'7.3'
p727
sg56
S'1994-95'
p728
sg58
S'12.4'
p729
sg60
S'3.6'
p730
sg62
S'.528'
p731
sg64
S'2029'
p732
sg66
S'54'
p733
sba(isrc.gp1.models.Per100Possession
Per100Possession
p734
(dp735
g8
S'4.3'
p736
sg10
S'3.6'
p737
sg12
S'.530'
p738
sg574
S'117'
p739
sg14
S'2.4'
p740
sg16
S'.277'
p741
sg18
S'1.0'
p742
sg20
S'32.7'
p743
sg22
S'SF'
p744
sg581
S'107'
p745
sg24
S'.804'
p746
sg28
S'NBA'
p747
sg30
S'1.9'
p748
sg32
S'23.8'
p749
sg34
S'2.8'
p750
sg36
S'8.1'
p751
sg38
S'10.6'
p752
sg40
S'26'
p753
sg42
S'LAL'
p754
sg44
S'78'
p755
sg46
S'0.4'
p756
sg48
S'11.6'
p757
sg50
S'6.5'
p758
sg52
S'20.1'
p759
sg54
S'6.3'
p760
sg56
S'1995-96'
p761
sg58
S'12.6'
p762
sg60
S'3.3'
p763
sg62
S'.576'
p764
sg64
S'2628'
p765
sg66
S'71'
p766
sba(isrc.gp1.models.Per100Possession
Per100Possession
p767
(dp768
g8
S'3.7'
p769
sg10
S'3.7'
p770
sg12
S'.457'
p771
sg574
S'104'
p772
sg14
S'2.3'
p773
sg16
S'.255'
p774
sg18
S'0.9'
p775
sg20
S'26.4'
p776
sg22
S'SF'
p777
sg581
S'108'
p778
sg24
S'.747'
p779
sg28
S'NBA'
p780
sg30
S'1.2'
p781
sg32
S'22.4'
p782
sg34
S'4.1'
p783
sg36
S'6.7'
p784
sg38
S'12.0'
p785
sg40
S'27'
p786
sg42
S'TOT'
p787
sg44
S'50'
p788
sg46
S'0.8'
p789
sg48
S'9.3'
p790
sg50
S'5.0'
p791
sg52
S'18.7'
p792
sg54
S'8.3'
p793
sg56
S'1996-97'
p794
sg58
S'10.2'
p795
sg60
S'3.1'
p796
sg62
S'.497'
p797
sg64
S'1426'
p798
sg66
S'40'
p799
sba(isrc.gp1.models.Per100Possession
Per100Possession
p800
(dp801
g8
S'2.1'
p802
sg10
S'4.0'
p803
sg12
S'.410'
p804
sg574
S'95'
p805
sg14
S'2.8'
p806
sg16
S'.238'
p807
sg18
S'0.9'
p808
sg20
S'16.2'
p809
sg22
S'SF'
p810
sg581
S'105'
p811
sg24
S'.867'
p812
sg28
S'NBA'
p813
sg30
S'0.9'
p814
sg32
S'15.7'
p815
sg34
S'3.6'
p816
sg36
S'2.8'
p817
sg38
S'10.0'
p818
sg40
S'27'
p819
sg42
S'LAL'
p820
sg44
g274
sg46
S'1.1'
p821
sg48
S'5.5'
p822
sg50
S'2.5'
p823
sg52
S'11.7'
p824
sg54
S'7.9'
p825
sg56
S'1996-97'
p826
sg58
S'6.4'
p827
sg60
S'3.2'
p828
sg62
S'.468'
p829
sg64
S'279'
p830
sg66
g274
sba(isrc.gp1.models.Per100Possession
Per100Possession
p831
(dp832
g8
S'4.1'
p833
sg10
S'3.6'
p834
sg12
S'.464'
p835
sg574
S'105'
p836
sg14
S'2.2'
p837
sg16
S'.259'
p838
sg18
S'0.9'
p839
sg20
S'28.9'
p840
sg22
S'SF'
p841
sg581
S'108'
p842
sg24
S'.737'
p843
sg28
S'NBA'
p844
sg30
S'1.3'
p845
sg32
S'24.0'
p846
sg34
S'4.2'
p847
sg36
S'7.7'
p848
sg38
S'12.4'
p849
sg40
S'27'
p850
sg42
S'PHO'
p851
sg44
S'42'
p852
sg46
S'0.8'
p853
sg48
S'10.2'
p854
sg50
S'5.7'
p855
sg52
S'20.3'
p856
sg54
S'8.4'
p857
sg56
S'1996-97'
p858
sg58
S'11.1'
p859
sg60
S'3.1'
p860
sg62
S'.501'
p861
sg64
S'1147'
p862
sg66
S'32'
p863
sba(isrc.gp1.models.Per100Possession
Per100Possession
p864
(dp865
g8
S'4.0'
p866
sg10
S'3.7'
p867
sg12
S'.492'
p868
sg574
S'107'
p869
sg14
S'3.2'
p870
sg16
S'.300'
p871
sg18
S'1.1'
p872
sg20
S'28.6'
p873
sg22
S'SF'
p874
sg581
S'103'
p875
sg24
S'.738'
p876
sg28
S'NBA'
p877
sg30
S'1.8'
p878
sg32
S'22.1'
p879
sg34
S'4.7'
p880
sg36
S'7.7'
p881
sg38
S'11.8'
p882
sg40
S'28'
p883
sg42
S'TOT'
p884
sg44
S'47'
p885
sg46
S'0.9'
p886
sg48
S'9.8'
p887
sg50
S'5.7'
p888
sg52
S'18.4'
p889
sg54
S'7.8'
p890
sg56
S'1997-98'
p891
sg58
S'10.9'
p892
sg60
S'3.8'
p893
sg62
S'.530'
p894
sg64
S'990'
p895
sg66
S'25'
p896
sba(isrc.gp1.models.Per100Possession
Per100Possession
p897
(dp898
g8
S'4.3'
p899
sg10
S'4.2'
p900
sg12
S'.500'
p901
sg574
S'110'
p902
sg14
S'2.9'
p903
sg16
S'.300'
p904
sg18
S'1.3'
p905
sg20
S'27.9'
p906
sg22
S'SF'
p907
sg581
S'101'
p908
sg24
S'.714'
p909
sg28
S'NBA'
p910
sg30
S'1.8'
p911
sg32
S'21.6'
p912
sg34
S'4.9'
p913
sg36
S'7.0'
p914
sg38
S'12.5'
p915
sg40
S'28'
p916
sg42
S'PHO'
p917
sg44
S'35'
p918
sg46
S'0.7'
p919
sg48
S'9.6'
p920
sg50
S'5.0'
p921
sg52
S'17.4'
p922
sg54
S'8.2'
p923
sg56
S'1997-98'
p924
sg58
S'10.8'
p925
sg60
S'3.3'
p926
sg62
S'.548'
p927
sg64
S'626'
p928
sg66
S'16'
p929
sba(isrc.gp1.models.Per100Possession
Per100Possession
p930
(dp931
g8
S'3.5'
p932
sg10
S'2.9'
p933
sg12
S'.478'
p934
sg574
S'104'
p935
sg14
S'3.7'
p936
sg16
S'.300'
p937
sg18
S'0.9'
p938
sg20
S'29.8'
p939
sg22
S'SF'
p940
sg581
S'107'
p941
sg24
S'.770'
p942
sg28
S'NBA'
p943
sg30
S'1.6'
p944
sg32
S'23.0'
p945
sg34
S'4.3'
p946
sg36
S'8.9'
p947
sg38
S'10.6'
p948
sg40
S'28'
p949
sg42
S'DAL'
p950
sg44
S'12'
p951
sg46
S'1.2'
p952
sg48
S'10.1'
p953
sg50
S'6.9'
p954
sg52
S'20.1'
p955
sg54
S'7.0'
p956
sg56
S'1997-98'
p957
sg58
S'11.0'
p958
sg60
S'4.8'
p959
sg62
S'.504'
p960
sg64
S'364'
p961
sg66
g132
sba(isrc.gp1.models.Per100Possession
Per100Possession
p962
(dp963
g8
S'3.5'
p964
sg10
S'4.3'
p965
sg12
S'.421'
p966
sg574
S'97'
p967
sg14
S'1.8'
p968
sg16
S'.393'
p969
sg18
S'1.7'
p970
sg20
S'25.0'
p971
sg22
S'SF'
p972
sg581
S'104'
p973
sg24
S'.694'
p974
sg28
S'NBA'
p975
sg30
S'1.1'
p976
sg32
S'21.4'
p977
sg34
S'3.5'
p978
sg36
S'7.5'
p979
sg38
S'13.0'
p980
sg40
S'29'
p981
sg42
S'DAL'
p982
sg44
S'13'
p983
sg46
S'0.8'
p984
sg48
S'7.4'
p985
sg50
S'5.2'
p986
sg52
S'17.2'
p987
sg54
S'9.5'
p988
sg56
S'1998-99'
p989
sg58
S'9.0'
p990
sg60
S'4.3'
p991
sg62
S'.429'
p992
sg64
S'352'
p993
sg66
g47
sba(isrc.gp1.models.Per100Possession
Per100Possession
p994
(dp995
g8
S'4.2'
p996
sg10
S'3.3'
p997
sg12
S'.446'
p998
sg574
S'104'
p999
sg14
S'2.2'
p1000
sg16
S'.328'
p1001
sg18
S'1.1'
p1002
sg20
S'28.1'
p1003
sg22
S'SF'
p1004
sg581
S'107'
p1005
sg24
S'.843'
p1006
sg28
S'NBA'
p1007
sg30
S'1.4'
p1008
sg32
S'24.5'
p1009
sg34
S'4.0'
p1010
sg36
S'6.1'
p1011
sg38
S'11.3'
p1012
sg40
S'30'
p1013
sg42
S'DAL'
p1014
sg44
S'69'
p1015
sg46
S'0.6'
p1016
sg48
S'9.9'
p1017
sg50
S'5.1'
p1018
sg52
S'21.3'
p1019
sg54
S'7.1'
p1020
sg56
S'1999-00'
p1021
sg58
S'11.0'
p1022
sg60
S'3.1'
p1023
sg62
S'.464'
p1024
sg64
S'2064'
p1025
sg66
S'25'
p1026
sba(isrc.gp1.models.Per100Possession
Per100Possession
p1027
(dp1028
g8
S'3.3'
p1029
sg10
S'7.0'
p1030
sg12
S'.441'
p1031
sg574
S'102'
p1032
sg14
S'1.9'
p1033
sg16
S'.301'
p1034
sg18
S'2.1'
p1035
sg20
S'25.1'
p1036
sg22
S'SF'
p1037
sg581
S'100'
p1038
sg24
S'.860'
p1039
sg28
S'NBA'
p1040
sg30
S'1.5'
p1041
sg32
S'22.0'
p1042
sg34
S'5.9'
p1043
sg36
S'4.1'
p1044
sg38
S'10.2'
p1045
sg40
S'31'
p1046
sg42
S'TOT'
p1047
sg44
S'40'
p1048
sg46
S'0.7'
p1049
sg48
S'7.6'
p1050
sg50
S'3.6'
p1051
sg52
S'15.0'
p1052
sg54
S'6.9'
p1053
sg56
S'2000-01'
p1054
sg58
S'9.7'
p1055
sg60
S'3.1'
p1056
sg62
S'.506'
p1057
sg64
S'559'
p1058
sg66
g67
sba(isrc.gp1.models.Per100Possession
Per100Possession
p1059
(dp1060
g8
S'2.1'
p1061
sg10
S'12.2'
p1062
sg12
S'.394'
p1063
sg574
S'99'
p1064
sg14
S'2.1'
p1065
sg16
S'.275'
p1066
sg18
S'3.4'
p1067
sg20
S'22.9'
p1068
sg22
S'SF'
p1069
sg581
S'102'
p1070
sg24
S'.800'
p1071
sg28
S'NBA'
p1072
sg30
S'1.8'
p1073
sg32
S'21.7'
p1074
sg34
S'5.8'
p1075
sg36
S'3.1'
p1076
sg38
S'7.9'
p1077
sg40
S'31'
p1078
sg42
S'DET'
p1079
sg44
S'13'
p1080
sg46
S'0.9'
p1081
sg48
S'5.2'
p1082
sg50
S'2.4'
p1083
sg52
S'9.5'
p1084
sg54
S'5.8'
p1085
sg56
S'2000-01'
p1086
sg58
S'8.5'
p1087
sg60
S'2.7'
p1088
sg62
S'.548'
p1089
sg64
S'166'
p1090
sg66
g67
sba(isrc.gp1.models.Per100Possession
Per100Possession
p1091
(dp1092
g8
S'3.8'
p1093
sg10
S'4.6'
p1094
sg12
S'.462'
p1095
sg574
S'103'
p1096
sg14
S'1.8'
p1097
sg16
S'.333'
p1098
sg18
S'1.5'
p1099
sg20
S'26.1'
p1100
sg22
S'SF'
p1101
sg581
S'99'
p1102
sg24
S'.879'
p1103
sg28
S'NBA'
p1104
sg30
S'1.4'
p1105
sg32
S'22.2'
p1106
sg34
S'5.9'
p1107
sg36
S'4.6'
p1108
sg38
S'11.2'
p1109
sg40
S'31'
p1110
sg42
S'MIA'
p1111
sg44
S'27'
p1112
sg46
S'0.6'
p1113
sg48
S'8.7'
p1114
sg50
S'4.1'
p1115
sg52
S'17.5'
p1116
sg54
S'7.4'
p1117
sg56
S'2000-01'
p1118
sg58
S'10.2'
p1119
sg60
S'3.2'
p1120
sg62
S'.496'
p1121
sg64
S'393'
p1122
sg66
g67
sbasS'_advanced'
p1123
(lp1124
(isrc.gp1.models.Advanced
Advanced
p1125
(dp1126
S'_offensiveReboundPercentage'
p1127
S'12.1'
p1128
sS'_turnOverPercentage'
p1129
S'12.3'
p1130
sS'_winSharesPer48Minutes'
p1131
S'.085'
p1132
sS'_stealPercentage'
p1133
S'1.4'
p1134
sS'_usagePercentage'
p1135
S'31.3'
p1136
sS'_totalReboundsPercentage'
p1137
S'11.2'
p1138
sS'_defensiveBoxPlusMinus'
p1139
S'-3.5'
p1140
sg22
S'SF'
p1141
sS'_valueOverReplacementPlayer'
p1142
S'-0.4'
p1143
sS'_trueShootingPercentage'
p1144
S'.527'
p1145
sS'_defensiveReboundPercentage'
p1146
S'10.4'
p1147
sS'_freeThrowsAttempRate'
p1148
S'.396'
p1149
sS'_threePointsAttempRate'
p1150
S'.014'
p1151
sg28
S'NBA'
p1152
sS'_offensiveBoxPlusMinues'
p1153
S'-0.5'
p1154
sS'_assistPercentage'
p1155
S'7.7'
p1156
sS'_defensiveWinShares'
p1157
S'0.7'
p1158
sg40
S'21'
p1159
sg42
S'PHO'
p1160
sg44
S'63'
p1161
sS'_blockPercentage'
p1162
S'0.4'
p1163
sS'_playerEfficiencyRating'
p1164
S'17.8'
p1165
sS'_offensiveWinShares'
p1166
S'0.6'
p1167
sg64
S'730'
p1168
sS'_boxPlusMinus'
p1169
S'-4.0'
p1170
sg56
S'1990-91'
p1171
sS'_winShares'
p1172
S'1.3'
p1173
sba(isrc.gp1.models.Advanced
Advanced
p1174
(dp1175
g1127
S'9.5'
p1176
sg1129
S'14.2'
p1177
sg1131
S'.085'
p1178
sg1133
S'1.1'
p1179
sg1135
S'28.8'
p1180
sg1137
S'11.5'
p1181
sg1139
S'-2.4'
p1182
sg22
S'SF'
p1183
sg1142
S'-0.3'
p1184
sg1144
S'.537'
p1185
sg1146
S'13.3'
p1186
sg1148
S'.405'
p1187
sg1150
S'.016'
p1188
sg28
S'NBA'
p1189
sg1153
S'-1.3'
p1190
sg1155
S'10.5'
p1191
sg1157
S'0.7'
p1192
sg40
S'22'
p1193
sg42
S'PHO'
p1194
sg44
S'64'
p1195
sg1162
S'0.9'
p1196
sg1164
S'16.9'
p1197
sg1166
S'0.5'
p1198
sg64
S'725'
p1199
sg1169
S'-3.7'
p1200
sg56
S'1991-92'
p1201
sg1172
S'1.3'
p1202
sba(isrc.gp1.models.Advanced
Advanced
p1203
(dp1204
g1127
S'12.2'
p1205
sg1129
S'12.0'
p1206
sg1131
S'.186'
p1207
sg1133
S'1.6'
p1208
sg1135
S'22.6'
p1209
sg1137
S'14.1'
p1210
sg1139
S'-0.9'
p1211
sg22
S'SF'
p1212
sg1142
S'1.4'
p1213
sg1144
S'.612'
p1214
sg1146
S'16.0'
p1215
sg1148
S'.390'
p1216
sg1150
S'.003'
p1217
sg28
S'NBA'
p1218
sg1153
S'2.3'
p1219
sg1155
S'7.4'
p1220
sg1157
S'1.9'
p1221
sg40
S'23'
p1222
sg42
S'PHO'
p1223
sg44
S'74'
p1224
sg1162
S'1.0'
p1225
sg1164
S'21.0'
p1226
sg1166
S'4.3'
p1227
sg64
S'1607'
p1228
sg1169
S'1.3'
p1229
sg56
S'1992-93'
p1230
sg1172
S'6.2'
p1231
sba(isrc.gp1.models.Advanced
Advanced
p1232
(dp1233
g1127
S'10.9'
p1234
sg1129
S'9.4'
p1235
sg1131
S'.166'
p1236
sg1133
S'1.8'
p1237
sg1135
S'25.8'
p1238
sg1137
S'12.1'
p1239
sg1139
S'-1.4'
p1240
sg22
S'SF'
p1241
sg1142
S'1.4'
p1242
sg1144
S'.566'
p1243
sg1146
S'13.3'
p1244
sg1148
S'.278'
p1245
sg1150
S'.011'
p1246
sg28
S'NBA'
p1247
sg1153
S'2.7'
p1248
sg1155
S'9.4'
p1249
sg1157
S'1.4'
p1250
sg40
S'24'
p1251
sg42
S'PHO'
p1252
sg44
S'53'
p1253
sg1162
S'0.9'
p1254
sg1164
S'20.9'
p1255
sg1166
S'4.1'
p1256
sg64
S'1602'
p1257
sg1169
S'1.4'
p1258
sg56
S'1993-94'
p1259
sg1172
S'5.5'
p1260
sba(isrc.gp1.models.Advanced
Advanced
p1261
(dp1262
g1127
S'9.2'
p1263
sg1129
S'11.5'
p1264
sg1131
S'.123'
p1265
sg1133
S'1.5'
p1266
sg1135
S'26.5'
p1267
sg1137
S'12.6'
p1268
sg1139
S'-1.9'
p1269
sg22
S'SF'
p1270
sg1142
S'1.0'
p1271
sg1144
S'.570'
p1272
sg1146
S'16.1'
p1273
sg1148
S'.299'
p1274
sg1150
S'.149'
p1275
sg28
S'NBA'
p1276
sg1153
S'1.9'
p1277
sg1155
S'8.9'
p1278
sg1157
S'1.7'
p1279
sg40
S'25'
p1280
sg42
S'LAL'
p1281
sg44
S'58'
p1282
sg1162
S'0.6'
p1283
sg1164
S'19.9'
p1284
sg1166
S'3.5'
p1285
sg64
S'2029'
p1286
sg1169
S'0.0'
p1287
sg56
S'1994-95'
p1288
sg1172
S'5.2'
p1289
sba(isrc.gp1.models.Advanced
Advanced
p1290
(dp1291
g1127
S'9.7'
p1292
sg1129
S'10.8'
p1293
sg1131
S'.180'
p1294
sg1133
S'1.9'
p1295
sg1135
S'26.5'
p1296
sg1137
S'11.9'
p1297
sg1139
S'-1.5'
p1298
sg22
S'SF'
p1299
sg1142
S'2.7'
p1300
sg1144
S'.599'
p1301
sg1146
S'13.9'
p1302
sg1148
S'.340'
p1303
sg1150
S'.153'
p1304
sg28
S'NBA'
p1305
sg1153
S'3.5'
p1306
sg1155
S'7.9'
p1307
sg1157
S'2.8'
p1308
sg40
S'26'
p1309
sg42
S'LAL'
p1310
sg44
S'78'
p1311
sg1162
S'0.6'
p1312
sg1164
S'22.1'
p1313
sg1166
S'7.1'
p1314
sg64
S'2628'
p1315
sg1169
S'2.1'
p1316
sg56
S'1995-96'
p1317
sg1172
S'9.8'
p1318
sba(isrc.gp1.models.Advanced
Advanced
p1319
(dp1320
g1127
S'8.4'
p1321
sg1129
S'10.8'
p1322
sg1131
S'.082'
p1323
sg1133
S'1.2'
p1324
sg1135
S'24.7'
p1325
sg1137
S'13.5'
p1326
sg1139
S'-1.5'
p1327
sg22
S'SF'
p1328
sg1142
S'-0.2'
p1329
sg1144
S'.522'
p1330
sg1146
S'18.5'
p1331
sg1148
S'.301'
p1332
sg1150
S'.165'
p1333
sg28
S'NBA'
p1334
sg1153
S'-1.0'
p1335
sg1155
S'7.6'
p1336
sg1157
S'1.3'
p1337
sg40
S'27'
p1338
sg42
S'TOT'
p1339
sg44
S'50'
p1340
sg1162
S'1.2'
p1341
sg1164
S'16.2'
p1342
sg1166
S'1.1'
p1343
sg64
S'1426'
p1344
sg1169
S'-2.5'
p1345
sg56
S'1996-97'
p1346
sg1172
S'2.4'
p1347
sba(isrc.gp1.models.Advanced
Advanced
p1348
(dp1349
g1127
S'4.5'
p1350
sg1129
S'15.9'
p1351
sg1131
S'.041'
p1352
sg1133
S'0.9'
p1353
sg1135
S'17.1'
p1354
sg1137
S'10.8'
p1355
sg1139
S'0.2'
p1356
sg22
S'SF'
p1357
sg1142
S'-0.1'
p1358
sg1144
S'.480'
p1359
sg1146
S'17.0'
p1360
sg1148
S'.181'
p1361
sg1150
S'.253'
p1362
sg28
S'NBA'
p1363
sg1153
S'-3.5'
p1364
sg1155
S'8.5'
p1365
sg1157
S'0.3'
p1366
sg40
S'27'
p1367
sg42
S'LAL'
p1368
sg44
g274
sg1162
S'1.6'
p1369
sg1164
S'9.7'
p1370
sg1166
S'-0.1'
p1371
sg64
S'279'
p1372
sg1169
S'-3.3'
p1373
sg56
S'1996-97'
p1374
sg1172
S'0.2'
p1375
sba(isrc.gp1.models.Advanced
Advanced
p1376
(dp1377
g1127
S'9.3'
p1378
sg1129
S'10.0'
p1379
sg1131
S'.092'
p1380
sg1133
S'1.3'
p1381
sg1135
S'26.6'
p1382
sg1137
S'14.1'
p1383
sg1139
S'-1.9'
p1384
sg22
S'SF'
p1385
sg1142
S'-0.1'
p1386
sg1144
S'.528'
p1387
sg1146
S'18.8'
p1388
sg1148
S'.320'
p1389
sg1150
S'.152'
p1390
sg28
S'NBA'
p1391
sg1153
S'-0.4'
p1392
sg1155
S'7.4'
p1393
sg1157
S'1.0'
p1394
sg40
S'27'
p1395
sg42
S'PHO'
p1396
sg44
S'42'
p1397
sg1162
S'1.1'
p1398
sg1164
S'17.7'
p1399
sg1166
S'1.2'
p1400
sg64
S'1147'
p1401
sg1169
S'-2.3'
p1402
sg56
S'1996-97'
p1403
sg1172
S'2.2'
p1404
sba(isrc.gp1.models.Advanced
Advanced
p1405
(dp1406
g1127
S'8.8'
p1407
sg1129
S'13.1'
p1408
sg1131
S'.138'
p1409
sg1133
S'1.8'
p1410
sg1135
S'25.3'
p1411
sg1137
S'12.8'
p1412
sg1139
S'-1.0'
p1413
sg22
S'SF'
p1414
sg1142
S'0.5'
p1415
sg1144
S'.560'
p1416
sg1146
S'16.8'
p1417
sg1148
S'.349'
p1418
sg1150
S'.169'
p1419
sg28
S'NBA'
p1420
sg1153
S'1.0'
p1421
sg1155
S'11.0'
p1422
sg1157
S'1.2'
p1423
sg40
S'28'
p1424
sg42
S'TOT'
p1425
sg44
S'47'
p1426
sg1162
S'1.1'
p1427
sg1164
S'19.3'
p1428
sg1166
S'1.6'
p1429
sg64
S'990'
p1430
sg1169
S'0.0'
p1431
sg56
S'1997-98'
p1432
sg1172
S'2.8'
p1433
sba(isrc.gp1.models.Advanced
Advanced
p1434
(dp1435
g1127
S'9.8'
p1436
sg1129
S'11.7'
p1437
sg1131
S'.163'
p1438
sg1133
S'1.8'
p1439
sg1135
S'24.2'
p1440
sg1137
S'13.9'
p1441
sg1139
S'-0.8'
p1442
sg22
S'SF'
p1443
sg1142
S'0.4'
p1444
sg1144
S'.564'
p1445
sg1146
S'17.8'
p1446
sg1148
S'.326'
p1447
sg1150
S'.194'
p1448
sg28
S'NBA'
p1449
sg1153
S'1.3'
p1450
sg1155
S'9.6'
p1451
sg1157
S'0.9'
p1452
sg40
S'28'
p1453
sg42
S'PHO'
p1454
sg44
S'35'
p1455
sg1162
S'0.9'
p1456
sg1164
S'19.2'
p1457
sg1166
S'1.2'
p1458
sg64
S'626'
p1459
sg1169
S'0.5'
p1460
sg56
S'1997-98'
p1461
sg1172
S'2.1'
p1462
sba(isrc.gp1.models.Advanced
Advanced
p1463
(dp1464
g1127
S'7.2'
p1465
sg1129
S'15.2'
p1466
sg1131
S'.094'
p1467
sg1133
S'1.6'
p1468
sg1135
S'27.3'
p1469
sg1137
S'11.0'
p1470
sg1139
S'-1.4'
p1471
sg22
S'SF'
p1472
sg1142
S'0.1'
p1473
sg1144
S'.552'
p1474
sg1146
S'15.0'
p1475
sg1148
S'.389'
p1476
sg1150
S'.127'
p1477
sg28
S'NBA'
p1478
sg1153
S'0.4'
p1479
sg1155
S'13.3'
p1480
sg1157
S'0.3'
p1481
sg40
S'28'
p1482
sg42
S'DAL'
p1483
sg44
S'12'
p1484
sg1162
S'1.5'
p1485
sg1164
S'19.4'
p1486
sg1166
S'0.4'
p1487
sg64
S'364'
p1488
sg1169
S'-1.0'
p1489
sg56
S'1997-98'
p1490
sg1172
S'0.7'
p1491
sba(isrc.gp1.models.Advanced
Advanced
p1492
(dp1493
g1127
S'7.3'
p1494
sg1129
S'14.8'
p1495
sg1131
S'.055'
p1496
sg1133
S'1.1'
p1497
sg1135
S'24.7'
p1498
sg1137
S'13.6'
p1499
sg1139
S'-2.4'
p1500
sg22
S'SF'
p1501
sg1142
S'-0.2'
p1502
sg1144
S'.504'
p1503
sg1146
S'19.9'
p1504
sg1148
S'.350'
p1505
sg1150
S'.200'
p1506
sg28
S'NBA'
p1507
sg1153
S'-1.5'
p1508
sg1155
S'6.1'
p1509
sg1157
S'0.3'
p1510
sg40
S'29'
p1511
sg42
S'DAL'
p1512
sg44
S'13'
p1513
sg1162
S'1.0'
p1514
sg1164
S'15.4'
p1515
sg1166
S'0.1'
p1516
sg64
S'352'
p1517
sg1169
S'-3.9'
p1518
sg56
S'1998-99'
p1519
sg1172
S'0.4'
p1520
sba(isrc.gp1.models.Advanced
Advanced
p1521
(dp1522
g1127
S'9.0'
p1523
sg1129
S'10.1'
p1524
sg1131
S'.094'
p1525
sg1133
S'1.4'
p1526
sg1135
S'26.4'
p1527
sg1137
S'12.0'
p1528
sg1139
S'-2.3'
p1529
sg22
S'SF'
p1530
sg1142
S'0.1'
p1531
sg1144
S'.516'
p1532
sg1146
S'15.0'
p1533
sg1148
S'.248'
p1534
sg1150
S'.134'
p1535
sg28
S'NBA'
p1536
sg1153
S'0.5'
p1537
sg1155
S'7.4'
p1538
sg1157
S'1.3'
p1539
sg40
S'30'
p1540
sg42
S'DAL'
p1541
sg44
S'69'
p1542
sg1162
S'0.8'
p1543
sg1164
S'18.1'
p1544
sg1166
S'2.7'
p1545
sg64
S'2064'
p1546
sg1169
S'-1.8'
p1547
sg56
S'1999-00'
p1548
sg1172
S'4.0'
p1549
sba(isrc.gp1.models.Advanced
Advanced
p1550
(dp1551
g1127
S'7.1'
p1552
sg1129
S'11.4'
p1553
sg1131
S'.114'
p1554
sg1133
S'1.5'
p1555
sg1135
S'23.5'
p1556
sg1137
S'11.0'
p1557
sg1139
S'-1.5'
p1558
sg22
S'SF'
p1559
sg1142
S'0.0'
p1560
sg1144
S'.526'
p1561
sg1146
S'15.0'
p1562
sg1148
S'.188'
p1563
sg1150
S'.319'
p1564
sg28
S'NBA'
p1565
sg1153
S'-0.7'
p1566
sg1155
S'6.9'
p1567
sg1157
S'0.8'
p1568
sg40
S'31'
p1569
sg42
S'TOT'
p1570
sg44
S'40'
p1571
sg1162
S'0.9'
p1572
sg1164
S'15.4'
p1573
sg1166
S'0.5'
p1574
sg64
S'559'
p1575
sg1169
S'-2.2'
p1576
sg56
S'2000-01'
p1577
sg1172
S'1.3'
p1578
sba(isrc.gp1.models.Advanced
Advanced
p1579
(dp1580
g1127
S'4.4'
p1581
sg1129
S'10.7'
p1582
sg1131
S'.081'
p1583
sg1133
S'1.8'
p1584
sg1135
S'22.0'
p1585
sg1137
S'8.4'
p1586
sg1139
S'-1.7'
p1587
sg22
S'SF'
p1588
sg1142
S'0.0'
p1589
sg1144
S'.497'
p1590
sg1146
S'12.5'
p1591
sg1148
S'.141'
p1592
sg1150
S'.563'
p1593
sg28
S'NBA'
p1594
sg1153
S'0.0'
p1595
sg1155
S'7.4'
p1596
sg1157
S'0.2'
p1597
sg40
S'31'
p1598
sg42
S'DET'
p1599
sg44
S'13'
p1600
sg1162
S'1.3'
p1601
sg1164
S'13.0'
p1602
sg1166
S'0.1'
p1603
sg64
S'166'
p1604
sg1169
S'-1.7'
p1605
sg56
S'2000-01'
p1606
sg1172
S'0.3'
p1607
sba(isrc.gp1.models.Advanced
Advanced
p1608
(dp1609
g1127
S'8.2'
p1610
sg1129
S'11.8'
p1611
sg1131
S'.129'
p1612
sg1133
S'1.4'
p1613
sg1135
S'24.1'
p1614
sg1137
S'12.1'
p1615
sg1139
S'-1.5'
p1616
sg22
S'SF'
p1617
sg1142
S'0.0'
p1618
sg1144
S'.539'
p1619
sg1146
S'16.0'
p1620
sg1148
S'.209'
p1621
sg1150
S'.209'
p1622
sg28
S'NBA'
p1623
sg1153
S'-0.9'
p1624
sg1155
S'6.7'
p1625
sg1157
S'0.6'
p1626
sg40
S'31'
p1627
sg42
S'MIA'
p1628
sg44
S'27'
p1629
sg1162
S'0.8'
p1630
sg1164
S'16.4'
p1631
sg1166
S'0.5'
p1632
sg64
S'393'
p1633
sg1169
S'-2.4'
p1634
sg56
S'2000-01'
p1635
sg1172
S'1.1'
p1636
sbasS'_per36Minutes'
p1637
(lp1638
(isrc.gp1.models.Per36Minutes
Per36Minutes
p1639
(dp1640
g8
S'3.8'
p1641
sg10
S'0.3'
p1642
sg12
S'.487'
p1643
sg14
S'1.7'
p1644
sg16
S'.167'
p1645
sg18
S'0.0'
p1646
sg20
S'25.6'
p1647
sg22
S'SF'
p1648
sg24
S'.663'
p1649
sg28
S'NBA'
p1650
sg30
S'1.1'
p1651
sg32
S'20.7'
p1652
sg34
S'3.5'
p1653
sg36
S'8.2'
p1654
sg38
S'7.4'
p1655
sg40
S'21'
p1656
sg42
S'PHO'
p1657
sg44
S'63'
p1658
sg46
S'0.2'
p1659
sg48
S'10.0'
p1660
sg50
S'5.4'
p1661
sg52
S'20.4'
p1662
sg54
S'3.6'
p1663
sg56
S'1990-91'
p1664
sg58
S'10.1'
p1665
sg60
S'3.4'
p1666
sg62
S'.492'
p1667
sg64
S'730'
p1668
sg66
g67
sba(isrc.gp1.models.Per36Minutes
Per36Minutes
p1669
(dp1670
g8
S'3.0'
p1671
sg10
S'0.3'
p1672
sg12
S'.482'
p1673
sg14
S'2.5'
p1674
sg16
S'.167'
p1675
sg18
S'0.0'
p1676
sg20
S'22.9'
p1677
sg22
S'SF'
p1678
sg24
S'.736'
p1679
sg28
S'NBA'
p1680
sg30
S'0.8'
p1681
sg32
S'18.1'
p1682
sg34
S'2.6'
p1683
sg36
S'7.3'
p1684
sg38
S'7.5'
p1685
sg40
S'22'
p1686
sg42
S'PHO'
p1687
sg44
S'64'
p1688
sg46
S'0.5'
p1689
sg48
S'8.7'
p1690
sg50
S'5.4'
p1691
sg52
S'17.8'
p1692
sg54
S'4.6'
p1693
sg56
S'1991-92'
p1694
sg58
S'8.7'
p1695
sg60
S'3.5'
p1696
sg62
S'.487'
p1697
sg64
S'725'
p1698
sg66
g97
sba(isrc.gp1.models.Per36Minutes
Per36Minutes
p1699
(dp1700
g8
S'3.9'
p1701
sg10
S'0.0'
p1702
sg12
S'.576'
p1703
sg14
S'1.7'
p1704
sg16
S'.000'
p1705
sg18
S'0.0'
p1706
sg20
S'21.3'
p1707
sg22
S'SF'
p1708
sg24
S'.725'
p1709
sg28
S'NBA'
p1710
sg30
S'1.2'
p1711
sg32
S'14.8'
p1712
sg34
S'2.3'
p1713
sg36
S'5.8'
p1714
sg38
S'9.1'
p1715
sg40
S'23'
p1716
sg42
S'PHO'
p1717
sg44
S'74'
p1718
sg46
S'0.6'
p1719
sg48
S'8.5'
p1720
sg50
S'4.2'
p1721
sg52
S'14.8'
p1722
sg54
S'5.3'
p1723
sg56
S'1992-93'
p1724
sg58
S'8.5'
p1725
sg60
S'2.4'
p1726
sg62
S'.577'
p1727
sg64
S'1607'
p1728
sg66
S'46'
p1729
sba(isrc.gp1.models.Per36Minutes
Per36Minutes
p1730
(dp1731
g8
S'3.4'
p1732
sg10
S'0.2'
p1733
sg12
S'.535'
p1734
sg14
S'2.0'
p1735
sg16
S'.000'
p1736
sg18
S'0.0'
p1737
sg20
S'22.7'
p1738
sg22
S'SF'
p1739
sg24
S'.724'
p1740
sg28
S'NBA'
p1741
sg30
S'1.3'
p1742
sg32
S'17.9'
p1743
sg34
S'2.8'
p1744
sg36
S'5.0'
p1745
sg38
S'7.7'
p1746
sg40
S'24'
p1747
sg42
S'PHO'
p1748
sg44
S'53'
p1749
sg46
S'0.5'
p1750
sg48
S'9.6'
p1751
sg50
S'3.6'
p1752
sg52
S'17.7'
p1753
sg54
S'4.3'
p1754
sg56
S'1993-94'
p1755
sg58
S'9.6'
p1756
sg60
S'2.1'
p1757
sg62
S'.541'
p1758
sg64
S'1602'
p1759
sg66
S'43'
p1760
sba(isrc.gp1.models.Per36Minutes
Per36Minutes
p1761
(dp1762
g8
S'3.0'
p1763
sg10
S'2.6'
p1764
sg12
S'.509'
p1765
sg14
S'1.9'
p1766
sg16
S'.397'
p1767
sg18
S'1.0'
p1768
sg20
S'22.4'
p1769
sg22
S'SF'
p1770
sg24
S'.716'
p1771
sg28
S'NBA'
p1772
sg30
S'1.1'
p1773
sg32
S'17.3'
p1774
sg34
S'2.3'
p1775
sg36
S'5.2'
p1776
sg38
S'8.2'
p1777
sg40
S'25'
p1778
sg42
S'LAL'
p1779
sg44
S'58'
p1780
sg46
S'0.3'
p1781
sg48
S'7.8'
p1782
sg50
S'3.7'
p1783
sg52
S'14.7'
p1784
sg54
S'5.2'
p1785
sg56
S'1994-95'
p1786
sg58
S'8.8'
p1787
sg60
S'2.5'
p1788
sg62
S'.528'
p1789
sg64
S'2029'
p1790
sg66
S'54'
p1791
sba(isrc.gp1.models.Per36Minutes
Per36Minutes
p1792
(dp1793
g8
S'2.9'
p1794
sg10
S'2.5'
p1795
sg12
S'.530'
p1796
sg14
S'1.6'
p1797
sg16
S'.277'
p1798
sg18
S'0.7'
p1799
sg20
S'22.7'
p1800
sg22
S'SF'
p1801
sg24
S'.804'
p1802
sg28
S'NBA'
p1803
sg30
S'1.3'
p1804
sg32
S'16.5'
p1805
sg34
S'2.0'
p1806
sg36
S'5.6'
p1807
sg38
S'7.3'
p1808
sg40
S'26'
p1809
sg42
S'LAL'
p1810
sg44
S'78'
p1811
sg46
S'0.3'
p1812
sg48
S'8.0'
p1813
sg50
S'4.5'
p1814
sg52
S'14.0'
p1815
sg54
S'4.4'
p1816
sg56
S'1995-96'
p1817
sg58
S'8.7'
p1818
sg60
S'2.3'
p1819
sg62
S'.576'
p1820
sg64
S'2628'
p1821
sg66
S'71'
p1822
sba(isrc.gp1.models.Per36Minutes
Per36Minutes
p1823
(dp1824
g8
S'2.6'
p1825
sg10
S'2.6'
p1826
sg12
S'.457'
p1827
sg14
S'1.6'
p1828
sg16
S'.255'
p1829
sg18
S'0.7'
p1830
sg20
S'18.4'
p1831
sg22
S'SF'
p1832
sg24
S'.747'
p1833
sg28
S'NBA'
p1834
sg30
S'0.8'
p1835
sg32
S'15.6'
p1836
sg34
S'2.9'
p1837
sg36
S'4.7'
p1838
sg38
S'8.3'
p1839
sg40
S'27'
p1840
sg42
S'TOT'
p1841
sg44
S'50'
p1842
sg46
S'0.6'
p1843
sg48
S'6.5'
p1844
sg50
S'3.5'
p1845
sg52
S'13.0'
p1846
sg54
S'5.8'
p1847
sg56
S'1996-97'
p1848
sg58
S'7.1'
p1849
sg60
S'2.1'
p1850
sg62
S'.497'
p1851
sg64
S'1426'
p1852
sg66
S'40'
p1853
sba(isrc.gp1.models.Per36Minutes
Per36Minutes
p1854
(dp1855
g8
S'1.4'
p1856
sg10
S'2.7'
p1857
sg12
S'.410'
p1858
sg14
S'1.9'
p1859
sg16
S'.238'
p1860
sg18
S'0.6'
p1861
sg20
S'11.1'
p1862
sg22
S'SF'
p1863
sg24
S'.867'
p1864
sg28
S'NBA'
p1865
sg30
S'0.6'
p1866
sg32
S'10.7'
p1867
sg34
S'2.5'
p1868
sg36
S'1.9'
p1869
sg38
S'6.8'
p1870
sg40
S'27'
p1871
sg42
S'LAL'
p1872
sg44
g274
sg46
S'0.8'
p1873
sg48
S'3.7'
p1874
sg50
S'1.7'
p1875
sg52
S'8.0'
p1876
sg54
S'5.4'
p1877
sg56
S'1996-97'
p1878
sg58
S'4.4'
p1879
sg60
S'2.2'
p1880
sg62
S'.468'
p1881
sg64
S'279'
p1882
sg66
g274
sba(isrc.gp1.models.Per36Minutes
Per36Minutes
p1883
(dp1884
g8
S'2.9'
p1885
sg10
S'2.5'
p1886
sg12
S'.464'
p1887
sg14
S'1.5'
p1888
sg16
S'.259'
p1889
sg18
S'0.7'
p1890
sg20
S'20.2'
p1891
sg22
S'SF'
p1892
sg24
S'.737'
p1893
sg28
S'NBA'
p1894
sg30
S'0.9'
p1895
sg32
S'16.8'
p1896
sg34
S'3.0'
p1897
sg36
S'5.4'
p1898
sg38
S'8.7'
p1899
sg40
S'27'
p1900
sg42
S'PHO'
p1901
sg44
S'42'
p1902
sg46
S'0.5'
p1903
sg48
S'7.1'
p1904
sg50
S'4.0'
p1905
sg52
S'14.2'
p1906
sg54
S'5.8'
p1907
sg56
S'1996-97'
p1908
sg58
S'7.8'
p1909
sg60
S'2.1'
p1910
sg62
S'.501'
p1911
sg64
S'1147'
p1912
sg66
S'32'
p1913
sba(isrc.gp1.models.Per36Minutes
Per36Minutes
p1914
(dp1915
g8
S'2.7'
p1916
sg10
S'2.5'
p1917
sg12
S'.492'
p1918
sg14
S'2.2'
p1919
sg16
S'.300'
p1920
sg18
S'0.8'
p1921
sg20
S'19.5'
p1922
sg22
S'SF'
p1923
sg24
S'.738'
p1924
sg28
S'NBA'
p1925
sg30
S'1.2'
p1926
sg32
S'15.1'
p1927
sg34
S'3.2'
p1928
sg36
S'5.3'
p1929
sg38
S'8.0'
p1930
sg40
S'28'
p1931
sg42
S'TOT'
p1932
sg44
S'47'
p1933
sg46
S'0.6'
p1934
sg48
S'6.7'
p1935
sg50
S'3.9'
p1936
sg52
S'12.5'
p1937
sg54
S'5.3'
p1938
sg56
S'1997-98'
p1939
sg58
S'7.4'
p1940
sg60
S'2.6'
p1941
sg62
S'.530'
p1942
sg64
S'990'
p1943
sg66
S'25'
p1944
sba(isrc.gp1.models.Per36Minutes
Per36Minutes
p1945
(dp1946
g8
S'2.9'
p1947
sg10
S'2.9'
p1948
sg12
S'.500'
p1949
sg14
S'2.0'
p1950
sg16
S'.300'
p1951
sg18
S'0.9'
p1952
sg20
S'19.2'
p1953
sg22
S'SF'
p1954
sg24
S'.714'
p1955
sg28
S'NBA'
p1956
sg30
S'1.3'
p1957
sg32
S'14.8'
p1958
sg34
S'3.4'
p1959
sg36
S'4.8'
p1960
sg38
S'8.6'
p1961
sg40
S'28'
p1962
sg42
S'PHO'
p1963
sg44
S'35'
p1964
sg46
S'0.5'
p1965
sg48
S'6.6'
p1966
sg50
S'3.5'
p1967
sg52
S'12.0'
p1968
sg54
S'5.6'
p1969
sg56
S'1997-98'
p1970
sg58
S'7.4'
p1971
sg60
S'2.2'
p1972
sg62
S'.548'
p1973
sg64
S'626'
p1974
sg66
S'16'
p1975
sba(isrc.gp1.models.Per36Minutes
Per36Minutes
p1976
(dp1977
g8
S'2.4'
p1978
sg10
S'2.0'
p1979
sg12
S'.478'
p1980
sg14
S'2.5'
p1981
sg16
S'.300'
p1982
sg18
S'0.6'
p1983
sg20
S'20.1'
p1984
sg22
S'SF'
p1985
sg24
S'.770'
p1986
sg28
S'NBA'
p1987
sg30
S'1.1'
p1988
sg32
S'15.5'
p1989
sg34
S'2.9'
p1990
sg36
S'6.0'
p1991
sg38
S'7.1'
p1992
sg40
S'28'
p1993
sg42
S'DAL'
p1994
sg44
S'12'
p1995
sg46
S'0.8'
p1996
sg48
S'6.8'
p1997
sg50
S'4.6'
p1998
sg52
S'13.5'
p1999
sg54
S'4.7'
p2000
sg56
S'1997-98'
p2001
sg58
S'7.4'
p2002
sg60
S'3.3'
p2003
sg62
S'.504'
p2004
sg64
S'364'
p2005
sg66
g132
sba(isrc.gp1.models.Per36Minutes
Per36Minutes
p2006
(dp2007
g8
S'2.4'
p2008
sg10
S'2.9'
p2009
sg12
S'.421'
p2010
sg14
S'1.2'
p2011
sg16
S'.393'
p2012
sg18
S'1.1'
p2013
sg20
S'16.7'
p2014
sg22
S'SF'
p2015
sg24
S'.694'
p2016
sg28
S'NBA'
p2017
sg30
S'0.7'
p2018
sg32
S'14.3'
p2019
sg34
S'2.4'
p2020
sg36
S'5.0'
p2021
sg38
S'8.7'
p2022
sg40
S'29'
p2023
sg42
S'DAL'
p2024
sg44
S'13'
p2025
sg46
S'0.5'
p2026
sg48
S'4.9'
p2027
sg50
S'3.5'
p2028
sg52
S'11.5'
p2029
sg54
S'6.3'
p2030
sg56
S'1998-99'
p2031
sg58
S'6.0'
p2032
sg60
S'2.9'
p2033
sg62
S'.429'
p2034
sg64
S'352'
p2035
sg66
g47
sba(isrc.gp1.models.Per36Minutes
Per36Minutes
p2036
(dp2037
g8
S'3.0'
p2038
sg10
S'2.3'
p2039
sg12
S'.446'
p2040
sg14
S'1.6'
p2041
sg16
S'.328'
p2042
sg18
S'0.8'
p2043
sg20
S'20.0'
p2044
sg22
S'SF'
p2045
sg24
S'.843'
p2046
sg28
S'NBA'
p2047
sg30
S'1.0'
p2048
sg32
S'17.5'
p2049
sg34
S'2.9'
p2050
sg36
S'4.3'
p2051
sg38
S'8.1'
p2052
sg40
S'30'
p2053
sg42
S'DAL'
p2054
sg44
S'69'
p2055
sg46
S'0.4'
p2056
sg48
S'7.0'
p2057
sg50
S'3.6'
p2058
sg52
S'15.1'
p2059
sg54
S'5.1'
p2060
sg56
S'1999-00'
p2061
sg58
S'7.8'
p2062
sg60
S'2.2'
p2063
sg62
S'.464'
p2064
sg64
S'2064'
p2065
sg66
S'25'
p2066
sba(isrc.gp1.models.Per36Minutes
Per36Minutes
p2067
(dp2068
g8
S'2.2'
p2069
sg10
S'4.7'
p2070
sg12
S'.441'
p2071
sg14
S'1.3'
p2072
sg16
S'.301'
p2073
sg18
S'1.4'
p2074
sg20
S'16.8'
p2075
sg22
S'SF'
p2076
sg24
S'.860'
p2077
sg28
S'NBA'
p2078
sg30
S'1.0'
p2079
sg32
S'14.7'
p2080
sg34
S'3.9'
p2081
sg36
S'2.8'
p2082
sg38
S'6.8'
p2083
sg40
S'31'
p2084
sg42
S'TOT'
p2085
sg44
S'40'
p2086
sg46
S'0.5'
p2087
sg48
S'5.1'
p2088
sg50
S'2.4'
p2089
sg52
S'10.0'
p2090
sg54
S'4.6'
p2091
sg56
S'2000-01'
p2092
sg58
S'6.5'
p2093
sg60
S'2.1'
p2094
sg62
S'.506'
p2095
sg64
S'559'
p2096
sg66
g67
sba(isrc.gp1.models.Per36Minutes
Per36Minutes
p2097
(dp2098
g8
S'1.5'
p2099
sg10
S'8.7'
p2100
sg12
S'.394'
p2101
sg14
S'1.5'
p2102
sg16
S'.275'
p2103
sg18
S'2.4'
p2104
sg20
S'16.3'
p2105
sg22
S'SF'
p2106
sg24
S'.800'
p2107
sg28
S'NBA'
p2108
sg30
S'1.3'
p2109
sg32
S'15.4'
p2110
sg34
S'4.1'
p2111
sg36
S'2.2'
p2112
sg38
S'5.6'
p2113
sg40
S'31'
p2114
sg42
S'DET'
p2115
sg44
S'13'
p2116
sg46
S'0.7'
p2117
sg48
S'3.7'
p2118
sg50
S'1.7'
p2119
sg52
S'6.7'
p2120
sg54
S'4.1'
p2121
sg56
S'2000-01'
p2122
sg58
S'6.1'
p2123
sg60
S'2.0'
p2124
sg62
S'.548'
p2125
sg64
S'166'
p2126
sg66
g67
sba(isrc.gp1.models.Per36Minutes
Per36Minutes
p2127
(dp2128
g8
S'2.5'
p2129
sg10
S'3.0'
p2130
sg12
S'.462'
p2131
sg14
S'1.2'
p2132
sg16
S'.333'
p2133
sg18
S'1.0'
p2134
sg20
S'17.0'
p2135
sg22
S'SF'
p2136
sg24
S'.879'
p2137
sg28
S'NBA'
p2138
sg30
S'0.9'
p2139
sg32
S'14.5'
p2140
sg34
S'3.8'
p2141
sg36
S'3.0'
p2142
sg38
S'7.3'
p2143
sg40
S'31'
p2144
sg42
S'MIA'
p2145
sg44
S'27'
p2146
sg46
S'0.4'
p2147
sg48
S'5.7'
p2148
sg50
S'2.7'
p2149
sg52
S'11.5'
p2150
sg54
S'4.9'
p2151
sg56
S'2000-01'
p2152
sg58
S'6.7'
p2153
sg60
S'2.1'
p2154
sg62
S'.496'
p2155
sg64
S'393'
p2156
sg66
g67
sbasS'_fromYear'
p2157
S'1991'
p2158
sS'_url'
p2159
S'http://www.basketball-reference.com/players/c/cebalce01.html'
p2160
sS'_perGame'
p2161
(isrc.gp1.models.PerGame
PerGame
p2162
(dp2163
g8
S'1.0'
p2164
sg10
S'1.2'
p2165
sg12
S'.462'
p2166
sS'_effectiveFieldGalPercentage'
p2167
S'.497'
p2168
sg14
S'0.5'
p2169
sg16
S'.333'
p2170
sg18
S'0.4'
p2171
sg20
S'6.9'
p2172
sg22
S'SF'
p2173
sg24
S'.879'
p2174
sg28
S'NBA'
p2175
sg30
S'0.4'
p2176
sg34
S'1.6'
p2177
sS'_fieldGoalsttempted'
p2178
S'5.9'
p2179
sg36
S'1.2'
p2180
sg38
S'3.0'
p2181
sg40
S'31'
p2182
sg42
S'MIA'
p2183
sg44
S'27'
p2184
sg46
S'0.1'
p2185
sg48
S'2.3'
p2186
sg50
S'1.1'
p2187
sg52
S'4.6'
p2188
sg54
S'2.0'
p2189
sg56
S'2000-01'
p2190
sg58
S'2.7'
p2191
sg60
S'0.9'
p2192
sg62
S'.496'
p2193
sg64
S'14.6'
p2194
sg66
g67
sbsS'_weight'
p2195
S'190'
p2196
sS'_dob'
p2197
S'2-8-1969'
p2198
sS'_salary'
p2199
(lp2200
(isrc.gp1.models.Salary
Salary
p2201
(dp2202
g42
S'Phoenix Suns'
p2203
sg28
S'NBA'
p2204
sg2199
S'$175,000'
p2205
sg56
S'1990-91'
p2206
sba(isrc.gp1.models.Salary
Salary
p2207
(dp2208
g42
S'Phoenix Suns'
p2209
sg28
S'NBA'
p2210
sg2199
S'$250,000'
p2211
sg56
S'1991-92'
p2212
sba(isrc.gp1.models.Salary
Salary
p2213
(dp2214
g42
S'Phoenix Suns'
p2215
sg28
S'NBA'
p2216
sg2199
S'$350,000'
p2217
sg56
S'1992-93'
p2218
sba(isrc.gp1.models.Salary
Salary
p2219
(dp2220
g42
S'Phoenix Suns'
p2221
sg28
S'NBA'
p2222
sg2199
S'$2,000,000'
p2223
sg56
S'1993-94'
p2224
sba(isrc.gp1.models.Salary
Salary
p2225
(dp2226
g42
S'Los Angeles Lakers'
p2227
sg28
S'NBA'
p2228
sg2199
S'$1,750,000'
p2229
sg56
S'1994-95'
p2230
sba(isrc.gp1.models.Salary
Salary
p2231
(dp2232
g42
S'Los Angeles Lakers'
p2233
sg28
S'NBA'
p2234
sg2199
S'$2,245,000'
p2235
sg56
S'1995-96'
p2236
sba(isrc.gp1.models.Salary
Salary
p2237
(dp2238
g42
S'Los Angeles Lakers'
p2239
sg28
S'NBA'
p2240
sg2199
S'$2,400,000'
p2241
sg56
S'1996-97'
p2242
sba(isrc.gp1.models.Salary
Salary
p2243
(dp2244
g42
S'Phoenix Suns'
p2245
sg28
S'NBA'
p2246
sg2199
S'$2,605,000'
p2247
sg56
S'1997-98'
p2248
sba(isrc.gp1.models.Salary
Salary
p2249
(dp2250
g42
S'Dallas Mavericks'
p2251
sg28
S'NBA'
p2252
sg2199
S'$750,000'
p2253
sg56
S'1998-99'
p2254
sba(isrc.gp1.models.Salary
Salary
p2255
(dp2256
g42
S'Dallas Mavericks'
p2257
sg28
S'NBA'
p2258
sg2199
S'$3,500,000'
p2259
sg56
S'1999-00'
p2260
sba(isrc.gp1.models.Salary
Salary
p2261
(dp2262
g42
S'Miami Heat'
p2263
sg28
S'NBA'
p2264
sg2199
S'$3,937,500'
p2265
sg56
S'2000-01'
p2266
sbasg22
S'F'
p2267
sb.