(isrc.gp1.models.Player
Player
p0
(dp1
S'_experience'
p2
S'NA'
p3
sS'_totals'
p4
(lp5
(isrc.gp1.models.Totals
Totals
p6
(dp7
S'_offensiveRebounds'
p8
S'54'
p9
sS'_threePointsAttempted'
p10
S'2'
p11
sS'_fieldGoalsPercentage'
p12
S'.478'
p13
sS'_assist'
p14
S'31'
p15
sS'_threePointsPercentage'
p16
S'.000'
p17
sS'_threePoints'
p18
S'0'
p19
sS'_points'
p20
S'206'
p21
sS'_position'
p22
S'SF'
p23
sS'_freeThrowsPercentage'
p24
S'.811'
p25
sS'_effectiveFieldGoalPercentage'
p26
S'.478'
p27
sS'_league'
p28
S'NBA'
p29
sS'_steals'
p30
S'10'
p31
sS'_fieldGoalsAttempted'
p32
S'184'
p33
sS'_personalFouls'
p34
S'89'
p35
sS'_freeThrowsAttempted'
p36
S'37'
p37
sS'_totalRebounds'
p38
S'133'
p39
sS'_age'
p40
S'23'
p41
sS'_team'
p42
S'WSB'
p43
sS'_games'
p44
S'54'
p45
sS'_blocks'
p46
S'13'
p47
sS'_twoPoints'
p48
S'88'
p49
sS'_freeThrows'
p50
S'30'
p51
sS'_twoPointsAttempted'
p52
S'182'
p53
sS'_defensiveRebounds'
p54
S'79'
p55
sS'_season'
p56
S'1981-82'
p57
sS'_fieldGoals'
p58
S'88'
p59
sS'_turnOvers'
p60
S'43'
p61
sS'_twoPointsPercentage'
p62
S'.484'
p63
sS'_minutesPlayed'
p64
S'575'
p65
sS'_gamesStarted'
p66
S'10'
p67
sba(isrc.gp1.models.Totals
Totals
p68
(dp69
g8
S'83'
p70
sg10
S'10'
p71
sg12
S'.470'
p72
sg14
S'73'
p73
sg16
S'.200'
p74
sg18
g11
sg20
S'560'
p75
sg22
S'SF'
p76
sg24
S'.629'
p77
sg26
S'.472'
p78
sg28
S'NBA'
p79
sg30
S'32'
p80
sg32
S'534'
p81
sg34
S'122'
p82
sg36
S'89'
p83
sg38
S'213'
p84
sg40
S'24'
p85
sg42
S'WSB'
p86
sg44
S'74'
p87
sg46
S'22'
p88
sg48
S'249'
p89
sg50
S'56'
p90
sg52
S'524'
p91
sg54
S'130'
p92
sg56
S'1982-83'
p93
sg58
S'251'
p94
sg60
S'91'
p95
sg62
S'.475'
p96
sg64
S'1161'
p97
sg66
S'10'
p98
sba(isrc.gp1.models.Totals
Totals
p99
(dp100
g8
S'34'
p101
sg10
S'9'
p102
sg12
S'.472'
p103
sg14
S'30'
p104
sg16
S'.111'
p105
sg18
S'1'
p106
sg20
S'231'
p107
sg22
S'SF'
p108
sg24
S'.615'
p109
sg26
S'.475'
p110
sg28
S'NBA'
p111
sg30
S'14'
p112
sg32
S'218'
p113
sg34
S'58'
p114
sg36
S'39'
p115
sg38
S'103'
p116
sg40
S'25'
p117
sg42
S'WSB'
p118
sg44
S'46'
p119
sg46
S'10'
p120
sg48
S'102'
p121
sg50
S'24'
p122
sg52
S'209'
p123
sg54
S'69'
p124
sg56
S'1983-84'
p125
sg58
S'103'
p126
sg60
S'36'
p127
sg62
S'.488'
p128
sg64
S'467'
p129
sg66
g19
sba(isrc.gp1.models.Totals
Totals
p130
(dp131
g8
S'59'
p132
sg10
S'10'
p133
sg12
S'.430'
p134
sg14
S'51'
p135
sg16
S'.100'
p136
sg18
g106
sg20
S'358'
p137
sg22
S'SF'
p138
sg24
S'.823'
p139
sg26
S'.431'
p140
sg28
S'NBA'
p141
sg30
S'22'
p142
sg32
S'356'
p143
sg34
S'113'
p144
sg36
S'62'
p145
sg38
S'153'
p146
sg40
S'26'
p147
sg42
S'TOT'
p148
sg44
S'61'
p149
sg46
S'5'
p150
sg48
S'152'
p151
sg50
S'51'
p152
sg52
S'346'
p153
sg54
S'94'
p154
sg56
S'1984-85'
p155
sg58
S'153'
p156
sg60
S'54'
p157
sg62
S'.439'
p158
sg64
S'774'
p159
sg66
g11
sba(isrc.gp1.models.Totals
Totals
p160
(dp161
g8
g11
sg10
g19
sg12
S'.200'
p162
sg14
g106
sg16
g3
sg18
g19
sg20
S'7'
p163
sg22
S'SF'
p164
sg24
S'.750'
p165
sg26
S'.200'
p166
sg28
S'NBA'
p167
sg30
g106
sg32
S'10'
p168
sg34
S'3'
p169
sg36
S'4'
p170
sg38
g170
sg40
S'26'
p171
sg42
S'WSB'
p172
sg44
g170
sg46
g19
sg48
g11
sg50
g169
sg52
S'10'
p173
sg54
g11
sg56
S'1984-85'
p174
sg58
g11
sg60
g11
sg62
S'.200'
p175
sg64
S'28'
p176
sg66
g19
sba(isrc.gp1.models.Totals
Totals
p177
(dp178
g8
S'57'
p179
sg10
S'10'
p180
sg12
S'.436'
p181
sg14
S'50'
p182
sg16
S'.100'
p183
sg18
g106
sg20
S'351'
p184
sg22
S'SF'
p185
sg24
S'.828'
p186
sg26
S'.438'
p187
sg28
S'NBA'
p188
sg30
S'21'
p189
sg32
S'346'
p190
sg34
S'110'
p191
sg36
S'58'
p192
sg38
S'149'
p193
sg40
S'26'
p194
sg42
S'MIL'
p195
sg44
S'57'
p196
sg46
g150
sg48
S'150'
p197
sg50
S'48'
p198
sg52
S'336'
p199
sg54
S'92'
p200
sg56
S'1984-85'
p201
sg58
S'151'
p202
sg60
S'52'
p203
sg62
S'.446'
p204
sg64
S'746'
p205
sg66
g11
sba(isrc.gp1.models.Totals
Totals
p206
(dp207
g8
S'60'
p208
sg10
S'24'
p209
sg12
S'.474'
p210
sg14
S'55'
p211
sg16
S'.125'
p212
sg18
g169
sg20
S'440'
p213
sg22
S'SF'
p214
sg24
S'.813'
p215
sg26
S'.477'
p216
sg28
S'NBA'
p217
sg30
S'26'
p218
sg32
S'397'
p219
sg34
S'113'
p220
sg36
S'75'
p221
sg38
S'170'
p222
sg40
S'27'
p223
sg42
S'MIL'
p224
sg44
S'57'
p225
sg46
g163
sg48
S'185'
p226
sg50
S'61'
p227
sg52
S'373'
p228
sg54
S'110'
p229
sg56
S'1985-86'
p230
sg58
S'188'
p231
sg60
S'50'
p232
sg62
S'.496'
p233
sg64
S'873'
p234
sg66
g163
sba(isrc.gp1.models.Totals
Totals
p235
(dp236
g8
g3
sg10
g3
sg12
g3
sg14
g3
sg16
g3
sg18
g3
sg20
g3
sg22
g3
sg24
g3
sg26
g3
sg28
g3
sg30
g3
sg32
g3
sg34
g3
sg36
g3
sg38
g3
sg40
S'28'
p237
sg42
S'Did Not Play\xc2\xa0(other pro league\xe2\x80\x94Italy)'
p238
sg44
g3
sg46
g3
sg48
g3
sg50
g3
sg52
g3
sg54
g3
sg56
S'1986-87'
p239
sg58
g3
sg60
g3
sg62
g3
sg64
g3
sg66
g3
sba(isrc.gp1.models.Totals
Totals
p240
(dp241
g8
S'16'
p242
sg10
S'17'
p243
sg12
S'.417'
p244
sg14
S'20'
p245
sg16
S'.059'
p246
sg18
g106
sg20
S'104'
p247
sg22
S'SF'
p248
sg24
S'.700'
p249
sg26
S'.422'
p250
sg28
S'NBA'
p251
sg30
g11
sg32
S'115'
p252
sg34
S'29'
p253
sg36
S'10'
p254
sg38
S'41'
p255
sg40
S'29'
p256
sg42
S'TOT'
p257
sg44
S'21'
p258
sg46
g170
sg48
S'47'
p259
sg50
g163
sg52
S'98'
p260
sg54
S'25'
p261
sg56
S'1987-88'
p262
sg58
S'48'
p263
sg60
S'18'
p264
sg62
S'.480'
p265
sg64
S'226'
p266
sg66
g19
sba(isrc.gp1.models.Totals
Totals
p267
(dp268
g8
g106
sg10
g11
sg12
S'.333'
p269
sg14
g169
sg16
S'.000'
p270
sg18
g19
sg20
S'12'
p271
sg22
S'SF'
p272
sg24
g3
sg26
S'.333'
p273
sg28
S'NBA'
p274
sg30
g11
sg32
S'18'
p275
sg34
g170
sg36
g19
sg38
g169
sg40
S'29'
p276
sg42
S'MIL'
p277
sg44
g150
sg46
g106
sg48
S'6'
p278
sg50
g19
sg52
S'16'
p279
sg54
g11
sg56
S'1987-88'
p280
sg58
g278
sg60
g150
sg62
S'.375'
p281
sg64
S'39'
p282
sg66
g19
sba(isrc.gp1.models.Totals
Totals
p283
(dp284
g8
S'15'
p285
sg10
S'15'
p286
sg12
S'.433'
p287
sg14
S'17'
p288
sg16
S'.067'
p289
sg18
g106
sg20
S'92'
p290
sg22
S'SF'
p291
sg24
S'.700'
p292
sg26
S'.438'
p293
sg28
S'NBA'
p294
sg30
g19
sg32
S'97'
p295
sg34
S'25'
p296
sg36
S'10'
p297
sg38
S'38'
p298
sg40
S'29'
p299
sg42
S'SAS'
p300
sg44
S'16'
p301
sg46
g169
sg48
S'41'
p302
sg50
g163
sg52
S'82'
p303
sg54
S'23'
p304
sg56
S'1987-88'
p305
sg58
S'42'
p306
sg60
S'13'
p307
sg62
S'.500'
p308
sg64
S'187'
p309
sg66
g19
sba(isrc.gp1.models.Totals
Totals
p310
(dp311
g8
S'47'
p312
sg10
S'15'
p313
sg12
S'.426'
p314
sg14
S'31'
p315
sg16
S'.267'
p316
sg18
g170
sg20
S'185'
p317
sg22
S'SF'
p318
sg24
S'.731'
p319
sg26
S'.437'
p320
sg28
S'NBA'
p321
sg30
S'11'
p322
sg32
S'190'
p323
sg34
S'58'
p324
sg36
S'26'
p325
sg38
S'114'
p326
sg40
S'30'
p327
sg42
S'CHI'
p328
sg44
S'49'
p329
sg46
g150
sg48
S'77'
p330
sg50
S'19'
p331
sg52
S'175'
p332
sg54
S'67'
p333
sg56
S'1988-89'
p334
sg58
S'81'
p335
sg60
S'22'
p336
sg62
S'.440'
p337
sg64
S'545'
p338
sg66
g169
sba(isrc.gp1.models.Totals
Totals
p339
(dp340
g8
S'25'
p341
sg10
S'25'
p342
sg12
S'.367'
p343
sg14
S'18'
p344
sg16
S'.280'
p345
sg18
g163
sg20
S'130'
p346
sg22
S'SF'
p347
sg24
S'.875'
p348
sg26
S'.389'
p349
sg28
S'NBA'
p350
sg30
S'10'
p351
sg32
S'158'
p352
sg34
S'52'
p353
sg36
S'8'
p354
sg38
S'81'
p355
sg40
S'31'
p356
sg42
S'CHI'
p357
sg44
S'53'
p358
sg46
g354
sg48
S'51'
p359
sg50
g163
sg52
S'133'
p360
sg54
S'56'
p361
sg56
S'1989-90'
p362
sg58
S'58'
p363
sg60
S'20'
p364
sg62
S'.383'
p365
sg64
S'429'
p366
sg66
g19
sbasS'_college'
p367
S'Vanderbilt University'
p368
sS'_toYear'
p369
S'1990'
p370
sS'_height'
p371
S'6-7'
p372
sS'_active'
p373
I00
sS'_shootingHand'
p374
VRight
p375
sS'_name'
p376
S'Charles Davis'
p377
sS'_per100Possessions'
p378
(lp379
(isrc.gp1.models.Per100Possession
Per100Possession
p380
(dp381
g8
S'4.5'
p382
sg10
S'0.2'
p383
sg12
S'.478'
p384
sS'_offensiveRating'
p385
S'99'
p386
sg14
S'2.6'
p387
sg16
S'.000'
p388
sg18
S'0.0'
p389
sg20
S'17.3'
p390
sg22
S'SF'
p391
sS'_defensiveRating'
p392
S'104'
p393
sg24
S'.811'
p394
sg28
S'NBA'
p395
sg30
S'0.8'
p396
sg32
S'15.5'
p397
sg34
S'7.5'
p398
sg36
S'3.1'
p399
sg38
S'11.2'
p400
sg40
S'23'
p401
sg42
S'WSB'
p402
sg44
S'54'
p403
sg46
S'1.1'
p404
sg48
S'7.4'
p405
sg50
S'2.5'
p406
sg52
S'15.3'
p407
sg54
S'6.6'
p408
sg56
S'1981-82'
p409
sg58
S'7.4'
p410
sg60
S'3.6'
p411
sg62
S'.484'
p412
sg64
S'575'
p413
sg66
S'10'
p414
sba(isrc.gp1.models.Per100Possession
Per100Possession
p415
(dp416
g8
S'3.5'
p417
sg10
S'0.4'
p418
sg12
S'.470'
p419
sg385
S'95'
p420
sg14
S'3.0'
p421
sg16
S'.200'
p422
sg18
S'0.1'
p423
sg20
S'23.3'
p424
sg22
S'SF'
p425
sg392
S'101'
p426
sg24
S'.629'
p427
sg28
S'NBA'
p428
sg30
S'1.3'
p429
sg32
S'22.2'
p430
sg34
S'5.1'
p431
sg36
S'3.7'
p432
sg38
S'8.9'
p433
sg40
S'24'
p434
sg42
S'WSB'
p435
sg44
S'74'
p436
sg46
S'0.9'
p437
sg48
S'10.4'
p438
sg50
S'2.3'
p439
sg52
S'21.8'
p440
sg54
S'5.4'
p441
sg56
S'1982-83'
p442
sg58
S'10.4'
p443
sg60
S'3.8'
p444
sg62
S'.475'
p445
sg64
S'1161'
p446
sg66
S'10'
p447
sba(isrc.gp1.models.Per100Possession
Per100Possession
p448
(dp449
g8
S'3.6'
p450
sg10
S'0.9'
p451
sg12
S'.472'
p452
sg385
S'95'
p453
sg14
S'3.2'
p454
sg16
S'.111'
p455
sg18
S'0.1'
p456
sg20
S'24.4'
p457
sg22
S'SF'
p458
sg392
S'106'
p459
sg24
S'.615'
p460
sg28
S'NBA'
p461
sg30
S'1.5'
p462
sg32
S'23.0'
p463
sg34
S'6.1'
p464
sg36
S'4.1'
p465
sg38
S'10.9'
p466
sg40
S'25'
p467
sg42
S'WSB'
p468
sg44
S'46'
p469
sg46
S'1.1'
p470
sg48
S'10.8'
p471
sg50
S'2.5'
p472
sg52
S'22.0'
p473
sg54
S'7.3'
p474
sg56
S'1983-84'
p475
sg58
S'10.9'
p476
sg60
S'3.8'
p477
sg62
S'.488'
p478
sg64
S'467'
p479
sg66
g19
sba(isrc.gp1.models.Per100Possession
Per100Possession
p480
(dp481
g8
S'3.7'
p482
sg10
S'0.6'
p483
sg12
S'.430'
p484
sg385
S'98'
p485
sg14
S'3.2'
p486
sg16
S'.100'
p487
sg18
S'0.1'
p488
sg20
S'22.3'
p489
sg22
S'SF'
p490
sg392
S'105'
p491
sg24
S'.823'
p492
sg28
S'NBA'
p493
sg30
S'1.4'
p494
sg32
S'22.1'
p495
sg34
S'7.0'
p496
sg36
S'3.9'
p497
sg38
S'9.5'
p498
sg40
S'26'
p499
sg42
S'TOT'
p500
sg44
S'61'
p501
sg46
S'0.3'
p502
sg48
S'9.5'
p503
sg50
S'3.2'
p504
sg52
S'21.5'
p505
sg54
S'5.8'
p506
sg56
S'1984-85'
p507
sg58
S'9.5'
p508
sg60
S'3.4'
p509
sg62
S'.439'
p510
sg64
S'774'
p511
sg66
g11
sba(isrc.gp1.models.Per100Possession
Per100Possession
p512
(dp513
g8
S'3.4'
p514
sg10
S'0.0'
p515
sg12
S'.200'
p516
sg385
S'68'
p517
sg14
S'1.7'
p518
sg16
g3
sg18
S'0.0'
p519
sg20
S'12.0'
p520
sg22
S'SF'
p521
sg392
S'107'
p522
sg24
S'.750'
p523
sg28
S'NBA'
p524
sg30
S'1.7'
p525
sg32
S'17.1'
p526
sg34
S'5.1'
p527
sg36
S'6.8'
p528
sg38
S'6.8'
p529
sg40
S'26'
p530
sg42
S'WSB'
p531
sg44
g170
sg46
S'0.0'
p532
sg48
S'3.4'
p533
sg50
S'5.1'
p534
sg52
S'17.1'
p535
sg54
S'3.4'
p536
sg56
S'1984-85'
p537
sg58
S'3.4'
p538
sg60
S'3.4'
p539
sg62
S'.200'
p540
sg64
S'28'
p541
sg66
g19
sba(isrc.gp1.models.Per100Possession
Per100Possession
p542
(dp543
g8
S'3.7'
p544
sg10
S'0.6'
p545
sg12
S'.436'
p546
sg385
S'99'
p547
sg14
S'3.2'
p548
sg16
S'.100'
p549
sg18
S'0.1'
p550
sg20
S'22.6'
p551
sg22
S'SF'
p552
sg392
S'105'
p553
sg24
S'.828'
p554
sg28
S'NBA'
p555
sg30
S'1.4'
p556
sg32
S'22.3'
p557
sg34
S'7.1'
p558
sg36
S'3.7'
p559
sg38
S'9.6'
p560
sg40
S'26'
p561
sg42
S'MIL'
p562
sg44
S'57'
p563
sg46
S'0.3'
p564
sg48
S'9.7'
p565
sg50
S'3.1'
p566
sg52
S'21.7'
p567
sg54
S'5.9'
p568
sg56
S'1984-85'
p569
sg58
S'9.7'
p570
sg60
S'3.4'
p571
sg62
S'.446'
p572
sg64
S'746'
p573
sg66
g11
sba(isrc.gp1.models.Per100Possession
Per100Possession
p574
(dp575
g8
S'3.2'
p576
sg10
S'1.3'
p577
sg12
S'.474'
p578
sg385
S'106'
p579
sg14
S'3.0'
p580
sg16
S'.125'
p581
sg18
S'0.2'
p582
sg20
S'23.7'
p583
sg22
S'SF'
p584
sg392
S'104'
p585
sg24
S'.813'
p586
sg28
S'NBA'
p587
sg30
S'1.4'
p588
sg32
S'21.4'
p589
sg34
S'6.1'
p590
sg36
S'4.0'
p591
sg38
S'9.2'
p592
sg40
S'27'
p593
sg42
S'MIL'
p594
sg44
S'57'
p595
sg46
S'0.4'
p596
sg48
S'10.0'
p597
sg50
S'3.3'
p598
sg52
S'20.1'
p599
sg54
S'5.9'
p600
sg56
S'1985-86'
p601
sg58
S'10.1'
p602
sg60
S'2.7'
p603
sg62
S'.496'
p604
sg64
S'873'
p605
sg66
g163
sba(isrc.gp1.models.Per100Possession
Per100Possession
p606
(dp607
g8
S'3.3'
p608
sg10
S'3.5'
p609
sg12
S'.417'
p610
sg385
S'90'
p611
sg14
S'4.1'
p612
sg16
S'.059'
p613
sg18
S'0.2'
p614
sg20
S'21.4'
p615
sg22
S'SF'
p616
sg392
S'115'
p617
sg24
S'.700'
p618
sg28
S'NBA'
p619
sg30
S'0.4'
p620
sg32
S'23.7'
p621
sg34
S'6.0'
p622
sg36
S'2.1'
p623
sg38
S'8.4'
p624
sg40
S'29'
p625
sg42
S'TOT'
p626
sg44
S'21'
p627
sg46
S'0.8'
p628
sg48
S'9.7'
p629
sg50
S'1.4'
p630
sg52
S'20.2'
p631
sg54
S'5.1'
p632
sg56
S'1987-88'
p633
sg58
S'9.9'
p634
sg60
S'3.7'
p635
sg62
S'.480'
p636
sg64
S'226'
p637
sg66
g19
sba(isrc.gp1.models.Per100Possession
Per100Possession
p638
(dp639
g8
S'1.3'
p640
sg10
S'2.5'
p641
sg12
S'.333'
p642
sg385
S'63'
p643
sg14
S'3.8'
p644
sg16
S'.000'
p645
sg18
S'0.0'
p646
sg20
S'15.1'
p647
sg22
S'SF'
p648
sg392
S'108'
p649
sg24
g3
sg28
S'NBA'
p650
sg30
S'2.5'
p651
sg32
S'22.7'
p652
sg34
S'5.0'
p653
sg36
S'0.0'
p654
sg38
S'3.8'
p655
sg40
S'29'
p656
sg42
S'MIL'
p657
sg44
g150
sg46
S'1.3'
p658
sg48
S'7.6'
p659
sg50
S'0.0'
p660
sg52
S'20.2'
p661
sg54
S'2.5'
p662
sg56
S'1987-88'
p663
sg58
S'7.6'
p664
sg60
S'6.3'
p665
sg62
S'.375'
p666
sg64
S'39'
p667
sg66
g19
sba(isrc.gp1.models.Per100Possession
Per100Possession
p668
(dp669
g8
S'3.7'
p670
sg10
S'3.7'
p671
sg12
S'.433'
p672
sg385
S'96'
p673
sg14
S'4.2'
p674
sg16
S'.067'
p675
sg18
S'0.2'
p676
sg20
S'22.6'
p677
sg22
S'SF'
p678
sg392
S'116'
p679
sg24
S'.700'
p680
sg28
S'NBA'
p681
sg30
S'0.0'
p682
sg32
S'23.9'
p683
sg34
S'6.1'
p684
sg36
S'2.5'
p685
sg38
S'9.3'
p686
sg40
S'29'
p687
sg42
S'SAS'
p688
sg44
S'16'
p689
sg46
S'0.7'
p690
sg48
S'10.1'
p691
sg50
S'1.7'
p692
sg52
S'20.2'
p693
sg54
S'5.7'
p694
sg56
S'1987-88'
p695
sg58
S'10.3'
p696
sg60
S'3.2'
p697
sg62
S'.500'
p698
sg64
S'187'
p699
sg66
g19
sba(isrc.gp1.models.Per100Possession
Per100Possession
p700
(dp701
g8
S'4.3'
p702
sg10
S'1.4'
p703
sg12
S'.426'
p704
sg385
S'101'
p705
sg14
S'2.8'
p706
sg16
S'.267'
p707
sg18
S'0.4'
p708
sg20
S'16.8'
p709
sg22
S'SF'
p710
sg392
S'110'
p711
sg24
S'.731'
p712
sg28
S'NBA'
p713
sg30
S'1.0'
p714
sg32
S'17.3'
p715
sg34
S'5.3'
p716
sg36
S'2.4'
p717
sg38
S'10.4'
p718
sg40
S'30'
p719
sg42
S'CHI'
p720
sg44
S'49'
p721
sg46
S'0.5'
p722
sg48
S'7.0'
p723
sg50
S'1.7'
p724
sg52
S'15.9'
p725
sg54
S'6.1'
p726
sg56
S'1988-89'
p727
sg58
S'7.4'
p728
sg60
S'2.0'
p729
sg62
S'.440'
p730
sg64
S'545'
p731
sg66
g169
sba(isrc.gp1.models.Per100Possession
Per100Possession
p732
(dp733
g8
S'2.9'
p734
sg10
S'2.9'
p735
sg12
S'.367'
p736
sg385
S'88'
p737
sg14
S'2.1'
p738
sg16
S'.280'
p739
sg18
S'0.8'
p740
sg20
S'15.0'
p741
sg22
S'SF'
p742
sg392
S'110'
p743
sg24
S'.875'
p744
sg28
S'NBA'
p745
sg30
S'1.2'
p746
sg32
S'18.3'
p747
sg34
S'6.0'
p748
sg36
S'0.9'
p749
sg38
S'9.4'
p750
sg40
S'31'
p751
sg42
S'CHI'
p752
sg44
S'53'
p753
sg46
S'0.9'
p754
sg48
S'5.9'
p755
sg50
S'0.8'
p756
sg52
S'15.4'
p757
sg54
S'6.5'
p758
sg56
S'1989-90'
p759
sg58
S'6.7'
p760
sg60
S'2.3'
p761
sg62
S'.383'
p762
sg64
S'429'
p763
sg66
g19
sbasS'_advanced'
p764
(lp765
(isrc.gp1.models.Advanced
Advanced
p766
(dp767
S'_offensiveReboundPercentage'
p768
S'10.5'
p769
sS'_turnOverPercentage'
p770
S'17.7'
p771
sS'_winSharesPer48Minutes'
p772
S'.072'
p773
sS'_stealPercentage'
p774
S'0.8'
p775
sS'_usagePercentage'
p776
S'17.7'
p777
sS'_totalReboundsPercentage'
p778
S'12.6'
p779
sS'_defensiveBoxPlusMinus'
p780
S'0.5'
p781
sg22
S'SF'
p782
sS'_valueOverReplacementPlayer'
p783
S'0.0'
p784
sS'_trueShootingPercentage'
p785
S'.514'
p786
sS'_defensiveReboundPercentage'
p787
S'14.8'
p788
sS'_freeThrowsAttempRate'
p789
S'.201'
p790
sS'_threePointsAttempRate'
p791
S'.011'
p792
sg28
S'NBA'
p793
sS'_offensiveBoxPlusMinues'
p794
S'-2.8'
p795
sS'_assistPercentage'
p796
S'7.7'
p797
sS'_defensiveWinShares'
p798
S'0.8'
p799
sg40
S'23'
p800
sg42
S'WSB'
p801
sg44
S'54'
p802
sS'_blockPercentage'
p803
S'1.3'
p804
sS'_playerEfficiencyRating'
p805
S'10.7'
p806
sS'_offensiveWinShares'
p807
S'0.0'
p808
sg64
S'575'
p809
sS'_boxPlusMinus'
p810
S'-2.3'
p811
sg56
S'1981-82'
p812
sS'_winShares'
p813
S'0.9'
p814
sba(isrc.gp1.models.Advanced
Advanced
p815
(dp816
g768
S'7.8'
p817
sg770
S'13.7'
p818
sg772
S'.061'
p819
sg774
S'1.3'
p820
sg776
S'23.7'
p821
sg778
S'10.2'
p822
sg780
S'-0.2'
p823
sg22
S'SF'
p824
sg783
S'-0.1'
p825
sg785
S'.489'
p826
sg787
S'12.5'
p827
sg789
S'.167'
p828
sg791
S'.019'
p829
sg28
S'NBA'
p830
sg794
S'-2.3'
p831
sg796
S'10.2'
p832
sg798
S'1.8'
p833
sg40
S'24'
p834
sg42
S'WSB'
p835
sg44
S'74'
p836
sg803
S'1.1'
p837
sg805
S'13.1'
p838
sg807
S'-0.3'
p839
sg64
S'1161'
p840
sg810
S'-2.5'
p841
sg56
S'1982-83'
p842
sg813
S'1.5'
p843
sba(isrc.gp1.models.Advanced
Advanced
p844
(dp845
g768
S'8.5'
p846
sg770
S'13.3'
p847
sg772
S'.034'
p848
sg774
S'1.5'
p849
sg776
S'24.8'
p850
sg778
S'12.9'
p851
sg780
S'-1.0'
p852
sg22
S'SF'
p853
sg783
S'-0.2'
p854
sg785
S'.491'
p855
sg787
S'17.2'
p856
sg789
S'.179'
p857
sg791
S'.041'
p858
sg28
S'NBA'
p859
sg794
S'-2.9'
p860
sg796
S'10.4'
p861
sg798
S'0.6'
p862
sg40
S'25'
p863
sg42
S'WSB'
p864
sg44
S'46'
p865
sg803
S'1.2'
p866
sg805
S'13.4'
p867
sg807
S'-0.2'
p868
sg64
S'467'
p869
sg810
S'-3.9'
p870
sg56
S'1983-84'
p871
sg813
S'0.3'
p872
sba(isrc.gp1.models.Advanced
Advanced
p873
(dp874
g768
S'8.5'
p875
sg770
S'12.3'
p876
sg772
S'.060'
p877
sg774
S'1.4'
p878
sg776
S'23.0'
p879
sg778
S'11.0'
p880
sg780
S'-1.1'
p881
sg22
S'SF'
p882
sg783
S'-0.4'
p883
sg785
S'.467'
p884
sg787
S'13.4'
p885
sg789
S'.174'
p886
sg791
S'.028'
p887
sg28
S'NBA'
p888
sg794
S'-2.8'
p889
sg796
S'9.4'
p890
sg798
S'1.1'
p891
sg40
S'26'
p892
sg42
S'TOT'
p893
sg44
S'61'
p894
sg803
S'0.4'
p895
sg805
S'11.1'
p896
sg807
S'-0.1'
p897
sg64
S'774'
p898
sg810
S'-3.9'
p899
sg56
S'1984-85'
p900
sg813
S'1.0'
p901
sba(isrc.gp1.models.Advanced
Advanced
p902
(dp903
g768
S'7.7'
p904
sg770
S'14.5'
p905
sg772
S'-0.127'
p906
sg774
S'1.7'
p907
sg776
S'20.5'
p908
sg778
S'7.9'
p909
sg780
S'-1.7'
p910
sg22
S'SF'
p911
sg783
S'-0.1'
p912
sg785
S'.298'
p913
sg787
S'8.1'
p914
sg789
S'.400'
p915
sg791
S'.000'
p916
sg28
S'NBA'
p917
sg794
S'-9.5'
p918
sg796
S'4.4'
p919
sg798
S'0.0'
p920
sg40
S'26'
p921
sg42
S'WSB'
p922
sg44
g170
sg803
S'0.0'
p923
sg805
S'1.0'
p924
sg807
S'-0.1'
p925
sg64
S'28'
p926
sg810
S'-11.2'
p927
sg56
S'1984-85'
p928
sg813
S'-0.1'
p929
sba(isrc.gp1.models.Advanced
Advanced
p930
(dp931
g768
S'8.5'
p932
sg770
S'12.3'
p933
sg772
S'.067'
p934
sg774
S'1.4'
p935
sg776
S'23.1'
p936
sg778
S'11.1'
p937
sg780
S'-1.1'
p938
sg22
S'SF'
p939
sg783
S'-0.3'
p940
sg785
S'.472'
p941
sg787
S'13.6'
p942
sg789
S'.168'
p943
sg791
S'.029'
p944
sg28
S'NBA'
p945
sg794
S'-2.5'
p946
sg796
S'9.6'
p947
sg798
S'1.1'
p948
sg40
S'26'
p949
sg42
S'MIL'
p950
sg44
S'57'
p951
sg803
S'0.4'
p952
sg805
S'11.4'
p953
sg807
S'0.0'
p954
sg64
S'746'
p955
sg810
S'-3.6'
p956
sg56
S'1984-85'
p957
sg813
S'1.0'
p958
sba(isrc.gp1.models.Advanced
Advanced
p959
(dp960
g768
S'7.7'
p961
sg770
S'10.4'
p962
sg772
S'.114'
p963
sg774
S'1.4'
p964
sg776
S'22.1'
p965
sg778
S'10.9'
p966
sg780
S'-1.0'
p967
sg22
S'SF'
p968
sg783
S'0.1'
p969
sg785
S'.512'
p970
sg787
S'13.9'
p971
sg789
S'.189'
p972
sg791
S'.060'
p973
sg28
S'NBA'
p974
sg794
S'-0.6'
p975
sg796
S'9.1'
p976
sg798
S'1.2'
p977
sg40
S'27'
p978
sg42
S'MIL'
p979
sg44
S'57'
p980
sg803
S'0.5'
p981
sg805
S'13.9'
p982
sg807
S'0.8'
p983
sg64
S'873'
p984
sg810
S'-1.5'
p985
sg56
S'1985-86'
p986
sg813
S'2.1'
p987
sba(isrc.gp1.models.Advanced
Advanced
p988
(dp989
g768
S'7.6'
p990
sg770
S'13.1'
p991
sg772
S'-0.055'
p992
sg774
S'0.4'
p993
sg776
S'24.3'
p994
sg778
S'9.8'
p995
sg780
S'-3.6'
p996
sg22
S'SF'
p997
sg783
S'-0.3'
p998
sg785
S'.436'
p999
sg787
S'12.1'
p1000
sg789
S'.087'
p1001
sg791
S'.148'
p1002
sg28
S'NBA'
p1003
sg794
S'-3.7'
p1004
sg796
S'12.5'
p1005
sg798
S'0.0'
p1006
sg40
S'29'
p1007
sg42
S'TOT'
p1008
sg44
S'21'
p1009
sg803
S'1.0'
p1010
sg805
S'8.7'
p1011
sg807
S'-0.3'
p1012
sg64
S'226'
p1013
sg810
S'-7.3'
p1014
sg56
S'1987-88'
p1015
sg813
S'-0.3'
p1016
sba(isrc.gp1.models.Advanced
Advanced
p1017
(dp1018
g768
S'2.9'
p1019
sg770
S'21.7'
p1020
sg772
S'-0.201'
p1021
sg774
S'2.5'
p1022
sg776
S'24.8'
p1023
sg778
S'4.3'
p1024
sg780
S'-1.1'
p1025
sg22
S'SF'
p1026
sg783
S'-0.1'
p1027
sg785
S'.333'
p1028
sg787
S'5.8'
p1029
sg789
S'.000'
p1030
sg791
S'.111'
p1031
sg28
S'NBA'
p1032
sg794
S'-10.0'
p1033
sg796
S'11.0'
p1034
sg798
S'0.0'
p1035
sg40
S'29'
p1036
sg42
S'MIL'
p1037
sg44
g150
sg803
S'1.5'
p1038
sg805
S'0.9'
p1039
sg807
S'-0.2'
p1040
sg64
S'39'
p1041
sg810
S'-11.1'
p1042
sg56
S'1987-88'
p1043
sg813
S'-0.2'
p1044
sba(isrc.gp1.models.Advanced
Advanced
p1045
(dp1046
g768
S'8.6'
p1047
sg770
S'11.4'
p1048
sg772
S'-0.024'
p1049
sg774
S'0.0'
p1050
sg776
S'24.1'
p1051
sg778
S'11.0'
p1052
sg780
S'-4.1'
p1053
sg22
S'SF'
p1054
sg783
S'-0.2'
p1055
sg785
S'.454'
p1056
sg787
S'13.4'
p1057
sg789
S'.103'
p1058
sg791
S'.155'
p1059
sg28
S'NBA'
p1060
sg794
S'-2.4'
p1061
sg796
S'12.8'
p1062
sg798
S'0.0'
p1063
sg40
S'29'
p1064
sg42
S'SAS'
p1065
sg44
S'16'
p1066
sg803
S'0.9'
p1067
sg805
S'10.4'
p1068
sg807
S'-0.1'
p1069
sg64
S'187'
p1070
sg810
S'-6.5'
p1071
sg56
S'1987-88'
p1072
sg813
S'-0.1'
p1073
sba(isrc.gp1.models.Advanced
Advanced
p1074
(dp1075
g768
S'10.3'
p1076
sg770
S'9.8'
p1077
sg772
S'.048'
p1078
sg774
S'1.0'
p1079
sg776
S'17.6'
p1080
sg778
S'12.1'
p1081
sg780
S'-1.8'
p1082
sg22
S'SF'
p1083
sg783
S'-0.4'
p1084
sg785
S'.459'
p1085
sg787
S'13.8'
p1086
sg789
S'.137'
p1087
sg791
S'.079'
p1088
sg28
S'NBA'
p1089
sg794
S'-2.9'
p1090
sg796
S'7.9'
p1091
sg798
S'0.4'
p1092
sg40
S'30'
p1093
sg42
S'CHI'
p1094
sg44
S'49'
p1095
sg803
S'0.6'
p1096
sg805
S'10.3'
p1097
sg807
S'0.1'
p1098
sg64
S'545'
p1099
sg810
S'-4.6'
p1100
sg56
S'1988-89'
p1101
sg813
S'0.5'
p1102
sba(isrc.gp1.models.Advanced
Advanced
p1103
(dp1104
g768
S'6.9'
p1105
sg770
S'11.0'
p1106
sg772
S'-0.017'
p1107
sg774
S'1.2'
p1108
sg776
S'18.1'
p1109
sg778
S'11.1'
p1110
sg780
S'-2.4'
p1111
sg22
S'SF'
p1112
sg783
S'-0.7'
p1113
sg785
S'.402'
p1114
sg787
S'15.5'
p1115
sg789
S'.051'
p1116
sg791
S'.158'
p1117
sg28
S'NBA'
p1118
sg794
S'-5.7'
p1119
sg796
S'5.6'
p1120
sg798
S'0.3'
p1121
sg40
S'31'
p1122
sg42
S'CHI'
p1123
sg44
S'53'
p1124
sg803
S'1.2'
p1125
sg805
S'6.7'
p1126
sg807
S'-0.5'
p1127
sg64
S'429'
p1128
sg810
S'-8.1'
p1129
sg56
S'1989-90'
p1130
sg813
S'-0.2'
p1131
sbasS'_per36Minutes'
p1132
(lp1133
(isrc.gp1.models.Per36Minutes
Per36Minutes
p1134
(dp1135
g8
S'3.4'
p1136
sg10
S'0.1'
p1137
sg12
S'.478'
p1138
sg14
S'1.9'
p1139
sg16
S'.000'
p1140
sg18
S'0.0'
p1141
sg20
S'12.9'
p1142
sg22
S'SF'
p1143
sg24
S'.811'
p1144
sg28
S'NBA'
p1145
sg30
S'0.6'
p1146
sg32
S'11.5'
p1147
sg34
S'5.6'
p1148
sg36
S'2.3'
p1149
sg38
S'8.3'
p1150
sg40
S'23'
p1151
sg42
S'WSB'
p1152
sg44
S'54'
p1153
sg46
S'0.8'
p1154
sg48
S'5.5'
p1155
sg50
S'1.9'
p1156
sg52
S'11.4'
p1157
sg54
S'4.9'
p1158
sg56
S'1981-82'
p1159
sg58
S'5.5'
p1160
sg60
S'2.7'
p1161
sg62
S'.484'
p1162
sg64
S'575'
p1163
sg66
S'10'
p1164
sba(isrc.gp1.models.Per36Minutes
Per36Minutes
p1165
(dp1166
g8
S'2.6'
p1167
sg10
S'0.3'
p1168
sg12
S'.470'
p1169
sg14
S'2.3'
p1170
sg16
S'.200'
p1171
sg18
S'0.1'
p1172
sg20
S'17.4'
p1173
sg22
S'SF'
p1174
sg24
S'.629'
p1175
sg28
S'NBA'
p1176
sg30
S'1.0'
p1177
sg32
S'16.6'
p1178
sg34
S'3.8'
p1179
sg36
S'2.8'
p1180
sg38
S'6.6'
p1181
sg40
S'24'
p1182
sg42
S'WSB'
p1183
sg44
S'74'
p1184
sg46
S'0.7'
p1185
sg48
S'7.7'
p1186
sg50
S'1.7'
p1187
sg52
S'16.2'
p1188
sg54
S'4.0'
p1189
sg56
S'1982-83'
p1190
sg58
S'7.8'
p1191
sg60
S'2.8'
p1192
sg62
S'.475'
p1193
sg64
S'1161'
p1194
sg66
S'10'
p1195
sba(isrc.gp1.models.Per36Minutes
Per36Minutes
p1196
(dp1197
g8
S'2.6'
p1198
sg10
S'0.7'
p1199
sg12
S'.472'
p1200
sg14
S'2.3'
p1201
sg16
S'.111'
p1202
sg18
S'0.1'
p1203
sg20
S'17.8'
p1204
sg22
S'SF'
p1205
sg24
S'.615'
p1206
sg28
S'NBA'
p1207
sg30
S'1.1'
p1208
sg32
S'16.8'
p1209
sg34
S'4.5'
p1210
sg36
S'3.0'
p1211
sg38
S'7.9'
p1212
sg40
S'25'
p1213
sg42
S'WSB'
p1214
sg44
S'46'
p1215
sg46
S'0.8'
p1216
sg48
S'7.9'
p1217
sg50
S'1.9'
p1218
sg52
S'16.1'
p1219
sg54
S'5.3'
p1220
sg56
S'1983-84'
p1221
sg58
S'7.9'
p1222
sg60
S'2.8'
p1223
sg62
S'.488'
p1224
sg64
S'467'
p1225
sg66
g19
sba(isrc.gp1.models.Per36Minutes
Per36Minutes
p1226
(dp1227
g8
S'2.7'
p1228
sg10
S'0.5'
p1229
sg12
S'.430'
p1230
sg14
S'2.4'
p1231
sg16
S'.100'
p1232
sg18
S'0.0'
p1233
sg20
S'16.7'
p1234
sg22
S'SF'
p1235
sg24
S'.823'
p1236
sg28
S'NBA'
p1237
sg30
S'1.0'
p1238
sg32
S'16.6'
p1239
sg34
S'5.3'
p1240
sg36
S'2.9'
p1241
sg38
S'7.1'
p1242
sg40
S'26'
p1243
sg42
S'TOT'
p1244
sg44
S'61'
p1245
sg46
S'0.2'
p1246
sg48
S'7.1'
p1247
sg50
S'2.4'
p1248
sg52
S'16.1'
p1249
sg54
S'4.4'
p1250
sg56
S'1984-85'
p1251
sg58
S'7.1'
p1252
sg60
S'2.5'
p1253
sg62
S'.439'
p1254
sg64
S'774'
p1255
sg66
g11
sba(isrc.gp1.models.Per36Minutes
Per36Minutes
p1256
(dp1257
g8
S'2.6'
p1258
sg10
S'0.0'
p1259
sg12
S'.200'
p1260
sg14
S'1.3'
p1261
sg16
g3
sg18
S'0.0'
p1262
sg20
S'9.0'
p1263
sg22
S'SF'
p1264
sg24
S'.750'
p1265
sg28
S'NBA'
p1266
sg30
S'1.3'
p1267
sg32
S'12.9'
p1268
sg34
S'3.9'
p1269
sg36
S'5.1'
p1270
sg38
S'5.1'
p1271
sg40
S'26'
p1272
sg42
S'WSB'
p1273
sg44
g170
sg46
S'0.0'
p1274
sg48
S'2.6'
p1275
sg50
S'3.9'
p1276
sg52
S'12.9'
p1277
sg54
S'2.6'
p1278
sg56
S'1984-85'
p1279
sg58
S'2.6'
p1280
sg60
S'2.6'
p1281
sg62
S'.200'
p1282
sg64
S'28'
p1283
sg66
g19
sba(isrc.gp1.models.Per36Minutes
Per36Minutes
p1284
(dp1285
g8
S'2.8'
p1286
sg10
S'0.5'
p1287
sg12
S'.436'
p1288
sg14
S'2.4'
p1289
sg16
S'.100'
p1290
sg18
S'0.0'
p1291
sg20
S'16.9'
p1292
sg22
S'SF'
p1293
sg24
S'.828'
p1294
sg28
S'NBA'
p1295
sg30
S'1.0'
p1296
sg32
S'16.7'
p1297
sg34
S'5.3'
p1298
sg36
S'2.8'
p1299
sg38
S'7.2'
p1300
sg40
S'26'
p1301
sg42
S'MIL'
p1302
sg44
S'57'
p1303
sg46
S'0.2'
p1304
sg48
S'7.2'
p1305
sg50
S'2.3'
p1306
sg52
S'16.2'
p1307
sg54
S'4.4'
p1308
sg56
S'1984-85'
p1309
sg58
S'7.3'
p1310
sg60
S'2.5'
p1311
sg62
S'.446'
p1312
sg64
S'746'
p1313
sg66
g11
sba(isrc.gp1.models.Per36Minutes
Per36Minutes
p1314
(dp1315
g8
S'2.5'
p1316
sg10
S'1.0'
p1317
sg12
S'.474'
p1318
sg14
S'2.3'
p1319
sg16
S'.125'
p1320
sg18
S'0.1'
p1321
sg20
S'18.1'
p1322
sg22
S'SF'
p1323
sg24
S'.813'
p1324
sg28
S'NBA'
p1325
sg30
S'1.1'
p1326
sg32
S'16.4'
p1327
sg34
S'4.7'
p1328
sg36
S'3.1'
p1329
sg38
S'7.0'
p1330
sg40
S'27'
p1331
sg42
S'MIL'
p1332
sg44
S'57'
p1333
sg46
S'0.3'
p1334
sg48
S'7.6'
p1335
sg50
S'2.5'
p1336
sg52
S'15.4'
p1337
sg54
S'4.5'
p1338
sg56
S'1985-86'
p1339
sg58
S'7.8'
p1340
sg60
S'2.1'
p1341
sg62
S'.496'
p1342
sg64
S'873'
p1343
sg66
g163
sba(isrc.gp1.models.Per36Minutes
Per36Minutes
p1344
(dp1345
g8
S'2.5'
p1346
sg10
S'2.7'
p1347
sg12
S'.417'
p1348
sg14
S'3.2'
p1349
sg16
S'.059'
p1350
sg18
S'0.2'
p1351
sg20
S'16.6'
p1352
sg22
S'SF'
p1353
sg24
S'.700'
p1354
sg28
S'NBA'
p1355
sg30
S'0.3'
p1356
sg32
S'18.3'
p1357
sg34
S'4.6'
p1358
sg36
S'1.6'
p1359
sg38
S'6.5'
p1360
sg40
S'29'
p1361
sg42
S'TOT'
p1362
sg44
S'21'
p1363
sg46
S'0.6'
p1364
sg48
S'7.5'
p1365
sg50
S'1.1'
p1366
sg52
S'15.6'
p1367
sg54
S'4.0'
p1368
sg56
S'1987-88'
p1369
sg58
S'7.6'
p1370
sg60
S'2.9'
p1371
sg62
S'.480'
p1372
sg64
S'226'
p1373
sg66
g19
sba(isrc.gp1.models.Per36Minutes
Per36Minutes
p1374
(dp1375
g8
S'0.9'
p1376
sg10
S'1.8'
p1377
sg12
S'.333'
p1378
sg14
S'2.8'
p1379
sg16
S'.000'
p1380
sg18
S'0.0'
p1381
sg20
S'11.1'
p1382
sg22
S'SF'
p1383
sg24
g3
sg28
S'NBA'
p1384
sg30
S'1.8'
p1385
sg32
S'16.6'
p1386
sg34
S'3.7'
p1387
sg36
S'0.0'
p1388
sg38
S'2.8'
p1389
sg40
S'29'
p1390
sg42
S'MIL'
p1391
sg44
g150
sg46
S'0.9'
p1392
sg48
S'5.5'
p1393
sg50
S'0.0'
p1394
sg52
S'14.8'
p1395
sg54
S'1.8'
p1396
sg56
S'1987-88'
p1397
sg58
S'5.5'
p1398
sg60
S'4.6'
p1399
sg62
S'.375'
p1400
sg64
S'39'
p1401
sg66
g19
sba(isrc.gp1.models.Per36Minutes
Per36Minutes
p1402
(dp1403
g8
S'2.9'
p1404
sg10
S'2.9'
p1405
sg12
S'.433'
p1406
sg14
S'3.3'
p1407
sg16
S'.067'
p1408
sg18
S'0.2'
p1409
sg20
S'17.7'
p1410
sg22
S'SF'
p1411
sg24
S'.700'
p1412
sg28
S'NBA'
p1413
sg30
S'0.0'
p1414
sg32
S'18.7'
p1415
sg34
S'4.8'
p1416
sg36
S'1.9'
p1417
sg38
S'7.3'
p1418
sg40
S'29'
p1419
sg42
S'SAS'
p1420
sg44
S'16'
p1421
sg46
S'0.6'
p1422
sg48
S'7.9'
p1423
sg50
S'1.3'
p1424
sg52
S'15.8'
p1425
sg54
S'4.4'
p1426
sg56
S'1987-88'
p1427
sg58
S'8.1'
p1428
sg60
S'2.5'
p1429
sg62
S'.500'
p1430
sg64
S'187'
p1431
sg66
g19
sba(isrc.gp1.models.Per36Minutes
Per36Minutes
p1432
(dp1433
g8
S'3.1'
p1434
sg10
S'1.0'
p1435
sg12
S'.426'
p1436
sg14
S'2.0'
p1437
sg16
S'.267'
p1438
sg18
S'0.3'
p1439
sg20
S'12.2'
p1440
sg22
S'SF'
p1441
sg24
S'.731'
p1442
sg28
S'NBA'
p1443
sg30
S'0.7'
p1444
sg32
S'12.6'
p1445
sg34
S'3.8'
p1446
sg36
S'1.7'
p1447
sg38
S'7.5'
p1448
sg40
S'30'
p1449
sg42
S'CHI'
p1450
sg44
S'49'
p1451
sg46
S'0.3'
p1452
sg48
S'5.1'
p1453
sg50
S'1.3'
p1454
sg52
S'11.6'
p1455
sg54
S'4.4'
p1456
sg56
S'1988-89'
p1457
sg58
S'5.4'
p1458
sg60
S'1.5'
p1459
sg62
S'.440'
p1460
sg64
S'545'
p1461
sg66
g169
sba(isrc.gp1.models.Per36Minutes
Per36Minutes
p1462
(dp1463
g8
S'2.1'
p1464
sg10
S'2.1'
p1465
sg12
S'.367'
p1466
sg14
S'1.5'
p1467
sg16
S'.280'
p1468
sg18
S'0.6'
p1469
sg20
S'10.9'
p1470
sg22
S'SF'
p1471
sg24
S'.875'
p1472
sg28
S'NBA'
p1473
sg30
S'0.8'
p1474
sg32
S'13.3'
p1475
sg34
S'4.4'
p1476
sg36
S'0.7'
p1477
sg38
S'6.8'
p1478
sg40
S'31'
p1479
sg42
S'CHI'
p1480
sg44
S'53'
p1481
sg46
S'0.7'
p1482
sg48
S'4.3'
p1483
sg50
S'0.6'
p1484
sg52
S'11.2'
p1485
sg54
S'4.7'
p1486
sg56
S'1989-90'
p1487
sg58
S'4.9'
p1488
sg60
S'1.7'
p1489
sg62
S'.383'
p1490
sg64
S'429'
p1491
sg66
g19
sbasS'_fromYear'
p1492
S'1982'
p1493
sS'_url'
p1494
S'http://www.basketball-reference.com/players/d/davisch02.html'
p1495
sS'_perGame'
p1496
(isrc.gp1.models.PerGame
PerGame
p1497
(dp1498
g8
S'0.5'
p1499
sg10
S'0.5'
p1500
sg12
S'.367'
p1501
sS'_effectiveFieldGalPercentage'
p1502
S'.389'
p1503
sg14
S'0.3'
p1504
sg16
S'.280'
p1505
sg18
S'0.1'
p1506
sg20
S'2.5'
p1507
sg22
S'SF'
p1508
sg24
S'.875'
p1509
sg28
S'NBA'
p1510
sg30
S'0.2'
p1511
sg34
S'1.0'
p1512
sS'_fieldGoalsttempted'
p1513
S'3.0'
p1514
sg36
S'0.2'
p1515
sg38
S'1.5'
p1516
sg40
S'31'
p1517
sg42
S'CHI'
p1518
sg44
S'53'
p1519
sg46
S'0.2'
p1520
sg48
S'1.0'
p1521
sg50
S'0.1'
p1522
sg52
S'2.5'
p1523
sg54
S'1.1'
p1524
sg56
S'1989-90'
p1525
sg58
S'1.1'
p1526
sg60
S'0.4'
p1527
sg62
S'.383'
p1528
sg64
S'8.1'
p1529
sg66
g19
sbsS'_weight'
p1530
S'215'
p1531
sS'_dob'
p1532
S'5-10-1958'
p1533
sS'_salary'
p1534
(lp1535
(isrc.gp1.models.Salary
Salary
p1536
(dp1537
g42
S'Milwaukee Bucks'
p1538
sg28
S'NBA'
p1539
sg1534
S'$90,000'
p1540
sg56
S'1985-86'
p1541
sba(isrc.gp1.models.Salary
Salary
p1542
(dp1543
g42
S'Chicago Bulls'
p1544
sg28
S'NBA'
p1545
sg1534
S'$150,000'
p1546
sg56
S'1988-89'
p1547
sbasg22
S'F'
p1548
sb.