(isrc.gp1.models.Player
Player
p0
(dp1
S'_experience'
p2
S'NA'
p3
sS'_totals'
p4
(lp5
(isrc.gp1.models.Totals
Totals
p6
(dp7
S'_offensiveRebounds'
p8
g3
sS'_threePointsAttempted'
p9
S'.417'
p10
sS'_fieldGoalsPercentage'
p11
S'295'
p12
sS'_assist'
p13
g3
sS'_threePointsPercentage'
p14
S'.417'
p15
sS'_threePoints'
p16
S'708'
p17
sS'_points'
p18
g3
sS'_position'
p19
S'SG'
p20
sS'_freeThrowsPercentage'
p21
S'778'
p22
sS'_effectiveFieldGoalPercentage'
p23
S'258'
p24
sS'_league'
p25
S'NBA'
p26
sS'_steals'
p27
g3
sS'_fieldGoalsAttempted'
p28
S'.417'
p29
sS'_personalFouls'
p30
g3
sS'_freeThrowsAttempted'
p31
S'201'
p32
sS'_totalRebounds'
p33
g3
sS'_age'
p34
S'22'
p35
sS'_team'
p36
S'STL'
p37
sS'_games'
p38
S'77'
p39
sS'_blocks'
p40
g3
sS'_twoPoints'
p41
S'188'
p42
sS'_freeThrows'
p43
S'252'
p44
sS'_twoPointsAttempted'
p45
S'261'
p46
sS'_defensiveRebounds'
p47
g3
sS'_season'
p48
S'1962-63'
p49
sS'_fieldGoals'
p50
S'708'
p51
sS'_turnOvers'
p52
g3
sS'_twoPointsPercentage'
p53
S'.720'
p54
sS'_minutesPlayed'
p55
S'295'
p56
sS'_gamesStarted'
p57
S'1845'
p58
sba(isrc.gp1.models.Totals
Totals
p59
(dp60
g8
g3
sg9
S'.442'
p61
sg11
S'238'
p62
sg13
g3
sg14
S'.442'
p63
sg16
S'538'
p64
sg18
g3
sg19
S'SG'
p65
sg21
S'583'
p66
sg23
S'126'
p67
sg25
S'NBA'
p68
sg27
g3
sg28
S'.442'
p69
sg30
g3
sg31
S'166'
p70
sg33
g3
sg34
S'23'
p71
sg36
S'STL'
p72
sg38
S'68'
p73
sg40
g3
sg41
S'107'
p74
sg43
S'129'
p75
sg45
S'148'
p76
sg47
g3
sg48
S'1963-64'
p77
sg50
S'538'
p78
sg52
g3
sg53
S'.723'
p79
sg55
S'238'
p80
sg57
S'1340'
p81
sba(isrc.gp1.models.Totals
Totals
p82
(dp83
g8
g3
sg9
S'.424'
p84
sg11
S'344'
p85
sg13
g3
sg14
S'.424'
p86
sg16
S'811'
p87
sg18
g3
sg19
S'SG'
p88
sg21
S'870'
p89
sg23
S'173'
p90
sg25
S'NBA'
p91
sg27
g3
sg28
S'.424'
p92
sg30
g3
sg31
S'192'
p93
sg33
g3
sg34
S'24'
p94
sg36
S'STL'
p95
sg38
S'75'
p96
sg40
g3
sg41
S'182'
p97
sg43
S'157'
p98
sg45
S'242'
p99
sg47
g3
sg48
S'1964-65'
p100
sg50
S'811'
p101
sg52
g3
sg53
S'.752'
p102
sg55
S'344'
p103
sg57
S'1965'
p104
sba(isrc.gp1.models.Totals
Totals
p105
(dp106
g8
g3
sg9
S'.384'
p107
sg11
S'182'
p108
sg13
g3
sg14
S'.384'
p109
sg16
S'474'
p110
sg18
g3
sg19
S'PG'
p111
sg21
S'470'
p112
sg23
S'109'
p113
sg25
S'NBA'
p114
sg27
g3
sg28
S'.384'
p115
sg30
g3
sg31
S'99'
p116
sg33
g3
sg34
S'25'
p117
sg36
S'TOT'
p118
sg38
S'56'
p119
sg40
g3
sg41
S'106'
p120
sg43
S'140'
p121
sg45
S'144'
p122
sg47
g3
sg48
S'1965-66'
p123
sg50
S'474'
p124
sg52
g3
sg53
S'.736'
p125
sg55
S'182'
p126
sg57
S'1219'
p127
sba(isrc.gp1.models.Totals
Totals
p128
(dp129
g8
g3
sg9
S'.375'
p130
sg11
S'72'
p131
sg13
g3
sg14
S'.375'
p132
sg16
S'192'
p133
sg18
g3
sg19
S'PG'
p134
sg21
S'190'
p135
sg23
S'46'
p136
sg25
S'NBA'
p137
sg27
g3
sg28
S'.375'
p138
sg30
g3
sg31
S'39'
p139
sg33
g3
sg34
S'25'
p140
sg36
S'STL'
p141
sg38
S'19'
p142
sg40
g3
sg41
S'46'
p143
sg43
S'36'
p144
sg45
S'62'
p145
sg47
g3
sg48
S'1965-66'
p146
sg50
S'192'
p147
sg52
g3
sg53
S'.742'
p148
sg55
S'72'
p149
sg57
S'445'
p150
sba(isrc.gp1.models.Totals
Totals
p151
(dp152
g8
g3
sg9
S'.390'
p153
sg11
S'110'
p154
sg13
g3
sg14
S'.390'
p155
sg16
S'282'
p156
sg18
g3
sg19
S'PG'
p157
sg21
S'280'
p158
sg23
S'63'
p159
sg25
S'NBA'
p160
sg27
g3
sg28
S'.390'
p161
sg30
g3
sg31
S'60'
p162
sg33
g3
sg34
S'25'
p163
sg36
S'DET'
p164
sg38
S'37'
p165
sg40
g3
sg41
S'60'
p166
sg43
S'104'
p167
sg45
S'82'
p168
sg47
g3
sg48
S'1965-66'
p169
sg50
S'282'
p170
sg52
g3
sg53
S'.732'
p171
sg55
S'110'
p172
sg57
S'774'
p173
sba(isrc.gp1.models.Totals
Totals
p174
(dp175
g8
g3
sg9
S'.376'
p176
sg11
S'85'
p177
sg13
g3
sg14
S'.376'
p178
sg16
S'226'
p179
sg18
g3
sg19
S'SG'
p180
sg21
S'220'
p181
sg23
S'67'
p182
sg25
S'NBA'
p183
sg27
g3
sg28
S'.376'
p184
sg30
g3
sg31
S'54'
p185
sg33
g3
sg34
S'26'
p186
sg36
S'DET'
p187
sg38
S'51'
p188
sg40
g3
sg41
S'50'
p189
sg43
S'75'
p190
sg45
S'74'
p191
sg47
g3
sg48
S'1966-67'
p192
sg50
S'226'
p193
sg52
g3
sg53
S'.676'
p194
sg55
S'85'
p195
sg57
S'680'
p196
sba(isrc.gp1.models.Totals
Totals
p197
(dp198
g8
S'171'
p199
sg9
S'375'
p200
sg11
S'410'
p201
sg13
g3
sg14
S'940'
p202
sg16
S'.334'
p203
sg18
g3
sg19
S'74'
p204
sg21
S'142'
p205
sg23
S'416'
p206
sg25
S'SG'
p207
sg27
g3
sg28
S'137'
p208
sg30
g3
sg31
S'298'
p209
sg33
S'1469'
p210
sg34
S'PTP'
p211
sg36
S'ABA'
p212
sg38
S'2858'
p213
sg40
g3
sg41
S'.399'
p214
sg43
S'.740'
p215
sg45
S'.430'
p216
sg47
S'203'
p217
sg48
S'27'
p218
sg50
S'.379'
p219
sg52
g3
sg53
S'308'
p220
sg55
S'1350'
p221
sg57
S'512'
p222
sba(isrc.gp1.models.Totals
Totals
p223
(dp224
g8
S'121'
p225
sg9
S'.277'
p226
sg11
S'145'
p227
sg13
S'150'
p228
sg14
S'270'
p229
sg16
S'523'
p230
sg18
g3
sg19
S'SG'
p231
sg21
S'44'
p232
sg23
S'253'
p233
sg25
S'ABA'
p234
sg27
S'178'
p235
sg28
S'.355'
p236
sg30
g3
sg31
S'.769'
p237
sg33
S'107'
p238
sg34
S'28'
p239
sg36
S'MNP'
p240
sg38
S'69'
p241
sg40
S'1228'
p242
sg41
S'647'
p243
sg43
S'329'
p244
sg45
S'.417'
p245
sg47
S'165'
p246
sg48
S'1968-69'
p247
sg50
S'1170'
p248
sg52
g3
sg53
S'.417'
p249
sg55
S'415'
p250
sg57
S'2301'
p251
sba(isrc.gp1.models.Totals
Totals
p252
(dp253
g8
S'11'
p254
sg9
S'.293'
p255
sg11
S'24'
p256
sg13
S'23'
p257
sg14
S'42'
p258
sg16
S'82'
p259
sg18
g3
sg19
S'SG'
p260
sg21
S'17'
p261
sg23
S'48'
p262
sg25
S'ABA'
p263
sg27
S'53'
p264
sg28
S'.367'
p265
sg30
g3
sg31
S'.686'
p266
sg33
S'22'
p267
sg34
S'29'
p268
sg36
S'PTP'
p269
sg38
S'21'
p270
sg40
S'204'
p271
sg41
S'98'
p272
sg43
S'70'
p273
sg45
S'.429'
p274
sg47
S'28'
p275
sg48
S'1969-70'
p276
sg50
S'180'
p277
sg52
g3
sg53
S'.433'
p278
sg55
S'66'
p279
sg57
S'401'
p280
sbasS'_college'
p281
S'Southern Illinois University'
p282
sS'_toYear'
p283
S'1970'
p284
sS'_height'
p285
S'6-2'
p286
sS'_active'
p287
I00
sS'_shootingHand'
p288
VRight
p289
sS'_name'
p290
S'Chico Vaughn'
p291
sS'_per100Possessions'
p292
(lp293
sS'_advanced'
p294
(lp295
(isrc.gp1.models.Advanced
Advanced
p296
(dp297
S'_offensiveReboundPercentage'
p298
S'2.4'
p299
sS'_turnOverPercentage'
p300
g3
sS'_winSharesPer48Minutes'
p301
g3
sS'_stealPercentage'
p302
g3
sS'_usagePercentage'
p303
g3
sS'_totalReboundsPercentage'
p304
S'.090'
p305
sS'_defensiveBoxPlusMinus'
p306
g3
sg19
S'SG'
p307
sS'_valueOverReplacementPlayer'
p308
g3
sS'_trueShootingPercentage'
p309
S'.473'
p310
sS'_defensiveReboundPercentage'
p311
S'3.4'
p312
sS'_freeThrowsAttempRate'
p313
S'1.0'
p314
sS'_threePointsAttempRate'
p315
S'.369'
p316
sg25
S'NBA'
p317
sS'_offensiveBoxPlusMinues'
p318
g3
sS'_assistPercentage'
p319
g3
sS'_defensiveWinShares'
p320
g3
sg34
S'22'
p321
sg36
S'STL'
p322
sg38
S'77'
p323
sS'_blockPercentage'
p324
g3
sS'_playerEfficiencyRating'
p325
S'13.2'
p326
sS'_offensiveWinShares'
p327
g3
sg55
S'1845'
p328
sS'_boxPlusMinus'
p329
g3
sg48
S'1962-63'
p330
sS'_winShares'
p331
g3
sba(isrc.gp1.models.Advanced
Advanced
p332
(dp333
g298
S'1.1'
p334
sg300
g3
sg301
g3
sg302
g3
sg303
g3
sg304
S'.084'
p335
sg306
g3
sg19
S'SG'
p336
sg308
g3
sg309
S'.483'
p337
sg311
S'2.3'
p338
sg313
S'1.3'
p339
sg315
S'.275'
p340
sg25
S'NBA'
p341
sg318
g3
sg319
g3
sg320
g3
sg34
S'23'
p342
sg36
S'STL'
p343
sg38
S'68'
p344
sg324
g3
sg325
S'11.5'
p345
sg327
g3
sg55
S'1340'
p346
sg329
g3
sg48
S'1963-64'
p347
sg331
g3
sba(isrc.gp1.models.Advanced
Advanced
p348
(dp349
g298
S'1.8'
p350
sg300
g3
sg301
g3
sg302
g3
sg303
g3
sg304
S'3.4'
p351
sg306
g3
sg19
S'SG'
p352
sg308
g3
sg309
S'.474'
p353
sg311
S'1.7'
p354
sg313
S'11.8'
p355
sg315
S'.298'
p356
sg25
S'NBA'
p357
sg318
g3
sg319
S'.084'
p358
sg320
g3
sg34
S'24'
p359
sg36
S'STL'
p360
sg38
S'75'
p361
sg324
g3
sg325
S'11.8'
p362
sg327
g3
sg55
S'1965'
p363
sg329
g3
sg48
S'1964-65'
p364
sg331
g3
sba(isrc.gp1.models.Advanced
Advanced
p365
(dp366
g298
S'-0.2'
p367
sg300
g3
sg301
g3
sg302
g3
sg303
g3
sg304
S'0.8'
p368
sg306
g3
sg19
S'PG'
p369
sg308
g3
sg309
S'.437'
p370
sg311
S'1.0'
p371
sg313
S'15.3'
p372
sg315
S'.304'
p373
sg25
S'NBA'
p374
sg318
g3
sg319
S'.031'
p375
sg320
g3
sg34
S'25'
p376
sg36
S'TOT'
p377
sg38
S'56'
p378
sg324
g3
sg325
S'10.3'
p379
sg327
g3
sg55
S'1219'
p380
sg329
g3
sg48
S'1965-66'
p381
sg331
g3
sba(isrc.gp1.models.Advanced
Advanced
p382
(dp383
g298
S'-0.2'
p384
sg300
g3
sg301
g3
sg302
g3
sg303
g3
sg304
S'0.1'
p385
sg306
g3
sg19
S'PG'
p386
sg308
g3
sg309
S'.433'
p387
sg311
S'0.3'
p388
sg313
S'11.3'
p389
sg315
S'.323'
p390
sg25
S'NBA'
p391
sg318
g3
sg319
S'.010'
p392
sg320
g3
sg34
S'25'
p393
sg36
S'STL'
p394
sg38
S'19'
p395
sg324
g3
sg325
S'10.0'
p396
sg327
g3
sg55
S'445'
p397
sg329
g3
sg48
S'1965-66'
p398
sg331
g3
sba(isrc.gp1.models.Advanced
Advanced
p399
(dp400
g298
S'-0.1'
p401
sg300
g3
sg301
g3
sg302
g3
sg303
g3
sg304
S'0.7'
p402
sg306
g3
sg19
S'PG'
p403
sg308
g3
sg309
S'.440'
p404
sg311
S'0.8'
p405
sg313
S'17.6'
p406
sg315
S'.291'
p407
sg25
S'NBA'
p408
sg318
g3
sg319
S'.044'
p409
sg320
g3
sg34
S'25'
p410
sg36
S'DET'
p411
sg38
S'37'
p412
sg324
g3
sg325
S'10.5'
p413
sg327
g3
sg55
S'774'
p414
sg329
g3
sg48
S'1965-66'
p415
sg331
g3
sba(isrc.gp1.models.Advanced
Advanced
p416
(dp417
g298
S'-0.4'
p418
sg300
g3
sg301
g3
sg302
g3
sg303
g3
sg304
S'0.4'
p419
sg306
g3
sg19
S'SG'
p420
sg308
g3
sg309
S'.425'
p421
sg311
S'0.7'
p422
sg313
S'14.2'
p423
sg315
S'.327'
p424
sg25
S'NBA'
p425
sg318
g3
sg319
S'.026'
p426
sg320
g3
sg34
S'26'
p427
sg36
S'DET'
p428
sg38
S'51'
p429
sg324
g3
sg325
S'9.1'
p430
sg327
g3
sg55
S'680'
p431
sg329
g3
sg48
S'1966-67'
p432
sg331
g3
sba(isrc.gp1.models.Advanced
Advanced
p433
(dp434
g298
S'7.3'
p435
sg300
S'.082'
p436
sg301
g3
sg302
S'1.9'
p437
sg303
g3
sg304
S'22.2'
p438
sg306
g3
sg19
S'74'
p439
sg308
g3
sg309
S'.304'
p440
sg311
S'10.0'
p441
sg313
S'4.4'
p442
sg315
S'.308'
p443
sg25
S'SG'
p444
sg318
g3
sg319
S'3.0'
p445
sg320
g3
sg34
S'PTP'
p446
sg36
S'ABA'
p447
sg38
S'2858'
p448
sg324
S'4.9'
p449
sg325
S'.479'
p450
sg327
g3
sg55
S'13.7'
p451
sg329
g3
sg48
S'27'
p452
sg331
g3
sba(isrc.gp1.models.Advanced
Advanced
p453
(dp454
g298
S'3.2'
p455
sg300
S'2.3'
p456
sg301
g3
sg302
S'0.3'
p457
sg303
S'.049'
p458
sg304
S'10.2'
p459
sg306
g3
sg19
S'SG'
p460
sg308
g3
sg309
S'.467'
p461
sg311
S'6.7'
p462
sg313
S'.281'
p463
sg315
S'.447'
p464
sg25
S'ABA'
p465
sg318
g3
sg319
S'22.6'
p466
sg320
g3
sg34
S'28'
p467
sg36
S'MNP'
p468
sg38
S'69'
p469
sg324
S'2.0'
p470
sg325
S'11.7'
p471
sg327
g3
sg55
S'2301'
p472
sg329
g3
sg48
S'1968-69'
p473
sg331
g3
sba(isrc.gp1.models.Advanced
Advanced
p474
(dp475
g298
S'3.0'
p476
sg300
S'0.4'
p477
sg301
g3
sg302
S'0.2'
p478
sg303
S'.045'
p479
sg304
S'9.8'
p480
sg306
g3
sg19
S'SG'
p481
sg308
g3
sg309
S'.484'
p482
sg311
S'7.3'
p483
sg313
S'.389'
p484
sg315
S'.456'
p485
sg25
S'ABA'
p486
sg318
g3
sg319
S'21.0'
p487
sg320
g3
sg34
S'29'
p488
sg36
S'PTP'
p489
sg38
S'21'
p490
sg324
S'0.2'
p491
sg325
S'11.2'
p492
sg327
g3
sg55
S'401'
p493
sg329
g3
sg48
S'1969-70'
p494
sg331
g3
sbasS'_per36Minutes'
p495
(lp496
(isrc.gp1.models.Per36Minutes
Per36Minutes
p497
(dp498
g8
g3
sg9
S'.417'
p499
sg11
S'5.8'
p500
sg13
g3
sg14
S'3.7'
p501
sg16
S'13.8'
p502
sg18
g3
sg19
S'SG'
p503
sg21
S'15.2'
p504
sg25
S'NBA'
p505
sg27
g3
sg28
S'.417'
p506
sg30
g3
sg31
S'3.9'
p507
sg33
g3
sg34
S'22'
p508
sg36
S'STL'
p509
sg38
S'77'
p510
sg40
g3
sg41
S'5.1'
p511
sg43
S'4.9'
p512
sg45
S'.720'
p513
sg47
g3
sg48
S'1962-63'
p514
sg50
S'13.8'
p515
sg52
g3
sg53
S'5.0'
p516
sg55
S'5.8'
p517
sg57
S'1845'
p518
sba(isrc.gp1.models.Per36Minutes
Per36Minutes
p519
(dp520
g8
g3
sg9
S'.442'
p521
sg11
S'6.4'
p522
sg13
g3
sg14
S'2.9'
p523
sg16
S'14.5'
p524
sg18
g3
sg19
S'SG'
p525
sg21
S'15.7'
p526
sg25
S'NBA'
p527
sg27
g3
sg28
S'.442'
p528
sg30
g3
sg31
S'4.5'
p529
sg33
g3
sg34
S'23'
p530
sg36
S'STL'
p531
sg38
S'68'
p532
sg40
g3
sg41
S'4.0'
p533
sg43
S'3.5'
p534
sg45
S'.723'
p535
sg47
g3
sg48
S'1963-64'
p536
sg50
S'14.5'
p537
sg52
g3
sg53
S'3.4'
p538
sg55
S'6.4'
p539
sg57
S'1340'
p540
sba(isrc.gp1.models.Per36Minutes
Per36Minutes
p541
(dp542
g8
g3
sg9
S'.424'
p543
sg11
S'6.3'
p544
sg13
g3
sg14
S'3.3'
p545
sg16
S'14.9'
p546
sg18
g3
sg19
S'SG'
p547
sg21
S'15.9'
p548
sg25
S'NBA'
p549
sg27
g3
sg28
S'.424'
p550
sg30
g3
sg31
S'3.5'
p551
sg33
g3
sg34
S'24'
p552
sg36
S'STL'
p553
sg38
S'75'
p554
sg40
g3
sg41
S'4.4'
p555
sg43
S'2.9'
p556
sg45
S'.752'
p557
sg47
g3
sg48
S'1964-65'
p558
sg50
S'14.9'
p559
sg52
g3
sg53
S'3.2'
p560
sg55
S'6.3'
p561
sg57
S'1965'
p562
sba(isrc.gp1.models.Per36Minutes
Per36Minutes
p563
(dp564
g8
g3
sg9
S'.384'
p565
sg11
S'5.4'
p566
sg13
g3
sg14
S'3.1'
p567
sg16
S'14.0'
p568
sg18
g3
sg19
S'PG'
p569
sg21
S'13.9'
p570
sg25
S'NBA'
p571
sg27
g3
sg28
S'.384'
p572
sg30
g3
sg31
S'2.9'
p573
sg33
g3
sg34
S'25'
p574
sg36
S'TOT'
p575
sg38
S'56'
p576
sg40
g3
sg41
S'4.3'
p577
sg43
S'4.1'
p578
sg45
S'.736'
p579
sg47
g3
sg48
S'1965-66'
p580
sg50
S'14.0'
p581
sg52
g3
sg53
S'3.2'
p582
sg55
S'5.4'
p583
sg57
S'1219'
p584
sba(isrc.gp1.models.Per36Minutes
Per36Minutes
p585
(dp586
g8
g3
sg9
S'.375'
p587
sg11
S'5.8'
p588
sg13
g3
sg14
S'3.7'
p589
sg16
S'15.5'
p590
sg18
g3
sg19
S'PG'
p591
sg21
S'15.4'
p592
sg25
S'NBA'
p593
sg27
g3
sg28
S'.375'
p594
sg30
g3
sg31
S'3.2'
p595
sg33
g3
sg34
S'25'
p596
sg36
S'STL'
p597
sg38
S'19'
p598
sg40
g3
sg41
S'5.0'
p599
sg43
S'2.9'
p600
sg45
S'.742'
p601
sg47
g3
sg48
S'1965-66'
p602
sg50
S'15.5'
p603
sg52
g3
sg53
S'3.7'
p604
sg55
S'5.8'
p605
sg57
S'445'
p606
sba(isrc.gp1.models.Per36Minutes
Per36Minutes
p607
(dp608
g8
g3
sg9
S'.390'
p609
sg11
S'5.1'
p610
sg13
g3
sg14
S'2.8'
p611
sg16
S'13.1'
p612
sg18
g3
sg19
S'PG'
p613
sg21
S'13.0'
p614
sg25
S'NBA'
p615
sg27
g3
sg28
S'.390'
p616
sg30
g3
sg31
S'2.8'
p617
sg33
g3
sg34
S'25'
p618
sg36
S'DET'
p619
sg38
S'37'
p620
sg40
g3
sg41
S'3.8'
p621
sg43
S'4.8'
p622
sg45
S'.732'
p623
sg47
g3
sg48
S'1965-66'
p624
sg50
S'13.1'
p625
sg52
g3
sg53
S'2.9'
p626
sg55
S'5.1'
p627
sg57
S'774'
p628
sba(isrc.gp1.models.Per36Minutes
Per36Minutes
p629
(dp630
g8
g3
sg9
S'.376'
p631
sg11
S'4.5'
p632
sg13
g3
sg14
S'2.6'
p633
sg16
S'12.0'
p634
sg18
g3
sg19
S'SG'
p635
sg21
S'11.6'
p636
sg25
S'NBA'
p637
sg27
g3
sg28
S'.376'
p638
sg30
g3
sg31
S'2.9'
p639
sg33
g3
sg34
S'26'
p640
sg36
S'DET'
p641
sg38
S'51'
p642
sg40
g3
sg41
S'3.9'
p643
sg43
S'4.0'
p644
sg45
S'.676'
p645
sg47
g3
sg48
S'1966-67'
p646
sg50
S'12.0'
p647
sg52
g3
sg53
S'3.5'
p648
sg55
S'4.5'
p649
sg57
S'680'
p650
sba(isrc.gp1.models.Per36Minutes
Per36Minutes
p651
(dp652
g8
S'2.2'
p653
sg9
S'4.7'
p654
sg11
S'5.2'
p655
sg13
g3
sg14
S'11.8'
p656
sg16
S'.334'
p657
sg18
g3
sg19
S'74'
p658
sg21
S'1.8'
p659
sg25
S'SG'
p660
sg27
g3
sg28
S'1.7'
p661
sg30
g3
sg31
S'3.8'
p662
sg33
S'18.5'
p663
sg34
S'PTP'
p664
sg36
S'ABA'
p665
sg38
S'2858'
p666
sg40
g3
sg41
S'.399'
p667
sg43
S'.740'
p668
sg45
S'3.9'
p669
sg47
S'2.6'
p670
sg48
S'27'
p671
sg50
S'.379'
p672
sg52
g3
sg53
S'5.2'
p673
sg55
S'17.0'
p674
sg57
S'6.4'
p675
sba(isrc.gp1.models.Per36Minutes
Per36Minutes
p676
(dp677
g8
S'1.9'
p678
sg9
S'.277'
p679
sg11
S'2.3'
p680
sg13
S'2.3'
p681
sg14
S'4.2'
p682
sg16
S'8.2'
p683
sg18
g3
sg19
S'SG'
p684
sg21
S'0.7'
p685
sg25
S'ABA'
p686
sg27
S'2.8'
p687
sg28
S'.355'
p688
sg30
g3
sg31
S'.769'
p689
sg33
S'1.7'
p690
sg34
S'28'
p691
sg36
S'MNP'
p692
sg38
S'69'
p693
sg40
S'19.2'
p694
sg41
S'10.1'
p695
sg43
S'5.1'
p696
sg45
S'.417'
p697
sg47
S'2.6'
p698
sg48
S'1968-69'
p699
sg50
S'18.3'
p700
sg52
g3
sg53
S'4.0'
p701
sg55
S'6.5'
p702
sg57
S'2301'
p703
sba(isrc.gp1.models.Per36Minutes
Per36Minutes
p704
(dp705
g8
S'1.0'
p706
sg9
S'.293'
p707
sg11
S'2.2'
p708
sg13
S'2.1'
p709
sg14
S'3.8'
p710
sg16
S'7.4'
p711
sg18
g3
sg19
S'SG'
p712
sg21
S'1.5'
p713
sg25
S'ABA'
p714
sg27
S'4.8'
p715
sg28
S'.367'
p716
sg30
g3
sg31
S'.686'
p717
sg33
S'2.0'
p718
sg34
S'29'
p719
sg36
S'PTP'
p720
sg38
S'21'
p721
sg40
S'18.3'
p722
sg41
S'8.8'
p723
sg43
S'6.3'
p724
sg45
S'.429'
p725
sg47
S'2.5'
p726
sg48
S'1969-70'
p727
sg50
S'16.2'
p728
sg52
g3
sg53
S'4.3'
p729
sg55
S'5.9'
p730
sg57
S'401'
p731
sbasS'_fromYear'
p732
S'1963'
p733
sS'_url'
p734
S'http://www.basketball-reference.com/players/v/vaughch01.html'
p735
sS'_perGame'
p736
(isrc.gp1.models.PerGame
PerGame
p737
(dp738
g8
S'0.5'
p739
sg9
S'.293'
p740
sg11
S'1.1'
p741
sS'_effectiveFieldGalPercentage'
p742
S'2.3'
p743
sg13
S'1.1'
p744
sg14
S'2.0'
p745
sg16
S'3.9'
p746
sg18
g3
sg19
S'SG'
p747
sg21
S'0.8'
p748
sg25
S'ABA'
p749
sg27
S'2.5'
p750
sg30
g3
sS'_fieldGoalsttempted'
p751
S'.367'
p752
sg31
S'.686'
p753
sg33
S'1.0'
p754
sg34
S'29'
p755
sg36
S'PTP'
p756
sg38
S'21'
p757
sg40
S'9.7'
p758
sg41
S'4.7'
p759
sg43
S'3.3'
p760
sg45
S'.429'
p761
sg47
S'1.3'
p762
sg48
S'1969-70'
p763
sg50
S'8.6'
p764
sg52
g3
sg53
S'.433'
p765
sg55
S'3.1'
p766
sg57
S'19.1'
p767
sbsS'_weight'
p768
S'190'
p769
sS'_dob'
p770
S'19-2-1940'
p771
sS'_salary'
p772
(lp773
sg19
S'G'
p774
sb.