(isrc.gp1.models.Player
Player
p0
(dp1
S'_experience'
p2
S'NA'
p3
sS'_totals'
p4
(lp5
(isrc.gp1.models.Totals
Totals
p6
(dp7
S'_offensiveRebounds'
p8
S'143'
p9
sS'_threePointsAttempted'
p10
S'1'
p11
sS'_fieldGoalsPercentage'
p12
S'.514'
p13
sS'_assist'
p14
S'95'
p15
sS'_threePointsPercentage'
p16
S'.000'
p17
sS'_threePoints'
p18
S'0'
p19
sS'_points'
p20
S'932'
p21
sS'_position'
p22
S'PF'
p23
sS'_freeThrowsPercentage'
p24
S'.592'
p25
sS'_effectiveFieldGoalPercentage'
p26
S'.514'
p27
sS'_league'
p28
S'ABA'
p29
sS'_steals'
p30
g3
sS'_fieldGoalsAttempted'
p31
S'769'
p32
sS'_personalFouls'
p33
S'291'
p34
sS'_freeThrowsAttempted'
p35
S'240'
p36
sS'_totalRebounds'
p37
S'586'
p38
sS'_age'
p39
S'23'
p40
sS'_team'
p41
S'NYA'
p42
sS'_games'
p43
S'82'
p44
sS'_blocks'
p45
g3
sS'_twoPoints'
p46
S'395'
p47
sS'_freeThrows'
p48
S'142'
p49
sS'_twoPointsAttempted'
p50
S'768'
p51
sS'_defensiveRebounds'
p52
S'443'
p53
sS'_season'
p54
S'1972-73'
p55
sS'_fieldGoals'
p56
S'395'
p57
sS'_turnOvers'
p58
S'213'
p59
sS'_twoPointsPercentage'
p60
S'.514'
p61
sS'_minutesPlayed'
p62
S'2153'
p63
sS'_gamesStarted'
p64
g3
sba(isrc.gp1.models.Totals
Totals
p65
(dp66
g8
S'191'
p67
sg10
S'2'
p68
sg12
S'.526'
p69
sg14
S'118'
p70
sg16
S'.000'
p71
sg18
g19
sg20
S'1225'
p72
sg22
S'C'
p73
sg24
S'.615'
p74
sg26
S'.526'
p75
sg28
S'ABA'
p76
sg30
S'59'
p77
sg31
S'1017'
p78
sg33
S'347'
p79
sg35
S'252'
p80
sg37
S'645'
p81
sg39
S'24'
p82
sg41
S'CAR'
p83
sg43
S'83'
p84
sg45
S'131'
p85
sg46
S'535'
p86
sg48
S'155'
p87
sg50
S'1015'
p88
sg52
S'454'
p89
sg54
S'1973-74'
p90
sg56
S'535'
p91
sg58
S'206'
p92
sg60
S'.527'
p93
sg62
S'2387'
p94
sg64
g3
sba(isrc.gp1.models.Totals
Totals
p95
(dp96
g8
S'156'
p97
sg10
g3
sg12
S'.487'
p98
sg14
S'132'
p99
sg16
g3
sg18
g3
sg20
S'1044'
p100
sg22
g73
sg24
S'.679'
p101
sg26
S'.487'
p102
sg28
S'NBA'
p103
sg30
S'49'
p104
sg31
S'916'
p105
sg33
S'247'
p106
sg35
S'224'
p107
sg37
S'677'
p108
sg39
S'25'
p109
sg41
S'CLE'
p110
sg43
S'72'
p111
sg45
S'120'
p112
sg46
S'446'
p113
sg48
S'152'
p114
sg50
S'916'
p115
sg52
S'521'
p116
sg54
S'1974-75'
p117
sg56
S'446'
p118
sg58
g3
sg60
S'.487'
p119
sg62
S'2427'
p120
sg64
g3
sba(isrc.gp1.models.Totals
Totals
p121
(dp122
g8
S'197'
p123
sg10
g3
sg12
S'.448'
p124
sg14
S'163'
p125
sg16
g3
sg18
g3
sg20
S'1298'
p126
sg22
g73
sg24
S'.662'
p127
sg26
S'.448'
p128
sg28
S'NBA'
p129
sg30
S'42'
p130
sg31
S'1258'
p131
sg33
S'241'
p132
sg35
S'260'
p133
sg37
S'739'
p134
sg39
S'26'
p135
sg41
S'CLE'
p136
sg43
S'82'
p137
sg45
S'93'
p138
sg46
S'563'
p139
sg48
S'172'
p140
sg50
S'1258'
p141
sg52
S'542'
p142
sg54
S'1975-76'
p143
sg56
S'563'
p144
sg58
g3
sg60
S'.448'
p145
sg62
S'2741'
p146
sg64
g3
sba(isrc.gp1.models.Totals
Totals
p147
(dp148
g8
S'208'
p149
sg10
g3
sg12
S'.463'
p150
sg14
S'104'
p151
sg16
g3
sg18
g3
sg20
S'1055'
p152
sg22
g73
sg24
S'.731'
p153
sg26
S'.463'
p154
sg28
S'NBA'
p155
sg30
S'32'
p156
sg31
S'972'
p157
sg33
S'258'
p158
sg35
S'212'
p159
sg37
S'688'
p160
sg39
S'27'
p161
sg41
S'CLE'
p162
sg43
S'82'
p163
sg45
S'77'
p164
sg46
S'450'
p165
sg48
S'155'
p166
sg50
S'972'
p167
sg52
S'480'
p168
sg54
S'1976-77'
p169
sg56
S'450'
p170
sg58
g3
sg60
S'.463'
p171
sg62
S'2378'
p172
sg64
g3
sba(isrc.gp1.models.Totals
Totals
p173
(dp174
g8
S'219'
p175
sg10
g3
sg12
S'.472'
p176
sg14
S'131'
p177
sg16
g3
sg18
g3
sg20
S'1230'
p178
sg22
g73
sg24
S'.720'
p179
sg26
S'.472'
p180
sg28
S'NBA'
p181
sg30
S'52'
p182
sg31
S'1113'
p183
sg33
S'235'
p184
sg35
S'250'
p185
sg37
S'844'
p186
sg39
S'28'
p187
sg41
S'CLE'
p188
sg43
S'82'
p189
sg45
S'58'
p190
sg46
S'525'
p191
sg48
S'180'
p192
sg50
S'1113'
p193
sg52
S'625'
p194
sg54
S'1977-78'
p195
sg56
S'525'
p196
sg58
S'184'
p197
sg60
S'.472'
p198
sg62
S'2906'
p199
sg64
g3
sba(isrc.gp1.models.Totals
Totals
p200
(dp201
g8
S'260'
p202
sg10
g3
sg12
S'.440'
p203
sg14
S'181'
p204
sg16
g3
sg18
g3
sg20
S'1102'
p205
sg22
g73
sg24
S'.735'
p206
sg26
S'.440'
p207
sg28
S'NBA'
p208
sg30
S'47'
p209
sg31
S'1073'
p210
sg33
S'278'
p211
sg35
S'215'
p212
sg37
S'842'
p213
sg39
S'29'
p214
sg41
S'CLE'
p215
sg43
S'82'
p216
sg45
S'102'
p217
sg46
S'472'
p218
sg48
S'158'
p219
sg50
S'1073'
p220
sg52
S'582'
p221
sg54
S'1978-79'
p222
sg56
S'472'
p223
sg58
S'187'
p224
sg60
S'.440'
p225
sg62
S'2850'
p226
sg64
g3
sba(isrc.gp1.models.Totals
Totals
p227
(dp228
g8
S'143'
p229
sg10
g68
sg12
S'.489'
p230
sg14
S'151'
p231
sg16
S'.000'
p232
sg18
g19
sg20
S'869'
p233
sg22
g73
sg24
S'.740'
p234
sg26
S'.489'
p235
sg28
S'NBA'
p236
sg30
S'56'
p237
sg31
S'760'
p238
sg33
S'271'
p239
sg35
S'169'
p240
sg37
S'564'
p241
sg39
S'30'
p242
sg41
S'LAL'
p243
sg43
S'82'
p244
sg45
S'65'
p245
sg46
S'372'
p246
sg48
S'125'
p247
sg50
S'758'
p248
sg52
S'421'
p249
sg54
S'1979-80'
p250
sg56
S'372'
p251
sg58
S'175'
p252
sg60
S'.491'
p253
sg62
S'2394'
p254
sg64
g3
sba(isrc.gp1.models.Totals
Totals
p255
(dp256
g8
S'180'
p257
sg10
S'4'
p258
sg12
S'.503'
p259
sg14
S'153'
p260
sg16
S'.000'
p261
sg18
g19
sg20
S'882'
p262
sg22
S'PF'
p263
sg24
S'.653'
p264
sg26
S'.503'
p265
sg28
S'NBA'
p266
sg30
S'39'
p267
sg31
S'751'
p268
sg33
S'324'
p269
sg35
S'193'
p270
sg37
S'657'
p271
sg39
S'31'
p272
sg41
S'LAL'
p273
sg43
S'82'
p274
sg45
S'96'
p275
sg46
S'378'
p276
sg48
S'126'
p277
sg50
S'747'
p278
sg52
S'477'
p279
sg54
S'1980-81'
p280
sg56
S'378'
p281
sg58
S'159'
p282
sg60
S'.506'
p283
sg62
S'2562'
p284
sg64
g3
sba(isrc.gp1.models.Totals
Totals
p285
(dp286
g8
S'39'
p287
sg10
g19
sg12
S'.433'
p288
sg14
S'64'
p289
sg16
g3
sg18
g19
sg20
S'184'
p290
sg22
g73
sg24
S'.783'
p291
sg26
S'.433'
p292
sg28
S'NBA'
p293
sg30
S'15'
p294
sg31
S'171'
p295
sg33
S'114'
p296
sg35
S'46'
p297
sg37
S'185'
p298
sg39
S'32'
p299
sg41
S'WSB'
p300
sg43
S'59'
p301
sg45
S'32'
p302
sg46
S'74'
p303
sg48
S'36'
p304
sg50
S'171'
p305
sg52
S'146'
p306
sg54
S'1981-82'
p307
sg56
S'74'
p308
sg58
S'41'
p309
sg60
S'.433'
p310
sg62
S'867'
p311
sg64
S'13'
p312
sbasS'_college'
p313
S'Marquette University'
p314
sS'_toYear'
p315
S'1982'
p316
sS'_height'
p317
S'6-11'
p318
sS'_active'
p319
I00
sS'_shootingHand'
p320
VRight
p321
sS'_name'
p322
S'Jim Chones'
p323
sS'_per100Possessions'
p324
(lp325
(isrc.gp1.models.Per100Possession
Per100Possession
p326
(dp327
g8
S'3.7'
p328
sg10
S'0.0'
p329
sg12
S'.526'
p330
sS'_offensiveRating'
p331
S'103'
p332
sg14
S'2.3'
p333
sg16
S'.000'
p334
sg18
S'0.0'
p335
sg20
S'23.8'
p336
sg22
g73
sS'_defensiveRating'
p337
S'101'
p338
sg24
S'.615'
p339
sg28
S'ABA'
p340
sg30
S'1.1'
p341
sg31
S'19.7'
p342
sg33
S'6.7'
p343
sg35
S'4.9'
p344
sg37
S'12.5'
p345
sg39
S'24'
p346
sg41
S'CAR'
p347
sg43
S'83'
p348
sg45
S'2.5'
p349
sg46
S'10.4'
p350
sg48
S'3.0'
p351
sg50
S'19.7'
p352
sg52
S'8.8'
p353
sg54
S'1973-74'
p354
sg56
S'10.4'
p355
sg58
S'4.0'
p356
sg60
S'.527'
p357
sg62
S'2387'
p358
sg64
g3
sba(isrc.gp1.models.Per100Possession
Per100Possession
p359
(dp360
g8
S'3.1'
p361
sg10
g3
sg12
S'.487'
p362
sg331
g3
sg14
S'2.6'
p363
sg16
g3
sg18
g3
sg20
S'20.6'
p364
sg22
g73
sg337
S'95'
p365
sg24
S'.679'
p366
sg28
S'NBA'
p367
sg30
S'1.0'
p368
sg31
S'18.0'
p369
sg33
S'4.9'
p370
sg35
S'4.4'
p371
sg37
S'13.3'
p372
sg39
S'25'
p373
sg41
S'CLE'
p374
sg43
S'72'
p375
sg45
S'2.4'
p376
sg46
S'8.8'
p377
sg48
S'3.0'
p378
sg50
S'18.0'
p379
sg52
S'10.3'
p380
sg54
S'1974-75'
p381
sg56
S'8.8'
p382
sg58
g3
sg60
S'.487'
p383
sg62
S'2427'
p384
sg64
g3
sba(isrc.gp1.models.Per100Possession
Per100Possession
p385
(dp386
g8
S'3.4'
p387
sg10
g3
sg12
S'.448'
p388
sg331
g3
sg14
S'2.8'
p389
sg16
g3
sg18
g3
sg20
S'22.4'
p390
sg22
g73
sg337
S'96'
p391
sg24
S'.662'
p392
sg28
S'NBA'
p393
sg30
S'0.7'
p394
sg31
S'21.7'
p395
sg33
S'4.2'
p396
sg35
S'4.5'
p397
sg37
S'12.7'
p398
sg39
S'26'
p399
sg41
S'CLE'
p400
sg43
S'82'
p401
sg45
S'1.6'
p402
sg46
S'9.7'
p403
sg48
S'3.0'
p404
sg50
S'21.7'
p405
sg52
S'9.3'
p406
sg54
S'1975-76'
p407
sg56
S'9.7'
p408
sg58
g3
sg60
S'.448'
p409
sg62
S'2741'
p410
sg64
g3
sba(isrc.gp1.models.Per100Possession
Per100Possession
p411
(dp412
g8
S'4.1'
p413
sg10
g3
sg12
S'.463'
p414
sg331
g3
sg14
S'2.1'
p415
sg16
g3
sg18
g3
sg20
S'21.0'
p416
sg22
g73
sg337
S'98'
p417
sg24
S'.731'
p418
sg28
S'NBA'
p419
sg30
S'0.6'
p420
sg31
S'19.3'
p421
sg33
S'5.1'
p422
sg35
S'4.2'
p423
sg37
S'13.7'
p424
sg39
S'27'
p425
sg41
S'CLE'
p426
sg43
S'82'
p427
sg45
S'1.5'
p428
sg46
S'8.9'
p429
sg48
S'3.1'
p430
sg50
S'19.3'
p431
sg52
S'9.5'
p432
sg54
S'1976-77'
p433
sg56
S'8.9'
p434
sg58
g3
sg60
S'.463'
p435
sg62
S'2378'
p436
sg64
g3
sba(isrc.gp1.models.Per100Possession
Per100Possession
p437
(dp438
g8
S'3.5'
p439
sg10
g3
sg12
S'.472'
p440
sg331
S'100'
p441
sg14
S'2.1'
p442
sg16
g3
sg18
g3
sg20
S'19.6'
p443
sg22
g73
sg337
S'99'
p444
sg24
S'.720'
p445
sg28
S'NBA'
p446
sg30
S'0.8'
p447
sg31
S'17.8'
p448
sg33
S'3.8'
p449
sg35
S'4.0'
p450
sg37
S'13.5'
p451
sg39
S'28'
p452
sg41
S'CLE'
p453
sg43
S'82'
p454
sg45
S'0.9'
p455
sg46
S'8.4'
p456
sg48
S'2.9'
p457
sg50
S'17.8'
p458
sg52
S'10.0'
p459
sg54
S'1977-78'
p460
sg56
S'8.4'
p461
sg58
S'2.9'
p462
sg60
S'.472'
p463
sg62
S'2906'
p464
sg64
g3
sba(isrc.gp1.models.Per100Possession
Per100Possession
p465
(dp466
g8
S'4.3'
p467
sg10
g3
sg12
S'.440'
p468
sg331
S'98'
p469
sg14
S'3.0'
p470
sg16
g3
sg18
g3
sg20
S'18.1'
p471
sg22
g73
sg337
S'106'
p472
sg24
S'.735'
p473
sg28
S'NBA'
p474
sg30
S'0.8'
p475
sg31
S'17.6'
p476
sg33
S'4.6'
p477
sg35
S'3.5'
p478
sg37
S'13.8'
p479
sg39
S'29'
p480
sg41
S'CLE'
p481
sg43
S'82'
p482
sg45
S'1.7'
p483
sg46
S'7.7'
p484
sg48
S'2.6'
p485
sg50
S'17.6'
p486
sg52
S'9.5'
p487
sg54
S'1978-79'
p488
sg56
S'7.7'
p489
sg58
S'3.1'
p490
sg60
S'.440'
p491
sg62
S'2850'
p492
sg64
g3
sba(isrc.gp1.models.Per100Possession
Per100Possession
p493
(dp494
g8
S'2.8'
p495
sg10
S'0.0'
p496
sg12
S'.489'
p497
sg331
S'100'
p498
sg14
S'2.9'
p499
sg16
S'.000'
p500
sg18
S'0.0'
p501
sg20
S'16.7'
p502
sg22
g73
sg337
S'104'
p503
sg24
S'.740'
p504
sg28
S'NBA'
p505
sg30
S'1.1'
p506
sg31
S'14.6'
p507
sg33
S'5.2'
p508
sg35
S'3.3'
p509
sg37
S'10.9'
p510
sg39
S'30'
p511
sg41
S'LAL'
p512
sg43
S'82'
p513
sg45
S'1.3'
p514
sg46
S'7.2'
p515
sg48
S'2.4'
p516
sg50
S'14.6'
p517
sg52
S'8.1'
p518
sg54
S'1979-80'
p519
sg56
S'7.2'
p520
sg58
S'3.4'
p521
sg60
S'.491'
p522
sg62
S'2394'
p523
sg64
g3
sba(isrc.gp1.models.Per100Possession
Per100Possession
p524
(dp525
g8
S'3.3'
p526
sg10
S'0.1'
p527
sg12
S'.503'
p528
sg331
S'103'
p529
sg14
S'2.8'
p530
sg16
S'.000'
p531
sg18
S'0.0'
p532
sg20
S'16.1'
p533
sg22
S'PF'
p534
sg337
S'104'
p535
sg24
S'.653'
p536
sg28
S'NBA'
p537
sg30
S'0.7'
p538
sg31
S'13.7'
p539
sg33
S'5.9'
p540
sg35
S'3.5'
p541
sg37
S'12.0'
p542
sg39
S'31'
p543
sg41
S'LAL'
p544
sg43
S'82'
p545
sg45
S'1.8'
p546
sg46
S'6.9'
p547
sg48
S'2.3'
p548
sg50
S'13.6'
p549
sg52
S'8.7'
p550
sg54
S'1980-81'
p551
sg56
S'6.9'
p552
sg58
S'2.9'
p553
sg60
S'.506'
p554
sg62
S'2562'
p555
sg64
g3
sba(isrc.gp1.models.Per100Possession
Per100Possession
p556
(dp557
g8
S'2.2'
p558
sg10
S'0.0'
p559
sg12
S'.433'
p560
sg331
S'98'
p561
sg14
S'3.6'
p562
sg16
g3
sg18
S'0.0'
p563
sg20
S'10.3'
p564
sg22
g73
sg337
S'102'
p565
sg24
S'.783'
p566
sg28
S'NBA'
p567
sg30
S'0.8'
p568
sg31
S'9.5'
p569
sg33
S'6.4'
p570
sg35
S'2.6'
p571
sg37
S'10.3'
p572
sg39
S'32'
p573
sg41
S'WSB'
p574
sg43
S'59'
p575
sg45
S'1.8'
p576
sg46
S'4.1'
p577
sg48
S'2.0'
p578
sg50
S'9.5'
p579
sg52
S'8.1'
p580
sg54
S'1981-82'
p581
sg56
S'4.1'
p582
sg58
S'2.3'
p583
sg60
S'.433'
p584
sg62
S'867'
p585
sg64
S'13'
p586
sbasS'_advanced'
p587
(lp588
(isrc.gp1.models.Advanced
Advanced
p589
(dp590
S'_offensiveReboundPercentage'
p591
S'7.0'
p592
sS'_turnOverPercentage'
p593
S'19.6'
p594
sS'_winSharesPer48Minutes'
p595
S'.058'
p596
sS'_stealPercentage'
p597
g3
sS'_usagePercentage'
p598
S'20.7'
p599
sS'_totalReboundsPercentage'
p600
S'13.8'
p601
sS'_defensiveBoxPlusMinus'
p602
g3
sg22
S'PF'
p603
sS'_valueOverReplacementPlayer'
p604
g3
sS'_trueShootingPercentage'
p605
S'.533'
p606
sS'_defensiveReboundPercentage'
p607
S'20.3'
p608
sS'_freeThrowsAttempRate'
p609
S'.312'
p610
sS'_threePointsAttempRate'
p611
S'.001'
p612
sg28
S'ABA'
p613
sS'_offensiveBoxPlusMinues'
p614
g3
sS'_assistPercentage'
p615
S'6.7'
p616
sS'_defensiveWinShares'
p617
S'0.2'
p618
sg39
S'23'
p619
sg41
S'NYA'
p620
sg43
S'82'
p621
sS'_blockPercentage'
p622
g3
sS'_playerEfficiencyRating'
p623
S'11.8'
p624
sS'_offensiveWinShares'
p625
S'2.4'
p626
sg62
S'2153'
p627
sS'_boxPlusMinus'
p628
g3
sg54
S'1972-73'
p629
sS'_winShares'
p630
S'2.6'
p631
sba(isrc.gp1.models.Advanced
Advanced
p632
(dp633
g591
S'8.4'
p634
sg593
S'15.4'
p635
sg595
S'.117'
p636
sg597
S'1.1'
p637
sg598
S'21.9'
p638
sg600
S'14.3'
p639
sg602
S'0.3'
p640
sg22
g73
sg604
S'1.0'
p641
sg605
S'.543'
p642
sg607
S'20.2'
p643
sg609
S'.248'
p644
sg611
S'.002'
p645
sg28
S'ABA'
p646
sg614
S'-0.6'
p647
sg615
S'7.2'
p648
sg617
S'3.2'
p649
sg39
S'24'
p650
sg41
S'CAR'
p651
sg43
S'83'
p652
sg622
S'3.1'
p653
sg623
S'16.7'
p654
sg625
S'2.6'
p655
sg62
S'2387'
p656
sg628
S'-0.3'
p657
sg54
S'1973-74'
p658
sg630
S'5.8'
p659
sba(isrc.gp1.models.Advanced
Advanced
p660
(dp661
g591
S'6.8'
p662
sg593
g3
sg595
S'.123'
p663
sg597
S'1.0'
p664
sg598
g3
sg600
S'14.8'
p665
sg602
S'1.2'
p666
sg22
g73
sg604
S'1.7'
p667
sg605
S'.515'
p668
sg607
S'22.8'
p669
sg609
S'.245'
p670
sg611
g3
sg28
S'NBA'
p671
sg614
S'-0.4'
p672
sg615
S'8.1'
p673
sg617
S'3.5'
p674
sg39
S'25'
p675
sg41
S'CLE'
p676
sg43
S'72'
p677
sg622
S'2.7'
p678
sg623
S'16.1'
p679
sg625
S'2.8'
p680
sg62
S'2427'
p681
sg628
S'0.8'
p682
sg54
S'1974-75'
p683
sg630
S'6.2'
p684
sba(isrc.gp1.models.Advanced
Advanced
p685
(dp686
g591
S'7.1'
p687
sg593
g3
sg595
S'.105'
p688
sg597
S'0.7'
p689
sg598
g3
sg600
S'13.9'
p690
sg602
S'0.2'
p691
sg22
g73
sg604
S'1.2'
p692
sg605
S'.473'
p693
sg607
S'21.0'
p694
sg609
S'.207'
p695
sg611
g3
sg28
S'NBA'
p696
sg614
S'-0.5'
p697
sg615
S'8.8'
p698
sg617
S'3.6'
p699
sg39
S'26'
p700
sg41
S'CLE'
p701
sg43
S'82'
p702
sg622
S'1.9'
p703
sg623
S'15.5'
p704
sg625
S'2.3'
p705
sg62
S'2741'
p706
sg628
S'-0.3'
p707
sg54
S'1975-76'
p708
sg630
S'6.0'
p709
sba(isrc.gp1.models.Advanced
Advanced
p710
(dp711
g591
S'8.6'
p712
sg593
g3
sg595
S'.119'
p713
sg597
S'0.6'
p714
sg598
g3
sg600
S'14.7'
p715
sg602
S'-0.2'
p716
sg22
g73
sg604
S'0.6'
p717
sg605
S'.495'
p718
sg607
S'21.2'
p719
sg609
S'.218'
p720
sg611
g3
sg28
S'NBA'
p721
sg614
S'-0.8'
p722
sg615
S'6.4'
p723
sg617
S'3.0'
p724
sg39
S'27'
p725
sg41
S'CLE'
p726
sg43
S'82'
p727
sg622
S'1.8'
p728
sg623
S'14.8'
p729
sg625
S'2.9'
p730
sg62
S'2378'
p731
sg628
S'-1.0'
p732
sg54
S'1976-77'
p733
sg630
S'5.9'
p734
sba(isrc.gp1.models.Advanced
Advanced
p735
(dp736
g591
S'7.6'
p737
sg593
S'13.1'
p738
sg595
S'.105'
p739
sg597
S'0.8'
p740
sg598
S'19.2'
p741
sg600
S'14.7'
p742
sg602
S'0.5'
p743
sg22
g73
sg604
S'1.4'
p744
sg605
S'.503'
p745
sg607
S'22.0'
p746
sg609
S'.225'
p747
sg611
g3
sg28
S'NBA'
p748
sg614
S'-0.6'
p749
sg615
S'6.5'
p750
sg617
S'3.8'
p751
sg39
S'28'
p752
sg41
S'CLE'
p753
sg43
S'82'
p754
sg622
S'1.0'
p755
sg623
S'14.9'
p756
sg625
S'2.6'
p757
sg62
S'2906'
p758
sg628
S'-0.1'
p759
sg54
S'1977-78'
p760
sg630
S'6.4'
p761
sba(isrc.gp1.models.Advanced
Advanced
p762
(dp763
g591
S'9.4'
p764
sg593
S'13.8'
p765
sg595
S'.056'
p766
sg597
S'0.8'
p767
sg598
S'18.9'
p768
sg600
S'16.2'
p769
sg602
S'0.4'
p770
sg22
g73
sg604
S'0.7'
p771
sg605
S'.472'
p772
sg607
S'23.8'
p773
sg609
S'.200'
p774
sg611
g3
sg28
S'NBA'
p775
sg614
S'-1.4'
p776
sg615
S'8.6'
p777
sg617
S'2.3'
p778
sg39
S'29'
p779
sg41
S'CLE'
p780
sg43
S'82'
p781
sg622
S'2.0'
p782
sg623
S'13.7'
p783
sg625
S'1.0'
p784
sg62
S'2850'
p785
sg628
S'-1.0'
p786
sg54
S'1978-79'
p787
sg630
S'3.3'
p788
sba(isrc.gp1.models.Advanced
Advanced
p789
(dp790
g591
S'7.1'
p791
sg593
S'17.3'
p792
sg595
S'.071'
p793
sg597
S'1.1'
p794
sg598
S'16.9'
p795
sg600
S'12.8'
p796
sg602
S'0.3'
p797
sg22
g73
sg604
S'0.1'
p798
sg605
S'.521'
p799
sg607
S'17.6'
p800
sg609
S'.222'
p801
sg611
S'.003'
p802
sg28
S'NBA'
p803
sg614
S'-2.1'
p804
sg615
S'7.6'
p805
sg617
S'2.8'
p806
sg39
S'30'
p807
sg41
S'LAL'
p808
sg43
S'82'
p809
sg622
S'1.4'
p810
sg623
S'11.3'
p811
sg625
S'0.7'
p812
sg62
S'2394'
p813
sg628
S'-1.8'
p814
sg54
S'1979-80'
p815
sg630
S'3.5'
p816
sba(isrc.gp1.models.Advanced
Advanced
p817
(dp818
g591
S'8.1'
p819
sg593
S'16.0'
p820
sg595
S'.088'
p821
sg597
S'0.7'
p822
sg598
S'15.6'
p823
sg600
S'13.9'
p824
sg602
S'0.8'
p825
sg22
S'PF'
p826
sg604
S'0.7'
p827
sg605
S'.528'
p828
sg607
S'19.1'
p829
sg609
S'.257'
p830
sg611
S'.005'
p831
sg28
S'NBA'
p832
sg614
S'-1.7'
p833
sg615
S'7.4'
p834
sg617
S'3.2'
p835
sg39
S'31'
p836
sg41
S'LAL'
p837
sg43
S'82'
p838
sg622
S'2.0'
p839
sg623
S'11.8'
p840
sg625
S'1.5'
p841
sg62
S'2562'
p842
sg628
S'-0.9'
p843
sg54
S'1980-81'
p844
sg630
S'4.7'
p845
sba(isrc.gp1.models.Advanced
Advanced
p846
(dp847
g591
S'5.0'
p848
sg593
S'17.7'
p849
sg595
S'.076'
p850
sg597
S'0.8'
p851
sg598
S'11.2'
p852
sg600
S'11.7'
p853
sg602
S'2.7'
p854
sg22
g73
sg604
S'0.1'
p855
sg605
S'.481'
p856
sg607
S'18.1'
p857
sg609
S'.269'
p858
sg611
S'.000'
p859
sg28
S'NBA'
p860
sg614
S'-4.1'
p861
sg615
S'9.6'
p862
sg617
S'1.4'
p863
sg39
S'32'
p864
sg41
S'WSB'
p865
sg43
S'59'
p866
sg622
S'2.1'
p867
sg623
S'8.6'
p868
sg625
S'0.0'
p869
sg62
S'867'
p870
sg628
S'-1.4'
p871
sg54
S'1981-82'
p872
sg630
S'1.4'
p873
sbasS'_per36Minutes'
p874
(lp875
(isrc.gp1.models.Per36Minutes
Per36Minutes
p876
(dp877
g8
S'2.4'
p878
sg10
S'0.0'
p879
sg12
S'.514'
p880
sg14
S'1.6'
p881
sg16
S'.000'
p882
sg18
S'0.0'
p883
sg20
S'15.6'
p884
sg22
S'PF'
p885
sg24
S'.592'
p886
sg28
S'ABA'
p887
sg30
g3
sg31
S'12.9'
p888
sg33
S'4.9'
p889
sg35
S'4.0'
p890
sg37
S'9.8'
p891
sg39
S'23'
p892
sg41
S'NYA'
p893
sg43
S'82'
p894
sg45
g3
sg46
S'6.6'
p895
sg48
S'2.4'
p896
sg50
S'12.8'
p897
sg52
S'7.4'
p898
sg54
S'1972-73'
p899
sg56
S'6.6'
p900
sg58
S'3.6'
p901
sg60
S'.514'
p902
sg62
S'2153'
p903
sg64
g3
sba(isrc.gp1.models.Per36Minutes
Per36Minutes
p904
(dp905
g8
S'2.9'
p906
sg10
S'0.0'
p907
sg12
S'.526'
p908
sg14
S'1.8'
p909
sg16
S'.000'
p910
sg18
S'0.0'
p911
sg20
S'18.5'
p912
sg22
g73
sg24
S'.615'
p913
sg28
S'ABA'
p914
sg30
S'0.9'
p915
sg31
S'15.3'
p916
sg33
S'5.2'
p917
sg35
S'3.8'
p918
sg37
S'9.7'
p919
sg39
S'24'
p920
sg41
S'CAR'
p921
sg43
S'83'
p922
sg45
S'2.0'
p923
sg46
S'8.1'
p924
sg48
S'2.3'
p925
sg50
S'15.3'
p926
sg52
S'6.8'
p927
sg54
S'1973-74'
p928
sg56
S'8.1'
p929
sg58
S'3.1'
p930
sg60
S'.527'
p931
sg62
S'2387'
p932
sg64
g3
sba(isrc.gp1.models.Per36Minutes
Per36Minutes
p933
(dp934
g8
S'2.3'
p935
sg10
g3
sg12
S'.487'
p936
sg14
S'2.0'
p937
sg16
g3
sg18
g3
sg20
S'15.5'
p938
sg22
g73
sg24
S'.679'
p939
sg28
S'NBA'
p940
sg30
S'0.7'
p941
sg31
S'13.6'
p942
sg33
S'3.7'
p943
sg35
S'3.3'
p944
sg37
S'10.0'
p945
sg39
S'25'
p946
sg41
S'CLE'
p947
sg43
S'72'
p948
sg45
S'1.8'
p949
sg46
S'6.6'
p950
sg48
S'2.3'
p951
sg50
S'13.6'
p952
sg52
S'7.7'
p953
sg54
S'1974-75'
p954
sg56
S'6.6'
p955
sg58
g3
sg60
S'.487'
p956
sg62
S'2427'
p957
sg64
g3
sba(isrc.gp1.models.Per36Minutes
Per36Minutes
p958
(dp959
g8
S'2.6'
p960
sg10
g3
sg12
S'.448'
p961
sg14
S'2.1'
p962
sg16
g3
sg18
g3
sg20
S'17.0'
p963
sg22
g73
sg24
S'.662'
p964
sg28
S'NBA'
p965
sg30
S'0.6'
p966
sg31
S'16.5'
p967
sg33
S'3.2'
p968
sg35
S'3.4'
p969
sg37
S'9.7'
p970
sg39
S'26'
p971
sg41
S'CLE'
p972
sg43
S'82'
p973
sg45
S'1.2'
p974
sg46
S'7.4'
p975
sg48
S'2.3'
p976
sg50
S'16.5'
p977
sg52
S'7.1'
p978
sg54
S'1975-76'
p979
sg56
S'7.4'
p980
sg58
g3
sg60
S'.448'
p981
sg62
S'2741'
p982
sg64
g3
sba(isrc.gp1.models.Per36Minutes
Per36Minutes
p983
(dp984
g8
S'3.1'
p985
sg10
g3
sg12
S'.463'
p986
sg14
S'1.6'
p987
sg16
g3
sg18
g3
sg20
S'16.0'
p988
sg22
g73
sg24
S'.731'
p989
sg28
S'NBA'
p990
sg30
S'0.5'
p991
sg31
S'14.7'
p992
sg33
S'3.9'
p993
sg35
S'3.2'
p994
sg37
S'10.4'
p995
sg39
S'27'
p996
sg41
S'CLE'
p997
sg43
S'82'
p998
sg45
S'1.2'
p999
sg46
S'6.8'
p1000
sg48
S'2.3'
p1001
sg50
S'14.7'
p1002
sg52
S'7.3'
p1003
sg54
S'1976-77'
p1004
sg56
S'6.8'
p1005
sg58
g3
sg60
S'.463'
p1006
sg62
S'2378'
p1007
sg64
g3
sba(isrc.gp1.models.Per36Minutes
Per36Minutes
p1008
(dp1009
g8
S'2.7'
p1010
sg10
g3
sg12
S'.472'
p1011
sg14
S'1.6'
p1012
sg16
g3
sg18
g3
sg20
S'15.2'
p1013
sg22
g73
sg24
S'.720'
p1014
sg28
S'NBA'
p1015
sg30
S'0.6'
p1016
sg31
S'13.8'
p1017
sg33
S'2.9'
p1018
sg35
S'3.1'
p1019
sg37
S'10.5'
p1020
sg39
S'28'
p1021
sg41
S'CLE'
p1022
sg43
S'82'
p1023
sg45
S'0.7'
p1024
sg46
S'6.5'
p1025
sg48
S'2.2'
p1026
sg50
S'13.8'
p1027
sg52
S'7.7'
p1028
sg54
S'1977-78'
p1029
sg56
S'6.5'
p1030
sg58
S'2.3'
p1031
sg60
S'.472'
p1032
sg62
S'2906'
p1033
sg64
g3
sba(isrc.gp1.models.Per36Minutes
Per36Minutes
p1034
(dp1035
g8
S'3.3'
p1036
sg10
g3
sg12
S'.440'
p1037
sg14
S'2.3'
p1038
sg16
g3
sg18
g3
sg20
S'13.9'
p1039
sg22
g73
sg24
S'.735'
p1040
sg28
S'NBA'
p1041
sg30
S'0.6'
p1042
sg31
S'13.6'
p1043
sg33
S'3.5'
p1044
sg35
S'2.7'
p1045
sg37
S'10.6'
p1046
sg39
S'29'
p1047
sg41
S'CLE'
p1048
sg43
S'82'
p1049
sg45
S'1.3'
p1050
sg46
S'6.0'
p1051
sg48
S'2.0'
p1052
sg50
S'13.6'
p1053
sg52
S'7.4'
p1054
sg54
S'1978-79'
p1055
sg56
S'6.0'
p1056
sg58
S'2.4'
p1057
sg60
S'.440'
p1058
sg62
S'2850'
p1059
sg64
g3
sba(isrc.gp1.models.Per36Minutes
Per36Minutes
p1060
(dp1061
g8
S'2.2'
p1062
sg10
S'0.0'
p1063
sg12
S'.489'
p1064
sg14
S'2.3'
p1065
sg16
S'.000'
p1066
sg18
S'0.0'
p1067
sg20
S'13.1'
p1068
sg22
g73
sg24
S'.740'
p1069
sg28
S'NBA'
p1070
sg30
S'0.8'
p1071
sg31
S'11.4'
p1072
sg33
S'4.1'
p1073
sg35
S'2.5'
p1074
sg37
S'8.5'
p1075
sg39
S'30'
p1076
sg41
S'LAL'
p1077
sg43
S'82'
p1078
sg45
S'1.0'
p1079
sg46
S'5.6'
p1080
sg48
S'1.9'
p1081
sg50
S'11.4'
p1082
sg52
S'6.3'
p1083
sg54
S'1979-80'
p1084
sg56
S'5.6'
p1085
sg58
S'2.6'
p1086
sg60
S'.491'
p1087
sg62
S'2394'
p1088
sg64
g3
sba(isrc.gp1.models.Per36Minutes
Per36Minutes
p1089
(dp1090
g8
S'2.5'
p1091
sg10
S'0.1'
p1092
sg12
S'.503'
p1093
sg14
S'2.1'
p1094
sg16
S'.000'
p1095
sg18
S'0.0'
p1096
sg20
S'12.4'
p1097
sg22
S'PF'
p1098
sg24
S'.653'
p1099
sg28
S'NBA'
p1100
sg30
S'0.5'
p1101
sg31
S'10.6'
p1102
sg33
S'4.6'
p1103
sg35
S'2.7'
p1104
sg37
S'9.2'
p1105
sg39
S'31'
p1106
sg41
S'LAL'
p1107
sg43
S'82'
p1108
sg45
S'1.3'
p1109
sg46
S'5.3'
p1110
sg48
S'1.8'
p1111
sg50
S'10.5'
p1112
sg52
S'6.7'
p1113
sg54
S'1980-81'
p1114
sg56
S'5.3'
p1115
sg58
S'2.2'
p1116
sg60
S'.506'
p1117
sg62
S'2562'
p1118
sg64
g3
sba(isrc.gp1.models.Per36Minutes
Per36Minutes
p1119
(dp1120
g8
S'1.6'
p1121
sg10
S'0.0'
p1122
sg12
S'.433'
p1123
sg14
S'2.7'
p1124
sg16
g3
sg18
S'0.0'
p1125
sg20
S'7.6'
p1126
sg22
g73
sg24
S'.783'
p1127
sg28
S'NBA'
p1128
sg30
S'0.6'
p1129
sg31
S'7.1'
p1130
sg33
S'4.7'
p1131
sg35
S'1.9'
p1132
sg37
S'7.7'
p1133
sg39
S'32'
p1134
sg41
S'WSB'
p1135
sg43
S'59'
p1136
sg45
S'1.3'
p1137
sg46
S'3.1'
p1138
sg48
S'1.5'
p1139
sg50
S'7.1'
p1140
sg52
S'6.1'
p1141
sg54
S'1981-82'
p1142
sg56
S'3.1'
p1143
sg58
S'1.7'
p1144
sg60
S'.433'
p1145
sg62
S'867'
p1146
sg64
S'13'
p1147
sbasS'_fromYear'
p1148
S'1973'
p1149
sS'_url'
p1150
S'http://www.basketball-reference.com/players/c/choneji01.html'
p1151
sS'_perGame'
p1152
(isrc.gp1.models.PerGame
PerGame
p1153
(dp1154
g8
S'0.7'
p1155
sg10
S'0.0'
p1156
sg12
S'.433'
p1157
sS'_effectiveFieldGalPercentage'
p1158
S'.433'
p1159
sg14
S'1.1'
p1160
sg16
g3
sg18
S'0.0'
p1161
sg20
S'3.1'
p1162
sg22
g73
sg24
S'.783'
p1163
sg28
S'NBA'
p1164
sg30
S'0.3'
p1165
sg33
S'1.9'
p1166
sS'_fieldGoalsttempted'
p1167
S'2.9'
p1168
sg35
S'0.8'
p1169
sg37
S'3.1'
p1170
sg39
S'32'
p1171
sg41
S'WSB'
p1172
sg43
S'59'
p1173
sg45
S'0.5'
p1174
sg46
S'1.3'
p1175
sg48
S'0.6'
p1176
sg50
S'2.9'
p1177
sg52
S'2.5'
p1178
sg54
S'1981-82'
p1179
sg56
S'1.3'
p1180
sg58
S'0.7'
p1181
sg60
S'.433'
p1182
sg62
S'14.7'
p1183
sg64
S'13'
p1184
sbsS'_weight'
p1185
S'220'
p1186
sS'_dob'
p1187
S'30-11-1949'
p1188
sS'_salary'
p1189
(lp1190
sg22
S'C-F'
p1191
sb.