(isrc.gp1.models.Player
Player
p0
(dp1
S'_experience'
p2
S'NA'
p3
sS'_totals'
p4
(lp5
(isrc.gp1.models.Totals
Totals
p6
(dp7
S'_offensiveRebounds'
p8
S'53'
p9
sS'_threePointsAttempted'
p10
S'16'
p11
sS'_fieldGoalsPercentage'
p12
S'.398'
p13
sS'_assist'
p14
S'35'
p15
sS'_threePointsPercentage'
p16
S'.188'
p17
sS'_threePoints'
p18
S'3'
p19
sS'_points'
p20
S'240'
p21
sS'_position'
p22
S'C'
p23
sS'_freeThrowsPercentage'
p24
S'.716'
p25
sS'_effectiveFieldGoalPercentage'
p26
S'.405'
p27
sS'_league'
p28
S'NBA'
p29
sS'_steals'
p30
S'31'
p31
sS'_fieldGoalsAttempted'
p32
S'231'
p33
sS'_personalFouls'
p34
S'95'
p35
sS'_freeThrowsAttempted'
p36
S'74'
p37
sS'_totalRebounds'
p38
S'157'
p39
sS'_age'
p40
S'23'
p41
sS'_team'
p42
S'DAL'
p43
sS'_games'
p44
S'41'
p45
sS'_blocks'
p46
S'27'
p47
sS'_twoPoints'
p48
S'89'
p49
sS'_freeThrows'
p50
S'53'
p51
sS'_twoPointsAttempted'
p52
S'215'
p53
sS'_defensiveRebounds'
p54
S'104'
p55
sS'_season'
p56
S'1997-98'
p57
sS'_fieldGoals'
p58
S'92'
p59
sS'_turnOvers'
p60
S'41'
p61
sS'_twoPointsPercentage'
p62
S'.414'
p63
sS'_minutesPlayed'
p64
S'680'
p65
sS'_gamesStarted'
p66
S'8'
p67
sba(isrc.gp1.models.Totals
Totals
p68
(dp69
g8
S'35'
p70
sg10
S'7'
p71
sg12
S'.360'
p72
sg14
S'27'
p73
sg16
S'.000'
p74
sg18
S'0'
p75
sg20
S'134'
p76
sg22
g23
sg24
S'.708'
p77
sg26
S'.360'
p78
sg28
S'NBA'
p79
sg30
S'18'
p80
sg32
S'139'
p81
sg34
S'98'
p82
sg36
S'48'
p83
sg38
S'97'
p84
sg40
S'24'
p85
sg42
S'DAL'
p86
sg44
S'41'
p87
sg46
S'13'
p88
sg48
S'50'
p89
sg50
S'34'
p90
sg52
S'132'
p91
sg54
S'62'
p92
sg56
S'1998-99'
p93
sg58
S'50'
p94
sg60
S'26'
p95
sg62
S'.379'
p96
sg64
S'470'
p97
sg66
S'4'
p98
sba(isrc.gp1.models.Totals
Totals
p99
(dp100
g8
S'90'
p101
sg10
S'6'
p102
sg12
S'.442'
p103
sg14
S'65'
p104
sg16
S'.167'
p105
sg18
S'1'
p106
sg20
S'439'
p107
sg22
g23
sg24
S'.789'
p108
sg26
S'.444'
p109
sg28
S'NBA'
p110
sg30
S'29'
p111
sg32
S'364'
p112
sg34
S'180'
p113
sg36
S'147'
p114
sg38
S'280'
p115
sg40
S'25'
p116
sg42
S'CHI'
p117
sg44
S'73'
p118
sg46
S'25'
p119
sg48
S'160'
p120
sg50
S'116'
p121
sg52
S'358'
p122
sg54
S'190'
p123
sg56
S'1999-00'
p124
sg58
S'161'
p125
sg60
S'80'
p126
sg62
S'.447'
p127
sg64
S'1007'
p128
sg66
S'11'
p129
sbasS'_college'
p130
S'NA'
p131
sS'_toYear'
p132
S'2000'
p133
sS'_height'
p134
S'7-0'
p135
sS'_active'
p136
I00
sS'_shootingHand'
p137
VRight
p138
sS'_name'
p139
S'Chris Anstey'
p140
sS'_per100Possessions'
p141
(lp142
(isrc.gp1.models.Per100Possession
Per100Possession
p143
(dp144
g8
S'4.2'
p145
sg10
S'1.3'
p146
sg12
S'.398'
p147
sS'_offensiveRating'
p148
S'94'
p149
sg14
S'2.7'
p150
sg16
S'.188'
p151
sg18
S'0.2'
p152
sg20
S'18.8'
p153
sg22
g23
sS'_defensiveRating'
p154
S'103'
p155
sg24
S'.716'
p156
sg28
S'NBA'
p157
sg30
S'2.4'
p158
sg32
S'18.1'
p159
sg34
S'7.5'
p160
sg36
S'5.8'
p161
sg38
S'12.3'
p162
sg40
S'23'
p163
sg42
S'DAL'
p164
sg44
S'41'
p165
sg46
S'2.1'
p166
sg48
S'7.0'
p167
sg50
S'4.2'
p168
sg52
S'16.9'
p169
sg54
S'8.2'
p170
sg56
S'1997-98'
p171
sg58
S'7.2'
p172
sg60
S'3.2'
p173
sg62
S'.414'
p174
sg64
S'680'
p175
sg66
g67
sba(isrc.gp1.models.Per100Possession
Per100Possession
p176
(dp177
g8
S'4.0'
p178
sg10
S'0.8'
p179
sg12
S'.360'
p180
sg148
S'91'
p181
sg14
S'3.1'
p182
sg16
S'.000'
p183
sg18
S'0.0'
p184
sg20
S'15.4'
p185
sg22
g23
sg154
S'103'
p186
sg24
S'.708'
p187
sg28
S'NBA'
p188
sg30
S'2.1'
p189
sg32
S'15.9'
p190
sg34
S'11.2'
p191
sg36
S'5.5'
p192
sg38
S'11.1'
p193
sg40
S'24'
p194
sg42
S'DAL'
p195
sg44
S'41'
p196
sg46
S'1.5'
p197
sg48
S'5.7'
p198
sg50
S'3.9'
p199
sg52
S'15.1'
p200
sg54
S'7.1'
p201
sg56
S'1998-99'
p202
sg58
S'5.7'
p203
sg60
S'3.0'
p204
sg62
S'.379'
p205
sg64
S'470'
p206
sg66
g98
sba(isrc.gp1.models.Per100Possession
Per100Possession
p207
(dp208
g8
S'4.8'
p209
sg10
S'0.3'
p210
sg12
S'.442'
p211
sg148
S'100'
p212
sg14
S'3.5'
p213
sg16
S'.167'
p214
sg18
S'0.1'
p215
sg20
S'23.4'
p216
sg22
g23
sg154
S'102'
p217
sg24
S'.789'
p218
sg28
S'NBA'
p219
sg30
S'1.5'
p220
sg32
S'19.4'
p221
sg34
S'9.6'
p222
sg36
S'7.8'
p223
sg38
S'14.9'
p224
sg40
S'25'
p225
sg42
S'CHI'
p226
sg44
S'73'
p227
sg46
S'1.3'
p228
sg48
S'8.5'
p229
sg50
S'6.2'
p230
sg52
S'19.1'
p231
sg54
S'10.1'
p232
sg56
S'1999-00'
p233
sg58
S'8.6'
p234
sg60
S'4.3'
p235
sg62
S'.447'
p236
sg64
S'1007'
p237
sg66
S'11'
p238
sbasS'_advanced'
p239
(lp240
(isrc.gp1.models.Advanced
Advanced
p241
(dp242
S'_offensiveReboundPercentage'
p243
S'8.5'
p244
sS'_turnOverPercentage'
p245
S'13.5'
p246
sS'_winSharesPer48Minutes'
p247
S'.044'
p248
sS'_stealPercentage'
p249
S'2.4'
p250
sS'_usagePercentage'
p251
S'20.5'
p252
sS'_totalReboundsPercentage'
p253
S'12.8'
p254
sS'_defensiveBoxPlusMinus'
p255
S'0.5'
p256
sg22
g23
sS'_valueOverReplacementPlayer'
p257
S'-0.2'
p258
sS'_trueShootingPercentage'
p259
S'.455'
p260
sS'_defensiveReboundPercentage'
p261
S'17.4'
p262
sS'_freeThrowsAttempRate'
p263
S'.320'
p264
sS'_threePointsAttempRate'
p265
S'.069'
p266
sg28
S'NBA'
p267
sS'_offensiveBoxPlusMinues'
p268
S'-3.6'
p269
sS'_assistPercentage'
p270
S'8.7'
p271
sS'_defensiveWinShares'
p272
S'0.9'
p273
sg40
S'23'
p274
sg42
S'DAL'
p275
sg44
S'41'
p276
sS'_blockPercentage'
p277
S'2.8'
p278
sS'_playerEfficiencyRating'
p279
S'13.2'
p280
sS'_offensiveWinShares'
p281
S'-0.2'
p282
sg64
S'680'
p283
sS'_boxPlusMinus'
p284
S'-3.1'
p285
sg56
S'1997-98'
p286
sS'_winShares'
p287
S'0.6'
p288
sba(isrc.gp1.models.Advanced
Advanced
p289
(dp290
g243
S'8.3'
p291
sg245
S'14.0'
p292
sg247
S'.027'
p293
sg249
S'2.1'
p294
sg251
S'18.2'
p295
sg253
S'11.6'
p296
sg255
S'0.3'
p297
sg22
g23
sg257
S'-0.1'
p298
sg259
S'.418'
p299
sg261
S'14.9'
p300
sg263
S'.345'
p301
sg265
S'.050'
p302
sg28
S'NBA'
p303
sg268
S'-3.3'
p304
sg270
S'9.3'
p305
sg272
S'0.4'
p306
sg40
S'24'
p307
sg42
S'DAL'
p308
sg44
S'41'
p309
sg277
S'2.0'
p310
sg279
S'9.2'
p311
sg281
S'-0.2'
p312
sg64
S'470'
p313
sg284
S'-3.1'
p314
sg56
S'1998-99'
p315
sg287
S'0.3'
p316
sba(isrc.gp1.models.Advanced
Advanced
p317
(dp318
g243
S'10.3'
p319
sg245
S'15.7'
p320
sg247
S'.090'
p321
sg249
S'1.5'
p322
sg251
S'23.1'
p323
sg253
S'16.3'
p324
sg255
S'-0.2'
p325
sg22
g23
sg257
S'-0.1'
p326
sg259
S'.512'
p327
sg261
S'22.5'
p328
sg263
S'.404'
p329
sg265
S'.016'
p330
sg28
S'NBA'
p331
sg268
S'-2.4'
p332
sg270
S'13.2'
p333
sg272
S'1.3'
p334
sg40
S'25'
p335
sg42
S'CHI'
p336
sg44
S'73'
p337
sg277
S'1.8'
p338
sg279
S'15.1'
p339
sg281
S'0.6'
p340
sg64
S'1007'
p341
sg284
S'-2.5'
p342
sg56
S'1999-00'
p343
sg287
S'1.9'
p344
sbasS'_per36Minutes'
p345
(lp346
(isrc.gp1.models.Per36Minutes
Per36Minutes
p347
(dp348
g8
S'2.8'
p349
sg10
S'0.8'
p350
sg12
S'.398'
p351
sg14
S'1.9'
p352
sg16
S'.188'
p353
sg18
S'0.2'
p354
sg20
S'12.7'
p355
sg22
g23
sg24
S'.716'
p356
sg28
S'NBA'
p357
sg30
S'1.6'
p358
sg32
S'12.2'
p359
sg34
S'5.0'
p360
sg36
S'3.9'
p361
sg38
S'8.3'
p362
sg40
S'23'
p363
sg42
S'DAL'
p364
sg44
S'41'
p365
sg46
S'1.4'
p366
sg48
S'4.7'
p367
sg50
S'2.8'
p368
sg52
S'11.4'
p369
sg54
S'5.5'
p370
sg56
S'1997-98'
p371
sg58
S'4.9'
p372
sg60
S'2.2'
p373
sg62
S'.414'
p374
sg64
S'680'
p375
sg66
g67
sba(isrc.gp1.models.Per36Minutes
Per36Minutes
p376
(dp377
g8
S'2.7'
p378
sg10
S'0.5'
p379
sg12
S'.360'
p380
sg14
S'2.1'
p381
sg16
S'.000'
p382
sg18
S'0.0'
p383
sg20
S'10.3'
p384
sg22
g23
sg24
S'.708'
p385
sg28
S'NBA'
p386
sg30
S'1.4'
p387
sg32
S'10.6'
p388
sg34
S'7.5'
p389
sg36
S'3.7'
p390
sg38
S'7.4'
p391
sg40
S'24'
p392
sg42
S'DAL'
p393
sg44
S'41'
p394
sg46
S'1.0'
p395
sg48
S'3.8'
p396
sg50
S'2.6'
p397
sg52
S'10.1'
p398
sg54
S'4.7'
p399
sg56
S'1998-99'
p400
sg58
S'3.8'
p401
sg60
S'2.0'
p402
sg62
S'.379'
p403
sg64
S'470'
p404
sg66
g98
sba(isrc.gp1.models.Per36Minutes
Per36Minutes
p405
(dp406
g8
S'3.2'
p407
sg10
S'0.2'
p408
sg12
S'.442'
p409
sg14
S'2.3'
p410
sg16
S'.167'
p411
sg18
S'0.0'
p412
sg20
S'15.7'
p413
sg22
g23
sg24
S'.789'
p414
sg28
S'NBA'
p415
sg30
S'1.0'
p416
sg32
S'13.0'
p417
sg34
S'6.4'
p418
sg36
S'5.3'
p419
sg38
S'10.0'
p420
sg40
S'25'
p421
sg42
S'CHI'
p422
sg44
S'73'
p423
sg46
S'0.9'
p424
sg48
S'5.7'
p425
sg50
S'4.1'
p426
sg52
S'12.8'
p427
sg54
S'6.8'
p428
sg56
S'1999-00'
p429
sg58
S'5.8'
p430
sg60
S'2.9'
p431
sg62
S'.447'
p432
sg64
S'1007'
p433
sg66
S'11'
p434
sbasS'_fromYear'
p435
S'1998'
p436
sS'_url'
p437
S'http://www.basketball-reference.com/players/a/anstech01.html'
p438
sS'_perGame'
p439
(isrc.gp1.models.PerGame
PerGame
p440
(dp441
g8
S'1.2'
p442
sg10
S'0.1'
p443
sg12
S'.442'
p444
sS'_effectiveFieldGalPercentage'
p445
S'.444'
p446
sg14
S'0.9'
p447
sg16
S'.167'
p448
sg18
S'0.0'
p449
sg20
S'6.0'
p450
sg22
g23
sg24
S'.789'
p451
sg28
S'NBA'
p452
sg30
S'0.4'
p453
sg34
S'2.5'
p454
sS'_fieldGoalsttempted'
p455
S'5.0'
p456
sg36
S'2.0'
p457
sg38
S'3.8'
p458
sg40
S'25'
p459
sg42
S'CHI'
p460
sg44
S'73'
p461
sg46
S'0.3'
p462
sg48
S'2.2'
p463
sg50
S'1.6'
p464
sg52
S'4.9'
p465
sg54
S'2.6'
p466
sg56
S'1999-00'
p467
sg58
S'2.2'
p468
sg60
S'1.1'
p469
sg62
S'.447'
p470
sg64
S'13.8'
p471
sg66
S'11'
p472
sbsS'_weight'
p473
S'249'
p474
sS'_dob'
p475
S'1-1-1975'
p476
sS'_salary'
p477
(lp478
(isrc.gp1.models.Salary
Salary
p479
(dp480
g42
S'Dallas Mavericks'
p481
sg28
S'NBA'
p482
sg477
S'$713,900'
p483
sg56
S'1997-98'
p484
sba(isrc.gp1.models.Salary
Salary
p485
(dp486
g42
S'Dallas Mavericks'
p487
sg28
S'NBA'
p488
sg477
S'$985,200'
p489
sg56
S'1998-99'
p490
sba(isrc.gp1.models.Salary
Salary
p491
(dp492
g42
S'Chicago Bulls'
p493
sg28
S'NBA'
p494
sg477
S'$1,113,720'
p495
sg56
S'1999-00'
p496
sbasg22
g23
sb.