(isrc.gp1.models.Player
Player
p0
(dp1
S'_experience'
p2
S'NA'
p3
sS'_totals'
p4
(lp5
(isrc.gp1.models.Totals
Totals
p6
(dp7
S'_offensiveRebounds'
p8
S'61'
p9
sS'_threePointsAttempted'
p10
S'0'
p11
sS'_fieldGoalsPercentage'
p12
S'.404'
p13
sS'_assist'
p14
S'7'
p15
sS'_threePointsPercentage'
p16
S'38'
p17
sS'_threePoints'
p18
g11
sS'_points'
p19
g3
sS'_position'
p20
S'C'
p21
sS'_freeThrowsPercentage'
p22
S'43'
p23
sS'_effectiveFieldGoalPercentage'
p24
S'5'
p25
sS'_league'
p26
S'NBA'
p27
sS'_steals'
p28
S'17'
p29
sS'_fieldGoalsAttempted'
p30
S'94'
p31
sS'_personalFouls'
p32
S'81'
p33
sS'_freeThrowsAttempted'
p34
S'.313'
p35
sS'_totalRebounds'
p36
S'11'
p37
sS'_age'
p38
S'23'
p39
sS'_team'
p40
S'GSW'
p41
sS'_games'
p42
S'54'
p43
sS'_blocks'
p44
S'24'
p45
sS'_twoPoints'
p46
S'94'
p47
sS'_freeThrows'
p48
S'16'
p49
sS'_twoPointsAttempted'
p50
S'.404'
p51
sS'_defensiveRebounds'
p52
S'104'
p53
sS'_season'
p54
S'1982-83'
p55
sS'_fieldGoals'
p56
S'38'
p57
sS'_turnOvers'
p58
S'95'
p59
sS'_twoPointsPercentage'
p60
S'.404'
p61
sS'_minutesPlayed'
p62
S'369'
p63
sS'_gamesStarted'
p64
S'1'
p65
sba(isrc.gp1.models.Totals
Totals
p66
(dp67
g8
S'70'
p68
sg10
g11
sg12
S'.398'
p69
sg14
S'9'
p70
sg16
S'33'
p71
sg18
g11
sg19
g3
sg20
g21
sg22
S'27'
p72
sg24
S'14'
p73
sg26
S'NBA'
p74
sg28
S'3'
p75
sg30
S'83'
p76
sg32
S'80'
p77
sg34
S'.609'
p78
sg36
S'11'
p79
sg38
S'24'
p80
sg40
S'GSW'
p81
sg42
S'46'
p82
sg44
S'24'
p83
sg46
S'83'
p84
sg48
S'23'
p85
sg50
S'.398'
p86
sg52
S'97'
p87
sg54
S'1983-84'
p88
sg56
S'33'
p89
sg58
S'68'
p90
sg60
S'.398'
p91
sg62
S'360'
p92
sg64
g65
sba(isrc.gp1.models.Totals
Totals
p93
(dp94
g8
S'18'
p95
sg10
g11
sg12
S'.400'
p96
sg14
S'2'
p97
sg16
S'8'
p98
sg18
g11
sg19
g3
sg20
g21
sg22
S'12'
p99
sg24
g25
sg26
S'NBA'
p100
sg28
g25
sg30
S'20'
p101
sg32
S'21'
p102
sg34
S'.556'
p103
sg36
g11
sg38
S'25'
p104
sg40
S'TOT'
p105
sg42
S'11'
p106
sg44
g97
sg46
S'20'
p107
sg48
g70
sg50
S'.400'
p108
sg52
S'30'
p109
sg54
S'1984-85'
p110
sg56
g98
sg58
g25
sg60
S'.400'
p111
sg62
S'82'
p112
sg64
g11
sba(isrc.gp1.models.Totals
Totals
p113
(dp114
g8
S'17'
p115
sg10
g11
sg12
S'.438'
p116
sg14
g97
sg16
g15
sg18
g11
sg19
g3
sg20
g21
sg22
S'10'
p117
sg24
g25
sg26
S'NBA'
p118
sg28
S'4'
p119
sg30
S'16'
p120
sg32
S'19'
p121
sg34
S'.556'
p122
sg36
g11
sg38
S'25'
p123
sg40
S'NJN'
p124
sg42
g15
sg44
g65
sg46
S'16'
p125
sg48
g70
sg50
S'.438'
p126
sg52
S'27'
p127
sg54
S'1984-85'
p128
sg56
g15
sg58
g119
sg60
S'.438'
p129
sg62
S'76'
p130
sg64
g11
sba(isrc.gp1.models.Totals
Totals
p131
(dp132
g8
g97
sg10
g11
sg12
S'.500'
p133
sg14
g11
sg16
g65
sg18
g11
sg19
g3
sg20
g21
sg22
g65
sg24
g11
sg26
S'NBA'
p134
sg28
g65
sg30
g97
sg32
g3
sg34
g65
sg36
g11
sg38
S'25'
p135
sg40
S'CHI'
p136
sg42
g75
sg44
g65
sg46
g97
sg48
g11
sg50
S'.500'
p137
sg52
g11
sg54
S'1984-85'
p138
sg56
g65
sg58
g97
sg60
S'.500'
p139
sg62
g75
sg64
g11
sba(isrc.gp1.models.Totals
Totals
p140
(dp141
g8
g65
sg10
g11
sg12
S'.000'
p142
sg14
g65
sg16
g11
sg18
g11
sg19
g3
sg20
g21
sg22
g11
sg24
g11
sg26
S'NBA'
p143
sg28
g11
sg30
g97
sg32
g3
sg34
g65
sg36
g11
sg38
S'25'
p144
sg40
S'MIL'
p145
sg42
g65
sg44
g11
sg46
g97
sg48
g11
sg50
S'.000'
p146
sg52
g11
sg54
S'1984-85'
p147
sg56
g11
sg58
g11
sg60
S'.000'
p148
sg62
g75
sg64
g11
sba(isrc.gp1.models.Totals
Totals
p149
(dp150
g8
g3
sg10
g3
sg12
g3
sg14
g3
sg16
g3
sg18
g3
sg19
g3
sg20
g3
sg22
g3
sg24
g3
sg26
g3
sg28
g3
sg30
g3
sg32
g3
sg34
g3
sg36
g3
sg38
S'26'
p151
sg40
S'Did Not Play\xc2\xa0(other pro league\xe2\x80\x94Italy)'
p152
sg42
g3
sg44
g3
sg46
g3
sg48
g3
sg50
g3
sg52
g3
sg54
S'1985-86'
p153
sg56
g3
sg58
g3
sg60
g3
sg62
g3
sg64
g3
sba(isrc.gp1.models.Totals
Totals
p154
(dp155
g8
S'34'
p156
sg10
g11
sg12
S'.451'
p157
sg14
g25
sg16
S'23'
p158
sg18
g11
sg19
g3
sg20
g21
sg22
S'23'
p159
sg24
S'12'
p160
sg26
S'NBA'
p161
sg28
S'11'
p162
sg30
S'51'
p163
sg32
S'58'
p164
sg34
S'.750'
p165
sg36
g98
sg38
S'27'
p166
sg40
S'TOT'
p167
sg42
S'30'
p168
sg44
S'12'
p169
sg46
S'51'
p170
sg48
S'16'
p171
sg50
S'.451'
p172
sg52
S'57'
p173
sg54
S'1986-87'
p174
sg56
S'23'
p175
sg58
S'33'
p176
sg60
S'.451'
p177
sg62
S'195'
p178
sg64
g11
sba(isrc.gp1.models.Totals
Totals
p179
(dp180
g8
g97
sg10
g11
sg12
S'.500'
p181
sg14
g65
sg16
g119
sg18
g11
sg19
g3
sg20
g21
sg22
S'6'
p182
sg24
g75
sg26
S'NBA'
p183
sg28
g65
sg30
g98
sg32
S'11'
p184
sg34
S'1.000'
p185
sg36
g65
sg38
S'27'
p186
sg40
S'POR'
p187
sg42
g15
sg44
g97
sg46
g98
sg48
g75
sg50
S'.500'
p188
sg52
g98
sg54
S'1986-87'
p189
sg56
g119
sg58
g11
sg60
S'.500'
p190
sg62
S'17'
p191
sg64
g11
sba(isrc.gp1.models.Totals
Totals
p192
(dp193
g8
S'13'
p194
sg10
g11
sg12
S'.250'
p195
sg14
g65
sg16
g75
sg18
g11
sg19
g3
sg20
g21
sg22
g75
sg24
g65
sg26
S'NBA'
p196
sg28
g65
sg30
S'12'
p197
sg32
g15
sg34
S'1.000'
p198
sg36
g75
sg38
S'27'
p199
sg40
S'MIL'
p200
sg42
g25
sg44
g11
sg46
S'12'
p201
sg48
g65
sg50
S'.250'
p202
sg52
S'16'
p203
sg54
S'1986-87'
p204
sg56
g75
sg58
S'10'
p205
sg60
S'.250'
p206
sg62
S'48'
p207
sg64
g11
sba(isrc.gp1.models.Totals
Totals
p208
(dp209
g8
S'19'
p210
sg10
g11
sg12
S'.516'
p211
sg14
g75
sg16
S'16'
p212
sg18
g11
sg19
g3
sg20
g21
sg22
S'14'
p213
sg24
g98
sg26
S'NBA'
p214
sg28
g70
sg30
S'31'
p215
sg32
S'40'
p216
sg34
S'.667'
p217
sg36
g119
sg38
S'27'
p218
sg40
S'NJN'
p219
sg42
S'18'
p220
sg44
S'10'
p221
sg46
S'31'
p222
sg48
S'12'
p223
sg50
S'.516'
p224
sg52
S'33'
p225
sg54
S'1986-87'
p226
sg56
S'16'
p227
sg58
S'23'
p228
sg60
S'.516'
p229
sg62
S'130'
p230
sg64
g11
sba(isrc.gp1.models.Totals
Totals
p231
(dp232
g8
S'66'
p233
sg10
g11
sg12
S'.409'
p234
sg14
g70
sg16
S'36'
p235
sg18
g11
sg19
g3
sg20
g21
sg22
S'32'
p236
sg24
S'31'
p237
sg26
S'NBA'
p238
sg28
g182
sg30
S'88'
p239
sg32
S'103'
p240
sg34
S'.886'
p241
sg36
S'15'
p242
sg38
S'28'
p243
sg40
S'NJN'
p244
sg42
S'54'
p245
sg44
S'29'
p246
sg46
S'88'
p247
sg48
S'35'
p248
sg50
S'.409'
p249
sg52
S'98'
p250
sg54
S'1987-88'
p251
sg56
S'36'
p252
sg58
S'73'
p253
sg60
S'.409'
p254
sg62
S'399'
p255
sg64
g11
sbasS'_college'
p256
S'University of Wyoming'
p257
sS'_toYear'
p258
S'1988'
p259
sS'_height'
p260
S'6-11'
p261
sS'_active'
p262
I00
sS'_shootingHand'
p263
VRight
p264
sS'_name'
p265
S'Chris Engler'
p266
sS'_per100Possessions'
p267
(lp268
(isrc.gp1.models.Per100Possession
Per100Possession
p269
(dp270
g8
S'7.6'
p271
sg10
S'0.0'
p272
sg12
S'.404'
p273
sS'_offensiveRating'
p274
S'107'
p275
sg14
S'0.9'
p276
sg16
S'4.8'
p277
sg18
S'0.0'
p278
sg19
S'86'
p279
sg20
g21
sS'_defensiveRating'
p280
g3
sg22
S'5.4'
p281
sg26
S'NBA'
p282
sg28
S'2.1'
p283
sg30
S'11.8'
p284
sg32
S'10.1'
p285
sg34
S'.313'
p286
sg36
S'1.4'
p287
sg38
S'23'
p288
sg40
S'GSW'
p289
sg42
S'54'
p290
sg44
S'3.0'
p291
sg46
S'11.8'
p292
sg48
S'2.0'
p293
sg50
S'.404'
p294
sg52
S'13.0'
p295
sg54
S'1982-83'
p296
sg56
S'4.8'
p297
sg58
S'11.9'
p298
sg60
S'0.6'
p299
sg62
S'369'
p300
sg64
g65
sba(isrc.gp1.models.Per100Possession
Per100Possession
p301
(dp302
g8
S'9.0'
p303
sg10
S'0.0'
p304
sg12
S'.398'
p305
sg274
S'108'
p306
sg14
S'1.2'
p307
sg16
S'4.3'
p308
sg18
S'0.0'
p309
sg19
S'86'
p310
sg20
g21
sg280
g3
sg22
S'3.5'
p311
sg26
S'NBA'
p312
sg28
S'0.4'
p313
sg30
S'10.7'
p314
sg32
S'10.3'
p315
sg34
S'.609'
p316
sg36
S'1.4'
p317
sg38
S'24'
p318
sg40
S'GSW'
p319
sg42
S'46'
p320
sg44
S'3.1'
p321
sg46
S'10.7'
p322
sg48
S'3.0'
p323
sg50
S'.398'
p324
sg52
S'12.5'
p325
sg54
S'1983-84'
p326
sg56
S'4.3'
p327
sg58
S'8.8'
p328
sg60
S'1.8'
p329
sg62
S'360'
p330
sg64
g65
sba(isrc.gp1.models.Per100Possession
Per100Possession
p331
(dp332
g8
S'10.4'
p333
sg10
S'0.0'
p334
sg12
S'.400'
p335
sg274
S'104'
p336
sg14
S'1.2'
p337
sg16
S'4.6'
p338
sg18
S'0.0'
p339
sg19
S'106'
p340
sg20
g21
sg280
g3
sg22
S'7.0'
p341
sg26
S'NBA'
p342
sg28
S'2.9'
p343
sg30
S'11.6'
p344
sg32
S'12.2'
p345
sg34
S'.556'
p346
sg36
S'0.0'
p347
sg38
S'25'
p348
sg40
S'TOT'
p349
sg42
S'11'
p350
sg44
S'1.2'
p351
sg46
S'11.6'
p352
sg48
S'5.2'
p353
sg50
S'.400'
p354
sg52
S'17.4'
p355
sg54
S'1984-85'
p356
sg56
S'4.6'
p357
sg58
S'2.9'
p358
sg60
S'2.9'
p359
sg62
S'82'
p360
sg64
g11
sba(isrc.gp1.models.Per100Possession
Per100Possession
p361
(dp362
g8
S'10.6'
p363
sg10
S'0.0'
p364
sg12
S'.438'
p365
sg274
S'104'
p366
sg14
S'1.3'
p367
sg16
S'4.4'
p368
sg18
S'0.0'
p369
sg19
S'116'
p370
sg20
g21
sg280
g3
sg22
S'6.3'
p371
sg26
S'NBA'
p372
sg28
S'2.5'
p373
sg30
S'10.0'
p374
sg32
S'11.9'
p375
sg34
S'.556'
p376
sg36
S'0.0'
p377
sg38
S'25'
p378
sg40
S'NJN'
p379
sg42
g15
sg44
S'0.6'
p380
sg46
S'10.0'
p381
sg48
S'5.6'
p382
sg50
S'.438'
p383
sg52
S'16.9'
p384
sg54
S'1984-85'
p385
sg56
S'4.4'
p386
sg58
S'2.5'
p387
sg60
S'3.1'
p388
sg62
S'76'
p389
sg64
g11
sba(isrc.gp1.models.Per100Possession
Per100Possession
p390
(dp391
g8
S'32.2'
p392
sg10
S'0.0'
p393
sg12
S'.500'
p394
sg274
g3
sg14
S'0.0'
p395
sg16
S'16.1'
p396
sg18
S'0.0'
p397
sg19
S'106'
p398
sg20
g21
sg280
g3
sg22
S'16.1'
p399
sg26
S'NBA'
p400
sg28
S'16.1'
p401
sg30
S'32.2'
p402
sg32
S'76'
p403
sg34
S'16.1'
p404
sg36
S'0.0'
p405
sg38
S'25'
p406
sg40
S'CHI'
p407
sg42
g75
sg44
S'16.1'
p408
sg46
S'32.2'
p409
sg48
S'0.0'
p410
sg50
S'.500'
p411
sg52
S'0.0'
p412
sg54
S'1984-85'
p413
sg56
S'16.1'
p414
sg58
S'32.2'
p415
sg60
S'0.0'
p416
sg62
g75
sg64
g11
sba(isrc.gp1.models.Per100Possession
Per100Possession
p417
(dp418
g8
S'16.0'
p419
sg10
S'0.0'
p420
sg12
S'.000'
p421
sg274
g3
sg14
S'16.0'
p422
sg16
S'0.0'
p423
sg18
S'0.0'
p424
sg19
S'100'
p425
sg20
g21
sg280
g3
sg22
S'0.0'
p426
sg26
S'NBA'
p427
sg28
S'0.0'
p428
sg30
S'32.1'
p429
sg32
S'38'
p430
sg34
S'16.0'
p431
sg36
S'0.0'
p432
sg38
S'25'
p433
sg40
S'MIL'
p434
sg42
g65
sg44
S'0.0'
p435
sg46
S'32.1'
p436
sg48
S'0.0'
p437
sg50
S'.000'
p438
sg52
S'0.0'
p439
sg54
S'1984-85'
p440
sg56
S'0.0'
p441
sg58
S'0.0'
p442
sg60
S'0.0'
p443
sg62
g75
sg64
g11
sba(isrc.gp1.models.Per100Possession
Per100Possession
p444
(dp445
g8
S'8.2'
p446
sg10
S'0.0'
p447
sg12
S'.451'
p448
sg274
S'107'
p449
sg14
S'1.2'
p450
sg16
S'5.6'
p451
sg18
S'0.0'
p452
sg19
S'103'
p453
sg20
g21
sg280
g3
sg22
S'5.6'
p454
sg26
S'NBA'
p455
sg28
S'2.7'
p456
sg30
S'12.3'
p457
sg32
S'14.0'
p458
sg34
S'.750'
p459
sg36
S'1.9'
p460
sg38
S'27'
p461
sg40
S'TOT'
p462
sg42
S'30'
p463
sg44
S'2.9'
p464
sg46
S'12.3'
p465
sg48
S'3.9'
p466
sg50
S'.451'
p467
sg52
S'13.8'
p468
sg54
S'1986-87'
p469
sg56
S'5.6'
p470
sg58
S'8.0'
p471
sg60
S'2.9'
p472
sg62
S'195'
p473
sg64
g11
sba(isrc.gp1.models.Per100Possession
Per100Possession
p474
(dp475
g8
S'5.4'
p476
sg10
S'0.0'
p477
sg12
S'.500'
p478
sg274
S'106'
p479
sg14
S'2.7'
p480
sg16
S'10.8'
p481
sg18
S'0.0'
p482
sg19
S'121'
p483
sg20
g21
sg280
g3
sg22
S'16.1'
p484
sg26
S'NBA'
p485
sg28
S'2.7'
p486
sg30
S'21.5'
p487
sg32
S'29.6'
p488
sg34
S'1.000'
p489
sg36
S'2.7'
p490
sg38
S'27'
p491
sg40
S'POR'
p492
sg42
g15
sg44
S'5.4'
p493
sg46
S'21.5'
p494
sg48
S'8.1'
p495
sg50
S'.500'
p496
sg52
S'21.5'
p497
sg54
S'1986-87'
p498
sg56
S'10.8'
p499
sg58
S'0.0'
p500
sg60
S'8.1'
p501
sg62
S'17'
p502
sg64
g11
sba(isrc.gp1.models.Per100Possession
Per100Possession
p503
(dp504
g8
S'13.0'
p505
sg10
S'0.0'
p506
sg12
S'.250'
p507
sg274
S'102'
p508
sg14
S'1.0'
p509
sg16
S'3.0'
p510
sg18
S'0.0'
p511
sg19
S'89'
p512
sg20
g21
sg280
g3
sg22
S'3.0'
p513
sg26
S'NBA'
p514
sg28
S'1.0'
p515
sg30
S'12.0'
p516
sg32
S'7.0'
p517
sg34
S'1.000'
p518
sg36
S'3.0'
p519
sg38
S'27'
p520
sg40
S'MIL'
p521
sg42
g25
sg44
S'0.0'
p522
sg46
S'12.0'
p523
sg48
S'1.0'
p524
sg50
S'.250'
p525
sg52
S'15.9'
p526
sg54
S'1986-87'
p527
sg56
S'3.0'
p528
sg58
S'10.0'
p529
sg60
S'1.0'
p530
sg62
S'48'
p531
sg64
g11
sba(isrc.gp1.models.Per100Possession
Per100Possession
p532
(dp533
g8
S'6.9'
p534
sg10
S'0.0'
p535
sg12
S'.516'
p536
sg274
S'108'
p537
sg14
S'1.1'
p538
sg16
S'5.8'
p539
sg18
S'0.0'
p540
sg19
S'101'
p541
sg20
g21
sg280
g3
sg22
S'5.1'
p542
sg26
S'NBA'
p543
sg28
S'3.3'
p544
sg30
S'11.2'
p545
sg32
S'14.5'
p546
sg34
S'.667'
p547
sg36
S'1.5'
p548
sg38
S'27'
p549
sg40
S'NJN'
p550
sg42
S'18'
p551
sg44
S'3.6'
p552
sg46
S'11.2'
p553
sg48
S'4.4'
p554
sg50
S'.516'
p555
sg52
S'12.0'
p556
sg54
S'1986-87'
p557
sg56
S'5.8'
p558
sg58
S'8.3'
p559
sg60
S'2.9'
p560
sg62
S'130'
p561
sg64
g11
sba(isrc.gp1.models.Per100Possession
Per100Possession
p562
(dp563
g8
S'8.1'
p564
sg10
S'0.0'
p565
sg12
S'.409'
p566
sg274
S'109'
p567
sg14
S'1.1'
p568
sg16
S'4.4'
p569
sg18
S'0.0'
p570
sg19
S'95'
p571
sg20
g21
sg280
g3
sg22
S'3.9'
p572
sg26
S'NBA'
p573
sg28
S'0.7'
p574
sg30
S'10.7'
p575
sg32
S'12.6'
p576
sg34
S'.886'
p577
sg36
S'1.8'
p578
sg38
S'28'
p579
sg40
S'NJN'
p580
sg42
S'54'
p581
sg44
S'3.5'
p582
sg46
S'10.7'
p583
sg48
S'4.3'
p584
sg50
S'.409'
p585
sg52
S'12.0'
p586
sg54
S'1987-88'
p587
sg56
S'4.4'
p588
sg58
S'8.9'
p589
sg60
S'3.8'
p590
sg62
S'399'
p591
sg64
g11
sbasS'_advanced'
p592
(lp593
(isrc.gp1.models.Advanced
Advanced
p594
(dp595
S'_offensiveReboundPercentage'
p596
S'12.2'
p597
sS'_turnOverPercentage'
p598
S'19.2'
p599
sS'_winSharesPer48Minutes'
p600
S'-0.006'
p601
sS'_stealPercentage'
p602
S'0.9'
p603
sS'_usagePercentage'
p604
S'13.3'
p605
sS'_totalReboundsPercentage'
p606
S'15.3'
p607
sS'_defensiveBoxPlusMinus'
p608
S'-0.5'
p609
sg20
g21
sS'_valueOverReplacementPlayer'
p610
S'-0.3'
p611
sS'_trueShootingPercentage'
p612
S'.401'
p613
sS'_defensiveReboundPercentage'
p614
S'18.5'
p615
sS'_freeThrowsAttempRate'
p616
S'.170'
p617
sS'_threePointsAttempRate'
p618
S'.000'
p619
sg26
S'NBA'
p620
sS'_offensiveBoxPlusMinues'
p621
S'-5.0'
p622
sS'_assistPercentage'
p623
S'3.7'
p624
sS'_defensiveWinShares'
p625
S'0.3'
p626
sg38
S'23'
p627
sg40
S'GSW'
p628
sg42
S'54'
p629
sS'_blockPercentage'
p630
S'2.6'
p631
sS'_playerEfficiencyRating'
p632
S'5.8'
p633
sS'_offensiveWinShares'
p634
S'-0.3'
p635
sg62
S'369'
p636
sS'_boxPlusMinus'
p637
S'-5.5'
p638
sg54
S'1982-83'
p639
sS'_winShares'
p640
S'0.0'
p641
sba(isrc.gp1.models.Advanced
Advanced
p642
(dp643
g596
S'7.6'
p644
sg598
S'20.5'
p645
sg600
S'.000'
p646
sg602
S'1.2'
p647
sg604
S'12.7'
p648
sg606
S'14.7'
p649
sg608
S'-0.9'
p650
sg20
g21
sg610
S'-0.5'
p651
sg612
S'.430'
p652
sg614
S'22.8'
p653
sg616
S'.277'
p654
sg618
S'.000'
p655
sg26
S'NBA'
p656
sg621
S'-6.5'
p657
sg623
S'3.8'
p658
sg625
S'0.4'
p659
sg38
S'24'
p660
sg40
S'GSW'
p661
sg42
S'46'
p662
sg630
S'0.5'
p663
sg632
S'5.3'
p664
sg634
S'-0.4'
p665
sg62
S'360'
p666
sg637
S'-7.4'
p667
sg54
S'1983-84'
p668
sg640
S'0.0'
p669
sba(isrc.gp1.models.Advanced
Advanced
p670
(dp671
g596
S'16.1'
p672
sg598
S'7.7'
p673
sg600
S'.095'
p674
sg602
S'1.2'
p675
sg604
S'12.8'
p676
sg606
S'20.6'
p677
sg608
S'-3.0'
p678
sg20
g21
sg610
S'-0.1'
p679
sg612
S'.438'
p680
sg614
S'25.4'
p681
sg616
S'.450'
p682
sg618
S'.000'
p683
sg26
S'NBA'
p684
sg621
S'-5.4'
p685
sg623
S'0.0'
p686
sg625
S'0.1'
p687
sg38
S'25'
p688
sg40
S'TOT'
p689
sg42
S'11'
p690
sg630
S'3.6'
p691
sg632
S'13.2'
p692
sg634
S'0.0'
p693
sg62
S'82'
p694
sg637
S'-8.4'
p695
sg54
S'1984-85'
p696
sg640
S'0.2'
p697
sba(isrc.gp1.models.Advanced
Advanced
p698
(dp699
g596
S'14.3'
p700
sg598
S'4.8'
p701
sg600
S'.124'
p702
sg602
S'1.3'
p703
sg604
S'11.1'
p704
sg606
S'19.9'
p705
sg608
S'-2.8'
p706
sg20
g21
sg610
S'-0.1'
p707
sg612
S'.476'
p708
sg614
S'25.9'
p709
sg616
S'.563'
p710
sg618
S'.000'
p711
sg26
S'NBA'
p712
sg621
S'-4.7'
p713
sg623
S'0.0'
p714
sg625
S'0.1'
p715
sg38
S'25'
p716
sg40
S'NJN'
p717
sg42
g15
sg630
S'3.1'
p718
sg632
S'13.9'
p719
sg634
S'0.1'
p720
sg62
S'76'
p721
sg637
S'-7.4'
p722
sg54
S'1984-85'
p723
sg640
S'0.2'
p724
sba(isrc.gp1.models.Advanced
Advanced
p725
(dp726
g596
S'39.6'
p727
sg598
S'33.3'
p728
sg600
S'-0.225'
p729
sg602
S'0.0'
p730
sg604
S'41.8'
p731
sg606
S'38.6'
p732
sg608
S'-13.7'
p733
sg20
g21
sg610
S'0.0'
p734
sg612
S'.500'
p735
sg614
S'37.7'
p736
sg616
S'.000'
p737
sg618
S'.000'
p738
sg26
S'NBA'
p739
sg621
S'-12.1'
p740
sg623
S'0.0'
p741
sg625
S'0.0'
p742
sg38
S'25'
p743
sg40
S'CHI'
p744
sg42
g75
sg630
S'0.0'
p745
sg632
S'9.1'
p746
sg634
S'0.0'
p747
sg62
g75
sg637
S'-25.8'
p748
sg54
S'1984-85'
p749
sg640
S'0.0'
p750
sba(isrc.gp1.models.Advanced
Advanced
p751
(dp752
g596
S'37.2'
p753
sg598
S'0.0'
p754
sg600
S'-0.338'
p755
sg602
S'0.0'
p756
sg604
S'27.2'
p757
sg606
S'18.5'
p758
sg608
S'1.0'
p759
sg20
g21
sg610
S'0.0'
p760
sg612
S'.000'
p761
sg614
S'0.0'
p762
sg616
S'.000'
p763
sg618
S'.000'
p764
sg26
S'NBA'
p765
sg621
S'-16.4'
p766
sg623
S'0.0'
p767
sg625
S'0.0'
p768
sg38
S'25'
p769
sg40
S'MIL'
p770
sg42
g65
sg630
S'19.8'
p771
sg632
S'0.0'
p772
sg634
S'0.0'
p773
sg62
g75
sg637
S'-15.4'
p774
sg54
S'1984-85'
p775
sg640
S'0.0'
p776
sba(isrc.gp1.models.Advanced
Advanced
p777
(dp778
g596
S'13.3'
p779
sg598
S'17.1'
p780
sg600
S'.071'
p781
sg602
S'1.2'
p782
sg604
S'14.5'
p783
sg606
S'16.4'
p784
sg608
S'0.9'
p785
sg20
g21
sg610
S'0.0'
p786
sg612
S'.500'
p787
sg614
S'19.6'
p788
sg616
S'.314'
p789
sg618
S'.000'
p790
sg26
S'NBA'
p791
sg621
S'-3.1'
p792
sg623
S'5.5'
p793
sg625
S'0.2'
p794
sg38
S'27'
p795
sg40
S'TOT'
p796
sg42
S'30'
p797
sg630
S'3.3'
p798
sg632
S'11.0'
p799
sg634
S'0.0'
p800
sg62
S'195'
p801
sg637
S'-2.3'
p802
sg54
S'1986-87'
p803
sg640
S'0.3'
p804
sba(isrc.gp1.models.Advanced
Advanced
p805
(dp806
g596
S'40.4'
p807
sg598
S'17.7'
p808
sg600
S'.239'
p809
sg602
S'2.7'
p810
sg604
S'26.2'
p811
sg606
S'26.3'
p812
sg608
S'-0.6'
p813
sg20
g21
sg610
S'0.0'
p814
sg612
S'.590'
p815
sg614
S'12.9'
p816
sg616
S'.375'
p817
sg618
S'.000'
p818
sg26
S'NBA'
p819
sg621
S'6.4'
p820
sg623
S'8.6'
p821
sg625
S'0.0'
p822
sg38
S'27'
p823
sg40
S'POR'
p824
sg42
g15
sg630
S'3.3'
p825
sg632
S'29.1'
p826
sg634
S'0.1'
p827
sg62
S'17'
p828
sg637
S'5.9'
p829
sg54
S'1986-87'
p830
sg640
S'0.1'
p831
sba(isrc.gp1.models.Advanced
Advanced
p832
(dp833
g596
S'6.9'
p834
sg598
S'0.0'
p835
sg600
S'.052'
p836
sg602
S'1.0'
p837
sg604
S'10.6'
p838
sg606
S'18.5'
p839
sg608
S'1.3'
p840
sg20
g21
sg610
S'0.0'
p841
sg612
S'.281'
p842
sg614
S'30.5'
p843
sg616
S'.083'
p844
sg618
S'.000'
p845
sg26
S'NBA'
p846
sg621
S'-6.5'
p847
sg623
S'7.7'
p848
sg625
S'0.1'
p849
sg38
S'27'
p850
sg40
S'MIL'
p851
sg42
g25
sg630
S'1.3'
p852
sg632
S'5.8'
p853
sg634
S'0.0'
p854
sg62
S'48'
p855
sg637
S'-5.2'
p856
sg54
S'1986-87'
p857
sg640
S'0.1'
p858
sba(isrc.gp1.models.Advanced
Advanced
p859
(dp860
g596
S'12.1'
p861
sg598
S'21.6'
p862
sg600
S'.056'
p863
sg602
S'1.1'
p864
sg604
S'14.4'
p865
sg606
S'14.3'
p866
sg608
S'0.9'
p867
sg20
g21
sg610
S'0.0'
p868
sg612
S'.551'
p869
sg614
S'16.4'
p870
sg616
S'.387'
p871
sg618
S'.000'
p872
sg26
S'NBA'
p873
sg621
S'-3.1'
p874
sg623
S'4.2'
p875
sg625
S'0.1'
p876
sg38
S'27'
p877
sg40
S'NJN'
p878
sg42
S'18'
p879
sg630
S'4.1'
p880
sg632
S'10.6'
p881
sg634
S'0.0'
p882
sg62
S'130'
p883
sg637
S'-2.2'
p884
sg54
S'1986-87'
p885
sg640
S'0.2'
p886
sba(isrc.gp1.models.Advanced
Advanced
p887
(dp888
g596
S'9.0'
p889
sg598
S'21.9'
p890
sg600
S'.022'
p891
sg602
S'1.1'
p892
sg604
S'14.0'
p893
sg606
S'14.2'
p894
sg608
S'-0.6'
p895
sg20
g21
sg610
S'-0.4'
p896
sg612
S'.498'
p897
sg614
S'19.9'
p898
sg616
S'.398'
p899
sg618
S'.000'
p900
sg26
S'NBA'
p901
sg621
S'-5.4'
p902
sg623
S'5.2'
p903
sg625
S'0.3'
p904
sg38
S'28'
p905
sg40
S'NJN'
p906
sg42
S'54'
p907
sg630
S'0.9'
p908
sg632
S'7.1'
p909
sg634
S'-0.2'
p910
sg62
S'399'
p911
sg637
S'-5.9'
p912
sg54
S'1987-88'
p913
sg640
S'0.2'
p914
sbasS'_per36Minutes'
p915
(lp916
(isrc.gp1.models.Per36Minutes
Per36Minutes
p917
(dp918
g8
S'6.0'
p919
sg10
S'0.0'
p920
sg12
S'.404'
p921
sg14
S'0.7'
p922
sg16
S'3.7'
p923
sg18
S'0.0'
p924
sg19
g3
sg20
g21
sg22
S'4.2'
p925
sg26
S'NBA'
p926
sg28
S'1.7'
p927
sg30
S'9.2'
p928
sg32
S'7.9'
p929
sg34
S'.313'
p930
sg36
S'1.1'
p931
sg38
S'23'
p932
sg40
S'GSW'
p933
sg42
S'54'
p934
sg44
S'2.3'
p935
sg46
S'9.2'
p936
sg48
S'1.6'
p937
sg50
S'.404'
p938
sg52
S'10.1'
p939
sg54
S'1982-83'
p940
sg56
S'3.7'
p941
sg58
S'9.3'
p942
sg60
S'0.5'
p943
sg62
S'369'
p944
sg64
g65
sba(isrc.gp1.models.Per36Minutes
Per36Minutes
p945
(dp946
g8
S'7.0'
p947
sg10
S'0.0'
p948
sg12
S'.398'
p949
sg14
S'0.9'
p950
sg16
S'3.3'
p951
sg18
S'0.0'
p952
sg19
g3
sg20
g21
sg22
S'2.7'
p953
sg26
S'NBA'
p954
sg28
S'0.3'
p955
sg30
S'8.3'
p956
sg32
S'8.0'
p957
sg34
S'.609'
p958
sg36
S'1.1'
p959
sg38
S'24'
p960
sg40
S'GSW'
p961
sg42
S'46'
p962
sg44
S'2.4'
p963
sg46
S'8.3'
p964
sg48
S'2.3'
p965
sg50
S'.398'
p966
sg52
S'9.7'
p967
sg54
S'1983-84'
p968
sg56
S'3.3'
p969
sg58
S'6.8'
p970
sg60
S'1.4'
p971
sg62
S'360'
p972
sg64
g65
sba(isrc.gp1.models.Per36Minutes
Per36Minutes
p973
(dp974
g8
S'7.9'
p975
sg10
S'0.0'
p976
sg12
S'.400'
p977
sg14
S'0.9'
p978
sg16
S'3.5'
p979
sg18
S'0.0'
p980
sg19
g3
sg20
g21
sg22
S'5.3'
p981
sg26
S'NBA'
p982
sg28
S'2.2'
p983
sg30
S'8.8'
p984
sg32
S'9.2'
p985
sg34
S'.556'
p986
sg36
S'0.0'
p987
sg38
S'25'
p988
sg40
S'TOT'
p989
sg42
S'11'
p990
sg44
S'0.9'
p991
sg46
S'8.8'
p992
sg48
S'4.0'
p993
sg50
S'.400'
p994
sg52
S'13.2'
p995
sg54
S'1984-85'
p996
sg56
S'3.5'
p997
sg58
S'2.2'
p998
sg60
S'2.2'
p999
sg62
S'82'
p1000
sg64
g11
sba(isrc.gp1.models.Per36Minutes
Per36Minutes
p1001
(dp1002
g8
S'8.1'
p1003
sg10
S'0.0'
p1004
sg12
S'.438'
p1005
sg14
S'0.9'
p1006
sg16
S'3.3'
p1007
sg18
S'0.0'
p1008
sg19
g3
sg20
g21
sg22
S'4.7'
p1009
sg26
S'NBA'
p1010
sg28
S'1.9'
p1011
sg30
S'7.6'
p1012
sg32
S'9.0'
p1013
sg34
S'.556'
p1014
sg36
S'0.0'
p1015
sg38
S'25'
p1016
sg40
S'NJN'
p1017
sg42
g15
sg44
S'0.5'
p1018
sg46
S'7.6'
p1019
sg48
S'4.3'
p1020
sg50
S'.438'
p1021
sg52
S'12.8'
p1022
sg54
S'1984-85'
p1023
sg56
S'3.3'
p1024
sg58
S'1.9'
p1025
sg60
S'2.4'
p1026
sg62
S'76'
p1027
sg64
g11
sba(isrc.gp1.models.Per36Minutes
Per36Minutes
p1028
(dp1029
g8
S'24.0'
p1030
sg10
S'0.0'
p1031
sg12
S'.500'
p1032
sg14
S'0.0'
p1033
sg16
S'12.0'
p1034
sg18
S'0.0'
p1035
sg19
g3
sg20
g21
sg22
S'12.0'
p1036
sg26
S'NBA'
p1037
sg28
S'12.0'
p1038
sg30
S'24.0'
p1039
sg32
g3
sg34
S'12.0'
p1040
sg36
S'0.0'
p1041
sg38
S'25'
p1042
sg40
S'CHI'
p1043
sg42
g75
sg44
S'12.0'
p1044
sg46
S'24.0'
p1045
sg48
S'0.0'
p1046
sg50
S'.500'
p1047
sg52
S'0.0'
p1048
sg54
S'1984-85'
p1049
sg56
S'12.0'
p1050
sg58
S'24.0'
p1051
sg60
S'0.0'
p1052
sg62
g75
sg64
g11
sba(isrc.gp1.models.Per36Minutes
Per36Minutes
p1053
(dp1054
g8
S'12.0'
p1055
sg10
S'0.0'
p1056
sg12
S'.000'
p1057
sg14
S'12.0'
p1058
sg16
S'0.0'
p1059
sg18
S'0.0'
p1060
sg19
g3
sg20
g21
sg22
S'0.0'
p1061
sg26
S'NBA'
p1062
sg28
S'0.0'
p1063
sg30
S'24.0'
p1064
sg32
g3
sg34
S'12.0'
p1065
sg36
S'0.0'
p1066
sg38
S'25'
p1067
sg40
S'MIL'
p1068
sg42
g65
sg44
S'0.0'
p1069
sg46
S'24.0'
p1070
sg48
S'0.0'
p1071
sg50
S'.000'
p1072
sg52
S'0.0'
p1073
sg54
S'1984-85'
p1074
sg56
S'0.0'
p1075
sg58
S'0.0'
p1076
sg60
S'0.0'
p1077
sg62
g75
sg64
g11
sba(isrc.gp1.models.Per36Minutes
Per36Minutes
p1078
(dp1079
g8
S'6.3'
p1080
sg10
S'0.0'
p1081
sg12
S'.451'
p1082
sg14
S'0.9'
p1083
sg16
S'4.2'
p1084
sg18
S'0.0'
p1085
sg19
g3
sg20
g21
sg22
S'4.2'
p1086
sg26
S'NBA'
p1087
sg28
S'2.0'
p1088
sg30
S'9.4'
p1089
sg32
S'10.7'
p1090
sg34
S'.750'
p1091
sg36
S'1.5'
p1092
sg38
S'27'
p1093
sg40
S'TOT'
p1094
sg42
S'30'
p1095
sg44
S'2.2'
p1096
sg46
S'9.4'
p1097
sg48
S'3.0'
p1098
sg50
S'.451'
p1099
sg52
S'10.5'
p1100
sg54
S'1986-87'
p1101
sg56
S'4.2'
p1102
sg58
S'6.1'
p1103
sg60
S'2.2'
p1104
sg62
S'195'
p1105
sg64
g11
sba(isrc.gp1.models.Per36Minutes
Per36Minutes
p1106
(dp1107
g8
S'4.2'
p1108
sg10
S'0.0'
p1109
sg12
S'.500'
p1110
sg14
S'2.1'
p1111
sg16
S'8.5'
p1112
sg18
S'0.0'
p1113
sg19
g3
sg20
g21
sg22
S'12.7'
p1114
sg26
S'NBA'
p1115
sg28
S'2.1'
p1116
sg30
S'16.9'
p1117
sg32
S'23.3'
p1118
sg34
S'1.000'
p1119
sg36
S'2.1'
p1120
sg38
S'27'
p1121
sg40
S'POR'
p1122
sg42
g15
sg44
S'4.2'
p1123
sg46
S'16.9'
p1124
sg48
S'6.4'
p1125
sg50
S'.500'
p1126
sg52
S'16.9'
p1127
sg54
S'1986-87'
p1128
sg56
S'8.5'
p1129
sg58
S'0.0'
p1130
sg60
S'6.4'
p1131
sg62
S'17'
p1132
sg64
g11
sba(isrc.gp1.models.Per36Minutes
Per36Minutes
p1133
(dp1134
g8
S'9.7'
p1135
sg10
S'0.0'
p1136
sg12
S'.250'
p1137
sg14
S'0.7'
p1138
sg16
S'2.3'
p1139
sg18
S'0.0'
p1140
sg19
g3
sg20
g21
sg22
S'2.3'
p1141
sg26
S'NBA'
p1142
sg28
S'0.7'
p1143
sg30
S'9.0'
p1144
sg32
S'5.2'
p1145
sg34
S'1.000'
p1146
sg36
S'2.3'
p1147
sg38
S'27'
p1148
sg40
S'MIL'
p1149
sg42
g25
sg44
S'0.0'
p1150
sg46
S'9.0'
p1151
sg48
S'0.7'
p1152
sg50
S'.250'
p1153
sg52
S'12.0'
p1154
sg54
S'1986-87'
p1155
sg56
S'2.3'
p1156
sg58
S'7.5'
p1157
sg60
S'0.7'
p1158
sg62
S'48'
p1159
sg64
g11
sba(isrc.gp1.models.Per36Minutes
Per36Minutes
p1160
(dp1161
g8
S'5.3'
p1162
sg10
S'0.0'
p1163
sg12
S'.516'
p1164
sg14
S'0.8'
p1165
sg16
S'4.4'
p1166
sg18
S'0.0'
p1167
sg19
g3
sg20
g21
sg22
S'3.9'
p1168
sg26
S'NBA'
p1169
sg28
S'2.5'
p1170
sg30
S'8.6'
p1171
sg32
S'11.1'
p1172
sg34
S'.667'
p1173
sg36
S'1.1'
p1174
sg38
S'27'
p1175
sg40
S'NJN'
p1176
sg42
S'18'
p1177
sg44
S'2.8'
p1178
sg46
S'8.6'
p1179
sg48
S'3.3'
p1180
sg50
S'.516'
p1181
sg52
S'9.1'
p1182
sg54
S'1986-87'
p1183
sg56
S'4.4'
p1184
sg58
S'6.4'
p1185
sg60
S'2.2'
p1186
sg62
S'130'
p1187
sg64
g11
sba(isrc.gp1.models.Per36Minutes
Per36Minutes
p1188
(dp1189
g8
S'6.0'
p1190
sg10
S'0.0'
p1191
sg12
S'.409'
p1192
sg14
S'0.8'
p1193
sg16
S'3.2'
p1194
sg18
S'0.0'
p1195
sg19
g3
sg20
g21
sg22
S'2.9'
p1196
sg26
S'NBA'
p1197
sg28
S'0.5'
p1198
sg30
S'7.9'
p1199
sg32
S'9.3'
p1200
sg34
S'.886'
p1201
sg36
S'1.4'
p1202
sg38
S'28'
p1203
sg40
S'NJN'
p1204
sg42
S'54'
p1205
sg44
S'2.6'
p1206
sg46
S'7.9'
p1207
sg48
S'3.2'
p1208
sg50
S'.409'
p1209
sg52
S'8.8'
p1210
sg54
S'1987-88'
p1211
sg56
S'3.2'
p1212
sg58
S'6.6'
p1213
sg60
S'2.8'
p1214
sg62
S'399'
p1215
sg64
g11
sbasS'_fromYear'
p1216
S'1983'
p1217
sS'_url'
p1218
S'http://www.basketball-reference.com/players/e/englech01.html'
p1219
sS'_perGame'
p1220
(isrc.gp1.models.PerGame
PerGame
p1221
(dp1222
g8
S'1.2'
p1223
sg10
S'0.0'
p1224
sg12
S'.409'
p1225
sS'_effectiveFieldGalPercentage'
p1226
S'0.6'
p1227
sg14
S'0.2'
p1228
sg16
S'0.7'
p1229
sg18
S'0.0'
p1230
sg19
g3
sg20
g21
sg22
S'0.6'
p1231
sg26
S'NBA'
p1232
sg28
S'0.1'
p1233
sg32
S'1.9'
p1234
sS'_fieldGoalsttempted'
p1235
S'1.6'
p1236
sg34
S'.886'
p1237
sg36
S'0.3'
p1238
sg38
S'28'
p1239
sg40
S'NJN'
p1240
sg42
S'54'
p1241
sg44
S'0.5'
p1242
sg46
S'1.6'
p1243
sg48
S'0.6'
p1244
sg50
S'.409'
p1245
sg52
S'1.8'
p1246
sg54
S'1987-88'
p1247
sg56
S'0.7'
p1248
sg58
S'1.4'
p1249
sg60
S'.409'
p1250
sg62
S'7.4'
p1251
sg64
g11
sbsS'_weight'
p1252
S'245'
p1253
sS'_dob'
p1254
S'1-3-1959'
p1255
sS'_salary'
p1256
(lp1257
(isrc.gp1.models.Salary
Salary
p1258
(dp1259
g40
S'New Jersey Nets'
p1260
sg26
S'NBA'
p1261
sg1256
S'$125,000'
p1262
sg54
S'1987-88'
p1263
sbasg20
g21
sb.