(isrc.gp1.models.Player
Player
p0
(dp1
S'_experience'
p2
S'NA'
p3
sS'_totals'
p4
(lp5
(isrc.gp1.models.Totals
Totals
p6
(dp7
S'_offensiveRebounds'
p8
S'106'
p9
sS'_threePointsAttempted'
p10
S'.250'
p11
sS'_fieldGoalsPercentage'
p12
S'1'
p13
sS'_assist'
p14
S'1410'
p15
sS'_threePointsPercentage'
p16
S'532'
p17
sS'_threePoints'
p18
S'4'
p19
sS'_points'
p20
g3
sS'_position'
p21
S'SF'
p22
sS'_freeThrowsPercentage'
p23
S'694'
p24
sS'_effectiveFieldGoalPercentage'
p25
S'343'
p26
sS'_league'
p27
S'ABA'
p28
sS'_steals'
p29
g3
sS'_fieldGoalsAttempted'
p30
S'.489'
p31
sS'_personalFouls'
p32
g3
sS'_freeThrowsAttempted'
p33
S'.692'
p34
sS'_totalRebounds'
p35
S'254'
p36
sS'_age'
p37
S'25'
p38
sS'_team'
p39
S'DLC'
p40
sS'_games'
p41
S'77'
p42
sS'_blocks'
p43
g3
sS'_twoPoints'
p44
S'1085'
p45
sS'_freeThrows'
p46
S'496'
p47
sS'_twoPointsAttempted'
p48
S'.490'
p49
sS'_defensiveRebounds'
p50
S'190'
p51
sS'_season'
p52
S'1967-68'
p53
sS'_fieldGoals'
p54
S'1089'
p55
sS'_turnOvers'
p56
g3
sS'_twoPointsPercentage'
p57
S'.490'
p58
sS'_minutesPlayed'
p59
S'533'
p60
sS'_gamesStarted'
p61
S'2524'
p62
sba(isrc.gp1.models.Totals
Totals
p63
(dp64
g8
S'468'
p65
sg10
S'.286'
p66
sg12
S'2'
p67
sg14
S'212'
p68
sg16
S'553'
p69
sg18
S'7'
p70
sg20
g3
sg21
S'SF'
p71
sg23
S'203'
p72
sg25
S'342'
p73
sg27
S'ABA'
p74
sg29
S'275'
p75
sg30
S'.471'
p76
sg32
g3
sg33
S'.728'
p77
sg35
S'173'
p78
sg37
S'26'
p79
sg39
S'DLC'
p80
sg41
S'75'
p81
sg43
S'1454'
p82
sg44
S'1172'
p83
sg46
S'470'
p84
sg48
S'.472'
p85
sg50
S'671'
p86
sg52
S'1968-69'
p87
sg54
S'1179'
p88
sg56
g3
sg57
S'.472'
p89
sg59
S'555'
p90
sg61
S'2573'
p91
sba(isrc.gp1.models.Totals
Totals
p92
(dp93
g8
S'489'
p94
sg10
S'.167'
p95
sg12
g67
sg14
S'251'
p96
sg16
S'560'
p97
sg18
S'12'
p98
sg20
g3
sg21
S'SF'
p99
sg23
S'193'
p100
sg25
S'402'
p101
sg27
S'ABA'
p102
sg29
S'250'
p103
sg30
S'.468'
p104
sg32
g3
sg33
S'.775'
p105
sg35
S'192'
p106
sg37
S'27'
p107
sg39
S'DLC'
p108
sg41
S'76'
p109
sg43
S'1528'
p110
sg44
S'1188'
p111
sg46
S'519'
p112
sg48
S'.471'
p113
sg50
S'682'
p114
sg52
S'1969-70'
p115
sg54
S'1200'
p116
sg56
g3
sg57
S'.469'
p117
sg59
S'562'
p118
sg61
S'2624'
p119
sba(isrc.gp1.models.Totals
Totals
p120
(dp121
g8
S'579'
p122
sg10
S'.250'
p123
sg12
g19
sg14
S'235'
p124
sg16
S'574'
p125
sg18
S'16'
p126
sg20
g3
sg21
S'SF'
p127
sg23
S'311'
p128
sg25
S'302'
p129
sg27
S'ABA'
p130
sg29
S'323'
p131
sg30
S'.493'
p132
sg32
g3
sg33
S'.759'
p133
sg35
S'255'
p134
sg37
S'28'
p135
sg39
S'KEN'
p136
sg41
S'81'
p137
sg43
S'1462'
p138
sg44
S'1157'
p139
sg46
S'398'
p140
sg48
S'.496'
p141
sg50
S'890'
p142
sg52
S'1970-71'
p143
sg54
S'1173'
p144
sg56
g3
sg57
S'.494'
p145
sg59
S'578'
p146
sg61
S'2933'
p147
sba(isrc.gp1.models.Totals
Totals
p148
(dp149
g8
S'342'
p150
sg10
S'.308'
p151
sg12
g19
sg14
S'178'
p152
sg16
S'426'
p153
sg18
S'13'
p154
sg20
g3
sg21
S'SF'
p155
sg23
S'158'
p156
sg25
S'185'
p157
sg27
S'ABA'
p158
sg29
S'219'
p159
sg30
S'.474'
p160
sg32
g3
sg33
S'.723'
p161
sg35
S'237'
p162
sg37
S'29'
p163
sg39
S'KEN'
p164
sg41
S'65'
p165
sg43
S'1049'
p166
sg44
S'894'
p167
sg46
S'256'
p168
sg48
S'.477'
p169
sg50
S'500'
p170
sg52
S'1971-72'
p171
sg54
S'907'
p172
sg56
g3
sg57
S'.476'
p173
sg59
S'430'
p174
sg61
S'2288'
p175
sba(isrc.gp1.models.Totals
Totals
p176
(dp177
g8
S'285'
p178
sg10
S'.231'
p179
sg12
S'3'
p180
sg14
S'137'
p181
sg16
S'420'
p182
sg18
S'13'
p183
sg20
g3
sg21
S'SF'
p184
sg23
S'135'
p185
sg25
S'167'
p186
sg27
S'ABA'
p187
sg29
S'249'
p188
sg30
S'.496'
p189
sg32
g3
sg33
S'.696'
p190
sg35
S'137'
p191
sg37
S'30'
p192
sg39
S'UTS'
p193
sg41
S'83'
p194
sg43
S'1016'
p195
sg44
S'840'
p196
sg46
S'240'
p197
sg48
S'.500'
p198
sg50
S'420'
p199
sg52
S'1972-73'
p200
sg54
S'853'
p201
sg56
g3
sg57
S'.498'
p202
sg59
S'423'
p203
sg61
S'1985'
p204
sba(isrc.gp1.models.Totals
Totals
p205
(dp206
g8
S'348'
p207
sg10
S'.323'
p208
sg12
S'10'
p209
sg14
S'46'
p210
sg16
S'518'
p211
sg18
S'31'
p212
sg20
g3
sg21
S'PF'
p213
sg23
S'171'
p214
sg25
S'209'
p215
sg27
S'ABA'
p216
sg29
S'32'
p217
sg30
S'.452'
p218
sg32
S'1275'
p219
sg33
S'.706'
p220
sg35
S'136'
p221
sg37
S'31'
p222
sg39
S'VIR'
p223
sg41
S'82'
p224
sg43
S'186'
p225
sg44
S'1136'
p226
sg46
S'296'
p227
sg48
S'.456'
p228
sg50
S'519'
p229
sg52
S'1973-74'
p230
sg54
S'1167'
p231
sg56
S'270'
p232
sg57
S'.457'
p233
sg59
S'528'
p234
sg61
S'2485'
p235
sba(isrc.gp1.models.Totals
Totals
p236
(dp237
g8
S'132'
p238
sg10
S'.294'
p239
sg12
S'5'
p240
sg14
S'27'
p241
sg16
S'209'
p242
sg18
S'17'
p243
sg20
g3
sg21
S'SF'
p244
sg23
S'74'
p245
sg25
S'119'
p246
sg27
S'ABA'
p247
sg29
S'8'
p248
sg30
S'.404'
p249
sg32
S'552'
p250
sg33
S'.661'
p251
sg35
S'94'
p252
sg37
S'32'
p253
sg39
S'VIR'
p254
sg41
S'60'
p255
sg43
S'91'
p256
sg44
S'513'
p257
sg46
S'180'
p258
sg48
S'.407'
p259
sg50
S'206'
p260
sg52
S'1974-75'
p261
sg54
S'530'
p262
sg56
S'138'
p263
sg57
S'.408'
p264
sg59
S'214'
p265
sg61
S'1224'
p266
sbasS'_college'
p267
S'University of Portland'
p268
sS'_toYear'
p269
S'1975'
p270
sS'_height'
p271
S'6-7'
p272
sS'_active'
p273
I00
sS'_shootingHand'
p274
VRight
p275
sS'_name'
p276
S'Cincinnatus Powell'
p277
sS'_per100Possessions'
p278
(lp279
(isrc.gp1.models.Per100Possession
Per100Possession
p280
(dp281
g8
S'6.4'
p282
sg10
S'.323'
p283
sg12
S'0.2'
p284
sS'_offensiveRating'
p285
S'107'
p286
sg14
S'0.8'
p287
sg16
S'9.5'
p288
sg18
S'0.6'
p289
sg20
S'100'
p290
sg21
S'PF'
p291
sS'_defensiveRating'
p292
g3
sg23
S'3.1'
p293
sg27
S'ABA'
p294
sg29
S'0.6'
p295
sg30
S'.452'
p296
sg32
S'23.5'
p297
sg33
S'.706'
p298
sg35
S'2.5'
p299
sg37
S'31'
p300
sg39
S'VIR'
p301
sg41
S'82'
p302
sg43
S'3.4'
p303
sg44
S'20.9'
p304
sg46
S'5.5'
p305
sg48
S'.456'
p306
sg50
S'9.6'
p307
sg52
S'1973-74'
p308
sg54
S'21.5'
p309
sg56
S'5.0'
p310
sg57
S'3.8'
p311
sg59
S'9.7'
p312
sg61
S'2485'
p313
sba(isrc.gp1.models.Per100Possession
Per100Possession
p314
(dp315
g8
S'5.1'
p316
sg10
S'.294'
p317
sg12
S'0.2'
p318
sg285
S'110'
p319
sg14
S'1.0'
p320
sg16
S'8.1'
p321
sg18
S'0.7'
p322
sg20
S'94'
p323
sg21
S'SF'
p324
sg292
g3
sg23
S'2.9'
p325
sg27
S'ABA'
p326
sg29
S'0.3'
p327
sg30
S'.404'
p328
sg32
S'21.4'
p329
sg33
S'.661'
p330
sg35
S'3.7'
p331
sg37
S'32'
p332
sg39
S'VIR'
p333
sg41
S'60'
p334
sg43
S'3.5'
p335
sg44
S'19.9'
p336
sg46
S'7.0'
p337
sg48
S'.407'
p338
sg50
S'8.0'
p339
sg52
S'1974-75'
p340
sg54
S'20.6'
p341
sg56
S'5.4'
p342
sg57
S'4.6'
p343
sg59
S'8.3'
p344
sg61
S'1224'
p345
sbasS'_advanced'
p346
(lp347
(isrc.gp1.models.Advanced
Advanced
p348
(dp349
S'_offensiveReboundPercentage'
p350
S'13.0'
p351
sS'_turnOverPercentage'
p352
S'8.1'
p353
sS'_winSharesPer48Minutes'
p354
g3
sS'_stealPercentage'
p355
S'6.9'
p356
sS'_usagePercentage'
p357
S'.154'
p358
sS'_totalReboundsPercentage'
p359
S'12.7'
p360
sS'_defensiveBoxPlusMinus'
p361
g3
sg21
S'SF'
p362
sS'_valueOverReplacementPlayer'
p363
g3
sS'_trueShootingPercentage'
p364
S'.539'
p365
sS'_defensiveReboundPercentage'
p366
S'6.4'
p367
sS'_freeThrowsAttempRate'
p368
S'.455'
p369
sS'_threePointsAttempRate'
p370
S'.004'
p371
sg27
S'ABA'
p372
sS'_offensiveBoxPlusMinues'
p373
g3
sS'_assistPercentage'
p374
S'22.8'
p375
sS'_defensiveWinShares'
p376
g3
sg37
S'25'
p377
sg39
S'DLC'
p378
sg41
S'77'
p379
sS'_blockPercentage'
p380
S'1.2'
p381
sS'_playerEfficiencyRating'
p382
S'20.5'
p383
sS'_offensiveWinShares'
p384
g3
sg59
S'2524'
p385
sS'_boxPlusMinus'
p386
g3
sg52
S'1967-68'
p387
sS'_winShares'
p388
g3
sba(isrc.gp1.models.Advanced
Advanced
p389
(dp390
g350
S'11.9'
p391
sg352
S'6.4'
p392
sg354
g3
sg355
S'4.6'
p393
sg357
S'.120'
p394
sg359
S'13.3'
p395
sg361
g3
sg21
S'SF'
p396
sg363
g3
sg364
S'.525'
p397
sg366
S'10.7'
p398
sg368
S'.399'
p399
sg370
S'.006'
p400
sg27
S'ABA'
p401
sg373
g3
sg374
S'23.6'
p402
sg376
g3
sg37
S'26'
p403
sg39
S'DLC'
p404
sg41
S'75'
p405
sg380
S'1.8'
p406
sg382
S'19.4'
p407
sg384
g3
sg59
S'2573'
p408
sg386
g3
sg52
S'1968-69'
p409
sg388
g3
sba(isrc.gp1.models.Advanced
Advanced
p410
(dp411
g350
S'11.4'
p412
sg352
S'6.8'
p413
sg354
g3
sg355
S'5.0'
p414
sg357
S'.125'
p415
sg359
S'14.9'
p416
sg361
g3
sg21
S'SF'
p417
sg363
g3
sg364
S'.535'
p418
sg366
S'10.2'
p419
sg368
S'.433'
p420
sg370
S'.010'
p421
sg27
S'ABA'
p422
sg373
g3
sg374
S'23.0'
p423
sg376
g3
sg37
S'27'
p424
sg39
S'DLC'
p425
sg41
S'76'
p426
sg380
S'1.9'
p427
sg382
S'18.5'
p428
sg384
g3
sg59
S'2624'
p429
sg386
g3
sg52
S'1969-70'
p430
sg388
g3
sba(isrc.gp1.models.Advanced
Advanced
p431
(dp432
g350
S'13.1'
p433
sg352
S'7.0'
p434
sg354
g3
sg355
S'4.6'
p435
sg357
S'.114'
p436
sg359
S'14.8'
p437
sg361
g3
sg21
S'SF'
p438
sg363
g3
sg364
S'.542'
p439
sg366
S'11.2'
p440
sg368
S'.339'
p441
sg370
S'.014'
p442
sg27
S'ABA'
p443
sg373
g3
sg374
S'19.2'
p444
sg376
g3
sg37
S'28'
p445
sg39
S'KEN'
p446
sg41
S'81'
p447
sg380
S'2.4'
p448
sg382
S'17.1'
p449
sg384
g3
sg59
S'2933'
p450
sg386
g3
sg52
S'1970-71'
p451
sg388
g3
sba(isrc.gp1.models.Advanced
Advanced
p452
(dp453
g350
S'6.7'
p454
sg352
S'2.1'
p455
sg354
g3
sg355
S'14.9'
p456
sg357
S'3.4'
p457
sg359
S'10.1'
p458
sg361
g3
sg21
S'SF'
p459
sg363
g3
sg364
S'.514'
p460
sg366
S'13.1'
p461
sg368
S'.282'
p462
sg370
S'.014'
p463
sg27
S'ABA'
p464
sg373
g3
sg374
S'13.8'
p465
sg376
S'.114'
p466
sg37
S'29'
p467
sg39
S'KEN'
p468
sg41
S'65'
p469
sg380
S'20.2'
p470
sg382
S'14.7'
p471
sg384
S'5.4'
p472
sg59
S'2288'
p473
sg386
g3
sg52
S'1971-72'
p474
sg388
g3
sba(isrc.gp1.models.Advanced
Advanced
p475
(dp476
g350
S'7.1'
p477
sg352
S'2.4'
p478
sg354
g3
sg355
S'12.5'
p479
sg357
S'1.9'
p480
sg359
S'10.4'
p481
sg361
g3
sg21
S'SF'
p482
sg363
g3
sg364
S'.530'
p483
sg366
S'13.4'
p484
sg368
S'.281'
p485
sg370
S'.015'
p486
sg27
S'ABA'
p487
sg373
g3
sg374
S'10.0'
p488
sg376
S'.104'
p489
sg37
S'30'
p490
sg39
S'UTS'
p491
sg41
S'83'
p492
sg380
S'21.6'
p493
sg382
S'15.1'
p494
sg384
S'4.3'
p495
sg59
S'1985'
p496
sg386
g3
sg52
S'1972-73'
p497
sg388
g3
sba(isrc.gp1.models.Advanced
Advanced
p498
(dp499
g350
S'6.9'
p500
sg352
S'12.5'
p501
sg354
S'.059'
p502
sg355
S'0.8'
p503
sg357
S'23.2'
p504
sg359
S'10.5'
p505
sg361
S'-1.9'
p506
sg21
S'PF'
p507
sg363
S'-0.4'
p508
sg364
S'.491'
p509
sg366
S'14.0'
p510
sg368
S'.254'
p511
sg370
S'.027'
p512
sg27
S'ABA'
p513
sg373
S'-0.7'
p514
sg374
S'8.6'
p515
sg376
S'1.3'
p516
sg37
S'31'
p517
sg39
S'VIR'
p518
sg41
S'82'
p519
sg380
S'0.7'
p520
sg382
S'13.9'
p521
sg384
S'1.7'
p522
sg59
S'2485'
p523
sg386
S'-2.6'
p524
sg52
S'1973-74'
p525
sg388
S'3.0'
p526
sba(isrc.gp1.models.Advanced
Advanced
p527
(dp528
g350
S'6.2'
p529
sg352
S'13.0'
p530
sg354
S'.002'
p531
sg355
S'1.0'
p532
sg357
S'23.1'
p533
sg359
S'8.8'
p534
sg361
S'-2.0'
p535
sg21
S'SF'
p536
sg363
S'-0.8'
p537
sg364
S'.453'
p538
sg366
S'11.5'
p539
sg368
S'.340'
p540
sg370
S'.032'
p541
sg27
S'ABA'
p542
sg373
S'-2.5'
p543
sg374
S'11.9'
p544
sg376
S'0.5'
p545
sg37
S'32'
p546
sg39
S'VIR'
p547
sg41
S'60'
p548
sg380
S'0.4'
p549
sg382
S'10.9'
p550
sg384
S'-0.4'
p551
sg59
S'1224'
p552
sg386
S'-4.5'
p553
sg52
S'1974-75'
p554
sg388
S'0.1'
p555
sbasS'_per36Minutes'
p556
(lp557
(isrc.gp1.models.Per36Minutes
Per36Minutes
p558
(dp559
g8
S'1.5'
p560
sg10
S'.250'
p561
sg12
S'0.0'
p562
sg14
S'20.1'
p563
sg16
S'7.6'
p564
sg18
S'0.1'
p565
sg20
g3
sg21
S'SF'
p566
sg23
S'9.9'
p567
sg27
S'ABA'
p568
sg29
g3
sg30
S'.489'
p569
sg32
g3
sg33
S'.692'
p570
sg35
S'3.6'
p571
sg37
S'25'
p572
sg39
S'DLC'
p573
sg41
S'77'
p574
sg43
g3
sg44
S'15.5'
p575
sg46
S'7.1'
p576
sg48
S'.490'
p577
sg50
S'2.7'
p578
sg52
S'1967-68'
p579
sg54
S'15.5'
p580
sg56
g3
sg57
S'4.9'
p581
sg59
S'7.6'
p582
sg61
S'2524'
p583
sba(isrc.gp1.models.Per36Minutes
Per36Minutes
p584
(dp585
g8
S'6.5'
p586
sg10
S'.286'
p587
sg12
S'0.0'
p588
sg14
S'3.0'
p589
sg16
S'7.7'
p590
sg18
S'0.1'
p591
sg20
g3
sg21
S'SF'
p592
sg23
S'2.8'
p593
sg27
S'ABA'
p594
sg29
S'3.8'
p595
sg30
S'.471'
p596
sg32
g3
sg33
S'.728'
p597
sg35
S'2.4'
p598
sg37
S'26'
p599
sg39
S'DLC'
p600
sg41
S'75'
p601
sg43
S'20.3'
p602
sg44
S'16.4'
p603
sg46
S'6.6'
p604
sg48
S'.472'
p605
sg50
S'9.4'
p606
sg52
S'1968-69'
p607
sg54
S'16.5'
p608
sg56
g3
sg57
S'4.8'
p609
sg59
S'7.8'
p610
sg61
S'2573'
p611
sba(isrc.gp1.models.Per36Minutes
Per36Minutes
p612
(dp613
g8
S'6.7'
p614
sg10
S'.167'
p615
sg12
S'0.0'
p616
sg14
S'3.4'
p617
sg16
S'7.7'
p618
sg18
S'0.2'
p619
sg20
g3
sg21
S'SF'
p620
sg23
S'2.6'
p621
sg27
S'ABA'
p622
sg29
S'3.4'
p623
sg30
S'.468'
p624
sg32
g3
sg33
S'.775'
p625
sg35
S'2.6'
p626
sg37
S'27'
p627
sg39
S'DLC'
p628
sg41
S'76'
p629
sg43
S'21.0'
p630
sg44
S'16.3'
p631
sg46
S'7.1'
p632
sg48
S'.471'
p633
sg50
S'9.4'
p634
sg52
S'1969-70'
p635
sg54
S'16.5'
p636
sg56
g3
sg57
S'5.5'
p637
sg59
S'7.7'
p638
sg61
S'2624'
p639
sba(isrc.gp1.models.Per36Minutes
Per36Minutes
p640
(dp641
g8
S'7.1'
p642
sg10
S'.250'
p643
sg12
S'0.0'
p644
sg14
S'2.9'
p645
sg16
S'7.0'
p646
sg18
S'0.2'
p647
sg20
g3
sg21
S'SF'
p648
sg23
S'3.8'
p649
sg27
S'ABA'
p650
sg29
S'4.0'
p651
sg30
S'.493'
p652
sg32
g3
sg33
S'.759'
p653
sg35
S'3.1'
p654
sg37
S'28'
p655
sg39
S'KEN'
p656
sg41
S'81'
p657
sg43
S'17.9'
p658
sg44
S'14.2'
p659
sg46
S'4.9'
p660
sg48
S'.496'
p661
sg50
S'10.9'
p662
sg52
S'1970-71'
p663
sg54
S'14.4'
p664
sg56
g3
sg57
S'3.7'
p665
sg59
S'7.1'
p666
sg61
S'2933'
p667
sba(isrc.gp1.models.Per36Minutes
Per36Minutes
p668
(dp669
g8
S'5.4'
p670
sg10
S'.308'
p671
sg12
S'0.1'
p672
sg14
S'2.8'
p673
sg16
S'6.7'
p674
sg18
S'0.2'
p675
sg20
g3
sg21
S'SF'
p676
sg23
S'2.5'
p677
sg27
S'ABA'
p678
sg29
S'3.4'
p679
sg30
S'.474'
p680
sg32
g3
sg33
S'.723'
p681
sg35
S'3.7'
p682
sg37
S'29'
p683
sg39
S'KEN'
p684
sg41
S'65'
p685
sg43
S'16.5'
p686
sg44
S'14.1'
p687
sg46
S'4.0'
p688
sg48
S'.477'
p689
sg50
S'7.9'
p690
sg52
S'1971-72'
p691
sg54
S'14.3'
p692
sg56
g3
sg57
S'2.9'
p693
sg59
S'6.8'
p694
sg61
S'2288'
p695
sba(isrc.gp1.models.Per36Minutes
Per36Minutes
p696
(dp697
g8
S'5.2'
p698
sg10
S'.231'
p699
sg12
S'0.1'
p700
sg14
S'2.5'
p701
sg16
S'7.6'
p702
sg18
S'0.2'
p703
sg20
g3
sg21
S'SF'
p704
sg23
S'2.4'
p705
sg27
S'ABA'
p706
sg29
S'4.5'
p707
sg30
S'.496'
p708
sg32
g3
sg33
S'.696'
p709
sg35
S'2.5'
p710
sg37
S'30'
p711
sg39
S'UTS'
p712
sg41
S'83'
p713
sg43
S'18.4'
p714
sg44
S'15.2'
p715
sg46
S'4.4'
p716
sg48
S'.500'
p717
sg50
S'7.6'
p718
sg52
S'1972-73'
p719
sg54
S'15.5'
p720
sg56
g3
sg57
S'3.0'
p721
sg59
S'7.7'
p722
sg61
S'1985'
p723
sba(isrc.gp1.models.Per36Minutes
Per36Minutes
p724
(dp725
g8
S'5.0'
p726
sg10
S'.323'
p727
sg12
S'0.1'
p728
sg14
S'0.7'
p729
sg16
S'7.5'
p730
sg18
S'0.4'
p731
sg20
g3
sg21
S'PF'
p732
sg23
S'2.5'
p733
sg27
S'ABA'
p734
sg29
S'0.5'
p735
sg30
S'.452'
p736
sg32
S'18.5'
p737
sg33
S'.706'
p738
sg35
S'2.0'
p739
sg37
S'31'
p740
sg39
S'VIR'
p741
sg41
S'82'
p742
sg43
S'2.7'
p743
sg44
S'16.5'
p744
sg46
S'4.3'
p745
sg48
S'.456'
p746
sg50
S'7.5'
p747
sg52
S'1973-74'
p748
sg54
S'16.9'
p749
sg56
S'3.9'
p750
sg57
S'3.0'
p751
sg59
S'7.6'
p752
sg61
S'2485'
p753
sba(isrc.gp1.models.Per36Minutes
Per36Minutes
p754
(dp755
g8
S'3.9'
p756
sg10
S'.294'
p757
sg12
S'0.1'
p758
sg14
S'0.8'
p759
sg16
S'6.1'
p760
sg18
S'0.5'
p761
sg20
g3
sg21
S'SF'
p762
sg23
S'2.2'
p763
sg27
S'ABA'
p764
sg29
S'0.2'
p765
sg30
S'.404'
p766
sg32
S'16.2'
p767
sg33
S'.661'
p768
sg35
S'2.8'
p769
sg37
S'32'
p770
sg39
S'VIR'
p771
sg41
S'60'
p772
sg43
S'2.7'
p773
sg44
S'15.1'
p774
sg46
S'5.3'
p775
sg48
S'.407'
p776
sg50
S'6.1'
p777
sg52
S'1974-75'
p778
sg54
S'15.6'
p779
sg56
S'4.1'
p780
sg57
S'3.5'
p781
sg59
S'6.3'
p782
sg61
S'1224'
p783
sbasS'_fromYear'
p784
S'1968'
p785
sS'_url'
p786
S'http://www.basketball-reference.com/players/p/powelci01.html'
p787
sS'_perGame'
p788
(isrc.gp1.models.PerGame
PerGame
p789
(dp790
g8
S'2.2'
p791
sg10
S'.294'
p792
sg12
S'0.1'
p793
sS'_effectiveFieldGalPercentage'
p794
S'2.0'
p795
sg14
S'0.5'
p796
sg16
S'3.5'
p797
sg18
S'0.3'
p798
sg20
g3
sg21
S'SF'
p799
sg23
S'1.2'
p800
sg27
S'ABA'
p801
sg29
S'0.1'
p802
sg32
S'9.2'
p803
sS'_fieldGoalsttempted'
p804
S'.404'
p805
sg33
S'.661'
p806
sg35
S'1.6'
p807
sg37
S'32'
p808
sg39
S'VIR'
p809
sg41
S'60'
p810
sg43
S'1.5'
p811
sg44
S'8.6'
p812
sg46
S'3.0'
p813
sg48
S'.407'
p814
sg50
S'3.4'
p815
sg52
S'1974-75'
p816
sg54
S'8.8'
p817
sg56
S'2.3'
p818
sg57
S'.408'
p819
sg59
S'3.6'
p820
sg61
S'20.4'
p821
sbsS'_weight'
p822
S'220'
p823
sS'_dob'
p824
S'25-2-1942'
p825
sS'_salary'
p826
(lp827
sg21
S'F-C'
p828
sb.