(isrc.gp1.models.Player
Player
p0
(dp1
S'_experience'
p2
S'NA'
p3
sS'_totals'
p4
(lp5
(isrc.gp1.models.Totals
Totals
p6
(dp7
S'_offensiveRebounds'
p8
S'28'
p9
sS'_threePointsAttempted'
p10
S'1'
p11
sS'_fieldGoalsPercentage'
p12
S'.457'
p13
sS'_assist'
p14
S'5'
p15
sS'_threePointsPercentage'
p16
S'.000'
p17
sS'_threePoints'
p18
S'0'
p19
sS'_points'
p20
S'117'
p21
sS'_position'
p22
S'PF'
p23
sS'_freeThrowsPercentage'
p24
S'.694'
p25
sS'_effectiveFieldGoalPercentage'
p26
S'.457'
p27
sS'_league'
p28
S'NBA'
p29
sS'_steals'
p30
S'6'
p31
sS'_fieldGoalsAttempted'
p32
S'81'
p33
sS'_personalFouls'
p34
S'44'
p35
sS'_freeThrowsAttempted'
p36
S'62'
p37
sS'_totalRebounds'
p38
S'67'
p39
sS'_age'
p40
S'21'
p41
sS'_team'
p42
S'DAL'
p43
sS'_games'
p44
S'16'
p45
sS'_blocks'
p46
g11
sS'_twoPoints'
p47
S'37'
p48
sS'_freeThrows'
p49
S'43'
p50
sS'_twoPointsAttempted'
p51
S'80'
p52
sS'_defensiveRebounds'
p53
S'39'
p54
sS'_season'
p55
S'1980-81'
p56
sS'_fieldGoals'
p57
S'37'
p58
sS'_turnOvers'
p59
S'16'
p60
sS'_twoPointsPercentage'
p61
S'.463'
p62
sS'_minutesPlayed'
p63
S'199'
p64
sS'_gamesStarted'
p65
g3
sba(isrc.gp1.models.Totals
Totals
p66
(dp67
g8
S'26'
p68
sg10
g19
sg12
S'.531'
p69
sg14
S'14'
p70
sg16
g3
sg18
g19
sg20
S'81'
p71
sg22
S'PF'
p72
sg24
S'.690'
p73
sg26
S'.531'
p74
sg28
S'NBA'
p75
sg30
S'4'
p76
sg32
S'49'
p77
sg34
S'55'
p78
sg36
S'42'
p79
sg38
S'61'
p80
sg40
S'22'
p81
sg42
S'DAL'
p82
sg44
S'35'
p83
sg46
S'3'
p84
sg47
S'26'
p85
sg49
S'29'
p86
sg51
S'49'
p87
sg53
S'35'
p88
sg55
S'1981-82'
p89
sg57
S'26'
p90
sg59
S'16'
p91
sg61
S'.531'
p92
sg63
S'248'
p93
sg65
g19
sbasS'_college'
p94
S'Lamar University'
p95
sS'_toYear'
p96
S'1982'
p97
sS'_height'
p98
S'6-6'
p99
sS'_active'
p100
I00
sS'_shootingHand'
p101
VRight
p102
sS'_name'
p103
S'Clarence Kea'
p104
sS'_per100Possessions'
p105
(lp106
(isrc.gp1.models.Per100Possession
Per100Possession
p107
(dp108
g8
S'6.8'
p109
sg10
S'0.2'
p110
sg12
S'.457'
p111
sS'_offensiveRating'
p112
S'108'
p113
sg14
S'1.2'
p114
sg16
S'.000'
p115
sg18
S'0.0'
p116
sg20
S'28.6'
p117
sg22
S'PF'
p118
sS'_defensiveRating'
p119
S'108'
p120
sg24
S'.694'
p121
sg28
S'NBA'
p122
sg30
S'1.5'
p123
sg32
S'19.8'
p124
sg34
S'10.8'
p125
sg36
S'15.2'
p126
sg38
S'16.4'
p127
sg40
S'21'
p128
sg42
S'DAL'
p129
sg44
S'16'
p130
sg46
S'0.2'
p131
sg47
S'9.0'
p132
sg49
S'10.5'
p133
sg51
S'19.6'
p134
sg53
S'9.5'
p135
sg55
S'1980-81'
p136
sg57
S'9.0'
p137
sg59
S'3.9'
p138
sg61
S'.463'
p139
sg63
S'199'
p140
sg65
g3
sba(isrc.gp1.models.Per100Possession
Per100Possession
p141
(dp142
g8
S'5.1'
p143
sg10
S'0.0'
p144
sg12
S'.531'
p145
sg112
S'114'
p146
sg14
S'2.8'
p147
sg16
g3
sg18
S'0.0'
p148
sg20
S'15.9'
p149
sg22
S'PF'
p150
sg119
S'110'
p151
sg24
S'.690'
p152
sg28
S'NBA'
p153
sg30
S'0.8'
p154
sg32
S'9.6'
p155
sg34
S'10.8'
p156
sg36
S'8.3'
p157
sg38
S'12.0'
p158
sg40
S'22'
p159
sg42
S'DAL'
p160
sg44
S'35'
p161
sg46
S'0.6'
p162
sg47
S'5.1'
p163
sg49
S'5.7'
p164
sg51
S'9.6'
p165
sg53
S'6.9'
p166
sg55
S'1981-82'
p167
sg57
S'5.1'
p168
sg59
S'3.1'
p169
sg61
S'.531'
p170
sg63
S'248'
p171
sg65
g19
sbasS'_advanced'
p172
(lp173
(isrc.gp1.models.Advanced
Advanced
p174
(dp175
S'_offensiveReboundPercentage'
p176
S'15.4'
p177
sS'_turnOverPercentage'
p178
S'12.9'
p179
sS'_winSharesPer48Minutes'
p180
S'.120'
p181
sS'_stealPercentage'
p182
S'1.5'
p183
sS'_usagePercentage'
p184
S'26.1'
p185
sS'_totalReboundsPercentage'
p186
S'19.1'
p187
sS'_defensiveBoxPlusMinus'
p188
S'-4.2'
p189
sg22
S'PF'
p190
sS'_valueOverReplacementPlayer'
p191
S'-0.2'
p192
sS'_trueShootingPercentage'
p193
S'.540'
p194
sS'_defensiveReboundPercentage'
p195
S'23.1'
p196
sS'_freeThrowsAttempRate'
p197
S'.765'
p198
sS'_threePointsAttempRate'
p199
S'.012'
p200
sg28
S'NBA'
p201
sS'_offensiveBoxPlusMinues'
p202
S'-0.8'
p203
sS'_assistPercentage'
p204
S'4.0'
p205
sS'_defensiveWinShares'
p206
S'0.2'
p207
sg40
S'21'
p208
sg42
S'DAL'
p209
sg44
S'16'
p210
sS'_blockPercentage'
p211
S'0.3'
p212
sS'_playerEfficiencyRating'
p213
S'17.3'
p214
sS'_offensiveWinShares'
p215
S'0.3'
p216
sg63
S'199'
p217
sS'_boxPlusMinus'
p218
S'-5.0'
p219
sg55
S'1980-81'
p220
sS'_winShares'
p221
S'0.5'
p222
sba(isrc.gp1.models.Advanced
Advanced
p223
(dp224
g176
S'11.6'
p225
sg178
S'19.2'
p226
sg180
S'.097'
p227
sg182
S'0.8'
p228
sg184
S'13.9'
p229
sg186
S'14.0'
p230
sg188
S'-1.1'
p231
sg22
S'PF'
p232
sg191
S'0.0'
p233
sg193
S'.600'
p234
sg195
S'16.7'
p235
sg197
S'.857'
p236
sg199
S'.000'
p237
sg28
S'NBA'
p238
sg202
S'-1.3'
p239
sg204
S'7.5'
p240
sg206
S'0.1'
p241
sg40
S'22'
p242
sg42
S'DAL'
p243
sg44
S'35'
p244
sg211
S'0.7'
p245
sg213
S'11.0'
p246
sg215
S'0.4'
p247
sg63
S'248'
p248
sg218
S'-2.4'
p249
sg55
S'1981-82'
p250
sg221
S'0.5'
p251
sbasS'_per36Minutes'
p252
(lp253
(isrc.gp1.models.Per36Minutes
Per36Minutes
p254
(dp255
g8
S'5.1'
p256
sg10
S'0.2'
p257
sg12
S'.457'
p258
sg14
S'0.9'
p259
sg16
S'.000'
p260
sg18
S'0.0'
p261
sg20
S'21.2'
p262
sg22
S'PF'
p263
sg24
S'.694'
p264
sg28
S'NBA'
p265
sg30
S'1.1'
p266
sg32
S'14.7'
p267
sg34
S'8.0'
p268
sg36
S'11.2'
p269
sg38
S'12.1'
p270
sg40
S'21'
p271
sg42
S'DAL'
p272
sg44
S'16'
p273
sg46
S'0.2'
p274
sg47
S'6.7'
p275
sg49
S'7.8'
p276
sg51
S'14.5'
p277
sg53
S'7.1'
p278
sg55
S'1980-81'
p279
sg57
S'6.7'
p280
sg59
S'2.9'
p281
sg61
S'.463'
p282
sg63
S'199'
p283
sg65
g3
sba(isrc.gp1.models.Per36Minutes
Per36Minutes
p284
(dp285
g8
S'3.8'
p286
sg10
S'0.0'
p287
sg12
S'.531'
p288
sg14
S'2.0'
p289
sg16
g3
sg18
S'0.0'
p290
sg20
S'11.8'
p291
sg22
S'PF'
p292
sg24
S'.690'
p293
sg28
S'NBA'
p294
sg30
S'0.6'
p295
sg32
S'7.1'
p296
sg34
S'8.0'
p297
sg36
S'6.1'
p298
sg38
S'8.9'
p299
sg40
S'22'
p300
sg42
S'DAL'
p301
sg44
S'35'
p302
sg46
S'0.4'
p303
sg47
S'3.8'
p304
sg49
S'4.2'
p305
sg51
S'7.1'
p306
sg53
S'5.1'
p307
sg55
S'1981-82'
p308
sg57
S'3.8'
p309
sg59
S'2.3'
p310
sg61
S'.531'
p311
sg63
S'248'
p312
sg65
g19
sbasS'_fromYear'
p313
S'1981'
p314
sS'_url'
p315
S'http://www.basketball-reference.com/players/k/keacl01.html'
p316
sS'_perGame'
p317
(isrc.gp1.models.PerGame
PerGame
p318
(dp319
g8
S'0.7'
p320
sg10
S'0.0'
p321
sg12
S'.531'
p322
sS'_effectiveFieldGalPercentage'
p323
S'.531'
p324
sg14
S'0.4'
p325
sg16
g3
sg18
S'0.0'
p326
sg20
S'2.3'
p327
sg22
S'PF'
p328
sg24
S'.690'
p329
sg28
S'NBA'
p330
sg30
S'0.1'
p331
sg34
S'1.6'
p332
sS'_fieldGoalsttempted'
p333
S'1.4'
p334
sg36
S'1.2'
p335
sg38
S'1.7'
p336
sg40
S'22'
p337
sg42
S'DAL'
p338
sg44
S'35'
p339
sg46
S'0.1'
p340
sg47
S'0.7'
p341
sg49
S'0.8'
p342
sg51
S'1.4'
p343
sg53
S'1.0'
p344
sg55
S'1981-82'
p345
sg57
S'0.7'
p346
sg59
S'0.5'
p347
sg61
S'.531'
p348
sg63
S'7.1'
p349
sg65
g19
sbsS'_weight'
p350
S'218'
p351
sS'_dob'
p352
S'2-2-1959'
p353
sS'_salary'
p354
(lp355
sg22
S'F'
p356
sb.