(isrc.gp1.models.Player
Player
p0
(dp1
S'_experience'
p2
S'NA'
p3
sS'_totals'
p4
(lp5
(isrc.gp1.models.Totals
Totals
p6
(dp7
S'_offensiveRebounds'
p8
g3
sS'_threePointsAttempted'
p9
g3
sS'_fieldGoalsPercentage'
p10
S'.452'
p11
sS'_assist'
p12
S'205'
p13
sS'_threePointsPercentage'
p14
g3
sS'_threePoints'
p15
g3
sS'_points'
p16
S'798'
p17
sS'_position'
p18
S'SG'
p19
sS'_freeThrowsPercentage'
p20
S'.708'
p21
sS'_effectiveFieldGoalPercentage'
p22
S'.452'
p23
sS'_league'
p24
S'NBA'
p25
sS'_steals'
p26
g3
sS'_fieldGoalsAttempted'
p27
S'732'
p28
sS'_personalFouls'
p29
S'193'
p30
sS'_freeThrowsAttempted'
p31
S'192'
p32
sS'_totalRebounds'
p33
S'218'
p34
sS'_age'
p35
S'25'
p36
sS'_team'
p37
S'LAL'
p38
sS'_games'
p39
S'76'
p40
sS'_blocks'
p41
g3
sS'_twoPoints'
p42
S'331'
p43
sS'_freeThrows'
p44
S'136'
p45
sS'_twoPointsAttempted'
p46
S'732'
p47
sS'_defensiveRebounds'
p48
g3
sS'_season'
p49
S'1966-67'
p50
sS'_fieldGoals'
p51
S'331'
p52
sS'_turnOvers'
p53
g3
sS'_twoPointsPercentage'
p54
S'.452'
p55
sS'_minutesPlayed'
p56
S'1763'
p57
sS'_gamesStarted'
p58
g3
sba(isrc.gp1.models.Totals
Totals
p59
(dp60
g8
g3
sg9
g3
sg10
S'.480'
p61
sg12
S'353'
p62
sg14
g3
sg15
g3
sg16
S'1612'
p63
sg18
S'PG'
p64
sg20
S'.740'
p65
sg22
S'.480'
p66
sg24
S'NBA'
p67
sg26
g3
sg27
S'1309'
p68
sg29
S'235'
p69
sg31
S'481'
p70
sg33
S'342'
p71
sg35
S'26'
p72
sg37
S'LAL'
p73
sg39
S'81'
p74
sg41
g3
sg42
S'628'
p75
sg44
S'356'
p76
sg46
S'1309'
p77
sg48
g3
sg49
S'1967-68'
p78
sg51
S'628'
p79
sg53
g3
sg54
S'.480'
p80
sg56
S'3039'
p81
sg58
g3
sba(isrc.gp1.models.Totals
Totals
p82
(dp83
g8
g3
sg9
g3
sg10
S'.478'
p84
sg12
S'296'
p85
sg14
g3
sg15
g3
sg16
S'1107'
p86
sg18
S'SG'
p87
sg20
S'.697'
p88
sg22
S'.478'
p89
sg24
S'NBA'
p90
sg26
g3
sg27
S'928'
p91
sg29
S'188'
p92
sg31
S'314'
p93
sg33
S'265'
p94
sg35
S'27'
p95
sg37
S'PHI'
p96
sg39
S'82'
p97
sg41
g3
sg42
S'444'
p98
sg44
S'219'
p99
sg46
S'928'
p100
sg48
g3
sg49
S'1968-69'
p101
sg51
S'444'
p102
sg53
g3
sg54
S'.478'
p103
sg56
S'2144'
p104
sg58
g3
sba(isrc.gp1.models.Totals
Totals
p105
(dp106
g8
g3
sg9
g3
sg10
S'.496'
p107
sg12
S'380'
p108
sg14
g3
sg15
g3
sg16
S'1499'
p109
sg18
S'PG'
p110
sg20
S'.785'
p111
sg22
S'.496'
p112
sg24
S'NBA'
p113
sg26
g3
sg27
S'1198'
p114
sg29
S'201'
p115
sg31
S'396'
p116
sg33
S'301'
p117
sg35
S'28'
p118
sg37
S'PHI'
p119
sg39
S'76'
p120
sg41
g3
sg42
S'594'
p121
sg44
S'311'
p122
sg46
S'1198'
p123
sg48
g3
sg49
S'1969-70'
p124
sg51
S'594'
p125
sg53
g3
sg54
S'.496'
p126
sg56
S'2772'
p127
sg58
g3
sba(isrc.gp1.models.Totals
Totals
p128
(dp129
g8
g3
sg9
g3
sg10
S'.496'
p130
sg12
S'440'
p131
sg14
g3
sg15
g3
sg16
S'1746'
p132
sg18
S'PG'
p133
sg20
S'.787'
p134
sg22
S'.496'
p135
sg24
S'NBA'
p136
sg26
g3
sg27
S'1334'
p137
sg29
S'217'
p138
sg31
S'536'
p139
sg33
S'391'
p140
sg35
S'29'
p141
sg37
S'PHI'
p142
sg39
S'82'
p143
sg41
g3
sg42
S'662'
p144
sg44
S'422'
p145
sg46
S'1334'
p146
sg48
g3
sg49
S'1970-71'
p147
sg51
S'662'
p148
sg53
g3
sg54
S'.496'
p149
sg56
S'3245'
p150
sg58
g3
sba(isrc.gp1.models.Totals
Totals
p151
(dp152
g8
g3
sg9
g3
sg10
S'.470'
p153
sg12
S'613'
p154
sg14
g3
sg15
g3
sg16
S'1938'
p155
sg18
S'PG'
p156
sg20
S'.771'
p157
sg22
S'.470'
p158
sg24
S'NBA'
p159
sg26
g3
sg27
S'1516'
p160
sg29
S'194'
p161
sg31
S'667'
p162
sg33
S'268'
p163
sg35
S'30'
p164
sg37
S'TOT'
p165
sg39
S'77'
p166
sg41
g3
sg42
S'712'
p167
sg44
S'514'
p168
sg46
S'1516'
p169
sg48
g3
sg49
S'1971-72'
p170
sg51
S'712'
p171
sg53
g3
sg54
S'.470'
p172
sg56
S'3285'
p173
sg58
g3
sba(isrc.gp1.models.Totals
Totals
p174
(dp175
g8
g3
sg9
g3
sg10
S'.688'
p176
sg12
S'7'
p177
sg14
g3
sg15
g3
sg16
S'29'
p178
sg18
S'PG'
p179
sg20
S'.636'
p180
sg22
S'.688'
p181
sg24
S'NBA'
p182
sg26
g3
sg27
S'16'
p183
sg29
S'3'
p184
sg31
S'11'
p185
sg33
g184
sg35
S'30'
p186
sg37
S'PHI'
p187
sg39
S'1'
p188
sg41
g3
sg42
S'11'
p189
sg44
g177
sg46
S'16'
p190
sg48
g3
sg49
S'1971-72'
p191
sg51
S'11'
p192
sg53
g3
sg54
S'.688'
p193
sg56
S'42'
p194
sg58
g3
sba(isrc.gp1.models.Totals
Totals
p195
(dp196
g8
g3
sg9
g3
sg10
S'.467'
p197
sg12
S'606'
p198
sg14
g3
sg15
g3
sg16
S'1909'
p199
sg18
S'PG'
p200
sg20
S'.773'
p201
sg22
S'.467'
p202
sg24
S'NBA'
p203
sg26
g3
sg27
S'1500'
p204
sg29
S'191'
p205
sg31
S'656'
p206
sg33
S'265'
p207
sg35
S'30'
p208
sg37
S'BAL'
p209
sg39
S'76'
p210
sg41
g3
sg42
S'701'
p211
sg44
S'507'
p212
sg46
S'1500'
p213
sg48
g3
sg49
S'1971-72'
p214
sg51
S'701'
p215
sg53
g3
sg54
S'.467'
p216
sg56
S'3243'
p217
sg58
g3
sba(isrc.gp1.models.Totals
Totals
p218
(dp219
g8
g3
sg9
g3
sg10
S'.507'
p220
sg12
S'275'
p221
sg14
g3
sg15
g3
sg16
S'715'
p222
sg18
S'PG'
p223
sg20
S'.810'
p224
sg22
S'.507'
p225
sg24
S'NBA'
p226
sg26
g3
sg27
S'596'
p227
sg29
S'111'
p228
sg31
S'137'
p229
sg33
S'129'
p230
sg35
S'31'
p231
sg37
S'BAL'
p232
sg39
S'39'
p233
sg41
g3
sg42
S'302'
p234
sg44
S'111'
p235
sg46
S'596'
p236
sg48
g3
sg49
S'1972-73'
p237
sg51
S'302'
p238
sg53
g3
sg54
S'.507'
p239
sg56
S'1477'
p240
sg58
g3
sba(isrc.gp1.models.Totals
Totals
p241
(dp242
g8
S'44'
p243
sg9
g3
sg10
S'.467'
p244
sg12
S'285'
p245
sg14
g3
sg15
g3
sg16
S'733'
p246
sg18
S'PG'
p247
sg20
S'.786'
p248
sg22
S'.467'
p249
sg24
S'NBA'
p250
sg26
S'59'
p251
sg27
S'675'
p252
sg29
S'122'
p253
sg31
S'131'
p254
sg33
S'141'
p255
sg35
S'32'
p256
sg37
S'CAP'
p257
sg39
S'56'
p258
sg41
S'6'
p259
sg42
S'315'
p260
sg44
S'103'
p261
sg46
S'675'
p262
sg48
S'97'
p263
sg49
S'1973-74'
p264
sg51
S'315'
p265
sg53
g3
sg54
S'.467'
p266
sg56
S'1786'
p267
sg58
g3
sba(isrc.gp1.models.Totals
Totals
p268
(dp269
g8
S'59'
p270
sg9
g3
sg10
S'.495'
p271
sg12
S'433'
p272
sg14
g3
sg15
g3
sg16
S'1071'
p273
sg18
S'PG'
p274
sg20
S'.834'
p275
sg22
S'.495'
p276
sg24
S'NBA'
p277
sg26
S'110'
p278
sg27
S'919'
p279
sg29
S'188'
p280
sg31
S'193'
p281
sg33
S'235'
p282
sg35
S'33'
p283
sg37
S'SEA'
p284
sg39
S'77'
p285
sg41
S'5'
p286
sg42
S'455'
p287
sg44
S'161'
p288
sg46
S'919'
p289
sg48
S'176'
p290
sg49
S'1974-75'
p291
sg51
S'455'
p292
sg53
g3
sg54
S'.495'
p293
sg56
S'2481'
p294
sg58
g3
sba(isrc.gp1.models.Totals
Totals
p295
(dp296
g8
S'27'
p297
sg9
g3
sg10
S'.433'
p298
sg12
S'218'
p299
sg14
g3
sg15
g3
sg16
S'600'
p300
sg18
S'SG'
p301
sg20
S'.862'
p302
sg22
S'.433'
p303
sg24
S'NBA'
p304
sg26
S'62'
p305
sg27
S'577'
p306
sg29
S'157'
p307
sg31
S'116'
p308
sg33
S'137'
p309
sg35
S'34'
p310
sg37
S'DET'
p311
sg39
S'79'
p312
sg41
S'4'
p313
sg42
S'250'
p314
sg44
S'100'
p315
sg46
S'577'
p316
sg48
S'110'
p317
sg49
S'1975-76'
p318
sg51
S'250'
p319
sg53
g3
sg54
S'.433'
p320
sg56
S'1589'
p321
sg58
g3
sbasS'_college'
p322
S'University of Minnesota'
p323
sS'_toYear'
p324
S'1976'
p325
sS'_height'
p326
S'6-2'
p327
sS'_active'
p328
I00
sS'_shootingHand'
p329
VRight
p330
sS'_name'
p331
S'Archie Clark'
p332
sS'_per100Possessions'
p333
(lp334
(isrc.gp1.models.Per100Possession
Per100Possession
p335
(dp336
g8
S'1.1'
p337
sg9
g3
sg10
S'.467'
p338
sS'_offensiveRating'
p339
g3
sg12
S'7.2'
p340
sg14
g3
sg15
g3
sg16
S'18.5'
p341
sg18
S'PG'
p342
sS'_defensiveRating'
p343
S'98'
p344
sg20
S'.786'
p345
sg24
S'NBA'
p346
sg26
S'1.5'
p347
sg27
S'17.1'
p348
sg29
S'3.1'
p349
sg31
S'3.3'
p350
sg33
S'3.6'
p351
sg35
S'32'
p352
sg37
S'CAP'
p353
sg39
S'56'
p354
sg41
S'0.2'
p355
sg42
S'8.0'
p356
sg44
S'2.6'
p357
sg46
S'17.1'
p358
sg48
S'2.5'
p359
sg49
S'1973-74'
p360
sg51
S'8.0'
p361
sg53
g3
sg54
S'.467'
p362
sg56
S'1786'
p363
sg58
g3
sba(isrc.gp1.models.Per100Possession
Per100Possession
p364
(dp365
g8
S'1.1'
p366
sg9
g3
sg10
S'.495'
p367
sg339
g3
sg12
S'7.9'
p368
sg14
g3
sg15
g3
sg16
S'19.6'
p369
sg18
S'PG'
p370
sg343
S'100'
p371
sg20
S'.834'
p372
sg24
S'NBA'
p373
sg26
S'2.0'
p374
sg27
S'16.9'
p375
sg29
S'3.4'
p376
sg31
S'3.5'
p377
sg33
S'4.3'
p378
sg35
S'33'
p379
sg37
S'SEA'
p380
sg39
S'77'
p381
sg41
S'0.1'
p382
sg42
S'8.3'
p383
sg44
S'3.0'
p384
sg46
S'16.9'
p385
sg48
S'3.2'
p386
sg49
S'1974-75'
p387
sg51
S'8.3'
p388
sg53
g3
sg54
S'.495'
p389
sg56
S'2481'
p390
sg58
g3
sba(isrc.gp1.models.Per100Possession
Per100Possession
p391
(dp392
g8
S'0.8'
p393
sg9
g3
sg10
S'.433'
p394
sg339
g3
sg12
S'6.3'
p395
sg14
g3
sg15
g3
sg16
S'17.2'
p396
sg18
S'SG'
p397
sg343
S'103'
p398
sg20
S'.862'
p399
sg24
S'NBA'
p400
sg26
S'1.8'
p401
sg27
S'16.6'
p402
sg29
S'4.5'
p403
sg31
S'3.3'
p404
sg33
S'3.9'
p405
sg35
S'34'
p406
sg37
S'DET'
p407
sg39
S'79'
p408
sg41
S'0.1'
p409
sg42
S'7.2'
p410
sg44
S'2.9'
p411
sg46
S'16.6'
p412
sg48
S'3.2'
p413
sg49
S'1975-76'
p414
sg51
S'7.2'
p415
sg53
g3
sg54
S'.433'
p416
sg56
S'1589'
p417
sg58
g3
sbasS'_advanced'
p418
(lp419
(isrc.gp1.models.Advanced
Advanced
p420
(dp421
S'_offensiveReboundPercentage'
p422
g3
sS'_turnOverPercentage'
p423
g3
sS'_winSharesPer48Minutes'
p424
S'.075'
p425
sS'_stealPercentage'
p426
g3
sS'_usagePercentage'
p427
g3
sS'_totalReboundsPercentage'
p428
g3
sS'_defensiveBoxPlusMinus'
p429
g3
sg18
S'SG'
p430
sS'_valueOverReplacementPlayer'
p431
g3
sS'_trueShootingPercentage'
p432
S'.489'
p433
sS'_defensiveReboundPercentage'
p434
g3
sS'_freeThrowsAttempRate'
p435
S'.262'
p436
sS'_threePointsAttempRate'
p437
g3
sg24
S'NBA'
p438
sS'_offensiveBoxPlusMinues'
p439
g3
sS'_assistPercentage'
p440
S'14.9'
p441
sS'_defensiveWinShares'
p442
S'1.2'
p443
sg35
S'25'
p444
sg37
S'LAL'
p445
sg39
S'76'
p446
sS'_blockPercentage'
p447
g3
sS'_playerEfficiencyRating'
p448
S'12.3'
p449
sS'_offensiveWinShares'
p450
S'1.5'
p451
sg56
S'1763'
p452
sS'_boxPlusMinus'
p453
g3
sg49
S'1966-67'
p454
sS'_winShares'
p455
S'2.7'
p456
sba(isrc.gp1.models.Advanced
Advanced
p457
(dp458
g422
g3
sg423
g3
sg424
S'.124'
p459
sg426
g3
sg427
g3
sg428
g3
sg429
g3
sg18
S'PG'
p460
sg431
g3
sg432
S'.530'
p461
sg434
g3
sg435
S'.367'
p462
sg437
g3
sg24
S'NBA'
p463
sg439
g3
sg440
S'15.3'
p464
sg442
S'2.0'
p465
sg35
S'26'
p466
sg37
S'LAL'
p467
sg39
S'81'
p468
sg447
g3
sg448
S'15.5'
p469
sg450
S'5.8'
p470
sg56
S'3039'
p471
sg453
g3
sg49
S'1967-68'
p472
sg455
S'7.9'
p473
sba(isrc.gp1.models.Advanced
Advanced
p474
(dp475
g422
g3
sg423
g3
sg424
S'.139'
p476
sg426
g3
sg427
g3
sg428
g3
sg429
g3
sg18
S'SG'
p477
sg431
g3
sg432
S'.519'
p478
sg434
g3
sg435
S'.338'
p479
sg437
g3
sg24
S'NBA'
p480
sg439
g3
sg440
S'18.6'
p481
sg442
S'2.2'
p482
sg35
S'27'
p483
sg37
S'PHI'
p484
sg39
S'82'
p485
sg447
g3
sg448
S'15.9'
p486
sg450
S'4.0'
p487
sg56
S'2144'
p488
sg453
g3
sg49
S'1968-69'
p489
sg455
S'6.2'
p490
sba(isrc.gp1.models.Advanced
Advanced
p491
(dp492
g422
g3
sg423
g3
sg424
S'.140'
p493
sg426
g3
sg427
g3
sg428
g3
sg429
g3
sg18
S'PG'
p494
sg431
g3
sg432
S'.546'
p495
sg434
g3
sg435
S'.331'
p496
sg437
g3
sg24
S'NBA'
p497
sg439
g3
sg440
S'17.7'
p498
sg442
S'2.6'
p499
sg35
S'28'
p500
sg37
S'PHI'
p501
sg39
S'76'
p502
sg447
g3
sg448
S'16.3'
p503
sg450
S'5.5'
p504
sg56
S'2772'
p505
sg453
g3
sg49
S'1969-70'
p506
sg455
S'8.1'
p507
sba(isrc.gp1.models.Advanced
Advanced
p508
(dp509
g422
g3
sg423
g3
sg424
S'.169'
p510
sg426
g3
sg427
g3
sg428
S'5.4'
p511
sg429
g3
sg18
S'PG'
p512
sg431
g3
sg432
S'.556'
p513
sg434
g3
sg435
S'.402'
p514
sg437
g3
sg24
S'NBA'
p515
sg439
g3
sg440
S'19.1'
p516
sg442
S'3.1'
p517
sg35
S'29'
p518
sg37
S'PHI'
p519
sg39
S'82'
p520
sg447
g3
sg448
S'17.7'
p521
sg450
S'8.3'
p522
sg56
S'3245'
p523
sg453
g3
sg49
S'1970-71'
p524
sg455
S'11.4'
p525
sba(isrc.gp1.models.Advanced
Advanced
p526
(dp527
g422
g3
sg423
g3
sg424
S'.160'
p528
sg426
g3
sg427
g3
sg428
S'3.8'
p529
sg429
g3
sg18
S'PG'
p530
sg431
g3
sg432
S'.536'
p531
sg434
g3
sg435
S'.440'
p532
sg437
g3
sg24
S'NBA'
p533
sg439
g3
sg440
S'28.0'
p534
sg442
S'3.2'
p535
sg35
S'30'
p536
sg37
S'TOT'
p537
sg39
S'77'
p538
sg447
g3
sg448
S'20.5'
p539
sg450
S'7.7'
p540
sg56
S'3285'
p541
sg453
g3
sg49
S'1971-72'
p542
sg455
S'11.0'
p543
sba(isrc.gp1.models.Advanced
Advanced
p544
(dp545
g422
g3
sg423
g3
sg424
S'.339'
p546
sg426
g3
sg427
g3
sg428
S'3.2'
p547
sg429
g3
sg18
S'PG'
p548
sg431
g3
sg432
S'.696'
p549
sg434
g3
sg435
S'.688'
p550
sg437
g3
sg24
S'NBA'
p551
sg439
g3
sg440
S'25.9'
p552
sg442
S'0.0'
p553
sg35
S'30'
p554
sg37
S'PHI'
p555
sg39
g188
sg447
g3
sg448
S'24.9'
p556
sg450
S'0.3'
p557
sg56
S'42'
p558
sg453
g3
sg49
S'1971-72'
p559
sg455
S'0.3'
p560
sba(isrc.gp1.models.Advanced
Advanced
p561
(dp562
g422
g3
sg423
g3
sg424
S'.158'
p563
sg426
g3
sg427
g3
sg428
S'3.8'
p564
sg429
g3
sg18
S'PG'
p565
sg431
g3
sg432
S'.534'
p566
sg434
g3
sg435
S'.437'
p567
sg437
g3
sg24
S'NBA'
p568
sg439
g3
sg440
S'28.1'
p569
sg442
S'3.2'
p570
sg35
S'30'
p571
sg37
S'BAL'
p572
sg39
S'76'
p573
sg447
g3
sg448
S'20.4'
p574
sg450
S'7.5'
p575
sg56
S'3243'
p576
sg453
g3
sg49
S'1971-72'
p577
sg455
S'10.7'
p578
sba(isrc.gp1.models.Advanced
Advanced
p579
(dp580
g422
g3
sg423
g3
sg424
S'.181'
p581
sg426
g3
sg427
g3
sg428
S'4.1'
p582
sg429
g3
sg18
S'PG'
p583
sg431
g3
sg432
S'.545'
p584
sg434
g3
sg435
S'.230'
p585
sg437
g3
sg24
S'NBA'
p586
sg439
g3
sg440
S'25.8'
p587
sg442
S'2.0'
p588
sg35
S'31'
p589
sg37
S'BAL'
p590
sg39
S'39'
p591
sg447
g3
sg448
S'18.3'
p592
sg450
S'3.6'
p593
sg56
S'1477'
p594
sg453
g3
sg49
S'1972-73'
p595
sg455
S'5.6'
p596
sba(isrc.gp1.models.Advanced
Advanced
p597
(dp598
g422
S'2.3'
p599
sg423
g3
sg424
S'.107'
p600
sg426
S'1.5'
p601
sg427
g3
sg428
S'3.8'
p602
sg429
S'-0.6'
p603
sg18
S'PG'
p604
sg431
S'0.8'
p605
sg432
S'.500'
p606
sg434
S'5.2'
p607
sg435
S'.194'
p608
sg437
g3
sg24
S'NBA'
p609
sg439
S'0.5'
p610
sg440
S'22.6'
p611
sg442
S'1.7'
p612
sg35
S'32'
p613
sg37
S'CAP'
p614
sg39
S'56'
p615
sg447
S'0.2'
p616
sg448
S'14.4'
p617
sg450
S'2.2'
p618
sg56
S'1786'
p619
sg453
S'-0.2'
p620
sg49
S'1973-74'
p621
sg455
S'4.0'
p622
sba(isrc.gp1.models.Advanced
Advanced
p623
(dp624
g422
S'2.4'
p625
sg423
g3
sg424
S'.119'
p626
sg426
S'2.0'
p627
sg427
g3
sg428
S'4.9'
p628
sg429
S'-0.9'
p629
sg18
S'PG'
p630
sg431
S'1.9'
p631
sg432
S'.533'
p632
sg434
S'7.3'
p633
sg435
S'.210'
p634
sg437
g3
sg24
S'NBA'
p635
sg439
S'1.9'
p636
sg440
S'25.2'
p637
sg442
S'1.7'
p638
sg35
S'33'
p639
sg37
S'SEA'
p640
sg39
S'77'
p641
sg447
S'0.1'
p642
sg448
S'16.2'
p643
sg450
S'4.5'
p644
sg56
S'2481'
p645
sg453
S'1.1'
p646
sg49
S'1974-75'
p647
sg455
S'6.2'
p648
sba(isrc.gp1.models.Advanced
Advanced
p649
(dp650
g422
S'1.7'
p651
sg423
g3
sg424
S'.051'
p652
sg426
S'1.8'
p653
sg427
g3
sg428
S'4.5'
p654
sg429
S'-1.5'
p655
sg18
S'SG'
p656
sg431
S'-0.3'
p657
sg432
S'.478'
p658
sg434
S'7.3'
p659
sg435
S'.201'
p660
sg437
g3
sg24
S'NBA'
p661
sg439
S'-1.2'
p662
sg440
S'18.7'
p663
sg442
S'0.7'
p664
sg35
S'34'
p665
sg37
S'DET'
p666
sg39
S'79'
p667
sg447
S'0.1'
p668
sg448
S'12.5'
p669
sg450
S'1.0'
p670
sg56
S'1589'
p671
sg453
S'-2.7'
p672
sg49
S'1975-76'
p673
sg455
S'1.7'
p674
sbasS'_per36Minutes'
p675
(lp676
(isrc.gp1.models.Per36Minutes
Per36Minutes
p677
(dp678
g8
g3
sg9
g3
sg10
S'.452'
p679
sg12
S'4.2'
p680
sg14
g3
sg15
g3
sg16
S'16.3'
p681
sg18
S'SG'
p682
sg20
S'.708'
p683
sg24
S'NBA'
p684
sg26
g3
sg27
S'14.9'
p685
sg29
S'3.9'
p686
sg31
S'3.9'
p687
sg33
S'4.5'
p688
sg35
S'25'
p689
sg37
S'LAL'
p690
sg39
S'76'
p691
sg41
g3
sg42
S'6.8'
p692
sg44
S'2.8'
p693
sg46
S'14.9'
p694
sg48
g3
sg49
S'1966-67'
p695
sg51
S'6.8'
p696
sg53
g3
sg54
S'.452'
p697
sg56
S'1763'
p698
sg58
g3
sba(isrc.gp1.models.Per36Minutes
Per36Minutes
p699
(dp700
g8
g3
sg9
g3
sg10
S'.480'
p701
sg12
S'4.2'
p702
sg14
g3
sg15
g3
sg16
S'19.1'
p703
sg18
S'PG'
p704
sg20
S'.740'
p705
sg24
S'NBA'
p706
sg26
g3
sg27
S'15.5'
p707
sg29
S'2.8'
p708
sg31
S'5.7'
p709
sg33
S'4.1'
p710
sg35
S'26'
p711
sg37
S'LAL'
p712
sg39
S'81'
p713
sg41
g3
sg42
S'7.4'
p714
sg44
S'4.2'
p715
sg46
S'15.5'
p716
sg48
g3
sg49
S'1967-68'
p717
sg51
S'7.4'
p718
sg53
g3
sg54
S'.480'
p719
sg56
S'3039'
p720
sg58
g3
sba(isrc.gp1.models.Per36Minutes
Per36Minutes
p721
(dp722
g8
g3
sg9
g3
sg10
S'.478'
p723
sg12
S'5.0'
p724
sg14
g3
sg15
g3
sg16
S'18.6'
p725
sg18
S'SG'
p726
sg20
S'.697'
p727
sg24
S'NBA'
p728
sg26
g3
sg27
S'15.6'
p729
sg29
S'3.2'
p730
sg31
S'5.3'
p731
sg33
S'4.4'
p732
sg35
S'27'
p733
sg37
S'PHI'
p734
sg39
S'82'
p735
sg41
g3
sg42
S'7.5'
p736
sg44
S'3.7'
p737
sg46
S'15.6'
p738
sg48
g3
sg49
S'1968-69'
p739
sg51
S'7.5'
p740
sg53
g3
sg54
S'.478'
p741
sg56
S'2144'
p742
sg58
g3
sba(isrc.gp1.models.Per36Minutes
Per36Minutes
p743
(dp744
g8
g3
sg9
g3
sg10
S'.496'
p745
sg12
S'4.9'
p746
sg14
g3
sg15
g3
sg16
S'19.5'
p747
sg18
S'PG'
p748
sg20
S'.785'
p749
sg24
S'NBA'
p750
sg26
g3
sg27
S'15.6'
p751
sg29
S'2.6'
p752
sg31
S'5.1'
p753
sg33
S'3.9'
p754
sg35
S'28'
p755
sg37
S'PHI'
p756
sg39
S'76'
p757
sg41
g3
sg42
S'7.7'
p758
sg44
S'4.0'
p759
sg46
S'15.6'
p760
sg48
g3
sg49
S'1969-70'
p761
sg51
S'7.7'
p762
sg53
g3
sg54
S'.496'
p763
sg56
S'2772'
p764
sg58
g3
sba(isrc.gp1.models.Per36Minutes
Per36Minutes
p765
(dp766
g8
g3
sg9
g3
sg10
S'.496'
p767
sg12
S'4.9'
p768
sg14
g3
sg15
g3
sg16
S'19.4'
p769
sg18
S'PG'
p770
sg20
S'.787'
p771
sg24
S'NBA'
p772
sg26
g3
sg27
S'14.8'
p773
sg29
S'2.4'
p774
sg31
S'5.9'
p775
sg33
S'4.3'
p776
sg35
S'29'
p777
sg37
S'PHI'
p778
sg39
S'82'
p779
sg41
g3
sg42
S'7.3'
p780
sg44
S'4.7'
p781
sg46
S'14.8'
p782
sg48
g3
sg49
S'1970-71'
p783
sg51
S'7.3'
p784
sg53
g3
sg54
S'.496'
p785
sg56
S'3245'
p786
sg58
g3
sba(isrc.gp1.models.Per36Minutes
Per36Minutes
p787
(dp788
g8
g3
sg9
g3
sg10
S'.470'
p789
sg12
S'6.7'
p790
sg14
g3
sg15
g3
sg16
S'21.2'
p791
sg18
S'PG'
p792
sg20
S'.771'
p793
sg24
S'NBA'
p794
sg26
g3
sg27
S'16.6'
p795
sg29
S'2.1'
p796
sg31
S'7.3'
p797
sg33
S'2.9'
p798
sg35
S'30'
p799
sg37
S'TOT'
p800
sg39
S'77'
p801
sg41
g3
sg42
S'7.8'
p802
sg44
S'5.6'
p803
sg46
S'16.6'
p804
sg48
g3
sg49
S'1971-72'
p805
sg51
S'7.8'
p806
sg53
g3
sg54
S'.470'
p807
sg56
S'3285'
p808
sg58
g3
sba(isrc.gp1.models.Per36Minutes
Per36Minutes
p809
(dp810
g8
g3
sg9
g3
sg10
S'.688'
p811
sg12
S'6.0'
p812
sg14
g3
sg15
g3
sg16
S'24.9'
p813
sg18
S'PG'
p814
sg20
S'.636'
p815
sg24
S'NBA'
p816
sg26
g3
sg27
S'13.7'
p817
sg29
S'2.6'
p818
sg31
S'9.4'
p819
sg33
S'2.6'
p820
sg35
S'30'
p821
sg37
S'PHI'
p822
sg39
g188
sg41
g3
sg42
S'9.4'
p823
sg44
S'6.0'
p824
sg46
S'13.7'
p825
sg48
g3
sg49
S'1971-72'
p826
sg51
S'9.4'
p827
sg53
g3
sg54
S'.688'
p828
sg56
S'42'
p829
sg58
g3
sba(isrc.gp1.models.Per36Minutes
Per36Minutes
p830
(dp831
g8
g3
sg9
g3
sg10
S'.467'
p832
sg12
S'6.7'
p833
sg14
g3
sg15
g3
sg16
S'21.2'
p834
sg18
S'PG'
p835
sg20
S'.773'
p836
sg24
S'NBA'
p837
sg26
g3
sg27
S'16.7'
p838
sg29
S'2.1'
p839
sg31
S'7.3'
p840
sg33
S'2.9'
p841
sg35
S'30'
p842
sg37
S'BAL'
p843
sg39
S'76'
p844
sg41
g3
sg42
S'7.8'
p845
sg44
S'5.6'
p846
sg46
S'16.7'
p847
sg48
g3
sg49
S'1971-72'
p848
sg51
S'7.8'
p849
sg53
g3
sg54
S'.467'
p850
sg56
S'3243'
p851
sg58
g3
sba(isrc.gp1.models.Per36Minutes
Per36Minutes
p852
(dp853
g8
g3
sg9
g3
sg10
S'.507'
p854
sg12
S'6.7'
p855
sg14
g3
sg15
g3
sg16
S'17.4'
p856
sg18
S'PG'
p857
sg20
S'.810'
p858
sg24
S'NBA'
p859
sg26
g3
sg27
S'14.5'
p860
sg29
S'2.7'
p861
sg31
S'3.3'
p862
sg33
S'3.1'
p863
sg35
S'31'
p864
sg37
S'BAL'
p865
sg39
S'39'
p866
sg41
g3
sg42
S'7.4'
p867
sg44
S'2.7'
p868
sg46
S'14.5'
p869
sg48
g3
sg49
S'1972-73'
p870
sg51
S'7.4'
p871
sg53
g3
sg54
S'.507'
p872
sg56
S'1477'
p873
sg58
g3
sba(isrc.gp1.models.Per36Minutes
Per36Minutes
p874
(dp875
g8
S'0.9'
p876
sg9
g3
sg10
S'.467'
p877
sg12
S'5.7'
p878
sg14
g3
sg15
g3
sg16
S'14.8'
p879
sg18
S'PG'
p880
sg20
S'.786'
p881
sg24
S'NBA'
p882
sg26
S'1.2'
p883
sg27
S'13.6'
p884
sg29
S'2.5'
p885
sg31
S'2.6'
p886
sg33
S'2.8'
p887
sg35
S'32'
p888
sg37
S'CAP'
p889
sg39
S'56'
p890
sg41
S'0.1'
p891
sg42
S'6.3'
p892
sg44
S'2.1'
p893
sg46
S'13.6'
p894
sg48
S'2.0'
p895
sg49
S'1973-74'
p896
sg51
S'6.3'
p897
sg53
g3
sg54
S'.467'
p898
sg56
S'1786'
p899
sg58
g3
sba(isrc.gp1.models.Per36Minutes
Per36Minutes
p900
(dp901
g8
S'0.9'
p902
sg9
g3
sg10
S'.495'
p903
sg12
S'6.3'
p904
sg14
g3
sg15
g3
sg16
S'15.5'
p905
sg18
S'PG'
p906
sg20
S'.834'
p907
sg24
S'NBA'
p908
sg26
S'1.6'
p909
sg27
S'13.3'
p910
sg29
S'2.7'
p911
sg31
S'2.8'
p912
sg33
S'3.4'
p913
sg35
S'33'
p914
sg37
S'SEA'
p915
sg39
S'77'
p916
sg41
S'0.1'
p917
sg42
S'6.6'
p918
sg44
S'2.3'
p919
sg46
S'13.3'
p920
sg48
S'2.6'
p921
sg49
S'1974-75'
p922
sg51
S'6.6'
p923
sg53
g3
sg54
S'.495'
p924
sg56
S'2481'
p925
sg58
g3
sba(isrc.gp1.models.Per36Minutes
Per36Minutes
p926
(dp927
g8
S'0.6'
p928
sg9
g3
sg10
S'.433'
p929
sg12
S'4.9'
p930
sg14
g3
sg15
g3
sg16
S'13.6'
p931
sg18
S'SG'
p932
sg20
S'.862'
p933
sg24
S'NBA'
p934
sg26
S'1.4'
p935
sg27
S'13.1'
p936
sg29
S'3.6'
p937
sg31
S'2.6'
p938
sg33
S'3.1'
p939
sg35
S'34'
p940
sg37
S'DET'
p941
sg39
S'79'
p942
sg41
S'0.1'
p943
sg42
S'5.7'
p944
sg44
S'2.3'
p945
sg46
S'13.1'
p946
sg48
S'2.5'
p947
sg49
S'1975-76'
p948
sg51
S'5.7'
p949
sg53
g3
sg54
S'.433'
p950
sg56
S'1589'
p951
sg58
g3
sbasS'_fromYear'
p952
S'1967'
p953
sS'_url'
p954
S'http://www.basketball-reference.com/players/c/clarkar01.html'
p955
sS'_perGame'
p956
(isrc.gp1.models.PerGame
PerGame
p957
(dp958
g8
S'0.3'
p959
sg9
g3
sg10
S'.433'
p960
sS'_effectiveFieldGalPercentage'
p961
S'.433'
p962
sg12
S'2.8'
p963
sg14
g3
sg15
g3
sg16
S'7.6'
p964
sg18
S'SG'
p965
sg20
S'.862'
p966
sg24
S'NBA'
p967
sg26
S'0.8'
p968
sg29
S'2.0'
p969
sS'_fieldGoalsttempted'
p970
S'7.3'
p971
sg31
S'1.5'
p972
sg33
S'1.7'
p973
sg35
S'34'
p974
sg37
S'DET'
p975
sg39
S'79'
p976
sg41
S'0.1'
p977
sg42
S'3.2'
p978
sg44
S'1.3'
p979
sg46
S'7.3'
p980
sg48
S'1.4'
p981
sg49
S'1975-76'
p982
sg51
S'3.2'
p983
sg53
g3
sg54
S'.433'
p984
sg56
S'20.1'
p985
sg58
g3
sbsS'_weight'
p986
S'175'
p987
sS'_dob'
p988
S'15-7-1941'
p989
sS'_salary'
p990
(lp991
sg18
S'G'
p992
sb.