(isrc.gp1.models.Player
Player
p0
(dp1
S'_experience'
p2
V1 year
p3
sS'_totals'
p4
(lp5
(isrc.gp1.models.Totals
Totals
p6
(dp7
S'_offensiveRebounds'
p8
S'22'
p9
sS'_threePointsAttempted'
p10
S'84'
p11
sS'_fieldGoalsPercentage'
p12
S'.355'
p13
sS'_assist'
p14
S'36'
p15
sS'_threePointsPercentage'
p16
S'.262'
p17
sS'_threePoints'
p18
S'22'
p19
sS'_points'
p20
S'210'
p21
sS'_position'
p22
S'SF'
p23
sS'_freeThrowsPercentage'
p24
S'.750'
p25
sS'_effectiveFieldGoalPercentage'
p26
S'.407'
p27
sS'_league'
p28
S'NBA'
p29
sS'_steals'
p30
S'24'
p31
sS'_fieldGoalsAttempted'
p32
S'214'
p33
sS'_personalFouls'
p34
S'57'
p35
sS'_freeThrowsAttempted'
p36
S'48'
p37
sS'_totalRebounds'
p38
S'97'
p39
sS'_age'
p40
S'23'
p41
sS'_team'
p42
S'NYK'
p43
sS'_games'
p44
S'39'
p45
sS'_blocks'
p46
S'12'
p47
sS'_twoPoints'
p48
S'54'
p49
sS'_freeThrows'
p50
S'36'
p51
sS'_twoPointsAttempted'
p52
S'130'
p53
sS'_defensiveRebounds'
p54
S'75'
p55
sS'_season'
p56
S'2014-15'
p57
sS'_fieldGoals'
p58
S'76'
p59
sS'_turnOvers'
p60
S'40'
p61
sS'_twoPointsPercentage'
p62
S'.415'
p63
sS'_minutesPlayed'
p64
S'647'
p65
sS'_gamesStarted'
p66
S'7'
p67
sba(isrc.gp1.models.Totals
Totals
p68
(dp69
g8
S'2'
p70
sg10
S'4'
p71
sg12
S'.500'
p72
sg14
S'1'
p73
sg16
S'.250'
p74
sg18
g73
sg20
S'NA'
p75
sg22
S'SF'
p76
sg24
S'0'
p77
sg26
S'.583'
p78
sg28
S'NBA'
p79
sg30
g73
sg32
S'6'
p80
sg34
g67
sg36
g77
sg38
g73
sg40
S'24'
p81
sg42
S'NYK'
p82
sg44
S'10'
p83
sg46
g73
sg48
g70
sg50
g77
sg52
g70
sg54
g70
sg56
S'2015-16'
p84
sg58
S'3'
p85
sg60
g85
sg62
S'1.000'
p86
sg64
S'34'
p87
sg66
g77
sbasS'_college'
p88
S'Wichita State University'
p89
sS'_toYear'
p90
S'2016'
p91
sS'_height'
p92
S'6-8'
p93
sS'_active'
p94
I01
sS'_shootingHand'
p95
VRight
p96
sS'_name'
p97
S'Cleanthony Early'
p98
sS'_per100Possessions'
p99
(lp100
(isrc.gp1.models.Per100Possession
Per100Possession
p101
(dp102
g8
S'1.8'
p103
sg10
S'6.8'
p104
sg12
S'.355'
p105
sS'_offensiveRating'
p106
S'87'
p107
sg14
S'2.9'
p108
sg16
S'.262'
p109
sg18
S'1.8'
p110
sg20
S'17.1'
p111
sg22
S'SF'
p112
sS'_defensiveRating'
p113
S'110'
p114
sg24
S'.750'
p115
sg28
S'NBA'
p116
sg30
S'2.0'
p117
sg32
S'17.4'
p118
sg34
S'4.6'
p119
sg36
S'3.9'
p120
sg38
S'7.9'
p121
sg40
S'23'
p122
sg42
S'NYK'
p123
sg44
S'39'
p124
sg46
S'1.0'
p125
sg48
S'4.4'
p126
sg50
S'2.9'
p127
sg52
S'10.6'
p128
sg54
S'6.1'
p129
sg56
S'2014-15'
p130
sg58
S'6.2'
p131
sg60
S'3.3'
p132
sg62
S'.415'
p133
sg64
S'647'
p134
sg66
g67
sba(isrc.gp1.models.Per100Possession
Per100Possession
p135
(dp136
g8
S'3.0'
p137
sg10
S'6.0'
p138
sg12
S'.500'
p139
sg106
S'109'
p140
sg14
S'1.5'
p141
sg16
S'.250'
p142
sg18
S'1.5'
p143
sg20
S'102'
p144
sg22
S'SF'
p145
sg113
g75
sg24
S'0.0'
p146
sg28
S'NBA'
p147
sg30
S'1.5'
p148
sg32
S'9.1'
p149
sg34
S'10.6'
p150
sg36
S'0.0'
p151
sg38
S'1.5'
p152
sg40
S'24'
p153
sg42
S'NYK'
p154
sg44
S'10'
p155
sg46
S'1.5'
p156
sg48
S'3.0'
p157
sg50
S'0.0'
p158
sg52
S'3.0'
p159
sg54
S'3.0'
p160
sg56
S'2015-16'
p161
sg58
S'4.5'
p162
sg60
S'4.5'
p163
sg62
S'1.000'
p164
sg64
S'34'
p165
sg66
g77
sbasS'_advanced'
p166
(lp167
(isrc.gp1.models.Advanced
Advanced
p168
(dp169
S'_offensiveReboundPercentage'
p170
S'3.8'
p171
sS'_turnOverPercentage'
p172
S'14.5'
p173
sS'_winSharesPer48Minutes'
p174
S'-0.030'
p175
sS'_stealPercentage'
p176
S'2.0'
p177
sS'_usagePercentage'
p178
S'19.6'
p179
sS'_totalReboundsPercentage'
p180
S'8.7'
p181
sS'_defensiveBoxPlusMinus'
p182
S'-1.3'
p183
sg22
S'SF'
p184
sS'_valueOverReplacementPlayer'
p185
S'-0.5'
p186
sS'_trueShootingPercentage'
p187
S'.447'
p188
sS'_defensiveReboundPercentage'
p189
S'13.8'
p190
sS'_freeThrowsAttempRate'
p191
S'.224'
p192
sS'_threePointsAttempRate'
p193
S'.393'
p194
sg28
S'NBA'
p195
sS'_offensiveBoxPlusMinues'
p196
S'-3.8'
p197
sS'_assistPercentage'
p198
S'9.1'
p199
sS'_defensiveWinShares'
p200
S'0.4'
p201
sg40
S'23'
p202
sg42
S'NYK'
p203
sg44
S'39'
p204
sS'_blockPercentage'
p205
S'1.5'
p206
sS'_playerEfficiencyRating'
p207
S'8.4'
p208
sS'_offensiveWinShares'
p209
S'-0.8'
p210
sg64
S'647'
p211
sS'_boxPlusMinus'
p212
S'-5.2'
p213
sg56
S'2014-15'
p214
sS'_winShares'
p215
S'-0.4'
p216
sba(isrc.gp1.models.Advanced
Advanced
p217
(dp218
g170
S'0.0'
p219
sg172
S'14.3'
p220
sg174
S'.042'
p221
sg176
S'1.5'
p222
sg178
S'9.3'
p223
sg180
S'3.2'
p224
sg182
S'-0.6'
p225
sg22
S'SF'
p226
sg185
S'0.0'
p227
sg187
S'.583'
p228
sg189
S'6.4'
p229
sg191
S'.000'
p230
sg193
S'.667'
p231
sg28
S'NBA'
p232
sg196
S'-2.4'
p233
sg198
S'4.4'
p234
sg200
S'0.0'
p235
sg40
S'24'
p236
sg42
S'NYK'
p237
sg44
S'10'
p238
sg205
S'2.2'
p239
sg207
S'7.1'
p240
sg209
S'0.0'
p241
sg64
S'34'
p242
sg212
S'-3.0'
p243
sg56
S'2015-16'
p244
sg215
S'0.0'
p245
sbasS'_per36Minutes'
p246
(lp247
(isrc.gp1.models.Per36Minutes
Per36Minutes
p248
(dp249
g8
S'1.2'
p250
sg10
S'4.7'
p251
sg12
S'.355'
p252
sg14
S'2.0'
p253
sg16
S'.262'
p254
sg18
S'1.2'
p255
sg20
S'11.7'
p256
sg22
S'SF'
p257
sg24
S'.750'
p258
sg28
S'NBA'
p259
sg30
S'1.3'
p260
sg32
S'11.9'
p261
sg34
S'3.2'
p262
sg36
S'2.7'
p263
sg38
S'5.4'
p264
sg40
S'23'
p265
sg42
S'NYK'
p266
sg44
S'39'
p267
sg46
S'0.7'
p268
sg48
S'3.0'
p269
sg50
S'2.0'
p270
sg52
S'7.2'
p271
sg54
S'4.2'
p272
sg56
S'2014-15'
p273
sg58
S'4.2'
p274
sg60
S'2.2'
p275
sg62
S'.415'
p276
sg64
S'647'
p277
sg66
g67
sba(isrc.gp1.models.Per36Minutes
Per36Minutes
p278
(dp279
g8
S'2.1'
p280
sg10
S'4.2'
p281
sg12
S'.500'
p282
sg14
S'1.1'
p283
sg16
S'.250'
p284
sg18
S'1.1'
p285
sg20
g75
sg22
S'SF'
p286
sg24
S'0.0'
p287
sg28
S'NBA'
p288
sg30
S'1.1'
p289
sg32
S'6.4'
p290
sg34
S'7.4'
p291
sg36
S'0.0'
p292
sg38
S'1.1'
p293
sg40
S'24'
p294
sg42
S'NYK'
p295
sg44
S'10'
p296
sg46
S'1.1'
p297
sg48
S'2.1'
p298
sg50
S'0.0'
p299
sg52
S'2.1'
p300
sg54
S'2.1'
p301
sg56
S'2015-16'
p302
sg58
S'3.2'
p303
sg60
S'3.2'
p304
sg62
S'1.000'
p305
sg64
S'34'
p306
sg66
g77
sbasS'_fromYear'
p307
S'2015'
p308
sS'_url'
p309
S'http://www.basketball-reference.com/players/e/earlycl01.html'
p310
sS'_perGame'
p311
(isrc.gp1.models.PerGame
PerGame
p312
(dp313
g8
S'0.2'
p314
sg10
S'0.4'
p315
sg12
S'.500'
p316
sS'_effectiveFieldGalPercentage'
p317
S'.583'
p318
sg14
S'0.1'
p319
sg16
S'.250'
p320
sg18
S'0.1'
p321
sg20
g75
sg22
S'SF'
p322
sg24
S'0.0'
p323
sg28
S'NBA'
p324
sg30
S'0.1'
p325
sg34
S'0.7'
p326
sS'_fieldGoalsttempted'
p327
S'0.6'
p328
sg36
S'0.0'
p329
sg38
S'0.1'
p330
sg40
S'24'
p331
sg42
S'NYK'
p332
sg44
S'10'
p333
sg46
S'0.1'
p334
sg48
S'0.2'
p335
sg50
S'0.0'
p336
sg52
S'0.2'
p337
sg54
S'0.2'
p338
sg56
S'2015-16'
p339
sg58
S'0.3'
p340
sg60
S'0.3'
p341
sg62
S'1.000'
p342
sg64
S'3.4'
p343
sg66
g77
sbsS'_weight'
p344
S'210'
p345
sS'_dob'
p346
S'17-4-1991'
p347
sS'_salary'
p348
(lp349
(isrc.gp1.models.Salary
Salary
p350
(dp351
g42
S'New York Knicks'
p352
sg28
S'NBA'
p353
sg348
S'$507,336'
p354
sg56
S'2014-15'
p355
sbasg22
S'F'
p356
sb.