(isrc.gp1.models.Player
Player
p0
(dp1
S'_experience'
p2
S'NA'
p3
sS'_totals'
p4
(lp5
(isrc.gp1.models.Totals
Totals
p6
(dp7
S'_offensiveRebounds'
p8
S'0'
p9
sS'_threePointsAttempted'
p10
g9
sS'_fieldGoalsPercentage'
p11
S'.250'
p12
sS'_assist'
p13
g9
sS'_threePointsPercentage'
p14
S'2'
p15
sS'_threePoints'
p16
g9
sS'_points'
p17
g3
sS'_position'
p18
S'PG'
p19
sS'_freeThrowsPercentage'
p20
g9
sS'_effectiveFieldGoalPercentage'
p21
g9
sS'_league'
p22
S'NBA'
p23
sS'_steals'
p24
g15
sS'_fieldGoalsAttempted'
p25
S'8'
p26
sS'_personalFouls'
p27
g3
sS'_freeThrowsAttempted'
p28
g9
sS'_totalRebounds'
p29
g9
sS'_age'
p30
S'24'
p31
sS'_team'
p32
S'CHI'
p33
sS'_games'
p34
S'4'
p35
sS'_blocks'
p36
g26
sS'_twoPoints'
p37
g26
sS'_freeThrows'
p38
g9
sS'_twoPointsAttempted'
p39
S'.250'
p40
sS'_defensiveRebounds'
p41
S'1'
p42
sS'_season'
p43
S'1989-90'
p44
sS'_fieldGoals'
p45
g15
sS'_turnOvers'
p46
g35
sS'_twoPointsPercentage'
p47
S'.250'
p48
sS'_minutesPlayed'
p49
S'28'
p50
sS'_gamesStarted'
p51
g9
sba(isrc.gp1.models.Totals
Totals
p52
(dp53
g8
g42
sg10
g42
sg11
S'.483'
p54
sg13
S'7'
p55
sg14
S'.000'
p56
sg16
g9
sg17
S'34'
p57
sg18
S'PG'
p58
sg20
S'.667'
p59
sg21
S'.483'
p60
sg22
S'NBA'
p61
sg24
g15
sg25
S'29'
p62
sg27
S'9'
p63
sg28
g63
sg29
g55
sg30
S'25'
p64
sg32
S'SAS'
p65
sg34
g55
sg36
g42
sg37
S'14'
p66
sg38
S'6'
p67
sg39
S'28'
p68
sg41
g67
sg43
S'1990-91'
p69
sg45
S'14'
p70
sg46
g26
sg47
S'.500'
p71
sg49
S'99'
p72
sg51
g9
sbasS'_college'
p73
S'University of Florida'
p74
sS'_toYear'
p75
S'1991'
p76
sS'_height'
p77
S'6-3'
p78
sS'_active'
p79
I00
sS'_shootingHand'
p80
VRight
p81
sS'_name'
p82
S'Clifford Lett'
p83
sS'_per100Possessions'
p84
(lp85
(isrc.gp1.models.Per100Possession
Per100Possession
p86
(dp87
g8
S'0.0'
p88
sg10
S'0.0'
p89
sg11
S'.250'
p90
sS'_offensiveRating'
p91
g3
sg13
S'0.0'
p92
sg14
S'3.5'
p93
sg16
S'0.0'
p94
sg17
S'117'
p95
sg18
S'PG'
p96
sS'_defensiveRating'
p97
g3
sg20
S'0.0'
p98
sg22
S'NBA'
p99
sg24
S'3.5'
p100
sg25
S'14.2'
p101
sg27
S'49'
p102
sg28
S'0.0'
p103
sg29
S'0.0'
p104
sg30
S'24'
p105
sg32
S'CHI'
p106
sg34
g35
sg36
S'14.2'
p107
sg37
S'14.2'
p108
sg38
S'0.0'
p109
sg39
S'.250'
p110
sg41
S'1.8'
p111
sg43
S'1989-90'
p112
sg45
S'3.5'
p113
sg46
S'7.1'
p114
sg47
S'0.0'
p115
sg49
S'28'
p116
sg51
g9
sba(isrc.gp1.models.Per100Possession
Per100Possession
p117
(dp118
g8
S'0.5'
p119
sg10
S'0.5'
p120
sg11
S'.483'
p121
sg91
S'92'
p122
sg13
S'3.4'
p123
sg14
S'.000'
p124
sg16
S'0.0'
p125
sg17
S'16.7'
p126
sg18
S'PG'
p127
sg97
S'108'
p128
sg20
S'.667'
p129
sg22
S'NBA'
p130
sg24
S'1.0'
p131
sg25
S'14.3'
p132
sg27
S'4.4'
p133
sg28
S'4.4'
p134
sg29
S'3.4'
p135
sg30
S'25'
p136
sg32
S'SAS'
p137
sg34
g55
sg36
S'0.5'
p138
sg37
S'6.9'
p139
sg38
S'3.0'
p140
sg39
S'13.8'
p141
sg41
S'3.0'
p142
sg43
S'1990-91'
p143
sg45
S'6.9'
p144
sg46
S'3.9'
p145
sg47
S'.500'
p146
sg49
S'99'
p147
sg51
g9
sbasS'_advanced'
p148
(lp149
(isrc.gp1.models.Advanced
Advanced
p150
(dp151
S'_offensiveReboundPercentage'
p152
S'0.0'
p153
sS'_turnOverPercentage'
p154
S'20.0'
p155
sS'_winSharesPer48Minutes'
p156
S'-0.203'
p157
sS'_stealPercentage'
p158
S'0.0'
p159
sS'_usagePercentage'
p160
S'15.3'
p161
sS'_totalReboundsPercentage'
p162
S'0.0'
p163
sS'_defensiveBoxPlusMinus'
p164
S'-5.4'
p165
sg18
S'PG'
p166
sS'_valueOverReplacementPlayer'
p167
S'-0.1'
p168
sS'_trueShootingPercentage'
p169
S'.250'
p170
sS'_defensiveReboundPercentage'
p171
S'0.0'
p172
sS'_freeThrowsAttempRate'
p173
S'.000'
p174
sS'_threePointsAttempRate'
p175
S'.000'
p176
sg22
S'NBA'
p177
sS'_offensiveBoxPlusMinues'
p178
S'-12.2'
p179
sS'_assistPercentage'
p180
S'4.4'
p181
sS'_defensiveWinShares'
p182
S'0.0'
p183
sg30
S'24'
p184
sg32
S'CHI'
p185
sg34
g35
sS'_blockPercentage'
p186
S'0.0'
p187
sS'_playerEfficiencyRating'
p188
S'-9.0'
p189
sS'_offensiveWinShares'
p190
S'-0.1'
p191
sg49
S'28'
p192
sS'_boxPlusMinus'
p193
S'-17.6'
p194
sg43
S'1989-90'
p195
sS'_winShares'
p196
S'-0.1'
p197
sba(isrc.gp1.models.Advanced
Advanced
p198
(dp199
g152
S'1.2'
p200
sg154
S'19.5'
p201
sg156
S'.014'
p202
sg158
S'1.0'
p203
sg160
S'17.2'
p204
sg162
S'3.9'
p205
sg164
S'-1.4'
p206
sg18
S'PG'
p207
sg167
S'-0.1'
p208
sg169
S'.516'
p209
sg171
S'6.4'
p210
sg173
S'.310'
p211
sg175
S'.034'
p212
sg22
S'NBA'
p213
sg178
S'-4.9'
p214
sg180
S'9.8'
p215
sg182
S'0.1'
p216
sg30
S'25'
p217
sg32
S'SAS'
p218
sg34
g55
sg186
S'0.6'
p219
sg188
S'6.9'
p220
sg190
S'-0.1'
p221
sg49
S'99'
p222
sg193
S'-6.4'
p223
sg43
S'1990-91'
p224
sg196
S'0.0'
p225
sbasS'_per36Minutes'
p226
(lp227
(isrc.gp1.models.Per36Minutes
Per36Minutes
p228
(dp229
g8
S'0.0'
p230
sg10
S'0.0'
p231
sg11
S'.250'
p232
sg13
S'0.0'
p233
sg14
S'2.6'
p234
sg16
S'0.0'
p235
sg17
g3
sg18
S'PG'
p236
sg20
S'0.0'
p237
sg22
S'NBA'
p238
sg24
S'2.6'
p239
sg25
S'10.3'
p240
sg27
g3
sg28
S'0.0'
p241
sg29
S'0.0'
p242
sg30
S'24'
p243
sg32
S'CHI'
p244
sg34
g35
sg36
S'10.3'
p245
sg37
S'10.3'
p246
sg38
S'0.0'
p247
sg39
S'.250'
p248
sg41
S'1.3'
p249
sg43
S'1989-90'
p250
sg45
S'2.6'
p251
sg46
S'5.1'
p252
sg47
S'0.0'
p253
sg49
S'28'
p254
sg51
g9
sba(isrc.gp1.models.Per36Minutes
Per36Minutes
p255
(dp256
g8
S'0.4'
p257
sg10
S'0.4'
p258
sg11
S'.483'
p259
sg13
S'2.5'
p260
sg14
S'.000'
p261
sg16
S'0.0'
p262
sg17
S'12.4'
p263
sg18
S'PG'
p264
sg20
S'.667'
p265
sg22
S'NBA'
p266
sg24
S'0.7'
p267
sg25
S'10.5'
p268
sg27
S'3.3'
p269
sg28
S'3.3'
p270
sg29
S'2.5'
p271
sg30
S'25'
p272
sg32
S'SAS'
p273
sg34
g55
sg36
S'0.4'
p274
sg37
S'5.1'
p275
sg38
S'2.2'
p276
sg39
S'10.2'
p277
sg41
S'2.2'
p278
sg43
S'1990-91'
p279
sg45
S'5.1'
p280
sg46
S'2.9'
p281
sg47
S'.500'
p282
sg49
S'99'
p283
sg51
g9
sbasS'_fromYear'
p284
S'1990'
p285
sS'_url'
p286
S'http://www.basketball-reference.com/players/l/lettcl01.html'
p287
sS'_perGame'
p288
(isrc.gp1.models.PerGame
PerGame
p289
(dp290
g8
S'0.1'
p291
sg10
S'0.1'
p292
sg11
S'.483'
p293
sS'_effectiveFieldGalPercentage'
p294
S'.483'
p295
sg13
S'1.0'
p296
sg14
S'.000'
p297
sg16
S'0.0'
p298
sg17
S'4.9'
p299
sg18
S'PG'
p300
sg20
S'.667'
p301
sg22
S'NBA'
p302
sg24
S'0.3'
p303
sg27
S'1.3'
p304
sS'_fieldGoalsttempted'
p305
S'4.1'
p306
sg28
S'1.3'
p307
sg29
S'1.0'
p308
sg30
S'25'
p309
sg32
S'SAS'
p310
sg34
g55
sg36
S'0.1'
p311
sg37
S'2.0'
p312
sg38
S'0.9'
p313
sg39
S'4.0'
p314
sg41
S'0.9'
p315
sg43
S'1990-91'
p316
sg45
S'2.0'
p317
sg46
S'1.1'
p318
sg47
S'.500'
p319
sg49
S'14.1'
p320
sg51
g9
sbsS'_weight'
p321
S'170'
p322
sS'_dob'
p323
S'23-12-1965'
p324
sS'_salary'
p325
(lp326
sg18
S'G'
p327
sb.