(isrc.gp1.models.Player
Player
p0
(dp1
S'_experience'
p2
S'NA'
p3
sS'_totals'
p4
(lp5
(isrc.gp1.models.Totals
Totals
p6
(dp7
S'_offensiveRebounds'
p8
g3
sS'_threePointsAttempted'
p9
S'128'
p10
sS'_fieldGoalsPercentage'
p11
S'.320'
p12
sS'_assist'
p13
g3
sS'_threePointsPercentage'
p14
S'189'
p15
sS'_threePoints'
p16
S'.320'
p17
sS'_points'
p18
g3
sS'_position'
p19
S'60'
p20
sS'_freeThrowsPercentage'
p21
g3
sS'_effectiveFieldGoalPercentage'
p22
S'620'
p23
sS'_league'
p24
S'BAA'
p25
sS'_steals'
p26
g3
sS'_fieldGoalsAttempted'
p27
S'768'
p28
sS'_personalFouls'
p29
g3
sS'_freeThrowsAttempted'
p30
g3
sS'_totalRebounds'
p31
g3
sS'_age'
p32
S'21'
p33
sS'_team'
p34
S'BOS'
p35
sS'_games'
p36
S'246'
p37
sS'_blocks'
p38
g3
sS'_twoPoints'
p39
S'.677'
p40
sS'_freeThrows'
p41
g3
sS'_twoPointsAttempted'
p42
S'62'
p43
sS'_defensiveRebounds'
p44
g3
sS'_season'
p45
S'1946-47'
p46
sS'_fieldGoals'
p47
S'246'
p48
sS'_turnOvers'
p49
g3
sS'_twoPointsPercentage'
p50
S'130'
p51
sS'_minutesPlayed'
p52
S'.320'
p53
sS'_gamesStarted'
p54
S'768'
p55
sba(isrc.gp1.models.Totals
Totals
p56
(dp57
g8
g3
sg9
S'62'
p58
sg11
S'.297'
p59
sg13
g3
sg14
S'108'
p60
sg16
S'.297'
p61
sg18
g3
sg19
S'45'
p62
sg21
g3
sg22
S'386'
p63
sg24
S'BAA'
p64
sg26
g3
sg27
S'545'
p65
sg29
g3
sg30
g3
sg31
g3
sg32
S'22'
p66
sg34
S'TOT'
p67
sg36
S'162'
p68
sg38
g3
sg39
S'.574'
p69
sg41
g3
sg42
S'24'
p70
sg44
g3
sg45
S'1947-48'
p71
sg47
S'162'
p72
sg49
g3
sg50
S'122'
p73
sg52
S'.297'
p74
sg54
S'545'
p75
sba(isrc.gp1.models.Totals
Totals
p76
(dp77
g8
g3
sg9
S'32'
p78
sg11
S'.295'
p79
sg13
g3
sg14
S'54'
p80
sg16
S'.295'
p81
sg18
g3
sg19
S'32'
p82
sg21
g3
sg22
S'248'
p83
sg24
S'BAA'
p84
sg26
g3
sg27
S'366'
p85
sg29
g3
sg30
g3
sg31
g3
sg32
S'22'
p86
sg34
S'BOS'
p87
sg36
S'108'
p88
sg38
g3
sg39
S'.593'
p89
sg41
g3
sg42
S'17'
p90
sg44
g3
sg45
S'1947-48'
p91
sg47
S'108'
p92
sg49
g3
sg50
S'82'
p93
sg52
S'.295'
p94
sg54
S'366'
p95
sba(isrc.gp1.models.Totals
Totals
p96
(dp97
g8
g3
sg9
S'30'
p98
sg11
S'.302'
p99
sg13
g3
sg14
S'54'
p100
sg16
S'.302'
p101
sg18
g3
sg19
S'13'
p102
sg21
g3
sg22
S'138'
p103
sg24
S'BAA'
p104
sg26
g3
sg27
S'179'
p105
sg29
g3
sg30
g3
sg31
g3
sg32
S'22'
p106
sg34
S'BLB'
p107
sg36
S'54'
p108
sg38
g3
sg39
S'.556'
p109
sg41
g3
sg42
S'7'
p110
sg44
g3
sg45
S'1947-48'
p111
sg47
S'54'
p112
sg49
g3
sg50
S'40'
p113
sg52
S'.302'
p114
sg54
S'179'
p115
sba(isrc.gp1.models.Totals
Totals
p116
(dp117
g8
g3
sg9
S'181'
p118
sg11
S'.377'
p119
sg13
g3
sg14
S'265'
p120
sg16
S'.377'
p121
sg18
g3
sg19
S'60'
p122
sg21
g3
sg22
S'779'
p123
sg24
S'BAA'
p124
sg26
g3
sg27
S'794'
p125
sg29
g3
sg30
g3
sg31
g3
sg32
S'23'
p126
sg34
S'BLB'
p127
sg36
S'299'
p128
sg38
g3
sg39
S'.683'
p129
sg41
g3
sg42
S'116'
p130
sg44
g3
sg45
S'1948-49'
p131
sg47
S'299'
p132
sg49
g3
sg50
S'215'
p133
sg52
S'.377'
p134
sg54
S'794'
p135
sba(isrc.gp1.models.Totals
Totals
p136
(dp137
g8
g3
sg9
S'198'
p138
sg11
S'.331'
p139
sg13
g3
sg14
S'299'
p140
sg16
S'.331'
p141
sg18
g3
sg19
S'60'
p142
sg21
g3
sg22
S'680'
p143
sg24
S'NBA'
p144
sg26
g3
sg27
S'729'
p145
sg29
g3
sg30
g3
sg31
g3
sg32
S'24'
p146
sg34
S'NYK'
p147
sg36
S'241'
p148
sg38
g3
sg39
S'.662'
p149
sg41
g3
sg42
S'102'
p150
sg44
g3
sg45
S'1949-50'
p151
sg47
S'241'
p152
sg49
g3
sg50
S'203'
p153
sg52
S'.331'
p154
sg54
S'729'
p155
sba(isrc.gp1.models.Totals
Totals
p156
(dp157
g8
g3
sg9
S'146'
p158
sg11
S'.374'
p159
sg13
g3
sg14
S'208'
p160
sg16
S'.374'
p161
sg18
g3
sg19
S'66'
p162
sg21
g3
sg22
S'222'
p163
sg24
S'NBA'
p164
sg26
g3
sg27
S'613'
p165
sg29
g3
sg30
g3
sg31
g3
sg32
S'25'
p166
sg34
S'NYK'
p167
sg36
S'229'
p168
sg38
g3
sg39
S'.702'
p169
sg41
S'604'
p170
sg42
S'426'
p171
sg44
g3
sg45
S'1950-51'
p172
sg47
S'229'
p173
sg49
g3
sg50
S'117'
p174
sg52
S'.374'
p175
sg54
S'613'
p176
sba(isrc.gp1.models.Totals
Totals
p177
(dp178
g8
g3
sg9
S'.378'
p179
sg11
S'227'
p180
sg13
g3
sg14
S'.378'
p181
sg16
S'600'
p182
sg18
g3
sg19
S'C'
p183
sg21
S'629'
p184
sg22
S'471'
p185
sg24
S'NBA'
p186
sg26
g3
sg27
S'.378'
p187
sg29
g3
sg30
S'214'
p188
sg31
g3
sg32
S'26'
p189
sg34
S'NYK'
p190
sg36
S'66'
p191
sg38
g3
sg39
S'175'
p192
sg41
S'121'
p193
sg42
S'254'
p194
sg44
g3
sg45
S'1951-52'
p195
sg47
S'600'
p196
sg49
g3
sg50
S'.689'
p197
sg52
S'227'
p198
sg54
S'1558'
p199
sba(isrc.gp1.models.Totals
Totals
p200
(dp201
g8
g3
sg9
S'.377'
p202
sg11
S'240'
p203
sg13
g3
sg14
S'.377'
p204
sg16
S'637'
p205
sg18
g3
sg19
g183
sg21
S'729'
p206
sg22
S'458'
p207
sg24
S'NBA'
p208
sg26
g3
sg27
S'.377'
p209
sg29
g3
sg30
S'252'
p210
sg31
g3
sg32
S'27'
p211
sg34
S'NYK'
p212
sg36
S'65'
p213
sg38
g3
sg39
S'249'
p214
sg41
S'127'
p215
sg42
S'340'
p216
sg44
g3
sg45
S'1952-53'
p217
sg47
S'637'
p218
sg49
g3
sg50
S'.732'
p219
sg52
S'240'
p220
sg54
S'1707'
p221
sba(isrc.gp1.models.Totals
Totals
p222
(dp223
g8
g3
sg9
S'.358'
p224
sg11
S'255'
p225
sg13
g3
sg14
S'.358'
p226
sg16
S'713'
p227
sg18
g3
sg19
g183
sg21
S'720'
p228
sg22
S'484'
p229
sg24
S'NBA'
p230
sg26
g3
sg27
S'.358'
p231
sg29
g3
sg30
S'234'
p232
sg31
g3
sg32
S'28'
p233
sg34
S'NYK'
p234
sg36
S'72'
p235
sg38
g3
sg39
S'210'
p236
sg41
S'128'
p237
sg42
S'305'
p238
sg44
g3
sg45
S'1953-54'
p239
sg47
S'713'
p240
sg49
g3
sg50
S'.689'
p241
sg52
S'255'
p242
sg54
S'2006'
p243
sba(isrc.gp1.models.Totals
Totals
p244
(dp245
g8
g3
sg9
S'.357'
p246
sg11
S'384'
p247
sg13
g3
sg14
S'72'
p248
sg16
S'.357'
p249
sg18
g3
sg19
S'36'
p250
sg21
g3
sg22
S'61'
p251
sg24
S'NBA'
p252
sg26
g3
sg27
S'137'
p253
sg29
g3
sg30
S'346'
p254
sg31
g3
sg32
S'29'
p255
sg34
S'TOT'
p256
sg36
S'862'
p257
sg38
g3
sg39
S'114'
p258
sg41
S'109'
p259
sg42
S'.632'
p260
sg44
g3
sg45
S'1954-55'
p261
sg47
S'.357'
p262
sg49
g3
sg50
S'220'
p263
sg52
S'384'
p264
sg54
S'137'
p265
sba(isrc.gp1.models.Totals
Totals
p266
(dp267
g8
g3
sg9
g3
sg11
g3
sg13
g3
sg14
g3
sg16
g3
sg18
g3
sg19
g3
sg21
g3
sg22
g3
sg24
S'NBA'
p268
sg26
g3
sg27
g3
sg29
g3
sg30
g3
sg31
g3
sg32
S'29'
p269
sg34
S'BLB'
p270
sg36
g3
sg38
g3
sg39
g3
sg41
g3
sg42
g3
sg44
g3
sg45
S'1954-55'
p271
sg47
g3
sg49
g3
sg50
g3
sg52
g3
sg54
g3
sba(isrc.gp1.models.Totals
Totals
p272
(dp273
g8
g3
sg9
g3
sg11
g3
sg13
g3
sg14
g3
sg16
g3
sg18
g3
sg19
g3
sg21
g3
sg22
g3
sg24
S'NBA'
p274
sg26
g3
sg27
g3
sg29
g3
sg30
g3
sg31
g3
sg32
S'29'
p275
sg34
S'SYR'
p276
sg36
g3
sg38
g3
sg39
g3
sg41
g3
sg42
g3
sg44
g3
sg45
S'1954-55'
p277
sg47
g3
sg49
g3
sg50
g3
sg52
g3
sg54
g3
sba(isrc.gp1.models.Totals
Totals
p278
(dp279
g8
g3
sg9
S'.336'
p280
sg11
S'144'
p281
sg13
g3
sg14
S'.336'
p282
sg16
S'428'
p283
sg18
g3
sg19
S'PF'
p284
sg21
S'366'
p285
sg22
S'235'
p286
sg24
S'NBA'
p287
sg26
g3
sg27
S'.336'
p288
sg29
g3
sg30
S'142'
p289
sg31
g3
sg32
S'30'
p290
sg34
S'ROC'
p291
sg36
S'68'
p292
sg38
g3
sg39
S'78'
p293
sg41
S'82'
p294
sg42
S'129'
p295
sg44
g3
sg45
S'1955-56'
p296
sg47
S'428'
p297
sg49
g3
sg50
S'.605'
p298
sg52
S'144'
p299
sg54
S'903'
p300
sbasS'_college'
p301
S'NA'
p302
sS'_toYear'
p303
S'1956'
p304
sS'_height'
p305
S'6-8'
p306
sS'_active'
p307
I00
sS'_shootingHand'
p308
VRight
p309
sS'_name'
p310
S'Connie Simmons'
p311
sS'_per100Possessions'
p312
(lp313
sS'_advanced'
p314
(lp315
(isrc.gp1.models.Advanced
Advanced
p316
(dp317
S'_offensiveReboundPercentage'
p318
g3
sS'_turnOverPercentage'
p319
g3
sS'_winSharesPer48Minutes'
p320
g3
sS'_stealPercentage'
p321
g3
sS'_usagePercentage'
p322
g3
sS'_totalReboundsPercentage'
p323
g3
sS'_defensiveBoxPlusMinus'
p324
g3
sg19
S'60'
p325
sS'_valueOverReplacementPlayer'
p326
g3
sS'_trueShootingPercentage'
p327
S'0.9'
p328
sS'_defensiveReboundPercentage'
p329
g3
sS'_freeThrowsAttempRate'
p330
g3
sS'_threePointsAttempRate'
p331
S'6.1'
p332
sg24
S'BAA'
p333
sS'_offensiveBoxPlusMinues'
p334
g3
sS'_assistPercentage'
p335
g3
sS'_defensiveWinShares'
p336
g3
sg32
S'21'
p337
sg34
S'BOS'
p338
sg36
S'.364'
p339
sS'_blockPercentage'
p340
g3
sS'_playerEfficiencyRating'
p341
S'5.2'
p342
sS'_offensiveWinShares'
p343
g3
sg52
S'.246'
p344
sS'_boxPlusMinus'
p345
g3
sg45
S'1946-47'
p346
sS'_winShares'
p347
g3
sba(isrc.gp1.models.Advanced
Advanced
p348
(dp349
g318
g3
sg319
g3
sg320
g3
sg321
g3
sg322
g3
sg323
g3
sg324
g3
sg19
S'45'
p350
sg326
g3
sg327
S'0.5'
p351
sg329
g3
sg330
g3
sg331
S'1.1'
p352
sg24
S'BAA'
p353
sg334
g3
sg335
g3
sg336
g3
sg32
S'22'
p354
sg34
S'TOT'
p355
sg36
S'.326'
p356
sg340
g3
sg341
S'0.6'
p357
sg343
g3
sg52
S'.198'
p358
sg345
g3
sg45
S'1947-48'
p359
sg347
g3
sba(isrc.gp1.models.Advanced
Advanced
p360
(dp361
g318
g3
sg319
g3
sg320
g3
sg321
g3
sg322
g3
sg323
g3
sg324
g3
sg19
S'32'
p362
sg326
g3
sg327
S'0.2'
p363
sg329
g3
sg330
g3
sg331
S'0.3'
p364
sg24
S'BAA'
p365
sg334
g3
sg335
g3
sg336
g3
sg32
S'22'
p366
sg34
S'BOS'
p367
sg36
S'.318'
p368
sg340
g3
sg341
S'0.2'
p369
sg343
g3
sg52
S'.148'
p370
sg345
g3
sg45
S'1947-48'
p371
sg347
g3
sba(isrc.gp1.models.Advanced
Advanced
p372
(dp373
g318
g3
sg319
g3
sg320
g3
sg321
g3
sg322
g3
sg323
g3
sg324
g3
sg19
S'13'
p374
sg326
g3
sg327
S'0.3'
p375
sg329
g3
sg330
g3
sg331
S'0.8'
p376
sg24
S'BAA'
p377
sg334
g3
sg335
g3
sg336
g3
sg32
S'22'
p378
sg34
S'BLB'
p379
sg36
S'.340'
p380
sg340
g3
sg341
S'0.5'
p381
sg343
g3
sg52
S'.302'
p382
sg345
g3
sg45
S'1947-48'
p383
sg347
g3
sba(isrc.gp1.models.Advanced
Advanced
p384
(dp385
g318
g3
sg319
g3
sg320
g3
sg321
g3
sg322
g3
sg323
g3
sg324
g3
sg19
S'60'
p386
sg326
g3
sg327
S'0.9'
p387
sg329
g3
sg330
g3
sg331
S'5.3'
p388
sg24
S'BAA'
p389
sg334
g3
sg335
g3
sg336
g3
sg32
S'23'
p390
sg34
S'BLB'
p391
sg36
S'.428'
p392
sg340
g3
sg341
S'4.4'
p393
sg343
g3
sg52
S'.334'
p394
sg345
g3
sg45
S'1948-49'
p395
sg347
g3
sba(isrc.gp1.models.Advanced
Advanced
p396
(dp397
g318
g3
sg319
g3
sg320
g3
sg321
g3
sg322
g3
sg323
g3
sg324
g3
sg19
S'60'
p398
sg326
g3
sg327
S'1.5'
p399
sg329
g3
sg330
g3
sg331
S'2.4'
p400
sg24
S'NBA'
p401
sg334
g3
sg335
g3
sg336
g3
sg32
S'24'
p402
sg34
S'NYK'
p403
sg36
S'.395'
p404
sg340
g3
sg341
S'0.9'
p405
sg343
g3
sg52
S'.410'
p406
sg345
g3
sg45
S'1949-50'
p407
sg347
g3
sba(isrc.gp1.models.Advanced
Advanced
p408
(dp409
g318
g3
sg319
g3
sg320
g3
sg321
g3
sg322
g3
sg323
g3
sg324
g3
sg19
S'66'
p410
sg326
g3
sg327
S'1.0'
p411
sg329
g3
sg330
g3
sg331
S'2.6'
p412
sg24
S'NBA'
p413
sg334
g3
sg335
g3
sg336
g3
sg32
S'25'
p414
sg34
S'NYK'
p415
sg36
S'.429'
p416
sg340
g3
sg341
S'1.6'
p417
sg343
g3
sg52
S'.339'
p418
sg345
g3
sg45
S'1950-51'
p419
sg347
g3
sba(isrc.gp1.models.Advanced
Advanced
p420
(dp421
g318
S'1.5'
p422
sg319
g3
sg320
g3
sg321
g3
sg322
g3
sg323
S'.102'
p423
sg324
g3
sg19
g183
sg326
g3
sg327
S'.442'
p424
sg329
S'3.3'
p425
sg330
S'1.8'
p426
sg331
S'.423'
p427
sg24
S'NBA'
p428
sg334
g3
sg335
g3
sg336
g3
sg32
S'26'
p429
sg34
S'NYK'
p430
sg36
S'66'
p431
sg340
g3
sg341
S'17.7'
p432
sg343
g3
sg52
S'1558'
p433
sg345
g3
sg45
S'1951-52'
p434
sg347
g3
sba(isrc.gp1.models.Advanced
Advanced
p435
(dp436
g318
S'2.7'
p437
sg319
g3
sg320
g3
sg321
g3
sg322
g3
sg323
S'.159'
p438
sg324
g3
sg19
g183
sg326
g3
sg327
S'.463'
p439
sg329
S'5.7'
p440
sg330
S'3.0'
p441
sg331
S'.534'
p442
sg24
S'NBA'
p443
sg334
g3
sg335
g3
sg336
g3
sg32
S'27'
p444
sg34
S'NYK'
p445
sg36
S'65'
p446
sg340
g3
sg341
S'18.9'
p447
sg343
g3
sg52
S'1707'
p448
sg345
g3
sg45
S'1952-53'
p449
sg347
g3
sba(isrc.gp1.models.Advanced
Advanced
p450
(dp451
g318
S'1.5'
p452
sg319
g3
sg320
g3
sg321
g3
sg322
g3
sg323
S'.059'
p453
sg324
g3
sg19
g183
sg326
g3
sg327
S'.425'
p454
sg329
S'2.5'
p455
sg330
S'1.0'
p456
sg331
S'.428'
p457
sg24
S'NBA'
p458
sg334
g3
sg335
g3
sg336
g3
sg32
S'28'
p459
sg34
S'NYK'
p460
sg36
S'72'
p461
sg340
g3
sg341
S'14.8'
p462
sg343
g3
sg52
S'2006'
p463
sg345
g3
sg45
S'1953-54'
p464
sg347
g3
sba(isrc.gp1.models.Advanced
Advanced
p465
(dp466
g318
g3
sg319
g3
sg320
g3
sg321
g3
sg322
g3
sg323
g3
sg324
g3
sg19
S'36'
p467
sg326
g3
sg327
g3
sg329
g3
sg330
g3
sg331
g3
sg24
S'NBA'
p468
sg334
g3
sg335
g3
sg336
g3
sg32
S'29'
p469
sg34
S'TOT'
p470
sg36
S'862'
p471
sg340
g3
sg341
S'.297'
p472
sg343
g3
sg52
S'.398'
p473
sg345
g3
sg45
S'1954-55'
p474
sg347
g3
sba(isrc.gp1.models.Advanced
Advanced
p475
(dp476
g318
g3
sg319
g3
sg320
g3
sg321
g3
sg322
g3
sg323
g3
sg324
g3
sg19
g3
sg326
g3
sg327
g3
sg329
g3
sg330
g3
sg331
g3
sg24
S'NBA'
p477
sg334
g3
sg335
g3
sg336
g3
sg32
S'29'
p478
sg34
S'BLB'
p479
sg36
g3
sg340
g3
sg341
g3
sg343
g3
sg52
g3
sg345
g3
sg45
S'1954-55'
p480
sg347
g3
sba(isrc.gp1.models.Advanced
Advanced
p481
(dp482
g318
g3
sg319
g3
sg320
g3
sg321
g3
sg322
g3
sg323
g3
sg324
g3
sg19
g3
sg326
g3
sg327
g3
sg329
g3
sg330
g3
sg331
g3
sg24
S'NBA'
p483
sg334
g3
sg335
g3
sg336
g3
sg32
S'29'
p484
sg34
S'SYR'
p485
sg36
g3
sg340
g3
sg341
g3
sg343
g3
sg52
g3
sg345
g3
sg45
S'1954-55'
p486
sg347
g3
sba(isrc.gp1.models.Advanced
Advanced
p487
(dp488
g318
S'1.5'
p489
sg319
g3
sg320
g3
sg321
g3
sg322
g3
sg323
S'.003'
p490
sg324
g3
sg19
S'PF'
p491
sg326
g3
sg327
S'.378'
p492
sg329
S'0.1'
p493
sg330
S'-1.4'
p494
sg331
S'.301'
p495
sg24
S'NBA'
p496
sg334
g3
sg335
g3
sg336
g3
sg32
S'30'
p497
sg34
S'ROC'
p498
sg36
S'68'
p499
sg340
g3
sg341
S'10.8'
p500
sg343
g3
sg52
S'903'
p501
sg345
g3
sg45
S'1955-56'
p502
sg347
g3
sbasS'_per36Minutes'
p503
(lp504
(isrc.gp1.models.Per36Minutes
Per36Minutes
p505
(dp506
g8
g3
sg9
g3
sg11
g3
sg13
g3
sg14
g3
sg16
g3
sg18
g3
sg19
S'60'
p507
sg21
g3
sg24
S'BAA'
p508
sg26
g3
sg27
g3
sg29
g3
sg30
g3
sg31
g3
sg32
S'21'
p509
sg34
S'BOS'
p510
sg36
S'.320'
p511
sg38
g3
sg39
g3
sg41
g3
sg42
g3
sg44
g3
sg45
S'1946-47'
p512
sg47
g3
sg49
g3
sg50
g3
sg52
S'.677'
p513
sg54
S'.320'
p514
sba(isrc.gp1.models.Per36Minutes
Per36Minutes
p515
(dp516
g8
g3
sg9
g3
sg11
g3
sg13
g3
sg14
g3
sg16
g3
sg18
g3
sg19
S'45'
p517
sg21
g3
sg24
S'BAA'
p518
sg26
g3
sg27
g3
sg29
g3
sg30
g3
sg31
g3
sg32
S'22'
p519
sg34
S'TOT'
p520
sg36
S'.297'
p521
sg38
g3
sg39
g3
sg41
g3
sg42
g3
sg44
g3
sg45
S'1947-48'
p522
sg47
g3
sg49
g3
sg50
g3
sg52
S'.574'
p523
sg54
S'.297'
p524
sba(isrc.gp1.models.Per36Minutes
Per36Minutes
p525
(dp526
g8
g3
sg9
g3
sg11
g3
sg13
g3
sg14
g3
sg16
g3
sg18
g3
sg19
S'32'
p527
sg21
g3
sg24
S'BAA'
p528
sg26
g3
sg27
g3
sg29
g3
sg30
g3
sg31
g3
sg32
S'22'
p529
sg34
S'BOS'
p530
sg36
S'.295'
p531
sg38
g3
sg39
g3
sg41
g3
sg42
g3
sg44
g3
sg45
S'1947-48'
p532
sg47
g3
sg49
g3
sg50
g3
sg52
S'.593'
p533
sg54
S'.295'
p534
sba(isrc.gp1.models.Per36Minutes
Per36Minutes
p535
(dp536
g8
g3
sg9
g3
sg11
g3
sg13
g3
sg14
g3
sg16
g3
sg18
g3
sg19
S'13'
p537
sg21
g3
sg24
S'BAA'
p538
sg26
g3
sg27
g3
sg29
g3
sg30
g3
sg31
g3
sg32
S'22'
p539
sg34
S'BLB'
p540
sg36
S'.302'
p541
sg38
g3
sg39
g3
sg41
g3
sg42
g3
sg44
g3
sg45
S'1947-48'
p542
sg47
g3
sg49
g3
sg50
g3
sg52
S'.556'
p543
sg54
S'.302'
p544
sba(isrc.gp1.models.Per36Minutes
Per36Minutes
p545
(dp546
g8
g3
sg9
g3
sg11
g3
sg13
g3
sg14
g3
sg16
g3
sg18
g3
sg19
S'60'
p547
sg21
g3
sg24
S'BAA'
p548
sg26
g3
sg27
g3
sg29
g3
sg30
g3
sg31
g3
sg32
S'23'
p549
sg34
S'BLB'
p550
sg36
S'.377'
p551
sg38
g3
sg39
g3
sg41
g3
sg42
g3
sg44
g3
sg45
S'1948-49'
p552
sg47
g3
sg49
g3
sg50
g3
sg52
S'.683'
p553
sg54
S'.377'
p554
sba(isrc.gp1.models.Per36Minutes
Per36Minutes
p555
(dp556
g8
g3
sg9
g3
sg11
g3
sg13
g3
sg14
g3
sg16
g3
sg18
g3
sg19
S'60'
p557
sg21
g3
sg24
S'NBA'
p558
sg26
g3
sg27
g3
sg29
g3
sg30
g3
sg31
g3
sg32
S'24'
p559
sg34
S'NYK'
p560
sg36
S'.331'
p561
sg38
g3
sg39
g3
sg41
g3
sg42
g3
sg44
g3
sg45
S'1949-50'
p562
sg47
g3
sg49
g3
sg50
g3
sg52
S'.662'
p563
sg54
S'.331'
p564
sba(isrc.gp1.models.Per36Minutes
Per36Minutes
p565
(dp566
g8
g3
sg9
g3
sg11
g3
sg13
g3
sg14
g3
sg16
g3
sg18
g3
sg19
S'66'
p567
sg21
g3
sg24
S'NBA'
p568
sg26
g3
sg27
g3
sg29
g3
sg30
g3
sg31
g3
sg32
S'25'
p569
sg34
S'NYK'
p570
sg36
S'.374'
p571
sg38
g3
sg39
g3
sg41
g3
sg42
g3
sg44
g3
sg45
S'1950-51'
p572
sg47
g3
sg49
g3
sg50
g3
sg52
S'.702'
p573
sg54
S'.374'
p574
sba(isrc.gp1.models.Per36Minutes
Per36Minutes
p575
(dp576
g8
g3
sg9
S'.378'
p577
sg11
S'5.2'
p578
sg13
g3
sg14
S'4.0'
p579
sg16
S'13.9'
p580
sg18
g3
sg19
g183
sg21
S'14.5'
p581
sg24
S'NBA'
p582
sg26
g3
sg27
S'.378'
p583
sg29
g3
sg30
S'4.9'
p584
sg31
g3
sg32
S'26'
p585
sg34
S'NYK'
p586
sg36
S'66'
p587
sg38
g3
sg39
S'5.9'
p588
sg41
S'2.8'
p589
sg42
S'.689'
p590
sg44
g3
sg45
S'1951-52'
p591
sg47
S'13.9'
p592
sg49
g3
sg50
S'10.9'
p593
sg52
S'5.2'
p594
sg54
S'1558'
p595
sba(isrc.gp1.models.Per36Minutes
Per36Minutes
p596
(dp597
g8
g3
sg9
S'.377'
p598
sg11
S'5.1'
p599
sg13
g3
sg14
S'5.3'
p600
sg16
S'13.4'
p601
sg18
g3
sg19
g183
sg21
S'15.4'
p602
sg24
S'NBA'
p603
sg26
g3
sg27
S'.377'
p604
sg29
g3
sg30
S'5.3'
p605
sg31
g3
sg32
S'27'
p606
sg34
S'NYK'
p607
sg36
S'65'
p608
sg38
g3
sg39
S'7.2'
p609
sg41
S'2.7'
p610
sg42
S'.732'
p611
sg44
g3
sg45
S'1952-53'
p612
sg47
S'13.4'
p613
sg49
g3
sg50
S'9.7'
p614
sg52
S'5.1'
p615
sg54
S'1707'
p616
sba(isrc.gp1.models.Per36Minutes
Per36Minutes
p617
(dp618
g8
g3
sg9
S'.358'
p619
sg11
S'4.6'
p620
sg13
g3
sg14
S'3.8'
p621
sg16
S'12.8'
p622
sg18
g3
sg19
g183
sg21
S'12.9'
p623
sg24
S'NBA'
p624
sg26
g3
sg27
S'.358'
p625
sg29
g3
sg30
S'4.2'
p626
sg31
g3
sg32
S'28'
p627
sg34
S'NYK'
p628
sg36
S'72'
p629
sg38
g3
sg39
S'5.5'
p630
sg41
S'2.3'
p631
sg42
S'.689'
p632
sg44
g3
sg45
S'1953-54'
p633
sg47
S'12.8'
p634
sg49
g3
sg50
S'8.7'
p635
sg52
S'4.6'
p636
sg54
S'2006'
p637
sba(isrc.gp1.models.Per36Minutes
Per36Minutes
p638
(dp639
g8
g3
sg9
S'3.0'
p640
sg11
S'16.0'
p641
sg13
g3
sg14
S'4.8'
p642
sg16
S'.357'
p643
sg18
g3
sg19
S'36'
p644
sg21
g3
sg24
S'NBA'
p645
sg26
g3
sg27
S'5.7'
p646
sg29
g3
sg30
S'14.5'
p647
sg31
g3
sg32
S'29'
p648
sg34
S'TOT'
p649
sg36
S'862'
p650
sg38
g3
sg39
S'.632'
p651
sg41
S'4.6'
p652
sg42
S'9.2'
p653
sg44
g3
sg45
S'1954-55'
p654
sg47
S'.357'
p655
sg49
g3
sg50
S'2.5'
p656
sg52
S'16.0'
p657
sg54
S'5.7'
p658
sba(isrc.gp1.models.Per36Minutes
Per36Minutes
p659
(dp660
g8
g3
sg9
g3
sg11
g3
sg13
g3
sg14
g3
sg16
g3
sg18
g3
sg19
g3
sg21
g3
sg24
S'NBA'
p661
sg26
g3
sg27
g3
sg29
g3
sg30
g3
sg31
g3
sg32
S'29'
p662
sg34
S'BLB'
p663
sg36
g3
sg38
g3
sg39
g3
sg41
g3
sg42
g3
sg44
g3
sg45
S'1954-55'
p664
sg47
g3
sg49
g3
sg50
g3
sg52
g3
sg54
g3
sba(isrc.gp1.models.Per36Minutes
Per36Minutes
p665
(dp666
g8
g3
sg9
g3
sg11
g3
sg13
g3
sg14
g3
sg16
g3
sg18
g3
sg19
g3
sg21
g3
sg24
S'NBA'
p667
sg26
g3
sg27
g3
sg29
g3
sg30
g3
sg31
g3
sg32
S'29'
p668
sg34
S'SYR'
p669
sg36
g3
sg38
g3
sg39
g3
sg41
g3
sg42
g3
sg44
g3
sg45
S'1954-55'
p670
sg47
g3
sg49
g3
sg50
g3
sg52
g3
sg54
g3
sba(isrc.gp1.models.Per36Minutes
Per36Minutes
p671
(dp672
g8
g3
sg9
S'.336'
p673
sg11
S'5.7'
p674
sg13
g3
sg14
S'3.1'
p675
sg16
S'17.1'
p676
sg18
g3
sg19
S'PF'
p677
sg21
S'14.6'
p678
sg24
S'NBA'
p679
sg26
g3
sg27
S'.336'
p680
sg29
g3
sg30
S'5.7'
p681
sg31
g3
sg32
S'30'
p682
sg34
S'ROC'
p683
sg36
S'68'
p684
sg38
g3
sg39
S'5.1'
p685
sg41
S'3.3'
p686
sg42
S'.605'
p687
sg44
g3
sg45
S'1955-56'
p688
sg47
S'17.1'
p689
sg49
g3
sg50
S'9.4'
p690
sg52
S'5.7'
p691
sg54
S'903'
p692
sbasS'_fromYear'
p693
S'1947'
p694
sS'_url'
p695
S'http://www.basketball-reference.com/players/s/simmoco01.html'
p696
sS'_perGame'
p697
(isrc.gp1.models.PerGame
PerGame
p698
(dp699
g8
g3
sg9
S'.336'
p700
sg11
S'2.1'
p701
sS'_effectiveFieldGalPercentage'
p702
S'3.5'
p703
sg13
g3
sg14
S'.336'
p704
sg16
S'6.3'
p705
sg18
g3
sg19
S'PF'
p706
sg21
S'5.4'
p707
sg24
S'NBA'
p708
sg26
g3
sg29
g3
sS'_fieldGoalsttempted'
p709
S'.336'
p710
sg30
S'2.1'
p711
sg31
g3
sg32
S'30'
p712
sg34
S'ROC'
p713
sg36
S'68'
p714
sg38
g3
sg39
S'1.1'
p715
sg41
S'1.2'
p716
sg42
S'1.9'
p717
sg44
g3
sg45
S'1955-56'
p718
sg47
S'6.3'
p719
sg49
g3
sg50
S'.605'
p720
sg52
S'2.1'
p721
sg54
S'13.3'
p722
sbsS'_weight'
p723
S'222'
p724
sS'_dob'
p725
S'15-3-1925'
p726
sS'_salary'
p727
(lp728
sg19
S'C-F'
p729
sb.