(isrc.gp1.models.Player
Player
p0
(dp1
S'_experience'
p2
S'NA'
p3
sS'_totals'
p4
(lp5
(isrc.gp1.models.Totals
Totals
p6
(dp7
S'_offensiveRebounds'
p8
S'12'
p9
sS'_threePointsAttempted'
p10
S'0'
p11
sS'_fieldGoalsPercentage'
p12
S'.323'
p13
sS'_assist'
p14
S'3'
p15
sS'_threePointsPercentage'
p16
g3
sS'_threePoints'
p17
g11
sS'_points'
p18
S'27'
p19
sS'_position'
p20
S'C'
p21
sS'_freeThrowsPercentage'
p22
S'.583'
p23
sS'_effectiveFieldGoalPercentage'
p24
S'.323'
p25
sS'_league'
p26
S'NBA'
p27
sS'_steals'
p28
g15
sS'_fieldGoalsAttempted'
p29
S'31'
p30
sS'_personalFouls'
p31
S'19'
p32
sS'_freeThrowsAttempted'
p33
S'12'
p34
sS'_totalRebounds'
p35
S'25'
p36
sS'_age'
p37
S'25'
p38
sS'_team'
p39
S'NOH'
p40
sS'_games'
p41
S'10'
p42
sS'_blocks'
p43
S'4'
p44
sS'_twoPoints'
p45
S'10'
p46
sS'_freeThrows'
p47
S'7'
p48
sS'_twoPointsAttempted'
p49
S'31'
p50
sS'_defensiveRebounds'
p51
S'13'
p52
sS'_season'
p53
S'2004-05'
p54
sS'_fieldGoals'
p55
S'10'
p56
sS'_turnOvers'
p57
S'2'
p58
sS'_twoPointsPercentage'
p59
S'.323'
p60
sS'_minutesPlayed'
p61
S'110'
p62
sS'_gamesStarted'
p63
g11
sbasS'_college'
p64
S'Central Connecticut State University'
p65
sS'_toYear'
p66
S'2005'
p67
sS'_height'
p68
S'6-9'
p69
sS'_active'
p70
I00
sS'_shootingHand'
p71
VRight
p72
sS'_name'
p73
S'Corsley Edwards'
p74
sS'_per100Possessions'
p75
(lp76
(isrc.gp1.models.Per100Possession
Per100Possession
p77
(dp78
g8
S'6.0'
p79
sg10
S'0.0'
p80
sg12
S'.323'
p81
sS'_offensiveRating'
p82
S'93'
p83
sg14
S'1.5'
p84
sg16
g3
sg17
S'0.0'
p85
sg18
S'13.5'
p86
sg20
g21
sS'_defensiveRating'
p87
S'107'
p88
sg22
S'.583'
p89
sg26
S'NBA'
p90
sg28
S'1.5'
p91
sg29
S'15.4'
p92
sg31
S'9.5'
p93
sg33
S'6.0'
p94
sg35
S'12.5'
p95
sg37
S'25'
p96
sg39
S'NOH'
p97
sg41
S'10'
p98
sg43
S'2.0'
p99
sg45
S'5.0'
p100
sg47
S'3.5'
p101
sg49
S'15.4'
p102
sg51
S'6.5'
p103
sg53
S'2004-05'
p104
sg55
S'5.0'
p105
sg57
S'1.0'
p106
sg59
S'.323'
p107
sg61
S'110'
p108
sg63
g11
sbasS'_advanced'
p109
(lp110
(isrc.gp1.models.Advanced
Advanced
p111
(dp112
S'_offensiveReboundPercentage'
p113
S'12.4'
p114
sS'_turnOverPercentage'
p115
S'5.2'
p116
sS'_winSharesPer48Minutes'
p117
S'.026'
p118
sS'_stealPercentage'
p119
S'1.5'
p120
sS'_usagePercentage'
p121
S'16.2'
p122
sS'_totalReboundsPercentage'
p123
S'13.5'
p124
sS'_defensiveBoxPlusMinus'
p125
S'-0.2'
p126
sg20
g21
sS'_valueOverReplacementPlayer'
p127
S'-0.1'
p128
sS'_trueShootingPercentage'
p129
S'.372'
p130
sS'_defensiveReboundPercentage'
p131
S'14.6'
p132
sS'_freeThrowsAttempRate'
p133
S'.387'
p134
sS'_threePointsAttempRate'
p135
S'.000'
p136
sg26
S'NBA'
p137
sS'_offensiveBoxPlusMinues'
p138
S'-5.1'
p139
sS'_assistPercentage'
p140
S'4.6'
p141
sS'_defensiveWinShares'
p142
S'0.1'
p143
sg37
S'25'
p144
sg39
S'NOH'
p145
sg41
S'10'
p146
sS'_blockPercentage'
p147
S'2.9'
p148
sS'_playerEfficiencyRating'
p149
S'8.6'
p150
sS'_offensiveWinShares'
p151
S'0.0'
p152
sg61
S'110'
p153
sS'_boxPlusMinus'
p154
S'-5.2'
p155
sg53
S'2004-05'
p156
sS'_winShares'
p157
S'0.1'
p158
sbasS'_per36Minutes'
p159
(lp160
(isrc.gp1.models.Per36Minutes
Per36Minutes
p161
(dp162
g8
S'3.9'
p163
sg10
S'0.0'
p164
sg12
S'.323'
p165
sg14
S'1.0'
p166
sg16
g3
sg17
S'0.0'
p167
sg18
S'8.8'
p168
sg20
g21
sg22
S'.583'
p169
sg26
S'NBA'
p170
sg28
S'1.0'
p171
sg29
S'10.1'
p172
sg31
S'6.2'
p173
sg33
S'3.9'
p174
sg35
S'8.2'
p175
sg37
S'25'
p176
sg39
S'NOH'
p177
sg41
S'10'
p178
sg43
S'1.3'
p179
sg45
S'3.3'
p180
sg47
S'2.3'
p181
sg49
S'10.1'
p182
sg51
S'4.3'
p183
sg53
S'2004-05'
p184
sg55
S'3.3'
p185
sg57
S'0.7'
p186
sg59
S'.323'
p187
sg61
S'110'
p188
sg63
g11
sbasS'_fromYear'
p189
S'2005'
p190
sS'_url'
p191
S'http://www.basketball-reference.com/players/e/edwarco01.html'
p192
sS'_perGame'
p193
(isrc.gp1.models.PerGame
PerGame
p194
(dp195
g8
S'1.2'
p196
sg10
S'0.0'
p197
sg12
S'.323'
p198
sS'_effectiveFieldGalPercentage'
p199
S'.323'
p200
sg14
S'0.3'
p201
sg16
g3
sg17
S'0.0'
p202
sg18
S'2.7'
p203
sg20
g21
sg22
S'.583'
p204
sg26
S'NBA'
p205
sg28
S'0.3'
p206
sg31
S'1.9'
p207
sS'_fieldGoalsttempted'
p208
S'3.1'
p209
sg33
S'1.2'
p210
sg35
S'2.5'
p211
sg37
S'25'
p212
sg39
S'NOH'
p213
sg41
S'10'
p214
sg43
S'0.4'
p215
sg45
S'1.0'
p216
sg47
S'0.7'
p217
sg49
S'3.1'
p218
sg51
S'1.3'
p219
sg53
S'2004-05'
p220
sg55
S'1.0'
p221
sg57
S'0.2'
p222
sg59
S'.323'
p223
sg61
S'11.0'
p224
sg63
g11
sbsS'_weight'
p225
S'275'
p226
sS'_dob'
p227
S'5-3-1979'
p228
sS'_salary'
p229
(lp230
(isrc.gp1.models.Salary
Salary
p231
(dp232
g39
S'New Orleans Hornets'
p233
sg26
S'NBA'
p234
sg229
S'$319,498'
p235
sg53
S'2004-05'
p236
sbasg20
S'F'
p237
sb.