(isrc.gp1.models.Player
Player
p0
(dp1
S'_experience'
p2
S'NA'
p3
sS'_totals'
p4
(lp5
(isrc.gp1.models.Totals
Totals
p6
(dp7
S'_offensiveRebounds'
p8
g3
sS'_threePointsAttempted'
p9
g3
sS'_fieldGoalsPercentage'
p10
S'.331'
p11
sS'_assist'
p12
S'78'
p13
sS'_threePointsPercentage'
p14
g3
sS'_threePoints'
p15
g3
sS'_points'
p16
S'118'
p17
sS'_position'
p18
S'PG'
p19
sS'_freeThrowsPercentage'
p20
S'.813'
p21
sS'_effectiveFieldGoalPercentage'
p22
S'.331'
p23
sS'_league'
p24
S'NBA'
p25
sS'_steals'
p26
g3
sS'_fieldGoalsAttempted'
p27
S'139'
p28
sS'_personalFouls'
p29
S'37'
p30
sS'_freeThrowsAttempted'
p31
S'32'
p32
sS'_totalRebounds'
p33
S'49'
p34
sS'_age'
p35
S'23'
p36
sS'_team'
p37
S'PHW'
p38
sS'_games'
p39
S'19'
p40
sS'_blocks'
p41
g3
sS'_twoPoints'
p42
S'46'
p43
sS'_freeThrows'
p44
S'26'
p45
sS'_twoPointsAttempted'
p46
S'139'
p47
sS'_defensiveRebounds'
p48
g3
sS'_season'
p49
S'1954-55'
p50
sS'_fieldGoals'
p51
S'46'
p52
sS'_turnOvers'
p53
g3
sS'_twoPointsPercentage'
p54
S'.331'
p55
sS'_minutesPlayed'
p56
S'463'
p57
sS'_gamesStarted'
p58
g3
sba(isrc.gp1.models.Totals
Totals
p59
(dp60
g8
g3
sg9
g3
sg10
g3
sg12
g3
sg14
g3
sg15
g3
sg16
g3
sg18
g3
sg20
g3
sg22
g3
sg24
g3
sg26
g3
sg27
g3
sg29
g3
sg31
g3
sg33
g3
sg35
S'24'
p61
sg37
S'Did Not Play\xc2\xa0(military service\xe2\x80\x94U.S. Army)'
p62
sg39
g3
sg41
g3
sg42
g3
sg44
g3
sg46
g3
sg48
g3
sg49
S'1955-56'
p63
sg51
g3
sg53
g3
sg54
g3
sg56
g3
sg58
g3
sba(isrc.gp1.models.Totals
Totals
p64
(dp65
g8
g3
sg9
g3
sg10
S'.374'
p66
sg12
S'236'
p67
sg14
g3
sg15
g3
sg16
S'547'
p68
sg18
S'PG'
p69
sg20
S'.788'
p70
sg22
S'.374'
p71
sg24
S'NBA'
p72
sg26
g3
sg27
S'497'
p73
sg29
S'182'
p74
sg31
S'222'
p75
sg33
S'323'
p76
sg35
S'25'
p77
sg37
S'PHW'
p78
sg39
S'72'
p79
sg41
g3
sg42
S'186'
p80
sg44
S'175'
p81
sg46
S'497'
p82
sg48
g3
sg49
S'1956-57'
p83
sg51
S'186'
p84
sg53
g3
sg54
S'.374'
p85
sg56
S'2111'
p86
sg58
g3
sba(isrc.gp1.models.Totals
Totals
p87
(dp88
g8
g3
sg9
g3
sg10
S'.426'
p89
sg12
S'317'
p90
sg14
g3
sg15
g3
sg16
S'1076'
p91
sg18
S'PG'
p92
sg20
S'.847'
p93
sg22
S'.426'
p94
sg24
S'NBA'
p95
sg26
g3
sg27
S'888'
p96
sg29
S'246'
p97
sg31
S'378'
p98
sg33
S'378'
p99
sg35
S'26'
p100
sg37
S'SYR'
p101
sg39
S'72'
p102
sg41
g3
sg42
S'378'
p103
sg44
S'320'
p104
sg46
S'888'
p105
sg48
g3
sg49
S'1957-58'
p106
sg51
S'378'
p107
sg53
g3
sg54
S'.426'
p108
sg56
S'2746'
p109
sg58
g3
sba(isrc.gp1.models.Totals
Totals
p110
(dp111
g8
g3
sg9
g3
sg10
S'.437'
p112
sg12
S'379'
p113
sg14
g3
sg15
g3
sg16
S'1108'
p114
sg18
S'PG'
p115
sg20
S'.802'
p116
sg22
S'.437'
p117
sg24
S'NBA'
p118
sg26
g3
sg27
S'948'
p119
sg29
S'263'
p120
sg31
S'349'
p121
sg33
S'365'
p122
sg35
S'27'
p123
sg37
S'SYR'
p124
sg39
S'70'
p125
sg41
g3
sg42
S'414'
p126
sg44
S'280'
p127
sg46
S'948'
p128
sg48
g3
sg49
S'1958-59'
p129
sg51
S'414'
p130
sg53
g3
sg54
S'.437'
p131
sg56
S'2750'
p132
sg58
g3
sba(isrc.gp1.models.Totals
Totals
p133
(dp134
g8
g3
sg9
g3
sg10
S'.453'
p135
sg12
S'449'
p136
sg14
g3
sg15
g3
sg16
S'993'
p137
sg18
S'PG'
p138
sg20
S'.862'
p139
sg22
S'.453'
p140
sg24
S'NBA'
p141
sg26
g3
sg27
S'822'
p142
sg29
S'234'
p143
sg31
S'289'
p144
sg33
S'388'
p145
sg35
S'28'
p146
sg37
S'SYR'
p147
sg39
S'71'
p148
sg41
g3
sg42
S'372'
p149
sg44
S'249'
p150
sg46
S'822'
p151
sg48
g3
sg49
S'1959-60'
p152
sg51
S'372'
p153
sg53
g3
sg54
S'.453'
p154
sg56
S'2469'
p155
sg58
g3
sba(isrc.gp1.models.Totals
Totals
p156
(dp157
g8
g3
sg9
g3
sg10
S'.482'
p158
sg12
S'413'
p159
sg14
g3
sg15
g3
sg16
S'1084'
p160
sg18
S'PG'
p161
sg20
S'.799'
p162
sg22
S'.482'
p163
sg24
S'NBA'
p164
sg26
g3
sg27
S'844'
p165
sg29
S'286'
p166
sg31
S'338'
p167
sg33
S'292'
p168
sg35
S'29'
p169
sg37
S'SYR'
p170
sg39
S'75'
p171
sg41
g3
sg42
S'407'
p172
sg44
S'270'
p173
sg46
S'844'
p174
sg48
g3
sg49
S'1960-61'
p175
sg51
S'407'
p176
sg53
g3
sg54
S'.482'
p177
sg56
S'2167'
p178
sg58
g3
sba(isrc.gp1.models.Totals
Totals
p179
(dp180
g8
g3
sg9
g3
sg10
S'.427'
p181
sg12
S'359'
p182
sg14
g3
sg15
g3
sg16
S'867'
p183
sg18
S'PG'
p184
sg20
S'.837'
p185
sg22
S'.427'
p186
sg24
S'NBA'
p187
sg26
g3
sg27
S'726'
p188
sg29
S'220'
p189
sg31
S'295'
p190
sg33
S'245'
p191
sg35
S'30'
p192
sg37
S'SYR'
p193
sg39
S'63'
p194
sg41
g3
sg42
S'310'
p195
sg44
S'247'
p196
sg46
S'726'
p197
sg48
g3
sg49
S'1961-62'
p198
sg51
S'310'
p199
sg53
g3
sg54
S'.427'
p200
sg56
S'1854'
p201
sg58
g3
sba(isrc.gp1.models.Totals
Totals
p202
(dp203
g8
g3
sg9
g3
sg10
S'.432'
p204
sg12
S'334'
p205
sg14
g3
sg15
g3
sg16
S'858'
p206
sg18
S'PG'
p207
sg20
S'.881'
p208
sg22
S'.432'
p209
sg24
S'NBA'
p210
sg26
g3
sg27
S'660'
p211
sg29
S'263'
p212
sg31
S'327'
p213
sg33
S'237'
p214
sg35
S'31'
p215
sg37
S'SYR'
p216
sg39
S'78'
p217
sg41
g3
sg42
S'285'
p218
sg44
S'288'
p219
sg46
S'660'
p220
sg48
g3
sg49
S'1962-63'
p221
sg51
S'285'
p222
sg53
g3
sg54
S'.432'
p223
sg56
S'2066'
p224
sg58
g3
sba(isrc.gp1.models.Totals
Totals
p225
(dp226
g8
g3
sg9
g3
sg10
S'.468'
p227
sg12
S'167'
p228
sg14
g3
sg15
g3
sg16
S'529'
p229
sg18
S'PG'
p230
sg20
S'.865'
p231
sg22
S'.468'
p232
sg24
S'NBA'
p233
sg26
g3
sg27
S'408'
p234
sg29
S'150'
p235
sg31
S'170'
p236
sg33
S'105'
p237
sg35
S'32'
p238
sg37
S'PHI'
p239
sg39
S'45'
p240
sg41
g3
sg42
S'191'
p241
sg44
S'147'
p242
sg46
S'408'
p243
sg48
g3
sg49
S'1963-64'
p244
sg51
S'191'
p245
sg53
g3
sg54
S'.468'
p246
sg56
S'1137'
p247
sg58
g3
sba(isrc.gp1.models.Totals
Totals
p248
(dp249
g8
g3
sg9
g3
sg10
S'.445'
p250
sg12
S'275'
p251
sg14
g3
sg15
g3
sg16
S'861'
p252
sg18
S'PG'
p253
sg20
S'.877'
p254
sg22
S'.445'
p255
sg24
S'NBA'
p256
sg26
g3
sg27
S'695'
p257
sg29
S'242'
p258
sg31
S'277'
p259
sg33
S'169'
p260
sg35
S'33'
p261
sg37
S'PHI'
p262
sg39
S'64'
p263
sg41
g3
sg42
S'309'
p264
sg44
S'243'
p265
sg46
S'695'
p266
sg48
g3
sg49
S'1964-65'
p267
sg51
S'309'
p268
sg53
g3
sg54
S'.445'
p269
sg56
S'1967'
p270
sg58
g3
sba(isrc.gp1.models.Totals
Totals
p271
(dp272
g8
g3
sg9
g3
sg10
g3
sg12
g3
sg14
g3
sg15
g3
sg16
g3
sg18
g3
sg20
g3
sg22
g3
sg24
g3
sg26
g3
sg27
g3
sg29
g3
sg31
g3
sg33
g3
sg35
S'34'
p273
sg37
S'Did Not Play\xc2\xa0(other pro league\xe2\x80\x94EBL)'
p274
sg39
g3
sg41
g3
sg42
g3
sg44
g3
sg46
g3
sg48
g3
sg49
S'1965-66'
p275
sg51
g3
sg53
g3
sg54
g3
sg56
g3
sg58
g3
sba(isrc.gp1.models.Totals
Totals
p276
(dp277
g8
g3
sg9
g3
sg10
S'.444'
p278
sg12
S'140'
p279
sg14
g3
sg15
g3
sg16
S'380'
p280
sg18
S'PG'
p281
sg20
S'.902'
p282
sg22
S'.444'
p283
sg24
S'NBA'
p284
sg26
g3
sg27
S'293'
p285
sg29
S'141'
p286
sg31
S'133'
p287
sg33
S'103'
p288
sg35
S'35'
p289
sg37
S'PHI'
p290
sg39
S'49'
p291
sg41
g3
sg42
S'130'
p292
sg44
S'120'
p293
sg46
S'293'
p294
sg48
g3
sg49
S'1966-67'
p295
sg51
S'130'
p296
sg53
g3
sg54
S'.444'
p297
sg56
S'976'
p298
sg58
g3
sba(isrc.gp1.models.Totals
Totals
p299
(dp300
g8
g3
sg9
g3
sg10
S'.453'
p301
sg12
S'68'
p302
sg14
g3
sg15
g3
sg16
S'201'
p303
sg18
S'PG'
p304
sg20
S'.827'
p305
sg22
S'.453'
p306
sg24
S'NBA'
p307
sg26
g3
sg27
S'148'
p308
sg29
S'62'
p309
sg31
S'81'
p310
sg33
S'51'
p311
sg35
S'36'
p312
sg37
S'PHI'
p313
sg39
S'28'
p314
sg41
g3
sg42
S'67'
p315
sg44
S'67'
p316
sg46
S'148'
p317
sg48
g3
sg49
S'1967-68'
p318
sg51
S'67'
p319
sg53
g3
sg54
S'.453'
p320
sg56
S'492'
p321
sg58
g3
sbasS'_college'
p322
S'Niagara University'
p323
sS'_toYear'
p324
S'1968'
p325
sS'_height'
p326
S'6-1'
p327
sS'_active'
p328
I00
sS'_shootingHand'
p329
VRight
p330
sS'_name'
p331
S'Larry Costello'
p332
sS'_per100Possessions'
p333
(lp334
sS'_advanced'
p335
(lp336
(isrc.gp1.models.Advanced
Advanced
p337
(dp338
S'_offensiveReboundPercentage'
p339
g3
sS'_turnOverPercentage'
p340
g3
sS'_winSharesPer48Minutes'
p341
S'.022'
p342
sS'_stealPercentage'
p343
g3
sS'_usagePercentage'
p344
g3
sS'_totalReboundsPercentage'
p345
g3
sS'_defensiveBoxPlusMinus'
p346
g3
sg18
S'PG'
p347
sS'_valueOverReplacementPlayer'
p348
g3
sS'_trueShootingPercentage'
p349
S'.385'
p350
sS'_defensiveReboundPercentage'
p351
g3
sS'_freeThrowsAttempRate'
p352
S'.230'
p353
sS'_threePointsAttempRate'
p354
g3
sg24
S'NBA'
p355
sS'_offensiveBoxPlusMinues'
p356
g3
sS'_assistPercentage'
p357
g3
sS'_defensiveWinShares'
p358
S'0.4'
p359
sg35
S'23'
p360
sg37
S'PHW'
p361
sg39
S'19'
p362
sS'_blockPercentage'
p363
g3
sS'_playerEfficiencyRating'
p364
S'10.5'
p365
sS'_offensiveWinShares'
p366
S'-0.2'
p367
sg56
S'463'
p368
sS'_boxPlusMinus'
p369
g3
sg49
S'1954-55'
p370
sS'_winShares'
p371
S'0.2'
p372
sba(isrc.gp1.models.Advanced
Advanced
p373
(dp374
g339
g3
sg340
g3
sg341
S'.077'
p375
sg343
g3
sg344
g3
sg345
g3
sg346
g3
sg18
S'PG'
p376
sg348
g3
sg349
S'.460'
p377
sg351
g3
sg352
S'.447'
p378
sg354
g3
sg24
S'NBA'
p379
sg356
g3
sg357
g3
sg358
S'1.3'
p380
sg35
S'25'
p381
sg37
S'PHW'
p382
sg39
S'72'
p383
sg363
g3
sg364
S'11.3'
p384
sg366
S'2.1'
p385
sg56
S'2111'
p386
sg369
g3
sg49
S'1956-57'
p387
sg371
S'3.4'
p388
sba(isrc.gp1.models.Advanced
Advanced
p389
(dp390
g339
g3
sg340
g3
sg341
S'.162'
p391
sg343
g3
sg344
g3
sg345
g3
sg346
g3
sg18
S'PG'
p392
sg348
g3
sg349
S'.510'
p393
sg351
g3
sg352
S'.426'
p394
sg354
g3
sg24
S'NBA'
p395
sg356
g3
sg357
g3
sg358
S'2.9'
p396
sg35
S'26'
p397
sg37
S'SYR'
p398
sg39
S'72'
p399
sg363
g3
sg364
S'15.1'
p400
sg366
S'6.4'
p401
sg56
S'2746'
p402
sg369
g3
sg49
S'1957-58'
p403
sg371
S'9.2'
p404
sba(isrc.gp1.models.Advanced
Advanced
p405
(dp406
g339
g3
sg340
g3
sg341
S'.149'
p407
sg343
g3
sg344
g3
sg345
g3
sg346
g3
sg18
S'PG'
p408
sg348
g3
sg349
S'.503'
p409
sg351
g3
sg352
S'.368'
p410
sg354
g3
sg24
S'NBA'
p411
sg356
g3
sg357
g3
sg358
S'3.0'
p412
sg35
S'27'
p413
sg37
S'SYR'
p414
sg39
S'70'
p415
sg363
g3
sg364
S'15.0'
p416
sg366
S'5.5'
p417
sg56
S'2750'
p418
sg369
g3
sg49
S'1958-59'
p419
sg371
S'8.5'
p420
sba(isrc.gp1.models.Advanced
Advanced
p421
(dp422
g339
g3
sg340
g3
sg341
S'.156'
p423
sg343
g3
sg344
g3
sg345
g3
sg346
g3
sg18
S'PG'
p424
sg348
g3
sg349
S'.523'
p425
sg351
g3
sg352
S'.352'
p426
sg354
g3
sg24
S'NBA'
p427
sg356
g3
sg357
g3
sg358
S'2.6'
p428
sg35
S'28'
p429
sg37
S'SYR'
p430
sg39
S'71'
p431
sg363
g3
sg364
S'15.6'
p432
sg366
S'5.4'
p433
sg56
S'2469'
p434
sg369
g3
sg49
S'1959-60'
p435
sg371
S'8.0'
p436
sba(isrc.gp1.models.Advanced
Advanced
p437
(dp438
g339
g3
sg340
g3
sg341
S'.190'
p439
sg343
g3
sg344
g3
sg345
g3
sg346
g3
sg18
S'PG'
p440
sg348
g3
sg349
S'.546'
p441
sg351
g3
sg352
S'.400'
p442
sg354
g3
sg24
S'NBA'
p443
sg356
g3
sg357
g3
sg358
S'2.3'
p444
sg35
S'29'
p445
sg37
S'SYR'
p446
sg39
S'75'
p447
sg363
g3
sg364
S'17.2'
p448
sg366
S'6.3'
p449
sg56
S'2167'
p450
sg369
g3
sg49
S'1960-61'
p451
sg371
S'8.6'
p452
sba(isrc.gp1.models.Advanced
Advanced
p453
(dp454
g339
g3
sg340
g3
sg341
S'.153'
p455
sg343
g3
sg344
g3
sg345
g3
sg346
g3
sg18
S'PG'
p456
sg348
g3
sg349
S'.507'
p457
sg351
g3
sg352
S'.406'
p458
sg354
g3
sg24
S'NBA'
p459
sg356
g3
sg357
g3
sg358
S'2.6'
p460
sg35
S'30'
p461
sg37
S'SYR'
p462
sg39
S'63'
p463
sg363
g3
sg364
S'15.6'
p464
sg366
S'3.3'
p465
sg56
S'1854'
p466
sg369
g3
sg49
S'1961-62'
p467
sg371
S'5.9'
p468
sba(isrc.gp1.models.Advanced
Advanced
p469
(dp470
g339
g3
sg340
g3
sg341
S'.132'
p471
sg343
g3
sg344
g3
sg345
g3
sg346
g3
sg18
S'PG'
p472
sg348
g3
sg349
S'.534'
p473
sg351
g3
sg352
S'.495'
p474
sg354
g3
sg24
S'NBA'
p475
sg356
g3
sg357
g3
sg358
S'2.1'
p476
sg35
S'31'
p477
sg37
S'SYR'
p478
sg39
S'78'
p479
sg363
g3
sg364
S'13.8'
p480
sg366
S'3.6'
p481
sg56
S'2066'
p482
sg369
g3
sg49
S'1962-63'
p483
sg371
S'5.7'
p484
sba(isrc.gp1.models.Advanced
Advanced
p485
(dp486
g339
g3
sg340
g3
sg341
S'.147'
p487
sg343
g3
sg344
g3
sg345
g3
sg346
g3
sg18
S'PG'
p488
sg348
g3
sg349
S'.548'
p489
sg351
g3
sg352
S'.417'
p490
sg354
g3
sg24
S'NBA'
p491
sg356
g3
sg357
g3
sg358
S'0.7'
p492
sg35
S'32'
p493
sg37
S'PHI'
p494
sg39
S'45'
p495
sg363
g3
sg364
S'15.1'
p496
sg366
S'2.8'
p497
sg56
S'1137'
p498
sg369
g3
sg49
S'1963-64'
p499
sg371
S'3.5'
p500
sba(isrc.gp1.models.Advanced
Advanced
p501
(dp502
g339
g3
sg340
g3
sg341
S'.138'
p503
sg343
g3
sg344
g3
sg345
g3
sg346
g3
sg18
S'PG'
p504
sg348
g3
sg349
S'.527'
p505
sg351
g3
sg352
S'.399'
p506
sg354
g3
sg24
S'NBA'
p507
sg356
g3
sg357
S'19.3'
p508
sg358
S'1.5'
p509
sg35
S'33'
p510
sg37
S'PHI'
p511
sg39
S'64'
p512
sg363
g3
sg364
S'14.0'
p513
sg366
S'4.1'
p514
sg56
S'1967'
p515
sg369
g3
sg49
S'1964-65'
p516
sg371
S'5.7'
p517
sba(isrc.gp1.models.Advanced
Advanced
p518
(dp519
g339
g3
sg340
g3
sg341
S'.125'
p520
sg343
g3
sg344
g3
sg345
g3
sg346
g3
sg18
S'PG'
p521
sg348
g3
sg349
S'.541'
p522
sg351
g3
sg352
S'.454'
p523
sg354
g3
sg24
S'NBA'
p524
sg356
g3
sg357
S'16.5'
p525
sg358
S'0.9'
p526
sg35
S'35'
p527
sg37
S'PHI'
p528
sg39
S'49'
p529
sg363
g3
sg364
S'11.9'
p530
sg366
S'1.7'
p531
sg56
S'976'
p532
sg369
g3
sg49
S'1966-67'
p533
sg371
S'2.5'
p534
sba(isrc.gp1.models.Advanced
Advanced
p535
(dp536
g339
g3
sg340
g3
sg341
S'.150'
p537
sg343
g3
sg344
g3
sg345
g3
sg346
g3
sg18
S'PG'
p538
sg348
g3
sg349
S'.547'
p539
sg351
g3
sg352
S'.547'
p540
sg354
g3
sg24
S'NBA'
p541
sg356
g3
sg357
S'16.0'
p542
sg358
S'0.6'
p543
sg35
S'36'
p544
sg37
S'PHI'
p545
sg39
S'28'
p546
sg363
g3
sg364
S'12.8'
p547
sg366
S'0.9'
p548
sg56
S'492'
p549
sg369
g3
sg49
S'1967-68'
p550
sg371
S'1.5'
p551
sbasS'_per36Minutes'
p552
(lp553
(isrc.gp1.models.Per36Minutes
Per36Minutes
p554
(dp555
g8
g3
sg9
g3
sg10
S'.331'
p556
sg12
S'6.1'
p557
sg14
g3
sg15
g3
sg16
S'9.2'
p558
sg18
S'PG'
p559
sg20
S'.813'
p560
sg24
S'NBA'
p561
sg26
g3
sg27
S'10.8'
p562
sg29
S'2.9'
p563
sg31
S'2.5'
p564
sg33
S'3.8'
p565
sg35
S'23'
p566
sg37
S'PHW'
p567
sg39
S'19'
p568
sg41
g3
sg42
S'3.6'
p569
sg44
S'2.0'
p570
sg46
S'10.8'
p571
sg48
g3
sg49
S'1954-55'
p572
sg51
S'3.6'
p573
sg53
g3
sg54
S'.331'
p574
sg56
S'463'
p575
sg58
g3
sba(isrc.gp1.models.Per36Minutes
Per36Minutes
p576
(dp577
g8
g3
sg9
g3
sg10
S'.374'
p578
sg12
S'4.0'
p579
sg14
g3
sg15
g3
sg16
S'9.3'
p580
sg18
S'PG'
p581
sg20
S'.788'
p582
sg24
S'NBA'
p583
sg26
g3
sg27
S'8.5'
p584
sg29
S'3.1'
p585
sg31
S'3.8'
p586
sg33
S'5.5'
p587
sg35
S'25'
p588
sg37
S'PHW'
p589
sg39
S'72'
p590
sg41
g3
sg42
S'3.2'
p591
sg44
S'3.0'
p592
sg46
S'8.5'
p593
sg48
g3
sg49
S'1956-57'
p594
sg51
S'3.2'
p595
sg53
g3
sg54
S'.374'
p596
sg56
S'2111'
p597
sg58
g3
sba(isrc.gp1.models.Per36Minutes
Per36Minutes
p598
(dp599
g8
g3
sg9
g3
sg10
S'.426'
p600
sg12
S'4.2'
p601
sg14
g3
sg15
g3
sg16
S'14.1'
p602
sg18
S'PG'
p603
sg20
S'.847'
p604
sg24
S'NBA'
p605
sg26
g3
sg27
S'11.6'
p606
sg29
S'3.2'
p607
sg31
S'5.0'
p608
sg33
S'5.0'
p609
sg35
S'26'
p610
sg37
S'SYR'
p611
sg39
S'72'
p612
sg41
g3
sg42
S'5.0'
p613
sg44
S'4.2'
p614
sg46
S'11.6'
p615
sg48
g3
sg49
S'1957-58'
p616
sg51
S'5.0'
p617
sg53
g3
sg54
S'.426'
p618
sg56
S'2746'
p619
sg58
g3
sba(isrc.gp1.models.Per36Minutes
Per36Minutes
p620
(dp621
g8
g3
sg9
g3
sg10
S'.437'
p622
sg12
S'5.0'
p623
sg14
g3
sg15
g3
sg16
S'14.5'
p624
sg18
S'PG'
p625
sg20
S'.802'
p626
sg24
S'NBA'
p627
sg26
g3
sg27
S'12.4'
p628
sg29
S'3.4'
p629
sg31
S'4.6'
p630
sg33
S'4.8'
p631
sg35
S'27'
p632
sg37
S'SYR'
p633
sg39
S'70'
p634
sg41
g3
sg42
S'5.4'
p635
sg44
S'3.7'
p636
sg46
S'12.4'
p637
sg48
g3
sg49
S'1958-59'
p638
sg51
S'5.4'
p639
sg53
g3
sg54
S'.437'
p640
sg56
S'2750'
p641
sg58
g3
sba(isrc.gp1.models.Per36Minutes
Per36Minutes
p642
(dp643
g8
g3
sg9
g3
sg10
S'.453'
p644
sg12
S'6.5'
p645
sg14
g3
sg15
g3
sg16
S'14.5'
p646
sg18
S'PG'
p647
sg20
S'.862'
p648
sg24
S'NBA'
p649
sg26
g3
sg27
S'12.0'
p650
sg29
S'3.4'
p651
sg31
S'4.2'
p652
sg33
S'5.7'
p653
sg35
S'28'
p654
sg37
S'SYR'
p655
sg39
S'71'
p656
sg41
g3
sg42
S'5.4'
p657
sg44
S'3.6'
p658
sg46
S'12.0'
p659
sg48
g3
sg49
S'1959-60'
p660
sg51
S'5.4'
p661
sg53
g3
sg54
S'.453'
p662
sg56
S'2469'
p663
sg58
g3
sba(isrc.gp1.models.Per36Minutes
Per36Minutes
p664
(dp665
g8
g3
sg9
g3
sg10
S'.482'
p666
sg12
S'6.9'
p667
sg14
g3
sg15
g3
sg16
S'18.0'
p668
sg18
S'PG'
p669
sg20
S'.799'
p670
sg24
S'NBA'
p671
sg26
g3
sg27
S'14.0'
p672
sg29
S'4.8'
p673
sg31
S'5.6'
p674
sg33
S'4.9'
p675
sg35
S'29'
p676
sg37
S'SYR'
p677
sg39
S'75'
p678
sg41
g3
sg42
S'6.8'
p679
sg44
S'4.5'
p680
sg46
S'14.0'
p681
sg48
g3
sg49
S'1960-61'
p682
sg51
S'6.8'
p683
sg53
g3
sg54
S'.482'
p684
sg56
S'2167'
p685
sg58
g3
sba(isrc.gp1.models.Per36Minutes
Per36Minutes
p686
(dp687
g8
g3
sg9
g3
sg10
S'.427'
p688
sg12
S'7.0'
p689
sg14
g3
sg15
g3
sg16
S'16.8'
p690
sg18
S'PG'
p691
sg20
S'.837'
p692
sg24
S'NBA'
p693
sg26
g3
sg27
S'14.1'
p694
sg29
S'4.3'
p695
sg31
S'5.7'
p696
sg33
S'4.8'
p697
sg35
S'30'
p698
sg37
S'SYR'
p699
sg39
S'63'
p700
sg41
g3
sg42
S'6.0'
p701
sg44
S'4.8'
p702
sg46
S'14.1'
p703
sg48
g3
sg49
S'1961-62'
p704
sg51
S'6.0'
p705
sg53
g3
sg54
S'.427'
p706
sg56
S'1854'
p707
sg58
g3
sba(isrc.gp1.models.Per36Minutes
Per36Minutes
p708
(dp709
g8
g3
sg9
g3
sg10
S'.432'
p710
sg12
S'5.8'
p711
sg14
g3
sg15
g3
sg16
S'15.0'
p712
sg18
S'PG'
p713
sg20
S'.881'
p714
sg24
S'NBA'
p715
sg26
g3
sg27
S'11.5'
p716
sg29
S'4.6'
p717
sg31
S'5.7'
p718
sg33
S'4.1'
p719
sg35
S'31'
p720
sg37
S'SYR'
p721
sg39
S'78'
p722
sg41
g3
sg42
S'5.0'
p723
sg44
S'5.0'
p724
sg46
S'11.5'
p725
sg48
g3
sg49
S'1962-63'
p726
sg51
S'5.0'
p727
sg53
g3
sg54
S'.432'
p728
sg56
S'2066'
p729
sg58
g3
sba(isrc.gp1.models.Per36Minutes
Per36Minutes
p730
(dp731
g8
g3
sg9
g3
sg10
S'.468'
p732
sg12
S'5.3'
p733
sg14
g3
sg15
g3
sg16
S'16.7'
p734
sg18
S'PG'
p735
sg20
S'.865'
p736
sg24
S'NBA'
p737
sg26
g3
sg27
S'12.9'
p738
sg29
S'4.7'
p739
sg31
S'5.4'
p740
sg33
S'3.3'
p741
sg35
S'32'
p742
sg37
S'PHI'
p743
sg39
S'45'
p744
sg41
g3
sg42
S'6.0'
p745
sg44
S'4.7'
p746
sg46
S'12.9'
p747
sg48
g3
sg49
S'1963-64'
p748
sg51
S'6.0'
p749
sg53
g3
sg54
S'.468'
p750
sg56
S'1137'
p751
sg58
g3
sba(isrc.gp1.models.Per36Minutes
Per36Minutes
p752
(dp753
g8
g3
sg9
g3
sg10
S'.445'
p754
sg12
S'5.0'
p755
sg14
g3
sg15
g3
sg16
S'15.8'
p756
sg18
S'PG'
p757
sg20
S'.877'
p758
sg24
S'NBA'
p759
sg26
g3
sg27
S'12.7'
p760
sg29
S'4.4'
p761
sg31
S'5.1'
p762
sg33
S'3.1'
p763
sg35
S'33'
p764
sg37
S'PHI'
p765
sg39
S'64'
p766
sg41
g3
sg42
S'5.7'
p767
sg44
S'4.4'
p768
sg46
S'12.7'
p769
sg48
g3
sg49
S'1964-65'
p770
sg51
S'5.7'
p771
sg53
g3
sg54
S'.445'
p772
sg56
S'1967'
p773
sg58
g3
sba(isrc.gp1.models.Per36Minutes
Per36Minutes
p774
(dp775
g8
g3
sg9
g3
sg10
S'.444'
p776
sg12
S'5.2'
p777
sg14
g3
sg15
g3
sg16
S'14.0'
p778
sg18
S'PG'
p779
sg20
S'.902'
p780
sg24
S'NBA'
p781
sg26
g3
sg27
S'10.8'
p782
sg29
S'5.2'
p783
sg31
S'4.9'
p784
sg33
S'3.8'
p785
sg35
S'35'
p786
sg37
S'PHI'
p787
sg39
S'49'
p788
sg41
g3
sg42
S'4.8'
p789
sg44
S'4.4'
p790
sg46
S'10.8'
p791
sg48
g3
sg49
S'1966-67'
p792
sg51
S'4.8'
p793
sg53
g3
sg54
S'.444'
p794
sg56
S'976'
p795
sg58
g3
sba(isrc.gp1.models.Per36Minutes
Per36Minutes
p796
(dp797
g8
g3
sg9
g3
sg10
S'.453'
p798
sg12
S'5.0'
p799
sg14
g3
sg15
g3
sg16
S'14.7'
p800
sg18
S'PG'
p801
sg20
S'.827'
p802
sg24
S'NBA'
p803
sg26
g3
sg27
S'10.8'
p804
sg29
S'4.5'
p805
sg31
S'5.9'
p806
sg33
S'3.7'
p807
sg35
S'36'
p808
sg37
S'PHI'
p809
sg39
S'28'
p810
sg41
g3
sg42
S'4.9'
p811
sg44
S'4.9'
p812
sg46
S'10.8'
p813
sg48
g3
sg49
S'1967-68'
p814
sg51
S'4.9'
p815
sg53
g3
sg54
S'.453'
p816
sg56
S'492'
p817
sg58
g3
sbasS'_fromYear'
p818
S'1955'
p819
sS'_url'
p820
S'http://www.basketball-reference.com/players/c/costela01.html'
p821
sS'_perGame'
p822
(isrc.gp1.models.PerGame
PerGame
p823
(dp824
g8
g3
sg9
g3
sg10
S'.453'
p825
sS'_effectiveFieldGalPercentage'
p826
S'.453'
p827
sg12
S'2.4'
p828
sg14
g3
sg15
g3
sg16
S'7.2'
p829
sg18
S'PG'
p830
sg20
S'.827'
p831
sg24
S'NBA'
p832
sg26
g3
sg29
S'2.2'
p833
sS'_fieldGoalsttempted'
p834
S'5.3'
p835
sg31
S'2.9'
p836
sg33
S'1.8'
p837
sg35
S'36'
p838
sg37
S'PHI'
p839
sg39
S'28'
p840
sg41
g3
sg42
S'2.4'
p841
sg44
S'2.4'
p842
sg46
S'5.3'
p843
sg48
g3
sg49
S'1967-68'
p844
sg51
S'2.4'
p845
sg53
g3
sg54
S'.453'
p846
sg56
S'17.6'
p847
sg58
g3
sbsS'_weight'
p848
S'186'
p849
sS'_dob'
p850
S'2-7-1931'
p851
sS'_salary'
p852
(lp853
sg18
S'G'
p854
sb.