(isrc.gp1.models.Player
Player
p0
(dp1
S'_experience'
p2
S'NA'
p3
sS'_totals'
p4
(lp5
(isrc.gp1.models.Totals
Totals
p6
(dp7
S'_offensiveRebounds'
p8
g3
sS'_threePointsAttempted'
p9
S'.344'
p10
sS'_fieldGoalsPercentage'
p11
S'22'
p12
sS'_assist'
p13
g3
sS'_threePointsPercentage'
p14
S'.344'
p15
sS'_threePoints'
p16
S'64'
p17
sS'_points'
p18
g3
sS'_position'
p19
S'C'
p20
sS'_freeThrowsPercentage'
p21
S'55'
p22
sS'_effectiveFieldGoalPercentage'
p23
S'68'
p24
sS'_league'
p25
S'NBA'
p26
sS'_steals'
p27
g3
sS'_fieldGoalsAttempted'
p28
S'.344'
p29
sS'_personalFouls'
p30
g3
sS'_freeThrowsAttempted'
p31
S'46'
p32
sS'_totalRebounds'
p33
g3
sS'_age'
p34
S'23'
p35
sS'_team'
p36
S'PHI'
p37
sS'_games'
p38
S'27'
p39
sS'_blocks'
p40
g3
sS'_twoPoints'
p41
S'11'
p42
sS'_freeThrows'
p43
S'8'
p44
sS'_twoPointsAttempted'
p45
S'17'
p46
sS'_defensiveRebounds'
p47
g3
sS'_season'
p48
S'1968-69'
p49
sS'_fieldGoals'
p50
S'64'
p51
sS'_turnOvers'
p52
g3
sS'_twoPointsPercentage'
p53
S'.647'
p54
sS'_minutesPlayed'
p55
S'22'
p56
sS'_gamesStarted'
p57
S'177'
p58
sba(isrc.gp1.models.Totals
Totals
p59
(dp60
g8
S'650'
p61
sg9
S'.000'
p62
sg11
S'0'
p63
sg13
S'247'
p64
sg14
S'386'
p65
sg16
S'1'
p66
sg18
g3
sg19
g20
sg21
S'146'
p67
sg23
S'190'
p68
sg25
S'ABA'
p69
sg27
S'274'
p70
sg28
S'.475'
p71
sg30
g3
sg31
S'.625'
p72
sg33
S'154'
p73
sg34
S'24'
p74
sg36
S'TOT'
p75
sg38
S'80'
p76
sg40
S'962'
p77
sg41
S'811'
p78
sg43
S'304'
p79
sg45
S'.476'
p80
sg47
S'796'
p81
sg48
S'1969-70'
p82
sg50
S'812'
p83
sg52
g3
sg53
S'.475'
p84
sg55
S'386'
p85
sg57
S'2356'
p86
sba(isrc.gp1.models.Totals
Totals
p87
(dp88
g8
S'256'
p89
sg9
S'100'
p90
sg11
g63
sg13
S'100'
p91
sg14
S'229'
p92
sg16
g63
sg18
g3
sg19
g20
sg21
S'215'
p93
sg23
S'98'
p94
sg25
S'ABA'
p95
sg27
S'252'
p96
sg28
S'.437'
p97
sg30
g3
sg31
S'41'
p98
sg33
S'110'
p99
sg34
S'24'
p100
sg36
S'PTP'
p101
sg38
S'34'
p102
sg40
g3
sg41
S'.437'
p103
sg43
S'.531'
p104
sg45
S'.437'
p105
sg47
S'55'
p106
sg48
S'1969-70'
p107
sg50
S'229'
p108
sg52
g3
sg53
S'52'
p109
sg55
S'100'
p110
sg57
S'789'
p111
sba(isrc.gp1.models.Totals
Totals
p112
(dp113
g8
S'435'
p114
sg9
S'.000'
p115
sg11
g63
sg13
S'137'
p116
sg14
S'286'
p117
sg16
g66
sg18
g3
sg19
g20
sg21
S'105'
p118
sg23
S'138'
p119
sg25
S'ABA'
p120
sg27
S'174'
p121
sg28
S'.491'
p122
sg30
g3
sg31
S'.670'
p123
sg33
S'99'
p124
sg34
S'24'
p125
sg36
S'LAS'
p126
sg38
S'46'
p127
sg40
S'710'
p128
sg41
S'582'
p129
sg43
S'206'
p130
sg45
S'.491'
p131
sg47
S'540'
p132
sg48
S'1969-70'
p133
sg50
S'583'
p134
sg52
g3
sg53
S'.491'
p135
sg55
S'286'
p136
sg57
S'1567'
p137
sba(isrc.gp1.models.Totals
Totals
p138
(dp139
g8
S'226'
p140
sg9
S'.000'
p141
sg11
g63
sg13
S'102'
p142
sg14
S'142'
p143
sg16
g66
sg18
g3
sg19
g20
sg21
S'63'
p144
sg23
S'67'
p145
sg25
S'ABA'
p146
sg27
S'124'
p147
sg28
S'.430'
p148
sg30
g3
sg31
S'.632'
p149
sg33
S'91'
p150
sg34
S'25'
p151
sg36
S'MMP'
p152
sg38
S'56'
p153
sg40
S'351'
p154
sg41
S'329'
p155
sg43
S'106'
p156
sg45
S'.432'
p157
sg47
S'289'
p158
sg48
S'1970-71'
p159
sg50
S'330'
p160
sg52
g3
sg53
S'.430'
p161
sg55
S'142'
p162
sg57
S'1102'
p163
sba(isrc.gp1.models.Totals
Totals
p164
(dp165
g8
S'221'
p166
sg9
S'.000'
p167
sg11
g63
sg13
S'91'
p168
sg14
S'104'
p169
sg16
S'3'
p170
sg18
g3
sg19
g20
sg21
S'63'
p171
sg23
S'48'
p172
sg25
S'ABA'
p173
sg27
S'108'
p174
sg28
S'.458'
p175
sg30
g3
sg31
S'.632'
p176
sg33
S'67'
p177
sg34
S'26'
p178
sg36
S'FLO'
p179
sg38
S'64'
p180
sg40
S'256'
p181
sg41
S'224'
p182
sg43
S'76'
p183
sg45
S'.464'
p184
sg47
S'284'
p185
sg48
S'1971-72'
p186
sg50
S'227'
p187
sg52
g3
sg53
S'.458'
p188
sg55
S'104'
p189
sg57
S'889'
p190
sba(isrc.gp1.models.Totals
Totals
p191
(dp192
g8
S'73'
p193
sg9
S'12'
p194
sg11
g63
sg13
S'24'
p195
sg14
S'39'
p196
sg16
g63
sg18
g3
sg19
g20
sg21
S'50'
p197
sg23
S'14'
p198
sg25
S'ABA'
p199
sg27
S'34'
p200
sg28
S'.308'
p201
sg30
g3
sg31
S'23'
p202
sg33
S'15'
p203
sg34
S'27'
p204
sg36
S'TOT'
p205
sg38
S'14'
p206
sg40
g3
sg41
S'.308'
p207
sg43
S'.714'
p208
sg45
S'.308'
p209
sg47
S'7'
p210
sg48
S'1972-73'
p211
sg50
S'39'
p212
sg52
g3
sg53
S'10'
p213
sg55
S'12'
p214
sg57
S'168'
p215
sba(isrc.gp1.models.Totals
Totals
p216
(dp217
g8
S'63'
p218
sg9
S'10'
p219
sg11
g63
sg13
S'16'
p220
sg14
S'31'
p221
sg16
g63
sg18
g3
sg19
g20
sg21
S'43'
p222
sg23
S'12'
p223
sg25
S'ABA'
p224
sg27
S'29'
p225
sg28
S'.323'
p226
sg30
g3
sg31
S'20'
p227
sg33
S'12'
p228
sg34
S'27'
p229
sg36
S'SDA'
p230
sg38
g44
sg40
g3
sg41
S'.323'
p231
sg43
S'.750'
p232
sg45
S'.323'
p233
sg47
S'6'
p234
sg48
S'1972-73'
p235
sg50
S'31'
p236
sg52
g3
sg53
S'9'
p237
sg55
S'10'
p238
sg57
S'135'
p239
sba(isrc.gp1.models.Totals
Totals
p240
(dp241
g8
S'10'
p242
sg9
S'2'
p243
sg11
g63
sg13
g44
sg14
g44
sg16
g63
sg18
g3
sg19
g20
sg21
g210
sg23
g243
sg25
S'ABA'
p244
sg27
S'5'
p245
sg28
S'.250'
p246
sg30
g3
sg31
g170
sg33
g170
sg34
S'27'
p247
sg36
S'INA'
p248
sg38
g234
sg40
g3
sg41
S'.250'
p249
sg43
S'.500'
p250
sg45
S'.250'
p251
sg47
g66
sg48
S'1972-73'
p252
sg50
g44
sg52
g3
sg53
g66
sg55
g243
sg57
S'33'
p253
sbasS'_college'
p254
S'Brigham Young University'
p255
sS'_toYear'
p256
S'1973'
p257
sS'_height'
p258
S'6-11'
p259
sS'_active'
p260
I00
sS'_shootingHand'
p261
VRight
p262
sS'_name'
p263
S'Craig Raymond'
p264
sS'_per100Possessions'
p265
(lp266
sS'_advanced'
p267
(lp268
(isrc.gp1.models.Advanced
Advanced
p269
(dp270
S'_offensiveReboundPercentage'
p271
S'-0.3'
p272
sS'_turnOverPercentage'
p273
g3
sS'_winSharesPer48Minutes'
p274
g3
sS'_stealPercentage'
p275
g3
sS'_usagePercentage'
p276
g3
sS'_totalReboundsPercentage'
p277
S'0.0'
p278
sS'_defensiveBoxPlusMinus'
p279
g3
sg19
g20
sS'_valueOverReplacementPlayer'
p280
g3
sS'_trueShootingPercentage'
p281
S'.385'
p282
sS'_defensiveReboundPercentage'
p283
S'0.3'
p284
sS'_freeThrowsAttempRate'
p285
S'5.5'
p286
sS'_threePointsAttempRate'
p287
S'.266'
p288
sg25
S'NBA'
p289
sS'_offensiveBoxPlusMinues'
p290
g3
sS'_assistPercentage'
p291
S'-0.001'
p292
sS'_defensiveWinShares'
p293
g3
sg34
S'23'
p294
sg36
S'PHI'
p295
sg38
S'27'
p296
sS'_blockPercentage'
p297
g3
sS'_playerEfficiencyRating'
p298
S'7.6'
p299
sS'_offensiveWinShares'
p300
g3
sg55
S'177'
p301
sS'_boxPlusMinus'
p302
g3
sg48
S'1968-69'
p303
sS'_winShares'
p304
g3
sba(isrc.gp1.models.Advanced
Advanced
p305
(dp306
g271
S'14.7'
p307
sg273
S'4.7'
p308
sg274
g3
sg275
S'2.1'
p309
sg276
S'.096'
p310
sg277
S'20.7'
p311
sg279
g3
sg19
g20
sg280
g3
sg281
S'.509'
p312
sg283
S'9.0'
p313
sg285
S'.374'
p314
sg287
S'.001'
p315
sg25
S'ABA'
p316
sg290
g3
sg291
S'18.6'
p317
sg293
g3
sg34
S'24'
p318
sg36
S'TOT'
p319
sg38
S'80'
p320
sg297
S'2.6'
p321
sg298
S'13.0'
p322
sg300
g3
sg55
S'2356'
p323
sg302
g3
sg48
S'1969-70'
p324
sg304
g3
sba(isrc.gp1.models.Advanced
Advanced
p325
(dp326
g271
S'13.8'
p327
sg273
S'0.7'
p328
sg274
g3
sg275
S'0.0'
p329
sg276
S'.043'
p330
sg277
S'28.8'
p331
sg279
g3
sg19
g20
sg280
g3
sg281
S'.463'
p332
sg283
S'8.8'
p333
sg285
S'.428'
p334
sg287
S'.000'
p335
sg25
S'ABA'
p336
sg290
g3
sg291
S'17.4'
p337
sg293
g3
sg34
S'24'
p338
sg36
S'PTP'
p339
sg38
S'34'
p340
sg297
S'0.7'
p341
sg298
S'7.2'
p342
sg300
g3
sg55
S'789'
p343
sg302
g3
sg48
S'1969-70'
p344
sg304
g3
sba(isrc.gp1.models.Advanced
Advanced
p345
(dp346
g271
S'15.1'
p347
sg273
S'4.0'
p348
sg274
g3
sg275
S'2.2'
p349
sg276
S'.123'
p350
sg277
S'16.9'
p351
sg279
g3
sg19
g20
sg280
g3
sg281
S'.527'
p352
sg283
S'9.1'
p353
sg285
S'.353'
p354
sg287
S'.002'
p355
sg25
S'ABA'
p356
sg290
g3
sg291
S'19.1'
p357
sg293
g3
sg34
S'24'
p358
sg36
S'LAS'
p359
sg38
S'46'
p360
sg297
S'1.9'
p361
sg298
S'15.9'
p362
sg300
g3
sg55
S'1567'
p363
sg302
g3
sg48
S'1969-70'
p364
sg304
g3
sba(isrc.gp1.models.Advanced
Advanced
p365
(dp366
g271
S'11.7'
p367
sg273
S'1.7'
p368
sg274
g3
sg275
S'-0.1'
p369
sg276
S'.073'
p370
sg277
S'21.3'
p371
sg279
g3
sg19
g20
sg280
g3
sg281
S'.466'
p372
sg283
S'10.5'
p373
sg285
S'.321'
p374
sg287
S'.003'
p375
sg25
S'ABA'
p376
sg290
g3
sg291
S'16.1'
p377
sg293
g3
sg34
S'25'
p378
sg36
S'MMP'
p379
sg38
S'56'
p380
sg297
S'1.8'
p381
sg298
S'9.3'
p382
sg300
g3
sg55
S'1102'
p383
sg302
g3
sg48
S'1970-71'
p384
sg304
g3
sba(isrc.gp1.models.Advanced
Advanced
p385
(dp386
g271
S'6.7'
p387
sg273
S'0.2'
p388
sg274
g3
sg275
S'25.9'
p389
sg276
S'0.8'
p390
sg277
S'15.5'
p391
sg279
g3
sg19
g20
sg280
g3
sg281
S'.491'
p392
sg283
S'24.5'
p393
sg285
S'.335'
p394
sg287
S'.013'
p395
sg25
S'ABA'
p396
sg290
g3
sg291
S'10.0'
p397
sg293
S'.055'
p398
sg34
S'26'
p399
sg36
S'FLO'
p400
sg38
S'64'
p401
sg297
S'15.3'
p402
sg298
S'8.9'
p403
sg300
S'1.0'
p404
sg55
S'889'
p405
sg302
g3
sg48
S'1971-72'
p406
sg304
g3
sba(isrc.gp1.models.Advanced
Advanced
p407
(dp408
g271
S'12.9'
p409
sg273
S'-0.3'
p410
sg274
g3
sg275
S'24.9'
p411
sg276
S'0.3'
p412
sg277
S'21.0'
p413
sg279
g3
sg19
g20
sg280
g3
sg281
S'.376'
p414
sg283
S'29.6'
p415
sg285
S'.359'
p416
sg287
S'.000'
p417
sg25
S'ABA'
p418
sg290
g3
sg291
S'5.2'
p419
sg293
S'.013'
p420
sg34
S'27'
p421
sg36
S'TOT'
p422
sg38
S'14'
p423
sg297
S'13.6'
p424
sg298
S'6.9'
p425
sg300
S'0.0'
p426
sg55
S'168'
p427
sg302
g3
sg48
S'1972-73'
p428
sg304
g3
sba(isrc.gp1.models.Advanced
Advanced
p429
(dp430
g271
S'13.9'
p431
sg273
S'-0.2'
p432
sg274
g3
sg275
S'24.9'
p433
sg276
S'0.3'
p434
sg277
S'22.8'
p435
sg279
g3
sg19
g20
sg280
g3
sg281
S'.400'
p436
sg283
S'32.3'
p437
sg285
S'.387'
p438
sg287
S'.000'
p439
sg25
S'ABA'
p440
sg290
g3
sg291
S'5.6'
p441
sg293
S'.035'
p442
sg34
S'27'
p443
sg36
S'SDA'
p444
sg38
g44
sg297
S'13.6'
p445
sg298
S'9.0'
p446
sg300
S'0.1'
p447
sg55
S'135'
p448
sg302
g3
sg48
S'1972-73'
p449
sg304
g3
sba(isrc.gp1.models.Advanced
Advanced
p450
(dp451
g271
S'8.6'
p452
sg273
S'-0.1'
p453
sg274
g3
sg275
S'25.3'
p454
sg276
S'0.0'
p455
sg277
S'13.9'
p456
sg279
g3
sg19
g20
sg280
g3
sg281
S'.282'
p457
sg283
S'18.8'
p458
sg285
S'.250'
p459
sg287
S'.000'
p460
sg25
S'ABA'
p461
sg290
g3
sg291
S'3.6'
p462
sg293
S'-0.077'
p463
sg34
S'27'
p464
sg36
S'INA'
p465
sg38
g234
sg297
S'13.5'
p466
sg298
S'-1.5'
p467
sg300
S'-0.1'
p468
sg55
S'33'
p469
sg302
g3
sg48
S'1972-73'
p470
sg304
g3
sbasS'_per36Minutes'
p471
(lp472
(isrc.gp1.models.Per36Minutes
Per36Minutes
p473
(dp474
g8
g3
sg9
S'.344'
p475
sg11
S'4.5'
p476
sg13
g3
sg14
S'2.2'
p477
sg16
S'13.0'
p478
sg18
g3
sg19
g20
sg21
S'11.2'
p479
sg25
S'NBA'
p480
sg27
g3
sg28
S'.344'
p481
sg30
g3
sg31
S'9.4'
p482
sg33
g3
sg34
S'23'
p483
sg36
S'PHI'
p484
sg38
S'27'
p485
sg40
g3
sg41
S'3.5'
p486
sg43
S'1.6'
p487
sg45
S'.647'
p488
sg47
g3
sg48
S'1968-69'
p489
sg50
S'13.0'
p490
sg52
g3
sg53
S'13.8'
p491
sg55
S'4.5'
p492
sg57
S'177'
p493
sba(isrc.gp1.models.Per36Minutes
Per36Minutes
p494
(dp495
g8
S'9.9'
p496
sg9
S'.000'
p497
sg11
S'0.0'
p498
sg13
S'3.8'
p499
sg14
S'5.9'
p500
sg16
S'0.0'
p501
sg18
g3
sg19
g20
sg21
S'2.2'
p502
sg25
S'ABA'
p503
sg27
S'4.2'
p504
sg28
S'.475'
p505
sg30
g3
sg31
S'.625'
p506
sg33
S'2.4'
p507
sg34
S'24'
p508
sg36
S'TOT'
p509
sg38
S'80'
p510
sg40
S'14.7'
p511
sg41
S'12.4'
p512
sg43
S'4.6'
p513
sg45
S'.476'
p514
sg47
S'12.2'
p515
sg48
S'1969-70'
p516
sg50
S'12.4'
p517
sg52
g3
sg53
S'2.9'
p518
sg55
S'5.9'
p519
sg57
S'2356'
p520
sba(isrc.gp1.models.Per36Minutes
Per36Minutes
p521
(dp522
g8
S'11.7'
p523
sg9
S'4.6'
p524
sg11
S'0.0'
p525
sg13
S'4.6'
p526
sg14
S'10.4'
p527
sg16
S'0.0'
p528
sg18
g3
sg19
g20
sg21
S'9.8'
p529
sg25
S'ABA'
p530
sg27
S'11.5'
p531
sg28
S'.437'
p532
sg30
g3
sg31
S'1.9'
p533
sg33
S'5.0'
p534
sg34
S'24'
p535
sg36
S'PTP'
p536
sg38
S'34'
p537
sg40
g3
sg41
S'.437'
p538
sg43
S'.531'
p539
sg45
S'2.4'
p540
sg47
S'2.5'
p541
sg48
S'1969-70'
p542
sg50
S'10.4'
p543
sg52
g3
sg53
S'4.5'
p544
sg55
S'4.6'
p545
sg57
S'789'
p546
sba(isrc.gp1.models.Per36Minutes
Per36Minutes
p547
(dp548
g8
S'10.0'
p549
sg9
S'.000'
p550
sg11
S'0.0'
p551
sg13
S'3.1'
p552
sg14
S'6.6'
p553
sg16
S'0.0'
p554
sg18
g3
sg19
g20
sg21
S'2.4'
p555
sg25
S'ABA'
p556
sg27
S'4.0'
p557
sg28
S'.491'
p558
sg30
g3
sg31
S'.670'
p559
sg33
S'2.3'
p560
sg34
S'24'
p561
sg36
S'LAS'
p562
sg38
S'46'
p563
sg40
S'16.3'
p564
sg41
S'13.4'
p565
sg43
S'4.7'
p566
sg45
S'.491'
p567
sg47
S'12.4'
p568
sg48
S'1969-70'
p569
sg50
S'13.4'
p570
sg52
g3
sg53
S'3.2'
p571
sg55
S'6.6'
p572
sg57
S'1567'
p573
sba(isrc.gp1.models.Per36Minutes
Per36Minutes
p574
(dp575
g8
S'7.4'
p576
sg9
S'.000'
p577
sg11
S'0.0'
p578
sg13
S'3.3'
p579
sg14
S'4.6'
p580
sg16
S'0.0'
p581
sg18
g3
sg19
g20
sg21
S'2.1'
p582
sg25
S'ABA'
p583
sg27
S'4.1'
p584
sg28
S'.430'
p585
sg30
g3
sg31
S'.632'
p586
sg33
S'3.0'
p587
sg34
S'25'
p588
sg36
S'MMP'
p589
sg38
S'56'
p590
sg40
S'11.5'
p591
sg41
S'10.7'
p592
sg43
S'3.5'
p593
sg45
S'.432'
p594
sg47
S'9.4'
p595
sg48
S'1970-71'
p596
sg50
S'10.8'
p597
sg52
g3
sg53
S'2.2'
p598
sg55
S'4.6'
p599
sg57
S'1102'
p600
sba(isrc.gp1.models.Per36Minutes
Per36Minutes
p601
(dp602
g8
S'8.9'
p603
sg9
S'.000'
p604
sg11
S'0.0'
p605
sg13
S'3.7'
p606
sg14
S'4.2'
p607
sg16
S'0.1'
p608
sg18
g3
sg19
g20
sg21
S'2.6'
p609
sg25
S'ABA'
p610
sg27
S'4.4'
p611
sg28
S'.458'
p612
sg30
g3
sg31
S'.632'
p613
sg33
S'2.7'
p614
sg34
S'26'
p615
sg36
S'FLO'
p616
sg38
S'64'
p617
sg40
S'10.4'
p618
sg41
S'9.1'
p619
sg43
S'3.1'
p620
sg45
S'.464'
p621
sg47
S'11.5'
p622
sg48
S'1971-72'
p623
sg50
S'9.2'
p624
sg52
g3
sg53
S'1.9'
p625
sg55
S'4.2'
p626
sg57
S'889'
p627
sba(isrc.gp1.models.Per36Minutes
Per36Minutes
p628
(dp629
g8
S'15.6'
p630
sg9
S'2.6'
p631
sg11
S'0.0'
p632
sg13
S'5.1'
p633
sg14
S'8.4'
p634
sg16
S'0.0'
p635
sg18
g3
sg19
g20
sg21
S'10.7'
p636
sg25
S'ABA'
p637
sg27
S'7.3'
p638
sg28
S'.308'
p639
sg30
g3
sg31
S'4.9'
p640
sg33
S'3.2'
p641
sg34
S'27'
p642
sg36
S'TOT'
p643
sg38
S'14'
p644
sg40
g3
sg41
S'.308'
p645
sg43
S'.714'
p646
sg45
S'2.1'
p647
sg47
S'1.5'
p648
sg48
S'1972-73'
p649
sg50
S'8.4'
p650
sg52
g3
sg53
S'3.0'
p651
sg55
S'2.6'
p652
sg57
S'168'
p653
sba(isrc.gp1.models.Per36Minutes
Per36Minutes
p654
(dp655
g8
S'16.8'
p656
sg9
S'2.7'
p657
sg11
S'0.0'
p658
sg13
S'4.3'
p659
sg14
S'8.3'
p660
sg16
S'0.0'
p661
sg18
g3
sg19
g20
sg21
S'11.5'
p662
sg25
S'ABA'
p663
sg27
S'7.7'
p664
sg28
S'.323'
p665
sg30
g3
sg31
S'5.3'
p666
sg33
S'3.2'
p667
sg34
S'27'
p668
sg36
S'SDA'
p669
sg38
g44
sg40
g3
sg41
S'.323'
p670
sg43
S'.750'
p671
sg45
S'2.4'
p672
sg47
S'1.6'
p673
sg48
S'1972-73'
p674
sg50
S'8.3'
p675
sg52
g3
sg53
S'3.2'
p676
sg55
S'2.7'
p677
sg57
S'135'
p678
sba(isrc.gp1.models.Per36Minutes
Per36Minutes
p679
(dp680
g8
S'10.9'
p681
sg9
S'2.2'
p682
sg11
S'0.0'
p683
sg13
S'8.7'
p684
sg14
S'8.7'
p685
sg16
S'0.0'
p686
sg18
g3
sg19
g20
sg21
S'7.6'
p687
sg25
S'ABA'
p688
sg27
S'5.5'
p689
sg28
S'.250'
p690
sg30
g3
sg31
S'3.3'
p691
sg33
S'3.3'
p692
sg34
S'27'
p693
sg36
S'INA'
p694
sg38
g234
sg40
g3
sg41
S'.250'
p695
sg43
S'.500'
p696
sg45
S'1.1'
p697
sg47
S'1.1'
p698
sg48
S'1972-73'
p699
sg50
S'8.7'
p700
sg52
g3
sg53
S'2.2'
p701
sg55
S'2.2'
p702
sg57
S'33'
p703
sbasS'_fromYear'
p704
S'1969'
p705
sS'_url'
p706
S'http://www.basketball-reference.com/players/r/raymocr01.html'
p707
sS'_perGame'
p708
(isrc.gp1.models.PerGame
PerGame
p709
(dp710
g8
S'1.7'
p711
sg9
S'0.3'
p712
sg11
S'0.0'
p713
sS'_effectiveFieldGalPercentage'
p714
S'0.3'
p715
sg13
S'1.3'
p716
sg14
S'1.3'
p717
sg16
S'0.0'
p718
sg18
g3
sg19
g20
sg21
S'1.2'
p719
sg25
S'ABA'
p720
sg27
S'0.8'
p721
sg30
g3
sS'_fieldGoalsttempted'
p722
S'.250'
p723
sg31
S'0.5'
p724
sg33
S'0.5'
p725
sg34
S'27'
p726
sg36
S'INA'
p727
sg38
g234
sg40
g3
sg41
S'.250'
p728
sg43
S'.500'
p729
sg45
S'.250'
p730
sg47
S'0.2'
p731
sg48
S'1972-73'
p732
sg50
S'1.3'
p733
sg52
g3
sg53
S'0.2'
p734
sg55
S'0.3'
p735
sg57
S'5.5'
p736
sbsS'_weight'
p737
S'235'
p738
sS'_dob'
p739
S'5-4-1945'
p740
sS'_salary'
p741
(lp742
sg19
g20
sb.