(isrc.gp1.models.Player
Player
p0
(dp1
S'_experience'
p2
S'NA'
p3
sS'_totals'
p4
(lp5
(isrc.gp1.models.Totals
Totals
p6
(dp7
S'_offensiveRebounds'
p8
S'79'
p9
sS'_threePointsAttempted'
p10
S'.000'
p11
sS'_fieldGoalsPercentage'
p12
S'0'
p13
sS'_assist'
p14
S'18'
p15
sS'_threePointsPercentage'
p16
S'100'
p17
sS'_threePoints'
p18
S'1'
p19
sS'_points'
p20
g3
sS'_position'
p21
S'SF'
p22
sS'_freeThrowsPercentage'
p23
S'59'
p24
sS'_effectiveFieldGoalPercentage'
p25
S'35'
p26
sS'_league'
p27
S'NBA'
p28
sS'_steals'
p29
S'5'
p30
sS'_fieldGoalsAttempted'
p31
S'.457'
p32
sS'_personalFouls'
p33
S'235'
p34
sS'_freeThrowsAttempted'
p35
S'.603'
p36
sS'_totalRebounds'
p37
S'27'
p38
sS'_age'
p39
S'23'
p40
sS'_team'
p41
S'ATL'
p42
sS'_games'
p43
S'55'
p44
sS'_blocks'
p45
S'61'
p46
sS'_twoPoints'
p47
S'218'
p48
sS'_freeThrows'
p49
S'58'
p50
sS'_twoPointsAttempted'
p51
S'.459'
p52
sS'_defensiveRebounds'
p53
S'138'
p54
sS'_season'
p55
S'1980-81'
p56
sS'_fieldGoals'
p57
S'219'
p58
sS'_turnOvers'
p59
S'128'
p60
sS'_twoPointsPercentage'
p61
S'.457'
p62
sS'_minutesPlayed'
p63
S'100'
p64
sS'_gamesStarted'
p65
S'586'
p66
sba(isrc.gp1.models.Totals
Totals
p67
(dp68
g8
S'2'
p69
sg10
g13
sg12
S'.333'
p70
sg14
g19
sg16
g69
sg18
g13
sg20
g3
sg21
S'SF'
p71
sg23
g19
sg25
g19
sg27
S'NBA'
p72
sg29
g13
sg31
S'6'
p73
sg33
g30
sg35
S'.500'
p74
sg37
g13
sg39
S'24'
p75
sg41
S'ATL'
p76
sg43
S'4'
p77
sg45
g13
sg47
g73
sg49
g69
sg51
S'.333'
p78
sg53
S'3'
p79
sg55
S'1981-82'
p80
sg57
g69
sg59
g79
sg61
S'.333'
p81
sg63
S'21'
p82
sg65
g13
sbasS'_college'
p83
S'Georgetown University'
p84
sS'_toYear'
p85
S'1982'
p86
sS'_height'
p87
S'6-7'
p88
sS'_active'
p89
I00
sS'_shootingHand'
p90
VRight
p91
sS'_name'
p92
S'Craig Shelton'
p93
sS'_per100Possessions'
p94
(lp95
(isrc.gp1.models.Per100Possession
Per100Possession
p96
(dp97
g8
S'6.5'
p98
sg10
S'.000'
p99
sg12
S'0.0'
p100
sS'_offensiveRating'
p101
S'107'
p102
sg14
S'1.5'
p103
sg16
S'8.2'
p104
sg18
S'0.1'
p105
sg20
S'91'
p106
sg21
S'SF'
p107
sS'_defensiveRating'
p108
g3
sg23
S'4.9'
p109
sg27
S'NBA'
p110
sg29
S'0.4'
p111
sg31
S'.457'
p112
sg33
S'19.4'
p113
sg35
S'.603'
p114
sg37
S'2.2'
p115
sg39
S'23'
p116
sg41
S'ATL'
p117
sg43
S'55'
p118
sg45
S'5.0'
p119
sg47
S'18.0'
p120
sg49
S'4.8'
p121
sg51
S'.459'
p122
sg53
S'11.4'
p123
sg55
S'1980-81'
p124
sg57
S'18.1'
p125
sg59
S'10.6'
p126
sg61
S'2.9'
p127
sg63
S'8.2'
p128
sg65
S'586'
p129
sba(isrc.gp1.models.Per100Possession
Per100Possession
p130
(dp131
g8
S'4.8'
p132
sg10
S'0.0'
p133
sg12
S'.333'
p134
sg101
S'104'
p135
sg14
S'2.4'
p136
sg16
S'4.8'
p137
sg18
S'0.0'
p138
sg20
S'90'
p139
sg21
S'SF'
p140
sg108
g3
sg23
S'2.4'
p141
sg27
S'NBA'
p142
sg29
S'0.0'
p143
sg31
S'14.4'
p144
sg33
S'12.0'
p145
sg35
S'.500'
p146
sg37
S'0.0'
p147
sg39
S'24'
p148
sg41
S'ATL'
p149
sg43
g77
sg45
S'0.0'
p150
sg47
S'14.4'
p151
sg49
S'4.8'
p152
sg51
S'.333'
p153
sg53
S'7.2'
p154
sg55
S'1981-82'
p155
sg57
S'4.8'
p156
sg59
S'7.2'
p157
sg61
S'2.4'
p158
sg63
S'21'
p159
sg65
g13
sbasS'_advanced'
p160
(lp161
(isrc.gp1.models.Advanced
Advanced
p162
(dp163
S'_offensiveReboundPercentage'
p164
S'11.4'
p165
sS'_turnOverPercentage'
p166
S'20.0'
p167
sS'_winSharesPer48Minutes'
p168
S'-0.002'
p169
sS'_stealPercentage'
p170
S'1.5'
p171
sS'_usagePercentage'
p172
S'21.6'
p173
sS'_totalReboundsPercentage'
p174
S'13.5'
p175
sS'_defensiveBoxPlusMinus'
p176
S'-1.7'
p177
sg21
S'SF'
p178
sS'_valueOverReplacementPlayer'
p179
S'-0.5'
p180
sS'_trueShootingPercentage'
p181
S'.481'
p182
sS'_defensiveReboundPercentage'
p183
S'15.7'
p184
sS'_freeThrowsAttempRate'
p185
S'.265'
p186
sS'_threePointsAttempRate'
p187
S'.005'
p188
sg27
S'NBA'
p189
sS'_offensiveBoxPlusMinues'
p190
S'-3.5'
p191
sS'_assistPercentage'
p192
S'7.0'
p193
sS'_defensiveWinShares'
p194
S'0.5'
p195
sg39
S'23'
p196
sg41
S'ATL'
p197
sg43
S'55'
p198
sS'_blockPercentage'
p199
S'0.5'
p200
sS'_playerEfficiencyRating'
p201
S'8.8'
p202
sS'_offensiveWinShares'
p203
S'-0.5'
p204
sg63
S'586'
p205
sS'_boxPlusMinus'
p206
S'-5.2'
p207
sg55
S'1980-81'
p208
sS'_winShares'
p209
S'0.0'
p210
sba(isrc.gp1.models.Advanced
Advanced
p211
(dp212
g164
S'5.4'
p213
sg166
S'0.0'
p214
sg168
S'.034'
p215
sg170
S'2.4'
p216
sg172
S'14.2'
p217
sg174
S'8.1'
p218
sg176
S'-2.4'
p219
sg21
S'SF'
p220
sg179
S'0.0'
p221
sg181
S'.363'
p222
sg183
S'10.8'
p223
sg185
S'.333'
p224
sg187
S'.000'
p225
sg27
S'NBA'
p226
sg190
S'-6.1'
p227
sg192
S'0.0'
p228
sg194
S'0.0'
p229
sg39
S'24'
p230
sg41
S'ATL'
p231
sg43
g77
sg199
S'0.0'
p232
sg201
S'5.8'
p233
sg203
S'0.0'
p234
sg63
S'21'
p235
sg206
S'-8.5'
p236
sg55
S'1981-82'
p237
sg209
S'0.0'
p238
sbasS'_per36Minutes'
p239
(lp240
(isrc.gp1.models.Per36Minutes
Per36Minutes
p241
(dp242
g8
S'4.9'
p243
sg10
S'.000'
p244
sg12
S'0.0'
p245
sg14
S'1.1'
p246
sg16
S'6.1'
p247
sg18
S'0.1'
p248
sg20
g3
sg21
S'SF'
p249
sg23
S'3.6'
p250
sg27
S'NBA'
p251
sg29
S'0.3'
p252
sg31
S'.457'
p253
sg33
S'14.4'
p254
sg35
S'.603'
p255
sg37
S'1.7'
p256
sg39
S'23'
p257
sg41
S'ATL'
p258
sg43
S'55'
p259
sg45
S'3.7'
p260
sg47
S'13.4'
p261
sg49
S'3.6'
p262
sg51
S'.459'
p263
sg53
S'8.5'
p264
sg55
S'1980-81'
p265
sg57
S'13.5'
p266
sg59
S'7.9'
p267
sg61
S'2.2'
p268
sg63
S'6.1'
p269
sg65
S'586'
p270
sba(isrc.gp1.models.Per36Minutes
Per36Minutes
p271
(dp272
g8
S'3.4'
p273
sg10
S'0.0'
p274
sg12
S'.333'
p275
sg14
S'1.7'
p276
sg16
S'3.4'
p277
sg18
S'0.0'
p278
sg20
g3
sg21
S'SF'
p279
sg23
S'1.7'
p280
sg27
S'NBA'
p281
sg29
S'0.0'
p282
sg31
S'10.3'
p283
sg33
S'8.6'
p284
sg35
S'.500'
p285
sg37
S'0.0'
p286
sg39
S'24'
p287
sg41
S'ATL'
p288
sg43
g77
sg45
S'0.0'
p289
sg47
S'10.3'
p290
sg49
S'3.4'
p291
sg51
S'.333'
p292
sg53
S'5.1'
p293
sg55
S'1981-82'
p294
sg57
S'3.4'
p295
sg59
S'5.1'
p296
sg61
S'1.7'
p297
sg63
S'21'
p298
sg65
g13
sbasS'_fromYear'
p299
S'1981'
p300
sS'_url'
p301
S'http://www.basketball-reference.com/players/s/sheltcr01.html'
p302
sS'_perGame'
p303
(isrc.gp1.models.PerGame
PerGame
p304
(dp305
g8
S'0.5'
p306
sg10
S'0.0'
p307
sg12
S'.333'
p308
sS'_effectiveFieldGalPercentage'
p309
S'0.3'
p310
sg14
S'0.3'
p311
sg16
S'0.5'
p312
sg18
S'0.0'
p313
sg20
g3
sg21
S'SF'
p314
sg23
S'0.3'
p315
sg27
S'NBA'
p316
sg29
S'0.0'
p317
sg33
S'1.3'
p318
sS'_fieldGoalsttempted'
p319
S'1.5'
p320
sg35
S'.500'
p321
sg37
S'0.0'
p322
sg39
S'24'
p323
sg41
S'ATL'
p324
sg43
g77
sg45
S'0.0'
p325
sg47
S'1.5'
p326
sg49
S'0.5'
p327
sg51
S'.333'
p328
sg53
S'0.8'
p329
sg55
S'1981-82'
p330
sg57
S'0.5'
p331
sg59
S'0.8'
p332
sg61
S'.333'
p333
sg63
S'5.3'
p334
sg65
g13
sbsS'_weight'
p335
S'210'
p336
sS'_dob'
p337
S'1-5-1957'
p338
sS'_salary'
p339
(lp340
sg21
S'F'
p341
sb.