(isrc.gp1.models.Player
Player
p0
(dp1
S'_experience'
p2
S'NA'
p3
sS'_totals'
p4
(lp5
(isrc.gp1.models.Totals
Totals
p6
(dp7
S'_offensiveRebounds'
p8
S'1'
p9
sS'_threePointsAttempted'
p10
S'4'
p11
sS'_fieldGoalsPercentage'
p12
S'.300'
p13
sS'_assist'
p14
g9
sS'_threePointsPercentage'
p15
S'.250'
p16
sS'_threePoints'
p17
g9
sS'_points'
p18
S'9'
p19
sS'_position'
p20
S'SF'
p21
sS'_freeThrowsPercentage'
p22
S'1.000'
p23
sS'_effectiveFieldGoalPercentage'
p24
S'.350'
p25
sS'_league'
p26
S'NBA'
p27
sS'_steals'
p28
g9
sS'_fieldGoalsAttempted'
p29
S'10'
p30
sS'_personalFouls'
p31
S'2'
p32
sS'_freeThrowsAttempted'
p33
g32
sS'_totalRebounds'
p34
g11
sS'_age'
p35
S'22'
p36
sS'_team'
p37
S'NYK'
p38
sS'_games'
p39
g32
sS'_blocks'
p40
S'0'
p41
sS'_twoPoints'
p42
g32
sS'_freeThrows'
p43
g32
sS'_twoPointsAttempted'
p44
S'6'
p45
sS'_defensiveRebounds'
p46
S'3'
p47
sS'_season'
p48
S'2008-09'
p49
sS'_fieldGoals'
p50
g47
sS'_turnOvers'
p51
g41
sS'_twoPointsPercentage'
p52
S'.333'
p53
sS'_minutesPlayed'
p54
S'23'
p55
sS'_gamesStarted'
p56
g41
sbasS'_college'
p57
S'University of Kentucky'
p58
sS'_toYear'
p59
S'2009'
p60
sS'_height'
p61
S'6-5'
p62
sS'_active'
p63
I00
sS'_shootingHand'
p64
VRight
p65
sS'_name'
p66
S'Joe Crawford'
p67
sS'_per100Possessions'
p68
(lp69
(isrc.gp1.models.Per100Possession
Per100Possession
p70
(dp71
g8
S'2.2'
p72
sg10
S'8.6'
p73
sg12
S'.300'
p74
sS'_offensiveRating'
p75
S'99'
p76
sg14
S'2.2'
p77
sg15
S'.250'
p78
sg17
S'2.2'
p79
sg18
S'19.4'
p80
sg20
S'SF'
p81
sS'_defensiveRating'
p82
S'110'
p83
sg22
S'1.000'
p84
sg26
S'NBA'
p85
sg28
S'2.2'
p86
sg29
S'21.6'
p87
sg31
S'4.3'
p88
sg33
S'4.3'
p89
sg34
S'8.6'
p90
sg35
S'22'
p91
sg37
S'NYK'
p92
sg39
g32
sg40
S'0.0'
p93
sg42
S'4.3'
p94
sg43
S'4.3'
p95
sg44
S'12.9'
p96
sg46
S'6.5'
p97
sg48
S'2008-09'
p98
sg50
S'6.5'
p99
sg51
S'0.0'
p100
sg52
S'.333'
p101
sg54
S'23'
p102
sg56
g41
sbasS'_advanced'
p103
(lp104
(isrc.gp1.models.Advanced
Advanced
p105
(dp106
S'_offensiveReboundPercentage'
p107
S'4.6'
p108
sS'_turnOverPercentage'
p109
S'0.0'
p110
sS'_winSharesPer48Minutes'
p111
S'.037'
p112
sS'_stealPercentage'
p113
S'2.2'
p114
sS'_usagePercentage'
p115
S'20.6'
p116
sS'_totalReboundsPercentage'
p117
S'9.5'
p118
sS'_defensiveBoxPlusMinus'
p119
S'-2.6'
p120
sg20
S'SF'
p121
sS'_valueOverReplacementPlayer'
p122
S'0.0'
p123
sS'_trueShootingPercentage'
p124
S'.414'
p125
sS'_defensiveReboundPercentage'
p126
S'14.8'
p127
sS'_freeThrowsAttempRate'
p128
S'.200'
p129
sS'_threePointsAttempRate'
p130
S'.400'
p131
sg26
S'NBA'
p132
sS'_offensiveBoxPlusMinues'
p133
S'-3.0'
p134
sS'_assistPercentage'
p135
S'6.5'
p136
sS'_defensiveWinShares'
p137
S'0.0'
p138
sg35
S'22'
p139
sg37
S'NYK'
p140
sg39
g32
sS'_blockPercentage'
p141
S'0.0'
p142
sS'_playerEfficiencyRating'
p143
S'10.8'
p144
sS'_offensiveWinShares'
p145
S'0.0'
p146
sg54
S'23'
p147
sS'_boxPlusMinus'
p148
S'-5.6'
p149
sg48
S'2008-09'
p150
sS'_winShares'
p151
S'0.0'
p152
sbasS'_per36Minutes'
p153
(lp154
(isrc.gp1.models.Per36Minutes
Per36Minutes
p155
(dp156
g8
S'1.6'
p157
sg10
S'6.3'
p158
sg12
S'.300'
p159
sg14
S'1.6'
p160
sg15
S'.250'
p161
sg17
S'1.6'
p162
sg18
S'14.1'
p163
sg20
S'SF'
p164
sg22
S'1.000'
p165
sg26
S'NBA'
p166
sg28
S'1.6'
p167
sg29
S'15.7'
p168
sg31
S'3.1'
p169
sg33
S'3.1'
p170
sg34
S'6.3'
p171
sg35
S'22'
p172
sg37
S'NYK'
p173
sg39
g32
sg40
S'0.0'
p174
sg42
S'3.1'
p175
sg43
S'3.1'
p176
sg44
S'9.4'
p177
sg46
S'4.7'
p178
sg48
S'2008-09'
p179
sg50
S'4.7'
p180
sg51
S'0.0'
p181
sg52
S'.333'
p182
sg54
S'23'
p183
sg56
g41
sbasS'_fromYear'
p184
S'2009'
p185
sS'_url'
p186
S'http://www.basketball-reference.com/players/c/crawfjo01.html'
p187
sS'_perGame'
p188
(isrc.gp1.models.PerGame
PerGame
p189
(dp190
g8
S'0.5'
p191
sg10
S'2.0'
p192
sg12
S'.300'
p193
sS'_effectiveFieldGalPercentage'
p194
S'.350'
p195
sg14
S'0.5'
p196
sg15
S'.250'
p197
sg17
S'0.5'
p198
sg18
S'4.5'
p199
sg20
S'SF'
p200
sg22
S'1.000'
p201
sg26
S'NBA'
p202
sg28
S'0.5'
p203
sg31
S'1.0'
p204
sS'_fieldGoalsttempted'
p205
S'5.0'
p206
sg33
S'1.0'
p207
sg34
S'2.0'
p208
sg35
S'22'
p209
sg37
S'NYK'
p210
sg39
g32
sg40
S'0.0'
p211
sg42
S'1.0'
p212
sg43
S'1.0'
p213
sg44
S'3.0'
p214
sg46
S'1.5'
p215
sg48
S'2008-09'
p216
sg50
S'1.5'
p217
sg51
S'0.0'
p218
sg52
S'.333'
p219
sg54
S'11.5'
p220
sg56
g41
sbsS'_weight'
p221
S'210'
p222
sS'_dob'
p223
S'17-6-1986'
p224
sS'_salary'
p225
(lp226
sg20
S'F'
p227
sb.