(isrc.gp1.models.Player
Player
p0
(dp1
S'_experience'
p2
S'NA'
p3
sS'_totals'
p4
(lp5
(isrc.gp1.models.Totals
Totals
p6
(dp7
S'_offensiveRebounds'
p8
g3
sS'_threePointsAttempted'
p9
g3
sS'_fieldGoalsPercentage'
p10
S'.333'
p11
sS'_assist'
p12
S'0'
p13
sS'_threePointsPercentage'
p14
g3
sS'_threePoints'
p15
g3
sS'_points'
p16
S'6'
p17
sS'_position'
p18
g3
sS'_freeThrowsPercentage'
p19
S'1.000'
p20
sS'_effectiveFieldGoalPercentage'
p21
S'.333'
p22
sS'_league'
p23
S'BAA'
p24
sS'_steals'
p25
g3
sS'_fieldGoalsAttempted'
p26
g17
sS'_personalFouls'
p27
g17
sS'_freeThrowsAttempted'
p28
S'2'
p29
sS'_totalRebounds'
p30
g3
sS'_age'
p31
S'23'
p32
sS'_team'
p33
S'BOS'
p34
sS'_games'
p35
S'4'
p36
sS'_blocks'
p37
g3
sS'_twoPoints'
p38
g29
sS'_freeThrows'
p39
g29
sS'_twoPointsAttempted'
p40
g17
sS'_defensiveRebounds'
p41
g3
sS'_season'
p42
S'1946-47'
p43
sS'_fieldGoals'
p44
g29
sS'_turnOvers'
p45
g3
sS'_twoPointsPercentage'
p46
S'.333'
p47
sS'_minutesPlayed'
p48
g3
sS'_gamesStarted'
p49
g3
sbasS'_college'
p50
S'Iowa State University'
p51
sS'_toYear'
p52
S'1947'
p53
sS'_height'
p54
S'6-3'
p55
sS'_active'
p56
I00
sS'_shootingHand'
p57
VRight
p58
sS'_name'
p59
S'Hal Crisler'
p60
sS'_per100Possessions'
p61
(lp62
sS'_advanced'
p63
(lp64
(isrc.gp1.models.Advanced
Advanced
p65
(dp66
S'_offensiveReboundPercentage'
p67
g3
sS'_turnOverPercentage'
p68
g3
sS'_winSharesPer48Minutes'
p69
g3
sS'_stealPercentage'
p70
g3
sS'_usagePercentage'
p71
g3
sS'_totalReboundsPercentage'
p72
g3
sS'_defensiveBoxPlusMinus'
p73
g3
sg18
g3
sS'_valueOverReplacementPlayer'
p74
g3
sS'_trueShootingPercentage'
p75
S'.436'
p76
sS'_defensiveReboundPercentage'
p77
g3
sS'_freeThrowsAttempRate'
p78
S'.333'
p79
sS'_threePointsAttempRate'
p80
g3
sg23
S'BAA'
p81
sS'_offensiveBoxPlusMinues'
p82
g3
sS'_assistPercentage'
p83
g3
sS'_defensiveWinShares'
p84
S'0.0'
p85
sg31
S'23'
p86
sg33
S'BOS'
p87
sg35
g36
sS'_blockPercentage'
p88
g3
sS'_playerEfficiencyRating'
p89
g3
sS'_offensiveWinShares'
p90
S'0.1'
p91
sg48
g3
sS'_boxPlusMinus'
p92
g3
sg42
S'1946-47'
p93
sS'_winShares'
p94
S'0.1'
p95
sbasS'_per36Minutes'
p96
(lp97
(isrc.gp1.models.Per36Minutes
Per36Minutes
p98
(dp99
g8
g3
sg9
g3
sg10
S'.333'
p100
sg12
g3
sg14
g3
sg15
g3
sg16
g3
sg18
g3
sg19
S'1.000'
p101
sg23
S'BAA'
p102
sg25
g3
sg26
g3
sg27
g3
sg28
g3
sg30
g3
sg31
S'23'
p103
sg33
S'BOS'
p104
sg35
g36
sg37
g3
sg38
g3
sg39
g3
sg40
g3
sg41
g3
sg42
S'1946-47'
p105
sg44
g3
sg45
g3
sg46
S'.333'
p106
sg48
g3
sg49
g3
sbasS'_fromYear'
p107
S'1947'
p108
sS'_url'
p109
S'http://www.basketball-reference.com/players/c/crislha01.html'
p110
sS'_perGame'
p111
(isrc.gp1.models.PerGame
PerGame
p112
(dp113
g8
g3
sg9
g3
sg10
S'.333'
p114
sS'_effectiveFieldGalPercentage'
p115
S'.333'
p116
sg12
S'0.0'
p117
sg14
g3
sg15
g3
sg16
S'1.5'
p118
sg18
g3
sg19
S'1.000'
p119
sg23
S'BAA'
p120
sg25
g3
sg27
S'1.5'
p121
sS'_fieldGoalsttempted'
p122
S'1.5'
p123
sg28
S'0.5'
p124
sg30
g3
sg31
S'23'
p125
sg33
S'BOS'
p126
sg35
g36
sg37
g3
sg38
S'0.5'
p127
sg39
S'0.5'
p128
sg40
S'1.5'
p129
sg41
g3
sg42
S'1946-47'
p130
sg44
S'0.5'
p131
sg45
g3
sg46
S'.333'
p132
sg48
g3
sg49
g3
sbsS'_weight'
p133
S'215'
p134
sS'_dob'
p135
S'31-12-1923'
p136
sS'_salary'
p137
(lp138
sg18
S'F'
p139
sb.