(isrc.gp1.models.Player
Player
p0
(dp1
S'_experience'
p2
S'NA'
p3
sS'_totals'
p4
(lp5
(isrc.gp1.models.Totals
Totals
p6
(dp7
S'_offensiveRebounds'
p8
g3
sS'_threePointsAttempted'
p9
S'0'
p10
sS'_fieldGoalsPercentage'
p11
S'.125'
p12
sS'_assist'
p13
g10
sS'_threePointsPercentage'
p14
g3
sS'_threePoints'
p15
g10
sS'_points'
p16
S'3'
p17
sS'_position'
p18
g3
sS'_freeThrowsPercentage'
p19
S'.250'
p20
sS'_effectiveFieldGoalPercentage'
p21
S'.125'
p22
sS'_league'
p23
S'ABA'
p24
sS'_steals'
p25
g3
sS'_fieldGoalsAttempted'
p26
S'8'
p27
sS'_personalFouls'
p28
g10
sS'_freeThrowsAttempted'
p29
S'4'
p30
sS'_totalRebounds'
p31
S'2'
p32
sS'_age'
p33
S'27'
p34
sS'_team'
p35
S'ANA'
p36
sS'_games'
p37
S'1'
p38
sS'_blocks'
p39
g3
sS'_twoPoints'
p40
g38
sS'_freeThrows'
p41
g38
sS'_twoPointsAttempted'
p42
g27
sS'_defensiveRebounds'
p43
g3
sS'_season'
p44
S'1967-68'
p45
sS'_fieldGoals'
p46
g38
sS'_turnOvers'
p47
g38
sS'_twoPointsPercentage'
p48
S'.125'
p49
sS'_minutesPlayed'
p50
S'16'
p51
sS'_gamesStarted'
p52
g3
sbasS'_college'
p53
S'Westminster College of Utah'
p54
sS'_toYear'
p55
S'1968'
p56
sS'_height'
p57
S'6-1'
p58
sS'_active'
p59
I00
sS'_shootingHand'
p60
VRight
p61
sS'_name'
p62
S'Bill Crow'
p63
sS'_per100Possessions'
p64
(lp65
sS'_advanced'
p66
(lp67
(isrc.gp1.models.Advanced
Advanced
p68
(dp69
S'_offensiveReboundPercentage'
p70
g3
sS'_turnOverPercentage'
p71
S'9.3'
p72
sS'_winSharesPer48Minutes'
p73
S'-0.461'
p74
sS'_stealPercentage'
p75
g3
sS'_usagePercentage'
p76
S'24.3'
p77
sS'_totalReboundsPercentage'
p78
S'5.5'
p79
sS'_defensiveBoxPlusMinus'
p80
g3
sg18
g3
sS'_valueOverReplacementPlayer'
p81
g3
sS'_trueShootingPercentage'
p82
S'.154'
p83
sS'_defensiveReboundPercentage'
p84
g3
sS'_freeThrowsAttempRate'
p85
S'.500'
p86
sS'_threePointsAttempRate'
p87
S'.000'
p88
sg23
S'ABA'
p89
sS'_offensiveBoxPlusMinues'
p90
g3
sS'_assistPercentage'
p91
S'0.0'
p92
sS'_defensiveWinShares'
p93
S'0.0'
p94
sg33
S'27'
p95
sg35
S'ANA'
p96
sg37
g38
sS'_blockPercentage'
p97
g3
sS'_playerEfficiencyRating'
p98
S'-12.3'
p99
sS'_offensiveWinShares'
p100
S'-0.2'
p101
sg50
S'16'
p102
sS'_boxPlusMinus'
p103
g3
sg44
S'1967-68'
p104
sS'_winShares'
p105
S'-0.2'
p106
sbasS'_per36Minutes'
p107
(lp108
(isrc.gp1.models.Per36Minutes
Per36Minutes
p109
(dp110
g8
g3
sg9
S'0.0'
p111
sg11
S'.125'
p112
sg13
S'0.0'
p113
sg14
g3
sg15
S'0.0'
p114
sg16
S'6.8'
p115
sg18
g3
sg19
S'.250'
p116
sg23
S'ABA'
p117
sg25
g3
sg26
S'18.0'
p118
sg28
S'0.0'
p119
sg29
S'9.0'
p120
sg31
S'4.5'
p121
sg33
S'27'
p122
sg35
S'ANA'
p123
sg37
g38
sg39
g3
sg40
S'2.3'
p124
sg41
S'2.3'
p125
sg42
S'18.0'
p126
sg43
g3
sg44
S'1967-68'
p127
sg46
S'2.3'
p128
sg47
S'2.3'
p129
sg48
S'.125'
p130
sg50
S'16'
p131
sg52
g3
sbasS'_fromYear'
p132
S'1968'
p133
sS'_url'
p134
S'http://www.basketball-reference.com/players/c/crowbi01.html'
p135
sS'_perGame'
p136
(isrc.gp1.models.PerGame
PerGame
p137
(dp138
g8
g3
sg9
S'0.0'
p139
sg11
S'.125'
p140
sS'_effectiveFieldGalPercentage'
p141
S'.125'
p142
sg13
S'0.0'
p143
sg14
g3
sg15
S'0.0'
p144
sg16
S'3.0'
p145
sg18
g3
sg19
S'.250'
p146
sg23
S'ABA'
p147
sg25
g3
sg28
S'0.0'
p148
sS'_fieldGoalsttempted'
p149
S'8.0'
p150
sg29
S'4.0'
p151
sg31
S'2.0'
p152
sg33
S'27'
p153
sg35
S'ANA'
p154
sg37
g38
sg39
g3
sg40
S'1.0'
p155
sg41
S'1.0'
p156
sg42
S'8.0'
p157
sg43
g3
sg44
S'1967-68'
p158
sg46
S'1.0'
p159
sg47
S'1.0'
p160
sg48
S'.125'
p161
sg50
S'16.0'
p162
sg52
g3
sbsS'_weight'
p163
S'180'
p164
sS'_dob'
p165
S'9-12-1940'
p166
sS'_salary'
p167
(lp168
sg18
S'G'
p169
sb.