(isrc.gp1.models.Player
Player
p0
(dp1
S'_experience'
p2
V3
p3
sS'_totals'
p4
(lp5
(isrc.gp1.models.Totals
Totals
p6
(dp7
S'_offensiveRebounds'
p8
S'1'
p9
sS'_threePointsAttempted'
p10
S'3'
p11
sS'_fieldGoalsPercentage'
p12
S'.429'
p13
sS'_assist'
p14
g9
sS'_threePointsPercentage'
p15
S'.667'
p16
sS'_threePoints'
p17
S'2'
p18
sS'_points'
p19
S'16'
p20
sS'_position'
p21
S'SG'
p22
sS'_freeThrowsPercentage'
p23
S'1.000'
p24
sS'_effectiveFieldGoalPercentage'
p25
S'.500'
p26
sS'_league'
p27
S'NBA'
p28
sS'_steals'
p29
g9
sS'_fieldGoalsAttempted'
p30
S'14'
p31
sS'_personalFouls'
p32
g11
sS'_freeThrowsAttempted'
p33
g18
sS'_totalRebounds'
p34
g11
sS'_age'
p35
S'21'
p36
sS'_team'
p37
S'DAL'
p38
sS'_games'
p39
S'8'
p40
sS'_blocks'
p41
S'0'
p42
sS'_twoPoints'
p43
S'4'
p44
sS'_freeThrows'
p45
g18
sS'_twoPointsAttempted'
p46
S'11'
p47
sS'_defensiveRebounds'
p48
g18
sS'_season'
p49
S'2012-13'
p50
sS'_fieldGoals'
p51
S'6'
p52
sS'_turnOvers'
p53
g18
sS'_twoPointsPercentage'
p54
S'.364'
p55
sS'_minutesPlayed'
p56
S'26'
p57
sS'_gamesStarted'
p58
g42
sba(isrc.gp1.models.Totals
Totals
p59
(dp60
g8
g9
sg10
S'7'
p61
sg12
S'.286'
p62
sg14
g40
sg15
S'.143'
p63
sg17
g9
sg19
S'26'
p64
sg21
S'SG'
p65
sg23
S'.813'
p66
sg25
S'.310'
p67
sg27
S'NBA'
p68
sg29
g11
sg30
S'21'
p69
sg32
S'16'
p70
sg33
S'16'
p71
sg34
g52
sg35
S'22'
p72
sg37
S'TOT'
p73
sg39
S'13'
p74
sg41
g42
sg43
S'5'
p75
sg45
S'13'
p76
sg46
S'14'
p77
sg48
g75
sg49
S'2013-14'
p78
sg51
g52
sg53
g18
sg54
S'.357'
p79
sg56
S'80'
p80
sg58
g42
sba(isrc.gp1.models.Totals
Totals
p81
(dp82
g8
g42
sg10
g9
sg12
S'.500'
p83
sg14
g11
sg15
S'.000'
p84
sg17
g42
sg19
g18
sg21
S'SG'
p85
sg23
S'.000'
p86
sg25
S'.500'
p87
sg27
S'NBA'
p88
sg29
g42
sg30
g18
sg32
g11
sg33
g18
sg34
g9
sg35
S'22'
p89
sg37
S'ATL'
p90
sg39
g75
sg41
g42
sg43
g9
sg45
g42
sg46
g9
sg48
g9
sg49
S'2013-14'
p91
sg51
g9
sg53
g18
sg54
S'1.000'
p92
sg56
S'22'
p93
sg58
g42
sba(isrc.gp1.models.Totals
Totals
p94
(dp95
g8
g9
sg10
g52
sg12
S'.263'
p96
sg14
g75
sg15
S'.167'
p97
sg17
g9
sg19
S'24'
p98
sg21
S'SG'
p99
sg23
S'.929'
p100
sg25
S'.289'
p101
sg27
S'NBA'
p102
sg29
g11
sg30
S'19'
p103
sg32
S'13'
p104
sg33
S'14'
p105
sg34
g75
sg35
S'22'
p106
sg37
S'SAC'
p107
sg39
g40
sg41
g42
sg43
g44
sg45
S'13'
p108
sg46
S'13'
p109
sg48
g44
sg49
S'2013-14'
p110
sg51
g75
sg53
g42
sg54
S'.308'
p111
sg56
S'58'
p112
sg58
g42
sba(isrc.gp1.models.Totals
Totals
p113
(dp114
g8
g9
sg10
S'13'
p115
sg12
S'.364'
p116
sg14
S'10'
p117
sg15
S'.308'
p118
sg17
g44
sg19
S'35'
p119
sg21
S'SG'
p120
sg23
S'.538'
p121
sg25
S'.424'
p122
sg27
S'NBA'
p123
sg29
g11
sg30
S'33'
p124
sg32
S'12'
p125
sg33
S'13'
p126
sg34
S'9'
p127
sg35
S'23'
p128
sg37
S'LAC'
p129
sg39
S'19'
p130
sg41
g42
sg43
g40
sg45
g61
sg46
S'20'
p131
sg48
g40
sg49
S'2014-15'
p132
sg51
S'12'
p133
sg53
g61
sg54
S'.400'
p134
sg56
S'89'
p135
sg58
g42
sba(isrc.gp1.models.Totals
Totals
p136
(dp137
g8
g11
sg10
S'31'
p138
sg12
S'.356'
p139
sg14
S'19'
p140
sg15
S'.323'
p141
sg17
S'10'
p142
sg19
S'104'
p143
sg21
S'SG'
p144
sg23
S'.625'
p145
sg25
S'.411'
p146
sg27
S'NBA'
p147
sg29
S'11'
p148
sg30
S'90'
p149
sg32
S'37'
p150
sg33
S'48'
p151
sg34
S'29'
p152
sg35
S'24'
p153
sg37
S'CLE'
p154
sg39
S'37'
p155
sg41
g18
sg43
S'22'
p156
sg45
S'30'
p157
sg46
S'59'
p158
sg48
S'26'
p159
sg49
S'2015-16'
p160
sg51
S'32'
p161
sg53
S'16'
p162
sg54
S'.373'
p163
sg56
S'350'
p164
sg58
g11
sbasS'_college'
p165
S'Oregon State University'
p166
sS'_toYear'
p167
S'2016'
p168
sS'_height'
p169
S'6-4'
p170
sS'_active'
p171
I01
sS'_shootingHand'
p172
VRight
p173
sS'_name'
p174
S'Jared Cunningham'
p175
sS'_per100Possessions'
p176
(lp177
(isrc.gp1.models.Per100Possession
Per100Possession
p178
(dp179
g8
S'2.0'
p180
sg10
S'5.9'
p181
sg12
S'.429'
p182
sS'_offensiveRating'
p183
S'98'
p184
sg14
S'2.0'
p185
sg15
S'.667'
p186
sg17
S'3.9'
p187
sg19
S'31.4'
p188
sg21
S'SG'
p189
sS'_defensiveRating'
p190
S'109'
p191
sg23
S'1.000'
p192
sg27
S'NBA'
p193
sg29
S'2.0'
p194
sg30
S'27.5'
p195
sg32
S'5.9'
p196
sg33
S'3.9'
p197
sg34
S'5.9'
p198
sg35
S'21'
p199
sg37
S'DAL'
p200
sg39
g40
sg41
S'0.0'
p201
sg43
S'7.9'
p202
sg45
S'3.9'
p203
sg46
S'21.6'
p204
sg48
S'3.9'
p205
sg49
S'2012-13'
p206
sg51
S'11.8'
p207
sg53
S'3.9'
p208
sg54
S'.364'
p209
sg56
S'26'
p210
sg58
g42
sba(isrc.gp1.models.Per100Possession
Per100Possession
p211
(dp212
g8
S'0.6'
p213
sg10
S'4.4'
p214
sg12
S'.286'
p215
sg183
S'108'
p216
sg14
S'5.1'
p217
sg15
S'.143'
p218
sg17
S'0.6'
p219
sg19
S'16.5'
p220
sg21
S'SG'
p221
sg190
S'110'
p222
sg23
S'.813'
p223
sg27
S'NBA'
p224
sg29
S'1.9'
p225
sg30
S'13.3'
p226
sg32
S'10.2'
p227
sg33
S'10.2'
p228
sg34
S'3.8'
p229
sg35
S'22'
p230
sg37
S'TOT'
p231
sg39
S'13'
p232
sg41
S'0.0'
p233
sg43
S'3.2'
p234
sg45
S'8.3'
p235
sg46
S'8.9'
p236
sg48
S'3.2'
p237
sg49
S'2013-14'
p238
sg51
S'3.8'
p239
sg53
S'1.3'
p240
sg54
S'.357'
p241
sg56
S'80'
p242
sg58
g42
sba(isrc.gp1.models.Per100Possession
Per100Possession
p243
(dp244
g8
S'0.0'
p245
sg10
S'2.3'
p246
sg12
S'.500'
p247
sg183
S'64'
p248
sg14
S'6.9'
p249
sg15
S'.000'
p250
sg17
S'0.0'
p251
sg19
S'4.6'
p252
sg21
S'SG'
p253
sg190
S'114'
p254
sg23
S'.000'
p255
sg27
S'NBA'
p256
sg29
S'0.0'
p257
sg30
S'4.6'
p258
sg32
S'6.9'
p259
sg33
S'4.6'
p260
sg34
S'2.3'
p261
sg35
S'22'
p262
sg37
S'ATL'
p263
sg39
g75
sg41
S'0.0'
p264
sg43
S'2.3'
p265
sg45
S'0.0'
p266
sg46
S'2.3'
p267
sg48
S'2.3'
p268
sg49
S'2013-14'
p269
sg51
S'2.3'
p270
sg53
S'4.6'
p271
sg54
S'1.000'
p272
sg56
S'22'
p273
sg58
g42
sba(isrc.gp1.models.Per100Possession
Per100Possession
p274
(dp275
g8
S'0.9'
p276
sg10
S'5.3'
p277
sg12
S'.263'
p278
sg183
S'119'
p279
sg14
S'4.4'
p280
sg15
S'.167'
p281
sg17
S'0.9'
p282
sg19
S'21.1'
p283
sg21
S'SG'
p284
sg190
S'109'
p285
sg23
S'.929'
p286
sg27
S'NBA'
p287
sg29
S'2.6'
p288
sg30
S'16.7'
p289
sg32
S'11.4'
p290
sg33
S'12.3'
p291
sg34
S'4.4'
p292
sg35
S'22'
p293
sg37
S'SAC'
p294
sg39
g40
sg41
S'0.0'
p295
sg43
S'3.5'
p296
sg45
S'11.4'
p297
sg46
S'11.4'
p298
sg48
S'3.5'
p299
sg49
S'2013-14'
p300
sg51
S'4.4'
p301
sg53
S'0.0'
p302
sg54
S'.308'
p303
sg56
S'58'
p304
sg58
g42
sba(isrc.gp1.models.Per100Possession
Per100Possession
p305
(dp306
g8
S'0.6'
p307
sg10
S'7.4'
p308
sg12
S'.364'
p309
sg183
S'88'
p310
sg14
S'5.7'
p311
sg15
S'.308'
p312
sg17
S'2.3'
p313
sg19
S'19.9'
p314
sg21
S'SG'
p315
sg190
S'108'
p316
sg23
S'.538'
p317
sg27
S'NBA'
p318
sg29
S'1.7'
p319
sg30
S'18.8'
p320
sg32
S'6.8'
p321
sg33
S'7.4'
p322
sg34
S'5.1'
p323
sg35
S'23'
p324
sg37
S'LAC'
p325
sg39
S'19'
p326
sg41
S'0.0'
p327
sg43
S'4.6'
p328
sg45
S'4.0'
p329
sg46
S'11.4'
p330
sg48
S'4.6'
p331
sg49
S'2014-15'
p332
sg51
S'6.8'
p333
sg53
S'4.0'
p334
sg54
S'.400'
p335
sg56
S'89'
p336
sg58
g42
sba(isrc.gp1.models.Per100Possession
Per100Possession
p337
(dp338
g8
S'0.4'
p339
sg10
S'4.6'
p340
sg12
S'.356'
p341
sg183
S'93'
p342
sg14
S'2.8'
p343
sg15
S'.323'
p344
sg17
S'1.5'
p345
sg19
S'15.4'
p346
sg21
S'SG'
p347
sg190
S'106'
p348
sg23
S'.625'
p349
sg27
S'NBA'
p350
sg29
S'1.6'
p351
sg30
S'13.3'
p352
sg32
S'5.5'
p353
sg33
S'7.1'
p354
sg34
S'4.3'
p355
sg35
S'24'
p356
sg37
S'CLE'
p357
sg39
S'37'
p358
sg41
S'0.3'
p359
sg43
S'3.3'
p360
sg45
S'4.4'
p361
sg46
S'8.7'
p362
sg48
S'3.8'
p363
sg49
S'2015-16'
p364
sg51
S'4.7'
p365
sg53
S'2.4'
p366
sg54
S'.373'
p367
sg56
S'350'
p368
sg58
g11
sbasS'_advanced'
p369
(lp370
(isrc.gp1.models.Advanced
Advanced
p371
(dp372
S'_offensiveReboundPercentage'
p373
S'4.4'
p374
sS'_turnOverPercentage'
p375
S'11.8'
p376
sS'_winSharesPer48Minutes'
p377
S'.033'
p378
sS'_stealPercentage'
p379
S'2.0'
p380
sS'_usagePercentage'
p381
S'29.6'
p382
sS'_totalReboundsPercentage'
p383
S'6.4'
p384
sS'_defensiveBoxPlusMinus'
p385
S'-4.5'
p386
sg21
S'SG'
p387
sS'_valueOverReplacementPlayer'
p388
S'0.0'
p389
sS'_trueShootingPercentage'
p390
S'.538'
p391
sS'_defensiveReboundPercentage'
p392
S'8.4'
p393
sS'_freeThrowsAttempRate'
p394
S'.143'
p395
sS'_threePointsAttempRate'
p396
S'.214'
p397
sg27
S'NBA'
p398
sS'_offensiveBoxPlusMinues'
p399
S'-1.8'
p400
sS'_assistPercentage'
p401
S'6.8'
p402
sS'_defensiveWinShares'
p403
S'0.0'
p404
sg35
S'21'
p405
sg37
S'DAL'
p406
sg39
g40
sS'_blockPercentage'
p407
S'0.0'
p408
sS'_playerEfficiencyRating'
p409
S'14.8'
p410
sS'_offensiveWinShares'
p411
S'0.0'
p412
sg56
S'26'
p413
sS'_boxPlusMinus'
p414
S'-6.3'
p415
sg49
S'2012-13'
p416
sS'_winShares'
p417
S'0.0'
p418
sba(isrc.gp1.models.Advanced
Advanced
p419
(dp420
g373
S'1.4'
p421
sg375
S'6.7'
p422
sg377
S'.075'
p423
sg379
S'1.9'
p424
sg381
S'16.6'
p425
sg383
S'4.3'
p426
sg385
S'-2.7'
p427
sg21
S'SG'
p428
sg388
S'-0.1'
p429
sg390
S'.464'
p430
sg392
S'7.2'
p431
sg394
S'.762'
p432
sg396
S'.333'
p433
sg27
S'NBA'
p434
sg399
S'-2.4'
p435
sg401
S'14.4'
p436
sg403
S'0.0'
p437
sg35
S'22'
p438
sg37
S'TOT'
p439
sg39
S'13'
p440
sg407
S'0.0'
p441
sg409
S'8.5'
p442
sg411
S'0.1'
p443
sg56
S'80'
p444
sg414
S'-5.1'
p445
sg49
S'2013-14'
p446
sg417
S'0.1'
p447
sba(isrc.gp1.models.Advanced
Advanced
p448
(dp449
g373
S'0.0'
p450
sg375
S'41.0'
p451
sg377
S'-0.110'
p452
sg379
S'0.0'
p453
sg381
S'10.1'
p454
sg383
S'2.6'
p455
sg385
S'-3.5'
p456
sg21
S'SG'
p457
sg388
S'-0.1'
p458
sg390
S'.347'
p459
sg392
S'5.2'
p460
sg394
S'1.000'
p461
sg396
S'.500'
p462
sg27
S'NBA'
p463
sg399
S'-8.8'
p464
sg401
S'18.8'
p465
sg403
S'0.0'
p466
sg35
S'22'
p467
sg37
S'ATL'
p468
sg39
g75
sg407
S'0.0'
p469
sg409
S'-1.8'
p470
sg411
S'-0.1'
p471
sg56
S'22'
p472
sg414
S'-12.4'
p473
sg49
S'2013-14'
p474
sg417
S'-0.1'
p475
sba(isrc.gp1.models.Advanced
Advanced
p476
(dp477
g373
S'1.9'
p478
sg375
S'0.0'
p479
sg377
S'.145'
p480
sg379
S'2.6'
p481
sg381
S'19.1'
p482
sg383
S'4.9'
p483
sg385
S'-2.3'
p484
sg21
S'SG'
p485
sg388
S'0.0'
p486
sg390
S'.477'
p487
sg392
S'7.9'
p488
sg394
S'.737'
p489
sg396
S'.316'
p490
sg27
S'NBA'
p491
sg399
S'0.0'
p492
sg401
S'12.7'
p493
sg403
S'0.0'
p494
sg35
S'22'
p495
sg37
S'SAC'
p496
sg39
g40
sg407
S'0.0'
p497
sg409
S'12.4'
p498
sg411
S'0.1'
p499
sg56
S'58'
p500
sg414
S'-2.3'
p501
sg49
S'2013-14'
p502
sg417
S'0.2'
p503
sba(isrc.gp1.models.Advanced
Advanced
p504
(dp505
g373
S'1.3'
p506
sg375
S'15.3'
p507
sg377
S'-0.023'
p508
sg379
S'1.7'
p509
sg381
S'23.2'
p510
sg383
S'5.7'
p511
sg385
S'-2.7'
p512
sg21
S'SG'
p513
sg388
S'-0.1'
p514
sg390
S'.452'
p515
sg392
S'9.9'
p516
sg394
S'.394'
p517
sg396
S'.394'
p518
sg27
S'NBA'
p519
sg399
S'-4.0'
p520
sg401
S'16.4'
p521
sg403
S'0.1'
p522
sg35
S'23'
p523
sg37
S'LAC'
p524
sg39
S'19'
p525
sg407
S'0.0'
p526
sg409
S'7.3'
p527
sg411
S'-0.1'
p528
sg56
S'89'
p529
sg414
S'-6.7'
p530
sg49
S'2014-15'
p531
sg417
S'0.0'
p532
sba(isrc.gp1.models.Advanced
Advanced
p533
(dp534
g373
S'1.0'
p535
sg375
S'12.6'
p536
sg377
S'.032'
p537
sg379
S'1.6'
p538
sg381
S'16.5'
p539
sg383
S'4.7'
p540
sg385
S'-1.0'
p541
sg21
S'SG'
p542
sg388
S'-0.3'
p543
sg390
S'.468'
p544
sg392
S'8.4'
p545
sg394
S'.533'
p546
sg396
S'.344'
p547
sg27
S'NBA'
p548
sg399
S'-3.9'
p549
sg401
S'7.8'
p550
sg403
S'0.4'
p551
sg35
S'24'
p552
sg37
S'CLE'
p553
sg39
S'37'
p554
sg407
S'0.5'
p555
sg409
S'6.5'
p556
sg411
S'-0.1'
p557
sg56
S'350'
p558
sg414
S'-4.9'
p559
sg49
S'2015-16'
p560
sg417
S'0.2'
p561
sbasS'_per36Minutes'
p562
(lp563
(isrc.gp1.models.Per36Minutes
Per36Minutes
p564
(dp565
g8
S'1.4'
p566
sg10
S'4.2'
p567
sg12
S'.429'
p568
sg14
S'1.4'
p569
sg15
S'.667'
p570
sg17
S'2.8'
p571
sg19
S'22.2'
p572
sg21
S'SG'
p573
sg23
S'1.000'
p574
sg27
S'NBA'
p575
sg29
S'1.4'
p576
sg30
S'19.4'
p577
sg32
S'4.2'
p578
sg33
S'2.8'
p579
sg34
S'4.2'
p580
sg35
S'21'
p581
sg37
S'DAL'
p582
sg39
g40
sg41
S'0.0'
p583
sg43
S'5.5'
p584
sg45
S'2.8'
p585
sg46
S'15.2'
p586
sg48
S'2.8'
p587
sg49
S'2012-13'
p588
sg51
S'8.3'
p589
sg53
S'2.8'
p590
sg54
S'.364'
p591
sg56
S'26'
p592
sg58
g42
sba(isrc.gp1.models.Per36Minutes
Per36Minutes
p593
(dp594
g8
S'0.5'
p595
sg10
S'3.2'
p596
sg12
S'.286'
p597
sg14
S'3.6'
p598
sg15
S'.143'
p599
sg17
S'0.5'
p600
sg19
S'11.7'
p601
sg21
S'SG'
p602
sg23
S'.813'
p603
sg27
S'NBA'
p604
sg29
S'1.4'
p605
sg30
S'9.5'
p606
sg32
S'7.2'
p607
sg33
S'7.2'
p608
sg34
S'2.7'
p609
sg35
S'22'
p610
sg37
S'TOT'
p611
sg39
S'13'
p612
sg41
S'0.0'
p613
sg43
S'2.3'
p614
sg45
S'5.9'
p615
sg46
S'6.3'
p616
sg48
S'2.3'
p617
sg49
S'2013-14'
p618
sg51
S'2.7'
p619
sg53
S'0.9'
p620
sg54
S'.357'
p621
sg56
S'80'
p622
sg58
g42
sba(isrc.gp1.models.Per36Minutes
Per36Minutes
p623
(dp624
g8
S'0.0'
p625
sg10
S'1.6'
p626
sg12
S'.500'
p627
sg14
S'4.9'
p628
sg15
S'.000'
p629
sg17
S'0.0'
p630
sg19
S'3.3'
p631
sg21
S'SG'
p632
sg23
S'.000'
p633
sg27
S'NBA'
p634
sg29
S'0.0'
p635
sg30
S'3.3'
p636
sg32
S'4.9'
p637
sg33
S'3.3'
p638
sg34
S'1.6'
p639
sg35
S'22'
p640
sg37
S'ATL'
p641
sg39
g75
sg41
S'0.0'
p642
sg43
S'1.6'
p643
sg45
S'0.0'
p644
sg46
S'1.6'
p645
sg48
S'1.6'
p646
sg49
S'2013-14'
p647
sg51
S'1.6'
p648
sg53
S'3.3'
p649
sg54
S'1.000'
p650
sg56
S'22'
p651
sg58
g42
sba(isrc.gp1.models.Per36Minutes
Per36Minutes
p652
(dp653
g8
S'0.6'
p654
sg10
S'3.7'
p655
sg12
S'.263'
p656
sg14
S'3.1'
p657
sg15
S'.167'
p658
sg17
S'0.6'
p659
sg19
S'14.9'
p660
sg21
S'SG'
p661
sg23
S'.929'
p662
sg27
S'NBA'
p663
sg29
S'1.9'
p664
sg30
S'11.8'
p665
sg32
S'8.1'
p666
sg33
S'8.7'
p667
sg34
S'3.1'
p668
sg35
S'22'
p669
sg37
S'SAC'
p670
sg39
g40
sg41
S'0.0'
p671
sg43
S'2.5'
p672
sg45
S'8.1'
p673
sg46
S'8.1'
p674
sg48
S'2.5'
p675
sg49
S'2013-14'
p676
sg51
S'3.1'
p677
sg53
S'0.0'
p678
sg54
S'.308'
p679
sg56
S'58'
p680
sg58
g42
sba(isrc.gp1.models.Per36Minutes
Per36Minutes
p681
(dp682
g8
S'0.4'
p683
sg10
S'5.3'
p684
sg12
S'.364'
p685
sg14
S'4.0'
p686
sg15
S'.308'
p687
sg17
S'1.6'
p688
sg19
S'14.2'
p689
sg21
S'SG'
p690
sg23
S'.538'
p691
sg27
S'NBA'
p692
sg29
S'1.2'
p693
sg30
S'13.3'
p694
sg32
S'4.9'
p695
sg33
S'5.3'
p696
sg34
S'3.6'
p697
sg35
S'23'
p698
sg37
S'LAC'
p699
sg39
S'19'
p700
sg41
S'0.0'
p701
sg43
S'3.2'
p702
sg45
S'2.8'
p703
sg46
S'8.1'
p704
sg48
S'3.2'
p705
sg49
S'2014-15'
p706
sg51
S'4.9'
p707
sg53
S'2.8'
p708
sg54
S'.400'
p709
sg56
S'89'
p710
sg58
g42
sba(isrc.gp1.models.Per36Minutes
Per36Minutes
p711
(dp712
g8
S'0.3'
p713
sg10
S'3.2'
p714
sg12
S'.356'
p715
sg14
S'2.0'
p716
sg15
S'.323'
p717
sg17
S'1.0'
p718
sg19
S'10.7'
p719
sg21
S'SG'
p720
sg23
S'.625'
p721
sg27
S'NBA'
p722
sg29
S'1.1'
p723
sg30
S'9.3'
p724
sg32
S'3.8'
p725
sg33
S'4.9'
p726
sg34
S'3.0'
p727
sg35
S'24'
p728
sg37
S'CLE'
p729
sg39
S'37'
p730
sg41
S'0.2'
p731
sg43
S'2.3'
p732
sg45
S'3.1'
p733
sg46
S'6.1'
p734
sg48
S'2.7'
p735
sg49
S'2015-16'
p736
sg51
S'3.3'
p737
sg53
S'1.6'
p738
sg54
S'.373'
p739
sg56
S'350'
p740
sg58
g11
sbasS'_fromYear'
p741
S'2013'
p742
sS'_url'
p743
S'http://www.basketball-reference.com/players/c/cunnija01.html'
p744
sS'_perGame'
p745
(isrc.gp1.models.PerGame
PerGame
p746
(dp747
g8
S'0.1'
p748
sg10
S'0.8'
p749
sg12
S'.356'
p750
sS'_effectiveFieldGalPercentage'
p751
S'.411'
p752
sg14
S'0.5'
p753
sg15
S'.323'
p754
sg17
S'0.3'
p755
sg19
S'2.8'
p756
sg21
S'SG'
p757
sg23
S'.625'
p758
sg27
S'NBA'
p759
sg29
S'0.3'
p760
sg32
S'1.0'
p761
sS'_fieldGoalsttempted'
p762
S'2.4'
p763
sg33
S'1.3'
p764
sg34
S'0.8'
p765
sg35
S'24'
p766
sg37
S'CLE'
p767
sg39
S'37'
p768
sg41
S'0.1'
p769
sg43
S'0.6'
p770
sg45
S'0.8'
p771
sg46
S'1.6'
p772
sg48
S'0.7'
p773
sg49
S'2015-16'
p774
sg51
S'0.9'
p775
sg53
S'0.4'
p776
sg54
S'.373'
p777
sg56
S'9.5'
p778
sg58
g11
sbsS'_weight'
p779
S'195'
p780
sS'_dob'
p781
S'22-5-1991'
p782
sS'_salary'
p783
(lp784
(isrc.gp1.models.Salary
Salary
p785
(dp786
g37
S'Dallas Mavericks'
p787
sg27
S'NBA'
p788
sg783
S'$1,156,320'
p789
sg49
S'2012-13'
p790
sba(isrc.gp1.models.Salary
Salary
p791
(dp792
g37
S'Atlanta Hawks'
p793
sg27
S'NBA'
p794
sg783
S'$1,208,400'
p795
sg49
S'2013-14'
p796
sbasg21
S'G'
p797
sb.