(isrc.gp1.models.Player
Player
p0
(dp1
S'_experience'
p2
S'NA'
p3
sS'_totals'
p4
(lp5
(isrc.gp1.models.Totals
Totals
p6
(dp7
S'_offensiveRebounds'
p8
S'87'
p9
sS'_threePointsAttempted'
p10
S'25'
p11
sS'_fieldGoalsPercentage'
p12
S'.466'
p13
sS'_assist'
p14
S'280'
p15
sS'_threePointsPercentage'
p16
S'.200'
p17
sS'_threePoints'
p18
S'5'
p19
sS'_points'
p20
S'1151'
p21
sS'_position'
p22
S'SG'
p23
sS'_freeThrowsPercentage'
p24
S'.730'
p25
sS'_effectiveFieldGoalPercentage'
p26
S'.469'
p27
sS'_league'
p28
S'NBA'
p29
sS'_steals'
p30
S'72'
p31
sS'_fieldGoalsAttempted'
p32
S'1008'
p33
sS'_personalFouls'
p34
S'248'
p35
sS'_freeThrowsAttempted'
p36
S'282'
p37
sS'_totalRebounds'
p38
S'260'
p39
sS'_age'
p40
S'22'
p41
sS'_team'
p42
S'CHI'
p43
sS'_games'
p44
S'76'
p45
sS'_blocks'
p46
S'10'
p47
sS'_twoPoints'
p48
S'465'
p49
sS'_freeThrows'
p50
S'206'
p51
sS'_twoPointsAttempted'
p52
S'983'
p53
sS'_defensiveRebounds'
p54
S'173'
p55
sS'_season'
p56
S'1982-83'
p57
sS'_fieldGoals'
p58
S'470'
p59
sS'_turnOvers'
p60
S'205'
p61
sS'_twoPointsPercentage'
p62
S'.473'
p63
sS'_minutesPlayed'
p64
S'2081'
p65
sS'_gamesStarted'
p66
S'32'
p67
sba(isrc.gp1.models.Totals
Totals
p68
(dp69
g8
S'61'
p70
sg10
S'32'
p71
sg12
S'.474'
p72
sg14
S'254'
p73
sg16
S'.125'
p74
sg18
S'4'
p75
sg20
S'1491'
p76
sg22
S'SG'
p77
sg24
S'.811'
p78
sg26
S'.476'
p79
sg28
S'NBA'
p80
sg30
S'109'
p81
sg32
S'1229'
p82
sg34
S'218'
p83
sg36
S'396'
p84
sg38
S'235'
p85
sg40
S'23'
p86
sg42
S'CHI'
p87
sg44
S'82'
p88
sg46
S'11'
p89
sg48
S'579'
p90
sg50
S'321'
p91
sg52
S'1197'
p92
sg54
S'174'
p93
sg56
S'1983-84'
p94
sg58
S'583'
p95
sg60
S'220'
p96
sg62
S'.484'
p97
sg64
S'2449'
p98
sg66
S'42'
p99
sba(isrc.gp1.models.Totals
Totals
p100
(dp101
g8
S'57'
p102
sg10
S'30'
p103
sg12
S'.473'
p104
sg14
S'191'
p105
sg16
S'.233'
p106
sg18
S'7'
p107
sg20
S'1262'
p108
sg22
S'SG'
p109
sg24
S'.817'
p110
sg26
S'.476'
p111
sg28
S'NBA'
p112
sg30
S'71'
p113
sg32
S'1111'
p114
sg34
S'192'
p115
sg36
S'251'
p116
sg38
S'208'
p117
sg40
S'24'
p118
sg42
S'CHI'
p119
sg44
S'79'
p120
sg46
g19
sg48
S'518'
p121
sg50
S'205'
p122
sg52
S'1081'
p123
sg54
S'151'
p124
sg56
S'1984-85'
p125
sg58
S'525'
p126
sg60
S'154'
p127
sg62
S'.479'
p128
sg64
S'2101'
p129
sg66
S'0'
p130
sba(isrc.gp1.models.Totals
Totals
p131
(dp132
g8
S'20'
p133
sg10
S'8'
p134
sg12
S'.432'
p135
sg14
S'67'
p136
sg16
S'.000'
p137
sg18
g130
sg20
S'569'
p138
sg22
S'SG'
p139
sg24
S'.823'
p140
sg26
S'.432'
p141
sg28
S'NBA'
p142
sg30
S'22'
p143
sg32
S'470'
p144
sg34
S'86'
p145
sg36
S'198'
p146
sg38
S'68'
p147
sg40
S'25'
p148
sg42
S'CHI'
p149
sg44
S'35'
p150
sg46
g19
sg48
S'203'
p151
sg50
S'163'
p152
sg52
S'462'
p153
sg54
S'48'
p154
sg56
S'1985-86'
p155
sg58
S'203'
p156
sg60
S'67'
p157
sg62
S'.439'
p158
sg64
S'723'
p159
sg66
g130
sba(isrc.gp1.models.Totals
Totals
p160
(dp161
g8
S'34'
p162
sg10
S'10'
p163
sg12
S'.407'
p164
sg14
S'79'
p165
sg16
S'.100'
p166
sg18
S'1'
p167
sg20
S'520'
p168
sg22
S'SG'
p169
sg24
S'.768'
p170
sg26
S'.408'
p171
sg28
S'NBA'
p172
sg30
S'43'
p173
sg32
S'491'
p174
sg34
S'113'
p175
sg36
S'155'
p176
sg38
S'83'
p177
sg40
S'26'
p178
sg42
S'LAC'
p179
sg44
S'49'
p180
sg46
g134
sg48
S'199'
p181
sg50
S'119'
p182
sg52
S'481'
p183
sg54
S'49'
p184
sg56
S'1986-87'
p185
sg58
S'200'
p186
sg60
S'71'
p187
sg62
S'.414'
p188
sg64
S'924'
p189
sg66
g19
sba(isrc.gp1.models.Totals
Totals
p190
(dp191
g8
S'62'
p192
sg10
S'12'
p193
sg12
S'.434'
p194
sg14
S'109'
p195
sg16
S'.167'
p196
sg18
S'2'
p197
sg20
S'901'
p198
sg22
S'SG'
p199
sg24
S'.776'
p200
sg26
S'.436'
p201
sg28
S'NBA'
p202
sg30
S'69'
p203
sg32
S'755'
p204
sg34
S'128'
p205
sg36
S'313'
p206
sg38
S'154'
p207
sg40
S'27'
p208
sg42
S'LAC'
p209
sg44
S'67'
p210
sg46
g75
sg48
S'326'
p211
sg50
S'243'
p212
sg52
S'743'
p213
sg54
S'92'
p214
sg56
S'1987-88'
p215
sg58
S'328'
p216
sg60
S'123'
p217
sg62
S'.439'
p218
sg64
S'1282'
p219
sg66
g107
sba(isrc.gp1.models.Totals
Totals
p220
(dp221
g8
S'69'
p222
sg10
S'9'
p223
sg12
S'.465'
p224
sg14
S'154'
p225
sg16
S'.111'
p226
sg18
g167
sg20
S'1114'
p227
sg22
S'SG'
p228
sg24
S'.759'
p229
sg26
S'.465'
p230
sg28
S'NBA'
p231
sg30
S'90'
p232
sg32
S'964'
p233
sg34
S'152'
p234
sg36
S'286'
p235
sg38
S'204'
p236
sg40
S'28'
p237
sg42
S'LAC'
p238
sg44
S'69'
p239
sg46
S'6'
p240
sg48
S'447'
p241
sg50
S'217'
p242
sg52
S'955'
p243
sg54
S'135'
p244
sg56
S'1988-89'
p245
sg58
S'448'
p246
sg60
S'122'
p247
sg62
S'.468'
p248
sg64
S'1722'
p249
sg66
S'51'
p250
sba(isrc.gp1.models.Totals
Totals
p251
(dp252
g8
S'18'
p253
sg10
g19
sg12
S'.404'
p254
sg14
S'34'
p255
sg16
S'.200'
p256
sg18
g167
sg20
S'247'
p257
sg22
S'SG'
p258
sg24
S'.788'
p259
sg26
S'.406'
p260
sg28
S'NBA'
p261
sg30
S'12'
p262
sg32
S'240'
p263
sg34
S'63'
p264
sg36
S'66'
p265
sg38
S'51'
p266
sg40
S'29'
p267
sg42
S'SEA'
p268
sg44
S'30'
p269
sg46
g130
sg48
S'96'
p270
sg50
S'52'
p271
sg52
S'235'
p272
sg54
S'33'
p273
sg56
S'1989-90'
p274
sg58
S'97'
p275
sg60
S'34'
p276
sg62
S'.409'
p277
sg64
S'491'
p278
sg66
g197
sba(isrc.gp1.models.Totals
Totals
p279
(dp280
g8
S'11'
p281
sg10
g167
sg12
S'.471'
p282
sg14
S'16'
p283
sg16
S'.000'
p284
sg18
g130
sg20
S'184'
p285
sg22
S'SG'
p286
sg24
S'.613'
p287
sg26
S'.471'
p288
sg28
S'NBA'
p289
sg30
g107
sg32
S'155'
p290
sg34
S'25'
p291
sg36
S'62'
p292
sg38
S'32'
p293
sg40
S'30'
p294
sg42
S'SEA'
p295
sg44
S'30'
p296
sg46
g167
sg48
S'73'
p297
sg50
S'38'
p298
sg52
S'154'
p299
sg54
S'21'
p300
sg56
S'1990-91'
p301
sg58
S'73'
p302
sg60
S'19'
p303
sg62
S'.474'
p304
sg64
S'299'
p305
sg66
g130
sba(isrc.gp1.models.Totals
Totals
p306
(dp307
g8
g197
sg10
g167
sg12
S'.243'
p308
sg14
g75
sg16
S'.000'
p309
sg18
g130
sg20
S'31'
p310
sg22
S'SG'
p311
sg24
S'.813'
p312
sg26
S'.243'
p313
sg28
S'NBA'
p314
sg30
g19
sg32
S'37'
p315
sg34
g240
sg36
S'16'
p316
sg38
S'12'
p317
sg40
S'31'
p318
sg42
S'SEA'
p319
sg44
S'11'
p320
sg46
g167
sg48
g223
sg50
S'13'
p321
sg52
S'36'
p322
sg54
S'10'
p323
sg56
S'1991-92'
p324
sg58
g223
sg60
S'10'
p325
sg62
S'.250'
p326
sg64
S'98'
p327
sg66
g167
sbasS'_college'
p328
S'University of San Francisco'
p329
sS'_toYear'
p330
S'1992'
p331
sS'_height'
p332
S'6-3'
p333
sS'_active'
p334
I00
sS'_shootingHand'
p335
VRight
p336
sS'_name'
p337
S'Quintin Dailey'
p338
sS'_per100Possessions'
p339
(lp340
(isrc.gp1.models.Per100Possession
Per100Possession
p341
(dp342
g8
S'1.9'
p343
sg10
S'0.5'
p344
sg12
S'.466'
p345
sS'_offensiveRating'
p346
S'100'
p347
sg14
S'6.1'
p348
sg16
S'.200'
p349
sg18
S'0.1'
p350
sg20
S'25.0'
p351
sg22
S'SG'
p352
sS'_defensiveRating'
p353
S'110'
p354
sg24
S'.730'
p355
sg28
S'NBA'
p356
sg30
S'1.6'
p357
sg32
S'21.9'
p358
sg34
S'5.4'
p359
sg36
S'6.1'
p360
sg38
S'5.7'
p361
sg40
S'22'
p362
sg42
S'CHI'
p363
sg44
S'76'
p364
sg46
S'0.2'
p365
sg48
S'10.1'
p366
sg50
S'4.5'
p367
sg52
S'21.4'
p368
sg54
S'3.8'
p369
sg56
S'1982-83'
p370
sg58
S'10.2'
p371
sg60
S'4.5'
p372
sg62
S'.473'
p373
sg64
S'2081'
p374
sg66
S'32'
p375
sba(isrc.gp1.models.Per100Possession
Per100Possession
p376
(dp377
g8
S'1.2'
p378
sg10
S'0.6'
p379
sg12
S'.474'
p380
sg346
S'103'
p381
sg14
S'5.0'
p382
sg16
S'.125'
p383
sg18
S'0.1'
p384
sg20
S'29.3'
p385
sg22
S'SG'
p386
sg353
S'109'
p387
sg24
S'.811'
p388
sg28
S'NBA'
p389
sg30
S'2.1'
p390
sg32
S'24.1'
p391
sg34
S'4.3'
p392
sg36
S'7.8'
p393
sg38
S'4.6'
p394
sg40
S'23'
p395
sg42
S'CHI'
p396
sg44
S'82'
p397
sg46
S'0.2'
p398
sg48
S'11.4'
p399
sg50
S'6.3'
p400
sg52
S'23.5'
p401
sg54
S'3.4'
p402
sg56
S'1983-84'
p403
sg58
S'11.5'
p404
sg60
S'4.3'
p405
sg62
S'.484'
p406
sg64
S'2449'
p407
sg66
S'42'
p408
sba(isrc.gp1.models.Per100Possession
Per100Possession
p409
(dp410
g8
S'1.3'
p411
sg10
S'0.7'
p412
sg12
S'.473'
p413
sg346
S'104'
p414
sg14
S'4.4'
p415
sg16
S'.233'
p416
sg18
S'0.2'
p417
sg20
S'29.0'
p418
sg22
S'SG'
p419
sg353
S'112'
p420
sg24
S'.817'
p421
sg28
S'NBA'
p422
sg30
S'1.6'
p423
sg32
S'25.5'
p424
sg34
S'4.4'
p425
sg36
S'5.8'
p426
sg38
S'4.8'
p427
sg40
S'24'
p428
sg42
S'CHI'
p429
sg44
S'79'
p430
sg46
S'0.1'
p431
sg48
S'11.9'
p432
sg50
S'4.7'
p433
sg52
S'24.9'
p434
sg54
S'3.5'
p435
sg56
S'1984-85'
p436
sg58
S'12.1'
p437
sg60
S'3.5'
p438
sg62
S'.479'
p439
sg64
S'2101'
p440
sg66
g130
sba(isrc.gp1.models.Per100Possession
Per100Possession
p441
(dp442
g8
S'1.3'
p443
sg10
S'0.5'
p444
sg12
S'.432'
p445
sg346
S'105'
p446
sg14
S'4.5'
p447
sg16
S'.000'
p448
sg18
S'0.0'
p449
sg20
S'37.9'
p450
sg22
S'SG'
p451
sg353
S'115'
p452
sg24
S'.823'
p453
sg28
S'NBA'
p454
sg30
S'1.5'
p455
sg32
S'31.3'
p456
sg34
S'5.7'
p457
sg36
S'13.2'
p458
sg38
S'4.5'
p459
sg40
S'25'
p460
sg42
S'CHI'
p461
sg44
S'35'
p462
sg46
S'0.3'
p463
sg48
S'13.5'
p464
sg50
S'10.8'
p465
sg52
S'30.8'
p466
sg54
S'3.2'
p467
sg56
S'1985-86'
p468
sg58
S'13.5'
p469
sg60
S'4.5'
p470
sg62
S'.439'
p471
sg64
S'723'
p472
sg66
g130
sba(isrc.gp1.models.Per100Possession
Per100Possession
p473
(dp474
g8
S'1.7'
p475
sg10
S'0.5'
p476
sg12
S'.407'
p477
sg346
S'95'
p478
sg14
S'4.0'
p479
sg16
S'.100'
p480
sg18
S'0.1'
p481
sg20
S'26.3'
p482
sg22
S'SG'
p483
sg353
S'114'
p484
sg24
S'.768'
p485
sg28
S'NBA'
p486
sg30
S'2.2'
p487
sg32
S'24.8'
p488
sg34
S'5.7'
p489
sg36
S'7.8'
p490
sg38
S'4.2'
p491
sg40
S'26'
p492
sg42
S'LAC'
p493
sg44
S'49'
p494
sg46
S'0.4'
p495
sg48
S'10.1'
p496
sg50
S'6.0'
p497
sg52
S'24.3'
p498
sg54
S'2.5'
p499
sg56
S'1986-87'
p500
sg58
S'10.1'
p501
sg60
S'3.6'
p502
sg62
S'.414'
p503
sg64
S'924'
p504
sg66
g19
sba(isrc.gp1.models.Per100Possession
Per100Possession
p505
(dp506
g8
S'2.3'
p507
sg10
S'0.4'
p508
sg12
S'.434'
p509
sg346
S'100'
p510
sg14
S'4.0'
p511
sg16
S'.167'
p512
sg18
S'0.1'
p513
sg20
S'33.5'
p514
sg22
S'SG'
p515
sg353
S'109'
p516
sg24
S'.776'
p517
sg28
S'NBA'
p518
sg30
S'2.6'
p519
sg32
S'28.0'
p520
sg34
S'4.8'
p521
sg36
S'11.6'
p522
sg38
S'5.7'
p523
sg40
S'27'
p524
sg42
S'LAC'
p525
sg44
S'67'
p526
sg46
S'0.1'
p527
sg48
S'12.1'
p528
sg50
S'9.0'
p529
sg52
S'27.6'
p530
sg54
S'3.4'
p531
sg56
S'1987-88'
p532
sg58
S'12.2'
p533
sg60
S'4.6'
p534
sg62
S'.439'
p535
sg64
S'1282'
p536
sg66
g107
sba(isrc.gp1.models.Per100Possession
Per100Possession
p537
(dp538
g8
S'1.8'
p539
sg10
S'0.2'
p540
sg12
S'.465'
p541
sg346
S'103'
p542
sg14
S'4.1'
p543
sg16
S'.111'
p544
sg18
S'0.0'
p545
sg20
S'29.7'
p546
sg22
S'SG'
p547
sg353
S'112'
p548
sg24
S'.759'
p549
sg28
S'NBA'
p550
sg30
S'2.4'
p551
sg32
S'25.7'
p552
sg34
S'4.1'
p553
sg36
S'7.6'
p554
sg38
S'5.4'
p555
sg40
S'28'
p556
sg42
S'LAC'
p557
sg44
S'69'
p558
sg46
S'0.2'
p559
sg48
S'11.9'
p560
sg50
S'5.8'
p561
sg52
S'25.5'
p562
sg54
S'3.6'
p563
sg56
S'1988-89'
p564
sg58
S'12.0'
p565
sg60
S'3.3'
p566
sg62
S'.468'
p567
sg64
S'1722'
p568
sg66
S'51'
p569
sba(isrc.gp1.models.Per100Possession
Per100Possession
p570
(dp571
g8
S'1.8'
p572
sg10
S'0.5'
p573
sg12
S'.404'
p574
sg346
S'98'
p575
sg14
S'3.5'
p576
sg16
S'.200'
p577
sg18
S'0.1'
p578
sg20
S'25.3'
p579
sg22
S'SG'
p580
sg353
S'113'
p581
sg24
S'.788'
p582
sg28
S'NBA'
p583
sg30
S'1.2'
p584
sg32
S'24.6'
p585
sg34
S'6.5'
p586
sg36
S'6.8'
p587
sg38
S'5.2'
p588
sg40
S'29'
p589
sg42
S'SEA'
p590
sg44
S'30'
p591
sg46
S'0.0'
p592
sg48
S'9.8'
p593
sg50
S'5.3'
p594
sg52
S'24.1'
p595
sg54
S'3.4'
p596
sg56
S'1989-90'
p597
sg58
S'9.9'
p598
sg60
S'3.5'
p599
sg62
S'.409'
p600
sg64
S'491'
p601
sg66
g197
sba(isrc.gp1.models.Per100Possession
Per100Possession
p602
(dp603
g8
S'1.8'
p604
sg10
S'0.2'
p605
sg12
S'.471'
p606
sg346
S'104'
p607
sg14
S'2.7'
p608
sg16
S'.000'
p609
sg18
S'0.0'
p610
sg20
S'30.7'
p611
sg22
S'SG'
p612
sg353
S'113'
p613
sg24
S'.613'
p614
sg28
S'NBA'
p615
sg30
S'1.2'
p616
sg32
S'25.9'
p617
sg34
S'4.2'
p618
sg36
S'10.3'
p619
sg38
S'5.3'
p620
sg40
S'30'
p621
sg42
S'SEA'
p622
sg44
S'30'
p623
sg46
S'0.2'
p624
sg48
S'12.2'
p625
sg50
S'6.3'
p626
sg52
S'25.7'
p627
sg54
S'3.5'
p628
sg56
S'1990-91'
p629
sg58
S'12.2'
p630
sg60
S'3.2'
p631
sg62
S'.474'
p632
sg64
S'299'
p633
sg66
g130
sba(isrc.gp1.models.Per100Possession
Per100Possession
p634
(dp635
g8
S'1.0'
p636
sg10
S'0.5'
p637
sg12
S'.243'
p638
sg346
S'72'
p639
sg14
S'2.1'
p640
sg16
S'.000'
p641
sg18
S'0.0'
p642
sg20
S'15.9'
p643
sg22
S'SG'
p644
sg353
S'109'
p645
sg24
S'.813'
p646
sg28
S'NBA'
p647
sg30
S'2.6'
p648
sg32
S'19.0'
p649
sg34
S'3.1'
p650
sg36
S'8.2'
p651
sg38
S'6.2'
p652
sg40
S'31'
p653
sg42
S'SEA'
p654
sg44
S'11'
p655
sg46
S'0.5'
p656
sg48
S'4.6'
p657
sg50
S'6.7'
p658
sg52
S'18.5'
p659
sg54
S'5.1'
p660
sg56
S'1991-92'
p661
sg58
S'4.6'
p662
sg60
S'5.1'
p663
sg62
S'.250'
p664
sg64
S'98'
p665
sg66
g167
sbasS'_advanced'
p666
(lp667
(isrc.gp1.models.Advanced
Advanced
p668
(dp669
S'_offensiveReboundPercentage'
p670
S'4.5'
p671
sS'_turnOverPercentage'
p672
S'15.3'
p673
sS'_winSharesPer48Minutes'
p674
S'.049'
p675
sS'_stealPercentage'
p676
S'1.6'
p677
sS'_usagePercentage'
p678
S'24.8'
p679
sS'_totalReboundsPercentage'
p680
S'6.7'
p681
sS'_defensiveBoxPlusMinus'
p682
S'-2.0'
p683
sg22
S'SG'
p684
sS'_valueOverReplacementPlayer'
p685
S'0.0'
p686
sS'_trueShootingPercentage'
p687
S'.508'
p688
sS'_defensiveReboundPercentage'
p689
S'8.9'
p690
sS'_freeThrowsAttempRate'
p691
S'.280'
p692
sS'_threePointsAttempRate'
p693
S'.025'
p694
sg28
S'NBA'
p695
sS'_offensiveBoxPlusMinues'
p696
S'0.0'
p697
sS'_assistPercentage'
p698
S'20.3'
p699
sS'_defensiveWinShares'
p700
S'0.9'
p701
sg40
S'22'
p702
sg42
S'CHI'
p703
sg44
S'76'
p704
sS'_blockPercentage'
p705
S'0.3'
p706
sS'_playerEfficiencyRating'
p707
S'14.1'
p708
sS'_offensiveWinShares'
p709
S'1.3'
p710
sg64
S'2081'
p711
sS'_boxPlusMinus'
p712
S'-2.0'
p713
sg56
S'1982-83'
p714
sS'_winShares'
p715
S'2.1'
p716
sba(isrc.gp1.models.Advanced
Advanced
p717
(dp718
g670
S'2.8'
p719
sg672
S'13.6'
p720
sg674
S'.072'
p721
sg676
S'2.1'
p722
sg678
S'27.4'
p723
sg680
S'5.5'
p724
sg682
S'-1.2'
p725
sg22
S'SG'
p726
sg685
S'0.6'
p727
sg687
S'.531'
p728
sg689
S'8.3'
p729
sg691
S'.322'
p730
sg693
S'.026'
p731
sg28
S'NBA'
p732
sg696
S'0.2'
p733
sg698
S'17.6'
p734
sg700
S'2.2'
p735
sg40
S'23'
p736
sg42
S'CHI'
p737
sg44
S'82'
p738
sg705
S'0.3'
p739
sg707
S'15.8'
p740
sg709
S'1.5'
p741
sg64
S'2449'
p742
sg712
S'-1.0'
p743
sg56
S'1983-84'
p744
sg715
S'3.7'
p745
sba(isrc.gp1.models.Advanced
Advanced
p746
(dp747
g670
S'3.2'
p748
sg672
S'11.2'
p749
sg674
S'.059'
p750
sg676
S'1.6'
p751
sg678
S'27.3'
p752
sg680
S'5.7'
p753
sg682
S'-2.5'
p754
sg22
S'SG'
p755
sg685
S'-0.4'
p756
sg687
S'.517'
p757
sg689
S'8.1'
p758
sg691
S'.226'
p759
sg693
S'.027'
p760
sg28
S'NBA'
p761
sg696
S'-0.3'
p762
sg698
S'14.6'
p763
sg700
S'1.2'
p764
sg40
S'24'
p765
sg42
S'CHI'
p766
sg44
S'79'
p767
sg705
S'0.1'
p768
sg707
S'15.2'
p769
sg709
S'1.4'
p770
sg64
S'2101'
p771
sg712
S'-2.8'
p772
sg56
S'1984-85'
p773
sg715
S'2.6'
p774
sba(isrc.gp1.models.Advanced
Advanced
p775
(dp776
g670
S'3.0'
p777
sg672
S'10.7'
p778
sg674
S'.066'
p779
sg676
S'1.5'
p780
sg678
S'35.1'
p781
sg680
S'5.3'
p782
sg682
S'-4.8'
p783
sg22
S'SG'
p784
sg685
S'-0.5'
p785
sg687
S'.511'
p786
sg689
S'7.8'
p787
sg691
S'.421'
p788
sg693
S'.017'
p789
sg28
S'NBA'
p790
sg696
S'0.4'
p791
sg698
S'15.6'
p792
sg700
S'0.1'
p793
sg40
S'25'
p794
sg42
S'CHI'
p795
sg44
S'35'
p796
sg705
S'0.4'
p797
sg707
S'18.1'
p798
sg709
S'0.9'
p799
sg64
S'723'
p800
sg712
S'-4.5'
p801
sg56
S'1985-86'
p802
sg715
S'1.0'
p803
sba(isrc.gp1.models.Advanced
Advanced
p804
(dp805
g670
S'3.8'
p806
sg672
S'11.3'
p807
sg674
S'-0.014'
p808
sg676
S'2.2'
p809
sg678
S'27.2'
p810
sg680
S'4.9'
p811
sg682
S'-2.8'
p812
sg22
S'SG'
p813
sg685
S'-0.9'
p814
sg687
S'.465'
p815
sg689
S'6.3'
p816
sg691
S'.316'
p817
sg693
S'.020'
p818
sg28
S'NBA'
p819
sg696
S'-2.9'
p820
sg698
S'13.8'
p821
sg700
S'0.4'
p822
sg40
S'26'
p823
sg42
S'LAC'
p824
sg44
S'49'
p825
sg705
S'0.5'
p826
sg707
S'11.8'
p827
sg709
S'-0.6'
p828
sg64
S'924'
p829
sg712
S'-5.8'
p830
sg56
S'1986-87'
p831
sg715
S'-0.3'
p832
sba(isrc.gp1.models.Advanced
Advanced
p833
(dp834
g670
S'5.0'
p835
sg672
S'12.1'
p836
sg674
S'.050'
p837
sg676
S'2.6'
p838
sg678
S'32.2'
p839
sg680
S'6.4'
p840
sg682
S'-1.9'
p841
sg22
S'SG'
p842
sg685
S'-0.2'
p843
sg687
S'.505'
p844
sg689
S'7.9'
p845
sg691
S'.415'
p846
sg693
S'.016'
p847
sg28
S'NBA'
p848
sg696
S'-0.6'
p849
sg698
S'15.5'
p850
sg700
S'1.2'
p851
sg40
S'27'
p852
sg42
S'LAC'
p853
sg44
S'67'
p854
sg705
S'0.2'
p855
sg707
S'16.8'
p856
sg709
S'0.1'
p857
sg64
S'1282'
p858
sg712
S'-2.5'
p859
sg56
S'1987-88'
p860
sg715
S'1.3'
p861
sba(isrc.gp1.models.Advanced
Advanced
p862
(dp863
g670
S'4.3'
p864
sg672
S'10.1'
p865
sg674
S'.056'
p866
sg676
S'2.4'
p867
sg678
S'27.7'
p868
sg680
S'6.3'
p869
sg682
S'-2.4'
p870
sg22
S'SG'
p871
sg685
S'-0.3'
p872
sg687
S'.511'
p873
sg689
S'8.4'
p874
sg691
S'.297'
p875
sg693
S'.009'
p876
sg28
S'NBA'
p877
sg696
S'-0.3'
p878
sg698
S'14.2'
p879
sg700
S'1.0'
p880
sg40
S'28'
p881
sg42
S'LAC'
p882
sg44
S'69'
p883
sg705
S'0.2'
p884
sg707
S'16.3'
p885
sg709
S'1.1'
p886
sg64
S'1722'
p887
sg712
S'-2.8'
p888
sg56
S'1988-89'
p889
sg715
S'2.0'
p890
sba(isrc.gp1.models.Advanced
Advanced
p891
(dp892
g670
S'4.1'
p893
sg672
S'11.2'
p894
sg674
S'.012'
p895
sg676
S'1.2'
p896
sg678
S'25.8'
p897
sg680
S'6.1'
p898
sg682
S'-3.2'
p899
sg22
S'SG'
p900
sg685
S'-0.5'
p901
sg687
S'.459'
p902
sg689
S'8.2'
p903
sg691
S'.275'
p904
sg693
S'.021'
p905
sg28
S'NBA'
p906
sg696
S'-2.9'
p907
sg698
S'10.3'
p908
sg700
S'0.2'
p909
sg40
S'29'
p910
sg42
S'SEA'
p911
sg44
S'30'
p912
sg705
S'0.0'
p913
sg707
S'10.0'
p914
sg709
S'-0.1'
p915
sg64
S'491'
p916
sg712
S'-6.1'
p917
sg56
S'1989-90'
p918
sg715
S'0.1'
p919
sba(isrc.gp1.models.Advanced
Advanced
p920
(dp921
g670
S'4.3'
p922
sg672
S'9.4'
p923
sg674
S'.054'
p924
sg676
S'1.2'
p925
sg678
S'28.3'
p926
sg680
S'6.4'
p927
sg682
S'-4.5'
p928
sg22
S'SG'
p929
sg685
S'-0.3'
p930
sg687
S'.505'
p931
sg689
S'8.5'
p932
sg691
S'.400'
p933
sg693
S'.006'
p934
sg28
S'NBA'
p935
sg696
S'-2.1'
p936
sg698
S'8.4'
p937
sg700
S'0.1'
p938
sg40
S'30'
p939
sg42
S'SEA'
p940
sg44
S'30'
p941
sg705
S'0.2'
p942
sg707
S'14.5'
p943
sg709
S'0.2'
p944
sg64
S'299'
p945
sg712
S'-6.6'
p946
sg56
S'1990-91'
p947
sg715
S'0.3'
p948
sba(isrc.gp1.models.Advanced
Advanced
p949
(dp950
g670
S'2.3'
p951
sg672
S'18.5'
p952
sg674
S'-0.124'
p953
sg676
S'2.6'
p954
sg678
S'23.2'
p955
sg680
S'7.1'
p956
sg682
S'-1.6'
p957
sg22
S'SG'
p958
sg685
S'-0.2'
p959
sg687
S'.352'
p960
sg689
S'12.0'
p961
sg691
S'.432'
p962
sg693
S'.027'
p963
sg28
S'NBA'
p964
sg696
S'-9.5'
p965
sg698
S'5.4'
p966
sg700
S'0.1'
p967
sg40
S'31'
p968
sg42
S'SEA'
p969
sg44
S'11'
p970
sg705
S'0.6'
p971
sg707
S'3.2'
p972
sg709
S'-0.3'
p973
sg64
S'98'
p974
sg712
S'-11.0'
p975
sg56
S'1991-92'
p976
sg715
S'-0.3'
p977
sbasS'_per36Minutes'
p978
(lp979
(isrc.gp1.models.Per36Minutes
Per36Minutes
p980
(dp981
g8
S'1.5'
p982
sg10
S'0.4'
p983
sg12
S'.466'
p984
sg14
S'4.8'
p985
sg16
S'.200'
p986
sg18
S'0.1'
p987
sg20
S'19.9'
p988
sg22
S'SG'
p989
sg24
S'.730'
p990
sg28
S'NBA'
p991
sg30
S'1.2'
p992
sg32
S'17.4'
p993
sg34
S'4.3'
p994
sg36
S'4.9'
p995
sg38
S'4.5'
p996
sg40
S'22'
p997
sg42
S'CHI'
p998
sg44
S'76'
p999
sg46
S'0.2'
p1000
sg48
S'8.0'
p1001
sg50
S'3.6'
p1002
sg52
S'17.0'
p1003
sg54
S'3.0'
p1004
sg56
S'1982-83'
p1005
sg58
S'8.1'
p1006
sg60
S'3.5'
p1007
sg62
S'.473'
p1008
sg64
S'2081'
p1009
sg66
S'32'
p1010
sba(isrc.gp1.models.Per36Minutes
Per36Minutes
p1011
(dp1012
g8
S'0.9'
p1013
sg10
S'0.5'
p1014
sg12
S'.474'
p1015
sg14
S'3.7'
p1016
sg16
S'.125'
p1017
sg18
S'0.1'
p1018
sg20
S'21.9'
p1019
sg22
S'SG'
p1020
sg24
S'.811'
p1021
sg28
S'NBA'
p1022
sg30
S'1.6'
p1023
sg32
S'18.1'
p1024
sg34
S'3.2'
p1025
sg36
S'5.8'
p1026
sg38
S'3.5'
p1027
sg40
S'23'
p1028
sg42
S'CHI'
p1029
sg44
S'82'
p1030
sg46
S'0.2'
p1031
sg48
S'8.5'
p1032
sg50
S'4.7'
p1033
sg52
S'17.6'
p1034
sg54
S'2.6'
p1035
sg56
S'1983-84'
p1036
sg58
S'8.6'
p1037
sg60
S'3.2'
p1038
sg62
S'.484'
p1039
sg64
S'2449'
p1040
sg66
S'42'
p1041
sba(isrc.gp1.models.Per36Minutes
Per36Minutes
p1042
(dp1043
g8
S'1.0'
p1044
sg10
S'0.5'
p1045
sg12
S'.473'
p1046
sg14
S'3.3'
p1047
sg16
S'.233'
p1048
sg18
S'0.1'
p1049
sg20
S'21.6'
p1050
sg22
S'SG'
p1051
sg24
S'.817'
p1052
sg28
S'NBA'
p1053
sg30
S'1.2'
p1054
sg32
S'19.0'
p1055
sg34
S'3.3'
p1056
sg36
S'4.3'
p1057
sg38
S'3.6'
p1058
sg40
S'24'
p1059
sg42
S'CHI'
p1060
sg44
S'79'
p1061
sg46
S'0.1'
p1062
sg48
S'8.9'
p1063
sg50
S'3.5'
p1064
sg52
S'18.5'
p1065
sg54
S'2.6'
p1066
sg56
S'1984-85'
p1067
sg58
S'9.0'
p1068
sg60
S'2.6'
p1069
sg62
S'.479'
p1070
sg64
S'2101'
p1071
sg66
g130
sba(isrc.gp1.models.Per36Minutes
Per36Minutes
p1072
(dp1073
g8
S'1.0'
p1074
sg10
S'0.4'
p1075
sg12
S'.432'
p1076
sg14
S'3.3'
p1077
sg16
S'.000'
p1078
sg18
S'0.0'
p1079
sg20
S'28.3'
p1080
sg22
S'SG'
p1081
sg24
S'.823'
p1082
sg28
S'NBA'
p1083
sg30
S'1.1'
p1084
sg32
S'23.4'
p1085
sg34
S'4.3'
p1086
sg36
S'9.9'
p1087
sg38
S'3.4'
p1088
sg40
S'25'
p1089
sg42
S'CHI'
p1090
sg44
S'35'
p1091
sg46
S'0.2'
p1092
sg48
S'10.1'
p1093
sg50
S'8.1'
p1094
sg52
S'23.0'
p1095
sg54
S'2.4'
p1096
sg56
S'1985-86'
p1097
sg58
S'10.1'
p1098
sg60
S'3.3'
p1099
sg62
S'.439'
p1100
sg64
S'723'
p1101
sg66
g130
sba(isrc.gp1.models.Per36Minutes
Per36Minutes
p1102
(dp1103
g8
S'1.3'
p1104
sg10
S'0.4'
p1105
sg12
S'.407'
p1106
sg14
S'3.1'
p1107
sg16
S'.100'
p1108
sg18
S'0.0'
p1109
sg20
S'20.3'
p1110
sg22
S'SG'
p1111
sg24
S'.768'
p1112
sg28
S'NBA'
p1113
sg30
S'1.7'
p1114
sg32
S'19.1'
p1115
sg34
S'4.4'
p1116
sg36
S'6.0'
p1117
sg38
S'3.2'
p1118
sg40
S'26'
p1119
sg42
S'LAC'
p1120
sg44
S'49'
p1121
sg46
S'0.3'
p1122
sg48
S'7.8'
p1123
sg50
S'4.6'
p1124
sg52
S'18.7'
p1125
sg54
S'1.9'
p1126
sg56
S'1986-87'
p1127
sg58
S'7.8'
p1128
sg60
S'2.8'
p1129
sg62
S'.414'
p1130
sg64
S'924'
p1131
sg66
g19
sba(isrc.gp1.models.Per36Minutes
Per36Minutes
p1132
(dp1133
g8
S'1.7'
p1134
sg10
S'0.3'
p1135
sg12
S'.434'
p1136
sg14
S'3.1'
p1137
sg16
S'.167'
p1138
sg18
S'0.1'
p1139
sg20
S'25.3'
p1140
sg22
S'SG'
p1141
sg24
S'.776'
p1142
sg28
S'NBA'
p1143
sg30
S'1.9'
p1144
sg32
S'21.2'
p1145
sg34
S'3.6'
p1146
sg36
S'8.8'
p1147
sg38
S'4.3'
p1148
sg40
S'27'
p1149
sg42
S'LAC'
p1150
sg44
S'67'
p1151
sg46
S'0.1'
p1152
sg48
S'9.2'
p1153
sg50
S'6.8'
p1154
sg52
S'20.9'
p1155
sg54
S'2.6'
p1156
sg56
S'1987-88'
p1157
sg58
S'9.2'
p1158
sg60
S'3.5'
p1159
sg62
S'.439'
p1160
sg64
S'1282'
p1161
sg66
g107
sba(isrc.gp1.models.Per36Minutes
Per36Minutes
p1162
(dp1163
g8
S'1.4'
p1164
sg10
S'0.2'
p1165
sg12
S'.465'
p1166
sg14
S'3.2'
p1167
sg16
S'.111'
p1168
sg18
S'0.0'
p1169
sg20
S'23.3'
p1170
sg22
S'SG'
p1171
sg24
S'.759'
p1172
sg28
S'NBA'
p1173
sg30
S'1.9'
p1174
sg32
S'20.2'
p1175
sg34
S'3.2'
p1176
sg36
S'6.0'
p1177
sg38
S'4.3'
p1178
sg40
S'28'
p1179
sg42
S'LAC'
p1180
sg44
S'69'
p1181
sg46
S'0.1'
p1182
sg48
S'9.3'
p1183
sg50
S'4.5'
p1184
sg52
S'20.0'
p1185
sg54
S'2.8'
p1186
sg56
S'1988-89'
p1187
sg58
S'9.4'
p1188
sg60
S'2.6'
p1189
sg62
S'.468'
p1190
sg64
S'1722'
p1191
sg66
S'51'
p1192
sba(isrc.gp1.models.Per36Minutes
Per36Minutes
p1193
(dp1194
g8
S'1.3'
p1195
sg10
S'0.4'
p1196
sg12
S'.404'
p1197
sg14
S'2.5'
p1198
sg16
S'.200'
p1199
sg18
S'0.1'
p1200
sg20
S'18.1'
p1201
sg22
S'SG'
p1202
sg24
S'.788'
p1203
sg28
S'NBA'
p1204
sg30
S'0.9'
p1205
sg32
S'17.6'
p1206
sg34
S'4.6'
p1207
sg36
S'4.8'
p1208
sg38
S'3.7'
p1209
sg40
S'29'
p1210
sg42
S'SEA'
p1211
sg44
S'30'
p1212
sg46
S'0.0'
p1213
sg48
S'7.0'
p1214
sg50
S'3.8'
p1215
sg52
S'17.2'
p1216
sg54
S'2.4'
p1217
sg56
S'1989-90'
p1218
sg58
S'7.1'
p1219
sg60
S'2.5'
p1220
sg62
S'.409'
p1221
sg64
S'491'
p1222
sg66
g197
sba(isrc.gp1.models.Per36Minutes
Per36Minutes
p1223
(dp1224
g8
S'1.3'
p1225
sg10
S'0.1'
p1226
sg12
S'.471'
p1227
sg14
S'1.9'
p1228
sg16
S'.000'
p1229
sg18
S'0.0'
p1230
sg20
S'22.2'
p1231
sg22
S'SG'
p1232
sg24
S'.613'
p1233
sg28
S'NBA'
p1234
sg30
S'0.8'
p1235
sg32
S'18.7'
p1236
sg34
S'3.0'
p1237
sg36
S'7.5'
p1238
sg38
S'3.9'
p1239
sg40
S'30'
p1240
sg42
S'SEA'
p1241
sg44
S'30'
p1242
sg46
S'0.1'
p1243
sg48
S'8.8'
p1244
sg50
S'4.6'
p1245
sg52
S'18.5'
p1246
sg54
S'2.5'
p1247
sg56
S'1990-91'
p1248
sg58
S'8.8'
p1249
sg60
S'2.3'
p1250
sg62
S'.474'
p1251
sg64
S'299'
p1252
sg66
g130
sba(isrc.gp1.models.Per36Minutes
Per36Minutes
p1253
(dp1254
g8
S'0.7'
p1255
sg10
S'0.4'
p1256
sg12
S'.243'
p1257
sg14
S'1.5'
p1258
sg16
S'.000'
p1259
sg18
S'0.0'
p1260
sg20
S'11.4'
p1261
sg22
S'SG'
p1262
sg24
S'.813'
p1263
sg28
S'NBA'
p1264
sg30
S'1.8'
p1265
sg32
S'13.6'
p1266
sg34
S'2.2'
p1267
sg36
S'5.9'
p1268
sg38
S'4.4'
p1269
sg40
S'31'
p1270
sg42
S'SEA'
p1271
sg44
S'11'
p1272
sg46
S'0.4'
p1273
sg48
S'3.3'
p1274
sg50
S'4.8'
p1275
sg52
S'13.2'
p1276
sg54
S'3.7'
p1277
sg56
S'1991-92'
p1278
sg58
S'3.3'
p1279
sg60
S'3.7'
p1280
sg62
S'.250'
p1281
sg64
S'98'
p1282
sg66
g167
sbasS'_fromYear'
p1283
S'1983'
p1284
sS'_url'
p1285
S'http://www.basketball-reference.com/players/d/dailequ01.html'
p1286
sS'_perGame'
p1287
(isrc.gp1.models.PerGame
PerGame
p1288
(dp1289
g8
S'0.2'
p1290
sg10
S'0.1'
p1291
sg12
S'.243'
p1292
sS'_effectiveFieldGalPercentage'
p1293
S'.243'
p1294
sg14
S'0.4'
p1295
sg16
S'.000'
p1296
sg18
S'0.0'
p1297
sg20
S'2.8'
p1298
sg22
S'SG'
p1299
sg24
S'.813'
p1300
sg28
S'NBA'
p1301
sg30
S'0.5'
p1302
sg34
S'0.5'
p1303
sS'_fieldGoalsttempted'
p1304
S'3.4'
p1305
sg36
S'1.5'
p1306
sg38
S'1.1'
p1307
sg40
S'31'
p1308
sg42
S'SEA'
p1309
sg44
S'11'
p1310
sg46
S'0.1'
p1311
sg48
S'0.8'
p1312
sg50
S'1.2'
p1313
sg52
S'3.3'
p1314
sg54
S'0.9'
p1315
sg56
S'1991-92'
p1316
sg58
S'0.8'
p1317
sg60
S'0.9'
p1318
sg62
S'.250'
p1319
sg64
S'8.9'
p1320
sg66
g167
sbsS'_weight'
p1321
S'180'
p1322
sS'_dob'
p1323
S'22-1-1961'
p1324
sS'_salary'
p1325
(lp1326
(isrc.gp1.models.Salary
Salary
p1327
(dp1328
g42
S'Chicago Bulls'
p1329
sg28
S'NBA'
p1330
sg1325
S'$325,000'
p1331
sg56
S'1985-86'
p1332
sba(isrc.gp1.models.Salary
Salary
p1333
(dp1334
g42
S'Los Angeles Clippers'
p1335
sg28
S'NBA'
p1336
sg1325
S'$135,000'
p1337
sg56
S'1987-88'
p1338
sba(isrc.gp1.models.Salary
Salary
p1339
(dp1340
g42
S'Los Angeles Clippers'
p1341
sg28
S'NBA'
p1342
sg1325
S'$425,000'
p1343
sg56
S'1988-89'
p1344
sba(isrc.gp1.models.Salary
Salary
p1345
(dp1346
g42
S'Seattle SuperSonics'
p1347
sg28
S'NBA'
p1348
sg1325
S'$425,000'
p1349
sg56
S'1990-91'
p1350
sba(isrc.gp1.models.Salary
Salary
p1351
(dp1352
g42
S'Seattle SuperSonics'
p1353
sg28
S'NBA'
p1354
sg1325
S'$425,000'
p1355
sg56
S'1991-92'
p1356
sbasg22
S'G'
p1357
sb.