(isrc.gp1.models.Player
Player
p0
(dp1
S'_experience'
p2
S'NA'
p3
sS'_totals'
p4
(lp5
(isrc.gp1.models.Totals
Totals
p6
(dp7
S'_offensiveRebounds'
p8
S'131'
p9
sS'_threePointsAttempted'
p10
S'1'
p11
sS'_fieldGoalsPercentage'
p12
S'.481'
p13
sS'_assist'
p14
S'146'
p15
sS'_threePointsPercentage'
p16
S'.000'
p17
sS'_threePoints'
p18
S'0'
p19
sS'_points'
p20
S'644'
p21
sS'_position'
p22
S'C'
p23
sS'_freeThrowsPercentage'
p24
S'.757'
p25
sS'_effectiveFieldGoalPercentage'
p26
S'.481'
p27
sS'_league'
p28
S'NBA'
p29
sS'_steals'
p30
S'46'
p31
sS'_fieldGoalsAttempted'
p32
S'524'
p33
sS'_personalFouls'
p34
S'292'
p35
sS'_freeThrowsAttempted'
p36
S'185'
p37
sS'_totalRebounds'
p38
S'427'
p39
sS'_age'
p40
S'22'
p41
sS'_team'
p42
S'UTA'
p43
sS'_games'
p44
S'82'
p45
sS'_blocks'
p46
S'72'
p47
sS'_twoPoints'
p48
S'252'
p49
sS'_freeThrows'
p50
S'140'
p51
sS'_twoPointsAttempted'
p52
S'523'
p53
sS'_defensiveRebounds'
p54
S'296'
p55
sS'_season'
p56
S'1981-82'
p57
sS'_fieldGoals'
p58
S'252'
p59
sS'_turnOvers'
p60
S'151'
p61
sS'_twoPointsPercentage'
p62
S'.482'
p63
sS'_minutesPlayed'
p64
S'1623'
p65
sS'_gamesStarted'
p66
S'20'
p67
sba(isrc.gp1.models.Totals
Totals
p68
(dp69
g8
S'200'
p70
sg10
g11
sg12
S'.457'
p71
sg14
S'205'
p72
sg16
S'.000'
p73
sg18
g19
sg20
S'912'
p74
sg22
g23
sg24
S'.773'
p75
sg26
S'.457'
p76
sg28
S'NBA'
p77
sg30
S'54'
p78
sg32
S'749'
p79
sg34
S'325'
p80
sg36
S'295'
p81
sg38
S'635'
p82
sg40
S'23'
p83
sg42
S'TOT'
p84
sg44
S'82'
p85
sg46
S'98'
p86
sg48
S'342'
p87
sg50
S'228'
p88
sg52
S'748'
p89
sg54
S'435'
p90
sg56
S'1982-83'
p91
sg58
S'342'
p92
sg60
S'253'
p93
sg62
S'.457'
p94
sg64
S'2284'
p95
sg66
S'50'
p96
sba(isrc.gp1.models.Totals
Totals
p97
(dp98
g8
S'137'
p99
sg10
g11
sg12
S'.449'
p100
sg14
S'165'
p101
sg16
S'.000'
p102
sg18
g19
sg20
S'619'
p103
sg22
g23
sg24
S'.805'
p104
sg26
S'.449'
p105
sg28
S'NBA'
p106
sg30
S'39'
p107
sg32
S'514'
p108
sg34
S'216'
p109
sg36
S'195'
p110
sg38
S'449'
p111
sg40
S'23'
p112
sg42
S'UTA'
p113
sg44
S'50'
p114
sg46
S'68'
p115
sg48
S'231'
p116
sg50
S'157'
p117
sg52
S'513'
p118
sg54
S'312'
p119
sg56
S'1982-83'
p120
sg58
S'231'
p121
sg60
S'195'
p122
sg62
S'.450'
p123
sg64
S'1638'
p124
sg66
S'50'
p125
sba(isrc.gp1.models.Totals
Totals
p126
(dp127
g8
S'123'
p128
sg10
g19
sg12
S'.472'
p129
sg14
S'15'
p130
sg16
S'111'
p131
sg18
g19
sg20
g3
sg22
g23
sg24
S'63'
p132
sg26
S'71'
p133
sg28
S'NBA'
p134
sg30
S'30'
p135
sg32
S'235'
p136
sg34
S'293'
p137
sg36
S'.710'
p138
sg38
S'40'
p139
sg40
S'23'
p140
sg42
S'DEN'
p141
sg44
S'32'
p142
sg46
S'58'
p143
sg48
S'235'
p144
sg50
S'100'
p145
sg52
S'.472'
p146
sg54
S'186'
p147
sg56
S'1982-83'
p148
sg58
S'111'
p149
sg60
S'109'
p150
sg62
S'.472'
p151
sg64
S'646'
p152
sg66
g19
sba(isrc.gp1.models.Totals
Totals
p153
(dp154
g8
S'145'
p155
sg10
S'2'
p156
sg12
S'.493'
p157
sg14
S'91'
p158
sg16
S'.000'
p159
sg18
g19
sg20
S'581'
p160
sg22
g23
sg24
S'.790'
p161
sg26
S'.493'
p162
sg28
S'NBA'
p163
sg30
S'32'
p164
sg32
S'371'
p165
sg34
S'308'
p166
sg36
S'272'
p167
sg38
S'433'
p168
sg40
S'24'
p169
sg42
S'DEN'
p170
sg44
S'82'
p171
sg46
S'60'
p172
sg48
S'183'
p173
sg50
S'215'
p174
sg52
S'369'
p175
sg54
S'288'
p176
sg56
S'1983-84'
p177
sg58
S'183'
p178
sg60
S'119'
p179
sg62
S'.496'
p180
sg64
S'1420'
p181
sg66
S'15'
p182
sba(isrc.gp1.models.Totals
Totals
p183
(dp184
g8
S'96'
p185
sg10
g19
sg12
S'.465'
p186
sg14
S'20'
p187
sg16
S'60'
p188
sg18
g19
sg20
g3
sg22
g23
sg24
S'48'
p189
sg26
S'79'
p190
sg28
S'NBA'
p191
sg30
S'25'
p192
sg32
S'129'
p193
sg34
S'199'
p194
sg36
S'.814'
p195
sg38
S'38'
p196
sg40
S'25'
p197
sg42
S'DEN'
p198
sg44
S'56'
p199
sg46
S'44'
p200
sg48
S'129'
p201
sg50
S'97'
p202
sg52
S'.465'
p203
sg54
S'144'
p204
sg56
S'1984-85'
p205
sg58
S'60'
p206
sg60
S'98'
p207
sg62
S'.465'
p208
sg64
S'542'
p209
sg66
g19
sba(isrc.gp1.models.Totals
Totals
p210
(dp211
g8
S'154'
p212
sg10
g11
sg12
S'.502'
p213
sg14
S'79'
p214
sg16
S'.000'
p215
sg18
g19
sg20
S'658'
p216
sg22
g23
sg24
S'.777'
p217
sg26
S'.502'
p218
sg28
S'NBA'
p219
sg30
S'42'
p220
sg32
S'440'
p221
sg34
S'298'
p222
sg36
S'278'
p223
sg38
S'439'
p224
sg40
S'26'
p225
sg42
S'DEN'
p226
sg44
S'80'
p227
sg46
S'63'
p228
sg48
S'221'
p229
sg50
S'216'
p230
sg52
S'439'
p231
sg54
S'285'
p232
sg56
S'1985-86'
p233
sg58
S'221'
p234
sg60
S'105'
p235
sg62
S'.503'
p236
sg64
S'1654'
p237
sg66
S'13'
p238
sba(isrc.gp1.models.Totals
Totals
p239
(dp240
g8
S'260'
p241
sg10
g19
sg12
S'.519'
p242
sg14
S'20'
p243
sg16
S'210'
p244
sg18
g19
sg20
g3
sg22
g23
sg24
S'120'
p245
sg26
S'229'
p246
sg28
S'NBA'
p247
sg30
S'74'
p248
sg32
S'405'
p249
sg34
S'649'
p250
sg36
S'.779'
p251
sg38
S'85'
p252
sg40
S'27'
p253
sg42
S'DEN'
p254
sg44
S'76'
p255
sg46
S'95'
p256
sg48
S'405'
p257
sg50
S'294'
p258
sg52
S'.519'
p259
sg54
S'380'
p260
sg56
S'1986-87'
p261
sg58
S'210'
p262
sg60
S'266'
p263
sg62
S'.519'
p264
sg64
S'1556'
p265
sg66
S'41'
p266
sba(isrc.gp1.models.Totals
Totals
p267
(dp268
g8
S'200'
p269
sg10
g156
sg12
S'.540'
p270
sg14
S'106'
p271
sg16
S'.000'
p272
sg18
g19
sg20
S'1129'
p273
sg22
S'PF'
p274
sg24
S'.836'
p275
sg26
S'.540'
p276
sg28
S'NBA'
p277
sg30
S'62'
p278
sg32
S'668'
p279
sg34
S'323'
p280
sg36
S'487'
p281
sg38
S'662'
p282
sg40
S'28'
p283
sg42
S'DEN'
p284
sg44
S'81'
p285
sg46
S'92'
p286
sg48
S'361'
p287
sg50
S'407'
p288
sg52
S'666'
p289
sg54
S'462'
p290
sg56
S'1987-88'
p291
sg58
S'361'
p292
sg60
S'155'
p293
sg62
S'.542'
p294
sg64
S'2166'
p295
sg66
S'74'
p296
sba(isrc.gp1.models.Totals
Totals
p297
(dp298
g8
S'142'
p299
sg10
S'9'
p300
sg12
S'.522'
p301
sg14
S'105'
p302
sg16
S'.333'
p303
sg18
S'3'
p304
sg20
S'969'
p305
sg22
g23
sg24
S'.826'
p306
sg26
S'.525'
p307
sg28
S'NBA'
p308
sg30
S'42'
p309
sg32
S'607'
p310
sg34
S'320'
p311
sg36
S'402'
p312
sg38
S'500'
p313
sg40
S'29'
p314
sg42
S'DEN'
p315
sg44
S'76'
p316
sg46
S'81'
p317
sg48
S'314'
p318
sg50
S'332'
p319
sg52
S'598'
p320
sg54
S'358'
p321
sg56
S'1988-89'
p322
sg58
S'317'
p323
sg60
S'160'
p324
sg62
S'.525'
p325
sg64
S'1918'
p326
sg66
S'64'
p327
sba(isrc.gp1.models.Totals
Totals
p328
(dp329
g8
S'117'
p330
sg10
S'4'
p331
sg12
S'.494'
p332
sg14
S'61'
p333
sg16
S'.000'
p334
sg18
g19
sg20
S'551'
p335
sg22
g23
sg24
S'.852'
p336
sg26
S'.494'
p337
sg28
S'NBA'
p338
sg30
S'41'
p339
sg32
S'330'
p340
sg34
S'200'
p341
sg36
S'264'
p342
sg38
S'342'
p343
sg40
S'30'
p344
sg42
S'DEN'
p345
sg44
S'53'
p346
sg46
S'45'
p347
sg48
S'163'
p348
sg50
S'225'
p349
sg52
S'326'
p350
sg54
S'225'
p351
sg56
S'1989-90'
p352
sg58
S'163'
p353
sg60
S'72'
p354
sg62
S'.500'
p355
sg64
S'1194'
p356
sg66
S'22'
p357
sba(isrc.gp1.models.Totals
Totals
p358
(dp359
g8
S'174'
p360
sg10
S'5'
p361
sg12
S'.499'
p362
sg14
S'98'
p363
sg16
S'.000'
p364
sg18
g19
sg20
S'870'
p365
sg22
g23
sg24
S'.835'
p366
sg26
S'.499'
p367
sg28
S'NBA'
p368
sg30
S'55'
p369
sg32
S'597'
p370
sg34
S'264'
p371
sg36
S'328'
p372
sg38
S'535'
p373
sg40
S'31'
p374
sg42
S'MIL'
p375
sg44
S'82'
p376
sg46
S'61'
p377
sg48
S'298'
p378
sg50
S'274'
p379
sg52
S'592'
p380
sg54
S'361'
p381
sg56
S'1990-91'
p382
sg58
S'298'
p383
sg60
S'106'
p384
sg62
S'.503'
p385
sg64
S'2228'
p386
sg66
S'38'
p387
sba(isrc.gp1.models.Totals
Totals
p388
(dp389
g8
S'110'
p390
sg10
g19
sg12
S'.417'
p391
sg14
S'19'
p392
sg16
S'83'
p393
sg18
g19
sg20
g3
sg22
g23
sg24
S'58'
p394
sg26
S'74'
p395
sg28
S'NBA'
p396
sg30
S'19'
p397
sg32
S'199'
p398
sg34
S'240'
p399
sg36
S'.771'
p400
sg38
S'34'
p401
sg40
S'32'
p402
sg42
S'MIL'
p403
sg44
S'43'
p404
sg46
S'41'
p405
sg48
S'199'
p406
sg50
S'96'
p407
sg52
S'.417'
p408
sg54
S'168'
p409
sg56
S'1991-92'
p410
sg58
S'83'
p411
sg60
S'98'
p412
sg62
S'.417'
p413
sg64
S'726'
p414
sg66
g331
sba(isrc.gp1.models.Totals
Totals
p415
(dp416
g8
S'72'
p417
sg10
g304
sg12
S'.399'
p418
sg14
S'78'
p419
sg16
S'.000'
p420
sg18
g19
sg20
S'322'
p421
sg22
g23
sg24
S'.818'
p422
sg26
S'.399'
p423
sg28
S'NBA'
p424
sg30
S'36'
p425
sg32
S'263'
p426
sg34
S'148'
p427
sg36
S'137'
p428
sg38
S'249'
p429
sg40
S'33'
p430
sg42
S'MIL'
p431
sg44
S'70'
p432
sg46
S'36'
p433
sg48
S'105'
p434
sg50
S'112'
p435
sg52
S'260'
p436
sg54
S'177'
p437
sg56
S'1992-93'
p438
sg58
S'105'
p439
sg60
S'65'
p440
sg62
S'.404'
p441
sg64
S'1124'
p442
sg66
S'7'
p443
sba(isrc.gp1.models.Totals
Totals
p444
(dp445
g8
S'48'
p446
sg10
g19
sg12
S'.333'
p447
sg14
S'10'
p448
sg16
S'28'
p449
sg18
g19
sg20
g3
sg22
g23
sg24
S'31'
p450
sg26
S'29'
p451
sg28
S'NBA'
p452
sg30
S'10'
p453
sg32
S'84'
p454
sg34
S'85'
p455
sg36
S'.906'
p456
sg38
S'13'
p457
sg40
S'34'
p458
sg42
S'TOT'
p459
sg44
S'36'
p460
sg46
S'23'
p461
sg48
S'84'
p462
sg50
S'32'
p463
sg52
S'.333'
p464
sg54
S'79'
p465
sg56
S'1993-94'
p466
sg58
S'28'
p467
sg60
S'45'
p468
sg62
S'.333'
p469
sg64
S'363'
p470
sg66
S'6'
p471
sba(isrc.gp1.models.Totals
Totals
p472
(dp473
g8
S'29'
p474
sg10
g19
sg12
S'.304'
p475
sg14
g361
sg16
S'14'
p476
sg18
g19
sg20
g3
sg22
g23
sg24
S'16'
p477
sg26
S'21'
p478
sg28
S'NBA'
p479
sg30
S'8'
p480
sg32
S'46'
p481
sg34
S'49'
p482
sg36
S'.955'
p483
sg38
g361
sg40
S'34'
p484
sg42
S'MIL'
p485
sg44
S'23'
p486
sg46
S'14'
p487
sg48
S'46'
p488
sg50
S'22'
p489
sg52
S'.304'
p490
sg54
S'45'
p491
sg56
S'1993-94'
p492
sg58
S'14'
p493
sg60
S'27'
p494
sg62
S'.304'
p495
sg64
S'230'
p496
sg66
g471
sba(isrc.gp1.models.Totals
Totals
p497
(dp498
g8
S'19'
p499
sg10
g19
sg12
S'.368'
p500
sg14
g361
sg16
S'14'
p501
sg18
g19
sg20
g3
sg22
g23
sg24
S'15'
p502
sg26
g480
sg28
S'NBA'
p503
sg30
g156
sg32
S'38'
p504
sg34
S'36'
p505
sg36
S'.800'
p506
sg38
g480
sg40
S'34'
p507
sg42
S'LAL'
p508
sg44
S'13'
p509
sg46
g300
sg48
S'38'
p510
sg50
S'10'
p511
sg52
S'.368'
p512
sg54
S'34'
p513
sg56
S'1993-94'
p514
sg58
S'14'
p515
sg60
S'18'
p516
sg62
S'.368'
p517
sg64
S'133'
p518
sg66
g19
sba(isrc.gp1.models.Totals
Totals
p519
(dp520
g8
S'57'
p521
sg10
g11
sg12
S'.508'
p522
sg14
S'89'
p523
sg16
S'1.000'
p524
sg18
g11
sg20
S'303'
p525
sg22
g23
sg24
S'.725'
p526
sg26
S'.510'
p527
sg28
S'NBA'
p528
sg30
S'20'
p529
sg32
S'248'
p530
sg34
S'170'
p531
sg36
S'69'
p532
sg38
S'208'
p533
sg40
S'35'
p534
sg42
S'PHO'
p535
sg44
S'69'
p536
sg46
S'37'
p537
sg48
S'125'
p538
sg50
S'50'
p539
sg52
S'247'
p540
sg54
S'151'
p541
sg56
S'1994-95'
p542
sg58
S'126'
p543
sg60
S'64'
p544
sg62
S'.506'
p545
sg64
S'823'
p546
sg66
S'27'
p547
sba(isrc.gp1.models.Totals
Totals
p548
(dp549
g8
S'60'
p550
sg10
g19
sg12
S'.340'
p551
sg14
S'11'
p552
sg16
S'32'
p553
sg18
g19
sg20
g3
sg22
g23
sg24
S'29'
p554
sg26
S'37'
p555
sg28
S'NBA'
p556
sg30
S'16'
p557
sg32
S'94'
p558
sg34
S'101'
p559
sg36
S'.804'
p560
sg38
g300
sg40
S'36'
p561
sg42
S'MIA'
p562
sg44
S'32'
p563
sg46
S'23'
p564
sg48
S'94'
p565
sg50
S'46'
p566
sg52
S'.340'
p567
sg54
S'89'
p568
sg56
S'1995-96'
p569
sg58
S'32'
p570
sg60
S'60'
p571
sg62
S'.340'
p572
sg64
S'399'
p573
sg66
g471
sba(isrc.gp1.models.Totals
Totals
p574
(dp575
g8
S'41'
p576
sg10
g11
sg12
S'.392'
p577
sg14
S'14'
p578
sg16
S'.000'
p579
sg18
g19
sg20
S'133'
p580
sg22
S'PF'
p581
sg24
S'.750'
p582
sg26
S'.392'
p583
sg28
S'NBA'
p584
sg30
S'15'
p585
sg32
S'120'
p586
sg34
S'74'
p587
sg36
S'52'
p588
sg38
S'125'
p589
sg40
S'37'
p590
sg42
S'ORL'
p591
sg44
S'45'
p592
sg46
S'16'
p593
sg48
S'47'
p594
sg50
S'39'
p595
sg52
S'119'
p596
sg54
S'84'
p597
sg56
S'1996-97'
p598
sg58
S'47'
p599
sg60
S'27'
p600
sg62
S'.395'
p601
sg64
S'540'
p602
sg66
g471
sba(isrc.gp1.models.Totals
Totals
p603
(dp604
g8
S'145'
p605
sg10
g19
sg12
S'.418'
p606
sg14
S'34'
p607
sg16
S'155'
p608
sg18
g19
sg20
g3
sg22
g23
sg24
S'97'
p609
sg26
S'96'
p610
sg28
S'NBA'
p611
sg30
S'33'
p612
sg32
S'371'
p613
sg34
S'406'
p614
sg36
S'.807'
p615
sg38
S'44'
p616
sg40
S'38'
p617
sg42
S'ORL'
p618
sg44
S'74'
p619
sg46
S'61'
p620
sg48
S'371'
p621
sg50
S'119'
p622
sg52
S'.418'
p623
sg54
S'242'
p624
sg56
S'1997-98'
p625
sg58
S'155'
p626
sg60
S'182'
p627
sg62
S'.418'
p628
sg64
S'1272'
p629
sg66
S'33'
p630
sba(isrc.gp1.models.Totals
Totals
p631
(dp632
g8
S'11'
p633
sg10
g19
sg12
S'.379'
p634
sg14
g11
sg16
S'11'
p635
sg18
g19
sg20
g3
sg22
g23
sg24
g304
sg26
g471
sg28
S'NBA'
p636
sg30
g156
sg32
S'29'
p637
sg34
S'28'
p638
sg36
S'.750'
p639
sg38
g331
sg40
S'39'
p640
sg42
S'ORL'
p641
sg44
S'19'
p642
sg46
g480
sg48
S'29'
p643
sg50
g480
sg52
S'.379'
p644
sg54
S'14'
p645
sg56
S'1998-99'
p646
sg58
S'11'
p647
sg60
S'23'
p648
sg62
S'.379'
p649
sg64
S'143'
p650
sg66
g11
sbasS'_college'
p651
S'Syracuse University'
p652
sS'_toYear'
p653
S'1999'
p654
sS'_height'
p655
S'6-11'
p656
sS'_active'
p657
I00
sS'_shootingHand'
p658
VRight
p659
sS'_name'
p660
S'Danny Schayes'
p661
sS'_per100Possessions'
p662
(lp663
(isrc.gp1.models.Per100Possession
Per100Possession
p664
(dp665
g8
S'3.7'
p666
sg10
S'0.0'
p667
sg12
S'.481'
p668
sS'_offensiveRating'
p669
S'101'
p670
sg14
S'4.2'
p671
sg16
S'.000'
p672
sg18
S'0.0'
p673
sg20
S'18.3'
p674
sg22
g23
sS'_defensiveRating'
p675
S'109'
p676
sg24
S'.757'
p677
sg28
S'NBA'
p678
sg30
S'1.3'
p679
sg32
S'14.9'
p680
sg34
S'8.3'
p681
sg36
S'5.3'
p682
sg38
S'12.2'
p683
sg40
S'22'
p684
sg42
S'UTA'
p685
sg44
S'82'
p686
sg46
S'2.1'
p687
sg48
S'7.2'
p688
sg50
S'4.0'
p689
sg52
S'14.9'
p690
sg54
S'8.4'
p691
sg56
S'1981-82'
p692
sg58
S'7.2'
p693
sg60
S'4.3'
p694
sg62
S'.482'
p695
sg64
S'1623'
p696
sg66
S'20'
p697
sba(isrc.gp1.models.Per100Possession
Per100Possession
p698
(dp699
g8
S'3.9'
p700
sg10
S'0.0'
p701
sg12
S'.457'
p702
sg669
S'95'
p703
sg14
S'4.0'
p704
sg16
S'.000'
p705
sg18
S'0.0'
p706
sg20
S'17.6'
p707
sg22
g23
sg675
S'105'
p708
sg24
S'.773'
p709
sg28
S'NBA'
p710
sg30
S'1.0'
p711
sg32
S'14.5'
p712
sg34
S'6.3'
p713
sg36
S'5.7'
p714
sg38
S'12.3'
p715
sg40
S'23'
p716
sg42
S'TOT'
p717
sg44
S'82'
p718
sg46
S'1.9'
p719
sg48
S'6.6'
p720
sg50
S'4.4'
p721
sg52
S'14.5'
p722
sg54
S'8.4'
p723
sg56
S'1982-83'
p724
sg58
S'6.6'
p725
sg60
S'4.9'
p726
sg62
S'.457'
p727
sg64
S'2284'
p728
sg66
S'50'
p729
sba(isrc.gp1.models.Per100Possession
Per100Possession
p730
(dp731
g8
S'3.7'
p732
sg10
S'0.0'
p733
sg12
S'.449'
p734
sg669
S'93'
p735
sg14
S'4.5'
p736
sg16
S'.000'
p737
sg18
S'0.0'
p738
sg20
S'16.9'
p739
sg22
g23
sg675
S'104'
p740
sg24
S'.805'
p741
sg28
S'NBA'
p742
sg30
S'1.1'
p743
sg32
S'14.0'
p744
sg34
S'5.9'
p745
sg36
S'5.3'
p746
sg38
S'12.3'
p747
sg40
S'23'
p748
sg42
S'UTA'
p749
sg44
S'50'
p750
sg46
S'1.9'
p751
sg48
S'6.3'
p752
sg50
S'4.3'
p753
sg52
S'14.0'
p754
sg54
S'8.5'
p755
sg56
S'1982-83'
p756
sg58
S'6.3'
p757
sg60
S'5.3'
p758
sg62
S'.450'
p759
sg64
S'1638'
p760
sg66
S'50'
p761
sba(isrc.gp1.models.Per100Possession
Per100Possession
p762
(dp763
g8
S'8.2'
p764
sg10
S'0.0'
p765
sg12
S'.472'
p766
sg669
S'108'
p767
sg14
S'1.0'
p768
sg16
S'7.4'
p769
sg18
S'0.0'
p770
sg20
S'101'
p771
sg22
g23
sg675
g3
sg24
S'4.2'
p772
sg28
S'NBA'
p773
sg30
S'2.0'
p774
sg32
S'15.6'
p775
sg34
S'19.4'
p776
sg36
S'.710'
p777
sg38
S'2.7'
p778
sg40
S'23'
p779
sg42
S'DEN'
p780
sg44
S'32'
p781
sg46
S'3.8'
p782
sg48
S'15.6'
p783
sg50
S'6.6'
p784
sg52
S'.472'
p785
sg54
S'12.3'
p786
sg56
S'1982-83'
p787
sg58
S'7.4'
p788
sg60
S'7.2'
p789
sg62
S'4.7'
p790
sg64
S'646'
p791
sg66
g19
sba(isrc.gp1.models.Per100Possession
Per100Possession
p792
(dp793
g8
S'4.4'
p794
sg10
S'0.1'
p795
sg12
S'.493'
p796
sg669
S'111'
p797
sg14
S'2.8'
p798
sg16
S'.000'
p799
sg18
S'0.0'
p800
sg20
S'17.8'
p801
sg22
g23
sg675
S'110'
p802
sg24
S'.790'
p803
sg28
S'NBA'
p804
sg30
S'1.0'
p805
sg32
S'11.4'
p806
sg34
S'9.4'
p807
sg36
S'8.3'
p808
sg38
S'13.3'
p809
sg40
S'24'
p810
sg42
S'DEN'
p811
sg44
S'82'
p812
sg46
S'1.8'
p813
sg48
S'5.6'
p814
sg50
S'6.6'
p815
sg52
S'11.3'
p816
sg54
S'8.8'
p817
sg56
S'1983-84'
p818
sg58
S'5.6'
p819
sg60
S'3.6'
p820
sg62
S'.496'
p821
sg64
S'1420'
p822
sg66
S'15'
p823
sba(isrc.gp1.models.Per100Possession
Per100Possession
p824
(dp825
g8
S'7.9'
p826
sg10
S'0.0'
p827
sg12
S'.465'
p828
sg669
S'106'
p829
sg14
S'1.6'
p830
sg16
S'4.9'
p831
sg18
S'0.0'
p832
sg20
S'110'
p833
sg22
g23
sg675
g3
sg24
S'3.9'
p834
sg28
S'NBA'
p835
sg30
S'2.1'
p836
sg32
S'10.6'
p837
sg34
S'16.4'
p838
sg36
S'.814'
p839
sg38
S'3.1'
p840
sg40
S'25'
p841
sg42
S'DEN'
p842
sg44
S'56'
p843
sg46
S'3.6'
p844
sg48
S'10.6'
p845
sg50
S'8.0'
p846
sg52
S'.465'
p847
sg54
S'11.8'
p848
sg56
S'1984-85'
p849
sg58
S'4.9'
p850
sg60
S'8.1'
p851
sg62
S'6.5'
p852
sg64
S'542'
p853
sg66
g19
sba(isrc.gp1.models.Per100Possession
Per100Possession
p854
(dp855
g8
S'4.2'
p856
sg10
S'0.0'
p857
sg12
S'.502'
p858
sg669
S'114'
p859
sg14
S'2.1'
p860
sg16
S'.000'
p861
sg18
S'0.0'
p862
sg20
S'17.9'
p863
sg22
g23
sg675
S'105'
p864
sg24
S'.777'
p865
sg28
S'NBA'
p866
sg30
S'1.1'
p867
sg32
S'12.0'
p868
sg34
S'8.1'
p869
sg36
S'7.6'
p870
sg38
S'11.9'
p871
sg40
S'26'
p872
sg42
S'DEN'
p873
sg44
S'80'
p874
sg46
S'1.7'
p875
sg48
S'6.0'
p876
sg50
S'5.9'
p877
sg52
S'11.9'
p878
sg54
S'7.7'
p879
sg56
S'1985-86'
p880
sg58
S'6.0'
p881
sg60
S'2.9'
p882
sg62
S'.503'
p883
sg64
S'1654'
p884
sg66
S'13'
p885
sba(isrc.gp1.models.Per100Possession
Per100Possession
p886
(dp887
g8
S'7.6'
p888
sg10
S'0.0'
p889
sg12
S'.519'
p890
sg669
S'110'
p891
sg14
S'0.6'
p892
sg16
S'6.1'
p893
sg18
S'0.0'
p894
sg20
S'117'
p895
sg22
g23
sg675
g3
sg24
S'3.5'
p896
sg28
S'NBA'
p897
sg30
S'2.1'
p898
sg32
S'11.8'
p899
sg34
S'18.9'
p900
sg36
S'.779'
p901
sg38
S'2.5'
p902
sg40
S'27'
p903
sg42
S'DEN'
p904
sg44
S'76'
p905
sg46
S'2.8'
p906
sg48
S'11.8'
p907
sg50
S'8.5'
p908
sg52
S'.519'
p909
sg54
S'11.0'
p910
sg56
S'1986-87'
p911
sg58
S'6.1'
p912
sg60
S'7.7'
p913
sg62
S'6.7'
p914
sg64
S'1556'
p915
sg66
S'41'
p916
sba(isrc.gp1.models.Per100Possession
Per100Possession
p917
(dp918
g8
S'4.2'
p919
sg10
S'0.0'
p920
sg12
S'.540'
p921
sg669
S'122'
p922
sg14
S'2.2'
p923
sg16
S'.000'
p924
sg18
S'0.0'
p925
sg20
S'23.7'
p926
sg22
S'PF'
p927
sg675
S'104'
p928
sg24
S'.836'
p929
sg28
S'NBA'
p930
sg30
S'1.3'
p931
sg32
S'14.0'
p932
sg34
S'6.8'
p933
sg36
S'10.2'
p934
sg38
S'13.9'
p935
sg40
S'28'
p936
sg42
S'DEN'
p937
sg44
S'81'
p938
sg46
S'1.9'
p939
sg48
S'7.6'
p940
sg50
S'8.5'
p941
sg52
S'14.0'
p942
sg54
S'9.7'
p943
sg56
S'1987-88'
p944
sg58
S'7.6'
p945
sg60
S'3.3'
p946
sg62
S'.542'
p947
sg64
S'2166'
p948
sg66
S'74'
p949
sba(isrc.gp1.models.Per100Possession
Per100Possession
p950
(dp951
g8
S'3.3'
p952
sg10
S'0.2'
p953
sg12
S'.522'
p954
sg669
S'114'
p955
sg14
S'2.4'
p956
sg16
S'.333'
p957
sg18
S'0.1'
p958
sg20
S'22.6'
p959
sg22
g23
sg675
S'106'
p960
sg24
S'.826'
p961
sg28
S'NBA'
p962
sg30
S'1.0'
p963
sg32
S'14.1'
p964
sg34
S'7.4'
p965
sg36
S'9.4'
p966
sg38
S'11.6'
p967
sg40
S'29'
p968
sg42
S'DEN'
p969
sg44
S'76'
p970
sg46
S'1.9'
p971
sg48
S'7.3'
p972
sg50
S'7.7'
p973
sg52
S'13.9'
p974
sg54
S'8.3'
p975
sg56
S'1988-89'
p976
sg58
S'7.4'
p977
sg60
S'3.7'
p978
sg62
S'.525'
p979
sg64
S'1918'
p980
sg66
S'64'
p981
sba(isrc.gp1.models.Per100Possession
Per100Possession
p982
(dp983
g8
S'4.5'
p984
sg10
S'0.2'
p985
sg12
S'.494'
p986
sg669
S'122'
p987
sg14
S'2.3'
p988
sg16
S'.000'
p989
sg18
S'0.0'
p990
sg20
S'21.0'
p991
sg22
g23
sg675
S'105'
p992
sg24
S'.852'
p993
sg28
S'NBA'
p994
sg30
S'1.6'
p995
sg32
S'12.6'
p996
sg34
S'7.6'
p997
sg36
S'10.1'
p998
sg38
S'13.0'
p999
sg40
S'30'
p1000
sg42
S'DEN'
p1001
sg44
S'53'
p1002
sg46
S'1.7'
p1003
sg48
S'6.2'
p1004
sg50
S'8.6'
p1005
sg52
S'12.4'
p1006
sg54
S'8.6'
p1007
sg56
S'1989-90'
p1008
sg58
S'6.2'
p1009
sg60
S'2.7'
p1010
sg62
S'.500'
p1011
sg64
S'1194'
p1012
sg66
S'22'
p1013
sba(isrc.gp1.models.Per100Possession
Per100Possession
p1014
(dp1015
g8
S'3.9'
p1016
sg10
S'0.1'
p1017
sg12
S'.499'
p1018
sg669
S'119'
p1019
sg14
S'2.2'
p1020
sg16
S'.000'
p1021
sg18
S'0.0'
p1022
sg20
S'19.5'
p1023
sg22
g23
sg675
S'107'
p1024
sg24
S'.835'
p1025
sg28
S'NBA'
p1026
sg30
S'1.2'
p1027
sg32
S'13.4'
p1028
sg34
S'5.9'
p1029
sg36
S'7.4'
p1030
sg38
S'12.0'
p1031
sg40
S'31'
p1032
sg42
S'MIL'
p1033
sg44
S'82'
p1034
sg46
S'1.4'
p1035
sg48
S'6.7'
p1036
sg50
S'6.1'
p1037
sg52
S'13.3'
p1038
sg54
S'8.1'
p1039
sg56
S'1990-91'
p1040
sg58
S'6.7'
p1041
sg60
S'2.4'
p1042
sg62
S'.503'
p1043
sg64
S'2228'
p1044
sg66
S'38'
p1045
sba(isrc.gp1.models.Per100Possession
Per100Possession
p1046
(dp1047
g8
S'7.6'
p1048
sg10
S'0.0'
p1049
sg12
S'.417'
p1050
sg669
S'110'
p1051
sg14
S'1.3'
p1052
sg16
S'5.7'
p1053
sg18
S'0.0'
p1054
sg20
S'105'
p1055
sg22
g23
sg675
g3
sg24
S'4.0'
p1056
sg28
S'NBA'
p1057
sg30
S'1.3'
p1058
sg32
S'13.8'
p1059
sg34
S'16.6'
p1060
sg36
S'.771'
p1061
sg38
S'2.4'
p1062
sg40
S'32'
p1063
sg42
S'MIL'
p1064
sg44
S'43'
p1065
sg46
S'2.8'
p1066
sg48
S'13.8'
p1067
sg50
S'6.6'
p1068
sg52
S'.417'
p1069
sg54
S'11.6'
p1070
sg56
S'1991-92'
p1071
sg58
S'5.7'
p1072
sg60
S'6.8'
p1073
sg62
S'5.1'
p1074
sg64
S'726'
p1075
sg66
g331
sba(isrc.gp1.models.Per100Possession
Per100Possession
p1076
(dp1077
g8
S'3.2'
p1078
sg10
S'0.1'
p1079
sg12
S'.399'
p1080
sg669
S'102'
p1081
sg14
S'3.5'
p1082
sg16
S'.000'
p1083
sg18
S'0.0'
p1084
sg20
S'14.3'
p1085
sg22
g23
sg675
S'109'
p1086
sg24
S'.818'
p1087
sg28
S'NBA'
p1088
sg30
S'1.6'
p1089
sg32
S'11.7'
p1090
sg34
S'6.6'
p1091
sg36
S'6.1'
p1092
sg38
S'11.1'
p1093
sg40
S'33'
p1094
sg42
S'MIL'
p1095
sg44
S'70'
p1096
sg46
S'1.6'
p1097
sg48
S'4.7'
p1098
sg50
S'5.0'
p1099
sg52
S'11.6'
p1100
sg54
S'7.9'
p1101
sg56
S'1992-93'
p1102
sg58
S'4.7'
p1103
sg60
S'2.9'
p1104
sg62
S'.404'
p1105
sg64
S'1124'
p1106
sg66
g443
sba(isrc.gp1.models.Per100Possession
Per100Possession
p1107
(dp1108
g8
S'6.7'
p1109
sg10
S'0.0'
p1110
sg12
S'.333'
p1111
sg669
S'109'
p1112
sg14
S'1.4'
p1113
sg16
S'3.9'
p1114
sg18
S'0.0'
p1115
sg20
S'90'
p1116
sg22
g23
sg675
g3
sg24
S'4.3'
p1117
sg28
S'NBA'
p1118
sg30
S'1.4'
p1119
sg32
S'11.7'
p1120
sg34
S'11.9'
p1121
sg36
S'.906'
p1122
sg38
S'1.8'
p1123
sg40
S'34'
p1124
sg42
S'TOT'
p1125
sg44
S'36'
p1126
sg46
S'3.2'
p1127
sg48
S'11.7'
p1128
sg50
S'4.5'
p1129
sg52
S'.333'
p1130
sg54
S'11.0'
p1131
sg56
S'1993-94'
p1132
sg58
S'3.9'
p1133
sg60
S'6.3'
p1134
sg62
S'4.0'
p1135
sg64
S'363'
p1136
sg66
g471
sba(isrc.gp1.models.Per100Possession
Per100Possession
p1137
(dp1138
g8
S'6.4'
p1139
sg10
S'0.0'
p1140
sg12
S'.304'
p1141
sg669
S'110'
p1142
sg14
S'1.1'
p1143
sg16
S'3.1'
p1144
sg18
S'0.0'
p1145
sg20
S'89'
p1146
sg22
g23
sg675
g3
sg24
S'3.5'
p1147
sg28
S'NBA'
p1148
sg30
S'1.8'
p1149
sg32
S'10.2'
p1150
sg34
S'10.8'
p1151
sg36
S'.955'
p1152
sg38
S'1.1'
p1153
sg40
S'34'
p1154
sg42
S'MIL'
p1155
sg44
S'23'
p1156
sg46
S'3.1'
p1157
sg48
S'10.2'
p1158
sg50
S'4.9'
p1159
sg52
S'.304'
p1160
sg54
S'9.9'
p1161
sg56
S'1993-94'
p1162
sg58
S'3.1'
p1163
sg60
S'6.0'
p1164
sg62
S'4.6'
p1165
sg64
S'230'
p1166
sg66
g471
sba(isrc.gp1.models.Per100Possession
Per100Possession
p1167
(dp1168
g8
S'7.2'
p1169
sg10
S'0.0'
p1170
sg12
S'.368'
p1171
sg669
S'108'
p1172
sg14
S'1.9'
p1173
sg16
S'5.3'
p1174
sg18
S'0.0'
p1175
sg20
S'92'
p1176
sg22
g23
sg675
g3
sg24
S'5.7'
p1177
sg28
S'NBA'
p1178
sg30
S'0.8'
p1179
sg32
S'14.4'
p1180
sg34
S'13.6'
p1181
sg36
S'.800'
p1182
sg38
S'3.0'
p1183
sg40
S'34'
p1184
sg42
S'LAL'
p1185
sg44
S'13'
p1186
sg46
S'3.4'
p1187
sg48
S'14.4'
p1188
sg50
S'3.8'
p1189
sg52
S'.368'
p1190
sg54
S'12.9'
p1191
sg56
S'1993-94'
p1192
sg58
S'5.3'
p1193
sg60
S'6.8'
p1194
sg62
S'3.0'
p1195
sg64
S'133'
p1196
sg66
g19
sba(isrc.gp1.models.Per100Possession
Per100Possession
p1197
(dp1198
g8
S'3.5'
p1199
sg10
S'0.1'
p1200
sg12
S'.508'
p1201
sg669
S'105'
p1202
sg14
S'5.4'
p1203
sg16
S'1.000'
p1204
sg18
S'0.1'
p1205
sg20
S'18.4'
p1206
sg22
g23
sg675
S'108'
p1207
sg24
S'.725'
p1208
sg28
S'NBA'
p1209
sg30
S'1.2'
p1210
sg32
S'15.1'
p1211
sg34
S'10.3'
p1212
sg36
S'4.2'
p1213
sg38
S'12.6'
p1214
sg40
S'35'
p1215
sg42
S'PHO'
p1216
sg44
S'69'
p1217
sg46
S'2.2'
p1218
sg48
S'7.6'
p1219
sg50
S'3.0'
p1220
sg52
S'15.0'
p1221
sg54
S'9.2'
p1222
sg56
S'1994-95'
p1223
sg58
S'7.7'
p1224
sg60
S'3.9'
p1225
sg62
S'.506'
p1226
sg64
S'823'
p1227
sg66
S'27'
p1228
sba(isrc.gp1.models.Per100Possession
Per100Possession
p1229
(dp1230
g8
S'7.9'
p1231
sg10
S'0.0'
p1232
sg12
S'.340'
p1233
sg669
S'102'
p1234
sg14
S'1.5'
p1235
sg16
S'4.2'
p1236
sg18
S'0.0'
p1237
sg20
S'92'
p1238
sg22
g23
sg675
g3
sg24
S'3.8'
p1239
sg28
S'NBA'
p1240
sg30
S'2.1'
p1241
sg32
S'12.4'
p1242
sg34
S'13.3'
p1243
sg36
S'.804'
p1244
sg38
S'1.2'
p1245
sg40
S'36'
p1246
sg42
S'MIA'
p1247
sg44
S'32'
p1248
sg46
S'3.0'
p1249
sg48
S'12.4'
p1250
sg50
S'6.1'
p1251
sg52
S'.340'
p1252
sg54
S'11.8'
p1253
sg56
S'1995-96'
p1254
sg58
S'4.2'
p1255
sg60
S'7.9'
p1256
sg62
S'4.9'
p1257
sg64
S'399'
p1258
sg66
g471
sba(isrc.gp1.models.Per100Possession
Per100Possession
p1259
(dp1260
g8
S'4.1'
p1261
sg10
S'0.1'
p1262
sg12
S'.392'
p1263
sg669
S'96'
p1264
sg14
S'1.4'
p1265
sg16
S'.000'
p1266
sg18
S'0.0'
p1267
sg20
S'13.4'
p1268
sg22
S'PF'
p1269
sg675
S'104'
p1270
sg24
S'.750'
p1271
sg28
S'NBA'
p1272
sg30
S'1.5'
p1273
sg32
S'12.1'
p1274
sg34
S'7.4'
p1275
sg36
S'5.2'
p1276
sg38
S'12.6'
p1277
sg40
S'37'
p1278
sg42
S'ORL'
p1279
sg44
S'45'
p1280
sg46
S'1.6'
p1281
sg48
S'4.7'
p1282
sg50
S'3.9'
p1283
sg52
S'12.0'
p1284
sg54
S'8.5'
p1285
sg56
S'1996-97'
p1286
sg58
S'4.7'
p1287
sg60
S'2.7'
p1288
sg62
S'.395'
p1289
sg64
S'540'
p1290
sg66
g471
sba(isrc.gp1.models.Per100Possession
Per100Possession
p1291
(dp1292
g8
S'6.3'
p1293
sg10
S'0.0'
p1294
sg12
S'.418'
p1295
sg669
S'104'
p1296
sg14
S'1.5'
p1297
sg16
S'6.7'
p1298
sg18
S'0.0'
p1299
sg20
S'101'
p1300
sg22
g23
sg675
g3
sg24
S'4.2'
p1301
sg28
S'NBA'
p1302
sg30
S'1.4'
p1303
sg32
S'16.1'
p1304
sg34
S'17.6'
p1305
sg36
S'.807'
p1306
sg38
S'1.9'
p1307
sg40
S'38'
p1308
sg42
S'ORL'
p1309
sg44
S'74'
p1310
sg46
S'2.6'
p1311
sg48
S'16.1'
p1312
sg50
S'5.2'
p1313
sg52
S'.418'
p1314
sg54
S'10.5'
p1315
sg56
S'1997-98'
p1316
sg58
S'6.7'
p1317
sg60
S'7.9'
p1318
sg62
S'4.2'
p1319
sg64
S'1272'
p1320
sg66
S'33'
p1321
sba(isrc.gp1.models.Per100Possession
Per100Possession
p1322
(dp1323
g8
S'4.2'
p1324
sg10
S'0.0'
p1325
sg12
S'.379'
p1326
sg669
S'103'
p1327
sg14
S'0.4'
p1328
sg16
S'4.2'
p1329
sg18
S'0.0'
p1330
sg20
S'80'
p1331
sg22
g23
sg675
g3
sg24
S'1.1'
p1332
sg28
S'NBA'
p1333
sg30
S'0.8'
p1334
sg32
S'11.0'
p1335
sg34
S'10.6'
p1336
sg36
S'.750'
p1337
sg38
S'1.5'
p1338
sg40
S'39'
p1339
sg42
S'ORL'
p1340
sg44
S'19'
p1341
sg46
S'3.0'
p1342
sg48
S'11.0'
p1343
sg50
S'3.0'
p1344
sg52
S'.379'
p1345
sg54
S'5.3'
p1346
sg56
S'1998-99'
p1347
sg58
S'4.2'
p1348
sg60
S'8.7'
p1349
sg62
S'2.3'
p1350
sg64
S'143'
p1351
sg66
g11
sbasS'_advanced'
p1352
(lp1353
(isrc.gp1.models.Advanced
Advanced
p1354
(dp1355
S'_offensiveReboundPercentage'
p1356
S'8.5'
p1357
sS'_turnOverPercentage'
p1358
S'20.0'
p1359
sS'_winSharesPer48Minutes'
p1360
S'.050'
p1361
sS'_stealPercentage'
p1362
S'1.3'
p1363
sS'_usagePercentage'
p1364
S'18.7'
p1365
sS'_totalReboundsPercentage'
p1366
S'14.1'
p1367
sS'_defensiveBoxPlusMinus'
p1368
S'0.5'
p1369
sg22
g23
sS'_valueOverReplacementPlayer'
p1370
S'0.2'
p1371
sS'_trueShootingPercentage'
p1372
S'.532'
p1373
sS'_defensiveReboundPercentage'
p1374
S'20.0'
p1375
sS'_freeThrowsAttempRate'
p1376
S'.353'
p1377
sS'_threePointsAttempRate'
p1378
S'.002'
p1379
sg28
S'NBA'
p1380
sS'_offensiveBoxPlusMinues'
p1381
S'-1.9'
p1382
sS'_assistPercentage'
p1383
S'11.6'
p1384
sS'_defensiveWinShares'
p1385
S'1.3'
p1386
sg40
S'22'
p1387
sg42
S'UTA'
p1388
sg44
S'82'
p1389
sS'_blockPercentage'
p1390
S'2.4'
p1391
sS'_playerEfficiencyRating'
p1392
S'13.2'
p1393
sS'_offensiveWinShares'
p1394
S'0.4'
p1395
sg64
S'1623'
p1396
sS'_boxPlusMinus'
p1397
S'-1.5'
p1398
sg56
S'1981-82'
p1399
sS'_winShares'
p1400
S'1.7'
p1401
sba(isrc.gp1.models.Advanced
Advanced
p1402
(dp1403
g1356
S'9.1'
p1404
sg1358
S'22.4'
p1405
sg1360
S'.041'
p1406
sg1362
S'1.0'
p1407
sg1364
S'19.1'
p1408
sg1366
S'14.1'
p1409
sg1368
S'0.9'
p1410
sg22
g23
sg1370
S'0.4'
p1411
sg1372
S'.519'
p1412
sg1374
S'19.0'
p1413
sg1376
S'.394'
p1414
sg1378
S'.001'
p1415
sg28
S'NBA'
p1416
sg1381
S'-2.2'
p1417
sg1383
S'11.7'
p1418
sg1385
S'2.3'
p1419
sg40
S'23'
p1420
sg42
S'TOT'
p1421
sg44
S'82'
p1422
sg1390
S'2.2'
p1423
sg1392
S'12.1'
p1424
sg1394
S'-0.4'
p1425
sg64
S'2284'
p1426
sg1397
S'-1.4'
p1427
sg56
S'1982-83'
p1428
sg1400
S'2.0'
p1429
sba(isrc.gp1.models.Advanced
Advanced
p1430
(dp1431
g1356
S'8.8'
p1432
sg1358
S'24.5'
p1433
sg1360
S'.033'
p1434
sg1362
S'1.1'
p1435
sg1364
S'19.0'
p1436
sg1366
S'14.0'
p1437
sg1368
S'1.5'
p1438
sg22
g23
sg1370
S'0.4'
p1439
sg1372
S'.516'
p1440
sg1374
S'18.9'
p1441
sg1376
S'.379'
p1442
sg1378
S'.002'
p1443
sg28
S'NBA'
p1444
sg1381
S'-2.5'
p1445
sg1383
S'13.4'
p1446
sg1385
S'1.9'
p1447
sg40
S'23'
p1448
sg42
S'UTA'
p1449
sg44
S'50'
p1450
sg1390
S'2.1'
p1451
sg1392
S'11.7'
p1452
sg1394
S'-0.8'
p1453
sg64
S'1638'
p1454
sg1397
S'-0.9'
p1455
sg56
S'1982-83'
p1456
sg1400
S'1.1'
p1457
sba(isrc.gp1.models.Advanced
Advanced
p1458
(dp1459
g1356
S'9.8'
p1460
sg1358
S'17.2'
p1461
sg1360
S'.062'
p1462
sg1362
S'1.0'
p1463
sg1364
S'19.3'
p1464
sg1366
S'14.6'
p1465
sg1368
S'-0.9'
p1466
sg22
g23
sg1370
S'-0.1'
p1467
sg1372
S'.525'
p1468
sg1374
S'19.3'
p1469
sg1376
S'.426'
p1470
sg1378
S'.000'
p1471
sg28
S'NBA'
p1472
sg1381
S'-1.6'
p1473
sg1383
S'7.5'
p1474
sg1385
S'0.4'
p1475
sg40
S'23'
p1476
sg42
S'DEN'
p1477
sg44
S'32'
p1478
sg1390
S'2.3'
p1479
sg1392
S'13.2'
p1480
sg1394
S'0.4'
p1481
sg64
S'646'
p1482
sg1397
S'-2.5'
p1483
sg56
S'1982-83'
p1484
sg1400
S'0.8'
p1485
sba(isrc.gp1.models.Advanced
Advanced
p1486
(dp1487
g1356
S'10.5'
p1488
sg1358
S'19.5'
p1489
sg1360
S'.095'
p1490
sg1362
S'1.0'
p1491
sg1364
S'16.2'
p1492
sg1366
S'16.0'
p1493
sg1368
S'-0.3'
p1494
sg22
g23
sg1370
S'0.2'
p1495
sg1372
S'.592'
p1496
sg1374
S'21.9'
p1497
sg1376
S'.733'
p1498
sg1378
S'.005'
p1499
sg28
S'NBA'
p1500
sg1381
S'-1.3'
p1501
sg1383
S'7.4'
p1502
sg1385
S'1.1'
p1503
sg40
S'24'
p1504
sg42
S'DEN'
p1505
sg44
S'82'
p1506
sg1390
S'2.2'
p1507
sg1392
S'12.9'
p1508
sg1394
S'1.8'
p1509
sg64
S'1420'
p1510
sg1397
S'-1.5'
p1511
sg56
S'1983-84'
p1512
sg1400
S'2.8'
p1513
sba(isrc.gp1.models.Advanced
Advanced
p1514
(dp1515
g1356
S'8.9'
p1516
sg1358
S'20.4'
p1517
sg1360
S'.109'
p1518
sg1362
S'1.6'
p1519
sg1364
S'15.0'
p1520
sg1366
S'14.2'
p1521
sg1368
S'0.7'
p1522
sg22
g23
sg1370
S'0.1'
p1523
sg1372
S'.580'
p1524
sg1374
S'20.2'
p1525
sg1376
S'.752'
p1526
sg1378
S'.000'
p1527
sg28
S'NBA'
p1528
sg1381
S'-2.2'
p1529
sg1383
S'8.1'
p1530
sg1385
S'0.7'
p1531
sg40
S'25'
p1532
sg42
S'DEN'
p1533
sg44
S'56'
p1534
sg1390
S'2.6'
p1535
sg1392
S'12.8'
p1536
sg1394
S'0.6'
p1537
sg64
S'542'
p1538
sg1397
S'-1.5'
p1539
sg56
S'1984-85'
p1540
sg1400
S'1.2'
p1541
sba(isrc.gp1.models.Advanced
Advanced
p1542
(dp1543
g1356
S'9.3'
p1544
sg1358
S'15.7'
p1545
sg1360
S'.134'
p1546
sg1362
S'1.1'
p1547
sg1364
S'15.5'
p1548
sg1366
S'13.9'
p1549
sg1368
S'0.7'
p1550
sg22
g23
sg1370
S'0.6'
p1551
sg1372
S'.585'
p1552
sg1374
S'18.8'
p1553
sg1376
S'.632'
p1554
sg1378
S'.002'
p1555
sg28
S'NBA'
p1556
sg1381
S'-1.3'
p1557
sg1383
S'5.9'
p1558
sg1385
S'2.2'
p1559
sg40
S'26'
p1560
sg42
S'DEN'
p1561
sg44
S'80'
p1562
sg1390
S'2.1'
p1563
sg1392
S'13.4'
p1564
sg1394
S'2.4'
p1565
sg64
S'1654'
p1566
sg1397
S'-0.6'
p1567
sg56
S'1985-86'
p1568
sg1400
S'4.6'
p1569
sba(isrc.gp1.models.Advanced
Advanced
p1570
(dp1571
g1356
S'7.6'
p1572
sg1358
S'15.1'
p1573
sg1360
S'.121'
p1574
sg1362
S'0.6'
p1575
sg1364
S'15.5'
p1576
sg1366
S'12.8'
p1577
sg1368
S'-0.1'
p1578
sg22
g23
sg1370
S'0.1'
p1579
sg1372
S'.607'
p1580
sg1374
S'18.7'
p1581
sg1376
S'.726'
p1582
sg1378
S'.000'
p1583
sg28
S'NBA'
p1584
sg1381
S'-1.5'
p1585
sg1383
S'6.7'
p1586
sg1385
S'1.3'
p1587
sg40
S'27'
p1588
sg42
S'DEN'
p1589
sg44
S'76'
p1590
sg1390
S'2.7'
p1591
sg1392
S'13.4'
p1592
sg1394
S'2.6'
p1593
sg64
S'1556'
p1594
sg1397
S'-1.6'
p1595
sg56
S'1986-87'
p1596
sg1400
S'3.9'
p1597
sba(isrc.gp1.models.Advanced
Advanced
p1598
(dp1599
g1356
S'9.3'
p1600
sg1358
S'14.9'
p1601
sg1360
S'.195'
p1602
sg1362
S'1.3'
p1603
sg1364
S'18.7'
p1604
sg1366
S'16.1'
p1605
sg1368
S'0.9'
p1606
sg22
S'PF'
p1607
sg1370
S'1.9'
p1608
sg1372
S'.640'
p1609
sg1374
S'23.3'
p1610
sg1376
S'.729'
p1611
sg1378
S'.003'
p1612
sg28
S'NBA'
p1613
sg1381
S'0.5'
p1614
sg1383
S'6.2'
p1615
sg1385
S'3.3'
p1616
sg40
S'28'
p1617
sg42
S'DEN'
p1618
sg44
S'81'
p1619
sg1390
S'2.4'
p1620
sg1392
S'18.4'
p1621
sg1394
S'5.4'
p1622
sg64
S'2166'
p1623
sg1397
S'1.5'
p1624
sg56
S'1987-88'
p1625
sg1400
S'8.8'
p1626
sba(isrc.gp1.models.Advanced
Advanced
p1627
(dp1628
g1356
S'7.2'
p1629
sg1358
S'17.0'
p1630
sg1360
S'.141'
p1631
sg1362
S'1.0'
p1632
sg1364
S'18.8'
p1633
sg1366
S'13.4'
p1634
sg1368
S'0.3'
p1635
sg22
g23
sg1370
S'0.7'
p1636
sg1372
S'.618'
p1637
sg1374
S'20.3'
p1638
sg1376
S'.662'
p1639
sg1378
S'.015'
p1640
sg28
S'NBA'
p1641
sg1381
S'-0.9'
p1642
sg1383
S'6.9'
p1643
sg1385
S'2.4'
p1644
sg40
S'29'
p1645
sg42
S'DEN'
p1646
sg44
S'76'
p1647
sg1390
S'2.4'
p1648
sg1392
S'15.4'
p1649
sg1394
S'3.2'
p1650
sg64
S'1918'
p1651
sg1397
S'-0.6'
p1652
sg56
S'1988-89'
p1653
sg1400
S'5.6'
p1654
sba(isrc.gp1.models.Advanced
Advanced
p1655
(dp1656
g1356
S'9.7'
p1657
sg1358
S'13.9'
p1658
sg1360
S'.183'
p1659
sg1362
S'1.6'
p1660
sg1364
S'17.0'
p1661
sg1366
S'15.0'
p1662
sg1368
S'1.3'
p1663
sg22
g23
sg1370
S'1.0'
p1664
sg1372
S'.617'
p1665
sg1374
S'21.0'
p1666
sg1376
S'.800'
p1667
sg1378
S'.012'
p1668
sg28
S'NBA'
p1669
sg1381
S'0.0'
p1670
sg1383
S'6.4'
p1671
sg1385
S'1.7'
p1672
sg40
S'30'
p1673
sg42
S'DEN'
p1674
sg44
S'53'
p1675
sg1390
S'2.2'
p1676
sg1392
S'16.5'
p1677
sg1394
S'2.8'
p1678
sg64
S'1194'
p1679
sg1397
S'1.3'
p1680
sg56
S'1989-90'
p1681
sg1400
S'4.5'
p1682
sba(isrc.gp1.models.Advanced
Advanced
p1683
(dp1684
g1356
S'9.1'
p1685
sg1358
S'12.5'
p1686
sg1360
S'.147'
p1687
sg1362
S'1.2'
p1688
sg1364
S'16.3'
p1689
sg1366
S'14.3'
p1690
sg1368
S'0.5'
p1691
sg22
g23
sg1370
S'1.3'
p1692
sg1372
S'.587'
p1693
sg1374
S'19.7'
p1694
sg1376
S'.549'
p1695
sg1378
S'.008'
p1696
sg28
S'NBA'
p1697
sg1381
S'-0.2'
p1698
sg1383
S'6.2'
p1699
sg1385
S'2.6'
p1700
sg40
S'31'
p1701
sg42
S'MIL'
p1702
sg44
S'82'
p1703
sg1390
S'1.8'
p1704
sg1392
S'14.8'
p1705
sg1394
S'4.3'
p1706
sg64
S'2228'
p1707
sg1397
S'0.3'
p1708
sg56
S'1990-91'
p1709
sg1400
S'6.8'
p1710
sba(isrc.gp1.models.Advanced
Advanced
p1711
(dp1712
g1356
S'8.8'
p1713
sg1358
S'14.5'
p1714
sg1360
S'.061'
p1715
sg1362
S'1.3'
p1716
sg1364
S'16.3'
p1717
sg1366
S'13.2'
p1718
sg1368
S'-0.4'
p1719
sg22
g23
sg1370
S'-0.3'
p1720
sg1372
S'.497'
p1721
sg1374
S'18.0'
p1722
sg1376
S'.482'
p1723
sg1378
S'.000'
p1724
sg28
S'NBA'
p1725
sg1381
S'-3.1'
p1726
sg1383
S'6.5'
p1727
sg1385
S'0.6'
p1728
sg40
S'32'
p1729
sg42
S'MIL'
p1730
sg44
S'43'
p1731
sg1390
S'1.6'
p1732
sg1392
S'10.7'
p1733
sg1394
S'0.4'
p1734
sg64
S'726'
p1735
sg1397
S'-3.5'
p1736
sg56
S'1991-92'
p1737
sg1400
S'0.9'
p1738
sba(isrc.gp1.models.Advanced
Advanced
p1739
(dp1740
g1356
S'7.3'
p1741
sg1358
S'16.7'
p1742
sg1360
S'.058'
p1743
sg1362
S'1.6'
p1744
sg1364
S'14.8'
p1745
sg1366
S'12.8'
p1746
sg1368
S'0.8'
p1747
sg22
g23
sg1370
S'-0.3'
p1748
sg1372
S'.498'
p1749
sg1374
S'18.4'
p1750
sg1376
S'.521'
p1751
sg1378
S'.011'
p1752
sg28
S'NBA'
p1753
sg1381
S'-3.7'
p1754
sg1383
S'9.4'
p1755
sg1385
S'1.1'
p1756
sg40
S'33'
p1757
sg42
S'MIL'
p1758
sg44
S'70'
p1759
sg1390
S'2.1'
p1760
sg1392
S'10.6'
p1761
sg1394
S'0.3'
p1762
sg64
S'1124'
p1763
sg1397
S'-3.0'
p1764
sg56
S'1992-93'
p1765
sg1400
S'1.4'
p1766
sba(isrc.gp1.models.Advanced
Advanced
p1767
(dp1768
g1356
S'9.1'
p1769
sg1358
S'19.0'
p1770
sg1360
S'-0.001'
p1771
sg1362
S'1.4'
p1772
sg1364
S'14.3'
p1773
sg1366
S'12.2'
p1774
sg1368
S'-0.8'
p1775
sg22
g23
sg1370
S'-0.4'
p1776
sg1372
S'.433'
p1777
sg1374
S'15.6'
p1778
sg1376
S'.381'
p1779
sg1378
S'.000'
p1780
sg28
S'NBA'
p1781
sg1381
S'-5.9'
p1782
sg1383
S'5.0'
p1783
sg1385
S'0.2'
p1784
sg40
S'34'
p1785
sg42
S'TOT'
p1786
sg44
S'36'
p1787
sg1390
S'1.8'
p1788
sg1392
S'7.4'
p1789
sg1394
S'-0.2'
p1790
sg64
S'363'
p1791
sg1397
S'-6.6'
p1792
sg56
S'1993-94'
p1793
sg1400
S'0.0'
p1794
sba(isrc.gp1.models.Advanced
Advanced
p1795
(dp1796
g1356
S'7.6'
p1797
sg1358
S'20.1'
p1798
sg1360
S'-0.007'
p1799
sg1362
S'1.1'
p1800
sg1364
S'13.1'
p1801
sg1366
S'11.2'
p1802
sg1368
S'-0.9'
p1803
sg22
g23
sg1370
S'-0.3'
p1804
sg1372
S'.440'
p1805
sg1374
S'15.3'
p1806
sg1376
S'.478'
p1807
sg1378
S'.000'
p1808
sg28
S'NBA'
p1809
sg1381
S'-6.8'
p1810
sg1383
S'3.1'
p1811
sg1385
S'0.1'
p1812
sg40
S'34'
p1813
sg42
S'MIL'
p1814
sg44
S'23'
p1815
sg1390
S'2.3'
p1816
sg1392
S'6.3'
p1817
sg1394
S'-0.2'
p1818
sg64
S'230'
p1819
sg1397
S'-7.7'
p1820
sg56
S'1993-94'
p1821
sg1400
S'0.0'
p1822
sba(isrc.gp1.models.Advanced
Advanced
p1823
(dp1824
g1356
S'11.7'
p1825
sg1358
S'17.5'
p1826
sg1360
S'.011'
p1827
sg1362
S'1.9'
p1828
sg1364
S'16.3'
p1829
sg1366
S'13.9'
p1830
sg1368
S'-0.6'
p1831
sg22
g23
sg1370
S'-0.1'
p1832
sg1372
S'.425'
p1833
sg1374
S'16.2'
p1834
sg1376
S'.263'
p1835
sg1378
S'.000'
p1836
sg28
S'NBA'
p1837
sg1381
S'-4.3'
p1838
sg1383
S'8.3'
p1839
sg1385
S'0.1'
p1840
sg40
S'34'
p1841
sg42
S'LAL'
p1842
sg44
S'13'
p1843
sg1390
S'0.9'
p1844
sg1392
S'9.3'
p1845
sg1394
S'-0.1'
p1846
sg64
S'133'
p1847
sg1397
S'-4.8'
p1848
sg56
S'1993-94'
p1849
sg1400
S'0.0'
p1850
sba(isrc.gp1.models.Advanced
Advanced
p1851
(dp1852
g1356
S'7.9'
p1853
sg1358
S'18.7'
p1854
sg1360
S'.084'
p1855
sg1362
S'1.2'
p1856
sg1364
S'18.0'
p1857
sg1366
S'14.5'
p1858
sg1368
S'1.5'
p1859
sg22
g23
sg1370
S'0.2'
p1860
sg1372
S'.544'
p1861
sg1374
S'21.1'
p1862
sg1376
S'.278'
p1863
sg1378
S'.004'
p1864
sg28
S'NBA'
p1865
sg1381
S'-2.3'
p1866
sg1383
S'15.6'
p1867
sg1385
S'0.9'
p1868
sg40
S'35'
p1869
sg42
S'PHO'
p1870
sg44
S'69'
p1871
sg1390
S'3.3'
p1872
sg1392
S'13.2'
p1873
sg1394
S'0.5'
p1874
sg64
S'823'
p1875
sg1397
S'-0.8'
p1876
sg56
S'1994-95'
p1877
sg1400
S'1.4'
p1878
sba(isrc.gp1.models.Advanced
Advanced
p1879
(dp1880
g1356
S'8.7'
p1881
sg1358
S'16.8'
p1882
sg1360
S'.049'
p1883
sg1362
S'1.5'
p1884
sg1364
S'15.6'
p1885
sg1366
S'13.0'
p1886
sg1368
S'1.6'
p1887
sg22
g23
sg1370
S'-0.2'
p1888
sg1372
S'.442'
p1889
sg1374
S'17.1'
p1890
sg1376
S'.489'
p1891
sg1378
S'.000'
p1892
sg28
S'NBA'
p1893
sg1381
S'-6.0'
p1894
sg1383
S'3.5'
p1895
sg1385
S'0.7'
p1896
sg40
S'36'
p1897
sg42
S'MIA'
p1898
sg44
S'32'
p1899
sg1390
S'3.1'
p1900
sg1392
S'8.1'
p1901
sg1394
S'-0.3'
p1902
sg64
S'399'
p1903
sg1397
S'-4.4'
p1904
sg56
S'1995-96'
p1905
sg1400
S'0.4'
p1906
sba(isrc.gp1.models.Advanced
Advanced
p1907
(dp1908
g1356
S'8.7'
p1909
sg1358
S'15.9'
p1910
sg1360
S'.055'
p1911
sg1362
S'1.5'
p1912
sg1364
S'14.5'
p1913
sg1366
S'13.6'
p1914
sg1368
S'0.5'
p1915
sg22
S'PF'
p1916
sg1370
S'-0.4'
p1917
sg1372
S'.465'
p1918
sg1374
S'18.7'
p1919
sg1376
S'.433'
p1920
sg1378
S'.008'
p1921
sg28
S'NBA'
p1922
sg1381
S'-5.3'
p1923
sg1383
S'4.1'
p1924
sg1385
S'0.7'
p1925
sg40
S'37'
p1926
sg42
S'ORL'
p1927
sg44
S'45'
p1928
sg1390
S'2.3'
p1929
sg1392
S'9.3'
p1930
sg1394
S'-0.1'
p1931
sg64
S'540'
p1932
sg1397
S'-4.8'
p1933
sg56
S'1996-97'
p1934
sg1400
S'0.6'
p1935
sba(isrc.gp1.models.Advanced
Advanced
p1936
(dp1937
g1356
S'8.8'
p1938
sg1358
S'12.6'
p1939
sg1360
S'.076'
p1940
sg1362
S'1.5'
p1941
sg1364
S'17.5'
p1942
sg1366
S'11.2'
p1943
sg1368
S'0.2'
p1944
sg22
g23
sg1370
S'-0.2'
p1945
sg1372
S'.479'
p1946
sg1374
S'13.7'
p1947
sg1376
S'.321'
p1948
sg1378
S'.000'
p1949
sg28
S'NBA'
p1950
sg1381
S'-2.9'
p1951
sg1383
S'6.0'
p1952
sg1385
S'1.4'
p1953
sg40
S'38'
p1954
sg42
S'ORL'
p1955
sg44
S'74'
p1956
sg1390
S'1.9'
p1957
sg1392
S'10.9'
p1958
sg1394
S'0.6'
p1959
sg64
S'1272'
p1960
sg1397
S'-2.7'
p1961
sg56
S'1997-98'
p1962
sg1400
S'2.0'
p1963
sba(isrc.gp1.models.Advanced
Advanced
p1964
(dp1965
g1356
S'2.4'
p1966
sg1358
S'19.7'
p1967
sg1360
S'-0.008'
p1968
sg1362
S'0.4'
p1969
sg1364
S'12.9'
p1970
sg1366
S'5.7'
p1971
sg1368
S'-0.7'
p1972
sg22
g23
sg1370
S'-0.2'
p1973
sg1372
S'.431'
p1974
sg1374
S'9.1'
p1975
sg1376
S'.276'
p1976
sg1378
S'.000'
p1977
sg28
S'NBA'
p1978
sg1381
S'-7.1'
p1979
sg1383
S'4.5'
p1980
sg1385
S'0.1'
p1981
sg40
S'39'
p1982
sg42
S'ORL'
p1983
sg44
S'19'
p1984
sg1390
S'1.1'
p1985
sg1392
S'1.9'
p1986
sg1394
S'-0.2'
p1987
sg64
S'143'
p1988
sg1397
S'-7.8'
p1989
sg56
S'1998-99'
p1990
sg1400
S'0.0'
p1991
sbasS'_per36Minutes'
p1992
(lp1993
(isrc.gp1.models.Per36Minutes
Per36Minutes
p1994
(dp1995
g8
S'2.9'
p1996
sg10
S'0.0'
p1997
sg12
S'.481'
p1998
sg14
S'3.2'
p1999
sg16
S'.000'
p2000
sg18
S'0.0'
p2001
sg20
S'14.3'
p2002
sg22
g23
sg24
S'.757'
p2003
sg28
S'NBA'
p2004
sg30
S'1.0'
p2005
sg32
S'11.6'
p2006
sg34
S'6.5'
p2007
sg36
S'4.1'
p2008
sg38
S'9.5'
p2009
sg40
S'22'
p2010
sg42
S'UTA'
p2011
sg44
S'82'
p2012
sg46
S'1.6'
p2013
sg48
S'5.6'
p2014
sg50
S'3.1'
p2015
sg52
S'11.6'
p2016
sg54
S'6.6'
p2017
sg56
S'1981-82'
p2018
sg58
S'5.6'
p2019
sg60
S'3.3'
p2020
sg62
S'.482'
p2021
sg64
S'1623'
p2022
sg66
S'20'
p2023
sba(isrc.gp1.models.Per36Minutes
Per36Minutes
p2024
(dp2025
g8
S'3.2'
p2026
sg10
S'0.0'
p2027
sg12
S'.457'
p2028
sg14
S'3.2'
p2029
sg16
S'.000'
p2030
sg18
S'0.0'
p2031
sg20
S'14.4'
p2032
sg22
g23
sg24
S'.773'
p2033
sg28
S'NBA'
p2034
sg30
S'0.9'
p2035
sg32
S'11.8'
p2036
sg34
S'5.1'
p2037
sg36
S'4.6'
p2038
sg38
S'10.0'
p2039
sg40
S'23'
p2040
sg42
S'TOT'
p2041
sg44
S'82'
p2042
sg46
S'1.5'
p2043
sg48
S'5.4'
p2044
sg50
S'3.6'
p2045
sg52
S'11.8'
p2046
sg54
S'6.9'
p2047
sg56
S'1982-83'
p2048
sg58
S'5.4'
p2049
sg60
S'4.0'
p2050
sg62
S'.457'
p2051
sg64
S'2284'
p2052
sg66
S'50'
p2053
sba(isrc.gp1.models.Per36Minutes
Per36Minutes
p2054
(dp2055
g8
S'3.0'
p2056
sg10
S'0.0'
p2057
sg12
S'.449'
p2058
sg14
S'3.6'
p2059
sg16
S'.000'
p2060
sg18
S'0.0'
p2061
sg20
S'13.6'
p2062
sg22
g23
sg24
S'.805'
p2063
sg28
S'NBA'
p2064
sg30
S'0.9'
p2065
sg32
S'11.3'
p2066
sg34
S'4.7'
p2067
sg36
S'4.3'
p2068
sg38
S'9.9'
p2069
sg40
S'23'
p2070
sg42
S'UTA'
p2071
sg44
S'50'
p2072
sg46
S'1.5'
p2073
sg48
S'5.1'
p2074
sg50
S'3.5'
p2075
sg52
S'11.3'
p2076
sg54
S'6.9'
p2077
sg56
S'1982-83'
p2078
sg58
S'5.1'
p2079
sg60
S'4.3'
p2080
sg62
S'.450'
p2081
sg64
S'1638'
p2082
sg66
S'50'
p2083
sba(isrc.gp1.models.Per36Minutes
Per36Minutes
p2084
(dp2085
g8
S'6.9'
p2086
sg10
S'0.0'
p2087
sg12
S'.472'
p2088
sg14
S'0.8'
p2089
sg16
S'6.2'
p2090
sg18
S'0.0'
p2091
sg20
g3
sg22
g23
sg24
S'3.5'
p2092
sg28
S'NBA'
p2093
sg30
S'1.7'
p2094
sg32
S'13.1'
p2095
sg34
S'16.3'
p2096
sg36
S'.710'
p2097
sg38
S'2.2'
p2098
sg40
S'23'
p2099
sg42
S'DEN'
p2100
sg44
S'32'
p2101
sg46
S'3.2'
p2102
sg48
S'13.1'
p2103
sg50
S'5.6'
p2104
sg52
S'.472'
p2105
sg54
S'10.4'
p2106
sg56
S'1982-83'
p2107
sg58
S'6.2'
p2108
sg60
S'6.1'
p2109
sg62
S'4.0'
p2110
sg64
S'646'
p2111
sg66
g19
sba(isrc.gp1.models.Per36Minutes
Per36Minutes
p2112
(dp2113
g8
S'3.7'
p2114
sg10
S'0.1'
p2115
sg12
S'.493'
p2116
sg14
S'2.3'
p2117
sg16
S'.000'
p2118
sg18
S'0.0'
p2119
sg20
S'14.7'
p2120
sg22
g23
sg24
S'.790'
p2121
sg28
S'NBA'
p2122
sg30
S'0.8'
p2123
sg32
S'9.4'
p2124
sg34
S'7.8'
p2125
sg36
S'6.9'
p2126
sg38
S'11.0'
p2127
sg40
S'24'
p2128
sg42
S'DEN'
p2129
sg44
S'82'
p2130
sg46
S'1.5'
p2131
sg48
S'4.6'
p2132
sg50
S'5.5'
p2133
sg52
S'9.4'
p2134
sg54
S'7.3'
p2135
sg56
S'1983-84'
p2136
sg58
S'4.6'
p2137
sg60
S'3.0'
p2138
sg62
S'.496'
p2139
sg64
S'1420'
p2140
sg66
S'15'
p2141
sba(isrc.gp1.models.Per36Minutes
Per36Minutes
p2142
(dp2143
g8
S'6.4'
p2144
sg10
S'0.0'
p2145
sg12
S'.465'
p2146
sg14
S'1.3'
p2147
sg16
S'4.0'
p2148
sg18
S'0.0'
p2149
sg20
g3
sg22
g23
sg24
S'3.2'
p2150
sg28
S'NBA'
p2151
sg30
S'1.7'
p2152
sg32
S'8.6'
p2153
sg34
S'13.2'
p2154
sg36
S'.814'
p2155
sg38
S'2.5'
p2156
sg40
S'25'
p2157
sg42
S'DEN'
p2158
sg44
S'56'
p2159
sg46
S'2.9'
p2160
sg48
S'8.6'
p2161
sg50
S'6.4'
p2162
sg52
S'.465'
p2163
sg54
S'9.6'
p2164
sg56
S'1984-85'
p2165
sg58
S'4.0'
p2166
sg60
S'6.5'
p2167
sg62
S'5.2'
p2168
sg64
S'542'
p2169
sg66
g19
sba(isrc.gp1.models.Per36Minutes
Per36Minutes
p2170
(dp2171
g8
S'3.4'
p2172
sg10
S'0.0'
p2173
sg12
S'.502'
p2174
sg14
S'1.7'
p2175
sg16
S'.000'
p2176
sg18
S'0.0'
p2177
sg20
S'14.3'
p2178
sg22
g23
sg24
S'.777'
p2179
sg28
S'NBA'
p2180
sg30
S'0.9'
p2181
sg32
S'9.6'
p2182
sg34
S'6.5'
p2183
sg36
S'6.1'
p2184
sg38
S'9.6'
p2185
sg40
S'26'
p2186
sg42
S'DEN'
p2187
sg44
S'80'
p2188
sg46
S'1.4'
p2189
sg48
S'4.8'
p2190
sg50
S'4.7'
p2191
sg52
S'9.6'
p2192
sg54
S'6.2'
p2193
sg56
S'1985-86'
p2194
sg58
S'4.8'
p2195
sg60
S'2.3'
p2196
sg62
S'.503'
p2197
sg64
S'1654'
p2198
sg66
S'13'
p2199
sba(isrc.gp1.models.Per36Minutes
Per36Minutes
p2200
(dp2201
g8
S'6.0'
p2202
sg10
S'0.0'
p2203
sg12
S'.519'
p2204
sg14
S'0.5'
p2205
sg16
S'4.9'
p2206
sg18
S'0.0'
p2207
sg20
g3
sg22
g23
sg24
S'2.8'
p2208
sg28
S'NBA'
p2209
sg30
S'1.7'
p2210
sg32
S'9.4'
p2211
sg34
S'15.0'
p2212
sg36
S'.779'
p2213
sg38
S'2.0'
p2214
sg40
S'27'
p2215
sg42
S'DEN'
p2216
sg44
S'76'
p2217
sg46
S'2.2'
p2218
sg48
S'9.4'
p2219
sg50
S'6.8'
p2220
sg52
S'.519'
p2221
sg54
S'8.8'
p2222
sg56
S'1986-87'
p2223
sg58
S'4.9'
p2224
sg60
S'6.2'
p2225
sg62
S'5.3'
p2226
sg64
S'1556'
p2227
sg66
S'41'
p2228
sba(isrc.gp1.models.Per36Minutes
Per36Minutes
p2229
(dp2230
g8
S'3.3'
p2231
sg10
S'0.0'
p2232
sg12
S'.540'
p2233
sg14
S'1.8'
p2234
sg16
S'.000'
p2235
sg18
S'0.0'
p2236
sg20
S'18.8'
p2237
sg22
S'PF'
p2238
sg24
S'.836'
p2239
sg28
S'NBA'
p2240
sg30
S'1.0'
p2241
sg32
S'11.1'
p2242
sg34
S'5.4'
p2243
sg36
S'8.1'
p2244
sg38
S'11.0'
p2245
sg40
S'28'
p2246
sg42
S'DEN'
p2247
sg44
S'81'
p2248
sg46
S'1.5'
p2249
sg48
S'6.0'
p2250
sg50
S'6.8'
p2251
sg52
S'11.1'
p2252
sg54
S'7.7'
p2253
sg56
S'1987-88'
p2254
sg58
S'6.0'
p2255
sg60
S'2.6'
p2256
sg62
S'.542'
p2257
sg64
S'2166'
p2258
sg66
S'74'
p2259
sba(isrc.gp1.models.Per36Minutes
Per36Minutes
p2260
(dp2261
g8
S'2.7'
p2262
sg10
S'0.2'
p2263
sg12
S'.522'
p2264
sg14
S'2.0'
p2265
sg16
S'.333'
p2266
sg18
S'0.1'
p2267
sg20
S'18.2'
p2268
sg22
g23
sg24
S'.826'
p2269
sg28
S'NBA'
p2270
sg30
S'0.8'
p2271
sg32
S'11.4'
p2272
sg34
S'6.0'
p2273
sg36
S'7.5'
p2274
sg38
S'9.4'
p2275
sg40
S'29'
p2276
sg42
S'DEN'
p2277
sg44
S'76'
p2278
sg46
S'1.5'
p2279
sg48
S'5.9'
p2280
sg50
S'6.2'
p2281
sg52
S'11.2'
p2282
sg54
S'6.7'
p2283
sg56
S'1988-89'
p2284
sg58
S'5.9'
p2285
sg60
S'3.0'
p2286
sg62
S'.525'
p2287
sg64
S'1918'
p2288
sg66
S'64'
p2289
sba(isrc.gp1.models.Per36Minutes
Per36Minutes
p2290
(dp2291
g8
S'3.5'
p2292
sg10
S'0.1'
p2293
sg12
S'.494'
p2294
sg14
S'1.8'
p2295
sg16
S'.000'
p2296
sg18
S'0.0'
p2297
sg20
S'16.6'
p2298
sg22
g23
sg24
S'.852'
p2299
sg28
S'NBA'
p2300
sg30
S'1.2'
p2301
sg32
S'9.9'
p2302
sg34
S'6.0'
p2303
sg36
S'8.0'
p2304
sg38
S'10.3'
p2305
sg40
S'30'
p2306
sg42
S'DEN'
p2307
sg44
S'53'
p2308
sg46
S'1.4'
p2309
sg48
S'4.9'
p2310
sg50
S'6.8'
p2311
sg52
S'9.8'
p2312
sg54
S'6.8'
p2313
sg56
S'1989-90'
p2314
sg58
S'4.9'
p2315
sg60
S'2.2'
p2316
sg62
S'.500'
p2317
sg64
S'1194'
p2318
sg66
S'22'
p2319
sba(isrc.gp1.models.Per36Minutes
Per36Minutes
p2320
(dp2321
g8
S'2.8'
p2322
sg10
S'0.1'
p2323
sg12
S'.499'
p2324
sg14
S'1.6'
p2325
sg16
S'.000'
p2326
sg18
S'0.0'
p2327
sg20
S'14.1'
p2328
sg22
g23
sg24
S'.835'
p2329
sg28
S'NBA'
p2330
sg30
S'0.9'
p2331
sg32
S'9.6'
p2332
sg34
S'4.3'
p2333
sg36
S'5.3'
p2334
sg38
S'8.6'
p2335
sg40
S'31'
p2336
sg42
S'MIL'
p2337
sg44
S'82'
p2338
sg46
S'1.0'
p2339
sg48
S'4.8'
p2340
sg50
S'4.4'
p2341
sg52
S'9.6'
p2342
sg54
S'5.8'
p2343
sg56
S'1990-91'
p2344
sg58
S'4.8'
p2345
sg60
S'1.7'
p2346
sg62
S'.503'
p2347
sg64
S'2228'
p2348
sg66
S'38'
p2349
sba(isrc.gp1.models.Per36Minutes
Per36Minutes
p2350
(dp2351
g8
S'5.5'
p2352
sg10
S'0.0'
p2353
sg12
S'.417'
p2354
sg14
S'0.9'
p2355
sg16
S'4.1'
p2356
sg18
S'0.0'
p2357
sg20
g3
sg22
g23
sg24
S'2.9'
p2358
sg28
S'NBA'
p2359
sg30
S'0.9'
p2360
sg32
S'9.9'
p2361
sg34
S'11.9'
p2362
sg36
S'.771'
p2363
sg38
S'1.7'
p2364
sg40
S'32'
p2365
sg42
S'MIL'
p2366
sg44
S'43'
p2367
sg46
S'2.0'
p2368
sg48
S'9.9'
p2369
sg50
S'4.8'
p2370
sg52
S'.417'
p2371
sg54
S'8.3'
p2372
sg56
S'1991-92'
p2373
sg58
S'4.1'
p2374
sg60
S'4.9'
p2375
sg62
S'3.7'
p2376
sg64
S'726'
p2377
sg66
g331
sba(isrc.gp1.models.Per36Minutes
Per36Minutes
p2378
(dp2379
g8
S'2.3'
p2380
sg10
S'0.1'
p2381
sg12
S'.399'
p2382
sg14
S'2.5'
p2383
sg16
S'.000'
p2384
sg18
S'0.0'
p2385
sg20
S'10.3'
p2386
sg22
g23
sg24
S'.818'
p2387
sg28
S'NBA'
p2388
sg30
S'1.2'
p2389
sg32
S'8.4'
p2390
sg34
S'4.7'
p2391
sg36
S'4.4'
p2392
sg38
S'8.0'
p2393
sg40
S'33'
p2394
sg42
S'MIL'
p2395
sg44
S'70'
p2396
sg46
S'1.2'
p2397
sg48
S'3.4'
p2398
sg50
S'3.6'
p2399
sg52
S'8.3'
p2400
sg54
S'5.7'
p2401
sg56
S'1992-93'
p2402
sg58
S'3.4'
p2403
sg60
S'2.1'
p2404
sg62
S'.404'
p2405
sg64
S'1124'
p2406
sg66
g443
sba(isrc.gp1.models.Per36Minutes
Per36Minutes
p2407
(dp2408
g8
S'4.8'
p2409
sg10
S'0.0'
p2410
sg12
S'.333'
p2411
sg14
S'1.0'
p2412
sg16
S'2.8'
p2413
sg18
S'0.0'
p2414
sg20
g3
sg22
g23
sg24
S'3.1'
p2415
sg28
S'NBA'
p2416
sg30
S'1.0'
p2417
sg32
S'8.3'
p2418
sg34
S'8.4'
p2419
sg36
S'.906'
p2420
sg38
S'1.3'
p2421
sg40
S'34'
p2422
sg42
S'TOT'
p2423
sg44
S'36'
p2424
sg46
S'2.3'
p2425
sg48
S'8.3'
p2426
sg50
S'3.2'
p2427
sg52
S'.333'
p2428
sg54
S'7.8'
p2429
sg56
S'1993-94'
p2430
sg58
S'2.8'
p2431
sg60
S'4.5'
p2432
sg62
S'2.9'
p2433
sg64
S'363'
p2434
sg66
g471
sba(isrc.gp1.models.Per36Minutes
Per36Minutes
p2435
(dp2436
g8
S'4.5'
p2437
sg10
S'0.0'
p2438
sg12
S'.304'
p2439
sg14
S'0.8'
p2440
sg16
S'2.2'
p2441
sg18
S'0.0'
p2442
sg20
g3
sg22
g23
sg24
S'2.5'
p2443
sg28
S'NBA'
p2444
sg30
S'1.3'
p2445
sg32
S'7.2'
p2446
sg34
S'7.7'
p2447
sg36
S'.955'
p2448
sg38
S'0.8'
p2449
sg40
S'34'
p2450
sg42
S'MIL'
p2451
sg44
S'23'
p2452
sg46
S'2.2'
p2453
sg48
S'7.2'
p2454
sg50
S'3.4'
p2455
sg52
S'.304'
p2456
sg54
S'7.0'
p2457
sg56
S'1993-94'
p2458
sg58
S'2.2'
p2459
sg60
S'4.2'
p2460
sg62
S'3.3'
p2461
sg64
S'230'
p2462
sg66
g471
sba(isrc.gp1.models.Per36Minutes
Per36Minutes
p2463
(dp2464
g8
S'5.1'
p2465
sg10
S'0.0'
p2466
sg12
S'.368'
p2467
sg14
S'1.4'
p2468
sg16
S'3.8'
p2469
sg18
S'0.0'
p2470
sg20
g3
sg22
g23
sg24
S'4.1'
p2471
sg28
S'NBA'
p2472
sg30
S'0.5'
p2473
sg32
S'10.3'
p2474
sg34
S'9.7'
p2475
sg36
S'.800'
p2476
sg38
S'2.2'
p2477
sg40
S'34'
p2478
sg42
S'LAL'
p2479
sg44
S'13'
p2480
sg46
S'2.4'
p2481
sg48
S'10.3'
p2482
sg50
S'2.7'
p2483
sg52
S'.368'
p2484
sg54
S'9.2'
p2485
sg56
S'1993-94'
p2486
sg58
S'3.8'
p2487
sg60
S'4.9'
p2488
sg62
S'2.2'
p2489
sg64
S'133'
p2490
sg66
g19
sba(isrc.gp1.models.Per36Minutes
Per36Minutes
p2491
(dp2492
g8
S'2.5'
p2493
sg10
S'0.0'
p2494
sg12
S'.508'
p2495
sg14
S'3.9'
p2496
sg16
S'1.000'
p2497
sg18
S'0.0'
p2498
sg20
S'13.3'
p2499
sg22
g23
sg24
S'.725'
p2500
sg28
S'NBA'
p2501
sg30
S'0.9'
p2502
sg32
S'10.8'
p2503
sg34
S'7.4'
p2504
sg36
S'3.0'
p2505
sg38
S'9.1'
p2506
sg40
S'35'
p2507
sg42
S'PHO'
p2508
sg44
S'69'
p2509
sg46
S'1.6'
p2510
sg48
S'5.5'
p2511
sg50
S'2.2'
p2512
sg52
S'10.8'
p2513
sg54
S'6.6'
p2514
sg56
S'1994-95'
p2515
sg58
S'5.5'
p2516
sg60
S'2.8'
p2517
sg62
S'.506'
p2518
sg64
S'823'
p2519
sg66
S'27'
p2520
sba(isrc.gp1.models.Per36Minutes
Per36Minutes
p2521
(dp2522
g8
S'5.4'
p2523
sg10
S'0.0'
p2524
sg12
S'.340'
p2525
sg14
S'1.0'
p2526
sg16
S'2.9'
p2527
sg18
S'0.0'
p2528
sg20
g3
sg22
g23
sg24
S'2.6'
p2529
sg28
S'NBA'
p2530
sg30
S'1.4'
p2531
sg32
S'8.5'
p2532
sg34
S'9.1'
p2533
sg36
S'.804'
p2534
sg38
S'0.8'
p2535
sg40
S'36'
p2536
sg42
S'MIA'
p2537
sg44
S'32'
p2538
sg46
S'2.1'
p2539
sg48
S'8.5'
p2540
sg50
S'4.2'
p2541
sg52
S'.340'
p2542
sg54
S'8.0'
p2543
sg56
S'1995-96'
p2544
sg58
S'2.9'
p2545
sg60
S'5.4'
p2546
sg62
S'3.3'
p2547
sg64
S'399'
p2548
sg66
g471
sba(isrc.gp1.models.Per36Minutes
Per36Minutes
p2549
(dp2550
g8
S'2.7'
p2551
sg10
S'0.1'
p2552
sg12
S'.392'
p2553
sg14
S'0.9'
p2554
sg16
S'.000'
p2555
sg18
S'0.0'
p2556
sg20
S'8.9'
p2557
sg22
S'PF'
p2558
sg24
S'.750'
p2559
sg28
S'NBA'
p2560
sg30
S'1.0'
p2561
sg32
S'8.0'
p2562
sg34
S'4.9'
p2563
sg36
S'3.5'
p2564
sg38
S'8.3'
p2565
sg40
S'37'
p2566
sg42
S'ORL'
p2567
sg44
S'45'
p2568
sg46
S'1.1'
p2569
sg48
S'3.1'
p2570
sg50
S'2.6'
p2571
sg52
S'7.9'
p2572
sg54
S'5.6'
p2573
sg56
S'1996-97'
p2574
sg58
S'3.1'
p2575
sg60
S'1.8'
p2576
sg62
S'.395'
p2577
sg64
S'540'
p2578
sg66
g471
sba(isrc.gp1.models.Per36Minutes
Per36Minutes
p2579
(dp2580
g8
S'4.1'
p2581
sg10
S'0.0'
p2582
sg12
S'.418'
p2583
sg14
S'1.0'
p2584
sg16
S'4.4'
p2585
sg18
S'0.0'
p2586
sg20
g3
sg22
g23
sg24
S'2.7'
p2587
sg28
S'NBA'
p2588
sg30
S'0.9'
p2589
sg32
S'10.5'
p2590
sg34
S'11.5'
p2591
sg36
S'.807'
p2592
sg38
S'1.2'
p2593
sg40
S'38'
p2594
sg42
S'ORL'
p2595
sg44
S'74'
p2596
sg46
S'1.7'
p2597
sg48
S'10.5'
p2598
sg50
S'3.4'
p2599
sg52
S'.418'
p2600
sg54
S'6.8'
p2601
sg56
S'1997-98'
p2602
sg58
S'4.4'
p2603
sg60
S'5.2'
p2604
sg62
S'2.7'
p2605
sg64
S'1272'
p2606
sg66
S'33'
p2607
sba(isrc.gp1.models.Per36Minutes
Per36Minutes
p2608
(dp2609
g8
S'2.8'
p2610
sg10
S'0.0'
p2611
sg12
S'.379'
p2612
sg14
S'0.3'
p2613
sg16
S'2.8'
p2614
sg18
S'0.0'
p2615
sg20
g3
sg22
g23
sg24
S'0.8'
p2616
sg28
S'NBA'
p2617
sg30
S'0.5'
p2618
sg32
S'7.3'
p2619
sg34
S'7.0'
p2620
sg36
S'.750'
p2621
sg38
S'1.0'
p2622
sg40
S'39'
p2623
sg42
S'ORL'
p2624
sg44
S'19'
p2625
sg46
S'2.0'
p2626
sg48
S'7.3'
p2627
sg50
S'2.0'
p2628
sg52
S'.379'
p2629
sg54
S'3.5'
p2630
sg56
S'1998-99'
p2631
sg58
S'2.8'
p2632
sg60
S'5.8'
p2633
sg62
S'1.5'
p2634
sg64
S'143'
p2635
sg66
g11
sbasS'_fromYear'
p2636
S'1982'
p2637
sS'_url'
p2638
S'http://www.basketball-reference.com/players/s/schayda01.html'
p2639
sS'_perGame'
p2640
(isrc.gp1.models.PerGame
PerGame
p2641
(dp2642
g8
S'0.6'
p2643
sg10
S'0.0'
p2644
sg12
S'.379'
p2645
sS'_effectiveFieldGalPercentage'
p2646
S'0.3'
p2647
sg14
S'0.1'
p2648
sg16
S'0.6'
p2649
sg18
S'0.0'
p2650
sg20
g3
sg22
g23
sg24
S'0.2'
p2651
sg28
S'NBA'
p2652
sg30
S'0.1'
p2653
sg34
S'1.5'
p2654
sS'_fieldGoalsttempted'
p2655
S'1.5'
p2656
sg36
S'.750'
p2657
sg38
S'0.2'
p2658
sg40
S'39'
p2659
sg42
S'ORL'
p2660
sg44
S'19'
p2661
sg46
S'0.4'
p2662
sg48
S'1.5'
p2663
sg50
S'0.4'
p2664
sg52
S'.379'
p2665
sg54
S'0.7'
p2666
sg56
S'1998-99'
p2667
sg58
S'0.6'
p2668
sg60
S'1.2'
p2669
sg62
S'.379'
p2670
sg64
S'7.5'
p2671
sg66
g11
sbsS'_weight'
p2672
S'235'
p2673
sS'_dob'
p2674
S'10-5-1959'
p2675
sS'_salary'
p2676
(lp2677
(isrc.gp1.models.Salary
Salary
p2678
(dp2679
g42
S'Denver Nuggets'
p2680
sg28
S'NBA'
p2681
sg2676
S'$350,000'
p2682
sg56
S'1985-86'
p2683
sba(isrc.gp1.models.Salary
Salary
p2684
(dp2685
g42
S'Denver Nuggets'
p2686
sg28
S'NBA'
p2687
sg2676
S'$425,000'
p2688
sg56
S'1987-88'
p2689
sba(isrc.gp1.models.Salary
Salary
p2690
(dp2691
g42
S'Denver Nuggets'
p2692
sg28
S'NBA'
p2693
sg2676
S'$1,000,000'
p2694
sg56
S'1988-89'
p2695
sba(isrc.gp1.models.Salary
Salary
p2696
(dp2697
g42
S'Milwaukee Bucks'
p2698
sg28
S'NBA'
p2699
sg2676
S'$1,500,000'
p2700
sg56
S'1990-91'
p2701
sba(isrc.gp1.models.Salary
Salary
p2702
(dp2703
g42
S'Milwaukee Bucks'
p2704
sg28
S'NBA'
p2705
sg2676
S'$1,600,000'
p2706
sg56
S'1991-92'
p2707
sba(isrc.gp1.models.Salary
Salary
p2708
(dp2709
g42
S'Milwaukee Bucks'
p2710
sg28
S'NBA'
p2711
sg2676
S'$1,600,000'
p2712
sg56
S'1992-93'
p2713
sba(isrc.gp1.models.Salary
Salary
p2714
(dp2715
g42
S'Milwaukee Bucks'
p2716
sg28
S'NBA'
p2717
sg2676
S'$1,750,000'
p2718
sg56
S'1993-94'
p2719
sba(isrc.gp1.models.Salary
Salary
p2720
(dp2721
g42
S'Phoenix Suns'
p2722
sg28
S'NBA'
p2723
sg2676
S'$672,000'
p2724
sg56
S'1994-95'
p2725
sba(isrc.gp1.models.Salary
Salary
p2726
(dp2727
g42
S'Orlando Magic'
p2728
sg28
S'NBA'
p2729
sg2676
S'$575,000'
p2730
sg56
S'1996-97'
p2731
sba(isrc.gp1.models.Salary
Salary
p2732
(dp2733
g42
S'Orlando Magic'
p2734
sg28
S'NBA'
p2735
sg2676
S'$690,000'
p2736
sg56
S'1997-98'
p2737
sba(isrc.gp1.models.Salary
Salary
p2738
(dp2739
g42
S'Orlando Magic'
p2740
sg28
S'NBA'
p2741
sg2676
S'$1,000,000'
p2742
sg56
S'1998-99'
p2743
sba(isrc.gp1.models.Salary
Salary
p2744
(dp2745
g42
S'Minnesota Timberwolves'
p2746
sg28
S'NBA'
p2747
sg2676
S'$211,765'
p2748
sg56
S'1999-00'
p2749
sbasg22
S'C-F'
p2750
sb.