(isrc.gp1.models.Player
Player
p0
(dp1
S'_experience'
p2
S'NA'
p3
sS'_totals'
p4
(lp5
(isrc.gp1.models.Totals
Totals
p6
(dp7
S'_offensiveRebounds'
p8
S'25'
p9
sS'_threePointsAttempted'
p10
S'17'
p11
sS'_fieldGoalsPercentage'
p12
S'.357'
p13
sS'_assist'
p14
S'87'
p15
sS'_threePointsPercentage'
p16
S'.294'
p17
sS'_threePoints'
p18
S'5'
p19
sS'_points'
p20
S'219'
p21
sS'_position'
p22
S'SG'
p23
sS'_freeThrowsPercentage'
p24
S'.862'
p25
sS'_effectiveFieldGoalPercentage'
p26
S'.369'
p27
sS'_league'
p28
S'NBA'
p29
sS'_steals'
p30
S'37'
p31
sS'_fieldGoalsAttempted'
p32
S'221'
p33
sS'_personalFouls'
p34
S'86'
p35
sS'_freeThrowsAttempted'
p36
S'65'
p37
sS'_totalRebounds'
p38
S'56'
p39
sS'_age'
p40
S'22'
p41
sS'_team'
p42
S'BOS'
p43
sS'_games'
p44
S'53'
p45
sS'_blocks'
p46
S'3'
p47
sS'_twoPoints'
p48
S'74'
p49
sS'_freeThrows'
p50
S'56'
p51
sS'_twoPointsAttempted'
p52
S'204'
p53
sS'_defensiveRebounds'
p54
S'31'
p55
sS'_season'
p56
S'1981-82'
p57
sS'_fieldGoals'
p58
S'79'
p59
sS'_turnOvers'
p60
S'53'
p61
sS'_twoPointsPercentage'
p62
S'.363'
p63
sS'_minutesPlayed'
p64
S'564'
p65
sS'_gamesStarted'
p66
S'1'
p67
sba(isrc.gp1.models.Totals
Totals
p68
(dp69
g8
S'83'
p70
sg10
S'29'
p71
sg12
S'.496'
p72
sg14
S'251'
p73
sg16
S'.172'
p74
sg18
g19
sg20
S'791'
p75
sg22
S'SG'
p76
sg24
S'.742'
p77
sg26
S'.499'
p78
sg28
S'NBA'
p79
sg30
S'109'
p80
sg32
S'720'
p81
sg34
S'259'
p82
sg36
S'97'
p83
sg38
S'214'
p84
sg40
S'23'
p85
sg42
S'BOS'
p86
sg44
S'80'
p87
sg46
S'6'
p88
sg48
S'352'
p89
sg50
S'72'
p90
sg52
S'691'
p91
sg54
S'131'
p92
sg56
S'1982-83'
p93
sg58
S'357'
p94
sg60
S'98'
p95
sg62
S'.509'
p96
sg64
S'2048'
p97
sg66
S'76'
p98
sba(isrc.gp1.models.Totals
Totals
p99
(dp100
g8
S'29'
p101
sg10
S'22'
p102
sg12
S'.460'
p103
sg14
S'162'
p104
sg16
S'.273'
p105
sg18
g88
sg20
S'384'
p106
sg22
S'SG'
p107
sg24
S'.821'
p108
sg26
S'.468'
p109
sg28
S'NBA'
p110
sg30
S'41'
p111
sg32
S'361'
p112
sg34
S'143'
p113
sg36
S'56'
p114
sg38
S'116'
p115
sg40
S'24'
p116
sg42
S'BOS'
p117
sg44
S'71'
p118
sg46
S'4'
p119
sg48
S'160'
p120
sg50
S'46'
p121
sg52
S'339'
p122
sg54
S'87'
p123
sg56
S'1983-84'
p124
sg58
S'166'
p125
sg60
S'70'
p126
sg62
S'.472'
p127
sg64
S'1154'
p128
sg66
g47
sba(isrc.gp1.models.Totals
Totals
p129
(dp130
g8
S'76'
p131
sg10
S'56'
p132
sg12
S'.529'
p133
sg14
S'399'
p134
sg16
S'.268'
p135
sg18
S'15'
p136
sg20
S'971'
p137
sg22
S'SG'
p138
sg24
S'.868'
p139
sg26
S'.539'
p140
sg28
S'NBA'
p141
sg30
S'122'
p142
sg32
S'792'
p143
sg34
S'228'
p144
sg36
S'136'
p145
sg38
S'268'
p146
sg40
S'25'
p147
sg42
S'BOS'
p148
sg44
S'75'
p149
sg46
g88
sg48
S'404'
p150
sg50
S'118'
p151
sg52
S'736'
p152
sg54
S'192'
p153
sg56
S'1984-85'
p154
sg58
S'419'
p155
sg60
S'149'
p156
sg62
S'.549'
p157
sg64
S'2564'
p158
sg66
S'73'
p159
sba(isrc.gp1.models.Totals
Totals
p160
(dp161
g8
S'47'
p162
sg10
S'73'
p163
sg12
S'.504'
p164
sg14
S'405'
p165
sg16
S'.356'
p166
sg18
S'26'
p167
sg20
S'855'
p168
sg22
S'SG'
p169
sg24
S'.904'
p170
sg26
S'.522'
p171
sg28
S'NBA'
p172
sg30
S'94'
p173
sg32
S'701'
p174
sg34
S'204'
p175
sg36
S'136'
p176
sg38
S'235'
p177
sg40
S'26'
p178
sg42
S'BOS'
p179
sg44
S'80'
p180
sg46
S'7'
p181
sg48
S'327'
p182
sg50
S'123'
p183
sg52
S'628'
p184
sg54
S'188'
p185
sg56
S'1985-86'
p186
sg58
S'353'
p187
sg60
S'129'
p188
sg62
S'.521'
p189
sg64
S'2407'
p190
sg66
S'78'
p191
sba(isrc.gp1.models.Totals
Totals
p192
(dp193
g8
S'49'
p194
sg10
S'192'
p195
sg12
S'.486'
p196
sg14
S'400'
p197
sg16
S'.443'
p198
sg18
S'85'
p199
sg20
S'1053'
p200
sg22
S'SG'
p201
sg24
S'.897'
p202
sg26
S'.536'
p203
sg28
S'NBA'
p204
sg30
S'101'
p205
sg32
S'844'
p206
sg34
S'189'
p207
sg36
S'165'
p208
sg38
S'242'
p209
sg40
S'27'
p210
sg42
S'BOS'
p211
sg44
S'71'
p212
sg46
S'14'
p213
sg48
S'325'
p214
sg50
S'148'
p215
sg52
S'652'
p216
sg54
S'193'
p217
sg56
S'1986-87'
p218
sg58
S'410'
p219
sg60
S'141'
p220
sg62
S'.498'
p221
sg64
S'2499'
p222
sg66
S'66'
p223
sba(isrc.gp1.models.Totals
Totals
p224
(dp225
g8
S'59'
p226
sg10
S'357'
p227
sg12
S'.491'
p228
sg14
S'503'
p229
sg16
S'.415'
p230
sg18
S'148'
p231
sg20
S'1270'
p232
sg22
S'SG'
p233
sg24
S'.878'
p234
sg26
S'.566'
p235
sg28
S'NBA'
p236
sg30
S'115'
p237
sg32
S'982'
p238
sg34
S'203'
p239
sg36
S'180'
p240
sg38
S'249'
p241
sg40
S'28'
p242
sg42
S'BOS'
p243
sg44
S'81'
p244
sg46
S'17'
p245
sg48
S'334'
p246
sg50
S'158'
p247
sg52
S'625'
p248
sg54
S'190'
p249
sg56
S'1987-88'
p250
sg58
S'482'
p251
sg60
S'153'
p252
sg62
S'.534'
p253
sg64
S'3018'
p254
sg66
S'81'
p255
sba(isrc.gp1.models.Totals
Totals
p256
(dp257
g8
S'71'
p258
sg10
S'305'
p259
sg12
S'.457'
p260
sg14
S'402'
p261
sg16
S'.380'
p262
sg18
S'116'
p263
sg20
S'1281'
p264
sg22
S'PG'
p265
sg24
S'.854'
p266
sg26
S'.512'
p267
sg28
S'NBA'
p268
sg30
S'93'
p269
sg32
S'1051'
p270
sg34
S'186'
p271
sg36
S'240'
p272
sg38
S'255'
p273
sg40
S'29'
p274
sg42
S'TOT'
p275
sg44
S'73'
p276
sg46
S'8'
p277
sg48
S'364'
p278
sg50
S'205'
p279
sg52
S'746'
p280
sg54
S'184'
p281
sg56
S'1988-89'
p282
sg58
S'480'
p283
sg60
S'145'
p284
sg62
S'.488'
p285
sg64
S'2377'
p286
sg66
S'54'
p287
sba(isrc.gp1.models.Totals
Totals
p288
(dp289
g8
S'37'
p290
sg10
S'155'
p291
sg12
S'.460'
p292
sg14
S'215'
p293
sg16
S'.374'
p294
sg18
S'58'
p295
sg20
S'714'
p296
sg22
S'PG'
p297
sg24
S'.891'
p298
sg26
S'.509'
p299
sg28
S'NBA'
p300
sg30
S'52'
p301
sg32
S'589'
p302
sg34
S'108'
p303
sg36
S'128'
p304
sg38
S'154'
p305
sg40
S'29'
p306
sg42
S'BOS'
p307
sg44
S'45'
p308
sg46
g67
sg48
S'213'
p309
sg50
S'114'
p310
sg52
S'434'
p311
sg54
S'117'
p312
sg56
S'1988-89'
p313
sg58
S'271'
p314
sg60
S'82'
p315
sg62
S'.491'
p316
sg64
S'1349'
p317
sg66
S'28'
p318
sba(isrc.gp1.models.Totals
Totals
p319
(dp320
g8
S'34'
p321
sg10
S'150'
p322
sg12
S'.452'
p323
sg14
S'187'
p324
sg16
S'.387'
p325
sg18
S'58'
p326
sg20
S'567'
p327
sg22
S'PG'
p328
sg24
S'.813'
p329
sg26
S'.515'
p330
sg28
S'NBA'
p331
sg30
S'41'
p332
sg32
S'462'
p333
sg34
S'78'
p334
sg36
S'112'
p335
sg38
S'101'
p336
sg40
S'29'
p337
sg42
S'SAC'
p338
sg44
S'28'
p339
sg46
g181
sg48
S'151'
p340
sg50
S'91'
p341
sg52
S'312'
p342
sg54
S'67'
p343
sg56
S'1988-89'
p344
sg58
S'209'
p345
sg60
S'63'
p346
sg62
S'.484'
p347
sg64
S'1028'
p348
sg66
S'26'
p349
sba(isrc.gp1.models.Totals
Totals
p350
(dp351
g8
S'69'
p352
sg10
S'289'
p353
sg12
S'.438'
p354
sg14
S'453'
p355
sg16
S'.374'
p356
sg18
S'108'
p357
sg20
S'1342'
p358
sg22
S'PG'
p359
sg24
S'.831'
p360
sg26
S'.485'
p361
sg28
S'NBA'
p362
sg30
S'113'
p363
sg32
S'1154'
p364
sg34
S'238'
p365
sg36
S'267'
p366
sg38
S'326'
p367
sg40
S'30'
p368
sg42
S'SAC'
p369
sg44
S'75'
p370
sg46
S'18'
p371
sg48
S'398'
p372
sg50
S'222'
p373
sg52
S'865'
p374
sg54
S'257'
p375
sg56
S'1989-90'
p376
sg58
S'506'
p377
sg60
S'185'
p378
sg62
S'.460'
p379
sg64
S'2727'
p380
sg66
S'68'
p381
sba(isrc.gp1.models.Totals
Totals
p382
(dp383
g8
S'45'
p384
sg10
S'251'
p385
sg12
S'.472'
p386
sg14
S'285'
p387
sg16
S'.406'
p388
sg18
S'102'
p389
sg20
S'890'
p390
sg22
S'SG'
p391
sg24
S'.826'
p392
sg26
S'.543'
p393
sg28
S'NBA'
p394
sg30
S'63'
p395
sg32
S'714'
p396
sg34
S'195'
p397
sg36
S'138'
p398
sg38
S'205'
p399
sg40
S'31'
p400
sg42
S'POR'
p401
sg44
S'80'
p402
sg46
S'13'
p403
sg48
S'235'
p404
sg50
S'114'
p405
sg52
S'463'
p406
sg54
S'160'
p407
sg56
S'1990-91'
p408
sg58
S'337'
p409
sg60
S'100'
p410
sg62
S'.508'
p411
sg64
S'1710'
p412
sg66
S'0'
p413
sba(isrc.gp1.models.Totals
Totals
p414
(dp415
g8
S'40'
p416
sg10
S'230'
p417
sg12
S'.442'
p418
sg14
S'202'
p419
sg16
S'.339'
p420
sg18
S'78'
p421
sg20
S'784'
p422
sg22
S'SG'
p423
sg24
S'.824'
p424
sg26
S'.500'
p425
sg28
S'NBA'
p426
sg30
S'73'
p427
sg32
S'676'
p428
sg34
S'148'
p429
sg36
S'131'
p430
sg38
S'148'
p431
sg40
S'32'
p432
sg42
S'POR'
p433
sg44
S'81'
p434
sg46
S'13'
p435
sg48
S'221'
p436
sg50
S'108'
p437
sg52
S'446'
p438
sg54
S'108'
p439
sg56
S'1991-92'
p440
sg58
S'299'
p441
sg60
S'70'
p442
sg62
S'.496'
p443
sg64
S'1595'
p444
sg66
g88
sba(isrc.gp1.models.Totals
Totals
p445
(dp446
g8
S'49'
p447
sg10
S'372'
p448
sg12
S'.462'
p449
sg14
S'260'
p450
sg16
S'.403'
p451
sg18
S'150'
p452
sg20
S'947'
p453
sg22
S'SG'
p454
sg24
S'.848'
p455
sg26
S'.564'
p456
sg28
S'NBA'
p457
sg30
S'69'
p458
sg32
S'730'
p459
sg34
S'175'
p460
sg36
S'145'
p461
sg38
S'214'
p462
sg40
S'33'
p463
sg42
S'PHO'
p464
sg44
S'80'
p465
sg46
g277
sg48
S'187'
p466
sg50
S'123'
p467
sg52
S'358'
p468
sg54
S'165'
p469
sg56
S'1992-93'
p470
sg58
S'337'
p471
sg60
S'113'
p472
sg62
S'.522'
p473
sg64
S'2163'
p474
sg66
g413
sba(isrc.gp1.models.Totals
Totals
p475
(dp476
g8
S'28'
p477
sg10
S'244'
p478
sg12
S'.417'
p479
sg14
S'180'
p480
sg16
S'.328'
p481
sg18
S'80'
p482
sg20
S'606'
p483
sg22
S'SG'
p484
sg24
S'.830'
p485
sg26
S'.492'
p486
sg28
S'NBA'
p487
sg30
S'57'
p488
sg32
S'537'
p489
sg34
S'140'
p490
sg36
S'94'
p491
sg38
S'131'
p492
sg40
S'34'
p493
sg42
S'PHO'
p494
sg44
S'68'
p495
sg46
g277
sg48
S'144'
p496
sg50
S'78'
p497
sg52
S'293'
p498
sg54
S'103'
p499
sg56
S'1993-94'
p500
sg58
S'224'
p501
sg60
S'81'
p502
sg62
S'.491'
p503
sg64
S'1555'
p504
sg66
g67
sba(isrc.gp1.models.Totals
Totals
p505
(dp506
g8
S'25'
p507
sg10
S'214'
p508
sg12
S'.460'
p509
sg14
S'210'
p510
sg16
S'.364'
p511
sg18
S'78'
p512
sg20
S'571'
p513
sg22
S'SG'
p514
sg24
S'.808'
p515
sg26
S'.552'
p516
sg28
S'NBA'
p517
sg30
S'46'
p518
sg32
S'422'
p519
sg34
S'155'
p520
sg36
S'130'
p521
sg38
S'109'
p522
sg40
S'35'
p523
sg42
S'PHO'
p524
sg44
S'74'
p525
sg46
g181
sg48
S'116'
p526
sg50
S'105'
p527
sg52
S'208'
p528
sg54
S'84'
p529
sg56
S'1994-95'
p530
sg58
S'194'
p531
sg60
S'79'
p532
sg62
S'.558'
p533
sg64
S'1374'
p534
sg66
g67
sbasS'_college'
p535
S'Brigham Young University'
p536
sS'_toYear'
p537
S'1995'
p538
sS'_height'
p539
S'6-4'
p540
sS'_active'
p541
I00
sS'_shootingHand'
p542
VRight
p543
sS'_name'
p544
S'Danny Ainge'
p545
sS'_per100Possessions'
p546
(lp547
(isrc.gp1.models.Per100Possession
Per100Possession
p548
(dp549
g8
S'2.1'
p550
sg10
S'1.4'
p551
sg12
S'.357'
p552
sS'_offensiveRating'
p553
S'94'
p554
sg14
S'7.3'
p555
sg16
S'.294'
p556
sg18
S'0.4'
p557
sg20
S'18.4'
p558
sg22
S'SG'
p559
sS'_defensiveRating'
p560
S'104'
p561
sg24
S'.862'
p562
sg28
S'NBA'
p563
sg30
S'3.1'
p564
sg32
S'18.5'
p565
sg34
S'7.2'
p566
sg36
S'5.5'
p567
sg38
S'4.7'
p568
sg40
S'22'
p569
sg42
S'BOS'
p570
sg44
S'53'
p571
sg46
S'0.3'
p572
sg48
S'6.2'
p573
sg50
S'4.7'
p574
sg52
S'17.1'
p575
sg54
S'2.6'
p576
sg56
S'1981-82'
p577
sg58
S'6.6'
p578
sg60
S'4.4'
p579
sg62
S'.363'
p580
sg64
S'564'
p581
sg66
g67
sba(isrc.gp1.models.Per100Possession
Per100Possession
p582
(dp583
g8
S'1.9'
p584
sg10
S'0.7'
p585
sg12
S'.496'
p586
sg553
S'110'
p587
sg14
S'5.7'
p588
sg16
S'.172'
p589
sg18
S'0.1'
p590
sg20
S'17.8'
p591
sg22
S'SG'
p592
sg560
S'104'
p593
sg24
S'.742'
p594
sg28
S'NBA'
p595
sg30
S'2.5'
p596
sg32
S'16.2'
p597
sg34
S'5.8'
p598
sg36
S'2.2'
p599
sg38
S'4.8'
p600
sg40
S'23'
p601
sg42
S'BOS'
p602
sg44
S'80'
p603
sg46
S'0.1'
p604
sg48
S'7.9'
p605
sg50
S'1.6'
p606
sg52
S'15.6'
p607
sg54
S'3.0'
p608
sg56
S'1982-83'
p609
sg58
S'8.0'
p610
sg60
S'2.2'
p611
sg62
S'.509'
p612
sg64
S'2048'
p613
sg66
S'76'
p614
sba(isrc.gp1.models.Per100Possession
Per100Possession
p615
(dp616
g8
S'1.2'
p617
sg10
S'0.9'
p618
sg12
S'.460'
p619
sg553
S'104'
p620
sg14
S'6.8'
p621
sg16
S'.273'
p622
sg18
S'0.3'
p623
sg20
S'16.0'
p624
sg22
S'SG'
p625
sg560
S'107'
p626
sg24
S'.821'
p627
sg28
S'NBA'
p628
sg30
S'1.7'
p629
sg32
S'15.1'
p630
sg34
S'6.0'
p631
sg36
S'2.3'
p632
sg38
S'4.8'
p633
sg40
S'24'
p634
sg42
S'BOS'
p635
sg44
S'71'
p636
sg46
S'0.2'
p637
sg48
S'6.7'
p638
sg50
S'1.9'
p639
sg52
S'14.1'
p640
sg54
S'3.6'
p641
sg56
S'1983-84'
p642
sg58
S'6.9'
p643
sg60
S'2.9'
p644
sg62
S'.472'
p645
sg64
S'1154'
p646
sg66
g47
sba(isrc.gp1.models.Per100Possession
Per100Possession
p647
(dp648
g8
S'1.4'
p649
sg10
S'1.0'
p650
sg12
S'.529'
p651
sg553
S'115'
p652
sg14
S'7.4'
p653
sg16
S'.268'
p654
sg18
S'0.3'
p655
sg20
S'17.9'
p656
sg22
S'SG'
p657
sg560
S'108'
p658
sg24
S'.868'
p659
sg28
S'NBA'
p660
sg30
S'2.2'
p661
sg32
S'14.6'
p662
sg34
S'4.2'
p663
sg36
S'2.5'
p664
sg38
S'4.9'
p665
sg40
S'25'
p666
sg42
S'BOS'
p667
sg44
S'75'
p668
sg46
S'0.1'
p669
sg48
S'7.4'
p670
sg50
S'2.2'
p671
sg52
S'13.6'
p672
sg54
S'3.5'
p673
sg56
S'1984-85'
p674
sg58
S'7.7'
p675
sg60
S'2.7'
p676
sg62
S'.549'
p677
sg64
S'2564'
p678
sg66
S'73'
p679
sba(isrc.gp1.models.Per100Possession
Per100Possession
p680
(dp681
g8
S'0.9'
p682
sg10
S'1.4'
p683
sg12
S'.504'
p684
sg553
S'115'
p685
sg14
S'8.0'
p686
sg16
S'.356'
p687
sg18
S'0.5'
p688
sg20
S'16.8'
p689
sg22
S'SG'
p690
sg560
S'105'
p691
sg24
S'.904'
p692
sg28
S'NBA'
p693
sg30
S'1.9'
p694
sg32
S'13.8'
p695
sg34
S'4.0'
p696
sg36
S'2.7'
p697
sg38
S'4.6'
p698
sg40
S'26'
p699
sg42
S'BOS'
p700
sg44
S'80'
p701
sg46
S'0.1'
p702
sg48
S'6.4'
p703
sg50
S'2.4'
p704
sg52
S'12.4'
p705
sg54
S'3.7'
p706
sg56
S'1985-86'
p707
sg58
S'7.0'
p708
sg60
S'2.5'
p709
sg62
S'.521'
p710
sg64
S'2407'
p711
sg66
S'78'
p712
sba(isrc.gp1.models.Per100Possession
Per100Possession
p713
(dp714
g8
S'1.0'
p715
sg10
S'3.7'
p716
sg12
S'.486'
p717
sg553
S'115'
p718
sg14
S'7.8'
p719
sg16
S'.443'
p720
sg18
S'1.7'
p721
sg20
S'20.5'
p722
sg22
S'SG'
p723
sg560
S'109'
p724
sg24
S'.897'
p725
sg28
S'NBA'
p726
sg30
S'2.0'
p727
sg32
S'16.4'
p728
sg34
S'3.7'
p729
sg36
S'3.2'
p730
sg38
S'4.7'
p731
sg40
S'27'
p732
sg42
S'BOS'
p733
sg44
S'71'
p734
sg46
S'0.3'
p735
sg48
S'6.3'
p736
sg50
S'2.9'
p737
sg52
S'12.7'
p738
sg54
S'3.8'
p739
sg56
S'1986-87'
p740
sg58
S'8.0'
p741
sg60
S'2.7'
p742
sg62
S'.498'
p743
sg64
S'2499'
p744
sg66
S'66'
p745
sba(isrc.gp1.models.Per100Possession
Per100Possession
p746
(dp747
g8
S'1.0'
p748
sg10
S'5.8'
p749
sg12
S'.491'
p750
sg553
S'121'
p751
sg14
S'8.2'
p752
sg16
S'.415'
p753
sg18
S'2.4'
p754
sg20
S'20.6'
p755
sg22
S'SG'
p756
sg560
S'112'
p757
sg24
S'.878'
p758
sg28
S'NBA'
p759
sg30
S'1.9'
p760
sg32
S'15.9'
p761
sg34
S'3.3'
p762
sg36
S'2.9'
p763
sg38
S'4.0'
p764
sg40
S'28'
p765
sg42
S'BOS'
p766
sg44
S'81'
p767
sg46
S'0.3'
p768
sg48
S'5.4'
p769
sg50
S'2.6'
p770
sg52
S'10.1'
p771
sg54
S'3.1'
p772
sg56
S'1987-88'
p773
sg58
S'7.8'
p774
sg60
S'2.5'
p775
sg62
S'.534'
p776
sg64
S'3018'
p777
sg66
S'81'
p778
sba(isrc.gp1.models.Per100Possession
Per100Possession
p779
(dp780
g8
S'1.4'
p781
sg10
S'6.2'
p782
sg12
S'.457'
p783
sg553
S'116'
p784
sg14
S'8.2'
p785
sg16
S'.380'
p786
sg18
S'2.4'
p787
sg20
S'26.1'
p788
sg22
S'PG'
p789
sg560
S'111'
p790
sg24
S'.854'
p791
sg28
S'NBA'
p792
sg30
S'1.9'
p793
sg32
S'21.4'
p794
sg34
S'3.8'
p795
sg36
S'4.9'
p796
sg38
S'5.2'
p797
sg40
S'29'
p798
sg42
S'TOT'
p799
sg44
S'73'
p800
sg46
S'0.2'
p801
sg48
S'7.4'
p802
sg50
S'4.2'
p803
sg52
S'15.2'
p804
sg54
S'3.7'
p805
sg56
S'1988-89'
p806
sg58
S'9.8'
p807
sg60
S'3.0'
p808
sg62
S'.488'
p809
sg64
S'2377'
p810
sg66
S'54'
p811
sba(isrc.gp1.models.Per100Possession
Per100Possession
p812
(dp813
g8
S'1.3'
p814
sg10
S'5.6'
p815
sg12
S'.460'
p816
sg553
S'116'
p817
sg14
S'7.8'
p818
sg16
S'.374'
p819
sg18
S'2.1'
p820
sg20
S'25.9'
p821
sg22
S'PG'
p822
sg560
S'111'
p823
sg24
S'.891'
p824
sg28
S'NBA'
p825
sg30
S'1.9'
p826
sg32
S'21.4'
p827
sg34
S'3.9'
p828
sg36
S'4.6'
p829
sg38
S'5.6'
p830
sg40
S'29'
p831
sg42
S'BOS'
p832
sg44
S'45'
p833
sg46
S'0.0'
p834
sg48
S'7.7'
p835
sg50
S'4.1'
p836
sg52
S'15.7'
p837
sg54
S'4.2'
p838
sg56
S'1988-89'
p839
sg58
S'9.8'
p840
sg60
S'3.0'
p841
sg62
S'.491'
p842
sg64
S'1349'
p843
sg66
S'28'
p844
sba(isrc.gp1.models.Per100Possession
Per100Possession
p845
(dp846
g8
S'1.6'
p847
sg10
S'7.0'
p848
sg12
S'.452'
p849
sg553
S'116'
p850
sg14
S'8.7'
p851
sg16
S'.387'
p852
sg18
S'2.7'
p853
sg20
S'26.3'
p854
sg22
S'PG'
p855
sg560
S'112'
p856
sg24
S'.813'
p857
sg28
S'NBA'
p858
sg30
S'1.9'
p859
sg32
S'21.5'
p860
sg34
S'3.6'
p861
sg36
S'5.2'
p862
sg38
S'4.7'
p863
sg40
S'29'
p864
sg42
S'SAC'
p865
sg44
S'28'
p866
sg46
S'0.3'
p867
sg48
S'7.0'
p868
sg50
S'4.2'
p869
sg52
S'14.5'
p870
sg54
S'3.1'
p871
sg56
S'1988-89'
p872
sg58
S'9.7'
p873
sg60
S'2.9'
p874
sg62
S'.484'
p875
sg64
S'1028'
p876
sg66
S'26'
p877
sba(isrc.gp1.models.Per100Possession
Per100Possession
p878
(dp879
g8
S'1.3'
p880
sg10
S'5.3'
p881
sg12
S'.438'
p882
sg553
S'107'
p883
sg14
S'8.2'
p884
sg16
S'.374'
p885
sg18
S'2.0'
p886
sg20
S'24.4'
p887
sg22
S'PG'
p888
sg560
S'110'
p889
sg24
S'.831'
p890
sg28
S'NBA'
p891
sg30
S'2.1'
p892
sg32
S'21.0'
p893
sg34
S'4.3'
p894
sg36
S'4.9'
p895
sg38
S'5.9'
p896
sg40
S'30'
p897
sg42
S'SAC'
p898
sg44
S'75'
p899
sg46
S'0.3'
p900
sg48
S'7.2'
p901
sg50
S'4.0'
p902
sg52
S'15.7'
p903
sg54
S'4.7'
p904
sg56
S'1989-90'
p905
sg58
S'9.2'
p906
sg60
S'3.4'
p907
sg62
S'.460'
p908
sg64
S'2727'
p909
sg66
S'68'
p910
sba(isrc.gp1.models.Per100Possession
Per100Possession
p911
(dp912
g8
S'1.3'
p913
sg10
S'7.0'
p914
sg12
S'.472'
p915
sg553
S'119'
p916
sg14
S'8.0'
p917
sg16
S'.406'
p918
sg18
S'2.8'
p919
sg20
S'24.9'
p920
sg22
S'SG'
p921
sg560
S'106'
p922
sg24
S'.826'
p923
sg28
S'NBA'
p924
sg30
S'1.8'
p925
sg32
S'19.9'
p926
sg34
S'5.4'
p927
sg36
S'3.9'
p928
sg38
S'5.7'
p929
sg40
S'31'
p930
sg42
S'POR'
p931
sg44
S'80'
p932
sg46
S'0.4'
p933
sg48
S'6.6'
p934
sg50
S'3.2'
p935
sg52
S'12.9'
p936
sg54
S'4.5'
p937
sg56
S'1990-91'
p938
sg58
S'9.4'
p939
sg60
S'2.8'
p940
sg62
S'.508'
p941
sg64
S'1710'
p942
sg66
g413
sba(isrc.gp1.models.Per100Possession
Per100Possession
p943
(dp944
g8
S'1.2'
p945
sg10
S'7.0'
p946
sg12
S'.442'
p947
sg553
S'116'
p948
sg14
S'6.1'
p949
sg16
S'.339'
p950
sg18
S'2.4'
p951
sg20
S'23.8'
p952
sg22
S'SG'
p953
sg560
S'106'
p954
sg24
S'.824'
p955
sg28
S'NBA'
p956
sg30
S'2.2'
p957
sg32
S'20.6'
p958
sg34
S'4.5'
p959
sg36
S'4.0'
p960
sg38
S'4.5'
p961
sg40
S'32'
p962
sg42
S'POR'
p963
sg44
S'81'
p964
sg46
S'0.4'
p965
sg48
S'6.7'
p966
sg50
S'3.3'
p967
sg52
S'13.6'
p968
sg54
S'3.3'
p969
sg56
S'1991-92'
p970
sg58
S'9.1'
p971
sg60
S'2.1'
p972
sg62
S'.496'
p973
sg64
S'1595'
p974
sg66
g88
sba(isrc.gp1.models.Per100Possession
Per100Possession
p975
(dp976
g8
S'1.1'
p977
sg10
S'8.3'
p978
sg12
S'.462'
p979
sg553
S'120'
p980
sg14
S'5.8'
p981
sg16
S'.403'
p982
sg18
S'3.3'
p983
sg20
S'21.1'
p984
sg22
S'SG'
p985
sg560
S'110'
p986
sg24
S'.848'
p987
sg28
S'NBA'
p988
sg30
S'1.5'
p989
sg32
S'16.2'
p990
sg34
S'3.9'
p991
sg36
S'3.2'
p992
sg38
S'4.8'
p993
sg40
S'33'
p994
sg42
S'PHO'
p995
sg44
S'80'
p996
sg46
S'0.2'
p997
sg48
S'4.2'
p998
sg50
S'2.7'
p999
sg52
S'8.0'
p1000
sg54
S'3.7'
p1001
sg56
S'1992-93'
p1002
sg58
S'7.5'
p1003
sg60
S'2.5'
p1004
sg62
S'.522'
p1005
sg64
S'2163'
p1006
sg66
g413
sba(isrc.gp1.models.Per100Possession
Per100Possession
p1007
(dp1008
g8
S'0.9'
p1009
sg10
S'7.8'
p1010
sg12
S'.417'
p1011
sg553
S'109'
p1012
sg14
S'5.7'
p1013
sg16
S'.328'
p1014
sg18
S'2.6'
p1015
sg20
S'19.3'
p1016
sg22
S'SG'
p1017
sg560
S'110'
p1018
sg24
S'.830'
p1019
sg28
S'NBA'
p1020
sg30
S'1.8'
p1021
sg32
S'17.1'
p1022
sg34
S'4.5'
p1023
sg36
S'3.0'
p1024
sg38
S'4.2'
p1025
sg40
S'34'
p1026
sg42
S'PHO'
p1027
sg44
S'68'
p1028
sg46
S'0.3'
p1029
sg48
S'4.6'
p1030
sg50
S'2.5'
p1031
sg52
S'9.3'
p1032
sg54
S'3.3'
p1033
sg56
S'1993-94'
p1034
sg58
S'7.1'
p1035
sg60
S'2.6'
p1036
sg62
S'.491'
p1037
sg64
S'1555'
p1038
sg66
g67
sba(isrc.gp1.models.Per100Possession
Per100Possession
p1039
(dp1040
g8
S'0.9'
p1041
sg10
S'7.8'
p1042
sg12
S'.460'
p1043
sg553
S'119'
p1044
sg14
S'7.6'
p1045
sg16
S'.364'
p1046
sg18
S'2.8'
p1047
sg20
S'20.8'
p1048
sg22
S'SG'
p1049
sg560
S'113'
p1050
sg24
S'.808'
p1051
sg28
S'NBA'
p1052
sg30
S'1.7'
p1053
sg32
S'15.4'
p1054
sg34
S'5.6'
p1055
sg36
S'4.7'
p1056
sg38
S'4.0'
p1057
sg40
S'35'
p1058
sg42
S'PHO'
p1059
sg44
S'74'
p1060
sg46
S'0.3'
p1061
sg48
S'4.2'
p1062
sg50
S'3.8'
p1063
sg52
S'7.6'
p1064
sg54
S'3.1'
p1065
sg56
S'1994-95'
p1066
sg58
S'7.1'
p1067
sg60
S'2.9'
p1068
sg62
S'.558'
p1069
sg64
S'1374'
p1070
sg66
g67
sbasS'_advanced'
p1071
(lp1072
(isrc.gp1.models.Advanced
Advanced
p1073
(dp1074
S'_offensiveReboundPercentage'
p1075
S'5.0'
p1076
sS'_turnOverPercentage'
p1077
S'17.5'
p1078
sS'_winSharesPer48Minutes'
p1079
S'.042'
p1080
sS'_stealPercentage'
p1081
S'3.1'
p1082
sS'_usagePercentage'
p1083
S'21.5'
p1084
sS'_totalReboundsPercentage'
p1085
S'5.5'
p1086
sS'_defensiveBoxPlusMinus'
p1087
S'-0.1'
p1088
sg22
S'SG'
p1089
sS'_valueOverReplacementPlayer'
p1090
S'-0.1'
p1091
sS'_trueShootingPercentage'
p1092
S'.439'
p1093
sS'_defensiveReboundPercentage'
p1094
S'5.9'
p1095
sS'_freeThrowsAttempRate'
p1096
S'.294'
p1097
sS'_threePointsAttempRate'
p1098
S'.077'
p1099
sg28
S'NBA'
p1100
sS'_offensiveBoxPlusMinues'
p1101
S'-2.6'
p1102
sS'_assistPercentage'
p1103
S'19.7'
p1104
sS'_defensiveWinShares'
p1105
S'0.8'
p1106
sg40
S'22'
p1107
sg42
S'BOS'
p1108
sg44
S'53'
p1109
sS'_blockPercentage'
p1110
S'0.3'
p1111
sS'_playerEfficiencyRating'
p1112
S'10.1'
p1113
sS'_offensiveWinShares'
p1114
S'-0.3'
p1115
sg64
S'564'
p1116
sS'_boxPlusMinus'
p1117
S'-2.6'
p1118
sg56
S'1981-82'
p1119
sS'_winShares'
p1120
S'0.5'
p1121
sba(isrc.gp1.models.Advanced
Advanced
p1122
(dp1123
g1075
S'4.4'
p1124
sg1077
S'11.4'
p1125
sg1079
S'.121'
p1126
sg1081
S'2.5'
p1127
sg1083
S'16.5'
p1128
sg1085
S'5.6'
p1129
sg1087
S'0.4'
p1130
sg22
S'SG'
p1131
sg1090
S'1.6'
p1132
sg1092
S'.519'
p1133
sg1094
S'6.8'
p1134
sg1096
S'.135'
p1135
sg1098
S'.040'
p1136
sg28
S'NBA'
p1137
sg1101
S'0.8'
p1138
sg1103
S'16.1'
p1139
sg1105
S'2.4'
p1140
sg40
S'23'
p1141
sg42
S'BOS'
p1142
sg44
S'80'
p1143
sg1110
S'0.2'
p1144
sg1112
S'13.2'
p1145
sg1114
S'2.8'
p1146
sg64
S'2048'
p1147
sg1117
S'1.1'
p1148
sg56
S'1982-83'
p1149
sg1120
S'5.2'
p1150
sba(isrc.gp1.models.Advanced
Advanced
p1151
(dp1152
g1075
S'3.0'
p1153
sg1077
S'15.4'
p1154
sg1079
S'.076'
p1155
sg1081
S'1.7'
p1156
sg1083
S'16.2'
p1157
sg1085
S'5.7'
p1158
sg1087
S'-0.6'
p1159
sg22
S'SG'
p1160
sg1090
S'-0.1'
p1161
sg1092
S'.498'
p1162
sg1094
S'8.3'
p1163
sg1096
S'.155'
p1164
sg1098
S'.061'
p1165
sg28
S'NBA'
p1166
sg1101
S'-1.8'
p1167
sg1103
S'18.4'
p1168
sg1105
S'1.3'
p1169
sg40
S'24'
p1170
sg42
S'BOS'
p1171
sg44
S'71'
p1172
sg1110
S'0.2'
p1173
sg1112
S'10.4'
p1174
sg1114
S'0.5'
p1175
sg64
S'1154'
p1176
sg1117
S'-2.4'
p1177
sg56
S'1983-84'
p1178
sg1120
S'1.8'
p1179
sba(isrc.gp1.models.Advanced
Advanced
p1180
(dp1181
g1075
S'3.4'
p1182
sg1077
S'14.9'
p1183
sg1079
S'.124'
p1184
sg1081
S'2.2'
p1185
sg1083
S'15.9'
p1186
sg1085
S'5.8'
p1187
sg1087
S'0.4'
p1188
sg22
S'SG'
p1189
sg1090
S'2.4'
p1190
sg1092
S'.570'
p1191
sg1094
S'7.9'
p1192
sg1096
S'.172'
p1193
sg1098
S'.071'
p1194
sg28
S'NBA'
p1195
sg1101
S'1.3'
p1196
sg1103
S'19.9'
p1197
sg1105
S'2.8'
p1198
sg40
S'25'
p1199
sg42
S'BOS'
p1200
sg44
S'75'
p1201
sg1110
S'0.1'
p1202
sg1112
S'14.2'
p1203
sg1114
S'3.9'
p1204
sg64
S'2564'
p1205
sg1117
S'1.7'
p1206
sg56
S'1984-85'
p1207
sg1120
S'6.6'
p1208
sba(isrc.gp1.models.Advanced
Advanced
p1209
(dp1210
g1075
S'2.3'
p1211
sg1077
S'14.5'
p1212
sg1079
S'.136'
p1213
sg1081
S'1.9'
p1214
sg1083
S'15.2'
p1215
sg1085
S'5.4'
p1216
sg1087
S'0.3'
p1217
sg22
S'SG'
p1218
sg1090
S'1.9'
p1219
sg1092
S'.562'
p1220
sg1094
S'8.1'
p1221
sg1096
S'.194'
p1222
sg1098
S'.104'
p1223
sg28
S'NBA'
p1224
sg1101
S'0.9'
p1225
sg1103
S'21.3'
p1226
sg1105
S'3.2'
p1227
sg40
S'26'
p1228
sg42
S'BOS'
p1229
sg44
S'80'
p1230
sg1110
S'0.2'
p1231
sg1112
S'13.6'
p1232
sg1114
S'3.6'
p1233
sg64
S'2407'
p1234
sg1117
S'1.2'
p1235
sg56
S'1985-86'
p1236
sg1120
S'6.8'
p1237
sba(isrc.gp1.models.Advanced
Advanced
p1238
(dp1239
g1075
S'2.4'
p1240
sg1077
S'13.3'
p1241
sg1079
S'.128'
p1242
sg1081
S'2.0'
p1243
sg1083
S'18.0'
p1244
sg1085
S'5.4'
p1245
sg1087
S'-0.3'
p1246
sg22
S'SG'
p1247
sg1090
S'2.4'
p1248
sg1092
S'.574'
p1249
sg1094
S'8.0'
p1250
sg1096
S'.195'
p1251
sg1098
S'.227'
p1252
sg28
S'NBA'
p1253
sg1101
S'2.1'
p1254
sg1103
S'21.2'
p1255
sg1105
S'2.5'
p1256
sg40
S'27'
p1257
sg42
S'BOS'
p1258
sg44
S'71'
p1259
sg1110
S'0.3'
p1260
sg1112
S'15.2'
p1261
sg1114
S'4.1'
p1262
sg64
S'2499'
p1263
sg1117
S'1.7'
p1264
sg56
S'1986-87'
p1265
sg1120
S'6.7'
p1266
sba(isrc.gp1.models.Advanced
Advanced
p1267
(dp1268
g1075
S'2.5'
p1269
sg1077
S'12.6'
p1270
sg1079
S'.136'
p1271
sg1081
S'1.9'
p1272
sg1083
S'17.3'
p1273
sg1085
S'4.9'
p1274
sg1087
S'-1.1'
p1275
sg22
S'SG'
p1276
sg1090
S'3.7'
p1277
sg1092
S'.598'
p1278
sg1094
S'7.0'
p1279
sg1096
S'.183'
p1280
sg1098
S'.364'
p1281
sg28
S'NBA'
p1282
sg1101
S'3.9'
p1283
sg1103
S'22.2'
p1284
sg1105
S'1.9'
p1285
sg40
S'28'
p1286
sg42
S'BOS'
p1287
sg44
S'81'
p1288
sg1110
S'0.3'
p1289
sg1112
S'15.9'
p1290
sg1114
S'6.7'
p1291
sg64
S'3018'
p1292
sg1117
S'2.9'
p1293
sg56
S'1987-88'
p1294
sg1120
S'8.6'
p1295
sba(isrc.gp1.models.Advanced
Advanced
p1296
(dp1297
g1075
S'3.3'
p1298
sg1077
S'11.1'
p1299
sg1079
S'.135'
p1300
sg1081
S'1.9'
p1301
sg1083
S'22.6'
p1302
sg1085
S'6.0'
p1303
sg1087
S'-1.6'
p1304
sg22
S'PG'
p1305
sg1090
S'2.6'
p1306
sg1092
S'.554'
p1307
sg1094
S'8.7'
p1308
sg1096
S'.228'
p1309
sg1098
S'.290'
p1310
sg28
S'NBA'
p1311
sg1101
S'4.0'
p1312
sg1103
S'25.3'
p1313
sg1105
S'1.4'
p1314
sg40
S'29'
p1315
sg42
S'TOT'
p1316
sg44
S'73'
p1317
sg1110
S'0.2'
p1318
sg1112
S'18.0'
p1319
sg1114
S'5.2'
p1320
sg64
S'2377'
p1321
sg1117
S'2.3'
p1322
sg56
S'1988-89'
p1323
sg1120
S'6.7'
p1324
sba(isrc.gp1.models.Advanced
Advanced
p1325
(dp1326
g1075
S'3.2'
p1327
sg1077
S'11.3'
p1328
sg1079
S'.133'
p1329
sg1081
S'1.9'
p1330
sg1083
S'22.4'
p1331
sg1085
S'6.6'
p1332
sg1087
S'-1.6'
p1333
sg22
S'PG'
p1334
sg1090
S'1.3'
p1335
sg1092
S'.553'
p1336
sg1094
S'9.8'
p1337
sg1096
S'.217'
p1338
sg1098
S'.263'
p1339
sg28
S'NBA'
p1340
sg1101
S'3.6'
p1341
sg1103
S'23.1'
p1342
sg1105
S'0.8'
p1343
sg40
S'29'
p1344
sg42
S'BOS'
p1345
sg44
S'45'
p1346
sg1110
S'0.0'
p1347
sg1112
S'17.5'
p1348
sg1114
S'2.9'
p1349
sg64
S'1349'
p1350
sg1117
S'2.0'
p1351
sg56
S'1988-89'
p1352
sg1120
S'3.8'
p1353
sba(isrc.gp1.models.Advanced
Advanced
p1354
(dp1355
g1075
S'3.5'
p1356
sg1077
S'11.0'
p1357
sg1079
S'.136'
p1358
sg1081
S'1.9'
p1359
sg1083
S'22.9'
p1360
sg1085
S'5.3'
p1361
sg1087
S'-1.7'
p1362
sg22
S'PG'
p1363
sg1090
S'1.2'
p1364
sg1092
S'.554'
p1365
sg1094
S'7.1'
p1366
sg1096
S'.242'
p1367
sg1098
S'.325'
p1368
sg28
S'NBA'
p1369
sg1101
S'4.5'
p1370
sg1103
S'28.1'
p1371
sg1105
S'0.6'
p1372
sg40
S'29'
p1373
sg42
S'SAC'
p1374
sg44
S'28'
p1375
sg1110
S'0.4'
p1376
sg1112
S'18.6'
p1377
sg1114
S'2.3'
p1378
sg64
S'1028'
p1379
sg1117
S'2.8'
p1380
sg56
S'1988-89'
p1381
sg1120
S'2.9'
p1382
sba(isrc.gp1.models.Advanced
Advanced
p1383
(dp1384
g1075
S'2.9'
p1385
sg1077
S'12.7'
p1386
sg1079
S'.085'
p1387
sg1081
S'2.1'
p1388
sg1083
S'23.0'
p1389
sg1085
S'6.8'
p1390
sg1087
S'-0.6'
p1391
sg22
S'PG'
p1392
sg1090
S'2.5'
p1393
sg1092
S'.528'
p1394
sg1094
S'10.6'
p1395
sg1096
S'.231'
p1396
sg1098
S'.250'
p1397
sg28
S'NBA'
p1398
sg1101
S'2.2'
p1399
sg1103
S'25.5'
p1400
sg1105
S'2.1'
p1401
sg40
S'30'
p1402
sg42
S'SAC'
p1403
sg44
S'75'
p1404
sg1110
S'0.4'
p1405
sg1112
S'16.1'
p1406
sg1114
S'2.7'
p1407
sg64
S'2727'
p1408
sg1117
S'1.6'
p1409
sg56
S'1989-90'
p1410
sg1120
S'4.8'
p1411
sba(isrc.gp1.models.Advanced
Advanced
p1412
(dp1413
g1075
S'2.9'
p1414
sg1077
S'11.4'
p1415
sg1079
S'.175'
p1416
sg1081
S'1.8'
p1417
sg1083
S'20.8'
p1418
sg1085
S'6.6'
p1419
sg1087
S'-0.6'
p1420
sg22
S'SG'
p1421
sg1090
S'2.1'
p1422
sg1092
S'.574'
p1423
sg1094
S'10.2'
p1424
sg1096
S'.193'
p1425
sg1098
S'.352'
p1426
sg28
S'NBA'
p1427
sg1101
S'3.4'
p1428
sg1103
S'23.8'
p1429
sg1105
S'2.1'
p1430
sg40
S'31'
p1431
sg42
S'POR'
p1432
sg44
S'80'
p1433
sg1110
S'0.5'
p1434
sg1112
S'17.0'
p1435
sg1114
S'4.1'
p1436
sg64
S'1710'
p1437
sg1117
S'2.8'
p1438
sg56
S'1990-91'
p1439
sg1120
S'6.2'
p1440
sba(isrc.gp1.models.Advanced
Advanced
p1441
(dp1442
g1075
S'2.7'
p1443
sg1077
S'8.7'
p1444
sg1079
S'.155'
p1445
sg1081
S'2.2'
p1446
sg1083
S'20.5'
p1447
sg1085
S'5.1'
p1448
sg1087
S'-0.9'
p1449
sg22
S'SG'
p1450
sg1090
S'1.2'
p1451
sg1092
S'.534'
p1452
sg1094
S'7.4'
p1453
sg1096
S'.194'
p1454
sg1098
S'.340'
p1455
sg28
S'NBA'
p1456
sg1101
S'1.9'
p1457
sg1103
S'18.4'
p1458
sg1105
S'2.0'
p1459
sg40
S'32'
p1460
sg42
S'POR'
p1461
sg44
S'81'
p1462
sg1110
S'0.5'
p1463
sg1112
S'15.4'
p1464
sg1114
S'3.1'
p1465
sg64
S'1595'
p1466
sg1117
S'1.0'
p1467
sg56
S'1991-92'
p1468
sg1120
S'5.2'
p1469
sba(isrc.gp1.models.Advanced
Advanced
p1470
(dp1471
g1075
S'2.6'
p1472
sg1077
S'12.5'
p1473
sg1079
S'.139'
p1474
sg1081
S'1.5'
p1475
sg1083
S'17.3'
p1476
sg1085
S'5.5'
p1477
sg1087
S'-1.3'
p1478
sg22
S'SG'
p1479
sg1090
S'2.0'
p1480
sg1092
S'.596'
p1481
sg1094
S'8.3'
p1482
sg1096
S'.199'
p1483
sg1098
S'.510'
p1484
sg28
S'NBA'
p1485
sg1101
S'3.0'
p1486
sg1103
S'16.5'
p1487
sg1105
S'1.8'
p1488
sg40
S'33'
p1489
sg42
S'PHO'
p1490
sg44
S'80'
p1491
sg1110
S'0.2'
p1492
sg1112
S'14.3'
p1493
sg1114
S'4.5'
p1494
sg64
S'2163'
p1495
sg1117
S'1.6'
p1496
sg56
S'1992-93'
p1497
sg1120
S'6.2'
p1498
sba(isrc.gp1.models.Advanced
Advanced
p1499
(dp1500
g1075
S'2.0'
p1501
sg1077
S'12.3'
p1502
sg1079
S'.087'
p1503
sg1081
S'1.8'
p1504
sg1083
S'17.8'
p1505
sg1085
S'4.7'
p1506
sg1087
S'-1.9'
p1507
sg22
S'SG'
p1508
sg1090
S'0.3'
p1509
sg1092
S'.524'
p1510
sg1094
S'7.4'
p1511
sg1096
S'.175'
p1512
sg1098
S'.454'
p1513
sg28
S'NBA'
p1514
sg1101
S'0.7'
p1515
sg1103
S'15.9'
p1516
sg1105
S'1.0'
p1517
sg40
S'34'
p1518
sg42
S'PHO'
p1519
sg44
S'68'
p1520
sg1110
S'0.3'
p1521
sg1112
S'11.8'
p1522
sg1114
S'1.9'
p1523
sg64
S'1555'
p1524
sg1117
S'-1.3'
p1525
sg56
S'1993-94'
p1526
sg1120
S'2.8'
p1527
sba(isrc.gp1.models.Advanced
Advanced
p1528
(dp1529
g1075
S'2.1'
p1530
sg1077
S'14.2'
p1531
sg1079
S'.118'
p1532
sg1081
S'1.7'
p1533
sg1083
S'17.6'
p1534
sg1085
S'4.6'
p1535
sg1087
S'-2.5'
p1536
sg22
S'SG'
p1537
sg1090
S'0.6'
p1538
sg1092
S'.596'
p1539
sg1094
S'7.0'
p1540
sg1096
S'.308'
p1541
sg1098
S'.507'
p1542
sg28
S'NBA'
p1543
sg1101
S'2.1'
p1544
sg1103
S'21.7'
p1545
sg1105
S'0.6'
p1546
sg40
S'35'
p1547
sg42
S'PHO'
p1548
sg44
S'74'
p1549
sg1110
S'0.4'
p1550
sg1112
S'14.3'
p1551
sg1114
S'2.8'
p1552
sg64
S'1374'
p1553
sg1117
S'-0.4'
p1554
sg56
S'1994-95'
p1555
sg1120
S'3.4'
p1556
sbasS'_per36Minutes'
p1557
(lp1558
(isrc.gp1.models.Per36Minutes
Per36Minutes
p1559
(dp1560
g8
S'1.6'
p1561
sg10
S'1.1'
p1562
sg12
S'.357'
p1563
sg14
S'5.6'
p1564
sg16
S'.294'
p1565
sg18
S'0.3'
p1566
sg20
S'14.0'
p1567
sg22
S'SG'
p1568
sg24
S'.862'
p1569
sg28
S'NBA'
p1570
sg30
S'2.4'
p1571
sg32
S'14.1'
p1572
sg34
S'5.5'
p1573
sg36
S'4.1'
p1574
sg38
S'3.6'
p1575
sg40
S'22'
p1576
sg42
S'BOS'
p1577
sg44
S'53'
p1578
sg46
S'0.2'
p1579
sg48
S'4.7'
p1580
sg50
S'3.6'
p1581
sg52
S'13.0'
p1582
sg54
S'2.0'
p1583
sg56
S'1981-82'
p1584
sg58
S'5.0'
p1585
sg60
S'3.4'
p1586
sg62
S'.363'
p1587
sg64
S'564'
p1588
sg66
g67
sba(isrc.gp1.models.Per36Minutes
Per36Minutes
p1589
(dp1590
g8
S'1.5'
p1591
sg10
S'0.5'
p1592
sg12
S'.496'
p1593
sg14
S'4.4'
p1594
sg16
S'.172'
p1595
sg18
S'0.1'
p1596
sg20
S'13.9'
p1597
sg22
S'SG'
p1598
sg24
S'.742'
p1599
sg28
S'NBA'
p1600
sg30
S'1.9'
p1601
sg32
S'12.7'
p1602
sg34
S'4.6'
p1603
sg36
S'1.7'
p1604
sg38
S'3.8'
p1605
sg40
S'23'
p1606
sg42
S'BOS'
p1607
sg44
S'80'
p1608
sg46
S'0.1'
p1609
sg48
S'6.2'
p1610
sg50
S'1.3'
p1611
sg52
S'12.1'
p1612
sg54
S'2.3'
p1613
sg56
S'1982-83'
p1614
sg58
S'6.3'
p1615
sg60
S'1.7'
p1616
sg62
S'.509'
p1617
sg64
S'2048'
p1618
sg66
S'76'
p1619
sba(isrc.gp1.models.Per36Minutes
Per36Minutes
p1620
(dp1621
g8
S'0.9'
p1622
sg10
S'0.7'
p1623
sg12
S'.460'
p1624
sg14
S'5.1'
p1625
sg16
S'.273'
p1626
sg18
S'0.2'
p1627
sg20
S'12.0'
p1628
sg22
S'SG'
p1629
sg24
S'.821'
p1630
sg28
S'NBA'
p1631
sg30
S'1.3'
p1632
sg32
S'11.3'
p1633
sg34
S'4.5'
p1634
sg36
S'1.7'
p1635
sg38
S'3.6'
p1636
sg40
S'24'
p1637
sg42
S'BOS'
p1638
sg44
S'71'
p1639
sg46
S'0.1'
p1640
sg48
S'5.0'
p1641
sg50
S'1.4'
p1642
sg52
S'10.6'
p1643
sg54
S'2.7'
p1644
sg56
S'1983-84'
p1645
sg58
S'5.2'
p1646
sg60
S'2.2'
p1647
sg62
S'.472'
p1648
sg64
S'1154'
p1649
sg66
g47
sba(isrc.gp1.models.Per36Minutes
Per36Minutes
p1650
(dp1651
g8
S'1.1'
p1652
sg10
S'0.8'
p1653
sg12
S'.529'
p1654
sg14
S'5.6'
p1655
sg16
S'.268'
p1656
sg18
S'0.2'
p1657
sg20
S'13.6'
p1658
sg22
S'SG'
p1659
sg24
S'.868'
p1660
sg28
S'NBA'
p1661
sg30
S'1.7'
p1662
sg32
S'11.1'
p1663
sg34
S'3.2'
p1664
sg36
S'1.9'
p1665
sg38
S'3.8'
p1666
sg40
S'25'
p1667
sg42
S'BOS'
p1668
sg44
S'75'
p1669
sg46
S'0.1'
p1670
sg48
S'5.7'
p1671
sg50
S'1.7'
p1672
sg52
S'10.3'
p1673
sg54
S'2.7'
p1674
sg56
S'1984-85'
p1675
sg58
S'5.9'
p1676
sg60
S'2.1'
p1677
sg62
S'.549'
p1678
sg64
S'2564'
p1679
sg66
S'73'
p1680
sba(isrc.gp1.models.Per36Minutes
Per36Minutes
p1681
(dp1682
g8
S'0.7'
p1683
sg10
S'1.1'
p1684
sg12
S'.504'
p1685
sg14
S'6.1'
p1686
sg16
S'.356'
p1687
sg18
S'0.4'
p1688
sg20
S'12.8'
p1689
sg22
S'SG'
p1690
sg24
S'.904'
p1691
sg28
S'NBA'
p1692
sg30
S'1.4'
p1693
sg32
S'10.5'
p1694
sg34
S'3.1'
p1695
sg36
S'2.0'
p1696
sg38
S'3.5'
p1697
sg40
S'26'
p1698
sg42
S'BOS'
p1699
sg44
S'80'
p1700
sg46
S'0.1'
p1701
sg48
S'4.9'
p1702
sg50
S'1.8'
p1703
sg52
S'9.4'
p1704
sg54
S'2.8'
p1705
sg56
S'1985-86'
p1706
sg58
S'5.3'
p1707
sg60
S'1.9'
p1708
sg62
S'.521'
p1709
sg64
S'2407'
p1710
sg66
S'78'
p1711
sba(isrc.gp1.models.Per36Minutes
Per36Minutes
p1712
(dp1713
g8
S'0.7'
p1714
sg10
S'2.8'
p1715
sg12
S'.486'
p1716
sg14
S'5.8'
p1717
sg16
S'.443'
p1718
sg18
S'1.2'
p1719
sg20
S'15.2'
p1720
sg22
S'SG'
p1721
sg24
S'.897'
p1722
sg28
S'NBA'
p1723
sg30
S'1.5'
p1724
sg32
S'12.2'
p1725
sg34
S'2.7'
p1726
sg36
S'2.4'
p1727
sg38
S'3.5'
p1728
sg40
S'27'
p1729
sg42
S'BOS'
p1730
sg44
S'71'
p1731
sg46
S'0.2'
p1732
sg48
S'4.7'
p1733
sg50
S'2.1'
p1734
sg52
S'9.4'
p1735
sg54
S'2.8'
p1736
sg56
S'1986-87'
p1737
sg58
S'5.9'
p1738
sg60
S'2.0'
p1739
sg62
S'.498'
p1740
sg64
S'2499'
p1741
sg66
S'66'
p1742
sba(isrc.gp1.models.Per36Minutes
Per36Minutes
p1743
(dp1744
g8
S'0.7'
p1745
sg10
S'4.3'
p1746
sg12
S'.491'
p1747
sg14
S'6.0'
p1748
sg16
S'.415'
p1749
sg18
S'1.8'
p1750
sg20
S'15.1'
p1751
sg22
S'SG'
p1752
sg24
S'.878'
p1753
sg28
S'NBA'
p1754
sg30
S'1.4'
p1755
sg32
S'11.7'
p1756
sg34
S'2.4'
p1757
sg36
S'2.1'
p1758
sg38
S'3.0'
p1759
sg40
S'28'
p1760
sg42
S'BOS'
p1761
sg44
S'81'
p1762
sg46
S'0.2'
p1763
sg48
S'4.0'
p1764
sg50
S'1.9'
p1765
sg52
S'7.5'
p1766
sg54
S'2.3'
p1767
sg56
S'1987-88'
p1768
sg58
S'5.7'
p1769
sg60
S'1.8'
p1770
sg62
S'.534'
p1771
sg64
S'3018'
p1772
sg66
S'81'
p1773
sba(isrc.gp1.models.Per36Minutes
Per36Minutes
p1774
(dp1775
g8
S'1.1'
p1776
sg10
S'4.6'
p1777
sg12
S'.457'
p1778
sg14
S'6.1'
p1779
sg16
S'.380'
p1780
sg18
S'1.8'
p1781
sg20
S'19.4'
p1782
sg22
S'PG'
p1783
sg24
S'.854'
p1784
sg28
S'NBA'
p1785
sg30
S'1.4'
p1786
sg32
S'15.9'
p1787
sg34
S'2.8'
p1788
sg36
S'3.6'
p1789
sg38
S'3.9'
p1790
sg40
S'29'
p1791
sg42
S'TOT'
p1792
sg44
S'73'
p1793
sg46
S'0.1'
p1794
sg48
S'5.5'
p1795
sg50
S'3.1'
p1796
sg52
S'11.3'
p1797
sg54
S'2.8'
p1798
sg56
S'1988-89'
p1799
sg58
S'7.3'
p1800
sg60
S'2.2'
p1801
sg62
S'.488'
p1802
sg64
S'2377'
p1803
sg66
S'54'
p1804
sba(isrc.gp1.models.Per36Minutes
Per36Minutes
p1805
(dp1806
g8
S'1.0'
p1807
sg10
S'4.1'
p1808
sg12
S'.460'
p1809
sg14
S'5.7'
p1810
sg16
S'.374'
p1811
sg18
S'1.5'
p1812
sg20
S'19.1'
p1813
sg22
S'PG'
p1814
sg24
S'.891'
p1815
sg28
S'NBA'
p1816
sg30
S'1.4'
p1817
sg32
S'15.7'
p1818
sg34
S'2.9'
p1819
sg36
S'3.4'
p1820
sg38
S'4.1'
p1821
sg40
S'29'
p1822
sg42
S'BOS'
p1823
sg44
S'45'
p1824
sg46
S'0.0'
p1825
sg48
S'5.7'
p1826
sg50
S'3.0'
p1827
sg52
S'11.6'
p1828
sg54
S'3.1'
p1829
sg56
S'1988-89'
p1830
sg58
S'7.2'
p1831
sg60
S'2.2'
p1832
sg62
S'.491'
p1833
sg64
S'1349'
p1834
sg66
S'28'
p1835
sba(isrc.gp1.models.Per36Minutes
Per36Minutes
p1836
(dp1837
g8
S'1.2'
p1838
sg10
S'5.3'
p1839
sg12
S'.452'
p1840
sg14
S'6.5'
p1841
sg16
S'.387'
p1842
sg18
S'2.0'
p1843
sg20
S'19.9'
p1844
sg22
S'PG'
p1845
sg24
S'.813'
p1846
sg28
S'NBA'
p1847
sg30
S'1.4'
p1848
sg32
S'16.2'
p1849
sg34
S'2.7'
p1850
sg36
S'3.9'
p1851
sg38
S'3.5'
p1852
sg40
S'29'
p1853
sg42
S'SAC'
p1854
sg44
S'28'
p1855
sg46
S'0.2'
p1856
sg48
S'5.3'
p1857
sg50
S'3.2'
p1858
sg52
S'10.9'
p1859
sg54
S'2.3'
p1860
sg56
S'1988-89'
p1861
sg58
S'7.3'
p1862
sg60
S'2.2'
p1863
sg62
S'.484'
p1864
sg64
S'1028'
p1865
sg66
S'26'
p1866
sba(isrc.gp1.models.Per36Minutes
Per36Minutes
p1867
(dp1868
g8
S'0.9'
p1869
sg10
S'3.8'
p1870
sg12
S'.438'
p1871
sg14
S'6.0'
p1872
sg16
S'.374'
p1873
sg18
S'1.4'
p1874
sg20
S'17.7'
p1875
sg22
S'PG'
p1876
sg24
S'.831'
p1877
sg28
S'NBA'
p1878
sg30
S'1.5'
p1879
sg32
S'15.2'
p1880
sg34
S'3.1'
p1881
sg36
S'3.5'
p1882
sg38
S'4.3'
p1883
sg40
S'30'
p1884
sg42
S'SAC'
p1885
sg44
S'75'
p1886
sg46
S'0.2'
p1887
sg48
S'5.3'
p1888
sg50
S'2.9'
p1889
sg52
S'11.4'
p1890
sg54
S'3.4'
p1891
sg56
S'1989-90'
p1892
sg58
S'6.7'
p1893
sg60
S'2.4'
p1894
sg62
S'.460'
p1895
sg64
S'2727'
p1896
sg66
S'68'
p1897
sba(isrc.gp1.models.Per36Minutes
Per36Minutes
p1898
(dp1899
g8
S'0.9'
p1900
sg10
S'5.3'
p1901
sg12
S'.472'
p1902
sg14
S'6.0'
p1903
sg16
S'.406'
p1904
sg18
S'2.1'
p1905
sg20
S'18.7'
p1906
sg22
S'SG'
p1907
sg24
S'.826'
p1908
sg28
S'NBA'
p1909
sg30
S'1.3'
p1910
sg32
S'15.0'
p1911
sg34
S'4.1'
p1912
sg36
S'2.9'
p1913
sg38
S'4.3'
p1914
sg40
S'31'
p1915
sg42
S'POR'
p1916
sg44
S'80'
p1917
sg46
S'0.3'
p1918
sg48
S'4.9'
p1919
sg50
S'2.4'
p1920
sg52
S'9.7'
p1921
sg54
S'3.4'
p1922
sg56
S'1990-91'
p1923
sg58
S'7.1'
p1924
sg60
S'2.1'
p1925
sg62
S'.508'
p1926
sg64
S'1710'
p1927
sg66
g413
sba(isrc.gp1.models.Per36Minutes
Per36Minutes
p1928
(dp1929
g8
S'0.9'
p1930
sg10
S'5.2'
p1931
sg12
S'.442'
p1932
sg14
S'4.6'
p1933
sg16
S'.339'
p1934
sg18
S'1.8'
p1935
sg20
S'17.7'
p1936
sg22
S'SG'
p1937
sg24
S'.824'
p1938
sg28
S'NBA'
p1939
sg30
S'1.6'
p1940
sg32
S'15.3'
p1941
sg34
S'3.3'
p1942
sg36
S'3.0'
p1943
sg38
S'3.3'
p1944
sg40
S'32'
p1945
sg42
S'POR'
p1946
sg44
S'81'
p1947
sg46
S'0.3'
p1948
sg48
S'5.0'
p1949
sg50
S'2.4'
p1950
sg52
S'10.1'
p1951
sg54
S'2.4'
p1952
sg56
S'1991-92'
p1953
sg58
S'6.7'
p1954
sg60
S'1.6'
p1955
sg62
S'.496'
p1956
sg64
S'1595'
p1957
sg66
g88
sba(isrc.gp1.models.Per36Minutes
Per36Minutes
p1958
(dp1959
g8
S'0.8'
p1960
sg10
S'6.2'
p1961
sg12
S'.462'
p1962
sg14
S'4.3'
p1963
sg16
S'.403'
p1964
sg18
S'2.5'
p1965
sg20
S'15.8'
p1966
sg22
S'SG'
p1967
sg24
S'.848'
p1968
sg28
S'NBA'
p1969
sg30
S'1.1'
p1970
sg32
S'12.1'
p1971
sg34
S'2.9'
p1972
sg36
S'2.4'
p1973
sg38
S'3.6'
p1974
sg40
S'33'
p1975
sg42
S'PHO'
p1976
sg44
S'80'
p1977
sg46
S'0.1'
p1978
sg48
S'3.1'
p1979
sg50
S'2.0'
p1980
sg52
S'6.0'
p1981
sg54
S'2.7'
p1982
sg56
S'1992-93'
p1983
sg58
S'5.6'
p1984
sg60
S'1.9'
p1985
sg62
S'.522'
p1986
sg64
S'2163'
p1987
sg66
g413
sba(isrc.gp1.models.Per36Minutes
Per36Minutes
p1988
(dp1989
g8
S'0.6'
p1990
sg10
S'5.6'
p1991
sg12
S'.417'
p1992
sg14
S'4.2'
p1993
sg16
S'.328'
p1994
sg18
S'1.9'
p1995
sg20
S'14.0'
p1996
sg22
S'SG'
p1997
sg24
S'.830'
p1998
sg28
S'NBA'
p1999
sg30
S'1.3'
p2000
sg32
S'12.4'
p2001
sg34
S'3.2'
p2002
sg36
S'2.2'
p2003
sg38
S'3.0'
p2004
sg40
S'34'
p2005
sg42
S'PHO'
p2006
sg44
S'68'
p2007
sg46
S'0.2'
p2008
sg48
S'3.3'
p2009
sg50
S'1.8'
p2010
sg52
S'6.8'
p2011
sg54
S'2.4'
p2012
sg56
S'1993-94'
p2013
sg58
S'5.2'
p2014
sg60
S'1.9'
p2015
sg62
S'.491'
p2016
sg64
S'1555'
p2017
sg66
g67
sba(isrc.gp1.models.Per36Minutes
Per36Minutes
p2018
(dp2019
g8
S'0.7'
p2020
sg10
S'5.6'
p2021
sg12
S'.460'
p2022
sg14
S'5.5'
p2023
sg16
S'.364'
p2024
sg18
S'2.0'
p2025
sg20
S'15.0'
p2026
sg22
S'SG'
p2027
sg24
S'.808'
p2028
sg28
S'NBA'
p2029
sg30
S'1.2'
p2030
sg32
S'11.1'
p2031
sg34
S'4.1'
p2032
sg36
S'3.4'
p2033
sg38
S'2.9'
p2034
sg40
S'35'
p2035
sg42
S'PHO'
p2036
sg44
S'74'
p2037
sg46
S'0.2'
p2038
sg48
S'3.0'
p2039
sg50
S'2.8'
p2040
sg52
S'5.4'
p2041
sg54
S'2.2'
p2042
sg56
S'1994-95'
p2043
sg58
S'5.1'
p2044
sg60
S'2.1'
p2045
sg62
S'.558'
p2046
sg64
S'1374'
p2047
sg66
g67
sbasS'_fromYear'
p2048
S'1982'
p2049
sS'_url'
p2050
S'http://www.basketball-reference.com/players/a/aingeda01.html'
p2051
sS'_perGame'
p2052
(isrc.gp1.models.PerGame
PerGame
p2053
(dp2054
g8
S'0.3'
p2055
sg10
S'2.9'
p2056
sg12
S'.460'
p2057
sS'_effectiveFieldGalPercentage'
p2058
S'.552'
p2059
sg14
S'2.8'
p2060
sg16
S'.364'
p2061
sg18
S'1.1'
p2062
sg20
S'7.7'
p2063
sg22
S'SG'
p2064
sg24
S'.808'
p2065
sg28
S'NBA'
p2066
sg30
S'0.6'
p2067
sg34
S'2.1'
p2068
sS'_fieldGoalsttempted'
p2069
S'5.7'
p2070
sg36
S'1.8'
p2071
sg38
S'1.5'
p2072
sg40
S'35'
p2073
sg42
S'PHO'
p2074
sg44
S'74'
p2075
sg46
S'0.1'
p2076
sg48
S'1.6'
p2077
sg50
S'1.4'
p2078
sg52
S'2.8'
p2079
sg54
S'1.1'
p2080
sg56
S'1994-95'
p2081
sg58
S'2.6'
p2082
sg60
S'1.1'
p2083
sg62
S'.558'
p2084
sg64
S'18.6'
p2085
sg66
g67
sbsS'_weight'
p2086
S'175'
p2087
sS'_dob'
p2088
S'17-3-1959'
p2089
sS'_salary'
p2090
(lp2091
(isrc.gp1.models.Salary
Salary
p2092
(dp2093
g42
S'Boston Celtics'
p2094
sg28
S'NBA'
p2095
sg2090
S'$550,000'
p2096
sg56
S'1985-86'
p2097
sba(isrc.gp1.models.Salary
Salary
p2098
(dp2099
g42
S'Boston Celtics'
p2100
sg28
S'NBA'
p2101
sg2090
S'$625,000'
p2102
sg56
S'1987-88'
p2103
sba(isrc.gp1.models.Salary
Salary
p2104
(dp2105
g42
S'Boston Celtics'
p2106
sg28
S'NBA'
p2107
sg2090
S'$675,000'
p2108
sg56
S'1988-89'
p2109
sba(isrc.gp1.models.Salary
Salary
p2110
(dp2111
g42
S'Portland Trail Blazers'
p2112
sg28
S'NBA'
p2113
sg2090
S'$725,000'
p2114
sg56
S'1990-91'
p2115
sba(isrc.gp1.models.Salary
Salary
p2116
(dp2117
g42
S'Portland Trail Blazers'
p2118
sg28
S'NBA'
p2119
sg2090
S'$725,000'
p2120
sg56
S'1991-92'
p2121
sba(isrc.gp1.models.Salary
Salary
p2122
(dp2123
g42
S'Phoenix Suns'
p2124
sg28
S'NBA'
p2125
sg2090
S'$1,330,000'
p2126
sg56
S'1992-93'
p2127
sba(isrc.gp1.models.Salary
Salary
p2128
(dp2129
g42
S'Phoenix Suns'
p2130
sg28
S'NBA'
p2131
sg2090
S'$1,690,000'
p2132
sg56
S'1993-94'
p2133
sba(isrc.gp1.models.Salary
Salary
p2134
(dp2135
g42
S'Phoenix Suns'
p2136
sg28
S'NBA'
p2137
sg2090
S'$2,080,000'
p2138
sg56
S'1994-95'
p2139
sbasg22
S'G'
p2140
sb.