(isrc.gp1.models.Player
Player
p0
(dp1
S'_experience'
p2
S'NA'
p3
sS'_totals'
p4
(lp5
(isrc.gp1.models.Totals
Totals
p6
(dp7
S'_offensiveRebounds'
p8
S'228'
p9
sS'_threePointsAttempted'
p10
S'559'
p11
sS'_fieldGoalsPercentage'
p12
S'235'
p13
sS'_assist'
p14
g3
sS'_threePointsPercentage'
p15
S'1310'
p16
sS'_threePoints'
p17
S'.357'
p18
sS'_points'
p19
g3
sS'_position'
p20
S'77'
p21
sS'_freeThrowsPercentage'
p22
S'172'
p23
sS'_effectiveFieldGoalPercentage'
p24
S'479'
p25
sS'_league'
p26
S'SG'
p27
sS'_steals'
p28
g3
sS'_fieldGoalsAttempted'
p29
S'84'
p30
sS'_personalFouls'
p31
g3
sS'_freeThrowsAttempted'
p32
S'352'
p33
sS'_totalRebounds'
p34
S'1765'
p35
sS'_age'
p36
S'KEN'
p37
sS'_team'
p38
S'ABA'
p39
sS'_games'
p40
S'3192'
p41
sS'_blocks'
p42
g3
sS'_twoPoints'
p43
S'.427'
p44
sS'_freeThrows'
p45
S'.825'
p46
sS'_twoPointsAttempted'
p47
S'.443'
p48
sS'_defensiveRebounds'
p49
S'263'
p50
sS'_season'
p51
S'27'
p52
sS'_fieldGoals'
p53
S'.416'
p54
sS'_turnOvers'
p55
g3
sS'_twoPointsPercentage'
p56
S'395'
p57
sS'_minutesPlayed'
p58
S'1545'
p59
sS'_gamesStarted'
p60
S'643'
p61
sba(isrc.gp1.models.Totals
Totals
p62
(dp63
g8
S'283'
p64
sg10
S'434'
p65
sg12
S'330'
p66
sg14
S'227'
p67
sg15
S'1046'
p68
sg17
S'.379'
p69
sg19
g3
sg20
S'73'
p70
sg22
S'208'
p71
sg24
S'545'
p72
sg26
S'SG'
p73
sg28
S'1690'
p74
sg29
S'125'
p75
sg31
g3
sg32
S'75'
p76
sg34
S'213'
p77
sg36
S'KEN'
p78
sg38
S'ABA'
p79
sg40
S'2858'
p80
sg42
g3
sg43
S'.415'
p81
sg45
S'.820'
p82
sg47
S'.452'
p83
sg49
S'214'
p84
sg51
S'28'
p85
sg53
S'.406'
p86
sg55
g3
sg56
S'447'
p87
sg58
S'1376'
p88
sg60
S'559'
p89
sba(isrc.gp1.models.Totals
Totals
p90
(dp91
g8
S'205'
p92
sg10
S'.375'
p93
sg12
S'105'
p94
sg14
S'213'
p95
sg15
S'503'
p96
sg17
S'280'
p97
sg19
g3
sg20
S'SG'
p98
sg22
S'44'
p99
sg24
S'454'
p100
sg26
S'ABA'
p101
sg28
S'268'
p102
sg29
S'.417'
p103
sg31
g3
sg32
S'.892'
p104
sg34
S'212'
p105
sg36
S'29'
p106
sg38
S'KEN'
p107
sg40
S'77'
p108
sg42
S'1775'
p109
sg43
S'1178'
p110
sg45
S'509'
p111
sg47
S'.427'
p112
sg49
S'249'
p113
sg51
S'1969-70'
p114
sg53
S'1458'
p115
sg55
g3
sg56
S'.453'
p116
sg58
S'608'
p117
sg60
S'2805'
p118
sba(isrc.gp1.models.Totals
Totals
p119
(dp120
g8
S'182'
p121
sg10
S'.391'
p122
sg12
S'63'
p123
sg14
S'199'
p124
sg15
S'432'
p125
sg17
S'161'
p126
sg19
g3
sg20
S'SG'
p127
sg22
S'50'
p128
sg24
S'327'
p129
sg26
S'ABA'
p130
sg28
S'229'
p131
sg29
S'.434'
p132
sg31
g3
sg32
S'.867'
p133
sg34
S'244'
p134
sg36
S'30'
p135
sg38
S'KEN'
p136
sg40
S'84'
p137
sg42
S'1380'
p138
sg43
S'979'
p139
sg45
S'377'
p140
sg47
S'.441'
p141
sg49
S'232'
p142
sg51
S'1970-71'
p143
sg53
S'1140'
p144
sg55
g3
sg56
S'.462'
p145
sg58
S'495'
p146
sg60
S'2664'
p147
sba(isrc.gp1.models.Totals
Totals
p148
(dp149
g8
S'46'
p150
sg10
S'.432'
p151
sg12
S'16'
p152
sg14
S'38'
p153
sg15
S'101'
p154
sg17
S'37'
p155
sg19
g3
sg20
S'SG'
p156
sg22
S'11'
p157
sg24
S'76'
p158
sg26
S'ABA'
p159
sg28
S'64'
p160
sg29
S'.406'
p161
sg31
g3
sg32
S'.864'
p162
sg34
S'44'
p163
sg36
S'31'
p164
sg38
S'KEN'
p165
sg40
S'23'
p166
sg42
S'326'
p167
sg43
S'251'
p168
sg45
S'88'
p169
sg47
S'.402'
p170
sg49
S'57'
p171
sg51
S'1971-72'
p172
sg53
S'288'
p173
sg55
g3
sg56
S'.434'
p174
sg58
S'117'
p175
sg60
S'629'
p176
sba(isrc.gp1.models.Totals
Totals
p177
(dp178
g8
S'12'
p179
sg10
S'.417'
p180
sg12
S'5'
p181
sg14
S'15'
p182
sg15
S'18'
p183
sg17
S'12'
p184
sg19
g3
sg20
S'SG'
p185
sg22
S'2'
p186
sg24
S'24'
p187
sg26
S'ABA'
p188
sg28
S'21'
p189
sg29
S'.383'
p190
sg31
g3
sg32
S'.923'
p191
sg34
S'10'
p192
sg36
S'32'
p193
sg38
S'MMT'
p194
sg40
S'16'
p195
sg42
S'75'
p196
sg43
S'48'
p197
sg45
S'26'
p198
sg47
S'.375'
p199
sg49
S'14'
p200
sg51
S'1972-73'
p201
sg53
S'60'
p202
sg55
g3
sg56
S'.425'
p203
sg58
S'23'
p204
sg60
S'190'
p205
sbasS'_college'
p206
S'Western Kentucky University'
p207
sS'_toYear'
p208
S'1973'
p209
sS'_height'
p210
S'6-3'
p211
sS'_active'
p212
I00
sS'_shootingHand'
p213
VRight
p214
sS'_name'
p215
S'Darel Carrier'
p216
sS'_per100Possessions'
p217
(lp218
sS'_advanced'
p219
(lp220
(isrc.gp1.models.Advanced
Advanced
p221
(dp222
S'_offensiveReboundPercentage'
p223
S'8.9'
p224
sS'_turnOverPercentage'
p225
S'.131'
p226
sS'_winSharesPer48Minutes'
p227
g3
sS'_stealPercentage'
p228
S'2.7'
p229
sS'_usagePercentage'
p230
g3
sS'_totalReboundsPercentage'
p231
S'23.5'
p232
sS'_defensiveBoxPlusMinus'
p233
g3
sg20
S'77'
p234
sS'_valueOverReplacementPlayer'
p235
g3
sS'_trueShootingPercentage'
p236
S'.152'
p237
sS'_defensiveReboundPercentage'
p238
S'11.5'
p239
sS'_freeThrowsAttempRate'
p240
S'4.8'
p241
sS'_threePointsAttempRate'
p242
S'.310'
p243
sg26
S'SG'
p244
sS'_offensiveBoxPlusMinues'
p245
g3
sS'_assistPercentage'
p246
S'6.0'
p247
sS'_defensiveWinShares'
p248
g3
sg36
S'KEN'
p249
sg38
S'ABA'
p250
sg40
S'3192'
p251
sS'_blockPercentage'
p252
S'8.7'
p253
sS'_playerEfficiencyRating'
p254
S'.503'
p255
sS'_offensiveWinShares'
p256
g3
sg58
S'16.5'
p257
sS'_boxPlusMinus'
p258
g3
sg51
S'27'
p259
sS'_winShares'
p260
g3
sba(isrc.gp1.models.Advanced
Advanced
p261
(dp262
g223
S'11.6'
p263
sg225
S'.131'
p264
sg227
g3
sg228
S'2.5'
p265
sg230
g3
sg231
S'23.7'
p266
sg233
g3
sg20
S'73'
p267
sg235
g3
sg236
S'.240'
p268
sg238
S'11.6'
p269
sg240
S'4.3'
p270
sg242
S'.396'
p271
sg26
S'SG'
p272
sg245
g3
sg246
S'5.3'
p273
sg248
g3
sg36
S'KEN'
p274
sg38
S'ABA'
p275
sg40
S'2858'
p276
sg252
S'7.8'
p277
sg254
S'.523'
p278
sg256
g3
sg58
S'16.8'
p279
sg258
g3
sg51
S'28'
p280
sg260
g3
sba(isrc.gp1.models.Advanced
Advanced
p281
(dp282
g223
S'3.9'
p283
sg225
S'8.0'
p284
sg227
g3
sg228
S'5.5'
p285
sg230
S'.137'
p286
sg231
S'11.2'
p287
sg233
g3
sg20
S'SG'
p288
sg235
g3
sg236
S'.528'
p289
sg238
S'11.4'
p290
sg240
S'.349'
p291
sg242
S'.192'
p292
sg26
S'ABA'
p293
sg245
g3
sg246
S'24.5'
p294
sg248
g3
sg36
S'29'
p295
sg38
S'KEN'
p296
sg40
S'77'
p297
sg252
S'2.5'
p298
sg254
S'17.0'
p299
sg256
g3
sg58
S'2805'
p300
sg258
g3
sg51
S'1969-70'
p301
sg260
g3
sba(isrc.gp1.models.Advanced
Advanced
p302
(dp303
g223
S'3.8'
p304
sg225
S'4.9'
p305
sg227
g3
sg228
S'3.6'
p306
sg230
S'.088'
p307
sg231
S'13.2'
p308
sg233
g3
sg20
S'SG'
p309
sg235
g3
sg236
S'.528'
p310
sg238
S'11.6'
p311
sg240
S'.331'
p312
sg242
S'.141'
p313
sg26
S'ABA'
p314
sg245
g3
sg246
S'20.0'
p315
sg248
g3
sg36
S'30'
p316
sg38
S'KEN'
p317
sg40
S'84'
p318
sg252
S'1.3'
p319
sg254
S'13.0'
p320
sg256
g3
sg58
S'2664'
p321
sg258
g3
sg51
S'1970-71'
p322
sg260
g3
sba(isrc.gp1.models.Advanced
Advanced
p323
(dp324
g223
S'1.7'
p325
sg225
S'0.4'
p326
sg227
g3
sg228
S'10.4'
p327
sg230
S'0.6'
p328
sg231
S'4.2'
p329
sg233
g3
sg20
S'SG'
p330
sg235
g3
sg236
S'.499'
p331
sg238
S'6.4'
p332
sg240
S'.306'
p333
sg242
S'.128'
p334
sg26
S'ABA'
p335
sg245
g3
sg246
S'9.3'
p336
sg248
S'.072'
p337
sg36
S'31'
p338
sg38
S'KEN'
p339
sg40
S'23'
p340
sg252
S'22.3'
p341
sg254
S'12.1'
p342
sg256
S'0.9'
p343
sg58
S'629'
p344
sg258
g3
sg51
S'1971-72'
p345
sg260
g3
sba(isrc.gp1.models.Advanced
Advanced
p346
(dp347
g223
S'1.0'
p348
sg225
S'0.2'
p349
sg227
g3
sg228
S'17.4'
p350
sg230
S'0.0'
p351
sg231
S'3.6'
p352
sg233
g3
sg20
S'SG'
p353
sg235
g3
sg236
S'.525'
p354
sg238
S'6.3'
p355
sg240
S'.433'
p356
sg242
S'.200'
p357
sg26
S'ABA'
p358
sg245
g3
sg246
S'6.8'
p359
sg248
S'.051'
p360
sg36
S'32'
p361
sg38
S'MMT'
p362
sg40
S'16'
p363
sg252
S'17.6'
p364
sg254
S'7.7'
p365
sg256
S'0.2'
p366
sg58
S'190'
p367
sg258
g3
sg51
S'1972-73'
p368
sg260
g3
sbasS'_per36Minutes'
p369
(lp370
(isrc.gp1.models.Per36Minutes
Per36Minutes
p371
(dp372
g8
S'2.6'
p373
sg10
S'6.3'
p374
sg12
S'2.7'
p375
sg14
g3
sg15
S'14.8'
p376
sg17
S'.357'
p377
sg19
g3
sg20
S'77'
p378
sg22
S'1.9'
p379
sg26
S'SG'
p380
sg28
g3
sg29
S'0.9'
p381
sg31
g3
sg32
S'4.0'
p382
sg34
S'19.9'
p383
sg36
S'KEN'
p384
sg38
S'ABA'
p385
sg40
S'3192'
p386
sg42
g3
sg43
S'.427'
p387
sg45
S'.825'
p388
sg47
S'4.5'
p389
sg49
S'3.0'
p390
sg51
S'27'
p391
sg53
S'.416'
p392
sg55
g3
sg56
S'5.4'
p393
sg58
S'17.4'
p394
sg60
S'7.3'
p395
sba(isrc.gp1.models.Per36Minutes
Per36Minutes
p396
(dp397
g8
S'3.6'
p398
sg10
S'5.5'
p399
sg12
S'4.2'
p400
sg14
S'2.9'
p401
sg15
S'13.2'
p402
sg17
S'.379'
p403
sg19
g3
sg20
S'73'
p404
sg22
S'2.6'
p405
sg26
S'SG'
p406
sg28
S'21.3'
p407
sg29
S'1.6'
p408
sg31
g3
sg32
S'0.9'
p409
sg34
S'2.7'
p410
sg36
S'KEN'
p411
sg38
S'ABA'
p412
sg40
S'2858'
p413
sg42
g3
sg43
S'.415'
p414
sg45
S'.820'
p415
sg47
S'5.6'
p416
sg49
S'2.7'
p417
sg51
S'28'
p418
sg53
S'.406'
p419
sg55
g3
sg56
S'6.9'
p420
sg58
S'17.3'
p421
sg60
S'7.0'
p422
sba(isrc.gp1.models.Per36Minutes
Per36Minutes
p423
(dp424
g8
S'2.6'
p425
sg10
S'.375'
p426
sg12
S'1.3'
p427
sg14
S'2.7'
p428
sg15
S'6.5'
p429
sg17
S'3.6'
p430
sg19
g3
sg20
S'SG'
p431
sg22
S'0.6'
p432
sg26
S'ABA'
p433
sg28
S'3.4'
p434
sg29
S'.417'
p435
sg31
g3
sg32
S'.892'
p436
sg34
S'2.7'
p437
sg36
S'29'
p438
sg38
S'KEN'
p439
sg40
S'77'
p440
sg42
S'22.8'
p441
sg43
S'15.1'
p442
sg45
S'6.5'
p443
sg47
S'.427'
p444
sg49
S'3.2'
p445
sg51
S'1969-70'
p446
sg53
S'18.7'
p447
sg55
g3
sg56
S'5.8'
p448
sg58
S'7.8'
p449
sg60
S'2805'
p450
sba(isrc.gp1.models.Per36Minutes
Per36Minutes
p451
(dp452
g8
S'2.5'
p453
sg10
S'.391'
p454
sg12
S'0.9'
p455
sg14
S'2.7'
p456
sg15
S'5.8'
p457
sg17
S'2.2'
p458
sg19
g3
sg20
S'SG'
p459
sg22
S'0.7'
p460
sg26
S'ABA'
p461
sg28
S'3.1'
p462
sg29
S'.434'
p463
sg31
g3
sg32
S'.867'
p464
sg34
S'3.3'
p465
sg36
S'30'
p466
sg38
S'KEN'
p467
sg40
S'84'
p468
sg42
S'18.6'
p469
sg43
S'13.2'
p470
sg45
S'5.1'
p471
sg47
S'.441'
p472
sg49
S'3.1'
p473
sg51
S'1970-71'
p474
sg53
S'15.4'
p475
sg55
g3
sg56
S'4.4'
p476
sg58
S'6.7'
p477
sg60
S'2664'
p478
sba(isrc.gp1.models.Per36Minutes
Per36Minutes
p479
(dp480
g8
S'2.6'
p481
sg10
S'.432'
p482
sg12
S'0.9'
p483
sg14
S'2.2'
p484
sg15
S'5.8'
p485
sg17
S'2.1'
p486
sg19
g3
sg20
S'SG'
p487
sg22
S'0.6'
p488
sg26
S'ABA'
p489
sg28
S'3.7'
p490
sg29
S'.406'
p491
sg31
g3
sg32
S'.864'
p492
sg34
S'2.5'
p493
sg36
S'31'
p494
sg38
S'KEN'
p495
sg40
S'23'
p496
sg42
S'18.7'
p497
sg43
S'14.4'
p498
sg45
S'5.0'
p499
sg47
S'.402'
p500
sg49
S'3.3'
p501
sg51
S'1971-72'
p502
sg53
S'16.5'
p503
sg55
g3
sg56
S'4.3'
p504
sg58
S'6.7'
p505
sg60
S'629'
p506
sba(isrc.gp1.models.Per36Minutes
Per36Minutes
p507
(dp508
g8
S'2.3'
p509
sg10
S'.417'
p510
sg12
S'0.9'
p511
sg14
S'2.8'
p512
sg15
S'3.4'
p513
sg17
S'2.3'
p514
sg19
g3
sg20
S'SG'
p515
sg22
S'0.4'
p516
sg26
S'ABA'
p517
sg28
S'4.0'
p518
sg29
S'.383'
p519
sg31
g3
sg32
S'.923'
p520
sg34
S'1.9'
p521
sg36
S'32'
p522
sg38
S'MMT'
p523
sg40
S'16'
p524
sg42
S'14.2'
p525
sg43
S'9.1'
p526
sg45
S'4.9'
p527
sg47
S'.375'
p528
sg49
S'2.7'
p529
sg51
S'1972-73'
p530
sg53
S'11.4'
p531
sg55
g3
sg56
S'4.5'
p532
sg58
S'4.4'
p533
sg60
S'190'
p534
sbasS'_fromYear'
p535
S'1968'
p536
sS'_url'
p537
S'http://www.basketball-reference.com/players/c/carrida01.html'
p538
sS'_perGame'
p539
(isrc.gp1.models.PerGame
PerGame
p540
(dp541
g8
S'0.8'
p542
sg10
S'.417'
p543
sg12
S'0.3'
p544
sS'_effectiveFieldGalPercentage'
p545
S'1.5'
p546
sg14
S'0.9'
p547
sg15
S'1.1'
p548
sg17
S'0.8'
p549
sg19
g3
sg20
S'SG'
p550
sg22
S'0.1'
p551
sg26
S'ABA'
p552
sg28
S'1.3'
p553
sg31
g3
sS'_fieldGoalsttempted'
p554
S'.383'
p555
sg32
S'.923'
p556
sg34
S'0.6'
p557
sg36
S'32'
p558
sg38
S'MMT'
p559
sg40
S'16'
p560
sg42
S'4.7'
p561
sg43
S'3.0'
p562
sg45
S'1.6'
p563
sg47
S'.375'
p564
sg49
S'0.9'
p565
sg51
S'1972-73'
p566
sg53
S'3.8'
p567
sg55
g3
sg56
S'.425'
p568
sg58
S'1.4'
p569
sg60
S'11.9'
p570
sbsS'_weight'
p571
S'185'
p572
sS'_dob'
p573
S'26-10-1940'
p574
sS'_salary'
p575
(lp576
sg20
S'G'
p577
sb.