(isrc.gp1.models.Player
Player
p0
(dp1
S'_experience'
p2
S'NA'
p3
sS'_totals'
p4
(lp5
(isrc.gp1.models.Totals
Totals
p6
(dp7
S'_offensiveRebounds'
p8
S'115'
p9
sS'_threePointsAttempted'
p10
S'.167'
p11
sS'_fieldGoalsPercentage'
p12
S'3'
p13
sS'_assist'
p14
S'82'
p15
sS'_threePointsPercentage'
p16
S'247'
p17
sS'_threePoints'
p18
S'18'
p19
sS'_points'
p20
g3
sS'_position'
p21
S'SG'
p22
sS'_freeThrowsPercentage'
p23
S'48'
p24
sS'_effectiveFieldGoalPercentage'
p25
S'93'
p26
sS'_league'
p27
S'ABA'
p28
sS'_steals'
p29
S'9'
p30
sS'_fieldGoalsAttempted'
p31
S'.408'
p32
sS'_personalFouls'
p33
S'596'
p34
sS'_freeThrowsAttempted'
p35
S'.756'
p36
sS'_totalRebounds'
p37
S'202'
p38
sS'_age'
p39
S'22'
p40
sS'_team'
p41
S'VIR'
p42
sS'_games'
p43
S'72'
p44
sS'_blocks'
p45
S'126'
p46
sS'_twoPoints'
p47
S'595'
p48
sS'_freeThrows'
p49
S'123'
p50
sS'_twoPointsAttempted'
p51
S'.415'
p52
sS'_defensiveRebounds'
p53
S'163'
p54
sS'_season'
p55
S'1974-75'
p56
sS'_fieldGoals'
p57
S'613'
p58
sS'_turnOvers'
p59
S'166'
p60
sS'_twoPointsPercentage'
p61
S'.410'
p62
sS'_minutesPlayed'
p63
S'250'
p64
sS'_gamesStarted'
p65
S'1869'
p66
sba(isrc.gp1.models.Totals
Totals
p67
(dp68
g8
g3
sg10
g3
sg12
g3
sg14
g3
sg16
g3
sg18
g3
sg20
g3
sg21
g3
sg23
g3
sg25
g3
sg27
g3
sg29
g3
sg31
g3
sg33
g3
sg35
g3
sg37
g3
sg39
S'23'
p69
sg41
S'Did Not Play'
p70
sg43
g3
sg45
g3
sg47
g3
sg49
g3
sg51
g3
sg53
g3
sg55
S'1975-76'
p71
sg57
g3
sg59
g3
sg61
g3
sg63
g3
sg65
g3
sba(isrc.gp1.models.Totals
Totals
p72
(dp73
g8
S'1'
p74
sg10
S'.143'
p75
sg12
S'2'
p76
sg14
S'5'
p77
sg16
S'.143'
p78
sg18
S'14'
p79
sg20
g3
sg21
S'SG'
p80
sg23
g76
sg25
g74
sg27
S'NBA'
p81
sg29
g3
sg31
S'.143'
p82
sg33
g3
sg35
S'6'
p83
sg37
g83
sg39
S'24'
p84
sg41
S'IND'
p85
sg43
g77
sg45
g3
sg47
g74
sg49
g77
sg51
g76
sg53
S'0'
p86
sg55
S'1976-77'
p87
sg57
S'14'
p88
sg59
g3
sg61
S'.500'
p89
sg63
g76
sg65
S'40'
p90
sbasS'_college'
p91
S'University of North Carolina'
p92
sS'_toYear'
p93
S'1977'
p94
sS'_height'
p95
S'6-4'
p96
sS'_active'
p97
I00
sS'_shootingHand'
p98
VRight
p99
sS'_name'
p100
S'Darrell Elston'
p101
sS'_per100Possessions'
p102
(lp103
(isrc.gp1.models.Per100Possession
Per100Possession
p104
(dp105
g8
S'2.9'
p106
sg10
S'.167'
p107
sg12
S'0.1'
p108
sS'_offensiveRating'
p109
S'109'
p110
sg14
S'2.1'
p111
sg16
S'6.3'
p112
sg18
S'0.5'
p113
sg20
S'91'
p114
sg21
S'SG'
p115
sS'_defensiveRating'
p116
g3
sg23
S'1.2'
p117
sg27
S'ABA'
p118
sg29
S'0.2'
p119
sg31
S'.408'
p120
sg33
S'15.2'
p121
sg35
S'.756'
p122
sg37
S'5.1'
p123
sg39
S'22'
p124
sg41
S'VIR'
p125
sg43
S'72'
p126
sg45
S'3.2'
p127
sg47
S'15.1'
p128
sg49
S'3.1'
p129
sg51
S'.415'
p130
sg53
S'4.1'
p131
sg55
S'1974-75'
p132
sg57
S'15.6'
p133
sg59
S'4.2'
p134
sg61
S'2.4'
p135
sg63
S'6.4'
p136
sg65
S'1869'
p137
sba(isrc.gp1.models.Per100Possession
Per100Possession
p138
(dp139
g8
S'1.1'
p140
sg10
S'.143'
p141
sg12
S'2.2'
p142
sg109
g3
sg14
S'5.6'
p143
sg16
S'1.1'
p144
sg18
S'15.7'
p145
sg20
g3
sg21
S'SG'
p146
sg116
g3
sg23
S'2.2'
p147
sg27
S'NBA'
p148
sg29
S'104'
p149
sg31
S'.143'
p150
sg33
g3
sg35
S'6.7'
p151
sg37
S'6.7'
p152
sg39
S'24'
p153
sg41
S'IND'
p154
sg43
g77
sg45
g3
sg47
S'2.2'
p155
sg49
S'5.6'
p156
sg51
S'.500'
p157
sg53
S'0.0'
p158
sg55
S'1976-77'
p159
sg57
S'15.7'
p160
sg59
g3
sg61
S'1.1'
p161
sg63
S'2.2'
p162
sg65
S'40'
p163
sbasS'_advanced'
p164
(lp165
(isrc.gp1.models.Advanced
Advanced
p166
(dp167
S'_offensiveReboundPercentage'
p168
S'2.6'
p169
sS'_turnOverPercentage'
p170
S'15.9'
p171
sS'_winSharesPer48Minutes'
p172
S'-0.003'
p173
sS'_stealPercentage'
p174
S'2.1'
p175
sS'_usagePercentage'
p176
S'17.1'
p177
sS'_totalReboundsPercentage'
p178
S'4.6'
p179
sS'_defensiveBoxPlusMinus'
p180
S'-0.5'
p181
sg21
S'SG'
p182
sS'_valueOverReplacementPlayer'
p183
S'-0.6'
p184
sS'_trueShootingPercentage'
p185
S'.447'
p186
sS'_defensiveReboundPercentage'
p187
S'6.6'
p188
sS'_freeThrowsAttempRate'
p189
S'.201'
p190
sS'_threePointsAttempRate'
p191
S'.029'
p192
sg27
S'ABA'
p193
sS'_offensiveBoxPlusMinues'
p194
S'-2.8'
p195
sS'_assistPercentage'
p196
S'15.7'
p197
sS'_defensiveWinShares'
p198
S'0.8'
p199
sg39
S'22'
p200
sg41
S'VIR'
p201
sg43
S'72'
p202
sS'_blockPercentage'
p203
S'0.3'
p204
sS'_playerEfficiencyRating'
p205
S'9.0'
p206
sS'_offensiveWinShares'
p207
S'-1.0'
p208
sg63
S'1869'
p209
sS'_boxPlusMinus'
p210
S'-3.3'
p211
sg55
S'1974-75'
p212
sS'_winShares'
p213
S'-0.1'
p214
sba(isrc.gp1.models.Advanced
Advanced
p215
(dp216
g168
S'12.5'
p217
sg170
S'0.0'
p218
sg172
S'-15.4'
p219
sg174
S'0.0'
p220
sg176
S'-0.2'
p221
sg178
S'5.9'
p222
sg180
g3
sg21
S'SG'
p223
sg183
g3
sg185
S'.168'
p224
sg187
S'7.3'
p225
sg189
S'2.4'
p226
sg191
S'.143'
p227
sg27
S'NBA'
p228
sg194
S'-0.1'
p229
sg196
S'1.1'
p230
sg198
S'-12.9'
p231
sg39
S'24'
p232
sg41
S'IND'
p233
sg43
g77
sg203
S'-0.2'
p234
sg205
S'-1.6'
p235
sg207
S'-0.218'
p236
sg63
S'40'
p237
sg210
g3
sg55
S'1976-77'
p238
sg213
S'-2.5'
p239
sbasS'_per36Minutes'
p240
(lp241
(isrc.gp1.models.Per36Minutes
Per36Minutes
p242
(dp243
g8
S'2.2'
p244
sg10
S'.167'
p245
sg12
S'0.1'
p246
sg14
S'1.6'
p247
sg16
S'4.8'
p248
sg18
S'0.3'
p249
sg20
g3
sg21
S'SG'
p250
sg23
S'0.9'
p251
sg27
S'ABA'
p252
sg29
S'0.2'
p253
sg31
S'.408'
p254
sg33
S'11.5'
p255
sg35
S'.756'
p256
sg37
S'3.9'
p257
sg39
S'22'
p258
sg41
S'VIR'
p259
sg43
S'72'
p260
sg45
S'2.4'
p261
sg47
S'11.5'
p262
sg49
S'2.4'
p263
sg51
S'.415'
p264
sg53
S'3.1'
p265
sg55
S'1974-75'
p266
sg57
S'11.8'
p267
sg59
S'3.2'
p268
sg61
S'1.8'
p269
sg63
S'4.8'
p270
sg65
S'1869'
p271
sba(isrc.gp1.models.Per36Minutes
Per36Minutes
p272
(dp273
g8
S'0.9'
p274
sg10
S'.143'
p275
sg12
S'1.8'
p276
sg14
S'4.5'
p277
sg16
S'0.9'
p278
sg18
S'12.6'
p279
sg20
g3
sg21
S'SG'
p280
sg23
S'1.8'
p281
sg27
S'NBA'
p282
sg29
g3
sg31
S'.143'
p283
sg33
g3
sg35
S'5.4'
p284
sg37
S'5.4'
p285
sg39
S'24'
p286
sg41
S'IND'
p287
sg43
g77
sg45
g3
sg47
S'1.8'
p288
sg49
S'4.5'
p289
sg51
S'.500'
p290
sg53
S'0.0'
p291
sg55
S'1976-77'
p292
sg57
S'12.6'
p293
sg59
g3
sg61
S'0.9'
p294
sg63
S'1.8'
p295
sg65
S'40'
p296
sbasS'_fromYear'
p297
S'1975'
p298
sS'_url'
p299
S'http://www.basketball-reference.com/players/e/elstoda01.html'
p300
sS'_perGame'
p301
(isrc.gp1.models.PerGame
PerGame
p302
(dp303
g8
S'0.2'
p304
sg10
S'.143'
p305
sg12
S'0.4'
p306
sS'_effectiveFieldGalPercentage'
p307
S'0.2'
p308
sg14
S'1.0'
p309
sg16
S'.143'
p310
sg18
S'2.8'
p311
sg20
g3
sg21
S'SG'
p312
sg23
S'0.4'
p313
sg27
S'NBA'
p314
sg29
g3
sg33
g3
sS'_fieldGoalsttempted'
p315
S'.143'
p316
sg35
S'1.2'
p317
sg37
S'1.2'
p318
sg39
S'24'
p319
sg41
S'IND'
p320
sg43
g77
sg45
g3
sg47
S'0.2'
p321
sg49
S'1.0'
p322
sg51
S'0.4'
p323
sg53
S'0.0'
p324
sg55
S'1976-77'
p325
sg57
S'2.8'
p326
sg59
g3
sg61
S'.500'
p327
sg63
S'0.4'
p328
sg65
S'8.0'
p329
sbsS'_weight'
p330
S'190'
p331
sS'_dob'
p332
S'15-8-1952'
p333
sS'_salary'
p334
(lp335
sg21
S'G'
p336
sb.