(isrc.gp1.models.Player
Player
p0
(dp1
S'_experience'
p2
S'NA'
p3
sS'_totals'
p4
(lp5
(isrc.gp1.models.Totals
Totals
p6
(dp7
S'_offensiveRebounds'
p8
S'23'
p9
sS'_threePointsAttempted'
p10
S'73'
p11
sS'_fieldGoalsPercentage'
p12
S'.000'
p13
sS'_assist'
p14
g3
sS'_threePointsPercentage'
p15
S'.438'
p16
sS'_threePoints'
p17
S'32'
p18
sS'_points'
p19
g3
sS'_position'
p20
S'172'
p21
sS'_freeThrowsPercentage'
p22
S'12'
p23
sS'_effectiveFieldGoalPercentage'
p24
S'.714'
p25
sS'_league'
p26
S'17'
p27
sS'_steals'
p28
g3
sS'_fieldGoalsAttempted'
p29
S'1'
p30
sS'_personalFouls'
p31
g3
sS'_freeThrowsAttempted'
p32
S'8'
p33
sS'_totalRebounds'
p34
g3
sS'_age'
p35
S'HSM'
p36
sS'_team'
p37
S'ABA'
p38
sS'_games'
p39
S'32'
p40
sS'_blocks'
p41
g3
sS'_twoPoints'
p42
S'.432'
p43
sS'_freeThrows'
p44
S'56'
p45
sS'_twoPointsAttempted'
p46
S'25'
p47
sS'_defensiveRebounds'
p48
S'89'
p49
sS'_season'
p50
S'1967-68'
p51
sS'_fieldGoals'
p52
S'0'
p53
sS'_turnOvers'
p54
g3
sS'_twoPointsPercentage'
p55
S'35'
p56
sS'_minutesPlayed'
p57
S'.432'
p58
sS'_gamesStarted'
p59
S'74'
p60
sbasS'_college'
p61
S'Baylor University'
p62
sS'_toYear'
p63
S'1968'
p64
sS'_height'
p65
S'6-7'
p66
sS'_active'
p67
I00
sS'_shootingHand'
p68
VRight
p69
sS'_name'
p70
S'Darrell Hardy'
p71
sS'_per100Possessions'
p72
(lp73
sS'_advanced'
p74
(lp75
(isrc.gp1.models.Advanced
Advanced
p76
(dp77
S'_offensiveReboundPercentage'
p78
S'11.8'
p79
sS'_turnOverPercentage'
p80
g3
sS'_winSharesPer48Minutes'
p81
g3
sS'_stealPercentage'
p82
S'0.5'
p83
sS'_usagePercentage'
p84
g3
sS'_totalReboundsPercentage'
p85
S'0.3'
p86
sS'_defensiveBoxPlusMinus'
p87
g3
sg20
S'172'
p88
sS'_valueOverReplacementPlayer'
p89
g3
sS'_trueShootingPercentage'
p90
S'.473'
p91
sS'_defensiveReboundPercentage'
p92
S'22.4'
p93
sS'_freeThrowsAttempRate'
p94
S'7.3'
p95
sS'_threePointsAttempRate'
p96
S'14.2'
p97
sg26
S'17'
p98
sS'_offensiveBoxPlusMinues'
p99
g3
sS'_assistPercentage'
p100
S'0.3'
p101
sS'_defensiveWinShares'
p102
g3
sg35
S'HSM'
p103
sg37
S'ABA'
p104
sg39
S'19.3'
p105
sS'_blockPercentage'
p106
S'.149'
p107
sS'_playerEfficiencyRating'
p108
S'.014'
p109
sS'_offensiveWinShares'
p110
g3
sg57
S'.498'
p111
sS'_boxPlusMinus'
p112
g3
sg50
S'1967-68'
p113
sS'_winShares'
p114
g3
sbasS'_per36Minutes'
p115
(lp116
(isrc.gp1.models.Per36Minutes
Per36Minutes
p117
(dp118
g8
S'4.8'
p119
sg10
S'15.3'
p120
sg12
S'.000'
p121
sg14
g3
sg15
S'.438'
p122
sg17
S'6.7'
p123
sg19
g3
sg20
S'172'
p124
sg22
S'2.5'
p125
sg26
S'17'
p126
sg28
g3
sg29
S'0.2'
p127
sg31
g3
sg32
S'1.7'
p128
sg34
g3
sg35
S'HSM'
p129
sg37
S'ABA'
p130
sg39
S'6.7'
p131
sg41
g3
sg42
S'5.2'
p132
sg44
S'11.7'
p133
sg46
S'7.3'
p134
sg48
S'18.6'
p135
sg50
S'1967-68'
p136
sg52
S'0.0'
p137
sg54
g3
sg55
S'.714'
p138
sg57
S'.432'
p139
sg59
S'15.5'
p140
sbasS'_fromYear'
p141
S'1968'
p142
sS'_url'
p143
S'http://www.basketball-reference.com/players/h/hardyda01.html'
p144
sS'_perGame'
p145
(isrc.gp1.models.PerGame
PerGame
p146
(dp147
g8
S'1.4'
p148
sg10
S'4.3'
p149
sg12
S'.000'
p150
sS'_effectiveFieldGalPercentage'
p151
S'.714'
p152
sg14
g3
sg15
S'.438'
p153
sg17
S'1.9'
p154
sg19
g3
sg20
S'10.1'
p155
sg22
S'0.7'
p156
sg26
S'17'
p157
sg28
g3
sg31
g3
sS'_fieldGoalsttempted'
p158
S'0.1'
p159
sg32
S'0.5'
p160
sg34
g3
sg35
S'HSM'
p161
sg37
S'ABA'
p162
sg39
S'1.9'
p163
sg41
g3
sg42
S'.432'
p164
sg44
S'3.3'
p165
sg46
S'1.5'
p166
sg48
S'5.2'
p167
sg50
S'1967-68'
p168
sg52
S'0.0'
p169
sg54
g3
sg55
S'2.1'
p170
sg57
S'.432'
p171
sg59
S'4.4'
p172
sbsS'_weight'
p173
S'220'
p174
sS'_dob'
p175
S'NA'
p176
sS'_salary'
p177
(lp178
sg20
S'F'
p179
sb.