(isrc.gp1.models.Player
Player
p0
(dp1
S'_experience'
p2
S'NA'
p3
sS'_totals'
p4
(lp5
(isrc.gp1.models.Totals
Totals
p6
(dp7
S'_offensiveRebounds'
p8
S'74'
p9
sS'_threePointsAttempted'
p10
S'15'
p11
sS'_fieldGoalsPercentage'
p12
S'.417'
p13
sS'_assist'
p14
S'284'
p15
sS'_threePointsPercentage'
p16
S'.267'
p17
sS'_threePoints'
p18
S'4'
p19
sS'_points'
p20
S'644'
p21
sS'_position'
p22
S'PG'
p23
sS'_freeThrowsPercentage'
p24
S'.791'
p25
sS'_effectiveFieldGoalPercentage'
p26
S'.421'
p27
sS'_league'
p28
S'NBA'
p29
sS'_steals'
p30
S'127'
p31
sS'_fieldGoalsAttempted'
p32
S'518'
p33
sS'_personalFouls'
p34
S'202'
p35
sS'_freeThrowsAttempted'
p36
S'263'
p37
sS'_totalRebounds'
p38
S'167'
p39
sS'_age'
p40
S'22'
p41
sS'_team'
p42
S'NYK'
p43
sS'_games'
p44
S'82'
p45
sS'_blocks'
p46
S'15'
p47
sS'_twoPoints'
p48
S'212'
p49
sS'_freeThrows'
p50
S'208'
p51
sS'_twoPointsAttempted'
p52
S'503'
p53
sS'_defensiveRebounds'
p54
S'93'
p55
sS'_season'
p56
S'1983-84'
p57
sS'_fieldGoals'
p58
S'216'
p59
sS'_turnOvers'
p60
S'194'
p61
sS'_twoPointsPercentage'
p62
S'.421'
p63
sS'_minutesPlayed'
p64
S'1324'
p65
sS'_gamesStarted'
p66
S'0'
p67
sba(isrc.gp1.models.Totals
Totals
p68
(dp69
g8
S'128'
p70
sg10
S'17'
p71
sg12
S'.435'
p72
sg14
S'408'
p73
sg16
S'.000'
p74
sg18
g67
sg20
S'1103'
p75
sg22
S'PG'
p76
sg24
S'.700'
p77
sg26
S'.435'
p78
sg28
S'NBA'
p79
sg30
S'167'
p80
sg32
S'989'
p81
sg34
S'244'
p82
sg36
S'347'
p83
sg38
S'278'
p84
sg40
S'23'
p85
sg42
S'NYK'
p86
sg44
S'82'
p87
sg46
S'21'
p88
sg48
S'430'
p89
sg50
S'243'
p90
sg52
S'972'
p91
sg54
S'150'
p92
sg56
S'1984-85'
p93
sg58
S'430'
p94
sg60
S'204'
p95
sg62
S'.442'
p96
sg64
S'2489'
p97
sg66
S'66'
p98
sba(isrc.gp1.models.Totals
Totals
p99
(dp100
g8
S'100'
p101
sg10
S'10'
p102
sg12
S'.430'
p103
sg14
S'337'
p104
sg16
S'.000'
p105
sg18
g67
sg20
S'838'
p106
sg22
S'PG'
p107
sg24
S'.686'
p108
sg26
S'.430'
p109
sg28
S'NBA'
p110
sg30
S'146'
p111
sg32
S'753'
p112
sg34
S'216'
p113
sg36
S'277'
p114
sg38
S'220'
p115
sg40
S'24'
p116
sg42
S'NYK'
p117
sg44
S'81'
p118
sg46
S'36'
p119
sg48
S'324'
p120
sg50
S'190'
p121
sg52
S'743'
p122
sg54
S'120'
p123
sg56
S'1985-86'
p124
sg58
S'324'
p125
sg60
S'192'
p126
sg62
S'.436'
p127
sg64
S'2023'
p128
sg66
S'35'
p129
sba(isrc.gp1.models.Totals
Totals
p130
(dp131
g8
S'157'
p132
sg10
g19
sg12
S'.482'
p133
sg14
S'282'
p134
sg16
S'.000'
p135
sg18
g67
sg20
S'988'
p136
sg22
S'PG'
p137
sg24
S'.745'
p138
sg26
S'.482'
p139
sg28
S'NBA'
p140
sg30
S'120'
p141
sg32
S'742'
p142
sg34
S'229'
p143
sg36
S'365'
p144
sg38
S'327'
p145
sg40
S'25'
p146
sg42
S'DEN'
p147
sg44
S'81'
p148
sg46
S'37'
p149
sg48
S'358'
p150
sg50
S'272'
p151
sg52
S'738'
p152
sg54
S'170'
p153
sg56
S'1986-87'
p154
sg58
S'358'
p155
sg60
S'187'
p156
sg62
S'.485'
p157
sg64
S'2020'
p158
sg66
S'25'
p159
sba(isrc.gp1.models.Totals
Totals
p160
(dp161
g8
S'43'
p162
sg10
S'6'
p163
sg12
S'.392'
p164
sg14
S'100'
p165
sg16
S'.000'
p166
sg18
g67
sg20
S'310'
p167
sg22
S'SG'
p168
sg24
S'.781'
p169
sg26
S'.392'
p170
sg28
S'NBA'
p171
sg30
S'62'
p172
sg32
S'291'
p173
sg34
S'105'
p174
sg36
S'105'
p175
sg38
S'127'
p176
sg40
S'26'
p177
sg42
S'WSB'
p178
sg44
S'52'
p179
sg46
S'10'
p180
sg48
S'114'
p181
sg50
S'82'
p182
sg52
S'285'
p183
sg54
S'84'
p184
sg56
S'1987-88'
p185
sg58
S'114'
p186
sg60
S'69'
p187
sg62
S'.400'
p188
sg64
S'940'
p189
sg66
g67
sba(isrc.gp1.models.Totals
Totals
p190
(dp191
g8
S'135'
p192
sg10
S'9'
p193
sg12
S'.420'
p194
sg14
S'496'
p195
sg16
S'.000'
p196
sg18
g67
sg20
S'714'
p197
sg22
S'PG'
p198
sg24
S'.772'
p199
sg26
S'.420'
p200
sg28
S'NBA'
p201
sg30
S'155'
p202
sg32
S'681'
p203
sg34
S'215'
p204
sg36
S'184'
p205
sg38
S'507'
p206
sg40
S'27'
p207
sg42
S'WSB'
p208
sg44
S'79'
p209
sg46
S'23'
p210
sg48
S'286'
p211
sg50
S'142'
p212
sg52
S'672'
p213
sg54
S'372'
p214
sg56
S'1988-89'
p215
sg58
S'286'
p216
sg60
S'184'
p217
sg62
S'.426'
p218
sg64
S'2565'
p219
sg66
S'78'
p220
sba(isrc.gp1.models.Totals
Totals
p221
(dp222
g8
S'173'
p223
sg10
S'21'
p224
sg12
S'.454'
p225
sg14
S'652'
p226
sg16
S'.095'
p227
sg18
S'2'
p228
sg20
S'772'
p229
sg22
S'PG'
p230
sg24
S'.687'
p231
sg26
S'.455'
p232
sg28
S'NBA'
p233
sg30
S'139'
p234
sg32
S'696'
p235
sg34
S'220'
p236
sg36
S'201'
p237
sg38
S'714'
p238
sg40
S'28'
p239
sg42
S'WSB'
p240
sg44
S'81'
p241
sg46
S'30'
p242
sg48
S'314'
p243
sg50
S'138'
p244
sg52
S'675'
p245
sg54
S'541'
p246
sg56
S'1989-90'
p247
sg58
S'316'
p248
sg60
S'173'
p249
sg62
S'.465'
p250
sg64
S'2883'
p251
sg66
S'81'
p252
sba(isrc.gp1.models.Totals
Totals
p253
(dp254
g8
S'140'
p255
sg10
g193
sg12
S'.430'
p256
sg14
S'459'
p257
sg16
S'.000'
p258
sg18
g67
sg20
S'553'
p259
sg22
S'PG'
p260
sg24
S'.604'
p261
sg26
S'.430'
p262
sg28
S'NBA'
p263
sg30
S'78'
p264
sg32
S'535'
p265
sg34
S'199'
p266
sg36
S'154'
p267
sg38
S'498'
p268
sg40
S'29'
p269
sg42
S'WSB'
p270
sg44
S'71'
p271
sg46
S'33'
p272
sg48
S'230'
p273
sg50
S'93'
p274
sg52
S'526'
p275
sg54
S'358'
p276
sg56
S'1990-91'
p277
sg58
S'230'
p278
sg60
S'154'
p279
sg62
S'.437'
p280
sg64
S'2305'
p281
sg66
S'65'
p282
sba(isrc.gp1.models.Totals
Totals
p283
(dp284
g8
S'85'
p285
sg10
S'10'
p286
sg12
S'.423'
p287
sg14
S'205'
p288
sg16
S'.000'
p289
sg18
g67
sg20
S'387'
p290
sg22
S'SG'
p291
sg24
S'.619'
p292
sg26
S'.423'
p293
sg28
S'NBA'
p294
sg30
S'63'
p295
sg32
S'381'
p296
sg34
S'134'
p297
sg36
S'105'
p298
sg38
S'238'
p299
sg40
S'30'
p300
sg42
S'DET'
p301
sg44
S'74'
p302
sg46
S'18'
p303
sg48
S'161'
p304
sg50
S'65'
p305
sg52
S'371'
p306
sg54
S'153'
p307
sg56
S'1991-92'
p308
sg58
S'161'
p309
sg60
S'79'
p310
sg62
S'.434'
p311
sg64
S'1541'
p312
sg66
g19
sba(isrc.gp1.models.Totals
Totals
p313
(dp314
g8
S'22'
p315
sg10
S'1'
p316
sg12
S'.354'
p317
sg14
S'53'
p318
sg16
S'.000'
p319
sg18
g67
sg20
S'80'
p320
sg22
S'PG-SG'
p321
sg24
S'.462'
p322
sg26
S'.354'
p323
sg28
S'NBA'
p324
sg30
S'33'
p325
sg32
S'96'
p326
sg34
S'63'
p327
sg36
S'26'
p328
sg38
S'58'
p329
sg40
S'31'
p330
sg42
S'TOT'
p331
sg44
S'37'
p332
sg46
g228
sg48
S'34'
p333
sg50
S'12'
p334
sg52
S'95'
p335
sg54
S'36'
p336
sg56
S'1992-93'
p337
sg58
S'34'
p338
sg60
S'25'
p339
sg62
S'.358'
p340
sg64
S'511'
p341
sg66
g228
sba(isrc.gp1.models.Totals
Totals
p342
(dp343
g8
g19
sg10
g316
sg12
S'.158'
p344
sg14
g193
sg16
S'.000'
p345
sg18
g67
sg20
S'8'
p346
sg22
S'SG'
p347
sg24
S'.333'
p348
sg26
S'.158'
p349
sg28
S'NBA'
p350
sg30
S'10'
p351
sg32
S'19'
p352
sg34
S'12'
p353
sg36
g163
sg38
S'19'
p354
sg40
S'31'
p355
sg42
S'DET'
p356
sg44
g193
sg46
g67
sg48
S'3'
p357
sg50
g228
sg52
S'18'
p358
sg54
S'15'
p359
sg56
S'1992-93'
p360
sg58
g357
sg60
S'13'
p361
sg62
S'.167'
p362
sg64
S'144'
p363
sg66
g228
sba(isrc.gp1.models.Totals
Totals
p364
(dp365
g8
S'21'
p366
sg10
g67
sg12
S'.403'
p367
sg14
S'23'
p368
sg16
S'31'
p369
sg18
g67
sg20
g3
sg22
S'PG'
p370
sg24
S'18'
p371
sg26
S'10'
p372
sg28
S'NBA'
p373
sg30
g228
sg32
S'77'
p374
sg34
S'72'
p375
sg36
S'.500'
p376
sg38
S'44'
p377
sg40
S'31'
p378
sg42
S'CHI'
p379
sg44
S'28'
p380
sg46
S'12'
p381
sg48
S'77'
p382
sg50
S'20'
p383
sg52
S'.403'
p384
sg54
S'39'
p385
sg56
S'1992-93'
p386
sg58
S'31'
p387
sg60
S'51'
p388
sg62
S'.403'
p389
sg64
S'367'
p390
sg66
g67
sbasS'_college'
p391
S'University of Arkansas'
p392
sS'_toYear'
p393
S'1993'
p394
sS'_height'
p395
S'6-4'
p396
sS'_active'
p397
I00
sS'_shootingHand'
p398
VRight
p399
sS'_name'
p400
S'Darrell Walker'
p401
sS'_per100Possessions'
p402
(lp403
(isrc.gp1.models.Per100Possession
Per100Possession
p404
(dp405
g8
S'2.7'
p406
sg10
S'0.5'
p407
sg12
S'.417'
p408
sS'_offensiveRating'
p409
S'97'
p410
sg14
S'10.4'
p411
sg16
S'.267'
p412
sg18
S'0.1'
p413
sg20
S'23.6'
p414
sg22
S'PG'
p415
sS'_defensiveRating'
p416
S'99'
p417
sg24
S'.791'
p418
sg28
S'NBA'
p419
sg30
S'4.6'
p420
sg32
S'19.0'
p421
sg34
S'7.4'
p422
sg36
S'9.6'
p423
sg38
S'6.1'
p424
sg40
S'22'
p425
sg42
S'NYK'
p426
sg44
S'82'
p427
sg46
S'0.5'
p428
sg48
S'7.8'
p429
sg50
S'7.6'
p430
sg52
S'18.4'
p431
sg54
S'3.4'
p432
sg56
S'1983-84'
p433
sg58
S'7.9'
p434
sg60
S'7.1'
p435
sg62
S'.421'
p436
sg64
S'1324'
p437
sg66
g67
sba(isrc.gp1.models.Per100Possession
Per100Possession
p438
(dp439
g8
S'2.5'
p440
sg10
S'0.3'
p441
sg12
S'.435'
p442
sg409
S'101'
p443
sg14
S'7.9'
p444
sg16
S'.000'
p445
sg18
S'0.0'
p446
sg20
S'21.4'
p447
sg22
S'PG'
p448
sg416
S'109'
p449
sg24
S'.700'
p450
sg28
S'NBA'
p451
sg30
S'3.2'
p452
sg32
S'19.2'
p453
sg34
S'4.7'
p454
sg36
S'6.7'
p455
sg38
S'5.4'
p456
sg40
S'23'
p457
sg42
S'NYK'
p458
sg44
S'82'
p459
sg46
S'0.4'
p460
sg48
S'8.3'
p461
sg50
S'4.7'
p462
sg52
S'18.8'
p463
sg54
S'2.9'
p464
sg56
S'1984-85'
p465
sg58
S'8.3'
p466
sg60
S'4.0'
p467
sg62
S'.442'
p468
sg64
S'2489'
p469
sg66
S'66'
p470
sba(isrc.gp1.models.Per100Possession
Per100Possession
p471
(dp472
g8
S'2.4'
p473
sg10
S'0.2'
p474
sg12
S'.430'
p475
sg409
S'96'
p476
sg14
S'8.1'
p477
sg16
S'.000'
p478
sg18
S'0.0'
p479
sg20
S'20.2'
p480
sg22
S'PG'
p481
sg416
S'103'
p482
sg24
S'.686'
p483
sg28
S'NBA'
p484
sg30
S'3.5'
p485
sg32
S'18.1'
p486
sg34
S'5.2'
p487
sg36
S'6.7'
p488
sg38
S'5.3'
p489
sg40
S'24'
p490
sg42
S'NYK'
p491
sg44
S'81'
p492
sg46
S'0.9'
p493
sg48
S'7.8'
p494
sg50
S'4.6'
p495
sg52
S'17.9'
p496
sg54
S'2.9'
p497
sg56
S'1985-86'
p498
sg58
S'7.8'
p499
sg60
S'4.6'
p500
sg62
S'.436'
p501
sg64
S'2023'
p502
sg66
S'35'
p503
sba(isrc.gp1.models.Per100Possession
Per100Possession
p504
(dp505
g8
S'3.5'
p506
sg10
S'0.1'
p507
sg12
S'.482'
p508
sg409
S'107'
p509
sg14
S'6.3'
p510
sg16
S'.000'
p511
sg18
S'0.0'
p512
sg20
S'22.1'
p513
sg22
S'PG'
p514
sg416
S'109'
p515
sg24
S'.745'
p516
sg28
S'NBA'
p517
sg30
S'2.7'
p518
sg32
S'16.6'
p519
sg34
S'5.1'
p520
sg36
S'8.2'
p521
sg38
S'7.3'
p522
sg40
S'25'
p523
sg42
S'DEN'
p524
sg44
S'81'
p525
sg46
S'0.8'
p526
sg48
S'8.0'
p527
sg50
S'6.1'
p528
sg52
S'16.5'
p529
sg54
S'3.8'
p530
sg56
S'1986-87'
p531
sg58
S'8.0'
p532
sg60
S'4.2'
p533
sg62
S'.485'
p534
sg64
S'2020'
p535
sg66
S'25'
p536
sba(isrc.gp1.models.Per100Possession
Per100Possession
p537
(dp538
g8
S'2.2'
p539
sg10
S'0.3'
p540
sg12
S'.392'
p541
sg409
S'95'
p542
sg14
S'5.2'
p543
sg16
S'.000'
p544
sg18
S'0.0'
p545
sg20
S'16.1'
p546
sg22
S'SG'
p547
sg416
S'106'
p548
sg24
S'.781'
p549
sg28
S'NBA'
p550
sg30
S'3.2'
p551
sg32
S'15.1'
p552
sg34
S'5.5'
p553
sg36
S'5.5'
p554
sg38
S'6.6'
p555
sg40
S'26'
p556
sg42
S'WSB'
p557
sg44
S'52'
p558
sg46
S'0.5'
p559
sg48
S'5.9'
p560
sg50
S'4.3'
p561
sg52
S'14.8'
p562
sg54
S'4.4'
p563
sg56
S'1987-88'
p564
sg58
S'5.9'
p565
sg60
S'3.6'
p566
sg62
S'.400'
p567
sg64
S'940'
p568
sg66
g67
sba(isrc.gp1.models.Per100Possession
Per100Possession
p569
(dp570
g8
S'2.5'
p571
sg10
S'0.2'
p572
sg12
S'.420'
p573
sg409
S'101'
p574
sg14
S'9.2'
p575
sg16
S'.000'
p576
sg18
S'0.0'
p577
sg20
S'13.2'
p578
sg22
S'PG'
p579
sg416
S'106'
p580
sg24
S'.772'
p581
sg28
S'NBA'
p582
sg30
S'2.9'
p583
sg32
S'12.6'
p584
sg34
S'4.0'
p585
sg36
S'3.4'
p586
sg38
S'9.4'
p587
sg40
S'27'
p588
sg42
S'WSB'
p589
sg44
S'79'
p590
sg46
S'0.4'
p591
sg48
S'5.3'
p592
sg50
S'2.6'
p593
sg52
S'12.5'
p594
sg54
S'6.9'
p595
sg56
S'1988-89'
p596
sg58
S'5.3'
p597
sg60
S'3.4'
p598
sg62
S'.426'
p599
sg64
S'2565'
p600
sg66
S'78'
p601
sba(isrc.gp1.models.Per100Possession
Per100Possession
p602
(dp603
g8
S'2.9'
p604
sg10
S'0.4'
p605
sg12
S'.454'
p606
sg409
S'109'
p607
sg14
S'10.9'
p608
sg16
S'.095'
p609
sg18
S'0.0'
p610
sg20
S'12.9'
p611
sg22
S'PG'
p612
sg416
S'106'
p613
sg24
S'.687'
p614
sg28
S'NBA'
p615
sg30
S'2.3'
p616
sg32
S'11.7'
p617
sg34
S'3.7'
p618
sg36
S'3.4'
p619
sg38
S'12.0'
p620
sg40
S'28'
p621
sg42
S'WSB'
p622
sg44
S'81'
p623
sg46
S'0.5'
p624
sg48
S'5.3'
p625
sg50
S'2.3'
p626
sg52
S'11.3'
p627
sg54
S'9.1'
p628
sg56
S'1989-90'
p629
sg58
S'5.3'
p630
sg60
S'2.9'
p631
sg62
S'.465'
p632
sg64
S'2883'
p633
sg66
S'81'
p634
sba(isrc.gp1.models.Per100Possession
Per100Possession
p635
(dp636
g8
S'3.0'
p637
sg10
S'0.2'
p638
sg12
S'.430'
p639
sg409
S'101'
p640
sg14
S'9.8'
p641
sg16
S'.000'
p642
sg18
S'0.0'
p643
sg20
S'11.8'
p644
sg22
S'PG'
p645
sg416
S'107'
p646
sg24
S'.604'
p647
sg28
S'NBA'
p648
sg30
S'1.7'
p649
sg32
S'11.4'
p650
sg34
S'4.2'
p651
sg36
S'3.3'
p652
sg38
S'10.6'
p653
sg40
S'29'
p654
sg42
S'WSB'
p655
sg44
S'71'
p656
sg46
S'0.7'
p657
sg48
S'4.9'
p658
sg50
S'2.0'
p659
sg52
S'11.2'
p660
sg54
S'7.6'
p661
sg56
S'1990-91'
p662
sg58
S'4.9'
p663
sg60
S'3.3'
p664
sg62
S'.437'
p665
sg64
S'2305'
p666
sg66
S'65'
p667
sba(isrc.gp1.models.Per100Possession
Per100Possession
p668
(dp669
g8
S'2.9'
p670
sg10
S'0.3'
p671
sg12
S'.423'
p672
sg409
S'101'
p673
sg14
S'7.0'
p674
sg16
S'.000'
p675
sg18
S'0.0'
p676
sg20
S'13.2'
p677
sg22
S'SG'
p678
sg416
S'105'
p679
sg24
S'.619'
p680
sg28
S'NBA'
p681
sg30
S'2.1'
p682
sg32
S'13.0'
p683
sg34
S'4.6'
p684
sg36
S'3.6'
p685
sg38
S'8.1'
p686
sg40
S'30'
p687
sg42
S'DET'
p688
sg44
S'74'
p689
sg46
S'0.6'
p690
sg48
S'5.5'
p691
sg50
S'2.2'
p692
sg52
S'12.6'
p693
sg54
S'5.2'
p694
sg56
S'1991-92'
p695
sg58
S'5.5'
p696
sg60
S'2.7'
p697
sg62
S'.434'
p698
sg64
S'1541'
p699
sg66
g19
sba(isrc.gp1.models.Per100Possession
Per100Possession
p700
(dp701
g8
S'2.2'
p702
sg10
S'0.1'
p703
sg12
S'.354'
p704
sg409
S'88'
p705
sg14
S'5.4'
p706
sg16
S'.000'
p707
sg18
S'0.0'
p708
sg20
S'8.1'
p709
sg22
S'PG-SG'
p710
sg416
S'106'
p711
sg24
S'.462'
p712
sg28
S'NBA'
p713
sg30
S'3.3'
p714
sg32
S'9.7'
p715
sg34
S'6.4'
p716
sg36
S'2.6'
p717
sg38
S'5.9'
p718
sg40
S'31'
p719
sg42
S'TOT'
p720
sg44
S'37'
p721
sg46
S'0.2'
p722
sg48
S'3.4'
p723
sg50
S'1.2'
p724
sg52
S'9.6'
p725
sg54
S'3.6'
p726
sg56
S'1992-93'
p727
sg58
S'3.4'
p728
sg60
S'2.5'
p729
sg62
S'.358'
p730
sg64
S'511'
p731
sg66
g228
sba(isrc.gp1.models.Per100Possession
Per100Possession
p732
(dp733
g8
S'1.4'
p734
sg10
S'0.4'
p735
sg12
S'.158'
p736
sg409
S'43'
p737
sg14
S'3.2'
p738
sg16
S'.000'
p739
sg18
S'0.0'
p740
sg20
S'2.9'
p741
sg22
S'SG'
p742
sg416
S'106'
p743
sg24
S'.333'
p744
sg28
S'NBA'
p745
sg30
S'3.6'
p746
sg32
S'6.8'
p747
sg34
S'4.3'
p748
sg36
S'2.1'
p749
sg38
S'6.8'
p750
sg40
S'31'
p751
sg42
S'DET'
p752
sg44
g193
sg46
S'0.0'
p753
sg48
S'1.1'
p754
sg50
S'0.7'
p755
sg52
S'6.4'
p756
sg54
S'5.4'
p757
sg56
S'1992-93'
p758
sg58
S'1.1'
p759
sg60
S'4.6'
p760
sg62
S'.167'
p761
sg64
S'144'
p762
sg66
g228
sba(isrc.gp1.models.Per100Possession
Per100Possession
p763
(dp764
g8
S'3.0'
p765
sg10
S'0.0'
p766
sg12
S'.403'
p767
sg409
S'106'
p768
sg14
S'3.3'
p769
sg16
S'4.4'
p770
sg18
S'0.0'
p771
sg20
S'103'
p772
sg22
S'PG'
p773
sg416
g3
sg24
S'2.5'
p774
sg28
S'NBA'
p775
sg30
S'0.3'
p776
sg32
S'10.9'
p777
sg34
S'10.2'
p778
sg36
S'.500'
p779
sg38
S'6.2'
p780
sg40
S'31'
p781
sg42
S'CHI'
p782
sg44
S'28'
p783
sg46
S'1.7'
p784
sg48
S'10.9'
p785
sg50
S'2.8'
p786
sg52
S'.403'
p787
sg54
S'5.5'
p788
sg56
S'1992-93'
p789
sg58
S'4.4'
p790
sg60
S'7.2'
p791
sg62
S'1.4'
p792
sg64
S'367'
p793
sg66
g67
sbasS'_advanced'
p794
(lp795
(isrc.gp1.models.Advanced
Advanced
p796
(dp797
S'_offensiveReboundPercentage'
p798
S'6.8'
p799
sS'_turnOverPercentage'
p800
S'23.4'
p801
sS'_winSharesPer48Minutes'
p802
S'.083'
p803
sS'_stealPercentage'
p804
S'4.6'
p805
sS'_usagePercentage'
p806
S'26.1'
p807
sS'_totalReboundsPercentage'
p808
S'7.7'
p809
sS'_defensiveBoxPlusMinus'
p810
S'2.4'
p811
sg22
S'PG'
p812
sS'_valueOverReplacementPlayer'
p813
S'1.3'
p814
sS'_trueShootingPercentage'
p815
S'.508'
p816
sS'_defensiveReboundPercentage'
p817
S'8.5'
p818
sS'_freeThrowsAttempRate'
p819
S'.508'
p820
sS'_threePointsAttempRate'
p821
S'.029'
p822
sg28
S'NBA'
p823
sS'_offensiveBoxPlusMinues'
p824
S'-0.4'
p825
sS'_assistPercentage'
p826
S'31.1'
p827
sS'_defensiveWinShares'
p828
S'2.7'
p829
sg40
S'22'
p830
sg42
S'NYK'
p831
sg44
S'82'
p832
sS'_blockPercentage'
p833
S'0.7'
p834
sS'_playerEfficiencyRating'
p835
S'15.9'
p836
sS'_offensiveWinShares'
p837
S'-0.4'
p838
sg64
S'1324'
p839
sS'_boxPlusMinus'
p840
S'2.0'
p841
sg56
S'1983-84'
p842
sS'_winShares'
p843
S'2.3'
p844
sba(isrc.gp1.models.Advanced
Advanced
p845
(dp846
g798
S'5.8'
p847
sg800
S'15.2'
p848
sg802
S'.054'
p849
sg804
S'3.2'
p850
sg806
S'22.4'
p851
sg808
S'6.5'
p852
sg810
S'0.7'
p853
sg22
S'PG'
p854
sg813
S'1.8'
p855
sg815
S'.483'
p856
sg817
S'7.2'
p857
sg819
S'.351'
p858
sg821
S'.017'
p859
sg28
S'NBA'
p860
sg824
S'0.1'
p861
sg826
S'23.6'
p862
sg828
S'2.3'
p863
sg40
S'23'
p864
sg42
S'NYK'
p865
sg44
S'82'
p866
sg833
S'0.5'
p867
sg835
S'14.7'
p868
sg837
S'0.5'
p869
sg64
S'2489'
p870
sg840
S'0.8'
p871
sg56
S'1984-85'
p872
sg843
S'2.8'
p873
sba(isrc.gp1.models.Advanced
Advanced
p874
(dp875
g798
S'5.3'
p876
sg800
S'18.0'
p877
sg802
S'.050'
p878
sg804
S'3.5'
p879
sg806
S'22.1'
p880
sg808
S'6.2'
p881
sg810
S'1.8'
p882
sg22
S'PG'
p883
sg813
S'1.5'
p884
sg815
S'.479'
p885
sg817
S'7.0'
p886
sg819
S'.368'
p887
sg821
S'.013'
p888
sg28
S'NBA'
p889
sg824
S'-0.9'
p890
sg826
S'25.3'
p891
sg828
S'3.0'
p892
sg40
S'24'
p893
sg42
S'NYK'
p894
sg44
S'81'
p895
sg833
S'1.1'
p896
sg835
S'14.0'
p897
sg837
S'-0.9'
p898
sg64
S'2023'
p899
sg840
S'0.9'
p900
sg56
S'1985-86'
p901
sg843
S'2.1'
p902
sba(isrc.gp1.models.Advanced
Advanced
p903
(dp904
g798
S'7.7'
p905
sg800
S'17.2'
p906
sg802
S'.090'
p907
sg804
S'2.7'
p908
sg806
S'20.7'
p909
sg808
S'8.5'
p910
sg810
S'0.3'
p911
sg22
S'PG'
p912
sg813
S'1.4'
p913
sg815
S'.547'
p914
sg817
S'9.4'
p915
sg819
S'.492'
p916
sg821
S'.005'
p917
sg28
S'NBA'
p918
sg824
S'0.4'
p919
sg826
S'18.1'
p920
sg828
S'1.8'
p921
sg40
S'25'
p922
sg42
S'DEN'
p923
sg44
S'81'
p924
sg833
S'1.0'
p925
sg835
S'15.8'
p926
sg837
S'2.0'
p927
sg64
S'2020'
p928
sg840
S'0.7'
p929
sg56
S'1986-87'
p930
sg843
S'3.8'
p931
sba(isrc.gp1.models.Advanced
Advanced
p932
(dp933
g798
S'5.1'
p934
sg800
S'17.0'
p935
sg802
S'.041'
p936
sg804
S'3.2'
p937
sg806
S'17.8'
p938
sg808
S'7.5'
p939
sg810
S'1.5'
p940
sg22
S'SG'
p941
sg813
S'0.3'
p942
sg815
S'.460'
p943
sg817
S'10.1'
p944
sg819
S'.361'
p945
sg821
S'.021'
p946
sg28
S'NBA'
p947
sg824
S'-2.3'
p948
sg826
S'14.7'
p949
sg828
S'1.2'
p950
sg40
S'26'
p951
sg42
S'WSB'
p952
sg44
S'52'
p953
sg833
S'0.6'
p954
sg835
S'10.6'
p955
sg837
S'-0.4'
p956
sg64
S'940'
p957
sg840
S'-0.8'
p958
sg56
S'1987-88'
p959
sg843
S'0.8'
p960
sba(isrc.gp1.models.Advanced
Advanced
p961
(dp962
g798
S'5.5'
p963
sg800
S'19.5'
p964
sg802
S'.070'
p965
sg804
S'2.9'
p966
sg806
S'14.8'
p967
sg808
S'10.8'
p968
sg810
S'2.7'
p969
sg22
S'PG'
p970
sg813
S'2.5'
p971
sg815
S'.469'
p972
sg817
S'16.5'
p973
sg819
S'.270'
p974
sg821
S'.013'
p975
sg28
S'NBA'
p976
sg824
S'-0.9'
p977
sg826
S'25.0'
p978
sg828
S'3.3'
p979
sg40
S'27'
p980
sg42
S'WSB'
p981
sg44
S'79'
p982
sg833
S'0.5'
p983
sg835
S'13.4'
p984
sg837
S'0.5'
p985
sg64
S'2565'
p986
sg840
S'1.9'
p987
sg56
S'1988-89'
p988
sg843
S'3.7'
p989
sba(isrc.gp1.models.Advanced
Advanced
p990
(dp991
g798
S'6.4'
p992
sg800
S'18.1'
p993
sg802
S'.105'
p994
sg804
S'2.3'
p995
sg806
S'13.6'
p996
sg808
S'13.4'
p997
sg810
S'2.6'
p998
sg22
S'PG'
p999
sg813
S'3.5'
p1000
sg815
S'.492'
p1001
sg817
S'20.4'
p1002
sg819
S'.289'
p1003
sg821
S'.030'
p1004
sg28
S'NBA'
p1005
sg824
S'0.2'
p1006
sg826
S'28.4'
p1007
sg828
S'3.6'
p1008
sg40
S'28'
p1009
sg42
S'WSB'
p1010
sg44
S'81'
p1011
sg833
S'0.6'
p1012
sg835
S'15.6'
p1013
sg837
S'2.7'
p1014
sg64
S'2883'
p1015
sg840
S'2.8'
p1016
sg56
S'1989-90'
p1017
sg843
S'6.3'
p1018
sba(isrc.gp1.models.Advanced
Advanced
p1019
(dp1020
g798
S'6.6'
p1021
sg800
S'20.3'
p1022
sg802
S'.061'
p1023
sg804
S'1.7'
p1024
sg806
S'13.7'
p1025
sg808
S'11.8'
p1026
sg810
S'1.9'
p1027
sg22
S'PG'
p1028
sg813
S'1.3'
p1029
sg815
S'.459'
p1030
sg817
S'17.0'
p1031
sg819
S'.288'
p1032
sg821
S'.017'
p1033
sg28
S'NBA'
p1034
sg824
S'-1.6'
p1035
sg826
S'26.4'
p1036
sg828
S'2.6'
p1037
sg40
S'29'
p1038
sg42
S'WSB'
p1039
sg44
S'71'
p1040
sg833
S'0.8'
p1041
sg835
S'12.4'
p1042
sg837
S'0.3'
p1043
sg64
S'2305'
p1044
sg840
S'0.2'
p1045
sg56
S'1990-91'
p1046
sg843
S'2.9'
p1047
sba(isrc.gp1.models.Advanced
Advanced
p1048
(dp1049
g798
S'6.3'
p1050
sg800
S'15.6'
p1051
sg802
S'.075'
p1052
sg804
S'2.1'
p1053
sg806
S'14.4'
p1054
sg808
S'8.7'
p1055
sg810
S'1.9'
p1056
sg22
S'SG'
p1057
sg813
S'0.7'
p1058
sg815
S'.453'
p1059
sg817
S'11.1'
p1060
sg819
S'.276'
p1061
sg821
S'.026'
p1062
sg28
S'NBA'
p1063
sg824
S'-2.1'
p1064
sg826
S'18.9'
p1065
sg828
S'2.1'
p1066
sg40
S'30'
p1067
sg42
S'DET'
p1068
sg44
S'74'
p1069
sg833
S'0.7'
p1070
sg835
S'10.9'
p1071
sg837
S'0.3'
p1072
sg64
S'1541'
p1073
sg840
S'-0.2'
p1074
sg56
S'1991-92'
p1075
sg843
S'2.4'
p1076
sba(isrc.gp1.models.Advanced
Advanced
p1077
(dp1078
g798
S'4.8'
p1079
sg800
S'18.9'
p1080
sg802
S'.019'
p1081
sg804
S'3.3'
p1082
sg806
S'11.2'
p1083
sg808
S'6.5'
p1084
sg810
S'1.7'
p1085
sg22
S'PG-SG'
p1086
sg813
S'-0.1'
p1087
sg815
S'.372'
p1088
sg817
S'8.3'
p1089
sg819
S'.271'
p1090
sg821
S'.010'
p1091
sg28
S'NBA'
p1092
sg824
S'-4.5'
p1093
sg826
S'13.1'
p1094
sg828
S'0.6'
p1095
sg40
S'31'
p1096
sg42
S'TOT'
p1097
sg44
S'37'
p1098
sg833
S'0.3'
p1099
sg835
S'6.4'
p1100
sg837
S'-0.4'
p1101
sg64
S'511'
p1102
sg840
S'-2.8'
p1103
sg56
S'1992-93'
p1104
sg843
S'0.2'
p1105
sba(isrc.gp1.models.Advanced
Advanced
p1106
(dp1107
g798
S'2.9'
p1108
sg800
S'37.5'
p1109
sg802
S'-0.117'
p1110
sg804
S'3.6'
p1111
sg806
S'10.3'
p1112
sg808
S'7.3'
p1113
sg810
S'3.7'
p1114
sg22
S'SG'
p1115
sg813
S'-0.1'
p1116
sg815
S'.185'
p1117
sg817
S'12.1'
p1118
sg819
S'.316'
p1119
sg821
S'.053'
p1120
sg28
S'NBA'
p1121
sg824
S'-9.3'
p1122
sg826
S'7.8'
p1123
sg828
S'0.2'
p1124
sg40
S'31'
p1125
sg42
S'DET'
p1126
sg44
g193
sg833
S'0.0'
p1127
sg835
S'0.1'
p1128
sg837
S'-0.5'
p1129
sg64
S'144'
p1130
sg840
S'-5.6'
p1131
sg56
S'1992-93'
p1132
sg843
S'-0.3'
p1133
sba(isrc.gp1.models.Advanced
Advanced
p1134
(dp1135
g798
S'5.5'
p1136
sg800
S'12.3'
p1137
sg802
S'.073'
p1138
sg804
S'3.3'
p1139
sg806
S'11.5'
p1140
sg808
S'6.1'
p1141
sg810
S'0.9'
p1142
sg22
S'PG'
p1143
sg813
S'0.0'
p1144
sg815
S'.420'
p1145
sg817
S'6.8'
p1146
sg819
S'.260'
p1147
sg821
S'.000'
p1148
sg28
S'NBA'
p1149
sg824
S'-2.6'
p1150
sg826
S'15.1'
p1151
sg828
S'0.5'
p1152
sg40
S'31'
p1153
sg42
S'CHI'
p1154
sg44
S'28'
p1155
sg833
S'0.4'
p1156
sg835
S'8.9'
p1157
sg837
S'0.1'
p1158
sg64
S'367'
p1159
sg840
S'-1.7'
p1160
sg56
S'1992-93'
p1161
sg843
S'0.6'
p1162
sbasS'_per36Minutes'
p1163
(lp1164
(isrc.gp1.models.Per36Minutes
Per36Minutes
p1165
(dp1166
g8
S'2.0'
p1167
sg10
S'0.4'
p1168
sg12
S'.417'
p1169
sg14
S'7.7'
p1170
sg16
S'.267'
p1171
sg18
S'0.1'
p1172
sg20
S'17.5'
p1173
sg22
S'PG'
p1174
sg24
S'.791'
p1175
sg28
S'NBA'
p1176
sg30
S'3.5'
p1177
sg32
S'14.1'
p1178
sg34
S'5.5'
p1179
sg36
S'7.2'
p1180
sg38
S'4.5'
p1181
sg40
S'22'
p1182
sg42
S'NYK'
p1183
sg44
S'82'
p1184
sg46
S'0.4'
p1185
sg48
S'5.8'
p1186
sg50
S'5.7'
p1187
sg52
S'13.7'
p1188
sg54
S'2.5'
p1189
sg56
S'1983-84'
p1190
sg58
S'5.9'
p1191
sg60
S'5.3'
p1192
sg62
S'.421'
p1193
sg64
S'1324'
p1194
sg66
g67
sba(isrc.gp1.models.Per36Minutes
Per36Minutes
p1195
(dp1196
g8
S'1.9'
p1197
sg10
S'0.2'
p1198
sg12
S'.435'
p1199
sg14
S'5.9'
p1200
sg16
S'.000'
p1201
sg18
S'0.0'
p1202
sg20
S'16.0'
p1203
sg22
S'PG'
p1204
sg24
S'.700'
p1205
sg28
S'NBA'
p1206
sg30
S'2.4'
p1207
sg32
S'14.3'
p1208
sg34
S'3.5'
p1209
sg36
S'5.0'
p1210
sg38
S'4.0'
p1211
sg40
S'23'
p1212
sg42
S'NYK'
p1213
sg44
S'82'
p1214
sg46
S'0.3'
p1215
sg48
S'6.2'
p1216
sg50
S'3.5'
p1217
sg52
S'14.1'
p1218
sg54
S'2.2'
p1219
sg56
S'1984-85'
p1220
sg58
S'6.2'
p1221
sg60
S'3.0'
p1222
sg62
S'.442'
p1223
sg64
S'2489'
p1224
sg66
S'66'
p1225
sba(isrc.gp1.models.Per36Minutes
Per36Minutes
p1226
(dp1227
g8
S'1.8'
p1228
sg10
S'0.2'
p1229
sg12
S'.430'
p1230
sg14
S'6.0'
p1231
sg16
S'.000'
p1232
sg18
S'0.0'
p1233
sg20
S'14.9'
p1234
sg22
S'PG'
p1235
sg24
S'.686'
p1236
sg28
S'NBA'
p1237
sg30
S'2.6'
p1238
sg32
S'13.4'
p1239
sg34
S'3.8'
p1240
sg36
S'4.9'
p1241
sg38
S'3.9'
p1242
sg40
S'24'
p1243
sg42
S'NYK'
p1244
sg44
S'81'
p1245
sg46
S'0.6'
p1246
sg48
S'5.8'
p1247
sg50
S'3.4'
p1248
sg52
S'13.2'
p1249
sg54
S'2.1'
p1250
sg56
S'1985-86'
p1251
sg58
S'5.8'
p1252
sg60
S'3.4'
p1253
sg62
S'.436'
p1254
sg64
S'2023'
p1255
sg66
S'35'
p1256
sba(isrc.gp1.models.Per36Minutes
Per36Minutes
p1257
(dp1258
g8
S'2.8'
p1259
sg10
S'0.1'
p1260
sg12
S'.482'
p1261
sg14
S'5.0'
p1262
sg16
S'.000'
p1263
sg18
S'0.0'
p1264
sg20
S'17.6'
p1265
sg22
S'PG'
p1266
sg24
S'.745'
p1267
sg28
S'NBA'
p1268
sg30
S'2.1'
p1269
sg32
S'13.2'
p1270
sg34
S'4.1'
p1271
sg36
S'6.5'
p1272
sg38
S'5.8'
p1273
sg40
S'25'
p1274
sg42
S'DEN'
p1275
sg44
S'81'
p1276
sg46
S'0.7'
p1277
sg48
S'6.4'
p1278
sg50
S'4.8'
p1279
sg52
S'13.2'
p1280
sg54
S'3.0'
p1281
sg56
S'1986-87'
p1282
sg58
S'6.4'
p1283
sg60
S'3.3'
p1284
sg62
S'.485'
p1285
sg64
S'2020'
p1286
sg66
S'25'
p1287
sba(isrc.gp1.models.Per36Minutes
Per36Minutes
p1288
(dp1289
g8
S'1.6'
p1290
sg10
S'0.2'
p1291
sg12
S'.392'
p1292
sg14
S'3.8'
p1293
sg16
S'.000'
p1294
sg18
S'0.0'
p1295
sg20
S'11.9'
p1296
sg22
S'SG'
p1297
sg24
S'.781'
p1298
sg28
S'NBA'
p1299
sg30
S'2.4'
p1300
sg32
S'11.1'
p1301
sg34
S'4.0'
p1302
sg36
S'4.0'
p1303
sg38
S'4.9'
p1304
sg40
S'26'
p1305
sg42
S'WSB'
p1306
sg44
S'52'
p1307
sg46
S'0.4'
p1308
sg48
S'4.4'
p1309
sg50
S'3.1'
p1310
sg52
S'10.9'
p1311
sg54
S'3.2'
p1312
sg56
S'1987-88'
p1313
sg58
S'4.4'
p1314
sg60
S'2.6'
p1315
sg62
S'.400'
p1316
sg64
S'940'
p1317
sg66
g67
sba(isrc.gp1.models.Per36Minutes
Per36Minutes
p1318
(dp1319
g8
S'1.9'
p1320
sg10
S'0.1'
p1321
sg12
S'.420'
p1322
sg14
S'7.0'
p1323
sg16
S'.000'
p1324
sg18
S'0.0'
p1325
sg20
S'10.0'
p1326
sg22
S'PG'
p1327
sg24
S'.772'
p1328
sg28
S'NBA'
p1329
sg30
S'2.2'
p1330
sg32
S'9.6'
p1331
sg34
S'3.0'
p1332
sg36
S'2.6'
p1333
sg38
S'7.1'
p1334
sg40
S'27'
p1335
sg42
S'WSB'
p1336
sg44
S'79'
p1337
sg46
S'0.3'
p1338
sg48
S'4.0'
p1339
sg50
S'2.0'
p1340
sg52
S'9.4'
p1341
sg54
S'5.2'
p1342
sg56
S'1988-89'
p1343
sg58
S'4.0'
p1344
sg60
S'2.6'
p1345
sg62
S'.426'
p1346
sg64
S'2565'
p1347
sg66
S'78'
p1348
sba(isrc.gp1.models.Per36Minutes
Per36Minutes
p1349
(dp1350
g8
S'2.2'
p1351
sg10
S'0.3'
p1352
sg12
S'.454'
p1353
sg14
S'8.1'
p1354
sg16
S'.095'
p1355
sg18
S'0.0'
p1356
sg20
S'9.6'
p1357
sg22
S'PG'
p1358
sg24
S'.687'
p1359
sg28
S'NBA'
p1360
sg30
S'1.7'
p1361
sg32
S'8.7'
p1362
sg34
S'2.7'
p1363
sg36
S'2.5'
p1364
sg38
S'8.9'
p1365
sg40
S'28'
p1366
sg42
S'WSB'
p1367
sg44
S'81'
p1368
sg46
S'0.4'
p1369
sg48
S'3.9'
p1370
sg50
S'1.7'
p1371
sg52
S'8.4'
p1372
sg54
S'6.8'
p1373
sg56
S'1989-90'
p1374
sg58
S'3.9'
p1375
sg60
S'2.2'
p1376
sg62
S'.465'
p1377
sg64
S'2883'
p1378
sg66
S'81'
p1379
sba(isrc.gp1.models.Per36Minutes
Per36Minutes
p1380
(dp1381
g8
S'2.2'
p1382
sg10
S'0.1'
p1383
sg12
S'.430'
p1384
sg14
S'7.2'
p1385
sg16
S'.000'
p1386
sg18
S'0.0'
p1387
sg20
S'8.6'
p1388
sg22
S'PG'
p1389
sg24
S'.604'
p1390
sg28
S'NBA'
p1391
sg30
S'1.2'
p1392
sg32
S'8.4'
p1393
sg34
S'3.1'
p1394
sg36
S'2.4'
p1395
sg38
S'7.8'
p1396
sg40
S'29'
p1397
sg42
S'WSB'
p1398
sg44
S'71'
p1399
sg46
S'0.5'
p1400
sg48
S'3.6'
p1401
sg50
S'1.5'
p1402
sg52
S'8.2'
p1403
sg54
S'5.6'
p1404
sg56
S'1990-91'
p1405
sg58
S'3.6'
p1406
sg60
S'2.4'
p1407
sg62
S'.437'
p1408
sg64
S'2305'
p1409
sg66
S'65'
p1410
sba(isrc.gp1.models.Per36Minutes
Per36Minutes
p1411
(dp1412
g8
S'2.0'
p1413
sg10
S'0.2'
p1414
sg12
S'.423'
p1415
sg14
S'4.8'
p1416
sg16
S'.000'
p1417
sg18
S'0.0'
p1418
sg20
S'9.0'
p1419
sg22
S'SG'
p1420
sg24
S'.619'
p1421
sg28
S'NBA'
p1422
sg30
S'1.5'
p1423
sg32
S'8.9'
p1424
sg34
S'3.1'
p1425
sg36
S'2.5'
p1426
sg38
S'5.6'
p1427
sg40
S'30'
p1428
sg42
S'DET'
p1429
sg44
S'74'
p1430
sg46
S'0.4'
p1431
sg48
S'3.8'
p1432
sg50
S'1.5'
p1433
sg52
S'8.7'
p1434
sg54
S'3.6'
p1435
sg56
S'1991-92'
p1436
sg58
S'3.8'
p1437
sg60
S'1.8'
p1438
sg62
S'.434'
p1439
sg64
S'1541'
p1440
sg66
g19
sba(isrc.gp1.models.Per36Minutes
Per36Minutes
p1441
(dp1442
g8
S'1.5'
p1443
sg10
S'0.1'
p1444
sg12
S'.354'
p1445
sg14
S'3.7'
p1446
sg16
S'.000'
p1447
sg18
S'0.0'
p1448
sg20
S'5.6'
p1449
sg22
S'PG-SG'
p1450
sg24
S'.462'
p1451
sg28
S'NBA'
p1452
sg30
S'2.3'
p1453
sg32
S'6.8'
p1454
sg34
S'4.4'
p1455
sg36
S'1.8'
p1456
sg38
S'4.1'
p1457
sg40
S'31'
p1458
sg42
S'TOT'
p1459
sg44
S'37'
p1460
sg46
S'0.1'
p1461
sg48
S'2.4'
p1462
sg50
S'0.8'
p1463
sg52
S'6.7'
p1464
sg54
S'2.5'
p1465
sg56
S'1992-93'
p1466
sg58
S'2.4'
p1467
sg60
S'1.8'
p1468
sg62
S'.358'
p1469
sg64
S'511'
p1470
sg66
g228
sba(isrc.gp1.models.Per36Minutes
Per36Minutes
p1471
(dp1472
g8
S'1.0'
p1473
sg10
S'0.2'
p1474
sg12
S'.158'
p1475
sg14
S'2.3'
p1476
sg16
S'.000'
p1477
sg18
S'0.0'
p1478
sg20
S'2.0'
p1479
sg22
S'SG'
p1480
sg24
S'.333'
p1481
sg28
S'NBA'
p1482
sg30
S'2.5'
p1483
sg32
S'4.7'
p1484
sg34
S'3.0'
p1485
sg36
S'1.5'
p1486
sg38
S'4.7'
p1487
sg40
S'31'
p1488
sg42
S'DET'
p1489
sg44
g193
sg46
S'0.0'
p1490
sg48
S'0.7'
p1491
sg50
S'0.5'
p1492
sg52
S'4.5'
p1493
sg54
S'3.7'
p1494
sg56
S'1992-93'
p1495
sg58
S'0.7'
p1496
sg60
S'3.2'
p1497
sg62
S'.167'
p1498
sg64
S'144'
p1499
sg66
g228
sba(isrc.gp1.models.Per36Minutes
Per36Minutes
p1500
(dp1501
g8
S'2.1'
p1502
sg10
S'0.0'
p1503
sg12
S'.403'
p1504
sg14
S'2.3'
p1505
sg16
S'3.0'
p1506
sg18
S'0.0'
p1507
sg20
g3
sg22
S'PG'
p1508
sg24
S'1.8'
p1509
sg28
S'NBA'
p1510
sg30
S'0.2'
p1511
sg32
S'7.6'
p1512
sg34
S'7.1'
p1513
sg36
S'.500'
p1514
sg38
S'4.3'
p1515
sg40
S'31'
p1516
sg42
S'CHI'
p1517
sg44
S'28'
p1518
sg46
S'1.2'
p1519
sg48
S'7.6'
p1520
sg50
S'2.0'
p1521
sg52
S'.403'
p1522
sg54
S'3.8'
p1523
sg56
S'1992-93'
p1524
sg58
S'3.0'
p1525
sg60
S'5.0'
p1526
sg62
S'1.0'
p1527
sg64
S'367'
p1528
sg66
g67
sbasS'_fromYear'
p1529
S'1984'
p1530
sS'_url'
p1531
S'http://www.basketball-reference.com/players/w/walkeda01.html'
p1532
sS'_perGame'
p1533
(isrc.gp1.models.PerGame
PerGame
p1534
(dp1535
g8
S'0.8'
p1536
sg10
S'0.0'
p1537
sg12
S'.403'
p1538
sS'_effectiveFieldGalPercentage'
p1539
S'0.4'
p1540
sg14
S'0.8'
p1541
sg16
S'1.1'
p1542
sg18
S'0.0'
p1543
sg20
g3
sg22
S'PG'
p1544
sg24
S'0.6'
p1545
sg28
S'NBA'
p1546
sg30
S'0.1'
p1547
sg34
S'2.6'
p1548
sS'_fieldGoalsttempted'
p1549
S'2.8'
p1550
sg36
S'.500'
p1551
sg38
S'1.6'
p1552
sg40
S'31'
p1553
sg42
S'CHI'
p1554
sg44
S'28'
p1555
sg46
S'0.4'
p1556
sg48
S'2.8'
p1557
sg50
S'0.7'
p1558
sg52
S'.403'
p1559
sg54
S'1.4'
p1560
sg56
S'1992-93'
p1561
sg58
S'1.1'
p1562
sg60
S'1.8'
p1563
sg62
S'.403'
p1564
sg64
S'13.1'
p1565
sg66
g67
sbsS'_weight'
p1566
S'180'
p1567
sS'_dob'
p1568
S'9-3-1961'
p1569
sS'_salary'
p1570
(lp1571
(isrc.gp1.models.Salary
Salary
p1572
(dp1573
g42
S'New York Knicks'
p1574
sg28
S'NBA'
p1575
sg1570
S'$265,000'
p1576
sg56
S'1985-86'
p1577
sba(isrc.gp1.models.Salary
Salary
p1578
(dp1579
g42
S'Washington Bullets'
p1580
sg28
S'NBA'
p1581
sg1570
S'$400,000'
p1582
sg56
S'1987-88'
p1583
sba(isrc.gp1.models.Salary
Salary
p1584
(dp1585
g42
S'Washington Bullets'
p1586
sg28
S'NBA'
p1587
sg1570
S'$450,000'
p1588
sg56
S'1988-89'
p1589
sba(isrc.gp1.models.Salary
Salary
p1590
(dp1591
g42
S'Washington Bullets'
p1592
sg28
S'NBA'
p1593
sg1570
S'$610,000'
p1594
sg56
S'1990-91'
p1595
sba(isrc.gp1.models.Salary
Salary
p1596
(dp1597
g42
S'Detroit Pistons'
p1598
sg28
S'NBA'
p1599
sg1570
S'$665,000'
p1600
sg56
S'1991-92'
p1601
sba(isrc.gp1.models.Salary
Salary
p1602
(dp1603
g42
S'Detroit Pistons'
p1604
sg28
S'NBA'
p1605
sg1570
S'$735,000'
p1606
sg56
S'1992-93'
p1607
sbasg22
S'G'
p1608
sb.