(isrc.gp1.models.Player
Player
p0
(dp1
S'_experience'
p2
S'NA'
p3
sS'_totals'
p4
(lp5
(isrc.gp1.models.Totals
Totals
p6
(dp7
S'_offensiveRebounds'
p8
g3
sS'_threePointsAttempted'
p9
g3
sS'_fieldGoalsPercentage'
p10
S'.200'
p11
sS'_assist'
p12
S'6'
p13
sS'_threePointsPercentage'
p14
g3
sS'_threePoints'
p15
g3
sS'_points'
p16
S'12'
p17
sS'_position'
p18
g3
sS'_freeThrowsPercentage'
p19
S'.857'
p20
sS'_effectiveFieldGoalPercentage'
p21
S'.200'
p22
sS'_league'
p23
S'NBA'
p24
sS'_steals'
p25
g3
sS'_fieldGoalsAttempted'
p26
S'15'
p27
sS'_personalFouls'
p28
S'9'
p29
sS'_freeThrowsAttempted'
p30
S'7'
p31
sS'_totalRebounds'
p32
g31
sS'_age'
p33
S'24'
p34
sS'_team'
p35
S'STL'
p36
sS'_games'
p37
S'5'
p38
sS'_blocks'
p39
g3
sS'_twoPoints'
p40
S'3'
p41
sS'_freeThrows'
p42
g13
sS'_twoPointsAttempted'
p43
S'15'
p44
sS'_defensiveRebounds'
p45
g3
sS'_season'
p46
S'1961-62'
p47
sS'_fieldGoals'
p48
g41
sS'_turnOvers'
p49
g3
sS'_twoPointsPercentage'
p50
S'.200'
p51
sS'_minutesPlayed'
p52
S'34'
p53
sS'_gamesStarted'
p54
g3
sbasS'_college'
p55
S'Bowling Green State University'
p56
sS'_toYear'
p57
S'1962'
p58
sS'_height'
p59
S'5-10'
p60
sS'_active'
p61
I00
sS'_shootingHand'
p62
VRight
p63
sS'_name'
p64
S'Jimmy Darrow'
p65
sS'_per100Possessions'
p66
(lp67
sS'_advanced'
p68
(lp69
(isrc.gp1.models.Advanced
Advanced
p70
(dp71
S'_offensiveReboundPercentage'
p72
g3
sS'_turnOverPercentage'
p73
g3
sS'_winSharesPer48Minutes'
p74
S'-0.112'
p75
sS'_stealPercentage'
p76
g3
sS'_usagePercentage'
p77
g3
sS'_totalReboundsPercentage'
p78
g3
sS'_defensiveBoxPlusMinus'
p79
g3
sg18
g3
sS'_valueOverReplacementPlayer'
p80
g3
sS'_trueShootingPercentage'
p81
S'.332'
p82
sS'_defensiveReboundPercentage'
p83
g3
sS'_freeThrowsAttempRate'
p84
S'.467'
p85
sS'_threePointsAttempRate'
p86
g3
sg23
S'NBA'
p87
sS'_offensiveBoxPlusMinues'
p88
g3
sS'_assistPercentage'
p89
g3
sS'_defensiveWinShares'
p90
S'0.0'
p91
sg33
S'24'
p92
sg35
S'STL'
p93
sg37
g38
sS'_blockPercentage'
p94
g3
sS'_playerEfficiencyRating'
p95
S'5.9'
p96
sS'_offensiveWinShares'
p97
S'-0.1'
p98
sg52
S'34'
p99
sS'_boxPlusMinus'
p100
g3
sg46
S'1961-62'
p101
sS'_winShares'
p102
S'-0.1'
p103
sbasS'_per36Minutes'
p104
(lp105
(isrc.gp1.models.Per36Minutes
Per36Minutes
p106
(dp107
g8
g3
sg9
g3
sg10
S'.200'
p108
sg12
S'6.4'
p109
sg14
g3
sg15
g3
sg16
S'12.7'
p110
sg18
g3
sg19
S'.857'
p111
sg23
S'NBA'
p112
sg25
g3
sg26
S'15.9'
p113
sg28
S'9.5'
p114
sg30
S'7.4'
p115
sg32
S'7.4'
p116
sg33
S'24'
p117
sg35
S'STL'
p118
sg37
g38
sg39
g3
sg40
S'3.2'
p119
sg42
S'6.4'
p120
sg43
S'15.9'
p121
sg45
g3
sg46
S'1961-62'
p122
sg48
S'3.2'
p123
sg49
g3
sg50
S'.200'
p124
sg52
S'34'
p125
sg54
g3
sbasS'_fromYear'
p126
S'1962'
p127
sS'_url'
p128
S'http://www.basketball-reference.com/players/d/darroji01.html'
p129
sS'_perGame'
p130
(isrc.gp1.models.PerGame
PerGame
p131
(dp132
g8
g3
sg9
g3
sg10
S'.200'
p133
sS'_effectiveFieldGalPercentage'
p134
S'.200'
p135
sg12
S'1.2'
p136
sg14
g3
sg15
g3
sg16
S'2.4'
p137
sg18
g3
sg19
S'.857'
p138
sg23
S'NBA'
p139
sg25
g3
sg28
S'1.8'
p140
sS'_fieldGoalsttempted'
p141
S'3.0'
p142
sg30
S'1.4'
p143
sg32
S'1.4'
p144
sg33
S'24'
p145
sg35
S'STL'
p146
sg37
g38
sg39
g3
sg40
S'0.6'
p147
sg42
S'1.2'
p148
sg43
S'3.0'
p149
sg45
g3
sg46
S'1961-62'
p150
sg48
S'0.6'
p151
sg49
g3
sg50
S'.200'
p152
sg52
S'6.8'
p153
sg54
g3
sbsS'_weight'
p154
S'170'
p155
sS'_dob'
p156
S'25-9-1937'
p157
sS'_salary'
p158
(lp159
sg18
S'G'
p160
sb.