(isrc.gp1.models.Player
Player
p0
(dp1
S'_experience'
p2
S'NA'
p3
sS'_totals'
p4
(lp5
(isrc.gp1.models.Totals
Totals
p6
(dp7
S'_offensiveRebounds'
p8
S'27'
p9
sS'_threePointsAttempted'
p10
S'0'
p11
sS'_fieldGoalsPercentage'
p12
S'.532'
p13
sS'_assist'
p14
S'9'
p15
sS'_threePointsPercentage'
p16
S'33'
p17
sS'_threePoints'
p18
g11
sS'_points'
p19
g3
sS'_position'
p20
S'SF'
p21
sS'_freeThrowsPercentage'
p22
S'29'
p23
sS'_effectiveFieldGoalPercentage'
p24
S'17'
p25
sS'_league'
p26
S'NBA'
p27
sS'_steals'
p28
S'8'
p29
sS'_fieldGoalsAttempted'
p30
S'62'
p31
sS'_personalFouls'
p32
S'83'
p33
sS'_freeThrowsAttempted'
p34
S'.486'
p35
sS'_totalRebounds'
p36
S'14'
p37
sS'_age'
p38
S'23'
p39
sS'_team'
p40
S'TOT'
p41
sS'_games'
p42
S'36'
p43
sS'_blocks'
p44
S'22'
p45
sS'_twoPoints'
p46
S'62'
p47
sS'_freeThrows'
p48
S'35'
p49
sS'_twoPointsAttempted'
p50
S'.532'
p51
sS'_defensiveRebounds'
p52
S'56'
p53
sS'_season'
p54
S'1996-97'
p55
sS'_fieldGoals'
p56
S'33'
p57
sS'_turnOvers'
p58
S'57'
p59
sS'_twoPointsPercentage'
p60
S'.532'
p61
sS'_minutesPlayed'
p62
S'318'
p63
sS'_gamesStarted'
p64
S'3'
p65
sba(isrc.gp1.models.Totals
Totals
p66
(dp67
g8
S'27'
p68
sg10
g11
sg12
S'.525'
p69
sg14
g29
sg16
S'32'
p70
sg18
g11
sg19
g3
sg20
S'SF'
p71
sg22
S'29'
p72
sg24
S'16'
p73
sg26
S'NBA'
p74
sg28
g29
sg30
S'61'
p75
sg32
S'80'
p76
sg34
S'.485'
p77
sg36
S'14'
p78
sg38
S'23'
p79
sg40
S'DEN'
p80
sg42
S'35'
p81
sg44
S'21'
p82
sg46
S'61'
p83
sg48
S'33'
p84
sg50
S'.525'
p85
sg52
S'56'
p86
sg54
S'1996-97'
p87
sg56
S'32'
p88
sg58
S'57'
p89
sg60
S'.525'
p90
sg62
S'313'
p91
sg64
g65
sba(isrc.gp1.models.Totals
Totals
p92
(dp93
g8
g11
sg10
g11
sg12
S'1.000'
p94
sg14
S'1'
p95
sg16
g95
sg18
g11
sg19
g3
sg20
S'SF'
p96
sg22
g11
sg24
g95
sg26
S'NBA'
p97
sg28
g11
sg30
g95
sg32
g65
sg34
S'.500'
p98
sg36
g11
sg38
S'23'
p99
sg40
S'IND'
p100
sg42
g95
sg44
g95
sg46
g95
sg48
S'2'
p101
sg50
S'1.000'
p102
sg52
g11
sg54
S'1996-97'
p103
sg56
g95
sg58
g11
sg60
S'1.000'
p104
sg62
S'5'
p105
sg64
g11
sba(isrc.gp1.models.Totals
Totals
p106
(dp107
g8
S'59'
p108
sg10
g11
sg12
S'.529'
p109
sg14
S'21'
p110
sg16
S'55'
p111
sg18
g11
sg19
g3
sg20
S'SF'
p112
sg22
S'72'
p113
sg24
S'35'
p114
sg26
S'NBA'
p115
sg28
S'25'
p116
sg30
S'104'
p117
sg32
S'145'
p118
sg34
S'.473'
p119
sg36
S'16'
p120
sg38
S'24'
p121
sg40
S'WAS'
p122
sg42
S'71'
p123
sg44
S'37'
p124
sg46
S'104'
p125
sg48
S'74'
p126
sg50
S'.529'
p127
sg52
S'131'
p128
sg54
S'1997-98'
p129
sg56
S'55'
p130
sg58
S'118'
p131
sg60
S'.529'
p132
sg62
S'635'
p133
sg64
g65
sba(isrc.gp1.models.Totals
Totals
p134
(dp135
g8
g3
sg10
g3
sg12
g3
sg14
g3
sg16
g3
sg18
g3
sg19
g3
sg20
g3
sg22
g3
sg24
g3
sg26
g3
sg28
g3
sg30
g3
sg32
g3
sg34
g3
sg36
g3
sg38
S'25'
p136
sg40
S'Did Not Play\xc2\xa0(other pro league\xe2\x80\x94Spain)'
p137
sg42
g3
sg44
g3
sg46
g3
sg48
g3
sg50
g3
sg52
g3
sg54
S'1998-99'
p138
sg56
g3
sg58
g3
sg60
g3
sg62
g3
sg64
g3
sba(isrc.gp1.models.Totals
Totals
p139
(dp140
g8
S'85'
p141
sg10
g95
sg12
S'.555'
p142
sg14
S'42'
p143
sg16
S'.000'
p144
sg18
g11
sg19
S'177'
p145
sg20
S'SF'
p146
sg22
S'.449'
p147
sg24
S'.555'
p148
sg26
S'NBA'
p149
sg28
S'29'
p150
sg30
S'128'
p151
sg32
S'102'
p152
sg34
S'78'
p153
sg36
S'172'
p154
sg38
S'26'
p155
sg40
S'MIL'
p156
sg42
S'35'
p157
sg44
S'29'
p158
sg46
S'71'
p159
sg48
S'35'
p160
sg50
S'127'
p161
sg52
S'87'
p162
sg54
S'1999-00'
p163
sg56
S'71'
p164
sg58
S'29'
p165
sg60
S'.559'
p166
sg62
S'792'
p167
sg64
S'21'
p168
sba(isrc.gp1.models.Totals
Totals
p169
(dp170
g8
S'56'
p171
sg10
g65
sg12
S'.488'
p172
sg14
S'25'
p173
sg16
S'.667'
p174
sg18
g101
sg19
S'109'
p175
sg20
S'SF'
p176
sg22
S'.592'
p177
sg24
S'.500'
p178
sg26
S'NBA'
p179
sg28
S'17'
p180
sg30
S'80'
p181
sg32
S'85'
p182
sg34
S'49'
p183
sg36
S'121'
p184
sg38
S'27'
p185
sg40
S'MIL'
p186
sg42
S'29'
p187
sg44
S'21'
p188
sg46
S'37'
p189
sg48
S'29'
p190
sg50
S'77'
p191
sg52
S'65'
p192
sg54
S'2000-01'
p193
sg56
S'39'
p194
sg58
S'33'
p195
sg60
S'.481'
p196
sg62
S'540'
p197
sg64
S'13'
p198
sba(isrc.gp1.models.Totals
Totals
p199
(dp200
g8
S'91'
p201
sg10
S'7'
p202
sg12
S'.569'
p203
sg14
S'73'
p204
sg16
S'.143'
p205
sg18
g95
sg19
S'303'
p206
sg20
S'SF'
p207
sg22
S'.504'
p208
sg24
S'.571'
p209
sg26
S'NBA'
p210
sg28
S'25'
p211
sg30
S'211'
p212
sg32
S'175'
p213
sg34
S'123'
p214
sg36
S'202'
p215
sg38
S'28'
p216
sg40
S'MIL'
p217
sg42
S'70'
p218
sg44
S'37'
p219
sg46
S'119'
p220
sg48
S'62'
p221
sg50
S'204'
p222
sg52
S'111'
p223
sg54
S'2001-02'
p224
sg56
S'120'
p225
sg58
S'83'
p226
sg60
S'.583'
p227
sg62
S'1208'
p228
sg64
g101
sba(isrc.gp1.models.Totals
Totals
p229
(dp230
g8
S'73'
p231
sg10
g65
sg12
S'.447'
p232
sg14
S'38'
p233
sg16
S'.000'
p234
sg18
g11
sg19
S'180'
p235
sg20
S'SG'
p236
sg22
S'.481'
p237
sg24
S'.447'
p238
sg26
S'NBA'
p239
sg28
S'16'
p240
sg30
S'159'
p241
sg32
S'127'
p242
sg34
S'79'
p243
sg36
S'153'
p244
sg38
S'29'
p245
sg40
S'ATL'
p246
sg42
S'75'
p247
sg44
S'19'
p248
sg46
S'71'
p249
sg48
S'38'
p250
sg50
S'156'
p251
sg52
S'80'
p252
sg54
S'2002-03'
p253
sg56
S'71'
p254
sg58
S'65'
p255
sg60
S'.455'
p256
sg62
S'926'
p257
sg64
g95
sba(isrc.gp1.models.Totals
Totals
p258
(dp259
g8
S'47'
p260
sg10
g101
sg12
S'.493'
p261
sg14
S'16'
p262
sg16
S'.500'
p263
sg18
g95
sg19
S'96'
p264
sg20
S'SF'
p265
sg22
S'.600'
p266
sg24
S'.500'
p267
sg26
S'NBA'
p268
sg28
S'13'
p269
sg30
S'75'
p270
sg32
S'63'
p271
sg34
S'35'
p272
sg36
S'93'
p273
sg38
S'30'
p274
sg40
S'DET'
p275
sg42
S'54'
p276
sg44
g29
sg46
S'36'
p277
sg48
S'21'
p278
sg50
S'73'
p279
sg52
S'46'
p280
sg54
S'2003-04'
p281
sg56
S'37'
p282
sg58
S'31'
p283
sg60
S'.493'
p284
sg62
S'484'
p285
sg64
g101
sba(isrc.gp1.models.Totals
Totals
p286
(dp287
g8
S'16'
p288
sg10
g11
sg12
S'.459'
p289
sg14
S'6'
p290
sg16
S'17'
p291
sg18
g11
sg19
g3
sg20
S'SF'
p292
sg22
S'19'
p293
sg24
S'12'
p294
sg26
S'NBA'
p295
sg28
g202
sg30
S'37'
p296
sg32
S'46'
p297
sg34
S'.387'
p298
sg36
g105
sg38
S'31'
p299
sg40
S'DET'
p300
sg42
S'47'
p301
sg44
g29
sg46
S'37'
p302
sg48
S'31'
p303
sg50
S'.459'
p304
sg52
S'35'
p305
sg54
S'2004-05'
p306
sg56
S'17'
p307
sg58
S'39'
p308
sg60
S'.459'
p309
sg62
S'275'
p310
sg64
g11
sbasS'_college'
p311
S'Texas Tech University'
p312
sS'_toYear'
p313
S'2005'
p314
sS'_height'
p315
S'6-7'
p316
sS'_active'
p317
I00
sS'_shootingHand'
p318
VRight
p319
sS'_name'
p320
S'Darvin Ham'
p321
sS'_per100Possessions'
p322
(lp323
(isrc.gp1.models.Per100Possession
Per100Possession
p324
(dp325
g8
S'4.4'
p326
sg10
S'0.0'
p327
sg12
S'.532'
p328
sS'_offensiveRating'
p329
S'112'
p330
sg14
S'1.5'
p331
sg16
S'5.4'
p332
sg18
S'0.0'
p333
sg19
S'98'
p334
sg20
S'SF'
p335
sS'_defensiveRating'
p336
g3
sg22
S'4.7'
p337
sg26
S'NBA'
p338
sg28
S'1.3'
p339
sg30
S'10.1'
p340
sg32
S'13.6'
p341
sg34
S'.486'
p342
sg36
S'2.3'
p343
sg38
S'23'
p344
sg40
S'TOT'
p345
sg42
S'36'
p346
sg44
S'3.6'
p347
sg46
S'10.1'
p348
sg48
S'5.7'
p349
sg50
S'.532'
p350
sg52
S'9.2'
p351
sg54
S'1996-97'
p352
sg56
S'5.4'
p353
sg58
S'9.3'
p354
sg60
S'2.8'
p355
sg62
S'318'
p356
sg64
g65
sba(isrc.gp1.models.Per100Possession
Per100Possession
p357
(dp358
g8
S'4.5'
p359
sg10
S'0.0'
p360
sg12
S'.525'
p361
sg329
S'112'
p362
sg14
S'1.3'
p363
sg16
S'5.3'
p364
sg18
S'0.0'
p365
sg19
S'98'
p366
sg20
S'SF'
p367
sg336
g3
sg22
S'4.8'
p368
sg26
S'NBA'
p369
sg28
S'1.3'
p370
sg30
S'10.1'
p371
sg32
S'13.3'
p372
sg34
S'.485'
p373
sg36
S'2.3'
p374
sg38
S'23'
p375
sg40
S'DEN'
p376
sg42
S'35'
p377
sg44
S'3.5'
p378
sg46
S'10.1'
p379
sg48
S'5.5'
p380
sg50
S'.525'
p381
sg52
S'9.3'
p382
sg54
S'1996-97'
p383
sg56
S'5.3'
p384
sg58
S'9.5'
p385
sg60
S'2.7'
p386
sg62
S'313'
p387
sg64
g65
sba(isrc.gp1.models.Per100Possession
Per100Possession
p388
(dp389
g8
S'0.0'
p390
sg10
S'0.0'
p391
sg12
S'1.000'
p392
sg329
S'91'
p393
sg14
S'10.8'
p394
sg16
S'10.8'
p395
sg18
S'0.0'
p396
sg19
S'87'
p397
sg20
S'SF'
p398
sg336
g3
sg22
S'0.0'
p399
sg26
S'NBA'
p400
sg28
S'0.0'
p401
sg30
S'10.8'
p402
sg32
S'32.4'
p403
sg34
S'.500'
p404
sg36
S'0.0'
p405
sg38
S'23'
p406
sg40
S'IND'
p407
sg42
g95
sg44
S'10.8'
p408
sg46
S'10.8'
p409
sg48
S'21.6'
p410
sg50
S'1.000'
p411
sg52
S'0.0'
p412
sg54
S'1996-97'
p413
sg56
S'10.8'
p414
sg58
S'0.0'
p415
sg60
S'10.8'
p416
sg62
g105
sg64
g11
sba(isrc.gp1.models.Per100Possession
Per100Possession
p417
(dp418
g8
S'4.9'
p419
sg10
S'0.0'
p420
sg12
S'.529'
p421
sg329
S'105'
p422
sg14
S'1.7'
p423
sg16
S'4.5'
p424
sg18
S'0.0'
p425
sg19
S'101'
p426
sg20
S'SF'
p427
sg336
g3
sg22
S'5.9'
p428
sg26
S'NBA'
p429
sg28
S'2.1'
p430
sg30
S'8.6'
p431
sg32
S'11.9'
p432
sg34
S'.473'
p433
sg36
S'1.3'
p434
sg38
S'24'
p435
sg40
S'WAS'
p436
sg42
S'71'
p437
sg44
S'3.0'
p438
sg46
S'8.6'
p439
sg48
S'6.1'
p440
sg50
S'.529'
p441
sg52
S'10.8'
p442
sg54
S'1997-98'
p443
sg56
S'4.5'
p444
sg58
S'9.7'
p445
sg60
S'2.9'
p446
sg62
S'635'
p447
sg64
g65
sba(isrc.gp1.models.Per100Possession
Per100Possession
p448
(dp449
g8
S'5.6'
p450
sg10
S'0.1'
p451
sg12
S'.555'
p452
sg329
S'115'
p453
sg14
S'2.7'
p454
sg16
S'.000'
p455
sg18
S'0.0'
p456
sg19
S'11.6'
p457
sg20
S'SF'
p458
sg336
S'107'
p459
sg22
S'.449'
p460
sg26
S'NBA'
p461
sg28
S'1.9'
p462
sg30
S'8.4'
p463
sg32
S'6.7'
p464
sg34
S'5.1'
p465
sg36
S'11.2'
p466
sg38
S'26'
p467
sg40
S'MIL'
p468
sg42
S'35'
p469
sg44
S'1.9'
p470
sg46
S'4.6'
p471
sg48
S'2.3'
p472
sg50
S'8.3'
p473
sg52
S'5.7'
p474
sg54
S'1999-00'
p475
sg56
S'4.6'
p476
sg58
S'1.9'
p477
sg60
S'.559'
p478
sg62
S'792'
p479
sg64
S'21'
p480
sba(isrc.gp1.models.Per100Possession
Per100Possession
p481
(dp482
g8
S'5.4'
p483
sg10
S'0.3'
p484
sg12
S'.488'
p485
sg329
S'104'
p486
sg14
S'2.4'
p487
sg16
S'.667'
p488
sg18
S'0.2'
p489
sg19
S'10.5'
p490
sg20
S'SF'
p491
sg336
S'104'
p492
sg22
S'.592'
p493
sg26
S'NBA'
p494
sg28
S'1.6'
p495
sg30
S'7.7'
p496
sg32
S'8.2'
p497
sg34
S'4.7'
p498
sg36
S'11.7'
p499
sg38
S'27'
p500
sg40
S'MIL'
p501
sg42
S'29'
p502
sg44
S'2.0'
p503
sg46
S'3.6'
p504
sg48
S'2.8'
p505
sg50
S'7.4'
p506
sg52
S'6.3'
p507
sg54
S'2000-01'
p508
sg56
S'3.8'
p509
sg58
S'3.2'
p510
sg60
S'.481'
p511
sg62
S'540'
p512
sg64
S'13'
p513
sba(isrc.gp1.models.Per100Possession
Per100Possession
p514
(dp515
g8
S'4.0'
p516
sg10
S'0.3'
p517
sg12
S'.569'
p518
sg329
S'102'
p519
sg14
S'3.2'
p520
sg16
S'.143'
p521
sg18
S'0.0'
p522
sg19
S'13.3'
p523
sg20
S'SF'
p524
sg336
S'109'
p525
sg22
S'.504'
p526
sg26
S'NBA'
p527
sg28
S'1.1'
p528
sg30
S'9.3'
p529
sg32
S'7.7'
p530
sg34
S'5.4'
p531
sg36
S'8.9'
p532
sg38
S'28'
p533
sg40
S'MIL'
p534
sg42
S'70'
p535
sg44
S'1.6'
p536
sg46
S'5.2'
p537
sg48
S'2.7'
p538
sg50
S'9.0'
p539
sg52
S'4.9'
p540
sg54
S'2001-02'
p541
sg56
S'5.3'
p542
sg58
S'3.7'
p543
sg60
S'.583'
p544
sg62
S'1208'
p545
sg64
g101
sba(isrc.gp1.models.Per100Possession
Per100Possession
p546
(dp547
g8
S'4.2'
p548
sg10
S'0.2'
p549
sg12
S'.447'
p550
sg329
S'87'
p551
sg14
S'2.2'
p552
sg16
S'.000'
p553
sg18
S'0.0'
p554
sg19
S'10.3'
p555
sg20
S'SG'
p556
sg336
S'109'
p557
sg22
S'.481'
p558
sg26
S'NBA'
p559
sg28
S'0.9'
p560
sg30
S'9.1'
p561
sg32
S'7.2'
p562
sg34
S'4.5'
p563
sg36
S'8.7'
p564
sg38
S'29'
p565
sg40
S'ATL'
p566
sg42
S'75'
p567
sg44
S'1.1'
p568
sg46
S'4.0'
p569
sg48
S'2.2'
p570
sg50
S'8.9'
p571
sg52
S'4.6'
p572
sg54
S'2002-03'
p573
sg56
S'4.0'
p574
sg58
S'3.7'
p575
sg60
S'.455'
p576
sg62
S'926'
p577
sg64
g95
sba(isrc.gp1.models.Per100Possession
Per100Possession
p578
(dp579
g8
S'5.3'
p580
sg10
S'0.2'
p581
sg12
S'.493'
p582
sg329
S'97'
p583
sg14
S'1.8'
p584
sg16
S'.500'
p585
sg18
S'0.1'
p586
sg19
S'10.8'
p587
sg20
S'SF'
p588
sg336
S'98'
p589
sg22
S'.600'
p590
sg26
S'NBA'
p591
sg28
S'1.5'
p592
sg30
S'8.5'
p593
sg32
S'7.1'
p594
sg34
S'4.0'
p595
sg36
S'10.5'
p596
sg38
S'30'
p597
sg40
S'DET'
p598
sg42
S'54'
p599
sg44
S'0.9'
p600
sg46
S'4.1'
p601
sg48
S'2.4'
p602
sg50
S'8.2'
p603
sg52
S'5.2'
p604
sg54
S'2003-04'
p605
sg56
S'4.2'
p606
sg58
S'3.5'
p607
sg60
S'.493'
p608
sg62
S'484'
p609
sg64
g101
sba(isrc.gp1.models.Per100Possession
Per100Possession
p610
(dp611
g8
S'3.2'
p612
sg10
S'0.0'
p613
sg12
S'.459'
p614
sg329
S'105'
p615
sg14
S'1.2'
p616
sg16
S'3.4'
p617
sg18
S'0.0'
p618
sg19
S'96'
p619
sg20
S'SF'
p620
sg336
g3
sg22
S'3.8'
p621
sg26
S'NBA'
p622
sg28
S'1.4'
p623
sg30
S'7.4'
p624
sg32
S'9.2'
p625
sg34
S'.387'
p626
sg36
S'1.0'
p627
sg38
S'31'
p628
sg40
S'DET'
p629
sg42
S'47'
p630
sg44
S'1.6'
p631
sg46
S'7.4'
p632
sg48
S'6.2'
p633
sg50
S'.459'
p634
sg52
S'7.0'
p635
sg54
S'2004-05'
p636
sg56
S'3.4'
p637
sg58
S'7.8'
p638
sg60
S'2.4'
p639
sg62
S'275'
p640
sg64
g11
sbasS'_advanced'
p641
(lp642
(isrc.gp1.models.Advanced
Advanced
p643
(dp644
S'_offensiveReboundPercentage'
p645
S'10.5'
p646
sS'_turnOverPercentage'
p647
S'22.1'
p648
sS'_winSharesPer48Minutes'
p649
S'.018'
p650
sS'_stealPercentage'
p651
S'1.5'
p652
sS'_usagePercentage'
p653
S'14.0'
p654
sS'_totalReboundsPercentage'
p655
S'10.0'
p656
sS'_defensiveBoxPlusMinus'
p657
S'-0.3'
p658
sg20
S'SF'
p659
sS'_valueOverReplacementPlayer'
p660
S'-0.1'
p661
sS'_trueShootingPercentage'
p662
S'.536'
p663
sS'_defensiveReboundPercentage'
p664
S'9.6'
p665
sS'_freeThrowsAttempRate'
p666
S'.565'
p667
sS'_threePointsAttempRate'
p668
S'.000'
p669
sg26
S'NBA'
p670
sS'_offensiveBoxPlusMinues'
p671
S'-3.1'
p672
sS'_assistPercentage'
p673
S'6.9'
p674
sS'_defensiveWinShares'
p675
S'0.1'
p676
sg38
S'23'
p677
sg40
S'TOT'
p678
sg42
S'36'
p679
sS'_blockPercentage'
p680
S'1.7'
p681
sS'_playerEfficiencyRating'
p682
S'8.5'
p683
sS'_offensiveWinShares'
p684
S'0.0'
p685
sg62
S'318'
p686
sS'_boxPlusMinus'
p687
S'-3.5'
p688
sg54
S'1996-97'
p689
sS'_winShares'
p690
S'0.1'
p691
sba(isrc.gp1.models.Advanced
Advanced
p692
(dp693
g645
S'10.7'
p694
sg647
S'21.8'
p695
sg649
S'.018'
p696
sg651
S'1.3'
p697
sg653
S'13.8'
p698
sg655
S'10.2'
p699
sg657
S'-0.4'
p700
sg20
S'SF'
p701
sg660
S'-0.1'
p702
sg662
S'.530'
p703
sg664
S'9.7'
p704
sg666
S'.541'
p705
sg668
S'.000'
p706
sg26
S'NBA'
p707
sg671
S'-3.2'
p708
sg673
S'7.1'
p709
sg675
S'0.1'
p710
sg38
S'23'
p711
sg40
S'DEN'
p712
sg42
S'35'
p713
sg680
S'1.7'
p714
sg682
S'8.2'
p715
sg684
S'0.0'
p716
sg62
S'313'
p717
sg687
S'-3.6'
p718
sg54
S'1996-97'
p719
sg690
S'0.1'
p720
sba(isrc.gp1.models.Advanced
Advanced
p721
(dp722
g645
S'0.0'
p723
sg647
S'34.7'
p724
sg649
S'.059'
p725
sg651
S'10.8'
p726
sg653
S'26.6'
p727
sg655
S'0.0'
p728
sg657
S'4.8'
p729
sg20
S'SF'
p730
sg660
S'0.0'
p731
sg662
S'.798'
p732
sg664
S'0.0'
p733
sg666
S'2.000'
p734
sg668
S'.000'
p735
sg26
S'NBA'
p736
sg671
S'-1.5'
p737
sg673
S'0.0'
p738
sg675
S'0.0'
p739
sg38
S'23'
p740
sg40
S'IND'
p741
sg42
g95
sg680
S'0.0'
p742
sg682
S'22.5'
p743
sg684
S'0.0'
p744
sg62
g105
sg687
S'3.3'
p745
sg54
S'1996-97'
p746
sg690
S'0.0'
p747
sba(isrc.gp1.models.Advanced
Advanced
p748
(dp749
g645
S'12.5'
p750
sg647
S'21.3'
p751
sg649
S'.069'
p752
sg651
S'1.7'
p753
sg653
S'12.1'
p754
sg655
S'11.7'
p755
sg657
S'0.9'
p756
sg20
S'SF'
p757
sg660
S'0.0'
p758
sg662
S'.531'
p759
sg664
S'10.9'
p760
sg666
S'.712'
p761
sg668
S'.000'
p762
sg26
S'NBA'
p763
sg671
S'-2.9'
p764
sg673
S'3.6'
p765
sg675
S'0.7'
p766
sg38
S'24'
p767
sg40
S'WAS'
p768
sg42
S'71'
p769
sg680
S'2.8'
p770
sg682
S'9.2'
p771
sg684
S'0.2'
p772
sg62
S'635'
p773
sg687
S'-2.0'
p774
sg54
S'1997-98'
p775
sg690
S'0.9'
p776
sba(isrc.gp1.models.Advanced
Advanced
p777
(dp778
g645
S'12.6'
p779
sg647
S'15.2'
p780
sg649
S'.101'
p781
sg651
S'1.9'
p782
sg653
S'10.7'
p783
sg655
S'12.7'
p784
sg657
S'1.6'
p785
sg20
S'SF'
p786
sg660
S'0.9'
p787
sg662
S'.545'
p788
sg664
S'12.8'
p789
sg666
S'.609'
p790
sg668
S'.008'
p791
sg26
S'NBA'
p792
sg671
S'0.7'
p793
sg673
S'7.5'
p794
sg675
S'0.5'
p795
sg38
S'26'
p796
sg40
S'MIL'
p797
sg42
S'35'
p798
sg680
S'2.8'
p799
sg682
S'12.8'
p800
sg684
S'1.2'
p801
sg62
S'792'
p802
sg687
S'2.3'
p803
sg54
S'1999-00'
p804
sg690
S'1.7'
p805
sba(isrc.gp1.models.Advanced
Advanced
p806
(dp807
g645
S'11.8'
p808
sg647
S'24.5'
p809
sg649
S'.079'
p810
sg651
S'1.6'
p811
sg653
S'11.3'
p812
sg655
S'12.7'
p813
sg657
S'1.6'
p814
sg20
S'SF'
p815
sg660
S'0.3'
p816
sg662
S'.537'
p817
sg664
S'13.6'
p818
sg666
S'.613'
p819
sg668
S'.038'
p820
sg26
S'NBA'
p821
sg671
S'-1.6'
p822
sg673
S'6.5'
p823
sg675
S'0.5'
p824
sg38
S'27'
p825
sg40
S'MIL'
p826
sg42
S'29'
p827
sg680
S'2.9'
p828
sg682
S'10.1'
p829
sg684
S'0.4'
p830
sg62
S'540'
p831
sg687
S'-0.1'
p832
sg54
S'2000-01'
p833
sg690
S'0.9'
p834
sba(isrc.gp1.models.Advanced
Advanced
p835
(dp836
g645
S'9.1'
p837
sg647
S'23.8'
p838
sg649
S'.050'
p839
sg651
S'1.1'
p840
sg653
S'13.5'
p841
sg655
S'9.7'
p842
sg657
S'0.0'
p843
sg20
S'SF'
p844
sg660
S'0.0'
p845
sg662
S'.571'
p846
sg664
S'10.1'
p847
sg666
S'.583'
p848
sg668
S'.033'
p849
sg26
S'NBA'
p850
sg671
S'-2.1'
p851
sg673
S'9.1'
p852
sg675
S'0.6'
p853
sg38
S'28'
p854
sg40
S'MIL'
p855
sg42
S'70'
p856
sg680
S'2.2'
p857
sg682
S'9.7'
p858
sg684
S'0.7'
p859
sg62
S'1208'
p860
sg687
S'-2.1'
p861
sg54
S'2001-02'
p862
sg690
S'1.2'
p863
sba(isrc.gp1.models.Advanced
Advanced
p864
(dp865
g645
S'9.3'
p866
sg647
S'25.1'
p867
sg649
S'-0.021'
p868
sg651
S'0.9'
p869
sg653
S'12.8'
p870
sg655
S'9.4'
p871
sg657
S'-0.9'
p872
sg20
S'SG'
p873
sg660
S'-0.8'
p874
sg662
S'.464'
p875
sg664
S'9.5'
p876
sg666
S'.497'
p877
sg668
S'.019'
p878
sg26
S'NBA'
p879
sg671
S'-4.4'
p880
sg673
S'6.4'
p881
sg675
S'0.3'
p882
sg38
S'29'
p883
sg40
S'ATL'
p884
sg42
S'75'
p885
sg680
S'1.4'
p886
sg682
S'5.5'
p887
sg684
S'-0.7'
p888
sg62
S'926'
p889
sg687
S'-5.4'
p890
sg54
S'2002-03'
p891
sg690
S'-0.4'
p892
sba(isrc.gp1.models.Advanced
Advanced
p893
(dp894
g645
S'11.4'
p895
sg647
S'25.5'
p896
sg649
S'.087'
p897
sg651
S'1.5'
p898
sg653
S'11.7'
p899
sg655
S'11.1'
p900
sg657
S'1.3'
p901
sg20
S'SF'
p902
sg660
S'0.0'
p903
sg662
S'.531'
p904
sg664
S'10.8'
p905
sg666
S'.467'
p906
sg668
S'.027'
p907
sg26
S'NBA'
p908
sg671
S'-2.9'
p909
sg673
S'5.3'
p910
sg675
S'0.8'
p911
sg38
S'30'
p912
sg40
S'DET'
p913
sg42
S'54'
p914
sg680
S'1.3'
p915
sg682
S'8.3'
p916
sg684
S'0.1'
p917
sg62
S'484'
p918
sg687
S'-1.6'
p919
sg54
S'2003-04'
p920
sg690
S'0.9'
p921
sba(isrc.gp1.models.Advanced
Advanced
p922
(dp923
g645
S'8.2'
p924
sg647
S'13.6'
p925
sg649
S'.055'
p926
sg651
S'1.2'
p927
sg653
S'10.0'
p928
sg655
S'7.5'
p929
sg657
S'0.7'
p930
sg20
S'SF'
p931
sg660
S'-0.1'
p932
sg662
S'.454'
p933
sg664
S'6.8'
p934
sg666
S'.838'
p935
sg668
S'.000'
p936
sg26
S'NBA'
p937
sg671
S'-4.4'
p938
sg673
S'2.8'
p939
sg675
S'0.3'
p940
sg38
S'31'
p941
sg40
S'DET'
p942
sg42
S'47'
p943
sg680
S'1.9'
p944
sg682
S'5.6'
p945
sg684
S'0.0'
p946
sg62
S'275'
p947
sg687
S'-3.8'
p948
sg54
S'2004-05'
p949
sg690
S'0.3'
p950
sbasS'_per36Minutes'
p951
(lp952
(isrc.gp1.models.Per36Minutes
Per36Minutes
p953
(dp954
g8
S'3.1'
p955
sg10
S'0.0'
p956
sg12
S'.532'
p957
sg14
S'1.0'
p958
sg16
S'3.7'
p959
sg18
S'0.0'
p960
sg19
g3
sg20
S'SF'
p961
sg22
S'3.3'
p962
sg26
S'NBA'
p963
sg28
S'0.9'
p964
sg30
S'7.0'
p965
sg32
S'9.4'
p966
sg34
S'.486'
p967
sg36
S'1.6'
p968
sg38
S'23'
p969
sg40
S'TOT'
p970
sg42
S'36'
p971
sg44
S'2.5'
p972
sg46
S'7.0'
p973
sg48
S'4.0'
p974
sg50
S'.532'
p975
sg52
S'6.3'
p976
sg54
S'1996-97'
p977
sg56
S'3.7'
p978
sg58
S'6.5'
p979
sg60
S'1.9'
p980
sg62
S'318'
p981
sg64
g65
sba(isrc.gp1.models.Per36Minutes
Per36Minutes
p982
(dp983
g8
S'3.1'
p984
sg10
S'0.0'
p985
sg12
S'.525'
p986
sg14
S'0.9'
p987
sg16
S'3.7'
p988
sg18
S'0.0'
p989
sg19
g3
sg20
S'SF'
p990
sg22
S'3.3'
p991
sg26
S'NBA'
p992
sg28
S'0.9'
p993
sg30
S'7.0'
p994
sg32
S'9.2'
p995
sg34
S'.485'
p996
sg36
S'1.6'
p997
sg38
S'23'
p998
sg40
S'DEN'
p999
sg42
S'35'
p1000
sg44
S'2.4'
p1001
sg46
S'7.0'
p1002
sg48
S'3.8'
p1003
sg50
S'.525'
p1004
sg52
S'6.4'
p1005
sg54
S'1996-97'
p1006
sg56
S'3.7'
p1007
sg58
S'6.6'
p1008
sg60
S'1.8'
p1009
sg62
S'313'
p1010
sg64
g65
sba(isrc.gp1.models.Per36Minutes
Per36Minutes
p1011
(dp1012
g8
S'0.0'
p1013
sg10
S'0.0'
p1014
sg12
S'1.000'
p1015
sg14
S'7.2'
p1016
sg16
S'7.2'
p1017
sg18
S'0.0'
p1018
sg19
g3
sg20
S'SF'
p1019
sg22
S'0.0'
p1020
sg26
S'NBA'
p1021
sg28
S'0.0'
p1022
sg30
S'7.2'
p1023
sg32
S'21.6'
p1024
sg34
S'.500'
p1025
sg36
S'0.0'
p1026
sg38
S'23'
p1027
sg40
S'IND'
p1028
sg42
g95
sg44
S'7.2'
p1029
sg46
S'7.2'
p1030
sg48
S'14.4'
p1031
sg50
S'1.000'
p1032
sg52
S'0.0'
p1033
sg54
S'1996-97'
p1034
sg56
S'7.2'
p1035
sg58
S'0.0'
p1036
sg60
S'7.2'
p1037
sg62
g105
sg64
g11
sba(isrc.gp1.models.Per36Minutes
Per36Minutes
p1038
(dp1039
g8
S'3.3'
p1040
sg10
S'0.0'
p1041
sg12
S'.529'
p1042
sg14
S'1.2'
p1043
sg16
S'3.1'
p1044
sg18
S'0.0'
p1045
sg19
g3
sg20
S'SF'
p1046
sg22
S'4.1'
p1047
sg26
S'NBA'
p1048
sg28
S'1.4'
p1049
sg30
S'5.9'
p1050
sg32
S'8.2'
p1051
sg34
S'.473'
p1052
sg36
S'0.9'
p1053
sg38
S'24'
p1054
sg40
S'WAS'
p1055
sg42
S'71'
p1056
sg44
S'2.1'
p1057
sg46
S'5.9'
p1058
sg48
S'4.2'
p1059
sg50
S'.529'
p1060
sg52
S'7.4'
p1061
sg54
S'1997-98'
p1062
sg56
S'3.1'
p1063
sg58
S'6.7'
p1064
sg60
S'2.0'
p1065
sg62
S'635'
p1066
sg64
g65
sba(isrc.gp1.models.Per36Minutes
Per36Minutes
p1067
(dp1068
g8
S'3.9'
p1069
sg10
S'0.0'
p1070
sg12
S'.555'
p1071
sg14
S'1.9'
p1072
sg16
S'.000'
p1073
sg18
S'0.0'
p1074
sg19
S'8.0'
p1075
sg20
S'SF'
p1076
sg22
S'.449'
p1077
sg26
S'NBA'
p1078
sg28
S'1.3'
p1079
sg30
S'5.8'
p1080
sg32
S'4.6'
p1081
sg34
S'3.5'
p1082
sg36
S'7.8'
p1083
sg38
S'26'
p1084
sg40
S'MIL'
p1085
sg42
S'35'
p1086
sg44
S'1.3'
p1087
sg46
S'3.2'
p1088
sg48
S'1.6'
p1089
sg50
S'5.8'
p1090
sg52
S'4.0'
p1091
sg54
S'1999-00'
p1092
sg56
S'3.2'
p1093
sg58
S'1.3'
p1094
sg60
S'.559'
p1095
sg62
S'792'
p1096
sg64
S'21'
p1097
sba(isrc.gp1.models.Per36Minutes
Per36Minutes
p1098
(dp1099
g8
S'3.7'
p1100
sg10
S'0.2'
p1101
sg12
S'.488'
p1102
sg14
S'1.7'
p1103
sg16
S'.667'
p1104
sg18
S'0.1'
p1105
sg19
S'7.3'
p1106
sg20
S'SF'
p1107
sg22
S'.592'
p1108
sg26
S'NBA'
p1109
sg28
S'1.1'
p1110
sg30
S'5.3'
p1111
sg32
S'5.7'
p1112
sg34
S'3.3'
p1113
sg36
S'8.1'
p1114
sg38
S'27'
p1115
sg40
S'MIL'
p1116
sg42
S'29'
p1117
sg44
S'1.4'
p1118
sg46
S'2.5'
p1119
sg48
S'1.9'
p1120
sg50
S'5.1'
p1121
sg52
S'4.3'
p1122
sg54
S'2000-01'
p1123
sg56
S'2.6'
p1124
sg58
S'2.2'
p1125
sg60
S'.481'
p1126
sg62
S'540'
p1127
sg64
S'13'
p1128
sba(isrc.gp1.models.Per36Minutes
Per36Minutes
p1129
(dp1130
g8
S'2.7'
p1131
sg10
S'0.2'
p1132
sg12
S'.569'
p1133
sg14
S'2.2'
p1134
sg16
S'.143'
p1135
sg18
S'0.0'
p1136
sg19
S'9.0'
p1137
sg20
S'SF'
p1138
sg22
S'.504'
p1139
sg26
S'NBA'
p1140
sg28
S'0.7'
p1141
sg30
S'6.3'
p1142
sg32
S'5.2'
p1143
sg34
S'3.7'
p1144
sg36
S'6.0'
p1145
sg38
S'28'
p1146
sg40
S'MIL'
p1147
sg42
S'70'
p1148
sg44
S'1.1'
p1149
sg46
S'3.5'
p1150
sg48
S'1.8'
p1151
sg50
S'6.1'
p1152
sg52
S'3.3'
p1153
sg54
S'2001-02'
p1154
sg56
S'3.6'
p1155
sg58
S'2.5'
p1156
sg60
S'.583'
p1157
sg62
S'1208'
p1158
sg64
g101
sba(isrc.gp1.models.Per36Minutes
Per36Minutes
p1159
(dp1160
g8
S'2.8'
p1161
sg10
S'0.1'
p1162
sg12
S'.447'
p1163
sg14
S'1.5'
p1164
sg16
S'.000'
p1165
sg18
S'0.0'
p1166
sg19
S'7.0'
p1167
sg20
S'SG'
p1168
sg22
S'.481'
p1169
sg26
S'NBA'
p1170
sg28
S'0.6'
p1171
sg30
S'6.2'
p1172
sg32
S'4.9'
p1173
sg34
S'3.1'
p1174
sg36
S'5.9'
p1175
sg38
S'29'
p1176
sg40
S'ATL'
p1177
sg42
S'75'
p1178
sg44
S'0.7'
p1179
sg46
S'2.8'
p1180
sg48
S'1.5'
p1181
sg50
S'6.1'
p1182
sg52
S'3.1'
p1183
sg54
S'2002-03'
p1184
sg56
S'2.8'
p1185
sg58
S'2.5'
p1186
sg60
S'.455'
p1187
sg62
S'926'
p1188
sg64
g95
sba(isrc.gp1.models.Per36Minutes
Per36Minutes
p1189
(dp1190
g8
S'3.5'
p1191
sg10
S'0.1'
p1192
sg12
S'.493'
p1193
sg14
S'1.2'
p1194
sg16
S'.500'
p1195
sg18
S'0.1'
p1196
sg19
S'7.1'
p1197
sg20
S'SF'
p1198
sg22
S'.600'
p1199
sg26
S'NBA'
p1200
sg28
S'1.0'
p1201
sg30
S'5.6'
p1202
sg32
S'4.7'
p1203
sg34
S'2.6'
p1204
sg36
S'6.9'
p1205
sg38
S'30'
p1206
sg40
S'DET'
p1207
sg42
S'54'
p1208
sg44
S'0.6'
p1209
sg46
S'2.7'
p1210
sg48
S'1.6'
p1211
sg50
S'5.4'
p1212
sg52
S'3.4'
p1213
sg54
S'2003-04'
p1214
sg56
S'2.8'
p1215
sg58
S'2.3'
p1216
sg60
S'.493'
p1217
sg62
S'484'
p1218
sg64
g101
sba(isrc.gp1.models.Per36Minutes
Per36Minutes
p1219
(dp1220
g8
S'2.1'
p1221
sg10
S'0.0'
p1222
sg12
S'.459'
p1223
sg14
S'0.8'
p1224
sg16
S'2.2'
p1225
sg18
S'0.0'
p1226
sg19
g3
sg20
S'SF'
p1227
sg22
S'2.5'
p1228
sg26
S'NBA'
p1229
sg28
S'0.9'
p1230
sg30
S'4.8'
p1231
sg32
S'6.0'
p1232
sg34
S'.387'
p1233
sg36
S'0.7'
p1234
sg38
S'31'
p1235
sg40
S'DET'
p1236
sg42
S'47'
p1237
sg44
S'1.0'
p1238
sg46
S'4.8'
p1239
sg48
S'4.1'
p1240
sg50
S'.459'
p1241
sg52
S'4.6'
p1242
sg54
S'2004-05'
p1243
sg56
S'2.2'
p1244
sg58
S'5.1'
p1245
sg60
S'1.6'
p1246
sg62
S'275'
p1247
sg64
g11
sbasS'_fromYear'
p1248
S'1997'
p1249
sS'_url'
p1250
S'http://www.basketball-reference.com/players/h/hamda01.html'
p1251
sS'_perGame'
p1252
(isrc.gp1.models.PerGame
PerGame
p1253
(dp1254
g8
S'0.3'
p1255
sg10
S'0.0'
p1256
sg12
S'.459'
p1257
sS'_effectiveFieldGalPercentage'
p1258
S'0.3'
p1259
sg14
S'0.1'
p1260
sg16
S'0.4'
p1261
sg18
S'0.0'
p1262
sg19
g3
sg20
S'SF'
p1263
sg22
S'0.4'
p1264
sg26
S'NBA'
p1265
sg28
S'0.1'
p1266
sg32
S'1.0'
p1267
sS'_fieldGoalsttempted'
p1268
S'0.8'
p1269
sg34
S'.387'
p1270
sg36
S'0.1'
p1271
sg38
S'31'
p1272
sg40
S'DET'
p1273
sg42
S'47'
p1274
sg44
S'0.2'
p1275
sg46
S'0.8'
p1276
sg48
S'0.7'
p1277
sg50
S'.459'
p1278
sg52
S'0.7'
p1279
sg54
S'2004-05'
p1280
sg56
S'0.4'
p1281
sg58
S'0.8'
p1282
sg60
S'.459'
p1283
sg62
S'5.9'
p1284
sg64
g11
sbsS'_weight'
p1285
S'220'
p1286
sS'_dob'
p1287
S'23-7-1973'
p1288
sS'_salary'
p1289
(lp1290
(isrc.gp1.models.Salary
Salary
p1291
(dp1292
g40
S'Denver Nuggets'
p1293
sg26
S'NBA'
p1294
sg1289
S'$220,000'
p1295
sg54
S'1996-97'
p1296
sba(isrc.gp1.models.Salary
Salary
p1297
(dp1298
g40
S'Washington Wizards'
p1299
sg26
S'NBA'
p1300
sg1289
S'$272,250'
p1301
sg54
S'1997-98'
p1302
sba(isrc.gp1.models.Salary
Salary
p1303
(dp1304
g40
S'Milwaukee Bucks'
p1305
sg26
S'NBA'
p1306
sg1289
S'$460,000'
p1307
sg54
S'1999-00'
p1308
sba(isrc.gp1.models.Salary
Salary
p1309
(dp1310
g40
S'Milwaukee Bucks'
p1311
sg26
S'NBA'
p1312
sg1289
S'$1,700,000'
p1313
sg54
S'2000-01'
p1314
sba(isrc.gp1.models.Salary
Salary
p1315
(dp1316
g40
S'Milwaukee Bucks'
p1317
sg26
S'NBA'
p1318
sg1289
S'$1,760,000'
p1319
sg54
S'2001-02'
p1320
sba(isrc.gp1.models.Salary
Salary
p1321
(dp1322
g40
S'Atlanta Hawks'
p1323
sg26
S'NBA'
p1324
sg1289
S'$699,935'
p1325
sg54
S'2002-03'
p1326
sba(isrc.gp1.models.Salary
Salary
p1327
(dp1328
g40
S'Detroit Pistons'
p1329
sg26
S'NBA'
p1330
sg1289
S'$813,679'
p1331
sg54
S'2003-04'
p1332
sba(isrc.gp1.models.Salary
Salary
p1333
(dp1334
g40
S'Detroit Pistons'
p1335
sg26
S'NBA'
p1336
sg1289
S'$932,546'
p1337
sg54
S'2004-05'
p1338
sbasg20
S'F'
p1339
sb.