(isrc.gp1.models.Player
Player
p0
(dp1
S'_experience'
p2
S'NA'
p3
sS'_totals'
p4
(lp5
(isrc.gp1.models.Totals
Totals
p6
(dp7
S'_offensiveRebounds'
p8
S'72'
p9
sS'_threePointsAttempted'
p10
S'.419'
p11
sS'_fieldGoalsPercentage'
p12
S'198'
p13
sS'_assist'
p14
S'531'
p15
sS'_threePointsPercentage'
p16
S'.419'
p17
sS'_threePoints'
p18
S'472'
p19
sS'_points'
p20
g3
sS'_position'
p21
S'PF'
p22
sS'_freeThrowsPercentage'
p23
S'100'
p24
sS'_effectiveFieldGoalPercentage'
p25
S'121'
p26
sS'_league'
p27
S'NBA'
p28
sS'_steals'
p29
g3
sS'_fieldGoalsAttempted'
p30
S'.419'
p31
sS'_personalFouls'
p32
g3
sS'_freeThrowsAttempted'
p33
S'445'
p34
sS'_totalRebounds'
p35
S'145'
p36
sS'_age'
p37
S'22'
p38
sS'_team'
p39
S'MIL'
p40
sS'_games'
p41
S'72'
p42
sS'_blocks'
p43
g3
sS'_twoPoints'
p44
S'135'
p45
sS'_freeThrows'
p46
S'324'
p47
sS'_twoPointsAttempted'
p48
S'210'
p49
sS'_defensiveRebounds'
p50
S'25'
p51
sS'_season'
p52
S'1975-76'
p53
sS'_fieldGoals'
p54
S'472'
p55
sS'_turnOvers'
p56
g3
sS'_twoPointsPercentage'
p57
S'.643'
p58
sS'_minutesPlayed'
p59
S'198'
p60
sS'_gamesStarted'
p61
S'1589'
p62
sba(isrc.gp1.models.Totals
Totals
p63
(dp64
g8
S'42'
p65
sg10
S'.467'
p66
sg12
S'179'
p67
sg14
S'485'
p68
sg16
S'.467'
p69
sg18
S'383'
p70
sg20
g3
sg21
S'PF'
p71
sg23
S'86'
p72
sg25
S'122'
p73
sg27
S'NBA'
p74
sg29
g3
sg30
S'.467'
p75
sg32
g3
sg33
S'341'
p76
sg35
S'152'
p77
sg37
S'23'
p78
sg39
S'MIL'
p79
sg41
S'50'
p80
sg43
g3
sg44
S'127'
p81
sg46
S'219'
p82
sg48
S'192'
p83
sg50
S'32'
p84
sg52
S'1976-77'
p85
sg54
S'383'
p86
sg56
g3
sg57
S'.661'
p87
sg59
S'179'
p88
sg61
S'1262'
p89
sba(isrc.gp1.models.Totals
Totals
p90
(dp91
g8
S'86'
p92
sg10
S'.461'
p93
sg12
S'432'
p94
sg14
S'240'
p95
sg16
S'.461'
p96
sg18
S'938'
p97
sg20
g3
sg21
S'PF'
p98
sg23
S'241'
p99
sg25
S'144'
p100
sg27
S'NBA'
p101
sg29
S'1178'
p102
sg30
S'.461'
p103
sg32
g3
sg33
S'537'
p104
sg35
S'213'
p105
sg37
S'24'
p106
sg39
S'MIL'
p107
sg41
S'80'
p108
sg43
g3
sg44
S'314'
p109
sg46
S'393'
p110
sg48
S'435'
p111
sg50
S'46'
p112
sg52
S'1977-78'
p113
sg54
S'938'
p114
sg56
g3
sg57
S'.722'
p115
sg59
S'432'
p116
sg61
S'2416'
p117
sba(isrc.gp1.models.Totals
Totals
p118
(dp119
g8
g3
sg10
g3
sg12
g3
sg14
g3
sg16
g3
sg18
g3
sg20
g3
sg21
g3
sg23
g3
sg25
g3
sg27
g3
sg29
g3
sg30
g3
sg32
g3
sg33
g3
sg35
g3
sg37
S'25'
p120
sg39
S'Did Not Play\xc2\xa0(injury\xe2\x80\x94back)'
p121
sg41
g3
sg43
g3
sg44
g3
sg46
g3
sg48
g3
sg50
g3
sg52
S'1978-79'
p122
sg54
g3
sg56
g3
sg57
g3
sg59
g3
sg61
g3
sba(isrc.gp1.models.Totals
Totals
p123
(dp124
g8
S'308'
p125
sg10
S'.200'
p126
sg12
S'1'
p127
sg14
S'72'
p128
sg16
S'398'
p129
sg18
S'5'
p130
sg20
g3
sg21
S'PF'
p131
sg23
S'140'
p132
sg25
S'156'
p133
sg27
S'NBA'
p134
sg29
S'40'
p135
sg30
S'.481'
p136
sg32
S'955'
p137
sg33
S'.634'
p138
sg35
S'225'
p139
sg37
S'26'
p140
sg39
S'MIL'
p141
sg41
S'79'
p142
sg43
S'182'
p143
sg44
S'825'
p144
sg46
S'246'
p145
sg48
S'.482'
p146
sg50
S'448'
p147
sg52
S'1979-80'
p148
sg54
S'830'
p149
sg56
S'218'
p150
sg57
S'.481'
p151
sg59
S'399'
p152
sg61
S'2204'
p153
sbasS'_college'
p154
S'University of California, Los Angeles'
p155
sS'_toYear'
p156
S'1980'
p157
sS'_height'
p158
S'6-8'
p159
sS'_active'
p160
I00
sS'_shootingHand'
p161
VRight
p162
sS'_name'
p163
S'Dave Meyers'
p164
sS'_per100Possessions'
p165
(lp166
(isrc.gp1.models.Per100Possession
Per100Possession
p167
(dp168
g8
S'2.1'
p169
sg10
S'.419'
p170
sg12
S'5.8'
p171
sS'_offensiveRating'
p172
g3
sg14
S'15.4'
p173
sg16
S'3.9'
p174
sg18
S'13.7'
p175
sg20
g3
sg21
S'PF'
p176
sS'_defensiveRating'
p177
g3
sg23
S'2.9'
p178
sg27
S'NBA'
p179
sg29
S'96'
p180
sg30
S'.419'
p181
sg32
g3
sg33
S'12.9'
p182
sg35
S'4.2'
p183
sg37
S'22'
p184
sg39
S'MIL'
p185
sg41
S'72'
p186
sg43
g3
sg44
S'6.1'
p187
sg46
S'9.4'
p188
sg48
S'.643'
p189
sg50
S'0.7'
p190
sg52
S'1975-76'
p191
sg54
S'13.7'
p192
sg56
g3
sg57
S'3.5'
p193
sg59
S'5.8'
p194
sg61
S'1589'
p195
sba(isrc.gp1.models.Per100Possession
Per100Possession
p196
(dp197
g8
S'1.5'
p198
sg10
S'.467'
p199
sg12
S'6.3'
p200
sg172
g3
sg14
S'17.0'
p201
sg16
S'4.5'
p202
sg18
S'13.5'
p203
sg20
g3
sg21
S'PF'
p204
sg177
g3
sg23
S'3.0'
p205
sg27
S'NBA'
p206
sg29
S'102'
p207
sg30
S'.467'
p208
sg32
g3
sg33
S'12.0'
p209
sg35
S'5.3'
p210
sg37
S'23'
p211
sg39
S'MIL'
p212
sg41
S'50'
p213
sg43
g3
sg44
S'6.7'
p214
sg46
S'7.7'
p215
sg48
S'.661'
p216
sg50
S'1.1'
p217
sg52
S'1976-77'
p218
sg54
S'13.5'
p219
sg56
g3
sg57
S'4.3'
p220
sg59
S'6.3'
p221
sg61
S'1262'
p222
sba(isrc.gp1.models.Per100Possession
Per100Possession
p223
(dp224
g8
S'1.6'
p225
sg10
S'.461'
p226
sg12
S'7.9'
p227
sg172
g3
sg14
S'4.4'
p228
sg16
S'5.7'
p229
sg18
S'17.1'
p230
sg20
g3
sg21
S'PF'
p231
sg177
g3
sg23
S'4.4'
p232
sg27
S'NBA'
p233
sg29
S'21.5'
p234
sg30
S'.461'
p235
sg32
g3
sg33
S'9.8'
p236
sg35
S'3.9'
p237
sg37
S'24'
p238
sg39
S'MIL'
p239
sg41
S'80'
p240
sg43
S'102'
p241
sg44
S'8.0'
p242
sg46
S'7.2'
p243
sg48
S'.722'
p244
sg50
S'0.8'
p245
sg52
S'1977-78'
p246
sg54
S'17.1'
p247
sg56
S'102'
p248
sg57
S'2.6'
p249
sg59
S'7.9'
p250
sg61
S'2416'
p251
sba(isrc.gp1.models.Per100Possession
Per100Possession
p252
(dp253
g8
S'6.5'
p254
sg10
S'.200'
p255
sg12
S'0.0'
p256
sg172
S'103'
p257
sg14
S'1.5'
p258
sg16
S'8.5'
p259
sg18
S'0.1'
p260
sg20
S'101'
p261
sg21
S'PF'
p262
sg177
g3
sg23
S'3.0'
p263
sg27
S'NBA'
p264
sg29
S'0.9'
p265
sg30
S'.481'
p266
sg32
S'20.3'
p267
sg33
S'.634'
p268
sg35
S'4.8'
p269
sg37
S'26'
p270
sg39
S'MIL'
p271
sg41
S'79'
p272
sg43
S'3.9'
p273
sg44
S'17.5'
p274
sg46
S'5.2'
p275
sg48
S'.482'
p276
sg50
S'9.5'
p277
sg52
S'1979-80'
p278
sg54
S'17.6'
p279
sg56
S'4.6'
p280
sg57
S'3.3'
p281
sg59
S'8.5'
p282
sg61
S'2204'
p283
sbasS'_advanced'
p284
(lp285
(isrc.gp1.models.Advanced
Advanced
p286
(dp287
S'_offensiveReboundPercentage'
p288
S'20.6'
p289
sS'_turnOverPercentage'
p290
S'2.1'
p291
sS'_winSharesPer48Minutes'
p292
S'-1.3'
p293
sS'_stealPercentage'
p294
S'0.8'
p295
sS'_usagePercentage'
p296
S'2.4'
p297
sS'_totalReboundsPercentage'
p298
S'8.4'
p299
sS'_defensiveBoxPlusMinus'
p300
g3
sg21
S'PF'
p301
sS'_valueOverReplacementPlayer'
p302
g3
sS'_trueShootingPercentage'
p303
S'.470'
p304
sS'_defensiveReboundPercentage'
p305
S'14.6'
p306
sS'_freeThrowsAttempRate'
p307
S'8.2'
p308
sS'_threePointsAttempRate'
p309
S'.445'
p310
sg27
S'NBA'
p311
sS'_offensiveBoxPlusMinues'
p312
S'0.3'
p313
sS'_assistPercentage'
p314
S'2.1'
p315
sS'_defensiveWinShares'
p316
S'-2.2'
p317
sg37
S'22'
p318
sg39
S'MIL'
p319
sg41
S'72'
p320
sS'_blockPercentage'
p321
S'0.3'
p322
sS'_playerEfficiencyRating'
p323
S'13.4'
p324
sS'_offensiveWinShares'
p325
S'.072'
p326
sg59
S'1589'
p327
sS'_boxPlusMinus'
p328
g3
sg52
S'1975-76'
p329
sS'_winShares'
p330
S'0.9'
p331
sba(isrc.gp1.models.Advanced
Advanced
p332
(dp333
g288
S'18.1'
p334
sg290
S'0.9'
p335
sg292
S'0.0'
p336
sg294
S'1.3'
p337
sg296
S'2.2'
p338
sg298
S'8.6'
p339
sg300
g3
sg21
S'PF'
p340
sg302
g3
sg303
S'.519'
p341
sg305
S'14.0'
p342
sg307
S'9.9'
p343
sg309
S'.501'
p344
sg27
S'NBA'
p345
sg312
S'0.6'
p346
sg314
S'1.5'
p347
sg316
S'-0.2'
p348
sg37
S'23'
p349
sg39
S'MIL'
p350
sg41
S'50'
p351
sg321
S'1.2'
p352
sg323
S'14.0'
p353
sg325
S'.082'
p354
sg59
S'1262'
p355
sg328
g3
sg52
S'1976-77'
p356
sg330
S'0.2'
p357
sba(isrc.gp1.models.Advanced
Advanced
p358
(dp359
g288
S'17.5'
p360
sg290
S'21.1'
p361
sg292
S'0.0'
p362
sg294
S'1.0'
p363
sg296
S'2.9'
p364
sg298
S'12.9'
p365
sg300
S'0.0'
p366
sg21
S'PF'
p367
sg302
g3
sg303
S'.522'
p368
sg305
S'11.7'
p369
sg307
S'6.2'
p370
sg309
S'.464'
p371
sg27
S'NBA'
p372
sg312
S'0.0'
p373
sg314
S'1.6'
p374
sg316
S'5.0'
p375
sg37
S'24'
p376
sg39
S'MIL'
p377
sg41
S'80'
p378
sg321
S'15.9'
p379
sg323
S'15.4'
p380
sg325
S'2.1'
p381
sg59
S'2416'
p382
sg328
S'1.2'
p383
sg52
S'1977-78'
p384
sg330
S'.099'
p385
sba(isrc.gp1.models.Advanced
Advanced
p386
(dp387
g288
S'7.1'
p388
sg290
S'16.2'
p389
sg292
S'.084'
p390
sg294
S'1.5'
p391
sg296
S'20.2'
p392
sg298
S'11.0'
p393
sg300
S'0.7'
p394
sg21
S'PF'
p395
sg302
S'1.0'
p396
sg303
S'.509'
p397
sg305
S'14.7'
p398
sg307
S'.296'
p399
sg309
S'.006'
p400
sg27
S'NBA'
p401
sg312
S'-0.8'
p402
sg314
S'13.6'
p403
sg316
S'2.8'
p404
sg37
S'26'
p405
sg39
S'MIL'
p406
sg41
S'79'
p407
sg321
S'1.0'
p408
sg323
S'13.3'
p409
sg325
S'1.0'
p410
sg59
S'2204'
p411
sg328
S'-0.1'
p412
sg52
S'1979-80'
p413
sg330
S'3.9'
p414
sbasS'_per36Minutes'
p415
(lp416
(isrc.gp1.models.Per36Minutes
Per36Minutes
p417
(dp418
g8
S'1.6'
p419
sg10
S'.419'
p420
sg12
S'4.5'
p421
sg14
S'12.0'
p422
sg16
S'3.1'
p423
sg18
S'10.7'
p424
sg20
g3
sg21
S'PF'
p425
sg23
S'2.3'
p426
sg27
S'NBA'
p427
sg29
g3
sg30
S'.419'
p428
sg32
g3
sg33
S'10.1'
p429
sg35
S'3.3'
p430
sg37
S'22'
p431
sg39
S'MIL'
p432
sg41
S'72'
p433
sg43
g3
sg44
S'4.8'
p434
sg46
S'7.3'
p435
sg48
S'.643'
p436
sg50
S'0.6'
p437
sg52
S'1975-76'
p438
sg54
S'10.7'
p439
sg56
g3
sg57
S'2.7'
p440
sg59
S'4.5'
p441
sg61
S'1589'
p442
sba(isrc.gp1.models.Per36Minutes
Per36Minutes
p443
(dp444
g8
S'1.2'
p445
sg10
S'.467'
p446
sg12
S'5.1'
p447
sg14
S'13.8'
p448
sg16
S'3.6'
p449
sg18
S'10.9'
p450
sg20
g3
sg21
S'PF'
p451
sg23
S'2.5'
p452
sg27
S'NBA'
p453
sg29
g3
sg30
S'.467'
p454
sg32
g3
sg33
S'9.7'
p455
sg35
S'4.3'
p456
sg37
S'23'
p457
sg39
S'MIL'
p458
sg41
S'50'
p459
sg43
g3
sg44
S'5.5'
p460
sg46
S'6.2'
p461
sg48
S'.661'
p462
sg50
S'0.9'
p463
sg52
S'1976-77'
p464
sg54
S'10.9'
p465
sg56
g3
sg57
S'3.5'
p466
sg59
S'5.1'
p467
sg61
S'1262'
p468
sba(isrc.gp1.models.Per36Minutes
Per36Minutes
p469
(dp470
g8
S'1.3'
p471
sg10
S'.461'
p472
sg12
S'6.4'
p473
sg14
S'3.6'
p474
sg16
S'4.7'
p475
sg18
S'14.0'
p476
sg20
g3
sg21
S'PF'
p477
sg23
S'3.6'
p478
sg27
S'NBA'
p479
sg29
S'17.6'
p480
sg30
S'.461'
p481
sg32
g3
sg33
S'8.0'
p482
sg35
S'3.2'
p483
sg37
S'24'
p484
sg39
S'MIL'
p485
sg41
S'80'
p486
sg43
g3
sg44
S'6.5'
p487
sg46
S'5.9'
p488
sg48
S'.722'
p489
sg50
S'0.7'
p490
sg52
S'1977-78'
p491
sg54
S'14.0'
p492
sg56
g3
sg57
S'2.1'
p493
sg59
S'6.4'
p494
sg61
S'2416'
p495
sba(isrc.gp1.models.Per36Minutes
Per36Minutes
p496
(dp497
g8
S'5.0'
p498
sg10
S'.200'
p499
sg12
S'0.0'
p500
sg14
S'1.2'
p501
sg16
S'6.5'
p502
sg18
S'0.1'
p503
sg20
g3
sg21
S'PF'
p504
sg23
S'2.3'
p505
sg27
S'NBA'
p506
sg29
S'0.7'
p507
sg30
S'.481'
p508
sg32
S'15.6'
p509
sg33
S'.634'
p510
sg35
S'3.7'
p511
sg37
S'26'
p512
sg39
S'MIL'
p513
sg41
S'79'
p514
sg43
S'3.0'
p515
sg44
S'13.5'
p516
sg46
S'4.0'
p517
sg48
S'.482'
p518
sg50
S'7.3'
p519
sg52
S'1979-80'
p520
sg54
S'13.6'
p521
sg56
S'3.6'
p522
sg57
S'2.5'
p523
sg59
S'6.5'
p524
sg61
S'2204'
p525
sbasS'_fromYear'
p526
S'1976'
p527
sS'_url'
p528
S'http://www.basketball-reference.com/players/m/meyerda01.html'
p529
sS'_perGame'
p530
(isrc.gp1.models.PerGame
PerGame
p531
(dp532
g8
S'3.9'
p533
sg10
S'.200'
p534
sg12
S'0.0'
p535
sS'_effectiveFieldGalPercentage'
p536
S'2.0'
p537
sg14
S'0.9'
p538
sg16
S'5.0'
p539
sg18
S'0.1'
p540
sg20
g3
sg21
S'PF'
p541
sg23
S'1.8'
p542
sg27
S'NBA'
p543
sg29
S'0.5'
p544
sg32
S'12.1'
p545
sS'_fieldGoalsttempted'
p546
S'.481'
p547
sg33
S'.634'
p548
sg35
S'2.8'
p549
sg37
S'26'
p550
sg39
S'MIL'
p551
sg41
S'79'
p552
sg43
S'2.3'
p553
sg44
S'10.4'
p554
sg46
S'3.1'
p555
sg48
S'.482'
p556
sg50
S'5.7'
p557
sg52
S'1979-80'
p558
sg54
S'10.5'
p559
sg56
S'2.8'
p560
sg57
S'.481'
p561
sg59
S'5.1'
p562
sg61
S'27.9'
p563
sbsS'_weight'
p564
S'215'
p565
sS'_dob'
p566
S'21-4-1953'
p567
sS'_salary'
p568
(lp569
sg21
S'F-C'
p570
sb.