(isrc.gp1.models.Player
Player
p0
(dp1
S'_experience'
p2
S'NA'
p3
sS'_totals'
p4
(lp5
(isrc.gp1.models.Totals
Totals
p6
(dp7
S'_offensiveRebounds'
p8
g3
sS'_threePointsAttempted'
p9
S'.430'
p10
sS'_fieldGoalsPercentage'
p11
S'406'
p12
sS'_assist'
p13
g3
sS'_threePointsPercentage'
p14
S'.430'
p15
sS'_threePoints'
p16
S'944'
p17
sS'_points'
p18
g3
sS'_position'
p19
S'SF'
p20
sS'_freeThrowsPercentage'
p21
S'1018'
p22
sS'_effectiveFieldGoalPercentage'
p23
S'694'
p24
sS'_league'
p25
S'NBA'
p26
sS'_steals'
p27
g3
sS'_fieldGoalsAttempted'
p28
S'.430'
p29
sS'_personalFouls'
p30
g3
sS'_freeThrowsAttempted'
p31
S'247'
p32
sS'_totalRebounds'
p33
g3
sS'_age'
p34
S'22'
p35
sS'_team'
p36
S'DET'
p37
sS'_games'
p38
S'80'
p39
sS'_blocks'
p40
g3
sS'_twoPoints'
p41
S'206'
p42
sS'_freeThrows'
p43
S'207'
p44
sS'_twoPointsAttempted'
p45
S'287'
p46
sS'_defensiveRebounds'
p47
g3
sS'_season'
p48
S'1962-63'
p49
sS'_fieldGoals'
p50
S'944'
p51
sS'_turnOvers'
p52
g3
sS'_twoPointsPercentage'
p53
S'.718'
p54
sS'_minutesPlayed'
p55
S'406'
p56
sS'_gamesStarted'
p57
S'2352'
p58
sba(isrc.gp1.models.Totals
Totals
p59
(dp60
g8
g3
sg9
S'.391'
p61
sg11
S'52'
p62
sg13
g3
sg14
S'.391'
p63
sg16
S'133'
p64
sg18
g3
sg19
S'SF'
p65
sg21
S'129'
p66
sg23
S'105'
p67
sg25
S'NBA'
p68
sg27
g3
sg28
S'.391'
p69
sg30
g3
sg31
S'32'
p70
sg33
g3
sg34
S'23'
p71
sg36
S'DET'
p72
sg38
S'15'
p73
sg40
g3
sg41
S'25'
p74
sg43
S'23'
p75
sg45
S'43'
p76
sg47
g3
sg48
S'1963-64'
p77
sg50
S'133'
p78
sg52
g3
sg53
S'.581'
p79
sg55
S'52'
p80
sg57
S'304'
p81
sba(isrc.gp1.models.Totals
Totals
p82
(dp83
g8
g3
sg9
S'.425'
p84
sg11
S'508'
p85
sg13
g3
sg14
S'.425'
p86
sg16
S'1196'
p87
sg18
g3
sg19
S'PF'
p88
sg21
S'1322'
p89
sg23
S'874'
p90
sg25
S'NBA'
p91
sg27
g3
sg28
S'.425'
p92
sg30
g3
sg31
S'242'
p93
sg33
g3
sg34
S'24'
p94
sg36
S'DET'
p95
sg38
S'79'
p96
sg40
g3
sg41
S'306'
p97
sg43
S'253'
p98
sg45
S'437'
p99
sg47
g3
sg48
S'1964-65'
p100
sg50
S'1196'
p101
sg52
g3
sg53
S'.700'
p102
sg55
S'508'
p103
sg57
S'2769'
p104
sba(isrc.gp1.models.Totals
Totals
p105
(dp106
g8
g3
sg9
S'.408'
p107
sg11
S'524'
p108
sg13
g3
sg14
S'.408'
p109
sg16
S'1284'
p110
sg18
g3
sg19
S'SF'
p111
sg21
S'1297'
p112
sg23
S'916'
p113
sg25
S'NBA'
p114
sg27
g3
sg28
S'.408'
p115
sg30
g3
sg31
S'252'
p116
sg33
g3
sg34
S'25'
p117
sg36
S'DET'
p118
sg38
S'79'
p119
sg40
g3
sg41
S'249'
p120
sg43
S'209'
p121
sg45
S'378'
p122
sg47
g3
sg48
S'1965-66'
p123
sg50
S'1284'
p124
sg52
g3
sg53
S'.659'
p125
sg55
S'524'
p126
sg57
S'2696'
p127
sba(isrc.gp1.models.Totals
Totals
p128
(dp129
g8
g3
sg9
S'.415'
p130
sg11
S'531'
p131
sg13
g3
sg14
S'.415'
p132
sg16
S'1278'
p133
sg18
g3
sg19
S'SF'
p134
sg21
S'1423'
p135
sg23
S'924'
p136
sg25
S'NBA'
p137
sg27
g3
sg28
S'.415'
p138
sg30
g3
sg31
S'297'
p139
sg33
g3
sg34
S'26'
p140
sg36
S'DET'
p141
sg38
S'78'
p142
sg40
g3
sg41
S'361'
p143
sg43
S'216'
p144
sg45
S'512'
p145
sg47
g3
sg48
S'1966-67'
p146
sg50
S'1278'
p147
sg52
g3
sg53
S'.705'
p148
sg55
S'531'
p149
sg57
S'2897'
p150
sba(isrc.gp1.models.Totals
Totals
p151
(dp152
g8
g3
sg9
S'.442'
p153
sg11
S'573'
p154
sg13
g3
sg14
S'.442'
p155
sg16
S'1295'
p156
sg18
g3
sg19
S'SF'
p157
sg21
S'1435'
p158
sg23
S'1081'
p159
sg25
S'NBA'
p160
sg27
g3
sg28
S'.442'
p161
sg30
g3
sg31
S'304'
p162
sg33
g3
sg34
S'27'
p163
sg36
S'DET'
p164
sg38
S'80'
p165
sg40
g3
sg41
S'289'
p166
sg43
S'181'
p167
sg45
S'435'
p168
sg47
g3
sg48
S'1967-68'
p169
sg50
S'1295'
p170
sg52
g3
sg53
S'.664'
p171
sg55
S'573'
p172
sg57
S'3125'
p173
sba(isrc.gp1.models.Totals
Totals
p174
(dp175
g8
g3
sg9
S'.444'
p176
sg11
S'506'
p177
sg13
g3
sg14
S'.444'
p178
sg16
S'1140'
p179
sg18
g3
sg19
S'PF'
p180
sg21
S'1241'
p181
sg23
S'888'
p182
sg25
S'NBA'
p183
sg27
g3
sg28
S'.444'
p184
sg30
g3
sg31
S'290'
p185
sg33
g3
sg34
S'28'
p186
sg36
S'TOT'
p187
sg38
S'76'
p188
sg40
g3
sg41
S'229'
p189
sg43
S'191'
p190
sg45
S'328'
p191
sg47
g3
sg48
S'1968-69'
p192
sg50
S'1140'
p193
sg52
g3
sg53
S'.698'
p194
sg55
S'506'
p195
sg57
S'2943'
p196
sba(isrc.gp1.models.Totals
Totals
p197
(dp198
g8
g3
sg9
S'.447'
p199
sg11
S'189'
p200
sg13
g3
sg14
S'.447'
p201
sg16
S'423'
p202
sg18
g3
sg19
S'PF'
p203
sg21
S'472'
p204
sg23
S'353'
p205
sg25
S'NBA'
p206
sg27
g3
sg28
S'.447'
p207
sg30
g3
sg31
S'111'
p208
sg33
g3
sg34
S'28'
p209
sg36
S'DET'
p210
sg38
S'29'
p211
sg40
g3
sg41
S'94'
p212
sg43
S'63'
p213
sg45
S'130'
p214
sg47
g3
sg48
S'1968-69'
p215
sg50
S'423'
p216
sg52
g3
sg53
S'.723'
p217
sg55
S'189'
p218
sg57
S'1092'
p219
sba(isrc.gp1.models.Totals
Totals
p220
(dp221
g8
g3
sg9
S'.442'
p222
sg11
S'317'
p223
sg13
g3
sg14
S'.442'
p224
sg16
S'717'
p225
sg18
g3
sg19
S'PF'
p226
sg21
S'769'
p227
sg23
S'535'
p228
sg25
S'NBA'
p229
sg27
g3
sg28
S'.442'
p230
sg30
g3
sg31
S'179'
p231
sg33
g3
sg34
S'28'
p232
sg36
S'NYK'
p233
sg38
S'47'
p234
sg40
g3
sg41
S'135'
p235
sg43
S'128'
p236
sg45
S'198'
p237
sg47
g3
sg48
S'1968-69'
p238
sg50
S'717'
p239
sg52
g3
sg53
S'.682'
p240
sg55
S'317'
p241
sg57
S'1851'
p242
sba(isrc.gp1.models.Totals
Totals
p243
(dp244
g8
g3
sg9
S'.451'
p245
sg11
S'488'
p246
sg13
g3
sg14
S'.451'
p247
sg16
S'1082'
p248
sg18
g3
sg19
S'PF'
p249
sg21
S'1152'
p250
sg23
S'790'
p251
sg25
S'NBA'
p252
sg27
g3
sg28
S'.451'
p253
sg30
g3
sg31
S'244'
p254
sg33
g3
sg34
S'29'
p255
sg36
S'NYK'
p256
sg38
S'79'
p257
sg40
g3
sg41
S'176'
p258
sg43
S'194'
p259
sg45
S'256'
p260
sg47
g3
sg48
S'1969-70'
p261
sg50
S'1082'
p262
sg52
g3
sg53
S'.688'
p263
sg55
S'488'
p264
sg57
S'2627'
p265
sba(isrc.gp1.models.Totals
Totals
p266
(dp267
g8
g3
sg9
S'.421'
p268
sg11
S'523'
p269
sg13
g3
sg14
S'.421'
p270
sg16
S'1243'
p271
sg18
g3
sg19
S'PF'
p272
sg21
S'1263'
p273
sg23
S'901'
p274
sg25
S'NBA'
p275
sg27
g3
sg28
S'.421'
p276
sg30
g3
sg31
S'237'
p277
sg33
g3
sg34
S'30'
p278
sg36
S'NYK'
p279
sg38
S'81'
p280
sg40
g3
sg41
S'217'
p281
sg43
S'220'
p282
sg45
S'312'
p283
sg47
g3
sg48
S'1970-71'
p284
sg50
S'1243'
p285
sg52
g3
sg53
S'.696'
p286
sg55
S'523'
p287
sg57
S'2891'
p288
sba(isrc.gp1.models.Totals
Totals
p289
(dp290
g8
g3
sg9
S'.427'
p291
sg11
S'520'
p292
sg13
g3
sg14
S'.427'
p293
sg16
S'1218'
p294
sg18
g3
sg19
S'PF'
p295
sg21
S'1233'
p296
sg23
S'901'
p297
sg25
S'NBA'
p298
sg27
g3
sg28
S'.427'
p299
sg30
g3
sg31
S'219'
p300
sg33
g3
sg34
S'31'
p301
sg36
S'NYK'
p302
sg38
S'80'
p303
sg40
g3
sg41
S'193'
p304
sg43
S'291'
p305
sg45
S'265'
p306
sg47
g3
sg48
S'1971-72'
p307
sg50
S'1218'
p308
sg52
g3
sg53
S'.728'
p309
sg55
S'520'
p310
sg57
S'3072'
p311
sba(isrc.gp1.models.Totals
Totals
p312
(dp313
g8
g3
sg9
S'.435'
p314
sg11
S'532'
p315
sg13
g3
sg14
S'.435'
p316
sg16
S'1224'
p317
sg18
g3
sg19
S'PF'
p318
sg21
S'1258'
p319
sg23
S'787'
p320
sg25
S'NBA'
p321
sg27
g3
sg28
S'.435'
p322
sg30
g3
sg31
S'215'
p323
sg33
g3
sg34
S'32'
p324
sg36
S'NYK'
p325
sg38
S'77'
p326
sg40
g3
sg41
S'194'
p327
sg43
S'259'
p328
sg45
S'260'
p329
sg47
g3
sg48
S'1972-73'
p330
sg50
S'1224'
p331
sg52
g3
sg53
S'.746'
p332
sg55
S'532'
p333
sg57
S'2827'
p334
sba(isrc.gp1.models.Totals
Totals
p335
(dp336
g8
S'67'
p337
sg9
S'.461'
p338
sg11
S'559'
p339
sg13
S'1282'
p340
sg14
S'.461'
p341
sg16
S'1212'
p342
sg18
g3
sg19
S'PF'
p343
sg21
S'253'
p344
sg23
S'134'
p345
sg25
S'NBA'
p346
sg27
g3
sg28
S'.461'
p347
sg30
g3
sg31
S'757'
p348
sg33
S'222'
p349
sg34
S'33'
p350
sg36
S'NYK'
p351
sg38
S'71'
p352
sg40
g3
sg41
S'164'
p353
sg43
S'623'
p354
sg45
S'217'
p355
sg47
S'39'
p356
sg48
S'1973-74'
p357
sg50
S'1212'
p358
sg52
g3
sg53
S'.756'
p359
sg55
S'559'
p360
sg57
S'2699'
p361
sbasS'_college'
p362
S'University of Detroit Mercy'
p363
sS'_toYear'
p364
S'1974'
p365
sS'_height'
p366
S'6-6'
p367
sS'_active'
p368
I00
sS'_shootingHand'
p369
VRight
p370
sS'_name'
p371
S'Dave DeBusschere'
p372
sS'_per100Possessions'
p373
(lp374
(isrc.gp1.models.Per100Possession
Per100Possession
p375
(dp376
g8
S'1.2'
p377
sg9
S'.461'
p378
sg11
S'9.6'
p379
sS'_offensiveRating'
p380
g3
sg13
S'22.0'
p381
sg14
S'2.8'
p382
sg16
S'20.8'
p383
sg18
g3
sg19
S'PF'
p384
sS'_defensiveRating'
p385
g3
sg21
S'4.3'
p386
sg25
S'NBA'
p387
sg27
S'93'
p388
sg28
S'.461'
p389
sg30
g3
sg31
S'13.0'
p390
sg33
S'3.8'
p391
sg34
S'33'
p392
sg36
S'NYK'
p393
sg38
S'71'
p394
sg40
g3
sg41
S'3.7'
p395
sg43
S'10.7'
p396
sg45
S'.756'
p397
sg47
S'0.7'
p398
sg48
S'1973-74'
p399
sg50
S'20.8'
p400
sg52
g3
sg53
S'2.3'
p401
sg55
S'9.6'
p402
sg57
S'2699'
p403
sbasS'_advanced'
p404
(lp405
(isrc.gp1.models.Advanced
Advanced
p406
(dp407
S'_offensiveReboundPercentage'
p408
S'2.3'
p409
sS'_turnOverPercentage'
p410
g3
sS'_winSharesPer48Minutes'
p411
g3
sS'_stealPercentage'
p412
g3
sS'_usagePercentage'
p413
g3
sS'_totalReboundsPercentage'
p414
S'.074'
p415
sS'_defensiveBoxPlusMinus'
p416
g3
sg19
S'SF'
p417
sS'_valueOverReplacementPlayer'
p418
g3
sS'_trueShootingPercentage'
p419
S'.476'
p420
sS'_defensiveReboundPercentage'
p421
S'3.6'
p422
sS'_freeThrowsAttempRate'
p423
S'1.3'
p424
sS'_threePointsAttempRate'
p425
S'.304'
p426
sg25
S'NBA'
p427
sS'_offensiveBoxPlusMinues'
p428
g3
sS'_assistPercentage'
p429
g3
sS'_defensiveWinShares'
p430
g3
sg34
S'22'
p431
sg36
S'DET'
p432
sg38
S'80'
p433
sS'_blockPercentage'
p434
g3
sS'_playerEfficiencyRating'
p435
S'14.5'
p436
sS'_offensiveWinShares'
p437
g3
sg55
S'2352'
p438
sS'_boxPlusMinus'
p439
g3
sg48
S'1962-63'
p440
sS'_winShares'
p441
g3
sba(isrc.gp1.models.Advanced
Advanced
p442
(dp443
g408
S'0.2'
p444
sg410
g3
sg411
g3
sg412
g3
sg413
g3
sg414
S'-0.003'
p445
sg416
g3
sg19
S'SF'
p446
sg418
g3
sg419
S'.425'
p447
sg421
S'0.0'
p448
sg423
S'-0.2'
p449
sg425
S'.323'
p450
sg25
S'NBA'
p451
sg428
g3
sg429
g3
sg430
g3
sg34
S'23'
p452
sg36
S'DET'
p453
sg38
S'15'
p454
sg434
g3
sg435
S'13.9'
p455
sg437
g3
sg55
S'304'
p456
sg439
g3
sg48
S'1963-64'
p457
sg441
g3
sba(isrc.gp1.models.Advanced
Advanced
p458
(dp459
g408
S'2.8'
p460
sg410
g3
sg411
g3
sg412
g3
sg413
g3
sg414
S'6.6'
p461
sg416
g3
sg19
S'PF'
p462
sg418
g3
sg419
S'.476'
p463
sg421
S'3.7'
p464
sg423
S'12.8'
p465
sg425
S'.365'
p466
sg25
S'NBA'
p467
sg428
g3
sg429
S'.114'
p468
sg430
g3
sg34
S'24'
p469
sg36
S'DET'
p470
sg38
S'79'
p471
sg434
g3
sg435
S'17.4'
p472
sg437
g3
sg55
S'2769'
p473
sg439
g3
sg48
S'1964-65'
p474
sg441
g3
sba(isrc.gp1.models.Advanced
Advanced
p475
(dp476
g408
S'-0.1'
p477
sg410
g3
sg411
g3
sg412
g3
sg413
g3
sg414
S'3.7'
p478
sg416
g3
sg19
S'SF'
p479
sg418
g3
sg419
S'.447'
p480
sg421
S'3.7'
p481
sg423
S'10.9'
p482
sg425
S'.294'
p483
sg25
S'NBA'
p484
sg428
g3
sg429
S'.065'
p485
sg430
g3
sg34
S'25'
p486
sg36
S'DET'
p487
sg38
S'79'
p488
sg434
g3
sg435
S'15.7'
p489
sg437
g3
sg55
S'2696'
p490
sg439
g3
sg48
S'1965-66'
p491
sg441
g3
sba(isrc.gp1.models.Advanced
Advanced
p492
(dp493
g408
S'1.6'
p494
sg410
g3
sg411
g3
sg412
g3
sg413
g3
sg414
S'5.9'
p495
sg416
g3
sg19
S'SF'
p496
sg418
g3
sg419
S'.473'
p497
sg421
S'4.3'
p498
sg423
S'10.4'
p499
sg425
S'.401'
p500
sg25
S'NBA'
p501
sg428
g3
sg429
S'.097'
p502
sg430
g3
sg34
S'26'
p503
sg36
S'DET'
p504
sg38
S'78'
p505
sg434
g3
sg435
S'16.2'
p506
sg437
g3
sg55
S'2897'
p507
sg439
g3
sg48
S'1966-67'
p508
sg441
g3
sba(isrc.gp1.models.Advanced
Advanced
p509
(dp510
g408
S'1.8'
p511
sg410
g3
sg411
g3
sg412
g3
sg413
g3
sg414
S'4.7'
p512
sg416
g3
sg19
S'SF'
p513
sg418
g3
sg419
S'.483'
p514
sg421
S'2.9'
p515
sg423
S'7.6'
p516
sg425
S'.336'
p517
sg25
S'NBA'
p518
sg428
g3
sg429
S'.072'
p519
sg430
g3
sg34
S'27'
p520
sg36
S'DET'
p521
sg38
S'80'
p522
sg434
g3
sg435
S'15.0'
p523
sg437
g3
sg55
S'3125'
p524
sg439
g3
sg48
S'1967-68'
p525
sg441
g3
sba(isrc.gp1.models.Advanced
Advanced
p526
(dp527
g408
S'2.2'
p528
sg410
g3
sg411
g3
sg412
g3
sg413
g3
sg414
S'5.2'
p529
sg416
g3
sg19
S'PF'
p530
sg418
g3
sg419
S'.483'
p531
sg421
S'3.0'
p532
sg423
S'8.8'
p533
sg425
S'.288'
p534
sg25
S'NBA'
p535
sg428
g3
sg429
S'.085'
p536
sg430
g3
sg34
S'28'
p537
sg36
S'TOT'
p538
sg38
S'76'
p539
sg434
g3
sg435
S'14.4'
p540
sg437
g3
sg55
S'2943'
p541
sg439
g3
sg48
S'1968-69'
p542
sg441
g3
sba(isrc.gp1.models.Advanced
Advanced
p543
(dp544
g408
S'1.0'
p545
sg410
g3
sg411
g3
sg412
g3
sg413
g3
sg414
S'1.5'
p546
sg416
g3
sg19
S'PF'
p547
sg418
g3
sg419
S'.491'
p548
sg421
S'0.5'
p549
sg423
S'7.8'
p550
sg425
S'.307'
p551
sg25
S'NBA'
p552
sg428
g3
sg429
S'.064'
p553
sg430
g3
sg34
S'28'
p554
sg36
S'DET'
p555
sg38
S'29'
p556
sg434
g3
sg435
S'14.7'
p557
sg437
g3
sg55
S'1092'
p558
sg439
g3
sg48
S'1968-69'
p559
sg441
g3
sba(isrc.gp1.models.Advanced
Advanced
p560
(dp561
g408
S'1.2'
p562
sg410
g3
sg411
g3
sg412
g3
sg413
g3
sg414
S'3.8'
p563
sg416
g3
sg19
S'PF'
p564
sg418
g3
sg419
S'.478'
p565
sg421
S'2.6'
p566
sg423
S'9.4'
p567
sg425
S'.276'
p568
sg25
S'NBA'
p569
sg428
g3
sg429
S'.097'
p570
sg430
g3
sg34
S'28'
p571
sg36
S'NYK'
p572
sg38
S'47'
p573
sg434
g3
sg435
S'14.3'
p574
sg437
g3
sg55
S'1851'
p575
sg439
g3
sg48
S'1968-69'
p576
sg441
g3
sba(isrc.gp1.models.Advanced
Advanced
p577
(dp578
g408
S'0.7'
p579
sg410
g3
sg411
g3
sg412
g3
sg413
g3
sg414
S'6.6'
p580
sg416
g3
sg19
S'PF'
p581
sg418
g3
sg419
S'.482'
p582
sg421
S'5.8'
p583
sg423
S'9.5'
p584
sg425
S'.237'
p585
sg25
S'NBA'
p586
sg428
g3
sg429
S'.120'
p587
sg430
g3
sg34
S'29'
p588
sg36
S'NYK'
p589
sg38
S'79'
p590
sg434
g3
sg435
S'14.8'
p591
sg437
g3
sg55
S'2627'
p592
sg439
g3
sg48
S'1969-70'
p593
sg441
g3
sba(isrc.gp1.models.Advanced
Advanced
p594
(dp595
g408
S'10.3'
p596
sg410
g3
sg411
g3
sg412
S'.102'
p597
sg413
g3
sg414
S'6.4'
p598
sg416
g3
sg19
S'PF'
p599
sg418
g3
sg419
S'.458'
p600
sg421
S'-0.2'
p601
sg423
S'14.2'
p602
sg425
S'.251'
p603
sg25
S'NBA'
p604
sg428
g3
sg429
S'6.2'
p605
sg430
g3
sg34
S'30'
p606
sg36
S'NYK'
p607
sg38
S'81'
p608
sg434
g3
sg435
S'15.4'
p609
sg437
g3
sg55
S'2891'
p610
sg439
g3
sg48
S'1970-71'
p611
sg441
g3
sba(isrc.gp1.models.Advanced
Advanced
p612
(dp613
g408
S'13.2'
p614
sg410
g3
sg411
g3
sg412
S'.075'
p615
sg413
g3
sg414
S'4.9'
p616
sg416
g3
sg19
S'PF'
p617
sg418
g3
sg419
S'.462'
p618
sg421
S'-0.2'
p619
sg423
S'14.4'
p620
sg425
S'.218'
p621
sg25
S'NBA'
p622
sg428
g3
sg429
S'4.8'
p623
sg430
g3
sg34
S'31'
p624
sg36
S'NYK'
p625
sg38
S'80'
p626
sg434
g3
sg435
S'15.0'
p627
sg437
g3
sg55
S'3072'
p628
sg439
g3
sg48
S'1971-72'
p629
sg441
g3
sba(isrc.gp1.models.Advanced
Advanced
p630
(dp631
g408
S'12.5'
p632
sg410
g3
sg411
g3
sg412
S'.113'
p633
sg413
g3
sg414
S'5.8'
p634
sg416
g3
sg19
S'PF'
p635
sg418
g3
sg419
S'.470'
p636
sg421
S'0.9'
p637
sg423
S'13.8'
p638
sg425
S'.212'
p639
sg25
S'NBA'
p640
sg428
g3
sg429
S'6.6'
p641
sg430
g3
sg34
S'32'
p642
sg36
S'NYK'
p643
sg38
S'77'
p644
sg434
g3
sg435
S'16.0'
p645
sg437
g3
sg55
S'2827'
p646
sg439
g3
sg48
S'1972-73'
p647
sg441
g3
sba(isrc.gp1.models.Advanced
Advanced
p648
(dp649
g408
S'24.2'
p650
sg410
S'4.6'
p651
sg411
S'1.7'
p652
sg412
S'0.8'
p653
sg413
S'7.0'
p654
sg414
S'13.9'
p655
sg416
g3
sg19
S'PF'
p656
sg418
g3
sg419
S'.490'
p657
sg421
S'14.8'
p658
sg423
S'5.2'
p659
sg425
S'.179'
p660
sg25
S'NBA'
p661
sg428
S'2.5'
p662
sg429
S'1.2'
p663
sg430
S'0.1'
p664
sg34
S'33'
p665
sg36
S'NYK'
p666
sg38
S'71'
p667
sg434
S'2.4'
p668
sg435
S'16.3'
p669
sg437
S'.125'
p670
sg55
S'2699'
p671
sg439
g3
sg48
S'1973-74'
p672
sg441
S'1.6'
p673
sbasS'_per36Minutes'
p674
(lp675
(isrc.gp1.models.Per36Minutes
Per36Minutes
p676
(dp677
g8
g3
sg9
S'.430'
p678
sg11
S'6.2'
p679
sg13
g3
sg14
S'3.2'
p680
sg16
S'14.4'
p681
sg18
g3
sg19
S'SF'
p682
sg21
S'15.6'
p683
sg25
S'NBA'
p684
sg27
g3
sg28
S'.430'
p685
sg30
g3
sg31
S'3.8'
p686
sg33
g3
sg34
S'22'
p687
sg36
S'DET'
p688
sg38
S'80'
p689
sg40
g3
sg41
S'4.4'
p690
sg43
S'3.2'
p691
sg45
S'.718'
p692
sg47
g3
sg48
S'1962-63'
p693
sg50
S'14.4'
p694
sg52
g3
sg53
S'10.6'
p695
sg55
S'6.2'
p696
sg57
S'2352'
p697
sba(isrc.gp1.models.Per36Minutes
Per36Minutes
p698
(dp699
g8
g3
sg9
S'.391'
p700
sg11
S'6.2'
p701
sg13
g3
sg14
S'3.0'
p702
sg16
S'15.8'
p703
sg18
g3
sg19
S'SF'
p704
sg21
S'15.3'
p705
sg25
S'NBA'
p706
sg27
g3
sg28
S'.391'
p707
sg30
g3
sg31
S'3.8'
p708
sg33
g3
sg34
S'23'
p709
sg36
S'DET'
p710
sg38
S'15'
p711
sg40
g3
sg41
S'5.1'
p712
sg43
S'2.7'
p713
sg45
S'.581'
p714
sg47
g3
sg48
S'1963-64'
p715
sg50
S'15.8'
p716
sg52
g3
sg53
S'12.4'
p717
sg55
S'6.2'
p718
sg57
S'304'
p719
sba(isrc.gp1.models.Per36Minutes
Per36Minutes
p720
(dp721
g8
g3
sg9
S'.425'
p722
sg11
S'6.6'
p723
sg13
g3
sg14
S'4.0'
p724
sg16
S'15.5'
p725
sg18
g3
sg19
S'PF'
p726
sg21
S'17.2'
p727
sg25
S'NBA'
p728
sg27
g3
sg28
S'.425'
p729
sg30
g3
sg31
S'3.1'
p730
sg33
g3
sg34
S'24'
p731
sg36
S'DET'
p732
sg38
S'79'
p733
sg40
g3
sg41
S'5.7'
p734
sg43
S'3.3'
p735
sg45
S'.700'
p736
sg47
g3
sg48
S'1964-65'
p737
sg50
S'15.5'
p738
sg52
g3
sg53
S'11.4'
p739
sg55
S'6.6'
p740
sg57
S'2769'
p741
sba(isrc.gp1.models.Per36Minutes
Per36Minutes
p742
(dp743
g8
g3
sg9
S'.408'
p744
sg11
S'7.0'
p745
sg13
g3
sg14
S'3.3'
p746
sg16
S'17.1'
p747
sg18
g3
sg19
S'SF'
p748
sg21
S'17.3'
p749
sg25
S'NBA'
p750
sg27
g3
sg28
S'.408'
p751
sg30
g3
sg31
S'3.4'
p752
sg33
g3
sg34
S'25'
p753
sg36
S'DET'
p754
sg38
S'79'
p755
sg40
g3
sg41
S'5.0'
p756
sg43
S'2.8'
p757
sg45
S'.659'
p758
sg47
g3
sg48
S'1965-66'
p759
sg50
S'17.1'
p760
sg52
g3
sg53
S'12.2'
p761
sg55
S'7.0'
p762
sg57
S'2696'
p763
sba(isrc.gp1.models.Per36Minutes
Per36Minutes
p764
(dp765
g8
g3
sg9
S'.415'
p766
sg11
S'6.6'
p767
sg13
g3
sg14
S'4.5'
p768
sg16
S'15.9'
p769
sg18
g3
sg19
S'SF'
p770
sg21
S'17.7'
p771
sg25
S'NBA'
p772
sg27
g3
sg28
S'.415'
p773
sg30
g3
sg31
S'3.7'
p774
sg33
g3
sg34
S'26'
p775
sg36
S'DET'
p776
sg38
S'78'
p777
sg40
g3
sg41
S'6.4'
p778
sg43
S'2.7'
p779
sg45
S'.705'
p780
sg47
g3
sg48
S'1966-67'
p781
sg50
S'15.9'
p782
sg52
g3
sg53
S'11.5'
p783
sg55
S'6.6'
p784
sg57
S'2897'
p785
sba(isrc.gp1.models.Per36Minutes
Per36Minutes
p786
(dp787
g8
g3
sg9
S'.442'
p788
sg11
S'6.6'
p789
sg13
g3
sg14
S'3.3'
p790
sg16
S'14.9'
p791
sg18
g3
sg19
S'SF'
p792
sg21
S'16.5'
p793
sg25
S'NBA'
p794
sg27
g3
sg28
S'.442'
p795
sg30
g3
sg31
S'3.5'
p796
sg33
g3
sg34
S'27'
p797
sg36
S'DET'
p798
sg38
S'80'
p799
sg40
g3
sg41
S'5.0'
p800
sg43
S'2.1'
p801
sg45
S'.664'
p802
sg47
g3
sg48
S'1967-68'
p803
sg50
S'14.9'
p804
sg52
g3
sg53
S'12.5'
p805
sg55
S'6.6'
p806
sg57
S'3125'
p807
sba(isrc.gp1.models.Per36Minutes
Per36Minutes
p808
(dp809
g8
g3
sg9
S'.444'
p810
sg11
S'6.2'
p811
sg13
g3
sg14
S'2.8'
p812
sg16
S'13.9'
p813
sg18
g3
sg19
S'PF'
p814
sg21
S'15.2'
p815
sg25
S'NBA'
p816
sg27
g3
sg28
S'.444'
p817
sg30
g3
sg31
S'3.5'
p818
sg33
g3
sg34
S'28'
p819
sg36
S'TOT'
p820
sg38
S'76'
p821
sg40
g3
sg41
S'4.0'
p822
sg43
S'2.3'
p823
sg45
S'.698'
p824
sg47
g3
sg48
S'1968-69'
p825
sg50
S'13.9'
p826
sg52
g3
sg53
S'10.9'
p827
sg55
S'6.2'
p828
sg57
S'2943'
p829
sba(isrc.gp1.models.Per36Minutes
Per36Minutes
p830
(dp831
g8
g3
sg9
S'.447'
p832
sg11
S'6.2'
p833
sg13
g3
sg14
S'3.1'
p834
sg16
S'13.9'
p835
sg18
g3
sg19
S'PF'
p836
sg21
S'15.6'
p837
sg25
S'NBA'
p838
sg27
g3
sg28
S'.447'
p839
sg30
g3
sg31
S'3.7'
p840
sg33
g3
sg34
S'28'
p841
sg36
S'DET'
p842
sg38
S'29'
p843
sg40
g3
sg41
S'4.3'
p844
sg43
S'2.1'
p845
sg45
S'.723'
p846
sg47
g3
sg48
S'1968-69'
p847
sg50
S'13.9'
p848
sg52
g3
sg53
S'11.6'
p849
sg55
S'6.2'
p850
sg57
S'1092'
p851
sba(isrc.gp1.models.Per36Minutes
Per36Minutes
p852
(dp853
g8
g3
sg9
S'.442'
p854
sg11
S'6.2'
p855
sg13
g3
sg14
S'2.6'
p856
sg16
S'13.9'
p857
sg18
g3
sg19
S'PF'
p858
sg21
S'15.0'
p859
sg25
S'NBA'
p860
sg27
g3
sg28
S'.442'
p861
sg30
g3
sg31
S'3.5'
p862
sg33
g3
sg34
S'28'
p863
sg36
S'NYK'
p864
sg38
S'47'
p865
sg40
g3
sg41
S'3.9'
p866
sg43
S'2.5'
p867
sg45
S'.682'
p868
sg47
g3
sg48
S'1968-69'
p869
sg50
S'13.9'
p870
sg52
g3
sg53
S'10.4'
p871
sg55
S'6.2'
p872
sg57
S'1851'
p873
sba(isrc.gp1.models.Per36Minutes
Per36Minutes
p874
(dp875
g8
g3
sg9
S'.451'
p876
sg11
S'6.7'
p877
sg13
g3
sg14
S'2.4'
p878
sg16
S'14.8'
p879
sg18
g3
sg19
S'PF'
p880
sg21
S'15.8'
p881
sg25
S'NBA'
p882
sg27
g3
sg28
S'.451'
p883
sg30
g3
sg31
S'3.3'
p884
sg33
g3
sg34
S'29'
p885
sg36
S'NYK'
p886
sg38
S'79'
p887
sg40
g3
sg41
S'3.5'
p888
sg43
S'2.7'
p889
sg45
S'.688'
p890
sg47
g3
sg48
S'1969-70'
p891
sg50
S'14.8'
p892
sg52
g3
sg53
S'10.8'
p893
sg55
S'6.7'
p894
sg57
S'2627'
p895
sba(isrc.gp1.models.Per36Minutes
Per36Minutes
p896
(dp897
g8
g3
sg9
S'.421'
p898
sg11
S'6.5'
p899
sg13
g3
sg14
S'2.7'
p900
sg16
S'15.5'
p901
sg18
g3
sg19
S'PF'
p902
sg21
S'15.7'
p903
sg25
S'NBA'
p904
sg27
g3
sg28
S'.421'
p905
sg30
g3
sg31
S'3.0'
p906
sg33
g3
sg34
S'30'
p907
sg36
S'NYK'
p908
sg38
S'81'
p909
sg40
g3
sg41
S'3.9'
p910
sg43
S'2.7'
p911
sg45
S'.696'
p912
sg47
g3
sg48
S'1970-71'
p913
sg50
S'15.5'
p914
sg52
g3
sg53
S'11.2'
p915
sg55
S'6.5'
p916
sg57
S'2891'
p917
sba(isrc.gp1.models.Per36Minutes
Per36Minutes
p918
(dp919
g8
g3
sg9
S'.427'
p920
sg11
S'6.1'
p921
sg13
g3
sg14
S'2.3'
p922
sg16
S'14.3'
p923
sg18
g3
sg19
S'PF'
p924
sg21
S'14.4'
p925
sg25
S'NBA'
p926
sg27
g3
sg28
S'.427'
p927
sg30
g3
sg31
S'2.6'
p928
sg33
g3
sg34
S'31'
p929
sg36
S'NYK'
p930
sg38
S'80'
p931
sg40
g3
sg41
S'3.1'
p932
sg43
S'3.4'
p933
sg45
S'.728'
p934
sg47
g3
sg48
S'1971-72'
p935
sg50
S'14.3'
p936
sg52
g3
sg53
S'10.6'
p937
sg55
S'6.1'
p938
sg57
S'3072'
p939
sba(isrc.gp1.models.Per36Minutes
Per36Minutes
p940
(dp941
g8
g3
sg9
S'.435'
p942
sg11
S'6.8'
p943
sg13
g3
sg14
S'2.5'
p944
sg16
S'15.6'
p945
sg18
g3
sg19
S'PF'
p946
sg21
S'16.0'
p947
sg25
S'NBA'
p948
sg27
g3
sg28
S'.435'
p949
sg30
g3
sg31
S'2.7'
p950
sg33
g3
sg34
S'32'
p951
sg36
S'NYK'
p952
sg38
S'77'
p953
sg40
g3
sg41
S'3.3'
p954
sg43
S'3.3'
p955
sg45
S'.746'
p956
sg47
g3
sg48
S'1972-73'
p957
sg50
S'15.6'
p958
sg52
g3
sg53
S'10.0'
p959
sg55
S'6.8'
p960
sg57
S'2827'
p961
sba(isrc.gp1.models.Per36Minutes
Per36Minutes
p962
(dp963
g8
S'0.9'
p964
sg9
S'.461'
p965
sg11
S'7.5'
p966
sg13
S'17.1'
p967
sg14
S'2.2'
p968
sg16
S'16.2'
p969
sg18
g3
sg19
S'PF'
p970
sg21
S'3.4'
p971
sg25
S'NBA'
p972
sg27
g3
sg28
S'.461'
p973
sg30
g3
sg31
S'10.1'
p974
sg33
S'3.0'
p975
sg34
S'33'
p976
sg36
S'NYK'
p977
sg38
S'71'
p978
sg40
g3
sg41
S'2.9'
p979
sg43
S'8.3'
p980
sg45
S'.756'
p981
sg47
S'0.5'
p982
sg48
S'1973-74'
p983
sg50
S'16.2'
p984
sg52
g3
sg53
S'1.8'
p985
sg55
S'7.5'
p986
sg57
S'2699'
p987
sbasS'_fromYear'
p988
S'1963'
p989
sS'_url'
p990
S'http://www.basketball-reference.com/players/d/debusda01.html'
p991
sS'_perGame'
p992
(isrc.gp1.models.PerGame
PerGame
p993
(dp994
g8
S'0.9'
p995
sg9
S'.461'
p996
sg11
S'7.9'
p997
sS'_effectiveFieldGalPercentage'
p998
S'1.9'
p999
sg13
S'18.1'
p1000
sg14
S'.461'
p1001
sg16
S'17.1'
p1002
sg18
g3
sg19
S'PF'
p1003
sg21
S'3.6'
p1004
sg25
S'NBA'
p1005
sg27
g3
sg30
g3
sS'_fieldGoalsttempted'
p1006
S'.461'
p1007
sg31
S'10.7'
p1008
sg33
S'3.1'
p1009
sg34
S'33'
p1010
sg36
S'NYK'
p1011
sg38
S'71'
p1012
sg40
g3
sg41
S'2.3'
p1013
sg43
S'8.8'
p1014
sg45
S'3.1'
p1015
sg47
S'0.5'
p1016
sg48
S'1973-74'
p1017
sg50
S'17.1'
p1018
sg52
g3
sg53
S'.756'
p1019
sg55
S'7.9'
p1020
sg57
S'38.0'
p1021
sbsS'_weight'
p1022
S'220'
p1023
sS'_dob'
p1024
S'16-10-1940'
p1025
sS'_salary'
p1026
(lp1027
sg19
S'F-G'
p1028
sb.