(isrc.gp1.models.Player
Player
p0
(dp1
S'_experience'
p2
S'NA'
p3
sS'_totals'
p4
(lp5
(isrc.gp1.models.Totals
Totals
p6
(dp7
S'_offensiveRebounds'
p8
S'297'
p9
sS'_threePointsAttempted'
p10
S'.158'
p11
sS'_fieldGoalsPercentage'
p12
S'3'
p13
sS'_assist'
p14
S'136'
p15
sS'_threePointsPercentage'
p16
S'804'
p17
sS'_threePoints'
p18
S'19'
p19
sS'_points'
p20
g3
sS'_position'
p21
S'SF'
p22
sS'_freeThrowsPercentage'
p23
S'228'
p24
sS'_effectiveFieldGoalPercentage'
p25
S'541'
p26
sS'_league'
p27
S'ABA'
p28
sS'_steals'
p29
S'102'
p30
sS'_fieldGoalsAttempted'
p31
S'.515'
p32
sS'_personalFouls'
p33
S'2158'
p34
sS'_freeThrowsAttempted'
p35
S'.794'
p36
sS'_totalRebounds'
p37
S'308'
p38
sS'_age'
p39
S'21'
p40
sS'_team'
p41
S'DNA'
p42
sS'_games'
p43
S'83'
p44
sS'_blocks'
p45
S'250'
p46
sS'_twoPoints'
p47
S'1548'
p48
sS'_freeThrows'
p49
S'681'
p50
sS'_twoPointsAttempted'
p51
S'.519'
p52
sS'_defensiveRebounds'
p53
S'525'
p54
sS'_season'
p55
S'1975-76'
p56
sS'_fieldGoals'
p57
S'1567'
p58
sS'_turnOvers'
p59
S'282'
p60
sS'_twoPointsPercentage'
p61
S'.516'
p62
sS'_minutesPlayed'
p63
S'807'
p64
sS'_gamesStarted'
p65
S'3101'
p66
sba(isrc.gp1.models.Totals
Totals
p67
(dp68
g8
S'114'
p69
sg10
S'.507'
p70
sg12
S'824'
p71
sg14
S'2125'
p72
sg16
S'.507'
p73
sg18
S'1626'
p74
sg20
g3
sg21
S'SG'
p75
sg23
S'337'
p76
sg25
S'138'
p77
sg27
S'NBA'
p78
sg29
g3
sg31
S'.507'
p79
sg33
g3
sg35
S'334'
p80
sg37
S'236'
p81
sg39
S'22'
p82
sg41
S'DEN'
p83
sg43
S'82'
p84
sg45
g3
sg47
S'477'
p85
sg49
S'196'
p86
sg51
S'623'
p87
sg53
S'53'
p88
sg55
S'1976-77'
p89
sg57
S'1626'
p90
sg59
g3
sg61
S'.766'
p91
sg63
S'824'
p92
sg65
S'3001'
p93
sba(isrc.gp1.models.Totals
Totals
p94
(dp95
g8
S'92'
p96
sg10
S'.521'
p97
sg12
S'826'
p98
sg14
S'213'
p99
sg16
S'.521'
p100
sg18
S'1584'
p101
sg20
g3
sg21
S'SG'
p102
sg23
S'362'
p103
sg25
S'156'
p104
sg27
S'NBA'
p105
sg29
S'2172'
p106
sg31
S'.521'
p107
sg33
g3
sg35
S'390'
p108
sg37
S'245'
p109
sg39
S'23'
p110
sg41
S'DEN'
p111
sg43
S'80'
p112
sg45
g3
sg47
S'520'
p113
sg49
S'234'
p114
sg51
S'668'
p115
sg53
S'99'
p116
sg55
S'1977-78'
p117
sg57
S'1584'
p118
sg59
g3
sg61
S'.778'
p119
sg63
S'826'
p120
sg65
S'3025'
p121
sba(isrc.gp1.models.Totals
Totals
p122
(dp123
g8
S'70'
p124
sg10
S'.512'
p125
sg12
S'693'
p126
sg14
S'180'
p127
sg16
S'.512'
p128
sg18
S'1353'
p129
sg20
g3
sg21
S'SG'
p130
sg23
S'225'
p131
sg25
S'109'
p132
sg27
S'NBA'
p133
sg29
S'1825'
p134
sg31
S'.512'
p135
sg33
g3
sg35
S'274'
p136
sg37
S'186'
p137
sg39
S'24'
p138
sg41
S'DEN'
p139
sg43
S'76'
p140
sg45
g3
sg47
S'439'
p141
sg49
S'165'
p142
sg51
S'583'
p143
sg53
S'82'
p144
sg55
S'1978-79'
p145
sg57
S'1353'
p146
sg59
g3
sg61
S'.753'
p147
sg63
S'693'
p148
sg65
S'2670'
p149
sba(isrc.gp1.models.Totals
Totals
p150
(dp151
g8
S'118'
p152
sg10
S'.368'
p153
sg12
S'7'
p154
sg14
S'39'
p155
sg16
S'282'
p156
sg18
S'19'
p157
sg20
g3
sg21
S'SG'
p158
sg23
S'56'
p159
sg25
S'254'
p160
sg27
S'NBA'
p161
sg29
S'38'
p162
sg31
S'.468'
p163
sg33
S'839'
p164
sg35
S'.758'
p165
sg37
S'124'
p166
sg39
S'25'
p167
sg41
S'DEN'
p168
sg43
S'39'
p169
sg45
S'116'
p170
sg47
S'598'
p171
sg49
S'335'
p172
sg51
S'.472'
p173
sg53
S'174'
p174
sg55
S'1979-80'
p175
sg57
S'617'
p176
sg59
S'106'
p177
sg61
S'.474'
p178
sg63
S'289'
p179
sg65
S'1239'
p180
sba(isrc.gp1.models.Totals
Totals
p181
(dp182
g8
S'180'
p183
sg10
S'.256'
p184
sg12
S'10'
p185
sg14
S'53'
p186
sg16
S'724'
p187
sg18
S'39'
p188
sg20
g3
sg21
S'SG'
p189
sg23
S'107'
p190
sg25
S'489'
p191
sg27
S'NBA'
p192
sg29
S'60'
p193
sg31
S'.506'
p194
sg33
S'1967'
p195
sg35
S'.795'
p196
sg37
S'231'
p197
sg39
S'26'
p198
sg41
S'DEN'
p199
sg43
S'77'
p200
sg45
S'250'
p201
sg47
S'1412'
p202
sg49
S'615'
p203
sg51
S'.513'
p204
sg53
S'287'
p205
sg55
S'1980-81'
p206
sg57
S'1451'
p207
sg59
S'231'
p208
sg61
S'.509'
p209
sg63
S'734'
p210
sg65
S'2620'
p211
sba(isrc.gp1.models.Totals
Totals
p212
(dp213
g8
S'57'
p214
sg10
S'14'
p215
sg12
S'.486'
p216
sg14
S'117'
p217
sg16
S'.286'
p218
sg18
S'4'
p219
sg20
S'906'
p220
sg21
S'SG'
p221
sg23
S'.814'
p222
sg25
S'.489'
p223
sg27
S'NBA'
p224
sg29
S'34'
p225
sg31
S'644'
p226
sg33
S'149'
p227
sg35
S'339'
p228
sg37
S'148'
p229
sg39
S'27'
p230
sg41
S'DEN'
p231
sg43
S'61'
p232
sg45
S'29'
p233
sg47
S'309'
p234
sg49
S'276'
p235
sg51
S'630'
p236
sg53
S'91'
p237
sg55
S'1981-82'
p238
sg57
S'313'
p239
sg59
S'142'
p240
sg61
S'.490'
p241
sg63
S'1246'
p242
sg65
S'5'
p243
sba(isrc.gp1.models.Totals
Totals
p244
(dp245
g8
S'96'
p246
sg10
S'10'
p247
sg12
S'.481'
p248
sg14
S'222'
p249
sg16
S'.200'
p250
sg18
S'2'
p251
sg20
S'1190'
p252
sg21
S'SG'
p253
sg23
S'.784'
p254
sg25
S'.482'
p255
sg27
S'NBA'
p256
sg29
S'47'
p257
sg31
S'925'
p258
sg33
S'142'
p259
sg35
S'380'
p260
sg37
S'270'
p261
sg39
S'28'
p262
sg41
S'SEA'
p263
sg43
S'75'
p264
sg45
S'33'
p265
sg47
S'443'
p266
sg49
S'298'
p267
sg51
S'915'
p268
sg53
S'174'
p269
sg55
S'1982-83'
p270
sg57
S'445'
p271
sg59
S'163'
p272
sg61
S'.484'
p273
sg63
S'2155'
p274
sg65
S'64'
p275
sba(isrc.gp1.models.Totals
Totals
p276
(dp277
g8
S'18'
p278
sg10
S'1'
p279
sg12
S'.539'
p280
sg14
S'13'
p281
sg16
S'.000'
p282
sg18
S'0'
p283
sg20
S'240'
p284
sg21
S'SG'
p285
sg23
S'.849'
p286
sg25
S'.539'
p287
sg27
S'NBA'
p288
sg29
S'10'
p289
sg31
S'165'
p290
sg33
S'30'
p291
sg35
S'73'
p292
sg37
S'44'
p293
sg39
S'29'
p294
sg41
S'SEA'
p295
sg43
S'19'
p296
sg45
S'13'
p297
sg47
S'89'
p298
sg49
S'62'
p299
sg51
S'164'
p300
sg53
S'26'
p301
sg55
S'1983-84'
p302
sg57
S'89'
p303
sg59
S'27'
p304
sg61
S'.543'
p305
sg63
S'349'
p306
sg65
g283
sbasS'_college'
p307
S'North Carolina State University'
p308
sS'_toYear'
p309
S'1984'
p310
sS'_height'
p311
S'6-4'
p312
sS'_active'
p313
I00
sS'_shootingHand'
p314
VRight
p315
sS'_name'
p316
S'David Thompson'
p317
sS'_per100Possessions'
p318
(lp319
(isrc.gp1.models.Per100Possession
Per100Possession
p320
(dp321
g8
S'4.1'
p322
sg10
S'.158'
p323
sg12
S'0.0'
p324
sS'_offensiveRating'
p325
S'105'
p326
sg14
S'1.9'
p327
sg16
S'11.2'
p328
sg18
S'0.3'
p329
sg20
S'116'
p330
sg21
S'SF'
p331
sS'_defensiveRating'
p332
g3
sg23
S'3.2'
p333
sg27
S'ABA'
p334
sg29
S'1.4'
p335
sg31
S'.515'
p336
sg33
S'30.0'
p337
sg35
S'.794'
p338
sg37
S'4.3'
p339
sg39
S'21'
p340
sg41
S'DNA'
p341
sg43
S'83'
p342
sg45
S'3.5'
p343
sg47
S'21.5'
p344
sg49
S'9.5'
p345
sg51
S'.519'
p346
sg53
S'7.3'
p347
sg55
S'1975-76'
p348
sg57
S'21.8'
p349
sg59
S'3.9'
p350
sg61
S'7.5'
p351
sg63
S'11.2'
p352
sg65
S'3101'
p353
sba(isrc.gp1.models.Per100Possession
Per100Possession
p354
(dp355
g8
S'1.6'
p356
sg10
S'.507'
p357
sg12
S'11.8'
p358
sg325
g3
sg14
S'30.6'
p359
sg16
S'6.9'
p360
sg18
S'23.4'
p361
sg20
g3
sg21
S'SG'
p362
sg332
g3
sg23
S'4.8'
p363
sg27
S'NBA'
p364
sg29
S'99'
p365
sg31
S'.507'
p366
sg33
g3
sg35
S'4.8'
p367
sg37
S'3.4'
p368
sg39
S'22'
p369
sg41
S'DEN'
p370
sg43
S'82'
p371
sg45
g3
sg47
S'9.0'
p372
sg49
S'2.8'
p373
sg51
S'.766'
p374
sg53
S'0.8'
p375
sg55
S'1976-77'
p376
sg57
S'23.4'
p377
sg59
g3
sg61
S'2.0'
p378
sg63
S'11.8'
p379
sg65
S'3001'
p380
sba(isrc.gp1.models.Per100Possession
Per100Possession
p381
(dp382
g8
S'1.3'
p383
sg10
S'.521'
p384
sg12
S'12.1'
p385
sg325
g3
sg14
S'3.1'
p386
sg16
S'7.6'
p387
sg18
S'23.2'
p388
sg20
g3
sg21
S'SG'
p389
sg332
g3
sg23
S'5.3'
p390
sg27
S'NBA'
p391
sg29
S'31.8'
p392
sg31
S'.521'
p393
sg33
g3
sg35
S'5.7'
p394
sg37
S'3.6'
p395
sg39
S'23'
p396
sg41
S'DEN'
p397
sg43
S'80'
p398
sg45
S'114'
p399
sg47
S'9.8'
p400
sg49
S'3.4'
p401
sg51
S'.778'
p402
sg53
S'1.4'
p403
sg55
S'1977-78'
p404
sg57
S'23.2'
p405
sg59
S'104'
p406
sg61
S'2.3'
p407
sg63
S'12.1'
p408
sg65
S'3025'
p409
sba(isrc.gp1.models.Per100Possession
Per100Possession
p410
(dp411
g8
S'1.2'
p412
sg10
S'.512'
p413
sg12
S'11.8'
p414
sg325
g3
sg14
S'3.1'
p415
sg16
S'7.5'
p416
sg18
S'23.0'
p417
sg20
g3
sg21
S'SG'
p418
sg332
g3
sg23
S'3.8'
p419
sg27
S'NBA'
p420
sg29
S'31.0'
p421
sg31
S'.512'
p422
sg33
g3
sg35
S'4.7'
p423
sg37
S'3.2'
p424
sg39
S'24'
p425
sg41
S'DEN'
p426
sg43
S'76'
p427
sg45
S'114'
p428
sg47
S'9.9'
p429
sg49
S'2.8'
p430
sg51
S'.753'
p431
sg53
S'1.4'
p432
sg55
S'1978-79'
p433
sg57
S'23.0'
p434
sg59
S'106'
p435
sg61
S'1.9'
p436
sg63
S'11.8'
p437
sg65
S'2670'
p438
sba(isrc.gp1.models.Per100Possession
Per100Possession
p439
(dp440
g8
S'4.4'
p441
sg10
S'.368'
p442
sg12
S'0.3'
p443
sg325
S'109'
p444
sg14
S'1.5'
p445
sg16
S'10.5'
p446
sg18
S'0.7'
p447
sg20
S'108'
p448
sg21
S'SG'
p449
sg332
g3
sg23
S'2.1'
p450
sg27
S'NBA'
p451
sg29
S'1.4'
p452
sg31
S'.468'
p453
sg33
S'31.3'
p454
sg35
S'.758'
p455
sg37
S'4.6'
p456
sg39
S'25'
p457
sg41
S'DEN'
p458
sg43
S'39'
p459
sg45
S'4.3'
p460
sg47
S'22.3'
p461
sg49
S'12.5'
p462
sg51
S'.472'
p463
sg53
S'6.5'
p464
sg55
S'1979-80'
p465
sg57
S'23.0'
p466
sg59
S'4.0'
p467
sg61
S'9.5'
p468
sg63
S'10.8'
p469
sg65
S'1239'
p470
sba(isrc.gp1.models.Per100Possession
Per100Possession
p471
(dp472
g8
S'3.0'
p473
sg10
S'.256'
p474
sg12
S'0.2'
p475
sg325
S'113'
p476
sg14
S'0.9'
p477
sg16
S'12.1'
p478
sg18
S'0.7'
p479
sg20
S'111'
p480
sg21
S'SG'
p481
sg332
g3
sg23
S'1.8'
p482
sg27
S'NBA'
p483
sg29
S'1.0'
p484
sg31
S'.506'
p485
sg33
S'32.8'
p486
sg35
S'.795'
p487
sg37
S'3.9'
p488
sg39
S'26'
p489
sg41
S'DEN'
p490
sg43
S'77'
p491
sg45
S'4.2'
p492
sg47
S'23.6'
p493
sg49
S'10.3'
p494
sg51
S'.513'
p495
sg53
S'4.8'
p496
sg55
S'1980-81'
p497
sg57
S'24.2'
p498
sg59
S'3.9'
p499
sg61
S'8.2'
p500
sg63
S'12.2'
p501
sg65
S'2620'
p502
sba(isrc.gp1.models.Per100Possession
Per100Possession
p503
(dp504
g8
S'2.0'
p505
sg10
S'0.5'
p506
sg12
S'.486'
p507
sg325
S'108'
p508
sg14
S'4.1'
p509
sg16
S'.286'
p510
sg18
S'0.1'
p511
sg20
S'31.8'
p512
sg21
S'SG'
p513
sg332
S'116'
p514
sg23
S'.814'
p515
sg27
S'NBA'
p516
sg29
S'1.2'
p517
sg31
S'22.6'
p518
sg33
S'5.2'
p519
sg35
S'11.9'
p520
sg37
S'5.2'
p521
sg39
S'27'
p522
sg41
S'DEN'
p523
sg43
S'61'
p524
sg45
S'1.0'
p525
sg47
S'10.8'
p526
sg49
S'9.7'
p527
sg51
S'22.1'
p528
sg53
S'3.2'
p529
sg55
S'1981-82'
p530
sg57
S'11.0'
p531
sg59
S'5.0'
p532
sg61
S'.490'
p533
sg63
S'1246'
p534
sg65
g243
sba(isrc.gp1.models.Per100Possession
Per100Possession
p535
(dp536
g8
S'2.1'
p537
sg10
S'0.2'
p538
sg12
S'.481'
p539
sg325
S'108'
p540
sg14
S'4.8'
p541
sg16
S'.200'
p542
sg18
S'0.0'
p543
sg20
S'25.7'
p544
sg21
S'SG'
p545
sg332
S'106'
p546
sg23
S'.784'
p547
sg27
S'NBA'
p548
sg29
S'1.0'
p549
sg31
S'20.0'
p550
sg33
S'3.1'
p551
sg35
S'8.2'
p552
sg37
S'5.8'
p553
sg39
S'28'
p554
sg41
S'SEA'
p555
sg43
S'75'
p556
sg45
S'0.7'
p557
sg47
S'9.6'
p558
sg49
S'6.4'
p559
sg51
S'19.8'
p560
sg53
S'3.8'
p561
sg55
S'1982-83'
p562
sg57
S'9.6'
p563
sg59
S'3.5'
p564
sg61
S'.484'
p565
sg63
S'2155'
p566
sg65
S'64'
p567
sba(isrc.gp1.models.Per100Possession
Per100Possession
p568
(dp569
g8
S'2.5'
p570
sg10
S'0.1'
p571
sg12
S'.539'
p572
sg325
S'114'
p573
sg14
S'1.8'
p574
sg16
S'.000'
p575
sg18
S'0.0'
p576
sg20
S'33.1'
p577
sg21
S'SG'
p578
sg332
S'109'
p579
sg23
S'.849'
p580
sg27
S'NBA'
p581
sg29
S'1.4'
p582
sg31
S'22.8'
p583
sg33
S'4.1'
p584
sg35
S'10.1'
p585
sg37
S'6.1'
p586
sg39
S'29'
p587
sg41
S'SEA'
p588
sg43
S'19'
p589
sg45
S'1.8'
p590
sg47
S'12.3'
p591
sg49
S'8.6'
p592
sg51
S'22.6'
p593
sg53
S'3.6'
p594
sg55
S'1983-84'
p595
sg57
S'12.3'
p596
sg59
S'3.7'
p597
sg61
S'.543'
p598
sg63
S'349'
p599
sg65
g283
sbasS'_advanced'
p600
(lp601
(isrc.gp1.models.Advanced
Advanced
p602
(dp603
S'_offensiveReboundPercentage'
p604
S'7.7'
p605
sS'_turnOverPercentage'
p606
S'11.8'
p607
sS'_winSharesPer48Minutes'
p608
S'.193'
p609
sS'_stealPercentage'
p610
S'1.9'
p611
sS'_usagePercentage'
p612
S'25.3'
p613
sS'_totalReboundsPercentage'
p614
S'8.3'
p615
sS'_defensiveBoxPlusMinus'
p616
S'-0.4'
p617
sg21
S'SF'
p618
sS'_valueOverReplacementPlayer'
p619
S'4.3'
p620
sS'_trueShootingPercentage'
p621
S'.578'
p622
sS'_defensiveReboundPercentage'
p623
S'8.8'
p624
sS'_freeThrowsAttempRate'
p625
S'.435'
p626
sS'_threePointsAttempRate'
p627
S'.012'
p628
sg27
S'ABA'
p629
sS'_offensiveBoxPlusMinues'
p630
S'3.9'
p631
sS'_assistPercentage'
p632
S'13.4'
p633
sS'_defensiveWinShares'
p634
S'3.0'
p635
sg39
S'21'
p636
sg41
S'DNA'
p637
sg43
S'83'
p638
sS'_blockPercentage'
p639
S'1.6'
p640
sS'_playerEfficiencyRating'
p641
S'21.1'
p642
sS'_offensiveWinShares'
p643
S'9.5'
p644
sg63
S'3101'
p645
sS'_boxPlusMinus'
p646
S'3.5'
p647
sg55
S'1975-76'
p648
sS'_winShares'
p649
S'12.4'
p650
sba(isrc.gp1.models.Advanced
Advanced
p651
(dp652
g604
S'6.5'
p653
sg606
S'3.1'
p654
sg608
S'2.9'
p655
sg610
S'0.9'
p656
sg612
S'10.7'
p657
sg614
S'17.7'
p658
sg616
g3
sg21
S'SG'
p659
sg619
g3
sg621
S'.559'
p660
sg623
S'5.7'
p661
sg625
S'4.8'
p662
sg627
S'.383'
p663
sg27
S'NBA'
p664
sg630
S'3.7'
p665
sg632
S'1.6'
p666
sg634
S'3.9'
p667
sg39
S'22'
p668
sg41
S'DEN'
p669
sg43
S'82'
p670
sg639
S'7.6'
p671
sg641
S'19.8'
p672
sg643
S'.172'
p673
sg63
S'3001'
p674
sg646
g3
sg55
S'1976-77'
p675
sg649
S'-1.0'
p676
sba(isrc.gp1.models.Advanced
Advanced
p677
(dp678
g604
S'7.7'
p679
sg606
S'26.8'
p680
sg608
S'5.1'
p681
sg610
S'1.7'
p682
sg612
S'10.8'
p683
sg614
S'19.3'
p684
sg616
S'3.6'
p685
sg21
S'SG'
p686
sg619
g3
sg621
S'.578'
p687
sg623
S'6.6'
p688
sg625
S'5.5'
p689
sg627
S'.422'
p690
sg27
S'NBA'
p691
sg630
S'-1.5'
p692
sg632
S'1.3'
p693
sg634
S'12.7'
p694
sg39
S'23'
p695
sg41
S'DEN'
p696
sg43
S'80'
p697
sg639
S'11.5'
p698
sg641
S'23.2'
p699
sg643
S'1.9'
p700
sg63
S'3025'
p701
sg646
S'4.3'
p702
sg55
S'1977-78'
p703
sg649
S'.202'
p704
sba(isrc.gp1.models.Advanced
Advanced
p705
(dp706
g604
S'6.4'
p707
sg606
S'25.9'
p708
sg608
S'2.9'
p709
sg610
S'1.6'
p710
sg612
S'7.4'
p711
sg614
S'13.3'
p712
sg616
S'1.3'
p713
sg21
S'SG'
p714
sg619
g3
sg621
S'.567'
p715
sg623
S'5.4'
p716
sg625
S'4.3'
p717
sg627
S'.431'
p718
sg27
S'NBA'
p719
sg630
S'-1.6'
p720
sg632
S'1.2'
p721
sg634
S'9.5'
p722
sg39
S'24'
p723
sg41
S'DEN'
p724
sg43
S'76'
p725
sg639
S'10.4'
p726
sg641
S'19.9'
p727
sg643
S'2.1'
p728
sg63
S'2670'
p729
sg646
S'2.2'
p730
sg55
S'1978-79'
p731
sg649
S'.171'
p732
sba(isrc.gp1.models.Advanced
Advanced
p733
(dp734
g604
S'4.6'
p735
sg606
S'13.2'
p736
sg608
S'.116'
p737
sg610
S'1.5'
p738
sg612
S'27.8'
p739
sg614
S'7.3'
p740
sg616
S'-1.6'
p741
sg21
S'SG'
p742
sg619
S'0.6'
p743
sg621
S'.549'
p744
sg623
S'10.2'
p745
sg625
S'.543'
p746
sg627
S'.031'
p747
sg27
S'NBA'
p748
sg630
S'1.5'
p749
sg632
S'15.6'
p750
sg634
S'0.8'
p751
sg39
S'25'
p752
sg41
S'DEN'
p753
sg43
S'39'
p754
sg639
S'1.6'
p755
sg641
S'19.0'
p756
sg643
S'2.2'
p757
sg63
S'1239'
p758
sg646
S'-0.2'
p759
sg55
S'1979-80'
p760
sg649
S'3.0'
p761
sba(isrc.gp1.models.Advanced
Advanced
p762
(dp763
g604
S'4.1'
p764
sg606
S'12.7'
p765
sg608
S'.117'
p766
sg610
S'0.9'
p767
sg612
S'27.9'
p768
sg614
S'5.6'
p769
sg616
S'-2.9'
p770
sg21
S'SG'
p771
sg619
S'1.3'
p772
sg621
S'.571'
p773
sg623
S'7.2'
p774
sg625
S'.424'
p775
sg627
S'.027'
p776
sg27
S'NBA'
p777
sg630
S'2.8'
p778
sg632
S'13.2'
p779
sg634
S'0.4'
p780
sg39
S'26'
p781
sg41
S'DEN'
p782
sg43
S'77'
p783
sg639
S'1.2'
p784
sg641
S'19.4'
p785
sg643
S'6.0'
p786
sg63
S'2620'
p787
sg646
S'0.0'
p788
sg55
S'1980-81'
p789
sg649
S'6.4'
p790
sba(isrc.gp1.models.Advanced
Advanced
p791
(dp792
g604
S'5.0'
p793
sg606
S'15.2'
p794
sg608
S'.079'
p795
sg610
S'1.2'
p796
sg612
S'28.5'
p797
sg614
S'6.4'
p798
sg616
S'-3.8'
p799
sg21
S'SG'
p800
sg619
S'-0.4'
p801
sg621
S'.571'
p802
sg623
S'7.6'
p803
sg625
S'.526'
p804
sg627
S'.022'
p805
sg27
S'NBA'
p806
sg630
S'0.5'
p807
sg632
S'12.5'
p808
sg634
S'0.0'
p809
sg39
S'27'
p810
sg41
S'DEN'
p811
sg43
S'61'
p812
sg639
S'1.2'
p813
sg641
S'17.6'
p814
sg643
S'2.1'
p815
sg63
S'1246'
p816
sg646
S'-3.3'
p817
sg55
S'1981-82'
p818
sg649
S'2.0'
p819
sba(isrc.gp1.models.Advanced
Advanced
p820
(dp821
g604
S'5.0'
p822
sg606
S'13.0'
p823
sg608
S'.120'
p824
sg610
S'1.0'
p825
sg612
S'23.3'
p826
sg614
S'6.7'
p827
sg616
S'-1.0'
p828
sg21
S'SG'
p829
sg619
S'1.0'
p830
sg621
S'.545'
p831
sg623
S'8.2'
p832
sg625
S'.411'
p833
sg627
S'.011'
p834
sg27
S'NBA'
p835
sg630
S'0.8'
p836
sg632
S'14.7'
p837
sg634
S'1.8'
p838
sg39
S'28'
p839
sg41
S'SEA'
p840
sg43
S'75'
p841
sg639
S'0.8'
p842
sg641
S'16.1'
p843
sg643
S'3.6'
p844
sg63
S'2155'
p845
sg646
S'-0.2'
p846
sg55
S'1982-83'
p847
sg649
S'5.4'
p848
sba(isrc.gp1.models.Advanced
Advanced
p849
(dp850
g604
S'5.9'
p851
sg606
S'12.0'
p852
sg608
S'.144'
p853
sg610
S'1.4'
p854
sg612
S'26.7'
p855
sg614
S'7.2'
p856
sg616
S'-2.3'
p857
sg21
S'SG'
p858
sg619
S'0.0'
p859
sg621
S'.609'
p860
sg623
S'8.4'
p861
sg625
S'.442'
p862
sg627
S'.006'
p863
sg27
S'NBA'
p864
sg630
S'0.7'
p865
sg632
S'6.0'
p866
sg634
S'0.3'
p867
sg39
S'29'
p868
sg41
S'SEA'
p869
sg43
S'19'
p870
sg639
S'2.1'
p871
sg641
S'20.0'
p872
sg643
S'0.8'
p873
sg63
S'349'
p874
sg646
S'-1.5'
p875
sg55
S'1983-84'
p876
sg649
S'1.0'
p877
sbasS'_per36Minutes'
p878
(lp879
(isrc.gp1.models.Per36Minutes
Per36Minutes
p880
(dp881
g8
S'3.4'
p882
sg10
S'.158'
p883
sg12
S'0.0'
p884
sg14
S'1.6'
p885
sg16
S'9.3'
p886
sg18
S'0.2'
p887
sg20
g3
sg21
S'SF'
p888
sg23
S'2.6'
p889
sg27
S'ABA'
p890
sg29
S'1.2'
p891
sg31
S'.515'
p892
sg33
S'25.1'
p893
sg35
S'.794'
p894
sg37
S'3.6'
p895
sg39
S'21'
p896
sg41
S'DNA'
p897
sg43
S'83'
p898
sg45
S'2.9'
p899
sg47
S'18.0'
p900
sg49
S'7.9'
p901
sg51
S'.519'
p902
sg53
S'6.1'
p903
sg55
S'1975-76'
p904
sg57
S'18.2'
p905
sg59
S'3.3'
p906
sg61
S'6.3'
p907
sg63
S'9.4'
p908
sg65
S'3101'
p909
sba(isrc.gp1.models.Per36Minutes
Per36Minutes
p910
(dp911
g8
S'1.4'
p912
sg10
S'.507'
p913
sg12
S'9.9'
p914
sg14
S'25.5'
p915
sg16
S'5.7'
p916
sg18
S'19.5'
p917
sg20
g3
sg21
S'SG'
p918
sg23
S'4.0'
p919
sg27
S'NBA'
p920
sg29
g3
sg31
S'.507'
p921
sg33
g3
sg35
S'4.0'
p922
sg37
S'2.8'
p923
sg39
S'22'
p924
sg41
S'DEN'
p925
sg43
S'82'
p926
sg45
g3
sg47
S'7.5'
p927
sg49
S'2.4'
p928
sg51
S'.766'
p929
sg53
S'0.6'
p930
sg55
S'1976-77'
p931
sg57
S'19.5'
p932
sg59
g3
sg61
S'1.7'
p933
sg63
S'9.9'
p934
sg65
S'3001'
p935
sba(isrc.gp1.models.Per36Minutes
Per36Minutes
p936
(dp937
g8
S'1.1'
p938
sg10
S'.521'
p939
sg12
S'9.8'
p940
sg14
S'2.5'
p941
sg16
S'6.2'
p942
sg18
S'18.9'
p943
sg20
g3
sg21
S'SG'
p944
sg23
S'4.3'
p945
sg27
S'NBA'
p946
sg29
S'25.8'
p947
sg31
S'.521'
p948
sg33
g3
sg35
S'4.6'
p949
sg37
S'2.9'
p950
sg39
S'23'
p951
sg41
S'DEN'
p952
sg43
S'80'
p953
sg45
g3
sg47
S'7.9'
p954
sg49
S'2.8'
p955
sg51
S'.778'
p956
sg53
S'1.2'
p957
sg55
S'1977-78'
p958
sg57
S'18.9'
p959
sg59
g3
sg61
S'1.9'
p960
sg63
S'9.8'
p961
sg65
S'3025'
p962
sba(isrc.gp1.models.Per36Minutes
Per36Minutes
p963
(dp964
g8
S'0.9'
p965
sg10
S'.512'
p966
sg12
S'9.3'
p967
sg14
S'2.4'
p968
sg16
S'5.9'
p969
sg18
S'18.2'
p970
sg20
g3
sg21
S'SG'
p971
sg23
S'3.0'
p972
sg27
S'NBA'
p973
sg29
S'24.6'
p974
sg31
S'.512'
p975
sg33
g3
sg35
S'3.7'
p976
sg37
S'2.5'
p977
sg39
S'24'
p978
sg41
S'DEN'
p979
sg43
S'76'
p980
sg45
g3
sg47
S'7.9'
p981
sg49
S'2.2'
p982
sg51
S'.753'
p983
sg53
S'1.1'
p984
sg55
S'1978-79'
p985
sg57
S'18.2'
p986
sg59
g3
sg61
S'1.5'
p987
sg63
S'9.3'
p988
sg65
S'2670'
p989
sba(isrc.gp1.models.Per36Minutes
Per36Minutes
p990
(dp991
g8
S'3.4'
p992
sg10
S'.368'
p993
sg12
S'0.2'
p994
sg14
S'1.1'
p995
sg16
S'8.2'
p996
sg18
S'0.6'
p997
sg20
g3
sg21
S'SG'
p998
sg23
S'1.6'
p999
sg27
S'NBA'
p1000
sg29
S'1.1'
p1001
sg31
S'.468'
p1002
sg33
S'24.4'
p1003
sg35
S'.758'
p1004
sg37
S'3.6'
p1005
sg39
S'25'
p1006
sg41
S'DEN'
p1007
sg43
S'39'
p1008
sg45
S'3.4'
p1009
sg47
S'17.4'
p1010
sg49
S'9.7'
p1011
sg51
S'.472'
p1012
sg53
S'5.1'
p1013
sg55
S'1979-80'
p1014
sg57
S'17.9'
p1015
sg59
S'3.1'
p1016
sg61
S'7.4'
p1017
sg63
S'8.4'
p1018
sg65
S'1239'
p1019
sba(isrc.gp1.models.Per36Minutes
Per36Minutes
p1020
(dp1021
g8
S'2.5'
p1022
sg10
S'.256'
p1023
sg12
S'0.1'
p1024
sg14
S'0.7'
p1025
sg16
S'9.9'
p1026
sg18
S'0.5'
p1027
sg20
g3
sg21
S'SG'
p1028
sg23
S'1.5'
p1029
sg27
S'NBA'
p1030
sg29
S'0.8'
p1031
sg31
S'.506'
p1032
sg33
S'27.0'
p1033
sg35
S'.795'
p1034
sg37
S'3.2'
p1035
sg39
S'26'
p1036
sg41
S'DEN'
p1037
sg43
S'77'
p1038
sg45
S'3.4'
p1039
sg47
S'19.4'
p1040
sg49
S'8.5'
p1041
sg51
S'.513'
p1042
sg53
S'3.9'
p1043
sg55
S'1980-81'
p1044
sg57
S'19.9'
p1045
sg59
S'3.2'
p1046
sg61
S'6.7'
p1047
sg63
S'10.1'
p1048
sg65
S'2620'
p1049
sba(isrc.gp1.models.Per36Minutes
Per36Minutes
p1050
(dp1051
g8
S'1.6'
p1052
sg10
S'0.4'
p1053
sg12
S'.486'
p1054
sg14
S'3.4'
p1055
sg16
S'.286'
p1056
sg18
S'0.1'
p1057
sg20
S'26.2'
p1058
sg21
S'SG'
p1059
sg23
S'.814'
p1060
sg27
S'NBA'
p1061
sg29
S'1.0'
p1062
sg31
S'18.6'
p1063
sg33
S'4.3'
p1064
sg35
S'9.8'
p1065
sg37
S'4.3'
p1066
sg39
S'27'
p1067
sg41
S'DEN'
p1068
sg43
S'61'
p1069
sg45
S'0.8'
p1070
sg47
S'8.9'
p1071
sg49
S'8.0'
p1072
sg51
S'18.2'
p1073
sg53
S'2.6'
p1074
sg55
S'1981-82'
p1075
sg57
S'9.0'
p1076
sg59
S'4.1'
p1077
sg61
S'.490'
p1078
sg63
S'1246'
p1079
sg65
g243
sba(isrc.gp1.models.Per36Minutes
Per36Minutes
p1080
(dp1081
g8
S'1.6'
p1082
sg10
S'0.2'
p1083
sg12
S'.481'
p1084
sg14
S'3.7'
p1085
sg16
S'.200'
p1086
sg18
S'0.0'
p1087
sg20
S'19.9'
p1088
sg21
S'SG'
p1089
sg23
S'.784'
p1090
sg27
S'NBA'
p1091
sg29
S'0.8'
p1092
sg31
S'15.5'
p1093
sg33
S'2.4'
p1094
sg35
S'6.3'
p1095
sg37
S'4.5'
p1096
sg39
S'28'
p1097
sg41
S'SEA'
p1098
sg43
S'75'
p1099
sg45
S'0.6'
p1100
sg47
S'7.4'
p1101
sg49
S'5.0'
p1102
sg51
S'15.3'
p1103
sg53
S'2.9'
p1104
sg55
S'1982-83'
p1105
sg57
S'7.4'
p1106
sg59
S'2.7'
p1107
sg61
S'.484'
p1108
sg63
S'2155'
p1109
sg65
S'64'
p1110
sba(isrc.gp1.models.Per36Minutes
Per36Minutes
p1111
(dp1112
g8
S'1.9'
p1113
sg10
S'0.1'
p1114
sg12
S'.539'
p1115
sg14
S'1.3'
p1116
sg16
S'.000'
p1117
sg18
S'0.0'
p1118
sg20
S'24.8'
p1119
sg21
S'SG'
p1120
sg23
S'.849'
p1121
sg27
S'NBA'
p1122
sg29
S'1.0'
p1123
sg31
S'17.0'
p1124
sg33
S'3.1'
p1125
sg35
S'7.5'
p1126
sg37
S'4.5'
p1127
sg39
S'29'
p1128
sg41
S'SEA'
p1129
sg43
S'19'
p1130
sg45
S'1.3'
p1131
sg47
S'9.2'
p1132
sg49
S'6.4'
p1133
sg51
S'16.9'
p1134
sg53
S'2.7'
p1135
sg55
S'1983-84'
p1136
sg57
S'9.2'
p1137
sg59
S'2.8'
p1138
sg61
S'.543'
p1139
sg63
S'349'
p1140
sg65
g283
sbasS'_fromYear'
p1141
S'1976'
p1142
sS'_url'
p1143
S'http://www.basketball-reference.com/players/t/thompda01.html'
p1144
sS'_perGame'
p1145
(isrc.gp1.models.PerGame
PerGame
p1146
(dp1147
g8
S'0.9'
p1148
sg10
S'0.1'
p1149
sg12
S'.539'
p1150
sS'_effectiveFieldGalPercentage'
p1151
S'.539'
p1152
sg14
S'0.7'
p1153
sg16
S'.000'
p1154
sg18
S'0.0'
p1155
sg20
S'12.6'
p1156
sg21
S'SG'
p1157
sg23
S'.849'
p1158
sg27
S'NBA'
p1159
sg29
S'0.5'
p1160
sg33
S'1.6'
p1161
sS'_fieldGoalsttempted'
p1162
S'8.7'
p1163
sg35
S'3.8'
p1164
sg37
S'2.3'
p1165
sg39
S'29'
p1166
sg41
S'SEA'
p1167
sg43
S'19'
p1168
sg45
S'0.7'
p1169
sg47
S'4.7'
p1170
sg49
S'3.3'
p1171
sg51
S'8.6'
p1172
sg53
S'1.4'
p1173
sg55
S'1983-84'
p1174
sg57
S'4.7'
p1175
sg59
S'1.4'
p1176
sg61
S'.543'
p1177
sg63
S'18.4'
p1178
sg65
g283
sbsS'_weight'
p1179
S'195'
p1180
sS'_dob'
p1181
S'13-7-1954'
p1182
sS'_salary'
p1183
(lp1184
sg21
S'G-F'
p1185
sb.