(isrc.gp1.models.Player
Player
p0
(dp1
S'_experience'
p2
S'NA'
p3
sS'_totals'
p4
(lp5
(isrc.gp1.models.Totals
Totals
p6
(dp7
S'_offensiveRebounds'
p8
g3
sS'_threePointsAttempted'
p9
g3
sS'_fieldGoalsPercentage'
p10
S'.367'
p11
sS'_assist'
p12
S'58'
p13
sS'_threePointsPercentage'
p14
g3
sS'_threePoints'
p15
g3
sS'_points'
p16
S'399'
p17
sS'_position'
p18
S'PF'
p19
sS'_freeThrowsPercentage'
p20
S'.644'
p21
sS'_effectiveFieldGoalPercentage'
p22
S'.367'
p23
sS'_league'
p24
S'NBA'
p25
sS'_steals'
p26
g3
sS'_fieldGoalsAttempted'
p27
S'455'
p28
sS'_personalFouls'
p29
S'207'
p30
sS'_freeThrowsAttempted'
p31
S'101'
p32
sS'_totalRebounds'
p33
S'435'
p34
sS'_age'
p35
S'23'
p36
sS'_team'
p37
S'PHW'
p38
sS'_games'
p39
S'68'
p40
sS'_blocks'
p41
g3
sS'_twoPoints'
p42
S'167'
p43
sS'_freeThrows'
p44
S'65'
p45
sS'_twoPointsAttempted'
p46
S'455'
p47
sS'_defensiveRebounds'
p48
g3
sS'_season'
p49
S'1953-54'
p50
sS'_fieldGoals'
p51
S'167'
p52
sS'_turnOvers'
p53
g3
sS'_twoPointsPercentage'
p54
S'.367'
p55
sS'_minutesPlayed'
p56
S'1568'
p57
sS'_gamesStarted'
p58
g3
sba(isrc.gp1.models.Totals
Totals
p59
(dp60
g8
g3
sg9
g3
sg10
S'.385'
p61
sg12
S'36'
p62
sg14
g3
sg15
g3
sg16
S'175'
p63
sg18
S'C'
p64
sg20
S'.729'
p65
sg22
S'.385'
p66
sg24
S'NBA'
p67
sg26
g3
sg27
S'182'
p68
sg29
S'100'
p69
sg31
S'48'
p70
sg33
S'206'
p71
sg35
S'24'
p72
sg37
S'PHW'
p73
sg39
S'61'
p74
sg41
g3
sg42
S'70'
p75
sg44
S'35'
p76
sg46
S'182'
p77
sg48
g3
sg49
S'1954-55'
p78
sg51
S'70'
p79
sg53
g3
sg54
S'.385'
p80
sg56
S'766'
p81
sg58
g3
sba(isrc.gp1.models.Totals
Totals
p82
(dp83
g8
g3
sg9
g3
sg10
S'.369'
p84
sg12
S'56'
p85
sg14
g3
sg15
g3
sg16
S'323'
p86
sg18
S'PF'
p87
sg20
S'.688'
p88
sg22
S'.369'
p89
sg24
S'NBA'
p90
sg26
g3
sg27
S'333'
p91
sg29
S'230'
p92
sg31
S'112'
p93
sg33
S'276'
p94
sg35
S'25'
p95
sg37
S'PHW'
p96
sg39
S'70'
p97
sg41
g3
sg42
S'123'
p98
sg44
S'77'
p99
sg46
S'333'
p100
sg48
g3
sg49
S'1955-56'
p101
sg51
S'123'
p102
sg53
g3
sg54
S'.369'
p103
sg56
S'1097'
p104
sg58
g3
sba(isrc.gp1.models.Totals
Totals
p105
(dp106
g8
g3
sg9
g3
sg10
S'.407'
p107
sg12
S'52'
p108
sg14
g3
sg15
g3
sg16
S'430'
p109
sg18
S'PF'
p110
sg20
S'.698'
p111
sg22
S'.407'
p112
sg24
S'NBA'
p113
sg26
g3
sg27
S'437'
p114
sg29
S'235'
p115
sg31
S'106'
p116
sg33
S'306'
p117
sg35
S'26'
p118
sg37
S'PHW'
p119
sg39
S'65'
p120
sg41
g3
sg42
S'178'
p121
sg44
S'74'
p122
sg46
S'437'
p123
sg48
g3
sg49
S'1956-57'
p124
sg51
S'178'
p125
sg53
g3
sg54
S'.407'
p126
sg56
S'1250'
p127
sg58
g3
sba(isrc.gp1.models.Totals
Totals
p128
(dp129
g8
g3
sg9
g3
sg10
S'.348'
p130
sg12
S'29'
p131
sg14
g3
sg15
g3
sg16
S'231'
p132
sg18
S'PF'
p133
sg20
S'.744'
p134
sg22
S'.348'
p135
sg24
S'NBA'
p136
sg26
g3
sg27
S'244'
p137
sg29
S'143'
p138
sg31
S'82'
p139
sg33
S'174'
p140
sg35
S'27'
p141
sg37
S'TOT'
p142
sg39
S'61'
p143
sg41
g3
sg42
S'85'
p144
sg44
S'61'
p145
sg46
S'244'
p146
sg48
g3
sg49
S'1957-58'
p147
sg51
S'85'
p148
sg53
g3
sg54
S'.348'
p149
sg56
S'663'
p150
sg58
g3
sba(isrc.gp1.models.Totals
Totals
p151
(dp152
g8
g3
sg9
g3
sg10
S'.341'
p153
sg12
S'18'
p154
sg14
g3
sg15
g3
sg16
S'104'
p155
sg18
S'PF'
p156
sg20
S'.667'
p157
sg22
S'.341'
p158
sg24
S'NBA'
p159
sg26
g3
sg27
S'129'
p160
sg29
S'81'
p161
sg31
S'24'
p162
sg33
S'88'
p163
sg35
S'27'
p164
sg37
S'PHW'
p165
sg39
S'35'
p166
sg41
g3
sg42
S'44'
p167
sg44
S'16'
p168
sg46
S'129'
p169
sg48
g3
sg49
S'1957-58'
p170
sg51
S'44'
p171
sg53
g3
sg54
S'.341'
p172
sg56
S'376'
p173
sg58
g3
sba(isrc.gp1.models.Totals
Totals
p174
(dp175
g8
g3
sg9
g3
sg10
S'.357'
p176
sg12
S'11'
p177
sg14
g3
sg15
g3
sg16
S'127'
p178
sg18
S'PF'
p179
sg20
S'.776'
p180
sg22
S'.357'
p181
sg24
S'NBA'
p182
sg26
g3
sg27
S'115'
p183
sg29
S'62'
p184
sg31
S'58'
p185
sg33
S'86'
p186
sg35
S'27'
p187
sg37
S'STL'
p188
sg39
S'26'
p189
sg41
g3
sg42
S'41'
p190
sg44
S'45'
p191
sg46
S'115'
p192
sg48
g3
sg49
S'1957-58'
p193
sg51
S'41'
p194
sg53
g3
sg54
S'.357'
p195
sg56
S'287'
p196
sg58
g3
sbasS'_college'
p197
S'Texas A&M University'
p198
sS'_toYear'
p199
S'1958'
p200
sS'_height'
p201
S'6-8'
p202
sS'_active'
p203
I00
sS'_shootingHand'
p204
VRight
p205
sS'_name'
p206
S'Walt Davis'
p207
sS'_per100Possessions'
p208
(lp209
sS'_advanced'
p210
(lp211
(isrc.gp1.models.Advanced
Advanced
p212
(dp213
S'_offensiveReboundPercentage'
p214
g3
sS'_turnOverPercentage'
p215
g3
sS'_winSharesPer48Minutes'
p216
S'.028'
p217
sS'_stealPercentage'
p218
g3
sS'_usagePercentage'
p219
g3
sS'_totalReboundsPercentage'
p220
g3
sS'_defensiveBoxPlusMinus'
p221
g3
sg18
S'PF'
p222
sS'_valueOverReplacementPlayer'
p223
g3
sS'_trueShootingPercentage'
p224
S'.399'
p225
sS'_defensiveReboundPercentage'
p226
g3
sS'_freeThrowsAttempRate'
p227
S'.222'
p228
sS'_threePointsAttempRate'
p229
g3
sg24
S'NBA'
p230
sS'_offensiveBoxPlusMinues'
p231
g3
sS'_assistPercentage'
p232
g3
sS'_defensiveWinShares'
p233
S'1.4'
p234
sg35
S'23'
p235
sg37
S'PHW'
p236
sg39
S'68'
p237
sS'_blockPercentage'
p238
g3
sS'_playerEfficiencyRating'
p239
S'11.2'
p240
sS'_offensiveWinShares'
p241
S'-0.5'
p242
sg56
S'1568'
p243
sS'_boxPlusMinus'
p244
g3
sg49
S'1953-54'
p245
sS'_winShares'
p246
S'0.9'
p247
sba(isrc.gp1.models.Advanced
Advanced
p248
(dp249
g214
g3
sg215
g3
sg216
S'.057'
p250
sg218
g3
sg219
g3
sg220
g3
sg221
g3
sg18
g64
sg223
g3
sg224
S'.431'
p251
sg226
g3
sg227
S'.264'
p252
sg229
g3
sg24
S'NBA'
p253
sg231
g3
sg232
g3
sg233
S'0.8'
p254
sg35
S'24'
p255
sg37
S'PHW'
p256
sg39
S'61'
p257
sg238
g3
sg239
S'9.4'
p258
sg241
S'0.1'
p259
sg56
S'766'
p260
sg244
g3
sg49
S'1954-55'
p261
sg246
S'0.9'
p262
sba(isrc.gp1.models.Advanced
Advanced
p263
(dp264
g214
g3
sg215
g3
sg216
S'.036'
p265
sg218
g3
sg219
g3
sg220
g3
sg221
g3
sg18
S'PF'
p266
sg223
g3
sg224
S'.422'
p267
sg226
g3
sg227
S'.336'
p268
sg229
g3
sg24
S'NBA'
p269
sg231
g3
sg232
g3
sg233
S'0.9'
p270
sg35
S'25'
p271
sg37
S'PHW'
p272
sg39
S'70'
p273
sg238
g3
sg239
S'7.7'
p274
sg241
S'0.0'
p275
sg56
S'1097'
p276
sg244
g3
sg49
S'1955-56'
p277
sg246
S'0.8'
p278
sba(isrc.gp1.models.Advanced
Advanced
p279
(dp280
g214
g3
sg215
g3
sg216
S'.060'
p281
sg218
g3
sg219
g3
sg220
g3
sg221
g3
sg18
S'PF'
p282
sg223
g3
sg224
S'.445'
p283
sg226
g3
sg227
S'.243'
p284
sg229
g3
sg24
S'NBA'
p285
sg231
g3
sg232
g3
sg233
S'0.8'
p286
sg35
S'26'
p287
sg37
S'PHW'
p288
sg39
S'65'
p289
sg238
g3
sg239
S'9.8'
p290
sg241
S'0.8'
p291
sg56
S'1250'
p292
sg244
g3
sg49
S'1956-57'
p293
sg246
S'1.6'
p294
sba(isrc.gp1.models.Advanced
Advanced
p295
(dp296
g214
g3
sg215
g3
sg216
S'.041'
p297
sg218
g3
sg219
g3
sg220
g3
sg221
g3
sg18
S'PF'
p298
sg223
g3
sg224
S'.412'
p299
sg226
g3
sg227
S'.336'
p300
sg229
g3
sg24
S'NBA'
p301
sg231
g3
sg232
g3
sg233
S'0.6'
p302
sg35
S'27'
p303
sg37
S'TOT'
p304
sg39
S'61'
p305
sg238
g3
sg239
S'8.0'
p306
sg241
S'-0.1'
p307
sg56
S'663'
p308
sg244
g3
sg49
S'1957-58'
p309
sg246
S'0.6'
p310
sba(isrc.gp1.models.Advanced
Advanced
p311
(dp312
g214
g3
sg215
g3
sg216
S'.002'
p313
sg218
g3
sg219
g3
sg220
g3
sg221
g3
sg18
S'PF'
p314
sg223
g3
sg224
S'.373'
p315
sg226
g3
sg227
S'.186'
p316
sg229
g3
sg24
S'NBA'
p317
sg231
g3
sg232
g3
sg233
S'0.4'
p318
sg35
S'27'
p319
sg37
S'PHW'
p320
sg39
S'35'
p321
sg238
g3
sg239
S'5.2'
p322
sg241
S'-0.4'
p323
sg56
S'376'
p324
sg244
g3
sg49
S'1957-58'
p325
sg246
S'0.0'
p326
sba(isrc.gp1.models.Advanced
Advanced
p327
(dp328
g214
g3
sg215
g3
sg216
S'.092'
p329
sg218
g3
sg219
g3
sg220
g3
sg221
g3
sg18
S'PF'
p330
sg223
g3
sg224
S'.452'
p331
sg226
g3
sg227
S'.504'
p332
sg229
g3
sg24
S'NBA'
p333
sg231
g3
sg232
g3
sg233
S'0.3'
p334
sg35
S'27'
p335
sg37
S'STL'
p336
sg39
S'26'
p337
sg238
g3
sg239
S'11.7'
p338
sg241
S'0.3'
p339
sg56
S'287'
p340
sg244
g3
sg49
S'1957-58'
p341
sg246
S'0.6'
p342
sbasS'_per36Minutes'
p343
(lp344
(isrc.gp1.models.Per36Minutes
Per36Minutes
p345
(dp346
g8
g3
sg9
g3
sg10
S'.367'
p347
sg12
S'1.3'
p348
sg14
g3
sg15
g3
sg16
S'9.2'
p349
sg18
S'PF'
p350
sg20
S'.644'
p351
sg24
S'NBA'
p352
sg26
g3
sg27
S'10.4'
p353
sg29
S'4.8'
p354
sg31
S'2.3'
p355
sg33
S'10.0'
p356
sg35
S'23'
p357
sg37
S'PHW'
p358
sg39
S'68'
p359
sg41
g3
sg42
S'3.8'
p360
sg44
S'1.5'
p361
sg46
S'10.4'
p362
sg48
g3
sg49
S'1953-54'
p363
sg51
S'3.8'
p364
sg53
g3
sg54
S'.367'
p365
sg56
S'1568'
p366
sg58
g3
sba(isrc.gp1.models.Per36Minutes
Per36Minutes
p367
(dp368
g8
g3
sg9
g3
sg10
S'.385'
p369
sg12
S'1.7'
p370
sg14
g3
sg15
g3
sg16
S'8.2'
p371
sg18
g64
sg20
S'.729'
p372
sg24
S'NBA'
p373
sg26
g3
sg27
S'8.6'
p374
sg29
S'4.7'
p375
sg31
S'2.3'
p376
sg33
S'9.7'
p377
sg35
S'24'
p378
sg37
S'PHW'
p379
sg39
S'61'
p380
sg41
g3
sg42
S'3.3'
p381
sg44
S'1.6'
p382
sg46
S'8.6'
p383
sg48
g3
sg49
S'1954-55'
p384
sg51
S'3.3'
p385
sg53
g3
sg54
S'.385'
p386
sg56
S'766'
p387
sg58
g3
sba(isrc.gp1.models.Per36Minutes
Per36Minutes
p388
(dp389
g8
g3
sg9
g3
sg10
S'.369'
p390
sg12
S'1.8'
p391
sg14
g3
sg15
g3
sg16
S'10.6'
p392
sg18
S'PF'
p393
sg20
S'.688'
p394
sg24
S'NBA'
p395
sg26
g3
sg27
S'10.9'
p396
sg29
S'7.5'
p397
sg31
S'3.7'
p398
sg33
S'9.1'
p399
sg35
S'25'
p400
sg37
S'PHW'
p401
sg39
S'70'
p402
sg41
g3
sg42
S'4.0'
p403
sg44
S'2.5'
p404
sg46
S'10.9'
p405
sg48
g3
sg49
S'1955-56'
p406
sg51
S'4.0'
p407
sg53
g3
sg54
S'.369'
p408
sg56
S'1097'
p409
sg58
g3
sba(isrc.gp1.models.Per36Minutes
Per36Minutes
p410
(dp411
g8
g3
sg9
g3
sg10
S'.407'
p412
sg12
S'1.5'
p413
sg14
g3
sg15
g3
sg16
S'12.4'
p414
sg18
S'PF'
p415
sg20
S'.698'
p416
sg24
S'NBA'
p417
sg26
g3
sg27
S'12.6'
p418
sg29
S'6.8'
p419
sg31
S'3.1'
p420
sg33
S'8.8'
p421
sg35
S'26'
p422
sg37
S'PHW'
p423
sg39
S'65'
p424
sg41
g3
sg42
S'5.1'
p425
sg44
S'2.1'
p426
sg46
S'12.6'
p427
sg48
g3
sg49
S'1956-57'
p428
sg51
S'5.1'
p429
sg53
g3
sg54
S'.407'
p430
sg56
S'1250'
p431
sg58
g3
sba(isrc.gp1.models.Per36Minutes
Per36Minutes
p432
(dp433
g8
g3
sg9
g3
sg10
S'.348'
p434
sg12
S'1.6'
p435
sg14
g3
sg15
g3
sg16
S'12.5'
p436
sg18
S'PF'
p437
sg20
S'.744'
p438
sg24
S'NBA'
p439
sg26
g3
sg27
S'13.2'
p440
sg29
S'7.8'
p441
sg31
S'4.5'
p442
sg33
S'9.4'
p443
sg35
S'27'
p444
sg37
S'TOT'
p445
sg39
S'61'
p446
sg41
g3
sg42
S'4.6'
p447
sg44
S'3.3'
p448
sg46
S'13.2'
p449
sg48
g3
sg49
S'1957-58'
p450
sg51
S'4.6'
p451
sg53
g3
sg54
S'.348'
p452
sg56
S'663'
p453
sg58
g3
sba(isrc.gp1.models.Per36Minutes
Per36Minutes
p454
(dp455
g8
g3
sg9
g3
sg10
S'.341'
p456
sg12
S'1.7'
p457
sg14
g3
sg15
g3
sg16
S'10.0'
p458
sg18
S'PF'
p459
sg20
S'.667'
p460
sg24
S'NBA'
p461
sg26
g3
sg27
S'12.4'
p462
sg29
S'7.8'
p463
sg31
S'2.3'
p464
sg33
S'8.4'
p465
sg35
S'27'
p466
sg37
S'PHW'
p467
sg39
S'35'
p468
sg41
g3
sg42
S'4.2'
p469
sg44
S'1.5'
p470
sg46
S'12.4'
p471
sg48
g3
sg49
S'1957-58'
p472
sg51
S'4.2'
p473
sg53
g3
sg54
S'.341'
p474
sg56
S'376'
p475
sg58
g3
sba(isrc.gp1.models.Per36Minutes
Per36Minutes
p476
(dp477
g8
g3
sg9
g3
sg10
S'.357'
p478
sg12
S'1.4'
p479
sg14
g3
sg15
g3
sg16
S'15.9'
p480
sg18
S'PF'
p481
sg20
S'.776'
p482
sg24
S'NBA'
p483
sg26
g3
sg27
S'14.4'
p484
sg29
S'7.8'
p485
sg31
S'7.3'
p486
sg33
S'10.8'
p487
sg35
S'27'
p488
sg37
S'STL'
p489
sg39
S'26'
p490
sg41
g3
sg42
S'5.1'
p491
sg44
S'5.6'
p492
sg46
S'14.4'
p493
sg48
g3
sg49
S'1957-58'
p494
sg51
S'5.1'
p495
sg53
g3
sg54
S'.357'
p496
sg56
S'287'
p497
sg58
g3
sbasS'_fromYear'
p498
S'1954'
p499
sS'_url'
p500
S'http://www.basketball-reference.com/players/d/daviswa01.html'
p501
sS'_perGame'
p502
(isrc.gp1.models.PerGame
PerGame
p503
(dp504
g8
g3
sg9
g3
sg10
S'.357'
p505
sS'_effectiveFieldGalPercentage'
p506
S'.357'
p507
sg12
S'0.4'
p508
sg14
g3
sg15
g3
sg16
S'4.9'
p509
sg18
S'PF'
p510
sg20
S'.776'
p511
sg24
S'NBA'
p512
sg26
g3
sg29
S'2.4'
p513
sS'_fieldGoalsttempted'
p514
S'4.4'
p515
sg31
S'2.2'
p516
sg33
S'3.3'
p517
sg35
S'27'
p518
sg37
S'STL'
p519
sg39
S'26'
p520
sg41
g3
sg42
S'1.6'
p521
sg44
S'1.7'
p522
sg46
S'4.4'
p523
sg48
g3
sg49
S'1957-58'
p524
sg51
S'1.6'
p525
sg53
g3
sg54
S'.357'
p526
sg56
S'11.0'
p527
sg58
g3
sbsS'_weight'
p528
S'205'
p529
sS'_dob'
p530
S'5-1-1931'
p531
sS'_salary'
p532
(lp533
sg18
S'C-F'
p534
sb.