(isrc.gp1.models.Player
Player
p0
(dp1
S'_experience'
p2
S'NA'
p3
sS'_totals'
p4
(lp5
(isrc.gp1.models.Totals
Totals
p6
(dp7
S'_offensiveRebounds'
p8
S'17'
p9
sS'_threePointsAttempted'
p10
g3
sS'_fieldGoalsPercentage'
p11
S'.347'
p12
sS'_assist'
p13
S'8'
p14
sS'_threePointsPercentage'
p15
g3
sS'_threePoints'
p16
g3
sS'_points'
p17
S'78'
p18
sS'_position'
p19
S'PF'
p20
sS'_freeThrowsPercentage'
p21
S'.750'
p22
sS'_effectiveFieldGoalPercentage'
p23
S'.347'
p24
sS'_league'
p25
S'NBA'
p26
sS'_steals'
p27
S'3'
p28
sS'_fieldGoalsAttempted'
p29
S'95'
p30
sS'_personalFouls'
p31
S'36'
p32
sS'_freeThrowsAttempted'
p33
S'16'
p34
sS'_totalRebounds'
p35
S'54'
p36
sS'_age'
p37
S'23'
p38
sS'_team'
p39
S'NYK'
p40
sS'_games'
p41
S'30'
p42
sS'_blocks'
p43
S'4'
p44
sS'_twoPoints'
p45
S'33'
p46
sS'_freeThrows'
p47
S'12'
p48
sS'_twoPointsAttempted'
p49
S'95'
p50
sS'_defensiveRebounds'
p51
S'37'
p52
sS'_season'
p53
S'1973-74'
p54
sS'_fieldGoals'
p55
S'33'
p56
sS'_turnOvers'
p57
g3
sS'_twoPointsPercentage'
p58
S'.347'
p59
sS'_minutesPlayed'
p60
S'167'
p61
sS'_gamesStarted'
p62
g3
sba(isrc.gp1.models.Totals
Totals
p63
(dp64
g8
S'70'
p65
sg10
g3
sg11
S'.390'
p66
sg13
S'54'
p67
sg15
g3
sg16
g3
sg17
S'356'
p68
sg19
S'PF'
p69
sg21
S'.686'
p70
sg23
S'.390'
p71
sg25
S'NBA'
p72
sg27
S'16'
p73
sg29
S'395'
p74
sg31
S'105'
p75
sg33
S'70'
p76
sg35
S'321'
p77
sg37
S'24'
p78
sg39
S'NYK'
p79
sg41
S'62'
p80
sg43
g14
sg45
S'154'
p81
sg47
S'48'
p82
sg49
S'395'
p83
sg51
S'251'
p84
sg53
S'1974-75'
p85
sg55
S'154'
p86
sg57
g3
sg58
S'.390'
p87
sg60
S'903'
p88
sg62
g3
sba(isrc.gp1.models.Totals
Totals
p89
(dp90
g8
S'43'
p91
sg10
g3
sg11
S'.394'
p92
sg13
S'31'
p93
sg15
g3
sg16
g3
sg17
S'174'
p94
sg19
S'PF'
p95
sg21
S'.759'
p96
sg23
S'.394'
p97
sg25
S'NBA'
p98
sg27
S'16'
p99
sg29
S'193'
p100
sg31
S'56'
p101
sg33
S'29'
p102
sg35
S'148'
p103
sg37
S'25'
p104
sg39
S'NYK'
p105
sg41
S'42'
p106
sg43
S'5'
p107
sg45
S'76'
p108
sg47
S'22'
p109
sg49
S'193'
p110
sg51
S'105'
p111
sg53
S'1975-76'
p112
sg55
S'76'
p113
sg57
g3
sg58
S'.394'
p114
sg60
S'408'
p115
sg62
g3
sba(isrc.gp1.models.Totals
Totals
p116
(dp117
g8
S'98'
p118
sg10
g3
sg11
S'.362'
p119
sg13
S'71'
p120
sg15
g3
sg16
g3
sg17
S'400'
p121
sg19
S'PF'
p122
sg21
S'.703'
p123
sg23
S'.362'
p124
sg25
S'NBA'
p125
sg27
S'31'
p126
sg29
S'464'
p127
sg31
S'130'
p128
sg33
S'91'
p129
sg35
S'293'
p130
sg37
S'26'
p131
sg39
S'TOT'
p132
sg41
S'56'
p133
sg43
g107
sg45
S'168'
p134
sg47
S'64'
p135
sg49
S'464'
p136
sg51
S'195'
p137
sg53
S'1976-77'
p138
sg55
S'168'
p139
sg57
g3
sg58
S'.362'
p140
sg60
S'1094'
p141
sg62
g3
sba(isrc.gp1.models.Totals
Totals
p142
(dp143
g8
S'30'
p144
sg10
g3
sg11
S'.373'
p145
sg13
S'24'
p146
sg15
g3
sg16
g3
sg17
S'104'
p147
sg19
S'PF'
p148
sg21
S'.710'
p149
sg23
S'.373'
p150
sg25
S'NBA'
p151
sg27
S'9'
p152
sg29
S'110'
p153
sg31
S'45'
p154
sg33
S'31'
p155
sg35
S'100'
p156
sg37
S'26'
p157
sg39
S'NYK'
p158
sg41
S'22'
p159
sg43
S'1'
p160
sg45
S'41'
p161
sg47
S'22'
p162
sg49
S'110'
p163
sg51
S'70'
p164
sg53
S'1976-77'
p165
sg55
S'41'
p166
sg57
g3
sg58
S'.373'
p167
sg60
S'342'
p168
sg62
g3
sba(isrc.gp1.models.Totals
Totals
p169
(dp170
g8
S'68'
p171
sg10
g3
sg11
S'.359'
p172
sg13
S'47'
p173
sg15
g3
sg16
g3
sg17
S'296'
p174
sg19
S'PF'
p175
sg21
S'.700'
p176
sg23
S'.359'
p177
sg25
S'NBA'
p178
sg27
S'22'
p179
sg29
S'354'
p180
sg31
S'85'
p181
sg33
S'60'
p182
sg35
S'193'
p183
sg37
S'26'
p184
sg39
S'NYN'
p185
sg41
S'34'
p186
sg43
g44
sg45
S'127'
p187
sg47
S'42'
p188
sg49
S'354'
p189
sg51
S'125'
p190
sg53
S'1976-77'
p191
sg55
S'127'
p192
sg57
g3
sg58
S'.359'
p193
sg60
S'752'
p194
sg62
g3
sbasS'_college'
p195
S"St. John's University"
p196
sS'_toYear'
p197
S'1977'
p198
sS'_height'
p199
S'6-6'
p200
sS'_active'
p201
I00
sS'_shootingHand'
p202
VRight
p203
sS'_name'
p204
S'Mel Davis'
p205
sS'_per100Possessions'
p206
(lp207
(isrc.gp1.models.Per100Possession
Per100Possession
p208
(dp209
g8
S'4.7'
p210
sg10
g3
sg11
S'.347'
p211
sS'_offensiveRating'
p212
g3
sg13
S'2.2'
p213
sg15
g3
sg16
g3
sg17
S'21.7'
p214
sg19
S'PF'
p215
sS'_defensiveRating'
p216
S'93'
p217
sg21
S'.750'
p218
sg25
S'NBA'
p219
sg27
S'0.8'
p220
sg29
S'26.4'
p221
sg31
S'10.0'
p222
sg33
S'4.4'
p223
sg35
S'15.0'
p224
sg37
S'23'
p225
sg39
S'NYK'
p226
sg41
S'30'
p227
sg43
S'1.1'
p228
sg45
S'9.2'
p229
sg47
S'3.3'
p230
sg49
S'26.4'
p231
sg51
S'10.3'
p232
sg53
S'1973-74'
p233
sg55
S'9.2'
p234
sg57
g3
sg58
S'.347'
p235
sg60
S'167'
p236
sg62
g3
sba(isrc.gp1.models.Per100Possession
Per100Possession
p237
(dp238
g8
S'3.6'
p239
sg10
g3
sg11
S'.390'
p240
sg212
g3
sg13
S'2.8'
p241
sg15
g3
sg16
g3
sg17
S'18.4'
p242
sg19
S'PF'
p243
sg216
S'96'
p244
sg21
S'.686'
p245
sg25
S'NBA'
p246
sg27
S'0.8'
p247
sg29
S'20.4'
p248
sg31
S'5.4'
p249
sg33
S'3.6'
p250
sg35
S'16.5'
p251
sg37
S'24'
p252
sg39
S'NYK'
p253
sg41
S'62'
p254
sg43
S'0.4'
p255
sg45
S'7.9'
p256
sg47
S'2.5'
p257
sg49
S'20.4'
p258
sg51
S'12.9'
p259
sg53
S'1974-75'
p260
sg55
S'7.9'
p261
sg57
g3
sg58
S'.390'
p262
sg60
S'903'
p263
sg62
g3
sba(isrc.gp1.models.Per100Possession
Per100Possession
p264
(dp265
g8
S'4.9'
p266
sg10
g3
sg11
S'.394'
p267
sg212
g3
sg13
S'3.5'
p268
sg15
g3
sg16
g3
sg17
S'19.7'
p269
sg19
S'PF'
p270
sg216
S'95'
p271
sg21
S'.759'
p272
sg25
S'NBA'
p273
sg27
S'1.8'
p274
sg29
S'21.8'
p275
sg31
S'6.3'
p276
sg33
S'3.3'
p277
sg35
S'16.7'
p278
sg37
S'25'
p279
sg39
S'NYK'
p280
sg41
S'42'
p281
sg43
S'0.6'
p282
sg45
S'8.6'
p283
sg47
S'2.5'
p284
sg49
S'21.8'
p285
sg51
S'11.9'
p286
sg53
S'1975-76'
p287
sg55
S'8.6'
p288
sg57
g3
sg58
S'.394'
p289
sg60
S'408'
p290
sg62
g3
sba(isrc.gp1.models.Per100Possession
Per100Possession
p291
(dp292
g8
S'4.1'
p293
sg10
g3
sg11
S'.362'
p294
sg212
g3
sg13
S'3.0'
p295
sg15
g3
sg16
g3
sg17
S'16.7'
p296
sg19
S'PF'
p297
sg216
S'99'
p298
sg21
S'.703'
p299
sg25
S'NBA'
p300
sg27
S'1.3'
p301
sg29
S'19.4'
p302
sg31
S'5.4'
p303
sg33
S'3.8'
p304
sg35
S'12.2'
p305
sg37
S'26'
p306
sg39
S'TOT'
p307
sg41
S'56'
p308
sg43
S'0.2'
p309
sg45
S'7.0'
p310
sg47
S'2.7'
p311
sg49
S'19.4'
p312
sg51
S'8.1'
p313
sg53
S'1976-77'
p314
sg55
S'7.0'
p315
sg57
g3
sg58
S'.362'
p316
sg60
S'1094'
p317
sg62
g3
sba(isrc.gp1.models.Per100Possession
Per100Possession
p318
(dp319
g8
S'3.9'
p320
sg10
g3
sg11
S'.373'
p321
sg212
g3
sg13
S'3.1'
p322
sg15
g3
sg16
g3
sg17
S'13.5'
p323
sg19
S'PF'
p324
sg216
S'100'
p325
sg21
S'.710'
p326
sg25
S'NBA'
p327
sg27
S'1.2'
p328
sg29
S'14.3'
p329
sg31
S'5.8'
p330
sg33
S'4.0'
p331
sg35
S'13.0'
p332
sg37
S'26'
p333
sg39
S'NYK'
p334
sg41
S'22'
p335
sg43
S'0.1'
p336
sg45
S'5.3'
p337
sg47
S'2.9'
p338
sg49
S'14.3'
p339
sg51
S'9.1'
p340
sg53
S'1976-77'
p341
sg55
S'5.3'
p342
sg57
g3
sg58
S'.373'
p343
sg60
S'342'
p344
sg62
g3
sba(isrc.gp1.models.Per100Possession
Per100Possession
p345
(dp346
g8
S'4.2'
p347
sg10
g3
sg11
S'.359'
p348
sg212
g3
sg13
S'2.9'
p349
sg15
g3
sg16
g3
sg17
S'18.2'
p350
sg19
S'PF'
p351
sg216
S'99'
p352
sg21
S'.700'
p353
sg25
S'NBA'
p354
sg27
S'1.4'
p355
sg29
S'21.8'
p356
sg31
S'5.2'
p357
sg33
S'3.7'
p358
sg35
S'11.9'
p359
sg37
S'26'
p360
sg39
S'NYN'
p361
sg41
S'34'
p362
sg43
S'0.2'
p363
sg45
S'7.8'
p364
sg47
S'2.6'
p365
sg49
S'21.8'
p366
sg51
S'7.7'
p367
sg53
S'1976-77'
p368
sg55
S'7.8'
p369
sg57
g3
sg58
S'.359'
p370
sg60
S'752'
p371
sg62
g3
sbasS'_advanced'
p372
(lp373
(isrc.gp1.models.Advanced
Advanced
p374
(dp375
S'_offensiveReboundPercentage'
p376
S'10.7'
p377
sS'_turnOverPercentage'
p378
g3
sS'_winSharesPer48Minutes'
p379
S'-0.045'
p380
sS'_stealPercentage'
p381
S'0.8'
p382
sS'_usagePercentage'
p383
g3
sS'_totalReboundsPercentage'
p384
S'17.0'
p385
sS'_defensiveBoxPlusMinus'
p386
S'-3.0'
p387
sg19
S'PF'
p388
sS'_valueOverReplacementPlayer'
p389
S'-0.3'
p390
sS'_trueShootingPercentage'
p391
S'.382'
p392
sS'_defensiveReboundPercentage'
p393
S'23.3'
p394
sS'_freeThrowsAttempRate'
p395
S'.168'
p396
sS'_threePointsAttempRate'
p397
g3
sg25
S'NBA'
p398
sS'_offensiveBoxPlusMinues'
p399
S'-5.9'
p400
sS'_assistPercentage'
p401
S'7.0'
p402
sS'_defensiveWinShares'
p403
S'0.3'
p404
sg37
S'23'
p405
sg39
S'NYK'
p406
sg41
S'30'
p407
sS'_blockPercentage'
p408
S'1.3'
p409
sS'_playerEfficiencyRating'
p410
S'10.5'
p411
sS'_offensiveWinShares'
p412
S'-0.4'
p413
sg60
S'167'
p414
sS'_boxPlusMinus'
p415
S'-8.9'
p416
sg53
S'1973-74'
p417
sS'_winShares'
p418
S'-0.2'
p419
sba(isrc.gp1.models.Advanced
Advanced
p420
(dp421
g376
S'8.0'
p422
sg378
g3
sg379
S'.024'
p423
sg381
S'0.8'
p424
sg383
g3
sg384
S'18.6'
p425
sg386
S'-1.5'
p426
sg19
S'PF'
p427
sg389
S'-0.9'
p428
sg391
S'.418'
p429
sg393
S'29.5'
p430
sg395
S'.177'
p431
sg397
g3
sg25
S'NBA'
p432
sg399
S'-4.3'
p433
sg401
S'8.8'
p434
sg403
S'1.1'
p435
sg37
S'24'
p436
sg39
S'NYK'
p437
sg41
S'62'
p438
sg408
S'0.5'
p439
sg410
S'12.6'
p440
sg412
S'-0.7'
p441
sg60
S'903'
p442
sg415
S'-5.8'
p443
sg53
S'1974-75'
p444
sg418
S'0.4'
p445
sba(isrc.gp1.models.Advanced
Advanced
p446
(dp447
g376
S'10.7'
p448
sg378
g3
sg379
S'.045'
p449
sg381
S'1.8'
p450
sg383
g3
sg384
S'18.7'
p451
sg386
S'-0.4'
p452
sg19
S'PF'
p453
sg389
S'-0.1'
p454
sg391
S'.423'
p455
sg393
S'26.9'
p456
sg395
S'.150'
p457
sg397
g3
sg25
S'NBA'
p458
sg399
S'-2.4'
p459
sg401
S'11.1'
p460
sg403
S'0.6'
p461
sg37
S'25'
p462
sg39
S'NYK'
p463
sg41
S'42'
p464
sg408
S'0.7'
p465
sg410
S'14.8'
p466
sg412
S'-0.2'
p467
sg60
S'408'
p468
sg415
S'-2.7'
p469
sg53
S'1975-76'
p470
sg418
S'0.4'
p471
sba(isrc.gp1.models.Advanced
Advanced
p472
(dp473
g376
S'8.9'
p474
sg378
g3
sg379
S'-0.016'
p475
sg381
S'1.3'
p476
sg383
g3
sg384
S'13.7'
p477
sg386
S'-0.9'
p478
sg19
S'PF'
p479
sg389
S'-0.9'
p480
sg391
S'.397'
p481
sg393
S'18.8'
p482
sg395
S'.196'
p483
sg397
g3
sg25
S'NBA'
p484
sg399
S'-4.2'
p485
sg401
S'9.7'
p486
sg403
S'1.2'
p487
sg37
S'26'
p488
sg39
S'TOT'
p489
sg41
S'56'
p490
sg408
S'0.3'
p491
sg410
S'10.7'
p492
sg412
S'-1.5'
p493
sg60
S'1094'
p494
sg415
S'-5.1'
p495
sg53
S'1976-77'
p496
sg418
S'-0.4'
p497
sba(isrc.gp1.models.Advanced
Advanced
p498
(dp499
g376
S'9.4'
p500
sg378
g3
sg379
S'.010'
p501
sg381
S'1.2'
p502
sg383
g3
sg384
S'15.3'
p503
sg386
S'-0.4'
p504
sg19
S'PF'
p505
sg389
S'-0.2'
p506
sg391
S'.421'
p507
sg393
S'21.0'
p508
sg395
S'.282'
p509
sg397
g3
sg25
S'NBA'
p510
sg399
S'-4.0'
p511
sg401
S'8.7'
p512
sg403
S'0.4'
p513
sg37
S'26'
p514
sg39
S'NYK'
p515
sg41
S'22'
p516
sg408
S'0.2'
p517
sg410
S'10.1'
p518
sg412
S'-0.3'
p519
sg60
S'342'
p520
sg415
S'-4.3'
p521
sg53
S'1976-77'
p522
sg418
S'0.1'
p523
sba(isrc.gp1.models.Advanced
Advanced
p524
(dp525
g376
S'8.7'
p526
sg378
g3
sg379
S'-0.027'
p527
sg381
S'1.4'
p528
sg383
g3
sg384
S'13.0'
p529
sg386
S'-1.2'
p530
sg19
S'PF'
p531
sg389
S'-0.7'
p532
sg391
S'.389'
p533
sg393
S'17.7'
p534
sg395
S'.169'
p535
sg397
g3
sg25
S'NBA'
p536
sg399
S'-4.2'
p537
sg401
S'10.2'
p538
sg403
S'0.8'
p539
sg37
S'26'
p540
sg39
S'NYN'
p541
sg41
S'34'
p542
sg408
S'0.3'
p543
sg410
S'11.0'
p544
sg412
S'-1.2'
p545
sg60
S'752'
p546
sg415
S'-5.4'
p547
sg53
S'1976-77'
p548
sg418
S'-0.4'
p549
sbasS'_per36Minutes'
p550
(lp551
(isrc.gp1.models.Per36Minutes
Per36Minutes
p552
(dp553
g8
S'3.7'
p554
sg10
g3
sg11
S'.347'
p555
sg13
S'1.7'
p556
sg15
g3
sg16
g3
sg17
S'16.8'
p557
sg19
S'PF'
p558
sg21
S'.750'
p559
sg25
S'NBA'
p560
sg27
S'0.6'
p561
sg29
S'20.5'
p562
sg31
S'7.8'
p563
sg33
S'3.4'
p564
sg35
S'11.6'
p565
sg37
S'23'
p566
sg39
S'NYK'
p567
sg41
S'30'
p568
sg43
S'0.9'
p569
sg45
S'7.1'
p570
sg47
S'2.6'
p571
sg49
S'20.5'
p572
sg51
S'8.0'
p573
sg53
S'1973-74'
p574
sg55
S'7.1'
p575
sg57
g3
sg58
S'.347'
p576
sg60
S'167'
p577
sg62
g3
sba(isrc.gp1.models.Per36Minutes
Per36Minutes
p578
(dp579
g8
S'2.8'
p580
sg10
g3
sg11
S'.390'
p581
sg13
S'2.2'
p582
sg15
g3
sg16
g3
sg17
S'14.2'
p583
sg19
S'PF'
p584
sg21
S'.686'
p585
sg25
S'NBA'
p586
sg27
S'0.6'
p587
sg29
S'15.7'
p588
sg31
S'4.2'
p589
sg33
S'2.8'
p590
sg35
S'12.8'
p591
sg37
S'24'
p592
sg39
S'NYK'
p593
sg41
S'62'
p594
sg43
S'0.3'
p595
sg45
S'6.1'
p596
sg47
S'1.9'
p597
sg49
S'15.7'
p598
sg51
S'10.0'
p599
sg53
S'1974-75'
p600
sg55
S'6.1'
p601
sg57
g3
sg58
S'.390'
p602
sg60
S'903'
p603
sg62
g3
sba(isrc.gp1.models.Per36Minutes
Per36Minutes
p604
(dp605
g8
S'3.8'
p606
sg10
g3
sg11
S'.394'
p607
sg13
S'2.7'
p608
sg15
g3
sg16
g3
sg17
S'15.4'
p609
sg19
S'PF'
p610
sg21
S'.759'
p611
sg25
S'NBA'
p612
sg27
S'1.4'
p613
sg29
S'17.0'
p614
sg31
S'4.9'
p615
sg33
S'2.6'
p616
sg35
S'13.1'
p617
sg37
S'25'
p618
sg39
S'NYK'
p619
sg41
S'42'
p620
sg43
S'0.4'
p621
sg45
S'6.7'
p622
sg47
S'1.9'
p623
sg49
S'17.0'
p624
sg51
S'9.3'
p625
sg53
S'1975-76'
p626
sg55
S'6.7'
p627
sg57
g3
sg58
S'.394'
p628
sg60
S'408'
p629
sg62
g3
sba(isrc.gp1.models.Per36Minutes
Per36Minutes
p630
(dp631
g8
S'3.2'
p632
sg10
g3
sg11
S'.362'
p633
sg13
S'2.3'
p634
sg15
g3
sg16
g3
sg17
S'13.2'
p635
sg19
S'PF'
p636
sg21
S'.703'
p637
sg25
S'NBA'
p638
sg27
S'1.0'
p639
sg29
S'15.3'
p640
sg31
S'4.3'
p641
sg33
S'3.0'
p642
sg35
S'9.6'
p643
sg37
S'26'
p644
sg39
S'TOT'
p645
sg41
S'56'
p646
sg43
S'0.2'
p647
sg45
S'5.5'
p648
sg47
S'2.1'
p649
sg49
S'15.3'
p650
sg51
S'6.4'
p651
sg53
S'1976-77'
p652
sg55
S'5.5'
p653
sg57
g3
sg58
S'.362'
p654
sg60
S'1094'
p655
sg62
g3
sba(isrc.gp1.models.Per36Minutes
Per36Minutes
p656
(dp657
g8
S'3.2'
p658
sg10
g3
sg11
S'.373'
p659
sg13
S'2.5'
p660
sg15
g3
sg16
g3
sg17
S'10.9'
p661
sg19
S'PF'
p662
sg21
S'.710'
p663
sg25
S'NBA'
p664
sg27
S'0.9'
p665
sg29
S'11.6'
p666
sg31
S'4.7'
p667
sg33
S'3.3'
p668
sg35
S'10.5'
p669
sg37
S'26'
p670
sg39
S'NYK'
p671
sg41
S'22'
p672
sg43
S'0.1'
p673
sg45
S'4.3'
p674
sg47
S'2.3'
p675
sg49
S'11.6'
p676
sg51
S'7.4'
p677
sg53
S'1976-77'
p678
sg55
S'4.3'
p679
sg57
g3
sg58
S'.373'
p680
sg60
S'342'
p681
sg62
g3
sba(isrc.gp1.models.Per36Minutes
Per36Minutes
p682
(dp683
g8
S'3.3'
p684
sg10
g3
sg11
S'.359'
p685
sg13
S'2.3'
p686
sg15
g3
sg16
g3
sg17
S'14.2'
p687
sg19
S'PF'
p688
sg21
S'.700'
p689
sg25
S'NBA'
p690
sg27
S'1.1'
p691
sg29
S'16.9'
p692
sg31
S'4.1'
p693
sg33
S'2.9'
p694
sg35
S'9.2'
p695
sg37
S'26'
p696
sg39
S'NYN'
p697
sg41
S'34'
p698
sg43
S'0.2'
p699
sg45
S'6.1'
p700
sg47
S'2.0'
p701
sg49
S'16.9'
p702
sg51
S'6.0'
p703
sg53
S'1976-77'
p704
sg55
S'6.1'
p705
sg57
g3
sg58
S'.359'
p706
sg60
S'752'
p707
sg62
g3
sbasS'_fromYear'
p708
S'1974'
p709
sS'_url'
p710
S'http://www.basketball-reference.com/players/d/davisme01.html'
p711
sS'_perGame'
p712
(isrc.gp1.models.PerGame
PerGame
p713
(dp714
g8
S'2.0'
p715
sg10
g3
sg11
S'.359'
p716
sS'_effectiveFieldGalPercentage'
p717
S'.359'
p718
sg13
S'1.4'
p719
sg15
g3
sg16
g3
sg17
S'8.7'
p720
sg19
S'PF'
p721
sg21
S'.700'
p722
sg25
S'NBA'
p723
sg27
S'0.6'
p724
sg31
S'2.5'
p725
sS'_fieldGoalsttempted'
p726
S'10.4'
p727
sg33
S'1.8'
p728
sg35
S'5.7'
p729
sg37
S'26'
p730
sg39
S'NYN'
p731
sg41
S'34'
p732
sg43
S'0.1'
p733
sg45
S'3.7'
p734
sg47
S'1.2'
p735
sg49
S'10.4'
p736
sg51
S'3.7'
p737
sg53
S'1976-77'
p738
sg55
S'3.7'
p739
sg57
g3
sg58
S'.359'
p740
sg60
S'22.1'
p741
sg62
g3
sbsS'_weight'
p742
S'220'
p743
sS'_dob'
p744
S'9-11-1950'
p745
sS'_salary'
p746
(lp747
sg19
S'F'
p748
sb.