(isrc.gp1.models.Player
Player
p0
(dp1
S'_experience'
p2
V1 year
p3
sS'_totals'
p4
(lp5
(isrc.gp1.models.Totals
Totals
p6
(dp7
S'_offensiveRebounds'
p8
S'5'
p9
sS'_threePointsAttempted'
p10
S'0'
p11
sS'_fieldGoalsPercentage'
p12
S'.583'
p13
sS'_assist'
p14
g11
sS'_threePointsPercentage'
p15
S'NA'
p16
sS'_threePoints'
p17
g11
sS'_points'
p18
S'15'
p19
sS'_position'
p20
S'C'
p21
sS'_freeThrowsPercentage'
p22
S'.500'
p23
sS'_effectiveFieldGoalPercentage'
p24
S'.583'
p25
sS'_league'
p26
S'NBA'
p27
sS'_steals'
p28
S'1'
p29
sS'_fieldGoalsAttempted'
p30
S'12'
p31
sS'_personalFouls'
p32
S'6'
p33
sS'_freeThrowsAttempted'
p34
S'2'
p35
sS'_totalRebounds'
p36
S'10'
p37
sS'_age'
p38
S'27'
p39
sS'_team'
p40
S'SAS'
p41
sS'_games'
p42
S'4'
p43
sS'_blocks'
p44
g35
sS'_twoPoints'
p45
S'7'
p46
sS'_freeThrows'
p47
g29
sS'_twoPointsAttempted'
p48
S'12'
p49
sS'_defensiveRebounds'
p50
g9
sS'_season'
p51
S'2011-12'
p52
sS'_fieldGoals'
p53
g46
sS'_turnOvers'
p54
S'3'
p55
sS'_twoPointsPercentage'
p56
S'.583'
p57
sS'_minutesPlayed'
p58
S'39'
p59
sS'_gamesStarted'
p60
g11
sbasS'_college'
p61
S'Midwestern State University'
p62
sS'_toYear'
p63
S'2012'
p64
sS'_height'
p65
S'6-9'
p66
sS'_active'
p67
I01
sS'_shootingHand'
p68
VRight
p69
sS'_name'
p70
S'Eric Dawson'
p71
sS'_per100Possessions'
p72
(lp73
(isrc.gp1.models.Per100Possession
Per100Possession
p74
(dp75
g8
S'6.6'
p76
sg10
S'0.0'
p77
sg12
S'.583'
p78
sS'_offensiveRating'
p79
S'104'
p80
sg14
S'0.0'
p81
sg15
g16
sg17
S'0.0'
p82
sg18
S'19.9'
p83
sg20
g21
sS'_defensiveRating'
p84
S'102'
p85
sg22
S'.500'
p86
sg26
S'NBA'
p87
sg28
S'1.3'
p88
sg30
S'15.9'
p89
sg32
S'7.9'
p90
sg34
S'2.6'
p91
sg36
S'13.2'
p92
sg38
S'27'
p93
sg40
S'SAS'
p94
sg42
g43
sg44
S'2.6'
p95
sg45
S'9.3'
p96
sg47
S'1.3'
p97
sg48
S'15.9'
p98
sg50
S'6.6'
p99
sg51
S'2011-12'
p100
sg53
S'9.3'
p101
sg54
S'4.0'
p102
sg56
S'.583'
p103
sg58
S'39'
p104
sg60
g11
sbasS'_advanced'
p105
(lp106
(isrc.gp1.models.Advanced
Advanced
p107
(dp108
S'_offensiveReboundPercentage'
p109
S'15.0'
p110
sS'_turnOverPercentage'
p111
S'18.9'
p112
sS'_winSharesPer48Minutes'
p113
S'.106'
p114
sS'_stealPercentage'
p115
S'1.3'
p116
sS'_usagePercentage'
p117
S'18.6'
p118
sS'_totalReboundsPercentage'
p119
S'14.7'
p120
sS'_defensiveBoxPlusMinus'
p121
S'-2.6'
p122
sg20
g21
sS'_valueOverReplacementPlayer'
p123
S'0.0'
p124
sS'_trueShootingPercentage'
p125
S'.582'
p126
sS'_defensiveReboundPercentage'
p127
S'14.4'
p128
sS'_freeThrowsAttempRate'
p129
S'.167'
p130
sS'_threePointsAttempRate'
p131
S'.000'
p132
sg26
S'NBA'
p133
sS'_offensiveBoxPlusMinues'
p134
S'-3.3'
p135
sS'_assistPercentage'
p136
S'0.0'
p137
sS'_defensiveWinShares'
p138
S'0.1'
p139
sg38
S'27'
p140
sg40
S'SAS'
p141
sg42
g43
sS'_blockPercentage'
p142
S'3.7'
p143
sS'_playerEfficiencyRating'
p144
S'14.6'
p145
sS'_offensiveWinShares'
p146
S'0.0'
p147
sg58
S'39'
p148
sS'_boxPlusMinus'
p149
S'-5.9'
p150
sg51
S'2011-12'
p151
sS'_winShares'
p152
S'0.1'
p153
sbasS'_per36Minutes'
p154
(lp155
(isrc.gp1.models.Per36Minutes
Per36Minutes
p156
(dp157
g8
S'4.6'
p158
sg10
S'0.0'
p159
sg12
S'.583'
p160
sg14
S'0.0'
p161
sg15
g16
sg17
S'0.0'
p162
sg18
S'13.8'
p163
sg20
g21
sg22
S'.500'
p164
sg26
S'NBA'
p165
sg28
S'0.9'
p166
sg30
S'11.1'
p167
sg32
S'5.5'
p168
sg34
S'1.8'
p169
sg36
S'9.2'
p170
sg38
S'27'
p171
sg40
S'SAS'
p172
sg42
g43
sg44
S'1.8'
p173
sg45
S'6.5'
p174
sg47
S'0.9'
p175
sg48
S'11.1'
p176
sg50
S'4.6'
p177
sg51
S'2011-12'
p178
sg53
S'6.5'
p179
sg54
S'2.8'
p180
sg56
S'.583'
p181
sg58
S'39'
p182
sg60
g11
sbasS'_fromYear'
p183
S'2012'
p184
sS'_url'
p185
S'http://www.basketball-reference.com/players/d/dawsoer01.html'
p186
sS'_perGame'
p187
(isrc.gp1.models.PerGame
PerGame
p188
(dp189
g8
S'1.3'
p190
sg10
S'0.0'
p191
sg12
S'.583'
p192
sS'_effectiveFieldGalPercentage'
p193
S'.583'
p194
sg14
S'0.0'
p195
sg15
g16
sg17
S'0.0'
p196
sg18
S'3.8'
p197
sg20
g21
sg22
S'.500'
p198
sg26
S'NBA'
p199
sg28
S'0.3'
p200
sg32
S'1.5'
p201
sS'_fieldGoalsttempted'
p202
S'3.0'
p203
sg34
S'0.5'
p204
sg36
S'2.5'
p205
sg38
S'27'
p206
sg40
S'SAS'
p207
sg42
g43
sg44
S'0.5'
p208
sg45
S'1.8'
p209
sg47
S'0.3'
p210
sg48
S'3.0'
p211
sg50
S'1.3'
p212
sg51
S'2011-12'
p213
sg53
S'1.8'
p214
sg54
S'0.8'
p215
sg56
S'.583'
p216
sg58
S'9.8'
p217
sg60
g11
sbsS'_weight'
p218
S'250'
p219
sS'_dob'
p220
S'7-7-1984'
p221
sS'_salary'
p222
(lp223
(isrc.gp1.models.Salary
Salary
p224
(dp225
g40
S'San Antonio Spurs'
p226
sg26
S'NBA'
p227
sg222
S'$38,172'
p228
sg51
S'2011-12'
p229
sbasg20
S'F'
p230
sb.