(isrc.gp1.models.Player
Player
p0
(dp1
S'_experience'
p2
S'NA'
p3
sS'_totals'
p4
(lp5
(isrc.gp1.models.Totals
Totals
p6
(dp7
S'_offensiveRebounds'
p8
S'2'
p9
sS'_threePointsAttempted'
p10
S'1'
p11
sS'_fieldGoalsPercentage'
p12
S'.571'
p13
sS'_assist'
p14
S'0'
p15
sS'_threePointsPercentage'
p16
S'1.000'
p17
sS'_threePoints'
p18
g11
sS'_points'
p19
S'9'
p20
sS'_position'
p21
S'SF'
p22
sS'_freeThrowsPercentage'
p23
g3
sS'_effectiveFieldGoalPercentage'
p24
S'.643'
p25
sS'_league'
p26
S'NBA'
p27
sS'_steals'
p28
g15
sS'_fieldGoalsAttempted'
p29
S'7'
p30
sS'_personalFouls'
p31
g15
sS'_freeThrowsAttempted'
p32
g15
sS'_totalRebounds'
p33
g9
sS'_age'
p34
S'23'
p35
sS'_team'
p36
S'SAC'
p37
sS'_games'
p38
S'4'
p39
sS'_blocks'
p40
g15
sS'_twoPoints'
p41
S'3'
p42
sS'_freeThrows'
p43
g15
sS'_twoPointsAttempted'
p44
S'6'
p45
sS'_defensiveRebounds'
p46
g15
sS'_season'
p47
S'1990-91'
p48
sS'_fieldGoals'
p49
g39
sS'_turnOvers'
p50
g11
sS'_twoPointsPercentage'
p51
S'.500'
p52
sS'_minutesPlayed'
p53
S'17'
p54
sS'_gamesStarted'
p55
g15
sba(isrc.gp1.models.Totals
Totals
p56
(dp57
g8
g3
sg10
g3
sg12
g3
sg14
g3
sg16
g3
sg18
g3
sg19
g3
sg21
g3
sg23
g3
sg24
g3
sg26
g3
sg28
g3
sg29
g3
sg31
g3
sg32
g3
sg33
g3
sg34
S'24'
p58
sg36
S'Did Not Play'
p59
sg38
g3
sg40
g3
sg41
g3
sg43
g3
sg44
g3
sg46
g3
sg47
S'1991-92'
p60
sg49
g3
sg50
g3
sg51
g3
sg53
g3
sg55
g3
sba(isrc.gp1.models.Totals
Totals
p61
(dp62
g8
g3
sg10
g3
sg12
g3
sg14
g3
sg16
g3
sg18
g3
sg19
g3
sg21
g3
sg23
g3
sg24
g3
sg26
g3
sg28
g3
sg29
g3
sg31
g3
sg32
g3
sg33
g3
sg34
S'25'
p63
sg36
S'Did Not Play\xc2\xa0(other pro league\xe2\x80\x94CBA, France, Italy)'
p64
sg38
g3
sg40
g3
sg41
g3
sg43
g3
sg44
g3
sg46
g3
sg47
S'1992-93'
p65
sg49
g3
sg50
g3
sg51
g3
sg53
g3
sg55
g3
sba(isrc.gp1.models.Totals
Totals
p66
(dp67
g8
g3
sg10
g3
sg12
g3
sg14
g3
sg16
g3
sg18
g3
sg19
g3
sg21
g3
sg23
g3
sg24
g3
sg26
g3
sg28
g3
sg29
g3
sg31
g3
sg32
g3
sg33
g3
sg34
S'26'
p68
sg36
S'Did Not Play\xc2\xa0(other pro league\xe2\x80\x94Spain)'
p69
sg38
g3
sg40
g3
sg41
g3
sg43
g3
sg44
g3
sg46
g3
sg47
S'1993-94'
p70
sg49
g3
sg50
g3
sg51
g3
sg53
g3
sg55
g3
sba(isrc.gp1.models.Totals
Totals
p71
(dp72
g8
g15
sg10
g42
sg12
S'.375'
p73
sg14
g11
sg16
S'.333'
p74
sg18
g11
sg19
S'8'
p75
sg21
S'SF'
p76
sg23
S'1.000'
p77
sg24
S'.438'
p78
sg26
S'NBA'
p79
sg28
g15
sg29
g75
sg31
g39
sg32
g11
sg33
g42
sg34
S'27'
p80
sg36
S'BOS'
p81
sg38
g9
sg40
g15
sg41
g9
sg43
g11
sg44
S'5'
p82
sg46
g42
sg47
S'1994-95'
p83
sg49
g42
sg50
g9
sg51
S'.400'
p84
sg53
S'13'
p85
sg55
g15
sbasS'_college'
p86
S'Florida State University'
p87
sS'_toYear'
p88
S'1995'
p89
sS'_height'
p90
S'6-7'
p91
sS'_active'
p92
I00
sS'_shootingHand'
p93
VRight
p94
sS'_name'
p95
S'Tony Dawson'
p96
sS'_per100Possessions'
p97
(lp98
(isrc.gp1.models.Per100Possession
Per100Possession
p99
(dp100
g8
S'6.0'
p101
sg10
S'3.0'
p102
sg12
S'.571'
p103
sS'_offensiveRating'
p104
S'112'
p105
sg14
S'0.0'
p106
sg16
S'1.000'
p107
sg18
S'3.0'
p108
sg19
S'26.8'
p109
sg21
S'SF'
p110
sS'_defensiveRating'
p111
S'118'
p112
sg23
g3
sg26
S'NBA'
p113
sg28
S'0.0'
p114
sg29
S'20.9'
p115
sg31
S'0.0'
p116
sg32
S'0.0'
p117
sg33
S'6.0'
p118
sg34
S'23'
p119
sg36
S'SAC'
p120
sg38
g39
sg40
S'0.0'
p121
sg41
S'8.9'
p122
sg43
S'0.0'
p123
sg44
S'17.9'
p124
sg46
S'0.0'
p125
sg47
S'1990-91'
p126
sg49
S'11.9'
p127
sg50
S'3.0'
p128
sg51
S'.500'
p129
sg53
S'17'
p130
sg55
g15
sba(isrc.gp1.models.Per100Possession
Per100Possession
p131
(dp132
g8
S'0.0'
p133
sg10
S'11.8'
p134
sg12
S'.375'
p135
sg104
S'85'
p136
sg14
S'3.9'
p137
sg16
S'.333'
p138
sg18
S'3.9'
p139
sg19
S'31.4'
p140
sg21
S'SF'
p141
sg111
S'110'
p142
sg23
S'1.000'
p143
sg26
S'NBA'
p144
sg28
S'0.0'
p145
sg29
S'31.4'
p146
sg31
S'15.7'
p147
sg32
S'3.9'
p148
sg33
S'11.8'
p149
sg34
S'27'
p150
sg36
S'BOS'
p151
sg38
g9
sg40
S'0.0'
p152
sg41
S'7.9'
p153
sg43
S'3.9'
p154
sg44
S'19.6'
p155
sg46
S'11.8'
p156
sg47
S'1994-95'
p157
sg49
S'11.8'
p158
sg50
S'7.9'
p159
sg51
S'.400'
p160
sg53
S'13'
p161
sg55
g15
sbasS'_advanced'
p162
(lp163
(isrc.gp1.models.Advanced
Advanced
p164
(dp165
S'_offensiveReboundPercentage'
p166
S'13.0'
p167
sS'_turnOverPercentage'
p168
S'12.5'
p169
sS'_winSharesPer48Minutes'
p170
S'.060'
p171
sS'_stealPercentage'
p172
S'0.0'
p173
sS'_usagePercentage'
p174
S'20.6'
p175
sS'_totalReboundsPercentage'
p176
S'6.7'
p177
sS'_defensiveBoxPlusMinus'
p178
S'-7.4'
p179
sg21
S'SF'
p180
sS'_valueOverReplacementPlayer'
p181
S'0.0'
p182
sS'_trueShootingPercentage'
p183
S'.643'
p184
sS'_defensiveReboundPercentage'
p185
S'0.0'
p186
sS'_freeThrowsAttempRate'
p187
S'.000'
p188
sS'_threePointsAttempRate'
p189
S'.143'
p190
sg26
S'NBA'
p191
sS'_offensiveBoxPlusMinues'
p192
S'-0.1'
p193
sS'_assistPercentage'
p194
S'0.0'
p195
sS'_defensiveWinShares'
p196
S'0.0'
p197
sg34
S'23'
p198
sg36
S'SAC'
p199
sg38
g39
sS'_blockPercentage'
p200
S'0.0'
p201
sS'_playerEfficiencyRating'
p202
S'16.0'
p203
sS'_offensiveWinShares'
p204
S'0.0'
p205
sg53
S'17'
p206
sS'_boxPlusMinus'
p207
S'-7.5'
p208
sg47
S'1990-91'
p209
sS'_winShares'
p210
S'0.0'
p211
sba(isrc.gp1.models.Advanced
Advanced
p212
(dp213
g166
S'0.0'
p214
sg168
S'19.2'
p215
sg170
S'-0.099'
p216
sg172
S'0.0'
p217
sg174
S'34.8'
p218
sg176
S'13.3'
p219
sg178
S'-4.8'
p220
sg21
S'SF'
p221
sg181
S'0.0'
p222
sg183
S'.474'
p223
sg185
S'27.0'
p224
sg187
S'.125'
p225
sg189
S'.375'
p226
sg26
S'NBA'
p227
sg192
S'-6.4'
p228
sg194
S'13.5'
p229
sg196
S'0.0'
p230
sg34
S'27'
p231
sg36
S'BOS'
p232
sg38
g9
sg200
S'0.0'
p233
sg202
S'5.9'
p234
sg204
S'0.0'
p235
sg53
S'13'
p236
sg207
S'-11.1'
p237
sg47
S'1994-95'
p238
sg210
S'0.0'
p239
sbasS'_per36Minutes'
p240
(lp241
(isrc.gp1.models.Per36Minutes
Per36Minutes
p242
(dp243
g8
S'4.2'
p244
sg10
S'2.1'
p245
sg12
S'.571'
p246
sg14
S'0.0'
p247
sg16
S'1.000'
p248
sg18
S'2.1'
p249
sg19
S'19.1'
p250
sg21
S'SF'
p251
sg23
g3
sg26
S'NBA'
p252
sg28
S'0.0'
p253
sg29
S'14.8'
p254
sg31
S'0.0'
p255
sg32
S'0.0'
p256
sg33
S'4.2'
p257
sg34
S'23'
p258
sg36
S'SAC'
p259
sg38
g39
sg40
S'0.0'
p260
sg41
S'6.4'
p261
sg43
S'0.0'
p262
sg44
S'12.7'
p263
sg46
S'0.0'
p264
sg47
S'1990-91'
p265
sg49
S'8.5'
p266
sg50
S'2.1'
p267
sg51
S'.500'
p268
sg53
S'17'
p269
sg55
g15
sba(isrc.gp1.models.Per36Minutes
Per36Minutes
p270
(dp271
g8
S'0.0'
p272
sg10
S'8.3'
p273
sg12
S'.375'
p274
sg14
S'2.8'
p275
sg16
S'.333'
p276
sg18
S'2.8'
p277
sg19
S'22.2'
p278
sg21
S'SF'
p279
sg23
S'1.000'
p280
sg26
S'NBA'
p281
sg28
S'0.0'
p282
sg29
S'22.2'
p283
sg31
S'11.1'
p284
sg32
S'2.8'
p285
sg33
S'8.3'
p286
sg34
S'27'
p287
sg36
S'BOS'
p288
sg38
g9
sg40
S'0.0'
p289
sg41
S'5.5'
p290
sg43
S'2.8'
p291
sg44
S'13.8'
p292
sg46
S'8.3'
p293
sg47
S'1994-95'
p294
sg49
S'8.3'
p295
sg50
S'5.5'
p296
sg51
S'.400'
p297
sg53
S'13'
p298
sg55
g15
sbasS'_fromYear'
p299
S'1991'
p300
sS'_url'
p301
S'http://www.basketball-reference.com/players/d/dawsoto01.html'
p302
sS'_perGame'
p303
(isrc.gp1.models.PerGame
PerGame
p304
(dp305
g8
S'0.0'
p306
sg10
S'1.5'
p307
sg12
S'.375'
p308
sS'_effectiveFieldGalPercentage'
p309
S'.438'
p310
sg14
S'0.5'
p311
sg16
S'.333'
p312
sg18
S'0.5'
p313
sg19
S'4.0'
p314
sg21
S'SF'
p315
sg23
S'1.000'
p316
sg26
S'NBA'
p317
sg28
S'0.0'
p318
sg31
S'2.0'
p319
sS'_fieldGoalsttempted'
p320
S'4.0'
p321
sg32
S'0.5'
p322
sg33
S'1.5'
p323
sg34
S'27'
p324
sg36
S'BOS'
p325
sg38
g9
sg40
S'0.0'
p326
sg41
S'1.0'
p327
sg43
S'0.5'
p328
sg44
S'2.5'
p329
sg46
S'1.5'
p330
sg47
S'1994-95'
p331
sg49
S'1.5'
p332
sg50
S'1.0'
p333
sg51
S'.400'
p334
sg53
S'6.5'
p335
sg55
g15
sbsS'_weight'
p336
S'215'
p337
sS'_dob'
p338
S'25-8-1967'
p339
sS'_salary'
p340
(lp341
sg21
S'F'
p342
sb.