(isrc.gp1.models.Player
Player
p0
(dp1
S'_experience'
p2
V6
p3
sS'_totals'
p4
(lp5
(isrc.gp1.models.Totals
Totals
p6
(dp7
S'_offensiveRebounds'
p8
S'34'
p9
sS'_threePointsAttempted'
p10
S'95'
p11
sS'_fieldGoalsPercentage'
p12
S'.464'
p13
sS'_assist'
p14
S'34'
p15
sS'_threePointsPercentage'
p16
S'.305'
p17
sS'_threePoints'
p18
S'29'
p19
sS'_points'
p20
S'349'
p21
sS'_position'
p22
S'SF'
p23
sS'_freeThrowsPercentage'
p24
S'.821'
p25
sS'_effectiveFieldGoalPercentage'
p26
S'.514'
p27
sS'_league'
p28
S'NBA'
p29
sS'_steals'
p30
S'25'
p31
sS'_fieldGoalsAttempted'
p32
S'295'
p33
sS'_personalFouls'
p34
S'114'
p35
sS'_freeThrowsAttempted'
p36
S'56'
p37
sS'_totalRebounds'
p38
S'174'
p39
sS'_age'
p40
S'21'
p41
sS'_team'
p42
S'DET'
p43
sS'_games'
p44
S'69'
p45
sS'_blocks'
p46
S'26'
p47
sS'_twoPoints'
p48
S'108'
p49
sS'_freeThrows'
p50
S'46'
p51
sS'_twoPointsAttempted'
p52
S'200'
p53
sS'_defensiveRebounds'
p54
S'140'
p55
sS'_season'
p56
S'2009-10'
p57
sS'_fieldGoals'
p58
S'137'
p59
sS'_turnOvers'
p60
S'48'
p61
sS'_twoPointsPercentage'
p62
S'.540'
p63
sS'_minutesPlayed'
p64
S'915'
p65
sS'_gamesStarted'
p66
S'4'
p67
sba(isrc.gp1.models.Totals
Totals
p68
(dp69
g8
S'64'
p70
sg10
S'172'
p71
sg12
S'.410'
p72
sg14
S'78'
p73
sg16
S'.401'
p74
sg18
S'69'
p75
sg20
S'537'
p76
sg22
S'SF'
p77
sg24
S'.759'
p78
sg26
S'.483'
p79
sg28
S'NBA'
p80
sg30
S'39'
p81
sg32
S'471'
p82
sg34
S'165'
p83
sg36
S'108'
p84
sg38
S'274'
p85
sg40
S'22'
p86
sg42
S'DET'
p87
sg44
S'72'
p88
sg46
S'39'
p89
sg48
S'124'
p90
sg50
S'82'
p91
sg52
S'299'
p92
sg54
S'210'
p93
sg56
S'2010-11'
p94
sg58
S'193'
p95
sg60
S'59'
p96
sg62
S'.415'
p97
sg64
S'1446'
p98
sg66
S'16'
p99
sba(isrc.gp1.models.Totals
Totals
p100
(dp101
g8
S'14'
p102
sg10
S'62'
p103
sg12
S'.322'
p104
sg14
S'33'
p105
sg16
S'.210'
p106
sg18
S'13'
p107
sg20
S'194'
p108
sg22
S'SF'
p109
sg24
S'.814'
p110
sg26
S'.350'
p111
sg28
S'NBA'
p112
sg30
S'22'
p113
sg32
S'227'
p114
sg34
S'62'
p115
sg36
S'43'
p116
sg38
S'91'
p117
sg40
S'23'
p118
sg42
S'DET'
p119
sg44
S'41'
p120
sg46
S'21'
p121
sg48
S'60'
p122
sg50
S'35'
p123
sg52
S'165'
p124
sg54
S'77'
p125
sg56
S'2011-12'
p126
sg58
S'73'
p127
sg60
S'40'
p128
sg62
S'.364'
p129
sg64
S'603'
p130
sg66
g67
sba(isrc.gp1.models.Totals
Totals
p131
(dp132
g8
S'16'
p133
sg10
S'98'
p134
sg12
S'.433'
p135
sg14
S'42'
p136
sg16
S'.418'
p137
sg18
S'41'
p138
sg20
S'247'
p139
sg22
S'SF'
p140
sg24
S'.765'
p141
sg26
S'.531'
p142
sg28
S'NBA'
p143
sg30
S'14'
p144
sg32
S'208'
p145
sg34
S'82'
p146
sg36
S'34'
p147
sg38
S'123'
p148
sg40
S'24'
p149
sg42
S'TOT'
p150
sg44
S'55'
p151
sg46
S'22'
p152
sg48
S'49'
p153
sg50
S'26'
p154
sg52
S'110'
p155
sg54
S'107'
p156
sg56
S'2012-13'
p157
sg58
S'90'
p158
sg60
S'29'
p159
sg62
S'.445'
p160
sg64
S'676'
p161
sg66
S'0'
p162
sba(isrc.gp1.models.Totals
Totals
p163
(dp164
g8
S'10'
p165
sg10
S'40'
p166
sg12
S'.443'
p167
sg14
S'21'
p168
sg16
S'.525'
p169
sg18
S'21'
p170
sg20
S'122'
p171
sg22
S'SF'
p172
sg24
S'.833'
p173
sg26
S'.552'
p174
sg28
S'NBA'
p175
sg30
S'5'
p176
sg32
S'97'
p177
sg34
S'43'
p178
sg36
S'18'
p179
sg38
S'63'
p180
sg40
S'24'
p181
sg42
S'DET'
p182
sg44
S'24'
p183
sg46
S'8'
p184
sg48
S'22'
p185
sg50
S'15'
p186
sg52
S'57'
p187
sg54
S'53'
p188
sg56
S'2012-13'
p189
sg58
S'43'
p190
sg60
S'13'
p191
sg62
S'.386'
p192
sg64
S'348'
p193
sg66
g162
sba(isrc.gp1.models.Totals
Totals
p194
(dp195
g8
S'6'
p196
sg10
S'58'
p197
sg12
S'.423'
p198
sg14
S'21'
p199
sg16
S'.345'
p200
sg18
S'20'
p201
sg20
S'125'
p202
sg22
S'SF'
p203
sg24
S'.688'
p204
sg26
S'.514'
p205
sg28
S'NBA'
p206
sg30
S'9'
p207
sg32
S'111'
p208
sg34
S'39'
p209
sg36
S'16'
p210
sg38
S'60'
p211
sg40
S'24'
p212
sg42
S'MEM'
p213
sg44
S'31'
p214
sg46
S'14'
p215
sg48
S'27'
p216
sg50
S'11'
p217
sg52
S'53'
p218
sg54
S'54'
p219
sg56
S'2012-13'
p220
sg58
S'47'
p221
sg60
S'16'
p222
sg62
S'.509'
p223
sg64
S'328'
p224
sg66
g162
sba(isrc.gp1.models.Totals
Totals
p225
(dp226
g8
g176
sg10
S'37'
p227
sg12
S'.353'
p228
sg14
g184
sg16
S'.324'
p229
sg18
S'12'
p230
sg20
S'66'
p231
sg22
S'SF'
p232
sg24
S'.600'
p233
sg26
S'.441'
p234
sg28
S'NBA'
p235
sg30
g67
sg32
S'68'
p236
sg34
S'18'
p237
sg36
S'10'
p238
sg38
S'27'
p239
sg40
S'25'
p240
sg42
S'TOT'
p241
sg44
S'22'
p242
sg46
g67
sg48
S'12'
p243
sg50
g196
sg52
S'31'
p244
sg54
S'22'
p245
sg56
S'2013-14'
p246
sg58
S'24'
p247
sg60
g176
sg62
S'.387'
p248
sg64
S'148'
p249
sg66
S'1'
p250
sba(isrc.gp1.models.Totals
Totals
p251
(dp252
g8
S'2'
p253
sg10
g184
sg12
S'.231'
p254
sg14
g253
sg16
S'.000'
p255
sg18
g162
sg20
g184
sg22
S'SF'
p256
sg24
S'.667'
p257
sg26
S'.231'
p258
sg28
S'NBA'
p259
sg30
g162
sg32
S'13'
p260
sg34
g67
sg36
S'3'
p261
sg38
S'7'
p262
sg40
S'25'
p263
sg42
S'TOR'
p264
sg44
g184
sg46
g162
sg48
g261
sg50
g253
sg52
g176
sg54
g176
sg56
S'2013-14'
p265
sg58
g261
sg60
g162
sg62
S'.600'
p266
sg64
S'33'
p267
sg66
g162
sba(isrc.gp1.models.Totals
Totals
p268
(dp269
g8
g261
sg10
S'29'
p270
sg12
S'.382'
p271
sg14
g196
sg16
S'.414'
p272
sg18
S'12'
p273
sg20
S'58'
p274
sg22
S'SF'
p275
sg24
S'.571'
p276
sg26
S'.491'
p277
sg28
S'NBA'
p278
sg30
g67
sg32
S'55'
p279
sg34
S'14'
p280
sg36
g262
sg38
S'20'
p281
sg40
S'25'
p282
sg42
S'SAS'
p283
sg44
S'14'
p284
sg46
g67
sg48
g207
sg50
g67
sg52
S'26'
p285
sg54
S'17'
p286
sg56
S'2013-14'
p287
sg58
S'21'
p288
sg60
g176
sg62
S'.346'
p289
sg64
S'115'
p290
sg66
g250
sba(isrc.gp1.models.Totals
Totals
p291
(dp292
g8
S'10'
p293
sg10
S'71'
p294
sg12
S'.355'
p295
sg14
S'17'
p296
sg16
S'.338'
p297
sg18
S'24'
p298
sg20
S'129'
p299
sg22
S'SF'
p300
sg24
S'.833'
p301
sg26
S'.440'
p302
sg28
S'NBA'
p303
sg30
S'12'
p304
sg32
S'141'
p305
sg34
S'39'
p306
sg36
g196
sg38
S'75'
p307
sg40
S'26'
p308
sg42
S'TOT'
p309
sg44
S'34'
p310
sg46
g176
sg48
S'26'
p311
sg50
g176
sg52
S'70'
p312
sg54
S'65'
p313
sg56
S'2014-15'
p314
sg58
S'50'
p315
sg60
S'23'
p316
sg62
S'.371'
p317
sg64
S'344'
p318
sg66
g67
sba(isrc.gp1.models.Totals
Totals
p319
(dp320
g8
g196
sg10
S'57'
p321
sg12
S'.348'
p322
sg14
g207
sg16
S'.333'
p323
sg18
S'19'
p324
sg20
S'103'
p325
sg22
S'SF'
p326
sg24
S'1.000'
p327
sg26
S'.430'
p328
sg28
S'NBA'
p329
sg30
g184
sg32
S'115'
p330
sg34
S'30'
p331
sg36
g67
sg38
S'61'
p332
sg40
S'26'
p333
sg42
S'SAS'
p334
sg44
S'26'
p335
sg46
g261
sg48
S'21'
p336
sg50
g67
sg52
S'58'
p337
sg54
S'55'
p338
sg56
S'2014-15'
p339
sg58
S'40'
p340
sg60
S'18'
p341
sg62
S'.362'
p342
sg64
S'268'
p343
sg66
g67
sba(isrc.gp1.models.Totals
Totals
p344
(dp345
g8
g67
sg10
S'14'
p346
sg12
S'.385'
p347
sg14
g184
sg16
S'.357'
p348
sg18
g176
sg20
S'26'
p349
sg22
S'SF'
p350
sg24
S'.500'
p351
sg26
S'.481'
p352
sg28
S'NBA'
p353
sg30
g67
sg32
S'26'
p354
sg34
g207
sg36
g253
sg38
S'14'
p355
sg40
S'26'
p356
sg42
S'ATL'
p357
sg44
g184
sg46
g253
sg48
g176
sg50
g250
sg52
S'12'
p358
sg54
S'10'
p359
sg56
S'2014-15'
p360
sg58
S'10'
p361
sg60
g176
sg62
S'.417'
p362
sg64
S'76'
p363
sg66
g162
sbasS'_college'
p364
S'Gonzaga University'
p365
sS'_toYear'
p366
S'2015'
p367
sS'_height'
p368
S'6-11'
p369
sS'_active'
p370
I01
sS'_shootingHand'
p371
VRight
p372
sS'_name'
p373
S'Austin Daye'
p374
sS'_per100Possessions'
p375
(lp376
(isrc.gp1.models.Per100Possession
Per100Possession
p377
(dp378
g8
S'2.0'
p379
sg10
S'5.6'
p380
sg12
S'.464'
p381
sS'_offensiveRating'
p382
S'105'
p383
sg14
S'2.0'
p384
sg16
S'.305'
p385
sg18
S'1.7'
p386
sg20
S'20.7'
p387
sg22
S'SF'
p388
sS'_defensiveRating'
p389
S'110'
p390
sg24
S'.821'
p391
sg28
S'NBA'
p392
sg30
S'1.5'
p393
sg32
S'17.5'
p394
sg34
S'6.8'
p395
sg36
S'3.3'
p396
sg38
S'10.3'
p397
sg40
S'21'
p398
sg42
S'DET'
p399
sg44
S'69'
p400
sg46
S'1.5'
p401
sg48
S'6.4'
p402
sg50
S'2.7'
p403
sg52
S'11.8'
p404
sg54
S'8.3'
p405
sg56
S'2009-10'
p406
sg58
S'8.1'
p407
sg60
S'2.8'
p408
sg62
S'.540'
p409
sg64
S'915'
p410
sg66
g67
sba(isrc.gp1.models.Per100Possession
Per100Possession
p411
(dp412
g8
S'2.4'
p413
sg10
S'6.4'
p414
sg12
S'.410'
p415
sg382
S'106'
p416
sg14
S'2.9'
p417
sg16
S'.401'
p418
sg18
S'2.6'
p419
sg20
S'20.0'
p420
sg22
S'SF'
p421
sg389
S'110'
p422
sg24
S'.759'
p423
sg28
S'NBA'
p424
sg30
S'1.5'
p425
sg32
S'17.5'
p426
sg34
S'6.1'
p427
sg36
S'4.0'
p428
sg38
S'10.2'
p429
sg40
S'22'
p430
sg42
S'DET'
p431
sg44
S'72'
p432
sg46
S'1.5'
p433
sg48
S'4.6'
p434
sg50
S'3.1'
p435
sg52
S'11.1'
p436
sg54
S'7.8'
p437
sg56
S'2010-11'
p438
sg58
S'7.2'
p439
sg60
S'2.2'
p440
sg62
S'.415'
p441
sg64
S'1446'
p442
sg66
S'16'
p443
sba(isrc.gp1.models.Per100Possession
Per100Possession
p444
(dp445
g8
S'1.2'
p446
sg10
S'5.5'
p447
sg12
S'.322'
p448
sg382
S'80'
p449
sg14
S'2.9'
p450
sg16
S'.210'
p451
sg18
S'1.2'
p452
sg20
S'17.3'
p453
sg22
S'SF'
p454
sg389
S'104'
p455
sg24
S'.814'
p456
sg28
S'NBA'
p457
sg30
S'2.0'
p458
sg32
S'20.2'
p459
sg34
S'5.5'
p460
sg36
S'3.8'
p461
sg38
S'8.1'
p462
sg40
S'23'
p463
sg42
S'DET'
p464
sg44
S'41'
p465
sg46
S'1.9'
p466
sg48
S'5.4'
p467
sg50
S'3.1'
p468
sg52
S'14.7'
p469
sg54
S'6.9'
p470
sg56
S'2011-12'
p471
sg58
S'6.5'
p472
sg60
S'3.6'
p473
sg62
S'.364'
p474
sg64
S'603'
p475
sg66
g67
sba(isrc.gp1.models.Per100Possession
Per100Possession
p476
(dp477
g8
S'1.3'
p478
sg10
S'7.8'
p479
sg12
S'.433'
p480
sg382
S'109'
p481
sg14
S'3.3'
p482
sg16
S'.418'
p483
sg18
S'3.2'
p484
sg20
S'19.6'
p485
sg22
S'SF'
p486
sg389
S'104'
p487
sg24
S'.765'
p488
sg28
S'NBA'
p489
sg30
S'1.1'
p490
sg32
S'16.5'
p491
sg34
S'6.5'
p492
sg36
S'2.7'
p493
sg38
S'9.7'
p494
sg40
S'24'
p495
sg42
S'TOT'
p496
sg44
S'55'
p497
sg46
S'1.7'
p498
sg48
S'3.9'
p499
sg50
S'2.1'
p500
sg52
S'8.7'
p501
sg54
S'8.5'
p502
sg56
S'2012-13'
p503
sg58
S'7.1'
p504
sg60
S'2.3'
p505
sg62
S'.445'
p506
sg64
S'676'
p507
sg66
g162
sba(isrc.gp1.models.Per100Possession
Per100Possession
p508
(dp509
g8
S'1.5'
p510
sg10
S'6.1'
p511
sg12
S'.443'
p512
sg382
S'115'
p513
sg14
S'3.2'
p514
sg16
S'.525'
p515
sg18
S'3.2'
p516
sg20
S'18.5'
p517
sg22
S'SF'
p518
sg389
S'109'
p519
sg24
S'.833'
p520
sg28
S'NBA'
p521
sg30
S'0.8'
p522
sg32
S'14.7'
p523
sg34
S'6.5'
p524
sg36
S'2.7'
p525
sg38
S'9.6'
p526
sg40
S'24'
p527
sg42
S'DET'
p528
sg44
S'24'
p529
sg46
S'1.2'
p530
sg48
S'3.3'
p531
sg50
S'2.3'
p532
sg52
S'8.7'
p533
sg54
S'8.0'
p534
sg56
S'2012-13'
p535
sg58
S'6.5'
p536
sg60
S'2.0'
p537
sg62
S'.386'
p538
sg64
S'348'
p539
sg66
g162
sba(isrc.gp1.models.Per100Possession
Per100Possession
p540
(dp541
g8
S'1.0'
p542
sg10
S'9.6'
p543
sg12
S'.423'
p544
sg382
S'104'
p545
sg14
S'3.5'
p546
sg16
S'.345'
p547
sg18
S'3.3'
p548
sg20
S'20.7'
p549
sg22
S'SF'
p550
sg389
S'99'
p551
sg24
S'.688'
p552
sg28
S'NBA'
p553
sg30
S'1.5'
p554
sg32
S'18.4'
p555
sg34
S'6.5'
p556
sg36
S'2.6'
p557
sg38
S'9.9'
p558
sg40
S'24'
p559
sg42
S'MEM'
p560
sg44
S'31'
p561
sg46
S'2.3'
p562
sg48
S'4.5'
p563
sg50
S'1.8'
p564
sg52
S'8.8'
p565
sg54
S'8.9'
p566
sg56
S'2012-13'
p567
sg58
S'7.8'
p568
sg60
S'2.6'
p569
sg62
S'.509'
p570
sg64
S'328'
p571
sg66
g162
sba(isrc.gp1.models.Per100Possession
Per100Possession
p572
(dp573
g8
S'1.7'
p574
sg10
S'12.7'
p575
sg12
S'.353'
p576
sg382
S'94'
p577
sg14
S'2.8'
p578
sg16
S'.324'
p579
sg18
S'4.1'
p580
sg20
S'22.7'
p581
sg22
S'SF'
p582
sg389
S'103'
p583
sg24
S'.600'
p584
sg28
S'NBA'
p585
sg30
S'1.4'
p586
sg32
S'23.4'
p587
sg34
S'6.2'
p588
sg36
S'3.4'
p589
sg38
S'9.3'
p590
sg40
S'25'
p591
sg42
S'TOT'
p592
sg44
S'22'
p593
sg46
S'1.4'
p594
sg48
S'4.1'
p595
sg50
S'2.1'
p596
sg52
S'10.7'
p597
sg54
S'7.6'
p598
sg56
S'2013-14'
p599
sg58
S'8.3'
p600
sg60
S'1.7'
p601
sg62
S'.387'
p602
sg64
S'148'
p603
sg66
g250
sba(isrc.gp1.models.Per100Possession
Per100Possession
p604
(dp605
g8
S'3.2'
p606
sg10
S'12.7'
p607
sg12
S'.231'
p608
sg382
S'79'
p609
sg14
S'3.2'
p610
sg16
S'.000'
p611
sg18
S'0.0'
p612
sg20
S'12.7'
p613
sg22
S'SF'
p614
sg389
S'109'
p615
sg24
S'.667'
p616
sg28
S'NBA'
p617
sg30
S'0.0'
p618
sg32
S'20.6'
p619
sg34
S'6.3'
p620
sg36
S'4.8'
p621
sg38
S'11.1'
p622
sg40
S'25'
p623
sg42
S'TOR'
p624
sg44
g184
sg46
S'0.0'
p625
sg48
S'4.8'
p626
sg50
S'3.2'
p627
sg52
S'7.9'
p628
sg54
S'7.9'
p629
sg56
S'2013-14'
p630
sg58
S'4.8'
p631
sg60
S'0.0'
p632
sg62
S'.600'
p633
sg64
S'33'
p634
sg66
g162
sba(isrc.gp1.models.Per100Possession
Per100Possession
p635
(dp636
g8
S'1.3'
p637
sg10
S'12.7'
p638
sg12
S'.382'
p639
sg382
S'98'
p640
sg14
S'2.6'
p641
sg16
S'.414'
p642
sg18
S'5.3'
p643
sg20
S'25.5'
p644
sg22
S'SF'
p645
sg389
S'101'
p646
sg24
S'.571'
p647
sg28
S'NBA'
p648
sg30
S'1.8'
p649
sg32
S'24.2'
p650
sg34
S'6.2'
p651
sg36
S'3.1'
p652
sg38
S'8.8'
p653
sg40
S'25'
p654
sg42
S'SAS'
p655
sg44
S'14'
p656
sg46
S'1.8'
p657
sg48
S'4.0'
p658
sg50
S'1.8'
p659
sg52
S'11.4'
p660
sg54
S'7.5'
p661
sg56
S'2013-14'
p662
sg58
S'9.2'
p663
sg60
S'2.2'
p664
sg62
S'.346'
p665
sg64
S'115'
p666
sg66
g250
sba(isrc.gp1.models.Per100Possession
Per100Possession
p667
(dp668
g8
S'1.5'
p669
sg10
S'10.6'
p670
sg12
S'.355'
p671
sg382
S'85'
p672
sg14
S'2.5'
p673
sg16
S'.338'
p674
sg18
S'3.6'
p675
sg20
S'19.2'
p676
sg22
S'SF'
p677
sg389
S'101'
p678
sg24
S'.833'
p679
sg28
S'NBA'
p680
sg30
S'1.8'
p681
sg32
S'21.0'
p682
sg34
S'5.8'
p683
sg36
S'0.9'
p684
sg38
S'11.2'
p685
sg40
S'26'
p686
sg42
S'TOT'
p687
sg44
S'34'
p688
sg46
S'0.7'
p689
sg48
S'3.9'
p690
sg50
S'0.7'
p691
sg52
S'10.4'
p692
sg54
S'9.7'
p693
sg56
S'2014-15'
p694
sg58
S'7.4'
p695
sg60
S'3.4'
p696
sg62
S'.371'
p697
sg64
S'344'
p698
sg66
g67
sba(isrc.gp1.models.Per100Possession
Per100Possession
p699
(dp700
g8
S'1.1'
p701
sg10
S'10.9'
p702
sg12
S'.348'
p703
sg382
S'82'
p704
sg14
S'1.7'
p705
sg16
S'.333'
p706
sg18
S'3.6'
p707
sg20
S'19.7'
p708
sg22
S'SF'
p709
sg389
S'101'
p710
sg24
S'1.000'
p711
sg28
S'NBA'
p712
sg30
S'1.5'
p713
sg32
S'22.0'
p714
sg34
S'5.7'
p715
sg36
S'0.8'
p716
sg38
S'11.7'
p717
sg40
S'26'
p718
sg42
S'SAS'
p719
sg44
S'26'
p720
sg46
S'0.6'
p721
sg48
S'4.0'
p722
sg50
S'0.8'
p723
sg52
S'11.1'
p724
sg54
S'10.5'
p725
sg56
S'2014-15'
p726
sg58
S'7.6'
p727
sg60
S'3.4'
p728
sg62
S'.362'
p729
sg64
S'268'
p730
sg66
g67
sba(isrc.gp1.models.Per100Possession
Per100Possession
p731
(dp732
g8
S'2.7'
p733
sg10
S'9.4'
p734
sg12
S'.385'
p735
sg382
S'96'
p736
sg14
S'5.4'
p737
sg16
S'.357'
p738
sg18
S'3.4'
p739
sg20
S'17.5'
p740
sg22
S'SF'
p741
sg389
S'101'
p742
sg24
S'.500'
p743
sg28
S'NBA'
p744
sg30
S'2.7'
p745
sg32
S'17.5'
p746
sg34
S'6.1'
p747
sg36
S'1.3'
p748
sg38
S'9.4'
p749
sg40
S'26'
p750
sg42
S'ATL'
p751
sg44
g184
sg46
S'1.3'
p752
sg48
S'3.4'
p753
sg50
S'0.7'
p754
sg52
S'8.1'
p755
sg54
S'6.7'
p756
sg56
S'2014-15'
p757
sg58
S'6.7'
p758
sg60
S'3.4'
p759
sg62
S'.417'
p760
sg64
S'76'
p761
sg66
g162
sbasS'_advanced'
p762
(lp763
(isrc.gp1.models.Advanced
Advanced
p764
(dp765
S'_offensiveReboundPercentage'
p766
S'4.2'
p767
sS'_turnOverPercentage'
p768
S'13.1'
p769
sS'_winSharesPer48Minutes'
p770
S'.067'
p771
sS'_stealPercentage'
p772
S'1.5'
p773
sS'_usagePercentage'
p774
S'18.5'
p775
sS'_totalReboundsPercentage'
p776
S'11.5'
p777
sS'_defensiveBoxPlusMinus'
p778
S'-0.8'
p779
sg22
S'SF'
p780
sS'_valueOverReplacementPlayer'
p781
S'-0.2'
p782
sS'_trueShootingPercentage'
p783
S'.546'
p784
sS'_defensiveReboundPercentage'
p785
S'19.8'
p786
sS'_freeThrowsAttempRate'
p787
S'.190'
p788
sS'_threePointsAttempRate'
p789
S'.322'
p790
sg28
S'NBA'
p791
sS'_offensiveBoxPlusMinues'
p792
S'-1.9'
p793
sS'_assistPercentage'
p794
S'6.3'
p795
sS'_defensiveWinShares'
p796
S'0.7'
p797
sg40
S'21'
p798
sg42
S'DET'
p799
sg44
S'69'
p800
sS'_blockPercentage'
p801
S'2.4'
p802
sS'_playerEfficiencyRating'
p803
S'12.8'
p804
sS'_offensiveWinShares'
p805
S'0.6'
p806
sg64
S'915'
p807
sS'_boxPlusMinus'
p808
S'-2.7'
p809
sg56
S'2009-10'
p810
sS'_winShares'
p811
S'1.3'
p812
sba(isrc.gp1.models.Advanced
Advanced
p813
(dp814
g766
S'5.2'
p815
sg768
S'10.2'
p816
sg770
S'.070'
p817
sg772
S'1.5'
p818
sg774
S'18.6'
p819
sg776
S'11.6'
p820
sg778
S'-0.7'
p821
sg22
S'SF'
p822
sg781
S'0.3'
p823
sg783
S'.518'
p824
sg785
S'18.6'
p825
sg787
S'.229'
p826
sg789
S'.365'
p827
sg28
S'NBA'
p828
sg792
S'-0.6'
p829
sg794
S'8.5'
p830
sg796
S'0.9'
p831
sg40
S'22'
p832
sg42
S'DET'
p833
sg44
S'72'
p834
sg801
S'2.2'
p835
sg803
S'13.0'
p836
sg805
S'1.2'
p837
sg64
S'1446'
p838
sg808
S'-1.3'
p839
sg56
S'2010-11'
p840
sg811
S'2.1'
p841
sba(isrc.gp1.models.Advanced
Advanced
p842
(dp843
g766
S'2.7'
p844
sg768
S'14.0'
p845
sg770
S'-0.050'
p846
sg772
S'2.0'
p847
sg774
S'21.9'
p848
sg776
S'9.0'
p849
sg778
S'-0.3'
p850
sg22
S'SF'
p851
sg781
S'-0.6'
p852
sg783
S'.394'
p853
sg785
S'15.8'
p854
sg787
S'.189'
p855
sg789
S'.273'
p856
sg28
S'NBA'
p857
sg792
S'-5.6'
p858
sg794
S'9.2'
p859
sg796
S'0.6'
p860
sg40
S'23'
p861
sg42
S'DET'
p862
sg44
S'41'
p863
sg801
S'2.8'
p864
sg803
S'7.1'
p865
sg805
S'-1.3'
p866
sg64
S'603'
p867
sg808
S'-5.9'
p868
sg56
S'2011-12'
p869
sg811
S'-0.6'
p870
sba(isrc.gp1.models.Advanced
Advanced
p871
(dp872
g766
S'2.7'
p873
sg768
S'11.5'
p874
sg770
S'.117'
p875
sg772
S'1.1'
p876
sg774
S'17.1'
p877
sg776
S'10.6'
p878
sg778
S'0.1'
p879
sg22
S'SF'
p880
sg781
S'0.2'
p881
sg783
S'.554'
p882
sg785
S'18.8'
p883
sg787
S'.163'
p884
sg789
S'.471'
p885
sg28
S'NBA'
p886
sg792
S'-0.8'
p887
sg794
S'10.1'
p888
sg796
S'0.9'
p889
sg40
S'24'
p890
sg42
S'TOT'
p891
sg44
S'55'
p892
sg801
S'2.6'
p893
sg803
S'12.9'
p894
sg805
S'0.8'
p895
sg64
S'676'
p896
sg808
S'-0.7'
p897
sg56
S'2012-13'
p898
sg811
S'1.6'
p899
sba(isrc.gp1.models.Advanced
Advanced
p900
(dp901
g766
S'3.2'
p902
sg768
S'11.0'
p903
sg770
S'.108'
p904
sg772
S'0.8'
p905
sg774
S'15.4'
p906
sg776
S'10.4'
p907
sg778
S'-1.1'
p908
sg22
S'SF'
p909
sg781
S'0.0'
p910
sg783
S'.581'
p911
sg785
S'17.9'
p912
sg787
S'.186'
p913
sg789
S'.412'
p914
sg28
S'NBA'
p915
sg792
S'-0.5'
p916
sg794
S'9.6'
p917
sg796
S'0.2'
p918
sg40
S'24'
p919
sg42
S'DET'
p920
sg44
S'24'
p921
sg801
S'1.8'
p922
sg803
S'12.6'
p923
sg805
S'0.5'
p924
sg64
S'348'
p925
sg808
S'-1.6'
p926
sg56
S'2012-13'
p927
sg811
S'0.8'
p928
sba(isrc.gp1.models.Advanced
Advanced
p929
(dp930
g766
S'2.1'
p931
sg768
S'11.9'
p932
sg770
S'.127'
p933
sg772
S'1.5'
p934
sg774
S'18.8'
p935
sg776
S'10.8'
p936
sg778
S'1.4'
p937
sg22
S'SF'
p938
sg781
S'0.2'
p939
sg783
S'.529'
p940
sg785
S'19.8'
p941
sg787
S'.144'
p942
sg789
S'.523'
p943
sg28
S'NBA'
p944
sg792
S'-1.1'
p945
sg794
S'10.6'
p946
sg796
S'0.6'
p947
sg40
S'24'
p948
sg42
S'MEM'
p949
sg44
S'31'
p950
sg801
S'3.5'
p951
sg803
S'13.3'
p952
sg805
S'0.2'
p953
sg64
S'328'
p954
sg808
S'0.3'
p955
sg56
S'2012-13'
p956
sg811
S'0.9'
p957
sba(isrc.gp1.models.Advanced
Advanced
p958
(dp959
g766
S'3.9'
p960
sg768
S'6.5'
p961
sg770
S'.047'
p962
sg772
S'1.4'
p963
sg774
S'23.7'
p964
sg776
S'10.4'
p965
sg778
S'-1.4'
p966
sg22
S'SF'
p967
sg781
S'0.0'
p968
sg783
S'.456'
p969
sg785
S'16.4'
p970
sg787
S'.147'
p971
sg789
S'.544'
p972
sg28
S'NBA'
p973
sg792
S'-1.8'
p974
sg794
S'8.2'
p975
sg796
S'0.2'
p976
sg40
S'25'
p977
sg42
S'TOT'
p978
sg44
S'22'
p979
sg801
S'2.0'
p980
sg803
S'11.0'
p981
sg805
S'-0.1'
p982
sg64
S'148'
p983
sg808
S'-3.2'
p984
sg56
S'2013-14'
p985
sg811
S'0.1'
p986
sba(isrc.gp1.models.Advanced
Advanced
p987
(dp988
g766
S'7.0'
p989
sg768
S'0.0'
p990
sg770
S'-0.067'
p991
sg772
S'0.0'
p992
sg774
S'19.7'
p993
sg776
S'12.4'
p994
sg778
S'-3.6'
p995
sg22
S'SF'
p996
sg781
S'-0.1'
p997
sg783
S'.279'
p998
sg785
S'17.8'
p999
sg787
S'.231'
p1000
sg789
S'.615'
p1001
sg28
S'NBA'
p1002
sg792
S'-5.0'
p1003
sg794
S'9.2'
p1004
sg796
S'0.0'
p1005
sg40
S'25'
p1006
sg42
S'TOR'
p1007
sg44
g184
sg801
S'0.0'
p1008
sg803
S'2.4'
p1009
sg805
S'-0.1'
p1010
sg64
S'33'
p1011
sg808
S'-8.6'
p1012
sg56
S'2013-14'
p1013
sg811
S'0.0'
p1014
sba(isrc.gp1.models.Advanced
Advanced
p1015
(dp1016
g766
S'3.1'
p1017
sg768
S'7.9'
p1018
sg770
S'.080'
p1019
sg772
S'1.8'
p1020
sg774
S'24.8'
p1021
sg776
S'9.8'
p1022
sg778
S'-0.7'
p1023
sg22
S'SF'
p1024
sg781
S'0.0'
p1025
sg783
S'.499'
p1026
sg785
S'16.0'
p1027
sg787
S'.127'
p1028
sg789
S'.527'
p1029
sg28
S'NBA'
p1030
sg792
S'-0.9'
p1031
sg794
S'7.9'
p1032
sg796
S'0.2'
p1033
sg40
S'25'
p1034
sg42
S'SAS'
p1035
sg44
S'14'
p1036
sg801
S'2.5'
p1037
sg803
S'13.5'
p1038
sg805
S'0.0'
p1039
sg64
S'115'
p1040
sg808
S'-1.6'
p1041
sg56
S'2013-14'
p1042
sg811
S'0.2'
p1043
sba(isrc.gp1.models.Advanced
Advanced
p1044
(dp1045
g766
S'3.4'
p1046
sg768
S'13.8'
p1047
sg770
S'-0.001'
p1048
sg772
S'1.8'
p1049
sg774
S'22.1'
p1050
sg776
S'12.4'
p1051
sg778
S'-1.0'
p1052
sg22
S'SF'
p1053
sg781
S'-0.3'
p1054
sg783
S'.449'
p1055
sg785
S'21.0'
p1056
sg787
S'.043'
p1057
sg789
S'.504'
p1058
sg28
S'NBA'
p1059
sg792
S'-4.4'
p1060
sg794
S'7.5'
p1061
sg796
S'0.5'
p1062
sg40
S'26'
p1063
sg42
S'TOT'
p1064
sg44
S'34'
p1065
sg801
S'1.1'
p1066
sg803
S'8.2'
p1067
sg805
S'-0.6'
p1068
sg64
S'344'
p1069
sg808
S'-5.4'
p1070
sg56
S'2014-15'
p1071
sg811
S'0.0'
p1072
sba(isrc.gp1.models.Advanced
Advanced
p1073
(dp1074
g766
S'2.6'
p1075
sg768
S'13.4'
p1076
sg770
S'-0.021'
p1077
sg772
S'1.5'
p1078
sg774
S'22.9'
p1079
sg776
S'12.9'
p1080
sg778
S'-1.5'
p1081
sg22
S'SF'
p1082
sg781
S'-0.3'
p1083
sg783
S'.441'
p1084
sg785
S'22.8'
p1085
sg787
S'.035'
p1086
sg789
S'.496'
p1087
sg28
S'NBA'
p1088
sg792
S'-5.3'
p1089
sg794
S'5.1'
p1090
sg796
S'0.4'
p1091
sg40
S'26'
p1092
sg42
S'SAS'
p1093
sg44
S'26'
p1094
sg801
S'0.8'
p1095
sg803
S'7.1'
p1096
sg805
S'-0.5'
p1097
sg64
S'268'
p1098
sg808
S'-6.8'
p1099
sg56
S'2014-15'
p1100
sg811
S'-0.1'
p1101
sba(isrc.gp1.models.Advanced
Advanced
p1102
(dp1103
g766
S'6.2'
p1104
sg768
S'15.7'
p1105
sg770
S'.068'
p1106
sg772
S'2.7'
p1107
sg774
S'19.2'
p1108
sg776
S'10.5'
p1109
sg778
S'0.9'
p1110
sg22
S'SF'
p1111
sg781
S'0.0'
p1112
sg783
S'.484'
p1113
sg785
S'14.6'
p1114
sg787
S'.077'
p1115
sg789
S'.538'
p1116
sg28
S'NBA'
p1117
sg792
S'-1.3'
p1118
sg794
S'16.0'
p1119
sg796
S'0.1'
p1120
sg40
S'26'
p1121
sg42
S'ATL'
p1122
sg44
g184
sg801
S'2.2'
p1123
sg803
S'12.1'
p1124
sg805
S'0.0'
p1125
sg64
S'76'
p1126
sg808
S'-0.3'
p1127
sg56
S'2014-15'
p1128
sg811
S'0.1'
p1129
sbasS'_per36Minutes'
p1130
(lp1131
(isrc.gp1.models.Per36Minutes
Per36Minutes
p1132
(dp1133
g8
S'1.3'
p1134
sg10
S'3.7'
p1135
sg12
S'.464'
p1136
sg14
S'1.3'
p1137
sg16
S'.305'
p1138
sg18
S'1.1'
p1139
sg20
S'13.7'
p1140
sg22
S'SF'
p1141
sg24
S'.821'
p1142
sg28
S'NBA'
p1143
sg30
S'1.0'
p1144
sg32
S'11.6'
p1145
sg34
S'4.5'
p1146
sg36
S'2.2'
p1147
sg38
S'6.8'
p1148
sg40
S'21'
p1149
sg42
S'DET'
p1150
sg44
S'69'
p1151
sg46
S'1.0'
p1152
sg48
S'4.2'
p1153
sg50
S'1.8'
p1154
sg52
S'7.9'
p1155
sg54
S'5.5'
p1156
sg56
S'2009-10'
p1157
sg58
S'5.4'
p1158
sg60
S'1.9'
p1159
sg62
S'.540'
p1160
sg64
S'915'
p1161
sg66
g67
sba(isrc.gp1.models.Per36Minutes
Per36Minutes
p1162
(dp1163
g8
S'1.6'
p1164
sg10
S'4.3'
p1165
sg12
S'.410'
p1166
sg14
S'1.9'
p1167
sg16
S'.401'
p1168
sg18
S'1.7'
p1169
sg20
S'13.4'
p1170
sg22
S'SF'
p1171
sg24
S'.759'
p1172
sg28
S'NBA'
p1173
sg30
S'1.0'
p1174
sg32
S'11.7'
p1175
sg34
S'4.1'
p1176
sg36
S'2.7'
p1177
sg38
S'6.8'
p1178
sg40
S'22'
p1179
sg42
S'DET'
p1180
sg44
S'72'
p1181
sg46
S'1.0'
p1182
sg48
S'3.1'
p1183
sg50
S'2.0'
p1184
sg52
S'7.4'
p1185
sg54
S'5.2'
p1186
sg56
S'2010-11'
p1187
sg58
S'4.8'
p1188
sg60
S'1.5'
p1189
sg62
S'.415'
p1190
sg64
S'1446'
p1191
sg66
S'16'
p1192
sba(isrc.gp1.models.Per36Minutes
Per36Minutes
p1193
(dp1194
g8
S'0.8'
p1195
sg10
S'3.7'
p1196
sg12
S'.322'
p1197
sg14
S'2.0'
p1198
sg16
S'.210'
p1199
sg18
S'0.8'
p1200
sg20
S'11.6'
p1201
sg22
S'SF'
p1202
sg24
S'.814'
p1203
sg28
S'NBA'
p1204
sg30
S'1.3'
p1205
sg32
S'13.6'
p1206
sg34
S'3.7'
p1207
sg36
S'2.6'
p1208
sg38
S'5.4'
p1209
sg40
S'23'
p1210
sg42
S'DET'
p1211
sg44
S'41'
p1212
sg46
S'1.3'
p1213
sg48
S'3.6'
p1214
sg50
S'2.1'
p1215
sg52
S'9.9'
p1216
sg54
S'4.6'
p1217
sg56
S'2011-12'
p1218
sg58
S'4.4'
p1219
sg60
S'2.4'
p1220
sg62
S'.364'
p1221
sg64
S'603'
p1222
sg66
g67
sba(isrc.gp1.models.Per36Minutes
Per36Minutes
p1223
(dp1224
g8
S'0.9'
p1225
sg10
S'5.2'
p1226
sg12
S'.433'
p1227
sg14
S'2.2'
p1228
sg16
S'.418'
p1229
sg18
S'2.2'
p1230
sg20
S'13.2'
p1231
sg22
S'SF'
p1232
sg24
S'.765'
p1233
sg28
S'NBA'
p1234
sg30
S'0.7'
p1235
sg32
S'11.1'
p1236
sg34
S'4.4'
p1237
sg36
S'1.8'
p1238
sg38
S'6.6'
p1239
sg40
S'24'
p1240
sg42
S'TOT'
p1241
sg44
S'55'
p1242
sg46
S'1.2'
p1243
sg48
S'2.6'
p1244
sg50
S'1.4'
p1245
sg52
S'5.9'
p1246
sg54
S'5.7'
p1247
sg56
S'2012-13'
p1248
sg58
S'4.8'
p1249
sg60
S'1.5'
p1250
sg62
S'.445'
p1251
sg64
S'676'
p1252
sg66
g162
sba(isrc.gp1.models.Per36Minutes
Per36Minutes
p1253
(dp1254
g8
S'1.0'
p1255
sg10
S'4.1'
p1256
sg12
S'.443'
p1257
sg14
S'2.2'
p1258
sg16
S'.525'
p1259
sg18
S'2.2'
p1260
sg20
S'12.6'
p1261
sg22
S'SF'
p1262
sg24
S'.833'
p1263
sg28
S'NBA'
p1264
sg30
S'0.5'
p1265
sg32
S'10.0'
p1266
sg34
S'4.4'
p1267
sg36
S'1.9'
p1268
sg38
S'6.5'
p1269
sg40
S'24'
p1270
sg42
S'DET'
p1271
sg44
S'24'
p1272
sg46
S'0.8'
p1273
sg48
S'2.3'
p1274
sg50
S'1.6'
p1275
sg52
S'5.9'
p1276
sg54
S'5.5'
p1277
sg56
S'2012-13'
p1278
sg58
S'4.4'
p1279
sg60
S'1.3'
p1280
sg62
S'.386'
p1281
sg64
S'348'
p1282
sg66
g162
sba(isrc.gp1.models.Per36Minutes
Per36Minutes
p1283
(dp1284
g8
S'0.7'
p1285
sg10
S'6.4'
p1286
sg12
S'.423'
p1287
sg14
S'2.3'
p1288
sg16
S'.345'
p1289
sg18
S'2.2'
p1290
sg20
S'13.7'
p1291
sg22
S'SF'
p1292
sg24
S'.688'
p1293
sg28
S'NBA'
p1294
sg30
S'1.0'
p1295
sg32
S'12.2'
p1296
sg34
S'4.3'
p1297
sg36
S'1.8'
p1298
sg38
S'6.6'
p1299
sg40
S'24'
p1300
sg42
S'MEM'
p1301
sg44
S'31'
p1302
sg46
S'1.5'
p1303
sg48
S'3.0'
p1304
sg50
S'1.2'
p1305
sg52
S'5.8'
p1306
sg54
S'5.9'
p1307
sg56
S'2012-13'
p1308
sg58
S'5.2'
p1309
sg60
S'1.8'
p1310
sg62
S'.509'
p1311
sg64
S'328'
p1312
sg66
g162
sba(isrc.gp1.models.Per36Minutes
Per36Minutes
p1313
(dp1314
g8
S'1.2'
p1315
sg10
S'9.0'
p1316
sg12
S'.353'
p1317
sg14
S'1.9'
p1318
sg16
S'.324'
p1319
sg18
S'2.9'
p1320
sg20
S'16.1'
p1321
sg22
S'SF'
p1322
sg24
S'.600'
p1323
sg28
S'NBA'
p1324
sg30
S'1.0'
p1325
sg32
S'16.5'
p1326
sg34
S'4.4'
p1327
sg36
S'2.4'
p1328
sg38
S'6.6'
p1329
sg40
S'25'
p1330
sg42
S'TOT'
p1331
sg44
S'22'
p1332
sg46
S'1.0'
p1333
sg48
S'2.9'
p1334
sg50
S'1.5'
p1335
sg52
S'7.5'
p1336
sg54
S'5.4'
p1337
sg56
S'2013-14'
p1338
sg58
S'5.8'
p1339
sg60
S'1.2'
p1340
sg62
S'.387'
p1341
sg64
S'148'
p1342
sg66
g250
sba(isrc.gp1.models.Per36Minutes
Per36Minutes
p1343
(dp1344
g8
S'2.2'
p1345
sg10
S'8.7'
p1346
sg12
S'.231'
p1347
sg14
S'2.2'
p1348
sg16
S'.000'
p1349
sg18
S'0.0'
p1350
sg20
S'8.7'
p1351
sg22
S'SF'
p1352
sg24
S'.667'
p1353
sg28
S'NBA'
p1354
sg30
S'0.0'
p1355
sg32
S'14.2'
p1356
sg34
S'4.4'
p1357
sg36
S'3.3'
p1358
sg38
S'7.6'
p1359
sg40
S'25'
p1360
sg42
S'TOR'
p1361
sg44
g184
sg46
S'0.0'
p1362
sg48
S'3.3'
p1363
sg50
S'2.2'
p1364
sg52
S'5.5'
p1365
sg54
S'5.5'
p1366
sg56
S'2013-14'
p1367
sg58
S'3.3'
p1368
sg60
S'0.0'
p1369
sg62
S'.600'
p1370
sg64
S'33'
p1371
sg66
g162
sba(isrc.gp1.models.Per36Minutes
Per36Minutes
p1372
(dp1373
g8
S'0.9'
p1374
sg10
S'9.1'
p1375
sg12
S'.382'
p1376
sg14
S'1.9'
p1377
sg16
S'.414'
p1378
sg18
S'3.8'
p1379
sg20
S'18.2'
p1380
sg22
S'SF'
p1381
sg24
S'.571'
p1382
sg28
S'NBA'
p1383
sg30
S'1.3'
p1384
sg32
S'17.2'
p1385
sg34
S'4.4'
p1386
sg36
S'2.2'
p1387
sg38
S'6.3'
p1388
sg40
S'25'
p1389
sg42
S'SAS'
p1390
sg44
S'14'
p1391
sg46
S'1.3'
p1392
sg48
S'2.8'
p1393
sg50
S'1.3'
p1394
sg52
S'8.1'
p1395
sg54
S'5.3'
p1396
sg56
S'2013-14'
p1397
sg58
S'6.6'
p1398
sg60
S'1.6'
p1399
sg62
S'.346'
p1400
sg64
S'115'
p1401
sg66
g250
sba(isrc.gp1.models.Per36Minutes
Per36Minutes
p1402
(dp1403
g8
S'1.0'
p1404
sg10
S'7.4'
p1405
sg12
S'.355'
p1406
sg14
S'1.8'
p1407
sg16
S'.338'
p1408
sg18
S'2.5'
p1409
sg20
S'13.5'
p1410
sg22
S'SF'
p1411
sg24
S'.833'
p1412
sg28
S'NBA'
p1413
sg30
S'1.3'
p1414
sg32
S'14.8'
p1415
sg34
S'4.1'
p1416
sg36
S'0.6'
p1417
sg38
S'7.8'
p1418
sg40
S'26'
p1419
sg42
S'TOT'
p1420
sg44
S'34'
p1421
sg46
S'0.5'
p1422
sg48
S'2.7'
p1423
sg50
S'0.5'
p1424
sg52
S'7.3'
p1425
sg54
S'6.8'
p1426
sg56
S'2014-15'
p1427
sg58
S'5.2'
p1428
sg60
S'2.4'
p1429
sg62
S'.371'
p1430
sg64
S'344'
p1431
sg66
g67
sba(isrc.gp1.models.Per36Minutes
Per36Minutes
p1432
(dp1433
g8
S'0.8'
p1434
sg10
S'7.7'
p1435
sg12
S'.348'
p1436
sg14
S'1.2'
p1437
sg16
S'.333'
p1438
sg18
S'2.6'
p1439
sg20
S'13.8'
p1440
sg22
S'SF'
p1441
sg24
S'1.000'
p1442
sg28
S'NBA'
p1443
sg30
S'1.1'
p1444
sg32
S'15.4'
p1445
sg34
S'4.0'
p1446
sg36
S'0.5'
p1447
sg38
S'8.2'
p1448
sg40
S'26'
p1449
sg42
S'SAS'
p1450
sg44
S'26'
p1451
sg46
S'0.4'
p1452
sg48
S'2.8'
p1453
sg50
S'0.5'
p1454
sg52
S'7.8'
p1455
sg54
S'7.4'
p1456
sg56
S'2014-15'
p1457
sg58
S'5.4'
p1458
sg60
S'2.4'
p1459
sg62
S'.362'
p1460
sg64
S'268'
p1461
sg66
g67
sba(isrc.gp1.models.Per36Minutes
Per36Minutes
p1462
(dp1463
g8
S'1.9'
p1464
sg10
S'6.6'
p1465
sg12
S'.385'
p1466
sg14
S'3.8'
p1467
sg16
S'.357'
p1468
sg18
S'2.4'
p1469
sg20
S'12.3'
p1470
sg22
S'SF'
p1471
sg24
S'.500'
p1472
sg28
S'NBA'
p1473
sg30
S'1.9'
p1474
sg32
S'12.3'
p1475
sg34
S'4.3'
p1476
sg36
S'0.9'
p1477
sg38
S'6.6'
p1478
sg40
S'26'
p1479
sg42
S'ATL'
p1480
sg44
g184
sg46
S'0.9'
p1481
sg48
S'2.4'
p1482
sg50
S'0.5'
p1483
sg52
S'5.7'
p1484
sg54
S'4.7'
p1485
sg56
S'2014-15'
p1486
sg58
S'4.7'
p1487
sg60
S'2.4'
p1488
sg62
S'.417'
p1489
sg64
S'76'
p1490
sg66
g162
sbasS'_fromYear'
p1491
S'2010'
p1492
sS'_url'
p1493
S'http://www.basketball-reference.com/players/d/dayeau01.html'
p1494
sS'_perGame'
p1495
(isrc.gp1.models.PerGame
PerGame
p1496
(dp1497
g8
S'0.5'
p1498
sg10
S'1.8'
p1499
sg12
S'.385'
p1500
sS'_effectiveFieldGalPercentage'
p1501
S'.481'
p1502
sg14
S'1.0'
p1503
sg16
S'.357'
p1504
sg18
S'0.6'
p1505
sg20
S'3.3'
p1506
sg22
S'SF'
p1507
sg24
S'.500'
p1508
sg28
S'NBA'
p1509
sg30
S'0.5'
p1510
sg34
S'1.1'
p1511
sS'_fieldGoalsttempted'
p1512
S'3.3'
p1513
sg36
S'0.3'
p1514
sg38
S'1.8'
p1515
sg40
S'26'
p1516
sg42
S'ATL'
p1517
sg44
g184
sg46
S'0.3'
p1518
sg48
S'0.6'
p1519
sg50
S'0.1'
p1520
sg52
S'1.5'
p1521
sg54
S'1.3'
p1522
sg56
S'2014-15'
p1523
sg58
S'1.3'
p1524
sg60
S'0.6'
p1525
sg62
S'.417'
p1526
sg64
S'9.5'
p1527
sg66
g162
sbsS'_weight'
p1528
S'220'
p1529
sS'_dob'
p1530
S'5-6-1988'
p1531
sS'_salary'
p1532
(lp1533
(isrc.gp1.models.Salary
Salary
p1534
(dp1535
g42
S'Detroit Pistons'
p1536
sg28
S'NBA'
p1537
sg1532
S'$1,677,840'
p1538
sg56
S'2009-10'
p1539
sba(isrc.gp1.models.Salary
Salary
p1540
(dp1541
g42
S'Detroit Pistons'
p1542
sg28
S'NBA'
p1543
sg1532
S'$1,803,720'
p1544
sg56
S'2010-11'
p1545
sba(isrc.gp1.models.Salary
Salary
p1546
(dp1547
g42
S'Detroit Pistons'
p1548
sg28
S'NBA'
p1549
sg1532
S'$1,929,600'
p1550
sg56
S'2011-12'
p1551
sba(isrc.gp1.models.Salary
Salary
p1552
(dp1553
g42
S'Memphis Grizzlies'
p1554
sg28
S'NBA'
p1555
sg1532
S'$2,958,077'
p1556
sg56
S'2012-13'
p1557
sba(isrc.gp1.models.Salary
Salary
p1558
(dp1559
g42
S'Toronto Raptors'
p1560
sg28
S'NBA'
p1561
sg1532
S'$947,907'
p1562
sg56
S'2013-14'
p1563
sba(isrc.gp1.models.Salary
Salary
p1564
(dp1565
g42
S'San Antonio Spurs'
p1566
sg28
S'NBA'
p1567
sg1532
S'$1,063,384'
p1568
sg56
S'2014-15'
p1569
sba(isrc.gp1.models.Salary
Salary
p1570
(dp1571
g42
S'Atlanta Hawks'
p1572
sg28
S'NBA'
p1573
sg1532
S'$125,104'
p1574
sg56
S'2014-15'
p1575
sbasg22
S'F'
p1576
sb.