(isrc.gp1.models.Player
Player
p0
(dp1
S'_experience'
p2
S'NA'
p3
sS'_totals'
p4
(lp5
(isrc.gp1.models.Totals
Totals
p6
(dp7
S'_offensiveRebounds'
p8
g3
sS'_threePointsAttempted'
p9
g3
sS'_fieldGoalsPercentage'
p10
S'.430'
p11
sS'_assist'
p12
S'207'
p13
sS'_threePointsPercentage'
p14
g3
sS'_threePoints'
p15
g3
sS'_points'
p16
S'1018'
p17
sS'_position'
p18
S'SF'
p19
sS'_freeThrowsPercentage'
p20
S'.718'
p21
sS'_effectiveFieldGoalPercentage'
p22
S'.430'
p23
sS'_league'
p24
S'NBA'
p25
sS'_steals'
p26
g3
sS'_fieldGoalsAttempted'
p27
S'944'
p28
sS'_personalFouls'
p29
S'247'
p30
sS'_freeThrowsAttempted'
p31
S'287'
p32
sS'_totalRebounds'
p33
S'694'
p34
sS'_age'
p35
S'22'
p36
sS'_team'
p37
S'DET'
p38
sS'_games'
p39
S'80'
p40
sS'_blocks'
p41
g3
sS'_twoPoints'
p42
S'406'
p43
sS'_freeThrows'
p44
S'206'
p45
sS'_twoPointsAttempted'
p46
S'944'
p47
sS'_defensiveRebounds'
p48
g3
sS'_season'
p49
S'1962-63'
p50
sS'_fieldGoals'
p51
S'406'
p52
sS'_turnOvers'
p53
g3
sS'_twoPointsPercentage'
p54
S'.430'
p55
sS'_minutesPlayed'
p56
S'2352'
p57
sS'_gamesStarted'
p58
g3
sba(isrc.gp1.models.Totals
Totals
p59
(dp60
g8
g3
sg9
g3
sg10
S'.391'
p61
sg12
S'23'
p62
sg14
g3
sg15
g3
sg16
S'129'
p63
sg18
S'SF'
p64
sg20
S'.581'
p65
sg22
S'.391'
p66
sg24
S'NBA'
p67
sg26
g3
sg27
S'133'
p68
sg29
S'32'
p69
sg31
S'43'
p70
sg33
S'105'
p71
sg35
S'23'
p72
sg37
S'DET'
p73
sg39
S'15'
p74
sg41
g3
sg42
S'52'
p75
sg44
S'25'
p76
sg46
S'133'
p77
sg48
g3
sg49
S'1963-64'
p78
sg51
S'52'
p79
sg53
g3
sg54
S'.391'
p80
sg56
S'304'
p81
sg58
g3
sba(isrc.gp1.models.Totals
Totals
p82
(dp83
g8
g3
sg9
g3
sg10
S'.425'
p84
sg12
S'253'
p85
sg14
g3
sg15
g3
sg16
S'1322'
p86
sg18
S'PF'
p87
sg20
S'.700'
p88
sg22
S'.425'
p89
sg24
S'NBA'
p90
sg26
g3
sg27
S'1196'
p91
sg29
S'242'
p92
sg31
S'437'
p93
sg33
S'874'
p94
sg35
S'24'
p95
sg37
S'DET'
p96
sg39
S'79'
p97
sg41
g3
sg42
S'508'
p98
sg44
S'306'
p99
sg46
S'1196'
p100
sg48
g3
sg49
S'1964-65'
p101
sg51
S'508'
p102
sg53
g3
sg54
S'.425'
p103
sg56
S'2769'
p104
sg58
g3
sba(isrc.gp1.models.Totals
Totals
p105
(dp106
g8
g3
sg9
g3
sg10
S'.408'
p107
sg12
S'209'
p108
sg14
g3
sg15
g3
sg16
S'1297'
p109
sg18
S'SF'
p110
sg20
S'.659'
p111
sg22
S'.408'
p112
sg24
S'NBA'
p113
sg26
g3
sg27
S'1284'
p114
sg29
S'252'
p115
sg31
S'378'
p116
sg33
S'916'
p117
sg35
S'25'
p118
sg37
S'DET'
p119
sg39
S'79'
p120
sg41
g3
sg42
S'524'
p121
sg44
S'249'
p122
sg46
S'1284'
p123
sg48
g3
sg49
S'1965-66'
p124
sg51
S'524'
p125
sg53
g3
sg54
S'.408'
p126
sg56
S'2696'
p127
sg58
g3
sba(isrc.gp1.models.Totals
Totals
p128
(dp129
g8
g3
sg9
g3
sg10
S'.415'
p130
sg12
S'216'
p131
sg14
g3
sg15
g3
sg16
S'1423'
p132
sg18
S'SF'
p133
sg20
S'.705'
p134
sg22
S'.415'
p135
sg24
S'NBA'
p136
sg26
g3
sg27
S'1278'
p137
sg29
S'297'
p138
sg31
S'512'
p139
sg33
S'924'
p140
sg35
S'26'
p141
sg37
S'DET'
p142
sg39
S'78'
p143
sg41
g3
sg42
S'531'
p144
sg44
S'361'
p145
sg46
S'1278'
p146
sg48
g3
sg49
S'1966-67'
p147
sg51
S'531'
p148
sg53
g3
sg54
S'.415'
p149
sg56
S'2897'
p150
sg58
g3
sba(isrc.gp1.models.Totals
Totals
p151
(dp152
g8
g3
sg9
g3
sg10
S'.442'
p153
sg12
S'181'
p154
sg14
g3
sg15
g3
sg16
S'1435'
p155
sg18
S'SF'
p156
sg20
S'.664'
p157
sg22
S'.442'
p158
sg24
S'NBA'
p159
sg26
g3
sg27
S'1295'
p160
sg29
S'304'
p161
sg31
S'435'
p162
sg33
S'1081'
p163
sg35
S'27'
p164
sg37
S'DET'
p165
sg39
S'80'
p166
sg41
g3
sg42
S'573'
p167
sg44
S'289'
p168
sg46
S'1295'
p169
sg48
g3
sg49
S'1967-68'
p170
sg51
S'573'
p171
sg53
g3
sg54
S'.442'
p172
sg56
S'3125'
p173
sg58
g3
sba(isrc.gp1.models.Totals
Totals
p174
(dp175
g8
g3
sg9
g3
sg10
S'.444'
p176
sg12
S'191'
p177
sg14
g3
sg15
g3
sg16
S'1241'
p178
sg18
S'PF'
p179
sg20
S'.698'
p180
sg22
S'.444'
p181
sg24
S'NBA'
p182
sg26
g3
sg27
S'1140'
p183
sg29
S'290'
p184
sg31
S'328'
p185
sg33
S'888'
p186
sg35
S'28'
p187
sg37
S'TOT'
p188
sg39
S'76'
p189
sg41
g3
sg42
S'506'
p190
sg44
S'229'
p191
sg46
S'1140'
p192
sg48
g3
sg49
S'1968-69'
p193
sg51
S'506'
p194
sg53
g3
sg54
S'.444'
p195
sg56
S'2943'
p196
sg58
g3
sba(isrc.gp1.models.Totals
Totals
p197
(dp198
g8
g3
sg9
g3
sg10
S'.447'
p199
sg12
S'63'
p200
sg14
g3
sg15
g3
sg16
S'472'
p201
sg18
S'PF'
p202
sg20
S'.723'
p203
sg22
S'.447'
p204
sg24
S'NBA'
p205
sg26
g3
sg27
S'423'
p206
sg29
S'111'
p207
sg31
S'130'
p208
sg33
S'353'
p209
sg35
S'28'
p210
sg37
S'DET'
p211
sg39
S'29'
p212
sg41
g3
sg42
S'189'
p213
sg44
S'94'
p214
sg46
S'423'
p215
sg48
g3
sg49
S'1968-69'
p216
sg51
S'189'
p217
sg53
g3
sg54
S'.447'
p218
sg56
S'1092'
p219
sg58
g3
sba(isrc.gp1.models.Totals
Totals
p220
(dp221
g8
g3
sg9
g3
sg10
S'.442'
p222
sg12
S'128'
p223
sg14
g3
sg15
g3
sg16
S'769'
p224
sg18
S'PF'
p225
sg20
S'.682'
p226
sg22
S'.442'
p227
sg24
S'NBA'
p228
sg26
g3
sg27
S'717'
p229
sg29
S'179'
p230
sg31
S'198'
p231
sg33
S'535'
p232
sg35
S'28'
p233
sg37
S'NYK'
p234
sg39
S'47'
p235
sg41
g3
sg42
S'317'
p236
sg44
S'135'
p237
sg46
S'717'
p238
sg48
g3
sg49
S'1968-69'
p239
sg51
S'317'
p240
sg53
g3
sg54
S'.442'
p241
sg56
S'1851'
p242
sg58
g3
sba(isrc.gp1.models.Totals
Totals
p243
(dp244
g8
g3
sg9
g3
sg10
S'.451'
p245
sg12
S'194'
p246
sg14
g3
sg15
g3
sg16
S'1152'
p247
sg18
S'PF'
p248
sg20
S'.688'
p249
sg22
S'.451'
p250
sg24
S'NBA'
p251
sg26
g3
sg27
S'1082'
p252
sg29
S'244'
p253
sg31
S'256'
p254
sg33
S'790'
p255
sg35
S'29'
p256
sg37
S'NYK'
p257
sg39
S'79'
p258
sg41
g3
sg42
S'488'
p259
sg44
S'176'
p260
sg46
S'1082'
p261
sg48
g3
sg49
S'1969-70'
p262
sg51
S'488'
p263
sg53
g3
sg54
S'.451'
p264
sg56
S'2627'
p265
sg58
g3
sba(isrc.gp1.models.Totals
Totals
p266
(dp267
g8
g3
sg9
g3
sg10
S'.421'
p268
sg12
S'220'
p269
sg14
g3
sg15
g3
sg16
S'1263'
p270
sg18
S'PF'
p271
sg20
S'.696'
p272
sg22
S'.421'
p273
sg24
S'NBA'
p274
sg26
g3
sg27
S'1243'
p275
sg29
S'237'
p276
sg31
S'312'
p277
sg33
S'901'
p278
sg35
S'30'
p279
sg37
S'NYK'
p280
sg39
S'81'
p281
sg41
g3
sg42
S'523'
p282
sg44
S'217'
p283
sg46
S'1243'
p284
sg48
g3
sg49
S'1970-71'
p285
sg51
S'523'
p286
sg53
g3
sg54
S'.421'
p287
sg56
S'2891'
p288
sg58
g3
sba(isrc.gp1.models.Totals
Totals
p289
(dp290
g8
g3
sg9
g3
sg10
S'.427'
p291
sg12
S'291'
p292
sg14
g3
sg15
g3
sg16
S'1233'
p293
sg18
S'PF'
p294
sg20
S'.728'
p295
sg22
S'.427'
p296
sg24
S'NBA'
p297
sg26
g3
sg27
S'1218'
p298
sg29
S'219'
p299
sg31
S'265'
p300
sg33
S'901'
p301
sg35
S'31'
p302
sg37
S'NYK'
p303
sg39
S'80'
p304
sg41
g3
sg42
S'520'
p305
sg44
S'193'
p306
sg46
S'1218'
p307
sg48
g3
sg49
S'1971-72'
p308
sg51
S'520'
p309
sg53
g3
sg54
S'.427'
p310
sg56
S'3072'
p311
sg58
g3
sba(isrc.gp1.models.Totals
Totals
p312
(dp313
g8
g3
sg9
g3
sg10
S'.435'
p314
sg12
S'259'
p315
sg14
g3
sg15
g3
sg16
S'1258'
p316
sg18
S'PF'
p317
sg20
S'.746'
p318
sg22
S'.435'
p319
sg24
S'NBA'
p320
sg26
g3
sg27
S'1224'
p321
sg29
S'215'
p322
sg31
S'260'
p323
sg33
S'787'
p324
sg35
S'32'
p325
sg37
S'NYK'
p326
sg39
S'77'
p327
sg41
g3
sg42
S'532'
p328
sg44
S'194'
p329
sg46
S'1224'
p330
sg48
g3
sg49
S'1972-73'
p331
sg51
S'532'
p332
sg53
g3
sg54
S'.435'
p333
sg56
S'2827'
p334
sg58
g3
sba(isrc.gp1.models.Totals
Totals
p335
(dp336
g8
S'134'
p337
sg9
g3
sg10
S'.461'
p338
sg12
S'253'
p339
sg14
g3
sg15
g3
sg16
S'1282'
p340
sg18
S'PF'
p341
sg20
S'.756'
p342
sg22
S'.461'
p343
sg24
S'NBA'
p344
sg26
S'67'
p345
sg27
S'1212'
p346
sg29
S'222'
p347
sg31
S'217'
p348
sg33
S'757'
p349
sg35
S'33'
p350
sg37
S'NYK'
p351
sg39
S'71'
p352
sg41
S'39'
p353
sg42
S'559'
p354
sg44
S'164'
p355
sg46
S'1212'
p356
sg48
S'623'
p357
sg49
S'1973-74'
p358
sg51
S'559'
p359
sg53
g3
sg54
S'.461'
p360
sg56
S'2699'
p361
sg58
g3
sbasS'_college'
p362
S'University of Detroit Mercy'
p363
sS'_toYear'
p364
S'1974'
p365
sS'_height'
p366
S'6-6'
p367
sS'_active'
p368
I00
sS'_shootingHand'
p369
VRight
p370
sS'_name'
p371
S'Dave DeBusschere'
p372
sS'_per100Possessions'
p373
(lp374
(isrc.gp1.models.Per100Possession
Per100Possession
p375
(dp376
g8
S'2.3'
p377
sg9
g3
sg10
S'.461'
p378
sS'_offensiveRating'
p379
g3
sg12
S'4.3'
p380
sg14
g3
sg15
g3
sg16
S'22.0'
p381
sg18
S'PF'
p382
sS'_defensiveRating'
p383
S'93'
p384
sg20
S'.756'
p385
sg24
S'NBA'
p386
sg26
S'1.2'
p387
sg27
S'20.8'
p388
sg29
S'3.8'
p389
sg31
S'3.7'
p390
sg33
S'13.0'
p391
sg35
S'33'
p392
sg37
S'NYK'
p393
sg39
S'71'
p394
sg41
S'0.7'
p395
sg42
S'9.6'
p396
sg44
S'2.8'
p397
sg46
S'20.8'
p398
sg48
S'10.7'
p399
sg49
S'1973-74'
p400
sg51
S'9.6'
p401
sg53
g3
sg54
S'.461'
p402
sg56
S'2699'
p403
sg58
g3
sbasS'_advanced'
p404
(lp405
(isrc.gp1.models.Advanced
Advanced
p406
(dp407
S'_offensiveReboundPercentage'
p408
g3
sS'_turnOverPercentage'
p409
g3
sS'_winSharesPer48Minutes'
p410
S'.074'
p411
sS'_stealPercentage'
p412
g3
sS'_usagePercentage'
p413
g3
sS'_totalReboundsPercentage'
p414
g3
sS'_defensiveBoxPlusMinus'
p415
g3
sg18
S'SF'
p416
sS'_valueOverReplacementPlayer'
p417
g3
sS'_trueShootingPercentage'
p418
S'.476'
p419
sS'_defensiveReboundPercentage'
p420
g3
sS'_freeThrowsAttempRate'
p421
S'.304'
p422
sS'_threePointsAttempRate'
p423
g3
sg24
S'NBA'
p424
sS'_offensiveBoxPlusMinues'
p425
g3
sS'_assistPercentage'
p426
g3
sS'_defensiveWinShares'
p427
S'2.3'
p428
sg35
S'22'
p429
sg37
S'DET'
p430
sg39
S'80'
p431
sS'_blockPercentage'
p432
g3
sS'_playerEfficiencyRating'
p433
S'14.5'
p434
sS'_offensiveWinShares'
p435
S'1.3'
p436
sg56
S'2352'
p437
sS'_boxPlusMinus'
p438
g3
sg49
S'1962-63'
p439
sS'_winShares'
p440
S'3.6'
p441
sba(isrc.gp1.models.Advanced
Advanced
p442
(dp443
g408
g3
sg409
g3
sg410
S'-0.003'
p444
sg412
g3
sg413
g3
sg414
g3
sg415
g3
sg18
S'SF'
p445
sg417
g3
sg418
S'.425'
p446
sg420
g3
sg421
S'.323'
p447
sg423
g3
sg24
S'NBA'
p448
sg425
g3
sg426
g3
sg427
S'0.2'
p449
sg35
S'23'
p450
sg37
S'DET'
p451
sg39
S'15'
p452
sg432
g3
sg433
S'13.9'
p453
sg435
S'-0.2'
p454
sg56
S'304'
p455
sg438
g3
sg49
S'1963-64'
p456
sg440
S'0.0'
p457
sba(isrc.gp1.models.Advanced
Advanced
p458
(dp459
g408
g3
sg409
g3
sg410
S'.114'
p460
sg412
g3
sg413
g3
sg414
g3
sg415
g3
sg18
S'PF'
p461
sg417
g3
sg418
S'.476'
p462
sg420
g3
sg421
S'.365'
p463
sg423
g3
sg24
S'NBA'
p464
sg425
g3
sg426
S'12.8'
p465
sg427
S'3.7'
p466
sg35
S'24'
p467
sg37
S'DET'
p468
sg39
S'79'
p469
sg432
g3
sg433
S'17.4'
p470
sg435
S'2.8'
p471
sg56
S'2769'
p472
sg438
g3
sg49
S'1964-65'
p473
sg440
S'6.6'
p474
sba(isrc.gp1.models.Advanced
Advanced
p475
(dp476
g408
g3
sg409
g3
sg410
S'.065'
p477
sg412
g3
sg413
g3
sg414
g3
sg415
g3
sg18
S'SF'
p478
sg417
g3
sg418
S'.447'
p479
sg420
g3
sg421
S'.294'
p480
sg423
g3
sg24
S'NBA'
p481
sg425
g3
sg426
S'10.9'
p482
sg427
S'3.7'
p483
sg35
S'25'
p484
sg37
S'DET'
p485
sg39
S'79'
p486
sg432
g3
sg433
S'15.7'
p487
sg435
S'-0.1'
p488
sg56
S'2696'
p489
sg438
g3
sg49
S'1965-66'
p490
sg440
S'3.7'
p491
sba(isrc.gp1.models.Advanced
Advanced
p492
(dp493
g408
g3
sg409
g3
sg410
S'.097'
p494
sg412
g3
sg413
g3
sg414
g3
sg415
g3
sg18
S'SF'
p495
sg417
g3
sg418
S'.473'
p496
sg420
g3
sg421
S'.401'
p497
sg423
g3
sg24
S'NBA'
p498
sg425
g3
sg426
S'10.4'
p499
sg427
S'4.3'
p500
sg35
S'26'
p501
sg37
S'DET'
p502
sg39
S'78'
p503
sg432
g3
sg433
S'16.2'
p504
sg435
S'1.6'
p505
sg56
S'2897'
p506
sg438
g3
sg49
S'1966-67'
p507
sg440
S'5.9'
p508
sba(isrc.gp1.models.Advanced
Advanced
p509
(dp510
g408
g3
sg409
g3
sg410
S'.072'
p511
sg412
g3
sg413
g3
sg414
g3
sg415
g3
sg18
S'SF'
p512
sg417
g3
sg418
S'.483'
p513
sg420
g3
sg421
S'.336'
p514
sg423
g3
sg24
S'NBA'
p515
sg425
g3
sg426
S'7.6'
p516
sg427
S'2.9'
p517
sg35
S'27'
p518
sg37
S'DET'
p519
sg39
S'80'
p520
sg432
g3
sg433
S'15.0'
p521
sg435
S'1.8'
p522
sg56
S'3125'
p523
sg438
g3
sg49
S'1967-68'
p524
sg440
S'4.7'
p525
sba(isrc.gp1.models.Advanced
Advanced
p526
(dp527
g408
g3
sg409
g3
sg410
S'.085'
p528
sg412
g3
sg413
g3
sg414
g3
sg415
g3
sg18
S'PF'
p529
sg417
g3
sg418
S'.483'
p530
sg420
g3
sg421
S'.288'
p531
sg423
g3
sg24
S'NBA'
p532
sg425
g3
sg426
S'8.8'
p533
sg427
S'3.0'
p534
sg35
S'28'
p535
sg37
S'TOT'
p536
sg39
S'76'
p537
sg432
g3
sg433
S'14.4'
p538
sg435
S'2.2'
p539
sg56
S'2943'
p540
sg438
g3
sg49
S'1968-69'
p541
sg440
S'5.2'
p542
sba(isrc.gp1.models.Advanced
Advanced
p543
(dp544
g408
g3
sg409
g3
sg410
S'.064'
p545
sg412
g3
sg413
g3
sg414
g3
sg415
g3
sg18
S'PF'
p546
sg417
g3
sg418
S'.491'
p547
sg420
g3
sg421
S'.307'
p548
sg423
g3
sg24
S'NBA'
p549
sg425
g3
sg426
S'7.8'
p550
sg427
S'0.5'
p551
sg35
S'28'
p552
sg37
S'DET'
p553
sg39
S'29'
p554
sg432
g3
sg433
S'14.7'
p555
sg435
S'1.0'
p556
sg56
S'1092'
p557
sg438
g3
sg49
S'1968-69'
p558
sg440
S'1.5'
p559
sba(isrc.gp1.models.Advanced
Advanced
p560
(dp561
g408
g3
sg409
g3
sg410
S'.097'
p562
sg412
g3
sg413
g3
sg414
g3
sg415
g3
sg18
S'PF'
p563
sg417
g3
sg418
S'.478'
p564
sg420
g3
sg421
S'.276'
p565
sg423
g3
sg24
S'NBA'
p566
sg425
g3
sg426
S'9.4'
p567
sg427
S'2.6'
p568
sg35
S'28'
p569
sg37
S'NYK'
p570
sg39
S'47'
p571
sg432
g3
sg433
S'14.3'
p572
sg435
S'1.2'
p573
sg56
S'1851'
p574
sg438
g3
sg49
S'1968-69'
p575
sg440
S'3.8'
p576
sba(isrc.gp1.models.Advanced
Advanced
p577
(dp578
g408
g3
sg409
g3
sg410
S'.120'
p579
sg412
g3
sg413
g3
sg414
g3
sg415
g3
sg18
S'PF'
p580
sg417
g3
sg418
S'.482'
p581
sg420
g3
sg421
S'.237'
p582
sg423
g3
sg24
S'NBA'
p583
sg425
g3
sg426
S'9.5'
p584
sg427
S'5.8'
p585
sg35
S'29'
p586
sg37
S'NYK'
p587
sg39
S'79'
p588
sg432
g3
sg433
S'14.8'
p589
sg435
S'0.7'
p590
sg56
S'2627'
p591
sg438
g3
sg49
S'1969-70'
p592
sg440
S'6.6'
p593
sba(isrc.gp1.models.Advanced
Advanced
p594
(dp595
g408
g3
sg409
g3
sg410
S'.102'
p596
sg412
g3
sg413
g3
sg414
S'14.2'
p597
sg415
g3
sg18
S'PF'
p598
sg417
g3
sg418
S'.458'
p599
sg420
g3
sg421
S'.251'
p600
sg423
g3
sg24
S'NBA'
p601
sg425
g3
sg426
S'10.3'
p602
sg427
S'6.4'
p603
sg35
S'30'
p604
sg37
S'NYK'
p605
sg39
S'81'
p606
sg432
g3
sg433
S'15.4'
p607
sg435
S'-0.2'
p608
sg56
S'2891'
p609
sg438
g3
sg49
S'1970-71'
p610
sg440
S'6.2'
p611
sba(isrc.gp1.models.Advanced
Advanced
p612
(dp613
g408
g3
sg409
g3
sg410
S'.075'
p614
sg412
g3
sg413
g3
sg414
S'14.4'
p615
sg415
g3
sg18
S'PF'
p616
sg417
g3
sg418
S'.462'
p617
sg420
g3
sg421
S'.218'
p618
sg423
g3
sg24
S'NBA'
p619
sg425
g3
sg426
S'13.2'
p620
sg427
S'4.9'
p621
sg35
S'31'
p622
sg37
S'NYK'
p623
sg39
S'80'
p624
sg432
g3
sg433
S'15.0'
p625
sg435
S'-0.2'
p626
sg56
S'3072'
p627
sg438
g3
sg49
S'1971-72'
p628
sg440
S'4.8'
p629
sba(isrc.gp1.models.Advanced
Advanced
p630
(dp631
g408
g3
sg409
g3
sg410
S'.113'
p632
sg412
g3
sg413
g3
sg414
S'13.8'
p633
sg415
g3
sg18
S'PF'
p634
sg417
g3
sg418
S'.470'
p635
sg420
g3
sg421
S'.212'
p636
sg423
g3
sg24
S'NBA'
p637
sg425
g3
sg426
S'12.5'
p638
sg427
S'5.8'
p639
sg35
S'32'
p640
sg37
S'NYK'
p641
sg39
S'77'
p642
sg432
g3
sg433
S'16.0'
p643
sg435
S'0.9'
p644
sg56
S'2827'
p645
sg438
g3
sg49
S'1972-73'
p646
sg440
S'6.6'
p647
sba(isrc.gp1.models.Advanced
Advanced
p648
(dp649
g408
S'5.2'
p650
sg409
g3
sg410
S'.125'
p651
sg412
S'1.2'
p652
sg413
g3
sg414
S'14.8'
p653
sg415
S'1.6'
p654
sg18
S'PF'
p655
sg417
S'2.5'
p656
sg418
S'.490'
p657
sg420
S'24.2'
p658
sg421
S'.179'
p659
sg423
g3
sg24
S'NBA'
p660
sg425
S'0.1'
p661
sg426
S'13.9'
p662
sg427
S'4.6'
p663
sg35
S'33'
p664
sg37
S'NYK'
p665
sg39
S'71'
p666
sg432
S'0.8'
p667
sg433
S'16.3'
p668
sg435
S'2.4'
p669
sg56
S'2699'
p670
sg438
S'1.7'
p671
sg49
S'1973-74'
p672
sg440
S'7.0'
p673
sbasS'_per36Minutes'
p674
(lp675
(isrc.gp1.models.Per36Minutes
Per36Minutes
p676
(dp677
g8
g3
sg9
g3
sg10
S'.430'
p678
sg12
S'3.2'
p679
sg14
g3
sg15
g3
sg16
S'15.6'
p680
sg18
S'SF'
p681
sg20
S'.718'
p682
sg24
S'NBA'
p683
sg26
g3
sg27
S'14.4'
p684
sg29
S'3.8'
p685
sg31
S'4.4'
p686
sg33
S'10.6'
p687
sg35
S'22'
p688
sg37
S'DET'
p689
sg39
S'80'
p690
sg41
g3
sg42
S'6.2'
p691
sg44
S'3.2'
p692
sg46
S'14.4'
p693
sg48
g3
sg49
S'1962-63'
p694
sg51
S'6.2'
p695
sg53
g3
sg54
S'.430'
p696
sg56
S'2352'
p697
sg58
g3
sba(isrc.gp1.models.Per36Minutes
Per36Minutes
p698
(dp699
g8
g3
sg9
g3
sg10
S'.391'
p700
sg12
S'2.7'
p701
sg14
g3
sg15
g3
sg16
S'15.3'
p702
sg18
S'SF'
p703
sg20
S'.581'
p704
sg24
S'NBA'
p705
sg26
g3
sg27
S'15.8'
p706
sg29
S'3.8'
p707
sg31
S'5.1'
p708
sg33
S'12.4'
p709
sg35
S'23'
p710
sg37
S'DET'
p711
sg39
S'15'
p712
sg41
g3
sg42
S'6.2'
p713
sg44
S'3.0'
p714
sg46
S'15.8'
p715
sg48
g3
sg49
S'1963-64'
p716
sg51
S'6.2'
p717
sg53
g3
sg54
S'.391'
p718
sg56
S'304'
p719
sg58
g3
sba(isrc.gp1.models.Per36Minutes
Per36Minutes
p720
(dp721
g8
g3
sg9
g3
sg10
S'.425'
p722
sg12
S'3.3'
p723
sg14
g3
sg15
g3
sg16
S'17.2'
p724
sg18
S'PF'
p725
sg20
S'.700'
p726
sg24
S'NBA'
p727
sg26
g3
sg27
S'15.5'
p728
sg29
S'3.1'
p729
sg31
S'5.7'
p730
sg33
S'11.4'
p731
sg35
S'24'
p732
sg37
S'DET'
p733
sg39
S'79'
p734
sg41
g3
sg42
S'6.6'
p735
sg44
S'4.0'
p736
sg46
S'15.5'
p737
sg48
g3
sg49
S'1964-65'
p738
sg51
S'6.6'
p739
sg53
g3
sg54
S'.425'
p740
sg56
S'2769'
p741
sg58
g3
sba(isrc.gp1.models.Per36Minutes
Per36Minutes
p742
(dp743
g8
g3
sg9
g3
sg10
S'.408'
p744
sg12
S'2.8'
p745
sg14
g3
sg15
g3
sg16
S'17.3'
p746
sg18
S'SF'
p747
sg20
S'.659'
p748
sg24
S'NBA'
p749
sg26
g3
sg27
S'17.1'
p750
sg29
S'3.4'
p751
sg31
S'5.0'
p752
sg33
S'12.2'
p753
sg35
S'25'
p754
sg37
S'DET'
p755
sg39
S'79'
p756
sg41
g3
sg42
S'7.0'
p757
sg44
S'3.3'
p758
sg46
S'17.1'
p759
sg48
g3
sg49
S'1965-66'
p760
sg51
S'7.0'
p761
sg53
g3
sg54
S'.408'
p762
sg56
S'2696'
p763
sg58
g3
sba(isrc.gp1.models.Per36Minutes
Per36Minutes
p764
(dp765
g8
g3
sg9
g3
sg10
S'.415'
p766
sg12
S'2.7'
p767
sg14
g3
sg15
g3
sg16
S'17.7'
p768
sg18
S'SF'
p769
sg20
S'.705'
p770
sg24
S'NBA'
p771
sg26
g3
sg27
S'15.9'
p772
sg29
S'3.7'
p773
sg31
S'6.4'
p774
sg33
S'11.5'
p775
sg35
S'26'
p776
sg37
S'DET'
p777
sg39
S'78'
p778
sg41
g3
sg42
S'6.6'
p779
sg44
S'4.5'
p780
sg46
S'15.9'
p781
sg48
g3
sg49
S'1966-67'
p782
sg51
S'6.6'
p783
sg53
g3
sg54
S'.415'
p784
sg56
S'2897'
p785
sg58
g3
sba(isrc.gp1.models.Per36Minutes
Per36Minutes
p786
(dp787
g8
g3
sg9
g3
sg10
S'.442'
p788
sg12
S'2.1'
p789
sg14
g3
sg15
g3
sg16
S'16.5'
p790
sg18
S'SF'
p791
sg20
S'.664'
p792
sg24
S'NBA'
p793
sg26
g3
sg27
S'14.9'
p794
sg29
S'3.5'
p795
sg31
S'5.0'
p796
sg33
S'12.5'
p797
sg35
S'27'
p798
sg37
S'DET'
p799
sg39
S'80'
p800
sg41
g3
sg42
S'6.6'
p801
sg44
S'3.3'
p802
sg46
S'14.9'
p803
sg48
g3
sg49
S'1967-68'
p804
sg51
S'6.6'
p805
sg53
g3
sg54
S'.442'
p806
sg56
S'3125'
p807
sg58
g3
sba(isrc.gp1.models.Per36Minutes
Per36Minutes
p808
(dp809
g8
g3
sg9
g3
sg10
S'.444'
p810
sg12
S'2.3'
p811
sg14
g3
sg15
g3
sg16
S'15.2'
p812
sg18
S'PF'
p813
sg20
S'.698'
p814
sg24
S'NBA'
p815
sg26
g3
sg27
S'13.9'
p816
sg29
S'3.5'
p817
sg31
S'4.0'
p818
sg33
S'10.9'
p819
sg35
S'28'
p820
sg37
S'TOT'
p821
sg39
S'76'
p822
sg41
g3
sg42
S'6.2'
p823
sg44
S'2.8'
p824
sg46
S'13.9'
p825
sg48
g3
sg49
S'1968-69'
p826
sg51
S'6.2'
p827
sg53
g3
sg54
S'.444'
p828
sg56
S'2943'
p829
sg58
g3
sba(isrc.gp1.models.Per36Minutes
Per36Minutes
p830
(dp831
g8
g3
sg9
g3
sg10
S'.447'
p832
sg12
S'2.1'
p833
sg14
g3
sg15
g3
sg16
S'15.6'
p834
sg18
S'PF'
p835
sg20
S'.723'
p836
sg24
S'NBA'
p837
sg26
g3
sg27
S'13.9'
p838
sg29
S'3.7'
p839
sg31
S'4.3'
p840
sg33
S'11.6'
p841
sg35
S'28'
p842
sg37
S'DET'
p843
sg39
S'29'
p844
sg41
g3
sg42
S'6.2'
p845
sg44
S'3.1'
p846
sg46
S'13.9'
p847
sg48
g3
sg49
S'1968-69'
p848
sg51
S'6.2'
p849
sg53
g3
sg54
S'.447'
p850
sg56
S'1092'
p851
sg58
g3
sba(isrc.gp1.models.Per36Minutes
Per36Minutes
p852
(dp853
g8
g3
sg9
g3
sg10
S'.442'
p854
sg12
S'2.5'
p855
sg14
g3
sg15
g3
sg16
S'15.0'
p856
sg18
S'PF'
p857
sg20
S'.682'
p858
sg24
S'NBA'
p859
sg26
g3
sg27
S'13.9'
p860
sg29
S'3.5'
p861
sg31
S'3.9'
p862
sg33
S'10.4'
p863
sg35
S'28'
p864
sg37
S'NYK'
p865
sg39
S'47'
p866
sg41
g3
sg42
S'6.2'
p867
sg44
S'2.6'
p868
sg46
S'13.9'
p869
sg48
g3
sg49
S'1968-69'
p870
sg51
S'6.2'
p871
sg53
g3
sg54
S'.442'
p872
sg56
S'1851'
p873
sg58
g3
sba(isrc.gp1.models.Per36Minutes
Per36Minutes
p874
(dp875
g8
g3
sg9
g3
sg10
S'.451'
p876
sg12
S'2.7'
p877
sg14
g3
sg15
g3
sg16
S'15.8'
p878
sg18
S'PF'
p879
sg20
S'.688'
p880
sg24
S'NBA'
p881
sg26
g3
sg27
S'14.8'
p882
sg29
S'3.3'
p883
sg31
S'3.5'
p884
sg33
S'10.8'
p885
sg35
S'29'
p886
sg37
S'NYK'
p887
sg39
S'79'
p888
sg41
g3
sg42
S'6.7'
p889
sg44
S'2.4'
p890
sg46
S'14.8'
p891
sg48
g3
sg49
S'1969-70'
p892
sg51
S'6.7'
p893
sg53
g3
sg54
S'.451'
p894
sg56
S'2627'
p895
sg58
g3
sba(isrc.gp1.models.Per36Minutes
Per36Minutes
p896
(dp897
g8
g3
sg9
g3
sg10
S'.421'
p898
sg12
S'2.7'
p899
sg14
g3
sg15
g3
sg16
S'15.7'
p900
sg18
S'PF'
p901
sg20
S'.696'
p902
sg24
S'NBA'
p903
sg26
g3
sg27
S'15.5'
p904
sg29
S'3.0'
p905
sg31
S'3.9'
p906
sg33
S'11.2'
p907
sg35
S'30'
p908
sg37
S'NYK'
p909
sg39
S'81'
p910
sg41
g3
sg42
S'6.5'
p911
sg44
S'2.7'
p912
sg46
S'15.5'
p913
sg48
g3
sg49
S'1970-71'
p914
sg51
S'6.5'
p915
sg53
g3
sg54
S'.421'
p916
sg56
S'2891'
p917
sg58
g3
sba(isrc.gp1.models.Per36Minutes
Per36Minutes
p918
(dp919
g8
g3
sg9
g3
sg10
S'.427'
p920
sg12
S'3.4'
p921
sg14
g3
sg15
g3
sg16
S'14.4'
p922
sg18
S'PF'
p923
sg20
S'.728'
p924
sg24
S'NBA'
p925
sg26
g3
sg27
S'14.3'
p926
sg29
S'2.6'
p927
sg31
S'3.1'
p928
sg33
S'10.6'
p929
sg35
S'31'
p930
sg37
S'NYK'
p931
sg39
S'80'
p932
sg41
g3
sg42
S'6.1'
p933
sg44
S'2.3'
p934
sg46
S'14.3'
p935
sg48
g3
sg49
S'1971-72'
p936
sg51
S'6.1'
p937
sg53
g3
sg54
S'.427'
p938
sg56
S'3072'
p939
sg58
g3
sba(isrc.gp1.models.Per36Minutes
Per36Minutes
p940
(dp941
g8
g3
sg9
g3
sg10
S'.435'
p942
sg12
S'3.3'
p943
sg14
g3
sg15
g3
sg16
S'16.0'
p944
sg18
S'PF'
p945
sg20
S'.746'
p946
sg24
S'NBA'
p947
sg26
g3
sg27
S'15.6'
p948
sg29
S'2.7'
p949
sg31
S'3.3'
p950
sg33
S'10.0'
p951
sg35
S'32'
p952
sg37
S'NYK'
p953
sg39
S'77'
p954
sg41
g3
sg42
S'6.8'
p955
sg44
S'2.5'
p956
sg46
S'15.6'
p957
sg48
g3
sg49
S'1972-73'
p958
sg51
S'6.8'
p959
sg53
g3
sg54
S'.435'
p960
sg56
S'2827'
p961
sg58
g3
sba(isrc.gp1.models.Per36Minutes
Per36Minutes
p962
(dp963
g8
S'1.8'
p964
sg9
g3
sg10
S'.461'
p965
sg12
S'3.4'
p966
sg14
g3
sg15
g3
sg16
S'17.1'
p967
sg18
S'PF'
p968
sg20
S'.756'
p969
sg24
S'NBA'
p970
sg26
S'0.9'
p971
sg27
S'16.2'
p972
sg29
S'3.0'
p973
sg31
S'2.9'
p974
sg33
S'10.1'
p975
sg35
S'33'
p976
sg37
S'NYK'
p977
sg39
S'71'
p978
sg41
S'0.5'
p979
sg42
S'7.5'
p980
sg44
S'2.2'
p981
sg46
S'16.2'
p982
sg48
S'8.3'
p983
sg49
S'1973-74'
p984
sg51
S'7.5'
p985
sg53
g3
sg54
S'.461'
p986
sg56
S'2699'
p987
sg58
g3
sbasS'_fromYear'
p988
S'1963'
p989
sS'_url'
p990
S'http://www.basketball-reference.com/players/d/debusda01.html'
p991
sS'_perGame'
p992
(isrc.gp1.models.PerGame
PerGame
p993
(dp994
g8
S'1.9'
p995
sg9
g3
sg10
S'.461'
p996
sS'_effectiveFieldGalPercentage'
p997
S'.461'
p998
sg12
S'3.6'
p999
sg14
g3
sg15
g3
sg16
S'18.1'
p1000
sg18
S'PF'
p1001
sg20
S'.756'
p1002
sg24
S'NBA'
p1003
sg26
S'0.9'
p1004
sg29
S'3.1'
p1005
sS'_fieldGoalsttempted'
p1006
S'17.1'
p1007
sg31
S'3.1'
p1008
sg33
S'10.7'
p1009
sg35
S'33'
p1010
sg37
S'NYK'
p1011
sg39
S'71'
p1012
sg41
S'0.5'
p1013
sg42
S'7.9'
p1014
sg44
S'2.3'
p1015
sg46
S'17.1'
p1016
sg48
S'8.8'
p1017
sg49
S'1973-74'
p1018
sg51
S'7.9'
p1019
sg53
g3
sg54
S'.461'
p1020
sg56
S'38.0'
p1021
sg58
g3
sbsS'_weight'
p1022
S'220'
p1023
sS'_dob'
p1024
S'16-10-1940'
p1025
sS'_salary'
p1026
(lp1027
sg18
S'F-G'
p1028
sb.