(isrc.gp1.models.Player
Player
p0
(dp1
S'_experience'
p2
S'NA'
p3
sS'_totals'
p4
(lp5
(isrc.gp1.models.Totals
Totals
p6
(dp7
S'_offensiveRebounds'
p8
S'0'
p9
sS'_threePointsAttempted'
p10
g9
sS'_fieldGoalsPercentage'
p11
S'.333'
p12
sS'_assist'
p13
S'2'
p14
sS'_threePointsPercentage'
p15
g14
sS'_threePoints'
p16
g9
sS'_points'
p17
g3
sS'_position'
p18
S'PG'
p19
sS'_freeThrowsPercentage'
p20
g9
sS'_effectiveFieldGoalPercentage'
p21
g9
sS'_league'
p22
S'NBA'
p23
sS'_steals'
p24
g9
sS'_fieldGoalsAttempted'
p25
S'6'
p26
sS'_personalFouls'
p27
S'4'
p28
sS'_freeThrowsAttempted'
p29
S'.000'
p30
sS'_totalRebounds'
p31
S'1'
p32
sS'_age'
p33
S'23'
p34
sS'_team'
p35
S'GSW'
p36
sS'_games'
p37
g14
sS'_blocks'
p38
g32
sS'_twoPoints'
p39
g26
sS'_freeThrows'
p40
g14
sS'_twoPointsAttempted'
p41
S'.333'
p42
sS'_defensiveRebounds'
p43
g9
sS'_season'
p44
S'1993-94'
p45
sS'_fieldGoals'
p46
g14
sS'_turnOvers'
p47
g32
sS'_twoPointsPercentage'
p48
S'.333'
p49
sS'_minutesPlayed'
p50
S'11'
p51
sS'_gamesStarted'
p52
g9
sba(isrc.gp1.models.Totals
Totals
p53
(dp54
g8
g3
sg10
g3
sg11
g3
sg13
g3
sg15
g3
sg16
g3
sg17
g3
sg18
g3
sg20
g3
sg21
g3
sg22
g3
sg24
g3
sg25
g3
sg27
g3
sg29
g3
sg31
g3
sg33
S'24'
p55
sg35
S'Did Not Play\xc2\xa0(other pro league\xe2\x80\x94CBA)'
p56
sg37
g3
sg38
g3
sg39
g3
sg40
g3
sg41
g3
sg43
g3
sg44
S'1994-95'
p57
sg46
g3
sg47
g3
sg48
g3
sg50
g3
sg52
g3
sba(isrc.gp1.models.Totals
Totals
p58
(dp59
g8
g14
sg10
g14
sg11
S'.576'
p60
sg13
S'8'
p61
sg15
S'.500'
p62
sg16
g32
sg17
S'53'
p63
sg18
S'SG'
p64
sg20
S'.824'
p65
sg21
S'.591'
p66
sg22
S'NBA'
p67
sg24
S'3'
p68
sg25
S'33'
p69
sg27
S'10'
p70
sg29
S'17'
p71
sg31
S'9'
p72
sg33
S'25'
p73
sg35
S'SAS'
p74
sg37
S'16'
p75
sg38
g32
sg39
S'18'
p76
sg40
S'14'
p77
sg41
S'31'
p78
sg43
S'7'
p79
sg44
S'1995-96'
p80
sg46
S'19'
p81
sg47
S'12'
p82
sg48
S'.581'
p83
sg50
S'87'
p84
sg52
g9
sba(isrc.gp1.models.Totals
Totals
p85
(dp86
g8
g9
sg10
g32
sg11
S'.000'
p87
sg13
g9
sg15
S'.000'
p88
sg16
g9
sg17
g14
sg18
S'SG'
p89
sg20
S'1.000'
p90
sg21
S'.000'
p91
sg22
S'NBA'
p92
sg24
g32
sg25
g68
sg27
g32
sg29
g14
sg31
g9
sg33
S'26'
p93
sg35
S'ORL'
p94
sg37
g14
sg38
g9
sg39
g9
sg40
g14
sg41
g14
sg43
g9
sg44
S'1996-97'
p95
sg46
g9
sg47
g9
sg48
S'.000'
p96
sg50
S'10'
p97
sg52
g9
sbasS'_college'
p98
S'University of the Pacific'
p99
sS'_toYear'
p100
S'1997'
p101
sS'_height'
p102
S'6-3'
p103
sS'_active'
p104
I00
sS'_shootingHand'
p105
VRight
p106
sS'_name'
p107
S'Dell Demps'
p108
sS'_per100Possessions'
p109
(lp110
(isrc.gp1.models.Per100Possession
Per100Possession
p111
(dp112
g8
S'0.0'
p113
sg10
S'0.0'
p114
sg11
S'.333'
p115
sS'_offensiveRating'
p116
S'98'
p117
sg13
S'8.8'
p118
sg15
S'8.8'
p119
sg16
S'0.0'
p120
sg17
S'60'
p121
sg18
S'PG'
p122
sS'_defensiveRating'
p123
g3
sg20
S'0.0'
p124
sg22
S'NBA'
p125
sg24
S'0.0'
p126
sg25
S'26.4'
p127
sg27
S'17.6'
p128
sg29
S'.000'
p129
sg31
S'4.4'
p130
sg33
S'23'
p131
sg35
S'GSW'
p132
sg37
g14
sg38
S'4.4'
p133
sg39
S'26.4'
p134
sg40
S'8.8'
p135
sg41
S'.333'
p136
sg43
S'0.0'
p137
sg44
S'1993-94'
p138
sg46
S'8.8'
p139
sg47
S'4.4'
p140
sg48
S'0.0'
p141
sg50
S'11'
p142
sg52
g9
sba(isrc.gp1.models.Per100Possession
Per100Possession
p143
(dp144
g8
S'1.2'
p145
sg10
S'1.2'
p146
sg11
S'.576'
p147
sg116
S'105'
p148
sg13
S'4.7'
p149
sg15
S'.500'
p150
sg16
S'0.6'
p151
sg17
S'31.3'
p152
sg18
S'SG'
p153
sg123
S'106'
p154
sg20
S'.824'
p155
sg22
S'NBA'
p156
sg24
S'1.8'
p157
sg25
S'19.5'
p158
sg27
S'5.9'
p159
sg29
S'10.0'
p160
sg31
S'5.3'
p161
sg33
S'25'
p162
sg35
S'SAS'
p163
sg37
S'16'
p164
sg38
S'0.6'
p165
sg39
S'10.6'
p166
sg40
S'8.3'
p167
sg41
S'18.3'
p168
sg43
S'4.1'
p169
sg44
S'1995-96'
p170
sg46
S'11.2'
p171
sg47
S'7.1'
p172
sg48
S'.581'
p173
sg50
S'87'
p174
sg52
g9
sba(isrc.gp1.models.Per100Possession
Per100Possession
p175
(dp176
g8
S'0.0'
p177
sg10
S'5.4'
p178
sg11
S'.000'
p179
sg116
S'67'
p180
sg13
S'0.0'
p181
sg15
S'.000'
p182
sg16
S'0.0'
p183
sg17
S'10.9'
p184
sg18
S'SG'
p185
sg123
S'104'
p186
sg20
S'1.000'
p187
sg22
S'NBA'
p188
sg24
S'5.4'
p189
sg25
S'16.3'
p190
sg27
S'5.4'
p191
sg29
S'10.9'
p192
sg31
S'0.0'
p193
sg33
S'26'
p194
sg35
S'ORL'
p195
sg37
g14
sg38
S'0.0'
p196
sg39
S'0.0'
p197
sg40
S'10.9'
p198
sg41
S'10.9'
p199
sg43
S'0.0'
p200
sg44
S'1996-97'
p201
sg46
S'0.0'
p202
sg47
S'0.0'
p203
sg48
S'.000'
p204
sg50
S'10'
p205
sg52
g9
sbasS'_advanced'
p206
(lp207
(isrc.gp1.models.Advanced
Advanced
p208
(dp209
S'_offensiveReboundPercentage'
p210
S'0.0'
p211
sS'_turnOverPercentage'
p212
S'12.7'
p213
sS'_winSharesPer48Minutes'
p214
S'-0.207'
p215
sS'_stealPercentage'
p216
S'8.8'
p217
sS'_usagePercentage'
p218
S'29.5'
p219
sS'_totalReboundsPercentage'
p220
S'0.0'
p221
sS'_defensiveBoxPlusMinus'
p222
S'-1.5'
p223
sg18
S'PG'
p224
sS'_valueOverReplacementPlayer'
p225
S'0.0'
p226
sS'_trueShootingPercentage'
p227
S'.291'
p228
sS'_defensiveReboundPercentage'
p229
S'0.0'
p230
sS'_freeThrowsAttempRate'
p231
S'.333'
p232
sS'_threePointsAttempRate'
p233
S'.000'
p234
sg22
S'NBA'
p235
sS'_offensiveBoxPlusMinues'
p236
S'-10.9'
p237
sS'_assistPercentage'
p238
S'12.9'
p239
sS'_defensiveWinShares'
p240
S'0.0'
p241
sg33
S'23'
p242
sg35
S'GSW'
p243
sg37
g14
sS'_blockPercentage'
p244
S'0.0'
p245
sS'_playerEfficiencyRating'
p246
S'4.5'
p247
sS'_offensiveWinShares'
p248
S'-0.1'
p249
sg50
S'11'
p250
sS'_boxPlusMinus'
p251
S'-12.4'
p252
sg44
S'1993-94'
p253
sS'_winShares'
p254
S'0.0'
p255
sba(isrc.gp1.models.Advanced
Advanced
p256
(dp257
g210
S'2.7'
p258
sg212
S'22.9'
p259
sg214
S'.105'
p260
sg216
S'1.8'
p261
sg218
S'27.1'
p262
sg220
S'5.8'
p263
sg222
S'-1.4'
p264
sg18
S'SG'
p265
sg225
S'0.0'
p266
sg227
S'.655'
p267
sg229
S'8.6'
p268
sg231
S'.515'
p269
sg233
S'.061'
p270
sg22
S'NBA'
p271
sg236
S'-1.5'
p272
sg238
S'15.9'
p273
sg240
S'0.1'
p274
sg33
S'25'
p275
sg35
S'SAS'
p276
sg37
S'16'
p277
sg244
S'0.8'
p278
sg246
S'17.1'
p279
sg248
S'0.1'
p280
sg50
S'87'
p281
sg251
S'-2.9'
p282
sg44
S'1995-96'
p283
sg254
S'0.2'
p284
sba(isrc.gp1.models.Advanced
Advanced
p285
(dp286
g210
S'0.0'
p287
sg212
S'0.0'
p288
sg214
S'-0.070'
p289
sg216
S'5.4'
p290
sg218
S'17.9'
p291
sg220
S'0.0'
p292
sg222
S'-0.8'
p293
sg18
S'SG'
p294
sg225
S'0.0'
p295
sg227
S'.258'
p296
sg229
S'0.0'
p297
sg231
S'.667'
p298
sg233
S'.333'
p299
sg22
S'NBA'
p300
sg236
S'-7.9'
p301
sg238
S'0.0'
p302
sg240
S'0.0'
p303
sg33
S'26'
p304
sg35
S'ORL'
p305
sg37
g14
sg244
S'0.0'
p306
sg246
S'1.9'
p307
sg248
S'0.0'
p308
sg50
S'10'
p309
sg251
S'-8.8'
p310
sg44
S'1996-97'
p311
sg254
S'0.0'
p312
sbasS'_per36Minutes'
p313
(lp314
(isrc.gp1.models.Per36Minutes
Per36Minutes
p315
(dp316
g8
S'0.0'
p317
sg10
S'0.0'
p318
sg11
S'.333'
p319
sg13
S'6.5'
p320
sg15
S'6.5'
p321
sg16
S'0.0'
p322
sg17
g3
sg18
S'PG'
p323
sg20
S'0.0'
p324
sg22
S'NBA'
p325
sg24
S'0.0'
p326
sg25
S'19.6'
p327
sg27
S'13.1'
p328
sg29
S'.000'
p329
sg31
S'3.3'
p330
sg33
S'23'
p331
sg35
S'GSW'
p332
sg37
g14
sg38
S'3.3'
p333
sg39
S'19.6'
p334
sg40
S'6.5'
p335
sg41
S'.333'
p336
sg43
S'0.0'
p337
sg44
S'1993-94'
p338
sg46
S'6.5'
p339
sg47
S'3.3'
p340
sg48
S'0.0'
p341
sg50
S'11'
p342
sg52
g9
sba(isrc.gp1.models.Per36Minutes
Per36Minutes
p343
(dp344
g8
S'0.8'
p345
sg10
S'0.8'
p346
sg11
S'.576'
p347
sg13
S'3.3'
p348
sg15
S'.500'
p349
sg16
S'0.4'
p350
sg17
S'21.9'
p351
sg18
S'SG'
p352
sg20
S'.824'
p353
sg22
S'NBA'
p354
sg24
S'1.2'
p355
sg25
S'13.7'
p356
sg27
S'4.1'
p357
sg29
S'7.0'
p358
sg31
S'3.7'
p359
sg33
S'25'
p360
sg35
S'SAS'
p361
sg37
S'16'
p362
sg38
S'0.4'
p363
sg39
S'7.4'
p364
sg40
S'5.8'
p365
sg41
S'12.8'
p366
sg43
S'2.9'
p367
sg44
S'1995-96'
p368
sg46
S'7.9'
p369
sg47
S'5.0'
p370
sg48
S'.581'
p371
sg50
S'87'
p372
sg52
g9
sba(isrc.gp1.models.Per36Minutes
Per36Minutes
p373
(dp374
g8
S'0.0'
p375
sg10
S'3.6'
p376
sg11
S'.000'
p377
sg13
S'0.0'
p378
sg15
S'.000'
p379
sg16
S'0.0'
p380
sg17
S'7.2'
p381
sg18
S'SG'
p382
sg20
S'1.000'
p383
sg22
S'NBA'
p384
sg24
S'3.6'
p385
sg25
S'10.8'
p386
sg27
S'3.6'
p387
sg29
S'7.2'
p388
sg31
S'0.0'
p389
sg33
S'26'
p390
sg35
S'ORL'
p391
sg37
g14
sg38
S'0.0'
p392
sg39
S'0.0'
p393
sg40
S'7.2'
p394
sg41
S'7.2'
p395
sg43
S'0.0'
p396
sg44
S'1996-97'
p397
sg46
S'0.0'
p398
sg47
S'0.0'
p399
sg48
S'.000'
p400
sg50
S'10'
p401
sg52
g9
sbasS'_fromYear'
p402
S'1994'
p403
sS'_url'
p404
S'http://www.basketball-reference.com/players/d/dempsde01.html'
p405
sS'_perGame'
p406
(isrc.gp1.models.PerGame
PerGame
p407
(dp408
g8
S'0.0'
p409
sg10
S'0.5'
p410
sg11
S'.000'
p411
sS'_effectiveFieldGalPercentage'
p412
S'.000'
p413
sg13
S'0.0'
p414
sg15
S'.000'
p415
sg16
S'0.0'
p416
sg17
S'1.0'
p417
sg18
S'SG'
p418
sg20
S'1.000'
p419
sg22
S'NBA'
p420
sg24
S'0.5'
p421
sg27
S'0.5'
p422
sS'_fieldGoalsttempted'
p423
S'1.5'
p424
sg29
S'1.0'
p425
sg31
S'0.0'
p426
sg33
S'26'
p427
sg35
S'ORL'
p428
sg37
g14
sg38
S'0.0'
p429
sg39
S'0.0'
p430
sg40
S'1.0'
p431
sg41
S'1.0'
p432
sg43
S'0.0'
p433
sg44
S'1996-97'
p434
sg46
S'0.0'
p435
sg47
S'0.0'
p436
sg48
S'.000'
p437
sg50
S'5.0'
p438
sg52
g9
sbsS'_weight'
p439
S'205'
p440
sS'_dob'
p441
S'12-2-1970'
p442
sS'_salary'
p443
(lp444
(isrc.gp1.models.Salary
Salary
p445
(dp446
g35
S'San Antonio Spurs'
p447
sg22
S'NBA'
p448
sg443
S'$225,000'
p449
sg44
S'1995-96'
p450
sbasg18
S'G'
p451
sb.