(isrc.gp1.models.Player
Player
p0
(dp1
S'_experience'
p2
S'NA'
p3
sS'_totals'
p4
(lp5
(isrc.gp1.models.Totals
Totals
p6
(dp7
S'_offensiveRebounds'
p8
S'47'
p9
sS'_threePointsAttempted'
p10
S'0'
p11
sS'_fieldGoalsPercentage'
p12
S'.512'
p13
sS'_assist'
p14
S'42'
p15
sS'_threePointsPercentage'
p16
g3
sS'_threePoints'
p17
g11
sS'_points'
p18
S'150'
p19
sS'_position'
p20
S'PF'
p21
sS'_freeThrowsPercentage'
p22
S'.650'
p23
sS'_effectiveFieldGoalPercentage'
p24
S'.512'
p25
sS'_league'
p26
S'NBA'
p27
sS'_steals'
p28
S'35'
p29
sS'_fieldGoalsAttempted'
p30
S'121'
p31
sS'_personalFouls'
p32
S'81'
p33
sS'_freeThrowsAttempted'
p34
S'40'
p35
sS'_totalRebounds'
p36
S'133'
p37
sS'_age'
p38
S'23'
p39
sS'_team'
p40
S'KCK'
p41
sS'_games'
p42
S'30'
p43
sS'_blocks'
p44
S'8'
p45
sS'_twoPoints'
p46
S'62'
p47
sS'_freeThrows'
p48
S'26'
p49
sS'_twoPointsAttempted'
p50
S'121'
p51
sS'_defensiveRebounds'
p52
S'86'
p53
sS'_season'
p54
S'1981-82'
p55
sS'_fieldGoals'
p56
S'62'
p57
sS'_turnOvers'
p58
S'35'
p59
sS'_twoPointsPercentage'
p60
S'.512'
p61
sS'_minutesPlayed'
p62
S'607'
p63
sS'_gamesStarted'
p64
S'3'
p65
sba(isrc.gp1.models.Totals
Totals
p66
(dp67
g8
S'20'
p68
sg10
g11
sg12
S'.324'
p69
sg14
S'6'
p70
sg16
g3
sg17
g11
sg18
S'28'
p71
sg20
S'PF'
p72
sg22
S'.667'
p73
sg24
S'.324'
p74
sg26
S'NBA'
p75
sg28
S'16'
p76
sg30
S'34'
p77
sg32
S'27'
p78
sg34
S'9'
p79
sg36
S'52'
p80
sg38
S'24'
p81
sg40
S'KCK'
p82
sg42
S'22'
p83
sg44
S'1'
p84
sg46
S'11'
p85
sg48
g70
sg50
S'34'
p86
sg52
S'32'
p87
sg54
S'1982-83'
p88
sg56
S'11'
p89
sg58
S'5'
p90
sg60
S'.324'
p91
sg62
S'224'
p92
sg64
g11
sba(isrc.gp1.models.Totals
Totals
p93
(dp94
g8
S'37'
p95
sg10
S'10'
p96
sg12
S'.364'
p97
sg14
S'45'
p98
sg16
S'.300'
p99
sg17
g65
sg18
S'90'
p100
sg20
S'PF'
p101
sg22
S'.625'
p102
sg24
S'.379'
p103
sg26
S'NBA'
p104
sg28
S'23'
p105
sg30
S'99'
p106
sg32
S'83'
p107
sg34
S'24'
p108
sg36
S'101'
p109
sg38
S'25'
p110
sg40
S'DEN'
p111
sg42
S'43'
p112
sg44
g45
sg46
S'33'
p113
sg48
S'15'
p114
sg50
S'89'
p115
sg52
S'64'
p116
sg54
S'1983-84'
p117
sg56
S'36'
p118
sg58
S'29'
p119
sg60
S'.371'
p120
sg62
S'413'
p121
sg64
g11
sbasS'_college'
p122
S'Duke University'
p123
sS'_toYear'
p124
S'1984'
p125
sS'_height'
p126
S'6-8'
p127
sS'_active'
p128
I00
sS'_shootingHand'
p129
VRight
p130
sS'_name'
p131
S'Kenny Dennard'
p132
sS'_per100Possessions'
p133
(lp134
(isrc.gp1.models.Per100Possession
Per100Possession
p135
(dp136
g8
S'3.7'
p137
sg10
S'0.0'
p138
sg12
S'.512'
p139
sS'_offensiveRating'
p140
S'104'
p141
sg14
S'3.3'
p142
sg16
g3
sg17
S'0.0'
p143
sg18
S'11.7'
p144
sg20
S'PF'
p145
sS'_defensiveRating'
p146
S'105'
p147
sg22
S'.650'
p148
sg26
S'NBA'
p149
sg28
S'2.7'
p150
sg30
S'9.4'
p151
sg32
S'6.3'
p152
sg34
S'3.1'
p153
sg36
S'10.3'
p154
sg38
S'23'
p155
sg40
S'KCK'
p156
sg42
S'30'
p157
sg44
S'0.6'
p158
sg46
S'4.8'
p159
sg48
S'2.0'
p160
sg50
S'9.4'
p161
sg52
S'6.7'
p162
sg54
S'1981-82'
p163
sg56
S'4.8'
p164
sg58
S'2.7'
p165
sg60
S'.512'
p166
sg62
S'607'
p167
sg64
g65
sba(isrc.gp1.models.Per100Possession
Per100Possession
p168
(dp169
g8
S'4.0'
p170
sg10
S'0.0'
p171
sg12
S'.324'
p172
sg140
S'97'
p173
sg14
S'1.2'
p174
sg16
g3
sg17
S'0.0'
p175
sg18
S'5.6'
p176
sg20
S'PF'
p177
sg146
S'102'
p178
sg22
S'.667'
p179
sg26
S'NBA'
p180
sg28
S'3.2'
p181
sg30
S'6.8'
p182
sg32
S'5.4'
p183
sg34
S'1.8'
p184
sg36
S'10.5'
p185
sg38
S'24'
p186
sg40
S'KCK'
p187
sg42
S'22'
p188
sg44
S'0.2'
p189
sg46
S'2.2'
p190
sg48
S'1.2'
p191
sg50
S'6.8'
p192
sg52
S'6.4'
p193
sg54
S'1982-83'
p194
sg56
S'2.2'
p195
sg58
S'1.0'
p196
sg60
S'.324'
p197
sg62
S'224'
p198
sg64
g11
sba(isrc.gp1.models.Per100Possession
Per100Possession
p199
(dp200
g8
S'3.9'
p201
sg10
S'1.1'
p202
sg12
S'.364'
p203
sg140
S'91'
p204
sg14
S'4.7'
p205
sg16
S'.300'
p206
sg17
S'0.3'
p207
sg18
S'9.5'
p208
sg20
S'PF'
p209
sg146
S'109'
p210
sg22
S'.625'
p211
sg26
S'NBA'
p212
sg28
S'2.4'
p213
sg30
S'10.4'
p214
sg32
S'8.7'
p215
sg34
S'2.5'
p216
sg36
S'10.6'
p217
sg38
S'25'
p218
sg40
S'DEN'
p219
sg42
S'43'
p220
sg44
S'0.8'
p221
sg46
S'3.5'
p222
sg48
S'1.6'
p223
sg50
S'9.4'
p224
sg52
S'6.7'
p225
sg54
S'1983-84'
p226
sg56
S'3.8'
p227
sg58
S'3.1'
p228
sg60
S'.371'
p229
sg62
S'413'
p230
sg64
g11
sbasS'_advanced'
p231
(lp232
(isrc.gp1.models.Advanced
Advanced
p233
(dp234
S'_offensiveReboundPercentage'
p235
S'8.5'
p236
sS'_turnOverPercentage'
p237
S'20.2'
p238
sS'_winSharesPer48Minutes'
p239
S'.084'
p240
sS'_stealPercentage'
p241
S'2.7'
p242
sS'_usagePercentage'
p243
S'11.7'
p244
sS'_totalReboundsPercentage'
p245
S'12.3'
p246
sS'_defensiveBoxPlusMinus'
p247
S'2.5'
p248
sg20
S'PF'
p249
sS'_valueOverReplacementPlayer'
p250
S'0.5'
p251
sS'_trueShootingPercentage'
p252
S'.541'
p253
sS'_defensiveReboundPercentage'
p254
S'16.3'
p255
sS'_freeThrowsAttempRate'
p256
S'.331'
p257
sS'_threePointsAttempRate'
p258
S'.000'
p259
sg26
S'NBA'
p260
sS'_offensiveBoxPlusMinues'
p261
S'-1.3'
p262
sS'_assistPercentage'
p263
S'8.6'
p264
sS'_defensiveWinShares'
p265
S'0.8'
p266
sg38
S'23'
p267
sg40
S'KCK'
p268
sg42
S'30'
p269
sS'_blockPercentage'
p270
S'0.8'
p271
sS'_playerEfficiencyRating'
p272
S'11.1'
p273
sS'_offensiveWinShares'
p274
S'0.3'
p275
sg62
S'607'
p276
sS'_boxPlusMinus'
p277
S'1.2'
p278
sg54
S'1981-82'
p279
sS'_winShares'
p280
S'1.1'
p281
sba(isrc.gp1.models.Advanced
Advanced
p282
(dp283
g235
S'9.7'
p284
sg237
S'11.6'
p285
sg239
S'.069'
p286
sg241
S'3.2'
p287
sg243
S'7.4'
p288
sg245
S'12.6'
p289
sg247
S'2.0'
p290
sg20
S'PF'
p291
sg250
S'0.1'
p292
sg252
S'.369'
p293
sg254
S'15.5'
p294
sg256
S'.265'
p295
sg258
S'.000'
p296
sg26
S'NBA'
p297
sg261
S'-2.9'
p298
sg263
S'3.0'
p299
sg265
S'0.3'
p300
sg38
S'24'
p301
sg40
S'KCK'
p302
sg42
S'22'
p303
sg270
S'0.3'
p304
sg272
S'7.6'
p305
sg274
S'0.0'
p306
sg62
S'224'
p307
sg277
S'-0.9'
p308
sg54
S'1982-83'
p309
sg280
S'0.3'
p310
sba(isrc.gp1.models.Advanced
Advanced
p311
(dp312
g235
S'9.2'
p313
sg237
S'20.9'
p314
sg239
S'.007'
p315
sg241
S'2.4'
p316
sg243
S'12.6'
p317
sg245
S'12.8'
p318
sg247
S'0.9'
p319
sg20
S'PF'
p320
sg250
S'0.0'
p321
sg252
S'.411'
p322
sg254
S'16.7'
p323
sg256
S'.242'
p324
sg258
S'.101'
p325
sg26
S'NBA'
p326
sg261
S'-3.3'
p327
sg263
S'12.0'
p328
sg265
S'0.3'
p329
sg38
S'25'
p330
sg40
S'DEN'
p331
sg42
S'43'
p332
sg270
S'1.0'
p333
sg272
S'7.6'
p334
sg274
S'-0.3'
p335
sg62
S'413'
p336
sg277
S'-2.4'
p337
sg54
S'1983-84'
p338
sg280
S'0.1'
p339
sbasS'_per36Minutes'
p340
(lp341
(isrc.gp1.models.Per36Minutes
Per36Minutes
p342
(dp343
g8
S'2.8'
p344
sg10
S'0.0'
p345
sg12
S'.512'
p346
sg14
S'2.5'
p347
sg16
g3
sg17
S'0.0'
p348
sg18
S'8.9'
p349
sg20
S'PF'
p350
sg22
S'.650'
p351
sg26
S'NBA'
p352
sg28
S'2.1'
p353
sg30
S'7.2'
p354
sg32
S'4.8'
p355
sg34
S'2.4'
p356
sg36
S'7.9'
p357
sg38
S'23'
p358
sg40
S'KCK'
p359
sg42
S'30'
p360
sg44
S'0.5'
p361
sg46
S'3.7'
p362
sg48
S'1.5'
p363
sg50
S'7.2'
p364
sg52
S'5.1'
p365
sg54
S'1981-82'
p366
sg56
S'3.7'
p367
sg58
S'2.1'
p368
sg60
S'.512'
p369
sg62
S'607'
p370
sg64
g65
sba(isrc.gp1.models.Per36Minutes
Per36Minutes
p371
(dp372
g8
S'3.2'
p373
sg10
S'0.0'
p374
sg12
S'.324'
p375
sg14
S'1.0'
p376
sg16
g3
sg17
S'0.0'
p377
sg18
S'4.5'
p378
sg20
S'PF'
p379
sg22
S'.667'
p380
sg26
S'NBA'
p381
sg28
S'2.6'
p382
sg30
S'5.5'
p383
sg32
S'4.3'
p384
sg34
S'1.4'
p385
sg36
S'8.4'
p386
sg38
S'24'
p387
sg40
S'KCK'
p388
sg42
S'22'
p389
sg44
S'0.2'
p390
sg46
S'1.8'
p391
sg48
S'1.0'
p392
sg50
S'5.5'
p393
sg52
S'5.1'
p394
sg54
S'1982-83'
p395
sg56
S'1.8'
p396
sg58
S'0.8'
p397
sg60
S'.324'
p398
sg62
S'224'
p399
sg64
g11
sba(isrc.gp1.models.Per36Minutes
Per36Minutes
p400
(dp401
g8
S'3.2'
p402
sg10
S'0.9'
p403
sg12
S'.364'
p404
sg14
S'3.9'
p405
sg16
S'.300'
p406
sg17
S'0.3'
p407
sg18
S'7.8'
p408
sg20
S'PF'
p409
sg22
S'.625'
p410
sg26
S'NBA'
p411
sg28
S'2.0'
p412
sg30
S'8.6'
p413
sg32
S'7.2'
p414
sg34
S'2.1'
p415
sg36
S'8.8'
p416
sg38
S'25'
p417
sg40
S'DEN'
p418
sg42
S'43'
p419
sg44
S'0.7'
p420
sg46
S'2.9'
p421
sg48
S'1.3'
p422
sg50
S'7.8'
p423
sg52
S'5.6'
p424
sg54
S'1983-84'
p425
sg56
S'3.1'
p426
sg58
S'2.5'
p427
sg60
S'.371'
p428
sg62
S'413'
p429
sg64
g11
sbasS'_fromYear'
p430
S'1982'
p431
sS'_url'
p432
S'http://www.basketball-reference.com/players/d/dennake01.html'
p433
sS'_perGame'
p434
(isrc.gp1.models.PerGame
PerGame
p435
(dp436
g8
S'0.9'
p437
sg10
S'0.2'
p438
sg12
S'.364'
p439
sS'_effectiveFieldGalPercentage'
p440
S'.379'
p441
sg14
S'1.0'
p442
sg16
S'.300'
p443
sg17
S'0.1'
p444
sg18
S'2.1'
p445
sg20
S'PF'
p446
sg22
S'.625'
p447
sg26
S'NBA'
p448
sg28
S'0.5'
p449
sg32
S'1.9'
p450
sS'_fieldGoalsttempted'
p451
S'2.3'
p452
sg34
S'0.6'
p453
sg36
S'2.3'
p454
sg38
S'25'
p455
sg40
S'DEN'
p456
sg42
S'43'
p457
sg44
S'0.2'
p458
sg46
S'0.8'
p459
sg48
S'0.3'
p460
sg50
S'2.1'
p461
sg52
S'1.5'
p462
sg54
S'1983-84'
p463
sg56
S'0.8'
p464
sg58
S'0.7'
p465
sg60
S'.371'
p466
sg62
S'9.6'
p467
sg64
g11
sbsS'_weight'
p468
S'220'
p469
sS'_dob'
p470
S'18-10-1958'
p471
sS'_salary'
p472
(lp473
sg20
S'F'
p474
sb.