(isrc.gp1.models.Player
Player
p0
(dp1
S'_experience'
p2
S'NA'
p3
sS'_totals'
p4
(lp5
(isrc.gp1.models.Totals
Totals
p6
(dp7
S'_offensiveRebounds'
p8
S'278'
p9
sS'_threePointsAttempted'
p10
S'2'
p11
sS'_fieldGoalsPercentage'
p12
S'.460'
p13
sS'_assist'
p14
S'66'
p15
sS'_threePointsPercentage'
p16
S'.000'
p17
sS'_threePoints'
p18
S'0'
p19
sS'_points'
p20
S'995'
p21
sS'_position'
p22
S'C'
p23
sS'_freeThrowsPercentage'
p24
S'.804'
p25
sS'_effectiveFieldGoalPercentage'
p26
S'.460'
p27
sS'_league'
p28
S'ABA'
p29
sS'_steals'
p30
g3
sS'_fieldGoalsAttempted'
p31
S'935'
p32
sS'_personalFouls'
p33
S'180'
p34
sS'_freeThrowsAttempted'
p35
S'168'
p36
sS'_totalRebounds'
p37
S'740'
p38
sS'_age'
p39
S'22'
p40
sS'_team'
p41
S'TOT'
p42
sS'_games'
p43
S'81'
p44
sS'_blocks'
p45
g3
sS'_twoPoints'
p46
S'430'
p47
sS'_freeThrows'
p48
S'135'
p49
sS'_twoPointsAttempted'
p50
S'933'
p51
sS'_defensiveRebounds'
p52
S'462'
p53
sS'_season'
p54
S'1971-72'
p55
sS'_fieldGoals'
p56
S'430'
p57
sS'_turnOvers'
p58
S'111'
p59
sS'_twoPointsPercentage'
p60
S'.461'
p61
sS'_minutesPlayed'
p62
S'2039'
p63
sS'_gamesStarted'
p64
g3
sba(isrc.gp1.models.Totals
Totals
p65
(dp66
g8
S'98'
p67
sg10
S'1'
p68
sg12
S'.434'
p69
sg14
S'33'
p70
sg16
S'.000'
p71
sg18
g19
sg20
S'333'
p72
sg22
g23
sg24
S'.709'
p73
sg26
S'.434'
p74
sg28
S'ABA'
p75
sg30
g3
sg31
S'339'
p76
sg33
S'67'
p77
sg35
S'55'
p78
sg37
S'260'
p79
sg39
S'22'
p80
sg41
S'CAR'
p81
sg43
S'39'
p82
sg45
g3
sg46
S'147'
p83
sg48
S'39'
p84
sg50
S'338'
p85
sg52
S'162'
p86
sg54
S'1971-72'
p87
sg56
S'147'
p88
sg58
S'50'
p89
sg60
S'.435'
p90
sg62
S'710'
p91
sg64
g3
sba(isrc.gp1.models.Totals
Totals
p92
(dp93
g8
S'180'
p94
sg10
g68
sg12
S'.475'
p95
sg14
S'33'
p96
sg16
S'.000'
p97
sg18
g19
sg20
S'662'
p98
sg22
g23
sg24
S'.850'
p99
sg26
S'.475'
p100
sg28
S'ABA'
p101
sg30
g3
sg31
S'596'
p102
sg33
S'113'
p103
sg35
S'113'
p104
sg37
S'480'
p105
sg39
S'22'
p106
sg41
S'MMP'
p107
sg43
S'42'
p108
sg45
g3
sg46
S'283'
p109
sg48
S'96'
p110
sg50
S'595'
p111
sg52
S'300'
p112
sg54
S'1971-72'
p113
sg56
S'283'
p114
sg58
S'61'
p115
sg60
S'.476'
p116
sg62
S'1329'
p117
sg64
g3
sba(isrc.gp1.models.Totals
Totals
p118
(dp119
g8
S'276'
p120
sg10
S'8'
p121
sg12
S'.482'
p122
sg14
S'98'
p123
sg16
S'.375'
p124
sg18
S'3'
p125
sg20
S'1124'
p126
sg22
g23
sg24
S'.747'
p127
sg26
S'.484'
p128
sg28
S'ABA'
p129
sg30
g3
sg31
S'979'
p130
sg33
S'197'
p131
sg35
S'237'
p132
sg37
S'820'
p133
sg39
S'23'
p134
sg41
S'MMT'
p135
sg43
S'66'
p136
sg45
g3
sg46
S'469'
p137
sg48
S'177'
p138
sg50
S'971'
p139
sg52
S'544'
p140
sg54
S'1972-73'
p141
sg56
S'472'
p142
sg58
S'124'
p143
sg60
S'.483'
p144
sg62
S'2205'
p145
sg64
g3
sba(isrc.gp1.models.Totals
Totals
p146
(dp147
g8
S'255'
p148
sg10
g125
sg12
S'.496'
p149
sg14
S'152'
p150
sg16
S'.000'
p151
sg18
g19
sg20
S'1050'
p152
sg22
g23
sg24
S'.792'
p153
sg26
S'.496'
p154
sg28
S'ABA'
p155
sg30
S'55'
p156
sg31
S'902'
p157
sg33
S'225'
p158
sg35
S'197'
p159
sg37
S'777'
p160
sg39
S'24'
p161
sg41
S'MMT'
p162
sg43
S'79'
p163
sg45
S'35'
p164
sg46
S'447'
p165
sg48
S'156'
p166
sg50
S'899'
p167
sg52
S'522'
p168
sg54
S'1973-74'
p169
sg56
S'447'
p170
sg58
S'164'
p171
sg60
S'.497'
p172
sg62
S'2218'
p173
sg64
g3
sba(isrc.gp1.models.Totals
Totals
p174
(dp175
g8
S'154'
p176
sg10
g19
sg12
S'.503'
p177
sg14
S'90'
p178
sg16
g3
sg18
g19
sg20
S'692'
p179
sg22
g23
sg24
S'.767'
p180
sg26
S'.503'
p181
sg28
S'ABA'
p182
sg30
S'29'
p183
sg31
S'597'
p184
sg33
S'176'
p185
sg35
S'120'
p186
sg37
S'473'
p187
sg39
S'25'
p188
sg41
S'UTS'
p189
sg43
S'75'
p190
sg45
S'43'
p191
sg46
S'300'
p192
sg48
S'92'
p193
sg50
S'597'
p194
sg52
S'319'
p195
sg54
S'1974-75'
p196
sg56
S'300'
p197
sg58
S'99'
p198
sg60
S'.503'
p199
sg62
S'1482'
p200
sg64
g3
sba(isrc.gp1.models.Totals
Totals
p201
(dp202
g8
S'156'
p203
sg10
g68
sg12
S'.446'
p204
sg14
S'89'
p205
sg16
S'.000'
p206
sg18
g19
sg20
S'649'
p207
sg22
g23
sg24
S'.838'
p208
sg26
S'.446'
p209
sg28
S'ABA'
p210
sg30
S'37'
p211
sg31
S'634'
p212
sg33
S'180'
p213
sg35
S'99'
p214
sg37
S'519'
p215
sg39
S'26'
p216
sg41
S'TOT'
p217
sg43
S'67'
p218
sg45
S'32'
p219
sg46
S'283'
p220
sg48
S'83'
p221
sg50
S'633'
p222
sg52
S'363'
p223
sg54
S'1975-76'
p224
sg56
S'283'
p225
sg58
S'83'
p226
sg60
S'.447'
p227
sg62
S'1540'
p228
sg64
g3
sba(isrc.gp1.models.Totals
Totals
p229
(dp230
g8
S'69'
p231
sg10
g19
sg12
S'.490'
p232
sg14
S'40'
p233
sg16
g3
sg18
g19
sg20
S'276'
p234
sg22
g23
sg24
S'.913'
p235
sg26
S'.490'
p236
sg28
S'ABA'
p237
sg30
S'12'
p238
sg31
S'239'
p239
sg33
S'71'
p240
sg35
S'46'
p241
sg37
S'225'
p242
sg39
S'26'
p243
sg41
S'UTS'
p244
sg43
S'16'
p245
sg45
S'13'
p246
sg46
S'117'
p247
sg48
S'42'
p248
sg50
S'239'
p249
sg52
S'156'
p250
sg54
S'1975-76'
p251
sg56
S'117'
p252
sg58
S'31'
p253
sg60
S'.490'
p254
sg62
S'591'
p255
sg64
g3
sba(isrc.gp1.models.Totals
Totals
p256
(dp257
g8
S'87'
p258
sg10
g68
sg12
S'.420'
p259
sg14
S'49'
p260
sg16
S'.000'
p261
sg18
g19
sg20
S'373'
p262
sg22
g23
sg24
S'.774'
p263
sg26
S'.420'
p264
sg28
S'ABA'
p265
sg30
S'25'
p266
sg31
S'395'
p267
sg33
S'109'
p268
sg35
S'53'
p269
sg37
S'294'
p270
sg39
S'26'
p271
sg41
S'SSL'
p272
sg43
S'51'
p273
sg45
S'19'
p274
sg46
S'166'
p275
sg48
S'41'
p276
sg50
S'394'
p277
sg52
S'207'
p278
sg54
S'1975-76'
p279
sg56
S'166'
p280
sg58
S'52'
p281
sg60
S'.421'
p282
sg62
S'949'
p283
sg64
g3
sba(isrc.gp1.models.Totals
Totals
p284
(dp285
g8
S'81'
p286
sg10
g3
sg12
S'.402'
p287
sg14
S'33'
p288
sg16
g3
sg18
g3
sg20
S'239'
p289
sg22
g23
sg24
S'.702'
p290
sg26
S'.402'
p291
sg28
S'NBA'
p292
sg30
S'14'
p293
sg31
S'256'
p294
sg33
S'100'
p295
sg35
S'47'
p296
sg37
S'218'
p297
sg39
S'27'
p298
sg41
S'ATL'
p299
sg43
S'45'
p300
sg45
S'16'
p301
sg46
S'103'
p302
sg48
S'33'
p303
sg50
S'256'
p304
sg52
S'137'
p305
sg54
S'1976-77'
p306
sg56
S'103'
p307
sg58
g3
sg60
S'.402'
p308
sg62
S'700'
p309
sg64
g3
sbasS'_college'
p310
S'Duke University'
p311
sS'_toYear'
p312
S'1977'
p313
sS'_height'
p314
S'6-10'
p315
sS'_active'
p316
I00
sS'_shootingHand'
p317
VRight
p318
sS'_name'
p319
S'Randy Denton'
p320
sS'_per100Possessions'
p321
(lp322
(isrc.gp1.models.Per100Possession
Per100Possession
p323
(dp324
g8
S'5.5'
p325
sg10
S'0.1'
p326
sg12
S'.496'
p327
sS'_offensiveRating'
p328
S'107'
p329
sg14
S'3.3'
p330
sg16
S'.000'
p331
sg18
S'0.0'
p332
sg20
S'22.8'
p333
sg22
g23
sS'_defensiveRating'
p334
S'105'
p335
sg24
S'.792'
p336
sg28
S'ABA'
p337
sg30
S'1.2'
p338
sg31
S'19.6'
p339
sg33
S'4.9'
p340
sg35
S'4.3'
p341
sg37
S'16.9'
p342
sg39
S'24'
p343
sg41
S'MMT'
p344
sg43
S'79'
p345
sg45
S'0.8'
p346
sg46
S'9.7'
p347
sg48
S'3.4'
p348
sg50
S'19.5'
p349
sg52
S'11.3'
p350
sg54
S'1973-74'
p351
sg56
S'9.7'
p352
sg58
S'3.6'
p353
sg60
S'.497'
p354
sg62
S'2218'
p355
sg64
g3
sba(isrc.gp1.models.Per100Possession
Per100Possession
p356
(dp357
g8
S'5.1'
p358
sg10
S'0.0'
p359
sg12
S'.503'
p360
sg328
S'108'
p361
sg14
S'3.0'
p362
sg16
g3
sg18
S'0.0'
p363
sg20
S'22.9'
p364
sg22
g23
sg334
S'102'
p365
sg24
S'.767'
p366
sg28
S'ABA'
p367
sg30
S'1.0'
p368
sg31
S'19.7'
p369
sg33
S'5.8'
p370
sg35
S'4.0'
p371
sg37
S'15.6'
p372
sg39
S'25'
p373
sg41
S'UTS'
p374
sg43
S'75'
p375
sg45
S'1.4'
p376
sg46
S'9.9'
p377
sg48
S'3.0'
p378
sg50
S'19.7'
p379
sg52
S'10.5'
p380
sg54
S'1974-75'
p381
sg56
S'9.9'
p382
sg58
S'3.3'
p383
sg60
S'.503'
p384
sg62
S'1482'
p385
sg64
g3
sba(isrc.gp1.models.Per100Possession
Per100Possession
p386
(dp387
g8
S'4.6'
p388
sg10
S'0.0'
p389
sg12
S'.446'
p390
sg328
S'104'
p391
sg14
S'2.6'
p392
sg16
S'.000'
p393
sg18
S'0.0'
p394
sg20
S'19.3'
p395
sg22
g23
sg334
S'105'
p396
sg24
S'.838'
p397
sg28
S'ABA'
p398
sg30
S'1.1'
p399
sg31
S'18.8'
p400
sg33
S'5.3'
p401
sg35
S'2.9'
p402
sg37
S'15.4'
p403
sg39
S'26'
p404
sg41
S'TOT'
p405
sg43
S'67'
p406
sg45
S'1.0'
p407
sg46
S'8.4'
p408
sg48
S'2.5'
p409
sg50
S'18.8'
p410
sg52
S'10.8'
p411
sg54
S'1975-76'
p412
sg56
S'8.4'
p413
sg58
S'2.5'
p414
sg60
S'.447'
p415
sg62
S'1540'
p416
sg64
g3
sba(isrc.gp1.models.Per100Possession
Per100Possession
p417
(dp418
g8
S'5.4'
p419
sg10
S'0.0'
p420
sg12
S'.490'
p421
sg328
S'115'
p422
sg14
S'3.1'
p423
sg16
g3
sg18
S'0.0'
p424
sg20
S'21.6'
p425
sg22
g23
sg334
S'106'
p426
sg24
S'.913'
p427
sg28
S'ABA'
p428
sg30
S'0.9'
p429
sg31
S'18.7'
p430
sg33
S'5.6'
p431
sg35
S'3.6'
p432
sg37
S'17.6'
p433
sg39
S'26'
p434
sg41
S'UTS'
p435
sg43
S'16'
p436
sg45
S'1.0'
p437
sg46
S'9.2'
p438
sg48
S'3.3'
p439
sg50
S'18.7'
p440
sg52
S'12.2'
p441
sg54
S'1975-76'
p442
sg56
S'9.2'
p443
sg58
S'2.4'
p444
sg60
S'.490'
p445
sg62
S'591'
p446
sg64
g3
sba(isrc.gp1.models.Per100Possession
Per100Possession
p447
(dp448
g8
S'4.2'
p449
sg10
S'0.0'
p450
sg12
S'.420'
p451
sg328
S'97'
p452
sg14
S'2.3'
p453
sg16
S'.000'
p454
sg18
S'0.0'
p455
sg20
S'17.9'
p456
sg22
g23
sg334
S'104'
p457
sg24
S'.774'
p458
sg28
S'ABA'
p459
sg30
S'1.2'
p460
sg31
S'18.9'
p461
sg33
S'5.2'
p462
sg35
S'2.5'
p463
sg37
S'14.1'
p464
sg39
S'26'
p465
sg41
S'SSL'
p466
sg43
S'51'
p467
sg45
S'0.9'
p468
sg46
S'7.9'
p469
sg48
S'2.0'
p470
sg50
S'18.9'
p471
sg52
S'9.9'
p472
sg54
S'1975-76'
p473
sg56
S'7.9'
p474
sg58
S'2.5'
p475
sg60
S'.421'
p476
sg62
S'949'
p477
sg64
g3
sba(isrc.gp1.models.Per100Possession
Per100Possession
p478
(dp479
g8
S'5.3'
p480
sg10
g3
sg12
S'.402'
p481
sg328
g3
sg14
S'2.2'
p482
sg16
g3
sg18
g3
sg20
S'15.7'
p483
sg22
g23
sg334
S'101'
p484
sg24
S'.702'
p485
sg28
S'NBA'
p486
sg30
S'0.9'
p487
sg31
S'16.8'
p488
sg33
S'6.6'
p489
sg35
S'3.1'
p490
sg37
S'14.3'
p491
sg39
S'27'
p492
sg41
S'ATL'
p493
sg43
S'45'
p494
sg45
S'1.0'
p495
sg46
S'6.8'
p496
sg48
S'2.2'
p497
sg50
S'16.8'
p498
sg52
S'9.0'
p499
sg54
S'1976-77'
p500
sg56
S'6.8'
p501
sg58
g3
sg60
S'.402'
p502
sg62
S'700'
p503
sg64
g3
sbasS'_advanced'
p504
(lp505
(isrc.gp1.models.Advanced
Advanced
p506
(dp507
S'_offensiveReboundPercentage'
p508
S'11.5'
p509
sS'_turnOverPercentage'
p510
S'9.9'
p511
sS'_winSharesPer48Minutes'
p512
S'.093'
p513
sS'_stealPercentage'
p514
g3
sS'_usagePercentage'
p515
S'20.2'
p516
sS'_totalReboundsPercentage'
p517
S'16.1'
p518
sS'_defensiveBoxPlusMinus'
p519
g3
sg22
g23
sS'_valueOverReplacementPlayer'
p520
g3
sS'_trueShootingPercentage'
p521
S'.493'
p522
sS'_defensiveReboundPercentage'
p523
S'21.3'
p524
sS'_freeThrowsAttempRate'
p525
S'.180'
p526
sS'_threePointsAttempRate'
p527
S'.002'
p528
sg28
S'ABA'
p529
sS'_offensiveBoxPlusMinues'
p530
g3
sS'_assistPercentage'
p531
S'4.7'
p532
sS'_defensiveWinShares'
p533
S'3.2'
p534
sg39
S'22'
p535
sg41
S'TOT'
p536
sg43
S'81'
p537
sS'_blockPercentage'
p538
g3
sS'_playerEfficiencyRating'
p539
S'17.7'
p540
sS'_offensiveWinShares'
p541
S'0.8'
p542
sg62
S'2039'
p543
sS'_boxPlusMinus'
p544
g3
sg54
S'1971-72'
p545
sS'_winShares'
p546
S'3.9'
p547
sba(isrc.gp1.models.Advanced
Advanced
p548
(dp549
g508
S'12.2'
p550
sg510
S'12.1'
p551
sg512
S'.031'
p552
sg514
g3
sg515
S'21.4'
p553
sg517
S'16.9'
p554
sg519
g3
sg22
g23
sg520
g3
sg521
S'.458'
p555
sg523
S'22.0'
p556
sg525
S'.162'
p557
sg527
S'.003'
p558
sg28
S'ABA'
p559
sg530
g3
sg531
S'6.3'
p560
sg533
S'0.9'
p561
sg39
S'22'
p562
sg41
S'CAR'
p563
sg43
S'39'
p564
sg538
g3
sg539
S'15.3'
p565
sg541
S'-0.4'
p566
sg62
S'710'
p567
sg544
g3
sg54
S'1971-72'
p568
sg546
S'0.5'
p569
sba(isrc.gp1.models.Advanced
Advanced
p570
(dp571
g508
S'11.1'
p572
sg510
S'8.6'
p573
sg512
S'.126'
p574
sg514
g3
sg515
S'19.5'
p575
sg517
S'15.7'
p576
sg519
g3
sg22
g23
sg520
g3
sg521
S'.513'
p577
sg523
S'21.0'
p578
sg525
S'.190'
p579
sg527
S'.002'
p580
sg28
S'ABA'
p581
sg530
g3
sg531
S'3.8'
p582
sg533
S'2.3'
p583
sg39
S'22'
p584
sg41
S'MMP'
p585
sg43
S'42'
p586
sg538
g3
sg539
S'19.0'
p587
sg541
S'1.2'
p588
sg62
S'1329'
p589
sg544
g3
sg54
S'1971-72'
p590
sg546
S'3.5'
p591
sba(isrc.gp1.models.Advanced
Advanced
p592
(dp593
g508
S'11.8'
p594
sg510
S'10.3'
p595
sg512
S'.067'
p596
sg514
g3
sg515
S'21.2'
p597
sg517
S'18.0'
p598
sg519
g3
sg22
g23
sg520
g3
sg521
S'.519'
p599
sg523
S'24.5'
p600
sg525
S'.242'
p601
sg527
S'.008'
p602
sg28
S'ABA'
p603
sg530
g3
sg531
S'6.6'
p604
sg533
S'1.1'
p605
sg39
S'23'
p606
sg41
S'MMT'
p607
sg43
S'66'
p608
sg538
g3
sg539
S'19.2'
p609
sg541
S'2.0'
p610
sg62
S'2205'
p611
sg544
g3
sg54
S'1972-73'
p612
sg546
S'3.1'
p613
sba(isrc.gp1.models.Advanced
Advanced
p614
(dp615
g508
S'11.9'
p616
sg510
S'14.2'
p617
sg512
S'.119'
p618
sg514
S'1.2'
p619
sg515
S'21.3'
p620
sg517
S'18.2'
p621
sg519
S'-0.4'
p622
sg22
g23
sg520
S'1.3'
p623
sg521
S'.531'
p624
sg523
S'24.6'
p625
sg525
S'.218'
p626
sg527
S'.003'
p627
sg28
S'ABA'
p628
sg530
S'0.8'
p629
sg531
S'10.6'
p630
sg533
S'1.8'
p631
sg39
S'24'
p632
sg41
S'MMT'
p633
sg43
S'79'
p634
sg538
S'0.9'
p635
sg539
S'18.5'
p636
sg541
S'3.7'
p637
sg62
S'2218'
p638
sg544
S'0.4'
p639
sg54
S'1973-74'
p640
sg546
S'5.5'
p641
sba(isrc.gp1.models.Advanced
Advanced
p642
(dp643
g508
S'11.3'
p644
sg510
S'13.2'
p645
sg512
S'.138'
p646
sg514
S'1.0'
p647
sg515
S'21.0'
p648
sg517
S'16.7'
p649
sg519
S'0.1'
p650
sg22
g23
sg520
S'0.8'
p651
sg521
S'.532'
p652
sg523
S'21.6'
p653
sg525
S'.201'
p654
sg527
S'.000'
p655
sg28
S'ABA'
p656
sg530
S'0.1'
p657
sg531
S'9.6'
p658
sg533
S'2.0'
p659
sg39
S'25'
p660
sg41
S'UTS'
p661
sg43
S'75'
p662
sg538
S'1.6'
p663
sg539
S'17.5'
p664
sg541
S'2.2'
p665
sg62
S'1482'
p666
sg544
S'0.2'
p667
sg54
S'1974-75'
p668
sg546
S'4.3'
p669
sba(isrc.gp1.models.Advanced
Advanced
p670
(dp671
g508
S'10.2'
p672
sg510
S'10.9'
p673
sg512
S'.094'
p674
sg514
S'1.1'
p675
sg515
S'19.1'
p676
sg517
S'16.8'
p677
sg519
S'-0.8'
p678
sg22
g23
sg520
S'2.3'
p679
sg521
S'.479'
p680
sg523
S'23.3'
p681
sg525
S'.156'
p682
sg527
S'.002'
p683
sg28
S'ABA'
p684
sg530
S'-1.3'
p685
sg531
S'7.9'
p686
sg533
S'1.5'
p687
sg39
S'26'
p688
sg41
S'TOT'
p689
sg43
S'67'
p690
sg538
S'1.1'
p691
sg539
S'14.8'
p692
sg541
S'1.5'
p693
sg62
S'1540'
p694
sg544
S'-2.1'
p695
sg54
S'1975-76'
p696
sg546
S'3.0'
p697
sba(isrc.gp1.models.Advanced
Advanced
p698
(dp699
g508
S'12.3'
p700
sg510
S'10.7'
p701
sg512
S'.148'
p702
sg514
S'0.9'
p703
sg515
S'19.3'
p704
sg517
S'19.6'
p705
sg519
S'-0.1'
p706
sg22
g23
sg520
S'2.9'
p707
sg521
S'.532'
p708
sg523
S'26.6'
p709
sg525
S'.192'
p710
sg527
S'.000'
p711
sg28
S'ABA'
p712
sg530
S'1.8'
p713
sg531
S'9.5'
p714
sg533
S'0.5'
p715
sg39
S'26'
p716
sg41
S'UTS'
p717
sg43
S'16'
p718
sg538
S'1.2'
p719
sg539
S'18.5'
p720
sg541
S'1.4'
p721
sg62
S'591'
p722
sg544
S'1.7'
p723
sg54
S'1975-76'
p724
sg546
S'1.8'
p725
sba(isrc.gp1.models.Advanced
Advanced
p726
(dp727
g508
S'8.9'
p728
sg510
S'11.1'
p729
sg512
S'.061'
p730
sg514
S'1.2'
p731
sg515
S'18.9'
p732
sg517
S'15.0'
p733
sg519
S'-1.3'
p734
sg22
g23
sg520
S'-0.6'
p735
sg521
S'.446'
p736
sg523
S'21.2'
p737
sg525
S'.134'
p738
sg527
S'.003'
p739
sg28
S'ABA'
p740
sg530
S'-3.2'
p741
sg531
S'6.9'
p742
sg533
S'1.0'
p743
sg39
S'26'
p744
sg41
S'SSL'
p745
sg43
S'51'
p746
sg538
S'1.1'
p747
sg539
S'12.5'
p748
sg541
S'0.2'
p749
sg62
S'949'
p750
sg544
S'-4.5'
p751
sg54
S'1975-76'
p752
sg546
S'1.2'
p753
sba(isrc.gp1.models.Advanced
Advanced
p754
(dp755
g508
S'12.1'
p756
sg510
g3
sg512
S'.029'
p757
sg514
S'0.9'
p758
sg515
g3
sg517
S'16.6'
p759
sg519
S'-0.7'
p760
sg22
g23
sg520
S'-0.4'
p761
sg521
S'.432'
p762
sg523
S'21.2'
p763
sg525
S'.184'
p764
sg527
g3
sg28
S'NBA'
p765
sg530
S'-3.7'
p766
sg531
S'6.9'
p767
sg533
S'0.6'
p768
sg39
S'27'
p769
sg41
S'ATL'
p770
sg43
S'45'
p771
sg538
S'1.3'
p772
sg539
S'11.2'
p773
sg541
S'-0.2'
p774
sg62
S'700'
p775
sg544
S'-4.4'
p776
sg54
S'1976-77'
p777
sg546
S'0.4'
p778
sbasS'_per36Minutes'
p779
(lp780
(isrc.gp1.models.Per36Minutes
Per36Minutes
p781
(dp782
g8
S'4.9'
p783
sg10
S'0.0'
p784
sg12
S'.460'
p785
sg14
S'1.2'
p786
sg16
S'.000'
p787
sg18
S'0.0'
p788
sg20
S'17.6'
p789
sg22
g23
sg24
S'.804'
p790
sg28
S'ABA'
p791
sg30
g3
sg31
S'16.5'
p792
sg33
S'3.2'
p793
sg35
S'3.0'
p794
sg37
S'13.1'
p795
sg39
S'22'
p796
sg41
S'TOT'
p797
sg43
S'81'
p798
sg45
g3
sg46
S'7.6'
p799
sg48
S'2.4'
p800
sg50
S'16.5'
p801
sg52
S'8.2'
p802
sg54
S'1971-72'
p803
sg56
S'7.6'
p804
sg58
S'2.0'
p805
sg60
S'.461'
p806
sg62
S'2039'
p807
sg64
g3
sba(isrc.gp1.models.Per36Minutes
Per36Minutes
p808
(dp809
g8
S'5.0'
p810
sg10
S'0.1'
p811
sg12
S'.434'
p812
sg14
S'1.7'
p813
sg16
S'.000'
p814
sg18
S'0.0'
p815
sg20
S'16.9'
p816
sg22
g23
sg24
S'.709'
p817
sg28
S'ABA'
p818
sg30
g3
sg31
S'17.2'
p819
sg33
S'3.4'
p820
sg35
S'2.8'
p821
sg37
S'13.2'
p822
sg39
S'22'
p823
sg41
S'CAR'
p824
sg43
S'39'
p825
sg45
g3
sg46
S'7.5'
p826
sg48
S'2.0'
p827
sg50
S'17.1'
p828
sg52
S'8.2'
p829
sg54
S'1971-72'
p830
sg56
S'7.5'
p831
sg58
S'2.5'
p832
sg60
S'.435'
p833
sg62
S'710'
p834
sg64
g3
sba(isrc.gp1.models.Per36Minutes
Per36Minutes
p835
(dp836
g8
S'4.9'
p837
sg10
S'0.0'
p838
sg12
S'.475'
p839
sg14
S'0.9'
p840
sg16
S'.000'
p841
sg18
S'0.0'
p842
sg20
S'17.9'
p843
sg22
g23
sg24
S'.850'
p844
sg28
S'ABA'
p845
sg30
g3
sg31
S'16.1'
p846
sg33
S'3.1'
p847
sg35
S'3.1'
p848
sg37
S'13.0'
p849
sg39
S'22'
p850
sg41
S'MMP'
p851
sg43
S'42'
p852
sg45
g3
sg46
S'7.7'
p853
sg48
S'2.6'
p854
sg50
S'16.1'
p855
sg52
S'8.1'
p856
sg54
S'1971-72'
p857
sg56
S'7.7'
p858
sg58
S'1.7'
p859
sg60
S'.476'
p860
sg62
S'1329'
p861
sg64
g3
sba(isrc.gp1.models.Per36Minutes
Per36Minutes
p862
(dp863
g8
S'4.5'
p864
sg10
S'0.1'
p865
sg12
S'.482'
p866
sg14
S'1.6'
p867
sg16
S'.375'
p868
sg18
S'0.0'
p869
sg20
S'18.4'
p870
sg22
g23
sg24
S'.747'
p871
sg28
S'ABA'
p872
sg30
g3
sg31
S'16.0'
p873
sg33
S'3.2'
p874
sg35
S'3.9'
p875
sg37
S'13.4'
p876
sg39
S'23'
p877
sg41
S'MMT'
p878
sg43
S'66'
p879
sg45
g3
sg46
S'7.7'
p880
sg48
S'2.9'
p881
sg50
S'15.9'
p882
sg52
S'8.9'
p883
sg54
S'1972-73'
p884
sg56
S'7.7'
p885
sg58
S'2.0'
p886
sg60
S'.483'
p887
sg62
S'2205'
p888
sg64
g3
sba(isrc.gp1.models.Per36Minutes
Per36Minutes
p889
(dp890
g8
S'4.1'
p891
sg10
S'0.0'
p892
sg12
S'.496'
p893
sg14
S'2.5'
p894
sg16
S'.000'
p895
sg18
S'0.0'
p896
sg20
S'17.0'
p897
sg22
g23
sg24
S'.792'
p898
sg28
S'ABA'
p899
sg30
S'0.9'
p900
sg31
S'14.6'
p901
sg33
S'3.7'
p902
sg35
S'3.2'
p903
sg37
S'12.6'
p904
sg39
S'24'
p905
sg41
S'MMT'
p906
sg43
S'79'
p907
sg45
S'0.6'
p908
sg46
S'7.3'
p909
sg48
S'2.5'
p910
sg50
S'14.6'
p911
sg52
S'8.5'
p912
sg54
S'1973-74'
p913
sg56
S'7.3'
p914
sg58
S'2.7'
p915
sg60
S'.497'
p916
sg62
S'2218'
p917
sg64
g3
sba(isrc.gp1.models.Per36Minutes
Per36Minutes
p918
(dp919
g8
S'3.7'
p920
sg10
S'0.0'
p921
sg12
S'.503'
p922
sg14
S'2.2'
p923
sg16
g3
sg18
S'0.0'
p924
sg20
S'16.8'
p925
sg22
g23
sg24
S'.767'
p926
sg28
S'ABA'
p927
sg30
S'0.7'
p928
sg31
S'14.5'
p929
sg33
S'4.3'
p930
sg35
S'2.9'
p931
sg37
S'11.5'
p932
sg39
S'25'
p933
sg41
S'UTS'
p934
sg43
S'75'
p935
sg45
S'1.0'
p936
sg46
S'7.3'
p937
sg48
S'2.2'
p938
sg50
S'14.5'
p939
sg52
S'7.7'
p940
sg54
S'1974-75'
p941
sg56
S'7.3'
p942
sg58
S'2.4'
p943
sg60
S'.503'
p944
sg62
S'1482'
p945
sg64
g3
sba(isrc.gp1.models.Per36Minutes
Per36Minutes
p946
(dp947
g8
S'3.6'
p948
sg10
S'0.0'
p949
sg12
S'.446'
p950
sg14
S'2.1'
p951
sg16
S'.000'
p952
sg18
S'0.0'
p953
sg20
S'15.2'
p954
sg22
g23
sg24
S'.838'
p955
sg28
S'ABA'
p956
sg30
S'0.9'
p957
sg31
S'14.8'
p958
sg33
S'4.2'
p959
sg35
S'2.3'
p960
sg37
S'12.1'
p961
sg39
S'26'
p962
sg41
S'TOT'
p963
sg43
S'67'
p964
sg45
S'0.7'
p965
sg46
S'6.6'
p966
sg48
S'1.9'
p967
sg50
S'14.8'
p968
sg52
S'8.5'
p969
sg54
S'1975-76'
p970
sg56
S'6.6'
p971
sg58
S'1.9'
p972
sg60
S'.447'
p973
sg62
S'1540'
p974
sg64
g3
sba(isrc.gp1.models.Per36Minutes
Per36Minutes
p975
(dp976
g8
S'4.2'
p977
sg10
S'0.0'
p978
sg12
S'.490'
p979
sg14
S'2.4'
p980
sg16
g3
sg18
S'0.0'
p981
sg20
S'16.8'
p982
sg22
g23
sg24
S'.913'
p983
sg28
S'ABA'
p984
sg30
S'0.7'
p985
sg31
S'14.6'
p986
sg33
S'4.3'
p987
sg35
S'2.8'
p988
sg37
S'13.7'
p989
sg39
S'26'
p990
sg41
S'UTS'
p991
sg43
S'16'
p992
sg45
S'0.8'
p993
sg46
S'7.1'
p994
sg48
S'2.6'
p995
sg50
S'14.6'
p996
sg52
S'9.5'
p997
sg54
S'1975-76'
p998
sg56
S'7.1'
p999
sg58
S'1.9'
p1000
sg60
S'.490'
p1001
sg62
S'591'
p1002
sg64
g3
sba(isrc.gp1.models.Per36Minutes
Per36Minutes
p1003
(dp1004
g8
S'3.3'
p1005
sg10
S'0.0'
p1006
sg12
S'.420'
p1007
sg14
S'1.9'
p1008
sg16
S'.000'
p1009
sg18
S'0.0'
p1010
sg20
S'14.1'
p1011
sg22
g23
sg24
S'.774'
p1012
sg28
S'ABA'
p1013
sg30
S'0.9'
p1014
sg31
S'15.0'
p1015
sg33
S'4.1'
p1016
sg35
S'2.0'
p1017
sg37
S'11.2'
p1018
sg39
S'26'
p1019
sg41
S'SSL'
p1020
sg43
S'51'
p1021
sg45
S'0.7'
p1022
sg46
S'6.3'
p1023
sg48
S'1.6'
p1024
sg50
S'14.9'
p1025
sg52
S'7.9'
p1026
sg54
S'1975-76'
p1027
sg56
S'6.3'
p1028
sg58
S'2.0'
p1029
sg60
S'.421'
p1030
sg62
S'949'
p1031
sg64
g3
sba(isrc.gp1.models.Per36Minutes
Per36Minutes
p1032
(dp1033
g8
S'4.2'
p1034
sg10
g3
sg12
S'.402'
p1035
sg14
S'1.7'
p1036
sg16
g3
sg18
g3
sg20
S'12.3'
p1037
sg22
g23
sg24
S'.702'
p1038
sg28
S'NBA'
p1039
sg30
S'0.7'
p1040
sg31
S'13.2'
p1041
sg33
S'5.1'
p1042
sg35
S'2.4'
p1043
sg37
S'11.2'
p1044
sg39
S'27'
p1045
sg41
S'ATL'
p1046
sg43
S'45'
p1047
sg45
S'0.8'
p1048
sg46
S'5.3'
p1049
sg48
S'1.7'
p1050
sg50
S'13.2'
p1051
sg52
S'7.0'
p1052
sg54
S'1976-77'
p1053
sg56
S'5.3'
p1054
sg58
g3
sg60
S'.402'
p1055
sg62
S'700'
p1056
sg64
g3
sbasS'_fromYear'
p1057
S'1972'
p1058
sS'_url'
p1059
S'http://www.basketball-reference.com/players/d/dentora01.html'
p1060
sS'_perGame'
p1061
(isrc.gp1.models.PerGame
PerGame
p1062
(dp1063
g8
S'1.8'
p1064
sg10
g3
sg12
S'.402'
p1065
sS'_effectiveFieldGalPercentage'
p1066
S'.402'
p1067
sg14
S'0.7'
p1068
sg16
g3
sg18
g3
sg20
S'5.3'
p1069
sg22
g23
sg24
S'.702'
p1070
sg28
S'NBA'
p1071
sg30
S'0.3'
p1072
sg33
S'2.2'
p1073
sS'_fieldGoalsttempted'
p1074
S'5.7'
p1075
sg35
S'1.0'
p1076
sg37
S'4.8'
p1077
sg39
S'27'
p1078
sg41
S'ATL'
p1079
sg43
S'45'
p1080
sg45
S'0.4'
p1081
sg46
S'2.3'
p1082
sg48
S'0.7'
p1083
sg50
S'5.7'
p1084
sg52
S'3.0'
p1085
sg54
S'1976-77'
p1086
sg56
S'2.3'
p1087
sg58
g3
sg60
S'.402'
p1088
sg62
S'15.6'
p1089
sg64
g3
sbsS'_weight'
p1090
S'240'
p1091
sS'_dob'
p1092
S'18-2-1949'
p1093
sS'_salary'
p1094
(lp1095
sg22
g23
sb.