(isrc.gp1.models.Player
Player
p0
(dp1
S'_experience'
p2
V11
p3
sS'_totals'
p4
(lp5
(isrc.gp1.models.Totals
Totals
p6
(dp7
S'_offensiveRebounds'
p8
S'28'
p9
sS'_threePointsAttempted'
p10
S'131'
p11
sS'_fieldGoalsPercentage'
p12
S'.429'
p13
sS'_assist'
p14
S'169'
p15
sS'_threePointsPercentage'
p16
S'.336'
p17
sS'_threePoints'
p18
S'44'
p19
sS'_points'
p20
S'436'
p21
sS'_position'
p22
S'PG'
p23
sS'_freeThrowsPercentage'
p24
S'.757'
p25
sS'_effectiveFieldGoalPercentage'
p26
S'.489'
p27
sS'_league'
p28
S'NBA'
p29
sS'_steals'
p30
S'77'
p31
sS'_fieldGoalsAttempted'
p32
S'366'
p33
sS'_personalFouls'
p34
S'139'
p35
sS'_freeThrowsAttempted'
p36
S'103'
p37
sS'_totalRebounds'
p38
S'102'
p39
sS'_age'
p40
S'21'
p41
sS'_team'
p42
S'DAL'
p43
sS'_games'
p44
S'76'
p45
sS'_blocks'
p46
S'19'
p47
sS'_twoPoints'
p48
S'113'
p49
sS'_freeThrows'
p50
S'78'
p51
sS'_twoPointsAttempted'
p52
S'235'
p53
sS'_defensiveRebounds'
p54
S'74'
p55
sS'_season'
p56
S'2004-05'
p57
sS'_fieldGoals'
p58
S'157'
p59
sS'_turnOvers'
p60
S'82'
p61
sS'_twoPointsPercentage'
p62
S'.481'
p63
sS'_minutesPlayed'
p64
S'1173'
p65
sS'_gamesStarted'
p66
S'19'
p67
sba(isrc.gp1.models.Totals
Totals
p68
(dp69
g8
S'26'
p70
sg10
S'21'
p71
sg12
S'.469'
p72
sg14
S'177'
p73
sg16
S'.238'
p74
sg18
S'5'
p75
sg20
S'554'
p76
sg22
S'PG'
p77
sg24
S'.716'
p78
sg26
S'.475'
p79
sg28
S'NBA'
p80
sg30
S'53'
p81
sg32
S'405'
p82
sg34
S'121'
p83
sg36
S'236'
p84
sg38
S'125'
p85
sg40
S'22'
p86
sg42
S'DAL'
p87
sg44
S'56'
p88
sg46
S'16'
p89
sg48
S'185'
p90
sg50
S'169'
p91
sg52
S'384'
p92
sg54
S'99'
p93
sg56
S'2005-06'
p94
sg58
S'190'
p95
sg60
S'84'
p96
sg62
S'.482'
p97
sg64
S'1275'
p98
sg66
S'4'
p99
sba(isrc.gp1.models.Totals
Totals
p100
(dp101
g8
S'45'
p102
sg10
S'50'
p103
sg12
S'.492'
p104
sg14
S'296'
p105
sg16
S'.280'
p106
sg18
S'14'
p107
sg20
S'813'
p108
sg22
S'PG'
p109
sg24
S'.824'
p110
sg26
S'.504'
p111
sg28
S'NBA'
p112
sg30
S'96'
p113
sg32
S'593'
p114
sg34
S'242'
p115
sg36
S'261'
p116
sg38
S'196'
p117
sg40
S'23'
p118
sg42
S'DAL'
p119
sg44
S'80'
p120
sg46
S'21'
p121
sg48
S'278'
p122
sg50
S'215'
p123
sg52
S'543'
p124
sg54
S'151'
p125
sg56
S'2006-07'
p126
sg58
S'292'
p127
sg60
S'146'
p128
sg62
S'.512'
p129
sg64
S'2081'
p130
sg66
S'61'
p131
sba(isrc.gp1.models.Totals
Totals
p132
(dp133
g8
S'28'
p134
sg10
S'167'
p135
sg12
S'.463'
p136
sg14
S'369'
p137
sg16
S'.335'
p138
sg18
S'56'
p139
sg20
S'946'
p140
sg22
S'PG'
p141
sg24
S'.824'
p142
sg26
S'.504'
p143
sg28
S'NBA'
p144
sg30
S'90'
p145
sg32
S'693'
p146
sg34
S'190'
p147
sg36
S'301'
p148
sg38
S'173'
p149
sg40
S'24'
p150
sg42
S'TOT'
p151
sg44
S'64'
p152
sg46
S'10'
p153
sg48
S'265'
p154
sg50
S'248'
p155
sg52
S'526'
p156
sg54
S'145'
p157
sg56
S'2007-08'
p158
sg58
S'321'
p159
sg60
S'161'
p160
sg62
S'.504'
p161
sg64
S'2022'
p162
sg66
S'61'
p163
sba(isrc.gp1.models.Totals
Totals
p164
(dp165
g8
S'17'
p166
sg10
S'70'
p167
sg12
S'.483'
p168
sg14
S'206'
p169
sg16
S'.357'
p170
sg18
S'25'
p171
sg20
S'560'
p172
sg22
S'PG'
p173
sg24
S'.821'
p174
sg26
S'.516'
p175
sg28
S'NBA'
p176
sg30
S'56'
p177
sg32
S'387'
p178
sg34
S'127'
p179
sg36
S'196'
p180
sg38
S'91'
p181
sg40
S'24'
p182
sg42
S'DAL'
p183
sg44
S'39'
p184
sg46
S'2'
p185
sg48
S'162'
p186
sg50
S'161'
p187
sg52
S'317'
p188
sg54
S'74'
p189
sg56
S'2007-08'
p190
sg58
S'187'
p191
sg60
S'93'
p192
sg62
S'.511'
p193
sg64
S'1184'
p194
sg66
S'39'
p195
sba(isrc.gp1.models.Totals
Totals
p196
(dp197
g8
S'11'
p198
sg10
S'97'
p199
sg12
S'.438'
p200
sg14
S'163'
p201
sg16
S'.320'
p202
sg18
S'31'
p203
sg20
S'386'
p204
sg22
S'PG'
p205
sg24
S'.829'
p206
sg26
S'.489'
p207
sg28
S'NBA'
p208
sg30
S'34'
p209
sg32
S'306'
p210
sg34
S'63'
p211
sg36
S'105'
p212
sg38
S'82'
p213
sg40
S'24'
p214
sg42
S'NJN'
p215
sg44
S'25'
p216
sg46
S'8'
p217
sg48
S'103'
p218
sg50
S'87'
p219
sg52
S'209'
p220
sg54
S'71'
p221
sg56
S'2007-08'
p222
sg58
S'134'
p223
sg60
S'68'
p224
sg62
S'.493'
p225
sg64
S'838'
p226
sg66
S'22'
p227
sba(isrc.gp1.models.Totals
Totals
p228
(dp229
g8
S'30'
p230
sg10
S'220'
p231
sg12
S'.438'
p232
sg14
S'476'
p233
sg16
S'.291'
p234
sg18
S'64'
p235
sg20
S'1470'
p236
sg22
S'PG'
p237
sg24
S'.820'
p238
sg26
S'.469'
p239
sg28
S'NBA'
p240
sg30
S'114'
p241
sg32
S'1039'
p242
sg34
S'164'
p243
sg36
S'605'
p244
sg38
S'231'
p245
sg40
S'25'
p246
sg42
S'NJN'
p247
sg44
S'69'
p248
sg46
S'13'
p249
sg48
S'391'
p250
sg50
S'496'
p251
sg52
S'819'
p252
sg54
S'201'
p253
sg56
S'2008-09'
p254
sg58
S'455'
p255
sg60
S'212'
p256
sg62
S'.477'
p257
sg64
S'2494'
p258
sg66
S'69'
p259
sba(isrc.gp1.models.Totals
Totals
p260
(dp261
g8
S'24'
p262
sg10
S'217'
p263
sg12
S'.403'
p264
sg14
S'423'
p265
sg16
S'.276'
p266
sg18
S'60'
p267
sg20
S'1080'
p268
sg22
S'PG'
p269
sg24
S'.798'
p270
sg26
S'.437'
p271
sg28
S'NBA'
p272
sg30
S'79'
p273
sg32
S'884'
p274
sg34
S'178'
p275
sg36
S'386'
p276
sg38
S'203'
p277
sg40
S'26'
p278
sg42
S'NJN'
p279
sg44
S'64'
p280
sg46
S'18'
p281
sg48
S'296'
p282
sg50
S'308'
p283
sg52
S'667'
p284
sg54
S'179'
p285
sg56
S'2009-10'
p286
sg58
S'356'
p287
sg60
S'181'
p288
sg62
S'.444'
p289
sg64
S'2221'
p290
sg66
S'61'
p291
sba(isrc.gp1.models.Totals
Totals
p292
(dp293
g8
S'17'
p294
sg10
S'180'
p295
sg12
S'.422'
p296
sg14
S'503'
p297
sg16
S'.322'
p298
sg18
S'58'
p299
sg20
S'1079'
p300
sg22
S'PG'
p301
sg24
S'.833'
p302
sg26
S'.458'
p303
sg28
S'NBA'
p304
sg30
S'70'
p305
sg32
S'813'
p306
sg34
S'163'
p307
sg36
S'402'
p308
sg38
S'169'
p309
sg40
S'27'
p310
sg42
S'TOT'
p311
sg44
S'71'
p312
sg46
S'7'
p313
sg48
S'285'
p314
sg50
S'335'
p315
sg52
S'633'
p316
sg54
S'152'
p317
sg56
S'2010-11'
p318
sg58
S'343'
p319
sg60
S'207'
p320
sg62
S'.450'
p321
sg64
S'2254'
p322
sg66
S'70'
p323
sba(isrc.gp1.models.Totals
Totals
p324
(dp325
g8
S'11'
p326
sg10
S'110'
p327
sg12
S'.425'
p328
sg14
S'411'
p329
sg16
S'.300'
p330
sg18
S'33'
p331
sg20
S'811'
p332
sg22
S'PG'
p333
sg24
S'.840'
p334
sg26
S'.452'
p335
sg28
S'NBA'
p336
sg30
S'57'
p337
sg32
S'612'
p338
sg34
S'130'
p339
sg36
S'307'
p340
sg38
S'129'
p341
sg40
S'27'
p342
sg42
S'NJN'
p343
sg44
S'54'
p344
sg46
g75
sg48
S'227'
p345
sg50
S'258'
p346
sg52
S'502'
p347
sg54
S'118'
p348
sg56
S'2010-11'
p349
sg58
S'260'
p350
sg60
S'158'
p351
sg62
S'.452'
p352
sg64
S'1724'
p353
sg66
S'54'
p354
sba(isrc.gp1.models.Totals
Totals
p355
(dp356
g8
S'6'
p357
sg10
S'70'
p358
sg12
S'.413'
p359
sg14
S'92'
p360
sg16
S'.357'
p361
sg18
S'25'
p362
sg20
S'268'
p363
sg22
S'PG'
p364
sg24
S'.811'
p365
sg26
S'.475'
p366
sg28
S'NBA'
p367
sg30
S'13'
p368
sg32
S'201'
p369
sg34
S'33'
p370
sg36
S'95'
p371
sg38
S'40'
p372
sg40
S'27'
p373
sg42
S'UTA'
p374
sg44
S'17'
p375
sg46
g185
sg48
S'58'
p376
sg50
S'77'
p377
sg52
S'131'
p378
sg54
S'34'
p379
sg56
S'2010-11'
p380
sg58
S'83'
p381
sg60
S'49'
p382
sg62
S'.443'
p383
sg64
S'530'
p384
sg66
S'16'
p385
sba(isrc.gp1.models.Totals
Totals
p386
(dp387
g8
S'12'
p388
sg10
S'213'
p389
sg12
S'.445'
p390
sg14
S'316'
p391
sg16
S'.362'
p392
sg18
S'77'
p393
sg20
S'715'
p394
sg22
S'PG'
p395
sg24
S'.746'
p396
sg26
S'.516'
p397
sg28
S'NBA'
p398
sg30
S'64'
p399
sg32
S'542'
p400
sg34
S'136'
p401
sg36
S'209'
p402
sg38
S'112'
p403
sg40
S'28'
p404
sg42
S'UTA'
p405
sg44
S'63'
p406
sg46
S'13'
p407
sg48
S'164'
p408
sg50
S'156'
p409
sg52
S'329'
p410
sg54
S'100'
p411
sg56
S'2011-12'
p412
sg58
S'241'
p413
sg60
S'122'
p414
sg62
S'.498'
p415
sg64
S'1741'
p416
sg66
S'63'
p417
sba(isrc.gp1.models.Totals
Totals
p418
(dp419
g8
g357
sg10
S'230'
p420
sg12
S'.438'
p421
sg14
S'197'
p422
sg16
S'.335'
p423
sg18
S'77'
p424
sg20
S'577'
p425
sg22
S'SG'
p426
sg24
S'.727'
p427
sg26
S'.525'
p428
sg28
S'NBA'
p429
sg30
S'64'
p430
sg32
S'443'
p431
sg34
S'103'
p432
sg36
S'154'
p433
sg38
S'116'
p434
sg40
S'29'
p435
sg42
S'ATL'
p436
sg44
S'58'
p437
sg46
S'13'
p438
sg48
S'117'
p439
sg50
S'112'
p440
sg52
S'213'
p441
sg54
S'110'
p442
sg56
S'2012-13'
p443
sg58
S'194'
p444
sg60
S'88'
p445
sg62
S'.549'
p446
sg64
S'1421'
p447
sg66
S'34'
p448
sba(isrc.gp1.models.Totals
Totals
p449
(dp450
g8
g217
sg10
S'101'
p451
sg12
S'.378'
p452
sg14
S'178'
p453
sg16
S'.307'
p454
sg18
S'31'
p455
sg20
S'315'
p456
sg22
S'PG'
p457
sg24
S'.800'
p458
sg26
S'.439'
p459
sg28
S'NBA'
p460
sg30
S'28'
p461
sg32
S'254'
p462
sg34
S'72'
p463
sg36
S'115'
p464
sg38
S'85'
p465
sg40
S'30'
p466
sg42
S'DAL'
p467
sg44
S'40'
p468
sg46
g185
sg48
S'65'
p469
sg50
S'92'
p470
sg52
S'153'
p471
sg54
S'77'
p472
sg56
S'2013-14'
p473
sg58
S'96'
p474
sg60
S'59'
p475
sg62
S'.425'
p476
sg64
S'818'
p477
sg66
S'0'
p478
sba(isrc.gp1.models.Totals
Totals
p479
(dp480
g8
S'13'
p481
sg10
S'266'
p482
sg12
S'.418'
p483
sg14
S'237'
p484
sg16
S'.357'
p485
sg18
S'95'
p486
sg20
S'665'
p487
sg22
S'PG'
p488
sg24
S'.815'
p489
sg26
S'.509'
p490
sg28
S'NBA'
p491
sg30
S'78'
p492
sg32
S'524'
p493
sg34
S'147'
p494
sg36
S'162'
p495
sg38
S'135'
p496
sg40
S'31'
p497
sg42
S'DAL'
p498
sg44
S'76'
p499
sg46
S'14'
p500
sg48
S'124'
p501
sg50
S'132'
p502
sg52
S'258'
p503
sg54
S'122'
p504
sg56
S'2014-15'
p505
sg58
S'219'
p506
sg60
S'85'
p507
sg62
S'.481'
p508
sg64
S'1685'
p509
sg66
S'3'
p510
sba(isrc.gp1.models.Totals
Totals
p511
(dp512
g8
S'13'
p513
sg10
S'83'
p514
sg12
S'.460'
p515
sg14
S'83'
p516
sg16
S'.337'
p517
sg18
S'28'
p518
sg20
S'296'
p519
sg22
S'PG'
p520
sg24
S'.682'
p521
sg26
S'.522'
p522
sg28
S'NBA'
p523
sg30
S'38'
p524
sg32
S'226'
p525
sg34
S'80'
p526
sg36
S'88'
p527
sg38
S'84'
p528
sg40
S'32'
p529
sg42
S'DAL'
p530
sg44
S'40'
p531
sg46
g217
sg48
S'76'
p532
sg50
S'60'
p533
sg52
S'143'
p534
sg54
S'71'
p535
sg56
S'2015-16'
p536
sg58
S'104'
p537
sg60
S'38'
p538
sg62
S'.531'
p539
sg64
S'784'
p540
sg66
g478
sbasS'_college'
p541
S'University of Wisconsin'
p542
sS'_toYear'
p543
S'2016'
p544
sS'_height'
p545
S'6-3'
p546
sS'_active'
p547
I01
sS'_shootingHand'
p548
VRight
p549
sS'_name'
p550
S'Devin Harris'
p551
sS'_per100Possessions'
p552
(lp553
(isrc.gp1.models.Per100Possession
Per100Possession
p554
(dp555
g8
S'1.2'
p556
sg10
S'5.8'
p557
sg12
S'.429'
p558
sS'_offensiveRating'
p559
S'106'
p560
sg14
S'7.5'
p561
sg16
S'.336'
p562
sg18
S'1.9'
p563
sg20
S'19.2'
p564
sg22
S'PG'
p565
sS'_defensiveRating'
p566
S'104'
p567
sg24
S'.757'
p568
sg28
S'NBA'
p569
sg30
S'3.4'
p570
sg32
S'16.2'
p571
sg34
S'6.1'
p572
sg36
S'4.5'
p573
sg38
S'4.5'
p574
sg40
S'21'
p575
sg42
S'DAL'
p576
sg44
S'76'
p577
sg46
S'0.8'
p578
sg48
S'5.0'
p579
sg50
S'3.4'
p580
sg52
S'10.4'
p581
sg54
S'3.3'
p582
sg56
S'2004-05'
p583
sg58
S'6.9'
p584
sg60
S'3.6'
p585
sg62
S'.481'
p586
sg64
S'1173'
p587
sg66
S'19'
p588
sba(isrc.gp1.models.Per100Possession
Per100Possession
p589
(dp590
g8
S'1.1'
p591
sg10
S'0.9'
p592
sg12
S'.469'
p593
sg559
S'111'
p594
sg14
S'7.6'
p595
sg16
S'.238'
p596
sg18
S'0.2'
p597
sg20
S'23.8'
p598
sg22
S'PG'
p599
sg566
S'106'
p600
sg24
S'.716'
p601
sg28
S'NBA'
p602
sg30
S'2.3'
p603
sg32
S'17.4'
p604
sg34
S'5.2'
p605
sg36
S'10.1'
p606
sg38
S'5.4'
p607
sg40
S'22'
p608
sg42
S'DAL'
p609
sg44
S'56'
p610
sg46
S'0.7'
p611
sg48
S'7.9'
p612
sg50
S'7.2'
p613
sg52
S'16.5'
p614
sg54
S'4.2'
p615
sg56
S'2005-06'
p616
sg58
S'8.2'
p617
sg60
S'3.6'
p618
sg62
S'.482'
p619
sg64
S'1275'
p620
sg66
g99
sba(isrc.gp1.models.Per100Possession
Per100Possession
p621
(dp622
g8
S'1.2'
p623
sg10
S'1.3'
p624
sg12
S'.492'
p625
sg559
S'112'
p626
sg14
S'7.6'
p627
sg16
S'.280'
p628
sg18
S'0.4'
p629
sg20
S'20.9'
p630
sg22
S'PG'
p631
sg566
S'104'
p632
sg24
S'.824'
p633
sg28
S'NBA'
p634
sg30
S'2.5'
p635
sg32
S'15.3'
p636
sg34
S'6.2'
p637
sg36
S'6.7'
p638
sg38
S'5.0'
p639
sg40
S'23'
p640
sg42
S'DAL'
p641
sg44
S'80'
p642
sg46
S'0.5'
p643
sg48
S'7.2'
p644
sg50
S'5.5'
p645
sg52
S'14.0'
p646
sg54
S'3.9'
p647
sg56
S'2006-07'
p648
sg58
S'7.5'
p649
sg60
S'3.8'
p650
sg62
S'.512'
p651
sg64
S'2081'
p652
sg66
S'61'
p653
sba(isrc.gp1.models.Per100Possession
Per100Possession
p654
(dp655
g8
S'0.7'
p656
sg10
S'4.4'
p657
sg12
S'.463'
p658
sg559
S'112'
p659
sg14
S'9.7'
p660
sg16
S'.335'
p661
sg18
S'1.5'
p662
sg20
S'24.8'
p663
sg22
S'PG'
p664
sg566
S'108'
p665
sg24
S'.824'
p666
sg28
S'NBA'
p667
sg30
S'2.4'
p668
sg32
S'18.1'
p669
sg34
S'5.0'
p670
sg36
S'7.9'
p671
sg38
S'4.5'
p672
sg40
S'24'
p673
sg42
S'TOT'
p674
sg44
S'64'
p675
sg46
S'0.3'
p676
sg48
S'6.9'
p677
sg50
S'6.5'
p678
sg52
S'13.8'
p679
sg54
S'3.8'
p680
sg56
S'2007-08'
p681
sg58
S'8.4'
p682
sg60
S'4.2'
p683
sg62
S'.504'
p684
sg64
S'2022'
p685
sg66
S'61'
p686
sba(isrc.gp1.models.Per100Possession
Per100Possession
p687
(dp688
g8
S'0.8'
p689
sg10
S'3.1'
p690
sg12
S'.483'
p691
sg559
S'115'
p692
sg14
S'9.3'
p693
sg16
S'.357'
p694
sg18
S'1.1'
p695
sg20
S'25.2'
p696
sg22
S'PG'
p697
sg566
S'107'
p698
sg24
S'.821'
p699
sg28
S'NBA'
p700
sg30
S'2.5'
p701
sg32
S'17.4'
p702
sg34
S'5.7'
p703
sg36
S'8.8'
p704
sg38
S'4.1'
p705
sg40
S'24'
p706
sg42
S'DAL'
p707
sg44
S'39'
p708
sg46
S'0.1'
p709
sg48
S'7.3'
p710
sg50
S'7.2'
p711
sg52
S'14.3'
p712
sg54
S'3.3'
p713
sg56
S'2007-08'
p714
sg58
S'8.4'
p715
sg60
S'4.2'
p716
sg62
S'.511'
p717
sg64
S'1184'
p718
sg66
S'39'
p719
sba(isrc.gp1.models.Per100Possession
Per100Possession
p720
(dp721
g8
S'0.7'
p722
sg10
S'6.1'
p723
sg12
S'.438'
p724
sg559
S'108'
p725
sg14
S'10.2'
p726
sg16
S'.320'
p727
sg18
S'1.9'
p728
sg20
S'24.2'
p729
sg22
S'PG'
p730
sg566
S'110'
p731
sg24
S'.829'
p732
sg28
S'NBA'
p733
sg30
S'2.1'
p734
sg32
S'19.2'
p735
sg34
S'3.9'
p736
sg36
S'6.6'
p737
sg38
S'5.1'
p738
sg40
S'24'
p739
sg42
S'NJN'
p740
sg44
S'25'
p741
sg46
S'0.5'
p742
sg48
S'6.4'
p743
sg50
S'5.4'
p744
sg52
S'13.1'
p745
sg54
S'4.4'
p746
sg56
S'2007-08'
p747
sg58
S'8.4'
p748
sg60
S'4.3'
p749
sg62
S'.493'
p750
sg64
S'838'
p751
sg66
S'22'
p752
sba(isrc.gp1.models.Per100Possession
Per100Possession
p753
(dp754
g8
S'0.6'
p755
sg10
S'4.7'
p756
sg12
S'.438'
p757
sg559
S'113'
p758
sg14
S'10.2'
p759
sg16
S'.291'
p760
sg18
S'1.4'
p761
sg20
S'31.5'
p762
sg22
S'PG'
p763
sg566
S'111'
p764
sg24
S'.820'
p765
sg28
S'NBA'
p766
sg30
S'2.4'
p767
sg32
S'22.2'
p768
sg34
S'3.5'
p769
sg36
S'13.0'
p770
sg38
S'4.9'
p771
sg40
S'25'
p772
sg42
S'NJN'
p773
sg44
S'69'
p774
sg46
S'0.3'
p775
sg48
S'8.4'
p776
sg50
S'10.6'
p777
sg52
S'17.5'
p778
sg54
S'4.3'
p779
sg56
S'2008-09'
p780
sg58
S'9.7'
p781
sg60
S'4.5'
p782
sg62
S'.477'
p783
sg64
S'2494'
p784
sg66
S'69'
p785
sba(isrc.gp1.models.Per100Possession
Per100Possession
p786
(dp787
g8
S'0.6'
p788
sg10
S'5.1'
p789
sg12
S'.403'
p790
sg559
S'103'
p791
sg14
S'10.0'
p792
sg16
S'.276'
p793
sg18
S'1.4'
p794
sg20
S'25.6'
p795
sg22
S'PG'
p796
sg566
S'112'
p797
sg24
S'.798'
p798
sg28
S'NBA'
p799
sg30
S'1.9'
p800
sg32
S'20.9'
p801
sg34
S'4.2'
p802
sg36
S'9.1'
p803
sg38
S'4.8'
p804
sg40
S'26'
p805
sg42
S'NJN'
p806
sg44
S'64'
p807
sg46
S'0.4'
p808
sg48
S'7.0'
p809
sg50
S'7.3'
p810
sg52
S'15.8'
p811
sg54
S'4.2'
p812
sg56
S'2009-10'
p813
sg58
S'8.4'
p814
sg60
S'4.3'
p815
sg62
S'.444'
p816
sg64
S'2221'
p817
sg66
S'61'
p818
sba(isrc.gp1.models.Per100Possession
Per100Possession
p819
(dp820
g8
S'0.4'
p821
sg10
S'4.3'
p822
sg12
S'.422'
p823
sg559
S'108'
p824
sg14
S'11.9'
p825
sg16
S'.322'
p826
sg18
S'1.4'
p827
sg20
S'25.5'
p828
sg22
S'PG'
p829
sg566
S'112'
p830
sg24
S'.833'
p831
sg28
S'NBA'
p832
sg30
S'1.7'
p833
sg32
S'19.2'
p834
sg34
S'3.8'
p835
sg36
S'9.5'
p836
sg38
S'4.0'
p837
sg40
S'27'
p838
sg42
S'TOT'
p839
sg44
S'71'
p840
sg46
S'0.2'
p841
sg48
S'6.7'
p842
sg50
S'7.9'
p843
sg52
S'15.0'
p844
sg54
S'3.6'
p845
sg56
S'2010-11'
p846
sg58
S'8.1'
p847
sg60
S'4.9'
p848
sg62
S'.450'
p849
sg64
S'2254'
p850
sg66
S'70'
p851
sba(isrc.gp1.models.Per100Possession
Per100Possession
p852
(dp853
g8
S'0.3'
p854
sg10
S'3.4'
p855
sg12
S'.425'
p856
sg559
S'108'
p857
sg14
S'12.7'
p858
sg16
S'.300'
p859
sg18
S'1.0'
p860
sg20
S'25.1'
p861
sg22
S'PG'
p862
sg566
S'112'
p863
sg24
S'.840'
p864
sg28
S'NBA'
p865
sg30
S'1.8'
p866
sg32
S'19.0'
p867
sg34
S'4.0'
p868
sg36
S'9.5'
p869
sg38
S'4.0'
p870
sg40
S'27'
p871
sg42
S'NJN'
p872
sg44
S'54'
p873
sg46
S'0.2'
p874
sg48
S'7.0'
p875
sg50
S'8.0'
p876
sg52
S'15.5'
p877
sg54
S'3.7'
p878
sg56
S'2010-11'
p879
sg58
S'8.1'
p880
sg60
S'4.9'
p881
sg62
S'.452'
p882
sg64
S'1724'
p883
sg66
S'54'
p884
sba(isrc.gp1.models.Per100Possession
Per100Possession
p885
(dp886
g8
S'0.6'
p887
sg10
S'7.0'
p888
sg12
S'.413'
p889
sg559
S'107'
p890
sg14
S'9.2'
p891
sg16
S'.357'
p892
sg18
S'2.5'
p893
sg20
S'26.7'
p894
sg22
S'PG'
p895
sg566
S'114'
p896
sg24
S'.811'
p897
sg28
S'NBA'
p898
sg30
S'1.3'
p899
sg32
S'20.0'
p900
sg34
S'3.3'
p901
sg36
S'9.4'
p902
sg38
S'4.0'
p903
sg40
S'27'
p904
sg42
S'UTA'
p905
sg44
S'17'
p906
sg46
S'0.2'
p907
sg48
S'5.8'
p908
sg50
S'7.7'
p909
sg52
S'13.0'
p910
sg54
S'3.4'
p911
sg56
S'2010-11'
p912
sg58
S'8.3'
p913
sg60
S'4.9'
p914
sg62
S'.443'
p915
sg64
S'530'
p916
sg66
S'16'
p917
sba(isrc.gp1.models.Per100Possession
Per100Possession
p918
(dp919
g8
S'0.4'
p920
sg10
S'6.4'
p921
sg12
S'.445'
p922
sg559
S'112'
p923
sg14
S'9.5'
p924
sg16
S'.362'
p925
sg18
S'2.3'
p926
sg20
S'21.6'
p927
sg22
S'PG'
p928
sg566
S'109'
p929
sg24
S'.746'
p930
sg28
S'NBA'
p931
sg30
S'1.9'
p932
sg32
S'16.3'
p933
sg34
S'4.1'
p934
sg36
S'6.3'
p935
sg38
S'3.4'
p936
sg40
S'28'
p937
sg42
S'UTA'
p938
sg44
S'63'
p939
sg46
S'0.4'
p940
sg48
S'4.9'
p941
sg50
S'4.7'
p942
sg52
S'9.9'
p943
sg54
S'3.0'
p944
sg56
S'2011-12'
p945
sg58
S'7.3'
p946
sg60
S'3.7'
p947
sg62
S'.498'
p948
sg64
S'1741'
p949
sg66
S'63'
p950
sba(isrc.gp1.models.Per100Possession
Per100Possession
p951
(dp952
g8
S'0.2'
p953
sg10
S'8.4'
p954
sg12
S'.438'
p955
sg559
S'108'
p956
sg14
S'7.2'
p957
sg16
S'.335'
p958
sg18
S'2.8'
p959
sg20
S'21.0'
p960
sg22
S'SG'
p961
sg566
S'106'
p962
sg24
S'.727'
p963
sg28
S'NBA'
p964
sg30
S'2.3'
p965
sg32
S'16.2'
p966
sg34
S'3.8'
p967
sg36
S'5.6'
p968
sg38
S'4.2'
p969
sg40
S'29'
p970
sg42
S'ATL'
p971
sg44
S'58'
p972
sg46
S'0.5'
p973
sg48
S'4.3'
p974
sg50
S'4.1'
p975
sg52
S'7.8'
p976
sg54
S'4.0'
p977
sg56
S'2012-13'
p978
sg58
S'7.1'
p979
sg60
S'3.2'
p980
sg62
S'.549'
p981
sg64
S'1421'
p982
sg66
S'34'
p983
sba(isrc.gp1.models.Per100Possession
Per100Possession
p984
(dp985
g8
S'0.5'
p986
sg10
S'6.3'
p987
sg12
S'.378'
p988
sg559
S'109'
p989
sg14
S'11.2'
p990
sg16
S'.307'
p991
sg18
S'1.9'
p992
sg20
S'19.8'
p993
sg22
S'PG'
p994
sg566
S'111'
p995
sg24
S'.800'
p996
sg28
S'NBA'
p997
sg30
S'1.8'
p998
sg32
S'15.9'
p999
sg34
S'4.5'
p1000
sg36
S'7.2'
p1001
sg38
S'5.3'
p1002
sg40
S'30'
p1003
sg42
S'DAL'
p1004
sg44
S'40'
p1005
sg46
S'0.1'
p1006
sg48
S'4.1'
p1007
sg50
S'5.8'
p1008
sg52
S'9.6'
p1009
sg54
S'4.8'
p1010
sg56
S'2013-14'
p1011
sg58
S'6.0'
p1012
sg60
S'3.7'
p1013
sg62
S'.425'
p1014
sg64
S'818'
p1015
sg66
g478
sba(isrc.gp1.models.Per100Possession
Per100Possession
p1016
(dp1017
g8
S'0.4'
p1018
sg10
S'8.0'
p1019
sg12
S'.418'
p1020
sg559
S'113'
p1021
sg14
S'7.1'
p1022
sg16
S'.357'
p1023
sg18
S'2.8'
p1024
sg20
S'19.9'
p1025
sg22
S'PG'
p1026
sg566
S'108'
p1027
sg24
S'.815'
p1028
sg28
S'NBA'
p1029
sg30
S'2.3'
p1030
sg32
S'15.7'
p1031
sg34
S'4.4'
p1032
sg36
S'4.8'
p1033
sg38
S'4.0'
p1034
sg40
S'31'
p1035
sg42
S'DAL'
p1036
sg44
S'76'
p1037
sg46
S'0.4'
p1038
sg48
S'3.7'
p1039
sg50
S'4.0'
p1040
sg52
S'7.7'
p1041
sg54
S'3.7'
p1042
sg56
S'2014-15'
p1043
sg58
S'6.6'
p1044
sg60
S'2.5'
p1045
sg62
S'.481'
p1046
sg64
S'1685'
p1047
sg66
g510
sba(isrc.gp1.models.Per100Possession
Per100Possession
p1048
(dp1049
g8
S'0.8'
p1050
sg10
S'5.4'
p1051
sg12
S'.460'
p1052
sg559
S'109'
p1053
sg14
S'5.4'
p1054
sg16
S'.337'
p1055
sg18
S'1.8'
p1056
sg20
S'19.2'
p1057
sg22
S'PG'
p1058
sg566
S'105'
p1059
sg24
S'.682'
p1060
sg28
S'NBA'
p1061
sg30
S'2.5'
p1062
sg32
S'14.6'
p1063
sg34
S'5.2'
p1064
sg36
S'5.7'
p1065
sg38
S'5.4'
p1066
sg40
S'32'
p1067
sg42
S'DAL'
p1068
sg44
S'40'
p1069
sg46
S'0.5'
p1070
sg48
S'4.9'
p1071
sg50
S'3.9'
p1072
sg52
S'9.3'
p1073
sg54
S'4.6'
p1074
sg56
S'2015-16'
p1075
sg58
S'6.7'
p1076
sg60
S'2.5'
p1077
sg62
S'.531'
p1078
sg64
S'784'
p1079
sg66
g478
sbasS'_advanced'
p1080
(lp1081
(isrc.gp1.models.Advanced
Advanced
p1082
(dp1083
S'_offensiveReboundPercentage'
p1084
S'2.7'
p1085
sS'_turnOverPercentage'
p1086
S'16.6'
p1087
sS'_winSharesPer48Minutes'
p1088
S'.111'
p1089
sS'_stealPercentage'
p1090
S'3.4'
p1091
sS'_usagePercentage'
p1092
S'18.8'
p1093
sS'_totalReboundsPercentage'
p1094
S'4.9'
p1095
sS'_defensiveBoxPlusMinus'
p1096
S'0.3'
p1097
sg22
S'PG'
p1098
sS'_valueOverReplacementPlayer'
p1099
S'0.9'
p1100
sS'_trueShootingPercentage'
p1101
S'.530'
p1102
sS'_defensiveReboundPercentage'
p1103
S'6.9'
p1104
sS'_freeThrowsAttempRate'
p1105
S'.281'
p1106
sS'_threePointsAttempRate'
p1107
S'.358'
p1108
sg28
S'NBA'
p1109
sS'_offensiveBoxPlusMinues'
p1110
S'0.9'
p1111
sS'_assistPercentage'
p1112
S'22.5'
p1113
sS'_defensiveWinShares'
p1114
S'1.6'
p1115
sg40
S'21'
p1116
sg42
S'DAL'
p1117
sg44
S'76'
p1118
sS'_blockPercentage'
p1119
S'1.2'
p1120
sS'_playerEfficiencyRating'
p1121
S'14.7'
p1122
sS'_offensiveWinShares'
p1123
S'1.1'
p1124
sg64
S'1173'
p1125
sS'_boxPlusMinus'
p1126
S'1.1'
p1127
sg56
S'2004-05'
p1128
sS'_winShares'
p1129
S'2.7'
p1130
sba(isrc.gp1.models.Advanced
Advanced
p1131
(dp1132
g1084
S'2.5'
p1133
sg1086
S'14.2'
p1134
sg1088
S'.139'
p1135
sg1090
S'2.3'
p1136
sg1092
S'21.7'
p1137
sg1094
S'5.9'
p1138
sg1096
S'-0.4'
p1139
sg22
S'PG'
p1140
sg1099
S'0.8'
p1141
sg1101
S'.544'
p1142
sg1103
S'9.2'
p1143
sg1105
S'.583'
p1144
sg1107
S'.052'
p1145
sg28
S'NBA'
p1146
sg1110
S'1.0'
p1147
sg1112
S'23.4'
p1148
sg1114
S'1.4'
p1149
sg40
S'22'
p1150
sg42
S'DAL'
p1151
sg44
S'56'
p1152
sg1119
S'1.0'
p1153
sg1121
S'17.4'
p1154
sg1123
S'2.3'
p1155
sg64
S'1275'
p1156
sg1126
S'0.6'
p1157
sg56
S'2005-06'
p1158
sg1129
S'3.7'
p1159
sba(isrc.gp1.models.Advanced
Advanced
p1160
(dp1161
g1084
S'2.7'
p1162
sg1086
S'17.1'
p1163
sg1088
S'.151'
p1164
sg1090
S'2.5'
p1165
sg1092
S'19.1'
p1166
sg1094
S'5.7'
p1167
sg1096
S'0.9'
p1168
sg22
S'PG'
p1169
sg1099
S'2.1'
p1170
sg1101
S'.574'
p1171
sg1103
S'8.5'
p1172
sg1105
S'.440'
p1173
sg1107
S'.084'
p1174
sg28
S'NBA'
p1175
sg1110
S'1.0'
p1176
sg1112
S'22.9'
p1177
sg1114
S'2.9'
p1178
sg40
S'23'
p1179
sg42
S'DAL'
p1180
sg44
S'80'
p1181
sg1119
S'0.8'
p1182
sg1121
S'16.0'
p1183
sg1123
S'3.7'
p1184
sg64
S'2081'
p1185
sg1126
S'1.9'
p1186
sg56
S'2006-07'
p1187
sg1129
S'6.5'
p1188
sba(isrc.gp1.models.Advanced
Advanced
p1189
(dp1190
g1084
S'1.6'
p1191
sg1086
S'16.3'
p1192
sg1088
S'.132'
p1193
sg1090
S'2.4'
p1194
sg1092
S'22.6'
p1195
sg1094
S'5.0'
p1196
sg1096
S'-1.2'
p1197
sg22
S'PG'
p1198
sg1099
S'1.6'
p1199
sg1101
S'.573'
p1200
sg1103
S'8.2'
p1201
sg1105
S'.434'
p1202
sg1107
S'.241'
p1203
sg28
S'NBA'
p1204
sg1110
S'2.2'
p1205
sg1112
S'31.1'
p1206
sg1114
S'1.9'
p1207
sg40
S'24'
p1208
sg42
S'TOT'
p1209
sg44
S'64'
p1210
sg1119
S'0.4'
p1211
sg1121
S'17.5'
p1212
sg1123
S'3.6'
p1213
sg64
S'2022'
p1214
sg1126
S'1.0'
p1215
sg56
S'2007-08'
p1216
sg1129
S'5.6'
p1217
sba(isrc.gp1.models.Advanced
Advanced
p1218
(dp1219
g1084
S'1.7'
p1220
sg1086
S'16.4'
p1221
sg1088
S'.158'
p1222
sg1090
S'2.5'
p1223
sg1092
S'22.3'
p1224
sg1094
S'4.4'
p1225
sg1096
S'-0.9'
p1226
sg22
S'PG'
p1227
sg1099
S'1.1'
p1228
sg1101
S'.592'
p1229
sg1103
S'7.0'
p1230
sg1105
S'.506'
p1231
sg1107
S'.181'
p1232
sg28
S'NBA'
p1233
sg1110
S'2.5'
p1234
sg1112
S'28.6'
p1235
sg1114
S'1.3'
p1236
sg40
S'24'
p1237
sg42
S'DAL'
p1238
sg44
S'39'
p1239
sg1119
S'0.1'
p1240
sg1121
S'18.0'
p1241
sg1123
S'2.6'
p1242
sg64
S'1184'
p1243
sg1126
S'1.7'
p1244
sg56
S'2007-08'
p1245
sg1129
S'3.9'
p1246
sba(isrc.gp1.models.Advanced
Advanced
p1247
(dp1248
g1084
S'1.5'
p1249
sg1086
S'16.2'
p1250
sg1088
S'.096'
p1251
sg1090
S'2.1'
p1252
sg1092
S'23.0'
p1253
sg1094
S'5.7'
p1254
sg1096
S'-1.6'
p1255
sg22
S'PG'
p1256
sg1099
S'0.5'
p1257
sg1101
S'.548'
p1258
sg1103
S'9.8'
p1259
sg1105
S'.343'
p1260
sg1107
S'.317'
p1261
sg28
S'NBA'
p1262
sg1110
S'1.7'
p1263
sg1112
S'34.7'
p1264
sg1114
S'0.6'
p1265
sg40
S'24'
p1266
sg42
S'NJN'
p1267
sg44
S'25'
p1268
sg1119
S'0.7'
p1269
sg1121
S'16.7'
p1270
sg1123
S'1.1'
p1271
sg64
S'838'
p1272
sg1126
S'0.1'
p1273
sg56
S'2007-08'
p1274
sg1129
S'1.7'
p1275
sba(isrc.gp1.models.Advanced
Advanced
p1276
(dp1277
g1084
S'1.4'
p1278
sg1086
S'14.0'
p1279
sg1088
S'.145'
p1280
sg1090
S'2.4'
p1281
sg1092
S'28.4'
p1282
sg1094
S'5.5'
p1283
sg1096
S'-1.5'
p1284
sg22
S'PG'
p1285
sg1099
S'2.8'
p1286
sg1101
S'.563'
p1287
sg1103
S'9.7'
p1288
sg1105
S'.582'
p1289
sg1107
S'.212'
p1290
sg28
S'NBA'
p1291
sg1110
S'3.9'
p1292
sg1112
S'34.4'
p1293
sg1114
S'1.7'
p1294
sg40
S'25'
p1295
sg42
S'NJN'
p1296
sg44
S'69'
p1297
sg1119
S'0.4'
p1298
sg1121
S'21.6'
p1299
sg1123
S'5.9'
p1300
sg64
S'2494'
p1301
sg1126
S'2.5'
p1302
sg56
S'2008-09'
p1303
sg1129
S'7.5'
p1304
sba(isrc.gp1.models.Advanced
Advanced
p1305
(dp1306
g1084
S'1.2'
p1307
sg1086
S'14.7'
p1308
sg1088
S'.057'
p1309
sg1090
S'1.9'
p1310
sg1092
S'25.5'
p1311
sg1094
S'5.3'
p1312
sg1096
S'-2.0'
p1313
sg22
S'PG'
p1314
sg1099
S'0.8'
p1315
sg1101
S'.512'
p1316
sg1103
S'9.7'
p1317
sg1105
S'.437'
p1318
sg1107
S'.245'
p1319
sg28
S'NBA'
p1320
sg1110
S'1.5'
p1321
sg1112
S'34.6'
p1322
sg1114
S'1.2'
p1323
sg40
S'26'
p1324
sg42
S'NJN'
p1325
sg44
S'64'
p1326
sg1119
S'0.6'
p1327
sg1121
S'16.2'
p1328
sg1123
S'1.5'
p1329
sg64
S'2221'
p1330
sg1126
S'-0.5'
p1331
sg56
S'2009-10'
p1332
sg1129
S'2.7'
p1333
sba(isrc.gp1.models.Advanced
Advanced
p1334
(dp1335
g1084
S'0.9'
p1336
sg1086
S'17.3'
p1337
sg1088
S'.089'
p1338
sg1090
S'1.7'
p1339
sg1092
S'24.6'
p1340
sg1094
S'4.5'
p1341
sg1096
S'-2.9'
p1342
sg22
S'PG'
p1343
sg1099
S'0.4'
p1344
sg1101
S'.545'
p1345
sg1103
S'8.2'
p1346
sg1105
S'.494'
p1347
sg1107
S'.221'
p1348
sg28
S'NBA'
p1349
sg1110
S'1.6'
p1350
sg1112
S'38.2'
p1351
sg1114
S'1.0'
p1352
sg40
S'27'
p1353
sg42
S'TOT'
p1354
sg44
S'71'
p1355
sg1119
S'0.2'
p1356
sg1121
S'17.2'
p1357
sg1123
S'3.2'
p1358
sg64
S'2254'
p1359
sg1126
S'-1.3'
p1360
sg56
S'2010-11'
p1361
sg1129
S'4.2'
p1362
sba(isrc.gp1.models.Advanced
Advanced
p1363
(dp1364
g1084
S'0.7'
p1365
sg1086
S'17.5'
p1366
sg1088
S'.096'
p1367
sg1090
S'1.8'
p1368
sg1092
S'24.4'
p1369
sg1094
S'4.4'
p1370
sg1096
S'-2.6'
p1371
sg22
S'PG'
p1372
sg1099
S'0.5'
p1373
sg1101
S'.543'
p1374
sg1103
S'8.3'
p1375
sg1105
S'.502'
p1376
sg1107
S'.180'
p1377
sg28
S'NBA'
p1378
sg1110
S'1.7'
p1379
sg1112
S'41.2'
p1380
sg1114
S'0.9'
p1381
sg40
S'27'
p1382
sg42
S'NJN'
p1383
sg44
S'54'
p1384
sg1119
S'0.2'
p1385
sg1121
S'17.6'
p1386
sg1123
S'2.6'
p1387
sg64
S'1724'
p1388
sg1126
S'-0.9'
p1389
sg56
S'2010-11'
p1390
sg1129
S'3.4'
p1391
sba(isrc.gp1.models.Advanced
Advanced
p1392
(dp1393
g1084
S'1.4'
p1394
sg1086
S'16.8'
p1395
sg1088
S'.068'
p1396
sg1090
S'1.3'
p1397
sg1092
S'25.2'
p1398
sg1094
S'4.6'
p1399
sg1096
S'-3.9'
p1400
sg22
S'PG'
p1401
sg1099
S'-0.1'
p1402
sg1101
S'.552'
p1403
sg1103
S'7.8'
p1404
sg1105
S'.473'
p1405
sg1107
S'.348'
p1406
sg28
S'NBA'
p1407
sg1110
S'1.3'
p1408
sg1112
S'28.3'
p1409
sg1114
S'0.1'
p1410
sg40
S'27'
p1411
sg42
S'UTA'
p1412
sg44
S'17'
p1413
sg1119
S'0.3'
p1414
sg1121
S'15.7'
p1415
sg1123
S'0.7'
p1416
sg64
S'530'
p1417
sg1126
S'-2.5'
p1418
sg56
S'2010-11'
p1419
sg1129
S'0.8'
p1420
sba(isrc.gp1.models.Advanced
Advanced
p1421
(dp1422
g1084
S'0.8'
p1423
sg1086
S'16.1'
p1424
sg1088
S'.115'
p1425
sg1090
S'1.9'
p1426
sg1092
S'19.5'
p1427
sg1094
S'3.7'
p1428
sg1096
S'-2.4'
p1429
sg22
S'PG'
p1430
sg1099
S'1.0'
p1431
sg1101
S'.564'
p1432
sg1103
S'6.7'
p1433
sg1105
S'.386'
p1434
sg1107
S'.393'
p1435
sg28
S'NBA'
p1436
sg1110
S'2.7'
p1437
sg1112
S'28.3'
p1438
sg1114
S'0.8'
p1439
sg40
S'28'
p1440
sg42
S'UTA'
p1441
sg44
S'63'
p1442
sg1119
S'0.6'
p1443
sg1121
S'16.0'
p1444
sg1123
S'3.3'
p1445
sg64
S'1741'
p1446
sg1126
S'0.3'
p1447
sg56
S'2011-12'
p1448
sg1129
S'4.2'
p1449
sba(isrc.gp1.models.Advanced
Advanced
p1450
(dp1451
g1084
S'0.5'
p1452
sg1086
S'14.7'
p1453
sg1088
S'.111'
p1454
sg1090
S'2.3'
p1455
sg1092
S'19.5'
p1456
sg1094
S'4.7'
p1457
sg1096
S'-0.9'
p1458
sg22
S'SG'
p1459
sg1099
S'0.7'
p1460
sg1101
S'.565'
p1461
sg1103
S'8.7'
p1462
sg1105
S'.348'
p1463
sg1107
S'.519'
p1464
sg28
S'NBA'
p1465
sg1110
S'0.9'
p1466
sg1112
S'21.7'
p1467
sg1114
S'1.5'
p1468
sg40
S'29'
p1469
sg42
S'ATL'
p1470
sg44
S'58'
p1471
sg1119
S'0.7'
p1472
sg1121
S'14.6'
p1473
sg1123
S'1.8'
p1474
sg64
S'1421'
p1475
sg1126
S'-0.1'
p1476
sg56
S'2012-13'
p1477
sg1129
S'3.3'
p1478
sba(isrc.gp1.models.Advanced
Advanced
p1479
(dp1480
g1084
S'1.1'
p1481
sg1086
S'16.2'
p1482
sg1088
S'.094'
p1483
sg1090
S'1.8'
p1484
sg1092
S'20.2'
p1485
sg1094
S'6.0'
p1486
sg1096
S'-2.1'
p1487
sg22
S'PG'
p1488
sg1099
S'0.1'
p1489
sg1101
S'.517'
p1490
sg1103
S'10.8'
p1491
sg1105
S'.453'
p1492
sg1107
S'.398'
p1493
sg28
S'NBA'
p1494
sg1110
S'0.5'
p1495
sg1112
S'31.0'
p1496
sg1114
S'0.4'
p1497
sg40
S'30'
p1498
sg42
S'DAL'
p1499
sg44
S'40'
p1500
sg1119
S'0.2'
p1501
sg1121
S'14.6'
p1502
sg1123
S'1.2'
p1503
sg64
S'818'
p1504
sg1126
S'-1.6'
p1505
sg56
S'2013-14'
p1506
sg1129
S'1.6'
p1507
sba(isrc.gp1.models.Advanced
Advanced
p1508
(dp1509
g1084
S'0.8'
p1510
sg1086
S'12.5'
p1511
sg1088
S'.120'
p1512
sg1090
S'2.3'
p1513
sg1092
S'18.0'
p1514
sg1094
S'4.4'
p1515
sg1096
S'-0.8'
p1516
sg22
S'PG'
p1517
sg1099
S'1.3'
p1518
sg1101
S'.559'
p1519
sg1103
S'8.0'
p1520
sg1105
S'.309'
p1521
sg1107
S'.508'
p1522
sg28
S'NBA'
p1523
sg1110
S'1.9'
p1524
sg1112
S'20.4'
p1525
sg1114
S'1.3'
p1526
sg40
S'31'
p1527
sg42
S'DAL'
p1528
sg44
S'76'
p1529
sg1119
S'0.7'
p1530
sg1121
S'14.8'
p1531
sg1123
S'2.9'
p1532
sg64
S'1685'
p1533
sg1126
S'1.2'
p1534
sg56
S'2014-15'
p1535
sg1129
S'4.2'
p1536
sba(isrc.gp1.models.Advanced
Advanced
p1537
(dp1538
g1084
S'1.8'
p1539
sg1086
S'12.6'
p1540
sg1088
S'.113'
p1541
sg1090
S'2.5'
p1542
sg1092
S'17.6'
p1543
sg1094
S'5.9'
p1544
sg1096
S'0.7'
p1545
sg22
S'PG'
p1546
sg1099
S'0.6'
p1547
sg1101
S'.559'
p1548
sg1103
S'9.9'
p1549
sg1105
S'.389'
p1550
sg1107
S'.367'
p1551
sg28
S'NBA'
p1552
sg1110
S'0.3'
p1553
sg1112
S'17.0'
p1554
sg1114
S'0.8'
p1555
sg40
S'32'
p1556
sg42
S'DAL'
p1557
sg44
S'40'
p1558
sg1119
S'0.8'
p1559
sg1121
S'14.1'
p1560
sg1123
S'1.0'
p1561
sg64
S'784'
p1562
sg1126
S'1.0'
p1563
sg56
S'2015-16'
p1564
sg1129
S'1.8'
p1565
sbasS'_per36Minutes'
p1566
(lp1567
(isrc.gp1.models.Per36Minutes
Per36Minutes
p1568
(dp1569
g8
S'0.9'
p1570
sg10
S'4.0'
p1571
sg12
S'.429'
p1572
sg14
S'5.2'
p1573
sg16
S'.336'
p1574
sg18
S'1.4'
p1575
sg20
S'13.4'
p1576
sg22
S'PG'
p1577
sg24
S'.757'
p1578
sg28
S'NBA'
p1579
sg30
S'2.4'
p1580
sg32
S'11.2'
p1581
sg34
S'4.3'
p1582
sg36
S'3.2'
p1583
sg38
S'3.1'
p1584
sg40
S'21'
p1585
sg42
S'DAL'
p1586
sg44
S'76'
p1587
sg46
S'0.6'
p1588
sg48
S'3.5'
p1589
sg50
S'2.4'
p1590
sg52
S'7.2'
p1591
sg54
S'2.3'
p1592
sg56
S'2004-05'
p1593
sg58
S'4.8'
p1594
sg60
S'2.5'
p1595
sg62
S'.481'
p1596
sg64
S'1173'
p1597
sg66
S'19'
p1598
sba(isrc.gp1.models.Per36Minutes
Per36Minutes
p1599
(dp1600
g8
S'0.7'
p1601
sg10
S'0.6'
p1602
sg12
S'.469'
p1603
sg14
S'5.0'
p1604
sg16
S'.238'
p1605
sg18
S'0.1'
p1606
sg20
S'15.6'
p1607
sg22
S'PG'
p1608
sg24
S'.716'
p1609
sg28
S'NBA'
p1610
sg30
S'1.5'
p1611
sg32
S'11.4'
p1612
sg34
S'3.4'
p1613
sg36
S'6.7'
p1614
sg38
S'3.5'
p1615
sg40
S'22'
p1616
sg42
S'DAL'
p1617
sg44
S'56'
p1618
sg46
S'0.5'
p1619
sg48
S'5.2'
p1620
sg50
S'4.8'
p1621
sg52
S'10.8'
p1622
sg54
S'2.8'
p1623
sg56
S'2005-06'
p1624
sg58
S'5.4'
p1625
sg60
S'2.4'
p1626
sg62
S'.482'
p1627
sg64
S'1275'
p1628
sg66
g99
sba(isrc.gp1.models.Per36Minutes
Per36Minutes
p1629
(dp1630
g8
S'0.8'
p1631
sg10
S'0.9'
p1632
sg12
S'.492'
p1633
sg14
S'5.1'
p1634
sg16
S'.280'
p1635
sg18
S'0.2'
p1636
sg20
S'14.1'
p1637
sg22
S'PG'
p1638
sg24
S'.824'
p1639
sg28
S'NBA'
p1640
sg30
S'1.7'
p1641
sg32
S'10.3'
p1642
sg34
S'4.2'
p1643
sg36
S'4.5'
p1644
sg38
S'3.4'
p1645
sg40
S'23'
p1646
sg42
S'DAL'
p1647
sg44
S'80'
p1648
sg46
S'0.4'
p1649
sg48
S'4.8'
p1650
sg50
S'3.7'
p1651
sg52
S'9.4'
p1652
sg54
S'2.6'
p1653
sg56
S'2006-07'
p1654
sg58
S'5.1'
p1655
sg60
S'2.5'
p1656
sg62
S'.512'
p1657
sg64
S'2081'
p1658
sg66
S'61'
p1659
sba(isrc.gp1.models.Per36Minutes
Per36Minutes
p1660
(dp1661
g8
S'0.5'
p1662
sg10
S'3.0'
p1663
sg12
S'.463'
p1664
sg14
S'6.6'
p1665
sg16
S'.335'
p1666
sg18
S'1.0'
p1667
sg20
S'16.8'
p1668
sg22
S'PG'
p1669
sg24
S'.824'
p1670
sg28
S'NBA'
p1671
sg30
S'1.6'
p1672
sg32
S'12.3'
p1673
sg34
S'3.4'
p1674
sg36
S'5.4'
p1675
sg38
S'3.1'
p1676
sg40
S'24'
p1677
sg42
S'TOT'
p1678
sg44
S'64'
p1679
sg46
S'0.2'
p1680
sg48
S'4.7'
p1681
sg50
S'4.4'
p1682
sg52
S'9.4'
p1683
sg54
S'2.6'
p1684
sg56
S'2007-08'
p1685
sg58
S'5.7'
p1686
sg60
S'2.9'
p1687
sg62
S'.504'
p1688
sg64
S'2022'
p1689
sg66
S'61'
p1690
sba(isrc.gp1.models.Per36Minutes
Per36Minutes
p1691
(dp1692
g8
S'0.5'
p1693
sg10
S'2.1'
p1694
sg12
S'.483'
p1695
sg14
S'6.3'
p1696
sg16
S'.357'
p1697
sg18
S'0.8'
p1698
sg20
S'17.0'
p1699
sg22
S'PG'
p1700
sg24
S'.821'
p1701
sg28
S'NBA'
p1702
sg30
S'1.7'
p1703
sg32
S'11.8'
p1704
sg34
S'3.9'
p1705
sg36
S'6.0'
p1706
sg38
S'2.8'
p1707
sg40
S'24'
p1708
sg42
S'DAL'
p1709
sg44
S'39'
p1710
sg46
S'0.1'
p1711
sg48
S'4.9'
p1712
sg50
S'4.9'
p1713
sg52
S'9.6'
p1714
sg54
S'2.3'
p1715
sg56
S'2007-08'
p1716
sg58
S'5.7'
p1717
sg60
S'2.8'
p1718
sg62
S'.511'
p1719
sg64
S'1184'
p1720
sg66
S'39'
p1721
sba(isrc.gp1.models.Per36Minutes
Per36Minutes
p1722
(dp1723
g8
S'0.5'
p1724
sg10
S'4.2'
p1725
sg12
S'.438'
p1726
sg14
S'7.0'
p1727
sg16
S'.320'
p1728
sg18
S'1.3'
p1729
sg20
S'16.6'
p1730
sg22
S'PG'
p1731
sg24
S'.829'
p1732
sg28
S'NBA'
p1733
sg30
S'1.5'
p1734
sg32
S'13.1'
p1735
sg34
S'2.7'
p1736
sg36
S'4.5'
p1737
sg38
S'3.5'
p1738
sg40
S'24'
p1739
sg42
S'NJN'
p1740
sg44
S'25'
p1741
sg46
S'0.3'
p1742
sg48
S'4.4'
p1743
sg50
S'3.7'
p1744
sg52
S'9.0'
p1745
sg54
S'3.1'
p1746
sg56
S'2007-08'
p1747
sg58
S'5.8'
p1748
sg60
S'2.9'
p1749
sg62
S'.493'
p1750
sg64
S'838'
p1751
sg66
S'22'
p1752
sba(isrc.gp1.models.Per36Minutes
Per36Minutes
p1753
(dp1754
g8
S'0.4'
p1755
sg10
S'3.2'
p1756
sg12
S'.438'
p1757
sg14
S'6.9'
p1758
sg16
S'.291'
p1759
sg18
S'0.9'
p1760
sg20
S'21.2'
p1761
sg22
S'PG'
p1762
sg24
S'.820'
p1763
sg28
S'NBA'
p1764
sg30
S'1.6'
p1765
sg32
S'15.0'
p1766
sg34
S'2.4'
p1767
sg36
S'8.7'
p1768
sg38
S'3.3'
p1769
sg40
S'25'
p1770
sg42
S'NJN'
p1771
sg44
S'69'
p1772
sg46
S'0.2'
p1773
sg48
S'5.6'
p1774
sg50
S'7.2'
p1775
sg52
S'11.8'
p1776
sg54
S'2.9'
p1777
sg56
S'2008-09'
p1778
sg58
S'6.6'
p1779
sg60
S'3.1'
p1780
sg62
S'.477'
p1781
sg64
S'2494'
p1782
sg66
S'69'
p1783
sba(isrc.gp1.models.Per36Minutes
Per36Minutes
p1784
(dp1785
g8
S'0.4'
p1786
sg10
S'3.5'
p1787
sg12
S'.403'
p1788
sg14
S'6.9'
p1789
sg16
S'.276'
p1790
sg18
S'1.0'
p1791
sg20
S'17.5'
p1792
sg22
S'PG'
p1793
sg24
S'.798'
p1794
sg28
S'NBA'
p1795
sg30
S'1.3'
p1796
sg32
S'14.3'
p1797
sg34
S'2.9'
p1798
sg36
S'6.3'
p1799
sg38
S'3.3'
p1800
sg40
S'26'
p1801
sg42
S'NJN'
p1802
sg44
S'64'
p1803
sg46
S'0.3'
p1804
sg48
S'4.8'
p1805
sg50
S'5.0'
p1806
sg52
S'10.8'
p1807
sg54
S'2.9'
p1808
sg56
S'2009-10'
p1809
sg58
S'5.8'
p1810
sg60
S'2.9'
p1811
sg62
S'.444'
p1812
sg64
S'2221'
p1813
sg66
S'61'
p1814
sba(isrc.gp1.models.Per36Minutes
Per36Minutes
p1815
(dp1816
g8
S'0.3'
p1817
sg10
S'2.9'
p1818
sg12
S'.422'
p1819
sg14
S'8.0'
p1820
sg16
S'.322'
p1821
sg18
S'0.9'
p1822
sg20
S'17.2'
p1823
sg22
S'PG'
p1824
sg24
S'.833'
p1825
sg28
S'NBA'
p1826
sg30
S'1.1'
p1827
sg32
S'13.0'
p1828
sg34
S'2.6'
p1829
sg36
S'6.4'
p1830
sg38
S'2.7'
p1831
sg40
S'27'
p1832
sg42
S'TOT'
p1833
sg44
S'71'
p1834
sg46
S'0.1'
p1835
sg48
S'4.6'
p1836
sg50
S'5.4'
p1837
sg52
S'10.1'
p1838
sg54
S'2.4'
p1839
sg56
S'2010-11'
p1840
sg58
S'5.5'
p1841
sg60
S'3.3'
p1842
sg62
S'.450'
p1843
sg64
S'2254'
p1844
sg66
S'70'
p1845
sba(isrc.gp1.models.Per36Minutes
Per36Minutes
p1846
(dp1847
g8
S'0.2'
p1848
sg10
S'2.3'
p1849
sg12
S'.425'
p1850
sg14
S'8.6'
p1851
sg16
S'.300'
p1852
sg18
S'0.7'
p1853
sg20
S'16.9'
p1854
sg22
S'PG'
p1855
sg24
S'.840'
p1856
sg28
S'NBA'
p1857
sg30
S'1.2'
p1858
sg32
S'12.8'
p1859
sg34
S'2.7'
p1860
sg36
S'6.4'
p1861
sg38
S'2.7'
p1862
sg40
S'27'
p1863
sg42
S'NJN'
p1864
sg44
S'54'
p1865
sg46
S'0.1'
p1866
sg48
S'4.7'
p1867
sg50
S'5.4'
p1868
sg52
S'10.5'
p1869
sg54
S'2.5'
p1870
sg56
S'2010-11'
p1871
sg58
S'5.4'
p1872
sg60
S'3.3'
p1873
sg62
S'.452'
p1874
sg64
S'1724'
p1875
sg66
S'54'
p1876
sba(isrc.gp1.models.Per36Minutes
Per36Minutes
p1877
(dp1878
g8
S'0.4'
p1879
sg10
S'4.8'
p1880
sg12
S'.413'
p1881
sg14
S'6.2'
p1882
sg16
S'.357'
p1883
sg18
S'1.7'
p1884
sg20
S'18.2'
p1885
sg22
S'PG'
p1886
sg24
S'.811'
p1887
sg28
S'NBA'
p1888
sg30
S'0.9'
p1889
sg32
S'13.7'
p1890
sg34
S'2.2'
p1891
sg36
S'6.5'
p1892
sg38
S'2.7'
p1893
sg40
S'27'
p1894
sg42
S'UTA'
p1895
sg44
S'17'
p1896
sg46
S'0.1'
p1897
sg48
S'3.9'
p1898
sg50
S'5.2'
p1899
sg52
S'8.9'
p1900
sg54
S'2.3'
p1901
sg56
S'2010-11'
p1902
sg58
S'5.6'
p1903
sg60
S'3.3'
p1904
sg62
S'.443'
p1905
sg64
S'530'
p1906
sg66
S'16'
p1907
sba(isrc.gp1.models.Per36Minutes
Per36Minutes
p1908
(dp1909
g8
S'0.2'
p1910
sg10
S'4.4'
p1911
sg12
S'.445'
p1912
sg14
S'6.5'
p1913
sg16
S'.362'
p1914
sg18
S'1.6'
p1915
sg20
S'14.8'
p1916
sg22
S'PG'
p1917
sg24
S'.746'
p1918
sg28
S'NBA'
p1919
sg30
S'1.3'
p1920
sg32
S'11.2'
p1921
sg34
S'2.8'
p1922
sg36
S'4.3'
p1923
sg38
S'2.3'
p1924
sg40
S'28'
p1925
sg42
S'UTA'
p1926
sg44
S'63'
p1927
sg46
S'0.3'
p1928
sg48
S'3.4'
p1929
sg50
S'3.2'
p1930
sg52
S'6.8'
p1931
sg54
S'2.1'
p1932
sg56
S'2011-12'
p1933
sg58
S'5.0'
p1934
sg60
S'2.5'
p1935
sg62
S'.498'
p1936
sg64
S'1741'
p1937
sg66
S'63'
p1938
sba(isrc.gp1.models.Per36Minutes
Per36Minutes
p1939
(dp1940
g8
S'0.2'
p1941
sg10
S'5.8'
p1942
sg12
S'.438'
p1943
sg14
S'5.0'
p1944
sg16
S'.335'
p1945
sg18
S'2.0'
p1946
sg20
S'14.6'
p1947
sg22
S'SG'
p1948
sg24
S'.727'
p1949
sg28
S'NBA'
p1950
sg30
S'1.6'
p1951
sg32
S'11.2'
p1952
sg34
S'2.6'
p1953
sg36
S'3.9'
p1954
sg38
S'2.9'
p1955
sg40
S'29'
p1956
sg42
S'ATL'
p1957
sg44
S'58'
p1958
sg46
S'0.3'
p1959
sg48
S'3.0'
p1960
sg50
S'2.8'
p1961
sg52
S'5.4'
p1962
sg54
S'2.8'
p1963
sg56
S'2012-13'
p1964
sg58
S'4.9'
p1965
sg60
S'2.2'
p1966
sg62
S'.549'
p1967
sg64
S'1421'
p1968
sg66
S'34'
p1969
sba(isrc.gp1.models.Per36Minutes
Per36Minutes
p1970
(dp1971
g8
S'0.4'
p1972
sg10
S'4.4'
p1973
sg12
S'.378'
p1974
sg14
S'7.8'
p1975
sg16
S'.307'
p1976
sg18
S'1.4'
p1977
sg20
S'13.9'
p1978
sg22
S'PG'
p1979
sg24
S'.800'
p1980
sg28
S'NBA'
p1981
sg30
S'1.2'
p1982
sg32
S'11.2'
p1983
sg34
S'3.2'
p1984
sg36
S'5.1'
p1985
sg38
S'3.7'
p1986
sg40
S'30'
p1987
sg42
S'DAL'
p1988
sg44
S'40'
p1989
sg46
S'0.1'
p1990
sg48
S'2.9'
p1991
sg50
S'4.0'
p1992
sg52
S'6.7'
p1993
sg54
S'3.4'
p1994
sg56
S'2013-14'
p1995
sg58
S'4.2'
p1996
sg60
S'2.6'
p1997
sg62
S'.425'
p1998
sg64
S'818'
p1999
sg66
g478
sba(isrc.gp1.models.Per36Minutes
Per36Minutes
p2000
(dp2001
g8
S'0.3'
p2002
sg10
S'5.7'
p2003
sg12
S'.418'
p2004
sg14
S'5.1'
p2005
sg16
S'.357'
p2006
sg18
S'2.0'
p2007
sg20
S'14.2'
p2008
sg22
S'PG'
p2009
sg24
S'.815'
p2010
sg28
S'NBA'
p2011
sg30
S'1.7'
p2012
sg32
S'11.2'
p2013
sg34
S'3.1'
p2014
sg36
S'3.5'
p2015
sg38
S'2.9'
p2016
sg40
S'31'
p2017
sg42
S'DAL'
p2018
sg44
S'76'
p2019
sg46
S'0.3'
p2020
sg48
S'2.6'
p2021
sg50
S'2.8'
p2022
sg52
S'5.5'
p2023
sg54
S'2.6'
p2024
sg56
S'2014-15'
p2025
sg58
S'4.7'
p2026
sg60
S'1.8'
p2027
sg62
S'.481'
p2028
sg64
S'1685'
p2029
sg66
g510
sba(isrc.gp1.models.Per36Minutes
Per36Minutes
p2030
(dp2031
g8
S'0.6'
p2032
sg10
S'3.8'
p2033
sg12
S'.460'
p2034
sg14
S'3.8'
p2035
sg16
S'.337'
p2036
sg18
S'1.3'
p2037
sg20
S'13.6'
p2038
sg22
S'PG'
p2039
sg24
S'.682'
p2040
sg28
S'NBA'
p2041
sg30
S'1.7'
p2042
sg32
S'10.4'
p2043
sg34
S'3.7'
p2044
sg36
S'4.0'
p2045
sg38
S'3.9'
p2046
sg40
S'32'
p2047
sg42
S'DAL'
p2048
sg44
S'40'
p2049
sg46
S'0.4'
p2050
sg48
S'3.5'
p2051
sg50
S'2.8'
p2052
sg52
S'6.6'
p2053
sg54
S'3.3'
p2054
sg56
S'2015-16'
p2055
sg58
S'4.8'
p2056
sg60
S'1.7'
p2057
sg62
S'.531'
p2058
sg64
S'784'
p2059
sg66
g478
sbasS'_fromYear'
p2060
S'2005'
p2061
sS'_url'
p2062
S'http://www.basketball-reference.com/players/h/harride01.html'
p2063
sS'_perGame'
p2064
(isrc.gp1.models.PerGame
PerGame
p2065
(dp2066
g8
S'0.3'
p2067
sg10
S'2.1'
p2068
sg12
S'.460'
p2069
sS'_effectiveFieldGalPercentage'
p2070
S'.522'
p2071
sg14
S'2.1'
p2072
sg16
S'.337'
p2073
sg18
S'0.7'
p2074
sg20
S'7.4'
p2075
sg22
S'PG'
p2076
sg24
S'.682'
p2077
sg28
S'NBA'
p2078
sg30
S'1.0'
p2079
sg34
S'2.0'
p2080
sS'_fieldGoalsttempted'
p2081
S'5.7'
p2082
sg36
S'2.2'
p2083
sg38
S'2.1'
p2084
sg40
S'32'
p2085
sg42
S'DAL'
p2086
sg44
S'40'
p2087
sg46
S'0.2'
p2088
sg48
S'1.9'
p2089
sg50
S'1.5'
p2090
sg52
S'3.6'
p2091
sg54
S'1.8'
p2092
sg56
S'2015-16'
p2093
sg58
S'2.6'
p2094
sg60
S'1.0'
p2095
sg62
S'.531'
p2096
sg64
S'19.6'
p2097
sg66
g478
sbsS'_weight'
p2098
S'192'
p2099
sS'_dob'
p2100
S'27-2-1983'
p2101
sS'_salary'
p2102
(lp2103
(isrc.gp1.models.Salary
Salary
p2104
(dp2105
g42
S'Dallas Mavericks'
p2106
sg28
S'NBA'
p2107
sg2102
S'$2,741,880'
p2108
sg56
S'2004-05'
p2109
sba(isrc.gp1.models.Salary
Salary
p2110
(dp2111
g42
S'Dallas Mavericks'
p2112
sg28
S'NBA'
p2113
sg2102
S'$2,947,440'
p2114
sg56
S'2005-06'
p2115
sba(isrc.gp1.models.Salary
Salary
p2116
(dp2117
g42
S'Dallas Mavericks'
p2118
sg28
S'NBA'
p2119
sg2102
S'$3,153,120'
p2120
sg56
S'2006-07'
p2121
sba(isrc.gp1.models.Salary
Salary
p2122
(dp2123
g42
S'New Jersey Nets'
p2124
sg28
S'NBA'
p2125
sg2102
S'$3,995,003'
p2126
sg56
S'2007-08'
p2127
sba(isrc.gp1.models.Salary
Salary
p2128
(dp2129
g42
S'New Jersey Nets'
p2130
sg28
S'NBA'
p2131
sg2102
S'$7,800,000'
p2132
sg56
S'2008-09'
p2133
sba(isrc.gp1.models.Salary
Salary
p2134
(dp2135
g42
S'New Jersey Nets'
p2136
sg28
S'NBA'
p2137
sg2102
S'$8,400,000'
p2138
sg56
S'2009-10'
p2139
sba(isrc.gp1.models.Salary
Salary
p2140
(dp2141
g42
S'Utah Jazz'
p2142
sg28
S'NBA'
p2143
sg2102
S'$8,981,000'
p2144
sg56
S'2010-11'
p2145
sba(isrc.gp1.models.Salary
Salary
p2146
(dp2147
g42
S'Utah Jazz'
p2148
sg28
S'NBA'
p2149
sg2102
S'$9,319,000'
p2150
sg56
S'2011-12'
p2151
sba(isrc.gp1.models.Salary
Salary
p2152
(dp2153
g42
S'Atlanta Hawks'
p2154
sg28
S'NBA'
p2155
sg2102
S'$8,500,000'
p2156
sg56
S'2012-13'
p2157
sba(isrc.gp1.models.Salary
Salary
p2158
(dp2159
g42
S'Dallas Mavericks'
p2160
sg28
S'NBA'
p2161
sg2102
S'$1,272,279'
p2162
sg56
S'2013-14'
p2163
sba(isrc.gp1.models.Salary
Salary
p2164
(dp2165
g42
S'Dallas Mavericks'
p2166
sg28
S'NBA'
p2167
sg2102
S'$3,878,000'
p2168
sg56
S'2014-15'
p2169
sbasg22
S'G'
p2170
sb.