(isrc.gp1.models.Player
Player
p0
(dp1
S'_experience'
p2
S'NA'
p3
sS'_totals'
p4
(lp5
(isrc.gp1.models.Totals
Totals
p6
(dp7
S'_offensiveRebounds'
p8
S'91'
p9
sS'_threePointsAttempted'
p10
S'0'
p11
sS'_fieldGoalsPercentage'
p12
S'.424'
p13
sS'_assist'
p14
S'10'
p15
sS'_threePointsPercentage'
p16
S'78'
p17
sS'_threePoints'
p18
g11
sS'_points'
p19
g3
sS'_position'
p20
S'PF'
p21
sS'_freeThrowsPercentage'
p22
S'60'
p23
sS'_effectiveFieldGoalPercentage'
p24
S'50'
p25
sS'_league'
p26
S'NBA'
p27
sS'_steals'
p28
S'7'
p29
sS'_fieldGoalsAttempted'
p30
S'184'
p31
sS'_personalFouls'
p32
S'206'
p33
sS'_freeThrowsAttempted'
p34
S'.694'
p35
sS'_totalRebounds'
p36
S'37'
p37
sS'_age'
p38
S'22'
p39
sS'_team'
p40
S'CHI'
p41
sS'_games'
p42
S'59'
p43
sS'_blocks'
p44
S'45'
p45
sS'_twoPoints'
p46
S'184'
p47
sS'_freeThrows'
p48
S'72'
p49
sS'_twoPointsAttempted'
p50
S'.424'
p51
sS'_defensiveRebounds'
p52
S'151'
p53
sS'_season'
p54
S'1994-95'
p55
sS'_fieldGoals'
p56
S'78'
p57
sS'_turnOvers'
p58
S'72'
p59
sS'_twoPointsPercentage'
p60
S'.424'
p61
sS'_minutesPlayed'
p62
S'586'
p63
sS'_gamesStarted'
p64
S'5'
p65
sba(isrc.gp1.models.Totals
Totals
p66
(dp67
g8
S'66'
p68
sg10
S'1'
p69
sg12
S'.481'
p70
sg14
S'38'
p71
sg16
S'1.000'
p72
sg18
g69
sg19
S'216'
p73
sg20
S'PF'
p74
sg22
S'.629'
p75
sg24
S'.484'
p76
sg26
S'NBA'
p77
sg28
S'9'
p78
sg30
S'160'
p79
sg32
S'78'
p80
sg34
S'97'
p81
sg36
S'156'
p82
sg38
S'23'
p83
sg40
S'CHI'
p84
sg42
S'60'
p85
sg44
S'8'
p86
sg46
S'76'
p87
sg48
S'61'
p88
sg50
S'159'
p89
sg52
S'90'
p90
sg54
S'1995-96'
p91
sg56
S'77'
p92
sg58
S'56'
p93
sg60
S'.478'
p94
sg62
S'685'
p95
sg64
S'12'
p96
sba(isrc.gp1.models.Totals
Totals
p97
(dp98
g8
S'36'
p99
sg10
S'4'
p100
sg12
S'.333'
p101
sg14
S'31'
p102
sg16
S'.250'
p103
sg18
g69
sg19
S'91'
p104
sg20
S'PF'
p105
sg22
S'.700'
p106
sg24
S'.339'
p107
sg26
S'NBA'
p108
sg28
g65
sg30
S'93'
p109
sg32
S'44'
p110
sg34
S'40'
p111
sg36
S'92'
p112
sg38
S'24'
p113
sg40
S'CHI'
p114
sg42
S'48'
p115
sg44
g65
sg46
S'30'
p116
sg48
S'28'
p117
sg50
S'89'
p118
sg52
S'56'
p119
sg54
S'1996-97'
p120
sg56
S'31'
p121
sg58
S'35'
p122
sg60
S'.337'
p123
sg62
S'395'
p124
sg64
g11
sba(isrc.gp1.models.Totals
Totals
p125
(dp126
g8
S'27'
p127
sg10
S'2'
p128
sg12
S'.539'
p129
sg14
S'33'
p130
sg16
S'.000'
p131
sg18
g11
sg19
S'132'
p132
sg20
S'PF'
p133
sg22
S'.514'
p134
sg24
S'.539'
p135
sg26
S'NBA'
p136
sg28
g78
sg30
S'89'
p137
sg32
S'54'
p138
sg34
S'70'
p139
sg36
S'77'
p140
sg38
S'25'
p141
sg40
S'TOT'
p142
sg42
S'40'
p143
sg44
g65
sg46
S'48'
p144
sg48
S'36'
p145
sg50
S'87'
p146
sg52
S'50'
p147
sg54
S'1997-98'
p148
sg56
S'48'
p149
sg58
S'32'
p150
sg60
S'.552'
p151
sg62
S'433'
p152
sg64
g11
sba(isrc.gp1.models.Totals
Totals
p153
(dp154
g8
S'19'
p155
sg10
g69
sg12
S'.458'
p156
sg14
S'16'
p157
sg16
S'.000'
p158
sg18
g11
sg19
S'54'
p159
sg20
S'PF'
p160
sg22
S'.385'
p161
sg24
S'.458'
p162
sg26
S'NBA'
p163
sg28
g65
sg30
S'48'
p164
sg32
S'19'
p165
sg34
S'26'
p166
sg36
S'46'
p167
sg38
S'25'
p168
sg40
S'GSW'
p169
sg42
S'19'
p170
sg44
g128
sg46
S'22'
p171
sg48
S'10'
p172
sg50
S'47'
p173
sg52
S'27'
p174
sg54
S'1997-98'
p175
sg56
S'22'
p176
sg58
S'19'
p177
sg60
S'.468'
p178
sg62
S'196'
p179
sg64
g11
sba(isrc.gp1.models.Totals
Totals
p180
(dp181
g8
g86
sg10
g69
sg12
S'.634'
p182
sg14
S'17'
p183
sg16
S'.000'
p184
sg18
g11
sg19
S'78'
p185
sg20
S'PF'
p186
sg22
S'.591'
p187
sg24
S'.634'
p188
sg26
S'NBA'
p189
sg28
g100
sg30
S'41'
p190
sg32
S'35'
p191
sg34
S'44'
p192
sg36
S'31'
p193
sg38
S'25'
p194
sg40
S'CHI'
p195
sg42
S'21'
p196
sg44
S'3'
p197
sg46
S'26'
p198
sg48
S'26'
p199
sg50
S'40'
p200
sg52
S'23'
p201
sg54
S'1997-98'
p202
sg56
S'26'
p203
sg58
S'13'
p204
sg60
S'.650'
p205
sg62
S'237'
p206
sg64
g11
sba(isrc.gp1.models.Totals
Totals
p207
(dp208
g8
S'110'
p209
sg10
g69
sg12
S'.463'
p210
sg14
S'65'
p211
sg16
S'.000'
p212
sg18
g11
sg19
S'456'
p213
sg20
S'C'
p214
sg22
S'.645'
p215
sg24
S'.463'
p216
sg26
S'NBA'
p217
sg28
S'36'
p218
sg30
S'324'
p219
sg32
S'128'
p220
sg34
S'242'
p221
sg36
S'339'
p222
sg38
S'26'
p223
sg40
S'CHI'
p224
sg42
S'50'
p225
sg44
S'13'
p226
sg46
S'150'
p227
sg48
S'156'
p228
sg50
S'323'
p229
sg52
S'229'
p230
sg54
S'1998-99'
p231
sg56
S'150'
p232
sg58
S'72'
p233
sg60
S'.464'
p234
sg62
S'1448'
p235
sg64
S'35'
p236
sba(isrc.gp1.models.Totals
Totals
p237
(dp238
g8
S'124'
p239
sg10
g69
sg12
S'.405'
p240
sg14
S'100'
p241
sg16
S'.000'
p242
sg18
g11
sg19
S'287'
p243
sg20
S'PF'
p244
sg22
S'.542'
p245
sg24
S'.405'
p246
sg26
S'NBA'
p247
sg28
S'22'
p248
sg30
S'274'
p249
sg32
S'217'
p250
sg34
S'120'
p251
sg36
S'372'
p252
sg38
S'27'
p253
sg40
S'CHI'
p254
sg42
S'69'
p255
sg44
S'22'
p256
sg46
S'111'
p257
sg48
S'65'
p258
sg50
S'273'
p259
sg52
S'248'
p260
sg54
S'1999-00'
p261
sg56
S'111'
p262
sg58
S'128'
p263
sg60
S'.407'
p264
sg62
S'1651'
p265
sg64
S'48'
p266
sba(isrc.gp1.models.Totals
Totals
p267
(dp268
g8
g3
sg10
g3
sg12
g3
sg14
g3
sg16
g3
sg18
g3
sg19
g3
sg20
g3
sg22
g3
sg24
g3
sg26
g3
sg28
g3
sg30
g3
sg32
g3
sg34
g3
sg36
g3
sg38
S'28'
p269
sg40
S'Did Not Play\xc2\xa0(other pro league\xe2\x80\x94Greece)'
p270
sg42
g3
sg44
g3
sg46
g3
sg48
g3
sg50
g3
sg52
g3
sg54
S'2000-01'
p271
sg56
g3
sg58
g3
sg60
g3
sg62
g3
sg64
g3
sba(isrc.gp1.models.Totals
Totals
p272
(dp273
g8
g11
sg10
g11
sg12
g11
sg14
g11
sg16
g11
sg18
g11
sg19
g3
sg20
S'PF'
p274
sg22
g11
sg24
g11
sg26
S'NBA'
p275
sg28
g3
sg30
g11
sg32
g3
sg34
g69
sg36
g11
sg38
S'29'
p276
sg40
S'ATL'
p277
sg42
g69
sg44
g3
sg46
g11
sg48
g11
sg50
g11
sg52
g11
sg54
S'2001-02'
p278
sg56
g11
sg58
g3
sg60
g11
sg62
g197
sg64
g11
sbasS'_college'
p279
S'Providence College'
p280
sS'_toYear'
p281
S'2002'
p282
sS'_height'
p283
S'6-9'
p284
sS'_active'
p285
I00
sS'_shootingHand'
p286
VRight
p287
sS'_name'
p288
S'Dickey Simpkins'
p289
sS'_per100Possessions'
p290
(lp291
(isrc.gp1.models.Per100Possession
Per100Possession
p292
(dp293
g8
S'8.1'
p294
sg10
S'0.0'
p295
sg12
S'.424'
p296
sS'_offensiveRating'
p297
S'105'
p298
sg14
S'0.9'
p299
sg16
S'6.9'
p300
sg18
S'0.0'
p301
sg19
S'98'
p302
sg20
S'PF'
p303
sS'_defensiveRating'
p304
g3
sg22
S'5.3'
p305
sg26
S'NBA'
p306
sg28
S'0.6'
p307
sg30
S'16.4'
p308
sg32
S'18.3'
p309
sg34
S'.694'
p310
sg36
S'3.3'
p311
sg38
S'22'
p312
sg40
S'CHI'
p313
sg42
S'59'
p314
sg44
S'4.0'
p315
sg46
S'16.4'
p316
sg48
S'6.4'
p317
sg50
S'.424'
p318
sg52
S'13.4'
p319
sg54
S'1994-95'
p320
sg56
S'6.9'
p321
sg58
S'6.4'
p322
sg60
S'4.5'
p323
sg62
S'586'
p324
sg64
g65
sba(isrc.gp1.models.Per100Possession
Per100Possession
p325
(dp326
g8
S'5.1'
p327
sg10
S'0.1'
p328
sg12
S'.481'
p329
sg297
S'102'
p330
sg14
S'2.9'
p331
sg16
S'1.000'
p332
sg18
S'0.1'
p333
sg19
S'16.6'
p334
sg20
S'PF'
p335
sg304
S'104'
p336
sg22
S'.629'
p337
sg26
S'NBA'
p338
sg28
S'0.7'
p339
sg30
S'12.3'
p340
sg32
S'6.0'
p341
sg34
S'7.5'
p342
sg36
S'12.0'
p343
sg38
S'23'
p344
sg40
S'CHI'
p345
sg42
S'60'
p346
sg44
S'0.6'
p347
sg46
S'5.8'
p348
sg48
S'4.7'
p349
sg50
S'12.2'
p350
sg52
S'6.9'
p351
sg54
S'1995-96'
p352
sg56
S'5.9'
p353
sg58
S'4.3'
p354
sg60
S'.478'
p355
sg62
S'685'
p356
sg64
S'12'
p357
sba(isrc.gp1.models.Per100Possession
Per100Possession
p358
(dp359
g8
S'4.9'
p360
sg10
S'0.5'
p361
sg12
S'.333'
p362
sg297
S'87'
p363
sg14
S'4.2'
p364
sg16
S'.250'
p365
sg18
S'0.1'
p366
sg19
S'12.3'
p367
sg20
S'PF'
p368
sg304
S'105'
p369
sg22
S'.700'
p370
sg26
S'NBA'
p371
sg28
S'0.7'
p372
sg30
S'12.6'
p373
sg32
S'5.9'
p374
sg34
S'5.4'
p375
sg36
S'12.4'
p376
sg38
S'24'
p377
sg40
S'CHI'
p378
sg42
S'48'
p379
sg44
S'0.7'
p380
sg46
S'4.1'
p381
sg48
S'3.8'
p382
sg50
S'12.0'
p383
sg52
S'7.6'
p384
sg54
S'1996-97'
p385
sg56
S'4.2'
p386
sg58
S'4.7'
p387
sg60
S'.337'
p388
sg62
S'395'
p389
sg64
g11
sba(isrc.gp1.models.Per100Possession
Per100Possession
p390
(dp391
g8
S'3.3'
p392
sg10
S'0.2'
p393
sg12
S'.539'
p394
sg297
S'100'
p395
sg14
S'4.1'
p396
sg16
S'.000'
p397
sg18
S'0.0'
p398
sg19
S'16.2'
p399
sg20
S'PF'
p400
sg304
S'105'
p401
sg22
S'.514'
p402
sg26
S'NBA'
p403
sg28
S'1.1'
p404
sg30
S'10.9'
p405
sg32
S'6.6'
p406
sg34
S'8.6'
p407
sg36
S'9.5'
p408
sg38
S'25'
p409
sg40
S'TOT'
p410
sg42
S'40'
p411
sg44
S'0.6'
p412
sg46
S'5.9'
p413
sg48
S'4.4'
p414
sg50
S'10.7'
p415
sg52
S'6.2'
p416
sg54
S'1997-98'
p417
sg56
S'5.9'
p418
sg58
S'3.9'
p419
sg60
S'.552'
p420
sg62
S'433'
p421
sg64
g11
sba(isrc.gp1.models.Per100Possession
Per100Possession
p422
(dp423
g8
S'5.1'
p424
sg10
S'0.3'
p425
sg12
S'.458'
p426
sg297
S'84'
p427
sg14
S'4.3'
p428
sg16
S'.000'
p429
sg18
S'0.0'
p430
sg19
S'14.5'
p431
sg20
S'PF'
p432
sg304
S'106'
p433
sg22
S'.385'
p434
sg26
S'NBA'
p435
sg28
S'1.3'
p436
sg30
S'12.9'
p437
sg32
S'5.1'
p438
sg34
S'7.0'
p439
sg36
S'12.3'
p440
sg38
S'25'
p441
sg40
S'GSW'
p442
sg42
S'19'
p443
sg44
S'0.5'
p444
sg46
S'5.9'
p445
sg48
S'2.7'
p446
sg50
S'12.6'
p447
sg52
S'7.2'
p448
sg54
S'1997-98'
p449
sg56
S'5.9'
p450
sg58
S'5.1'
p451
sg60
S'.468'
p452
sg62
S'196'
p453
sg64
g11
sba(isrc.gp1.models.Per100Possession
Per100Possession
p454
(dp455
g8
S'1.8'
p456
sg10
S'0.2'
p457
sg12
S'.634'
p458
sg297
S'117'
p459
sg14
S'3.9'
p460
sg16
S'.000'
p461
sg18
S'0.0'
p462
sg19
S'17.7'
p463
sg20
S'PF'
p464
sg304
S'103'
p465
sg22
S'.591'
p466
sg26
S'NBA'
p467
sg28
S'0.9'
p468
sg30
S'9.3'
p469
sg32
S'8.0'
p470
sg34
S'10.0'
p471
sg36
S'7.1'
p472
sg38
S'25'
p473
sg40
S'CHI'
p474
sg42
S'21'
p475
sg44
S'0.7'
p476
sg46
S'5.9'
p477
sg48
S'5.9'
p478
sg50
S'9.1'
p479
sg52
S'5.2'
p480
sg54
S'1997-98'
p481
sg56
S'5.9'
p482
sg58
S'3.0'
p483
sg60
S'.650'
p484
sg62
S'237'
p485
sg64
g11
sba(isrc.gp1.models.Per100Possession
Per100Possession
p486
(dp487
g8
S'4.1'
p488
sg10
S'0.0'
p489
sg12
S'.463'
p490
sg297
S'104'
p491
sg14
S'2.4'
p492
sg16
S'.000'
p493
sg18
S'0.0'
p494
sg19
S'17.2'
p495
sg20
g214
sg304
S'103'
p496
sg22
S'.645'
p497
sg26
S'NBA'
p498
sg28
S'1.4'
p499
sg30
S'12.2'
p500
sg32
S'4.8'
p501
sg34
S'9.1'
p502
sg36
S'12.8'
p503
sg38
S'26'
p504
sg40
S'CHI'
p505
sg42
S'50'
p506
sg44
S'0.5'
p507
sg46
S'5.6'
p508
sg48
S'5.9'
p509
sg50
S'12.1'
p510
sg52
S'8.6'
p511
sg54
S'1998-99'
p512
sg56
S'5.6'
p513
sg58
S'2.7'
p514
sg60
S'.464'
p515
sg62
S'1448'
p516
sg64
S'35'
p517
sba(isrc.gp1.models.Per100Possession
Per100Possession
p518
(dp519
g8
S'4.0'
p520
sg10
S'0.0'
p521
sg12
S'.405'
p522
sg297
S'81'
p523
sg14
S'3.3'
p524
sg16
S'.000'
p525
sg18
S'0.0'
p526
sg19
S'9.3'
p527
sg20
S'PF'
p528
sg304
S'106'
p529
sg22
S'.542'
p530
sg26
S'NBA'
p531
sg28
S'0.7'
p532
sg30
S'8.9'
p533
sg32
S'7.1'
p534
sg34
S'3.9'
p535
sg36
S'12.1'
p536
sg38
S'27'
p537
sg40
S'CHI'
p538
sg42
S'69'
p539
sg44
S'0.7'
p540
sg46
S'3.6'
p541
sg48
S'2.1'
p542
sg50
S'8.9'
p543
sg52
S'8.1'
p544
sg54
S'1999-00'
p545
sg56
S'3.6'
p546
sg58
S'4.2'
p547
sg60
S'.407'
p548
sg62
S'1651'
p549
sg64
S'48'
p550
sba(isrc.gp1.models.Per100Possession
Per100Possession
p551
(dp552
g8
S'0.0'
p553
sg10
S'0.0'
p554
sg12
S'0.0'
p555
sg297
g3
sg14
S'0.0'
p556
sg16
S'0.0'
p557
sg18
S'0.0'
p558
sg19
g3
sg20
S'PF'
p559
sg304
g3
sg22
S'17.4'
p560
sg26
S'NBA'
p561
sg28
S'0.0'
p562
sg30
S'0.0'
p563
sg32
g3
sg34
S'0.0'
p564
sg36
S'0.0'
p565
sg38
S'29'
p566
sg40
S'ATL'
p567
sg42
g69
sg44
S'215'
p568
sg46
S'0.0'
p569
sg48
S'0.0'
p570
sg50
S'0.0'
p571
sg52
S'0.0'
p572
sg54
S'2001-02'
p573
sg56
S'0.0'
p574
sg58
S'116'
p575
sg60
S'0.0'
p576
sg62
g197
sg64
g11
sbasS'_advanced'
p577
(lp578
(isrc.gp1.models.Advanced
Advanced
p579
(dp580
S'_offensiveReboundPercentage'
p581
S'12.1'
p582
sS'_turnOverPercentage'
p583
S'17.3'
p584
sS'_winSharesPer48Minutes'
p585
S'.058'
p586
sS'_stealPercentage'
p587
S'0.9'
p588
sS'_usagePercentage'
p589
S'19.8'
p590
sS'_totalReboundsPercentage'
p591
S'15.2'
p592
sS'_defensiveBoxPlusMinus'
p593
S'-0.7'
p594
sg20
S'PF'
p595
sS'_valueOverReplacementPlayer'
p596
S'-0.4'
p597
sS'_trueShootingPercentage'
p598
S'.478'
p599
sS'_defensiveReboundPercentage'
p600
S'18.3'
p601
sS'_freeThrowsAttempRate'
p602
S'.391'
p603
sS'_threePointsAttempRate'
p604
S'.000'
p605
sg26
S'NBA'
p606
sS'_offensiveBoxPlusMinues'
p607
S'-4.2'
p608
sS'_assistPercentage'
p609
S'9.4'
p610
sS'_defensiveWinShares'
p611
S'0.8'
p612
sg38
S'22'
p613
sg40
S'CHI'
p614
sg42
S'59'
p615
sS'_blockPercentage'
p616
S'0.9'
p617
sS'_playerEfficiencyRating'
p618
S'11.0'
p619
sS'_offensiveWinShares'
p620
S'-0.1'
p621
sg62
S'586'
p622
sS'_boxPlusMinus'
p623
S'-4.9'
p624
sg54
S'1994-95'
p625
sS'_winShares'
p626
S'0.7'
p627
sba(isrc.gp1.models.Advanced
Advanced
p628
(dp629
g581
S'11.2'
p630
sg583
S'21.6'
p631
sg585
S'.084'
p632
sg587
S'0.7'
p633
sg589
S'16.7'
p634
sg591
S'13.3'
p635
sg593
S'-0.1'
p636
sg20
S'PF'
p637
sg596
S'-0.2'
p638
sg598
S'.533'
p639
sg600
S'15.3'
p640
sg602
S'.606'
p641
sg604
S'.006'
p642
sg26
S'NBA'
p643
sg607
S'-3.0'
p644
sg609
S'7.7'
p645
sg611
S'1.0'
p646
sg38
S'23'
p647
sg40
S'CHI'
p648
sg42
S'60'
p649
sg616
S'0.9'
p650
sg618
S'10.4'
p651
sg620
S'0.2'
p652
sg62
S'685'
p653
sg623
S'-3.1'
p654
sg54
S'1995-96'
p655
sg626
S'1.2'
p656
sba(isrc.gp1.models.Advanced
Advanced
p657
(dp658
g581
S'10.5'
p659
sg583
S'24.0'
p660
sg585
S'.006'
p661
sg587
S'0.7'
p662
sg589
S'16.4'
p663
sg591
S'13.2'
p664
sg593
S'0.1'
p665
sg20
S'PF'
p666
sg596
S'-0.3'
p667
sg598
S'.411'
p668
sg600
S'15.8'
p669
sg602
S'.430'
p670
sg604
S'.043'
p671
sg26
S'NBA'
p672
sg607
S'-5.6'
p673
sg609
S'10.4'
p674
sg611
S'0.5'
p675
sg38
S'24'
p676
sg40
S'CHI'
p677
sg42
S'48'
p678
sg616
S'1.0'
p679
sg618
S'6.5'
p680
sg620
S'-0.5'
p681
sg62
S'395'
p682
sg623
S'-5.5'
p683
sg54
S'1996-97'
p684
sg626
S'0.1'
p685
sba(isrc.gp1.models.Advanced
Advanced
p686
(dp687
g581
S'6.7'
p688
sg583
S'21.1'
p689
sg585
S'.068'
p690
sg587
S'1.1'
p691
sg589
S'15.5'
p692
sg591
S'9.8'
p693
sg593
S'-0.1'
p694
sg20
S'PF'
p695
sg596
S'-0.1'
p696
sg598
S'.551'
p697
sg600
S'13.0'
p698
sg602
S'.787'
p699
sg604
S'.022'
p700
sg26
S'NBA'
p701
sg607
S'-3.0'
p702
sg609
S'12.0'
p703
sg611
S'0.5'
p704
sg38
S'25'
p705
sg40
S'TOT'
p706
sg42
S'40'
p707
sg616
S'0.8'
p708
sg618
S'10.6'
p709
sg620
S'0.1'
p710
sg62
S'433'
p711
sg623
S'-3.1'
p712
sg54
S'1997-98'
p713
sg626
S'0.6'
p714
sba(isrc.gp1.models.Advanced
Advanced
p715
(dp716
g581
S'10.1'
p717
sg583
S'24.2'
p718
sg585
S'-0.027'
p719
sg587
S'1.3'
p720
sg589
S'17.5'
p721
sg591
S'12.5'
p722
sg593
S'0.1'
p723
sg20
S'PF'
p724
sg596
S'-0.1'
p725
sg598
S'.454'
p726
sg600
S'15.1'
p727
sg602
S'.542'
p728
sg604
S'.021'
p729
sg26
S'NBA'
p730
sg607
S'-4.9'
p731
sg609
S'13.5'
p732
sg611
S'0.2'
p733
sg38
S'25'
p734
sg40
S'GSW'
p735
sg42
S'19'
p736
sg616
S'0.7'
p737
sg618
S'9.0'
p738
sg620
S'-0.3'
p739
sg62
S'196'
p740
sg623
S'-4.9'
p741
sg54
S'1997-98'
p742
sg626
S'-0.1'
p743
sba(isrc.gp1.models.Advanced
Advanced
p744
(dp745
g581
S'3.8'
p746
sg583
S'17.7'
p747
sg585
S'.146'
p748
sg587
S'0.9'
p749
sg589
S'13.9'
p750
sg591
S'7.5'
p751
sg593
S'-0.3'
p752
sg20
S'PF'
p753
sg596
S'0.0'
p754
sg598
S'.646'
p755
sg600
S'11.2'
p756
sg602
S'1.073'
p757
sg604
S'.024'
p758
sg26
S'NBA'
p759
sg607
S'-1.4'
p760
sg609
S'10.8'
p761
sg611
S'0.3'
p762
sg38
S'25'
p763
sg40
S'CHI'
p764
sg42
S'21'
p765
sg616
S'0.9'
p766
sg618
S'11.9'
p767
sg620
S'0.4'
p768
sg62
S'237'
p769
sg623
S'-1.7'
p770
sg54
S'1997-98'
p771
sg626
S'0.7'
p772
sba(isrc.gp1.models.Advanced
Advanced
p773
(dp774
g581
S'8.6'
p775
sg583
S'14.3'
p776
sg585
S'.095'
p777
sg587
S'1.4'
p778
sg589
S'16.3'
p779
sg591
S'13.8'
p780
sg593
S'0.2'
p781
sg20
g214
sg596
S'0.0'
p782
sg598
S'.530'
p783
sg600
S'19.6'
p784
sg602
S'.747'
p785
sg604
S'.003'
p786
sg26
S'NBA'
p787
sg607
S'-2.1'
p788
sg609
S'8.4'
p789
sg611
S'1.3'
p790
sg38
S'26'
p791
sg40
S'CHI'
p792
sg42
S'50'
p793
sg616
S'0.7'
p794
sg618
S'13.4'
p795
sg620
S'1.5'
p796
sg62
S'1448'
p797
sg623
S'-2.0'
p798
sg54
S'1998-99'
p799
sg626
S'2.9'
p800
sba(isrc.gp1.models.Advanced
Advanced
p801
(dp802
g581
S'8.6'
p803
sg583
S'28.1'
p804
sg585
S'-0.021'
p805
sg587
S'0.7'
p806
sg589
S'12.6'
p807
sg591
S'13.2'
p808
sg593
S'0.7'
p809
sg20
S'PF'
p810
sg596
S'-1.2'
p811
sg598
S'.439'
p812
sg600
S'17.9'
p813
sg602
S'.438'
p814
sg604
S'.004'
p815
sg26
S'NBA'
p816
sg607
S'-5.6'
p817
sg609
S'10.4'
p818
sg611
S'1.3'
p819
sg38
S'27'
p820
sg40
S'CHI'
p821
sg42
S'69'
p822
sg616
S'1.0'
p823
sg618
S'5.5'
p824
sg620
S'-2.0'
p825
sg62
S'1651'
p826
sg623
S'-4.9'
p827
sg54
S'1999-00'
p828
sg626
S'-0.7'
p829
sba(isrc.gp1.models.Advanced
Advanced
p830
(dp831
g581
S'45.5'
p832
sg583
S'0.0'
p833
sg585
S'0.0'
p834
sg587
S'0.0'
p835
sg589
S'.116'
p836
sg591
S'0.0'
p837
sg593
g3
sg20
S'PF'
p838
sg596
g3
sg598
S'0.0'
p839
sg600
S'0.0'
p840
sg602
S'0.0'
p841
sg604
S'0.0'
p842
sg26
S'NBA'
p843
sg607
g3
sg609
S'0.0'
p844
sg611
S'-12.7'
p845
sg38
S'29'
p846
sg40
S'ATL'
p847
sg42
g69
sg616
S'0.0'
p848
sg618
S'11.6'
p849
sg620
S'-8.0'
p850
sg62
g197
sg623
g3
sg54
S'2001-02'
p851
sg626
S'-20.6'
p852
sbasS'_per36Minutes'
p853
(lp854
(isrc.gp1.models.Per36Minutes
Per36Minutes
p855
(dp856
g8
S'5.6'
p857
sg10
S'0.0'
p858
sg12
S'.424'
p859
sg14
S'0.6'
p860
sg16
S'4.8'
p861
sg18
S'0.0'
p862
sg19
g3
sg20
S'PF'
p863
sg22
S'3.7'
p864
sg26
S'NBA'
p865
sg28
S'0.4'
p866
sg30
S'11.3'
p867
sg32
S'12.7'
p868
sg34
S'.694'
p869
sg36
S'2.3'
p870
sg38
S'22'
p871
sg40
S'CHI'
p872
sg42
S'59'
p873
sg44
S'2.8'
p874
sg46
S'11.3'
p875
sg48
S'4.4'
p876
sg50
S'.424'
p877
sg52
S'9.3'
p878
sg54
S'1994-95'
p879
sg56
S'4.8'
p880
sg58
S'4.4'
p881
sg60
S'3.1'
p882
sg62
S'586'
p883
sg64
g65
sba(isrc.gp1.models.Per36Minutes
Per36Minutes
p884
(dp885
g8
S'3.5'
p886
sg10
S'0.1'
p887
sg12
S'.481'
p888
sg14
S'2.0'
p889
sg16
S'1.000'
p890
sg18
S'0.1'
p891
sg19
S'11.4'
p892
sg20
S'PF'
p893
sg22
S'.629'
p894
sg26
S'NBA'
p895
sg28
S'0.5'
p896
sg30
S'8.4'
p897
sg32
S'4.1'
p898
sg34
S'5.1'
p899
sg36
S'8.2'
p900
sg38
S'23'
p901
sg40
S'CHI'
p902
sg42
S'60'
p903
sg44
S'0.4'
p904
sg46
S'4.0'
p905
sg48
S'3.2'
p906
sg50
S'8.4'
p907
sg52
S'4.7'
p908
sg54
S'1995-96'
p909
sg56
S'4.0'
p910
sg58
S'2.9'
p911
sg60
S'.478'
p912
sg62
S'685'
p913
sg64
S'12'
p914
sba(isrc.gp1.models.Per36Minutes
Per36Minutes
p915
(dp916
g8
S'3.3'
p917
sg10
S'0.4'
p918
sg12
S'.333'
p919
sg14
S'2.8'
p920
sg16
S'.250'
p921
sg18
S'0.1'
p922
sg19
S'8.3'
p923
sg20
S'PF'
p924
sg22
S'.700'
p925
sg26
S'NBA'
p926
sg28
S'0.5'
p927
sg30
S'8.5'
p928
sg32
S'4.0'
p929
sg34
S'3.6'
p930
sg36
S'8.4'
p931
sg38
S'24'
p932
sg40
S'CHI'
p933
sg42
S'48'
p934
sg44
S'0.5'
p935
sg46
S'2.7'
p936
sg48
S'2.6'
p937
sg50
S'8.1'
p938
sg52
S'5.1'
p939
sg54
S'1996-97'
p940
sg56
S'2.8'
p941
sg58
S'3.2'
p942
sg60
S'.337'
p943
sg62
S'395'
p944
sg64
g11
sba(isrc.gp1.models.Per36Minutes
Per36Minutes
p945
(dp946
g8
S'2.2'
p947
sg10
S'0.2'
p948
sg12
S'.539'
p949
sg14
S'2.7'
p950
sg16
S'.000'
p951
sg18
S'0.0'
p952
sg19
S'11.0'
p953
sg20
S'PF'
p954
sg22
S'.514'
p955
sg26
S'NBA'
p956
sg28
S'0.7'
p957
sg30
S'7.4'
p958
sg32
S'4.5'
p959
sg34
S'5.8'
p960
sg36
S'6.4'
p961
sg38
S'25'
p962
sg40
S'TOT'
p963
sg42
S'40'
p964
sg44
S'0.4'
p965
sg46
S'4.0'
p966
sg48
S'3.0'
p967
sg50
S'7.2'
p968
sg52
S'4.2'
p969
sg54
S'1997-98'
p970
sg56
S'4.0'
p971
sg58
S'2.7'
p972
sg60
S'.552'
p973
sg62
S'433'
p974
sg64
g11
sba(isrc.gp1.models.Per36Minutes
Per36Minutes
p975
(dp976
g8
S'3.5'
p977
sg10
S'0.2'
p978
sg12
S'.458'
p979
sg14
S'2.9'
p980
sg16
S'.000'
p981
sg18
S'0.0'
p982
sg19
S'9.9'
p983
sg20
S'PF'
p984
sg22
S'.385'
p985
sg26
S'NBA'
p986
sg28
S'0.9'
p987
sg30
S'8.8'
p988
sg32
S'3.5'
p989
sg34
S'4.8'
p990
sg36
S'8.4'
p991
sg38
S'25'
p992
sg40
S'GSW'
p993
sg42
S'19'
p994
sg44
S'0.4'
p995
sg46
S'4.0'
p996
sg48
S'1.8'
p997
sg50
S'8.6'
p998
sg52
S'5.0'
p999
sg54
S'1997-98'
p1000
sg56
S'4.0'
p1001
sg58
S'3.5'
p1002
sg60
S'.468'
p1003
sg62
S'196'
p1004
sg64
g11
sba(isrc.gp1.models.Per36Minutes
Per36Minutes
p1005
(dp1006
g8
S'1.2'
p1007
sg10
S'0.2'
p1008
sg12
S'.634'
p1009
sg14
S'2.6'
p1010
sg16
S'.000'
p1011
sg18
S'0.0'
p1012
sg19
S'11.8'
p1013
sg20
S'PF'
p1014
sg22
S'.591'
p1015
sg26
S'NBA'
p1016
sg28
S'0.6'
p1017
sg30
S'6.2'
p1018
sg32
S'5.3'
p1019
sg34
S'6.7'
p1020
sg36
S'4.7'
p1021
sg38
S'25'
p1022
sg40
S'CHI'
p1023
sg42
S'21'
p1024
sg44
S'0.5'
p1025
sg46
S'3.9'
p1026
sg48
S'3.9'
p1027
sg50
S'6.1'
p1028
sg52
S'3.5'
p1029
sg54
S'1997-98'
p1030
sg56
S'3.9'
p1031
sg58
S'2.0'
p1032
sg60
S'.650'
p1033
sg62
S'237'
p1034
sg64
g11
sba(isrc.gp1.models.Per36Minutes
Per36Minutes
p1035
(dp1036
g8
S'2.7'
p1037
sg10
S'0.0'
p1038
sg12
S'.463'
p1039
sg14
S'1.6'
p1040
sg16
S'.000'
p1041
sg18
S'0.0'
p1042
sg19
S'11.3'
p1043
sg20
g214
sg22
S'.645'
p1044
sg26
S'NBA'
p1045
sg28
S'0.9'
p1046
sg30
S'8.1'
p1047
sg32
S'3.2'
p1048
sg34
S'6.0'
p1049
sg36
S'8.4'
p1050
sg38
S'26'
p1051
sg40
S'CHI'
p1052
sg42
S'50'
p1053
sg44
S'0.3'
p1054
sg46
S'3.7'
p1055
sg48
S'3.9'
p1056
sg50
S'8.0'
p1057
sg52
S'5.7'
p1058
sg54
S'1998-99'
p1059
sg56
S'3.7'
p1060
sg58
S'1.8'
p1061
sg60
S'.464'
p1062
sg62
S'1448'
p1063
sg64
S'35'
p1064
sba(isrc.gp1.models.Per36Minutes
Per36Minutes
p1065
(dp1066
g8
S'2.7'
p1067
sg10
S'0.0'
p1068
sg12
S'.405'
p1069
sg14
S'2.2'
p1070
sg16
S'.000'
p1071
sg18
S'0.0'
p1072
sg19
S'6.3'
p1073
sg20
S'PF'
p1074
sg22
S'.542'
p1075
sg26
S'NBA'
p1076
sg28
S'0.5'
p1077
sg30
S'6.0'
p1078
sg32
S'4.7'
p1079
sg34
S'2.6'
p1080
sg36
S'8.1'
p1081
sg38
S'27'
p1082
sg40
S'CHI'
p1083
sg42
S'69'
p1084
sg44
S'0.5'
p1085
sg46
S'2.4'
p1086
sg48
S'1.4'
p1087
sg50
S'6.0'
p1088
sg52
S'5.4'
p1089
sg54
S'1999-00'
p1090
sg56
S'2.4'
p1091
sg58
S'2.8'
p1092
sg60
S'.407'
p1093
sg62
S'1651'
p1094
sg64
S'48'
p1095
sba(isrc.gp1.models.Per36Minutes
Per36Minutes
p1096
(dp1097
g8
S'0.0'
p1098
sg10
S'0.0'
p1099
sg12
S'0.0'
p1100
sg14
S'0.0'
p1101
sg16
S'0.0'
p1102
sg18
S'0.0'
p1103
sg19
g3
sg20
S'PF'
p1104
sg22
S'12.0'
p1105
sg26
S'NBA'
p1106
sg28
S'0.0'
p1107
sg30
S'0.0'
p1108
sg32
g3
sg34
S'0.0'
p1109
sg36
S'0.0'
p1110
sg38
S'29'
p1111
sg40
S'ATL'
p1112
sg42
g69
sg44
g3
sg46
S'0.0'
p1113
sg48
S'0.0'
p1114
sg50
S'0.0'
p1115
sg52
S'0.0'
p1116
sg54
S'2001-02'
p1117
sg56
S'0.0'
p1118
sg58
g3
sg60
S'0.0'
p1119
sg62
g197
sg64
g11
sbasS'_fromYear'
p1120
S'1995'
p1121
sS'_url'
p1122
S'http://www.basketball-reference.com/players/s/simpkdi01.html'
p1123
sS'_perGame'
p1124
(isrc.gp1.models.PerGame
PerGame
p1125
(dp1126
g8
S'0.0'
p1127
sg10
S'0.0'
p1128
sg12
S'0.0'
p1129
sS'_effectiveFieldGalPercentage'
p1130
S'0.0'
p1131
sg14
S'0.0'
p1132
sg16
S'0.0'
p1133
sg18
S'0.0'
p1134
sg19
g3
sg20
S'PF'
p1135
sg22
S'0.0'
p1136
sg26
S'NBA'
p1137
sg28
g3
sg32
g3
sS'_fieldGoalsttempted'
p1138
S'0.0'
p1139
sg34
S'1.0'
p1140
sg36
S'0.0'
p1141
sg38
S'29'
p1142
sg40
S'ATL'
p1143
sg42
g69
sg44
g3
sg46
S'0.0'
p1144
sg48
S'0.0'
p1145
sg50
S'0.0'
p1146
sg52
S'0.0'
p1147
sg54
S'2001-02'
p1148
sg56
S'0.0'
p1149
sg58
g3
sg60
S'0.0'
p1150
sg62
S'3.0'
p1151
sg64
g11
sbsS'_weight'
p1152
S'248'
p1153
sS'_dob'
p1154
S'6-4-1972'
p1155
sS'_salary'
p1156
(lp1157
(isrc.gp1.models.Salary
Salary
p1158
(dp1159
g40
S'Chicago Bulls'
p1160
sg26
S'NBA'
p1161
sg1156
S'$650,000'
p1162
sg54
S'1994-95'
p1163
sba(isrc.gp1.models.Salary
Salary
p1164
(dp1165
g40
S'Chicago Bulls'
p1166
sg26
S'NBA'
p1167
sg1156
S'$845,000'
p1168
sg54
S'1995-96'
p1169
sba(isrc.gp1.models.Salary
Salary
p1170
(dp1171
g40
S'Chicago Bulls'
p1172
sg26
S'NBA'
p1173
sg1156
S'$1,040,000'
p1174
sg54
S'1996-97'
p1175
sba(isrc.gp1.models.Salary
Salary
p1176
(dp1177
g40
S'Golden State Warriors'
p1178
sg26
S'NBA'
p1179
sg1156
S'$1,235,000'
p1180
sg54
S'1997-98'
p1181
sba(isrc.gp1.models.Salary
Salary
p1182
(dp1183
g40
S'Chicago Bulls'
p1184
sg26
S'NBA'
p1185
sg1156
S'$1,500,000'
p1186
sg54
S'1999-00'
p1187
sba(isrc.gp1.models.Salary
Salary
p1188
(dp1189
g40
S'Atlanta Hawks'
p1190
sg26
S'NBA'
p1191
sg1156
S'$26,190'
p1192
sg54
S'2001-02'
p1193
sbasg20
S'F'
p1194
sb.