(isrc.gp1.models.Player
Player
p0
(dp1
S'_experience'
p2
S'NA'
p3
sS'_totals'
p4
(lp5
(isrc.gp1.models.Totals
Totals
p6
(dp7
S'_offensiveRebounds'
p8
S'9'
p9
sS'_threePointsAttempted'
p10
S'61'
p11
sS'_fieldGoalsPercentage'
p12
S'.412'
p13
sS'_assist'
p14
S'85'
p15
sS'_threePointsPercentage'
p16
S'.361'
p17
sS'_threePoints'
p18
S'22'
p19
sS'_points'
p20
S'183'
p21
sS'_position'
p22
S'PG'
p23
sS'_freeThrowsPercentage'
p24
S'.808'
p25
sS'_effectiveFieldGoalPercentage'
p26
S'.476'
p27
sS'_league'
p28
S'NBA'
p29
sS'_steals'
p30
S'14'
p31
sS'_fieldGoalsAttempted'
p32
S'170'
p33
sS'_personalFouls'
p34
S'66'
p35
sS'_freeThrowsAttempted'
p36
S'26'
p37
sS'_totalRebounds'
p38
S'43'
p39
sS'_age'
p40
S'24'
p41
sS'_team'
p42
S'ATL'
p43
sS'_games'
p44
S'50'
p45
sS'_blocks'
p46
S'2'
p47
sS'_twoPoints'
p48
S'48'
p49
sS'_freeThrows'
p50
S'21'
p51
sS'_twoPointsAttempted'
p52
S'109'
p53
sS'_defensiveRebounds'
p54
S'34'
p55
sS'_season'
p56
S'2002-03'
p57
sS'_fieldGoals'
p58
S'70'
p59
sS'_turnOvers'
p60
S'53'
p61
sS'_twoPointsPercentage'
p62
S'.440'
p63
sS'_minutesPlayed'
p64
S'515'
p65
sS'_gamesStarted'
p66
S'0'
p67
sba(isrc.gp1.models.Totals
Totals
p68
(dp69
g8
S'7'
p70
sg10
S'30'
p71
sg12
S'.378'
p72
sg14
S'38'
p73
sg16
S'.333'
p74
sg18
S'10'
p75
sg20
S'95'
p76
sg22
S'PG'
p77
sg24
S'.786'
p78
sg26
S'.429'
p79
sg28
S'NBA'
p80
sg30
S'17'
p81
sg32
S'98'
p82
sg34
S'44'
p83
sg36
S'14'
p84
sg38
S'26'
p85
sg40
S'25'
p86
sg42
S'TOT'
p87
sg44
S'43'
p88
sg46
g67
sg48
S'27'
p89
sg50
S'11'
p90
sg52
S'68'
p91
sg54
S'19'
p92
sg56
S'2003-04'
p93
sg58
S'37'
p94
sg60
S'26'
p95
sg62
S'.397'
p96
sg64
S'294'
p97
sg66
g67
sba(isrc.gp1.models.Totals
Totals
p98
(dp99
g8
S'4'
p100
sg10
S'10'
p101
sg12
S'.429'
p102
sg14
S'18'
p103
sg16
S'.300'
p104
sg18
S'3'
p105
sg20
S'49'
p106
sg22
S'PG'
p107
sg24
S'.667'
p108
sg26
S'.459'
p109
sg28
S'NBA'
p110
sg30
g9
sg32
S'49'
p111
sg34
S'22'
p112
sg36
S'6'
p113
sg38
S'16'
p114
sg40
S'25'
p115
sg42
S'ATL'
p116
sg44
S'23'
p117
sg46
g67
sg48
S'18'
p118
sg50
g100
sg52
S'39'
p119
sg54
S'12'
p120
sg56
S'2003-04'
p121
sg58
S'21'
p122
sg60
S'13'
p123
sg62
S'.462'
p124
sg64
S'143'
p125
sg66
g67
sba(isrc.gp1.models.Totals
Totals
p126
(dp127
g8
g105
sg10
S'20'
p128
sg12
S'.327'
p129
sg14
S'20'
p130
sg16
S'.350'
p131
sg18
g70
sg20
S'46'
p132
sg22
S'PG'
p133
sg24
S'.875'
p134
sg26
S'.398'
p135
sg28
S'NBA'
p136
sg30
S'8'
p137
sg32
S'49'
p138
sg34
S'22'
p139
sg36
g137
sg38
S'10'
p140
sg40
S'25'
p141
sg42
S'POR'
p142
sg44
S'20'
p143
sg46
g67
sg48
g9
sg50
g70
sg52
S'29'
p144
sg54
g70
sg56
S'2003-04'
p145
sg58
S'16'
p146
sg60
S'13'
p147
sg62
S'.310'
p148
sg64
S'151'
p149
sg66
g67
sba(isrc.gp1.models.Totals
Totals
p150
(dp151
g8
S'34'
p152
sg10
S'245'
p153
sg12
S'.405'
p154
sg14
S'347'
p155
sg16
S'.347'
p156
sg18
S'85'
p157
sg20
S'887'
p158
sg22
S'PG'
p159
sg24
S'.833'
p160
sg26
S'.461'
p161
sg28
S'NBA'
p162
sg30
S'76'
p163
sg32
S'756'
p164
sg34
S'201'
p165
sg36
S'228'
p166
sg38
S'180'
p167
sg40
S'26'
p168
sg42
S'TOT'
p169
sg44
S'71'
p170
sg46
g100
sg48
S'221'
p171
sg50
S'190'
p172
sg52
S'511'
p173
sg54
S'146'
p174
sg56
S'2004-05'
p175
sg58
S'306'
p176
sg60
S'145'
p177
sg62
S'.432'
p178
sg64
S'2090'
p179
sg66
S'46'
p180
sba(isrc.gp1.models.Totals
Totals
p181
(dp182
g8
g67
sg10
g105
sg12
S'.125'
p183
sg14
S'1'
p184
sg16
S'.333'
p185
sg18
g184
sg20
S'5'
p186
sg22
S'PG'
p187
sg24
S'.667'
p188
sg26
S'.188'
p189
sg28
S'NBA'
p190
sg30
g67
sg32
g137
sg34
g184
sg36
g105
sg38
g184
sg40
S'26'
p191
sg42
S'DAL'
p192
sg44
g100
sg46
g67
sg48
g67
sg50
g47
sg52
g186
sg54
g184
sg56
S'2004-05'
p193
sg58
g184
sg60
g184
sg62
S'.000'
p194
sg64
S'16'
p195
sg66
g67
sba(isrc.gp1.models.Totals
Totals
p196
(dp197
g8
S'34'
p198
sg10
S'242'
p199
sg12
S'.408'
p200
sg14
S'346'
p201
sg16
S'.347'
p202
sg18
S'84'
p203
sg20
S'882'
p204
sg22
S'PG'
p205
sg24
S'.836'
p206
sg26
S'.464'
p207
sg28
S'NBA'
p208
sg30
S'76'
p209
sg32
S'748'
p210
sg34
S'200'
p211
sg36
S'225'
p212
sg38
S'179'
p213
sg40
S'26'
p214
sg42
S'NOH'
p215
sg44
S'67'
p216
sg46
g100
sg48
S'221'
p217
sg50
S'188'
p218
sg52
S'506'
p219
sg54
S'145'
p220
sg56
S'2004-05'
p221
sg58
S'305'
p222
sg60
S'144'
p223
sg62
S'.437'
p224
sg64
S'2074'
p225
sg66
S'46'
p226
sba(isrc.gp1.models.Totals
Totals
p227
(dp228
g8
g186
sg10
S'20'
p229
sg12
S'.370'
p230
sg14
S'40'
p231
sg16
S'.500'
p232
sg18
S'10'
p233
sg20
S'62'
p234
sg22
S'PG'
p235
sg24
S'1.000'
p236
sg26
S'.478'
p237
sg28
S'NBA'
p238
sg30
S'11'
p239
sg32
S'46'
p240
sg34
S'40'
p241
sg36
S'18'
p242
sg38
S'16'
p243
sg40
S'27'
p244
sg42
S'BOS'
p245
sg44
S'19'
p246
sg46
g184
sg48
g70
sg50
S'18'
p247
sg52
S'26'
p248
sg54
S'11'
p249
sg56
S'2005-06'
p250
sg58
S'17'
p251
sg60
S'18'
p252
sg62
S'.269'
p253
sg64
S'234'
p254
sg66
g67
sba(isrc.gp1.models.Totals
Totals
p255
(dp256
g8
g70
sg10
S'61'
p257
sg12
S'.358'
p258
sg14
S'70'
p259
sg16
S'.262'
p260
sg18
S'16'
p261
sg20
S'166'
p262
sg22
S'PG'
p263
sg24
S'.792'
p264
sg26
S'.411'
p265
sg28
S'NBA'
p266
sg30
S'14'
p267
sg32
S'151'
p268
sg34
S'55'
p269
sg36
S'53'
p270
sg38
S'43'
p271
sg40
S'28'
p272
sg42
S'POR'
p273
sg44
S'50'
p274
sg46
g184
sg48
S'38'
p275
sg50
S'42'
p276
sg52
S'90'
p277
sg54
S'36'
p278
sg56
S'2006-07'
p279
sg58
S'54'
p280
sg60
S'27'
p281
sg62
S'.422'
p282
sg64
S'444'
p283
sg66
g105
sba(isrc.gp1.models.Totals
Totals
p284
(dp285
g8
S'13'
p286
sg10
S'108'
p287
sg12
S'.419'
p288
sg14
S'172'
p289
sg16
S'.333'
p290
sg18
S'36'
p291
sg20
S'352'
p292
sg22
S'PG'
p293
sg24
S'.829'
p294
sg26
S'.480'
p295
sg28
S'NBA'
p296
sg30
S'32'
p297
sg32
S'296'
p298
sg34
S'108'
p299
sg36
S'82'
p300
sg38
S'97'
p301
sg40
S'29'
p302
sg42
S'LAC'
p303
sg44
S'67'
p304
sg46
g105
sg48
S'88'
p305
sg50
S'68'
p306
sg52
S'188'
p307
sg54
S'84'
p308
sg56
S'2007-08'
p309
sg58
S'124'
p310
sg60
S'55'
p311
sg62
S'.468'
p312
sg64
S'1040'
p313
sg66
g137
sbasS'_college'
p314
S'Gonzaga University'
p315
sS'_toYear'
p316
S'2008'
p317
sS'_height'
p318
S'6-0'
p319
sS'_active'
p320
I00
sS'_shootingHand'
p321
VRight
p322
sS'_name'
p323
S'Dan Dickau'
p324
sS'_per100Possessions'
p325
(lp326
(isrc.gp1.models.Per100Possession
Per100Possession
p327
(dp328
g8
S'0.9'
p329
sg10
S'6.3'
p330
sg12
S'.412'
p331
sS'_offensiveRating'
p332
S'94'
p333
sg14
S'8.7'
p334
sg16
S'.361'
p335
sg18
S'2.3'
p336
sg20
S'18.8'
p337
sg22
S'PG'
p338
sS'_defensiveRating'
p339
S'110'
p340
sg24
S'.808'
p341
sg28
S'NBA'
p342
sg30
S'1.4'
p343
sg32
S'17.4'
p344
sg34
S'6.8'
p345
sg36
S'2.7'
p346
sg38
S'4.4'
p347
sg40
S'24'
p348
sg42
S'ATL'
p349
sg44
S'50'
p350
sg46
S'0.2'
p351
sg48
S'4.9'
p352
sg50
S'2.2'
p353
sg52
S'11.2'
p354
sg54
S'3.5'
p355
sg56
S'2002-03'
p356
sg58
S'7.2'
p357
sg60
S'5.4'
p358
sg62
S'.440'
p359
sg64
S'515'
p360
sg66
g67
sba(isrc.gp1.models.Per100Possession
Per100Possession
p361
(dp362
g8
S'1.3'
p363
sg10
S'5.5'
p364
sg12
S'.378'
p365
sg332
S'89'
p366
sg14
S'7.0'
p367
sg16
S'.333'
p368
sg18
S'1.8'
p369
sg20
S'17.5'
p370
sg22
S'PG'
p371
sg339
S'106'
p372
sg24
S'.786'
p373
sg28
S'NBA'
p374
sg30
S'3.1'
p375
sg32
S'18.1'
p376
sg34
S'8.1'
p377
sg36
S'2.6'
p378
sg38
S'4.8'
p379
sg40
S'25'
p380
sg42
S'TOT'
p381
sg44
S'43'
p382
sg46
S'0.0'
p383
sg48
S'5.0'
p384
sg50
S'2.0'
p385
sg52
S'12.6'
p386
sg54
S'3.5'
p387
sg56
S'2003-04'
p388
sg58
S'6.8'
p389
sg60
S'4.8'
p390
sg62
S'.397'
p391
sg64
S'294'
p392
sg66
g67
sba(isrc.gp1.models.Per100Possession
Per100Possession
p393
(dp394
g8
S'1.5'
p395
sg10
S'3.7'
p396
sg12
S'.429'
p397
sg332
S'90'
p398
sg14
S'6.7'
p399
sg16
S'.300'
p400
sg18
S'1.1'
p401
sg20
S'18.1'
p402
sg22
S'PG'
p403
sg339
S'105'
p404
sg24
S'.667'
p405
sg28
S'NBA'
p406
sg30
S'3.3'
p407
sg32
S'18.1'
p408
sg34
S'8.1'
p409
sg36
S'2.2'
p410
sg38
S'5.9'
p411
sg40
S'25'
p412
sg42
S'ATL'
p413
sg44
S'23'
p414
sg46
S'0.0'
p415
sg48
S'6.7'
p416
sg50
S'1.5'
p417
sg52
S'14.4'
p418
sg54
S'4.4'
p419
sg56
S'2003-04'
p420
sg58
S'7.8'
p421
sg60
S'4.8'
p422
sg62
S'.462'
p423
sg64
S'143'
p424
sg66
g67
sba(isrc.gp1.models.Per100Possession
Per100Possession
p425
(dp426
g8
S'1.1'
p427
sg10
S'7.4'
p428
sg12
S'.327'
p429
sg332
S'88'
p430
sg14
S'7.4'
p431
sg16
S'.350'
p432
sg18
S'2.6'
p433
sg20
S'17.0'
p434
sg22
S'PG'
p435
sg339
S'107'
p436
sg24
S'.875'
p437
sg28
S'NBA'
p438
sg30
S'2.9'
p439
sg32
S'18.1'
p440
sg34
S'8.1'
p441
sg36
S'2.9'
p442
sg38
S'3.7'
p443
sg40
S'25'
p444
sg42
S'POR'
p445
sg44
S'20'
p446
sg46
S'0.0'
p447
sg48
S'3.3'
p448
sg50
S'2.6'
p449
sg52
S'10.7'
p450
sg54
S'2.6'
p451
sg56
S'2003-04'
p452
sg58
S'5.9'
p453
sg60
S'4.8'
p454
sg62
S'.310'
p455
sg64
S'151'
p456
sg66
g67
sba(isrc.gp1.models.Per100Possession
Per100Possession
p457
(dp458
g8
S'0.9'
p459
sg10
S'6.4'
p460
sg12
S'.405'
p461
sg332
S'105'
p462
sg14
S'9.1'
p463
sg16
S'.347'
p464
sg18
S'2.2'
p465
sg20
S'23.3'
p466
sg22
S'PG'
p467
sg339
S'109'
p468
sg24
S'.833'
p469
sg28
S'NBA'
p470
sg30
S'2.0'
p471
sg32
S'19.8'
p472
sg34
S'5.3'
p473
sg36
S'6.0'
p474
sg38
S'4.7'
p475
sg40
S'26'
p476
sg42
S'TOT'
p477
sg44
S'71'
p478
sg46
S'0.1'
p479
sg48
S'5.8'
p480
sg50
S'5.0'
p481
sg52
S'13.4'
p482
sg54
S'3.8'
p483
sg56
S'2004-05'
p484
sg58
S'8.0'
p485
sg60
S'3.8'
p486
sg62
S'.432'
p487
sg64
S'2090'
p488
sg66
S'46'
p489
sba(isrc.gp1.models.Per100Possession
Per100Possession
p490
(dp491
g8
S'0.0'
p492
sg10
S'9.7'
p493
sg12
S'.125'
p494
sg332
S'62'
p495
sg14
S'3.2'
p496
sg16
S'.333'
p497
sg18
S'3.2'
p498
sg20
S'16.2'
p499
sg22
S'PG'
p500
sg339
S'112'
p501
sg24
S'.667'
p502
sg28
S'NBA'
p503
sg30
S'0.0'
p504
sg32
S'25.9'
p505
sg34
S'3.2'
p506
sg36
S'9.7'
p507
sg38
S'3.2'
p508
sg40
S'26'
p509
sg42
S'DAL'
p510
sg44
g100
sg46
S'0.0'
p511
sg48
S'0.0'
p512
sg50
S'6.5'
p513
sg52
S'16.2'
p514
sg54
S'3.2'
p515
sg56
S'2004-05'
p516
sg58
S'3.2'
p517
sg60
S'3.2'
p518
sg62
S'.000'
p519
sg64
S'16'
p520
sg66
g67
sba(isrc.gp1.models.Per100Possession
Per100Possession
p521
(dp522
g8
S'0.9'
p523
sg10
S'6.4'
p524
sg12
S'.408'
p525
sg332
S'105'
p526
sg14
S'9.1'
p527
sg16
S'.347'
p528
sg18
S'2.2'
p529
sg20
S'23.3'
p530
sg22
S'PG'
p531
sg339
S'109'
p532
sg24
S'.836'
p533
sg28
S'NBA'
p534
sg30
S'2.0'
p535
sg32
S'19.8'
p536
sg34
S'5.3'
p537
sg36
S'5.9'
p538
sg38
S'4.7'
p539
sg40
S'26'
p540
sg42
S'NOH'
p541
sg44
S'67'
p542
sg46
S'0.1'
p543
sg48
S'5.8'
p544
sg50
S'5.0'
p545
sg52
S'13.4'
p546
sg54
S'3.8'
p547
sg56
S'2004-05'
p548
sg58
S'8.1'
p549
sg60
S'3.8'
p550
sg62
S'.437'
p551
sg64
S'2074'
p552
sg66
S'46'
p553
sba(isrc.gp1.models.Per100Possession
Per100Possession
p554
(dp555
g8
S'1.1'
p556
sg10
S'4.5'
p557
sg12
S'.370'
p558
sg332
S'109'
p559
sg14
S'8.9'
p560
sg16
S'.500'
p561
sg18
S'2.2'
p562
sg20
S'13.8'
p563
sg22
S'PG'
p564
sg339
S'108'
p565
sg24
S'1.000'
p566
sg28
S'NBA'
p567
sg30
S'2.4'
p568
sg32
S'10.2'
p569
sg34
S'8.9'
p570
sg36
S'4.0'
p571
sg38
S'3.6'
p572
sg40
S'27'
p573
sg42
S'BOS'
p574
sg44
S'19'
p575
sg46
S'0.2'
p576
sg48
S'1.6'
p577
sg50
S'4.0'
p578
sg52
S'5.8'
p579
sg54
S'2.4'
p580
sg56
S'2005-06'
p581
sg58
S'3.8'
p582
sg60
S'4.0'
p583
sg62
S'.269'
p584
sg64
S'234'
p585
sg66
g67
sba(isrc.gp1.models.Per100Possession
Per100Possession
p586
(dp587
g8
S'0.9'
p588
sg10
S'7.5'
p589
sg12
S'.358'
p590
sg332
S'103'
p591
sg14
S'8.6'
p592
sg16
S'.262'
p593
sg18
S'2.0'
p594
sg20
S'20.3'
p595
sg22
S'PG'
p596
sg339
S'112'
p597
sg24
S'.792'
p598
sg28
S'NBA'
p599
sg30
S'1.7'
p600
sg32
S'18.5'
p601
sg34
S'6.7'
p602
sg36
S'6.5'
p603
sg38
S'5.3'
p604
sg40
S'28'
p605
sg42
S'POR'
p606
sg44
S'50'
p607
sg46
S'0.1'
p608
sg48
S'4.7'
p609
sg50
S'5.1'
p610
sg52
S'11.0'
p611
sg54
S'4.4'
p612
sg56
S'2006-07'
p613
sg58
S'6.6'
p614
sg60
S'3.3'
p615
sg62
S'.422'
p616
sg64
S'444'
p617
sg66
g105
sba(isrc.gp1.models.Per100Possession
Per100Possession
p618
(dp619
g8
S'0.7'
p620
sg10
S'5.4'
p621
sg12
S'.419'
p622
sg332
S'107'
p623
sg14
S'8.6'
p624
sg16
S'.333'
p625
sg18
S'1.8'
p626
sg20
S'17.6'
p627
sg22
S'PG'
p628
sg339
S'111'
p629
sg24
S'.829'
p630
sg28
S'NBA'
p631
sg30
S'1.6'
p632
sg32
S'14.8'
p633
sg34
S'5.4'
p634
sg36
S'4.1'
p635
sg38
S'4.9'
p636
sg40
S'29'
p637
sg42
S'LAC'
p638
sg44
S'67'
p639
sg46
S'0.2'
p640
sg48
S'4.4'
p641
sg50
S'3.4'
p642
sg52
S'9.4'
p643
sg54
S'4.2'
p644
sg56
S'2007-08'
p645
sg58
S'6.2'
p646
sg60
S'2.8'
p647
sg62
S'.468'
p648
sg64
S'1040'
p649
sg66
g137
sbasS'_advanced'
p650
(lp651
(isrc.gp1.models.Advanced
Advanced
p652
(dp653
S'_offensiveReboundPercentage'
p654
S'2.1'
p655
sS'_turnOverPercentage'
p656
S'22.6'
p657
sS'_winSharesPer48Minutes'
p658
S'.001'
p659
sS'_stealPercentage'
p660
S'1.4'
p661
sS'_usagePercentage'
p662
S'20.9'
p663
sS'_totalReboundsPercentage'
p664
S'4.8'
p665
sS'_defensiveBoxPlusMinus'
p666
S'-4.1'
p667
sg22
S'PG'
p668
sS'_valueOverReplacementPlayer'
p669
S'-0.6'
p670
sS'_trueShootingPercentage'
p671
S'.504'
p672
sS'_defensiveReboundPercentage'
p673
S'7.2'
p674
sS'_freeThrowsAttempRate'
p675
S'.153'
p676
sS'_threePointsAttempRate'
p677
S'.359'
p678
sg28
S'NBA'
p679
sS'_offensiveBoxPlusMinues'
p680
S'-2.2'
p681
sS'_assistPercentage'
p682
S'28.3'
p683
sS'_defensiveWinShares'
p684
S'0.1'
p685
sg40
S'24'
p686
sg42
S'ATL'
p687
sg44
S'50'
p688
sS'_blockPercentage'
p689
S'0.3'
p690
sS'_playerEfficiencyRating'
p691
S'9.9'
p692
sS'_offensiveWinShares'
p693
S'-0.1'
p694
sg64
S'515'
p695
sS'_boxPlusMinus'
p696
S'-6.3'
p697
sg56
S'2002-03'
p698
sS'_winShares'
p699
S'0.0'
p700
sba(isrc.gp1.models.Advanced
Advanced
p701
(dp702
g654
S'2.8'
p703
sg656
S'20.0'
p704
sg658
S'-0.003'
p705
sg660
S'3.1'
p706
sg662
S'20.6'
p707
sg664
S'5.1'
p708
sg666
S'-2.4'
p709
sg22
S'PG'
p710
sg669
S'-0.2'
p711
sg671
S'.456'
p712
sg673
S'7.4'
p713
sg675
S'.143'
p714
sg677
S'.306'
p715
sg28
S'NBA'
p716
sg680
S'-2.8'
p717
sg682
S'21.8'
p718
sg684
S'0.2'
p719
sg40
S'25'
p720
sg42
S'TOT'
p721
sg44
S'43'
p722
sg689
S'0.0'
p723
sg691
S'9.0'
p724
sg693
S'-0.2'
p725
sg64
S'294'
p726
sg696
S'-5.2'
p727
sg56
S'2003-04'
p728
sg699
S'0.0'
p729
sba(isrc.gp1.models.Advanced
Advanced
p730
(dp731
g654
S'3.2'
p732
sg656
S'20.1'
p733
sg658
S'.006'
p734
sg660
S'3.3'
p735
sg662
S'20.6'
p736
sg664
S'6.3'
p737
sg666
S'-1.8'
p738
sg22
S'PG'
p739
sg669
S'-0.1'
p740
sg671
S'.474'
p741
sg673
S'9.4'
p742
sg675
S'.122'
p743
sg677
S'.204'
p744
sg28
S'NBA'
p745
sg680
S'-2.7'
p746
sg682
S'22.3'
p747
sg684
S'0.1'
p748
sg40
S'25'
p749
sg42
S'ATL'
p750
sg44
S'23'
p751
sg689
S'0.0'
p752
sg691
S'10.4'
p753
sg693
S'-0.1'
p754
sg64
S'143'
p755
sg696
S'-4.6'
p756
sg56
S'2003-04'
p757
sg699
S'0.0'
p758
sba(isrc.gp1.models.Advanced
Advanced
p759
(dp760
g654
S'2.4'
p761
sg656
S'19.8'
p762
sg658
S'-0.011'
p763
sg660
S'2.9'
p764
sg662
S'20.5'
p765
sg664
S'3.9'
p766
sg666
S'-2.9'
p767
sg22
S'PG'
p768
sg669
S'-0.1'
p769
sg671
S'.438'
p770
sg673
S'5.5'
p771
sg675
S'.163'
p772
sg677
S'.408'
p773
sg28
S'NBA'
p774
sg680
S'-3.0'
p775
sg682
S'21.4'
p776
sg684
S'0.1'
p777
sg40
S'25'
p778
sg42
S'POR'
p779
sg44
S'20'
p780
sg689
S'0.0'
p781
sg691
S'7.7'
p782
sg693
S'-0.1'
p783
sg64
S'151'
p784
sg696
S'-5.9'
p785
sg56
S'2003-04'
p786
sg699
S'0.0'
p787
sba(isrc.gp1.models.Advanced
Advanced
p788
(dp789
g654
S'1.9'
p790
sg656
S'14.5'
p791
sg658
S'.079'
p792
sg660
S'2.0'
p793
sg662
S'22.3'
p794
sg664
S'5.1'
p795
sg666
S'-1.8'
p796
sg22
S'PG'
p797
sg669
S'0.9'
p798
sg671
S'.518'
p799
sg673
S'8.6'
p800
sg675
S'.302'
p801
sg677
S'.324'
p802
sg28
S'NBA'
p803
sg680
S'1.5'
p804
sg682
S'31.0'
p805
sg684
S'1.3'
p806
sg40
S'26'
p807
sg42
S'TOT'
p808
sg44
S'71'
p809
sg689
S'0.2'
p810
sg691
S'14.9'
p811
sg693
S'2.2'
p812
sg64
S'2090'
p813
sg696
S'-0.3'
p814
sg56
S'2004-05'
p815
sg699
S'3.5'
p816
sba(isrc.gp1.models.Advanced
Advanced
p817
(dp818
g654
S'0.0'
p819
sg656
S'9.7'
p820
sg658
S'-0.259'
p821
sg660
S'0.0'
p822
sg662
S'28.9'
p823
sg664
S'3.5'
p824
sg666
S'-6.3'
p825
sg22
S'PG'
p826
sg669
S'-0.1'
p827
sg671
S'.268'
p828
sg673
S'6.8'
p829
sg675
S'.375'
p830
sg677
S'.375'
p831
sg28
S'NBA'
p832
sg680
S'-11.0'
p833
sg682
S'8.8'
p834
sg684
S'0.0'
p835
sg40
S'26'
p836
sg42
S'DAL'
p837
sg44
g100
sg689
S'0.0'
p838
sg691
S'-4.6'
p839
sg693
S'-0.1'
p840
sg64
S'16'
p841
sg696
S'-17.3'
p842
sg56
S'2004-05'
p843
sg699
S'-0.1'
p844
sba(isrc.gp1.models.Advanced
Advanced
p845
(dp846
g654
S'1.9'
p847
sg656
S'14.5'
p848
sg658
S'.082'
p849
sg660
S'2.0'
p850
sg662
S'22.2'
p851
sg664
S'5.1'
p852
sg666
S'-1.8'
p853
sg22
S'PG'
p854
sg669
S'0.9'
p855
sg671
S'.521'
p856
sg673
S'8.6'
p857
sg675
S'.301'
p858
sg677
S'.324'
p859
sg28
S'NBA'
p860
sg680
S'1.6'
p861
sg682
S'31.2'
p862
sg684
S'1.3'
p863
sg40
S'26'
p864
sg42
S'NOH'
p865
sg44
S'67'
p866
sg689
S'0.2'
p867
sg691
S'15.0'
p868
sg693
S'2.3'
p869
sg64
S'2074'
p870
sg696
S'-0.2'
p871
sg56
S'2004-05'
p872
sg699
S'3.5'
p873
sba(isrc.gp1.models.Advanced
Advanced
p874
(dp875
g654
S'2.7'
p876
sg656
S'25.0'
p877
sg658
S'.090'
p878
sg660
S'2.4'
p879
sg662
S'14.1'
p880
sg664
S'4.2'
p881
sg666
S'-2.3'
p882
sg22
S'PG'
p883
sg669
S'-0.1'
p884
sg671
S'.575'
p885
sg673
S'5.6'
p886
sg675
S'.391'
p887
sg677
S'.435'
p888
sg28
S'NBA'
p889
sg680
S'-1.1'
p890
sg682
S'25.5'
p891
sg684
S'0.2'
p892
sg40
S'27'
p893
sg42
S'BOS'
p894
sg44
S'19'
p895
sg689
S'0.3'
p896
sg691
S'10.4'
p897
sg693
S'0.3'
p898
sg64
S'234'
p899
sg696
S'-3.4'
p900
sg56
S'2005-06'
p901
sg699
S'0.4'
p902
sba(isrc.gp1.models.Advanced
Advanced
p903
(dp904
g654
S'1.9'
p905
sg656
S'13.4'
p906
sg658
S'.048'
p907
sg660
S'1.7'
p908
sg662
S'21.3'
p909
sg664
S'6.0'
p910
sg666
S'-2.9'
p911
sg22
S'PG'
p912
sg669
S'-0.1'
p913
sg671
S'.476'
p914
sg673
S'10.3'
p915
sg675
S'.351'
p916
sg677
S'.404'
p917
sg28
S'NBA'
p918
sg680
S'-0.2'
p919
sg682
S'26.3'
p920
sg684
S'0.2'
p921
sg40
S'28'
p922
sg42
S'POR'
p923
sg44
S'50'
p924
sg689
S'0.2'
p925
sg691
S'12.2'
p926
sg693
S'0.3'
p927
sg64
S'444'
p928
sg696
S'-3.1'
p929
sg56
S'2006-07'
p930
sg699
S'0.4'
p931
sba(isrc.gp1.models.Advanced
Advanced
p932
(dp933
g654
S'1.4'
p934
sg656
S'14.2'
p935
sg658
S'.071'
p936
sg660
S'1.6'
p937
sg662
S'17.2'
p938
sg664
S'5.4'
p939
sg666
S'-2.3'
p940
sg22
S'PG'
p941
sg669
S'-0.2'
p942
sg671
S'.530'
p943
sg673
S'9.4'
p944
sg675
S'.277'
p945
sg677
S'.365'
p946
sg28
S'NBA'
p947
sg680
S'-0.6'
p948
sg682
S'27.9'
p949
sg684
S'0.6'
p950
sg40
S'29'
p951
sg42
S'LAC'
p952
sg44
S'67'
p953
sg689
S'0.2'
p954
sg691
S'12.5'
p955
sg693
S'0.9'
p956
sg64
S'1040'
p957
sg696
S'-2.9'
p958
sg56
S'2007-08'
p959
sg699
S'1.5'
p960
sbasS'_per36Minutes'
p961
(lp962
(isrc.gp1.models.Per36Minutes
Per36Minutes
p963
(dp964
g8
S'0.6'
p965
sg10
S'4.3'
p966
sg12
S'.412'
p967
sg14
S'5.9'
p968
sg16
S'.361'
p969
sg18
S'1.5'
p970
sg20
S'12.8'
p971
sg22
S'PG'
p972
sg24
S'.808'
p973
sg28
S'NBA'
p974
sg30
S'1.0'
p975
sg32
S'11.9'
p976
sg34
S'4.6'
p977
sg36
S'1.8'
p978
sg38
S'3.0'
p979
sg40
S'24'
p980
sg42
S'ATL'
p981
sg44
S'50'
p982
sg46
S'0.1'
p983
sg48
S'3.4'
p984
sg50
S'1.5'
p985
sg52
S'7.6'
p986
sg54
S'2.4'
p987
sg56
S'2002-03'
p988
sg58
S'4.9'
p989
sg60
S'3.7'
p990
sg62
S'.440'
p991
sg64
S'515'
p992
sg66
g67
sba(isrc.gp1.models.Per36Minutes
Per36Minutes
p993
(dp994
g8
S'0.9'
p995
sg10
S'3.7'
p996
sg12
S'.378'
p997
sg14
S'4.7'
p998
sg16
S'.333'
p999
sg18
S'1.2'
p1000
sg20
S'11.6'
p1001
sg22
S'PG'
p1002
sg24
S'.786'
p1003
sg28
S'NBA'
p1004
sg30
S'2.1'
p1005
sg32
S'12.0'
p1006
sg34
S'5.4'
p1007
sg36
S'1.7'
p1008
sg38
S'3.2'
p1009
sg40
S'25'
p1010
sg42
S'TOT'
p1011
sg44
S'43'
p1012
sg46
S'0.0'
p1013
sg48
S'3.3'
p1014
sg50
S'1.3'
p1015
sg52
S'8.3'
p1016
sg54
S'2.3'
p1017
sg56
S'2003-04'
p1018
sg58
S'4.5'
p1019
sg60
S'3.2'
p1020
sg62
S'.397'
p1021
sg64
S'294'
p1022
sg66
g67
sba(isrc.gp1.models.Per36Minutes
Per36Minutes
p1023
(dp1024
g8
S'1.0'
p1025
sg10
S'2.5'
p1026
sg12
S'.429'
p1027
sg14
S'4.5'
p1028
sg16
S'.300'
p1029
sg18
S'0.8'
p1030
sg20
S'12.3'
p1031
sg22
S'PG'
p1032
sg24
S'.667'
p1033
sg28
S'NBA'
p1034
sg30
S'2.3'
p1035
sg32
S'12.3'
p1036
sg34
S'5.5'
p1037
sg36
S'1.5'
p1038
sg38
S'4.0'
p1039
sg40
S'25'
p1040
sg42
S'ATL'
p1041
sg44
S'23'
p1042
sg46
S'0.0'
p1043
sg48
S'4.5'
p1044
sg50
S'1.0'
p1045
sg52
S'9.8'
p1046
sg54
S'3.0'
p1047
sg56
S'2003-04'
p1048
sg58
S'5.3'
p1049
sg60
S'3.3'
p1050
sg62
S'.462'
p1051
sg64
S'143'
p1052
sg66
g67
sba(isrc.gp1.models.Per36Minutes
Per36Minutes
p1053
(dp1054
g8
S'0.7'
p1055
sg10
S'4.8'
p1056
sg12
S'.327'
p1057
sg14
S'4.8'
p1058
sg16
S'.350'
p1059
sg18
S'1.7'
p1060
sg20
S'11.0'
p1061
sg22
S'PG'
p1062
sg24
S'.875'
p1063
sg28
S'NBA'
p1064
sg30
S'1.9'
p1065
sg32
S'11.7'
p1066
sg34
S'5.2'
p1067
sg36
S'1.9'
p1068
sg38
S'2.4'
p1069
sg40
S'25'
p1070
sg42
S'POR'
p1071
sg44
S'20'
p1072
sg46
S'0.0'
p1073
sg48
S'2.1'
p1074
sg50
S'1.7'
p1075
sg52
S'6.9'
p1076
sg54
S'1.7'
p1077
sg56
S'2003-04'
p1078
sg58
S'3.8'
p1079
sg60
S'3.1'
p1080
sg62
S'.310'
p1081
sg64
S'151'
p1082
sg66
g67
sba(isrc.gp1.models.Per36Minutes
Per36Minutes
p1083
(dp1084
g8
S'0.6'
p1085
sg10
S'4.2'
p1086
sg12
S'.405'
p1087
sg14
S'6.0'
p1088
sg16
S'.347'
p1089
sg18
S'1.5'
p1090
sg20
S'15.3'
p1091
sg22
S'PG'
p1092
sg24
S'.833'
p1093
sg28
S'NBA'
p1094
sg30
S'1.3'
p1095
sg32
S'13.0'
p1096
sg34
S'3.5'
p1097
sg36
S'3.9'
p1098
sg38
S'3.1'
p1099
sg40
S'26'
p1100
sg42
S'TOT'
p1101
sg44
S'71'
p1102
sg46
S'0.1'
p1103
sg48
S'3.8'
p1104
sg50
S'3.3'
p1105
sg52
S'8.8'
p1106
sg54
S'2.5'
p1107
sg56
S'2004-05'
p1108
sg58
S'5.3'
p1109
sg60
S'2.5'
p1110
sg62
S'.432'
p1111
sg64
S'2090'
p1112
sg66
S'46'
p1113
sba(isrc.gp1.models.Per36Minutes
Per36Minutes
p1114
(dp1115
g8
S'0.0'
p1116
sg10
S'6.8'
p1117
sg12
S'.125'
p1118
sg14
S'2.3'
p1119
sg16
S'.333'
p1120
sg18
S'2.3'
p1121
sg20
S'11.3'
p1122
sg22
S'PG'
p1123
sg24
S'.667'
p1124
sg28
S'NBA'
p1125
sg30
S'0.0'
p1126
sg32
S'18.0'
p1127
sg34
S'2.3'
p1128
sg36
S'6.8'
p1129
sg38
S'2.3'
p1130
sg40
S'26'
p1131
sg42
S'DAL'
p1132
sg44
g100
sg46
S'0.0'
p1133
sg48
S'0.0'
p1134
sg50
S'4.5'
p1135
sg52
S'11.3'
p1136
sg54
S'2.3'
p1137
sg56
S'2004-05'
p1138
sg58
S'2.3'
p1139
sg60
S'2.3'
p1140
sg62
S'.000'
p1141
sg64
S'16'
p1142
sg66
g67
sba(isrc.gp1.models.Per36Minutes
Per36Minutes
p1143
(dp1144
g8
S'0.6'
p1145
sg10
S'4.2'
p1146
sg12
S'.408'
p1147
sg14
S'6.0'
p1148
sg16
S'.347'
p1149
sg18
S'1.5'
p1150
sg20
S'15.3'
p1151
sg22
S'PG'
p1152
sg24
S'.836'
p1153
sg28
S'NBA'
p1154
sg30
S'1.3'
p1155
sg32
S'13.0'
p1156
sg34
S'3.5'
p1157
sg36
S'3.9'
p1158
sg38
S'3.1'
p1159
sg40
S'26'
p1160
sg42
S'NOH'
p1161
sg44
S'67'
p1162
sg46
S'0.1'
p1163
sg48
S'3.8'
p1164
sg50
S'3.3'
p1165
sg52
S'8.8'
p1166
sg54
S'2.5'
p1167
sg56
S'2004-05'
p1168
sg58
S'5.3'
p1169
sg60
S'2.5'
p1170
sg62
S'.437'
p1171
sg64
S'2074'
p1172
sg66
S'46'
p1173
sba(isrc.gp1.models.Per36Minutes
Per36Minutes
p1174
(dp1175
g8
S'0.8'
p1176
sg10
S'3.1'
p1177
sg12
S'.370'
p1178
sg14
S'6.2'
p1179
sg16
S'.500'
p1180
sg18
S'1.5'
p1181
sg20
S'9.5'
p1182
sg22
S'PG'
p1183
sg24
S'1.000'
p1184
sg28
S'NBA'
p1185
sg30
S'1.7'
p1186
sg32
S'7.1'
p1187
sg34
S'6.2'
p1188
sg36
S'2.8'
p1189
sg38
S'2.5'
p1190
sg40
S'27'
p1191
sg42
S'BOS'
p1192
sg44
S'19'
p1193
sg46
S'0.2'
p1194
sg48
S'1.1'
p1195
sg50
S'2.8'
p1196
sg52
S'4.0'
p1197
sg54
S'1.7'
p1198
sg56
S'2005-06'
p1199
sg58
S'2.6'
p1200
sg60
S'2.8'
p1201
sg62
S'.269'
p1202
sg64
S'234'
p1203
sg66
g67
sba(isrc.gp1.models.Per36Minutes
Per36Minutes
p1204
(dp1205
g8
S'0.6'
p1206
sg10
S'4.9'
p1207
sg12
S'.358'
p1208
sg14
S'5.7'
p1209
sg16
S'.262'
p1210
sg18
S'1.3'
p1211
sg20
S'13.5'
p1212
sg22
S'PG'
p1213
sg24
S'.792'
p1214
sg28
S'NBA'
p1215
sg30
S'1.1'
p1216
sg32
S'12.2'
p1217
sg34
S'4.5'
p1218
sg36
S'4.3'
p1219
sg38
S'3.5'
p1220
sg40
S'28'
p1221
sg42
S'POR'
p1222
sg44
S'50'
p1223
sg46
S'0.1'
p1224
sg48
S'3.1'
p1225
sg50
S'3.4'
p1226
sg52
S'7.3'
p1227
sg54
S'2.9'
p1228
sg56
S'2006-07'
p1229
sg58
S'4.4'
p1230
sg60
S'2.2'
p1231
sg62
S'.422'
p1232
sg64
S'444'
p1233
sg66
g105
sba(isrc.gp1.models.Per36Minutes
Per36Minutes
p1234
(dp1235
g8
S'0.5'
p1236
sg10
S'3.7'
p1237
sg12
S'.419'
p1238
sg14
S'6.0'
p1239
sg16
S'.333'
p1240
sg18
S'1.2'
p1241
sg20
S'12.2'
p1242
sg22
S'PG'
p1243
sg24
S'.829'
p1244
sg28
S'NBA'
p1245
sg30
S'1.1'
p1246
sg32
S'10.2'
p1247
sg34
S'3.7'
p1248
sg36
S'2.8'
p1249
sg38
S'3.4'
p1250
sg40
S'29'
p1251
sg42
S'LAC'
p1252
sg44
S'67'
p1253
sg46
S'0.1'
p1254
sg48
S'3.0'
p1255
sg50
S'2.4'
p1256
sg52
S'6.5'
p1257
sg54
S'2.9'
p1258
sg56
S'2007-08'
p1259
sg58
S'4.3'
p1260
sg60
S'1.9'
p1261
sg62
S'.468'
p1262
sg64
S'1040'
p1263
sg66
g137
sbasS'_fromYear'
p1264
S'2003'
p1265
sS'_url'
p1266
S'http://www.basketball-reference.com/players/d/dickada01.html'
p1267
sS'_perGame'
p1268
(isrc.gp1.models.PerGame
PerGame
p1269
(dp1270
g8
S'0.2'
p1271
sg10
S'1.6'
p1272
sg12
S'.419'
p1273
sS'_effectiveFieldGalPercentage'
p1274
S'.480'
p1275
sg14
S'2.6'
p1276
sg16
S'.333'
p1277
sg18
S'0.5'
p1278
sg20
S'5.3'
p1279
sg22
S'PG'
p1280
sg24
S'.829'
p1281
sg28
S'NBA'
p1282
sg30
S'0.5'
p1283
sg34
S'1.6'
p1284
sS'_fieldGoalsttempted'
p1285
S'4.4'
p1286
sg36
S'1.2'
p1287
sg38
S'1.4'
p1288
sg40
S'29'
p1289
sg42
S'LAC'
p1290
sg44
S'67'
p1291
sg46
S'0.0'
p1292
sg48
S'1.3'
p1293
sg50
S'1.0'
p1294
sg52
S'2.8'
p1295
sg54
S'1.3'
p1296
sg56
S'2007-08'
p1297
sg58
S'1.9'
p1298
sg60
S'0.8'
p1299
sg62
S'.468'
p1300
sg64
S'15.5'
p1301
sg66
g137
sbsS'_weight'
p1302
S'190'
p1303
sS'_dob'
p1304
S'16-9-1978'
p1305
sS'_salary'
p1306
(lp1307
(isrc.gp1.models.Salary
Salary
p1308
(dp1309
g42
S'Atlanta Hawks'
p1310
sg28
S'NBA'
p1311
sg1306
S'$776,880'
p1312
sg56
S'2002-03'
p1313
sba(isrc.gp1.models.Salary
Salary
p1314
(dp1315
g42
S'Atlanta Hawks'
p1316
sg28
S'NBA'
p1317
sg1306
S'$835,200'
p1318
sg56
S'2003-04'
p1319
sba(isrc.gp1.models.Salary
Salary
p1320
(dp1321
g42
S'New Orleans Hornets'
p1322
sg28
S'NBA'
p1323
sg1306
S'$893,400'
p1324
sg56
S'2004-05'
p1325
sba(isrc.gp1.models.Salary
Salary
p1326
(dp1327
g42
S'Boston Celtics'
p1328
sg28
S'NBA'
p1329
sg1306
S'$2,250,000'
p1330
sg56
S'2005-06'
p1331
sba(isrc.gp1.models.Salary
Salary
p1332
(dp1333
g42
S'Portland Trail Blazers'
p1334
sg28
S'NBA'
p1335
sg1306
S'$2,753,218'
p1336
sg56
S'2006-07'
p1337
sba(isrc.gp1.models.Salary
Salary
p1338
(dp1339
g42
S'New York Knicks'
p1340
sg28
S'NBA'
p1341
sg1306
S'$2,990,028'
p1342
sg56
S'2007-08'
p1343
sba(isrc.gp1.models.Salary
Salary
p1344
(dp1345
g42
S'Los Angeles Clippers'
p1346
sg28
S'NBA'
p1347
sg1306
S'$926,678'
p1348
sg56
S'2007-08'
p1349
sbasg22
S'G'
p1350
sb.