(isrc.gp1.models.Player
Player
p0
(dp1
S'_experience'
p2
S'NA'
p3
sS'_totals'
p4
(lp5
(isrc.gp1.models.Totals
Totals
p6
(dp7
S'_offensiveRebounds'
p8
g3
sS'_threePointsAttempted'
p9
g3
sS'_fieldGoalsPercentage'
p10
S'.300'
p11
sS'_assist'
p12
S'6'
p13
sS'_threePointsPercentage'
p14
g3
sS'_threePoints'
p15
g3
sS'_points'
p16
S'13'
p17
sS'_position'
p18
S'C'
p19
sS'_freeThrowsPercentage'
p20
S'.636'
p21
sS'_effectiveFieldGoalPercentage'
p22
S'.300'
p23
sS'_league'
p24
S'NBA'
p25
sS'_steals'
p26
g3
sS'_fieldGoalsAttempted'
p27
S'10'
p28
sS'_personalFouls'
p29
S'9'
p30
sS'_freeThrowsAttempted'
p31
S'11'
p32
sS'_totalRebounds'
p33
S'17'
p34
sS'_age'
p35
S'22'
p36
sS'_team'
p37
S'SYR'
p38
sS'_games'
p39
S'5'
p40
sS'_blocks'
p41
g3
sS'_twoPoints'
p42
S'3'
p43
sS'_freeThrows'
p44
S'7'
p45
sS'_twoPointsAttempted'
p46
S'10'
p47
sS'_defensiveRebounds'
p48
g3
sS'_season'
p49
S'1953-54'
p50
sS'_fieldGoals'
p51
g43
sS'_turnOvers'
p52
g3
sS'_twoPointsPercentage'
p53
S'.300'
p54
sS'_minutesPlayed'
p55
S'47'
p56
sS'_gamesStarted'
p57
g3
sbasS'_college'
p58
S'Kansas State University'
p59
sS'_toYear'
p60
S'1954'
p61
sS'_height'
p62
S'6-6'
p63
sS'_active'
p64
I00
sS'_shootingHand'
p65
VRight
p66
sS'_name'
p67
S'Dick Knostman'
p68
sS'_per100Possessions'
p69
(lp70
sS'_advanced'
p71
(lp72
(isrc.gp1.models.Advanced
Advanced
p73
(dp74
S'_offensiveReboundPercentage'
p75
g3
sS'_turnOverPercentage'
p76
g3
sS'_winSharesPer48Minutes'
p77
S'.183'
p78
sS'_stealPercentage'
p79
g3
sS'_usagePercentage'
p80
g3
sS'_totalReboundsPercentage'
p81
g3
sS'_defensiveBoxPlusMinus'
p82
g3
sg18
g19
sS'_valueOverReplacementPlayer'
p83
g3
sS'_trueShootingPercentage'
p84
S'.438'
p85
sS'_defensiveReboundPercentage'
p86
g3
sS'_freeThrowsAttempRate'
p87
S'1.100'
p88
sS'_threePointsAttempRate'
p89
g3
sg24
S'NBA'
p90
sS'_offensiveBoxPlusMinues'
p91
g3
sS'_assistPercentage'
p92
g3
sS'_defensiveWinShares'
p93
S'0.1'
p94
sg35
S'22'
p95
sg37
S'SYR'
p96
sg39
g40
sS'_blockPercentage'
p97
g3
sS'_playerEfficiencyRating'
p98
S'17.4'
p99
sS'_offensiveWinShares'
p100
S'0.0'
p101
sg55
S'47'
p102
sS'_boxPlusMinus'
p103
g3
sg49
S'1953-54'
p104
sS'_winShares'
p105
S'0.2'
p106
sbasS'_per36Minutes'
p107
(lp108
(isrc.gp1.models.Per36Minutes
Per36Minutes
p109
(dp110
g8
g3
sg9
g3
sg10
S'.300'
p111
sg12
S'4.6'
p112
sg14
g3
sg15
g3
sg16
S'10.0'
p113
sg18
g19
sg20
S'.636'
p114
sg24
S'NBA'
p115
sg26
g3
sg27
S'7.7'
p116
sg29
S'6.9'
p117
sg31
S'8.4'
p118
sg33
S'13.0'
p119
sg35
S'22'
p120
sg37
S'SYR'
p121
sg39
g40
sg41
g3
sg42
S'2.3'
p122
sg44
S'5.4'
p123
sg46
S'7.7'
p124
sg48
g3
sg49
S'1953-54'
p125
sg51
S'2.3'
p126
sg52
g3
sg53
S'.300'
p127
sg55
S'47'
p128
sg57
g3
sbasS'_fromYear'
p129
S'1954'
p130
sS'_url'
p131
S'http://www.basketball-reference.com/players/k/knostdi01.html'
p132
sS'_perGame'
p133
(isrc.gp1.models.PerGame
PerGame
p134
(dp135
g8
g3
sg9
g3
sg10
S'.300'
p136
sS'_effectiveFieldGalPercentage'
p137
S'.300'
p138
sg12
S'1.2'
p139
sg14
g3
sg15
g3
sg16
S'2.6'
p140
sg18
g19
sg20
S'.636'
p141
sg24
S'NBA'
p142
sg26
g3
sg29
S'1.8'
p143
sS'_fieldGoalsttempted'
p144
S'2.0'
p145
sg31
S'2.2'
p146
sg33
S'3.4'
p147
sg35
S'22'
p148
sg37
S'SYR'
p149
sg39
g40
sg41
g3
sg42
S'0.6'
p150
sg44
S'1.4'
p151
sg46
S'2.0'
p152
sg48
g3
sg49
S'1953-54'
p153
sg51
S'0.6'
p154
sg52
g3
sg53
S'.300'
p155
sg55
S'9.4'
p156
sg57
g3
sbsS'_weight'
p157
S'215'
p158
sS'_dob'
p159
S'9-8-1931'
p160
sS'_salary'
p161
(lp162
sg18
g19
sb.