(isrc.gp1.models.Player
Player
p0
(dp1
S'_experience'
p2
S'NA'
p3
sS'_totals'
p4
(lp5
(isrc.gp1.models.Totals
Totals
p6
(dp7
S'_offensiveRebounds'
p8
g3
sS'_threePointsAttempted'
p9
S'.300'
p10
sS'_fieldGoalsPercentage'
p11
S'3'
p12
sS'_assist'
p13
g3
sS'_threePointsPercentage'
p14
S'.300'
p15
sS'_threePoints'
p16
S'10'
p17
sS'_points'
p18
g3
sS'_position'
p19
S'C'
p20
sS'_freeThrowsPercentage'
p21
S'13'
p22
sS'_effectiveFieldGoalPercentage'
p23
S'17'
p24
sS'_league'
p25
S'NBA'
p26
sS'_steals'
p27
g3
sS'_fieldGoalsAttempted'
p28
S'.300'
p29
sS'_personalFouls'
p30
g3
sS'_freeThrowsAttempted'
p31
S'9'
p32
sS'_totalRebounds'
p33
g3
sS'_age'
p34
S'22'
p35
sS'_team'
p36
S'SYR'
p37
sS'_games'
p38
S'5'
p39
sS'_blocks'
p40
g3
sS'_twoPoints'
p41
S'7'
p42
sS'_freeThrows'
p43
S'6'
p44
sS'_twoPointsAttempted'
p45
S'11'
p46
sS'_defensiveRebounds'
p47
g3
sS'_season'
p48
S'1953-54'
p49
sS'_fieldGoals'
p50
S'10'
p51
sS'_turnOvers'
p52
g3
sS'_twoPointsPercentage'
p53
S'.636'
p54
sS'_minutesPlayed'
p55
g12
sS'_gamesStarted'
p56
S'47'
p57
sbasS'_college'
p58
S'Kansas State University'
p59
sS'_toYear'
p60
S'1954'
p61
sS'_height'
p62
S'6-6'
p63
sS'_active'
p64
I00
sS'_shootingHand'
p65
VRight
p66
sS'_name'
p67
S'Dick Knostman'
p68
sS'_per100Possessions'
p69
(lp70
sS'_advanced'
p71
(lp72
(isrc.gp1.models.Advanced
Advanced
p73
(dp74
S'_offensiveReboundPercentage'
p75
S'0.1'
p76
sS'_turnOverPercentage'
p77
g3
sS'_winSharesPer48Minutes'
p78
g3
sS'_stealPercentage'
p79
g3
sS'_usagePercentage'
p80
g3
sS'_totalReboundsPercentage'
p81
S'.183'
p82
sS'_defensiveBoxPlusMinus'
p83
g3
sg19
g20
sS'_valueOverReplacementPlayer'
p84
g3
sS'_trueShootingPercentage'
p85
S'.438'
p86
sS'_defensiveReboundPercentage'
p87
S'0.2'
p88
sS'_freeThrowsAttempRate'
p89
S'0.0'
p90
sS'_threePointsAttempRate'
p91
S'1.100'
p92
sg25
S'NBA'
p93
sS'_offensiveBoxPlusMinues'
p94
g3
sS'_assistPercentage'
p95
g3
sS'_defensiveWinShares'
p96
g3
sg34
S'22'
p97
sg36
S'SYR'
p98
sg38
g39
sS'_blockPercentage'
p99
g3
sS'_playerEfficiencyRating'
p100
S'17.4'
p101
sS'_offensiveWinShares'
p102
g3
sg55
S'47'
p103
sS'_boxPlusMinus'
p104
g3
sg48
S'1953-54'
p105
sS'_winShares'
p106
g3
sbasS'_per36Minutes'
p107
(lp108
(isrc.gp1.models.Per36Minutes
Per36Minutes
p109
(dp110
g8
g3
sg9
S'.300'
p111
sg11
S'2.3'
p112
sg13
g3
sg14
S'5.4'
p113
sg16
S'7.7'
p114
sg18
g3
sg19
g20
sg21
S'10.0'
p115
sg25
S'NBA'
p116
sg27
g3
sg28
S'.300'
p117
sg30
g3
sg31
S'6.9'
p118
sg33
g3
sg34
S'22'
p119
sg36
S'SYR'
p120
sg38
g39
sg40
g3
sg41
S'8.4'
p121
sg43
S'4.6'
p122
sg45
S'.636'
p123
sg47
g3
sg48
S'1953-54'
p124
sg50
S'7.7'
p125
sg52
g3
sg53
S'13.0'
p126
sg55
S'2.3'
p127
sg56
S'47'
p128
sbasS'_fromYear'
p129
S'1954'
p130
sS'_url'
p131
S'http://www.basketball-reference.com/players/k/knostdi01.html'
p132
sS'_perGame'
p133
(isrc.gp1.models.PerGame
PerGame
p134
(dp135
g8
g3
sg9
S'.300'
p136
sg11
S'0.6'
p137
sS'_effectiveFieldGalPercentage'
p138
S'3.4'
p139
sg13
g3
sg14
S'.300'
p140
sg16
S'2.0'
p141
sg18
g3
sg19
g20
sg21
S'2.6'
p142
sg25
S'NBA'
p143
sg27
g3
sg30
g3
sS'_fieldGoalsttempted'
p144
S'.300'
p145
sg31
S'1.8'
p146
sg33
g3
sg34
S'22'
p147
sg36
S'SYR'
p148
sg38
g39
sg40
g3
sg41
S'1.4'
p149
sg43
S'1.2'
p150
sg45
S'2.2'
p151
sg47
g3
sg48
S'1953-54'
p152
sg50
S'2.0'
p153
sg52
g3
sg53
S'.636'
p154
sg55
S'0.6'
p155
sg56
S'9.4'
p156
sbsS'_weight'
p157
S'215'
p158
sS'_dob'
p159
S'9-8-1931'
p160
sS'_salary'
p161
(lp162
sg19
g20
sb.