(isrc.gp1.models.Player
Player
p0
(dp1
S'_experience'
p2
S'NA'
p3
sS'_totals'
p4
(lp5
(isrc.gp1.models.Totals
Totals
p6
(dp7
S'_offensiveRebounds'
p8
g3
sS'_threePointsAttempted'
p9
S'.213'
p10
sS'_fieldGoalsPercentage'
p11
S'13'
p12
sS'_assist'
p13
g3
sS'_threePointsPercentage'
p14
S'.213'
p15
sS'_threePoints'
p16
S'61'
p17
sS'_points'
p18
g3
sS'_position'
p19
S'SF'
p20
sS'_freeThrowsPercentage'
p21
S'45'
p22
sS'_effectiveFieldGoalPercentage'
p23
S'25'
p24
sS'_league'
p25
S'NBA'
p26
sS'_steals'
p27
g3
sS'_fieldGoalsAttempted'
p28
S'.213'
p29
sS'_personalFouls'
p30
g3
sS'_freeThrowsAttempted'
p31
S'36'
p32
sS'_totalRebounds'
p33
g3
sS'_age'
p34
S'23'
p35
sS'_team'
p36
S'NYK'
p37
sS'_games'
p38
S'26'
p39
sS'_blocks'
p40
g3
sS'_twoPoints'
p41
S'19'
p42
sS'_freeThrows'
p43
S'9'
p44
sS'_twoPointsAttempted'
p45
S'30'
p46
sS'_defensiveRebounds'
p47
g3
sS'_season'
p48
S'1952-53'
p49
sS'_fieldGoals'
p50
S'61'
p51
sS'_turnOvers'
p52
g3
sS'_twoPointsPercentage'
p53
S'.633'
p54
sS'_minutesPlayed'
p55
S'13'
p56
sS'_gamesStarted'
p57
S'187'
p58
sba(isrc.gp1.models.Totals
Totals
p59
(dp60
g8
g3
sg9
S'.333'
p61
sg11
S'43'
p62
sg13
g3
sg14
S'.333'
p63
sg16
S'129'
p64
sg18
g3
sg19
S'PF'
p65
sg21
S'133'
p66
sg23
S'69'
p67
sg25
S'NBA'
p68
sg27
g3
sg28
S'.333'
p69
sg30
g3
sg31
S'53'
p70
sg33
g3
sg34
S'24'
p71
sg36
S'MLH'
p72
sg38
S'32'
p73
sg40
g3
sg41
S'47'
p74
sg43
S'23'
p75
sg45
S'62'
p76
sg47
g3
sg48
S'1953-54'
p77
sg50
S'129'
p78
sg52
g3
sg53
S'.758'
p79
sg55
S'43'
p80
sg57
S'358'
p81
sbasS'_college'
p82
S'Long Island University'
p83
sS'_toYear'
p84
S'1954'
p85
sS'_height'
p86
S'6-4'
p87
sS'_active'
p88
I00
sS'_shootingHand'
p89
VRight
p90
sS'_name'
p91
S'Dick Surhoff'
p92
sS'_per100Possessions'
p93
(lp94
sS'_advanced'
p95
(lp96
(isrc.gp1.models.Advanced
Advanced
p97
(dp98
S'_offensiveReboundPercentage'
p99
S'0.2'
p100
sS'_turnOverPercentage'
p101
g3
sS'_winSharesPer48Minutes'
p102
g3
sS'_stealPercentage'
p103
g3
sS'_usagePercentage'
p104
g3
sS'_totalReboundsPercentage'
p105
S'-0.106'
p106
sS'_defensiveBoxPlusMinus'
p107
g3
sg19
S'SF'
p108
sS'_valueOverReplacementPlayer'
p109
g3
sS'_trueShootingPercentage'
p110
S'.303'
p111
sS'_defensiveReboundPercentage'
p112
S'-0.4'
p113
sS'_freeThrowsAttempRate'
p114
S'-0.6'
p115
sS'_threePointsAttempRate'
p116
S'.492'
p117
sg25
S'NBA'
p118
sS'_offensiveBoxPlusMinues'
p119
g3
sS'_assistPercentage'
p120
g3
sS'_defensiveWinShares'
p121
g3
sg34
S'23'
p122
sg36
S'NYK'
p123
sg38
S'26'
p124
sS'_blockPercentage'
p125
g3
sS'_playerEfficiencyRating'
p126
S'1.5'
p127
sS'_offensiveWinShares'
p128
g3
sg55
S'187'
p129
sS'_boxPlusMinus'
p130
g3
sg48
S'1952-53'
p131
sS'_winShares'
p132
g3
sba(isrc.gp1.models.Advanced
Advanced
p133
(dp134
g99
S'0.3'
p135
sg101
g3
sg102
g3
sg103
g3
sg104
g3
sg105
S'.075'
p136
sg107
g3
sg19
S'PF'
p137
sg109
g3
sg110
S'.426'
p138
sg112
S'0.6'
p139
sg114
S'0.2'
p140
sg116
S'.481'
p141
sg25
S'NBA'
p142
sg119
g3
sg120
g3
sg121
g3
sg34
S'24'
p143
sg36
S'MLH'
p144
sg38
S'32'
p145
sg125
g3
sg126
S'14.4'
p146
sg128
g3
sg55
S'358'
p147
sg130
g3
sg48
S'1953-54'
p148
sg132
g3
sbasS'_per36Minutes'
p149
(lp150
(isrc.gp1.models.Per36Minutes
Per36Minutes
p151
(dp152
g8
g3
sg9
S'.213'
p153
sg11
S'2.5'
p154
sg13
g3
sg14
S'3.7'
p155
sg16
S'11.7'
p156
sg18
g3
sg19
S'SF'
p157
sg21
S'8.7'
p158
sg25
S'NBA'
p159
sg27
g3
sg28
S'.213'
p160
sg30
g3
sg31
S'6.9'
p161
sg33
g3
sg34
S'23'
p162
sg36
S'NYK'
p163
sg38
S'26'
p164
sg40
g3
sg41
S'5.8'
p165
sg43
S'1.7'
p166
sg45
S'.633'
p167
sg47
g3
sg48
S'1952-53'
p168
sg50
S'11.7'
p169
sg52
g3
sg53
S'4.8'
p170
sg55
S'2.5'
p171
sg57
S'187'
p172
sba(isrc.gp1.models.Per36Minutes
Per36Minutes
p173
(dp174
g8
g3
sg9
S'.333'
p175
sg11
S'4.3'
p176
sg13
g3
sg14
S'4.7'
p177
sg16
S'13.0'
p178
sg18
g3
sg19
S'PF'
p179
sg21
S'13.4'
p180
sg25
S'NBA'
p181
sg27
g3
sg28
S'.333'
p182
sg30
g3
sg31
S'5.3'
p183
sg33
g3
sg34
S'24'
p184
sg36
S'MLH'
p185
sg38
S'32'
p186
sg40
g3
sg41
S'6.2'
p187
sg43
S'2.3'
p188
sg45
S'.758'
p189
sg47
g3
sg48
S'1953-54'
p190
sg50
S'13.0'
p191
sg52
g3
sg53
S'6.9'
p192
sg55
S'4.3'
p193
sg57
S'358'
p194
sbasS'_fromYear'
p195
S'1953'
p196
sS'_url'
p197
S'http://www.basketball-reference.com/players/s/surhodi01.html'
p198
sS'_perGame'
p199
(isrc.gp1.models.PerGame
PerGame
p200
(dp201
g8
g3
sg9
S'.333'
p202
sg11
S'1.3'
p203
sS'_effectiveFieldGalPercentage'
p204
S'2.2'
p205
sg13
g3
sg14
S'.333'
p206
sg16
S'4.0'
p207
sg18
g3
sg19
S'PF'
p208
sg21
S'4.2'
p209
sg25
S'NBA'
p210
sg27
g3
sg30
g3
sS'_fieldGoalsttempted'
p211
S'.333'
p212
sg31
S'1.7'
p213
sg33
g3
sg34
S'24'
p214
sg36
S'MLH'
p215
sg38
S'32'
p216
sg40
g3
sg41
S'1.5'
p217
sg43
S'0.7'
p218
sg45
S'1.9'
p219
sg47
g3
sg48
S'1953-54'
p220
sg50
S'4.0'
p221
sg52
g3
sg53
S'.758'
p222
sg55
S'1.3'
p223
sg57
S'11.2'
p224
sbsS'_weight'
p225
S'210'
p226
sS'_dob'
p227
S'16-11-1929'
p228
sS'_salary'
p229
(lp230
sg19
S'F'
p231
sb.