(isrc.gp1.models.Player
Player
p0
(dp1
S'_experience'
p2
V17
p3
sS'_totals'
p4
(lp5
(isrc.gp1.models.Totals
Totals
p6
(dp7
S'_offensiveRebounds'
p8
S'41'
p9
sS'_threePointsAttempted'
p10
S'68'
p11
sS'_fieldGoalsPercentage'
p12
S'.405'
p13
sS'_assist'
p14
S'47'
p15
sS'_threePointsPercentage'
p16
S'.206'
p17
sS'_threePoints'
p18
S'14'
p19
sS'_points'
p20
S'385'
p21
sS'_position'
p22
S'PF'
p23
sS'_freeThrowsPercentage'
p24
S'.773'
p25
sS'_effectiveFieldGoalPercentage'
p26
S'.426'
p27
sS'_league'
p28
S'NBA'
p29
sS'_steals'
p30
S'29'
p31
sS'_fieldGoalsAttempted'
p32
S'336'
p33
sS'_personalFouls'
p34
S'105'
p35
sS'_freeThrowsAttempted'
p36
S'128'
p37
sS'_totalRebounds'
p38
S'162'
p39
sS'_age'
p40
S'20'
p41
sS'_team'
p42
S'DAL'
p43
sS'_games'
p44
S'47'
p45
sS'_blocks'
p46
S'27'
p47
sS'_twoPoints'
p48
S'122'
p49
sS'_freeThrows'
p50
S'99'
p51
sS'_twoPointsAttempted'
p52
S'268'
p53
sS'_defensiveRebounds'
p54
S'121'
p55
sS'_season'
p56
S'1998-99'
p57
sS'_fieldGoals'
p58
S'136'
p59
sS'_turnOvers'
p60
S'73'
p61
sS'_twoPointsPercentage'
p62
S'.455'
p63
sS'_minutesPlayed'
p64
S'958'
p65
sS'_gamesStarted'
p66
S'24'
p67
sba(isrc.gp1.models.Totals
Totals
p68
(dp69
g8
S'102'
p70
sg10
S'306'
p71
sg12
S'.461'
p72
sg14
S'203'
p73
sg16
S'.379'
p74
sg18
S'116'
p75
sg20
S'1435'
p76
sg22
S'PF'
p77
sg24
S'.830'
p78
sg26
S'.513'
p79
sg28
S'NBA'
p80
sg30
S'63'
p81
sg32
S'1118'
p82
sg34
S'256'
p83
sg36
S'348'
p84
sg38
S'532'
p85
sg40
S'21'
p86
sg42
S'DAL'
p87
sg44
S'82'
p88
sg46
S'68'
p89
sg48
S'399'
p90
sg50
S'289'
p91
sg52
S'812'
p92
sg54
S'430'
p93
sg56
S'1999-00'
p94
sg58
S'515'
p95
sg60
S'141'
p96
sg62
S'.491'
p97
sg64
S'2938'
p98
sg66
S'81'
p99
sba(isrc.gp1.models.Totals
Totals
p100
(dp101
g8
S'119'
p102
sg10
S'390'
p103
sg12
S'.474'
p104
sg14
S'173'
p105
sg16
S'.387'
p106
sg18
S'151'
p107
sg20
S'1784'
p108
sg22
S'PF'
p109
sg24
S'.838'
p110
sg26
S'.534'
p111
sg28
S'NBA'
p112
sg30
S'79'
p113
sg32
S'1247'
p114
sg34
S'245'
p115
sg36
S'538'
p116
sg38
S'754'
p117
sg40
S'22'
p118
sg42
S'DAL'
p119
sg44
S'82'
p120
sg46
S'101'
p121
sg48
S'440'
p122
sg50
S'451'
p123
sg52
S'857'
p124
sg54
S'635'
p125
sg56
S'2000-01'
p126
sg58
S'591'
p127
sg60
S'156'
p128
sg62
S'.513'
p129
sg64
S'3125'
p130
sg66
S'82'
p131
sba(isrc.gp1.models.Totals
Totals
p132
(dp133
g8
S'635'
p134
sg10
S'.397'
p135
sg12
S'139'
p136
sg14
S'83'
p137
sg16
S'461'
p138
sg18
S'350'
p139
sg20
S'NA'
p140
sg22
S'76'
p141
sg24
S'120'
p142
sg26
S'440'
p143
sg28
S'C'
p144
sg30
S'77'
p145
sg32
S'.477'
p146
sg34
S'1779'
p147
sg36
S'.853'
p148
sg38
S'186'
p149
sg40
S'DAL'
p150
sg42
S'NBA'
p151
sg44
S'76'
p152
sg46
S'145'
p153
sg48
S'908'
p154
sg50
S'516'
p155
sg52
S'.508'
p156
sg54
S'755'
p157
sg56
S'23'
p158
sg58
S'1258'
p159
sg60
S'222'
p160
sg62
S'.532'
p161
sg64
S'600'
p162
sg66
S'2891'
p163
sba(isrc.gp1.models.Totals
Totals
p164
(dp165
g8
S'710'
p166
sg10
S'.379'
p167
sg12
S'148'
p168
sg14
S'111'
p169
sg16
S'542'
p170
sg18
S'390'
p171
sg20
g140
sg22
S'80'
p172
sg24
S'81'
p173
sg26
S'483'
p174
sg28
S'PF'
p175
sg30
S'82'
p176
sg32
S'.463'
p177
sg34
S'2011'
p178
sg36
S'.881'
p179
sg38
S'239'
p180
sg40
S'DAL'
p181
sg42
S'NBA'
p182
sg44
S'80'
p183
sg46
S'152'
p184
sg48
S'1099'
p185
sg50
S'548'
p186
sg52
S'.493'
p187
sg54
S'791'
p188
sg56
S'24'
p189
sg58
S'1489'
p190
sg60
S'206'
p191
sg62
S'.513'
p192
sg64
S'690'
p193
sg66
S'3117'
p194
sba(isrc.gp1.models.Totals
Totals
p195
(dp196
g8
S'580'
p197
sg10
S'.341'
p198
sg12
S'99'
p199
sg14
S'92'
p200
sg16
S'506'
p201
sg18
S'290'
p202
sg20
g140
sg22
S'77'
p203
sg24
S'90'
p204
sg26
S'371'
p205
sg28
g144
sg30
S'104'
p206
sg32
S'.462'
p207
sg34
S'1680'
p208
sg36
S'.877'
p209
sg38
S'207'
p210
sg40
S'DAL'
p211
sg42
S'NBA'
p212
sg44
S'77'
p213
sg46
S'135'
p214
sg48
S'1020'
p215
sg50
S'423'
p216
sg52
S'.496'
p217
sg54
S'670'
p218
sg56
S'25'
p219
sg58
S'1310'
p220
sg60
S'216'
p221
sg62
S'.500'
p222
sg64
S'605'
p223
sg66
S'2915'
p224
sba(isrc.gp1.models.Totals
Totals
p225
(dp226
g8
S'661'
p227
sg10
S'.399'
p228
sg12
S'91'
p229
sg14
S'97'
p230
sg16
S'572'
p231
sg18
S'228'
p232
sg20
g140
sg22
S'78'
p233
sg24
S'96'
p234
sg26
S'615'
p235
sg28
S'PF'
p236
sg30
S'119'
p237
sg32
S'.459'
p238
sg34
S'2032'
p239
sg36
S'.869'
p240
sg38
S'240'
p241
sg40
S'DAL'
p242
sg42
S'NBA'
p243
sg44
S'78'
p244
sg46
S'176'
p245
sg48
S'1217'
p246
sg50
S'708'
p247
sg52
S'.470'
p248
sg54
S'757'
p249
sg56
S'26'
p250
sg58
S'1445'
p251
sg60
S'219'
p252
sg62
S'.490'
p253
sg64
S'663'
p254
sg66
S'3020'
p255
sba(isrc.gp1.models.Totals
Totals
p256
(dp257
g8
S'613'
p258
sg10
S'.406'
p259
sg12
S'110'
p260
sg14
S'58'
p261
sg16
S'641'
p262
sg18
S'271'
p263
sg20
g140
sg22
S'81'
p264
sg24
S'115'
p265
sg26
S'539'
p266
sg28
S'PF'
p267
sg30
S'83'
p268
sg32
S'.480'
p269
sg34
S'2151'
p270
sg36
S'.901'
p271
sg38
S'226'
p272
sg40
S'DAL'
p273
sg42
S'NBA'
p274
sg44
S'81'
p275
sg46
S'156'
p276
sg48
S'1293'
p277
sg50
S'598'
p278
sg52
S'.496'
p279
sg54
S'728'
p280
sg56
S'27'
p281
sg58
S'1564'
p282
sg60
S'164'
p283
sg62
S'.515'
p284
sg64
S'751'
p285
sg66
S'3089'
p286
sba(isrc.gp1.models.Totals
Totals
p287
(dp288
g8
S'571'
p289
sg10
S'.416'
p290
sg12
S'72'
p291
sg14
S'52'
p292
sg16
S'601'
p293
sg18
S'173'
p294
sg20
g140
sg22
S'78'
p295
sg24
S'122'
p296
sg26
S'498'
p297
sg28
S'PF'
p298
sg30
S'62'
p299
sg32
S'.502'
p300
sg34
S'1916'
p301
sg36
S'.904'
p302
sg38
S'263'
p303
sg40
S'DAL'
p304
sg42
S'NBA'
p305
sg44
S'78'
p306
sg46
S'167'
p307
sg48
S'1168'
p308
sg50
S'551'
p309
sg52
S'.515'
p310
sg54
S'693'
p311
sg56
S'28'
p312
sg58
S'1341'
p313
sg60
S'171'
p314
sg62
S'.529'
p315
sg64
S'673'
p316
sg66
S'2820'
p317
sba(isrc.gp1.models.Totals
Totals
p318
(dp319
g8
S'564'
p320
sg10
S'.359'
p321
sg12
S'79'
p322
sg14
S'51'
p323
sg16
S'551'
p324
sg18
S'220'
p325
sg20
g140
sg22
S'77'
p326
sg24
S'95'
p327
sg26
S'478'
p328
sg28
S'PF'
p329
sg30
S'71'
p330
sg32
S'.479'
p331
sg34
S'1817'
p332
sg36
S'.879'
p333
sg38
S'266'
p334
sg40
S'DAL'
p335
sg42
S'NBA'
p336
sg44
S'77'
p337
sg46
S'160'
p338
sg48
S'1094'
p339
sg50
S'544'
p340
sg52
S'.504'
p341
sg54
S'659'
p342
sg56
S'29'
p343
sg58
S'1314'
p344
sg60
S'198'
p345
sg62
S'.510'
p346
sg64
S'630'
p347
sg66
S'2769'
p348
sba(isrc.gp1.models.Totals
Totals
p349
(dp350
g8
S'593'
p351
sg10
S'.359'
p352
sg12
S'61'
p353
sg14
S'61'
p354
sg16
S'713'
p355
sg18
S'170'
p356
sg20
g140
sg22
S'81'
p357
sg24
S'88'
p358
sg26
S'485'
p359
sg28
S'PF'
p360
sg30
S'63'
p361
sg32
S'.479'
p362
sg34
S'2094'
p363
sg36
S'.890'
p364
sg38
S'197'
p365
sg40
S'DAL'
p366
sg42
S'NBA'
p367
sg44
S'81'
p368
sg46
S'157'
p369
sg48
S'1446'
p370
sg50
S'545'
p371
sg52
S'.493'
p372
sg54
S'681'
p373
sg56
S'30'
p374
sg58
S'1616'
p375
sg60
S'176'
p376
sg62
S'.498'
p377
sg64
S'774'
p378
sg66
S'3050'
p379
sba(isrc.gp1.models.Totals
Totals
p380
(dp381
g8
S'540'
p382
sg10
S'.421'
p383
sg12
S'51'
p384
sg14
S'70'
p385
sg16
S'669'
p386
sg18
S'121'
p387
sg20
g140
sg22
S'81'
p388
sg24
S'80'
p389
sg26
S'536'
p390
sg28
S'PF'
p391
sg30
S'79'
p392
sg32
S'.481'
p393
sg34
S'2027'
p394
sg36
S'.915'
p395
sg38
S'218'
p396
sg40
S'DAL'
p397
sg42
S'NBA'
p398
sg44
S'80'
p399
sg46
S'149'
p400
sg48
S'1375'
p401
sg50
S'586'
p402
sg52
S'.487'
p403
sg54
S'620'
p404
sg56
S'31'
p405
sg58
S'1496'
p406
sg60
S'208'
p407
sg62
S'.498'
p408
sg64
S'720'
p409
sg66
S'3039'
p410
sba(isrc.gp1.models.Totals
Totals
p411
(dp412
g8
S'463'
p413
sg10
S'.393'
p414
sg12
S'66'
p415
sg14
S'38'
p416
sg16
S'544'
p417
sg18
S'168'
p418
sg20
g140
sg22
S'73'
p419
sg24
S'50'
p420
sg26
S'395'
p421
sg28
S'PF'
p422
sg30
S'47'
p423
sg32
S'.517'
p424
sg34
S'1681'
p425
sg36
S'.892'
p426
sg38
S'190'
p427
sg40
S'DAL'
p428
sg42
S'NBA'
p429
sg44
S'73'
p430
sg46
S'137'
p431
sg48
S'1011'
p432
sg50
S'443'
p433
sg52
S'.538'
p434
sg54
S'513'
p435
sg56
S'32'
p436
sg58
S'1179'
p437
sg60
S'172'
p438
sg62
S'.545'
p439
sg64
S'610'
p440
sg66
S'2504'
p441
sba(isrc.gp1.models.Totals
Totals
p442
(dp443
g8
S'372'
p444
sg10
S'.368'
p445
sg12
S'78'
p446
sg14
S'42'
p447
sg16
S'395'
p448
sg18
S'212'
p449
sg20
g140
sg22
S'62'
p450
sg24
S'46'
p451
sg26
S'318'
p452
sg28
S'PF'
p453
sg30
S'30'
p454
sg32
S'.457'
p455
sg34
S'1342'
p456
sg36
S'.896'
p457
sg38
S'136'
p458
sg40
S'DAL'
p459
sg42
S'NBA'
p460
sg44
S'62'
p461
sg46
S'117'
p462
sg48
S'822'
p463
sg50
S'355'
p464
sg52
S'.481'
p465
sg54
S'418'
p466
sg56
S'33'
p467
sg58
S'1034'
p468
sg60
S'129'
p469
sg62
S'.495'
p470
sg64
S'473'
p471
sg66
S'2079'
p472
sba(isrc.gp1.models.Totals
Totals
p473
(dp474
g8
S'37'
p475
sg10
S'157'
p476
sg12
S'.471'
p477
sg14
S'132'
p478
sg16
S'.414'
p479
sg18
S'65'
p480
sg20
S'917'
p481
sg22
S'PF'
p482
sg24
S'.860'
p483
sg26
S'.516'
p484
sg28
S'NBA'
p485
sg30
S'38'
p486
sg32
S'728'
p487
sg34
S'93'
p488
sg36
S'193'
p489
sg38
S'363'
p490
sg40
S'34'
p491
sg42
S'DAL'
p492
sg44
S'53'
p493
sg46
S'37'
p494
sg48
S'278'
p495
sg50
S'166'
p496
sg52
S'571'
p497
sg54
S'326'
p498
sg56
S'2012-13'
p499
sg58
S'343'
p500
sg60
S'70'
p501
sg62
S'.487'
p502
sg64
S'1661'
p503
sg66
S'47'
p504
sba(isrc.gp1.models.Totals
Totals
p505
(dp506
g8
S'458'
p507
sg10
S'.398'
p508
sg12
S'131'
p509
sg14
S'73'
p510
sg16
S'502'
p511
sg18
S'329'
p512
sg20
g140
sg22
S'80'
p513
sg24
S'40'
p514
sg26
S'338'
p515
sg28
S'PF'
p516
sg30
S'45'
p517
sg32
S'.497'
p518
sg34
S'1735'
p519
sg36
S'.899'
p520
sg38
S'216'
p521
sg40
S'DAL'
p522
sg42
S'NBA'
p523
sg44
S'80'
p524
sg46
S'117'
p525
sg48
S'944'
p526
sg50
S'376'
p527
sg52
S'.532'
p528
sg54
S'498'
p529
sg56
S'35'
p530
sg58
S'1273'
p531
sg60
S'165'
p532
sg62
S'.549'
p533
sg64
S'633'
p534
sg66
S'2628'
p535
sba(isrc.gp1.models.Totals
Totals
p536
(dp537
g8
S'413'
p538
sg10
S'.380'
p539
sg12
S'104'
p540
sg14
S'39'
p541
sg16
S'383'
p542
sg18
S'274'
p543
sg20
g140
sg22
S'77'
p544
sg24
S'44'
p545
sg26
S'255'
p546
sg28
S'PF'
p547
sg30
S'33'
p548
sg32
S'.459'
p549
sg34
S'1333'
p550
sg36
S'.882'
p551
sg38
S'143'
p552
sg40
S'DAL'
p553
sg42
S'NBA'
p554
sg44
S'77'
p555
sg46
S'82'
p556
sg48
S'788'
p557
sg50
S'289'
p558
sg52
S'.486'
p559
sg54
S'457'
p560
sg56
S'36'
p561
sg58
S'1062'
p562
sg60
S'160'
p563
sg62
S'.508'
p564
sg64
S'487'
p565
sg66
S'2282'
p566
sba(isrc.gp1.models.Totals
Totals
p567
(dp568
g8
S'33'
p569
sg10
S'196'
p570
sg12
S'.448'
p571
sg14
S'79'
p572
sg16
S'.398'
p573
sg18
S'78'
p574
sg20
S'825'
p575
sg22
S'PF'
p576
sg24
S'.904'
p577
sg26
S'.507'
p578
sg28
S'NBA'
p579
sg30
S'31'
p580
sg32
S'665'
p581
sg34
S'87'
p582
sg36
S'167'
p583
sg38
S'309'
p584
sg40
S'37'
p585
sg42
S'DAL'
p586
sg44
S'47'
p587
sg46
S'33'
p588
sg48
S'220'
p589
sg50
S'151'
p590
sg52
S'469'
p591
sg54
S'276'
p592
sg56
S'2015-16'
p593
sg58
S'298'
p594
sg60
S'49'
p595
sg62
S'.469'
p596
sg64
S'1441'
p597
sg66
S'47'
p598
sbasS'_college'
p599
S'NA'
p600
sS'_toYear'
p601
S'2016'
p602
sS'_height'
p603
S'7-0'
p604
sS'_active'
p605
I01
sS'_shootingHand'
p606
VRight
p607
sS'_name'
p608
S'Dirk Nowitzki'
p609
sS'_per100Possessions'
p610
(lp611
(isrc.gp1.models.Per100Possession
Per100Possession
p612
(dp613
g8
S'2.3'
p614
sg10
S'3.8'
p615
sg12
S'.405'
p616
sS'_offensiveRating'
p617
S'95'
p618
sg14
S'2.6'
p619
sg16
S'.206'
p620
sg18
S'0.8'
p621
sg20
S'21.7'
p622
sg22
S'PF'
p623
sS'_defensiveRating'
p624
S'104'
p625
sg24
S'.773'
p626
sg28
S'NBA'
p627
sg30
S'1.6'
p628
sg32
S'18.9'
p629
sg34
S'5.9'
p630
sg36
S'7.2'
p631
sg38
S'9.1'
p632
sg40
S'20'
p633
sg42
S'DAL'
p634
sg44
S'47'
p635
sg46
S'1.5'
p636
sg48
S'6.9'
p637
sg50
S'5.6'
p638
sg52
S'15.1'
p639
sg54
S'6.8'
p640
sg56
S'1998-99'
p641
sg58
S'7.7'
p642
sg60
S'4.1'
p643
sg62
S'.455'
p644
sg64
S'958'
p645
sg66
S'24'
p646
sba(isrc.gp1.models.Per100Possession
Per100Possession
p647
(dp648
g8
S'1.8'
p649
sg10
S'5.3'
p650
sg12
S'.461'
p651
sg617
S'112'
p652
sg14
S'3.5'
p653
sg16
S'.379'
p654
sg18
S'2.0'
p655
sg20
S'24.7'
p656
sg22
S'PF'
p657
sg624
S'107'
p658
sg24
S'.830'
p659
sg28
S'NBA'
p660
sg30
S'1.1'
p661
sg32
S'19.2'
p662
sg34
S'4.4'
p663
sg36
S'6.0'
p664
sg38
S'9.2'
p665
sg40
S'21'
p666
sg42
S'DAL'
p667
sg44
S'82'
p668
sg46
S'1.2'
p669
sg48
S'6.9'
p670
sg50
S'5.0'
p671
sg52
S'14.0'
p672
sg54
S'7.4'
p673
sg56
S'1999-00'
p674
sg58
S'8.9'
p675
sg60
S'2.4'
p676
sg62
S'.491'
p677
sg64
S'2938'
p678
sg66
S'81'
p679
sba(isrc.gp1.models.Per100Possession
Per100Possession
p680
(dp681
g8
S'2.0'
p682
sg10
S'6.4'
p683
sg12
S'.474'
p684
sg617
S'118'
p685
sg14
S'2.9'
p686
sg16
S'.387'
p687
sg18
S'2.5'
p688
sg20
S'29.4'
p689
sg22
S'PF'
p690
sg624
S'100'
p691
sg24
S'.838'
p692
sg28
S'NBA'
p693
sg30
S'1.3'
p694
sg32
S'20.5'
p695
sg34
S'4.0'
p696
sg36
S'8.9'
p697
sg38
S'12.4'
p698
sg40
S'22'
p699
sg42
S'DAL'
p700
sg44
S'82'
p701
sg46
S'1.7'
p702
sg48
S'7.3'
p703
sg50
S'7.4'
p704
sg52
S'14.1'
p705
sg54
S'10.5'
p706
sg56
S'2000-01'
p707
sg58
S'9.7'
p708
sg60
S'2.6'
p709
sg62
S'.513'
p710
sg64
S'3125'
p711
sg66
S'82'
p712
sba(isrc.gp1.models.Per100Possession
Per100Possession
p713
(dp714
g8
S'11.4'
p715
sg10
S'.397'
p716
sg12
S'2.5'
p717
sg617
S'104'
p718
sg14
S'1.5'
p719
sg16
S'8.2'
p720
sg18
S'6.3'
p721
sg20
S'120'
p722
sg22
S'76'
p723
sg624
g140
sg24
S'2.1'
p724
sg28
g144
sg30
S'1.4'
p725
sg32
S'.477'
p726
sg34
S'31.8'
p727
sg36
S'.853'
p728
sg38
S'3.3'
p729
sg40
S'DAL'
p730
sg42
S'NBA'
p731
sg44
S'76'
p732
sg46
S'2.6'
p733
sg48
S'16.2'
p734
sg50
S'9.2'
p735
sg52
S'.508'
p736
sg54
S'13.5'
p737
sg56
S'23'
p738
sg58
S'22.5'
p739
sg60
S'4.0'
p740
sg62
S'7.9'
p741
sg64
S'10.7'
p742
sg66
S'2891'
p743
sba(isrc.gp1.models.Per100Possession
Per100Possession
p744
(dp745
g8
S'11.8'
p746
sg10
S'.379'
p747
sg12
S'2.5'
p748
sg617
S'98'
p749
sg14
S'1.8'
p750
sg16
S'9.0'
p751
sg18
S'6.5'
p752
sg20
S'117'
p753
sg22
S'80'
p754
sg624
g140
sg24
S'1.3'
p755
sg28
S'PF'
p756
sg30
S'1.4'
p757
sg32
S'.463'
p758
sg34
S'33.5'
p759
sg36
S'.881'
p760
sg38
S'4.0'
p761
sg40
S'DAL'
p762
sg42
S'NBA'
p763
sg44
S'80'
p764
sg46
S'2.5'
p765
sg48
S'18.3'
p766
sg50
S'9.1'
p767
sg52
S'.493'
p768
sg54
S'13.2'
p769
sg56
S'24'
p770
sg58
S'24.8'
p771
sg60
S'3.4'
p772
sg62
S'8.0'
p773
sg64
S'11.5'
p774
sg66
S'3117'
p775
sba(isrc.gp1.models.Per100Possession
Per100Possession
p776
(dp777
g8
S'10.2'
p778
sg10
S'.341'
p779
sg12
S'1.7'
p780
sg617
S'104'
p781
sg14
S'1.6'
p782
sg16
S'8.9'
p783
sg18
S'5.1'
p784
sg20
S'116'
p785
sg22
S'77'
p786
sg624
g140
sg24
S'1.6'
p787
sg28
g144
sg30
S'1.8'
p788
sg32
S'.462'
p789
sg34
S'29.7'
p790
sg36
S'.877'
p791
sg38
S'3.7'
p792
sg40
S'DAL'
p793
sg42
S'NBA'
p794
sg44
S'77'
p795
sg46
S'2.4'
p796
sg48
S'18.0'
p797
sg50
S'7.5'
p798
sg52
S'.496'
p799
sg54
S'11.8'
p800
sg56
S'25'
p801
sg58
S'23.1'
p802
sg60
S'3.8'
p803
sg62
S'6.6'
p804
sg64
S'10.7'
p805
sg66
S'2915'
p806
sba(isrc.gp1.models.Per100Possession
Per100Possession
p807
(dp808
g8
S'11.3'
p809
sg10
S'.399'
p810
sg12
S'1.6'
p811
sg617
S'100'
p812
sg14
S'1.7'
p813
sg16
S'9.8'
p814
sg18
S'3.9'
p815
sg20
S'118'
p816
sg22
S'78'
p817
sg624
g140
sg24
S'1.6'
p818
sg28
S'PF'
p819
sg30
S'2.0'
p820
sg32
S'.459'
p821
sg34
S'34.8'
p822
sg36
S'.869'
p823
sg38
S'4.1'
p824
sg40
S'DAL'
p825
sg42
S'NBA'
p826
sg44
S'78'
p827
sg46
S'3.0'
p828
sg48
S'20.9'
p829
sg50
S'12.1'
p830
sg52
S'.470'
p831
sg54
S'13.0'
p832
sg56
S'26'
p833
sg58
S'24.8'
p834
sg60
S'3.8'
p835
sg62
S'10.5'
p836
sg64
S'11.4'
p837
sg66
S'3020'
p838
sba(isrc.gp1.models.Per100Possession
Per100Possession
p839
(dp840
g8
S'10.9'
p841
sg10
S'.406'
p842
sg12
S'1.9'
p843
sg617
S'103'
p844
sg14
S'1.0'
p845
sg16
S'11.3'
p846
sg18
S'4.8'
p847
sg20
S'123'
p848
sg22
S'81'
p849
sg624
g140
sg24
S'2.0'
p850
sg28
S'PF'
p851
sg30
S'1.5'
p852
sg32
S'.480'
p853
sg34
S'38.1'
p854
sg36
S'.901'
p855
sg38
S'4.0'
p856
sg40
S'DAL'
p857
sg42
S'NBA'
p858
sg44
S'81'
p859
sg46
S'2.8'
p860
sg48
S'22.9'
p861
sg50
S'10.6'
p862
sg52
S'.496'
p863
sg54
S'12.9'
p864
sg56
S'27'
p865
sg58
S'27.7'
p866
sg60
S'2.9'
p867
sg62
S'9.5'
p868
sg64
S'13.3'
p869
sg66
S'3089'
p870
sba(isrc.gp1.models.Per100Possession
Per100Possession
p871
(dp872
g8
S'10.9'
p873
sg10
S'.416'
p874
sg12
S'1.4'
p875
sg617
S'102'
p876
sg14
S'1.0'
p877
sg16
S'11.4'
p878
sg18
S'3.3'
p879
sg20
S'123'
p880
sg22
S'78'
p881
sg624
g140
sg24
S'2.3'
p882
sg28
S'PF'
p883
sg30
S'1.2'
p884
sg32
S'.502'
p885
sg34
S'36.4'
p886
sg36
S'.904'
p887
sg38
S'5.0'
p888
sg40
S'DAL'
p889
sg42
S'NBA'
p890
sg44
S'78'
p891
sg46
S'3.2'
p892
sg48
S'22.2'
p893
sg50
S'10.5'
p894
sg52
S'.515'
p895
sg54
S'13.2'
p896
sg56
S'28'
p897
sg58
S'25.5'
p898
sg60
S'3.3'
p899
sg62
S'9.5'
p900
sg64
S'12.8'
p901
sg66
S'2820'
p902
sba(isrc.gp1.models.Per100Possession
Per100Possession
p903
(dp904
g8
S'10.8'
p905
sg10
S'.359'
p906
sg12
S'1.5'
p907
sg617
S'104'
p908
sg14
S'1.0'
p909
sg16
S'10.6'
p910
sg18
S'4.2'
p911
sg20
S'118'
p912
sg22
S'77'
p913
sg624
g140
sg24
S'1.8'
p914
sg28
S'PF'
p915
sg30
S'1.4'
p916
sg32
S'.479'
p917
sg34
S'34.9'
p918
sg36
S'.879'
p919
sg38
S'5.1'
p920
sg40
S'DAL'
p921
sg42
S'NBA'
p922
sg44
S'77'
p923
sg46
S'3.1'
p924
sg48
S'21.0'
p925
sg50
S'10.5'
p926
sg52
S'.504'
p927
sg54
S'12.7'
p928
sg56
S'29'
p929
sg58
S'25.3'
p930
sg60
S'3.8'
p931
sg62
S'9.2'
p932
sg64
S'12.1'
p933
sg66
S'2769'
p934
sba(isrc.gp1.models.Per100Possession
Per100Possession
p935
(dp936
g8
S'10.2'
p937
sg10
S'.359'
p938
sg12
S'1.0'
p939
sg617
S'108'
p940
sg14
S'1.0'
p941
sg16
S'12.3'
p942
sg18
S'2.9'
p943
sg20
S'114'
p944
sg22
S'81'
p945
sg624
g140
sg24
S'1.5'
p946
sg28
S'PF'
p947
sg30
S'1.1'
p948
sg32
S'.479'
p949
sg34
S'36.0'
p950
sg36
S'.890'
p951
sg38
S'3.4'
p952
sg40
S'DAL'
p953
sg42
S'NBA'
p954
sg44
S'81'
p955
sg46
S'2.7'
p956
sg48
S'24.9'
p957
sg50
S'9.4'
p958
sg52
S'.493'
p959
sg54
S'11.7'
p960
sg56
S'30'
p961
sg58
S'27.8'
p962
sg60
S'3.0'
p963
sg62
S'8.3'
p964
sg64
S'13.3'
p965
sg66
S'3050'
p966
sba(isrc.gp1.models.Per100Possession
Per100Possession
p967
(dp968
g8
S'9.2'
p969
sg10
S'.421'
p970
sg12
S'0.9'
p971
sg617
S'105'
p972
sg14
S'1.2'
p973
sg16
S'11.4'
p974
sg18
S'2.1'
p975
sg20
S'116'
p976
sg22
S'81'
p977
sg624
g140
sg24
S'1.4'
p978
sg28
S'PF'
p979
sg30
S'1.3'
p980
sg32
S'.481'
p981
sg34
S'34.6'
p982
sg36
S'.915'
p983
sg38
S'3.7'
p984
sg40
S'DAL'
p985
sg42
S'NBA'
p986
sg44
S'80'
p987
sg46
S'2.5'
p988
sg48
S'23.5'
p989
sg50
S'10.0'
p990
sg52
S'.487'
p991
sg54
S'10.6'
p992
sg56
S'31'
p993
sg58
S'25.5'
p994
sg60
S'3.6'
p995
sg62
S'9.2'
p996
sg64
S'12.3'
p997
sg66
S'3039'
p998
sba(isrc.gp1.models.Per100Possession
Per100Possession
p999
(dp1000
g8
S'9.7'
p1001
sg10
S'.393'
p1002
sg12
S'1.4'
p1003
sg617
S'105'
p1004
sg14
S'0.8'
p1005
sg16
S'11.4'
p1006
sg18
S'3.5'
p1007
sg20
S'118'
p1008
sg22
S'73'
p1009
sg624
g140
sg24
S'1.0'
p1010
sg28
S'PF'
p1011
sg30
S'1.0'
p1012
sg32
S'.517'
p1013
sg34
S'35.3'
p1014
sg36
S'.892'
p1015
sg38
S'4.0'
p1016
sg40
S'DAL'
p1017
sg42
S'NBA'
p1018
sg44
S'73'
p1019
sg46
S'2.9'
p1020
sg48
S'21.2'
p1021
sg50
S'9.3'
p1022
sg52
S'.538'
p1023
sg54
S'10.8'
p1024
sg56
S'32'
p1025
sg58
S'24.8'
p1026
sg60
S'3.6'
p1027
sg62
S'8.3'
p1028
sg64
S'12.8'
p1029
sg66
S'2504'
p1030
sba(isrc.gp1.models.Per100Possession
Per100Possession
p1031
(dp1032
g8
S'9.4'
p1033
sg10
S'.368'
p1034
sg12
S'2.0'
p1035
sg617
S'103'
p1036
sg14
S'1.1'
p1037
sg16
S'10.0'
p1038
sg18
S'5.4'
p1039
sg20
S'110'
p1040
sg22
S'62'
p1041
sg624
g140
sg24
S'1.2'
p1042
sg28
S'PF'
p1043
sg30
S'0.8'
p1044
sg32
S'.457'
p1045
sg34
S'33.9'
p1046
sg36
S'.896'
p1047
sg38
S'3.4'
p1048
sg40
S'DAL'
p1049
sg42
S'NBA'
p1050
sg44
S'62'
p1051
sg46
S'3.0'
p1052
sg48
S'20.8'
p1053
sg50
S'9.0'
p1054
sg52
S'.481'
p1055
sg54
S'10.6'
p1056
sg56
S'33'
p1057
sg58
S'26.1'
p1058
sg60
S'3.3'
p1059
sg62
S'8.0'
p1060
sg64
S'11.9'
p1061
sg66
S'2079'
p1062
sba(isrc.gp1.models.Per100Possession
Per100Possession
p1063
(dp1064
g8
S'1.1'
p1065
sg10
S'4.8'
p1066
sg12
S'.471'
p1067
sg617
S'111'
p1068
sg14
S'4.1'
p1069
sg16
S'.414'
p1070
sg18
S'2.0'
p1071
sg20
S'28.2'
p1072
sg22
S'PF'
p1073
sg624
S'106'
p1074
sg24
S'.860'
p1075
sg28
S'NBA'
p1076
sg30
S'1.2'
p1077
sg32
S'22.4'
p1078
sg34
S'2.9'
p1079
sg36
S'5.9'
p1080
sg38
S'11.2'
p1081
sg40
S'34'
p1082
sg42
S'DAL'
p1083
sg44
S'53'
p1084
sg46
S'1.1'
p1085
sg48
S'8.5'
p1086
sg50
S'5.1'
p1087
sg52
S'17.5'
p1088
sg54
S'10.0'
p1089
sg56
S'2012-13'
p1090
sg58
S'10.5'
p1091
sg60
S'2.2'
p1092
sg62
S'.487'
p1093
sg64
S'1661'
p1094
sg66
S'47'
p1095
sba(isrc.gp1.models.Per100Possession
Per100Possession
p1096
(dp1097
g8
S'8.9'
p1098
sg10
S'.398'
p1099
sg12
S'2.6'
p1100
sg617
S'108'
p1101
sg14
S'1.4'
p1102
sg16
S'9.8'
p1103
sg18
S'6.4'
p1104
sg20
S'120'
p1105
sg22
S'80'
p1106
sg624
g140
sg24
S'0.8'
p1107
sg28
S'PF'
p1108
sg30
S'0.9'
p1109
sg32
S'.497'
p1110
sg34
S'33.9'
p1111
sg36
S'.899'
p1112
sg38
S'4.2'
p1113
sg40
S'DAL'
p1114
sg42
S'NBA'
p1115
sg44
S'80'
p1116
sg46
S'2.3'
p1117
sg48
S'18.4'
p1118
sg50
S'7.3'
p1119
sg52
S'.532'
p1120
sg54
S'9.7'
p1121
sg56
S'35'
p1122
sg58
S'24.9'
p1123
sg60
S'3.2'
p1124
sg62
S'6.6'
p1125
sg64
S'12.4'
p1126
sg66
S'2628'
p1127
sba(isrc.gp1.models.Per100Possession
Per100Possession
p1128
(dp1129
g8
S'9.1'
p1130
sg10
S'.380'
p1131
sg12
S'2.3'
p1132
sg617
S'107'
p1133
sg14
S'0.9'
p1134
sg16
S'8.5'
p1135
sg18
S'6.1'
p1136
sg20
S'113'
p1137
sg22
S'77'
p1138
sg624
g140
sg24
S'1.0'
p1139
sg28
S'PF'
p1140
sg30
S'0.7'
p1141
sg32
S'.459'
p1142
sg34
S'29.5'
p1143
sg36
S'.882'
p1144
sg38
S'3.2'
p1145
sg40
S'DAL'
p1146
sg42
S'NBA'
p1147
sg44
S'77'
p1148
sg46
S'1.8'
p1149
sg48
S'17.4'
p1150
sg50
S'6.4'
p1151
sg52
S'.486'
p1152
sg54
S'10.1'
p1153
sg56
S'36'
p1154
sg58
S'23.5'
p1155
sg60
S'3.5'
p1156
sg62
S'5.6'
p1157
sg64
S'10.8'
p1158
sg66
S'2282'
p1159
sba(isrc.gp1.models.Per100Possession
Per100Possession
p1160
(dp1161
g8
S'1.2'
p1162
sg10
S'6.9'
p1163
sg12
S'.448'
p1164
sg617
S'111'
p1165
sg14
S'2.8'
p1166
sg16
S'.398'
p1167
sg18
S'2.8'
p1168
sg20
S'29.1'
p1169
sg22
S'PF'
p1170
sg624
S'104'
p1171
sg24
S'.904'
p1172
sg28
S'NBA'
p1173
sg30
S'1.1'
p1174
sg32
S'23.5'
p1175
sg34
S'3.1'
p1176
sg36
S'5.9'
p1177
sg38
S'10.9'
p1178
sg40
S'37'
p1179
sg42
S'DAL'
p1180
sg44
S'47'
p1181
sg46
S'1.2'
p1182
sg48
S'7.8'
p1183
sg50
S'5.3'
p1184
sg52
S'16.5'
p1185
sg54
S'9.7'
p1186
sg56
S'2015-16'
p1187
sg58
S'10.5'
p1188
sg60
S'1.7'
p1189
sg62
S'.469'
p1190
sg64
S'1441'
p1191
sg66
S'47'
p1192
sbasS'_advanced'
p1193
(lp1194
(isrc.gp1.models.Advanced
Advanced
p1195
(dp1196
S'_offensiveReboundPercentage'
p1197
S'4.8'
p1198
sS'_turnOverPercentage'
p1199
S'15.7'
p1200
sS'_winSharesPer48Minutes'
p1201
S'.040'
p1202
sS'_stealPercentage'
p1203
S'1.6'
p1204
sS'_usagePercentage'
p1205
S'22.3'
p1206
sS'_totalReboundsPercentage'
p1207
S'9.5'
p1208
sS'_defensiveBoxPlusMinus'
p1209
S'-0.9'
p1210
sg22
S'PF'
p1211
sS'_valueOverReplacementPlayer'
p1212
S'-0.2'
p1213
sS'_trueShootingPercentage'
p1214
S'.491'
p1215
sS'_defensiveReboundPercentage'
p1216
S'14.3'
p1217
sS'_freeThrowsAttempRate'
p1218
S'.381'
p1219
sS'_threePointsAttempRate'
p1220
S'.202'
p1221
sg28
S'NBA'
p1222
sS'_offensiveBoxPlusMinues'
p1223
S'-2.0'
p1224
sS'_assistPercentage'
p1225
S'8.4'
p1226
sS'_defensiveWinShares'
p1227
S'0.7'
p1228
sg40
S'20'
p1229
sg42
S'DAL'
p1230
sg44
S'47'
p1231
sS'_blockPercentage'
p1232
S'2.0'
p1233
sS'_playerEfficiencyRating'
p1234
S'12.8'
p1235
sS'_offensiveWinShares'
p1236
S'0.1'
p1237
sg64
S'958'
p1238
sS'_boxPlusMinus'
p1239
S'-2.9'
p1240
sg56
S'1998-99'
p1241
sS'_winShares'
p1242
S'0.8'
p1243
sba(isrc.gp1.models.Advanced
Advanced
p1244
(dp1245
g1197
S'3.8'
p1246
sg1199
S'10.0'
p1247
sg1201
S'.132'
p1248
sg1203
S'1.1'
p1249
sg1205
S'21.2'
p1250
sg1207
S'9.7'
p1251
sg1209
S'-0.6'
p1252
sg22
S'PF'
p1253
sg1212
S'2.7'
p1254
sg1214
S'.564'
p1255
sg1216
S'15.6'
p1256
sg1218
S'.311'
p1257
sg1220
S'.274'
p1258
sg28
S'NBA'
p1259
sg1223
S'2.3'
p1260
sg1225
S'10.9'
p1261
sg1227
S'1.9'
p1262
sg40
S'21'
p1263
sg42
S'DAL'
p1264
sg44
S'82'
p1265
sg1232
S'1.6'
p1266
sg1234
S'17.5'
p1267
sg1236
S'6.1'
p1268
sg64
S'2938'
p1269
sg1239
S'1.7'
p1270
sg56
S'1999-00'
p1271
sg1242
S'8.1'
p1272
sba(isrc.gp1.models.Advanced
Advanced
p1273
(dp1274
g1197
S'4.4'
p1275
sg1199
S'9.5'
p1276
sg1201
S'.224'
p1277
sg1203
S'1.3'
p1278
sg1205
S'23.8'
p1279
sg1207
S'13.5'
p1280
sg1209
S'0.5'
p1281
sg22
S'PF'
p1282
sg1212
S'5.3'
p1283
sg1214
S'.601'
p1284
sg1216
S'22.1'
p1285
sg1218
S'.431'
p1286
sg1220
S'.313'
p1287
sg28
S'NBA'
p1288
sg1223
S'4.3'
p1289
sg1225
S'9.4'
p1290
sg1227
S'4.3'
p1291
sg40
S'22'
p1292
sg42
S'DAL'
p1293
sg44
S'82'
p1294
sg1232
S'2.3'
p1295
sg1234
S'22.8'
p1296
sg1236
S'10.3'
p1297
sg64
S'3125'
p1298
sg1239
S'4.7'
p1299
sg56
S'2000-01'
p1300
sg1242
S'14.6'
p1301
sba(isrc.gp1.models.Advanced
Advanced
p1302
(dp1303
g1197
S'24.0'
p1304
sg1199
S'25.5'
p1305
sg1201
S'4.6'
p1306
sg1203
S'1.9'
p1307
sg1205
S'10.2'
p1308
sg1207
S'10.8'
p1309
sg1209
S'4.7'
p1310
sg22
S'76'
p1311
sg1212
g140
sg1214
S'.278'
p1312
sg1216
S'14.5'
p1313
sg1218
S'4.7'
p1314
sg1220
S'.410'
p1315
sg28
g144
sg1223
S'0.1'
p1316
sg1225
S'1.5'
p1317
sg1227
S'13.4'
p1318
sg40
S'DAL'
p1319
sg42
S'NBA'
p1320
sg44
S'2891'
p1321
sg1232
S'8.9'
p1322
sg1234
S'.599'
p1323
sg1236
S'3.1'
p1324
sg64
S'24.1'
p1325
sg1239
S'4.8'
p1326
sg56
S'23'
p1327
sg1242
S'.222'
p1328
sba(isrc.gp1.models.Advanced
Advanced
p1329
(dp1330
g1197
S'25.1'
p1331
sg1199
S'27.4'
p1332
sg1201
S'4.6'
p1333
sg1203
S'2.0'
p1334
sg1205
S'10.8'
p1335
sg1207
S'13.3'
p1336
sg1209
S'5.7'
p1337
sg22
S'80'
p1338
sg1212
g140
sg1214
S'.262'
p1339
sg1216
S'14.0'
p1340
sg1218
S'2.9'
p1341
sg1220
S'.368'
p1342
sg28
S'PF'
p1343
sg1223
S'1.0'
p1344
sg1225
S'1.8'
p1345
sg1227
S'16.1'
p1346
sg40
S'DAL'
p1347
sg42
S'NBA'
p1348
sg44
S'3117'
p1349
sg1232
S'8.1'
p1350
sg1234
S'.581'
p1351
sg1236
S'5.3'
p1352
sg64
S'25.6'
p1353
sg1239
S'6.1'
p1354
sg56
S'24'
p1355
sg1242
S'.249'
p1356
sba(isrc.gp1.models.Advanced
Advanced
p1357
(dp1358
g1197
S'22.2'
p1359
sg1199
S'24.5'
p1360
sg1201
S'3.5'
p1361
sg1203
S'2.6'
p1362
sg1205
S'9.0'
p1363
sg1207
S'11.3'
p1364
sg1209
S'3.4'
p1365
sg22
S'77'
p1366
sg1212
g140
sg1214
S'.221'
p1367
sg1216
S'12.5'
p1368
sg1218
S'3.3'
p1369
sg1220
S'.323'
p1370
sg28
g144
sg1223
S'0.0'
p1371
sg1225
S'1.6'
p1372
sg1227
S'11.5'
p1373
sg40
S'DAL'
p1374
sg42
S'NBA'
p1375
sg44
S'2915'
p1376
sg1232
S'8.3'
p1377
sg1234
S'.561'
p1378
sg1236
S'2.5'
p1379
sg64
S'22.5'
p1380
sg1239
S'4.0'
p1381
sg56
S'25'
p1382
sg1242
S'.190'
p1383
sba(isrc.gp1.models.Advanced
Advanced
p1384
(dp1385
g1197
S'24.0'
p1386
sg1199
S'28.7'
p1387
sg1201
S'4.0'
p1388
sg1203
S'2.9'
p1389
sg1205
S'10.3'
p1390
sg1207
S'14.3'
p1391
sg1209
S'5.7'
p1392
sg22
S'78'
p1393
sg1212
g140
sg1214
S'.158'
p1394
sg1216
S'14.0'
p1395
sg1218
S'3.6'
p1396
sg1220
S'.490'
p1397
sg28
S'PF'
p1398
sg1223
S'1.7'
p1399
sg1225
S'1.7'
p1400
sg1227
S'15.6'
p1401
sg40
S'DAL'
p1402
sg42
S'NBA'
p1403
sg44
S'3020'
p1404
sg1232
S'9.1'
p1405
sg1234
S'.578'
p1406
sg1236
S'5.2'
p1407
sg64
S'26.1'
p1408
sg1239
S'5.9'
p1409
sg56
S'26'
p1410
sg1242
S'.248'
p1411
sba(isrc.gp1.models.Advanced
Advanced
p1412
(dp1413
g1197
S'23.4'
p1414
sg1199
S'30.0'
p1415
sg1201
S'5.8'
p1416
sg1203
S'2.1'
p1417
sg1205
S'13.5'
p1418
sg1207
S'14.7'
p1419
sg1209
S'5.7'
p1420
sg22
S'81'
p1421
sg1212
g140
sg1214
S'.173'
p1422
sg1216
S'14.2'
p1423
sg1218
S'4.6'
p1424
sg1220
S'.382'
p1425
sg28
S'PF'
p1426
sg1223
S'-0.1'
p1427
sg1225
S'1.0'
p1428
sg1227
S'17.7'
p1429
sg40
S'DAL'
p1430
sg42
S'NBA'
p1431
sg44
S'3089'
p1432
sg1232
S'7.9'
p1433
sg1234
S'.589'
p1434
sg1236
S'4.3'
p1435
sg64
S'28.1'
p1436
sg1239
S'6.0'
p1437
sg56
S'27'
p1438
sg1242
S'.275'
p1439
sba(isrc.gp1.models.Advanced
Advanced
p1440
(dp1441
g1197
S'23.9'
p1442
sg1199
S'28.9'
p1443
sg1201
S'5.4'
p1444
sg1203
S'1.7'
p1445
sg1205
S'11.8'
p1446
sg1207
S'17.8'
p1447
sg1209
S'6.7'
p1448
sg22
S'78'
p1449
sg1212
g140
sg1214
S'.129'
p1450
sg1216
S'14.8'
p1451
sg1218
S'5.3'
p1452
sg1220
S'.411'
p1453
sg28
S'PF'
p1454
sg1223
S'1.3'
p1455
sg1225
S'1.0'
p1456
sg1227
S'16.3'
p1457
sg40
S'DAL'
p1458
sg42
S'NBA'
p1459
sg44
S'2820'
p1460
sg1232
S'9.5'
p1461
sg1234
S'.605'
p1462
sg1236
S'4.5'
p1463
sg64
S'27.6'
p1464
sg1239
S'6.2'
p1465
sg56
S'28'
p1466
sg1242
S'.278'
p1467
sba(isrc.gp1.models.Advanced
Advanced
p1468
(dp1469
g1197
S'22.8'
p1470
sg1199
S'28.8'
p1471
sg1201
S'4.2'
p1472
sg1203
S'1.9'
p1473
sg1205
S'8.9'
p1474
sg1207
S'17.8'
p1475
sg1209
S'5.2'
p1476
sg22
S'77'
p1477
sg1212
g140
sg1214
S'.167'
p1478
sg1216
S'13.8'
p1479
sg1218
S'4.1'
p1480
sg1220
S'.414'
p1481
sg28
S'PF'
p1482
sg1223
S'0.9'
p1483
sg1225
S'1.0'
p1484
sg1227
S'12.9'
p1485
sg40
S'DAL'
p1486
sg42
S'NBA'
p1487
sg44
S'2769'
p1488
sg1232
S'9.3'
p1489
sg1234
S'.585'
p1490
sg1236
S'4.0'
p1491
sg64
S'24.6'
p1492
sg1239
S'5.0'
p1493
sg56
S'29'
p1494
sg1242
S'.223'
p1495
sba(isrc.gp1.models.Advanced
Advanced
p1496
(dp1497
g1197
S'22.1'
p1498
sg1199
S'30.3'
p1499
sg1201
S'1.9'
p1500
sg1203
S'1.5'
p1501
sg1205
S'7.5'
p1502
sg1207
S'12.1'
p1503
sg1209
S'1.2'
p1504
sg22
S'81'
p1505
sg1212
g140
sg1214
S'.105'
p1506
sg1216
S'12.8'
p1507
sg1218
S'3.3'
p1508
sg1220
S'.337'
p1509
sg28
S'PF'
p1510
sg1223
S'-0.7'
p1511
sg1225
S'1.0'
p1512
sg1227
S'10.9'
p1513
sg40
S'DAL'
p1514
sg42
S'NBA'
p1515
sg44
S'3050'
p1516
sg1232
S'7.8'
p1517
sg1234
S'.564'
p1518
sg1236
S'3.4'
p1519
sg64
S'23.1'
p1520
sg1239
S'2.4'
p1521
sg56
S'30'
p1522
sg1242
S'.171'
p1523
sba(isrc.gp1.models.Advanced
Advanced
p1524
(dp1525
g1197
S'20.1'
p1526
sg1199
S'28.8'
p1527
sg1201
S'2.3'
p1528
sg1203
S'2.0'
p1529
sg1205
S'8.4'
p1530
sg1207
S'13.0'
p1531
sg1209
S'2.6'
p1532
sg22
S'81'
p1533
sg1212
g140
sg1214
S'.081'
p1534
sg1216
S'11.7'
p1535
sg1218
S'3.1'
p1536
sg1220
S'.392'
p1537
sg28
S'PF'
p1538
sg1223
S'0.3'
p1539
sg1225
S'1.2'
p1540
sg1227
S'12.3'
p1541
sg40
S'DAL'
p1542
sg42
S'NBA'
p1543
sg44
S'3039'
p1544
sg1232
S'7.8'
p1545
sg1234
S'.578'
p1546
sg1236
S'3.9'
p1547
sg64
S'22.9'
p1548
sg1239
S'3.5'
p1549
sg56
S'31'
p1550
sg1242
S'.194'
p1551
sba(isrc.gp1.models.Advanced
Advanced
p1552
(dp1553
g1197
S'20.8'
p1554
sg1199
S'28.2'
p1555
sg1201
S'3.2'
p1556
sg1203
S'1.4'
p1557
sg1205
S'7.8'
p1558
sg1207
S'14.2'
p1559
sg1209
S'3.8'
p1560
sg22
S'73'
p1561
sg1212
g140
sg1214
S'.142'
p1562
sg1216
S'12.0'
p1563
sg1218
S'2.4'
p1564
sg1220
S'.376'
p1565
sg28
S'PF'
p1566
sg1223
S'0.6'
p1567
sg1225
S'0.8'
p1568
sg1227
S'11.1'
p1569
sg40
S'DAL'
p1570
sg42
S'NBA'
p1571
sg44
S'2504'
p1572
sg1232
S'9.1'
p1573
sg1234
S'.612'
p1574
sg1236
S'3.3'
p1575
sg64
S'23.4'
p1576
sg1239
S'3.7'
p1577
sg56
S'32'
p1578
sg1242
S'.213'
p1579
sba(isrc.gp1.models.Advanced
Advanced
p1580
(dp1581
g1197
S'19.9'
p1582
sg1199
S'29.2'
p1583
sg1201
S'2.3'
p1584
sg1203
S'1.2'
p1585
sg1205
S'5.0'
p1586
sg1207
S'12.6'
p1587
sg1209
S'1.8'
p1588
sg22
S'62'
p1589
sg1212
g140
sg1214
S'.205'
p1590
sg1216
S'11.3'
p1591
sg1218
S'2.5'
p1592
sg1220
S'.343'
p1593
sg28
S'PF'
p1594
sg1223
S'-0.5'
p1595
sg1225
S'1.1'
p1596
sg1227
S'7.6'
p1597
sg40
S'DAL'
p1598
sg42
S'NBA'
p1599
sg44
S'2079'
p1600
sg1232
S'9.0'
p1601
sg1234
S'.564'
p1602
sg1236
S'2.6'
p1603
sg64
S'21.7'
p1604
sg1239
S'2.0'
p1605
sg56
S'33'
p1606
sg1242
S'.175'
p1607
sba(isrc.gp1.models.Advanced
Advanced
p1608
(dp1609
g1197
S'2.5'
p1610
sg1199
S'7.9'
p1611
sg1201
S'.145'
p1612
sg1203
S'1.2'
p1613
sg1205
S'24.2'
p1614
sg1207
S'12.2'
p1615
sg1209
S'0.0'
p1616
sg22
S'PF'
p1617
sg1212
S'1.5'
p1618
sg1214
S'.564'
p1619
sg1216
S'21.5'
p1620
sg1218
S'.265'
p1621
sg1220
S'.216'
p1622
sg28
S'NBA'
p1623
sg1223
S'1.7'
p1624
sg1225
S'13.5'
p1625
sg1227
S'1.8'
p1626
sg40
S'34'
p1627
sg42
S'DAL'
p1628
sg44
S'53'
p1629
sg1232
S'1.7'
p1630
sg1234
S'19.8'
p1631
sg1236
S'3.3'
p1632
sg64
S'1661'
p1633
sg1239
S'1.7'
p1634
sg56
S'2012-13'
p1635
sg1242
S'5.0'
p1636
sba(isrc.gp1.models.Advanced
Advanced
p1637
(dp1638
g1197
S'20.0'
p1639
sg1199
S'26.9'
p1640
sg1201
S'4.1'
p1641
sg1203
S'1.4'
p1642
sg1205
S'8.6'
p1643
sg1207
S'14.2'
p1644
sg1209
S'3.3'
p1645
sg22
S'80'
p1646
sg1212
g140
sg1214
S'.258'
p1647
sg1216
S'10.9'
p1648
sg1218
S'1.8'
p1649
sg1220
S'.295'
p1650
sg28
S'PF'
p1651
sg1223
S'-0.8'
p1652
sg1225
S'1.4'
p1653
sg1227
S'10.9'
p1654
sg40
S'DAL'
p1655
sg42
S'NBA'
p1656
sg44
S'2628'
p1657
sg1232
S'7.5'
p1658
sg1234
S'.603'
p1659
sg1236
S'2.3'
p1660
sg64
S'23.6'
p1661
sg1239
S'3.5'
p1662
sg56
S'35'
p1663
sg1242
S'.199'
p1664
sba(isrc.gp1.models.Advanced
Advanced
p1665
(dp1666
g1197
S'19.9'
p1667
sg1199
S'24.9'
p1668
sg1201
S'1.7'
p1669
sg1203
S'1.2'
p1670
sg1205
S'5.2'
p1671
sg1207
S'10.4'
p1672
sg1209
S'0.7'
p1673
sg22
S'77'
p1674
sg1212
g140
sg1214
S'.258'
p1675
sg1216
S'11.0'
p1676
sg1218
S'2.1'
p1677
sg1220
S'.272'
p1678
sg28
S'PF'
p1679
sg1223
S'-1.0'
p1680
sg1225
S'0.9'
p1681
sg1227
S'7.2'
p1682
sg40
S'DAL'
p1683
sg42
S'NBA'
p1684
sg44
S'2282'
p1685
sg1232
S'6.5'
p1686
sg1234
S'.560'
p1687
sg1236
S'2.0'
p1688
sg64
S'19.2'
p1689
sg1239
S'1.5'
p1690
sg56
S'36'
p1691
sg1242
S'.152'
p1692
sba(isrc.gp1.models.Advanced
Advanced
p1693
(dp1694
g1197
S'2.5'
p1695
sg1199
S'6.2'
p1696
sg1201
S'.151'
p1697
sg1203
S'1.1'
p1698
sg1205
S'25.0'
p1699
sg1207
S'11.7'
p1700
sg1209
S'0.1'
p1701
sg22
S'PF'
p1702
sg1212
S'1.2'
p1703
sg1214
S'.559'
p1704
sg1216
S'21.0'
p1705
sg1218
S'.251'
p1706
sg1220
S'.295'
p1707
sg28
S'NBA'
p1708
sg1223
S'1.4'
p1709
sg1225
S'10.0'
p1710
sg1227
S'1.7'
p1711
sg40
S'37'
p1712
sg42
S'DAL'
p1713
sg44
S'47'
p1714
sg1232
S'1.9'
p1715
sg1234
S'19.7'
p1716
sg1236
S'2.8'
p1717
sg64
S'1441'
p1718
sg1239
S'1.5'
p1719
sg56
S'2015-16'
p1720
sg1242
S'4.5'
p1721
sbasS'_per36Minutes'
p1722
(lp1723
(isrc.gp1.models.Per36Minutes
Per36Minutes
p1724
(dp1725
g8
S'1.5'
p1726
sg10
S'2.6'
p1727
sg12
S'.405'
p1728
sg14
S'1.8'
p1729
sg16
S'.206'
p1730
sg18
S'0.5'
p1731
sg20
S'14.5'
p1732
sg22
S'PF'
p1733
sg24
S'.773'
p1734
sg28
S'NBA'
p1735
sg30
S'1.1'
p1736
sg32
S'12.6'
p1737
sg34
S'3.9'
p1738
sg36
S'4.8'
p1739
sg38
S'6.1'
p1740
sg40
S'20'
p1741
sg42
S'DAL'
p1742
sg44
S'47'
p1743
sg46
S'1.0'
p1744
sg48
S'4.6'
p1745
sg50
S'3.7'
p1746
sg52
S'10.1'
p1747
sg54
S'4.5'
p1748
sg56
S'1998-99'
p1749
sg58
S'5.1'
p1750
sg60
S'2.7'
p1751
sg62
S'.455'
p1752
sg64
S'958'
p1753
sg66
S'24'
p1754
sba(isrc.gp1.models.Per36Minutes
Per36Minutes
p1755
(dp1756
g8
S'1.2'
p1757
sg10
S'3.7'
p1758
sg12
S'.461'
p1759
sg14
S'2.5'
p1760
sg16
S'.379'
p1761
sg18
S'1.4'
p1762
sg20
S'17.6'
p1763
sg22
S'PF'
p1764
sg24
S'.830'
p1765
sg28
S'NBA'
p1766
sg30
S'0.8'
p1767
sg32
S'13.7'
p1768
sg34
S'3.1'
p1769
sg36
S'4.3'
p1770
sg38
S'6.5'
p1771
sg40
S'21'
p1772
sg42
S'DAL'
p1773
sg44
S'82'
p1774
sg46
S'0.8'
p1775
sg48
S'4.9'
p1776
sg50
S'3.5'
p1777
sg52
S'9.9'
p1778
sg54
S'5.3'
p1779
sg56
S'1999-00'
p1780
sg58
S'6.3'
p1781
sg60
S'1.7'
p1782
sg62
S'.491'
p1783
sg64
S'2938'
p1784
sg66
S'81'
p1785
sba(isrc.gp1.models.Per36Minutes
Per36Minutes
p1786
(dp1787
g8
S'1.4'
p1788
sg10
S'4.5'
p1789
sg12
S'.474'
p1790
sg14
S'2.0'
p1791
sg16
S'.387'
p1792
sg18
S'1.7'
p1793
sg20
S'20.6'
p1794
sg22
S'PF'
p1795
sg24
S'.838'
p1796
sg28
S'NBA'
p1797
sg30
S'0.9'
p1798
sg32
S'14.4'
p1799
sg34
S'2.8'
p1800
sg36
S'6.2'
p1801
sg38
S'8.7'
p1802
sg40
S'22'
p1803
sg42
S'DAL'
p1804
sg44
S'82'
p1805
sg46
S'1.2'
p1806
sg48
S'5.1'
p1807
sg50
S'5.2'
p1808
sg52
S'9.9'
p1809
sg54
S'7.3'
p1810
sg56
S'2000-01'
p1811
sg58
S'6.8'
p1812
sg60
S'1.8'
p1813
sg62
S'.513'
p1814
sg64
S'3125'
p1815
sg66
S'82'
p1816
sba(isrc.gp1.models.Per36Minutes
Per36Minutes
p1817
(dp1818
g8
S'7.9'
p1819
sg10
S'.397'
p1820
sg12
S'1.7'
p1821
sg14
S'1.0'
p1822
sg16
S'5.7'
p1823
sg18
S'4.4'
p1824
sg20
g140
sg22
S'76'
p1825
sg24
S'1.5'
p1826
sg28
g144
sg30
S'1.0'
p1827
sg32
S'.477'
p1828
sg34
S'22.2'
p1829
sg36
S'.853'
p1830
sg38
S'2.3'
p1831
sg40
S'DAL'
p1832
sg42
S'NBA'
p1833
sg44
S'76'
p1834
sg46
S'1.8'
p1835
sg48
S'11.3'
p1836
sg50
S'6.4'
p1837
sg52
S'.508'
p1838
sg54
S'9.4'
p1839
sg56
S'23'
p1840
sg58
S'15.7'
p1841
sg60
S'2.8'
p1842
sg62
S'5.5'
p1843
sg64
S'7.5'
p1844
sg66
S'2891'
p1845
sba(isrc.gp1.models.Per36Minutes
Per36Minutes
p1846
(dp1847
g8
S'8.2'
p1848
sg10
S'.379'
p1849
sg12
S'1.7'
p1850
sg14
S'1.3'
p1851
sg16
S'6.3'
p1852
sg18
S'4.5'
p1853
sg20
g140
sg22
S'80'
p1854
sg24
S'0.9'
p1855
sg28
S'PF'
p1856
sg30
S'0.9'
p1857
sg32
S'.463'
p1858
sg34
S'23.2'
p1859
sg36
S'.881'
p1860
sg38
S'2.8'
p1861
sg40
S'DAL'
p1862
sg42
S'NBA'
p1863
sg44
S'80'
p1864
sg46
S'1.8'
p1865
sg48
S'12.7'
p1866
sg50
S'6.3'
p1867
sg52
S'.493'
p1868
sg54
S'9.1'
p1869
sg56
S'24'
p1870
sg58
S'17.2'
p1871
sg60
S'2.4'
p1872
sg62
S'5.6'
p1873
sg64
S'8.0'
p1874
sg66
S'3117'
p1875
sba(isrc.gp1.models.Per36Minutes
Per36Minutes
p1876
(dp1877
g8
S'7.2'
p1878
sg10
S'.341'
p1879
sg12
S'1.2'
p1880
sg14
S'1.1'
p1881
sg16
S'6.2'
p1882
sg18
S'3.6'
p1883
sg20
g140
sg22
S'77'
p1884
sg24
S'1.1'
p1885
sg28
g144
sg30
S'1.3'
p1886
sg32
S'.462'
p1887
sg34
S'20.7'
p1888
sg36
S'.877'
p1889
sg38
S'2.6'
p1890
sg40
S'DAL'
p1891
sg42
S'NBA'
p1892
sg44
S'77'
p1893
sg46
S'1.7'
p1894
sg48
S'12.6'
p1895
sg50
S'5.2'
p1896
sg52
S'.496'
p1897
sg54
S'8.3'
p1898
sg56
S'25'
p1899
sg58
S'16.2'
p1900
sg60
S'2.7'
p1901
sg62
S'4.6'
p1902
sg64
S'7.5'
p1903
sg66
S'2915'
p1904
sba(isrc.gp1.models.Per36Minutes
Per36Minutes
p1905
(dp1906
g8
S'7.9'
p1907
sg10
S'.399'
p1908
sg12
S'1.1'
p1909
sg14
S'1.2'
p1910
sg16
S'6.8'
p1911
sg18
S'2.7'
p1912
sg20
g140
sg22
S'78'
p1913
sg24
S'1.1'
p1914
sg28
S'PF'
p1915
sg30
S'1.4'
p1916
sg32
S'.459'
p1917
sg34
S'24.2'
p1918
sg36
S'.869'
p1919
sg38
S'2.9'
p1920
sg40
S'DAL'
p1921
sg42
S'NBA'
p1922
sg44
S'78'
p1923
sg46
S'2.1'
p1924
sg48
S'14.5'
p1925
sg50
S'8.4'
p1926
sg52
S'.470'
p1927
sg54
S'9.0'
p1928
sg56
S'26'
p1929
sg58
S'17.2'
p1930
sg60
S'2.6'
p1931
sg62
S'7.3'
p1932
sg64
S'7.9'
p1933
sg66
S'3020'
p1934
sba(isrc.gp1.models.Per36Minutes
Per36Minutes
p1935
(dp1936
g8
S'7.1'
p1937
sg10
S'.406'
p1938
sg12
S'1.3'
p1939
sg14
S'0.7'
p1940
sg16
S'7.5'
p1941
sg18
S'3.2'
p1942
sg20
g140
sg22
S'81'
p1943
sg24
S'1.3'
p1944
sg28
S'PF'
p1945
sg30
S'1.0'
p1946
sg32
S'.480'
p1947
sg34
S'25.1'
p1948
sg36
S'.901'
p1949
sg38
S'2.6'
p1950
sg40
S'DAL'
p1951
sg42
S'NBA'
p1952
sg44
S'81'
p1953
sg46
S'1.8'
p1954
sg48
S'15.1'
p1955
sg50
S'7.0'
p1956
sg52
S'.496'
p1957
sg54
S'8.5'
p1958
sg56
S'27'
p1959
sg58
S'18.2'
p1960
sg60
S'1.9'
p1961
sg62
S'6.3'
p1962
sg64
S'8.8'
p1963
sg66
S'3089'
p1964
sba(isrc.gp1.models.Per36Minutes
Per36Minutes
p1965
(dp1966
g8
S'7.3'
p1967
sg10
S'.416'
p1968
sg12
S'0.9'
p1969
sg14
S'0.7'
p1970
sg16
S'7.7'
p1971
sg18
S'2.2'
p1972
sg20
g140
sg22
S'78'
p1973
sg24
S'1.6'
p1974
sg28
S'PF'
p1975
sg30
S'0.8'
p1976
sg32
S'.502'
p1977
sg34
S'24.5'
p1978
sg36
S'.904'
p1979
sg38
S'3.4'
p1980
sg40
S'DAL'
p1981
sg42
S'NBA'
p1982
sg44
S'78'
p1983
sg46
S'2.1'
p1984
sg48
S'14.9'
p1985
sg50
S'7.0'
p1986
sg52
S'.515'
p1987
sg54
S'8.8'
p1988
sg56
S'28'
p1989
sg58
S'17.1'
p1990
sg60
S'2.2'
p1991
sg62
S'6.4'
p1992
sg64
S'8.6'
p1993
sg66
S'2820'
p1994
sba(isrc.gp1.models.Per36Minutes
Per36Minutes
p1995
(dp1996
g8
S'7.3'
p1997
sg10
S'.359'
p1998
sg12
S'1.0'
p1999
sg14
S'0.7'
p2000
sg16
S'7.2'
p2001
sg18
S'2.9'
p2002
sg20
g140
sg22
S'77'
p2003
sg24
S'1.2'
p2004
sg28
S'PF'
p2005
sg30
S'0.9'
p2006
sg32
S'.479'
p2007
sg34
S'23.6'
p2008
sg36
S'.879'
p2009
sg38
S'3.5'
p2010
sg40
S'DAL'
p2011
sg42
S'NBA'
p2012
sg44
S'77'
p2013
sg46
S'2.1'
p2014
sg48
S'14.2'
p2015
sg50
S'7.1'
p2016
sg52
S'.504'
p2017
sg54
S'8.6'
p2018
sg56
S'29'
p2019
sg58
S'17.1'
p2020
sg60
S'2.6'
p2021
sg62
S'6.2'
p2022
sg64
S'8.2'
p2023
sg66
S'2769'
p2024
sba(isrc.gp1.models.Per36Minutes
Per36Minutes
p2025
(dp2026
g8
S'7.0'
p2027
sg10
S'.359'
p2028
sg12
S'0.7'
p2029
sg14
S'0.7'
p2030
sg16
S'8.4'
p2031
sg18
S'2.0'
p2032
sg20
g140
sg22
S'81'
p2033
sg24
S'1.0'
p2034
sg28
S'PF'
p2035
sg30
S'0.7'
p2036
sg32
S'.479'
p2037
sg34
S'24.7'
p2038
sg36
S'.890'
p2039
sg38
S'2.3'
p2040
sg40
S'DAL'
p2041
sg42
S'NBA'
p2042
sg44
S'81'
p2043
sg46
S'1.9'
p2044
sg48
S'17.1'
p2045
sg50
S'6.4'
p2046
sg52
S'.493'
p2047
sg54
S'8.0'
p2048
sg56
S'30'
p2049
sg58
S'19.1'
p2050
sg60
S'2.1'
p2051
sg62
S'5.7'
p2052
sg64
S'9.1'
p2053
sg66
S'3050'
p2054
sba(isrc.gp1.models.Per36Minutes
Per36Minutes
p2055
(dp2056
g8
S'6.4'
p2057
sg10
S'.421'
p2058
sg12
S'0.6'
p2059
sg14
S'0.8'
p2060
sg16
S'7.9'
p2061
sg18
S'1.4'
p2062
sg20
g140
sg22
S'81'
p2063
sg24
S'0.9'
p2064
sg28
S'PF'
p2065
sg30
S'0.9'
p2066
sg32
S'.481'
p2067
sg34
S'24.0'
p2068
sg36
S'.915'
p2069
sg38
S'2.6'
p2070
sg40
S'DAL'
p2071
sg42
S'NBA'
p2072
sg44
S'80'
p2073
sg46
S'1.8'
p2074
sg48
S'16.3'
p2075
sg50
S'6.9'
p2076
sg52
S'.487'
p2077
sg54
S'7.3'
p2078
sg56
S'31'
p2079
sg58
S'17.7'
p2080
sg60
S'2.5'
p2081
sg62
S'6.3'
p2082
sg64
S'8.5'
p2083
sg66
S'3039'
p2084
sba(isrc.gp1.models.Per36Minutes
Per36Minutes
p2085
(dp2086
g8
S'6.7'
p2087
sg10
S'.393'
p2088
sg12
S'0.9'
p2089
sg14
S'0.5'
p2090
sg16
S'7.8'
p2091
sg18
S'2.4'
p2092
sg20
g140
sg22
S'73'
p2093
sg24
S'0.7'
p2094
sg28
S'PF'
p2095
sg30
S'0.7'
p2096
sg32
S'.517'
p2097
sg34
S'24.2'
p2098
sg36
S'.892'
p2099
sg38
S'2.7'
p2100
sg40
S'DAL'
p2101
sg42
S'NBA'
p2102
sg44
S'73'
p2103
sg46
S'2.0'
p2104
sg48
S'14.5'
p2105
sg50
S'6.4'
p2106
sg52
S'.538'
p2107
sg54
S'7.4'
p2108
sg56
S'32'
p2109
sg58
S'17.0'
p2110
sg60
S'2.5'
p2111
sg62
S'5.7'
p2112
sg64
S'8.8'
p2113
sg66
S'2504'
p2114
sba(isrc.gp1.models.Per36Minutes
Per36Minutes
p2115
(dp2116
g8
S'6.4'
p2117
sg10
S'.368'
p2118
sg12
S'1.4'
p2119
sg14
S'0.7'
p2120
sg16
S'6.8'
p2121
sg18
S'3.7'
p2122
sg20
g140
sg22
S'62'
p2123
sg24
S'0.8'
p2124
sg28
S'PF'
p2125
sg30
S'0.5'
p2126
sg32
S'.457'
p2127
sg34
S'23.2'
p2128
sg36
S'.896'
p2129
sg38
S'2.4'
p2130
sg40
S'DAL'
p2131
sg42
S'NBA'
p2132
sg44
S'62'
p2133
sg46
S'2.0'
p2134
sg48
S'14.2'
p2135
sg50
S'6.1'
p2136
sg52
S'.481'
p2137
sg54
S'7.2'
p2138
sg56
S'33'
p2139
sg58
S'17.9'
p2140
sg60
S'2.2'
p2141
sg62
S'5.5'
p2142
sg64
S'8.2'
p2143
sg66
S'2079'
p2144
sba(isrc.gp1.models.Per36Minutes
Per36Minutes
p2145
(dp2146
g8
S'0.8'
p2147
sg10
S'3.4'
p2148
sg12
S'.471'
p2149
sg14
S'2.9'
p2150
sg16
S'.414'
p2151
sg18
S'1.4'
p2152
sg20
S'19.9'
p2153
sg22
S'PF'
p2154
sg24
S'.860'
p2155
sg28
S'NBA'
p2156
sg30
S'0.8'
p2157
sg32
S'15.8'
p2158
sg34
S'2.0'
p2159
sg36
S'4.2'
p2160
sg38
S'7.9'
p2161
sg40
S'34'
p2162
sg42
S'DAL'
p2163
sg44
S'53'
p2164
sg46
S'0.8'
p2165
sg48
S'6.0'
p2166
sg50
S'3.6'
p2167
sg52
S'12.4'
p2168
sg54
S'7.1'
p2169
sg56
S'2012-13'
p2170
sg58
S'7.4'
p2171
sg60
S'1.5'
p2172
sg62
S'.487'
p2173
sg64
S'1661'
p2174
sg66
S'47'
p2175
sba(isrc.gp1.models.Per36Minutes
Per36Minutes
p2176
(dp2177
g8
S'6.3'
p2178
sg10
S'.398'
p2179
sg12
S'1.8'
p2180
sg14
S'1.0'
p2181
sg16
S'6.9'
p2182
sg18
S'4.5'
p2183
sg20
g140
sg22
S'80'
p2184
sg24
S'0.5'
p2185
sg28
S'PF'
p2186
sg30
S'0.6'
p2187
sg32
S'.497'
p2188
sg34
S'23.8'
p2189
sg36
S'.899'
p2190
sg38
S'3.0'
p2191
sg40
S'DAL'
p2192
sg42
S'NBA'
p2193
sg44
S'80'
p2194
sg46
S'1.6'
p2195
sg48
S'12.9'
p2196
sg50
S'5.2'
p2197
sg52
S'.532'
p2198
sg54
S'6.8'
p2199
sg56
S'35'
p2200
sg58
S'17.4'
p2201
sg60
S'2.3'
p2202
sg62
S'4.6'
p2203
sg64
S'8.7'
p2204
sg66
S'2628'
p2205
sba(isrc.gp1.models.Per36Minutes
Per36Minutes
p2206
(dp2207
g8
S'6.5'
p2208
sg10
S'.380'
p2209
sg12
S'1.6'
p2210
sg14
S'0.6'
p2211
sg16
S'6.0'
p2212
sg18
S'4.3'
p2213
sg20
g140
sg22
S'77'
p2214
sg24
S'0.7'
p2215
sg28
S'PF'
p2216
sg30
S'0.5'
p2217
sg32
S'.459'
p2218
sg34
S'21.0'
p2219
sg36
S'.882'
p2220
sg38
S'2.3'
p2221
sg40
S'DAL'
p2222
sg42
S'NBA'
p2223
sg44
S'77'
p2224
sg46
S'1.3'
p2225
sg48
S'12.4'
p2226
sg50
S'4.6'
p2227
sg52
S'.486'
p2228
sg54
S'7.2'
p2229
sg56
S'36'
p2230
sg58
S'16.8'
p2231
sg60
S'2.5'
p2232
sg62
S'4.0'
p2233
sg64
S'7.7'
p2234
sg66
S'2282'
p2235
sba(isrc.gp1.models.Per36Minutes
Per36Minutes
p2236
(dp2237
g8
S'0.8'
p2238
sg10
S'4.9'
p2239
sg12
S'.448'
p2240
sg14
S'2.0'
p2241
sg16
S'.398'
p2242
sg18
S'1.9'
p2243
sg20
S'20.6'
p2244
sg22
S'PF'
p2245
sg24
S'.904'
p2246
sg28
S'NBA'
p2247
sg30
S'0.8'
p2248
sg32
S'16.6'
p2249
sg34
S'2.2'
p2250
sg36
S'4.2'
p2251
sg38
S'7.7'
p2252
sg40
S'37'
p2253
sg42
S'DAL'
p2254
sg44
S'47'
p2255
sg46
S'0.8'
p2256
sg48
S'5.5'
p2257
sg50
S'3.8'
p2258
sg52
S'11.7'
p2259
sg54
S'6.9'
p2260
sg56
S'2015-16'
p2261
sg58
S'7.4'
p2262
sg60
S'1.2'
p2263
sg62
S'.469'
p2264
sg64
S'1441'
p2265
sg66
S'47'
p2266
sbasS'_fromYear'
p2267
S'1999'
p2268
sS'_url'
p2269
S'http://www.basketball-reference.com/players/n/nowitdi01.html'
p2270
sS'_perGame'
p2271
(isrc.gp1.models.PerGame
PerGame
p2272
(dp2273
g8
S'0.7'
p2274
sg10
S'4.2'
p2275
sg12
S'.448'
p2276
sS'_effectiveFieldGalPercentage'
p2277
S'.507'
p2278
sg14
S'1.7'
p2279
sg16
S'.398'
p2280
sg18
S'1.7'
p2281
sg20
S'17.6'
p2282
sg22
S'PF'
p2283
sg24
S'.904'
p2284
sg28
S'NBA'
p2285
sg30
S'0.7'
p2286
sg34
S'1.9'
p2287
sS'_fieldGoalsttempted'
p2288
S'14.1'
p2289
sg36
S'3.6'
p2290
sg38
S'6.6'
p2291
sg40
S'37'
p2292
sg42
S'DAL'
p2293
sg44
S'47'
p2294
sg46
S'0.7'
p2295
sg48
S'4.7'
p2296
sg50
S'3.2'
p2297
sg52
S'10.0'
p2298
sg54
S'5.9'
p2299
sg56
S'2015-16'
p2300
sg58
S'6.3'
p2301
sg60
S'1.0'
p2302
sg62
S'.469'
p2303
sg64
S'30.7'
p2304
sg66
S'47'
p2305
sbsS'_weight'
p2306
S'245'
p2307
sS'_dob'
p2308
S'19-6-1978'
p2309
sS'_salary'
p2310
(lp2311
(isrc.gp1.models.Salary
Salary
p2312
(dp2313
g42
S'Dallas Mavericks'
p2314
sg28
S'NBA'
p2315
sg2310
S'$1,472,640'
p2316
sg56
S'1998-99'
p2317
sba(isrc.gp1.models.Salary
Salary
p2318
(dp2319
g42
S'Dallas Mavericks'
p2320
sg28
S'NBA'
p2321
sg2310
S'$1,583,040'
p2322
sg56
S'1999-00'
p2323
sba(isrc.gp1.models.Salary
Salary
p2324
(dp2325
g42
S'Dallas Mavericks'
p2326
sg28
S'NBA'
p2327
sg2310
S'$1,693,560'
p2328
sg56
S'2000-01'
p2329
sba(isrc.gp1.models.Salary
Salary
p2330
(dp2331
g42
S'Dallas Mavericks'
p2332
sg28
S'NBA'
p2333
sg2310
S'$2,157,595'
p2334
sg56
S'2001-02'
p2335
sba(isrc.gp1.models.Salary
Salary
p2336
(dp2337
g42
S'Dallas Mavericks'
p2338
sg28
S'NBA'
p2339
sg2310
S'$10,067,750'
p2340
sg56
S'2002-03'
p2341
sba(isrc.gp1.models.Salary
Salary
p2342
(dp2343
g42
S'Dallas Mavericks'
p2344
sg28
S'NBA'
p2345
sg2310
S'$11,326,219'
p2346
sg56
S'2003-04'
p2347
sba(isrc.gp1.models.Salary
Salary
p2348
(dp2349
g42
S'Dallas Mavericks'
p2350
sg28
S'NBA'
p2351
sg2310
S'$12,584,688'
p2352
sg56
S'2004-05'
p2353
sba(isrc.gp1.models.Salary
Salary
p2354
(dp2355
g42
S'Dallas Mavericks'
p2356
sg28
S'NBA'
p2357
sg2310
S'$13,843,156'
p2358
sg56
S'2005-06'
p2359
sba(isrc.gp1.models.Salary
Salary
p2360
(dp2361
g42
S'Dallas Mavericks'
p2362
sg28
S'NBA'
p2363
sg2310
S'$15,101,625'
p2364
sg56
S'2006-07'
p2365
sba(isrc.gp1.models.Salary
Salary
p2366
(dp2367
g42
S'Dallas Mavericks'
p2368
sg28
S'NBA'
p2369
sg2310
S'$16,360,094'
p2370
sg56
S'2007-08'
p2371
sba(isrc.gp1.models.Salary
Salary
p2372
(dp2373
g42
S'Dallas Mavericks'
p2374
sg28
S'NBA'
p2375
sg2310
S'$18,077,904'
p2376
sg56
S'2008-09'
p2377
sba(isrc.gp1.models.Salary
Salary
p2378
(dp2379
g42
S'Dallas Mavericks'
p2380
sg28
S'NBA'
p2381
sg2310
S'$19,795,714'
p2382
sg56
S'2009-10'
p2383
sba(isrc.gp1.models.Salary
Salary
p2384
(dp2385
g42
S'Dallas Mavericks'
p2386
sg28
S'NBA'
p2387
sg2310
S'$17,278,618'
p2388
sg56
S'2010-11'
p2389
sba(isrc.gp1.models.Salary
Salary
p2390
(dp2391
g42
S'Dallas Mavericks'
p2392
sg28
S'NBA'
p2393
sg2310
S'$19,092,873'
p2394
sg56
S'2011-12'
p2395
sba(isrc.gp1.models.Salary
Salary
p2396
(dp2397
g42
S'Dallas Mavericks'
p2398
sg28
S'NBA'
p2399
sg2310
S'$20,907,128'
p2400
sg56
S'2012-13'
p2401
sba(isrc.gp1.models.Salary
Salary
p2402
(dp2403
g42
S'Dallas Mavericks'
p2404
sg28
S'NBA'
p2405
sg2310
S'$22,721,381'
p2406
sg56
S'2013-14'
p2407
sba(isrc.gp1.models.Salary
Salary
p2408
(dp2409
g42
S'Dallas Mavericks'
p2410
sg28
S'NBA'
p2411
sg2310
S'$7,974,482'
p2412
sg56
S'2014-15'
p2413
sbasg22
S'F'
p2414
sb.