(isrc.gp1.models.Player
Player
p0
(dp1
S'_experience'
p2
S'NA'
p3
sS'_totals'
p4
(lp5
(isrc.gp1.models.Totals
Totals
p6
(dp7
S'_offensiveRebounds'
p8
g3
sS'_threePointsAttempted'
p9
S'376'
p10
sS'_fieldGoalsPercentage'
p11
S'.385'
p12
sS'_assist'
p13
g3
sS'_threePointsPercentage'
p14
S'486'
p15
sS'_threePoints'
p16
S'.385'
p17
sS'_points'
p18
g3
sS'_position'
p19
S'64'
p20
sS'_freeThrowsPercentage'
p21
g3
sS'_effectiveFieldGoalPercentage'
p22
S'1072'
p23
sS'_league'
p24
S'NBA'
p25
sS'_steals'
p26
g3
sS'_fieldGoalsAttempted'
p27
S'903'
p28
sS'_personalFouls'
p29
g3
sS'_freeThrowsAttempted'
p30
g3
sS'_totalRebounds'
p31
g3
sS'_age'
p32
S'21'
p33
sS'_team'
p34
S'SYR'
p35
sS'_games'
p36
S'348'
p37
sS'_blocks'
p38
g3
sS'_twoPoints'
p39
S'.774'
p40
sS'_freeThrows'
p41
g3
sS'_twoPointsAttempted'
p42
S'259'
p43
sS'_defensiveRebounds'
p44
g3
sS'_season'
p45
S'1949-50'
p46
sS'_fieldGoals'
p47
S'348'
p48
sS'_turnOvers'
p49
g3
sS'_twoPointsPercentage'
p50
S'225'
p51
sS'_minutesPlayed'
p52
S'.385'
p53
sS'_gamesStarted'
p54
S'903'
p55
sba(isrc.gp1.models.Totals
Totals
p56
(dp57
g8
g3
sg9
S'457'
p58
sg11
S'.357'
p59
sg13
g3
sg14
S'608'
p60
sg16
S'.357'
p61
sg18
g3
sg19
S'66'
p62
sg21
g3
sg22
S'271'
p63
sg24
S'NBA'
p64
sg26
g3
sg27
S'930'
p65
sg29
g3
sg30
g3
sg31
g3
sg32
S'22'
p66
sg34
S'SYR'
p67
sg36
S'332'
p68
sg38
g3
sg39
S'.752'
p69
sg41
S'1121'
p70
sg42
S'1080'
p71
sg44
g3
sg45
S'1950-51'
p72
sg47
S'332'
p73
sg49
g3
sg50
S'251'
p74
sg52
S'.357'
p75
sg54
S'930'
p76
sba(isrc.gp1.models.Totals
Totals
p77
(dp78
g8
g3
sg9
S'.355'
p79
sg11
S'263'
p80
sg13
g3
sg14
S'.355'
p81
sg16
S'740'
p82
sg18
g3
sg19
S'PF'
p83
sg21
S'868'
p84
sg22
S'773'
p85
sg24
S'NBA'
p86
sg26
g3
sg27
S'.355'
p87
sg29
g3
sg30
S'213'
p88
sg31
g3
sg32
S'23'
p89
sg34
S'SYR'
p90
sg36
S'63'
p91
sg38
g3
sg39
S'342'
p92
sg41
S'182'
p93
sg42
S'424'
p94
sg44
g3
sg45
S'1951-52'
p95
sg47
S'740'
p96
sg49
g3
sg50
S'.807'
p97
sg52
S'263'
p98
sg54
S'2004'
p99
sba(isrc.gp1.models.Totals
Totals
p100
(dp101
g8
g3
sg9
S'.374'
p102
sg11
S'375'
p103
sg13
g3
sg14
S'.374'
p104
sg16
S'1002'
p105
sg18
g3
sg19
S'PF'
p106
sg21
S'1262'
p107
sg22
S'920'
p108
sg24
S'NBA'
p109
sg26
g3
sg27
S'.374'
p110
sg29
g3
sg30
S'271'
p111
sg31
g3
sg32
S'24'
p112
sg34
S'SYR'
p113
sg36
S'71'
p114
sg38
g3
sg39
S'512'
p115
sg41
S'227'
p116
sg42
S'619'
p117
sg44
g3
sg45
S'1952-53'
p118
sg47
S'1002'
p119
sg49
g3
sg50
S'.827'
p120
sg52
S'375'
p121
sg54
S'2668'
p122
sba(isrc.gp1.models.Totals
Totals
p123
(dp124
g8
g3
sg9
S'.380'
p125
sg11
S'370'
p126
sg13
g3
sg14
S'.380'
p127
sg16
S'973'
p128
sg18
g3
sg19
S'C'
p129
sg21
S'1228'
p130
sg22
S'870'
p131
sg24
S'NBA'
p132
sg26
g3
sg27
S'.380'
p133
sg29
g3
sg30
S'232'
p134
sg31
g3
sg32
S'25'
p135
sg34
S'SYR'
p136
sg36
S'72'
p137
sg38
g3
sg39
S'488'
p138
sg41
S'214'
p139
sg42
S'590'
p140
sg44
g3
sg45
S'1953-54'
p141
sg47
S'973'
p142
sg49
g3
sg50
S'.827'
p143
sg52
S'370'
p144
sg54
S'2655'
p145
sba(isrc.gp1.models.Totals
Totals
p146
(dp147
g8
g3
sg9
S'.383'
p148
sg11
S'422'
p149
sg13
g3
sg14
S'.383'
p150
sg16
S'1103'
p151
sg18
g3
sg19
S'PF'
p152
sg21
S'1333'
p153
sg22
S'887'
p154
sg24
S'NBA'
p155
sg26
g3
sg27
S'.383'
p156
sg29
g3
sg30
S'247'
p157
sg31
g3
sg32
S'26'
p158
sg34
S'SYR'
p159
sg36
S'72'
p160
sg38
g3
sg39
S'489'
p161
sg41
S'213'
p162
sg42
S'587'
p163
sg44
g3
sg45
S'1954-55'
p164
sg47
S'1103'
p165
sg49
g3
sg50
S'.833'
p166
sg52
S'422'
p167
sg54
S'2526'
p168
sba(isrc.gp1.models.Totals
Totals
p169
(dp170
g8
g3
sg9
S'.387'
p171
sg11
S'465'
p172
sg13
g3
sg14
S'.387'
p173
sg16
S'1202'
p174
sg18
g3
sg19
S'PF'
p175
sg21
S'1472'
p176
sg22
S'891'
p177
sg24
S'NBA'
p178
sg26
g3
sg27
S'.387'
p179
sg29
g3
sg30
S'251'
p180
sg31
g3
sg32
S'27'
p181
sg34
S'SYR'
p182
sg36
S'72'
p183
sg38
g3
sg39
S'542'
p184
sg41
S'200'
p185
sg42
S'632'
p186
sg44
g3
sg45
S'1955-56'
p187
sg47
S'1202'
p188
sg49
g3
sg50
S'.858'
p189
sg52
S'465'
p190
sg54
S'2517'
p191
sba(isrc.gp1.models.Totals
Totals
p192
(dp193
g8
g3
sg9
S'.379'
p194
sg11
S'496'
p195
sg13
g3
sg14
S'.379'
p196
sg16
S'1308'
p197
sg18
g3
sg19
S'PF'
p198
sg21
S'1617'
p199
sg22
S'1008'
p200
sg24
S'NBA'
p201
sg26
g3
sg27
S'.379'
p202
sg29
g3
sg30
S'219'
p203
sg31
g3
sg32
S'28'
p204
sg34
S'SYR'
p205
sg36
S'72'
p206
sg38
g3
sg39
S'625'
p207
sg41
S'229'
p208
sg42
S'691'
p209
sg44
g3
sg45
S'1956-57'
p210
sg47
S'1308'
p211
sg49
g3
sg50
S'.904'
p212
sg52
S'496'
p213
sg54
S'2851'
p214
sba(isrc.gp1.models.Totals
Totals
p215
(dp216
g8
g3
sg9
S'.398'
p217
sg11
S'581'
p218
sg13
g3
sg14
S'.398'
p219
sg16
S'1458'
p220
sg18
g3
sg19
S'PF'
p221
sg21
S'1791'
p222
sg22
S'1022'
p223
sg24
S'NBA'
p224
sg26
g3
sg27
S'.398'
p225
sg29
g3
sg30
S'244'
p226
sg31
g3
sg32
S'29'
p227
sg34
S'SYR'
p228
sg36
S'72'
p229
sg38
g3
sg39
S'629'
p230
sg41
S'224'
p231
sg42
S'696'
p232
sg44
g3
sg45
S'1957-58'
p233
sg47
S'1458'
p234
sg49
g3
sg50
S'.904'
p235
sg52
S'581'
p236
sg54
S'2918'
p237
sba(isrc.gp1.models.Totals
Totals
p238
(dp239
g8
g3
sg9
S'.387'
p240
sg11
S'504'
p241
sg13
g3
sg14
S'.387'
p242
sg16
S'1304'
p243
sg18
g3
sg19
S'PF'
p244
sg21
S'1534'
p245
sg22
S'962'
p246
sg24
S'NBA'
p247
sg26
g3
sg27
S'.387'
p248
sg29
g3
sg30
S'280'
p249
sg31
g3
sg32
S'30'
p250
sg34
S'SYR'
p251
sg36
S'72'
p252
sg38
g3
sg39
S'526'
p253
sg41
S'178'
p254
sg42
S'609'
p255
sg44
g3
sg45
S'1958-59'
p256
sg47
S'1304'
p257
sg49
g3
sg50
S'.864'
p258
sg52
S'504'
p259
sg54
S'2645'
p260
sba(isrc.gp1.models.Totals
Totals
p261
(dp262
g8
g3
sg9
S'.401'
p263
sg11
S'578'
p264
sg13
g3
sg14
S'.401'
p265
sg16
S'1440'
p266
sg18
g3
sg19
S'PF'
p267
sg21
S'1689'
p268
sg22
S'959'
p269
sg24
S'NBA'
p270
sg26
g3
sg27
S'.401'
p271
sg29
g3
sg30
S'263'
p272
sg31
g3
sg32
S'31'
p273
sg34
S'SYR'
p274
sg36
S'75'
p275
sg38
g3
sg39
S'533'
p276
sg41
S'256'
p277
sg42
S'597'
p278
sg44
g3
sg45
S'1959-60'
p279
sg47
S'1440'
p280
sg49
g3
sg50
S'.893'
p281
sg52
S'578'
p282
sg54
S'2741'
p283
sba(isrc.gp1.models.Totals
Totals
p284
(dp285
g8
g3
sg9
S'.372'
p286
sg11
S'594'
p287
sg13
g3
sg14
S'.372'
p288
sg16
S'1595'
p289
sg18
g3
sg19
S'PF'
p290
sg21
S'1868'
p291
sg22
S'960'
p292
sg24
S'NBA'
p293
sg26
g3
sg27
S'.372'
p294
sg29
g3
sg30
S'296'
p295
sg31
g3
sg32
S'32'
p296
sg34
S'SYR'
p297
sg36
S'79'
p298
sg38
g3
sg39
S'680'
p299
sg41
S'296'
p300
sg42
S'783'
p301
sg44
g3
sg45
S'1960-61'
p302
sg47
S'1595'
p303
sg49
g3
sg50
S'.868'
p304
sg52
S'594'
p305
sg54
S'3007'
p306
sba(isrc.gp1.models.Totals
Totals
p307
(dp308
g8
g3
sg9
S'.357'
p309
sg11
S'268'
p310
sg13
g3
sg14
S'.357'
p311
sg16
S'751'
p312
sg18
g3
sg19
S'PF'
p313
sg21
S'822'
p314
sg22
S'439'
p315
sg24
S'NBA'
p316
sg26
g3
sg27
S'.357'
p317
sg29
g3
sg30
S'167'
p318
sg31
g3
sg32
S'33'
p319
sg34
S'SYR'
p320
sg36
S'56'
p321
sg38
g3
sg39
S'286'
p322
sg41
S'120'
p323
sg42
S'319'
p324
sg44
g3
sg45
S'1961-62'
p325
sg47
S'751'
p326
sg49
g3
sg50
S'.897'
p327
sg52
S'268'
p328
sg54
S'1480'
p329
sba(isrc.gp1.models.Totals
Totals
p330
(dp331
g8
g3
sg9
S'.388'
p332
sg11
S'223'
p333
sg13
g3
sg14
S'.388'
p334
sg16
S'575'
p335
sg18
g3
sg19
S'PF'
p336
sg21
S'627'
p337
sg22
S'375'
p338
sg24
S'NBA'
p339
sg26
g3
sg27
S'.388'
p340
sg29
g3
sg30
S'177'
p341
sg31
g3
sg32
S'34'
p342
sg34
S'SYR'
p343
sg36
S'66'
p344
sg38
g3
sg39
S'181'
p345
sg41
S'175'
p346
sg42
S'206'
p347
sg44
g3
sg45
S'1962-63'
p348
sg47
S'575'
p349
sg49
g3
sg50
S'.879'
p350
sg52
S'223'
p351
sg54
S'1438'
p352
sba(isrc.gp1.models.Totals
Totals
p353
(dp354
g8
g3
sg9
S'.308'
p355
sg11
S'44'
p356
sg13
g3
sg14
S'.308'
p357
sg16
S'143'
p358
sg18
g3
sg19
S'PF'
p359
sg21
S'134'
p360
sg22
S'110'
p361
sg24
S'NBA'
p362
sg26
g3
sg27
S'.308'
p363
sg29
g3
sg30
S'76'
p364
sg31
g3
sg32
S'35'
p365
sg34
S'PHI'
p366
sg36
S'24'
p367
sg38
g3
sg39
S'46'
p368
sg41
S'48'
p369
sg42
S'57'
p370
sg44
g3
sg45
S'1963-64'
p371
sg47
S'143'
p372
sg49
g3
sg50
S'.807'
p373
sg52
S'44'
p374
sg54
S'350'
p375
sbasS'_college'
p376
S'New York University'
p377
sS'_toYear'
p378
S'1964'
p379
sS'_height'
p380
S'6-8'
p381
sS'_active'
p382
I00
sS'_shootingHand'
p383
VRight
p384
sS'_name'
p385
S'Dolph Schayes'
p386
sS'_per100Possessions'
p387
(lp388
sS'_advanced'
p389
(lp390
(isrc.gp1.models.Advanced
Advanced
p391
(dp392
S'_offensiveReboundPercentage'
p393
g3
sS'_turnOverPercentage'
p394
g3
sS'_winSharesPer48Minutes'
p395
g3
sS'_stealPercentage'
p396
g3
sS'_usagePercentage'
p397
g3
sS'_totalReboundsPercentage'
p398
g3
sS'_defensiveBoxPlusMinus'
p399
g3
sg19
S'64'
p400
sS'_valueOverReplacementPlayer'
p401
g3
sS'_trueShootingPercentage'
p402
S'4.0'
p403
sS'_defensiveReboundPercentage'
p404
g3
sS'_freeThrowsAttempRate'
p405
g3
sS'_threePointsAttempRate'
p406
S'12.8'
p407
sg24
S'NBA'
p408
sS'_offensiveBoxPlusMinues'
p409
g3
sS'_assistPercentage'
p410
g3
sS'_defensiveWinShares'
p411
g3
sg32
S'21'
p412
sg34
S'SYR'
p413
sg36
S'.480'
p414
sS'_blockPercentage'
p415
g3
sS'_playerEfficiencyRating'
p416
S'8.8'
p417
sS'_offensiveWinShares'
p418
g3
sg52
S'.538'
p419
sS'_boxPlusMinus'
p420
g3
sg45
S'1949-50'
p421
sS'_winShares'
p422
g3
sba(isrc.gp1.models.Advanced
Advanced
p423
(dp424
g393
g3
sg394
g3
sg395
g3
sg396
g3
sg397
g3
sg398
g3
sg399
g3
sg19
S'66'
p425
sg401
g3
sg402
S'3.8'
p426
sg404
g3
sg405
g3
sg406
S'10.3'
p427
sg24
S'NBA'
p428
sg409
g3
sg410
g3
sg411
g3
sg32
S'22'
p429
sg34
S'SYR'
p430
sg36
S'.468'
p431
sg415
g3
sg416
S'6.5'
p432
sg418
g3
sg52
S'.654'
p433
sg420
g3
sg45
S'1950-51'
p434
sg422
g3
sba(isrc.gp1.models.Advanced
Advanced
p435
(dp436
g393
S'4.0'
p437
sg394
g3
sg395
g3
sg396
g3
sg397
g3
sg398
S'.203'
p438
sg399
g3
sg19
S'PF'
p439
sg401
g3
sg402
S'.468'
p440
sg404
S'8.5'
p441
sg405
S'4.4'
p442
sg406
S'.573'
p443
sg24
S'NBA'
p444
sg409
g3
sg410
g3
sg411
g3
sg32
S'23'
p445
sg34
S'SYR'
p446
sg36
S'63'
p447
sg415
g3
sg416
S'23.7'
p448
sg418
g3
sg52
S'2004'
p449
sg420
g3
sg45
S'1951-52'
p450
sg422
g3
sba(isrc.gp1.models.Advanced
Advanced
p451
(dp452
g393
S'5.1'
p453
sg394
g3
sg395
g3
sg396
g3
sg397
g3
sg398
S'.236'
p454
sg399
g3
sg19
S'PF'
p455
sg401
g3
sg402
S'.495'
p456
sg404
S'13.1'
p457
sg405
S'8.0'
p458
sg406
S'.618'
p459
sg24
S'NBA'
p460
sg409
g3
sg410
g3
sg411
g3
sg32
S'24'
p461
sg34
S'SYR'
p462
sg36
S'71'
p463
sg415
g3
sg416
S'25.4'
p464
sg418
g3
sg52
S'2668'
p465
sg420
g3
sg45
S'1952-53'
p466
sg422
g3
sba(isrc.gp1.models.Advanced
Advanced
p467
(dp468
g393
S'6.3'
p469
sg394
g3
sg395
g3
sg396
g3
sg397
g3
sg398
S'.267'
p470
sg399
g3
sg19
g129
sg401
g3
sg402
S'.498'
p471
sg404
S'14.8'
p472
sg405
S'8.4'
p473
sg406
S'.606'
p474
sg24
S'NBA'
p475
sg409
g3
sg410
g3
sg411
g3
sg32
S'25'
p476
sg34
S'SYR'
p477
sg36
S'72'
p478
sg415
g3
sg416
S'24.3'
p479
sg418
g3
sg52
S'2655'
p480
sg420
g3
sg45
S'1953-54'
p481
sg422
g3
sba(isrc.gp1.models.Advanced
Advanced
p482
(dp483
g393
S'5.7'
p484
sg394
g3
sg395
g3
sg396
g3
sg397
g3
sg398
S'.229'
p485
sg399
g3
sg19
S'PF'
p486
sg401
g3
sg402
S'.490'
p487
sg404
S'12.0'
p488
sg405
S'6.4'
p489
sg406
S'.532'
p490
sg24
S'NBA'
p491
sg409
g3
sg410
g3
sg411
g3
sg32
S'26'
p492
sg34
S'SYR'
p493
sg36
S'72'
p494
sg415
g3
sg416
S'23.0'
p495
sg418
g3
sg52
S'2526'
p496
sg420
g3
sg45
S'1954-55'
p497
sg422
g3
sba(isrc.gp1.models.Advanced
Advanced
p498
(dp499
g393
S'4.9'
p500
sg394
g3
sg395
g3
sg396
g3
sg397
g3
sg398
S'.225'
p501
sg399
g3
sg19
S'PF'
p502
sg401
g3
sg402
S'.497'
p503
sg404
S'11.8'
p504
sg405
S'6.9'
p505
sg406
S'.526'
p506
sg24
S'NBA'
p507
sg409
g3
sg410
g3
sg411
g3
sg32
S'27'
p508
sg34
S'SYR'
p509
sg36
S'72'
p510
sg415
g3
sg416
S'23.7'
p511
sg418
g3
sg52
S'2517'
p512
sg420
g3
sg45
S'1955-56'
p513
sg422
g3
sba(isrc.gp1.models.Advanced
Advanced
p514
(dp515
g393
S'3.7'
p516
sg394
g3
sg395
g3
sg396
g3
sg397
g3
sg398
S'.211'
p517
sg399
g3
sg19
S'PF'
p518
sg401
g3
sg402
S'.502'
p519
sg404
S'12.5'
p520
sg405
S'8.8'
p521
sg406
S'.528'
p522
sg24
S'NBA'
p523
sg409
g3
sg410
g3
sg411
g3
sg32
S'28'
p524
sg34
S'SYR'
p525
sg36
S'72'
p526
sg415
g3
sg416
S'24.4'
p527
sg418
g3
sg52
S'2851'
p528
sg420
g3
sg45
S'1956-57'
p529
sg422
g3
sba(isrc.gp1.models.Advanced
Advanced
p530
(dp531
g393
S'4.0'
p532
sg394
g3
sg395
g3
sg396
g3
sg397
g3
sg398
S'.226'
p533
sg399
g3
sg19
S'PF'
p534
sg401
g3
sg402
S'.508'
p535
sg404
S'13.7'
p536
sg405
S'9.7'
p537
sg406
S'.477'
p538
sg24
S'NBA'
p539
sg409
g3
sg410
g3
sg411
g3
sg32
S'29'
p540
sg34
S'SYR'
p541
sg36
S'72'
p542
sg415
g3
sg416
S'24.2'
p543
sg418
g3
sg52
S'2918'
p544
sg420
g3
sg45
S'1957-58'
p545
sg422
g3
sba(isrc.gp1.models.Advanced
Advanced
p546
(dp547
g393
S'3.6'
p548
sg394
g3
sg395
g3
sg396
g3
sg397
g3
sg398
S'.171'
p549
sg399
g3
sg19
S'PF'
p550
sg401
g3
sg402
S'.488'
p551
sg404
S'9.4'
p552
sg405
S'5.8'
p553
sg406
S'.467'
p554
sg24
S'NBA'
p555
sg409
g3
sg410
g3
sg411
g3
sg32
S'30'
p556
sg34
S'SYR'
p557
sg36
S'72'
p558
sg415
g3
sg416
S'21.0'
p559
sg418
g3
sg52
S'2645'
p560
sg420
g3
sg45
S'1958-59'
p561
sg422
g3
sba(isrc.gp1.models.Advanced
Advanced
p562
(dp563
g393
S'3.3'
p564
sg394
g3
sg395
g3
sg396
g3
sg397
g3
sg398
S'.167'
p565
sg399
g3
sg19
S'PF'
p566
sg401
g3
sg402
S'.496'
p567
sg404
S'9.5'
p568
sg405
S'6.2'
p569
sg406
S'.415'
p570
sg24
S'NBA'
p571
sg409
g3
sg410
g3
sg411
g3
sg32
S'31'
p572
sg34
S'SYR'
p573
sg36
S'75'
p574
sg415
g3
sg416
S'20.5'
p575
sg418
g3
sg52
S'2741'
p576
sg420
g3
sg45
S'1959-60'
p577
sg422
g3
sba(isrc.gp1.models.Advanced
Advanced
p578
(dp579
g393
S'3.5'
p580
sg394
g3
sg395
g3
sg396
g3
sg397
g3
sg398
S'.136'
p581
sg399
g3
sg19
S'PF'
p582
sg401
g3
sg402
S'.482'
p583
sg404
S'8.5'
p584
sg405
S'5.0'
p585
sg406
S'.491'
p586
sg24
S'NBA'
p587
sg409
g3
sg410
g3
sg411
g3
sg32
S'32'
p588
sg34
S'SYR'
p589
sg36
S'79'
p590
sg415
g3
sg416
S'19.2'
p591
sg418
g3
sg52
S'3007'
p592
sg420
g3
sg45
S'1960-61'
p593
sg422
g3
sba(isrc.gp1.models.Advanced
Advanced
p594
(dp595
g393
S'2.1'
p596
sg394
g3
sg395
g3
sg396
g3
sg397
g3
sg398
S'.099'
p597
sg399
g3
sg19
S'PF'
p598
sg401
g3
sg402
S'.461'
p599
sg404
S'3.1'
p600
sg405
S'0.9'
p601
sg406
S'.425'
p602
sg24
S'NBA'
p603
sg409
g3
sg410
g3
sg411
g3
sg32
S'33'
p604
sg34
S'SYR'
p605
sg36
S'56'
p606
sg415
g3
sg416
S'15.8'
p607
sg418
g3
sg52
S'1480'
p608
sg420
g3
sg45
S'1961-62'
p609
sg422
g3
sba(isrc.gp1.models.Advanced
Advanced
p610
(dp611
g393
S'1.7'
p612
sg394
g3
sg395
g3
sg396
g3
sg397
g3
sg398
S'.081'
p613
sg399
g3
sg19
S'PF'
p614
sg401
g3
sg402
S'.471'
p615
sg404
S'2.4'
p616
sg405
S'0.7'
p617
sg406
S'.358'
p618
sg24
S'NBA'
p619
sg409
g3
sg410
g3
sg411
g3
sg32
S'34'
p620
sg34
S'SYR'
p621
sg36
S'66'
p622
sg415
g3
sg416
S'14.2'
p623
sg418
g3
sg52
S'1438'
p624
sg420
g3
sg45
S'1962-63'
p625
sg422
g3
sba(isrc.gp1.models.Advanced
Advanced
p626
(dp627
g393
S'0.3'
p628
sg394
g3
sg395
g3
sg396
g3
sg397
g3
sg398
S'-0.010'
p629
sg399
g3
sg19
S'PF'
p630
sg401
g3
sg402
S'.399'
p631
sg404
S'-0.1'
p632
sg405
S'-0.4'
p633
sg406
S'.399'
p634
sg24
S'NBA'
p635
sg409
g3
sg410
g3
sg411
g3
sg32
S'35'
p636
sg34
S'PHI'
p637
sg36
S'24'
p638
sg415
g3
sg416
S'11.5'
p639
sg418
g3
sg52
S'350'
p640
sg420
g3
sg45
S'1963-64'
p641
sg422
g3
sbasS'_per36Minutes'
p642
(lp643
(isrc.gp1.models.Per36Minutes
Per36Minutes
p644
(dp645
g8
g3
sg9
g3
sg11
g3
sg13
g3
sg14
g3
sg16
g3
sg18
g3
sg19
S'64'
p646
sg21
g3
sg24
S'NBA'
p647
sg26
g3
sg27
g3
sg29
g3
sg30
g3
sg31
g3
sg32
S'21'
p648
sg34
S'SYR'
p649
sg36
S'.385'
p650
sg38
g3
sg39
g3
sg41
g3
sg42
g3
sg44
g3
sg45
S'1949-50'
p651
sg47
g3
sg49
g3
sg50
g3
sg52
S'.774'
p652
sg54
S'.385'
p653
sba(isrc.gp1.models.Per36Minutes
Per36Minutes
p654
(dp655
g8
g3
sg9
g3
sg11
g3
sg13
g3
sg14
g3
sg16
g3
sg18
g3
sg19
S'66'
p656
sg21
g3
sg24
S'NBA'
p657
sg26
g3
sg27
g3
sg29
g3
sg30
g3
sg31
g3
sg32
S'22'
p658
sg34
S'SYR'
p659
sg36
S'.357'
p660
sg38
g3
sg39
g3
sg41
g3
sg42
g3
sg44
g3
sg45
S'1950-51'
p661
sg47
g3
sg49
g3
sg50
g3
sg52
S'.752'
p662
sg54
S'.357'
p663
sba(isrc.gp1.models.Per36Minutes
Per36Minutes
p664
(dp665
g8
g3
sg9
S'.355'
p666
sg11
S'4.7'
p667
sg13
g3
sg14
S'6.1'
p668
sg16
S'13.3'
p669
sg18
g3
sg19
S'PF'
p670
sg21
S'15.6'
p671
sg24
S'NBA'
p672
sg26
g3
sg27
S'.355'
p673
sg29
g3
sg30
S'3.8'
p674
sg31
g3
sg32
S'23'
p675
sg34
S'SYR'
p676
sg36
S'63'
p677
sg38
g3
sg39
S'7.6'
p678
sg41
S'3.3'
p679
sg42
S'.807'
p680
sg44
g3
sg45
S'1951-52'
p681
sg47
S'13.3'
p682
sg49
g3
sg50
S'13.9'
p683
sg52
S'4.7'
p684
sg54
S'2004'
p685
sba(isrc.gp1.models.Per36Minutes
Per36Minutes
p686
(dp687
g8
g3
sg9
S'.374'
p688
sg11
S'5.1'
p689
sg13
g3
sg14
S'6.9'
p690
sg16
S'13.5'
p691
sg18
g3
sg19
S'PF'
p692
sg21
S'17.0'
p693
sg24
S'NBA'
p694
sg26
g3
sg27
S'.374'
p695
sg29
g3
sg30
S'3.7'
p696
sg31
g3
sg32
S'24'
p697
sg34
S'SYR'
p698
sg36
S'71'
p699
sg38
g3
sg39
S'8.4'
p700
sg41
S'3.1'
p701
sg42
S'.827'
p702
sg44
g3
sg45
S'1952-53'
p703
sg47
S'13.5'
p704
sg49
g3
sg50
S'12.4'
p705
sg52
S'5.1'
p706
sg54
S'2668'
p707
sba(isrc.gp1.models.Per36Minutes
Per36Minutes
p708
(dp709
g8
g3
sg9
S'.380'
p710
sg11
S'5.0'
p711
sg13
g3
sg14
S'6.6'
p712
sg16
S'13.2'
p713
sg18
g3
sg19
g129
sg21
S'16.7'
p714
sg24
S'NBA'
p715
sg26
g3
sg27
S'.380'
p716
sg29
g3
sg30
S'3.1'
p717
sg31
g3
sg32
S'25'
p718
sg34
S'SYR'
p719
sg36
S'72'
p720
sg38
g3
sg39
S'8.0'
p721
sg41
S'2.9'
p722
sg42
S'.827'
p723
sg44
g3
sg45
S'1953-54'
p724
sg47
S'13.2'
p725
sg49
g3
sg50
S'11.8'
p726
sg52
S'5.0'
p727
sg54
S'2655'
p728
sba(isrc.gp1.models.Per36Minutes
Per36Minutes
p729
(dp730
g8
g3
sg9
S'.383'
p731
sg11
S'6.0'
p732
sg13
g3
sg14
S'7.0'
p733
sg16
S'15.7'
p734
sg18
g3
sg19
S'PF'
p735
sg21
S'19.0'
p736
sg24
S'NBA'
p737
sg26
g3
sg27
S'.383'
p738
sg29
g3
sg30
S'3.5'
p739
sg31
g3
sg32
S'26'
p740
sg34
S'SYR'
p741
sg36
S'72'
p742
sg38
g3
sg39
S'8.4'
p743
sg41
S'3.0'
p744
sg42
S'.833'
p745
sg44
g3
sg45
S'1954-55'
p746
sg47
S'15.7'
p747
sg49
g3
sg50
S'12.6'
p748
sg52
S'6.0'
p749
sg54
S'2526'
p750
sba(isrc.gp1.models.Per36Minutes
Per36Minutes
p751
(dp752
g8
g3
sg9
S'.387'
p753
sg11
S'6.7'
p754
sg13
g3
sg14
S'7.8'
p755
sg16
S'17.2'
p756
sg18
g3
sg19
S'PF'
p757
sg21
S'21.1'
p758
sg24
S'NBA'
p759
sg26
g3
sg27
S'.387'
p760
sg29
g3
sg30
S'3.6'
p761
sg31
g3
sg32
S'27'
p762
sg34
S'SYR'
p763
sg36
S'72'
p764
sg38
g3
sg39
S'9.0'
p765
sg41
S'2.9'
p766
sg42
S'.858'
p767
sg44
g3
sg45
S'1955-56'
p768
sg47
S'17.2'
p769
sg49
g3
sg50
S'12.7'
p770
sg52
S'6.7'
p771
sg54
S'2517'
p772
sba(isrc.gp1.models.Per36Minutes
Per36Minutes
p773
(dp774
g8
g3
sg9
S'.379'
p775
sg11
S'6.3'
p776
sg13
g3
sg14
S'7.9'
p777
sg16
S'16.5'
p778
sg18
g3
sg19
S'PF'
p779
sg21
S'20.4'
p780
sg24
S'NBA'
p781
sg26
g3
sg27
S'.379'
p782
sg29
g3
sg30
S'2.8'
p783
sg31
g3
sg32
S'28'
p784
sg34
S'SYR'
p785
sg36
S'72'
p786
sg38
g3
sg39
S'8.7'
p787
sg41
S'2.9'
p788
sg42
S'.904'
p789
sg44
g3
sg45
S'1956-57'
p790
sg47
S'16.5'
p791
sg49
g3
sg50
S'12.7'
p792
sg52
S'6.3'
p793
sg54
S'2851'
p794
sba(isrc.gp1.models.Per36Minutes
Per36Minutes
p795
(dp796
g8
g3
sg9
S'.398'
p797
sg11
S'7.2'
p798
sg13
g3
sg14
S'7.8'
p799
sg16
S'18.0'
p800
sg18
g3
sg19
S'PF'
p801
sg21
S'22.1'
p802
sg24
S'NBA'
p803
sg26
g3
sg27
S'.398'
p804
sg29
g3
sg30
S'3.0'
p805
sg31
g3
sg32
S'29'
p806
sg34
S'SYR'
p807
sg36
S'72'
p808
sg38
g3
sg39
S'8.6'
p809
sg41
S'2.8'
p810
sg42
S'.904'
p811
sg44
g3
sg45
S'1957-58'
p812
sg47
S'18.0'
p813
sg49
g3
sg50
S'12.6'
p814
sg52
S'7.2'
p815
sg54
S'2918'
p816
sba(isrc.gp1.models.Per36Minutes
Per36Minutes
p817
(dp818
g8
g3
sg9
S'.387'
p819
sg11
S'6.9'
p820
sg13
g3
sg14
S'7.2'
p821
sg16
S'17.7'
p822
sg18
g3
sg19
S'PF'
p823
sg21
S'20.9'
p824
sg24
S'NBA'
p825
sg26
g3
sg27
S'.387'
p826
sg29
g3
sg30
S'3.8'
p827
sg31
g3
sg32
S'30'
p828
sg34
S'SYR'
p829
sg36
S'72'
p830
sg38
g3
sg39
S'8.3'
p831
sg41
S'2.4'
p832
sg42
S'.864'
p833
sg44
g3
sg45
S'1958-59'
p834
sg47
S'17.7'
p835
sg49
g3
sg50
S'13.1'
p836
sg52
S'6.9'
p837
sg54
S'2645'
p838
sba(isrc.gp1.models.Per36Minutes
Per36Minutes
p839
(dp840
g8
g3
sg9
S'.401'
p841
sg11
S'7.6'
p842
sg13
g3
sg14
S'7.0'
p843
sg16
S'18.9'
p844
sg18
g3
sg19
S'PF'
p845
sg21
S'22.2'
p846
sg24
S'NBA'
p847
sg26
g3
sg27
S'.401'
p848
sg29
g3
sg30
S'3.5'
p849
sg31
g3
sg32
S'31'
p850
sg34
S'SYR'
p851
sg36
S'75'
p852
sg38
g3
sg39
S'7.8'
p853
sg41
S'3.4'
p854
sg42
S'.893'
p855
sg44
g3
sg45
S'1959-60'
p856
sg47
S'18.9'
p857
sg49
g3
sg50
S'12.6'
p858
sg52
S'7.6'
p859
sg54
S'2741'
p860
sba(isrc.gp1.models.Per36Minutes
Per36Minutes
p861
(dp862
g8
g3
sg9
S'.372'
p863
sg11
S'7.1'
p864
sg13
g3
sg14
S'8.1'
p865
sg16
S'19.1'
p866
sg18
g3
sg19
S'PF'
p867
sg21
S'22.4'
p868
sg24
S'NBA'
p869
sg26
g3
sg27
S'.372'
p870
sg29
g3
sg30
S'3.5'
p871
sg31
g3
sg32
S'32'
p872
sg34
S'SYR'
p873
sg36
S'79'
p874
sg38
g3
sg39
S'9.4'
p875
sg41
S'3.5'
p876
sg42
S'.868'
p877
sg44
g3
sg45
S'1960-61'
p878
sg47
S'19.1'
p879
sg49
g3
sg50
S'11.5'
p880
sg52
S'7.1'
p881
sg54
S'3007'
p882
sba(isrc.gp1.models.Per36Minutes
Per36Minutes
p883
(dp884
g8
g3
sg9
S'.357'
p885
sg11
S'6.5'
p886
sg13
g3
sg14
S'7.0'
p887
sg16
S'18.3'
p888
sg18
g3
sg19
S'PF'
p889
sg21
S'20.0'
p890
sg24
S'NBA'
p891
sg26
g3
sg27
S'.357'
p892
sg29
g3
sg30
S'4.1'
p893
sg31
g3
sg32
S'33'
p894
sg34
S'SYR'
p895
sg36
S'56'
p896
sg38
g3
sg39
S'7.8'
p897
sg41
S'2.9'
p898
sg42
S'.897'
p899
sg44
g3
sg45
S'1961-62'
p900
sg47
S'18.3'
p901
sg49
g3
sg50
S'10.7'
p902
sg52
S'6.5'
p903
sg54
S'1480'
p904
sba(isrc.gp1.models.Per36Minutes
Per36Minutes
p905
(dp906
g8
g3
sg9
S'.388'
p907
sg11
S'5.6'
p908
sg13
g3
sg14
S'4.5'
p909
sg16
S'14.4'
p910
sg18
g3
sg19
S'PF'
p911
sg21
S'15.7'
p912
sg24
S'NBA'
p913
sg26
g3
sg27
S'.388'
p914
sg29
g3
sg30
S'4.4'
p915
sg31
g3
sg32
S'34'
p916
sg34
S'SYR'
p917
sg36
S'66'
p918
sg38
g3
sg39
S'5.2'
p919
sg41
S'4.4'
p920
sg42
S'.879'
p921
sg44
g3
sg45
S'1962-63'
p922
sg47
S'14.4'
p923
sg49
g3
sg50
S'9.4'
p924
sg52
S'5.6'
p925
sg54
S'1438'
p926
sba(isrc.gp1.models.Per36Minutes
Per36Minutes
p927
(dp928
g8
g3
sg9
S'.308'
p929
sg11
S'4.5'
p930
sg13
g3
sg14
S'4.7'
p931
sg16
S'14.7'
p932
sg18
g3
sg19
S'PF'
p933
sg21
S'13.8'
p934
sg24
S'NBA'
p935
sg26
g3
sg27
S'.308'
p936
sg29
g3
sg30
S'7.8'
p937
sg31
g3
sg32
S'35'
p938
sg34
S'PHI'
p939
sg36
S'24'
p940
sg38
g3
sg39
S'5.9'
p941
sg41
S'4.9'
p942
sg42
S'.807'
p943
sg44
g3
sg45
S'1963-64'
p944
sg47
S'14.7'
p945
sg49
g3
sg50
S'11.3'
p946
sg52
S'4.5'
p947
sg54
S'350'
p948
sbasS'_fromYear'
p949
S'1950'
p950
sS'_url'
p951
S'http://www.basketball-reference.com/players/s/schaydo01.html'
p952
sS'_perGame'
p953
(isrc.gp1.models.PerGame
PerGame
p954
(dp955
g8
g3
sg9
S'.308'
p956
sg11
S'1.8'
p957
sS'_effectiveFieldGalPercentage'
p958
S'4.6'
p959
sg13
g3
sg14
S'.308'
p960
sg16
S'6.0'
p961
sg18
g3
sg19
S'PF'
p962
sg21
S'5.6'
p963
sg24
S'NBA'
p964
sg26
g3
sg29
g3
sS'_fieldGoalsttempted'
p965
S'.308'
p966
sg30
S'3.2'
p967
sg31
g3
sg32
S'35'
p968
sg34
S'PHI'
p969
sg36
S'24'
p970
sg38
g3
sg39
S'1.9'
p971
sg41
S'2.0'
p972
sg42
S'2.4'
p973
sg44
g3
sg45
S'1963-64'
p974
sg47
S'6.0'
p975
sg49
g3
sg50
S'.807'
p976
sg52
S'1.8'
p977
sg54
S'14.6'
p978
sbsS'_weight'
p979
S'220'
p980
sS'_dob'
p981
S'19-5-1928'
p982
sS'_salary'
p983
(lp984
sg19
S'F-C'
p985
sb.