(isrc.gp1.models.Player
Player
p0
(dp1
S'_experience'
p2
S'NA'
p3
sS'_totals'
p4
(lp5
(isrc.gp1.models.Totals
Totals
p6
(dp7
S'_offensiveRebounds'
p8
S'104'
p9
sS'_threePointsAttempted'
p10
S'1'
p11
sS'_fieldGoalsPercentage'
p12
S'.357'
p13
sS'_assist'
p14
S'33'
p15
sS'_threePointsPercentage'
p16
S'.000'
p17
sS'_threePoints'
p18
S'0'
p19
sS'_points'
p20
S'332'
p21
sS'_position'
p22
S'PF'
p23
sS'_freeThrowsPercentage'
p24
S'.747'
p25
sS'_effectiveFieldGoalPercentage'
p26
S'.357'
p27
sS'_league'
p28
S'ABA'
p29
sS'_steals'
p30
g3
sS'_fieldGoalsAttempted'
p31
S'387'
p32
sS'_personalFouls'
p33
S'179'
p34
sS'_freeThrowsAttempted'
p35
S'75'
p36
sS'_totalRebounds'
p37
S'292'
p38
sS'_age'
p39
S'25'
p40
sS'_team'
p41
S'INA'
p42
sS'_games'
p43
S'58'
p44
sS'_blocks'
p45
g3
sS'_twoPoints'
p46
S'138'
p47
sS'_freeThrows'
p48
S'56'
p49
sS'_twoPointsAttempted'
p50
S'386'
p51
sS'_defensiveRebounds'
p52
S'188'
p53
sS'_season'
p54
S'1968-69'
p55
sS'_fieldGoals'
p56
S'138'
p57
sS'_turnOvers'
p58
S'72'
p59
sS'_twoPointsPercentage'
p60
S'.358'
p61
sS'_minutesPlayed'
p62
S'989'
p63
sS'_gamesStarted'
p64
g3
sbasS'_college'
p65
S'Saint Mary of the Plains College'
p66
sS'_toYear'
p67
S'1969'
p68
sS'_height'
p69
S'6-8'
p70
sS'_active'
p71
I00
sS'_shootingHand'
p72
VRight
p73
sS'_name'
p74
S'Donald Dee'
p75
sS'_per100Possessions'
p76
(lp77
sS'_advanced'
p78
(lp79
(isrc.gp1.models.Advanced
Advanced
p80
(dp81
S'_offensiveReboundPercentage'
p82
g3
sS'_turnOverPercentage'
p83
S'14.6'
p84
sS'_winSharesPer48Minutes'
p85
S'-0.015'
p86
sS'_stealPercentage'
p87
g3
sS'_usagePercentage'
p88
S'17.7'
p89
sS'_totalReboundsPercentage'
p90
S'12.8'
p91
sS'_defensiveBoxPlusMinus'
p92
g3
sg22
S'PF'
p93
sS'_valueOverReplacementPlayer'
p94
g3
sS'_trueShootingPercentage'
p95
S'.395'
p96
sS'_defensiveReboundPercentage'
p97
g3
sS'_freeThrowsAttempRate'
p98
S'.194'
p99
sS'_threePointsAttempRate'
p100
S'.003'
p101
sg28
S'ABA'
p102
sS'_offensiveBoxPlusMinues'
p103
g3
sS'_assistPercentage'
p104
S'4.3'
p105
sS'_defensiveWinShares'
p106
S'1.1'
p107
sg39
S'25'
p108
sg41
S'INA'
p109
sg43
S'58'
p110
sS'_blockPercentage'
p111
g3
sS'_playerEfficiencyRating'
p112
S'7.0'
p113
sS'_offensiveWinShares'
p114
S'-1.4'
p115
sg62
S'989'
p116
sS'_boxPlusMinus'
p117
g3
sg54
S'1968-69'
p118
sS'_winShares'
p119
S'-0.3'
p120
sbasS'_per36Minutes'
p121
(lp122
(isrc.gp1.models.Per36Minutes
Per36Minutes
p123
(dp124
g8
S'3.8'
p125
sg10
S'0.0'
p126
sg12
S'.357'
p127
sg14
S'1.2'
p128
sg16
S'.000'
p129
sg18
S'0.0'
p130
sg20
S'12.1'
p131
sg22
S'PF'
p132
sg24
S'.747'
p133
sg28
S'ABA'
p134
sg30
g3
sg31
S'14.1'
p135
sg33
S'6.5'
p136
sg35
S'2.7'
p137
sg37
S'10.6'
p138
sg39
S'25'
p139
sg41
S'INA'
p140
sg43
S'58'
p141
sg45
g3
sg46
S'5.0'
p142
sg48
S'2.0'
p143
sg50
S'14.1'
p144
sg52
S'6.8'
p145
sg54
S'1968-69'
p146
sg56
S'5.0'
p147
sg58
S'2.6'
p148
sg60
S'.358'
p149
sg62
S'989'
p150
sg64
g3
sbasS'_fromYear'
p151
S'1969'
p152
sS'_url'
p153
S'http://www.basketball-reference.com/players/d/deedo01.html'
p154
sS'_perGame'
p155
(isrc.gp1.models.PerGame
PerGame
p156
(dp157
g8
S'1.8'
p158
sg10
S'0.0'
p159
sg12
S'.357'
p160
sS'_effectiveFieldGalPercentage'
p161
S'.357'
p162
sg14
S'0.6'
p163
sg16
S'.000'
p164
sg18
S'0.0'
p165
sg20
S'5.7'
p166
sg22
S'PF'
p167
sg24
S'.747'
p168
sg28
S'ABA'
p169
sg30
g3
sg33
S'3.1'
p170
sS'_fieldGoalsttempted'
p171
S'6.7'
p172
sg35
S'1.3'
p173
sg37
S'5.0'
p174
sg39
S'25'
p175
sg41
S'INA'
p176
sg43
S'58'
p177
sg45
g3
sg46
S'2.4'
p178
sg48
S'1.0'
p179
sg50
S'6.7'
p180
sg52
S'3.2'
p181
sg54
S'1968-69'
p182
sg56
S'2.4'
p183
sg58
S'1.2'
p184
sg60
S'.358'
p185
sg62
S'17.1'
p186
sg64
g3
sbsS'_weight'
p187
S'210'
p188
sS'_dob'
p189
S'9-8-1943'
p190
sS'_salary'
p191
(lp192
sg22
S'F'
p193
sb.