(isrc.gp1.models.Player
Player
p0
(dp1
S'_experience'
p2
S'NA'
p3
sS'_totals'
p4
(lp5
(isrc.gp1.models.Totals
Totals
p6
(dp7
S'_offensiveRebounds'
p8
S'50'
p9
sS'_threePointsAttempted'
p10
S'.438'
p11
sS'_fieldGoalsPercentage'
p12
S'311'
p13
sS'_assist'
p14
S'726'
p15
sS'_threePointsPercentage'
p16
S'.438'
p17
sS'_threePoints'
p18
S'710'
p19
sS'_points'
p20
g3
sS'_position'
p21
S'SF'
p22
sS'_freeThrowsPercentage'
p23
S'111'
p24
sS'_effectiveFieldGoalPercentage'
p25
S'118'
p26
sS'_league'
p27
S'NBA'
p28
sS'_steals'
p29
g3
sS'_fieldGoalsAttempted'
p30
S'.438'
p31
sS'_personalFouls'
p32
g3
sS'_freeThrowsAttempted'
p33
S'333'
p34
sS'_totalRebounds'
p35
S'186'
p36
sS'_age'
p37
S'23'
p38
sS'_team'
p39
S'LAL'
p40
sS'_games'
p41
S'76'
p42
sS'_blocks'
p43
g3
sS'_twoPoints'
p44
S'104'
p45
sS'_freeThrows'
p46
S'215'
p47
sS'_twoPointsAttempted'
p48
S'139'
p49
sS'_defensiveRebounds'
p50
S'14'
p51
sS'_season'
p52
S'1975-76'
p53
sS'_fieldGoals'
p54
S'710'
p55
sS'_turnOvers'
p56
g3
sS'_twoPointsPercentage'
p57
S'.748'
p58
sS'_minutesPlayed'
p59
S'311'
p60
sS'_gamesStarted'
p61
S'1838'
p62
sba(isrc.gp1.models.Totals
Totals
p63
(dp64
g8
S'60'
p65
sg10
S'.460'
p66
sg12
S'262'
p67
sg14
S'597'
p68
sg16
S'.460'
p69
sg18
S'570'
p70
sg20
g3
sg21
S'PF'
p71
sg23
S'133'
p72
sg25
S'105'
p73
sg27
S'NBA'
p74
sg29
g3
sg30
S'.460'
p75
sg32
g3
sg33
S'353'
p76
sg35
S'170'
p77
sg37
S'24'
p78
sg39
S'LAL'
p79
sg41
S'82'
p80
sg43
g3
sg44
S'73'
p81
sg46
S'248'
p82
sg48
S'102'
p83
sg50
S'21'
p84
sg52
S'1976-77'
p85
sg54
S'570'
p86
sg56
g3
sg57
S'.716'
p87
sg59
S'262'
p88
sg61
S'1782'
p89
sba(isrc.gp1.models.Totals
Totals
p90
(dp91
g8
S'68'
p92
sg10
S'.472'
p93
sg12
S'272'
p94
sg14
S'210'
p95
sg16
S'.472'
p96
sg18
S'576'
p97
sg20
g3
sg21
S'PF'
p98
sg23
S'142'
p99
sg25
S'106'
p100
sg27
S'NBA'
p101
sg29
S'612'
p102
sg30
S'.472'
p103
sg32
g3
sg33
S'353'
p104
sg35
S'88'
p105
sg37
S'25'
p106
sg39
S'LAL'
p107
sg41
S'79'
p108
sg43
g3
sg44
S'68'
p109
sg46
S'247'
p110
sg48
S'90'
p111
sg50
S'46'
p112
sg52
S'1977-78'
p113
sg54
S'576'
p114
sg56
g3
sg57
S'.756'
p115
sg59
S'272'
p116
sg61
S'1945'
p117
sba(isrc.gp1.models.Totals
Totals
p118
(dp119
g8
S'51'
p120
sg10
S'.507'
p121
sg12
S'228'
p122
sg14
S'177'
p123
sg16
S'.507'
p124
sg18
S'450'
p125
sg20
g3
sg21
S'PF'
p126
sg23
S'101'
p127
sg25
S'83'
p128
sg27
S'NBA'
p129
sg29
S'528'
p130
sg30
S'.507'
p131
sg32
g3
sg33
S'268'
p132
sg35
S'93'
p133
sg37
S'26'
p134
sg39
S'LAL'
p135
sg41
S'79'
p136
sg43
g3
sg44
S'72'
p137
sg46
S'185'
p138
sg48
S'89'
p139
sg50
S'25'
p140
sg52
S'1978-79'
p141
sg54
S'450'
p142
sg56
g3
sg57
S'.809'
p143
sg59
S'228'
p144
sg61
S'1540'
p145
sba(isrc.gp1.models.Totals
Totals
p146
(dp147
g8
S'141'
p148
sg10
S'.333'
p149
sg12
S'1'
p150
sg14
S'22'
p151
sg16
S'130'
p152
sg18
S'3'
p153
sg20
g3
sg21
S'SF'
p154
sg23
S'44'
p155
sg25
S'45'
p156
sg27
S'NBA'
p157
sg29
S'21'
p158
sg30
S'.478'
p159
sg32
S'308'
p160
sg33
S'.849'
p161
sg35
S'65'
p162
sg37
S'27'
p163
sg39
S'TOT'
p164
sg41
S'73'
p165
sg43
S'51'
p166
sg44
S'271'
p167
sg46
S'53'
p168
sg48
S'.480'
p169
sg50
S'185'
p170
sg52
S'1979-80'
p171
sg54
S'274'
p172
sg56
S'131'
p173
sg57
S'.480'
p174
sg59
S'131'
p175
sg61
S'999'
p176
sba(isrc.gp1.models.Totals
Totals
p177
(dp178
g8
S'75'
p179
sg10
S'.000'
p180
sg12
S'0'
p181
sg14
S'11'
p182
sg16
S'66'
p183
sg18
g150
sg20
g3
sg21
S'SF'
p184
sg23
S'23'
p185
sg25
S'23'
p186
sg27
S'NBA'
p187
sg29
S'15'
p188
sg30
S'.508'
p189
sg32
S'155'
p190
sg33
S'.821'
p191
sg35
S'36'
p192
sg37
S'27'
p193
sg39
S'LAL'
p194
sg41
S'52'
p195
sg43
S'30'
p196
sg44
S'129'
p197
sg46
S'28'
p198
sg48
S'.512'
p199
sg50
S'98'
p200
sg52
S'1979-80'
p201
sg54
S'130'
p202
sg56
S'86'
p203
sg57
S'.508'
p204
sg59
S'66'
p205
sg61
S'580'
p206
sba(isrc.gp1.models.Totals
Totals
p207
(dp208
g8
S'66'
p209
sg10
S'.500'
p210
sg12
g150
sg14
S'11'
p211
sg16
S'64'
p212
sg18
S'2'
p213
sg20
g3
sg21
S'SF'
p214
sg23
S'21'
p215
sg25
S'22'
p216
sg27
S'NBA'
p217
sg29
S'6'
p218
sg30
S'.451'
p219
sg32
S'153'
p220
sg33
S'.880'
p221
sg35
S'29'
p222
sg37
S'27'
p223
sg39
S'CLE'
p224
sg41
S'21'
p225
sg43
S'21'
p226
sg44
S'142'
p227
sg46
S'25'
p228
sg48
S'.451'
p229
sg50
S'87'
p230
sg52
S'1979-80'
p231
sg54
S'144'
p232
sg56
S'45'
p233
sg57
S'.455'
p234
sg59
S'65'
p235
sg61
S'419'
p236
sba(isrc.gp1.models.Totals
Totals
p237
(dp238
g8
S'90'
p239
sg10
S'.000'
p240
sg12
g181
sg14
S'15'
p241
sg16
S'100'
p242
sg18
g153
sg20
g3
sg21
S'SF'
p243
sg23
S'74'
p244
sg25
S'22'
p245
sg27
S'NBA'
p246
sg29
S'12'
p247
sg30
S'.446'
p248
sg32
S'222'
p249
sg33
S'.917'
p250
sg35
S'84'
p251
sg37
S'28'
p252
sg39
S'CLE'
p253
sg41
S'64'
p254
sg43
S'49'
p255
sg44
S'221'
p256
sg46
S'24'
p257
sg48
S'.452'
p258
sg50
S'164'
p259
sg52
S'1980-81'
p260
sg54
S'224'
p261
sg56
S'100'
p262
sg57
S'.446'
p263
sg59
S'100'
p264
sg61
S'996'
p265
sba(isrc.gp1.models.Totals
Totals
p266
(dp267
g8
S'14'
p268
sg10
g150
sg12
S'.375'
p269
sg14
S'11'
p270
sg16
S'.000'
p271
sg18
g181
sg20
S'23'
p272
sg21
S'SF'
p273
sg23
S'.833'
p274
sg25
S'.375'
p275
sg27
S'NBA'
p276
sg29
S'8'
p277
sg30
S'24'
p278
sg32
S'30'
p279
sg33
g218
sg35
S'35'
p280
sg37
S'29'
p281
sg39
S'CLE'
p282
sg41
S'21'
p283
sg43
g181
sg44
S'9'
p284
sg46
S'5'
p285
sg48
S'23'
p286
sg50
S'21'
p287
sg52
S'1981-82'
p288
sg54
g284
sg56
S'15'
p289
sg57
S'.391'
p290
sg59
S'201'
p291
sg61
g150
sbasS'_college'
p292
S'University of California, Santa Barbara'
p293
sS'_toYear'
p294
S'1982'
p295
sS'_height'
p296
S'6-9'
p297
sS'_active'
p298
I00
sS'_shootingHand'
p299
VRight
p300
sS'_name'
p301
S'Don Ford'
p302
sS'_per100Possessions'
p303
(lp304
(isrc.gp1.models.Per100Possession
Per100Possession
p305
(dp306
g8
S'1.2'
p307
sg10
S'.438'
p308
sg12
S'7.5'
p309
sS'_offensiveRating'
p310
g3
sg14
S'17.6'
p311
sg16
S'2.5'
p312
sg18
S'17.2'
p313
sg20
g3
sg21
S'SF'
p314
sS'_defensiveRating'
p315
g3
sg23
S'2.7'
p316
sg27
S'NBA'
p317
sg29
S'101'
p318
sg30
S'.438'
p319
sg32
g3
sg33
S'8.1'
p320
sg35
S'4.5'
p321
sg37
S'23'
p322
sg39
S'LAL'
p323
sg41
S'76'
p324
sg43
g3
sg44
S'3.4'
p325
sg46
S'5.2'
p326
sg48
S'.748'
p327
sg50
S'0.3'
p328
sg52
S'1975-76'
p329
sg54
S'17.2'
p330
sg56
g3
sg57
S'2.9'
p331
sg59
S'7.5'
p332
sg61
S'1838'
p333
sba(isrc.gp1.models.Per100Possession
Per100Possession
p334
(dp335
g8
S'1.5'
p336
sg10
S'.460'
p337
sg12
S'6.7'
p338
sg310
g3
sg14
S'15.4'
p339
sg16
S'1.9'
p340
sg18
S'14.7'
p341
sg20
g3
sg21
S'PF'
p342
sg315
g3
sg23
S'3.4'
p343
sg27
S'NBA'
p344
sg29
S'100'
p345
sg30
S'.460'
p346
sg32
g3
sg33
S'9.1'
p347
sg35
S'4.4'
p348
sg37
S'24'
p349
sg39
S'LAL'
p350
sg41
S'82'
p351
sg43
g3
sg44
S'2.6'
p352
sg46
S'6.4'
p353
sg48
S'.716'
p354
sg50
S'0.5'
p355
sg52
S'1976-77'
p356
sg54
S'14.7'
p357
sg56
g3
sg57
S'2.7'
p358
sg59
S'6.7'
p359
sg61
S'1782'
p360
sba(isrc.gp1.models.Per100Possession
Per100Possession
p361
(dp362
g8
S'1.6'
p363
sg10
S'.472'
p364
sg12
S'6.3'
p365
sg310
g3
sg14
S'4.9'
p366
sg16
S'1.6'
p367
sg18
S'13.4'
p368
sg20
g3
sg21
S'PF'
p369
sg315
g3
sg23
S'3.3'
p370
sg27
S'NBA'
p371
sg29
S'14.2'
p372
sg30
S'.472'
p373
sg32
g3
sg33
S'8.2'
p374
sg35
S'2.0'
p375
sg37
S'25'
p376
sg39
S'LAL'
p377
sg41
S'79'
p378
sg43
S'102'
p379
sg44
S'2.1'
p380
sg46
S'5.7'
p381
sg48
S'.756'
p382
sg50
S'1.1'
p383
sg52
S'1977-78'
p384
sg54
S'13.4'
p385
sg56
S'102'
p386
sg57
S'2.5'
p387
sg59
S'6.3'
p388
sg61
S'1945'
p389
sba(isrc.gp1.models.Per100Possession
Per100Possession
p390
(dp391
g8
S'1.5'
p392
sg10
S'.507'
p393
sg12
S'6.7'
p394
sg310
g3
sg14
S'5.2'
p395
sg16
S'2.1'
p396
sg18
S'13.2'
p397
sg20
g3
sg21
S'PF'
p398
sg315
g3
sg23
S'3.0'
p399
sg27
S'NBA'
p400
sg29
S'15.5'
p401
sg30
S'.507'
p402
sg32
g3
sg33
S'7.9'
p403
sg35
S'2.7'
p404
sg37
S'26'
p405
sg39
S'LAL'
p406
sg41
S'79'
p407
sg43
S'103'
p408
sg44
S'2.6'
p409
sg46
S'5.4'
p410
sg48
S'.809'
p411
sg50
S'0.7'
p412
sg52
S'1978-79'
p413
sg54
S'13.2'
p414
sg56
S'105'
p415
sg57
S'2.4'
p416
sg59
S'6.7'
p417
sg61
S'1540'
p418
sba(isrc.gp1.models.Per100Possession
Per100Possession
p419
(dp420
g8
S'6.5'
p421
sg10
S'.333'
p422
sg12
S'0.0'
p423
sg310
S'106'
p424
sg14
S'1.0'
p425
sg16
S'6.0'
p426
sg18
S'0.1'
p427
sg20
S'104'
p428
sg21
S'SF'
p429
sg315
g3
sg23
S'2.0'
p430
sg27
S'NBA'
p431
sg29
S'1.0'
p432
sg30
S'.478'
p433
sg32
S'14.1'
p434
sg33
S'.849'
p435
sg35
S'3.0'
p436
sg37
S'27'
p437
sg39
S'TOT'
p438
sg41
S'73'
p439
sg43
S'2.3'
p440
sg44
S'12.4'
p441
sg46
S'2.4'
p442
sg48
S'.480'
p443
sg50
S'8.5'
p444
sg52
S'1979-80'
p445
sg54
S'12.6'
p446
sg56
S'6.0'
p447
sg57
S'2.1'
p448
sg59
S'6.0'
p449
sg61
S'999'
p450
sba(isrc.gp1.models.Per100Possession
Per100Possession
p451
(dp452
g8
S'6.0'
p453
sg10
S'.000'
p454
sg12
S'0.0'
p455
sg310
S'106'
p456
sg14
S'0.9'
p457
sg16
S'5.2'
p458
sg18
S'0.1'
p459
sg20
S'105'
p460
sg21
S'SF'
p461
sg315
g3
sg23
S'1.8'
p462
sg27
S'NBA'
p463
sg29
S'1.2'
p464
sg30
S'.508'
p465
sg32
S'12.3'
p466
sg33
S'.821'
p467
sg35
S'2.9'
p468
sg37
S'27'
p469
sg39
S'LAL'
p470
sg41
S'52'
p471
sg43
S'2.4'
p472
sg44
S'10.3'
p473
sg46
S'2.2'
p474
sg48
S'.512'
p475
sg50
S'7.8'
p476
sg52
S'1979-80'
p477
sg54
S'10.3'
p478
sg56
S'6.8'
p479
sg57
S'1.8'
p480
sg59
S'5.2'
p481
sg61
S'580'
p482
sba(isrc.gp1.models.Per100Possession
Per100Possession
p483
(dp484
g8
S'7.2'
p485
sg10
S'.500'
p486
sg12
S'0.1'
p487
sg310
S'106'
p488
sg14
S'1.2'
p489
sg16
S'6.9'
p490
sg18
S'0.2'
p491
sg20
S'103'
p492
sg21
S'SF'
p493
sg315
g3
sg23
S'2.3'
p494
sg27
S'NBA'
p495
sg29
S'0.7'
p496
sg30
S'.451'
p497
sg32
S'16.6'
p498
sg33
S'.880'
p499
sg35
S'3.1'
p500
sg37
S'27'
p501
sg39
S'CLE'
p502
sg41
S'21'
p503
sg43
S'2.3'
p504
sg44
S'15.4'
p505
sg46
S'2.7'
p506
sg48
S'.451'
p507
sg50
S'9.4'
p508
sg52
S'1979-80'
p509
sg54
S'15.6'
p510
sg56
S'4.9'
p511
sg57
S'2.4'
p512
sg59
S'7.0'
p513
sg61
S'419'
p514
sba(isrc.gp1.models.Per100Possession
Per100Possession
p515
(dp516
g8
S'4.3'
p517
sg10
S'.000'
p518
sg12
S'0.0'
p519
sg310
S'112'
p520
sg14
S'0.7'
p521
sg16
S'4.8'
p522
sg18
S'0.1'
p523
sg20
S'101'
p524
sg21
S'SF'
p525
sg315
g3
sg23
S'3.5'
p526
sg27
S'NBA'
p527
sg29
S'0.6'
p528
sg30
S'.446'
p529
sg32
S'10.6'
p530
sg33
S'.917'
p531
sg35
S'4.0'
p532
sg37
S'28'
p533
sg39
S'CLE'
p534
sg41
S'64'
p535
sg43
S'2.3'
p536
sg44
S'10.6'
p537
sg46
S'1.1'
p538
sg48
S'.452'
p539
sg50
S'7.8'
p540
sg52
S'1980-81'
p541
sg54
S'10.7'
p542
sg56
S'4.8'
p543
sg57
S'1.1'
p544
sg59
S'4.8'
p545
sg61
S'996'
p546
sba(isrc.gp1.models.Per100Possession
Per100Possession
p547
(dp548
g8
S'3.4'
p549
sg10
S'0.2'
p550
sg12
S'.375'
p551
sg310
S'79'
p552
sg14
S'2.6'
p553
sg16
S'.000'
p554
sg18
S'0.0'
p555
sg20
S'5.5'
p556
sg21
S'SF'
p557
sg315
S'112'
p558
sg23
S'.833'
p559
sg27
S'NBA'
p560
sg29
S'1.9'
p561
sg30
S'5.8'
p562
sg32
S'7.2'
p563
sg33
S'1.4'
p564
sg35
S'8.4'
p565
sg37
S'29'
p566
sg39
S'CLE'
p567
sg41
S'21'
p568
sg43
S'0.0'
p569
sg44
S'2.2'
p570
sg46
S'1.2'
p571
sg48
S'5.5'
p572
sg50
S'5.1'
p573
sg52
S'1981-82'
p574
sg54
S'2.2'
p575
sg56
S'3.6'
p576
sg57
S'.391'
p577
sg59
S'201'
p578
sg61
g150
sbasS'_advanced'
p579
(lp580
(isrc.gp1.models.Advanced
Advanced
p581
(dp582
S'_offensiveReboundPercentage'
p583
S'10.8'
p584
sS'_turnOverPercentage'
p585
S'1.2'
p586
sS'_winSharesPer48Minutes'
p587
S'-3.7'
p588
sS'_stealPercentage'
p589
S'0.4'
p590
sS'_usagePercentage'
p591
S'2.0'
p592
sS'_totalReboundsPercentage'
p593
S'8.3'
p594
sS'_defensiveBoxPlusMinus'
p595
g3
sg21
S'SF'
p596
sS'_valueOverReplacementPlayer'
p597
g3
sS'_trueShootingPercentage'
p598
S'.471'
p599
sS'_defensiveReboundPercentage'
p600
S'8.7'
p601
sS'_freeThrowsAttempRate'
p602
S'6.4'
p603
sS'_threePointsAttempRate'
p604
S'.196'
p605
sg27
S'NBA'
p606
sS'_offensiveBoxPlusMinues'
p607
S'-0.8'
p608
sS'_assistPercentage'
p609
S'1.2'
p610
sS'_defensiveWinShares'
p611
S'-2.4'
p612
sg37
S'23'
p613
sg39
S'LAL'
p614
sg41
S'76'
p615
sS'_blockPercentage'
p616
S'0.7'
p617
sS'_playerEfficiencyRating'
p618
S'11.6'
p619
sS'_offensiveWinShares'
p620
S'.051'
p621
sg59
S'1838'
p622
sS'_boxPlusMinus'
p623
g3
sg52
S'1975-76'
p624
sS'_winShares'
p625
S'-1.3'
p626
sba(isrc.gp1.models.Advanced
Advanced
p627
(dp628
g583
S'13.9'
p629
sg585
S'1.8'
p630
sg587
S'-2.0'
p631
sg589
S'0.6'
p632
sg591
S'2.8'
p633
sg593
S'9.6'
p634
sg595
g3
sg21
S'PF'
p635
sg597
g3
sg598
S'.485'
p636
sg600
S'10.1'
p637
sg602
S'6.1'
p638
sg604
S'.179'
p639
sg27
S'NBA'
p640
sg607
S'0.0'
p641
sg609
S'1.5'
p642
sg611
S'-2.2'
p643
sg37
S'24'
p644
sg39
S'LAL'
p645
sg41
S'82'
p646
sg616
S'1.0'
p647
sg618
S'11.7'
p648
sg620
S'.076'
p649
sg59
S'1782'
p650
sg623
g3
sg52
S'1976-77'
p651
sg625
S'0.2'
p652
sba(isrc.gp1.models.Advanced
Advanced
p653
(dp654
g583
S'12.5'
p655
sg585
S'14.1'
p656
sg587
S'-0.7'
p657
sg589
S'1.2'
p658
sg591
S'1.7'
p659
sg593
S'9.1'
p660
sg595
S'0.1'
p661
sg21
S'PF'
p662
sg597
g3
sg598
S'.497'
p663
sg600
S'9.3'
p664
sg602
S'5.8'
p665
sg604
S'.156'
p666
sg27
S'NBA'
p667
sg607
S'0.8'
p668
sg609
S'1.6'
p669
sg611
S'3.5'
p670
sg37
S'25'
p671
sg39
S'LAL'
p672
sg41
S'79'
p673
sg616
S'12.5'
p674
sg618
S'11.6'
p675
sg620
S'1.8'
p676
sg59
S'1945'
p677
sg623
S'1.0'
p678
sg52
S'1977-78'
p679
sg625
S'.087'
p680
sba(isrc.gp1.models.Advanced
Advanced
p681
(dp682
g583
S'12.4'
p683
sg585
S'15.1'
p684
sg587
S'-1.3'
p685
sg589
S'0.8'
p686
sg591
S'1.0'
p687
sg593
S'8.0'
p688
sg595
S'-1.3'
p689
sg21
S'PF'
p690
sg597
g3
sg598
S'.540'
p691
sg600
S'9.5'
p692
sg602
S'6.2'
p693
sg604
S'.198'
p694
sg27
S'NBA'
p695
sg607
S'0.0'
p696
sg609
S'1.5'
p697
sg611
S'2.5'
p698
sg37
S'26'
p699
sg39
S'LAL'
p700
sg41
S'79'
p701
sg616
S'16.0'
p702
sg618
S'11.1'
p703
sg620
S'1.5'
p704
sg59
S'1540'
p705
sg623
S'0.3'
p706
sg52
S'1978-79'
p707
sg625
S'.078'
p708
sba(isrc.gp1.models.Advanced
Advanced
p709
(dp710
g583
S'4.9'
p711
sg585
S'14.6'
p712
sg587
S'.072'
p713
sg589
S'1.0'
p714
sg591
S'13.7'
p715
sg593
S'9.9'
p716
sg595
S'-0.2'
p717
sg21
S'SF'
p718
sg597
S'-0.2'
p719
sg598
S'.518'
p720
sg600
S'14.8'
p721
sg602
S'.193'
p722
sg604
S'.011'
p723
sg27
S'NBA'
p724
sg607
S'-2.5'
p725
sg609
S'7.8'
p726
sg611
S'0.9'
p727
sg37
S'27'
p728
sg39
S'TOT'
p729
sg41
S'73'
p730
sg616
S'1.1'
p731
sg618
S'9.6'
p732
sg620
S'0.6'
p733
sg59
S'999'
p734
sg623
S'-2.7'
p735
sg52
S'1979-80'
p736
sg625
S'1.5'
p737
sba(isrc.gp1.models.Advanced
Advanced
p738
(dp739
g583
S'4.7'
p740
sg585
S'17.4'
p741
sg587
S'.073'
p742
sg589
S'0.9'
p743
sg591
S'11.9'
p744
sg593
S'9.2'
p745
sg595
S'-0.4'
p746
sg21
S'SF'
p747
sg597
S'-0.2'
p748
sg598
S'.545'
p749
sg600
S'13.0'
p750
sg602
S'.215'
p751
sg604
S'.008'
p752
sg27
S'NBA'
p753
sg607
S'-2.8'
p754
sg609
S'7.2'
p755
sg611
S'0.6'
p756
sg37
S'27'
p757
sg39
S'LAL'
p758
sg41
S'52'
p759
sg616
S'1.3'
p760
sg618
S'8.3'
p761
sg620
S'0.3'
p762
sg59
S'580'
p763
sg623
S'-3.2'
p764
sg52
S'1979-80'
p765
sg625
S'0.9'
p766
sba(isrc.gp1.models.Advanced
Advanced
p767
(dp768
g583
S'5.1'
p769
sg585
S'11.9'
p770
sg587
S'.071'
p771
sg589
S'1.2'
p772
sg591
S'16.1'
p773
sg593
S'11.0'
p774
sg595
S'0.0'
p775
sg21
S'SF'
p776
sg597
S'0.0'
p777
sg598
S'.494'
p778
sg600
S'17.4'
p779
sg602
S'.174'
p780
sg604
S'.014'
p781
sg27
S'NBA'
p782
sg607
S'-2.0'
p783
sg609
S'8.6'
p784
sg611
S'0.4'
p785
sg37
S'27'
p786
sg39
S'CLE'
p787
sg41
S'21'
p788
sg616
S'0.8'
p789
sg618
S'11.4'
p790
sg620
S'0.2'
p791
sg59
S'419'
p792
sg623
S'-2.0'
p793
sg52
S'1979-80'
p794
sg625
S'0.6'
p795
sba(isrc.gp1.models.Advanced
Advanced
p796
(dp797
g583
S'7.8'
p798
sg585
S'17.3'
p799
sg587
S'.028'
p800
sg589
S'0.7'
p801
sg591
S'11.4'
p802
sg593
S'9.1'
p803
sg595
S'-0.5'
p804
sg21
S'SF'
p805
sg597
S'-0.3'
p806
sg598
S'.473'
p807
sg600
S'10.5'
p808
sg602
S'.107'
p809
sg604
S'.013'
p810
sg27
S'NBA'
p811
sg607
S'-2.5'
p812
sg609
S'10.6'
p813
sg611
S'0.3'
p814
sg37
S'28'
p815
sg39
S'CLE'
p816
sg41
S'64'
p817
sg616
S'0.7'
p818
sg618
S'8.2'
p819
sg620
S'0.3'
p820
sg59
S'996'
p821
sg623
S'-3.0'
p822
sg52
S'1980-81'
p823
sg625
S'0.6'
p824
sba(isrc.gp1.models.Advanced
Advanced
p825
(dp826
g583
S'7.4'
p827
sg585
S'36.0'
p828
sg587
S'-0.035'
p829
sg589
S'1.9'
p830
sg591
S'8.5'
p831
sg593
S'9.8'
p832
sg595
S'0.7'
p833
sg21
S'SF'
p834
sg597
S'-0.1'
p835
sg598
S'.432'
p836
sg600
S'12.6'
p837
sg602
S'.250'
p838
sg604
S'.042'
p839
sg27
S'NBA'
p840
sg607
S'-5.1'
p841
sg609
S'6.7'
p842
sg611
S'0.1'
p843
sg37
S'29'
p844
sg39
S'CLE'
p845
sg41
S'21'
p846
sg616
S'0.0'
p847
sg618
S'3.7'
p848
sg620
S'-0.2'
p849
sg59
S'201'
p850
sg623
S'-4.4'
p851
sg52
S'1981-82'
p852
sg625
S'-0.1'
p853
sbasS'_per36Minutes'
p854
(lp855
(isrc.gp1.models.Per36Minutes
Per36Minutes
p856
(dp857
g8
S'1.0'
p858
sg10
S'.438'
p859
sg12
S'6.1'
p860
sg14
S'14.2'
p861
sg16
S'2.0'
p862
sg18
S'13.9'
p863
sg20
g3
sg21
S'SF'
p864
sg23
S'2.2'
p865
sg27
S'NBA'
p866
sg29
g3
sg30
S'.438'
p867
sg32
g3
sg33
S'6.5'
p868
sg35
S'3.6'
p869
sg37
S'23'
p870
sg39
S'LAL'
p871
sg41
S'76'
p872
sg43
g3
sg44
S'2.7'
p873
sg46
S'4.2'
p874
sg48
S'.748'
p875
sg50
S'0.3'
p876
sg52
S'1975-76'
p877
sg54
S'13.9'
p878
sg56
g3
sg57
S'2.3'
p879
sg59
S'6.1'
p880
sg61
S'1838'
p881
sba(isrc.gp1.models.Per36Minutes
Per36Minutes
p882
(dp883
g8
S'1.2'
p884
sg10
S'.460'
p885
sg12
S'5.3'
p886
sg14
S'12.1'
p887
sg16
S'1.5'
p888
sg18
S'11.5'
p889
sg20
g3
sg21
S'PF'
p890
sg23
S'2.7'
p891
sg27
S'NBA'
p892
sg29
g3
sg30
S'.460'
p893
sg32
g3
sg33
S'7.1'
p894
sg35
S'3.4'
p895
sg37
S'24'
p896
sg39
S'LAL'
p897
sg41
S'82'
p898
sg43
g3
sg44
S'2.1'
p899
sg46
S'5.0'
p900
sg48
S'.716'
p901
sg50
S'0.4'
p902
sg52
S'1976-77'
p903
sg54
S'11.5'
p904
sg56
g3
sg57
S'2.1'
p905
sg59
S'5.3'
p906
sg61
S'1782'
p907
sba(isrc.gp1.models.Per36Minutes
Per36Minutes
p908
(dp909
g8
S'1.3'
p910
sg10
S'.472'
p911
sg12
S'5.0'
p912
sg14
S'3.9'
p913
sg16
S'1.3'
p914
sg18
S'10.7'
p915
sg20
g3
sg21
S'PF'
p916
sg23
S'2.6'
p917
sg27
S'NBA'
p918
sg29
S'11.3'
p919
sg30
S'.472'
p920
sg32
g3
sg33
S'6.5'
p921
sg35
S'1.6'
p922
sg37
S'25'
p923
sg39
S'LAL'
p924
sg41
S'79'
p925
sg43
g3
sg44
S'1.7'
p926
sg46
S'4.6'
p927
sg48
S'.756'
p928
sg50
S'0.9'
p929
sg52
S'1977-78'
p930
sg54
S'10.7'
p931
sg56
g3
sg57
S'2.0'
p932
sg59
S'5.0'
p933
sg61
S'1945'
p934
sba(isrc.gp1.models.Per36Minutes
Per36Minutes
p935
(dp936
g8
S'1.2'
p937
sg10
S'.507'
p938
sg12
S'5.3'
p939
sg14
S'4.1'
p940
sg16
S'1.7'
p941
sg18
S'10.5'
p942
sg20
g3
sg21
S'PF'
p943
sg23
S'2.4'
p944
sg27
S'NBA'
p945
sg29
S'12.3'
p946
sg30
S'.507'
p947
sg32
g3
sg33
S'6.3'
p948
sg35
S'2.2'
p949
sg37
S'26'
p950
sg39
S'LAL'
p951
sg41
S'79'
p952
sg43
g3
sg44
S'2.1'
p953
sg46
S'4.3'
p954
sg48
S'.809'
p955
sg50
S'0.6'
p956
sg52
S'1978-79'
p957
sg54
S'10.5'
p958
sg56
g3
sg57
S'1.9'
p959
sg59
S'5.3'
p960
sg61
S'1540'
p961
sba(isrc.gp1.models.Per36Minutes
Per36Minutes
p962
(dp963
g8
S'5.1'
p964
sg10
S'.333'
p965
sg12
S'0.0'
p966
sg14
S'0.8'
p967
sg16
S'4.7'
p968
sg18
S'0.1'
p969
sg20
g3
sg21
S'SF'
p970
sg23
S'1.6'
p971
sg27
S'NBA'
p972
sg29
S'0.8'
p973
sg30
S'.478'
p974
sg32
S'11.1'
p975
sg33
S'.849'
p976
sg35
S'2.3'
p977
sg37
S'27'
p978
sg39
S'TOT'
p979
sg41
S'73'
p980
sg43
S'1.8'
p981
sg44
S'9.8'
p982
sg46
S'1.9'
p983
sg48
S'.480'
p984
sg50
S'6.7'
p985
sg52
S'1979-80'
p986
sg54
S'9.9'
p987
sg56
S'4.7'
p988
sg57
S'1.6'
p989
sg59
S'4.7'
p990
sg61
S'999'
p991
sba(isrc.gp1.models.Per36Minutes
Per36Minutes
p992
(dp993
g8
S'4.7'
p994
sg10
S'.000'
p995
sg12
S'0.0'
p996
sg14
S'0.7'
p997
sg16
S'4.1'
p998
sg18
S'0.1'
p999
sg20
g3
sg21
S'SF'
p1000
sg23
S'1.4'
p1001
sg27
S'NBA'
p1002
sg29
S'0.9'
p1003
sg30
S'.508'
p1004
sg32
S'9.6'
p1005
sg33
S'.821'
p1006
sg35
S'2.2'
p1007
sg37
S'27'
p1008
sg39
S'LAL'
p1009
sg41
S'52'
p1010
sg43
S'1.9'
p1011
sg44
S'8.0'
p1012
sg46
S'1.7'
p1013
sg48
S'.512'
p1014
sg50
S'6.1'
p1015
sg52
S'1979-80'
p1016
sg54
S'8.1'
p1017
sg56
S'5.3'
p1018
sg57
S'1.4'
p1019
sg59
S'4.1'
p1020
sg61
S'580'
p1021
sba(isrc.gp1.models.Per36Minutes
Per36Minutes
p1022
(dp1023
g8
S'5.7'
p1024
sg10
S'.500'
p1025
sg12
S'0.1'
p1026
sg14
S'0.9'
p1027
sg16
S'5.5'
p1028
sg18
S'0.2'
p1029
sg20
g3
sg21
S'SF'
p1030
sg23
S'1.8'
p1031
sg27
S'NBA'
p1032
sg29
S'0.5'
p1033
sg30
S'.451'
p1034
sg32
S'13.1'
p1035
sg33
S'.880'
p1036
sg35
S'2.5'
p1037
sg37
S'27'
p1038
sg39
S'CLE'
p1039
sg41
S'21'
p1040
sg43
S'1.8'
p1041
sg44
S'12.2'
p1042
sg46
S'2.1'
p1043
sg48
S'.451'
p1044
sg50
S'7.5'
p1045
sg52
S'1979-80'
p1046
sg54
S'12.4'
p1047
sg56
S'3.9'
p1048
sg57
S'1.9'
p1049
sg59
S'5.6'
p1050
sg61
S'419'
p1051
sba(isrc.gp1.models.Per36Minutes
Per36Minutes
p1052
(dp1053
g8
S'3.3'
p1054
sg10
S'.000'
p1055
sg12
S'0.0'
p1056
sg14
S'0.5'
p1057
sg16
S'3.6'
p1058
sg18
S'0.1'
p1059
sg20
g3
sg21
S'SF'
p1060
sg23
S'2.7'
p1061
sg27
S'NBA'
p1062
sg29
S'0.4'
p1063
sg30
S'.446'
p1064
sg32
S'8.0'
p1065
sg33
S'.917'
p1066
sg35
S'3.0'
p1067
sg37
S'28'
p1068
sg39
S'CLE'
p1069
sg41
S'64'
p1070
sg43
S'1.8'
p1071
sg44
S'8.0'
p1072
sg46
S'0.9'
p1073
sg48
S'.452'
p1074
sg50
S'5.9'
p1075
sg52
S'1980-81'
p1076
sg54
S'8.1'
p1077
sg56
S'3.6'
p1078
sg57
S'0.8'
p1079
sg59
S'3.6'
p1080
sg61
S'996'
p1081
sba(isrc.gp1.models.Per36Minutes
Per36Minutes
p1082
(dp1083
g8
S'2.5'
p1084
sg10
S'0.2'
p1085
sg12
S'.375'
p1086
sg14
S'2.0'
p1087
sg16
S'.000'
p1088
sg18
S'0.0'
p1089
sg20
S'4.1'
p1090
sg21
S'SF'
p1091
sg23
S'.833'
p1092
sg27
S'NBA'
p1093
sg29
S'1.4'
p1094
sg30
S'4.3'
p1095
sg32
S'5.4'
p1096
sg33
S'1.1'
p1097
sg35
S'6.3'
p1098
sg37
S'29'
p1099
sg39
S'CLE'
p1100
sg41
S'21'
p1101
sg43
S'0.0'
p1102
sg44
S'1.6'
p1103
sg46
S'0.9'
p1104
sg48
S'4.1'
p1105
sg50
S'3.8'
p1106
sg52
S'1981-82'
p1107
sg54
S'1.6'
p1108
sg56
S'2.7'
p1109
sg57
S'.391'
p1110
sg59
S'201'
p1111
sg61
g150
sbasS'_fromYear'
p1112
S'1976'
p1113
sS'_url'
p1114
S'http://www.basketball-reference.com/players/f/forddo01.html'
p1115
sS'_perGame'
p1116
(isrc.gp1.models.PerGame
PerGame
p1117
(dp1118
g8
S'0.7'
p1119
sg10
S'0.0'
p1120
sg12
S'.375'
p1121
sS'_effectiveFieldGalPercentage'
p1122
S'.375'
p1123
sg14
S'0.5'
p1124
sg16
S'.000'
p1125
sg18
S'0.0'
p1126
sg20
S'1.1'
p1127
sg21
S'SF'
p1128
sg23
S'.833'
p1129
sg27
S'NBA'
p1130
sg29
S'0.4'
p1131
sg32
S'1.4'
p1132
sS'_fieldGoalsttempted'
p1133
S'1.1'
p1134
sg33
S'0.3'
p1135
sg35
S'1.7'
p1136
sg37
S'29'
p1137
sg39
S'CLE'
p1138
sg41
S'21'
p1139
sg43
S'0.0'
p1140
sg44
S'0.4'
p1141
sg46
S'0.2'
p1142
sg48
S'1.1'
p1143
sg50
S'1.0'
p1144
sg52
S'1981-82'
p1145
sg54
S'0.4'
p1146
sg56
S'0.7'
p1147
sg57
S'.391'
p1148
sg59
S'9.6'
p1149
sg61
g150
sbsS'_weight'
p1150
S'215'
p1151
sS'_dob'
p1152
S'31-12-1952'
p1153
sS'_salary'
p1154
(lp1155
sg21
S'F'
p1156
sb.