(isrc.gp1.models.Player
Player
p0
(dp1
S'_experience'
p2
S'NA'
p3
sS'_totals'
p4
(lp5
(isrc.gp1.models.Totals
Totals
p6
(dp7
S'_offensiveRebounds'
p8
g3
sS'_threePointsAttempted'
p9
S'13'
p10
sS'_fieldGoalsPercentage'
p11
S'.293'
p12
sS'_assist'
p13
g3
sS'_threePointsPercentage'
p14
S'31'
p15
sS'_threePoints'
p16
S'.293'
p17
sS'_points'
p18
g3
sS'_position'
p19
S'54'
p20
sS'_freeThrowsPercentage'
p21
g3
sS'_effectiveFieldGoalPercentage'
p22
S'191'
p23
sS'_league'
p24
S'BAA'
p25
sS'_steals'
p26
g3
sS'_fieldGoalsAttempted'
p27
S'304'
p28
sS'_personalFouls'
p29
g3
sS'_freeThrowsAttempted'
p30
g3
sS'_totalRebounds'
p31
g3
sS'_age'
p32
S'26'
p33
sS'_team'
p34
S'STB'
p35
sS'_games'
p36
S'89'
p37
sS'_blocks'
p38
g3
sS'_twoPoints'
p39
S'.419'
p40
sS'_freeThrows'
p41
g3
sS'_twoPointsAttempted'
p42
S'9'
p43
sS'_defensiveRebounds'
p44
g3
sS'_season'
p45
S'1946-47'
p46
sS'_fieldGoals'
p47
S'89'
p48
sS'_turnOvers'
p49
g3
sS'_twoPointsPercentage'
p50
S'75'
p51
sS'_minutesPlayed'
p52
S'.293'
p53
sS'_gamesStarted'
p54
S'304'
p55
sba(isrc.gp1.models.Totals
Totals
p56
(dp57
g8
g3
sg9
S'15'
p58
sg11
S'.233'
p59
sg13
g3
sg14
S'33'
p60
sg16
S'.233'
p61
sg18
g3
sg19
S'39'
p62
sg21
g3
sg22
S'85'
p63
sg24
S'BAA'
p64
sg26
g3
sg27
S'150'
p65
sg29
g3
sg30
g3
sg31
g3
sg32
S'27'
p66
sg34
S'STB'
p67
sg36
S'35'
p68
sg38
g3
sg39
S'.455'
p69
sg41
g3
sg42
S'2'
p70
sg44
g3
sg45
S'1947-48'
p71
sg47
S'35'
p72
sg49
g3
sg50
S'61'
p73
sg52
S'.233'
p74
sg54
S'150'
p75
sba(isrc.gp1.models.Totals
Totals
p76
(dp77
g8
g3
sg9
S'30'
p78
sg11
S'.306'
p79
sg13
g3
sg14
S'47'
p80
sg16
S'.306'
p81
sg18
g3
sg19
S'44'
p82
sg21
g3
sg22
S'134'
p83
sg24
S'BAA'
p84
sg26
g3
sg27
S'170'
p85
sg29
g3
sg30
g3
sg31
g3
sg32
S'28'
p86
sg34
S'TOT'
p87
sg36
S'52'
p88
sg38
g3
sg39
S'.638'
p89
sg41
g3
sg42
S'25'
p90
sg44
g3
sg45
S'1948-49'
p91
sg47
S'52'
p92
sg49
g3
sg50
S'115'
p93
sg52
S'.306'
p94
sg54
S'170'
p95
sba(isrc.gp1.models.Totals
Totals
p96
(dp97
g8
g3
sg9
S'29'
p98
sg11
S'.311'
p99
sg13
g3
sg14
S'45'
p100
sg16
S'.311'
p101
sg18
g3
sg19
S'37'
p102
sg21
g3
sg22
S'129'
p103
sg24
S'BAA'
p104
sg26
g3
sg27
S'161'
p105
sg29
g3
sg30
g3
sg31
g3
sg32
S'28'
p106
sg34
S'STB'
p107
sg36
S'50'
p108
sg38
g3
sg39
S'.644'
p109
sg41
g3
sg42
S'21'
p110
sg44
g3
sg45
S'1948-49'
p111
sg47
S'50'
p112
sg49
g3
sg50
S'101'
p113
sg52
S'.311'
p114
sg54
S'161'
p115
sba(isrc.gp1.models.Totals
Totals
p116
(dp117
g8
g3
sg9
S'1'
p118
sg11
S'.222'
p119
sg13
g3
sg14
g70
sg16
S'.222'
p120
sg18
g3
sg19
S'7'
p121
sg21
g3
sg22
S'5'
p122
sg24
S'BAA'
p123
sg26
g3
sg27
g43
sg29
g3
sg30
g3
sg31
g3
sg32
S'28'
p124
sg34
S'BLB'
p125
sg36
g70
sg38
g3
sg39
S'.500'
p126
sg41
g3
sg42
S'4'
p127
sg44
g3
sg45
S'1948-49'
p128
sg47
g70
sg49
g3
sg50
S'14'
p129
sg52
S'.222'
p130
sg54
g43
sbasS'_college'
p131
S'Central Missouri State University'
p132
sS'_toYear'
p133
S'1949'
p134
sS'_height'
p135
S'6-7'
p136
sS'_active'
p137
I00
sS'_shootingHand'
p138
VRight
p139
sS'_name'
p140
S'Don Martin'
p141
sS'_per100Possessions'
p142
(lp143
sS'_advanced'
p144
(lp145
(isrc.gp1.models.Advanced
Advanced
p146
(dp147
S'_offensiveReboundPercentage'
p148
g3
sS'_turnOverPercentage'
p149
g3
sS'_winSharesPer48Minutes'
p150
g3
sS'_stealPercentage'
p151
g3
sS'_usagePercentage'
p152
g3
sS'_totalReboundsPercentage'
p153
g3
sS'_defensiveBoxPlusMinus'
p154
g3
sg19
S'54'
p155
sS'_valueOverReplacementPlayer'
p156
g3
sS'_trueShootingPercentage'
p157
S'1.6'
p158
sS'_defensiveReboundPercentage'
p159
g3
sS'_freeThrowsAttempRate'
p160
g3
sS'_threePointsAttempRate'
p161
S'1.6'
p162
sg24
S'BAA'
p163
sS'_offensiveBoxPlusMinues'
p164
g3
sS'_assistPercentage'
p165
g3
sS'_defensiveWinShares'
p166
g3
sg32
S'26'
p167
sg34
S'STB'
p168
sg36
S'.301'
p169
sS'_blockPercentage'
p170
g3
sS'_playerEfficiencyRating'
p171
S'-0.1'
p172
sS'_offensiveWinShares'
p173
g3
sg52
S'.102'
p174
sS'_boxPlusMinus'
p175
g3
sg45
S'1946-47'
p176
sS'_winShares'
p177
g3
sba(isrc.gp1.models.Advanced
Advanced
p178
(dp179
g148
g3
sg149
g3
sg150
g3
sg151
g3
sg152
g3
sg153
g3
sg154
g3
sg19
S'39'
p180
sg156
g3
sg157
S'0.7'
p181
sg159
g3
sg160
g3
sg161
S'-0.1'
p182
sg24
S'BAA'
p183
sg164
g3
sg165
g3
sg166
g3
sg32
S'27'
p184
sg34
S'STB'
p185
sg36
S'.258'
p186
sg170
g3
sg171
S'-0.8'
p187
sg173
g3
sg52
S'.220'
p188
sg175
g3
sg45
S'1947-48'
p189
sg177
g3
sba(isrc.gp1.models.Advanced
Advanced
p190
(dp191
g148
g3
sg149
g3
sg150
g3
sg151
g3
sg152
g3
sg153
g3
sg154
g3
sg19
S'44'
p192
sg156
g3
sg157
S'0.0'
p193
sg159
g3
sg160
g3
sg161
S'-0.2'
p194
sg24
S'BAA'
p195
sg164
g3
sg165
g3
sg166
g3
sg32
S'28'
p196
sg34
S'TOT'
p197
sg36
S'.351'
p198
sg170
g3
sg171
S'-0.2'
p199
sg173
g3
sg52
S'.276'
p200
sg175
g3
sg45
S'1948-49'
p201
sg177
g3
sba(isrc.gp1.models.Advanced
Advanced
p202
(dp203
g148
g3
sg149
g3
sg150
g3
sg151
g3
sg152
g3
sg153
g3
sg154
g3
sg19
S'37'
p204
sg156
g3
sg157
S'0.0'
p205
sg159
g3
sg160
g3
sg161
S'-0.2'
p206
sg24
S'BAA'
p207
sg164
g3
sg165
g3
sg166
g3
sg32
S'28'
p208
sg34
S'STB'
p209
sg36
S'.357'
p210
sg170
g3
sg171
S'-0.1'
p211
sg173
g3
sg52
S'.280'
p212
sg175
g3
sg45
S'1948-49'
p213
sg177
g3
sba(isrc.gp1.models.Advanced
Advanced
p214
(dp215
g148
g3
sg149
g3
sg150
g3
sg151
g3
sg152
g3
sg153
g3
sg154
g3
sg19
g121
sg156
g3
sg157
S'0.0'
p216
sg159
g3
sg160
g3
sg161
S'0.0'
p217
sg24
S'BAA'
p218
sg164
g3
sg165
g3
sg166
g3
sg32
S'28'
p219
sg34
S'BLB'
p220
sg36
S'.253'
p221
sg170
g3
sg171
S'-0.1'
p222
sg173
g3
sg52
S'.222'
p223
sg175
g3
sg45
S'1948-49'
p224
sg177
g3
sbasS'_per36Minutes'
p225
(lp226
(isrc.gp1.models.Per36Minutes
Per36Minutes
p227
(dp228
g8
g3
sg9
g3
sg11
g3
sg13
g3
sg14
g3
sg16
g3
sg18
g3
sg19
S'54'
p229
sg21
g3
sg24
S'BAA'
p230
sg26
g3
sg27
g3
sg29
g3
sg30
g3
sg31
g3
sg32
S'26'
p231
sg34
S'STB'
p232
sg36
S'.293'
p233
sg38
g3
sg39
g3
sg41
g3
sg42
g3
sg44
g3
sg45
S'1946-47'
p234
sg47
g3
sg49
g3
sg50
g3
sg52
S'.419'
p235
sg54
S'.293'
p236
sba(isrc.gp1.models.Per36Minutes
Per36Minutes
p237
(dp238
g8
g3
sg9
g3
sg11
g3
sg13
g3
sg14
g3
sg16
g3
sg18
g3
sg19
S'39'
p239
sg21
g3
sg24
S'BAA'
p240
sg26
g3
sg27
g3
sg29
g3
sg30
g3
sg31
g3
sg32
S'27'
p241
sg34
S'STB'
p242
sg36
S'.233'
p243
sg38
g3
sg39
g3
sg41
g3
sg42
g3
sg44
g3
sg45
S'1947-48'
p244
sg47
g3
sg49
g3
sg50
g3
sg52
S'.455'
p245
sg54
S'.233'
p246
sba(isrc.gp1.models.Per36Minutes
Per36Minutes
p247
(dp248
g8
g3
sg9
g3
sg11
g3
sg13
g3
sg14
g3
sg16
g3
sg18
g3
sg19
S'44'
p249
sg21
g3
sg24
S'BAA'
p250
sg26
g3
sg27
g3
sg29
g3
sg30
g3
sg31
g3
sg32
S'28'
p251
sg34
S'TOT'
p252
sg36
S'.306'
p253
sg38
g3
sg39
g3
sg41
g3
sg42
g3
sg44
g3
sg45
S'1948-49'
p254
sg47
g3
sg49
g3
sg50
g3
sg52
S'.638'
p255
sg54
S'.306'
p256
sba(isrc.gp1.models.Per36Minutes
Per36Minutes
p257
(dp258
g8
g3
sg9
g3
sg11
g3
sg13
g3
sg14
g3
sg16
g3
sg18
g3
sg19
S'37'
p259
sg21
g3
sg24
S'BAA'
p260
sg26
g3
sg27
g3
sg29
g3
sg30
g3
sg31
g3
sg32
S'28'
p261
sg34
S'STB'
p262
sg36
S'.311'
p263
sg38
g3
sg39
g3
sg41
g3
sg42
g3
sg44
g3
sg45
S'1948-49'
p264
sg47
g3
sg49
g3
sg50
g3
sg52
S'.644'
p265
sg54
S'.311'
p266
sba(isrc.gp1.models.Per36Minutes
Per36Minutes
p267
(dp268
g8
g3
sg9
g3
sg11
g3
sg13
g3
sg14
g3
sg16
g3
sg18
g3
sg19
g121
sg21
g3
sg24
S'BAA'
p269
sg26
g3
sg27
g3
sg29
g3
sg30
g3
sg31
g3
sg32
S'28'
p270
sg34
S'BLB'
p271
sg36
S'.222'
p272
sg38
g3
sg39
g3
sg41
g3
sg42
g3
sg44
g3
sg45
S'1948-49'
p273
sg47
g3
sg49
g3
sg50
g3
sg52
S'.500'
p274
sg54
S'.222'
p275
sbasS'_fromYear'
p276
S'1947'
p277
sS'_url'
p278
S'http://www.basketball-reference.com/players/m/martido01.html'
p279
sS'_perGame'
p280
(isrc.gp1.models.PerGame
PerGame
p281
(dp282
g8
g3
sg9
S'0.1'
p283
sg11
S'.222'
p284
sS'_effectiveFieldGalPercentage'
p285
S'0.7'
p286
sg13
g3
sg14
S'0.3'
p287
sg16
S'.222'
p288
sg18
g3
sg19
g121
sg21
g3
sg24
S'BAA'
p289
sg26
g3
sg29
g3
sS'_fieldGoalsttempted'
p290
S'1.3'
p291
sg30
g3
sg31
g3
sg32
S'28'
p292
sg34
S'BLB'
p293
sg36
S'0.3'
p294
sg38
g3
sg39
S'.500'
p295
sg41
g3
sg42
S'0.6'
p296
sg44
g3
sg45
S'1948-49'
p297
sg47
S'0.3'
p298
sg49
g3
sg50
S'2.0'
p299
sg52
S'.222'
p300
sg54
S'1.3'
p301
sbsS'_weight'
p302
S'210'
p303
sS'_dob'
p304
S'7-2-1920'
p305
sS'_salary'
p306
(lp307
sg19
S'C-F'
p308
sb.