(isrc.gp1.models.Player
Player
p0
(dp1
S'_experience'
p2
S'NA'
p3
sS'_totals'
p4
(lp5
(isrc.gp1.models.Totals
Totals
p6
(dp7
S'_offensiveRebounds'
p8
S'11'
p9
sS'_threePointsAttempted'
p10
S'12'
p11
sS'_fieldGoalsPercentage'
p12
S'.353'
p13
sS'_assist'
p14
S'3'
p15
sS'_threePointsPercentage'
p16
S'.167'
p17
sS'_threePoints'
p18
S'2'
p19
sS'_points'
p20
S'46'
p21
sS'_position'
p22
S'SF'
p23
sS'_freeThrowsPercentage'
p24
S'.800'
p25
sS'_effectiveFieldGoalPercentage'
p26
S'.373'
p27
sS'_league'
p28
S'NBA'
p29
sS'_steals'
p30
S'5'
p31
sS'_fieldGoalsAttempted'
p32
S'51'
p33
sS'_personalFouls'
p34
S'15'
p35
sS'_freeThrowsAttempted'
p36
S'10'
p37
sS'_totalRebounds'
p38
S'30'
p39
sS'_age'
p40
S'20'
p41
sS'_team'
p42
S'SEA'
p43
sS'_games'
p44
S'20'
p45
sS'_blocks'
p46
g15
sS'_twoPoints'
p47
S'16'
p48
sS'_freeThrows'
p49
S'8'
p50
sS'_twoPointsAttempted'
p51
S'39'
p52
sS'_defensiveRebounds'
p53
S'19'
p54
sS'_season'
p55
S'1994-95'
p56
sS'_fieldGoals'
p57
S'18'
p58
sS'_turnOvers'
p59
g50
sS'_twoPointsPercentage'
p60
S'.410'
p61
sS'_minutesPlayed'
p62
S'81'
p63
sS'_gamesStarted'
p64
S'0'
p65
sba(isrc.gp1.models.Totals
Totals
p66
(dp67
g8
S'45'
p68
sg10
S'63'
p69
sg12
S'.382'
p70
sg14
S'28'
p71
sg16
S'.302'
p72
sg18
S'19'
p73
sg20
S'165'
p74
sg22
S'SF'
p75
sg24
S'.765'
p76
sg26
S'.443'
p77
sg28
S'NBA'
p78
sg30
S'20'
p79
sg32
S'157'
p80
sg34
S'73'
p81
sg36
S'34'
p82
sg38
S'104'
p83
sg40
S'21'
p84
sg42
S'POR'
p85
sg44
S'44'
p86
sg46
S'6'
p87
sg47
S'41'
p88
sg49
S'26'
p89
sg51
S'94'
p90
sg53
S'59'
p91
sg55
S'1995-96'
p92
sg57
S'60'
p93
sg59
S'31'
p94
sg60
S'.436'
p95
sg62
S'487'
p96
sg64
g19
sba(isrc.gp1.models.Totals
Totals
p97
(dp98
g8
S'63'
p99
sg10
S'77'
p100
sg12
S'.409'
p101
sg14
S'45'
p102
sg16
S'.338'
p103
sg18
S'26'
p104
sg20
S'211'
p105
sg22
S'SF'
p106
sg24
S'.675'
p107
sg26
S'.477'
p108
sg28
S'NBA'
p109
sg30
S'14'
p110
sg32
S'193'
p111
sg34
S'101'
p112
sg36
S'40'
p113
sg38
S'137'
p114
sg40
S'22'
p115
sg42
S'POR'
p116
sg44
S'47'
p117
sg46
g87
sg47
S'53'
p118
sg49
S'27'
p119
sg51
S'116'
p120
sg53
S'74'
p121
sg55
S'1996-97'
p122
sg57
S'79'
p123
sg59
S'49'
p124
sg60
S'.457'
p125
sg62
S'569'
p126
sg64
g65
sba(isrc.gp1.models.Totals
Totals
p127
(dp128
g8
g19
sg10
g65
sg12
S'.000'
p129
sg14
g65
sg16
g65
sg18
g65
sg20
g3
sg22
S'SF'
p130
sg24
g19
sg26
S'1'
p131
sg28
S'NBA'
p132
sg30
g65
sg32
g15
sg34
g131
sg36
S'.500'
p133
sg38
g65
sg40
S'23'
p134
sg42
S'POR'
p135
sg44
g15
sg46
g131
sg47
g15
sg49
g19
sg51
S'.000'
p136
sg53
S'4'
p137
sg55
S'1997-98'
p138
sg57
g65
sg59
g19
sg60
S'.000'
p139
sg62
S'9'
p140
sg64
g65
sbasS'_college'
p141
S'University of Cincinnati'
p142
sS'_toYear'
p143
S'1998'
p144
sS'_height'
p145
S'6-8'
p146
sS'_active'
p147
I00
sS'_shootingHand'
p148
VRight
p149
sS'_name'
p150
S'Dontonio Wingfield'
p151
sS'_per100Possessions'
p152
(lp153
(isrc.gp1.models.Per100Possession
Per100Possession
p154
(dp155
g8
S'6.8'
p156
sg10
S'7.4'
p157
sg12
S'.353'
p158
sS'_offensiveRating'
p159
S'89'
p160
sg14
S'1.9'
p161
sg16
S'.167'
p162
sg18
S'1.2'
p163
sg20
S'28.6'
p164
sg22
S'SF'
p165
sS'_defensiveRating'
p166
S'99'
p167
sg24
S'.800'
p168
sg28
S'NBA'
p169
sg30
S'3.1'
p170
sg32
S'31.7'
p171
sg34
S'9.3'
p172
sg36
S'6.2'
p173
sg38
S'18.6'
p174
sg40
S'20'
p175
sg42
S'SEA'
p176
sg44
S'20'
p177
sg46
S'1.9'
p178
sg47
S'9.9'
p179
sg49
S'5.0'
p180
sg51
S'24.2'
p181
sg53
S'11.8'
p182
sg55
S'1994-95'
p183
sg57
S'11.2'
p184
sg59
S'5.0'
p185
sg60
S'.410'
p186
sg62
S'81'
p187
sg64
g65
sba(isrc.gp1.models.Per100Possession
Per100Possession
p188
(dp189
g8
S'4.8'
p190
sg10
S'6.7'
p191
sg12
S'.382'
p192
sg159
S'101'
p193
sg14
S'3.0'
p194
sg16
S'.302'
p195
sg18
S'2.0'
p196
sg20
S'17.6'
p197
sg22
S'SF'
p198
sg166
S'103'
p199
sg24
S'.765'
p200
sg28
S'NBA'
p201
sg30
S'2.1'
p202
sg32
S'16.7'
p203
sg34
S'7.8'
p204
sg36
S'3.6'
p205
sg38
S'11.1'
p206
sg40
S'21'
p207
sg42
S'POR'
p208
sg44
S'44'
p209
sg46
S'0.6'
p210
sg47
S'4.4'
p211
sg49
S'2.8'
p212
sg51
S'10.0'
p213
sg53
S'6.3'
p214
sg55
S'1995-96'
p215
sg57
S'6.4'
p216
sg59
S'3.3'
p217
sg60
S'.436'
p218
sg62
S'487'
p219
sg64
g19
sba(isrc.gp1.models.Per100Possession
Per100Possession
p220
(dp221
g8
S'5.8'
p222
sg10
S'7.1'
p223
sg12
S'.409'
p224
sg159
S'101'
p225
sg14
S'4.2'
p226
sg16
S'.338'
p227
sg18
S'2.4'
p228
sg20
S'19.6'
p229
sg22
S'SF'
p230
sg166
S'104'
p231
sg24
S'.675'
p232
sg28
S'NBA'
p233
sg30
S'1.3'
p234
sg32
S'17.9'
p235
sg34
S'9.4'
p236
sg36
S'3.7'
p237
sg38
S'12.7'
p238
sg40
S'22'
p239
sg42
S'POR'
p240
sg44
S'47'
p241
sg46
S'0.6'
p242
sg47
S'4.9'
p243
sg49
S'2.5'
p244
sg51
S'10.8'
p245
sg53
S'6.9'
p246
sg55
S'1996-97'
p247
sg57
S'7.3'
p248
sg59
S'4.5'
p249
sg60
S'.457'
p250
sg62
S'569'
p251
sg64
g65
sba(isrc.gp1.models.Per100Possession
Per100Possession
p252
(dp253
g8
S'11.9'
p254
sg10
S'0.0'
p255
sg12
S'.000'
p256
sg159
S'103'
p257
sg14
S'0.0'
p258
sg16
S'0.0'
p259
sg18
S'0.0'
p260
sg20
S'48'
p261
sg22
S'SF'
p262
sg166
g3
sg24
S'11.9'
p263
sg28
S'NBA'
p264
sg30
S'0.0'
p265
sg32
S'17.8'
p266
sg34
S'5.9'
p267
sg36
S'.500'
p268
sg38
S'0.0'
p269
sg40
S'23'
p270
sg42
S'POR'
p271
sg44
g15
sg46
S'5.9'
p272
sg47
S'17.8'
p273
sg49
S'11.9'
p274
sg51
S'.000'
p275
sg53
S'23.7'
p276
sg55
S'1997-98'
p277
sg57
S'0.0'
p278
sg59
S'11.9'
p279
sg60
S'5.9'
p280
sg62
g140
sg64
g65
sbasS'_advanced'
p281
(lp282
(isrc.gp1.models.Advanced
Advanced
p283
(dp284
S'_offensiveReboundPercentage'
p285
S'16.4'
p286
sS'_turnOverPercentage'
p287
S'12.6'
p288
sS'_winSharesPer48Minutes'
p289
S'.007'
p290
sS'_stealPercentage'
p291
S'3.1'
p292
sS'_usagePercentage'
p293
S'33.9'
p294
sS'_totalReboundsPercentage'
p295
S'22.0'
p296
sS'_defensiveBoxPlusMinus'
p297
S'-2.3'
p298
sg22
S'SF'
p299
sS'_valueOverReplacementPlayer'
p300
S'-0.1'
p301
sS'_trueShootingPercentage'
p302
S'.415'
p303
sS'_defensiveReboundPercentage'
p304
S'27.4'
p305
sS'_freeThrowsAttempRate'
p306
S'.196'
p307
sS'_threePointsAttempRate'
p308
S'.235'
p309
sg28
S'NBA'
p310
sS'_offensiveBoxPlusMinues'
p311
S'-5.8'
p312
sS'_assistPercentage'
p313
S'6.0'
p314
sS'_defensiveWinShares'
p315
S'0.2'
p316
sg40
S'20'
p317
sg42
S'SEA'
p318
sg44
S'20'
p319
sS'_blockPercentage'
p320
S'2.9'
p321
sS'_playerEfficiencyRating'
p322
S'14.2'
p323
sS'_offensiveWinShares'
p324
S'-0.2'
p325
sg62
S'81'
p326
sS'_boxPlusMinus'
p327
S'-8.1'
p328
sg55
S'1994-95'
p329
sS'_winShares'
p330
S'0.0'
p331
sba(isrc.gp1.models.Advanced
Advanced
p332
(dp333
g285
S'10.6'
p334
sg287
S'15.3'
p335
sg289
S'.085'
p336
sg291
S'2.1'
p337
sg293
S'18.3'
p338
sg295
S'12.2'
p339
sg297
S'0.6'
p340
sg22
S'SF'
p341
sg300
S'0.2'
p342
sg302
S'.480'
p343
sg304
S'13.7'
p344
sg306
S'.217'
p345
sg308
S'.401'
p346
sg28
S'NBA'
p347
sg311
S'-1.3'
p348
sg313
S'8.9'
p349
sg315
S'0.8'
p350
sg40
S'21'
p351
sg42
S'POR'
p352
sg44
S'44'
p353
sg320
S'0.9'
p354
sg322
S'11.1'
p355
sg324
S'0.1'
p356
sg62
S'487'
p357
sg327
S'-0.7'
p358
sg55
S'1995-96'
p359
sg330
S'0.9'
p360
sba(isrc.gp1.models.Advanced
Advanced
p361
(dp362
g285
S'13.5'
p363
sg287
S'18.9'
p364
sg289
S'.079'
p365
sg291
S'1.3'
p366
sg293
S'20.5'
p367
sg295
S'14.3'
p368
sg297
S'-0.4'
p369
sg22
S'SF'
p370
sg300
S'0.2'
p371
sg302
S'.501'
p372
sg304
S'15.0'
p373
sg306
S'.207'
p374
sg308
S'.399'
p375
sg28
S'NBA'
p376
sg311
S'-0.2'
p377
sg313
S'12.8'
p378
sg315
S'0.7'
p379
sg40
S'22'
p380
sg42
S'POR'
p381
sg44
S'47'
p382
sg320
S'0.8'
p383
sg322
S'11.6'
p384
sg324
S'0.2'
p385
sg62
S'569'
p386
sg327
S'-0.6'
p387
sg55
S'1996-97'
p388
sg330
S'0.9'
p389
sba(isrc.gp1.models.Advanced
Advanced
p390
(dp391
g285
S'26.8'
p392
sg287
S'20.5'
p393
sg289
S'-0.299'
p394
sg291
S'0.0'
p395
sg293
S'24.6'
p396
sg295
S'25.8'
p397
sg297
S'-8.9'
p398
sg22
S'SF'
p399
sg300
S'-0.1'
p400
sg302
S'.129'
p401
sg304
S'24.9'
p402
sg306
S'.667'
p403
sg308
S'.000'
p404
sg28
S'NBA'
p405
sg311
S'-16.9'
p406
sg313
S'0.0'
p407
sg315
S'0.0'
p408
sg40
S'23'
p409
sg42
S'POR'
p410
sg44
g15
sg320
S'0.0'
p411
sg322
S'-7.1'
p412
sg324
S'-0.1'
p413
sg62
g140
sg327
S'-25.8'
p414
sg55
S'1997-98'
p415
sg330
S'-0.1'
p416
sbasS'_per36Minutes'
p417
(lp418
(isrc.gp1.models.Per36Minutes
Per36Minutes
p419
(dp420
g8
S'4.9'
p421
sg10
S'5.3'
p422
sg12
S'.353'
p423
sg14
S'1.3'
p424
sg16
S'.167'
p425
sg18
S'0.9'
p426
sg20
S'20.4'
p427
sg22
S'SF'
p428
sg24
S'.800'
p429
sg28
S'NBA'
p430
sg30
S'2.2'
p431
sg32
S'22.7'
p432
sg34
S'6.7'
p433
sg36
S'4.4'
p434
sg38
S'13.3'
p435
sg40
S'20'
p436
sg42
S'SEA'
p437
sg44
S'20'
p438
sg46
S'1.3'
p439
sg47
S'7.1'
p440
sg49
S'3.6'
p441
sg51
S'17.3'
p442
sg53
S'8.4'
p443
sg55
S'1994-95'
p444
sg57
S'8.0'
p445
sg59
S'3.6'
p446
sg60
S'.410'
p447
sg62
S'81'
p448
sg64
g65
sba(isrc.gp1.models.Per36Minutes
Per36Minutes
p449
(dp450
g8
S'3.3'
p451
sg10
S'4.7'
p452
sg12
S'.382'
p453
sg14
S'2.1'
p454
sg16
S'.302'
p455
sg18
S'1.4'
p456
sg20
S'12.2'
p457
sg22
S'SF'
p458
sg24
S'.765'
p459
sg28
S'NBA'
p460
sg30
S'1.5'
p461
sg32
S'11.6'
p462
sg34
S'5.4'
p463
sg36
S'2.5'
p464
sg38
S'7.7'
p465
sg40
S'21'
p466
sg42
S'POR'
p467
sg44
S'44'
p468
sg46
S'0.4'
p469
sg47
S'3.0'
p470
sg49
S'1.9'
p471
sg51
S'6.9'
p472
sg53
S'4.4'
p473
sg55
S'1995-96'
p474
sg57
S'4.4'
p475
sg59
S'2.3'
p476
sg60
S'.436'
p477
sg62
S'487'
p478
sg64
g19
sba(isrc.gp1.models.Per36Minutes
Per36Minutes
p479
(dp480
g8
S'4.0'
p481
sg10
S'4.9'
p482
sg12
S'.409'
p483
sg14
S'2.8'
p484
sg16
S'.338'
p485
sg18
S'1.6'
p486
sg20
S'13.3'
p487
sg22
S'SF'
p488
sg24
S'.675'
p489
sg28
S'NBA'
p490
sg30
S'0.9'
p491
sg32
S'12.2'
p492
sg34
S'6.4'
p493
sg36
S'2.5'
p494
sg38
S'8.7'
p495
sg40
S'22'
p496
sg42
S'POR'
p497
sg44
S'47'
p498
sg46
S'0.4'
p499
sg47
S'3.4'
p500
sg49
S'1.7'
p501
sg51
S'7.3'
p502
sg53
S'4.7'
p503
sg55
S'1996-97'
p504
sg57
S'5.0'
p505
sg59
S'3.1'
p506
sg60
S'.457'
p507
sg62
S'569'
p508
sg64
g65
sba(isrc.gp1.models.Per36Minutes
Per36Minutes
p509
(dp510
g8
S'8.0'
p511
sg10
S'0.0'
p512
sg12
S'.000'
p513
sg14
S'0.0'
p514
sg16
S'0.0'
p515
sg18
S'0.0'
p516
sg20
g3
sg22
S'SF'
p517
sg24
S'8.0'
p518
sg28
S'NBA'
p519
sg30
S'0.0'
p520
sg32
S'12.0'
p521
sg34
S'4.0'
p522
sg36
S'.500'
p523
sg38
S'0.0'
p524
sg40
S'23'
p525
sg42
S'POR'
p526
sg44
g15
sg46
S'4.0'
p527
sg47
S'12.0'
p528
sg49
S'8.0'
p529
sg51
S'.000'
p530
sg53
S'16.0'
p531
sg55
S'1997-98'
p532
sg57
S'0.0'
p533
sg59
S'8.0'
p534
sg60
S'4.0'
p535
sg62
g140
sg64
g65
sbasS'_fromYear'
p536
S'1995'
p537
sS'_url'
p538
S'http://www.basketball-reference.com/players/w/wingfdo01.html'
p539
sS'_perGame'
p540
(isrc.gp1.models.PerGame
PerGame
p541
(dp542
g8
S'0.7'
p543
sg10
S'0.0'
p544
sg12
S'.000'
p545
sS'_effectiveFieldGalPercentage'
p546
S'0.3'
p547
sg14
S'0.0'
p548
sg16
S'0.0'
p549
sg18
S'0.0'
p550
sg20
g3
sg22
S'SF'
p551
sg24
S'0.7'
p552
sg28
S'NBA'
p553
sg30
S'0.0'
p554
sg34
S'0.3'
p555
sS'_fieldGoalsttempted'
p556
S'1.0'
p557
sg36
S'.500'
p558
sg38
S'0.0'
p559
sg40
S'23'
p560
sg42
S'POR'
p561
sg44
g15
sg46
S'0.3'
p562
sg47
S'1.0'
p563
sg49
S'0.7'
p564
sg51
S'.000'
p565
sg53
S'1.3'
p566
sg55
S'1997-98'
p567
sg57
S'0.0'
p568
sg59
S'0.7'
p569
sg60
S'.000'
p570
sg62
S'3.0'
p571
sg64
g65
sbsS'_weight'
p572
S'256'
p573
sS'_dob'
p574
S'23-6-1974'
p575
sS'_salary'
p576
(lp577
(isrc.gp1.models.Salary
Salary
p578
(dp579
g42
S'Seattle SuperSonics'
p580
sg28
S'NBA'
p581
sg576
S'$150,000'
p582
sg55
S'1994-95'
p583
sba(isrc.gp1.models.Salary
Salary
p584
(dp585
g42
S'Portland Trail Blazers'
p586
sg28
S'NBA'
p587
sg576
S'$225,000'
p588
sg55
S'1995-96'
p589
sba(isrc.gp1.models.Salary
Salary
p590
(dp591
g42
S'Portland Trail Blazers'
p592
sg28
S'NBA'
p593
sg576
S'$500,000'
p594
sg55
S'1996-97'
p595
sba(isrc.gp1.models.Salary
Salary
p596
(dp597
g42
S'Portland Trail Blazers'
p598
sg28
S'NBA'
p599
sg576
S'$600,000'
p600
sg55
S'1997-98'
p601
sbasg22
S'F'
p602
sb.