(isrc.gp1.models.Player
Player
p0
(dp1
S'_experience'
p2
S'NA'
p3
sS'_totals'
p4
(lp5
(isrc.gp1.models.Totals
Totals
p6
(dp7
S'_offensiveRebounds'
p8
S'181'
p9
sS'_threePointsAttempted'
p10
g3
sS'_fieldGoalsPercentage'
p11
S'.479'
p12
sS'_assist'
p13
S'68'
p14
sS'_threePointsPercentage'
p15
g3
sS'_threePoints'
p16
g3
sS'_points'
p17
S'617'
p18
sS'_position'
p19
S'C'
p20
sS'_freeThrowsPercentage'
p21
S'.555'
p22
sS'_effectiveFieldGoalPercentage'
p23
S'.479'
p24
sS'_league'
p25
S'NBA'
p26
sS'_steals'
p27
S'44'
p28
sS'_fieldGoalsAttempted'
p29
S'512'
p30
sS'_personalFouls'
p31
S'294'
p32
sS'_freeThrowsAttempted'
p33
S'229'
p34
sS'_totalRebounds'
p35
S'526'
p36
sS'_age'
p37
S'22'
p38
sS'_team'
p39
S'DET'
p40
sS'_games'
p41
S'82'
p42
sS'_blocks'
p43
S'81'
p44
sS'_twoPoints'
p45
S'245'
p46
sS'_freeThrows'
p47
S'127'
p48
sS'_twoPointsAttempted'
p49
S'512'
p50
sS'_defensiveRebounds'
p51
S'345'
p52
sS'_season'
p53
S'1976-77'
p54
sS'_fieldGoals'
p55
S'245'
p56
sS'_turnOvers'
p57
g3
sS'_twoPointsPercentage'
p58
S'.479'
p59
sS'_minutesPlayed'
p60
S'1626'
p61
sS'_gamesStarted'
p62
g3
sba(isrc.gp1.models.Totals
Totals
p63
(dp64
g8
S'181'
p65
sg10
g3
sg11
S'.481'
p66
sg13
S'112'
p67
sg15
g3
sg16
g3
sg17
S'863'
p68
sg19
g20
sg21
S'.641'
p69
sg23
S'.481'
p70
sg25
S'NBA'
p71
sg27
S'57'
p72
sg29
S'667'
p73
sg31
S'295'
p74
sg33
S'345'
p75
sg35
S'582'
p76
sg37
S'23'
p77
sg39
S'DET'
p78
sg41
S'79'
p79
sg43
S'48'
p80
sg45
S'321'
p81
sg47
S'221'
p82
sg49
S'667'
p83
sg51
S'401'
p84
sg53
S'1977-78'
p85
sg55
S'321'
p86
sg57
S'197'
p87
sg58
S'.481'
p88
sg60
S'1993'
p89
sg62
g3
sba(isrc.gp1.models.Totals
Totals
p90
(dp91
g8
S'248'
p92
sg10
g3
sg11
S'.490'
p93
sg13
S'74'
p94
sg15
g3
sg16
g3
sg17
S'892'
p95
sg19
g20
sg21
S'.634'
p96
sg23
S'.490'
p97
sg25
S'NBA'
p98
sg27
S'39'
p99
sg29
S'698'
p100
sg31
S'319'
p101
sg33
S'328'
p102
sg35
S'664'
p103
sg37
S'24'
p104
sg39
S'DET'
p105
sg41
S'78'
p106
sg43
S'55'
p107
sg45
S'342'
p108
sg47
S'208'
p109
sg49
S'698'
p110
sg51
S'416'
p111
sg53
S'1978-79'
p112
sg55
S'342'
p113
sg57
S'190'
p114
sg58
S'.490'
p115
sg60
S'2215'
p116
sg62
g3
sba(isrc.gp1.models.Totals
Totals
p117
(dp118
g8
S'171'
p119
sg10
S'1'
p120
sg11
S'.486'
p121
sg13
S'121'
p122
sg15
S'.000'
p123
sg16
S'0'
p124
sg17
S'567'
p125
sg19
g20
sg21
S'.676'
p126
sg23
S'.486'
p127
sg25
S'NBA'
p128
sg27
S'30'
p129
sg29
S'455'
p130
sg31
S'249'
p131
sg33
S'185'
p132
sg35
S'501'
p133
sg37
S'25'
p134
sg39
S'DET'
p135
sg41
S'70'
p136
sg43
S'62'
p137
sg45
S'221'
p138
sg47
S'125'
p139
sg49
S'454'
p140
sg51
S'330'
p141
sg53
S'1979-80'
p142
sg55
S'221'
p143
sg57
S'127'
p144
sg58
S'.487'
p145
sg60
S'1782'
p146
sg62
g3
sba(isrc.gp1.models.Totals
Totals
p147
(dp148
g8
S'150'
p149
sg10
S'3'
p150
sg11
S'.573'
p151
sg13
S'69'
p152
sg15
S'.000'
p153
sg16
g124
sg17
S'472'
p154
sg19
g20
sg21
S'.548'
p155
sg23
S'.573'
p156
sg25
S'NBA'
p157
sg27
S'25'
p158
sg29
S'323'
p159
sg31
S'251'
p160
sg33
S'186'
p161
sg35
S'384'
p162
sg37
S'26'
p163
sg39
S'KCK'
p164
sg41
S'79'
p165
sg43
S'38'
p166
sg45
S'185'
p167
sg47
S'102'
p168
sg49
S'320'
p169
sg51
S'234'
p170
sg53
S'1980-81'
p171
sg55
S'185'
p172
sg57
S'90'
p173
sg58
S'.578'
p174
sg60
S'1356'
p175
sg62
g3
sba(isrc.gp1.models.Totals
Totals
p176
(dp177
g8
S'111'
p178
sg10
g124
sg11
S'.500'
p179
sg13
S'35'
p180
sg15
g3
sg16
g124
sg17
S'172'
p181
sg19
g20
sg21
S'.400'
p182
sg23
S'.500'
p183
sg25
S'NBA'
p184
sg27
S'15'
p185
sg29
S'140'
p186
sg31
S'210'
p187
sg33
S'80'
p188
sg35
S'290'
p189
sg37
S'27'
p190
sg39
S'KCK'
p191
sg41
S'63'
p192
sg43
S'38'
p193
sg45
S'70'
p194
sg47
S'32'
p195
sg49
S'140'
p196
sg51
S'179'
p197
sg53
S'1981-82'
p198
sg55
S'70'
p199
sg57
S'55'
p200
sg58
S'.500'
p201
sg60
S'1093'
p202
sg62
S'17'
p203
sba(isrc.gp1.models.Totals
Totals
p204
(dp205
g8
g150
sg10
g124
sg11
S'.667'
p206
sg13
g124
sg15
g3
sg16
g124
sg17
S'4'
p207
sg19
g20
sg21
S'.000'
p208
sg23
S'.667'
p209
sg25
S'NBA'
p210
sg27
g124
sg29
g150
sg31
S'13'
p211
sg33
S'2'
p212
sg35
S'7'
p213
sg37
S'28'
p214
sg39
S'KCK'
p215
sg41
S'5'
p216
sg43
g150
sg45
g212
sg47
g124
sg49
g150
sg51
g207
sg53
S'1982-83'
p217
sg55
g212
sg57
g120
sg58
S'.667'
p218
sg60
S'46'
p219
sg62
g124
sbasS'_college'
p220
S'University of Alabama'
p221
sS'_toYear'
p222
S'1983'
p223
sS'_height'
p224
S'6-10'
p225
sS'_active'
p226
I00
sS'_shootingHand'
p227
VRight
p228
sS'_name'
p229
S'Leon Douglas'
p230
sS'_per100Possessions'
p231
(lp232
(isrc.gp1.models.Per100Possession
Per100Possession
p233
(dp234
g8
S'4.9'
p235
sg10
g3
sg11
S'.479'
p236
sS'_offensiveRating'
p237
g3
sg13
S'1.8'
p238
sg15
g3
sg16
g3
sg17
S'16.7'
p239
sg19
g20
sS'_defensiveRating'
p240
S'99'
p241
sg21
S'.555'
p242
sg25
S'NBA'
p243
sg27
S'1.2'
p244
sg29
S'13.9'
p245
sg31
S'8.0'
p246
sg33
S'6.2'
p247
sg35
S'14.3'
p248
sg37
S'22'
p249
sg39
S'DET'
p250
sg41
S'82'
p251
sg43
S'2.2'
p252
sg45
S'6.6'
p253
sg47
S'3.4'
p254
sg49
S'13.9'
p255
sg51
S'9.4'
p256
sg53
S'1976-77'
p257
sg55
S'6.6'
p258
sg57
g3
sg58
S'.479'
p259
sg60
S'1626'
p260
sg62
g3
sba(isrc.gp1.models.Per100Possession
Per100Possession
p261
(dp262
g8
S'4.0'
p263
sg10
g3
sg11
S'.481'
p264
sg237
S'98'
p265
sg13
S'2.5'
p266
sg15
g3
sg16
g3
sg17
S'19.3'
p267
sg19
g20
sg240
S'100'
p268
sg21
S'.641'
p269
sg25
S'NBA'
p270
sg27
S'1.3'
p271
sg29
S'14.9'
p272
sg31
S'6.6'
p273
sg33
S'7.7'
p274
sg35
S'13.0'
p275
sg37
S'23'
p276
sg39
S'DET'
p277
sg41
S'79'
p278
sg43
S'1.1'
p279
sg45
S'7.2'
p280
sg47
S'4.9'
p281
sg49
S'14.9'
p282
sg51
S'9.0'
p283
sg53
S'1977-78'
p284
sg55
S'7.2'
p285
sg57
S'4.4'
p286
sg58
S'.481'
p287
sg60
S'1993'
p288
sg62
g3
sba(isrc.gp1.models.Per100Possession
Per100Possession
p289
(dp290
g8
S'5.0'
p291
sg10
g3
sg11
S'.490'
p292
sg237
S'100'
p293
sg13
S'1.5'
p294
sg15
g3
sg16
g3
sg17
S'18.0'
p295
sg19
g20
sg240
S'105'
p296
sg21
S'.634'
p297
sg25
S'NBA'
p298
sg27
S'0.8'
p299
sg29
S'14.1'
p300
sg31
S'6.4'
p301
sg33
S'6.6'
p302
sg35
S'13.4'
p303
sg37
S'24'
p304
sg39
S'DET'
p305
sg41
S'78'
p306
sg43
S'1.1'
p307
sg45
S'6.9'
p308
sg47
S'4.2'
p309
sg49
S'14.1'
p310
sg51
S'8.4'
p311
sg53
S'1978-79'
p312
sg55
S'6.9'
p313
sg57
S'3.8'
p314
sg58
S'.490'
p315
sg60
S'2215'
p316
sg62
g3
sba(isrc.gp1.models.Per100Possession
Per100Possession
p317
(dp318
g8
S'4.3'
p319
sg10
S'0.0'
p320
sg11
S'.486'
p321
sg237
S'103'
p322
sg13
S'3.0'
p323
sg15
S'.000'
p324
sg16
S'0.0'
p325
sg17
S'14.3'
p326
sg19
g20
sg240
S'109'
p327
sg21
S'.676'
p328
sg25
S'NBA'
p329
sg27
S'0.8'
p330
sg29
S'11.4'
p331
sg31
S'6.3'
p332
sg33
S'4.7'
p333
sg35
S'12.6'
p334
sg37
S'25'
p335
sg39
S'DET'
p336
sg41
S'70'
p337
sg43
S'1.6'
p338
sg45
S'5.6'
p339
sg47
S'3.1'
p340
sg49
S'11.4'
p341
sg51
S'8.3'
p342
sg53
S'1979-80'
p343
sg55
S'5.6'
p344
sg57
S'3.2'
p345
sg58
S'.487'
p346
sg60
S'1782'
p347
sg62
g3
sba(isrc.gp1.models.Per100Possession
Per100Possession
p348
(dp349
g8
S'5.2'
p350
sg10
S'0.1'
p351
sg11
S'.573'
p352
sg237
S'109'
p353
sg13
S'2.4'
p354
sg15
S'.000'
p355
sg16
S'0.0'
p356
sg17
S'16.5'
p357
sg19
g20
sg240
S'104'
p358
sg21
S'.548'
p359
sg25
S'NBA'
p360
sg27
S'0.9'
p361
sg29
S'11.3'
p362
sg31
S'8.8'
p363
sg33
S'6.5'
p364
sg35
S'13.4'
p365
sg37
S'26'
p366
sg39
S'KCK'
p367
sg41
S'79'
p368
sg43
S'1.3'
p369
sg45
S'6.5'
p370
sg47
S'3.6'
p371
sg49
S'11.2'
p372
sg51
S'8.2'
p373
sg53
S'1980-81'
p374
sg55
S'6.5'
p375
sg57
S'3.1'
p376
sg58
S'.578'
p377
sg60
S'1356'
p378
sg62
g3
sba(isrc.gp1.models.Per100Possession
Per100Possession
p379
(dp380
g8
S'4.8'
p381
sg10
S'0.0'
p382
sg11
S'.500'
p383
sg237
S'97'
p384
sg13
S'1.5'
p385
sg15
g3
sg16
S'0.0'
p386
sg17
S'7.4'
p387
sg19
g20
sg240
S'107'
p388
sg21
S'.400'
p389
sg25
S'NBA'
p390
sg27
S'0.6'
p391
sg29
S'6.0'
p392
sg31
S'9.1'
p393
sg33
S'3.5'
p394
sg35
S'12.5'
p395
sg37
S'27'
p396
sg39
S'KCK'
p397
sg41
S'63'
p398
sg43
S'1.6'
p399
sg45
S'3.0'
p400
sg47
S'1.4'
p401
sg49
S'6.0'
p402
sg51
S'7.7'
p403
sg53
S'1981-82'
p404
sg55
S'3.0'
p405
sg57
S'2.4'
p406
sg58
S'.500'
p407
sg60
S'1093'
p408
sg62
S'17'
p409
sba(isrc.gp1.models.Per100Possession
Per100Possession
p410
(dp411
g8
S'2.9'
p412
sg10
S'0.0'
p413
sg11
S'.667'
p414
sg237
S'98'
p415
sg13
S'0.0'
p416
sg15
g3
sg16
S'0.0'
p417
sg17
S'3.9'
p418
sg19
g20
sg240
S'107'
p419
sg21
S'.000'
p420
sg25
S'NBA'
p421
sg27
S'0.0'
p422
sg29
S'2.9'
p423
sg31
S'12.7'
p424
sg33
S'2.0'
p425
sg35
S'6.9'
p426
sg37
S'28'
p427
sg39
S'KCK'
p428
sg41
g216
sg43
S'2.9'
p429
sg45
S'2.0'
p430
sg47
S'0.0'
p431
sg49
S'2.9'
p432
sg51
S'3.9'
p433
sg53
S'1982-83'
p434
sg55
S'2.0'
p435
sg57
S'1.0'
p436
sg58
S'.667'
p437
sg60
S'46'
p438
sg62
g124
sbasS'_advanced'
p439
(lp440
(isrc.gp1.models.Advanced
Advanced
p441
(dp442
S'_offensiveReboundPercentage'
p443
S'11.5'
p444
sS'_turnOverPercentage'
p445
g3
sS'_winSharesPer48Minutes'
p446
S'.063'
p447
sS'_stealPercentage'
p448
S'1.2'
p449
sS'_usagePercentage'
p450
g3
sS'_totalReboundsPercentage'
p451
S'16.8'
p452
sS'_defensiveBoxPlusMinus'
p453
S'0.1'
p454
sg19
g20
sS'_valueOverReplacementPlayer'
p455
S'0.1'
p456
sS'_trueShootingPercentage'
p457
S'.503'
p458
sS'_defensiveReboundPercentage'
p459
S'22.0'
p460
sS'_freeThrowsAttempRate'
p461
S'.447'
p462
sS'_threePointsAttempRate'
p463
g3
sg25
S'NBA'
p464
sS'_offensiveBoxPlusMinues'
p465
S'-1.7'
p466
sS'_assistPercentage'
p467
S'5.2'
p468
sS'_defensiveWinShares'
p469
S'1.8'
p470
sg37
S'22'
p471
sg39
S'DET'
p472
sg41
S'82'
p473
sS'_blockPercentage'
p474
S'2.6'
p475
sS'_playerEfficiencyRating'
p476
S'13.3'
p477
sS'_offensiveWinShares'
p478
S'0.3'
p479
sg60
S'1626'
p480
sS'_boxPlusMinus'
p481
S'-1.6'
p482
sg53
S'1976-77'
p483
sS'_winShares'
p484
S'2.1'
p485
sba(isrc.gp1.models.Advanced
Advanced
p486
(dp487
g443
S'9.7'
p488
sg445
S'19.4'
p489
sg446
S'.087'
p490
sg448
S'1.3'
p491
sg450
S'19.5'
p492
sg451
S'15.3'
p493
sg453
S'-0.1'
p494
sg19
g20
sg455
S'0.3'
p495
sg457
S'.527'
p496
sg459
S'20.8'
p497
sg461
S'.517'
p498
sg463
g3
sg25
S'NBA'
p499
sg465
S'-1.3'
p500
sg467
S'7.7'
p501
sg469
S'2.2'
p502
sg37
S'23'
p503
sg39
S'DET'
p504
sg41
S'79'
p505
sg474
S'1.2'
p506
sg476
S'13.6'
p507
sg478
S'1.4'
p508
sg60
S'1993'
p509
sg481
S'-1.4'
p510
sg53
S'1977-78'
p511
sg484
S'3.6'
p512
sba(isrc.gp1.models.Advanced
Advanced
p513
(dp514
g443
S'11.3'
p515
sg445
S'18.4'
p516
sg446
S'.068'
p517
sg448
S'0.8'
p518
sg450
S'17.7'
p519
sg451
S'15.6'
p520
sg453
S'-0.5'
p521
sg19
g20
sg455
S'-0.1'
p522
sg457
S'.529'
p523
sg459
S'20.2'
p524
sg461
S'.470'
p525
sg463
g3
sg25
S'NBA'
p526
sg465
S'-1.7'
p527
sg467
S'4.3'
p528
sg469
S'2.0'
p529
sg37
S'24'
p530
sg39
S'DET'
p531
sg41
S'78'
p532
sg474
S'1.3'
p533
sg476
S'12.1'
p534
sg478
S'1.1'
p535
sg60
S'2215'
p536
sg481
S'-2.2'
p537
sg53
S'1978-79'
p538
sg484
S'3.1'
p539
sba(isrc.gp1.models.Advanced
Advanced
p540
(dp541
g443
S'10.0'
p542
sg445
S'19.1'
p543
sg446
S'.057'
p544
sg448
S'0.8'
p545
sg450
S'14.3'
p546
sg451
S'14.8'
p547
sg453
S'0.1'
p548
sg19
g20
sg455
S'0.2'
p549
sg457
S'.529'
p550
sg459
S'19.6'
p551
sg461
S'.407'
p552
sg463
S'.002'
p553
sg25
S'NBA'
p554
sg465
S'-1.7'
p555
sg467
S'8.5'
p556
sg469
S'1.1'
p557
sg37
S'25'
p558
sg39
S'DET'
p559
sg41
S'70'
p560
sg474
S'1.8'
p561
sg476
S'11.4'
p562
sg478
S'1.0'
p563
sg60
S'1782'
p564
sg481
S'-1.5'
p565
sg53
S'1979-80'
p566
sg484
S'2.1'
p567
sba(isrc.gp1.models.Advanced
Advanced
p568
(dp569
g443
S'12.4'
p570
sg445
S'18.2'
p571
sg446
S'.112'
p572
sg448
S'0.9'
p573
sg450
S'15.1'
p574
sg451
S'15.7'
p575
sg453
S'0.5'
p576
sg19
g20
sg455
S'0.6'
p577
sg457
S'.583'
p578
sg459
S'19.1'
p579
sg461
S'.576'
p580
sg463
S'.009'
p581
sg25
S'NBA'
p582
sg465
S'-0.8'
p583
sg467
S'6.7'
p584
sg469
S'1.6'
p585
sg37
S'26'
p586
sg39
S'KCK'
p587
sg41
S'79'
p588
sg474
S'1.6'
p589
sg476
S'12.5'
p590
sg478
S'1.6'
p591
sg60
S'1356'
p592
sg481
S'-0.4'
p593
sg53
S'1980-81'
p594
sg484
S'3.2'
p595
sba(isrc.gp1.models.Advanced
Advanced
p596
(dp597
g443
S'11.1'
p598
sg445
S'23.9'
p599
sg446
S'.044'
p600
sg448
S'0.6'
p601
sg450
S'8.6'
p602
sg451
S'14.9'
p603
sg453
S'1.3'
p604
sg19
g20
sg455
S'0.0'
p605
sg457
S'.491'
p606
sg459
S'18.9'
p607
sg461
S'.571'
p608
sg463
S'.000'
p609
sg25
S'NBA'
p610
sg465
S'-3.4'
p611
sg467
S'3.8'
p612
sg469
S'1.1'
p613
sg37
S'27'
p614
sg39
S'KCK'
p615
sg41
S'63'
p616
sg474
S'2.0'
p617
sg476
S'6.5'
p618
sg478
S'-0.1'
p619
sg60
S'1093'
p620
sg481
S'-2.1'
p621
sg53
S'1981-82'
p622
sg484
S'1.0'
p623
sba(isrc.gp1.models.Advanced
Advanced
p624
(dp625
g443
S'7.1'
p626
sg445
S'20.5'
p627
sg446
S'.036'
p628
sg448
S'0.0'
p629
sg450
S'4.1'
p630
sg451
S'8.2'
p631
sg453
S'-0.3'
p632
sg19
g20
sg455
S'0.0'
p633
sg457
S'.515'
p634
sg459
S'9.4'
p635
sg461
S'.667'
p636
sg463
S'.000'
p637
sg25
S'NBA'
p638
sg465
S'-4.4'
p639
sg467
S'0.0'
p640
sg469
S'0.0'
p641
sg37
S'28'
p642
sg39
S'KCK'
p643
sg41
g216
sg474
S'3.7'
p644
sg476
S'2.0'
p645
sg478
S'0.0'
p646
sg60
S'46'
p647
sg481
S'-4.7'
p648
sg53
S'1982-83'
p649
sg484
S'0.0'
p650
sbasS'_per36Minutes'
p651
(lp652
(isrc.gp1.models.Per36Minutes
Per36Minutes
p653
(dp654
g8
S'4.0'
p655
sg10
g3
sg11
S'.479'
p656
sg13
S'1.5'
p657
sg15
g3
sg16
g3
sg17
S'13.7'
p658
sg19
g20
sg21
S'.555'
p659
sg25
S'NBA'
p660
sg27
S'1.0'
p661
sg29
S'11.3'
p662
sg31
S'6.5'
p663
sg33
S'5.1'
p664
sg35
S'11.6'
p665
sg37
S'22'
p666
sg39
S'DET'
p667
sg41
S'82'
p668
sg43
S'1.8'
p669
sg45
S'5.4'
p670
sg47
S'2.8'
p671
sg49
S'11.3'
p672
sg51
S'7.6'
p673
sg53
S'1976-77'
p674
sg55
S'5.4'
p675
sg57
g3
sg58
S'.479'
p676
sg60
S'1626'
p677
sg62
g3
sba(isrc.gp1.models.Per36Minutes
Per36Minutes
p678
(dp679
g8
S'3.3'
p680
sg10
g3
sg11
S'.481'
p681
sg13
S'2.0'
p682
sg15
g3
sg16
g3
sg17
S'15.6'
p683
sg19
g20
sg21
S'.641'
p684
sg25
S'NBA'
p685
sg27
S'1.0'
p686
sg29
S'12.0'
p687
sg31
S'5.3'
p688
sg33
S'6.2'
p689
sg35
S'10.5'
p690
sg37
S'23'
p691
sg39
S'DET'
p692
sg41
S'79'
p693
sg43
S'0.9'
p694
sg45
S'5.8'
p695
sg47
S'4.0'
p696
sg49
S'12.0'
p697
sg51
S'7.2'
p698
sg53
S'1977-78'
p699
sg55
S'5.8'
p700
sg57
S'3.6'
p701
sg58
S'.481'
p702
sg60
S'1993'
p703
sg62
g3
sba(isrc.gp1.models.Per36Minutes
Per36Minutes
p704
(dp705
g8
S'4.0'
p706
sg10
g3
sg11
S'.490'
p707
sg13
S'1.2'
p708
sg15
g3
sg16
g3
sg17
S'14.5'
p709
sg19
g20
sg21
S'.634'
p710
sg25
S'NBA'
p711
sg27
S'0.6'
p712
sg29
S'11.3'
p713
sg31
S'5.2'
p714
sg33
S'5.3'
p715
sg35
S'10.8'
p716
sg37
S'24'
p717
sg39
S'DET'
p718
sg41
S'78'
p719
sg43
S'0.9'
p720
sg45
S'5.6'
p721
sg47
S'3.4'
p722
sg49
S'11.3'
p723
sg51
S'6.8'
p724
sg53
S'1978-79'
p725
sg55
S'5.6'
p726
sg57
S'3.1'
p727
sg58
S'.490'
p728
sg60
S'2215'
p729
sg62
g3
sba(isrc.gp1.models.Per36Minutes
Per36Minutes
p730
(dp731
g8
S'3.5'
p732
sg10
S'0.0'
p733
sg11
S'.486'
p734
sg13
S'2.4'
p735
sg15
S'.000'
p736
sg16
S'0.0'
p737
sg17
S'11.5'
p738
sg19
g20
sg21
S'.676'
p739
sg25
S'NBA'
p740
sg27
S'0.6'
p741
sg29
S'9.2'
p742
sg31
S'5.0'
p743
sg33
S'3.7'
p744
sg35
S'10.1'
p745
sg37
S'25'
p746
sg39
S'DET'
p747
sg41
S'70'
p748
sg43
S'1.3'
p749
sg45
S'4.5'
p750
sg47
S'2.5'
p751
sg49
S'9.2'
p752
sg51
S'6.7'
p753
sg53
S'1979-80'
p754
sg55
S'4.5'
p755
sg57
S'2.6'
p756
sg58
S'.487'
p757
sg60
S'1782'
p758
sg62
g3
sba(isrc.gp1.models.Per36Minutes
Per36Minutes
p759
(dp760
g8
S'4.0'
p761
sg10
S'0.1'
p762
sg11
S'.573'
p763
sg13
S'1.8'
p764
sg15
S'.000'
p765
sg16
S'0.0'
p766
sg17
S'12.5'
p767
sg19
g20
sg21
S'.548'
p768
sg25
S'NBA'
p769
sg27
S'0.7'
p770
sg29
S'8.6'
p771
sg31
S'6.7'
p772
sg33
S'4.9'
p773
sg35
S'10.2'
p774
sg37
S'26'
p775
sg39
S'KCK'
p776
sg41
S'79'
p777
sg43
S'1.0'
p778
sg45
S'4.9'
p779
sg47
S'2.7'
p780
sg49
S'8.5'
p781
sg51
S'6.2'
p782
sg53
S'1980-81'
p783
sg55
S'4.9'
p784
sg57
S'2.4'
p785
sg58
S'.578'
p786
sg60
S'1356'
p787
sg62
g3
sba(isrc.gp1.models.Per36Minutes
Per36Minutes
p788
(dp789
g8
S'3.7'
p790
sg10
S'0.0'
p791
sg11
S'.500'
p792
sg13
S'1.2'
p793
sg15
g3
sg16
S'0.0'
p794
sg17
S'5.7'
p795
sg19
g20
sg21
S'.400'
p796
sg25
S'NBA'
p797
sg27
S'0.5'
p798
sg29
S'4.6'
p799
sg31
S'6.9'
p800
sg33
S'2.6'
p801
sg35
S'9.6'
p802
sg37
S'27'
p803
sg39
S'KCK'
p804
sg41
S'63'
p805
sg43
S'1.3'
p806
sg45
S'2.3'
p807
sg47
S'1.1'
p808
sg49
S'4.6'
p809
sg51
S'5.9'
p810
sg53
S'1981-82'
p811
sg55
S'2.3'
p812
sg57
S'1.8'
p813
sg58
S'.500'
p814
sg60
S'1093'
p815
sg62
S'17'
p816
sba(isrc.gp1.models.Per36Minutes
Per36Minutes
p817
(dp818
g8
S'2.3'
p819
sg10
S'0.0'
p820
sg11
S'.667'
p821
sg13
S'0.0'
p822
sg15
g3
sg16
S'0.0'
p823
sg17
S'3.1'
p824
sg19
g20
sg21
S'.000'
p825
sg25
S'NBA'
p826
sg27
S'0.0'
p827
sg29
S'2.3'
p828
sg31
S'10.2'
p829
sg33
S'1.6'
p830
sg35
S'5.5'
p831
sg37
S'28'
p832
sg39
S'KCK'
p833
sg41
g216
sg43
S'2.3'
p834
sg45
S'1.6'
p835
sg47
S'0.0'
p836
sg49
S'2.3'
p837
sg51
S'3.1'
p838
sg53
S'1982-83'
p839
sg55
S'1.6'
p840
sg57
S'0.8'
p841
sg58
S'.667'
p842
sg60
S'46'
p843
sg62
g124
sbasS'_fromYear'
p844
S'1977'
p845
sS'_url'
p846
S'http://www.basketball-reference.com/players/d/douglle01.html'
p847
sS'_perGame'
p848
(isrc.gp1.models.PerGame
PerGame
p849
(dp850
g8
S'0.6'
p851
sg10
S'0.0'
p852
sg11
S'.667'
p853
sS'_effectiveFieldGalPercentage'
p854
S'.667'
p855
sg13
S'0.0'
p856
sg15
g3
sg16
S'0.0'
p857
sg17
S'0.8'
p858
sg19
g20
sg21
S'.000'
p859
sg25
S'NBA'
p860
sg27
S'0.0'
p861
sg31
S'2.6'
p862
sS'_fieldGoalsttempted'
p863
S'0.6'
p864
sg33
S'0.4'
p865
sg35
S'1.4'
p866
sg37
S'28'
p867
sg39
S'KCK'
p868
sg41
g216
sg43
S'0.6'
p869
sg45
S'0.4'
p870
sg47
S'0.0'
p871
sg49
S'0.6'
p872
sg51
S'0.8'
p873
sg53
S'1982-83'
p874
sg55
S'0.4'
p875
sg57
S'0.2'
p876
sg58
S'.667'
p877
sg60
S'9.2'
p878
sg62
g124
sbsS'_weight'
p879
S'230'
p880
sS'_dob'
p881
S'26-8-1954'
p882
sS'_salary'
p883
(lp884
sg19
S'C-F'
p885
sb.