(isrc.gp1.models.Player
Player
p0
(dp1
S'_experience'
p2
S'NA'
p3
sS'_totals'
p4
(lp5
(isrc.gp1.models.Totals
Totals
p6
(dp7
S'_offensiveRebounds'
p8
g3
sS'_threePointsAttempted'
p9
g3
sS'_fieldGoalsPercentage'
p10
S'.392'
p11
sS'_assist'
p12
S'14'
p13
sS'_threePointsPercentage'
p14
g3
sS'_threePoints'
p15
g3
sS'_points'
p16
S'83'
p17
sS'_position'
p18
S'SF'
p19
sS'_freeThrowsPercentage'
p20
S'.750'
p21
sS'_effectiveFieldGoalPercentage'
p22
S'.392'
p23
sS'_league'
p24
S'NBA'
p25
sS'_steals'
p26
g3
sS'_fieldGoalsAttempted'
p27
S'79'
p28
sS'_personalFouls'
p29
S'41'
p30
sS'_freeThrowsAttempted'
p31
S'28'
p32
sS'_totalRebounds'
p33
S'39'
p34
sS'_age'
p35
S'23'
p36
sS'_team'
p37
S'CIN'
p38
sS'_games'
p39
S'19'
p40
sS'_blocks'
p41
g3
sS'_twoPoints'
p42
S'31'
p43
sS'_freeThrows'
p44
S'21'
p45
sS'_twoPointsAttempted'
p46
S'79'
p47
sS'_defensiveRebounds'
p48
g3
sS'_season'
p49
S'1971-72'
p50
sS'_fieldGoals'
p51
S'31'
p52
sS'_turnOvers'
p53
g3
sS'_twoPointsPercentage'
p54
S'.392'
p55
sS'_minutesPlayed'
p56
S'233'
p57
sS'_gamesStarted'
p58
g3
sba(isrc.gp1.models.Totals
Totals
p59
(dp60
g8
g3
sg9
g3
sg10
S'.381'
p61
sg12
S'3'
p62
sg14
g3
sg15
g3
sg16
S'22'
p63
sg18
S'SF'
p64
sg20
S'.750'
p65
sg22
S'.381'
p66
sg24
S'NBA'
p67
sg26
g3
sg27
S'21'
p68
sg29
S'16'
p69
sg31
S'8'
p70
sg33
S'14'
p71
sg35
S'24'
p72
sg37
S'KCO'
p73
sg39
g70
sg41
g3
sg42
g70
sg44
S'6'
p74
sg46
S'21'
p75
sg48
g3
sg49
S'1972-73'
p76
sg51
g70
sg53
g3
sg54
S'.381'
p77
sg56
S'65'
p78
sg58
g3
sba(isrc.gp1.models.Totals
Totals
p79
(dp80
g8
S'28'
p81
sg9
g3
sg10
S'.489'
p82
sg12
S'19'
p83
sg14
g3
sg15
g3
sg16
S'214'
p84
sg18
S'SF'
p85
sg20
S'.609'
p86
sg22
S'.489'
p87
sg24
S'NBA'
p88
sg26
S'13'
p89
sg27
S'176'
p90
sg29
S'68'
p91
sg31
S'69'
p92
sg33
S'78'
p93
sg35
S'25'
p94
sg37
S'KCO'
p95
sg39
S'45'
p96
sg41
S'5'
p97
sg42
S'86'
p98
sg44
S'42'
p99
sg46
S'176'
p100
sg48
S'50'
p101
sg49
S'1973-74'
p102
sg51
S'86'
p103
sg53
g3
sg54
S'.489'
p104
sg56
S'462'
p105
sg58
g3
sba(isrc.gp1.models.Totals
Totals
p106
(dp107
g8
S'35'
p108
sg9
g3
sg10
S'.404'
p109
sg12
S'18'
p110
sg14
g3
sg15
g3
sg16
S'165'
p111
sg18
S'SF'
p112
sg20
S'.596'
p113
sg22
S'.404'
p114
sg24
S'NBA'
p115
sg26
S'9'
p116
sg27
S'166'
p117
sg29
S'72'
p118
sg31
S'52'
p119
sg33
S'102'
p120
sg35
S'26'
p121
sg37
S'TOT'
p122
sg39
S'48'
p123
sg41
g70
sg42
S'67'
p124
sg44
S'31'
p125
sg46
S'166'
p126
sg48
S'67'
p127
sg49
S'1974-75'
p128
sg51
S'67'
p129
sg53
g3
sg54
S'.404'
p130
sg56
S'445'
p131
sg58
g3
sba(isrc.gp1.models.Totals
Totals
p132
(dp133
g8
S'14'
p134
sg9
g3
sg10
S'.410'
p135
sg12
g70
sg14
g3
sg15
g3
sg16
S'75'
p136
sg18
S'SF'
p137
sg20
S'.550'
p138
sg22
S'.410'
p139
sg24
S'NBA'
p140
sg26
g97
sg27
S'78'
p141
sg29
S'30'
p142
sg31
S'20'
p143
sg33
S'40'
p144
sg35
S'26'
p145
sg37
S'KCO'
p146
sg39
S'21'
p147
sg41
S'4'
p148
sg42
S'32'
p149
sg44
S'11'
p150
sg46
S'78'
p151
sg48
S'26'
p152
sg49
S'1974-75'
p153
sg51
S'32'
p154
sg53
g3
sg54
S'.410'
p155
sg56
S'175'
p156
sg58
g3
sba(isrc.gp1.models.Totals
Totals
p157
(dp158
g8
S'21'
p159
sg9
g3
sg10
S'.398'
p160
sg12
S'10'
p161
sg14
g3
sg15
g3
sg16
S'90'
p162
sg18
S'SF'
p163
sg20
S'.625'
p164
sg22
S'.398'
p165
sg24
S'NBA'
p166
sg26
g148
sg27
S'88'
p167
sg29
S'42'
p168
sg31
S'32'
p169
sg33
S'62'
p170
sg35
S'26'
p171
sg37
S'PHI'
p172
sg39
S'27'
p173
sg41
g148
sg42
S'35'
p174
sg44
S'20'
p175
sg46
S'88'
p176
sg48
S'41'
p177
sg49
S'1974-75'
p178
sg51
S'35'
p179
sg53
g3
sg54
S'.398'
p180
sg56
S'270'
p181
sg58
g3
sbasS'_college'
p182
S'La Salle University'
p183
sS'_toYear'
p184
S'1975'
p185
sS'_height'
p186
S'6-7'
p187
sS'_active'
p188
I00
sS'_shootingHand'
p189
VRight
p190
sS'_name'
p191
S'Ken Durrett'
p192
sS'_per100Possessions'
p193
(lp194
(isrc.gp1.models.Per100Possession
Per100Possession
p195
(dp196
g8
S'2.7'
p197
sg9
g3
sg10
S'.489'
p198
sS'_offensiveRating'
p199
g3
sg12
S'1.9'
p200
sg14
g3
sg15
g3
sg16
S'21.0'
p201
sg18
S'SF'
p202
sS'_defensiveRating'
p203
S'102'
p204
sg20
S'.609'
p205
sg24
S'NBA'
p206
sg26
S'1.3'
p207
sg27
S'17.2'
p208
sg29
S'6.7'
p209
sg31
S'6.8'
p210
sg33
S'7.6'
p211
sg35
S'25'
p212
sg37
S'KCO'
p213
sg39
S'45'
p214
sg41
S'0.5'
p215
sg42
S'8.4'
p216
sg44
S'4.1'
p217
sg46
S'17.2'
p218
sg48
S'4.9'
p219
sg49
S'1973-74'
p220
sg51
S'8.4'
p221
sg53
g3
sg54
S'.489'
p222
sg56
S'462'
p223
sg58
g3
sba(isrc.gp1.models.Per100Possession
Per100Possession
p224
(dp225
g8
S'3.6'
p226
sg9
g3
sg10
S'.404'
p227
sg199
g3
sg12
S'1.9'
p228
sg14
g3
sg15
g3
sg16
S'17.1'
p229
sg18
S'SF'
p230
sg203
S'99'
p231
sg20
S'.596'
p232
sg24
S'NBA'
p233
sg26
S'0.9'
p234
sg27
S'17.2'
p235
sg29
S'7.5'
p236
sg31
S'5.4'
p237
sg33
S'10.6'
p238
sg35
S'26'
p239
sg37
S'TOT'
p240
sg39
S'48'
p241
sg41
S'0.8'
p242
sg42
S'7.0'
p243
sg44
S'3.2'
p244
sg46
S'17.2'
p245
sg48
S'7.0'
p246
sg49
S'1974-75'
p247
sg51
S'7.0'
p248
sg53
g3
sg54
S'.404'
p249
sg56
S'445'
p250
sg58
g3
sba(isrc.gp1.models.Per100Possession
Per100Possession
p251
(dp252
g8
S'3.7'
p253
sg9
g3
sg10
S'.410'
p254
sg199
g3
sg12
S'2.1'
p255
sg14
g3
sg15
g3
sg16
S'19.7'
p256
sg18
S'SF'
p257
sg203
S'97'
p258
sg20
S'.550'
p259
sg24
S'NBA'
p260
sg26
S'1.3'
p261
sg27
S'20.5'
p262
sg29
S'7.9'
p263
sg31
S'5.3'
p264
sg33
S'10.5'
p265
sg35
S'26'
p266
sg37
S'KCO'
p267
sg39
S'21'
p268
sg41
S'1.1'
p269
sg42
S'8.4'
p270
sg44
S'2.9'
p271
sg46
S'20.5'
p272
sg48
S'6.8'
p273
sg49
S'1974-75'
p274
sg51
S'8.4'
p275
sg53
g3
sg54
S'.410'
p276
sg56
S'175'
p277
sg58
g3
sba(isrc.gp1.models.Per100Possession
Per100Possession
p278
(dp279
g8
S'3.6'
p280
sg9
g3
sg10
S'.398'
p281
sg199
g3
sg12
S'1.7'
p282
sg14
g3
sg15
g3
sg16
S'15.5'
p283
sg18
S'SF'
p284
sg203
S'99'
p285
sg20
S'.625'
p286
sg24
S'NBA'
p287
sg26
S'0.7'
p288
sg27
S'15.1'
p289
sg29
S'7.2'
p290
sg31
S'5.5'
p291
sg33
S'10.7'
p292
sg35
S'26'
p293
sg37
S'PHI'
p294
sg39
S'27'
p295
sg41
S'0.7'
p296
sg42
S'6.0'
p297
sg44
S'3.4'
p298
sg46
S'15.1'
p299
sg48
S'7.0'
p300
sg49
S'1974-75'
p301
sg51
S'6.0'
p302
sg53
g3
sg54
S'.398'
p303
sg56
S'270'
p304
sg58
g3
sbasS'_advanced'
p305
(lp306
(isrc.gp1.models.Advanced
Advanced
p307
(dp308
S'_offensiveReboundPercentage'
p309
g3
sS'_turnOverPercentage'
p310
g3
sS'_winSharesPer48Minutes'
p311
S'.002'
p312
sS'_stealPercentage'
p313
g3
sS'_usagePercentage'
p314
g3
sS'_totalReboundsPercentage'
p315
S'8.3'
p316
sS'_defensiveBoxPlusMinus'
p317
g3
sg18
S'SF'
p318
sS'_valueOverReplacementPlayer'
p319
g3
sS'_trueShootingPercentage'
p320
S'.454'
p321
sS'_defensiveReboundPercentage'
p322
g3
sS'_freeThrowsAttempRate'
p323
S'.354'
p324
sS'_threePointsAttempRate'
p325
g3
sg24
S'NBA'
p326
sS'_offensiveBoxPlusMinues'
p327
g3
sS'_assistPercentage'
p328
S'8.1'
p329
sS'_defensiveWinShares'
p330
S'0.1'
p331
sg35
S'23'
p332
sg37
S'CIN'
p333
sg39
S'19'
p334
sS'_blockPercentage'
p335
g3
sS'_playerEfficiencyRating'
p336
S'8.1'
p337
sS'_offensiveWinShares'
p338
S'-0.1'
p339
sg56
S'233'
p340
sS'_boxPlusMinus'
p341
g3
sg49
S'1971-72'
p342
sS'_winShares'
p343
S'0.0'
p344
sba(isrc.gp1.models.Advanced
Advanced
p345
(dp346
g309
g3
sg310
g3
sg311
S'-0.008'
p347
sg313
g3
sg314
g3
sg315
S'11.2'
p348
sg317
g3
sg18
S'SF'
p349
sg319
g3
sg320
S'.449'
p350
sg322
g3
sg323
S'.381'
p351
sg325
g3
sg24
S'NBA'
p352
sg327
g3
sg328
S'5.8'
p353
sg330
S'0.0'
p354
sg35
S'24'
p355
sg37
S'KCO'
p356
sg39
g70
sg335
g3
sg336
S'7.4'
p357
sg338
S'0.0'
p358
sg56
S'65'
p359
sg341
g3
sg49
S'1972-73'
p360
sg343
S'0.0'
p361
sba(isrc.gp1.models.Advanced
Advanced
p362
(dp363
g309
S'6.3'
p364
sg310
g3
sg311
S'.052'
p365
sg313
S'1.3'
p366
sg314
g3
sg315
S'8.8'
p367
sg317
S'-2.8'
p368
sg18
S'SF'
p369
sg319
S'-0.3'
p370
sg320
S'.519'
p371
sg322
S'11.3'
p372
sg323
S'.392'
p373
sg325
g3
sg24
S'NBA'
p374
sg327
S'-1.9'
p375
sg328
S'6.1'
p376
sg330
S'0.2'
p377
sg35
S'25'
p378
sg37
S'KCO'
p379
sg39
S'45'
p380
sg335
S'0.6'
p381
sg336
S'13.0'
p382
sg338
S'0.3'
p383
sg56
S'462'
p384
sg341
S'-4.7'
p385
sg49
S'1973-74'
p386
sg343
S'0.5'
p387
sba(isrc.gp1.models.Advanced
Advanced
p388
(dp389
g309
S'8.0'
p390
sg310
g3
sg311
S'.013'
p391
sg313
S'0.9'
p392
sg314
g3
sg315
S'11.7'
p393
sg317
S'-2.2'
p394
sg18
S'SF'
p395
sg319
S'-0.5'
p396
sg320
S'.437'
p397
sg322
S'15.5'
p398
sg323
S'.313'
p399
sg325
g3
sg24
S'NBA'
p400
sg327
S'-4.5'
p401
sg328
S'6.0'
p402
sg330
S'0.4'
p403
sg35
S'26'
p404
sg37
S'TOT'
p405
sg39
S'48'
p406
sg335
S'1.0'
p407
sg336
S'10.1'
p408
sg338
S'-0.3'
p409
sg56
S'445'
p410
sg341
S'-6.8'
p411
sg49
S'1974-75'
p412
sg343
S'0.1'
p413
sba(isrc.gp1.models.Advanced
Advanced
p414
(dp415
g309
S'8.3'
p416
sg310
g3
sg311
S'.010'
p417
sg313
S'1.3'
p418
sg314
g3
sg315
S'11.9'
p419
sg317
S'-2.4'
p420
sg18
S'SF'
p421
sg319
S'-0.2'
p422
sg320
S'.432'
p423
sg322
S'15.4'
p424
sg323
S'.256'
p425
sg325
g3
sg24
S'NBA'
p426
sg327
S'-4.3'
p427
sg328
S'7.1'
p428
sg330
S'0.2'
p429
sg35
S'26'
p430
sg37
S'KCO'
p431
sg39
S'21'
p432
sg335
S'1.2'
p433
sg336
S'11.2'
p434
sg338
S'-0.2'
p435
sg56
S'175'
p436
sg341
S'-6.7'
p437
sg49
S'1974-75'
p438
sg343
S'0.0'
p439
sba(isrc.gp1.models.Advanced
Advanced
p440
(dp441
g309
S'7.8'
p442
sg310
g3
sg311
S'.015'
p443
sg313
S'0.7'
p444
sg314
g3
sg315
S'11.6'
p445
sg317
S'-2.1'
p446
sg18
S'SF'
p447
sg319
S'-0.3'
p448
sg320
S'.441'
p449
sg322
S'15.5'
p450
sg323
S'.364'
p451
sg325
g3
sg24
S'NBA'
p452
sg327
S'-4.7'
p453
sg328
S'5.2'
p454
sg330
S'0.2'
p455
sg35
S'26'
p456
sg37
S'PHI'
p457
sg39
S'27'
p458
sg335
S'0.8'
p459
sg336
S'9.4'
p460
sg338
S'-0.1'
p461
sg56
S'270'
p462
sg341
S'-6.8'
p463
sg49
S'1974-75'
p464
sg343
S'0.1'
p465
sbasS'_per36Minutes'
p466
(lp467
(isrc.gp1.models.Per36Minutes
Per36Minutes
p468
(dp469
g8
g3
sg9
g3
sg10
S'.392'
p470
sg12
S'2.2'
p471
sg14
g3
sg15
g3
sg16
S'12.8'
p472
sg18
S'SF'
p473
sg20
S'.750'
p474
sg24
S'NBA'
p475
sg26
g3
sg27
S'12.2'
p476
sg29
S'6.3'
p477
sg31
S'4.3'
p478
sg33
S'6.0'
p479
sg35
S'23'
p480
sg37
S'CIN'
p481
sg39
S'19'
p482
sg41
g3
sg42
S'4.8'
p483
sg44
S'3.2'
p484
sg46
S'12.2'
p485
sg48
g3
sg49
S'1971-72'
p486
sg51
S'4.8'
p487
sg53
g3
sg54
S'.392'
p488
sg56
S'233'
p489
sg58
g3
sba(isrc.gp1.models.Per36Minutes
Per36Minutes
p490
(dp491
g8
g3
sg9
g3
sg10
S'.381'
p492
sg12
S'1.7'
p493
sg14
g3
sg15
g3
sg16
S'12.2'
p494
sg18
S'SF'
p495
sg20
S'.750'
p496
sg24
S'NBA'
p497
sg26
g3
sg27
S'11.6'
p498
sg29
S'8.9'
p499
sg31
S'4.4'
p500
sg33
S'7.8'
p501
sg35
S'24'
p502
sg37
S'KCO'
p503
sg39
g70
sg41
g3
sg42
S'4.4'
p504
sg44
S'3.3'
p505
sg46
S'11.6'
p506
sg48
g3
sg49
S'1972-73'
p507
sg51
S'4.4'
p508
sg53
g3
sg54
S'.381'
p509
sg56
S'65'
p510
sg58
g3
sba(isrc.gp1.models.Per36Minutes
Per36Minutes
p511
(dp512
g8
S'2.2'
p513
sg9
g3
sg10
S'.489'
p514
sg12
S'1.5'
p515
sg14
g3
sg15
g3
sg16
S'16.7'
p516
sg18
S'SF'
p517
sg20
S'.609'
p518
sg24
S'NBA'
p519
sg26
S'1.0'
p520
sg27
S'13.7'
p521
sg29
S'5.3'
p522
sg31
S'5.4'
p523
sg33
S'6.1'
p524
sg35
S'25'
p525
sg37
S'KCO'
p526
sg39
S'45'
p527
sg41
S'0.4'
p528
sg42
S'6.7'
p529
sg44
S'3.3'
p530
sg46
S'13.7'
p531
sg48
S'3.9'
p532
sg49
S'1973-74'
p533
sg51
S'6.7'
p534
sg53
g3
sg54
S'.489'
p535
sg56
S'462'
p536
sg58
g3
sba(isrc.gp1.models.Per36Minutes
Per36Minutes
p537
(dp538
g8
S'2.8'
p539
sg9
g3
sg10
S'.404'
p540
sg12
S'1.5'
p541
sg14
g3
sg15
g3
sg16
S'13.3'
p542
sg18
S'SF'
p543
sg20
S'.596'
p544
sg24
S'NBA'
p545
sg26
S'0.7'
p546
sg27
S'13.4'
p547
sg29
S'5.8'
p548
sg31
S'4.2'
p549
sg33
S'8.3'
p550
sg35
S'26'
p551
sg37
S'TOT'
p552
sg39
S'48'
p553
sg41
S'0.6'
p554
sg42
S'5.4'
p555
sg44
S'2.5'
p556
sg46
S'13.4'
p557
sg48
S'5.4'
p558
sg49
S'1974-75'
p559
sg51
S'5.4'
p560
sg53
g3
sg54
S'.404'
p561
sg56
S'445'
p562
sg58
g3
sba(isrc.gp1.models.Per36Minutes
Per36Minutes
p563
(dp564
g8
S'2.9'
p565
sg9
g3
sg10
S'.410'
p566
sg12
S'1.6'
p567
sg14
g3
sg15
g3
sg16
S'15.4'
p568
sg18
S'SF'
p569
sg20
S'.550'
p570
sg24
S'NBA'
p571
sg26
S'1.0'
p572
sg27
S'16.0'
p573
sg29
S'6.2'
p574
sg31
S'4.1'
p575
sg33
S'8.2'
p576
sg35
S'26'
p577
sg37
S'KCO'
p578
sg39
S'21'
p579
sg41
S'0.8'
p580
sg42
S'6.6'
p581
sg44
S'2.3'
p582
sg46
S'16.0'
p583
sg48
S'5.3'
p584
sg49
S'1974-75'
p585
sg51
S'6.6'
p586
sg53
g3
sg54
S'.410'
p587
sg56
S'175'
p588
sg58
g3
sba(isrc.gp1.models.Per36Minutes
Per36Minutes
p589
(dp590
g8
S'2.8'
p591
sg9
g3
sg10
S'.398'
p592
sg12
S'1.3'
p593
sg14
g3
sg15
g3
sg16
S'12.0'
p594
sg18
S'SF'
p595
sg20
S'.625'
p596
sg24
S'NBA'
p597
sg26
S'0.5'
p598
sg27
S'11.7'
p599
sg29
S'5.6'
p600
sg31
S'4.3'
p601
sg33
S'8.3'
p602
sg35
S'26'
p603
sg37
S'PHI'
p604
sg39
S'27'
p605
sg41
S'0.5'
p606
sg42
S'4.7'
p607
sg44
S'2.7'
p608
sg46
S'11.7'
p609
sg48
S'5.5'
p610
sg49
S'1974-75'
p611
sg51
S'4.7'
p612
sg53
g3
sg54
S'.398'
p613
sg56
S'270'
p614
sg58
g3
sbasS'_fromYear'
p615
S'1972'
p616
sS'_url'
p617
S'http://www.basketball-reference.com/players/d/durreke01.html'
p618
sS'_perGame'
p619
(isrc.gp1.models.PerGame
PerGame
p620
(dp621
g8
S'0.8'
p622
sg9
g3
sg10
S'.398'
p623
sS'_effectiveFieldGalPercentage'
p624
S'.398'
p625
sg12
S'0.4'
p626
sg14
g3
sg15
g3
sg16
S'3.3'
p627
sg18
S'SF'
p628
sg20
S'.625'
p629
sg24
S'NBA'
p630
sg26
S'0.1'
p631
sg29
S'1.6'
p632
sS'_fieldGoalsttempted'
p633
S'3.3'
p634
sg31
S'1.2'
p635
sg33
S'2.3'
p636
sg35
S'26'
p637
sg37
S'PHI'
p638
sg39
S'27'
p639
sg41
S'0.1'
p640
sg42
S'1.3'
p641
sg44
S'0.7'
p642
sg46
S'3.3'
p643
sg48
S'1.5'
p644
sg49
S'1974-75'
p645
sg51
S'1.3'
p646
sg53
g3
sg54
S'.398'
p647
sg56
S'10.0'
p648
sg58
g3
sbsS'_weight'
p649
S'190'
p650
sS'_dob'
p651
S'8-12-1948'
p652
sS'_salary'
p653
(lp654
sg18
S'F'
p655
sb.