(isrc.gp1.models.Player
Player
p0
(dp1
S'_experience'
p2
V11
p3
sS'_totals'
p4
(lp5
(isrc.gp1.models.Totals
Totals
p6
(dp7
S'_offensiveRebounds'
p8
S'287'
p9
sS'_threePointsAttempted'
p10
S'2'
p11
sS'_fieldGoalsPercentage'
p12
S'.520'
p13
sS'_assist'
p14
S'75'
p15
sS'_threePointsPercentage'
p16
S'.000'
p17
sS'_threePoints'
p18
S'0'
p19
sS'_points'
p20
S'981'
p21
sS'_position'
p22
S'PF'
p23
sS'_freeThrowsPercentage'
p24
S'.671'
p25
sS'_effectiveFieldGoalPercentage'
p26
S'.520'
p27
sS'_league'
p28
S'NBA'
p29
sS'_steals'
p30
S'77'
p31
sS'_fieldGoalsAttempted'
p32
S'677'
p33
sS'_personalFouls'
p34
S'232'
p35
sS'_freeThrowsAttempted'
p36
S'413'
p37
sS'_totalRebounds'
p38
S'823'
p39
sS'_age'
p40
S'19'
p41
sS'_team'
p42
S'ORL'
p43
sS'_games'
p44
S'82'
p45
sS'_blocks'
p46
S'136'
p47
sS'_twoPoints'
p48
S'352'
p49
sS'_freeThrows'
p50
S'277'
p51
sS'_twoPointsAttempted'
p52
S'675'
p53
sS'_defensiveRebounds'
p54
S'536'
p55
sS'_season'
p56
S'2004-05'
p57
sS'_fieldGoals'
p58
S'352'
p59
sS'_turnOvers'
p60
S'165'
p61
sS'_twoPointsPercentage'
p62
S'.521'
p63
sS'_minutesPlayed'
p64
S'2670'
p65
sS'_gamesStarted'
p66
S'82'
p67
sba(isrc.gp1.models.Totals
Totals
p68
(dp69
g8
S'288'
p70
sg10
g11
sg12
S'.531'
p71
sg14
S'125'
p72
sg16
S'.000'
p73
sg18
g19
sg20
S'1292'
p74
sg22
S'PF'
p75
sg24
S'.595'
p76
sg26
S'.531'
p77
sg28
S'NBA'
p78
sg30
S'65'
p79
sg32
S'881'
p80
sg34
S'277'
p81
sg36
S'598'
p82
sg38
S'1022'
p83
sg40
S'20'
p84
sg42
S'ORL'
p85
sg44
S'82'
p86
sg46
S'115'
p87
sg48
S'468'
p88
sg50
S'356'
p89
sg52
S'879'
p90
sg54
S'734'
p91
sg56
S'2005-06'
p92
sg58
S'468'
p93
sg60
S'217'
p94
sg62
S'.532'
p95
sg64
S'3021'
p96
sg66
S'81'
p97
sba(isrc.gp1.models.Totals
Totals
p98
(dp99
g8
S'725'
p100
sg10
S'.500'
p101
sg12
S'1'
p102
sg14
S'70'
p103
sg16
S'525'
p104
sg18
g11
sg20
S'NA'
p105
sg22
S'82'
p106
sg24
S'283'
p107
sg26
S'390'
p108
sg28
S'C'
p109
sg30
S'156'
p110
sg32
S'.603'
p111
sg34
S'1443'
p112
sg36
S'.586'
p113
sg38
S'158'
p114
sg40
S'ORL'
p115
sg42
S'NBA'
p116
sg44
S'82'
p117
sg46
S'317'
p118
sg48
S'871'
p119
sg50
S'666'
p120
sg52
S'.603'
p121
sg54
S'1008'
p122
sg56
S'21'
p123
sg58
S'873'
p124
sg60
S'245'
p125
sg62
S'.603'
p126
sg64
S'526'
p127
sg66
S'3023'
p128
sba(isrc.gp1.models.Totals
Totals
p129
(dp130
g8
S'882'
p131
sg10
S'.000'
p132
sg12
g19
sg14
S'74'
p133
sg16
S'583'
p134
sg18
S'4'
p135
sg20
g105
sg22
S'82'
p136
sg24
S'279'
p137
sg26
S'529'
p138
sg28
g109
sg30
S'176'
p139
sg32
S'.599'
p140
sg34
S'1695'
p141
sg36
S'.590'
p142
sg38
S'110'
p143
sg40
S'ORL'
p144
sg42
S'NBA'
p145
sg44
S'82'
p146
sg46
S'263'
p147
sg48
S'970'
p148
sg50
S'897'
p149
sg52
S'.601'
p150
sg54
S'1161'
p151
sg56
S'22'
p152
sg58
S'974'
p153
sg60
S'274'
p154
sg62
S'.599'
p155
sg64
S'583'
p156
sg66
S'3088'
p157
sba(isrc.gp1.models.Totals
Totals
p158
(dp159
g8
S'757'
p160
sg10
S'.000'
p161
sg12
g19
sg14
S'77'
p162
sg16
S'560'
p163
sg18
g11
sg20
g105
sg22
S'79'
p164
sg24
S'336'
p165
sg26
S'504'
p166
sg28
g109
sg30
S'231'
p167
sg32
S'.572'
p168
sg34
S'1624'
p169
sg36
S'.594'
p170
sg38
S'112'
p171
sg40
S'ORL'
p172
sg42
S'NBA'
p173
sg44
S'79'
p174
sg46
S'240'
p175
sg48
S'977'
p176
sg50
S'849'
p177
sg52
S'.573'
p178
sg54
S'1093'
p179
sg56
S'23'
p180
sg58
S'979'
p181
sg60
S'270'
p182
sg62
S'.572'
p183
sg64
S'560'
p184
sg66
S'2821'
p185
sba(isrc.gp1.models.Totals
Totals
p186
(dp187
g8
S'798'
p188
sg10
S'.000'
p189
sg12
g19
sg14
S'75'
p190
sg16
S'510'
p191
sg18
S'7'
p192
sg20
g105
sg22
S'82'
p193
sg24
S'284'
p194
sg26
S'483'
p195
sg28
g109
sg30
S'228'
p196
sg32
S'.612'
p197
sg34
S'1503'
p198
sg36
S'.592'
p199
sg38
S'144'
p200
sg40
S'ORL'
p201
sg42
S'NBA'
p202
sg44
S'82'
p203
sg46
S'274'
p204
sg48
S'827'
p205
sg50
S'816'
p206
sg52
S'.617'
p207
sg54
S'1082'
p208
sg56
S'24'
p209
sg58
S'834'
p210
sg60
S'287'
p211
sg62
S'.612'
p212
sg64
S'510'
p213
sg66
S'2843'
p214
sba(isrc.gp1.models.Totals
Totals
p215
(dp216
g8
S'789'
p217
sg10
S'.000'
p218
sg12
g19
sg14
S'107'
p219
sg16
S'619'
p220
sg18
g192
sg20
g105
sg22
S'78'
p221
sg24
S'309'
p222
sg26
S'546'
p223
sg28
g109
sg30
S'186'
p224
sg32
S'.593'
p225
sg34
S'1784'
p226
sg36
S'.596'
p227
sg38
S'107'
p228
sg40
S'ORL'
p229
sg42
S'NBA'
p230
sg44
S'78'
p231
sg46
S'279'
p232
sg48
S'1037'
p233
sg50
S'916'
p234
sg52
S'.597'
p235
sg54
S'1098'
p236
sg56
S'25'
p237
sg58
S'1044'
p238
sg60
S'258'
p239
sg62
S'.593'
p240
sg64
S'619'
p241
sg66
S'2935'
p242
sba(isrc.gp1.models.Totals
Totals
p243
(dp244
g8
S'585'
p245
sg10
S'.000'
p246
sg12
g19
sg14
S'81'
p247
sg16
S'416'
p248
sg18
g192
sg20
g105
sg22
S'54'
p249
sg24
S'200'
p250
sg26
S'281'
p251
sg28
g109
sg30
S'116'
p252
sg32
S'.573'
p253
sg34
S'1113'
p254
sg36
S'.491'
p255
sg38
S'104'
p256
sg40
S'ORL'
p257
sg42
S'NBA'
p258
sg44
S'54'
p259
sg46
S'175'
p260
sg48
S'719'
p261
sg50
S'572'
p262
sg52
S'.579'
p263
sg54
S'785'
p264
sg56
S'26'
p265
sg58
S'726'
p266
sg60
S'159'
p267
sg62
S'.573'
p268
sg64
S'416'
p269
sg66
S'2070'
p270
sba(isrc.gp1.models.Totals
Totals
p271
(dp272
g8
S'694'
p273
sg10
S'.167'
p274
sg12
g102
sg14
S'84'
p275
sg16
S'469'
p276
sg18
S'6'
p277
sg20
g105
sg22
S'76'
p278
sg24
S'251'
p279
sg26
S'355'
p280
sg28
g109
sg30
S'186'
p281
sg32
S'.578'
p282
sg34
S'1296'
p283
sg36
S'.492'
p284
sg38
S'108'
p285
sg40
S'LAL'
p286
sg42
S'NBA'
p287
sg44
S'76'
p288
sg46
S'225'
p289
sg48
S'807'
p290
sg50
S'721'
p291
sg52
S'.581'
p292
sg54
S'945'
p293
sg56
S'27'
p294
sg58
S'813'
p295
sg60
S'291'
p296
sg62
S'.579'
p297
sg64
S'470'
p298
sg66
S'2722'
p299
sba(isrc.gp1.models.Totals
Totals
p300
(dp301
g8
S'635'
p302
sg10
S'.286'
p303
sg12
g11
sg14
S'60'
p304
sg16
S'471'
p305
sg18
g192
sg20
g105
sg22
S'71'
p306
sg24
S'231'
p307
sg26
S'349'
p308
sg28
g109
sg30
S'128'
p309
sg32
S'.591'
p310
sg34
S'1297'
p311
sg36
S'.547'
p312
sg38
S'131'
p313
sg40
S'HOU'
p314
sg42
S'NBA'
p315
sg44
S'71'
p316
sg46
S'229'
p317
sg48
S'793'
p318
sg50
S'638'
p319
sg52
S'.594'
p320
sg54
S'866'
p321
sg56
S'28'
p322
sg58
S'800'
p323
sg60
S'240'
p324
sg62
S'.593'
p325
sg64
S'473'
p326
sg66
S'2396'
p327
sba(isrc.gp1.models.Totals
Totals
p328
(dp329
g8
S'110'
p330
sg10
g11
sg12
S'.593'
p331
sg14
S'50'
p332
sg16
S'.500'
p333
sg18
g102
sg20
S'646'
p334
sg22
g109
sg24
S'.528'
p335
sg26
S'.595'
p336
sg28
S'NBA'
p337
sg30
S'28'
p338
sg32
S'423'
p339
sg34
S'137'
p340
sg36
S'271'
p341
sg38
S'431'
p342
sg40
S'29'
p343
sg42
S'HOU'
p344
sg44
S'41'
p345
sg46
S'53'
p346
sg48
S'250'
p347
sg50
S'143'
p348
sg52
S'421'
p349
sg54
S'321'
p350
sg56
S'2014-15'
p351
sg58
S'251'
p352
sg60
S'115'
p353
sg62
S'.594'
p354
sg64
S'1223'
p355
sg66
S'41'
p356
sba(isrc.gp1.models.Totals
Totals
p357
(dp358
g8
S'146'
p359
sg10
g11
sg12
S'.606'
p360
sg14
S'59'
p361
sg16
S'.000'
p362
sg18
g19
sg20
S'580'
p363
sg22
g109
sg24
S'.547'
p364
sg26
S'.606'
p365
sg28
S'NBA'
p366
sg30
S'41'
p367
sg32
S'348'
p368
sg34
S'126'
p369
sg36
S'289'
p370
sg38
S'486'
p371
sg40
S'30'
p372
sg42
S'HOU'
p373
sg44
S'41'
p374
sg46
S'63'
p375
sg48
S'211'
p376
sg50
S'158'
p377
sg52
S'346'
p378
sg54
S'340'
p379
sg56
S'2015-16'
p380
sg58
S'211'
p381
sg60
S'99'
p382
sg62
S'.610'
p383
sg64
S'1309'
p384
sg66
S'41'
p385
sbasS'_college'
p386
S'NA'
p387
sS'_toYear'
p388
S'2016'
p389
sS'_height'
p390
S'6-11'
p391
sS'_active'
p392
I01
sS'_shootingHand'
p393
VRight
p394
sS'_name'
p395
S'Dwight Howard'
p396
sS'_per100Possessions'
p397
(lp398
(isrc.gp1.models.Per100Possession
Per100Possession
p399
(dp400
g8
S'5.4'
p401
sg10
S'0.0'
p402
sg12
S'.520'
p403
sS'_offensiveRating'
p404
S'111'
p405
sg14
S'1.4'
p406
sg16
S'.000'
p407
sg18
S'0.0'
p408
sg20
S'18.6'
p409
sg22
S'PF'
p410
sS'_defensiveRating'
p411
S'104'
p412
sg24
S'.671'
p413
sg28
S'NBA'
p414
sg30
S'1.5'
p415
sg32
S'12.8'
p416
sg34
S'4.4'
p417
sg36
S'7.8'
p418
sg38
S'15.6'
p419
sg40
S'19'
p420
sg42
S'ORL'
p421
sg44
S'82'
p422
sg46
S'2.6'
p423
sg48
S'6.7'
p424
sg50
S'5.3'
p425
sg52
S'12.8'
p426
sg54
S'10.2'
p427
sg56
S'2004-05'
p428
sg58
S'6.7'
p429
sg60
S'3.1'
p430
sg62
S'.521'
p431
sg64
S'2670'
p432
sg66
S'82'
p433
sba(isrc.gp1.models.Per100Possession
Per100Possession
p434
(dp435
g8
S'5.2'
p436
sg10
S'0.0'
p437
sg12
S'.531'
p438
sg404
S'108'
p439
sg14
S'2.2'
p440
sg16
S'.000'
p441
sg18
S'0.0'
p442
sg20
S'23.2'
p443
sg22
S'PF'
p444
sg411
S'103'
p445
sg24
S'.595'
p446
sg28
S'NBA'
p447
sg30
S'1.2'
p448
sg32
S'15.9'
p449
sg34
S'5.0'
p450
sg36
S'10.8'
p451
sg38
S'18.4'
p452
sg40
S'20'
p453
sg42
S'ORL'
p454
sg44
S'82'
p455
sg46
S'2.1'
p456
sg48
S'8.4'
p457
sg50
S'6.4'
p458
sg52
S'15.8'
p459
sg54
S'13.2'
p460
sg56
S'2005-06'
p461
sg58
S'8.4'
p462
sg60
S'3.9'
p463
sg62
S'.532'
p464
sg64
S'3021'
p465
sg66
S'81'
p466
sba(isrc.gp1.models.Per100Possession
Per100Possession
p467
(dp468
g8
S'12.8'
p469
sg10
S'.500'
p470
sg12
S'0.0'
p471
sg404
S'99'
p472
sg14
S'1.2'
p473
sg16
S'9.3'
p474
sg18
S'0.0'
p475
sg20
S'107'
p476
sg22
S'82'
p477
sg411
g105
sg24
S'5.0'
p478
sg28
g109
sg30
S'2.8'
p479
sg32
S'.603'
p480
sg34
S'25.5'
p481
sg36
S'.586'
p482
sg38
S'2.8'
p483
sg40
S'ORL'
p484
sg42
S'NBA'
p485
sg44
S'82'
p486
sg46
S'5.6'
p487
sg48
S'15.4'
p488
sg50
S'11.8'
p489
sg52
S'.603'
p490
sg54
S'17.8'
p491
sg56
S'21'
p492
sg58
S'15.4'
p493
sg60
S'4.3'
p494
sg62
S'6.9'
p495
sg64
S'9.3'
p496
sg66
S'3023'
p497
sba(isrc.gp1.models.Per100Possession
Per100Possession
p498
(dp499
g8
S'14.7'
p500
sg10
S'.000'
p501
sg12
S'0.0'
p502
sg404
S'99'
p503
sg14
S'1.2'
p504
sg16
S'9.7'
p505
sg18
S'0.1'
p506
sg20
S'113'
p507
sg22
S'82'
p508
sg411
g105
sg24
S'4.6'
p509
sg28
g109
sg30
S'2.9'
p510
sg32
S'.599'
p511
sg34
S'28.2'
p512
sg36
S'.590'
p513
sg38
S'1.8'
p514
sg40
S'ORL'
p515
sg42
S'NBA'
p516
sg44
S'82'
p517
sg46
S'4.4'
p518
sg48
S'16.1'
p519
sg50
S'14.9'
p520
sg52
S'.601'
p521
sg54
S'19.3'
p522
sg56
S'22'
p523
sg58
S'16.2'
p524
sg60
S'4.6'
p525
sg62
S'8.8'
p526
sg64
S'9.7'
p527
sg66
S'3088'
p528
sba(isrc.gp1.models.Per100Possession
Per100Possession
p529
(dp530
g8
S'13.9'
p531
sg10
S'.000'
p532
sg12
S'0.0'
p533
sg404
S'95'
p534
sg14
S'1.4'
p535
sg16
S'10.3'
p536
sg18
S'0.0'
p537
sg20
S'113'
p538
sg22
S'79'
p539
sg411
g105
sg24
S'6.2'
p540
sg28
g109
sg30
S'4.3'
p541
sg32
S'.572'
p542
sg34
S'29.9'
p543
sg36
S'.594'
p544
sg38
S'2.1'
p545
sg40
S'ORL'
p546
sg42
S'NBA'
p547
sg44
S'79'
p548
sg46
S'4.4'
p549
sg48
S'18.0'
p550
sg50
S'15.6'
p551
sg52
S'.573'
p552
sg54
S'20.1'
p553
sg56
S'23'
p554
sg58
S'18.0'
p555
sg60
S'5.0'
p556
sg62
S'9.3'
p557
sg64
S'10.3'
p558
sg66
S'2821'
p559
sba(isrc.gp1.models.Per100Possession
Per100Possession
p560
(dp561
g8
S'14.6'
p562
sg10
S'.000'
p563
sg12
S'0.0'
p564
sg404
S'95'
p565
sg14
S'1.4'
p566
sg16
S'9.4'
p567
sg18
S'0.1'
p568
sg20
S'113'
p569
sg22
S'82'
p570
sg411
g105
sg24
S'5.2'
p571
sg28
g109
sg30
S'4.2'
p572
sg32
S'.612'
p573
sg34
S'27.6'
p574
sg36
S'.592'
p575
sg38
S'2.6'
p576
sg40
S'ORL'
p577
sg42
S'NBA'
p578
sg44
S'82'
p579
sg46
S'5.0'
p580
sg48
S'15.2'
p581
sg50
S'15.0'
p582
sg52
S'.617'
p583
sg54
S'19.8'
p584
sg56
S'24'
p585
sg58
S'15.3'
p586
sg60
S'5.3'
p587
sg62
S'8.9'
p588
sg64
S'9.4'
p589
sg66
S'2843'
p590
sba(isrc.gp1.models.Per100Possession
Per100Possession
p591
(dp592
g8
S'14.1'
p593
sg10
S'.000'
p594
sg12
S'0.0'
p595
sg404
S'94'
p596
sg14
S'1.9'
p597
sg16
S'11.1'
p598
sg18
S'0.1'
p599
sg20
S'113'
p600
sg22
S'78'
p601
sg411
g105
sg24
S'5.5'
p602
sg28
g109
sg30
S'3.3'
p603
sg32
S'.593'
p604
sg34
S'32.0'
p605
sg36
S'.596'
p606
sg38
S'1.9'
p607
sg40
S'ORL'
p608
sg42
S'NBA'
p609
sg44
S'78'
p610
sg46
S'5.0'
p611
sg48
S'18.6'
p612
sg50
S'16.4'
p613
sg52
S'.597'
p614
sg54
S'19.7'
p615
sg56
S'25'
p616
sg58
S'18.7'
p617
sg60
S'4.6'
p618
sg62
S'9.8'
p619
sg64
S'11.1'
p620
sg66
S'2935'
p621
sba(isrc.gp1.models.Per100Possession
Per100Possession
p622
(dp623
g8
S'15.2'
p624
sg10
S'.000'
p625
sg12
S'0.0'
p626
sg404
S'96'
p627
sg14
S'2.1'
p628
sg16
S'10.8'
p629
sg18
S'0.2'
p630
sg20
S'106'
p631
sg22
S'54'
p632
sg411
g105
sg24
S'5.2'
p633
sg28
g109
sg30
S'3.0'
p634
sg32
S'.573'
p635
sg34
S'29.0'
p636
sg36
S'.491'
p637
sg38
S'2.7'
p638
sg40
S'ORL'
p639
sg42
S'NBA'
p640
sg44
S'54'
p641
sg46
S'4.6'
p642
sg48
S'18.7'
p643
sg50
S'14.9'
p644
sg52
S'.579'
p645
sg54
S'20.4'
p646
sg56
S'26'
p647
sg58
S'18.9'
p648
sg60
S'4.1'
p649
sg62
S'7.3'
p650
sg64
S'10.8'
p651
sg66
S'2070'
p652
sba(isrc.gp1.models.Per100Possession
Per100Possession
p653
(dp654
g8
S'13.0'
p655
sg10
S'.167'
p656
sg12
S'0.0'
p657
sg404
S'100'
p658
sg14
S'1.6'
p659
sg16
S'8.8'
p660
sg18
S'0.1'
p661
sg20
S'105'
p662
sg22
S'76'
p663
sg411
g105
sg24
S'4.7'
p664
sg28
g109
sg30
S'3.5'
p665
sg32
S'.578'
p666
sg34
S'24.2'
p667
sg36
S'.492'
p668
sg38
S'2.0'
p669
sg40
S'LAL'
p670
sg42
S'NBA'
p671
sg44
S'76'
p672
sg46
S'4.2'
p673
sg48
S'15.1'
p674
sg50
S'13.5'
p675
sg52
S'.581'
p676
sg54
S'17.6'
p677
sg56
S'27'
p678
sg58
S'15.2'
p679
sg60
S'5.4'
p680
sg62
S'6.6'
p681
sg64
S'8.8'
p682
sg66
S'2722'
p683
sba(isrc.gp1.models.Per100Possession
Per100Possession
p684
(dp685
g8
S'13.2'
p686
sg10
S'.286'
p687
sg12
S'0.0'
p688
sg404
S'101'
p689
sg14
S'1.2'
p690
sg16
S'9.8'
p691
sg18
S'0.1'
p692
sg20
S'109'
p693
sg22
S'71'
p694
sg411
g105
sg24
S'4.8'
p695
sg28
g109
sg30
S'2.7'
p696
sg32
S'.591'
p697
sg34
S'27.0'
p698
sg36
S'.547'
p699
sg38
S'2.7'
p700
sg40
S'HOU'
p701
sg42
S'NBA'
p702
sg44
S'71'
p703
sg46
S'4.8'
p704
sg48
S'16.5'
p705
sg50
S'13.3'
p706
sg52
S'.594'
p707
sg54
S'18.0'
p708
sg56
S'28'
p709
sg58
S'16.6'
p710
sg60
S'5.0'
p711
sg62
S'7.3'
p712
sg64
S'9.8'
p713
sg66
S'2396'
p714
sba(isrc.gp1.models.Per100Possession
Per100Possession
p715
(dp716
g8
S'4.5'
p717
sg10
S'0.1'
p718
sg12
S'.593'
p719
sg404
S'105'
p720
sg14
S'2.0'
p721
sg16
S'.500'
p722
sg18
S'0.0'
p723
sg20
S'26.3'
p724
sg22
g109
sg411
S'100'
p725
sg24
S'.528'
p726
sg28
S'NBA'
p727
sg30
S'1.1'
p728
sg32
S'17.2'
p729
sg34
S'5.6'
p730
sg36
S'11.0'
p731
sg38
S'17.5'
p732
sg40
S'29'
p733
sg42
S'HOU'
p734
sg44
S'41'
p735
sg46
S'2.2'
p736
sg48
S'10.2'
p737
sg50
S'5.8'
p738
sg52
S'17.1'
p739
sg54
S'13.0'
p740
sg56
S'2014-15'
p741
sg58
S'10.2'
p742
sg60
S'4.7'
p743
sg62
S'.594'
p744
sg64
S'1223'
p745
sg66
S'41'
p746
sba(isrc.gp1.models.Per100Possession
Per100Possession
p747
(dp748
g8
S'5.5'
p749
sg10
S'0.1'
p750
sg12
S'.606'
p751
sg404
S'113'
p752
sg14
S'2.2'
p753
sg16
S'.000'
p754
sg18
S'0.0'
p755
sg20
S'21.9'
p756
sg22
g109
sg411
S'104'
p757
sg24
S'.547'
p758
sg28
S'NBA'
p759
sg30
S'1.5'
p760
sg32
S'13.1'
p761
sg34
S'4.8'
p762
sg36
S'10.9'
p763
sg38
S'18.4'
p764
sg40
S'30'
p765
sg42
S'HOU'
p766
sg44
S'41'
p767
sg46
S'2.4'
p768
sg48
S'8.0'
p769
sg50
S'6.0'
p770
sg52
S'13.1'
p771
sg54
S'12.8'
p772
sg56
S'2015-16'
p773
sg58
S'8.0'
p774
sg60
S'3.7'
p775
sg62
S'.610'
p776
sg64
S'1309'
p777
sg66
S'41'
p778
sbasS'_advanced'
p779
(lp780
(isrc.gp1.models.Advanced
Advanced
p781
(dp782
S'_offensiveReboundPercentage'
p783
S'12.2'
p784
sS'_turnOverPercentage'
p785
S'16.1'
p786
sS'_winSharesPer48Minutes'
p787
S'.131'
p788
sS'_stealPercentage'
p789
S'1.5'
p790
sS'_usagePercentage'
p791
S'16.7'
p792
sS'_totalReboundsPercentage'
p793
S'17.3'
p794
sS'_defensiveBoxPlusMinus'
p795
S'1.5'
p796
sg22
S'PF'
p797
sS'_valueOverReplacementPlayer'
p798
S'2.0'
p799
sS'_trueShootingPercentage'
p800
S'.571'
p801
sS'_defensiveReboundPercentage'
p802
S'22.2'
p803
sS'_freeThrowsAttempRate'
p804
S'.610'
p805
sS'_threePointsAttempRate'
p806
S'.003'
p807
sg28
S'NBA'
p808
sS'_offensiveBoxPlusMinues'
p809
S'-0.5'
p810
sS'_assistPercentage'
p811
S'4.4'
p812
sS'_defensiveWinShares'
p813
S'3.5'
p814
sg40
S'19'
p815
sg42
S'ORL'
p816
sg44
S'82'
p817
sS'_blockPercentage'
p818
S'3.6'
p819
sS'_playerEfficiencyRating'
p820
S'17.2'
p821
sS'_offensiveWinShares'
p822
S'3.8'
p823
sg64
S'2670'
p824
sS'_boxPlusMinus'
p825
S'1.0'
p826
sg56
S'2004-05'
p827
sS'_winShares'
p828
S'7.3'
p829
sba(isrc.gp1.models.Advanced
Advanced
p830
(dp831
g783
S'12.1'
p832
sg785
S'15.9'
p833
sg787
S'.137'
p834
sg789
S'1.2'
p835
sg791
S'21.3'
p836
sg793
S'20.9'
p837
sg795
S'1.4'
p838
sg22
S'PF'
p839
sg798
S'2.5'
p840
sg800
S'.565'
p841
sg802
S'29.2'
p842
sg804
S'.679'
p843
sg806
S'.002'
p844
sg28
S'NBA'
p845
sg809
S'-0.2'
p846
sg811
S'7.2'
p847
sg813
S'4.4'
p848
sg40
S'20'
p849
sg42
S'ORL'
p850
sg44
S'82'
p851
sg818
S'3.0'
p852
sg820
S'19.3'
p853
sg822
S'4.2'
p854
sg64
S'3021'
p855
sg825
S'1.2'
p856
sg56
S'2005-06'
p857
sg828
S'8.6'
p858
sba(isrc.gp1.models.Advanced
Advanced
p859
(dp860
g783
S'28.9'
p861
sg785
S'22.7'
p862
sg787
S'0.5'
p863
sg789
S'4.2'
p864
sg791
S'3.9'
p865
sg793
S'9.5'
p866
sg795
S'3.6'
p867
sg22
S'82'
p868
sg798
g105
sg800
S'.002'
p869
sg802
S'20.5'
p870
sg804
S'11.8'
p871
sg806
S'.763'
p872
sg28
g109
sg809
S'3.1'
p873
sg811
S'1.2'
p874
sg813
S'9.7'
p875
sg40
S'ORL'
p876
sg42
S'NBA'
p877
sg44
S'3023'
p878
sg818
S'21.4'
p879
sg820
S'.619'
p880
sg822
S'5.8'
p881
sg64
S'21.1'
p882
sg825
S'4.3'
p883
sg56
S'21'
p884
sg828
S'.154'
p885
sba(isrc.gp1.models.Advanced
Advanced
p886
(dp887
g783
S'31.6'
p888
sg785
S'24.2'
p889
sg787
S'-0.2'
p890
sg789
S'4.2'
p891
sg791
S'6.4'
p892
sg793
S'6.1'
p893
sg795
S'2.2'
p894
sg22
S'82'
p895
sg798
g105
sg800
S'.004'
p896
sg802
S'21.7'
p897
sg804
S'10.9'
p898
sg806
S'.921'
p899
sg28
g109
sg809
S'2.5'
p900
sg811
S'1.2'
p901
sg813
S'12.9'
p902
sg40
S'ORL'
p903
sg42
S'NBA'
p904
sg44
S'3088'
p905
sg818
S'16.1'
p906
sg820
S'.619'
p907
sg822
S'6.4'
p908
sg64
S'22.9'
p909
sg825
S'3.3'
p910
sg56
S'22'
p911
sg828
S'.200'
p912
sba(isrc.gp1.models.Advanced
Advanced
p913
(dp914
g783
S'29.5'
p915
sg785
S'26.1'
p916
sg787
S'0.1'
p917
sg789
S'5.9'
p918
sg791
S'6.2'
p919
sg793
S'7.3'
p920
sg795
S'4.4'
p921
sg22
S'79'
p922
sg798
g105
sg800
S'.002'
p923
sg802
S'21.8'
p924
sg804
S'13.8'
p925
sg806
S'.867'
p926
sg28
g109
sg809
S'4.3'
p927
sg811
S'1.4'
p928
sg813
S'13.8'
p929
sg40
S'ORL'
p930
sg42
S'NBA'
p931
sg44
S'2821'
p932
sg818
S'15.1'
p933
sg820
S'.600'
p934
sg822
S'7.6'
p935
sg64
S'25.4'
p936
sg825
S'4.6'
p937
sg56
S'23'
p938
sg828
S'.234'
p939
sba(isrc.gp1.models.Advanced
Advanced
p940
(dp941
g783
S'31.3'
p942
sg785
S'23.9'
p943
sg787
S'0.4'
p944
sg789
S'6.0'
p945
sg791
S'6.1'
p946
sg793
S'8.7'
p947
sg795
S'5.5'
p948
sg22
S'82'
p949
sg798
g105
sg800
S'.008'
p950
sg802
S'22.0'
p951
sg804
S'12.0'
p952
sg806
S'.978'
p953
sg28
g109
sg809
S'5.0'
p954
sg811
S'1.4'
p955
sg813
S'13.2'
p956
sg40
S'ORL'
p957
sg42
S'NBA'
p958
sg44
S'2843'
p959
sg818
S'18.7'
p960
sg820
S'.630'
p961
sg822
S'7.1'
p962
sg64
S'24.0'
p963
sg825
S'5.4'
p964
sg56
S'24'
p965
sg828
S'.223'
p966
sba(isrc.gp1.models.Advanced
Advanced
p967
(dp968
g783
S'30.6'
p969
sg785
S'27.2'
p970
sg787
S'0.9'
p971
sg789
S'4.9'
p972
sg791
S'6.7'
p973
sg793
S'6.8'
p974
sg795
S'4.8'
p975
sg22
S'78'
p976
sg798
g105
sg800
S'.007'
p977
sg802
S'21.8'
p978
sg804
S'12.6'
p979
sg806
S'.877'
p980
sg28
g109
sg809
S'3.9'
p981
sg811
S'1.9'
p982
sg813
S'14.4'
p983
sg40
S'ORL'
p984
sg42
S'NBA'
p985
sg44
S'2935'
p986
sg818
S'16.2'
p987
sg820
S'.616'
p988
sg822
S'7.7'
p989
sg64
S'26.1'
p990
sg825
S'5.0'
p991
sg56
S'25'
p992
sg828
S'.235'
p993
sba(isrc.gp1.models.Advanced
Advanced
p994
(dp995
g783
S'33.1'
p996
sg785
S'26.1'
p997
sg787
S'0.1'
p998
sg789
S'4.4'
p999
sg791
S'3.3'
p1000
sg793
S'9.8'
p1001
sg795
S'3.8'
p1002
sg22
S'54'
p1003
sg798
g105
sg800
S'.010'
p1004
sg802
S'21.9'
p1005
sg804
S'11.0'
p1006
sg806
S'.788'
p1007
sg28
g109
sg809
S'3.7'
p1008
sg811
S'2.1'
p1009
sg813
S'7.7'
p1010
sg40
S'ORL'
p1011
sg42
S'NBA'
p1012
sg44
S'2070'
p1013
sg818
S'15.2'
p1014
sg820
S'.569'
p1015
sg822
S'4.4'
p1016
sg64
S'24.2'
p1017
sg825
S'3.0'
p1018
sg56
S'26'
p1019
sg828
S'.179'
p1020
sba(isrc.gp1.models.Advanced
Advanced
p1021
(dp1022
g783
S'27.4'
p1023
sg785
S'22.2'
p1024
sg787
S'-1.5'
p1025
sg789
S'4.9'
p1026
sg791
S'2.8'
p1027
sg793
S'6.6'
p1028
sg795
S'1.3'
p1029
sg22
S'76'
p1030
sg798
g105
sg800
S'.007'
p1031
sg802
S'19.1'
p1032
sg804
S'10.4'
p1033
sg806
S'.887'
p1034
sg28
g109
sg809
S'2.8'
p1035
sg811
S'1.6'
p1036
sg813
S'7.6'
p1037
sg40
S'LAL'
p1038
sg42
S'NBA'
p1039
sg44
S'2722'
p1040
sg818
S'16.6'
p1041
sg820
S'.573'
p1042
sg822
S'4.8'
p1043
sg64
S'19.4'
p1044
sg825
S'2.3'
p1045
sg56
S'27'
p1046
sg828
S'.134'
p1047
sba(isrc.gp1.models.Advanced
Advanced
p1048
(dp1049
g783
S'27.9'
p1050
sg785
S'24.0'
p1051
sg787
S'-0.3'
p1052
sg789
S'4.0'
p1053
sg791
S'4.0'
p1054
sg793
S'9.3'
p1055
sg795
S'1.9'
p1056
sg22
S'71'
p1057
sg798
g105
sg800
S'.009'
p1058
sg802
S'20.1'
p1059
sg804
S'11.4'
p1060
sg806
S'.798'
p1061
sg28
g109
sg809
S'2.2'
p1062
sg811
S'1.2'
p1063
sg813
S'8.0'
p1064
sg40
S'HOU'
p1065
sg42
S'NBA'
p1066
sg44
S'2396'
p1067
sg818
S'17.5'
p1068
sg820
S'.600'
p1069
sg822
S'4.1'
p1070
sg64
S'21.3'
p1071
sg825
S'2.4'
p1072
sg56
S'28'
p1073
sg828
S'.161'
p1074
sba(isrc.gp1.models.Advanced
Advanced
p1075
(dp1076
g783
S'10.0'
p1077
sg785
S'17.5'
p1078
sg787
S'.140'
p1079
sg789
S'1.1'
p1080
sg791
S'23.3'
p1081
sg793
S'19.5'
p1082
sg795
S'1.2'
p1083
sg22
g109
sg798
S'0.3'
p1084
sg800
S'.596'
p1085
sg802
S'28.9'
p1086
sg804
S'.641'
p1087
sg806
S'.005'
p1088
sg28
S'NBA'
p1089
sg809
S'-2.4'
p1090
sg811
S'7.3'
p1091
sg813
S'2.2'
p1092
sg40
S'29'
p1093
sg42
S'HOU'
p1094
sg44
S'41'
p1095
sg818
S'3.4'
p1096
sg820
S'19.2'
p1097
sg822
S'1.4'
p1098
sg64
S'1223'
p1099
sg825
S'-1.2'
p1100
sg56
S'2014-15'
p1101
sg828
S'3.6'
p1102
sba(isrc.gp1.models.Advanced
Advanced
p1103
(dp1104
g783
S'12.2'
p1105
sg785
S'17.2'
p1106
sg787
S'.149'
p1107
sg789
S'1.5'
p1108
sg791
S'19.1'
p1109
sg793
S'20.6'
p1110
sg795
S'1.4'
p1111
sg22
g109
sg798
S'0.9'
p1112
sg800
S'.610'
p1113
sg802
S'29.1'
p1114
sg804
S'.830'
p1115
sg806
S'.006'
p1116
sg28
S'NBA'
p1117
sg809
S'-0.6'
p1118
sg811
S'7.5'
p1119
sg813
S'1.6'
p1120
sg40
S'30'
p1121
sg42
S'HOU'
p1122
sg44
S'41'
p1123
sg818
S'3.9'
p1124
sg820
S'20.2'
p1125
sg822
S'2.5'
p1126
sg64
S'1309'
p1127
sg825
S'0.8'
p1128
sg56
S'2015-16'
p1129
sg828
S'4.1'
p1130
sbasS'_per36Minutes'
p1131
(lp1132
(isrc.gp1.models.Per36Minutes
Per36Minutes
p1133
(dp1134
g8
S'3.9'
p1135
sg10
S'0.0'
p1136
sg12
S'.520'
p1137
sg14
S'1.0'
p1138
sg16
S'.000'
p1139
sg18
S'0.0'
p1140
sg20
S'13.2'
p1141
sg22
S'PF'
p1142
sg24
S'.671'
p1143
sg28
S'NBA'
p1144
sg30
S'1.0'
p1145
sg32
S'9.1'
p1146
sg34
S'3.1'
p1147
sg36
S'5.6'
p1148
sg38
S'11.1'
p1149
sg40
S'19'
p1150
sg42
S'ORL'
p1151
sg44
S'82'
p1152
sg46
S'1.8'
p1153
sg48
S'4.7'
p1154
sg50
S'3.7'
p1155
sg52
S'9.1'
p1156
sg54
S'7.2'
p1157
sg56
S'2004-05'
p1158
sg58
S'4.7'
p1159
sg60
S'2.2'
p1160
sg62
S'.521'
p1161
sg64
S'2670'
p1162
sg66
S'82'
p1163
sba(isrc.gp1.models.Per36Minutes
Per36Minutes
p1164
(dp1165
g8
S'3.4'
p1166
sg10
S'0.0'
p1167
sg12
S'.531'
p1168
sg14
S'1.5'
p1169
sg16
S'.000'
p1170
sg18
S'0.0'
p1171
sg20
S'15.4'
p1172
sg22
S'PF'
p1173
sg24
S'.595'
p1174
sg28
S'NBA'
p1175
sg30
S'0.8'
p1176
sg32
S'10.5'
p1177
sg34
S'3.3'
p1178
sg36
S'7.1'
p1179
sg38
S'12.2'
p1180
sg40
S'20'
p1181
sg42
S'ORL'
p1182
sg44
S'82'
p1183
sg46
S'1.4'
p1184
sg48
S'5.6'
p1185
sg50
S'4.2'
p1186
sg52
S'10.5'
p1187
sg54
S'8.7'
p1188
sg56
S'2005-06'
p1189
sg58
S'5.6'
p1190
sg60
S'2.6'
p1191
sg62
S'.532'
p1192
sg64
S'3021'
p1193
sg66
S'81'
p1194
sba(isrc.gp1.models.Per36Minutes
Per36Minutes
p1195
(dp1196
g8
S'8.6'
p1197
sg10
S'.500'
p1198
sg12
S'0.0'
p1199
sg14
S'0.8'
p1200
sg16
S'6.3'
p1201
sg18
S'0.0'
p1202
sg20
g105
sg22
S'82'
p1203
sg24
S'3.4'
p1204
sg28
g109
sg30
S'1.9'
p1205
sg32
S'.603'
p1206
sg34
S'17.2'
p1207
sg36
S'.586'
p1208
sg38
S'1.9'
p1209
sg40
S'ORL'
p1210
sg42
S'NBA'
p1211
sg44
S'82'
p1212
sg46
S'3.8'
p1213
sg48
S'10.4'
p1214
sg50
S'7.9'
p1215
sg52
S'.603'
p1216
sg54
S'12.0'
p1217
sg56
S'21'
p1218
sg58
S'10.4'
p1219
sg60
S'2.9'
p1220
sg62
S'4.6'
p1221
sg64
S'6.3'
p1222
sg66
S'3023'
p1223
sba(isrc.gp1.models.Per36Minutes
Per36Minutes
p1224
(dp1225
g8
S'10.3'
p1226
sg10
S'.000'
p1227
sg12
S'0.0'
p1228
sg14
S'0.9'
p1229
sg16
S'6.8'
p1230
sg18
S'0.0'
p1231
sg20
g105
sg22
S'82'
p1232
sg24
S'3.3'
p1233
sg28
g109
sg30
S'2.1'
p1234
sg32
S'.599'
p1235
sg34
S'19.8'
p1236
sg36
S'.590'
p1237
sg38
S'1.3'
p1238
sg40
S'ORL'
p1239
sg42
S'NBA'
p1240
sg44
S'82'
p1241
sg46
S'3.1'
p1242
sg48
S'11.3'
p1243
sg50
S'10.5'
p1244
sg52
S'.601'
p1245
sg54
S'13.5'
p1246
sg56
S'22'
p1247
sg58
S'11.4'
p1248
sg60
S'3.2'
p1249
sg62
S'6.2'
p1250
sg64
S'6.8'
p1251
sg66
S'3088'
p1252
sba(isrc.gp1.models.Per36Minutes
Per36Minutes
p1253
(dp1254
g8
S'9.7'
p1255
sg10
S'.000'
p1256
sg12
S'0.0'
p1257
sg14
S'1.0'
p1258
sg16
S'7.1'
p1259
sg18
S'0.0'
p1260
sg20
g105
sg22
S'79'
p1261
sg24
S'4.3'
p1262
sg28
g109
sg30
S'2.9'
p1263
sg32
S'.572'
p1264
sg34
S'20.7'
p1265
sg36
S'.594'
p1266
sg38
S'1.4'
p1267
sg40
S'ORL'
p1268
sg42
S'NBA'
p1269
sg44
S'79'
p1270
sg46
S'3.1'
p1271
sg48
S'12.5'
p1272
sg50
S'10.8'
p1273
sg52
S'.573'
p1274
sg54
S'13.9'
p1275
sg56
S'23'
p1276
sg58
S'12.5'
p1277
sg60
S'3.4'
p1278
sg62
S'6.4'
p1279
sg64
S'7.1'
p1280
sg66
S'2821'
p1281
sba(isrc.gp1.models.Per36Minutes
Per36Minutes
p1282
(dp1283
g8
S'10.1'
p1284
sg10
S'.000'
p1285
sg12
S'0.0'
p1286
sg14
S'0.9'
p1287
sg16
S'6.5'
p1288
sg18
S'0.1'
p1289
sg20
g105
sg22
S'82'
p1290
sg24
S'3.6'
p1291
sg28
g109
sg30
S'2.9'
p1292
sg32
S'.612'
p1293
sg34
S'19.0'
p1294
sg36
S'.592'
p1295
sg38
S'1.8'
p1296
sg40
S'ORL'
p1297
sg42
S'NBA'
p1298
sg44
S'82'
p1299
sg46
S'3.5'
p1300
sg48
S'10.5'
p1301
sg50
S'10.3'
p1302
sg52
S'.617'
p1303
sg54
S'13.7'
p1304
sg56
S'24'
p1305
sg58
S'10.6'
p1306
sg60
S'3.6'
p1307
sg62
S'6.1'
p1308
sg64
S'6.5'
p1309
sg66
S'2843'
p1310
sba(isrc.gp1.models.Per36Minutes
Per36Minutes
p1311
(dp1312
g8
S'9.7'
p1313
sg10
S'.000'
p1314
sg12
S'0.0'
p1315
sg14
S'1.3'
p1316
sg16
S'7.6'
p1317
sg18
S'0.1'
p1318
sg20
g105
sg22
S'78'
p1319
sg24
S'3.8'
p1320
sg28
g109
sg30
S'2.3'
p1321
sg32
S'.593'
p1322
sg34
S'21.9'
p1323
sg36
S'.596'
p1324
sg38
S'1.3'
p1325
sg40
S'ORL'
p1326
sg42
S'NBA'
p1327
sg44
S'78'
p1328
sg46
S'3.4'
p1329
sg48
S'12.7'
p1330
sg50
S'11.2'
p1331
sg52
S'.597'
p1332
sg54
S'13.5'
p1333
sg56
S'25'
p1334
sg58
S'12.8'
p1335
sg60
S'3.2'
p1336
sg62
S'6.7'
p1337
sg64
S'7.6'
p1338
sg66
S'2935'
p1339
sba(isrc.gp1.models.Per36Minutes
Per36Minutes
p1340
(dp1341
g8
S'10.2'
p1342
sg10
S'.000'
p1343
sg12
S'0.0'
p1344
sg14
S'1.4'
p1345
sg16
S'7.2'
p1346
sg18
S'0.1'
p1347
sg20
g105
sg22
S'54'
p1348
sg24
S'3.5'
p1349
sg28
g109
sg30
S'2.0'
p1350
sg32
S'.573'
p1351
sg34
S'19.4'
p1352
sg36
S'.491'
p1353
sg38
S'1.8'
p1354
sg40
S'ORL'
p1355
sg42
S'NBA'
p1356
sg44
S'54'
p1357
sg46
S'3.0'
p1358
sg48
S'12.5'
p1359
sg50
S'9.9'
p1360
sg52
S'.579'
p1361
sg54
S'13.7'
p1362
sg56
S'26'
p1363
sg58
S'12.6'
p1364
sg60
S'2.8'
p1365
sg62
S'4.9'
p1366
sg64
S'7.2'
p1367
sg66
S'2070'
p1368
sba(isrc.gp1.models.Per36Minutes
Per36Minutes
p1369
(dp1370
g8
S'9.2'
p1371
sg10
S'.167'
p1372
sg12
S'0.0'
p1373
sg14
S'1.1'
p1374
sg16
S'6.2'
p1375
sg18
S'0.1'
p1376
sg20
g105
sg22
S'76'
p1377
sg24
S'3.3'
p1378
sg28
g109
sg30
S'2.5'
p1379
sg32
S'.578'
p1380
sg34
S'17.1'
p1381
sg36
S'.492'
p1382
sg38
S'1.4'
p1383
sg40
S'LAL'
p1384
sg42
S'NBA'
p1385
sg44
S'76'
p1386
sg46
S'3.0'
p1387
sg48
S'10.7'
p1388
sg50
S'9.5'
p1389
sg52
S'.581'
p1390
sg54
S'12.5'
p1391
sg56
S'27'
p1392
sg58
S'10.8'
p1393
sg60
S'3.8'
p1394
sg62
S'4.7'
p1395
sg64
S'6.2'
p1396
sg66
S'2722'
p1397
sba(isrc.gp1.models.Per36Minutes
Per36Minutes
p1398
(dp1399
g8
S'9.5'
p1400
sg10
S'.286'
p1401
sg12
S'0.0'
p1402
sg14
S'0.9'
p1403
sg16
S'7.1'
p1404
sg18
S'0.1'
p1405
sg20
g105
sg22
S'71'
p1406
sg24
S'3.5'
p1407
sg28
g109
sg30
S'1.9'
p1408
sg32
S'.591'
p1409
sg34
S'19.5'
p1410
sg36
S'.547'
p1411
sg38
S'2.0'
p1412
sg40
S'HOU'
p1413
sg42
S'NBA'
p1414
sg44
S'71'
p1415
sg46
S'3.4'
p1416
sg48
S'11.9'
p1417
sg50
S'9.6'
p1418
sg52
S'.594'
p1419
sg54
S'13.0'
p1420
sg56
S'28'
p1421
sg58
S'12.0'
p1422
sg60
S'3.6'
p1423
sg62
S'5.2'
p1424
sg64
S'7.1'
p1425
sg66
S'2396'
p1426
sba(isrc.gp1.models.Per36Minutes
Per36Minutes
p1427
(dp1428
g8
S'3.2'
p1429
sg10
S'0.1'
p1430
sg12
S'.593'
p1431
sg14
S'1.5'
p1432
sg16
S'.500'
p1433
sg18
S'0.0'
p1434
sg20
S'19.0'
p1435
sg22
g109
sg24
S'.528'
p1436
sg28
S'NBA'
p1437
sg30
S'0.8'
p1438
sg32
S'12.5'
p1439
sg34
S'4.0'
p1440
sg36
S'8.0'
p1441
sg38
S'12.7'
p1442
sg40
S'29'
p1443
sg42
S'HOU'
p1444
sg44
S'41'
p1445
sg46
S'1.6'
p1446
sg48
S'7.4'
p1447
sg50
S'4.2'
p1448
sg52
S'12.4'
p1449
sg54
S'9.4'
p1450
sg56
S'2014-15'
p1451
sg58
S'7.4'
p1452
sg60
S'3.4'
p1453
sg62
S'.594'
p1454
sg64
S'1223'
p1455
sg66
S'41'
p1456
sba(isrc.gp1.models.Per36Minutes
Per36Minutes
p1457
(dp1458
g8
S'4.0'
p1459
sg10
S'0.1'
p1460
sg12
S'.606'
p1461
sg14
S'1.6'
p1462
sg16
S'.000'
p1463
sg18
S'0.0'
p1464
sg20
S'16.0'
p1465
sg22
g109
sg24
S'.547'
p1466
sg28
S'NBA'
p1467
sg30
S'1.1'
p1468
sg32
S'9.6'
p1469
sg34
S'3.5'
p1470
sg36
S'7.9'
p1471
sg38
S'13.4'
p1472
sg40
S'30'
p1473
sg42
S'HOU'
p1474
sg44
S'41'
p1475
sg46
S'1.7'
p1476
sg48
S'5.8'
p1477
sg50
S'4.3'
p1478
sg52
S'9.5'
p1479
sg54
S'9.4'
p1480
sg56
S'2015-16'
p1481
sg58
S'5.8'
p1482
sg60
S'2.7'
p1483
sg62
S'.610'
p1484
sg64
S'1309'
p1485
sg66
S'41'
p1486
sbasS'_fromYear'
p1487
S'2005'
p1488
sS'_url'
p1489
S'http://www.basketball-reference.com/players/h/howardw01.html'
p1490
sS'_perGame'
p1491
(isrc.gp1.models.PerGame
PerGame
p1492
(dp1493
g8
S'3.6'
p1494
sg10
S'0.0'
p1495
sg12
S'.606'
p1496
sS'_effectiveFieldGalPercentage'
p1497
S'.606'
p1498
sg14
S'1.4'
p1499
sg16
S'.000'
p1500
sg18
S'0.0'
p1501
sg20
S'14.1'
p1502
sg22
g109
sg24
S'.547'
p1503
sg28
S'NBA'
p1504
sg30
S'1.0'
p1505
sg34
S'3.1'
p1506
sS'_fieldGoalsttempted'
p1507
S'8.5'
p1508
sg36
S'7.0'
p1509
sg38
S'11.9'
p1510
sg40
S'30'
p1511
sg42
S'HOU'
p1512
sg44
S'41'
p1513
sg46
S'1.5'
p1514
sg48
S'5.1'
p1515
sg50
S'3.9'
p1516
sg52
S'8.4'
p1517
sg54
S'8.3'
p1518
sg56
S'2015-16'
p1519
sg58
S'5.1'
p1520
sg60
S'2.4'
p1521
sg62
S'.610'
p1522
sg64
S'31.9'
p1523
sg66
S'41'
p1524
sbsS'_weight'
p1525
S'265'
p1526
sS'_dob'
p1527
S'8-12-1985'
p1528
sS'_salary'
p1529
(lp1530
(isrc.gp1.models.Salary
Salary
p1531
(dp1532
g42
S'Orlando Magic'
p1533
sg28
S'NBA'
p1534
sg1529
S'$4,179,720'
p1535
sg56
S'2004-05'
p1536
sba(isrc.gp1.models.Salary
Salary
p1537
(dp1538
g42
S'Orlando Magic'
p1539
sg28
S'NBA'
p1540
sg1529
S'$4,493,160'
p1541
sg56
S'2005-06'
p1542
sba(isrc.gp1.models.Salary
Salary
p1543
(dp1544
g42
S'Orlando Magic'
p1545
sg28
S'NBA'
p1546
sg1529
S'$4,806,720'
p1547
sg56
S'2006-07'
p1548
sba(isrc.gp1.models.Salary
Salary
p1549
(dp1550
g42
S'Orlando Magic'
p1551
sg28
S'NBA'
p1552
sg1529
S'$6,061,274'
p1553
sg56
S'2007-08'
p1554
sba(isrc.gp1.models.Salary
Salary
p1555
(dp1556
g42
S'Orlando Magic'
p1557
sg28
S'NBA'
p1558
sg1529
S'$13,758,000'
p1559
sg56
S'2008-09'
p1560
sba(isrc.gp1.models.Salary
Salary
p1561
(dp1562
g42
S'Orlando Magic'
p1563
sg28
S'NBA'
p1564
sg1529
S'$15,202,590'
p1565
sg56
S'2009-10'
p1566
sba(isrc.gp1.models.Salary
Salary
p1567
(dp1568
g42
S'Orlando Magic'
p1569
sg28
S'NBA'
p1570
sg1529
S'$16,647,180'
p1571
sg56
S'2010-11'
p1572
sba(isrc.gp1.models.Salary
Salary
p1573
(dp1574
g42
S'Orlando Magic'
p1575
sg28
S'NBA'
p1576
sg1529
S'$18,091,770'
p1577
sg56
S'2011-12'
p1578
sba(isrc.gp1.models.Salary
Salary
p1579
(dp1580
g42
S'Los Angeles Lakers'
p1581
sg28
S'NBA'
p1582
sg1529
S'$19,536,360'
p1583
sg56
S'2012-13'
p1584
sba(isrc.gp1.models.Salary
Salary
p1585
(dp1586
g42
S'Houston Rockets'
p1587
sg28
S'NBA'
p1588
sg1529
S'$20,513,178'
p1589
sg56
S'2013-14'
p1590
sba(isrc.gp1.models.Salary
Salary
p1591
(dp1592
g42
S'Houston Rockets'
p1593
sg28
S'NBA'
p1594
sg1529
S'$21,436,271'
p1595
sg56
S'2014-15'
p1596
sbasg22
S'C-F'
p1597
sb.