(isrc.gp1.models.Player
Player
p0
(dp1
S'_experience'
p2
S'NA'
p3
sS'_totals'
p4
(lp5
(isrc.gp1.models.Totals
Totals
p6
(dp7
S'_offensiveRebounds'
p8
g3
sS'_threePointsAttempted'
p9
S'.368'
p10
sS'_fieldGoalsPercentage'
p11
S'38'
p12
sS'_assist'
p13
g3
sS'_threePointsPercentage'
p14
S'7'
p15
sS'_threePoints'
p16
S'.368'
p17
sS'_points'
p18
g3
sS'_position'
p19
S'14'
p20
sS'_freeThrowsPercentage'
p21
g3
sS'_effectiveFieldGoalPercentage'
p22
S'5'
p23
sS'_league'
p24
S'NBA'
p25
sS'_steals'
p26
g3
sS'_fieldGoalsAttempted'
p27
S'14'
p28
sS'_personalFouls'
p29
g3
sS'_freeThrowsAttempted'
p30
S'35'
p31
sS'_totalRebounds'
p32
g3
sS'_age'
p33
S'26'
p34
sS'_team'
p35
S'PHW'
p36
sS'_games'
p37
S'112'
p38
sS'_blocks'
p39
g3
sS'_twoPoints'
p40
g15
sS'_freeThrows'
p41
S'16'
p42
sS'_twoPointsAttempted'
p43
S'1.000'
p44
sS'_defensiveRebounds'
p45
g3
sS'_season'
p46
S'1951-52'
p47
sS'_fieldGoals'
p48
S'.368'
p49
sS'_turnOvers'
p50
g3
sS'_twoPointsPercentage'
p51
S'22'
p52
sS'_minutesPlayed'
p53
S'38'
p54
sS'_gamesStarted'
p55
S'14'
p56
sbasS'_college'
p57
S'Duquesne University'
p58
sS'_toYear'
p59
S'1952'
p60
sS'_height'
p61
S'6-5'
p62
sS'_active'
p63
I00
sS'_shootingHand'
p64
VLeft
p65
sS'_name'
p66
S'Ed Dahler'
p67
sS'_per100Possessions'
p68
(lp69
sS'_advanced'
p70
(lp71
(isrc.gp1.models.Advanced
Advanced
p72
(dp73
S'_offensiveReboundPercentage'
p74
S'0.1'
p75
sS'_turnOverPercentage'
p76
g3
sS'_winSharesPer48Minutes'
p77
g3
sS'_stealPercentage'
p78
g3
sS'_usagePercentage'
p79
g3
sS'_totalReboundsPercentage'
p80
g3
sS'_defensiveBoxPlusMinus'
p81
g3
sg19
S'14'
p82
sS'_valueOverReplacementPlayer'
p83
g3
sS'_trueShootingPercentage'
p84
S'.184'
p85
sS'_defensiveReboundPercentage'
p86
S'.036'
p87
sS'_freeThrowsAttempRate'
p88
S'0.0'
p89
sS'_threePointsAttempRate'
p90
S'0.0'
p91
sg24
S'NBA'
p92
sS'_offensiveBoxPlusMinues'
p93
g3
sS'_assistPercentage'
p94
g3
sS'_defensiveWinShares'
p95
g3
sg33
S'26'
p96
sg35
S'PHW'
p97
sg37
S'112'
p98
sS'_blockPercentage'
p99
g3
sS'_playerEfficiencyRating'
p100
S'.426'
p101
sS'_offensiveWinShares'
p102
g3
sg53
S'10.3'
p103
sS'_boxPlusMinus'
p104
g3
sg46
S'1951-52'
p105
sS'_winShares'
p106
g3
sbasS'_per36Minutes'
p107
(lp108
(isrc.gp1.models.Per36Minutes
Per36Minutes
p109
(dp110
g8
g3
sg9
S'2.3'
p111
sg11
S'12.2'
p112
sg13
g3
sg14
S'2.3'
p113
sg16
S'.368'
p114
sg18
g3
sg19
S'14'
p115
sg21
g3
sg24
S'NBA'
p116
sg26
g3
sg27
S'4.5'
p117
sg29
g3
sg30
S'11.3'
p118
sg32
g3
sg33
S'26'
p119
sg35
S'PHW'
p120
sg37
S'112'
p121
sg39
g3
sg40
S'1.000'
p122
sg41
S'5.1'
p123
sg43
S'7.1'
p124
sg45
g3
sg46
S'1951-52'
p125
sg48
S'.368'
p126
sg50
g3
sg51
S'1.6'
p127
sg53
S'12.2'
p128
sg55
S'4.5'
p129
sbasS'_fromYear'
p130
S'1952'
p131
sS'_url'
p132
S'http://www.basketball-reference.com/players/d/dahleed01.html'
p133
sS'_perGame'
p134
(isrc.gp1.models.PerGame
PerGame
p135
(dp136
g8
g3
sg9
S'.368'
p137
sg11
S'2.7'
p138
sS'_effectiveFieldGalPercentage'
p139
S'0.4'
p140
sg13
g3
sg14
S'0.5'
p141
sg16
S'.368'
p142
sg18
g3
sg19
S'14'
p143
sg21
g3
sg24
S'NBA'
p144
sg26
g3
sg29
g3
sS'_fieldGoalsttempted'
p145
S'1.0'
p146
sg30
S'2.5'
p147
sg32
g3
sg33
S'26'
p148
sg35
S'PHW'
p149
sg37
S'8.0'
p150
sg39
g3
sg40
S'0.5'
p151
sg41
S'1.1'
p152
sg43
S'1.000'
p153
sg45
g3
sg46
S'1951-52'
p154
sg48
S'.368'
p155
sg50
g3
sg51
S'1.6'
p156
sg53
S'2.7'
p157
sg55
S'1.0'
p158
sbsS'_weight'
p159
S'190'
p160
sS'_dob'
p161
S'31-1-1926'
p162
sS'_salary'
p163
(lp164
sg19
S'F'
p165
sb.