(isrc.gp1.models.Player
Player
p0
(dp1
S'_experience'
p2
S'NA'
p3
sS'_totals'
p4
(lp5
(isrc.gp1.models.Totals
Totals
p6
(dp7
S'_offensiveRebounds'
p8
g3
sS'_threePointsAttempted'
p9
S'0'
p10
sS'_fieldGoalsPercentage'
p11
S'.286'
p12
sS'_assist'
p13
g3
sS'_threePointsPercentage'
p14
S'6'
p15
sS'_threePoints'
p16
S'.286'
p17
sS'_points'
p18
g3
sS'_position'
p19
S'8'
p20
sS'_freeThrowsPercentage'
p21
g3
sS'_effectiveFieldGoalPercentage'
p22
S'12'
p23
sS'_league'
p24
S'BAA'
p25
sS'_steals'
p26
g3
sS'_fieldGoalsAttempted'
p27
S'21'
p28
sS'_personalFouls'
p29
g3
sS'_freeThrowsAttempted'
p30
g3
sS'_totalRebounds'
p31
g3
sS'_age'
p32
S'23'
p33
sS'_team'
p34
S'TRH'
p35
sS'_games'
p36
g15
sS'_blocks'
p37
g3
sS'_twoPoints'
p38
S'.000'
p39
sS'_freeThrows'
p40
g3
sS'_twoPointsAttempted'
p41
g15
sS'_defensiveRebounds'
p42
g3
sS'_season'
p43
S'1946-47'
p44
sS'_fieldGoals'
p45
g15
sS'_turnOvers'
p46
g3
sS'_twoPointsPercentage'
p47
g20
sS'_minutesPlayed'
p48
S'.286'
p49
sS'_gamesStarted'
p50
S'21'
p51
sbasS'_college'
p52
S'NA'
p53
sS'_toYear'
p54
S'1947'
p55
sS'_height'
p56
S'5-11'
p57
sS'_active'
p58
I00
sS'_shootingHand'
p59
VRight
p60
sS'_name'
p61
S'Ed Kasid'
p62
sS'_per100Possessions'
p63
(lp64
sS'_advanced'
p65
(lp66
(isrc.gp1.models.Advanced
Advanced
p67
(dp68
S'_offensiveReboundPercentage'
p69
g3
sS'_turnOverPercentage'
p70
g3
sS'_winSharesPer48Minutes'
p71
g3
sS'_stealPercentage'
p72
g3
sS'_usagePercentage'
p73
g3
sS'_totalReboundsPercentage'
p74
g3
sS'_defensiveBoxPlusMinus'
p75
g3
sg19
g20
sS'_valueOverReplacementPlayer'
p76
g3
sS'_trueShootingPercentage'
p77
S'0.1'
p78
sS'_defensiveReboundPercentage'
p79
g3
sS'_freeThrowsAttempRate'
p80
g3
sS'_threePointsAttempRate'
p81
S'0.0'
p82
sg24
S'BAA'
p83
sS'_offensiveBoxPlusMinues'
p84
g3
sS'_assistPercentage'
p85
g3
sS'_defensiveWinShares'
p86
g3
sg32
S'23'
p87
sg34
S'TRH'
p88
sg36
S'.254'
p89
sS'_blockPercentage'
p90
g3
sS'_playerEfficiencyRating'
p91
S'-0.1'
p92
sS'_offensiveWinShares'
p93
g3
sg48
S'.286'
p94
sS'_boxPlusMinus'
p95
g3
sg43
S'1946-47'
p96
sS'_winShares'
p97
g3
sbasS'_per36Minutes'
p98
(lp99
(isrc.gp1.models.Per36Minutes
Per36Minutes
p100
(dp101
g8
g3
sg9
g3
sg11
g3
sg13
g3
sg14
g3
sg16
g3
sg18
g3
sg19
g20
sg21
g3
sg24
S'BAA'
p102
sg26
g3
sg27
g3
sg29
g3
sg30
g3
sg31
g3
sg32
S'23'
p103
sg34
S'TRH'
p104
sg36
S'.286'
p105
sg37
g3
sg38
g3
sg40
g3
sg41
g3
sg42
g3
sg43
S'1946-47'
p106
sg45
g3
sg46
g3
sg47
g3
sg48
S'.000'
p107
sg50
S'.286'
p108
sbasS'_fromYear'
p109
S'1947'
p110
sS'_url'
p111
S'http://www.basketball-reference.com/players/k/kasided01.html'
p112
sS'_perGame'
p113
(isrc.gp1.models.PerGame
PerGame
p114
(dp115
g8
g3
sg9
S'0.0'
p116
sg11
S'.286'
p117
sS'_effectiveFieldGalPercentage'
p118
S'1.5'
p119
sg13
g3
sg14
S'0.8'
p120
sg16
S'.286'
p121
sg18
g3
sg19
g20
sg21
g3
sg24
S'BAA'
p122
sg26
g3
sg29
g3
sS'_fieldGoalsttempted'
p123
S'2.6'
p124
sg30
g3
sg31
g3
sg32
S'23'
p125
sg34
S'TRH'
p126
sg36
S'0.8'
p127
sg37
g3
sg38
S'.000'
p128
sg40
g3
sg41
S'0.8'
p129
sg42
g3
sg43
S'1946-47'
p130
sg45
S'0.8'
p131
sg46
g3
sg47
S'1.0'
p132
sg48
S'.286'
p133
sg50
S'2.6'
p134
sbsS'_weight'
p135
S'185'
p136
sS'_dob'
p137
S'13-8-1923'
p138
sS'_salary'
p139
(lp140
sg19
S'G'
p141
sb.