(isrc.gp1.models.Player
Player
p0
(dp1
S'_experience'
p2
S'NA'
p3
sS'_totals'
p4
(lp5
(isrc.gp1.models.Totals
Totals
p6
(dp7
S'_offensiveRebounds'
p8
g3
sS'_threePointsAttempted'
p9
S'111'
p10
sS'_fieldGoalsPercentage'
p11
S'.428'
p12
sS'_assist'
p13
g3
sS'_threePointsPercentage'
p14
S'185'
p15
sS'_threePoints'
p16
S'.428'
p17
sS'_points'
p18
g3
sS'_position'
p19
S'62'
p20
sS'_freeThrowsPercentage'
p21
g3
sS'_effectiveFieldGoalPercentage'
p22
S'445'
p23
sS'_league'
p24
S'NBA'
p25
sS'_steals'
p26
g3
sS'_fieldGoalsAttempted'
p27
S'390'
p28
sS'_personalFouls'
p29
g3
sS'_freeThrowsAttempted'
p30
g3
sS'_totalRebounds'
p31
g3
sS'_age'
p32
S'25'
p33
sS'_team'
p34
S'SYR'
p35
sS'_games'
p36
S'167'
p37
sS'_blocks'
p38
g3
sS'_twoPoints'
p39
S'.600'
p40
sS'_freeThrows'
p41
g3
sS'_twoPointsAttempted'
p42
S'33'
p43
sS'_defensiveRebounds'
p44
g3
sS'_season'
p45
S'1949-50'
p46
sS'_fieldGoals'
p47
S'167'
p48
sS'_turnOvers'
p49
g3
sS'_twoPointsPercentage'
p50
S'198'
p51
sS'_minutesPlayed'
p52
S'.428'
p53
sS'_gamesStarted'
p54
S'390'
p55
sba(isrc.gp1.models.Totals
Totals
p56
(dp57
g8
g3
sg9
S'99'
p58
sg11
S'.339'
p59
sg13
g3
sg14
S'150'
p60
sg16
S'.339'
p61
sg18
g3
sg19
S'53'
p62
sg21
g3
sg22
S'188'
p63
sg24
S'NBA'
p64
sg26
g3
sg27
S'384'
p65
sg29
g3
sg30
g3
sg31
g3
sg32
S'26'
p66
sg34
S'TOT'
p67
sg36
S'130'
p68
sg38
g3
sg39
S'.660'
p69
sg41
S'359'
p70
sg42
S'288'
p71
sg44
g3
sg45
S'1950-51'
p72
sg47
S'130'
p73
sg49
g3
sg50
S'66'
p74
sg52
S'.339'
p75
sg54
S'384'
p76
sba(isrc.gp1.models.Totals
Totals
p77
(dp78
g8
g3
sg9
S'20'
p79
sg11
S'.370'
p80
sg13
g3
sg14
S'33'
p81
sg16
S'.370'
p82
sg18
g3
sg19
S'17'
p83
sg21
g3
sg22
S'45'
p84
sg24
S'NBA'
p85
sg26
g3
sg27
S'81'
p86
sg29
g3
sg30
g3
sg31
g3
sg32
S'26'
p87
sg34
S'SYR'
p88
sg36
S'30'
p89
sg38
g3
sg39
S'.606'
p90
sg41
S'80'
p91
sg42
S'38'
p92
sg44
g3
sg45
S'1950-51'
p93
sg47
S'30'
p94
sg49
g3
sg50
S'8'
p95
sg52
S'.370'
p96
sg54
S'81'
p97
sba(isrc.gp1.models.Totals
Totals
p98
(dp99
g8
g3
sg9
S'79'
p100
sg11
S'.330'
p101
sg13
g3
sg14
S'117'
p102
sg16
S'.330'
p103
sg18
g3
sg19
S'36'
p104
sg21
g3
sg22
S'143'
p105
sg24
S'NBA'
p106
sg26
g3
sg27
S'303'
p107
sg29
g3
sg30
g3
sg31
g3
sg32
S'26'
p108
sg34
S'TRI'
p109
sg36
S'100'
p110
sg38
g3
sg39
S'.675'
p111
sg41
S'279'
p112
sg42
S'250'
p113
sg44
g3
sg45
S'1950-51'
p114
sg47
S'100'
p115
sg49
g3
sg50
S'58'
p116
sg52
S'.330'
p117
sg54
S'303'
p118
sbasS'_college'
p119
S'Cornell University'
p120
sS'_toYear'
p121
S'1951'
p122
sS'_height'
p123
S'6-9'
p124
sS'_active'
p125
I00
sS'_shootingHand'
p126
VRight
p127
sS'_name'
p128
S'Ed Peterson'
p129
sS'_per100Possessions'
p130
(lp131
sS'_advanced'
p132
(lp133
(isrc.gp1.models.Advanced
Advanced
p134
(dp135
S'_offensiveReboundPercentage'
p136
g3
sS'_turnOverPercentage'
p137
g3
sS'_winSharesPer48Minutes'
p138
g3
sS'_stealPercentage'
p139
g3
sS'_usagePercentage'
p140
g3
sS'_totalReboundsPercentage'
p141
g3
sS'_defensiveBoxPlusMinus'
p142
g3
sg19
S'62'
p143
sS'_valueOverReplacementPlayer'
p144
g3
sS'_trueShootingPercentage'
p145
S'2.1'
p146
sS'_defensiveReboundPercentage'
p147
g3
sS'_freeThrowsAttempRate'
p148
g3
sS'_threePointsAttempRate'
p149
S'5.1'
p150
sg24
S'NBA'
p151
sS'_offensiveBoxPlusMinues'
p152
g3
sS'_assistPercentage'
p153
g3
sS'_defensiveWinShares'
p154
g3
sg32
S'25'
p155
sg34
S'SYR'
p156
sg36
S'.472'
p157
sS'_blockPercentage'
p158
g3
sS'_playerEfficiencyRating'
p159
S'3.0'
p160
sS'_offensiveWinShares'
p161
g3
sg52
S'.474'
p162
sS'_boxPlusMinus'
p163
g3
sg45
S'1949-50'
p164
sS'_winShares'
p165
g3
sba(isrc.gp1.models.Advanced
Advanced
p166
(dp167
g136
g3
sg137
g3
sg138
g3
sg139
g3
sg140
g3
sg141
g3
sg142
g3
sg19
S'53'
p168
sg144
g3
sg145
S'1.4'
p169
sg147
g3
sg148
g3
sg149
S'1.5'
p170
sg24
S'NBA'
p171
sg152
g3
sg153
g3
sg154
g3
sg32
S'26'
p172
sg34
S'TOT'
p173
sg36
S'.399'
p174
sg158
g3
sg159
S'0.1'
p175
sg161
g3
sg52
S'.391'
p176
sg163
g3
sg45
S'1950-51'
p177
sg165
g3
sba(isrc.gp1.models.Advanced
Advanced
p178
(dp179
g136
g3
sg137
g3
sg138
g3
sg139
g3
sg140
g3
sg141
g3
sg142
g3
sg19
S'17'
p180
sg144
g3
sg145
S'0.2'
p181
sg147
g3
sg148
g3
sg149
S'0.3'
p182
sg24
S'NBA'
p183
sg152
g3
sg153
g3
sg154
g3
sg32
S'26'
p184
sg34
S'SYR'
p185
sg36
S'.419'
p186
sg158
g3
sg159
S'0.1'
p187
sg161
g3
sg52
S'.407'
p188
sg163
g3
sg45
S'1950-51'
p189
sg165
g3
sba(isrc.gp1.models.Advanced
Advanced
p190
(dp191
g136
g3
sg137
g3
sg138
g3
sg139
g3
sg140
g3
sg141
g3
sg142
g3
sg19
S'36'
p192
sg144
g3
sg145
S'1.3'
p193
sg147
g3
sg148
g3
sg149
S'1.2'
p194
sg24
S'NBA'
p195
sg152
g3
sg153
g3
sg154
g3
sg32
S'26'
p196
sg34
S'TRI'
p197
sg36
S'.394'
p198
sg158
g3
sg159
S'-0.1'
p199
sg161
g3
sg52
S'.386'
p200
sg163
g3
sg45
S'1950-51'
p201
sg165
g3
sbasS'_per36Minutes'
p202
(lp203
(isrc.gp1.models.Per36Minutes
Per36Minutes
p204
(dp205
g8
g3
sg9
g3
sg11
g3
sg13
g3
sg14
g3
sg16
g3
sg18
g3
sg19
S'62'
p206
sg21
g3
sg24
S'NBA'
p207
sg26
g3
sg27
g3
sg29
g3
sg30
g3
sg31
g3
sg32
S'25'
p208
sg34
S'SYR'
p209
sg36
S'.428'
p210
sg38
g3
sg39
g3
sg41
g3
sg42
g3
sg44
g3
sg45
S'1949-50'
p211
sg47
g3
sg49
g3
sg50
g3
sg52
S'.600'
p212
sg54
S'.428'
p213
sba(isrc.gp1.models.Per36Minutes
Per36Minutes
p214
(dp215
g8
g3
sg9
g3
sg11
g3
sg13
g3
sg14
g3
sg16
g3
sg18
g3
sg19
S'53'
p216
sg21
g3
sg24
S'NBA'
p217
sg26
g3
sg27
g3
sg29
g3
sg30
g3
sg31
g3
sg32
S'26'
p218
sg34
S'TOT'
p219
sg36
S'.339'
p220
sg38
g3
sg39
g3
sg41
g3
sg42
g3
sg44
g3
sg45
S'1950-51'
p221
sg47
g3
sg49
g3
sg50
g3
sg52
S'.660'
p222
sg54
S'.339'
p223
sba(isrc.gp1.models.Per36Minutes
Per36Minutes
p224
(dp225
g8
g3
sg9
g3
sg11
g3
sg13
g3
sg14
g3
sg16
g3
sg18
g3
sg19
S'17'
p226
sg21
g3
sg24
S'NBA'
p227
sg26
g3
sg27
g3
sg29
g3
sg30
g3
sg31
g3
sg32
S'26'
p228
sg34
S'SYR'
p229
sg36
S'.370'
p230
sg38
g3
sg39
g3
sg41
g3
sg42
g3
sg44
g3
sg45
S'1950-51'
p231
sg47
g3
sg49
g3
sg50
g3
sg52
S'.606'
p232
sg54
S'.370'
p233
sba(isrc.gp1.models.Per36Minutes
Per36Minutes
p234
(dp235
g8
g3
sg9
g3
sg11
g3
sg13
g3
sg14
g3
sg16
g3
sg18
g3
sg19
S'36'
p236
sg21
g3
sg24
S'NBA'
p237
sg26
g3
sg27
g3
sg29
g3
sg30
g3
sg31
g3
sg32
S'26'
p238
sg34
S'TRI'
p239
sg36
S'.330'
p240
sg38
g3
sg39
g3
sg41
g3
sg42
g3
sg44
g3
sg45
S'1950-51'
p241
sg47
g3
sg49
g3
sg50
g3
sg52
S'.675'
p242
sg54
S'.330'
p243
sbasS'_fromYear'
p244
S'1950'
p245
sS'_url'
p246
S'http://www.basketball-reference.com/players/p/petered01.html'
p247
sS'_perGame'
p248
(isrc.gp1.models.PerGame
PerGame
p249
(dp250
g8
g3
sg9
S'2.2'
p251
sg11
S'.330'
p252
sS'_effectiveFieldGalPercentage'
p253
S'4.0'
p254
sg13
g3
sg14
S'3.3'
p255
sg16
S'.330'
p256
sg18
g3
sg19
S'36'
p257
sg21
g3
sg24
S'NBA'
p258
sg26
g3
sg29
g3
sS'_fieldGoalsttempted'
p259
S'8.4'
p260
sg30
g3
sg31
g3
sg32
S'26'
p261
sg34
S'TRI'
p262
sg36
S'2.8'
p263
sg38
g3
sg39
S'.675'
p264
sg41
S'7.8'
p265
sg42
S'6.9'
p266
sg44
g3
sg45
S'1950-51'
p267
sg47
S'2.8'
p268
sg49
g3
sg50
S'1.6'
p269
sg52
S'.330'
p270
sg54
S'8.4'
p271
sbsS'_weight'
p272
S'220'
p273
sS'_dob'
p274
S'27-6-1924'
p275
sS'_salary'
p276
(lp277
sg19
S'C'
p278
sb.