(isrc.gp1.models.Player
Player
p0
(dp1
S'_experience'
p2
V1 year
p3
sS'_totals'
p4
(lp5
(isrc.gp1.models.Totals
Totals
p6
(dp7
S'_offensiveRebounds'
p8
S'1'
p9
sS'_threePointsAttempted'
p10
S'0'
p11
sS'_fieldGoalsPercentage'
p12
S'.333'
p13
sS'_assist'
p14
g11
sS'_threePointsPercentage'
p15
S'NA'
p16
sS'_threePoints'
p17
g11
sS'_points'
p18
S'2'
p19
sS'_position'
p20
S'SF'
p21
sS'_freeThrowsPercentage'
p22
g16
sS'_effectiveFieldGoalPercentage'
p23
S'.333'
p24
sS'_league'
p25
S'NBA'
p26
sS'_steals'
p27
g11
sS'_fieldGoalsAttempted'
p28
S'3'
p29
sS'_personalFouls'
p30
g9
sS'_freeThrowsAttempted'
p31
g11
sS'_totalRebounds'
p32
g19
sS'_age'
p33
S'26'
p34
sS'_team'
p35
S'CLE'
p36
sS'_games'
p37
g19
sS'_blocks'
p38
g11
sS'_twoPoints'
p39
g9
sS'_freeThrows'
p40
g11
sS'_twoPointsAttempted'
p41
g29
sS'_defensiveRebounds'
p42
g9
sS'_season'
p43
S'2013-14'
p44
sS'_fieldGoals'
p45
g9
sS'_turnOvers'
p46
g9
sS'_twoPointsPercentage'
p47
S'.333'
p48
sS'_minutesPlayed'
p49
S'12'
p50
sS'_gamesStarted'
p51
g11
sbasS'_college'
p52
S'University of Arkansas at Little Rock'
p53
sS'_toYear'
p54
S'2014'
p55
sS'_height'
p56
S'6-7'
p57
sS'_active'
p58
I01
sS'_shootingHand'
p59
VRight
p60
sS'_name'
p61
S'Shane Edwards'
p62
sS'_per100Possessions'
p63
(lp64
(isrc.gp1.models.Per100Possession
Per100Possession
p65
(dp66
g8
S'4.3'
p67
sg10
S'0.0'
p68
sg12
S'.333'
p69
sS'_offensiveRating'
p70
S'64'
p71
sg14
S'0.0'
p72
sg15
g16
sg17
S'0.0'
p73
sg18
S'8.6'
p74
sg20
S'SF'
p75
sS'_defensiveRating'
p76
S'114'
p77
sg22
g16
sg25
S'NBA'
p78
sg27
S'0.0'
p79
sg28
S'12.9'
p80
sg30
S'4.3'
p81
sg31
S'0.0'
p82
sg32
S'8.6'
p83
sg33
S'26'
p84
sg35
S'CLE'
p85
sg37
g19
sg38
S'0.0'
p86
sg39
S'4.3'
p87
sg40
S'0.0'
p88
sg41
S'12.9'
p89
sg42
S'4.3'
p90
sg43
S'2013-14'
p91
sg45
S'4.3'
p92
sg46
S'4.3'
p93
sg47
S'.333'
p94
sg49
S'12'
p95
sg51
g11
sbasS'_advanced'
p96
(lp97
(isrc.gp1.models.Advanced
Advanced
p98
(dp99
S'_offensiveReboundPercentage'
p100
S'9.1'
p101
sS'_turnOverPercentage'
p102
S'25.0'
p103
sS'_winSharesPer48Minutes'
p104
S'-0.141'
p105
sS'_stealPercentage'
p106
S'0.0'
p107
sS'_usagePercentage'
p108
S'14.9'
p109
sS'_totalReboundsPercentage'
p110
S'9.3'
p111
sS'_defensiveBoxPlusMinus'
p112
S'-4.7'
p113
sg20
S'SF'
p114
sS'_valueOverReplacementPlayer'
p115
S'0.0'
p116
sS'_trueShootingPercentage'
p117
S'.333'
p118
sS'_defensiveReboundPercentage'
p119
S'9.6'
p120
sS'_freeThrowsAttempRate'
p121
S'.000'
p122
sS'_threePointsAttempRate'
p123
S'.000'
p124
sg25
S'NBA'
p125
sS'_offensiveBoxPlusMinues'
p126
S'-10.5'
p127
sS'_assistPercentage'
p128
S'0.0'
p129
sS'_defensiveWinShares'
p130
S'0.0'
p131
sg33
S'26'
p132
sg35
S'CLE'
p133
sg37
g19
sS'_blockPercentage'
p134
S'0.0'
p135
sS'_playerEfficiencyRating'
p136
S'-1.0'
p137
sS'_offensiveWinShares'
p138
S'0.0'
p139
sg49
S'12'
p140
sS'_boxPlusMinus'
p141
S'-15.2'
p142
sg43
S'2013-14'
p143
sS'_winShares'
p144
S'0.0'
p145
sbasS'_per36Minutes'
p146
(lp147
(isrc.gp1.models.Per36Minutes
Per36Minutes
p148
(dp149
g8
S'3.0'
p150
sg10
S'0.0'
p151
sg12
S'.333'
p152
sg14
S'0.0'
p153
sg15
g16
sg17
S'0.0'
p154
sg18
S'6.0'
p155
sg20
S'SF'
p156
sg22
g16
sg25
S'NBA'
p157
sg27
S'0.0'
p158
sg28
S'9.0'
p159
sg30
S'3.0'
p160
sg31
S'0.0'
p161
sg32
S'6.0'
p162
sg33
S'26'
p163
sg35
S'CLE'
p164
sg37
g19
sg38
S'0.0'
p165
sg39
S'3.0'
p166
sg40
S'0.0'
p167
sg41
S'9.0'
p168
sg42
S'3.0'
p169
sg43
S'2013-14'
p170
sg45
S'3.0'
p171
sg46
S'3.0'
p172
sg47
S'.333'
p173
sg49
S'12'
p174
sg51
g11
sbasS'_fromYear'
p175
S'2014'
p176
sS'_url'
p177
S'http://www.basketball-reference.com/players/e/edwarsh01.html'
p178
sS'_perGame'
p179
(isrc.gp1.models.PerGame
PerGame
p180
(dp181
g8
S'0.5'
p182
sg10
S'0.0'
p183
sg12
S'.333'
p184
sS'_effectiveFieldGalPercentage'
p185
S'.333'
p186
sg14
S'0.0'
p187
sg15
g16
sg17
S'0.0'
p188
sg18
S'1.0'
p189
sg20
S'SF'
p190
sg22
g16
sg25
S'NBA'
p191
sg27
S'0.0'
p192
sg30
S'0.5'
p193
sS'_fieldGoalsttempted'
p194
S'1.5'
p195
sg31
S'0.0'
p196
sg32
S'1.0'
p197
sg33
S'26'
p198
sg35
S'CLE'
p199
sg37
g19
sg38
S'0.0'
p200
sg39
S'0.5'
p201
sg40
S'0.0'
p202
sg41
S'1.5'
p203
sg42
S'0.5'
p204
sg43
S'2013-14'
p205
sg45
S'0.5'
p206
sg46
S'0.5'
p207
sg47
S'.333'
p208
sg49
S'6.0'
p209
sg51
g11
sbsS'_weight'
p210
S'220'
p211
sS'_dob'
p212
S'31-5-1987'
p213
sS'_salary'
p214
(lp215
sg20
S'F'
p216
sb.