(isrc.gp1.models.Player
Player
p0
(dp1
S'_experience'
p2
S'NA'
p3
sS'_totals'
p4
(lp5
(isrc.gp1.models.Totals
Totals
p6
(dp7
S'_offensiveRebounds'
p8
S'127'
p9
sS'_threePointsAttempted'
p10
S'9'
p11
sS'_fieldGoalsPercentage'
p12
S'.481'
p13
sS'_assist'
p14
S'154'
p15
sS'_threePointsPercentage'
p16
S'.111'
p17
sS'_threePoints'
p18
S'1'
p19
sS'_points'
p20
S'810'
p21
sS'_position'
p22
S'SF'
p23
sS'_freeThrowsPercentage'
p24
S'.866'
p25
sS'_effectiveFieldGoalPercentage'
p26
S'.481'
p27
sS'_league'
p28
S'NBA'
p29
sS'_steals'
p30
S'45'
p31
sS'_fieldGoalsAttempted'
p32
S'647'
p33
sS'_personalFouls'
p34
S'172'
p35
sS'_freeThrowsAttempted'
p36
S'216'
p37
sS'_totalRebounds'
p38
S'297'
p39
sS'_age'
p40
S'21'
p41
sS'_team'
p42
S'SAS'
p43
sS'_games'
p44
S'81'
p45
sS'_blocks'
p46
S'14'
p47
sS'_twoPoints'
p48
S'310'
p49
sS'_freeThrows'
p50
S'187'
p51
sS'_twoPointsAttempted'
p52
S'638'
p53
sS'_defensiveRebounds'
p54
S'170'
p55
sS'_season'
p56
S'1989-90'
p57
sS'_fieldGoals'
p58
S'311'
p59
sS'_turnOvers'
p60
S'112'
p61
sS'_twoPointsPercentage'
p62
S'.486'
p63
sS'_minutesPlayed'
p64
S'2032'
p65
sS'_gamesStarted'
p66
S'69'
p67
sba(isrc.gp1.models.Totals
Totals
p68
(dp69
g8
S'142'
p70
sg10
S'64'
p71
sg12
S'.490'
p72
sg14
S'238'
p73
sg16
S'.313'
p74
sg18
S'20'
p75
sg20
S'1301'
p76
sg22
S'SF'
p77
sg24
S'.808'
p78
sg26
S'.500'
p79
sg28
S'NBA'
p80
sg30
S'69'
p81
sg32
S'976'
p82
sg34
S'190'
p83
sg36
S'402'
p84
sg38
S'456'
p85
sg40
S'22'
p86
sg42
S'SAS'
p87
sg44
S'82'
p88
sg46
S'33'
p89
sg48
S'458'
p90
sg50
S'325'
p91
sg52
S'912'
p92
sg54
S'314'
p93
sg56
S'1990-91'
p94
sg58
S'478'
p95
sg60
S'147'
p96
sg62
S'.502'
p97
sg64
S'3044'
p98
sg66
S'82'
p99
sba(isrc.gp1.models.Totals
Totals
p100
(dp101
g8
S'143'
p102
sg10
S'82'
p103
sg12
S'.494'
p104
sg14
S'214'
p105
sg16
S'.305'
p106
sg18
S'25'
p107
sg20
S'1338'
p108
sg22
S'SF'
p109
sg24
S'.861'
p110
sg26
S'.506'
p111
sg28
S'NBA'
p112
sg30
S'84'
p113
sg32
S'1040'
p114
sg34
S'149'
p115
sg36
S'331'
p116
sg38
S'439'
p117
sg40
S'23'
p118
sg42
S'SAS'
p119
sg44
S'82'
p120
sg46
S'29'
p121
sg48
S'489'
p122
sg50
S'285'
p123
sg52
S'958'
p124
sg54
S'296'
p125
sg56
S'1991-92'
p126
sg58
S'514'
p127
sg60
S'152'
p128
sg62
S'.510'
p129
sg64
S'3120'
p130
sg66
S'82'
p131
sba(isrc.gp1.models.Totals
Totals
p132
(dp133
g8
S'85'
p134
sg10
S'104'
p135
sg12
S'.491'
p136
sg14
S'265'
p137
sg16
S'.356'
p138
sg18
S'37'
p139
sg20
S'1207'
p140
sg22
S'SF'
p141
sg24
S'.795'
p142
sg26
S'.511'
p143
sg28
S'NBA'
p144
sg30
S'68'
p145
sg32
S'918'
p146
sg34
S'132'
p147
sg36
S'337'
p148
sg38
S'322'
p149
sg40
S'24'
p150
sg42
S'SAS'
p151
sg44
S'70'
p152
sg46
S'28'
p153
sg48
S'414'
p154
sg50
S'268'
p155
sg52
S'814'
p156
sg54
S'237'
p157
sg56
S'1992-93'
p158
sg58
S'451'
p159
sg60
S'152'
p160
sg62
S'.509'
p161
sg64
S'2604'
p162
sg66
S'70'
p163
sba(isrc.gp1.models.Totals
Totals
p164
(dp165
g8
S'68'
p166
sg10
S'87'
p167
sg12
S'.455'
p168
sg14
S'197'
p169
sg16
S'.299'
p170
sg18
S'26'
p171
sg20
S'885'
p172
sg22
S'SF'
p173
sg24
S'.803'
p174
sg26
S'.472'
p175
sg28
S'NBA'
p176
sg30
S'54'
p177
sg32
S'791'
p178
sg34
S'174'
p179
sg36
S'173'
p180
sg38
S'263'
p181
sg40
S'25'
p182
sg42
S'DET'
p183
sg44
S'73'
p184
sg46
S'27'
p185
sg48
S'334'
p186
sg50
S'139'
p187
sg52
S'704'
p188
sg54
S'195'
p189
sg56
S'1993-94'
p190
sg58
S'360'
p191
sg60
S'129'
p192
sg62
S'.474'
p193
sg64
S'2409'
p194
sg66
S'73'
p195
sba(isrc.gp1.models.Totals
Totals
p196
(dp197
g8
S'63'
p198
sg10
S'333'
p199
sg12
S'.468'
p200
sg14
S'206'
p201
sg16
S'.408'
p202
sg18
S'136'
p203
sg20
S'1466'
p204
sg22
S'SF'
p205
sg24
S'.807'
p206
sg26
S'.532'
p207
sg28
S'NBA'
p208
sg30
S'78'
p209
sg32
S'1072'
p210
sg34
S'216'
p211
sg36
S'404'
p212
sg38
S'287'
p213
sg40
S'26'
p214
sg42
S'SAS'
p215
sg44
S'81'
p216
sg46
S'38'
p217
sg48
S'366'
p218
sg50
S'326'
p219
sg52
S'739'
p220
sg54
S'224'
p221
sg56
S'1994-95'
p222
sg58
S'502'
p223
sg60
S'151'
p224
sg62
S'.495'
p225
sg64
S'2858'
p226
sg66
S'81'
p227
sba(isrc.gp1.models.Totals
Totals
p228
(dp229
g8
S'69'
p230
sg10
S'392'
p231
sg12
S'.466'
p232
sg14
S'211'
p233
sg16
S'.411'
p234
sg18
S'161'
p235
sg20
S'1537'
p236
sg22
S'SF'
p237
sg24
S'.771'
p238
sg26
S'.537'
p239
sg28
S'NBA'
p240
sg30
S'69'
p241
sg32
S'1127'
p242
sg34
S'178'
p243
sg36
S'423'
p244
sg38
S'396'
p245
sg40
S'27'
p246
sg42
S'SAS'
p247
sg44
S'77'
p248
sg46
S'33'
p249
sg48
S'364'
p250
sg50
S'326'
p251
sg52
S'735'
p252
sg54
S'327'
p253
sg56
S'1995-96'
p254
sg58
S'525'
p255
sg60
S'198'
p256
sg62
S'.495'
p257
sg64
S'2901'
p258
sg66
S'77'
p259
sba(isrc.gp1.models.Totals
Totals
p260
(dp261
g8
S'48'
p262
sg10
S'126'
p263
sg12
S'.422'
p264
sg14
S'124'
p265
sg16
S'.333'
p266
sg18
S'42'
p267
sg20
S'582'
p268
sg22
S'SF'
p269
sg24
S'.755'
p270
sg26
S'.468'
p271
sg28
S'NBA'
p272
sg30
S'24'
p273
sg32
S'464'
p274
sg34
S'105'
p275
sg36
S'196'
p276
sg38
S'190'
p277
sg40
S'28'
p278
sg42
S'SAS'
p279
sg44
S'39'
p280
sg46
S'24'
p281
sg48
S'154'
p282
sg50
S'148'
p283
sg52
S'338'
p284
sg54
S'142'
p285
sg56
S'1996-97'
p286
sg58
S'196'
p287
sg60
S'89'
p288
sg62
S'.456'
p289
sg64
S'1393'
p290
sg66
S'39'
p291
sba(isrc.gp1.models.Totals
Totals
p292
(dp293
g8
S'16'
p294
sg10
S'90'
p295
sg12
S'.403'
p296
sg14
S'62'
p297
sg16
S'.378'
p298
sg18
S'34'
p299
sg20
S'334'
p300
sg22
S'SF'
p301
sg24
S'.718'
p302
sg26
S'.459'
p303
sg28
S'NBA'
p304
sg30
S'24'
p305
sg32
S'303'
p306
sg34
S'92'
p307
sg36
S'78'
p308
sg38
S'124'
p309
sg40
S'29'
p310
sg42
S'SAS'
p311
sg44
S'36'
p312
sg46
S'14'
p313
sg48
S'88'
p314
sg50
S'56'
p315
sg52
S'213'
p316
sg54
S'108'
p317
sg56
S'1997-98'
p318
sg58
S'122'
p319
sg60
S'57'
p320
sg62
S'.413'
p321
sg64
S'1012'
p322
sg66
S'36'
p323
sba(isrc.gp1.models.Totals
Totals
p324
(dp325
g8
S'35'
p326
sg10
S'119'
p327
sg12
S'.410'
p328
sg14
S'117'
p329
sg16
S'.328'
p330
sg18
S'39'
p331
sg20
S'561'
p332
sg22
S'SF'
p333
sg24
S'.757'
p334
sg26
S'.449'
p335
sg28
S'NBA'
p336
sg30
S'26'
p337
sg32
S'507'
p338
sg34
S'104'
p339
sg36
S'140'
p340
sg38
S'213'
p341
sg40
S'30'
p342
sg42
S'SAS'
p343
sg44
S'50'
p344
sg46
S'17'
p345
sg48
S'169'
p346
sg50
S'106'
p347
sg52
S'388'
p348
sg54
S'178'
p349
sg56
S'1998-99'
p350
sg58
S'208'
p351
sg60
S'71'
p352
sg62
S'.436'
p353
sg64
S'1509'
p354
sg66
S'50'
p355
sba(isrc.gp1.models.Totals
Totals
p356
(dp357
g8
S'6'
p358
sg10
S'37'
p359
sg12
S'.358'
p360
sg14
S'28'
p361
sg16
S'.351'
p362
sg18
S'13'
p363
sg20
S'114'
p364
sg22
S'SF'
p365
sg24
S'.781'
p366
sg26
S'.420'
p367
sg28
S'NBA'
p368
sg30
S'12'
p369
sg32
S'106'
p370
sg34
S'34'
p371
sg36
S'32'
p372
sg38
S'47'
p373
sg40
S'31'
p374
sg42
S'SAS'
p375
sg44
S'19'
p376
sg46
S'2'
p377
sg48
S'25'
p378
sg50
S'25'
p379
sg52
S'69'
p380
sg54
S'41'
p381
sg56
S'1999-00'
p382
sg58
S'38'
p383
sg60
S'19'
p384
sg62
S'.362'
p385
sg64
S'391'
p386
sg66
S'19'
p387
sba(isrc.gp1.models.Totals
Totals
p388
(dp389
g8
S'17'
p390
sg10
S'129'
p391
sg12
S'.434'
p392
sg14
S'81'
p393
sg16
S'.426'
p394
sg18
S'55'
p395
sg20
S'409'
p396
sg22
S'SF'
p397
sg24
S'.714'
p398
sg26
S'.515'
p399
sg28
S'NBA'
p400
sg30
S'23'
p401
sg32
S'339'
p402
sg34
S'80'
p403
sg36
S'84'
p404
sg38
S'170'
p405
sg40
S'32'
p406
sg42
S'SAS'
p407
sg44
S'52'
p408
sg46
S'25'
p409
sg48
S'92'
p410
sg50
S'60'
p411
sg52
S'210'
p412
sg54
S'153'
p413
sg56
S'2000-01'
p414
sg58
S'147'
p415
sg60
S'51'
p416
sg62
S'.438'
p417
sg64
S'1229'
p418
sg66
S'34'
p419
sbasS'_college'
p420
S'University of Arizona'
p421
sS'_toYear'
p422
S'2001'
p423
sS'_height'
p424
S'6-8'
p425
sS'_active'
p426
I00
sS'_shootingHand'
p427
VRight
p428
sS'_name'
p429
S'Sean Elliott'
p430
sS'_per100Possessions'
p431
(lp432
(isrc.gp1.models.Per100Possession
Per100Possession
p433
(dp434
g8
S'3.0'
p435
sg10
S'0.2'
p436
sg12
S'.481'
p437
sS'_offensiveRating'
p438
S'112'
p439
sg14
S'3.7'
p440
sg16
S'.111'
p441
sg18
S'0.0'
p442
sg20
S'19.4'
p443
sg22
S'SF'
p444
sS'_defensiveRating'
p445
S'109'
p446
sg24
S'.866'
p447
sg28
S'NBA'
p448
sg30
S'1.1'
p449
sg32
S'15.5'
p450
sg34
S'4.1'
p451
sg36
S'5.2'
p452
sg38
S'7.1'
p453
sg40
S'21'
p454
sg42
S'SAS'
p455
sg44
S'81'
p456
sg46
S'0.3'
p457
sg48
S'7.4'
p458
sg50
S'4.5'
p459
sg52
S'15.3'
p460
sg54
S'4.1'
p461
sg56
S'1989-90'
p462
sg58
S'7.5'
p463
sg60
S'2.7'
p464
sg62
S'.486'
p465
sg64
S'2032'
p466
sg66
S'69'
p467
sba(isrc.gp1.models.Per100Possession
Per100Possession
p468
(dp469
g8
S'2.3'
p470
sg10
S'1.0'
p471
sg12
S'.490'
p472
sg438
S'115'
p473
sg14
S'3.8'
p474
sg16
S'.313'
p475
sg18
S'0.3'
p476
sg20
S'20.8'
p477
sg22
S'SF'
p478
sg445
S'107'
p479
sg24
S'.808'
p480
sg28
S'NBA'
p481
sg30
S'1.1'
p482
sg32
S'15.6'
p483
sg34
S'3.0'
p484
sg36
S'6.4'
p485
sg38
S'7.3'
p486
sg40
S'22'
p487
sg42
S'SAS'
p488
sg44
S'82'
p489
sg46
S'0.5'
p490
sg48
S'7.3'
p491
sg50
S'5.2'
p492
sg52
S'14.6'
p493
sg54
S'5.0'
p494
sg56
S'1990-91'
p495
sg58
S'7.6'
p496
sg60
S'2.4'
p497
sg62
S'.502'
p498
sg64
S'3044'
p499
sg66
S'82'
p500
sba(isrc.gp1.models.Per100Possession
Per100Possession
p501
(dp502
g8
S'2.3'
p503
sg10
S'1.3'
p504
sg12
S'.494'
p505
sg438
S'115'
p506
sg14
S'3.4'
p507
sg16
S'.305'
p508
sg18
S'0.4'
p509
sg20
S'21.4'
p510
sg22
S'SF'
p511
sg445
S'108'
p512
sg24
S'.861'
p513
sg28
S'NBA'
p514
sg30
S'1.3'
p515
sg32
S'16.6'
p516
sg34
S'2.4'
p517
sg36
S'5.3'
p518
sg38
S'7.0'
p519
sg40
S'23'
p520
sg42
S'SAS'
p521
sg44
S'82'
p522
sg46
S'0.5'
p523
sg48
S'7.8'
p524
sg50
S'4.6'
p525
sg52
S'15.3'
p526
sg54
S'4.7'
p527
sg56
S'1991-92'
p528
sg58
S'8.2'
p529
sg60
S'2.4'
p530
sg62
S'.510'
p531
sg64
S'3120'
p532
sg66
S'82'
p533
sba(isrc.gp1.models.Per100Possession
Per100Possession
p534
(dp535
g8
S'1.6'
p536
sg10
S'2.0'
p537
sg12
S'.491'
p538
sg438
S'112'
p539
sg14
S'5.1'
p540
sg16
S'.356'
p541
sg18
S'0.7'
p542
sg20
S'23.3'
p543
sg22
S'SF'
p544
sg445
S'109'
p545
sg24
S'.795'
p546
sg28
S'NBA'
p547
sg30
S'1.3'
p548
sg32
S'17.7'
p549
sg34
S'2.5'
p550
sg36
S'6.5'
p551
sg38
S'6.2'
p552
sg40
S'24'
p553
sg42
S'SAS'
p554
sg44
S'70'
p555
sg46
S'0.5'
p556
sg48
S'8.0'
p557
sg50
S'5.2'
p558
sg52
S'15.7'
p559
sg54
S'4.6'
p560
sg56
S'1992-93'
p561
sg58
S'8.7'
p562
sg60
S'2.9'
p563
sg62
S'.509'
p564
sg64
S'2604'
p565
sg66
S'70'
p566
sba(isrc.gp1.models.Per100Possession
Per100Possession
p567
(dp568
g8
S'1.4'
p569
sg10
S'1.8'
p570
sg12
S'.455'
p571
sg438
S'102'
p572
sg14
S'4.2'
p573
sg16
S'.299'
p574
sg18
S'0.6'
p575
sg20
S'18.7'
p576
sg22
S'SF'
p577
sg445
S'114'
p578
sg24
S'.803'
p579
sg28
S'NBA'
p580
sg30
S'1.1'
p581
sg32
S'16.7'
p582
sg34
S'3.7'
p583
sg36
S'3.7'
p584
sg38
S'5.6'
p585
sg40
S'25'
p586
sg42
S'DET'
p587
sg44
S'73'
p588
sg46
S'0.6'
p589
sg48
S'7.1'
p590
sg50
S'2.9'
p591
sg52
S'14.9'
p592
sg54
S'4.1'
p593
sg56
S'1993-94'
p594
sg58
S'7.6'
p595
sg60
S'2.7'
p596
sg62
S'.474'
p597
sg64
S'2409'
p598
sg66
S'73'
p599
sba(isrc.gp1.models.Per100Possession
Per100Possession
p600
(dp601
g8
S'1.1'
p602
sg10
S'5.9'
p603
sg12
S'.468'
p604
sg438
S'116'
p605
sg14
S'3.7'
p606
sg16
S'.408'
p607
sg18
S'2.4'
p608
sg20
S'26.0'
p609
sg22
S'SF'
p610
sg445
S'108'
p611
sg24
S'.807'
p612
sg28
S'NBA'
p613
sg30
S'1.4'
p614
sg32
S'19.0'
p615
sg34
S'3.8'
p616
sg36
S'7.2'
p617
sg38
S'5.1'
p618
sg40
S'26'
p619
sg42
S'SAS'
p620
sg44
S'81'
p621
sg46
S'0.7'
p622
sg48
S'6.5'
p623
sg50
S'5.8'
p624
sg52
S'13.1'
p625
sg54
S'4.0'
p626
sg56
S'1994-95'
p627
sg58
S'8.9'
p628
sg60
S'2.7'
p629
sg62
S'.495'
p630
sg64
S'2858'
p631
sg66
S'81'
p632
sba(isrc.gp1.models.Per100Possession
Per100Possession
p633
(dp634
g8
S'1.2'
p635
sg10
S'6.9'
p636
sg12
S'.466'
p637
sg438
S'110'
p638
sg14
S'3.7'
p639
sg16
S'.411'
p640
sg18
S'2.9'
p641
sg20
S'27.2'
p642
sg22
S'SF'
p643
sg445
S'106'
p644
sg24
S'.771'
p645
sg28
S'NBA'
p646
sg30
S'1.2'
p647
sg32
S'20.0'
p648
sg34
S'3.2'
p649
sg36
S'7.5'
p650
sg38
S'7.0'
p651
sg40
S'27'
p652
sg42
S'SAS'
p653
sg44
S'77'
p654
sg46
S'0.6'
p655
sg48
S'6.5'
p656
sg50
S'5.8'
p657
sg52
S'13.0'
p658
sg54
S'5.8'
p659
sg56
S'1995-96'
p660
sg58
S'9.3'
p661
sg60
S'3.5'
p662
sg62
S'.495'
p663
sg64
S'2901'
p664
sg66
S'77'
p665
sba(isrc.gp1.models.Per100Possession
Per100Possession
p666
(dp667
g8
S'1.9'
p668
sg10
S'5.0'
p669
sg12
S'.422'
p670
sg438
S'106'
p671
sg14
S'4.9'
p672
sg16
S'.333'
p673
sg18
S'1.7'
p674
sg20
S'23.0'
p675
sg22
S'SF'
p676
sg445
S'115'
p677
sg24
S'.755'
p678
sg28
S'NBA'
p679
sg30
S'0.9'
p680
sg32
S'18.3'
p681
sg34
S'4.1'
p682
sg36
S'7.7'
p683
sg38
S'7.5'
p684
sg40
S'28'
p685
sg42
S'SAS'
p686
sg44
S'39'
p687
sg46
S'0.9'
p688
sg48
S'6.1'
p689
sg50
S'5.8'
p690
sg52
S'13.3'
p691
sg54
S'5.6'
p692
sg56
S'1996-97'
p693
sg58
S'7.7'
p694
sg60
S'3.5'
p695
sg62
S'.456'
p696
sg64
S'1393'
p697
sg66
S'39'
p698
sba(isrc.gp1.models.Per100Possession
Per100Possession
p699
(dp700
g8
S'0.9'
p701
sg10
S'4.8'
p702
sg12
S'.403'
p703
sg438
S'96'
p704
sg14
S'3.3'
p705
sg16
S'.378'
p706
sg18
S'1.8'
p707
sg20
S'17.9'
p708
sg22
S'SF'
p709
sg445
S'102'
p710
sg24
S'.718'
p711
sg28
S'NBA'
p712
sg30
S'1.3'
p713
sg32
S'16.3'
p714
sg34
S'4.9'
p715
sg36
S'4.2'
p716
sg38
S'6.7'
p717
sg40
S'29'
p718
sg42
S'SAS'
p719
sg44
S'36'
p720
sg46
S'0.8'
p721
sg48
S'4.7'
p722
sg50
S'3.0'
p723
sg52
S'11.4'
p724
sg54
S'5.8'
p725
sg56
S'1997-98'
p726
sg58
S'6.5'
p727
sg60
S'3.1'
p728
sg62
S'.413'
p729
sg64
S'1012'
p730
sg66
S'36'
p731
sba(isrc.gp1.models.Per100Possession
Per100Possession
p732
(dp733
g8
S'1.3'
p734
sg10
S'4.3'
p735
sg12
S'.410'
p736
sg438
S'101'
p737
sg14
S'4.2'
p738
sg16
S'.328'
p739
sg18
S'1.4'
p740
sg20
S'20.1'
p741
sg22
S'SF'
p742
sg445
S'99'
p743
sg24
S'.757'
p744
sg28
S'NBA'
p745
sg30
S'0.9'
p746
sg32
S'18.2'
p747
sg34
S'3.7'
p748
sg36
S'5.0'
p749
sg38
S'7.6'
p750
sg40
S'30'
p751
sg42
S'SAS'
p752
sg44
S'50'
p753
sg46
S'0.6'
p754
sg48
S'6.1'
p755
sg50
S'3.8'
p756
sg52
S'13.9'
p757
sg54
S'6.4'
p758
sg56
S'1998-99'
p759
sg58
S'7.5'
p760
sg60
S'2.5'
p761
sg62
S'.436'
p762
sg64
S'1509'
p763
sg66
S'50'
p764
sba(isrc.gp1.models.Per100Possession
Per100Possession
p765
(dp766
g8
S'0.8'
p767
sg10
S'5.0'
p768
sg12
S'.358'
p769
sg438
S'95'
p770
sg14
S'3.8'
p771
sg16
S'.351'
p772
sg18
S'1.8'
p773
sg20
S'15.4'
p774
sg22
S'SF'
p775
sg445
S'101'
p776
sg24
S'.781'
p777
sg28
S'NBA'
p778
sg30
S'1.6'
p779
sg32
S'14.3'
p780
sg34
S'4.6'
p781
sg36
S'4.3'
p782
sg38
S'6.4'
p783
sg40
S'31'
p784
sg42
S'SAS'
p785
sg44
S'19'
p786
sg46
S'0.3'
p787
sg48
S'3.4'
p788
sg50
S'3.4'
p789
sg52
S'9.3'
p790
sg54
S'5.5'
p791
sg56
S'1999-00'
p792
sg58
S'5.1'
p793
sg60
S'2.6'
p794
sg62
S'.362'
p795
sg64
S'391'
p796
sg66
S'19'
p797
sba(isrc.gp1.models.Per100Possession
Per100Possession
p798
(dp799
g8
S'0.7'
p800
sg10
S'5.6'
p801
sg12
S'.434'
p802
sg438
S'106'
p803
sg14
S'3.5'
p804
sg16
S'.426'
p805
sg18
S'2.4'
p806
sg20
S'17.8'
p807
sg22
S'SF'
p808
sg445
S'100'
p809
sg24
S'.714'
p810
sg28
S'NBA'
p811
sg30
S'1.0'
p812
sg32
S'14.8'
p813
sg34
S'3.5'
p814
sg36
S'3.7'
p815
sg38
S'7.4'
p816
sg40
S'32'
p817
sg42
S'SAS'
p818
sg44
S'52'
p819
sg46
S'1.1'
p820
sg48
S'4.0'
p821
sg50
S'2.6'
p822
sg52
S'9.2'
p823
sg54
S'6.7'
p824
sg56
S'2000-01'
p825
sg58
S'6.4'
p826
sg60
S'2.2'
p827
sg62
S'.438'
p828
sg64
S'1229'
p829
sg66
S'34'
p830
sbasS'_advanced'
p831
(lp832
(isrc.gp1.models.Advanced
Advanced
p833
(dp834
S'_offensiveReboundPercentage'
p835
S'7.2'
p836
sS'_turnOverPercentage'
p837
S'13.1'
p838
sS'_winSharesPer48Minutes'
p839
S'.108'
p840
sS'_stealPercentage'
p841
S'1.1'
p842
sS'_usagePercentage'
p843
S'17.4'
p844
sS'_totalReboundsPercentage'
p845
S'8.2'
p846
sS'_defensiveBoxPlusMinus'
p847
S'-0.6'
p848
sg22
S'SF'
p849
sS'_valueOverReplacementPlayer'
p850
S'0.6'
p851
sS'_trueShootingPercentage'
p852
S'.546'
p853
sS'_defensiveReboundPercentage'
p854
S'9.2'
p855
sS'_freeThrowsAttempRate'
p856
S'.334'
p857
sS'_threePointsAttempRate'
p858
S'.014'
p859
sg28
S'NBA'
p860
sS'_offensiveBoxPlusMinues'
p861
S'-0.4'
p862
sS'_assistPercentage'
p863
S'10.7'
p864
sS'_defensiveWinShares'
p865
S'2.0'
p866
sg40
S'21'
p867
sg42
S'SAS'
p868
sg44
S'81'
p869
sS'_blockPercentage'
p870
S'0.4'
p871
sS'_playerEfficiencyRating'
p872
S'12.5'
p873
sS'_offensiveWinShares'
p874
S'2.6'
p875
sg64
S'2032'
p876
sS'_boxPlusMinus'
p877
S'-0.9'
p878
sg56
S'1989-90'
p879
sS'_winShares'
p880
S'4.6'
p881
sba(isrc.gp1.models.Advanced
Advanced
p882
(dp883
g835
S'5.4'
p884
sg837
S'11.3'
p885
sg839
S'.138'
p886
sg841
S'1.1'
p887
sg843
S'17.8'
p888
sg845
S'8.3'
p889
sg847
S'0.6'
p890
sg22
S'SF'
p891
sg850
S'2.8'
p892
sg852
S'.564'
p893
sg854
S'10.8'
p894
sg856
S'.412'
p895
sg858
S'.066'
p896
sg28
S'NBA'
p897
sg861
S'1.0'
p898
sg863
S'11.1'
p899
sg865
S'3.7'
p900
sg40
S'22'
p901
sg42
S'SAS'
p902
sg44
S'82'
p903
sg870
S'0.7'
p904
sg872
S'14.2'
p905
sg874
S'5.1'
p906
sg64
S'3044'
p907
sg877
S'1.6'
p908
sg56
S'1990-91'
p909
sg880
S'8.8'
p910
sba(isrc.gp1.models.Advanced
Advanced
p911
(dp912
g835
S'5.0'
p913
sg837
S'11.4'
p914
sg839
S'.130'
p915
sg841
S'1.3'
p916
sg843
S'18.1'
p917
sg845
S'7.7'
p918
sg847
S'0.4'
p919
sg22
S'SF'
p920
sg850
S'2.7'
p921
sg852
S'.564'
p922
sg854
S'10.3'
p923
sg856
S'.318'
p924
sg858
S'.079'
p925
sg28
S'NBA'
p926
sg861
S'1.0'
p927
sg863
S'10.0'
p928
sg865
S'3.4'
p929
sg40
S'23'
p930
sg42
S'SAS'
p931
sg44
S'82'
p932
sg870
S'0.6'
p933
sg872
S'14.4'
p934
sg874
S'5.0'
p935
sg64
S'3120'
p936
sg877
S'1.4'
p937
sg56
S'1991-92'
p938
sg880
S'8.4'
p939
sba(isrc.gp1.models.Advanced
Advanced
p940
(dp941
g835
S'3.9'
p942
sg837
S'12.5'
p943
sg839
S'.113'
p944
sg841
S'1.3'
p945
sg843
S'20.6'
p946
sg845
S'7.1'
p947
sg847
S'0.0'
p948
sg22
S'SF'
p949
sg850
S'2.3'
p950
sg852
S'.566'
p951
sg854
S'10.0'
p952
sg856
S'.367'
p953
sg858
S'.113'
p954
sg28
S'NBA'
p955
sg861
S'1.6'
p956
sg863
S'15.4'
p957
sg865
S'2.2'
p958
sg40
S'24'
p959
sg42
S'SAS'
p960
sg44
S'70'
p961
sg870
S'0.7'
p962
sg872
S'15.5'
p963
sg874
S'3.9'
p964
sg64
S'2604'
p965
sg877
S'1.6'
p966
sg56
S'1992-93'
p967
sg880
S'6.1'
p968
sba(isrc.gp1.models.Advanced
Advanced
p969
(dp970
g835
S'3.1'
p971
sg837
S'13.0'
p972
sg839
S'.028'
p973
sg841
S'1.1'
p974
sg843
S'18.1'
p975
sg845
S'6.0'
p976
sg847
S'-0.9'
p977
sg22
S'SF'
p978
sg850
S'-0.2'
p979
sg852
S'.510'
p980
sg854
S'9.1'
p981
sg856
S'.219'
p982
sg858
S'.110'
p983
sg28
S'NBA'
p984
sg861
S'-1.4'
p985
sg863
S'12.5'
p986
sg865
S'0.4'
p987
sg40
S'25'
p988
sg42
S'DET'
p989
sg44
S'73'
p990
sg870
S'0.7'
p991
sg872
S'11.3'
p992
sg874
S'1.0'
p993
sg64
S'2409'
p994
sg877
S'-2.3'
p995
sg56
S'1993-94'
p996
sg880
S'1.4'
p997
sba(isrc.gp1.models.Advanced
Advanced
p998
(dp999
g835
S'2.6'
p1000
sg837
S'10.8'
p1001
sg839
S'.147'
p1002
sg841
S'1.4'
p1003
sg843
S'21.6'
p1004
sg845
S'5.7'
p1005
sg847
S'-0.3'
p1006
sg22
S'SF'
p1007
sg850
S'2.9'
p1008
sg852
S'.587'
p1009
sg854
S'8.5'
p1010
sg856
S'.377'
p1011
sg858
S'.311'
p1012
sg28
S'NBA'
p1013
sg861
S'2.4'
p1014
sg863
S'11.3'
p1015
sg865
S'2.9'
p1016
sg40
S'26'
p1017
sg42
S'SAS'
p1018
sg44
S'81'
p1019
sg870
S'0.9'
p1020
sg872
S'16.0'
p1021
sg874
S'5.8'
p1022
sg64
S'2858'
p1023
sg877
S'2.1'
p1024
sg56
S'1994-95'
p1025
sg880
S'8.7'
p1026
sba(isrc.gp1.models.Advanced
Advanced
p1027
(dp1028
g835
S'2.8'
p1029
sg837
S'13.1'
p1030
sg839
S'.128'
p1031
sg841
S'1.2'
p1032
sg843
S'23.4'
p1033
sg845
S'7.6'
p1034
sg847
S'0.0'
p1035
sg22
S'SF'
p1036
sg850
S'2.9'
p1037
sg852
S'.585'
p1038
sg854
S'12.1'
p1039
sg856
S'.375'
p1040
sg858
S'.348'
p1041
sg28
S'NBA'
p1042
sg861
S'2.0'
p1043
sg863
S'11.8'
p1044
sg865
S'3.6'
p1045
sg40
S'27'
p1046
sg42
S'SAS'
p1047
sg44
S'77'
p1048
sg870
S'0.8'
p1049
sg872
S'16.3'
p1050
sg874
S'4.1'
p1051
sg64
S'2901'
p1052
sg877
S'2.0'
p1053
sg56
S'1995-96'
p1054
sg880
S'7.7'
p1055
sba(isrc.gp1.models.Advanced
Advanced
p1056
(dp1057
g835
S'4.0'
p1058
sg837
S'13.9'
p1059
sg839
S'.051'
p1060
sg841
S'0.9'
p1061
sg843
S'21.3'
p1062
sg845
S'8.2'
p1063
sg847
S'-1.5'
p1064
sg22
S'SF'
p1065
sg850
S'0.3'
p1066
sg852
S'.529'
p1067
sg854
S'12.7'
p1068
sg856
S'.422'
p1069
sg858
S'.272'
p1070
sg28
S'NBA'
p1071
sg861
S'0.3'
p1072
sg863
S'15.5'
p1073
sg865
S'0.1'
p1074
sg40
S'28'
p1075
sg42
S'SAS'
p1076
sg44
S'39'
p1077
sg870
S'1.4'
p1078
sg872
S'14.0'
p1079
sg874
S'1.4'
p1080
sg64
S'1393'
p1081
sg877
S'-1.1'
p1082
sg56
S'1996-97'
p1083
sg880
S'1.5'
p1084
sba(isrc.gp1.models.Advanced
Advanced
p1085
(dp1086
g835
S'1.9'
p1087
sg837
S'14.5'
p1088
sg839
S'.065'
p1089
sg841
S'1.3'
p1090
sg843
S'18.3'
p1091
sg845
S'7.1'
p1092
sg847
S'0.7'
p1093
sg22
S'SF'
p1094
sg850
S'0.1'
p1095
sg852
S'.495'
p1096
sg854
S'11.6'
p1097
sg856
S'.257'
p1098
sg858
S'.297'
p1099
sg28
S'NBA'
p1100
sg861
S'-2.2'
p1101
sg863
S'10.0'
p1102
sg865
S'1.5'
p1103
sg40
S'29'
p1104
sg42
S'SAS'
p1105
sg44
S'36'
p1106
sg870
S'1.0'
p1107
sg872
S'9.5'
p1108
sg874
S'-0.1'
p1109
sg64
S'1012'
p1110
sg877
S'-1.5'
p1111
sg56
S'1997-98'
p1112
sg880
S'1.4'
p1113
sba(isrc.gp1.models.Advanced
Advanced
p1114
(dp1115
g835
S'2.8'
p1116
sg837
S'11.1'
p1117
sg839
S'.113'
p1118
sg841
S'0.9'
p1119
sg843
S'19.7'
p1120
sg845
S'7.9'
p1121
sg847
S'0.5'
p1122
sg22
S'SF'
p1123
sg850
S'0.7'
p1124
sg852
S'.493'
p1125
sg854
S'12.5'
p1126
sg856
S'.276'
p1127
sg858
S'.235'
p1128
sg28
S'NBA'
p1129
sg861
S'-0.5'
p1130
sg863
S'13.3'
p1131
sg865
S'2.2'
p1132
sg40
S'30'
p1133
sg42
S'SAS'
p1134
sg44
S'50'
p1135
sg870
S'0.8'
p1136
sg872
S'12.6'
p1137
sg874
S'1.3'
p1138
sg64
S'1509'
p1139
sg877
S'0.0'
p1140
sg56
S'1998-99'
p1141
sg880
S'3.5'
p1142
sba(isrc.gp1.models.Advanced
Advanced
p1143
(dp1144
g835
S'1.8'
p1145
sg837
S'13.7'
p1146
sg839
S'.067'
p1147
sg841
S'1.6'
p1148
sg843
S'16.4'
p1149
sg845
S'6.8'
p1150
sg847
S'0.4'
p1151
sg22
S'SF'
p1152
sg850
S'0.0'
p1153
sg852
S'.475'
p1154
sg854
S'11.4'
p1155
sg856
S'.302'
p1156
sg858
S'.349'
p1157
sg28
S'NBA'
p1158
sg861
S'-2.1'
p1159
sg863
S'11.1'
p1160
sg865
S'0.6'
p1161
sg40
S'31'
p1162
sg42
S'SAS'
p1163
sg44
S'19'
p1164
sg870
S'0.4'
p1165
sg872
S'8.8'
p1166
sg874
S'0.0'
p1167
sg64
S'391'
p1168
sg877
S'-1.7'
p1169
sg56
S'1999-00'
p1170
sg880
S'0.5'
p1171
sba(isrc.gp1.models.Advanced
Advanced
p1172
(dp1173
g835
S'1.6'
p1174
sg837
S'11.9'
p1175
sg839
S'.118'
p1176
sg841
S'1.0'
p1177
sg843
S'16.3'
p1178
sg845
S'7.8'
p1179
sg847
S'0.8'
p1180
sg22
S'SF'
p1181
sg850
S'0.9'
p1182
sg852
S'.544'
p1183
sg854
S'13.4'
p1184
sg856
S'.248'
p1185
sg858
S'.381'
p1186
sg28
S'NBA'
p1187
sg861
S'0.0'
p1188
sg863
S'10.8'
p1189
sg865
S'1.7'
p1190
sg40
S'32'
p1191
sg42
S'SAS'
p1192
sg44
S'52'
p1193
sg870
S'1.4'
p1194
sg872
S'12.4'
p1195
sg874
S'1.3'
p1196
sg64
S'1229'
p1197
sg877
S'0.8'
p1198
sg56
S'2000-01'
p1199
sg880
S'3.0'
p1200
sbasS'_per36Minutes'
p1201
(lp1202
(isrc.gp1.models.Per36Minutes
Per36Minutes
p1203
(dp1204
g8
S'2.3'
p1205
sg10
S'0.2'
p1206
sg12
S'.481'
p1207
sg14
S'2.7'
p1208
sg16
S'.111'
p1209
sg18
S'0.0'
p1210
sg20
S'14.4'
p1211
sg22
S'SF'
p1212
sg24
S'.866'
p1213
sg28
S'NBA'
p1214
sg30
S'0.8'
p1215
sg32
S'11.5'
p1216
sg34
S'3.0'
p1217
sg36
S'3.8'
p1218
sg38
S'5.3'
p1219
sg40
S'21'
p1220
sg42
S'SAS'
p1221
sg44
S'81'
p1222
sg46
S'0.2'
p1223
sg48
S'5.5'
p1224
sg50
S'3.3'
p1225
sg52
S'11.3'
p1226
sg54
S'3.0'
p1227
sg56
S'1989-90'
p1228
sg58
S'5.5'
p1229
sg60
S'2.0'
p1230
sg62
S'.486'
p1231
sg64
S'2032'
p1232
sg66
S'69'
p1233
sba(isrc.gp1.models.Per36Minutes
Per36Minutes
p1234
(dp1235
g8
S'1.7'
p1236
sg10
S'0.8'
p1237
sg12
S'.490'
p1238
sg14
S'2.8'
p1239
sg16
S'.313'
p1240
sg18
S'0.2'
p1241
sg20
S'15.4'
p1242
sg22
S'SF'
p1243
sg24
S'.808'
p1244
sg28
S'NBA'
p1245
sg30
S'0.8'
p1246
sg32
S'11.5'
p1247
sg34
S'2.2'
p1248
sg36
S'4.8'
p1249
sg38
S'5.4'
p1250
sg40
S'22'
p1251
sg42
S'SAS'
p1252
sg44
S'82'
p1253
sg46
S'0.4'
p1254
sg48
S'5.4'
p1255
sg50
S'3.8'
p1256
sg52
S'10.8'
p1257
sg54
S'3.7'
p1258
sg56
S'1990-91'
p1259
sg58
S'5.7'
p1260
sg60
S'1.7'
p1261
sg62
S'.502'
p1262
sg64
S'3044'
p1263
sg66
S'82'
p1264
sba(isrc.gp1.models.Per36Minutes
Per36Minutes
p1265
(dp1266
g8
S'1.6'
p1267
sg10
S'0.9'
p1268
sg12
S'.494'
p1269
sg14
S'2.5'
p1270
sg16
S'.305'
p1271
sg18
S'0.3'
p1272
sg20
S'15.4'
p1273
sg22
S'SF'
p1274
sg24
S'.861'
p1275
sg28
S'NBA'
p1276
sg30
S'1.0'
p1277
sg32
S'12.0'
p1278
sg34
S'1.7'
p1279
sg36
S'3.8'
p1280
sg38
S'5.1'
p1281
sg40
S'23'
p1282
sg42
S'SAS'
p1283
sg44
S'82'
p1284
sg46
S'0.3'
p1285
sg48
S'5.6'
p1286
sg50
S'3.3'
p1287
sg52
S'11.1'
p1288
sg54
S'3.4'
p1289
sg56
S'1991-92'
p1290
sg58
S'5.9'
p1291
sg60
S'1.8'
p1292
sg62
S'.510'
p1293
sg64
S'3120'
p1294
sg66
S'82'
p1295
sba(isrc.gp1.models.Per36Minutes
Per36Minutes
p1296
(dp1297
g8
S'1.2'
p1298
sg10
S'1.4'
p1299
sg12
S'.491'
p1300
sg14
S'3.7'
p1301
sg16
S'.356'
p1302
sg18
S'0.5'
p1303
sg20
S'16.7'
p1304
sg22
S'SF'
p1305
sg24
S'.795'
p1306
sg28
S'NBA'
p1307
sg30
S'0.9'
p1308
sg32
S'12.7'
p1309
sg34
S'1.8'
p1310
sg36
S'4.7'
p1311
sg38
S'4.5'
p1312
sg40
S'24'
p1313
sg42
S'SAS'
p1314
sg44
S'70'
p1315
sg46
S'0.4'
p1316
sg48
S'5.7'
p1317
sg50
S'3.7'
p1318
sg52
S'11.3'
p1319
sg54
S'3.3'
p1320
sg56
S'1992-93'
p1321
sg58
S'6.2'
p1322
sg60
S'2.1'
p1323
sg62
S'.509'
p1324
sg64
S'2604'
p1325
sg66
S'70'
p1326
sba(isrc.gp1.models.Per36Minutes
Per36Minutes
p1327
(dp1328
g8
S'1.0'
p1329
sg10
S'1.3'
p1330
sg12
S'.455'
p1331
sg14
S'2.9'
p1332
sg16
S'.299'
p1333
sg18
S'0.4'
p1334
sg20
S'13.2'
p1335
sg22
S'SF'
p1336
sg24
S'.803'
p1337
sg28
S'NBA'
p1338
sg30
S'0.8'
p1339
sg32
S'11.8'
p1340
sg34
S'2.6'
p1341
sg36
S'2.6'
p1342
sg38
S'3.9'
p1343
sg40
S'25'
p1344
sg42
S'DET'
p1345
sg44
S'73'
p1346
sg46
S'0.4'
p1347
sg48
S'5.0'
p1348
sg50
S'2.1'
p1349
sg52
S'10.5'
p1350
sg54
S'2.9'
p1351
sg56
S'1993-94'
p1352
sg58
S'5.4'
p1353
sg60
S'1.9'
p1354
sg62
S'.474'
p1355
sg64
S'2409'
p1356
sg66
S'73'
p1357
sba(isrc.gp1.models.Per36Minutes
Per36Minutes
p1358
(dp1359
g8
S'0.8'
p1360
sg10
S'4.2'
p1361
sg12
S'.468'
p1362
sg14
S'2.6'
p1363
sg16
S'.408'
p1364
sg18
S'1.7'
p1365
sg20
S'18.5'
p1366
sg22
S'SF'
p1367
sg24
S'.807'
p1368
sg28
S'NBA'
p1369
sg30
S'1.0'
p1370
sg32
S'13.5'
p1371
sg34
S'2.7'
p1372
sg36
S'5.1'
p1373
sg38
S'3.6'
p1374
sg40
S'26'
p1375
sg42
S'SAS'
p1376
sg44
S'81'
p1377
sg46
S'0.5'
p1378
sg48
S'4.6'
p1379
sg50
S'4.1'
p1380
sg52
S'9.3'
p1381
sg54
S'2.8'
p1382
sg56
S'1994-95'
p1383
sg58
S'6.3'
p1384
sg60
S'1.9'
p1385
sg62
S'.495'
p1386
sg64
S'2858'
p1387
sg66
S'81'
p1388
sba(isrc.gp1.models.Per36Minutes
Per36Minutes
p1389
(dp1390
g8
S'0.9'
p1391
sg10
S'4.9'
p1392
sg12
S'.466'
p1393
sg14
S'2.6'
p1394
sg16
S'.411'
p1395
sg18
S'2.0'
p1396
sg20
S'19.1'
p1397
sg22
S'SF'
p1398
sg24
S'.771'
p1399
sg28
S'NBA'
p1400
sg30
S'0.9'
p1401
sg32
S'14.0'
p1402
sg34
S'2.2'
p1403
sg36
S'5.2'
p1404
sg38
S'4.9'
p1405
sg40
S'27'
p1406
sg42
S'SAS'
p1407
sg44
S'77'
p1408
sg46
S'0.4'
p1409
sg48
S'4.5'
p1410
sg50
S'4.0'
p1411
sg52
S'9.1'
p1412
sg54
S'4.1'
p1413
sg56
S'1995-96'
p1414
sg58
S'6.5'
p1415
sg60
S'2.5'
p1416
sg62
S'.495'
p1417
sg64
S'2901'
p1418
sg66
S'77'
p1419
sba(isrc.gp1.models.Per36Minutes
Per36Minutes
p1420
(dp1421
g8
S'1.2'
p1422
sg10
S'3.3'
p1423
sg12
S'.422'
p1424
sg14
S'3.2'
p1425
sg16
S'.333'
p1426
sg18
S'1.1'
p1427
sg20
S'15.0'
p1428
sg22
S'SF'
p1429
sg24
S'.755'
p1430
sg28
S'NBA'
p1431
sg30
S'0.6'
p1432
sg32
S'12.0'
p1433
sg34
S'2.7'
p1434
sg36
S'5.1'
p1435
sg38
S'4.9'
p1436
sg40
S'28'
p1437
sg42
S'SAS'
p1438
sg44
S'39'
p1439
sg46
S'0.6'
p1440
sg48
S'4.0'
p1441
sg50
S'3.8'
p1442
sg52
S'8.7'
p1443
sg54
S'3.7'
p1444
sg56
S'1996-97'
p1445
sg58
S'5.1'
p1446
sg60
S'2.3'
p1447
sg62
S'.456'
p1448
sg64
S'1393'
p1449
sg66
S'39'
p1450
sba(isrc.gp1.models.Per36Minutes
Per36Minutes
p1451
(dp1452
g8
S'0.6'
p1453
sg10
S'3.2'
p1454
sg12
S'.403'
p1455
sg14
S'2.2'
p1456
sg16
S'.378'
p1457
sg18
S'1.2'
p1458
sg20
S'11.9'
p1459
sg22
S'SF'
p1460
sg24
S'.718'
p1461
sg28
S'NBA'
p1462
sg30
S'0.9'
p1463
sg32
S'10.8'
p1464
sg34
S'3.3'
p1465
sg36
S'2.8'
p1466
sg38
S'4.4'
p1467
sg40
S'29'
p1468
sg42
S'SAS'
p1469
sg44
S'36'
p1470
sg46
S'0.5'
p1471
sg48
S'3.1'
p1472
sg50
S'2.0'
p1473
sg52
S'7.6'
p1474
sg54
S'3.8'
p1475
sg56
S'1997-98'
p1476
sg58
S'4.3'
p1477
sg60
S'2.0'
p1478
sg62
S'.413'
p1479
sg64
S'1012'
p1480
sg66
S'36'
p1481
sba(isrc.gp1.models.Per36Minutes
Per36Minutes
p1482
(dp1483
g8
S'0.8'
p1484
sg10
S'2.8'
p1485
sg12
S'.410'
p1486
sg14
S'2.8'
p1487
sg16
S'.328'
p1488
sg18
S'0.9'
p1489
sg20
S'13.4'
p1490
sg22
S'SF'
p1491
sg24
S'.757'
p1492
sg28
S'NBA'
p1493
sg30
S'0.6'
p1494
sg32
S'12.1'
p1495
sg34
S'2.5'
p1496
sg36
S'3.3'
p1497
sg38
S'5.1'
p1498
sg40
S'30'
p1499
sg42
S'SAS'
p1500
sg44
S'50'
p1501
sg46
S'0.4'
p1502
sg48
S'4.0'
p1503
sg50
S'2.5'
p1504
sg52
S'9.3'
p1505
sg54
S'4.2'
p1506
sg56
S'1998-99'
p1507
sg58
S'5.0'
p1508
sg60
S'1.7'
p1509
sg62
S'.436'
p1510
sg64
S'1509'
p1511
sg66
S'50'
p1512
sba(isrc.gp1.models.Per36Minutes
Per36Minutes
p1513
(dp1514
g8
S'0.6'
p1515
sg10
S'3.4'
p1516
sg12
S'.358'
p1517
sg14
S'2.6'
p1518
sg16
S'.351'
p1519
sg18
S'1.2'
p1520
sg20
S'10.5'
p1521
sg22
S'SF'
p1522
sg24
S'.781'
p1523
sg28
S'NBA'
p1524
sg30
S'1.1'
p1525
sg32
S'9.8'
p1526
sg34
S'3.1'
p1527
sg36
S'2.9'
p1528
sg38
S'4.3'
p1529
sg40
S'31'
p1530
sg42
S'SAS'
p1531
sg44
S'19'
p1532
sg46
S'0.2'
p1533
sg48
S'2.3'
p1534
sg50
S'2.3'
p1535
sg52
S'6.4'
p1536
sg54
S'3.8'
p1537
sg56
S'1999-00'
p1538
sg58
S'3.5'
p1539
sg60
S'1.7'
p1540
sg62
S'.362'
p1541
sg64
S'391'
p1542
sg66
S'19'
p1543
sba(isrc.gp1.models.Per36Minutes
Per36Minutes
p1544
(dp1545
g8
S'0.5'
p1546
sg10
S'3.8'
p1547
sg12
S'.434'
p1548
sg14
S'2.4'
p1549
sg16
S'.426'
p1550
sg18
S'1.6'
p1551
sg20
S'12.0'
p1552
sg22
S'SF'
p1553
sg24
S'.714'
p1554
sg28
S'NBA'
p1555
sg30
S'0.7'
p1556
sg32
S'9.9'
p1557
sg34
S'2.3'
p1558
sg36
S'2.5'
p1559
sg38
S'5.0'
p1560
sg40
S'32'
p1561
sg42
S'SAS'
p1562
sg44
S'52'
p1563
sg46
S'0.7'
p1564
sg48
S'2.7'
p1565
sg50
S'1.8'
p1566
sg52
S'6.2'
p1567
sg54
S'4.5'
p1568
sg56
S'2000-01'
p1569
sg58
S'4.3'
p1570
sg60
S'1.5'
p1571
sg62
S'.438'
p1572
sg64
S'1229'
p1573
sg66
S'34'
p1574
sbasS'_fromYear'
p1575
S'1990'
p1576
sS'_url'
p1577
S'http://www.basketball-reference.com/players/e/elliose01.html'
p1578
sS'_perGame'
p1579
(isrc.gp1.models.PerGame
PerGame
p1580
(dp1581
g8
S'0.3'
p1582
sg10
S'2.5'
p1583
sg12
S'.434'
p1584
sS'_effectiveFieldGalPercentage'
p1585
S'.515'
p1586
sg14
S'1.6'
p1587
sg16
S'.426'
p1588
sg18
S'1.1'
p1589
sg20
S'7.9'
p1590
sg22
S'SF'
p1591
sg24
S'.714'
p1592
sg28
S'NBA'
p1593
sg30
S'0.4'
p1594
sg34
S'1.5'
p1595
sS'_fieldGoalsttempted'
p1596
S'6.5'
p1597
sg36
S'1.6'
p1598
sg38
S'3.3'
p1599
sg40
S'32'
p1600
sg42
S'SAS'
p1601
sg44
S'52'
p1602
sg46
S'0.5'
p1603
sg48
S'1.8'
p1604
sg50
S'1.2'
p1605
sg52
S'4.0'
p1606
sg54
S'2.9'
p1607
sg56
S'2000-01'
p1608
sg58
S'2.8'
p1609
sg60
S'1.0'
p1610
sg62
S'.438'
p1611
sg64
S'23.6'
p1612
sg66
S'34'
p1613
sbsS'_weight'
p1614
S'205'
p1615
sS'_dob'
p1616
S'2-2-1968'
p1617
sS'_salary'
p1618
(lp1619
(isrc.gp1.models.Salary
Salary
p1620
(dp1621
g42
S'San Antonio Spurs'
p1622
sg28
S'NBA'
p1623
sg1618
S'$1,800,000'
p1624
sg56
S'1990-91'
p1625
sba(isrc.gp1.models.Salary
Salary
p1626
(dp1627
g42
S'San Antonio Spurs'
p1628
sg28
S'NBA'
p1629
sg1618
S'$1,802,000'
p1630
sg56
S'1991-92'
p1631
sba(isrc.gp1.models.Salary
Salary
p1632
(dp1633
g42
S'San Antonio Spurs'
p1634
sg28
S'NBA'
p1635
sg1618
S'$1,802,000'
p1636
sg56
S'1992-93'
p1637
sba(isrc.gp1.models.Salary
Salary
p1638
(dp1639
g42
S'Detroit Pistons'
p1640
sg28
S'NBA'
p1641
sg1618
S'$1,807,000'
p1642
sg56
S'1993-94'
p1643
sba(isrc.gp1.models.Salary
Salary
p1644
(dp1645
g42
S'San Antonio Spurs'
p1646
sg28
S'NBA'
p1647
sg1618
S'$1,350,000'
p1648
sg56
S'1994-95'
p1649
sba(isrc.gp1.models.Salary
Salary
p1650
(dp1651
g42
S'San Antonio Spurs'
p1652
sg28
S'NBA'
p1653
sg1618
S'$5,333,000'
p1654
sg56
S'1996-97'
p1655
sba(isrc.gp1.models.Salary
Salary
p1656
(dp1657
g42
S'San Antonio Spurs'
p1658
sg28
S'NBA'
p1659
sg1618
S'$5,333,333'
p1660
sg56
S'1997-98'
p1661
sba(isrc.gp1.models.Salary
Salary
p1662
(dp1663
g42
S'San Antonio Spurs'
p1664
sg28
S'NBA'
p1665
sg1618
S'$5,333,000'
p1666
sg56
S'1998-99'
p1667
sba(isrc.gp1.models.Salary
Salary
p1668
(dp1669
g42
S'San Antonio Spurs'
p1670
sg28
S'NBA'
p1671
sg1618
S'$5,433,333'
p1672
sg56
S'1999-00'
p1673
sba(isrc.gp1.models.Salary
Salary
p1674
(dp1675
g42
S'San Antonio Spurs'
p1676
sg28
S'NBA'
p1677
sg1618
S'$5,300,000'
p1678
sg56
S'2000-01'
p1679
sbasg22
S'F'
p1680
sb.