(isrc.gp1.models.Player
Player
p0
(dp1
S'_experience'
p2
S'NA'
p3
sS'_totals'
p4
(lp5
(isrc.gp1.models.Totals
Totals
p6
(dp7
S'_offensiveRebounds'
p8
g3
sS'_threePointsAttempted'
p9
g3
sS'_fieldGoalsPercentage'
p10
S'.419'
p11
sS'_assist'
p12
S'46'
p13
sS'_threePointsPercentage'
p14
g3
sS'_threePoints'
p15
g3
sS'_points'
p16
S'577'
p17
sS'_position'
p18
S'C'
p19
sS'_freeThrowsPercentage'
p20
S'.658'
p21
sS'_effectiveFieldGoalPercentage'
p22
S'.419'
p23
sS'_league'
p24
S'NBA'
p25
sS'_steals'
p26
g3
sS'_fieldGoalsAttempted'
p27
S'530'
p28
sS'_personalFouls'
p29
S'194'
p30
sS'_freeThrowsAttempted'
p31
S'202'
p32
sS'_totalRebounds'
p33
S'518'
p34
sS'_age'
p35
S'22'
p36
sS'_team'
p37
S'LAL'
p38
sS'_games'
p39
S'80'
p40
sS'_blocks'
p41
g3
sS'_twoPoints'
p42
S'222'
p43
sS'_freeThrows'
p44
S'133'
p45
sS'_twoPointsAttempted'
p46
S'530'
p47
sS'_defensiveRebounds'
p48
g3
sS'_season'
p49
S'1962-63'
p50
sS'_fieldGoals'
p51
S'222'
p52
sS'_turnOvers'
p53
g3
sS'_twoPointsPercentage'
p54
S'.419'
p55
sS'_minutesPlayed'
p56
S'1628'
p57
sS'_gamesStarted'
p58
g3
sba(isrc.gp1.models.Totals
Totals
p59
(dp60
g8
g3
sg9
g3
sg10
S'.423'
p61
sg12
S'41'
p62
sg14
g3
sg15
g3
sg16
S'512'
p63
sg18
g19
sg20
S'.659'
p64
sg22
S'.423'
p65
sg24
S'NBA'
p66
sg26
g3
sg27
S'473'
p67
sg29
S'192'
p68
sg31
S'170'
p69
sg33
S'498'
p70
sg35
S'23'
p71
sg37
S'LAL'
p72
sg39
S'78'
p73
sg41
g3
sg42
S'200'
p74
sg44
S'112'
p75
sg46
S'473'
p76
sg48
g3
sg49
S'1963-64'
p77
sg51
S'200'
p78
sg53
g3
sg54
S'.423'
p79
sg56
S'1459'
p80
sg58
g3
sba(isrc.gp1.models.Totals
Totals
p81
(dp82
g8
g3
sg9
g3
sg10
S'.444'
p83
sg12
S'49'
p84
sg14
g3
sg15
g3
sg16
S'820'
p85
sg18
g19
sg20
S'.697'
p86
sg22
S'.444'
p87
sg24
S'NBA'
p88
sg26
g3
sg27
S'700'
p89
sg29
S'196'
p90
sg31
S'284'
p91
sg33
S'652'
p92
sg35
S'24'
p93
sg37
S'LAL'
p94
sg39
S'80'
p95
sg41
g3
sg42
S'311'
p96
sg44
S'198'
p97
sg46
S'700'
p98
sg48
g3
sg49
S'1964-65'
p99
sg51
S'311'
p100
sg53
g3
sg54
S'.444'
p101
sg56
S'2026'
p102
sg58
g3
sba(isrc.gp1.models.Totals
Totals
p103
(dp104
g8
g3
sg9
g3
sg10
S'.424'
p105
sg12
S'74'
p106
sg14
g3
sg15
g3
sg16
S'972'
p107
sg18
g19
sg20
S'.727'
p108
sg22
S'.424'
p109
sg24
S'NBA'
p110
sg26
g3
sg27
S'927'
p111
sg29
S'232'
p112
sg31
S'256'
p113
sg33
S'735'
p114
sg35
S'25'
p115
sg37
S'LAL'
p116
sg39
S'80'
p117
sg41
g3
sg42
S'393'
p118
sg44
S'186'
p119
sg46
S'927'
p120
sg48
g3
sg49
S'1965-66'
p121
sg51
S'393'
p122
sg53
g3
sg54
S'.424'
p123
sg56
S'2219'
p124
sg58
g3
sba(isrc.gp1.models.Totals
Totals
p125
(dp126
g8
g3
sg9
g3
sg10
S'.425'
p127
sg12
S'170'
p128
sg14
g3
sg15
g3
sg16
S'1203'
p129
sg18
g19
sg20
S'.738'
p130
sg22
S'.425'
p131
sg24
S'NBA'
p132
sg26
g3
sg27
S'1166'
p133
sg29
S'258'
p134
sg31
S'286'
p135
sg33
S'970'
p136
sg35
S'26'
p137
sg37
S'BAL'
p138
sg39
S'81'
p139
sg41
g3
sg42
S'496'
p140
sg44
S'211'
p141
sg46
S'1166'
p142
sg48
g3
sg49
S'1966-67'
p143
sg51
S'496'
p144
sg53
g3
sg54
S'.425'
p145
sg56
S'2938'
p146
sg58
g3
sba(isrc.gp1.models.Totals
Totals
p147
(dp148
g8
g3
sg9
g3
sg10
S'.475'
p149
sg12
S'158'
p150
sg14
g3
sg15
g3
sg16
S'967'
p151
sg18
g19
sg20
S'.724'
p152
sg22
S'.475'
p153
sg24
S'NBA'
p154
sg26
g3
sg27
S'800'
p155
sg29
S'256'
p156
sg31
S'286'
p157
sg33
S'862'
p158
sg35
S'27'
p159
sg37
S'BAL'
p160
sg39
S'78'
p161
sg41
g3
sg42
S'380'
p162
sg44
S'207'
p163
sg46
S'800'
p164
sg48
g3
sg49
S'1967-68'
p165
sg51
S'380'
p166
sg53
g3
sg54
S'.475'
p167
sg56
S'2719'
p168
sg58
g3
sba(isrc.gp1.models.Totals
Totals
p169
(dp170
g8
g3
sg9
g3
sg10
S'.435'
p171
sg12
S'73'
p172
sg14
g3
sg15
g3
sg16
S'575'
p173
sg18
g19
sg20
S'.755'
p174
sg22
S'.435'
p175
sg24
S'NBA'
p176
sg26
g3
sg27
S'527'
p177
sg29
S'168'
p178
sg31
S'155'
p179
sg33
S'510'
p180
sg35
S'28'
p181
sg37
S'BAL'
p182
sg39
S'80'
p183
sg41
g3
sg42
S'229'
p184
sg44
S'117'
p185
sg46
S'527'
p186
sg48
g3
sg49
S'1968-69'
p187
sg51
S'229'
p188
sg53
g3
sg54
S'.435'
p189
sg56
S'1603'
p190
sg58
g3
sba(isrc.gp1.models.Totals
Totals
p191
(dp192
g8
g3
sg9
g3
sg10
S'.469'
p193
sg12
S'47'
p194
sg14
g3
sg15
g3
sg16
S'474'
p195
sg18
g19
sg20
S'.741'
p196
sg22
S'.469'
p197
sg24
S'NBA'
p198
sg26
g3
sg27
S'414'
p199
sg29
S'129'
p200
sg31
S'116'
p201
sg33
S'376'
p202
sg35
S'29'
p203
sg37
S'BAL'
p204
sg39
S'72'
p205
sg41
g3
sg42
S'194'
p206
sg44
S'86'
p207
sg46
S'414'
p208
sg48
g3
sg49
S'1969-70'
p209
sg51
S'194'
p210
sg53
g3
sg54
S'.469'
p211
sg56
S'1163'
p212
sg58
g3
sba(isrc.gp1.models.Totals
Totals
p213
(dp214
g8
g3
sg9
g3
sg10
S'.443'
p215
sg12
S'235'
p216
sg14
g3
sg15
g3
sg16
S'1179'
p217
sg18
g19
sg20
S'.801'
p218
sg22
S'.443'
p219
sg24
S'NBA'
p220
sg26
g3
sg27
S'1095'
p221
sg29
S'258'
p222
sg31
S'261'
p223
sg33
S'907'
p224
sg35
S'30'
p225
sg37
S'POR'
p226
sg39
S'74'
p227
sg41
g3
sg42
S'485'
p228
sg44
S'209'
p229
sg46
S'1095'
p230
sg48
g3
sg49
S'1970-71'
p231
sg51
S'485'
p232
sg53
g3
sg54
S'.443'
p233
sg56
S'2581'
p234
sg58
g3
sba(isrc.gp1.models.Totals
Totals
p235
(dp236
g8
g3
sg9
g3
sg10
S'.460'
p237
sg12
S'46'
p238
sg14
g3
sg15
g3
sg16
S'342'
p239
sg18
g19
sg20
S'.695'
p240
sg22
S'.460'
p241
sg24
S'NBA'
p242
sg26
g3
sg27
S'300'
p243
sg29
S'115'
p244
sg31
S'95'
p245
sg33
S'310'
p246
sg35
S'31'
p247
sg37
S'LAL'
p248
sg39
S'74'
p249
sg41
g3
sg42
S'138'
p250
sg44
S'66'
p251
sg46
S'300'
p252
sg48
g3
sg49
S'1971-72'
p253
sg51
S'138'
p254
sg53
g3
sg54
S'.460'
p255
sg56
S'1081'
p256
sg58
g3
sba(isrc.gp1.models.Totals
Totals
p257
(dp258
g8
g3
sg9
g3
sg10
S'.434'
p259
sg12
S'139'
p260
sg14
g3
sg15
g3
sg16
S'971'
p261
sg18
S'PF-C'
p262
sg20
S'.801'
p263
sg22
S'.434'
p264
sg24
S'NBA'
p265
sg26
g3
sg27
S'969'
p266
sg29
S'199'
p267
sg31
S'161'
p268
sg33
S'777'
p269
sg35
S'32'
p270
sg37
S'TOT'
p271
sg39
S'79'
p272
sg41
g3
sg42
S'421'
p273
sg44
S'129'
p274
sg46
S'969'
p275
sg48
g3
sg49
S'1972-73'
p276
sg51
S'421'
p277
sg53
g3
sg54
S'.434'
p278
sg56
S'2600'
p279
sg58
g3
sba(isrc.gp1.models.Totals
Totals
p280
(dp281
g8
g3
sg9
g3
sg10
S'.275'
p282
sg12
S'3'
p283
sg14
g3
sg15
g3
sg16
S'26'
p284
sg18
g19
sg20
S'.800'
p285
sg22
S'.275'
p286
sg24
S'NBA'
p287
sg26
g3
sg27
S'40'
p288
sg29
S'13'
p289
sg31
S'5'
p290
sg33
S'33'
p291
sg35
S'32'
p292
sg37
S'LAL'
p293
sg39
S'10'
p294
sg41
g3
sg42
S'11'
p295
sg44
S'4'
p296
sg46
S'40'
p297
sg48
g3
sg49
S'1972-73'
p298
sg51
S'11'
p299
sg53
g3
sg54
S'.275'
p300
sg56
S'156'
p301
sg58
g3
sba(isrc.gp1.models.Totals
Totals
p302
(dp303
g8
g3
sg9
g3
sg10
S'.441'
p304
sg12
S'136'
p305
sg14
g3
sg15
g3
sg16
S'945'
p306
sg18
S'PF'
p307
sg20
S'.801'
p308
sg22
S'.441'
p309
sg24
S'NBA'
p310
sg26
g3
sg27
S'929'
p311
sg29
S'186'
p312
sg31
S'156'
p313
sg33
S'744'
p314
sg35
S'32'
p315
sg37
S'PHI'
p316
sg39
S'69'
p317
sg41
g3
sg42
S'410'
p318
sg44
S'125'
p319
sg46
S'929'
p320
sg48
g3
sg49
S'1972-73'
p321
sg51
S'410'
p322
sg53
g3
sg54
S'.441'
p323
sg56
S'2444'
p324
sg58
g3
sba(isrc.gp1.models.Totals
Totals
p325
(dp326
g8
S'292'
p327
sg9
g3
sg10
S'.452'
p328
sg12
S'189'
p329
sg14
g3
sg15
g3
sg16
S'799'
p330
sg18
g19
sg20
S'.750'
p331
sg22
S'.452'
p332
sg24
S'NBA'
p333
sg26
S'86'
p334
sg27
S'722'
p335
sg29
S'224'
p336
sg31
S'196'
p337
sg33
S'890'
p338
sg35
S'33'
p339
sg37
S'PHI'
p340
sg39
S'81'
p341
sg41
S'87'
p342
sg42
S'326'
p343
sg44
S'147'
p344
sg46
S'722'
p345
sg48
S'598'
p346
sg49
S'1973-74'
p347
sg51
S'326'
p348
sg53
g3
sg54
S'.452'
p349
sg56
S'2831'
p350
sg58
g3
sba(isrc.gp1.models.Totals
Totals
p351
(dp352
g8
S'195'
p353
sg9
g3
sg10
S'.461'
p354
sg12
S'117'
p355
sg14
g3
sg15
g3
sg16
S'646'
p356
sg18
S'PF'
p357
sg20
S'.727'
p358
sg22
S'.461'
p359
sg24
S'NBA'
p360
sg26
S'44'
p361
sg27
S'623'
p362
sg29
S'178'
p363
sg31
S'99'
p364
sg33
S'582'
p365
sg35
S'34'
p366
sg37
S'PHI'
p367
sg39
S'82'
p368
sg41
S'55'
p369
sg42
S'287'
p370
sg44
S'72'
p371
sg46
S'623'
p372
sg48
S'387'
p373
sg49
S'1974-75'
p374
sg51
S'287'
p375
sg53
g3
sg54
S'.461'
p376
sg56
S'2183'
p377
sg58
g3
sba(isrc.gp1.models.Totals
Totals
p378
(dp379
g8
S'47'
p380
sg9
g3
sg10
S'.462'
p381
sg12
S'21'
p382
sg14
g3
sg15
g3
sg16
S'139'
p383
sg18
g19
sg20
S'.607'
p384
sg22
S'.462'
p385
sg24
S'NBA'
p386
sg26
S'16'
p387
sg27
S'132'
p388
sg29
S'62'
p389
sg31
S'28'
p390
sg33
S'122'
p391
sg35
S'35'
p392
sg37
S'PHI'
p393
sg39
S'29'
p394
sg41
S'9'
p395
sg42
S'61'
p396
sg44
S'17'
p397
sg46
S'132'
p398
sg48
S'75'
p399
sg49
S'1975-76'
p400
sg51
S'61'
p401
sg53
g3
sg54
S'.462'
p402
sg56
S'489'
p403
sg58
g3
sbasS'_college'
p404
S"St. John's University"
p405
sS'_toYear'
p406
S'1976'
p407
sS'_height'
p408
S'6-10'
p409
sS'_active'
p410
I00
sS'_shootingHand'
p411
VRight
p412
sS'_name'
p413
S'Leroy Ellis'
p414
sS'_per100Possessions'
p415
(lp416
(isrc.gp1.models.Per100Possession
Per100Possession
p417
(dp418
g8
S'4.6'
p419
sg9
g3
sg10
S'.452'
p420
sS'_offensiveRating'
p421
g3
sg12
S'3.0'
p422
sg14
g3
sg15
g3
sg16
S'12.5'
p423
sg18
g19
sS'_defensiveRating'
p424
S'97'
p425
sg20
S'.750'
p426
sg24
S'NBA'
p427
sg26
S'1.3'
p428
sg27
S'11.3'
p429
sg29
S'3.5'
p430
sg31
S'3.1'
p431
sg33
S'13.9'
p432
sg35
S'33'
p433
sg37
S'PHI'
p434
sg39
S'81'
p435
sg41
S'1.4'
p436
sg42
S'5.1'
p437
sg44
S'2.3'
p438
sg46
S'11.3'
p439
sg48
S'9.4'
p440
sg49
S'1973-74'
p441
sg51
S'5.1'
p442
sg53
g3
sg54
S'.452'
p443
sg56
S'2831'
p444
sg58
g3
sba(isrc.gp1.models.Per100Possession
Per100Possession
p445
(dp446
g8
S'4.1'
p447
sg9
g3
sg10
S'.461'
p448
sg421
g3
sg12
S'2.5'
p449
sg14
g3
sg15
g3
sg16
S'13.7'
p450
sg18
S'PF'
p451
sg424
S'98'
p452
sg20
S'.727'
p453
sg24
S'NBA'
p454
sg26
S'0.9'
p455
sg27
S'13.2'
p456
sg29
S'3.8'
p457
sg31
S'2.1'
p458
sg33
S'12.4'
p459
sg35
S'34'
p460
sg37
S'PHI'
p461
sg39
S'82'
p462
sg41
S'1.2'
p463
sg42
S'6.1'
p464
sg44
S'1.5'
p465
sg46
S'13.2'
p466
sg48
S'8.2'
p467
sg49
S'1974-75'
p468
sg51
S'6.1'
p469
sg53
g3
sg54
S'.461'
p470
sg56
S'2183'
p471
sg58
g3
sba(isrc.gp1.models.Per100Possession
Per100Possession
p472
(dp473
g8
S'4.3'
p474
sg9
g3
sg10
S'.462'
p475
sg421
g3
sg12
S'1.9'
p476
sg14
g3
sg15
g3
sg16
S'12.7'
p477
sg18
g19
sg424
S'98'
p478
sg20
S'.607'
p479
sg24
S'NBA'
p480
sg26
S'1.5'
p481
sg27
S'12.0'
p482
sg29
S'5.7'
p483
sg31
S'2.6'
p484
sg33
S'11.1'
p485
sg35
S'35'
p486
sg37
S'PHI'
p487
sg39
S'29'
p488
sg41
S'0.8'
p489
sg42
S'5.6'
p490
sg44
S'1.6'
p491
sg46
S'12.0'
p492
sg48
S'6.8'
p493
sg49
S'1975-76'
p494
sg51
S'5.6'
p495
sg53
g3
sg54
S'.462'
p496
sg56
S'489'
p497
sg58
g3
sbasS'_advanced'
p498
(lp499
(isrc.gp1.models.Advanced
Advanced
p500
(dp501
S'_offensiveReboundPercentage'
p502
g3
sS'_turnOverPercentage'
p503
g3
sS'_winSharesPer48Minutes'
p504
S'.067'
p505
sS'_stealPercentage'
p506
g3
sS'_usagePercentage'
p507
g3
sS'_totalReboundsPercentage'
p508
g3
sS'_defensiveBoxPlusMinus'
p509
g3
sg18
g19
sS'_valueOverReplacementPlayer'
p510
g3
sS'_trueShootingPercentage'
p511
S'.466'
p512
sS'_defensiveReboundPercentage'
p513
g3
sS'_freeThrowsAttempRate'
p514
S'.381'
p515
sS'_threePointsAttempRate'
p516
g3
sg24
S'NBA'
p517
sS'_offensiveBoxPlusMinues'
p518
g3
sS'_assistPercentage'
p519
g3
sS'_defensiveWinShares'
p520
S'1.9'
p521
sg35
S'22'
p522
sg37
S'LAL'
p523
sg39
S'80'
p524
sS'_blockPercentage'
p525
g3
sS'_playerEfficiencyRating'
p526
S'11.4'
p527
sS'_offensiveWinShares'
p528
S'0.4'
p529
sg56
S'1628'
p530
sS'_boxPlusMinus'
p531
g3
sg49
S'1962-63'
p532
sS'_winShares'
p533
S'2.3'
p534
sba(isrc.gp1.models.Advanced
Advanced
p535
(dp536
g502
g3
sg503
g3
sg504
S'.053'
p537
sg506
g3
sg507
g3
sg508
g3
sg509
g3
sg18
g19
sg510
g3
sg511
S'.467'
p538
sg513
g3
sg514
S'.359'
p539
sg516
g3
sg24
S'NBA'
p540
sg518
g3
sg519
g3
sg520
S'1.0'
p541
sg35
S'23'
p542
sg37
S'LAL'
p543
sg39
S'78'
p544
sg525
g3
sg526
S'12.1'
p545
sg528
S'0.6'
p546
sg56
S'1459'
p547
sg531
g3
sg49
S'1963-64'
p548
sg533
S'1.6'
p549
sba(isrc.gp1.models.Advanced
Advanced
p550
(dp551
g502
g3
sg503
g3
sg504
S'.090'
p552
sg506
g3
sg507
g3
sg508
g3
sg509
g3
sg18
g19
sg510
g3
sg511
S'.497'
p553
sg513
g3
sg514
S'.406'
p554
sg516
g3
sg24
S'NBA'
p555
sg518
g3
sg519
S'3.4'
p556
sg520
S'1.3'
p557
sg35
S'24'
p558
sg37
S'LAL'
p559
sg39
S'80'
p560
sg525
g3
sg526
S'14.2'
p561
sg528
S'2.5'
p562
sg56
S'2026'
p563
sg531
g3
sg49
S'1964-65'
p564
sg533
S'3.8'
p565
sba(isrc.gp1.models.Advanced
Advanced
p566
(dp567
g502
g3
sg503
g3
sg504
S'.062'
p568
sg506
g3
sg507
g3
sg508
g3
sg509
g3
sg18
g19
sg510
g3
sg511
S'.467'
p569
sg513
g3
sg514
S'.276'
p570
sg516
g3
sg24
S'NBA'
p571
sg518
g3
sg519
S'4.4'
p572
sg520
S'1.9'
p573
sg35
S'25'
p574
sg37
S'LAL'
p575
sg39
S'80'
p576
sg525
g3
sg526
S'13.0'
p577
sg528
S'0.9'
p578
sg56
S'2219'
p579
sg531
g3
sg49
S'1965-66'
p580
sg533
S'2.8'
p581
sba(isrc.gp1.models.Advanced
Advanced
p582
(dp583
g502
g3
sg503
g3
sg504
S'.052'
p584
sg506
g3
sg507
g3
sg508
g3
sg509
g3
sg18
g19
sg510
g3
sg511
S'.466'
p585
sg513
g3
sg514
S'.245'
p586
sg516
g3
sg24
S'NBA'
p587
sg518
g3
sg519
S'7.5'
p588
sg520
S'2.5'
p589
sg35
S'26'
p590
sg37
S'BAL'
p591
sg39
S'81'
p592
sg525
g3
sg526
S'13.6'
p593
sg528
S'0.7'
p594
sg56
S'2938'
p595
sg531
g3
sg49
S'1966-67'
p596
sg533
S'3.2'
p597
sba(isrc.gp1.models.Advanced
Advanced
p598
(dp599
g502
g3
sg503
g3
sg504
S'.114'
p600
sg506
g3
sg507
g3
sg508
g3
sg509
g3
sg18
g19
sg510
g3
sg511
S'.522'
p601
sg513
g3
sg514
S'.358'
p602
sg516
g3
sg24
S'NBA'
p603
sg518
g3
sg519
S'7.3'
p604
sg520
S'3.3'
p605
sg35
S'27'
p606
sg37
S'BAL'
p607
sg39
S'78'
p608
sg525
g3
sg526
S'13.7'
p609
sg528
S'3.2'
p610
sg56
S'2719'
p611
sg531
g3
sg49
S'1967-68'
p612
sg533
S'6.4'
p613
sba(isrc.gp1.models.Advanced
Advanced
p614
(dp615
g502
g3
sg503
g3
sg504
S'.108'
p616
sg506
g3
sg507
g3
sg508
g3
sg509
g3
sg18
g19
sg510
g3
sg511
S'.483'
p617
sg513
g3
sg514
S'.294'
p618
sg516
g3
sg24
S'NBA'
p619
sg518
g3
sg519
S'5.6'
p620
sg520
S'2.6'
p621
sg35
S'28'
p622
sg37
S'BAL'
p623
sg39
S'80'
p624
sg525
g3
sg526
S'12.8'
p625
sg528
S'1.0'
p626
sg56
S'1603'
p627
sg531
g3
sg49
S'1968-69'
p628
sg533
S'3.6'
p629
sba(isrc.gp1.models.Advanced
Advanced
p630
(dp631
g502
g3
sg503
g3
sg504
S'.105'
p632
sg506
g3
sg507
g3
sg508
g3
sg509
g3
sg18
g19
sg510
g3
sg511
S'.510'
p633
sg513
g3
sg514
S'.280'
p634
sg516
g3
sg24
S'NBA'
p635
sg518
g3
sg519
S'4.9'
p636
sg520
S'1.6'
p637
sg35
S'29'
p638
sg37
S'BAL'
p639
sg39
S'72'
p640
sg525
g3
sg526
S'13.3'
p641
sg528
S'0.9'
p642
sg56
S'1163'
p643
sg531
g3
sg49
S'1969-70'
p644
sg533
S'2.5'
p645
sba(isrc.gp1.models.Advanced
Advanced
p646
(dp647
g502
g3
sg503
g3
sg504
S'.087'
p648
sg506
g3
sg507
g3
sg508
S'15.3'
p649
sg509
g3
sg18
g19
sg510
g3
sg511
S'.487'
p650
sg513
g3
sg514
S'.238'
p651
sg516
g3
sg24
S'NBA'
p652
sg518
g3
sg519
S'12.1'
p653
sg520
S'3.0'
p654
sg35
S'30'
p655
sg37
S'POR'
p656
sg39
S'74'
p657
sg525
g3
sg526
S'15.6'
p658
sg528
S'1.7'
p659
sg56
S'2581'
p660
sg531
g3
sg49
S'1970-71'
p661
sg533
S'4.7'
p662
sba(isrc.gp1.models.Advanced
Advanced
p663
(dp664
g502
g3
sg503
g3
sg504
S'.102'
p665
sg506
g3
sg507
g3
sg508
S'12.7'
p666
sg509
g3
sg18
g19
sg510
g3
sg511
S'.500'
p667
sg513
g3
sg514
S'.317'
p668
sg516
g3
sg24
S'NBA'
p669
sg518
g3
sg519
S'4.9'
p670
sg520
S'1.6'
p671
sg35
S'31'
p672
sg37
S'LAL'
p673
sg39
S'74'
p674
sg525
g3
sg526
S'10.9'
p675
sg528
S'0.6'
p676
sg56
S'1081'
p677
sg531
g3
sg49
S'1971-72'
p678
sg533
S'2.3'
p679
sba(isrc.gp1.models.Advanced
Advanced
p680
(dp681
g502
g3
sg503
g3
sg504
S'.038'
p682
sg506
g3
sg507
g3
sg508
S'13.3'
p683
sg509
g3
sg18
S'PF-C'
p684
sg510
g3
sg511
S'.467'
p685
sg513
g3
sg514
S'.166'
p686
sg516
g3
sg24
S'NBA'
p687
sg518
g3
sg519
S'7.5'
p688
sg520
S'1.6'
p689
sg35
S'32'
p690
sg37
S'TOT'
p691
sg39
S'79'
p692
sg525
g3
sg526
S'13.1'
p693
sg528
S'0.4'
p694
sg56
S'2600'
p695
sg531
g3
sg49
S'1972-73'
p696
sg533
S'2.1'
p697
sba(isrc.gp1.models.Advanced
Advanced
p698
(dp699
g502
g3
sg503
g3
sg504
S'-0.061'
p700
sg506
g3
sg507
g3
sg508
S'9.6'
p701
sg509
g3
sg18
g19
sg510
g3
sg511
S'.308'
p702
sg513
g3
sg514
S'.125'
p703
sg516
g3
sg24
S'NBA'
p704
sg518
g3
sg519
S'2.2'
p705
sg520
S'0.2'
p706
sg35
S'32'
p707
sg37
S'LAL'
p708
sg39
S'10'
p709
sg525
g3
sg526
S'3.4'
p710
sg528
S'-0.4'
p711
sg56
S'156'
p712
sg531
g3
sg49
S'1972-73'
p713
sg533
S'-0.2'
p714
sba(isrc.gp1.models.Advanced
Advanced
p715
(dp716
g502
g3
sg503
g3
sg504
S'.044'
p717
sg506
g3
sg507
g3
sg508
S'13.6'
p718
sg509
g3
sg18
S'PF'
p719
sg510
g3
sg511
S'.474'
p720
sg513
g3
sg514
S'.168'
p721
sg516
g3
sg24
S'NBA'
p722
sg518
g3
sg519
S'7.8'
p723
sg520
S'1.5'
p724
sg35
S'32'
p725
sg37
S'PHI'
p726
sg39
S'69'
p727
sg525
g3
sg526
S'13.8'
p728
sg528
S'0.8'
p729
sg56
S'2444'
p730
sg531
g3
sg49
S'1972-73'
p731
sg533
S'2.3'
p732
sba(isrc.gp1.models.Advanced
Advanced
p733
(dp734
g502
S'9.5'
p735
sg503
g3
sg504
S'.099'
p736
sg506
S'1.3'
p737
sg507
g3
sg508
S'15.1'
p738
sg509
S'2.3'
p739
sg18
g19
sg510
S'1.8'
p740
sg511
S'.494'
p741
sg513
S'21.2'
p742
sg514
S'.271'
p743
sg516
g3
sg24
S'NBA'
p744
sg518
S'-1.8'
p745
sg519
S'9.2'
p746
sg520
S'3.4'
p747
sg35
S'33'
p748
sg37
S'PHI'
p749
sg39
S'81'
p750
sg525
S'1.6'
p751
sg526
S'13.2'
p752
sg528
S'2.5'
p753
sg56
S'2831'
p754
sg531
S'0.5'
p755
sg49
S'1973-74'
p756
sg533
S'5.8'
p757
sba(isrc.gp1.models.Advanced
Advanced
p758
(dp759
g502
S'9.0'
p760
sg503
g3
sg504
S'.094'
p761
sg506
S'0.9'
p762
sg507
g3
sg508
S'13.5'
p763
sg509
S'0.7'
p764
sg18
S'PF'
p765
sg510
S'0.2'
p766
sg511
S'.485'
p767
sg513
S'18.1'
p768
sg514
S'.159'
p769
sg516
g3
sg24
S'NBA'
p770
sg518
S'-2.4'
p771
sg519
S'7.6'
p772
sg520
S'2.2'
p773
sg35
S'34'
p774
sg37
S'PHI'
p775
sg39
S'82'
p776
sg525
S'1.3'
p777
sg526
S'12.3'
p778
sg528
S'2.1'
p779
sg56
S'2183'
p780
sg531
S'-1.6'
p781
sg49
S'1974-75'
p782
sg533
S'4.3'
p783
sba(isrc.gp1.models.Advanced
Advanced
p784
(dp785
g502
S'9.3'
p786
sg503
g3
sg504
S'.085'
p787
sg506
S'1.5'
p788
sg507
g3
sg508
S'12.1'
p789
sg509
S'0.1'
p790
sg18
g19
sg510
S'-0.1'
p791
sg511
S'.482'
p792
sg513
S'14.8'
p793
sg514
S'.212'
p794
sg516
g3
sg24
S'NBA'
p795
sg518
S'-3.0'
p796
sg519
S'5.7'
p797
sg520
S'0.5'
p798
sg35
S'35'
p799
sg37
S'PHI'
p800
sg39
S'29'
p801
sg525
S'0.9'
p802
sg526
S'10.9'
p803
sg528
S'0.3'
p804
sg56
S'489'
p805
sg531
S'-3.0'
p806
sg49
S'1975-76'
p807
sg533
S'0.9'
p808
sbasS'_per36Minutes'
p809
(lp810
(isrc.gp1.models.Per36Minutes
Per36Minutes
p811
(dp812
g8
g3
sg9
g3
sg10
S'.419'
p813
sg12
S'1.0'
p814
sg14
g3
sg15
g3
sg16
S'12.8'
p815
sg18
g19
sg20
S'.658'
p816
sg24
S'NBA'
p817
sg26
g3
sg27
S'11.7'
p818
sg29
S'4.3'
p819
sg31
S'4.5'
p820
sg33
S'11.5'
p821
sg35
S'22'
p822
sg37
S'LAL'
p823
sg39
S'80'
p824
sg41
g3
sg42
S'4.9'
p825
sg44
S'2.9'
p826
sg46
S'11.7'
p827
sg48
g3
sg49
S'1962-63'
p828
sg51
S'4.9'
p829
sg53
g3
sg54
S'.419'
p830
sg56
S'1628'
p831
sg58
g3
sba(isrc.gp1.models.Per36Minutes
Per36Minutes
p832
(dp833
g8
g3
sg9
g3
sg10
S'.423'
p834
sg12
S'1.0'
p835
sg14
g3
sg15
g3
sg16
S'12.6'
p836
sg18
g19
sg20
S'.659'
p837
sg24
S'NBA'
p838
sg26
g3
sg27
S'11.7'
p839
sg29
S'4.7'
p840
sg31
S'4.2'
p841
sg33
S'12.3'
p842
sg35
S'23'
p843
sg37
S'LAL'
p844
sg39
S'78'
p845
sg41
g3
sg42
S'4.9'
p846
sg44
S'2.8'
p847
sg46
S'11.7'
p848
sg48
g3
sg49
S'1963-64'
p849
sg51
S'4.9'
p850
sg53
g3
sg54
S'.423'
p851
sg56
S'1459'
p852
sg58
g3
sba(isrc.gp1.models.Per36Minutes
Per36Minutes
p853
(dp854
g8
g3
sg9
g3
sg10
S'.444'
p855
sg12
S'0.9'
p856
sg14
g3
sg15
g3
sg16
S'14.6'
p857
sg18
g19
sg20
S'.697'
p858
sg24
S'NBA'
p859
sg26
g3
sg27
S'12.4'
p860
sg29
S'3.5'
p861
sg31
S'5.0'
p862
sg33
S'11.6'
p863
sg35
S'24'
p864
sg37
S'LAL'
p865
sg39
S'80'
p866
sg41
g3
sg42
S'5.5'
p867
sg44
S'3.5'
p868
sg46
S'12.4'
p869
sg48
g3
sg49
S'1964-65'
p870
sg51
S'5.5'
p871
sg53
g3
sg54
S'.444'
p872
sg56
S'2026'
p873
sg58
g3
sba(isrc.gp1.models.Per36Minutes
Per36Minutes
p874
(dp875
g8
g3
sg9
g3
sg10
S'.424'
p876
sg12
S'1.2'
p877
sg14
g3
sg15
g3
sg16
S'15.8'
p878
sg18
g19
sg20
S'.727'
p879
sg24
S'NBA'
p880
sg26
g3
sg27
S'15.0'
p881
sg29
S'3.8'
p882
sg31
S'4.2'
p883
sg33
S'11.9'
p884
sg35
S'25'
p885
sg37
S'LAL'
p886
sg39
S'80'
p887
sg41
g3
sg42
S'6.4'
p888
sg44
S'3.0'
p889
sg46
S'15.0'
p890
sg48
g3
sg49
S'1965-66'
p891
sg51
S'6.4'
p892
sg53
g3
sg54
S'.424'
p893
sg56
S'2219'
p894
sg58
g3
sba(isrc.gp1.models.Per36Minutes
Per36Minutes
p895
(dp896
g8
g3
sg9
g3
sg10
S'.425'
p897
sg12
S'2.1'
p898
sg14
g3
sg15
g3
sg16
S'14.7'
p899
sg18
g19
sg20
S'.738'
p900
sg24
S'NBA'
p901
sg26
g3
sg27
S'14.3'
p902
sg29
S'3.2'
p903
sg31
S'3.5'
p904
sg33
S'11.9'
p905
sg35
S'26'
p906
sg37
S'BAL'
p907
sg39
S'81'
p908
sg41
g3
sg42
S'6.1'
p909
sg44
S'2.6'
p910
sg46
S'14.3'
p911
sg48
g3
sg49
S'1966-67'
p912
sg51
S'6.1'
p913
sg53
g3
sg54
S'.425'
p914
sg56
S'2938'
p915
sg58
g3
sba(isrc.gp1.models.Per36Minutes
Per36Minutes
p916
(dp917
g8
g3
sg9
g3
sg10
S'.475'
p918
sg12
S'2.1'
p919
sg14
g3
sg15
g3
sg16
S'12.8'
p920
sg18
g19
sg20
S'.724'
p921
sg24
S'NBA'
p922
sg26
g3
sg27
S'10.6'
p923
sg29
S'3.4'
p924
sg31
S'3.8'
p925
sg33
S'11.4'
p926
sg35
S'27'
p927
sg37
S'BAL'
p928
sg39
S'78'
p929
sg41
g3
sg42
S'5.0'
p930
sg44
S'2.7'
p931
sg46
S'10.6'
p932
sg48
g3
sg49
S'1967-68'
p933
sg51
S'5.0'
p934
sg53
g3
sg54
S'.475'
p935
sg56
S'2719'
p936
sg58
g3
sba(isrc.gp1.models.Per36Minutes
Per36Minutes
p937
(dp938
g8
g3
sg9
g3
sg10
S'.435'
p939
sg12
S'1.6'
p940
sg14
g3
sg15
g3
sg16
S'12.9'
p941
sg18
g19
sg20
S'.755'
p942
sg24
S'NBA'
p943
sg26
g3
sg27
S'11.8'
p944
sg29
S'3.8'
p945
sg31
S'3.5'
p946
sg33
S'11.5'
p947
sg35
S'28'
p948
sg37
S'BAL'
p949
sg39
S'80'
p950
sg41
g3
sg42
S'5.1'
p951
sg44
S'2.6'
p952
sg46
S'11.8'
p953
sg48
g3
sg49
S'1968-69'
p954
sg51
S'5.1'
p955
sg53
g3
sg54
S'.435'
p956
sg56
S'1603'
p957
sg58
g3
sba(isrc.gp1.models.Per36Minutes
Per36Minutes
p958
(dp959
g8
g3
sg9
g3
sg10
S'.469'
p960
sg12
S'1.5'
p961
sg14
g3
sg15
g3
sg16
S'14.7'
p962
sg18
g19
sg20
S'.741'
p963
sg24
S'NBA'
p964
sg26
g3
sg27
S'12.8'
p965
sg29
S'4.0'
p966
sg31
S'3.6'
p967
sg33
S'11.6'
p968
sg35
S'29'
p969
sg37
S'BAL'
p970
sg39
S'72'
p971
sg41
g3
sg42
S'6.0'
p972
sg44
S'2.7'
p973
sg46
S'12.8'
p974
sg48
g3
sg49
S'1969-70'
p975
sg51
S'6.0'
p976
sg53
g3
sg54
S'.469'
p977
sg56
S'1163'
p978
sg58
g3
sba(isrc.gp1.models.Per36Minutes
Per36Minutes
p979
(dp980
g8
g3
sg9
g3
sg10
S'.443'
p981
sg12
S'3.3'
p982
sg14
g3
sg15
g3
sg16
S'16.4'
p983
sg18
g19
sg20
S'.801'
p984
sg24
S'NBA'
p985
sg26
g3
sg27
S'15.3'
p986
sg29
S'3.6'
p987
sg31
S'3.6'
p988
sg33
S'12.7'
p989
sg35
S'30'
p990
sg37
S'POR'
p991
sg39
S'74'
p992
sg41
g3
sg42
S'6.8'
p993
sg44
S'2.9'
p994
sg46
S'15.3'
p995
sg48
g3
sg49
S'1970-71'
p996
sg51
S'6.8'
p997
sg53
g3
sg54
S'.443'
p998
sg56
S'2581'
p999
sg58
g3
sba(isrc.gp1.models.Per36Minutes
Per36Minutes
p1000
(dp1001
g8
g3
sg9
g3
sg10
S'.460'
p1002
sg12
S'1.5'
p1003
sg14
g3
sg15
g3
sg16
S'11.4'
p1004
sg18
g19
sg20
S'.695'
p1005
sg24
S'NBA'
p1006
sg26
g3
sg27
S'10.0'
p1007
sg29
S'3.8'
p1008
sg31
S'3.2'
p1009
sg33
S'10.3'
p1010
sg35
S'31'
p1011
sg37
S'LAL'
p1012
sg39
S'74'
p1013
sg41
g3
sg42
S'4.6'
p1014
sg44
S'2.2'
p1015
sg46
S'10.0'
p1016
sg48
g3
sg49
S'1971-72'
p1017
sg51
S'4.6'
p1018
sg53
g3
sg54
S'.460'
p1019
sg56
S'1081'
p1020
sg58
g3
sba(isrc.gp1.models.Per36Minutes
Per36Minutes
p1021
(dp1022
g8
g3
sg9
g3
sg10
S'.434'
p1023
sg12
S'1.9'
p1024
sg14
g3
sg15
g3
sg16
S'13.4'
p1025
sg18
S'PF-C'
p1026
sg20
S'.801'
p1027
sg24
S'NBA'
p1028
sg26
g3
sg27
S'13.4'
p1029
sg29
S'2.8'
p1030
sg31
S'2.2'
p1031
sg33
S'10.8'
p1032
sg35
S'32'
p1033
sg37
S'TOT'
p1034
sg39
S'79'
p1035
sg41
g3
sg42
S'5.8'
p1036
sg44
S'1.8'
p1037
sg46
S'13.4'
p1038
sg48
g3
sg49
S'1972-73'
p1039
sg51
S'5.8'
p1040
sg53
g3
sg54
S'.434'
p1041
sg56
S'2600'
p1042
sg58
g3
sba(isrc.gp1.models.Per36Minutes
Per36Minutes
p1043
(dp1044
g8
g3
sg9
g3
sg10
S'.275'
p1045
sg12
S'0.7'
p1046
sg14
g3
sg15
g3
sg16
S'6.0'
p1047
sg18
g19
sg20
S'.800'
p1048
sg24
S'NBA'
p1049
sg26
g3
sg27
S'9.2'
p1050
sg29
S'3.0'
p1051
sg31
S'1.2'
p1052
sg33
S'7.6'
p1053
sg35
S'32'
p1054
sg37
S'LAL'
p1055
sg39
S'10'
p1056
sg41
g3
sg42
S'2.5'
p1057
sg44
S'0.9'
p1058
sg46
S'9.2'
p1059
sg48
g3
sg49
S'1972-73'
p1060
sg51
S'2.5'
p1061
sg53
g3
sg54
S'.275'
p1062
sg56
S'156'
p1063
sg58
g3
sba(isrc.gp1.models.Per36Minutes
Per36Minutes
p1064
(dp1065
g8
g3
sg9
g3
sg10
S'.441'
p1066
sg12
S'2.0'
p1067
sg14
g3
sg15
g3
sg16
S'13.9'
p1068
sg18
S'PF'
p1069
sg20
S'.801'
p1070
sg24
S'NBA'
p1071
sg26
g3
sg27
S'13.7'
p1072
sg29
S'2.7'
p1073
sg31
S'2.3'
p1074
sg33
S'11.0'
p1075
sg35
S'32'
p1076
sg37
S'PHI'
p1077
sg39
S'69'
p1078
sg41
g3
sg42
S'6.0'
p1079
sg44
S'1.8'
p1080
sg46
S'13.7'
p1081
sg48
g3
sg49
S'1972-73'
p1082
sg51
S'6.0'
p1083
sg53
g3
sg54
S'.441'
p1084
sg56
S'2444'
p1085
sg58
g3
sba(isrc.gp1.models.Per36Minutes
Per36Minutes
p1086
(dp1087
g8
S'3.7'
p1088
sg9
g3
sg10
S'.452'
p1089
sg12
S'2.4'
p1090
sg14
g3
sg15
g3
sg16
S'10.2'
p1091
sg18
g19
sg20
S'.750'
p1092
sg24
S'NBA'
p1093
sg26
S'1.1'
p1094
sg27
S'9.2'
p1095
sg29
S'2.8'
p1096
sg31
S'2.5'
p1097
sg33
S'11.3'
p1098
sg35
S'33'
p1099
sg37
S'PHI'
p1100
sg39
S'81'
p1101
sg41
S'1.1'
p1102
sg42
S'4.1'
p1103
sg44
S'1.9'
p1104
sg46
S'9.2'
p1105
sg48
S'7.6'
p1106
sg49
S'1973-74'
p1107
sg51
S'4.1'
p1108
sg53
g3
sg54
S'.452'
p1109
sg56
S'2831'
p1110
sg58
g3
sba(isrc.gp1.models.Per36Minutes
Per36Minutes
p1111
(dp1112
g8
S'3.2'
p1113
sg9
g3
sg10
S'.461'
p1114
sg12
S'1.9'
p1115
sg14
g3
sg15
g3
sg16
S'10.7'
p1116
sg18
S'PF'
p1117
sg20
S'.727'
p1118
sg24
S'NBA'
p1119
sg26
S'0.7'
p1120
sg27
S'10.3'
p1121
sg29
S'2.9'
p1122
sg31
S'1.6'
p1123
sg33
S'9.6'
p1124
sg35
S'34'
p1125
sg37
S'PHI'
p1126
sg39
S'82'
p1127
sg41
S'0.9'
p1128
sg42
S'4.7'
p1129
sg44
S'1.2'
p1130
sg46
S'10.3'
p1131
sg48
S'6.4'
p1132
sg49
S'1974-75'
p1133
sg51
S'4.7'
p1134
sg53
g3
sg54
S'.461'
p1135
sg56
S'2183'
p1136
sg58
g3
sba(isrc.gp1.models.Per36Minutes
Per36Minutes
p1137
(dp1138
g8
S'3.5'
p1139
sg9
g3
sg10
S'.462'
p1140
sg12
S'1.5'
p1141
sg14
g3
sg15
g3
sg16
S'10.2'
p1142
sg18
g19
sg20
S'.607'
p1143
sg24
S'NBA'
p1144
sg26
S'1.2'
p1145
sg27
S'9.7'
p1146
sg29
S'4.6'
p1147
sg31
S'2.1'
p1148
sg33
S'9.0'
p1149
sg35
S'35'
p1150
sg37
S'PHI'
p1151
sg39
S'29'
p1152
sg41
S'0.7'
p1153
sg42
S'4.5'
p1154
sg44
S'1.3'
p1155
sg46
S'9.7'
p1156
sg48
S'5.5'
p1157
sg49
S'1975-76'
p1158
sg51
S'4.5'
p1159
sg53
g3
sg54
S'.462'
p1160
sg56
S'489'
p1161
sg58
g3
sbasS'_fromYear'
p1162
S'1963'
p1163
sS'_url'
p1164
S'http://www.basketball-reference.com/players/e/ellisle01.html'
p1165
sS'_perGame'
p1166
(isrc.gp1.models.PerGame
PerGame
p1167
(dp1168
g8
S'1.6'
p1169
sg9
g3
sg10
S'.462'
p1170
sS'_effectiveFieldGalPercentage'
p1171
S'.462'
p1172
sg12
S'0.7'
p1173
sg14
g3
sg15
g3
sg16
S'4.8'
p1174
sg18
g19
sg20
S'.607'
p1175
sg24
S'NBA'
p1176
sg26
S'0.6'
p1177
sg29
S'2.1'
p1178
sS'_fieldGoalsttempted'
p1179
S'4.6'
p1180
sg31
S'1.0'
p1181
sg33
S'4.2'
p1182
sg35
S'35'
p1183
sg37
S'PHI'
p1184
sg39
S'29'
p1185
sg41
S'0.3'
p1186
sg42
S'2.1'
p1187
sg44
S'0.6'
p1188
sg46
S'4.6'
p1189
sg48
S'2.6'
p1190
sg49
S'1975-76'
p1191
sg51
S'2.1'
p1192
sg53
g3
sg54
S'.462'
p1193
sg56
S'16.9'
p1194
sg58
g3
sbsS'_weight'
p1195
S'210'
p1196
sS'_dob'
p1197
S'10-3-1940'
p1198
sS'_salary'
p1199
(lp1200
sg18
S'C-F'
p1201
sb.