(isrc.gp1.models.Player
Player
p0
(dp1
S'_experience'
p2
S'NA'
p3
sS'_totals'
p4
(lp5
(isrc.gp1.models.Totals
Totals
p6
(dp7
S'_offensiveRebounds'
p8
g3
sS'_threePointsAttempted'
p9
S'.454'
p10
sS'_fieldGoalsPercentage'
p11
S'579'
p12
sS'_assist'
p13
g3
sS'_threePointsPercentage'
p14
S'.454'
p15
sS'_threePoints'
p16
S'1275'
p17
sS'_points'
p18
g3
sS'_position'
p19
S'C'
p20
sS'_freeThrowsPercentage'
p21
S'1352'
p22
sS'_effectiveFieldGoalPercentage'
p23
S'1184'
p24
sS'_league'
p25
S'NBA'
p26
sS'_steals'
p27
g3
sS'_fieldGoalsAttempted'
p28
S'.454'
p29
sS'_personalFouls'
p30
g3
sS'_freeThrowsAttempted'
p31
S'306'
p32
sS'_totalRebounds'
p33
g3
sS'_age'
p34
S'22'
p35
sS'_team'
p36
S'BUF'
p37
sS'_games'
p38
S'78'
p39
sS'_blocks'
p40
g3
sS'_twoPoints'
p41
S'194'
p42
sS'_freeThrows'
p43
S'111'
p44
sS'_twoPointsAttempted'
p45
S'363'
p46
sS'_defensiveRebounds'
p47
g3
sS'_season'
p48
S'1971-72'
p49
sS'_fieldGoals'
p50
S'1275'
p51
sS'_turnOvers'
p52
g3
sS'_twoPointsPercentage'
p53
S'.534'
p54
sS'_minutesPlayed'
p55
S'579'
p56
sS'_gamesStarted'
p57
S'3186'
p58
sba(isrc.gp1.models.Totals
Totals
p59
(dp60
g8
g3
sg9
S'.482'
p61
sg11
S'600'
p62
sg13
g3
sg14
S'.482'
p63
sg16
S'1244'
p64
sg18
g3
sg19
g20
sg21
S'1388'
p65
sg23
S'946'
p66
sg25
S'NBA'
p67
sg27
g3
sg28
S'.482'
p68
sg30
g3
sg31
S'295'
p69
sg33
g3
sg34
S'23'
p70
sg36
S'BUF'
p71
sg38
S'76'
p72
sg40
g3
sg41
S'188'
p73
sg43
S'192'
p74
sg45
S'337'
p75
sg47
g3
sg48
S'1972-73'
p76
sg50
S'1244'
p77
sg52
g3
sg53
S'.558'
p78
sg55
S'600'
p79
sg57
S'2829'
p80
sba(isrc.gp1.models.Totals
Totals
p81
(dp82
g8
S'71'
p83
sg9
S'.457'
p84
sg11
S'434'
p85
sg13
S'1015'
p86
sg14
S'.457'
p87
sg16
S'949'
p88
sg18
g3
sg19
g20
sg21
S'150'
p89
sg23
S'204'
p90
sg25
S'NBA'
p91
sg27
g3
sg28
S'.457'
p92
sg30
g3
sg31
S'906'
p93
sg33
S'309'
p94
sg34
S'24'
p95
sg36
S'LAL'
p96
sg38
S'81'
p97
sg40
g3
sg41
S'147'
p98
sg43
S'702'
p99
sg45
S'249'
p100
sg47
S'393'
p101
sg48
S'1973-74'
p102
sg50
S'949'
p103
sg52
g3
sg53
S'.590'
p104
sg55
S'434'
p105
sg57
S'2922'
p106
sba(isrc.gp1.models.Totals
Totals
p107
(dp108
g8
S'84'
p109
sg9
S'.493'
p110
sg11
S'346'
p111
sg13
S'804'
p112
sg14
S'.493'
p113
sg16
S'702'
p114
sg18
g3
sg19
g20
sg21
S'145'
p115
sg23
S'210'
p116
sg25
S'NBA'
p117
sg27
g3
sg28
S'.493'
p118
sg30
g3
sg31
S'810'
p119
sg33
S'255'
p120
sg34
S'25'
p121
sg36
S'LAL'
p122
sg38
S'74'
p123
sg40
g3
sg41
S'112'
p124
sg43
S'600'
p125
sg45
S'231'
p126
sg47
S'216'
p127
sg48
S'1974-75'
p128
sg50
S'702'
p129
sg52
g3
sg53
S'.485'
p130
sg55
S'346'
p131
sg57
S'2341'
p132
sba(isrc.gp1.models.Totals
Totals
p133
(dp134
g8
S'78'
p135
sg9
S'.518'
p136
sg11
S'498'
p137
sg13
S'1218'
p138
sg14
S'.518'
p139
sg16
S'962'
p140
sg18
g3
sg19
g20
sg21
S'97'
p141
sg23
S'201'
p142
sg25
S'NBA'
p143
sg27
g3
sg28
S'.518'
p144
sg30
g3
sg31
S'893'
p145
sg33
S'268'
p146
sg34
S'26'
p147
sg36
S'MIL'
p148
sg38
S'78'
p149
sg40
g3
sg41
S'222'
p150
sg43
S'692'
p151
sg45
S'351'
p152
sg47
S'238'
p153
sg48
S'1975-76'
p154
sg50
S'962'
p155
sg52
g3
sg53
S'.632'
p156
sg55
S'498'
p157
sg57
S'2809'
p158
sba(isrc.gp1.models.Totals
Totals
p159
(dp160
g8
S'35'
p161
sg9
S'.475'
p162
sg11
S'241'
p163
sg13
S'599'
p164
sg14
S'.475'
p165
sg16
S'507'
p166
sg18
g3
sg19
g20
sg21
S'43'
p167
sg23
S'114'
p168
sg25
S'NBA'
p169
sg27
g3
sg28
S'.475'
p170
sg30
g3
sg31
S'439'
p171
sg33
S'207'
p172
sg34
S'27'
p173
sg36
S'TOT'
p174
sg38
S'70'
p175
sg40
g3
sg41
S'117'
p176
sg43
S'325'
p177
sg45
S'213'
p178
sg47
S'144'
p179
sg48
S'1976-77'
p180
sg50
S'507'
p181
sg52
g3
sg53
S'.549'
p182
sg55
S'241'
p183
sg57
S'1464'
p184
sba(isrc.gp1.models.Totals
Totals
p185
(dp186
g8
S'19'
p187
sg9
S'.447'
p188
sg11
S'113'
p189
sg13
S'287'
p190
sg14
S'.447'
p191
sg16
S'253'
p192
sg18
g3
sg19
g20
sg21
S'30'
p193
sg23
S'52'
p194
sg25
S'NBA'
p195
sg27
g3
sg28
S'.447'
p196
sg30
g3
sg31
S'208'
p197
sg33
S'109'
p198
sg34
S'27'
p199
sg36
S'MIL'
p200
sg38
S'34'
p201
sg40
g3
sg41
S'61'
p202
sg43
S'156'
p203
sg45
S'105'
p204
sg47
S'69'
p205
sg48
S'1976-77'
p206
sg50
S'253'
p207
sg52
g3
sg53
S'.581'
p208
sg55
S'113'
p209
sg57
S'789'
p210
sba(isrc.gp1.models.Totals
Totals
p211
(dp212
g8
S'16'
p213
sg9
S'.504'
p214
sg11
S'128'
p215
sg13
S'312'
p216
sg14
S'.504'
p217
sg16
S'254'
p218
sg18
g3
sg19
g20
sg21
S'13'
p219
sg23
S'62'
p220
sg25
S'NBA'
p221
sg27
g3
sg28
S'.504'
p222
sg30
g3
sg31
S'231'
p223
sg33
S'98'
p224
sg34
S'27'
p225
sg36
S'CLE'
p226
sg38
S'36'
p227
sg40
g3
sg41
S'56'
p228
sg43
S'169'
p229
sg45
S'108'
p230
sg47
S'75'
p231
sg48
S'1976-77'
p232
sg50
S'254'
p233
sg52
g3
sg53
S'.519'
p234
sg55
S'128'
p235
sg57
S'675'
p236
sba(isrc.gp1.models.Totals
Totals
p237
(dp238
g8
S'50'
p239
sg9
S'.497'
p240
sg11
S'402'
p241
sg13
S'241'
p242
sg14
S'.497'
p243
sg16
S'809'
p244
sg18
g3
sg19
g20
sg21
S'57'
p245
sg23
S'178'
p246
sg25
S'NBA'
p247
sg27
S'1009'
p248
sg28
S'.497'
p249
sg30
g3
sg31
S'678'
p250
sg33
S'141'
p251
sg34
S'28'
p252
sg36
S'CLE'
p253
sg38
S'81'
p254
sg40
g3
sg41
S'205'
p255
sg43
S'500'
p256
sg45
S'309'
p257
sg47
S'176'
p258
sg48
S'1977-78'
p259
sg50
S'809'
p260
sg52
g3
sg53
S'.663'
p261
sg55
S'402'
p262
sg57
S'1996'
p263
sba(isrc.gp1.models.Totals
Totals
p264
(dp265
g8
S'7'
p266
sg9
S'.531'
p267
sg11
S'69'
p268
sg13
S'60'
p269
sg14
S'.531'
p270
sg16
S'130'
p271
sg18
g3
sg19
g20
sg21
S'13'
p272
sg23
S'45'
p273
sg25
S'NBA'
p274
sg27
S'156'
p275
sg28
S'.531'
p276
sg30
g3
sg31
S'106'
p277
sg33
S'42'
p278
sg34
S'29'
p279
sg36
S'CLE'
p280
sg38
S'24'
p281
sg40
g3
sg41
S'18'
p282
sg43
S'61'
p283
sg45
S'26'
p284
sg47
S'16'
p285
sg48
S'1978-79'
p286
sg50
S'130'
p287
sg52
g3
sg53
S'.692'
p288
sg55
S'69'
p289
sg57
S'332'
p290
sbasS'_college'
p291
S'Kentucky State University'
p292
sS'_toYear'
p293
S'1979'
p294
sS'_height'
p295
S'7-0'
p296
sS'_active'
p297
I00
sS'_shootingHand'
p298
VRight
p299
sS'_name'
p300
S'Elmore Smith'
p301
sS'_per100Possessions'
p302
(lp303
(isrc.gp1.models.Per100Possession
Per100Possession
p304
(dp305
g8
S'1.0'
p306
sg9
S'.457'
p307
sg11
S'6.4'
p308
sS'_offensiveRating'
p309
g3
sg13
S'14.9'
p310
sg14
S'2.2'
p311
sg16
S'14.0'
p312
sg18
g3
sg19
g20
sS'_defensiveRating'
p313
g3
sg21
S'2.2'
p314
sg25
S'NBA'
p315
sg27
S'92'
p316
sg28
S'.457'
p317
sg30
g3
sg31
S'13.3'
p318
sg33
S'4.5'
p319
sg34
S'24'
p320
sg36
S'LAL'
p321
sg38
S'81'
p322
sg40
g3
sg41
S'3.7'
p323
sg43
S'10.3'
p324
sg45
S'.590'
p325
sg47
S'5.8'
p326
sg48
S'1973-74'
p327
sg50
S'14.0'
p328
sg52
g3
sg53
S'3.0'
p329
sg55
S'6.4'
p330
sg57
S'2922'
p331
sba(isrc.gp1.models.Per100Possession
Per100Possession
p332
(dp333
g8
S'1.6'
p334
sg9
S'.493'
p335
sg11
S'6.7'
p336
sg309
g3
sg13
S'15.5'
p337
sg14
S'2.2'
p338
sg16
S'13.5'
p339
sg18
g3
sg19
g20
sg313
g3
sg21
S'2.8'
p340
sg25
S'NBA'
p341
sg27
S'93'
p342
sg28
S'.493'
p343
sg30
g3
sg31
S'15.6'
p344
sg33
S'4.9'
p345
sg34
S'25'
p346
sg36
S'LAL'
p347
sg38
S'74'
p348
sg40
g3
sg41
S'4.5'
p349
sg43
S'11.6'
p350
sg45
S'.485'
p351
sg47
S'4.2'
p352
sg48
S'1974-75'
p353
sg50
S'13.5'
p354
sg52
g3
sg53
S'4.0'
p355
sg55
S'6.7'
p356
sg57
S'2341'
p357
sba(isrc.gp1.models.Per100Possession
Per100Possession
p358
(dp359
g8
S'1.3'
p360
sg9
S'.518'
p361
sg11
S'8.2'
p362
sg309
g3
sg13
S'20.0'
p363
sg14
S'3.7'
p364
sg16
S'15.8'
p365
sg18
g3
sg19
g20
sg313
g3
sg21
S'1.6'
p366
sg25
S'NBA'
p367
sg27
S'94'
p368
sg28
S'.518'
p369
sg30
g3
sg31
S'14.7'
p370
sg33
S'4.4'
p371
sg34
S'26'
p372
sg36
S'MIL'
p373
sg38
S'78'
p374
sg40
g3
sg41
S'5.8'
p375
sg43
S'11.4'
p376
sg45
S'.632'
p377
sg47
S'3.9'
p378
sg48
S'1975-76'
p379
sg50
S'15.8'
p380
sg52
g3
sg53
S'3.3'
p381
sg55
S'8.2'
p382
sg57
S'2809'
p383
sba(isrc.gp1.models.Per100Possession
Per100Possession
p384
(dp385
g8
S'1.1'
p386
sg9
S'.475'
p387
sg11
S'7.5'
p388
sg309
g3
sg13
S'18.7'
p389
sg14
S'3.6'
p390
sg16
S'15.8'
p391
sg18
g3
sg19
g20
sg313
g3
sg21
S'1.3'
p392
sg25
S'NBA'
p393
sg27
S'96'
p394
sg28
S'.475'
p395
sg30
g3
sg31
S'13.7'
p396
sg33
S'6.5'
p397
sg34
S'27'
p398
sg36
S'TOT'
p399
sg38
S'70'
p400
sg40
g3
sg41
S'6.6'
p401
sg43
S'10.1'
p402
sg45
S'.549'
p403
sg47
S'4.5'
p404
sg48
S'1976-77'
p405
sg50
S'15.8'
p406
sg52
g3
sg53
S'3.6'
p407
sg55
S'7.5'
p408
sg57
S'1464'
p409
sba(isrc.gp1.models.Per100Possession
Per100Possession
p410
(dp411
g8
S'1.1'
p412
sg9
S'.447'
p413
sg11
S'6.3'
p414
sg309
g3
sg13
S'16.1'
p415
sg14
S'3.4'
p416
sg16
S'14.2'
p417
sg18
g3
sg19
g20
sg313
g3
sg21
S'1.7'
p418
sg25
S'NBA'
p419
sg27
S'100'
p420
sg28
S'.447'
p421
sg30
g3
sg31
S'11.7'
p422
sg33
S'6.1'
p423
sg34
S'27'
p424
sg36
S'MIL'
p425
sg38
S'34'
p426
sg40
g3
sg41
S'5.9'
p427
sg43
S'8.8'
p428
sg45
S'.581'
p429
sg47
S'3.9'
p430
sg48
S'1976-77'
p431
sg50
S'14.2'
p432
sg52
g3
sg53
S'2.9'
p433
sg55
S'6.3'
p434
sg57
S'789'
p435
sba(isrc.gp1.models.Per100Possession
Per100Possession
p436
(dp437
g8
S'1.1'
p438
sg9
S'.504'
p439
sg11
S'9.0'
p440
sg309
g3
sg13
S'21.9'
p441
sg14
S'3.9'
p442
sg16
S'17.8'
p443
sg18
g3
sg19
g20
sg313
g3
sg21
S'0.9'
p444
sg25
S'NBA'
p445
sg27
S'92'
p446
sg28
S'.504'
p447
sg30
g3
sg31
S'16.2'
p448
sg33
S'6.9'
p449
sg34
S'27'
p450
sg36
S'CLE'
p451
sg38
S'36'
p452
sg40
g3
sg41
S'7.6'
p453
sg43
S'11.8'
p454
sg45
S'.519'
p455
sg47
S'5.3'
p456
sg48
S'1976-77'
p457
sg50
S'17.8'
p458
sg52
g3
sg53
S'4.3'
p459
sg55
S'9.0'
p460
sg57
S'675'
p461
sba(isrc.gp1.models.Per100Possession
Per100Possession
p462
(dp463
g8
S'1.2'
p464
sg9
S'.497'
p465
sg11
S'9.3'
p466
sg309
g3
sg13
S'5.6'
p467
sg14
S'4.8'
p468
sg16
S'18.8'
p469
sg18
g3
sg19
g20
sg313
g3
sg21
S'1.3'
p470
sg25
S'NBA'
p471
sg27
S'23.4'
p472
sg28
S'.497'
p473
sg30
g3
sg31
S'15.8'
p474
sg33
S'3.3'
p475
sg34
S'28'
p476
sg36
S'CLE'
p477
sg38
S'81'
p478
sg40
S'104'
p479
sg41
S'7.2'
p480
sg43
S'11.6'
p481
sg45
S'.663'
p482
sg47
S'4.1'
p483
sg48
S'1977-78'
p484
sg50
S'18.8'
p485
sg52
S'94'
p486
sg53
S'4.1'
p487
sg55
S'9.3'
p488
sg57
S'1996'
p489
sba(isrc.gp1.models.Per100Possession
Per100Possession
p490
(dp491
g8
S'1.0'
p492
sg9
S'.531'
p493
sg11
S'9.7'
p494
sg309
g3
sg13
S'8.4'
p495
sg14
S'2.5'
p496
sg16
S'18.3'
p497
sg18
g3
sg19
g20
sg313
g3
sg21
S'1.8'
p498
sg25
S'NBA'
p499
sg27
S'22.0'
p500
sg28
S'.531'
p501
sg30
g3
sg31
S'14.9'
p502
sg33
S'5.9'
p503
sg34
S'29'
p504
sg36
S'CLE'
p505
sg38
S'24'
p506
sg40
S'96'
p507
sg41
S'3.7'
p508
sg43
S'8.6'
p509
sg45
S'.692'
p510
sg47
S'2.3'
p511
sg48
S'1978-79'
p512
sg50
S'18.3'
p513
sg52
S'105'
p514
sg53
S'6.3'
p515
sg55
S'9.7'
p516
sg57
S'332'
p517
sbasS'_advanced'
p518
(lp519
(isrc.gp1.models.Advanced
Advanced
p520
(dp521
S'_offensiveReboundPercentage'
p522
S'5.1'
p523
sS'_turnOverPercentage'
p524
g3
sS'_winSharesPer48Minutes'
p525
g3
sS'_stealPercentage'
p526
S'.022'
p527
sS'_usagePercentage'
p528
g3
sS'_totalReboundsPercentage'
p529
S'1.1'
p530
sS'_defensiveBoxPlusMinus'
p531
g3
sg19
g20
sS'_valueOverReplacementPlayer'
p532
g3
sS'_trueShootingPercentage'
p533
S'.471'
p534
sS'_defensiveReboundPercentage'
p535
S'0.4'
p536
sS'_freeThrowsAttempRate'
p537
S'18.0'
p538
sS'_threePointsAttempRate'
p539
S'.285'
p540
sg25
S'NBA'
p541
sS'_offensiveBoxPlusMinues'
p542
g3
sS'_assistPercentage'
p543
S'1.5'
p544
sS'_defensiveWinShares'
p545
g3
sg34
S'22'
p546
sg36
S'BUF'
p547
sg38
S'78'
p548
sS'_blockPercentage'
p549
g3
sS'_playerEfficiencyRating'
p550
S'15.0'
p551
sS'_offensiveWinShares'
p552
g3
sg55
S'3186'
p553
sS'_boxPlusMinus'
p554
g3
sg48
S'1971-72'
p555
sS'_winShares'
p556
g3
sba(isrc.gp1.models.Advanced
Advanced
p557
(dp558
g522
S'9.9'
p559
sg524
g3
sg525
g3
sg526
S'.067'
p560
sg528
g3
sg529
S'0.9'
p561
sg531
g3
sg19
g20
sg532
g3
sg533
S'.498'
p562
sg535
S'3.0'
p563
sg537
S'15.6'
p564
sg539
S'.271'
p565
sg25
S'NBA'
p566
sg542
g3
sg543
S'3.9'
p567
sg545
g3
sg34
S'23'
p568
sg36
S'BUF'
p569
sg38
S'76'
p570
sg549
g3
sg550
S'16.5'
p571
sg552
g3
sg55
S'2829'
p572
sg554
g3
sg48
S'1972-73'
p573
sg556
g3
sba(isrc.gp1.models.Advanced
Advanced
p574
(dp575
g522
S'21.1'
p576
sg524
S'5.4'
p577
sg525
S'0.2'
p578
sg526
S'6.4'
p579
sg528
S'5.9'
p580
sg529
S'6.9'
p581
sg531
g3
sg19
g20
sg532
g3
sg533
S'.479'
p582
sg535
S'14.2'
p583
sg537
S'6.6'
p584
sg539
S'.262'
p585
sg25
S'NBA'
p586
sg542
S'1.6'
p587
sg543
S'1.0'
p588
sg545
S'-3.5'
p589
sg34
S'24'
p590
sg36
S'LAL'
p591
sg38
S'81'
p592
sg549
S'0.5'
p593
sg550
S'14.5'
p594
sg552
S'.097'
p595
sg55
S'2922'
p596
sg554
g3
sg48
S'1973-74'
p597
sg556
S'3.7'
p598
sba(isrc.gp1.models.Advanced
Advanced
p599
(dp600
g522
S'24.3'
p601
sg524
S'3.7'
p602
sg525
S'1.1'
p603
sg526
S'4.6'
p604
sg528
S'4.7'
p605
sg529
S'8.7'
p606
sg531
g3
sg19
g20
sg532
g3
sg533
S'.500'
p607
sg535
S'16.5'
p608
sg537
S'8.6'
p609
sg539
S'.329'
p610
sg25
S'NBA'
p611
sg542
S'1.8'
p612
sg543
S'1.6'
p613
sg545
S'-2.0'
p614
sg34
S'25'
p615
sg36
S'LAL'
p616
sg38
S'74'
p617
sg549
S'1.0'
p618
sg550
S'15.9'
p619
sg552
S'.097'
p620
sg55
S'2341'
p621
sg554
g3
sg48
S'1974-75'
p622
sg556
S'3.1'
p623
sba(isrc.gp1.models.Advanced
Advanced
p624
(dp625
g522
S'24.9'
p626
sg524
S'4.7'
p627
sg525
S'1.4'
p628
sg526
S'4.4'
p629
sg528
S'8.7'
p630
sg529
S'5.0'
p631
sg531
g3
sg19
g20
sg532
g3
sg533
S'.545'
p632
sg535
S'16.6'
p633
sg537
S'7.7'
p634
sg539
S'.365'
p635
sg25
S'NBA'
p636
sg542
S'2.4'
p637
sg543
S'1.3'
p638
sg545
S'-0.6'
p639
sg34
S'26'
p640
sg36
S'MIL'
p641
sg38
S'78'
p642
sg549
S'4.1'
p643
sg550
S'17.7'
p644
sg552
S'.149'
p645
sg55
S'2809'
p646
sg554
g3
sg48
S'1975-76'
p647
sg556
S'2.0'
p648
sba(isrc.gp1.models.Advanced
Advanced
p649
(dp650
g522
S'23.2'
p651
sg524
S'2.2'
p652
sg525
S'-2.1'
p653
sg526
S'5.2'
p654
sg528
S'2.9'
p655
sg529
S'3.9'
p656
sg531
g3
sg19
g20
sg532
g3
sg533
S'.499'
p657
sg535
S'15.4'
p658
sg537
S'7.8'
p659
sg539
S'.420'
p660
sg25
S'NBA'
p661
sg542
S'0.0'
p662
sg543
S'1.1'
p663
sg545
S'-2.9'
p664
sg34
S'27'
p665
sg36
S'TOT'
p666
sg38
S'70'
p667
sg549
S'0.7'
p668
sg550
S'14.9'
p669
sg552
S'.094'
p670
sg55
S'1464'
p671
sg554
g3
sg48
S'1976-77'
p672
sg556
S'0.9'
p673
sba(isrc.gp1.models.Advanced
Advanced
p674
(dp675
g522
S'20.6'
p676
sg524
S'0.8'
p677
sg525
S'-2.7'
p678
sg526
S'4.4'
p679
sg528
S'0.8'
p680
sg529
S'4.8'
p681
sg531
g3
sg19
g20
sg532
g3
sg533
S'.480'
p682
sg535
S'13.6'
p683
sg537
S'6.8'
p684
sg539
S'.415'
p685
sg25
S'NBA'
p686
sg542
S'-0.1'
p687
sg543
S'1.1'
p688
sg545
S'-3.6'
p689
sg34
S'27'
p690
sg36
S'MIL'
p691
sg38
S'34'
p692
sg549
S'0.0'
p693
sg550
S'12.6'
p694
sg552
S'.051'
p695
sg55
S'789'
p696
sg554
g3
sg48
S'1976-77'
p697
sg556
S'0.9'
p698
sba(isrc.gp1.models.Advanced
Advanced
p699
(dp700
g522
S'26.3'
p701
sg524
S'1.4'
p702
sg525
S'-1.4'
p703
sg526
S'6.0'
p704
sg528
S'2.0'
p705
sg529
S'2.8'
p706
sg531
g3
sg19
g20
sg532
g3
sg533
S'.517'
p707
sg535
S'17.4'
p708
sg537
S'9.0'
p709
sg539
S'.425'
p710
sg25
S'NBA'
p711
sg542
S'0.1'
p712
sg543
S'1.1'
p713
sg545
S'-2.2'
p714
sg34
S'27'
p715
sg36
S'CLE'
p716
sg38
S'36'
p717
sg549
S'0.7'
p718
sg550
S'17.6'
p719
sg552
S'.145'
p720
sg55
S'675'
p721
sg554
g3
sg48
S'1976-77'
p722
sg556
S'0.9'
p723
sba(isrc.gp1.models.Advanced
Advanced
p724
(dp725
g522
S'25.6'
p726
sg524
S'21.6'
p727
sg525
S'-0.8'
p728
sg526
S'4.6'
p729
sg528
S'3.0'
p730
sg529
S'4.2'
p731
sg531
S'0.5'
p732
sg19
g20
sg532
g3
sg533
S'.534'
p733
sg535
S'17.2'
p734
sg537
S'8.9'
p735
sg539
S'.382'
p736
sg25
S'NBA'
p737
sg542
S'1.3'
p738
sg543
S'1.2'
p739
sg545
S'6.8'
p740
sg34
S'28'
p741
sg36
S'CLE'
p742
sg38
S'81'
p743
sg549
S'13.0'
p744
sg550
S'19.9'
p745
sg552
S'3.8'
p746
sg55
S'1996'
p747
sg554
S'1.2'
p748
sg48
S'1977-78'
p749
sg556
S'.164'
p750
sba(isrc.gp1.models.Advanced
Advanced
p751
(dp752
g522
S'21.4'
p753
sg524
S'22.0'
p754
sg525
S'-2.2'
p755
sg526
S'2.7'
p756
sg528
S'0.0'
p757
sg529
S'5.6'
p758
sg531
S'-3.4'
p759
sg19
g20
sg532
g3
sg533
S'.551'
p760
sg535
S'17.5'
p761
sg537
S'14.0'
p762
sg539
S'.200'
p763
sg25
S'NBA'
p764
sg542
S'-1.2'
p765
sg543
S'1.0'
p766
sg545
S'0.3'
p767
sg34
S'29'
p768
sg36
S'CLE'
p769
sg38
S'24'
p770
sg549
S'22.9'
p771
sg550
S'14.5'
p772
sg552
S'0.3'
p773
sg55
S'332'
p774
sg554
S'-0.1'
p775
sg48
S'1978-79'
p776
sg556
S'.046'
p777
sbasS'_per36Minutes'
p778
(lp779
(isrc.gp1.models.Per36Minutes
Per36Minutes
p780
(dp781
g8
g3
sg9
S'.454'
p782
sg11
S'6.5'
p783
sg13
g3
sg14
S'2.2'
p784
sg16
S'14.4'
p785
sg18
g3
sg19
g20
sg21
S'15.3'
p786
sg25
S'NBA'
p787
sg27
g3
sg28
S'.454'
p788
sg30
g3
sg31
S'3.5'
p789
sg33
g3
sg34
S'22'
p790
sg36
S'BUF'
p791
sg38
S'78'
p792
sg40
g3
sg41
S'4.1'
p793
sg43
S'1.3'
p794
sg45
S'.534'
p795
sg47
g3
sg48
S'1971-72'
p796
sg50
S'14.4'
p797
sg52
g3
sg53
S'13.4'
p798
sg55
S'6.5'
p799
sg57
S'3186'
p800
sba(isrc.gp1.models.Per36Minutes
Per36Minutes
p801
(dp802
g8
g3
sg9
S'.482'
p803
sg11
S'7.6'
p804
sg13
g3
sg14
S'2.4'
p805
sg16
S'15.8'
p806
sg18
g3
sg19
g20
sg21
S'17.7'
p807
sg25
S'NBA'
p808
sg27
g3
sg28
S'.482'
p809
sg30
g3
sg31
S'3.8'
p810
sg33
g3
sg34
S'23'
p811
sg36
S'BUF'
p812
sg38
S'76'
p813
sg40
g3
sg41
S'4.3'
p814
sg43
S'2.4'
p815
sg45
S'.558'
p816
sg47
g3
sg48
S'1972-73'
p817
sg50
S'15.8'
p818
sg52
g3
sg53
S'12.0'
p819
sg55
S'7.6'
p820
sg57
S'2829'
p821
sba(isrc.gp1.models.Per36Minutes
Per36Minutes
p822
(dp823
g8
S'0.9'
p824
sg9
S'.457'
p825
sg11
S'5.3'
p826
sg13
S'12.5'
p827
sg14
S'1.8'
p828
sg16
S'11.7'
p829
sg18
g3
sg19
g20
sg21
S'1.8'
p830
sg25
S'NBA'
p831
sg27
g3
sg28
S'.457'
p832
sg30
g3
sg31
S'11.2'
p833
sg33
S'3.8'
p834
sg34
S'24'
p835
sg36
S'LAL'
p836
sg38
S'81'
p837
sg40
g3
sg41
S'3.1'
p838
sg43
S'8.6'
p839
sg45
S'.590'
p840
sg47
S'4.8'
p841
sg48
S'1973-74'
p842
sg50
S'11.7'
p843
sg52
g3
sg53
S'2.5'
p844
sg55
S'5.3'
p845
sg57
S'2922'
p846
sba(isrc.gp1.models.Per36Minutes
Per36Minutes
p847
(dp848
g8
S'1.3'
p849
sg9
S'.493'
p850
sg11
S'5.3'
p851
sg13
S'12.4'
p852
sg14
S'1.7'
p853
sg16
S'10.8'
p854
sg18
g3
sg19
g20
sg21
S'2.2'
p855
sg25
S'NBA'
p856
sg27
g3
sg28
S'.493'
p857
sg30
g3
sg31
S'12.5'
p858
sg33
S'3.9'
p859
sg34
S'25'
p860
sg36
S'LAL'
p861
sg38
S'74'
p862
sg40
g3
sg41
S'3.6'
p863
sg43
S'9.2'
p864
sg45
S'.485'
p865
sg47
S'3.3'
p866
sg48
S'1974-75'
p867
sg50
S'10.8'
p868
sg52
g3
sg53
S'3.2'
p869
sg55
S'5.3'
p870
sg57
S'2341'
p871
sba(isrc.gp1.models.Per36Minutes
Per36Minutes
p872
(dp873
g8
S'1.0'
p874
sg9
S'.518'
p875
sg11
S'6.4'
p876
sg13
S'15.6'
p877
sg14
S'2.8'
p878
sg16
S'12.3'
p879
sg18
g3
sg19
g20
sg21
S'1.2'
p880
sg25
S'NBA'
p881
sg27
g3
sg28
S'.518'
p882
sg30
g3
sg31
S'11.4'
p883
sg33
S'3.4'
p884
sg34
S'26'
p885
sg36
S'MIL'
p886
sg38
S'78'
p887
sg40
g3
sg41
S'4.5'
p888
sg43
S'8.9'
p889
sg45
S'.632'
p890
sg47
S'3.1'
p891
sg48
S'1975-76'
p892
sg50
S'12.3'
p893
sg52
g3
sg53
S'2.6'
p894
sg55
S'6.4'
p895
sg57
S'2809'
p896
sba(isrc.gp1.models.Per36Minutes
Per36Minutes
p897
(dp898
g8
S'0.9'
p899
sg9
S'.475'
p900
sg11
S'5.9'
p901
sg13
S'14.7'
p902
sg14
S'2.9'
p903
sg16
S'12.5'
p904
sg18
g3
sg19
g20
sg21
S'1.1'
p905
sg25
S'NBA'
p906
sg27
g3
sg28
S'.475'
p907
sg30
g3
sg31
S'10.8'
p908
sg33
S'5.1'
p909
sg34
S'27'
p910
sg36
S'TOT'
p911
sg38
S'70'
p912
sg40
g3
sg41
S'5.2'
p913
sg43
S'8.0'
p914
sg45
S'.549'
p915
sg47
S'3.5'
p916
sg48
S'1976-77'
p917
sg50
S'12.5'
p918
sg52
g3
sg53
S'2.8'
p919
sg55
S'5.9'
p920
sg57
S'1464'
p921
sba(isrc.gp1.models.Per36Minutes
Per36Minutes
p922
(dp923
g8
S'0.9'
p924
sg9
S'.447'
p925
sg11
S'5.2'
p926
sg13
S'13.1'
p927
sg14
S'2.8'
p928
sg16
S'11.5'
p929
sg18
g3
sg19
g20
sg21
S'1.4'
p930
sg25
S'NBA'
p931
sg27
g3
sg28
S'.447'
p932
sg30
g3
sg31
S'9.5'
p933
sg33
S'5.0'
p934
sg34
S'27'
p935
sg36
S'MIL'
p936
sg38
S'34'
p937
sg40
g3
sg41
S'4.8'
p938
sg43
S'7.1'
p939
sg45
S'.581'
p940
sg47
S'3.1'
p941
sg48
S'1976-77'
p942
sg50
S'11.5'
p943
sg52
g3
sg53
S'2.4'
p944
sg55
S'5.2'
p945
sg57
S'789'
p946
sba(isrc.gp1.models.Per36Minutes
Per36Minutes
p947
(dp948
g8
S'0.9'
p949
sg9
S'.504'
p950
sg11
S'6.8'
p951
sg13
S'16.6'
p952
sg14
S'3.0'
p953
sg16
S'13.5'
p954
sg18
g3
sg19
g20
sg21
S'0.7'
p955
sg25
S'NBA'
p956
sg27
g3
sg28
S'.504'
p957
sg30
g3
sg31
S'12.3'
p958
sg33
S'5.2'
p959
sg34
S'27'
p960
sg36
S'CLE'
p961
sg38
S'36'
p962
sg40
g3
sg41
S'5.8'
p963
sg43
S'9.0'
p964
sg45
S'.519'
p965
sg47
S'4.0'
p966
sg48
S'1976-77'
p967
sg50
S'13.5'
p968
sg52
g3
sg53
S'3.3'
p969
sg55
S'6.8'
p970
sg57
S'675'
p971
sba(isrc.gp1.models.Per36Minutes
Per36Minutes
p972
(dp973
g8
S'0.9'
p974
sg9
S'.497'
p975
sg11
S'7.3'
p976
sg13
S'4.3'
p977
sg14
S'3.7'
p978
sg16
S'14.6'
p979
sg18
g3
sg19
g20
sg21
S'1.0'
p980
sg25
S'NBA'
p981
sg27
S'18.2'
p982
sg28
S'.497'
p983
sg30
g3
sg31
S'12.2'
p984
sg33
S'2.5'
p985
sg34
S'28'
p986
sg36
S'CLE'
p987
sg38
S'81'
p988
sg40
g3
sg41
S'5.6'
p989
sg43
S'9.0'
p990
sg45
S'.663'
p991
sg47
S'3.2'
p992
sg48
S'1977-78'
p993
sg50
S'14.6'
p994
sg52
g3
sg53
S'3.2'
p995
sg55
S'7.3'
p996
sg57
S'1996'
p997
sba(isrc.gp1.models.Per36Minutes
Per36Minutes
p998
(dp999
g8
S'0.8'
p1000
sg9
S'.531'
p1001
sg11
S'7.5'
p1002
sg13
S'6.5'
p1003
sg14
S'2.0'
p1004
sg16
S'14.1'
p1005
sg18
g3
sg19
g20
sg21
S'1.4'
p1006
sg25
S'NBA'
p1007
sg27
S'16.9'
p1008
sg28
S'.531'
p1009
sg30
g3
sg31
S'11.5'
p1010
sg33
S'4.6'
p1011
sg34
S'29'
p1012
sg36
S'CLE'
p1013
sg38
S'24'
p1014
sg40
g3
sg41
S'2.8'
p1015
sg43
S'6.6'
p1016
sg45
S'.692'
p1017
sg47
S'1.7'
p1018
sg48
S'1978-79'
p1019
sg50
S'14.1'
p1020
sg52
g3
sg53
S'4.9'
p1021
sg55
S'7.5'
p1022
sg57
S'332'
p1023
sbasS'_fromYear'
p1024
S'1972'
p1025
sS'_url'
p1026
S'http://www.basketball-reference.com/players/s/smithel01.html'
p1027
sS'_perGame'
p1028
(isrc.gp1.models.PerGame
PerGame
p1029
(dp1030
g8
S'0.3'
p1031
sg9
S'.531'
p1032
sg11
S'2.9'
p1033
sS'_effectiveFieldGalPercentage'
p1034
S'1.9'
p1035
sg13
S'2.5'
p1036
sg14
S'.531'
p1037
sg16
S'5.4'
p1038
sg18
g3
sg19
g20
sg21
S'0.5'
p1039
sg25
S'NBA'
p1040
sg27
S'6.5'
p1041
sg30
g3
sS'_fieldGoalsttempted'
p1042
S'.531'
p1043
sg31
S'4.4'
p1044
sg33
S'1.8'
p1045
sg34
S'29'
p1046
sg36
S'CLE'
p1047
sg38
S'24'
p1048
sg40
g3
sg41
S'0.8'
p1049
sg43
S'2.5'
p1050
sg45
S'1.1'
p1051
sg47
S'0.7'
p1052
sg48
S'1978-79'
p1053
sg50
S'5.4'
p1054
sg52
g3
sg53
S'.692'
p1055
sg55
S'2.9'
p1056
sg57
S'13.8'
p1057
sbsS'_weight'
p1058
S'250'
p1059
sS'_dob'
p1060
S'9-5-1949'
p1061
sS'_salary'
p1062
(lp1063
sg19
g20
sb.