(isrc.gp1.models.Player
Player
p0
(dp1
S'_experience'
p2
S'NA'
p3
sS'_totals'
p4
(lp5
(isrc.gp1.models.Totals
Totals
p6
(dp7
S'_offensiveRebounds'
p8
S'65'
p9
sS'_threePointsAttempted'
p10
S'1'
p11
sS'_fieldGoalsPercentage'
p12
S'.472'
p13
sS'_assist'
p14
S'32'
p15
sS'_threePointsPercentage'
p16
S'.000'
p17
sS'_threePoints'
p18
S'0'
p19
sS'_points'
p20
S'218'
p21
sS'_position'
p22
S'C'
p23
sS'_freeThrowsPercentage'
p24
S'.667'
p25
sS'_effectiveFieldGoalPercentage'
p26
S'.472'
p27
sS'_league'
p28
S'NBA'
p29
sS'_steals'
p30
S'35'
p31
sS'_fieldGoalsAttempted'
p32
S'199'
p33
sS'_personalFouls'
p34
S'145'
p35
sS'_freeThrowsAttempted'
p36
S'45'
p37
sS'_totalRebounds'
p38
S'203'
p39
sS'_age'
p40
S'27'
p41
sS'_team'
p42
S'DEN'
p43
sS'_games'
p44
S'62'
p45
sS'_blocks'
p46
S'39'
p47
sS'_twoPoints'
p48
S'94'
p49
sS'_freeThrows'
p50
S'30'
p51
sS'_twoPointsAttempted'
p52
S'198'
p53
sS'_defensiveRebounds'
p54
S'138'
p55
sS'_season'
p56
S'2003-04'
p57
sS'_fieldGoals'
p58
S'94'
p59
sS'_turnOvers'
p60
S'35'
p61
sS'_twoPointsPercentage'
p62
S'.475'
p63
sS'_minutesPlayed'
p64
S'875'
p65
sS'_gamesStarted'
p66
S'14'
p67
sba(isrc.gp1.models.Totals
Totals
p68
(dp69
g8
S'61'
p70
sg10
S'3'
p71
sg12
S'.468'
p72
sg14
S'34'
p73
sg16
S'.333'
p74
sg18
g11
sg20
S'248'
p75
sg22
g23
sg24
S'.570'
p76
sg26
S'.470'
p77
sg28
S'NBA'
p78
sg30
S'34'
p79
sg32
S'216'
p80
sg34
S'129'
p81
sg36
S'79'
p82
sg38
S'201'
p83
sg40
S'28'
p84
sg42
S'DEN'
p85
sg44
S'67'
p86
sg46
S'41'
p87
sg48
S'100'
p88
sg50
S'45'
p89
sg52
S'213'
p90
sg54
S'140'
p91
sg56
S'2004-05'
p92
sg58
S'101'
p93
sg60
S'40'
p94
sg62
S'.469'
p95
sg64
S'939'
p96
sg66
S'11'
p97
sba(isrc.gp1.models.Totals
Totals
p98
(dp99
g8
S'99'
p100
sg10
S'5'
p101
sg12
S'.532'
p102
sg14
S'47'
p103
sg16
S'.200'
p104
sg18
g11
sg20
S'352'
p105
sg22
g23
sg24
S'.662'
p106
sg26
S'.533'
p107
sg28
S'NBA'
p108
sg30
S'54'
p109
sg32
S'284'
p110
sg34
S'211'
p111
sg36
S'74'
p112
sg38
S'339'
p113
sg40
S'29'
p114
sg42
S'DEN'
p115
sg44
S'72'
p116
sg46
S'45'
p117
sg48
S'150'
p118
sg50
S'49'
p119
sg52
S'279'
p120
sg54
S'240'
p121
sg56
S'2005-06'
p122
sg58
S'151'
p123
sg60
S'65'
p124
sg62
S'.538'
p125
sg64
S'1579'
p126
sg66
S'54'
p127
sba(isrc.gp1.models.Totals
Totals
p128
(dp129
g8
S'81'
p130
sg10
S'2'
p131
sg12
S'.511'
p132
sg14
S'55'
p133
sg16
S'.000'
p134
sg18
g19
sg20
S'350'
p135
sg22
g23
sg24
S'.775'
p136
sg26
S'.511'
p137
sg28
S'NBA'
p138
sg30
S'31'
p139
sg32
S'282'
p140
sg34
S'184'
p141
sg36
S'80'
p142
sg38
S'336'
p143
sg40
S'30'
p144
sg42
S'SAS'
p145
sg44
S'70'
p146
sg46
S'59'
p147
sg48
S'144'
p148
sg50
S'62'
p149
sg52
S'280'
p150
sg54
S'255'
p151
sg56
S'2006-07'
p152
sg58
S'144'
p153
sg60
S'86'
p154
sg62
S'.514'
p155
sg64
S'1332'
p156
sg66
S'41'
p157
sba(isrc.gp1.models.Totals
Totals
p158
(dp159
g8
S'50'
p160
sg10
g11
sg12
S'.390'
p161
sg14
S'24'
p162
sg16
S'.000'
p163
sg18
g19
sg20
S'210'
p164
sg22
g23
sg24
S'.703'
p165
sg26
S'.390'
p166
sg28
S'NBA'
p167
sg30
S'15'
p168
sg32
S'236'
p169
sg34
S'96'
p170
sg36
S'37'
p171
sg38
S'200'
p172
sg40
S'31'
p173
sg42
S'TOT'
p174
sg44
S'63'
p175
sg46
S'20'
p176
sg48
S'92'
p177
sg50
S'26'
p178
sg52
S'235'
p179
sg54
S'150'
p180
sg56
S'2007-08'
p181
sg58
S'92'
p182
sg60
S'47'
p183
sg62
S'.391'
p184
sg64
S'813'
p185
sg66
g101
sba(isrc.gp1.models.Totals
Totals
p186
(dp187
g8
S'33'
p188
sg10
g19
sg12
S'.419'
p189
sg14
S'16'
p190
sg16
g3
sg18
g19
sg20
S'144'
p191
sg22
g23
sg24
S'.833'
p192
sg26
S'.419'
p193
sg28
S'NBA'
p194
sg30
S'9'
p195
sg32
S'148'
p196
sg34
S'62'
p197
sg36
S'24'
p198
sg38
S'135'
p199
sg40
S'31'
p200
sg42
S'SAS'
p201
sg44
S'41'
p202
sg46
S'14'
p203
sg48
S'62'
p204
sg50
S'20'
p205
sg52
S'148'
p206
sg54
S'102'
p207
sg56
S'2007-08'
p208
sg58
S'62'
p209
sg60
S'30'
p210
sg62
S'.419'
p211
sg64
S'534'
p212
sg66
g71
sba(isrc.gp1.models.Totals
Totals
p213
(dp214
g8
S'17'
p215
sg10
g11
sg12
S'.341'
p216
sg14
S'8'
p217
sg16
S'.000'
p218
sg18
g19
sg20
S'66'
p219
sg22
g23
sg24
S'.462'
p220
sg26
S'.341'
p221
sg28
S'NBA'
p222
sg30
S'6'
p223
sg32
S'88'
p224
sg34
S'34'
p225
sg36
S'13'
p226
sg38
S'65'
p227
sg40
S'31'
p228
sg42
S'SEA'
p229
sg44
S'22'
p230
sg46
g223
sg48
S'30'
p231
sg50
g223
sg52
S'87'
p232
sg54
S'48'
p233
sg56
S'2007-08'
p234
sg58
S'30'
p235
sg60
S'17'
p236
sg62
S'.345'
p237
sg64
S'279'
p238
sg66
g131
sba(isrc.gp1.models.Totals
Totals
p239
(dp240
g8
S'100'
p241
sg10
S'4'
p242
sg12
S'.491'
p243
sg14
S'32'
p244
sg16
S'.250'
p245
sg18
g11
sg20
S'200'
p246
sg22
g23
sg24
S'.846'
p247
sg26
S'.494'
p248
sg28
S'NBA'
p249
sg30
S'36'
p250
sg32
S'169'
p251
sg34
S'144'
p252
sg36
S'39'
p253
sg38
S'229'
p254
sg40
S'32'
p255
sg42
S'MIL'
p256
sg44
S'59'
p257
sg46
S'36'
p258
sg48
S'82'
p259
sg50
S'33'
p260
sg52
S'165'
p261
sg54
S'129'
p262
sg56
S'2008-09'
p263
sg58
S'83'
p264
sg60
S'48'
p265
sg62
S'.497'
p266
sg64
S'977'
p267
sg66
S'23'
p268
sba(isrc.gp1.models.Totals
Totals
p269
(dp270
g8
g223
sg10
g19
sg12
S'.333'
p271
sg14
g131
sg16
g3
sg18
g19
sg20
S'12'
p272
sg22
g23
sg24
S'.400'
p273
sg26
S'.333'
p274
sg28
S'NBA'
p275
sg30
g11
sg32
S'15'
p276
sg34
S'7'
p277
sg36
g101
sg38
S'14'
p278
sg40
S'33'
p279
sg42
S'TOT'
p280
sg44
S'12'
p281
sg46
g19
sg48
g101
sg50
g131
sg52
S'15'
p282
sg54
g217
sg56
S'2009-10'
p283
sg58
g101
sg60
g11
sg62
S'.333'
p284
sg64
S'66'
p285
sg66
g19
sba(isrc.gp1.models.Totals
Totals
p286
(dp287
g8
g101
sg10
g19
sg12
S'.308'
p288
sg14
g131
sg16
g3
sg18
g19
sg20
S'10'
p289
sg22
g23
sg24
S'1.000'
p290
sg26
S'.308'
p291
sg28
S'NBA'
p292
sg30
g11
sg32
S'13'
p293
sg34
g277
sg36
g131
sg38
S'13'
p294
sg40
S'33'
p295
sg42
S'MIL'
p296
sg44
S'11'
p297
sg46
g19
sg48
g242
sg50
g131
sg52
S'13'
p298
sg54
g217
sg56
S'2009-10'
p299
sg58
g242
sg60
g11
sg62
S'.308'
p300
sg64
S'62'
p301
sg66
g19
sba(isrc.gp1.models.Totals
Totals
p302
(dp303
g8
g11
sg10
g19
sg12
S'.500'
p304
sg14
g19
sg16
g3
sg18
g19
sg20
g131
sg22
g23
sg24
S'.000'
p305
sg26
S'.500'
p306
sg28
S'NBA'
p307
sg30
g19
sg32
g131
sg34
g19
sg36
g71
sg38
g11
sg40
S'33'
p308
sg42
S'PHI'
p309
sg44
g11
sg46
g19
sg48
g11
sg50
g19
sg52
g131
sg54
g19
sg56
S'2009-10'
p310
sg58
g11
sg60
g19
sg62
S'.500'
p311
sg64
g242
sg66
g19
sba(isrc.gp1.models.Totals
Totals
p312
(dp313
g8
S'35'
p314
sg10
g19
sg12
S'.478'
p315
sg14
S'33'
p316
sg16
g3
sg18
g19
sg20
S'134'
p317
sg22
g23
sg24
S'.839'
p318
sg26
S'.478'
p319
sg28
S'NBA'
p320
sg30
S'21'
p321
sg32
S'113'
p322
sg34
S'84'
p323
sg36
S'31'
p324
sg38
S'115'
p325
sg40
S'34'
p326
sg42
S'UTA'
p327
sg44
S'62'
p328
sg46
S'14'
p329
sg48
S'54'
p330
sg50
S'26'
p331
sg52
S'113'
p332
sg54
S'80'
p333
sg56
S'2010-11'
p334
sg58
S'54'
p335
sg60
S'32'
p336
sg62
S'.478'
p337
sg64
S'610'
p338
sg66
g11
sba(isrc.gp1.models.Totals
Totals
p339
(dp340
g8
g19
sg10
g19
sg12
S'.333'
p341
sg14
g11
sg16
g3
sg18
g19
sg20
g131
sg22
g23
sg24
g3
sg26
S'.333'
p342
sg28
S'NBA'
p343
sg30
g11
sg32
g71
sg34
g19
sg36
g19
sg38
g11
sg40
S'35'
p344
sg42
S'PHI'
p345
sg44
g101
sg46
g11
sg48
g11
sg50
g19
sg52
g71
sg54
g11
sg56
S'2011-12'
p346
sg58
g11
sg60
g11
sg62
S'.333'
p347
sg64
S'16'
p348
sg66
g19
sbasS'_college'
p349
S'University of California'
p350
sS'_toYear'
p351
S'2012'
p352
sS'_height'
p353
S'7-0'
p354
sS'_active'
p355
I00
sS'_shootingHand'
p356
VRight
p357
sS'_name'
p358
S'Francisco Elson'
p359
sS'_per100Possessions'
p360
(lp361
(isrc.gp1.models.Per100Possession
Per100Possession
p362
(dp363
g8
S'3.8'
p364
sg10
S'0.1'
p365
sg12
S'.472'
p366
sS'_offensiveRating'
p367
S'103'
p368
sg14
S'1.9'
p369
sg16
S'.000'
p370
sg18
S'0.0'
p371
sg20
S'12.8'
p372
sg22
g23
sS'_defensiveRating'
p373
S'100'
p374
sg24
S'.667'
p375
sg28
S'NBA'
p376
sg30
S'2.1'
p377
sg32
S'11.7'
p378
sg34
S'8.5'
p379
sg36
S'2.6'
p380
sg38
S'11.9'
p381
sg40
S'27'
p382
sg42
S'DEN'
p383
sg44
S'62'
p384
sg46
S'2.3'
p385
sg48
S'5.5'
p386
sg50
S'1.8'
p387
sg52
S'11.6'
p388
sg54
S'8.1'
p389
sg56
S'2003-04'
p390
sg58
S'5.5'
p391
sg60
S'2.1'
p392
sg62
S'.475'
p393
sg64
S'875'
p394
sg66
S'14'
p395
sba(isrc.gp1.models.Per100Possession
Per100Possession
p396
(dp397
g8
S'3.3'
p398
sg10
S'0.2'
p399
sg12
S'.468'
p400
sg367
S'100'
p401
sg14
S'1.9'
p402
sg16
S'.333'
p403
sg18
S'0.1'
p404
sg20
S'13.6'
p405
sg22
g23
sg373
S'102'
p406
sg24
S'.570'
p407
sg28
S'NBA'
p408
sg30
S'1.9'
p409
sg32
S'11.8'
p410
sg34
S'7.1'
p411
sg36
S'4.3'
p412
sg38
S'11.0'
p413
sg40
S'28'
p414
sg42
S'DEN'
p415
sg44
S'67'
p416
sg46
S'2.2'
p417
sg48
S'5.5'
p418
sg50
S'2.5'
p419
sg52
S'11.6'
p420
sg54
S'7.7'
p421
sg56
S'2004-05'
p422
sg58
S'5.5'
p423
sg60
S'2.2'
p424
sg62
S'.469'
p425
sg64
S'939'
p426
sg66
S'11'
p427
sba(isrc.gp1.models.Per100Possession
Per100Possession
p428
(dp429
g8
S'3.2'
p430
sg10
S'0.2'
p431
sg12
S'.532'
p432
sg367
S'105'
p433
sg14
S'1.5'
p434
sg16
S'.200'
p435
sg18
S'0.0'
p436
sg20
S'11.4'
p437
sg22
g23
sg373
S'104'
p438
sg24
S'.662'
p439
sg28
S'NBA'
p440
sg30
S'1.7'
p441
sg32
S'9.2'
p442
sg34
S'6.8'
p443
sg36
S'2.4'
p444
sg38
S'11.0'
p445
sg40
S'29'
p446
sg42
S'DEN'
p447
sg44
S'72'
p448
sg46
S'1.5'
p449
sg48
S'4.9'
p450
sg50
S'1.6'
p451
sg52
S'9.0'
p452
sg54
S'7.8'
p453
sg56
S'2005-06'
p454
sg58
S'4.9'
p455
sg60
S'2.1'
p456
sg62
S'.538'
p457
sg64
S'1579'
p458
sg66
S'54'
p459
sba(isrc.gp1.models.Per100Possession
Per100Possession
p460
(dp461
g8
S'3.3'
p462
sg10
S'0.1'
p463
sg12
S'.511'
p464
sg367
S'100'
p465
sg14
S'2.2'
p466
sg16
S'.000'
p467
sg18
S'0.0'
p468
sg20
S'14.1'
p469
sg22
g23
sg373
S'97'
p470
sg24
S'.775'
p471
sg28
S'NBA'
p472
sg30
S'1.2'
p473
sg32
S'11.3'
p474
sg34
S'7.4'
p475
sg36
S'3.2'
p476
sg38
S'13.5'
p477
sg40
S'30'
p478
sg42
S'SAS'
p479
sg44
S'70'
p480
sg46
S'2.4'
p481
sg48
S'5.8'
p482
sg50
S'2.5'
p483
sg52
S'11.2'
p484
sg54
S'10.2'
p485
sg56
S'2006-07'
p486
sg58
S'5.8'
p487
sg60
S'3.5'
p488
sg62
S'.514'
p489
sg64
S'1332'
p490
sg66
S'41'
p491
sba(isrc.gp1.models.Per100Possession
Per100Possession
p492
(dp493
g8
S'3.2'
p494
sg10
S'0.1'
p495
sg12
S'.390'
p496
sg367
S'83'
p497
sg14
S'1.6'
p498
sg16
S'.000'
p499
sg18
S'0.0'
p500
sg20
S'13.6'
p501
sg22
g23
sg373
S'104'
p502
sg24
S'.703'
p503
sg28
S'NBA'
p504
sg30
S'1.0'
p505
sg32
S'15.3'
p506
sg34
S'6.2'
p507
sg36
S'2.4'
p508
sg38
S'12.9'
p509
sg40
S'31'
p510
sg42
S'TOT'
p511
sg44
S'63'
p512
sg46
S'1.3'
p513
sg48
S'5.9'
p514
sg50
S'1.7'
p515
sg52
S'15.2'
p516
sg54
S'9.7'
p517
sg56
S'2007-08'
p518
sg58
S'5.9'
p519
sg60
S'3.0'
p520
sg62
S'.391'
p521
sg64
S'813'
p522
sg66
g101
sba(isrc.gp1.models.Per100Possession
Per100Possession
p523
(dp524
g8
S'3.3'
p525
sg10
S'0.0'
p526
sg12
S'.419'
p527
sg367
S'89'
p528
sg14
S'1.6'
p529
sg16
g3
sg18
S'0.0'
p530
sg20
S'14.6'
p531
sg22
g23
sg373
S'100'
p532
sg24
S'.833'
p533
sg28
S'NBA'
p534
sg30
S'0.9'
p535
sg32
S'15.0'
p536
sg34
S'6.3'
p537
sg36
S'2.4'
p538
sg38
S'13.7'
p539
sg40
S'31'
p540
sg42
S'SAS'
p541
sg44
S'41'
p542
sg46
S'1.4'
p543
sg48
S'6.3'
p544
sg50
S'2.0'
p545
sg52
S'15.0'
p546
sg54
S'10.3'
p547
sg56
S'2007-08'
p548
sg58
S'6.3'
p549
sg60
S'3.0'
p550
sg62
S'.419'
p551
sg64
S'534'
p552
sg66
g71
sba(isrc.gp1.models.Per100Possession
Per100Possession
p553
(dp554
g8
S'3.0'
p555
sg10
S'0.2'
p556
sg12
S'.341'
p557
sg367
S'73'
p558
sg14
S'1.4'
p559
sg16
S'.000'
p560
sg18
S'0.0'
p561
sg20
S'11.8'
p562
sg22
g23
sg373
S'109'
p563
sg24
S'.462'
p564
sg28
S'NBA'
p565
sg30
S'1.1'
p566
sg32
S'15.7'
p567
sg34
S'6.1'
p568
sg36
S'2.3'
p569
sg38
S'11.6'
p570
sg40
S'31'
p571
sg42
S'SEA'
p572
sg44
S'22'
p573
sg46
S'1.1'
p574
sg48
S'5.4'
p575
sg50
S'1.1'
p576
sg52
S'15.5'
p577
sg54
S'8.6'
p578
sg56
S'2007-08'
p579
sg58
S'5.4'
p580
sg60
S'3.0'
p581
sg62
S'.345'
p582
sg64
S'279'
p583
sg66
g131
sba(isrc.gp1.models.Per100Possession
Per100Possession
p584
(dp585
g8
S'5.3'
p586
sg10
S'0.2'
p587
sg12
S'.491'
p588
sg367
S'107'
p589
sg14
S'1.7'
p590
sg16
S'.250'
p591
sg18
S'0.1'
p592
sg20
S'10.6'
p593
sg22
g23
sg373
S'106'
p594
sg24
S'.846'
p595
sg28
S'NBA'
p596
sg30
S'1.9'
p597
sg32
S'9.0'
p598
sg34
S'7.6'
p599
sg36
S'2.1'
p600
sg38
S'12.2'
p601
sg40
S'32'
p602
sg42
S'MIL'
p603
sg44
S'59'
p604
sg46
S'1.9'
p605
sg48
S'4.4'
p606
sg50
S'1.8'
p607
sg52
S'8.8'
p608
sg54
S'6.8'
p609
sg56
S'2008-09'
p610
sg58
S'4.4'
p611
sg60
S'2.5'
p612
sg62
S'.497'
p613
sg64
S'977'
p614
sg66
S'23'
p615
sba(isrc.gp1.models.Per100Possession
Per100Possession
p616
(dp617
g8
S'4.8'
p618
sg10
S'0.0'
p619
sg12
S'.333'
p620
sg367
S'90'
p621
sg14
S'1.6'
p622
sg16
g3
sg18
S'0.0'
p623
sg20
S'9.5'
p624
sg22
g23
sg373
S'107'
p625
sg24
S'.400'
p626
sg28
S'NBA'
p627
sg30
S'0.8'
p628
sg32
S'11.9'
p629
sg34
S'5.6'
p630
sg36
S'4.0'
p631
sg38
S'11.1'
p632
sg40
S'33'
p633
sg42
S'TOT'
p634
sg44
S'12'
p635
sg46
S'0.0'
p636
sg48
S'4.0'
p637
sg50
S'1.6'
p638
sg52
S'11.9'
p639
sg54
S'6.3'
p640
sg56
S'2009-10'
p641
sg58
S'4.0'
p642
sg60
S'0.8'
p643
sg62
S'.333'
p644
sg64
S'66'
p645
sg66
g19
sba(isrc.gp1.models.Per100Possession
Per100Possession
p646
(dp647
g8
S'4.2'
p648
sg10
S'0.0'
p649
sg12
S'.308'
p650
sg367
S'94'
p651
sg14
S'1.7'
p652
sg16
g3
sg18
S'0.0'
p653
sg20
S'8.4'
p654
sg22
g23
sg373
S'106'
p655
sg24
S'1.000'
p656
sg28
S'NBA'
p657
sg30
S'0.8'
p658
sg32
S'11.0'
p659
sg34
S'5.9'
p660
sg36
S'1.7'
p661
sg38
S'11.0'
p662
sg40
S'33'
p663
sg42
S'MIL'
p664
sg44
S'11'
p665
sg46
S'0.0'
p666
sg48
S'3.4'
p667
sg50
S'1.7'
p668
sg52
S'11.0'
p669
sg54
S'6.8'
p670
sg56
S'2009-10'
p671
sg58
S'3.4'
p672
sg60
S'0.8'
p673
sg62
S'.308'
p674
sg64
S'62'
p675
sg66
g19
sba(isrc.gp1.models.Per100Possession
Per100Possession
p676
(dp677
g8
S'13.1'
p678
sg10
S'0.0'
p679
sg12
S'.500'
p680
sg367
S'71'
p681
sg14
S'0.0'
p682
sg16
g3
sg18
S'0.0'
p683
sg20
S'26.2'
p684
sg22
g23
sg373
S'120'
p685
sg24
S'.000'
p686
sg28
S'NBA'
p687
sg30
S'0.0'
p688
sg32
S'26.2'
p689
sg34
S'0.0'
p690
sg36
S'39.3'
p691
sg38
S'13.1'
p692
sg40
S'33'
p693
sg42
S'PHI'
p694
sg44
g11
sg46
S'0.0'
p695
sg48
S'13.1'
p696
sg50
S'0.0'
p697
sg52
S'26.2'
p698
sg54
S'0.0'
p699
sg56
S'2009-10'
p700
sg58
S'13.1'
p701
sg60
S'0.0'
p702
sg62
S'.500'
p703
sg64
g242
sg66
g19
sba(isrc.gp1.models.Per100Possession
Per100Possession
p704
(dp705
g8
S'3.0'
p706
sg10
S'0.0'
p707
sg12
S'.478'
p708
sg367
S'101'
p709
sg14
S'2.9'
p710
sg16
g3
sg18
S'0.0'
p711
sg20
S'11.6'
p712
sg22
g23
sg373
S'109'
p713
sg24
S'.839'
p714
sg28
S'NBA'
p715
sg30
S'1.8'
p716
sg32
S'9.8'
p717
sg34
S'7.3'
p718
sg36
S'2.7'
p719
sg38
S'9.9'
p720
sg40
S'34'
p721
sg42
S'UTA'
p722
sg44
S'62'
p723
sg46
S'1.2'
p724
sg48
S'4.7'
p725
sg50
S'2.2'
p726
sg52
S'9.8'
p727
sg54
S'6.9'
p728
sg56
S'2010-11'
p729
sg58
S'4.7'
p730
sg60
S'2.8'
p731
sg62
S'.478'
p732
sg64
S'610'
p733
sg66
g11
sba(isrc.gp1.models.Per100Possession
Per100Possession
p734
(dp735
g8
S'0.0'
p736
sg10
S'0.0'
p737
sg12
S'.333'
p738
sg367
S'61'
p739
sg14
S'3.3'
p740
sg16
g3
sg18
S'0.0'
p741
sg20
S'6.7'
p742
sg22
g23
sg373
S'96'
p743
sg24
g3
sg28
S'NBA'
p744
sg30
S'3.3'
p745
sg32
S'10.0'
p746
sg34
S'0.0'
p747
sg36
S'0.0'
p748
sg38
S'3.3'
p749
sg40
S'35'
p750
sg42
S'PHI'
p751
sg44
g101
sg46
S'3.3'
p752
sg48
S'3.3'
p753
sg50
S'0.0'
p754
sg52
S'10.0'
p755
sg54
S'3.3'
p756
sg56
S'2011-12'
p757
sg58
S'3.3'
p758
sg60
S'3.3'
p759
sg62
S'.333'
p760
sg64
S'16'
p761
sg66
g19
sbasS'_advanced'
p762
(lp763
(isrc.gp1.models.Advanced
Advanced
p764
(dp765
S'_offensiveReboundPercentage'
p766
S'8.3'
p767
sS'_turnOverPercentage'
p768
S'13.8'
p769
sS'_winSharesPer48Minutes'
p770
S'.097'
p771
sS'_stealPercentage'
p772
S'2.1'
p773
sS'_usagePercentage'
p774
S'12.7'
p775
sS'_totalReboundsPercentage'
p776
S'13.1'
p777
sS'_defensiveBoxPlusMinus'
p778
S'1.7'
p779
sg22
g23
sS'_valueOverReplacementPlayer'
p780
S'0.2'
p781
sS'_trueShootingPercentage'
p782
S'.498'
p783
sS'_defensiveReboundPercentage'
p784
S'18.1'
p785
sS'_freeThrowsAttempRate'
p786
S'.226'
p787
sS'_threePointsAttempRate'
p788
S'.005'
p789
sg28
S'NBA'
p790
sS'_offensiveBoxPlusMinues'
p791
S'-2.6'
p792
sS'_assistPercentage'
p793
S'5.6'
p794
sS'_defensiveWinShares'
p795
S'1.2'
p796
sg40
S'27'
p797
sg42
S'DEN'
p798
sg44
S'62'
p799
sS'_blockPercentage'
p800
S'3.1'
p801
sS'_playerEfficiencyRating'
p802
S'11.2'
p803
sS'_offensiveWinShares'
p804
S'0.6'
p805
sg64
S'875'
p806
sS'_boxPlusMinus'
p807
S'-1.0'
p808
sg56
S'2003-04'
p809
sS'_winShares'
p810
S'1.8'
p811
sba(isrc.gp1.models.Advanced
Advanced
p812
(dp813
g766
S'7.5'
p814
sg768
S'13.8'
p815
sg770
S'.081'
p816
sg772
S'1.9'
p817
sg774
S'13.8'
p818
sg776
S'12.3'
p819
sg778
S'1.8'
p820
sg22
g23
sg780
S'0.1'
p821
sg782
S'.494'
p822
sg784
S'17.1'
p823
sg786
S'.366'
p824
sg788
S'.014'
p825
sg28
S'NBA'
p826
sg791
S'-3.6'
p827
sg793
S'5.5'
p828
sg795
S'1.4'
p829
sg40
S'28'
p830
sg42
S'DEN'
p831
sg44
S'67'
p832
sg800
S'3.3'
p833
sg802
S'10.7'
p834
sg804
S'0.2'
p835
sg64
S'939'
p836
sg807
S'-1.7'
p837
sg56
S'2004-05'
p838
sg810
S'1.6'
p839
sba(isrc.gp1.models.Advanced
Advanced
p840
(dp841
g766
S'7.4'
p842
sg768
S'17.0'
p843
sg770
S'.087'
p844
sg772
S'1.7'
p845
sg774
S'10.8'
p846
sg776
S'12.5'
p847
sg778
S'1.9'
p848
sg22
g23
sg780
S'0.6'
p849
sg782
S'.556'
p850
sg784
S'17.6'
p851
sg786
S'.261'
p852
sg788
S'.018'
p853
sg28
S'NBA'
p854
sg791
S'-2.5'
p855
sg793
S'4.4'
p856
sg795
S'2.0'
p857
sg40
S'29'
p858
sg42
S'DEN'
p859
sg44
S'72'
p860
sg800
S'2.1'
p861
sg802
S'10.1'
p862
sg804
S'0.8'
p863
sg64
S'1579'
p864
sg807
S'-0.6'
p865
sg56
S'2005-06'
p866
sg810
S'2.9'
p867
sba(isrc.gp1.models.Advanced
Advanced
p868
(dp869
g766
S'7.7'
p870
sg768
S'21.3'
p871
sg770
S'.111'
p872
sg772
S'1.2'
p873
sg774
S'14.4'
p874
sg776
S'15.2'
p875
sg778
S'3.4'
p876
sg22
g23
sg780
S'0.6'
p877
sg782
S'.552'
p878
sg784
S'22.2'
p879
sg786
S'.284'
p880
sg788
S'.007'
p881
sg28
S'NBA'
p882
sg791
S'-3.7'
p883
sg793
S'6.4'
p884
sg795
S'2.9'
p885
sg40
S'30'
p886
sg42
S'SAS'
p887
sg44
S'70'
p888
sg800
S'3.3'
p889
sg802
S'11.2'
p890
sg804
S'0.2'
p891
sg64
S'1332'
p892
sg807
S'-0.3'
p893
sg56
S'2006-07'
p894
sg810
S'3.1'
p895
sba(isrc.gp1.models.Advanced
Advanced
p896
(dp897
g766
S'7.1'
p898
sg768
S'15.7'
p899
sg770
S'-0.001'
p900
sg772
S'1.0'
p901
sg774
S'17.0'
p902
sg776
S'14.2'
p903
sg778
S'0.7'
p904
sg22
g23
sg780
S'-0.9'
p905
sg782
S'.416'
p906
sg784
S'21.0'
p907
sg786
S'.157'
p908
sg788
S'.004'
p909
sg28
S'NBA'
p910
sg791
S'-7.2'
p911
sg793
S'4.6'
p912
sg795
S'1.2'
p913
sg40
S'31'
p914
sg42
S'TOT'
p915
sg44
S'63'
p916
sg800
S'1.8'
p917
sg802
S'6.9'
p918
sg804
S'-1.3'
p919
sg64
S'813'
p920
sg807
S'-6.5'
p921
sg56
S'2007-08'
p922
sg810
S'0.0'
p923
sba(isrc.gp1.models.Advanced
Advanced
p924
(dp925
g766
S'7.4'
p926
sg768
S'15.9'
p927
sg770
S'.043'
p928
sg772
S'0.9'
p929
sg774
S'16.9'
p930
sg776
S'14.9'
p931
sg778
S'1.3'
p932
sg22
g23
sg780
S'-0.4'
p933
sg782
S'.454'
p934
sg784
S'22.2'
p935
sg786
S'.162'
p936
sg788
S'.000'
p937
sg28
S'NBA'
p938
sg791
S'-6.6'
p939
sg793
S'4.8'
p940
sg795
S'1.0'
p941
sg40
S'31'
p942
sg42
S'SAS'
p943
sg44
S'41'
p944
sg800
S'2.0'
p945
sg802
S'8.5'
p946
sg804
S'-0.5'
p947
sg64
S'534'
p948
sg807
S'-5.3'
p949
sg56
S'2007-08'
p950
sg810
S'0.5'
p951
sba(isrc.gp1.models.Advanced
Advanced
p952
(dp953
g766
S'6.7'
p954
sg768
S'15.4'
p955
sg770
S'-0.085'
p956
sg772
S'1.1'
p957
sg774
S'17.2'
p958
sg776
S'12.7'
p959
sg778
S'-0.5'
p960
sg22
g23
sg780
S'-0.5'
p961
sg782
S'.352'
p962
sg784
S'18.7'
p963
sg786
S'.148'
p964
sg788
S'.011'
p965
sg28
S'NBA'
p966
sg791
S'-8.3'
p967
sg793
S'4.2'
p968
sg795
S'0.2'
p969
sg40
S'31'
p970
sg42
S'SEA'
p971
sg44
S'22'
p972
sg800
S'1.5'
p973
sg802
S'3.8'
p974
sg804
S'-0.7'
p975
sg64
S'279'
p976
sg807
S'-8.8'
p977
sg56
S'2007-08'
p978
sg810
S'-0.5'
p979
sba(isrc.gp1.models.Advanced
Advanced
p980
(dp981
g766
S'11.6'
p982
sg768
S'20.5'
p983
sg770
S'.089'
p984
sg772
S'1.9'
p985
sg774
S'10.8'
p986
sg776
S'13.8'
p987
sg778
S'2.7'
p988
sg22
g23
sg780
S'0.5'
p989
sg782
S'.537'
p990
sg784
S'16.3'
p991
sg786
S'.231'
p992
sg788
S'.024'
p993
sg28
S'NBA'
p994
sg791
S'-2.5'
p995
sg793
S'4.8'
p996
sg795
S'1.3'
p997
sg40
S'32'
p998
sg42
S'MIL'
p999
sg44
S'59'
p1000
sg800
S'3.1'
p1001
sg802
S'10.3'
p1002
sg804
S'0.5'
p1003
sg64
S'977'
p1004
sg807
S'0.1'
p1005
sg56
S'2008-09'
p1006
sg810
S'1.8'
p1007
sba(isrc.gp1.models.Advanced
Advanced
p1008
(dp1009
g766
S'10.0'
p1010
sg768
S'5.5'
p1011
sg770
S'.022'
p1012
sg772
S'0.8'
p1013
sg774
S'12.5'
p1014
sg776
S'12.1'
p1015
sg778
S'-0.8'
p1016
sg22
g23
sg780
S'-0.1'
p1017
sg782
S'.349'
p1018
sg784
S'14.5'
p1019
sg786
S'.333'
p1020
sg788
S'.000'
p1021
sg28
S'NBA'
p1022
sg791
S'-6.0'
p1023
sg793
S'4.3'
p1024
sg795
S'0.1'
p1025
sg40
S'33'
p1026
sg42
S'TOT'
p1027
sg44
S'12'
p1028
sg800
S'0.0'
p1029
sg802
S'5.5'
p1030
sg804
S'0.0'
p1031
sg64
S'66'
p1032
sg807
S'-6.8'
p1033
sg56
S'2009-10'
p1034
sg810
S'0.0'
p1035
sba(isrc.gp1.models.Advanced
Advanced
p1036
(dp1037
g766
S'8.7'
p1038
sg768
S'6.7'
p1039
sg770
S'.044'
p1040
sg772
S'0.8'
p1041
sg774
S'10.9'
p1042
sg776
S'11.9'
p1043
sg778
S'0.1'
p1044
sg22
g23
sg780
S'-0.1'
p1045
sg782
S'.360'
p1046
sg784
S'15.4'
p1047
sg786
S'.154'
p1048
sg788
S'.000'
p1049
sg28
S'NBA'
p1050
sg791
S'-5.8'
p1051
sg793
S'4.6'
p1052
sg795
S'0.1'
p1053
sg40
S'33'
p1054
sg42
S'MIL'
p1055
sg44
S'11'
p1056
sg800
S'0.0'
p1057
sg802
S'5.4'
p1058
sg804
S'0.0'
p1059
sg64
S'62'
p1060
sg807
S'-5.8'
p1061
sg56
S'2009-10'
p1062
sg810
S'0.1'
p1063
sba(isrc.gp1.models.Advanced
Advanced
p1064
(dp1065
g766
S'29.0'
p1066
sg768
S'0.0'
p1067
sg770
S'-0.326'
p1068
sg772
S'0.0'
p1069
sg774
S'37.8'
p1070
sg776
S'14.7'
p1071
sg778
S'-14.5'
p1072
sg22
g23
sg780
S'0.0'
p1073
sg782
S'.301'
p1074
sg784
S'0.0'
p1075
sg786
S'1.500'
p1076
sg788
S'.000'
p1077
sg28
S'NBA'
p1078
sg791
S'-9.0'
p1079
sg793
S'0.0'
p1080
sg795
S'0.0'
p1081
sg40
S'33'
p1082
sg42
S'PHI'
p1083
sg44
g11
sg800
S'0.0'
p1084
sg802
S'6.3'
p1085
sg804
S'0.0'
p1086
sg64
g242
sg807
S'-23.5'
p1087
sg56
S'2009-10'
p1088
sg810
S'0.0'
p1089
sba(isrc.gp1.models.Advanced
Advanced
p1090
(dp1091
g766
S'6.9'
p1092
sg768
S'20.2'
p1093
sg770
S'.046'
p1094
sg772
S'1.8'
p1095
sg774
S'11.9'
p1096
sg776
S'11.4'
p1097
sg778
S'0.4'
p1098
sg22
g23
sg780
S'-0.2'
p1099
sg782
S'.529'
p1100
sg784
S'16.0'
p1101
sg786
S'.274'
p1102
sg788
S'.000'
p1103
sg28
S'NBA'
p1104
sg791
S'-3.5'
p1105
sg793
S'7.9'
p1106
sg795
S'0.5'
p1107
sg40
S'34'
p1108
sg42
S'UTA'
p1109
sg44
S'62'
p1110
sg800
S'1.9'
p1111
sg802
S'8.9'
p1112
sg804
S'0.1'
p1113
sg64
S'610'
p1114
sg807
S'-3.1'
p1115
sg56
S'2010-11'
p1116
sg810
S'0.6'
p1117
sba(isrc.gp1.models.Advanced
Advanced
p1118
(dp1119
g766
S'0.0'
p1120
sg768
S'25.0'
p1121
sg770
S'-0.026'
p1122
sg772
S'3.3'
p1123
sg774
S'11.7'
p1124
sg776
S'3.5'
p1125
sg778
S'4.3'
p1126
sg22
g23
sg780
S'0.0'
p1127
sg782
S'.333'
p1128
sg784
S'7.0'
p1129
sg786
S'.000'
p1130
sg788
S'.000'
p1131
sg28
S'NBA'
p1132
sg791
S'-8.6'
p1133
sg793
S'8.8'
p1134
sg795
S'0.0'
p1135
sg40
S'35'
p1136
sg42
S'PHI'
p1137
sg44
g101
sg800
S'4.7'
p1138
sg802
S'6.3'
p1139
sg804
S'0.0'
p1140
sg64
S'16'
p1141
sg807
S'-4.3'
p1142
sg56
S'2011-12'
p1143
sg810
S'0.0'
p1144
sbasS'_per36Minutes'
p1145
(lp1146
(isrc.gp1.models.Per36Minutes
Per36Minutes
p1147
(dp1148
g8
S'2.7'
p1149
sg10
S'0.0'
p1150
sg12
S'.472'
p1151
sg14
S'1.3'
p1152
sg16
S'.000'
p1153
sg18
S'0.0'
p1154
sg20
S'9.0'
p1155
sg22
g23
sg24
S'.667'
p1156
sg28
S'NBA'
p1157
sg30
S'1.4'
p1158
sg32
S'8.2'
p1159
sg34
S'6.0'
p1160
sg36
S'1.9'
p1161
sg38
S'8.4'
p1162
sg40
S'27'
p1163
sg42
S'DEN'
p1164
sg44
S'62'
p1165
sg46
S'1.6'
p1166
sg48
S'3.9'
p1167
sg50
S'1.2'
p1168
sg52
S'8.1'
p1169
sg54
S'5.7'
p1170
sg56
S'2003-04'
p1171
sg58
S'3.9'
p1172
sg60
S'1.4'
p1173
sg62
S'.475'
p1174
sg64
S'875'
p1175
sg66
S'14'
p1176
sba(isrc.gp1.models.Per36Minutes
Per36Minutes
p1177
(dp1178
g8
S'2.3'
p1179
sg10
S'0.1'
p1180
sg12
S'.468'
p1181
sg14
S'1.3'
p1182
sg16
S'.333'
p1183
sg18
S'0.0'
p1184
sg20
S'9.5'
p1185
sg22
g23
sg24
S'.570'
p1186
sg28
S'NBA'
p1187
sg30
S'1.3'
p1188
sg32
S'8.3'
p1189
sg34
S'4.9'
p1190
sg36
S'3.0'
p1191
sg38
S'7.7'
p1192
sg40
S'28'
p1193
sg42
S'DEN'
p1194
sg44
S'67'
p1195
sg46
S'1.6'
p1196
sg48
S'3.8'
p1197
sg50
S'1.7'
p1198
sg52
S'8.2'
p1199
sg54
S'5.4'
p1200
sg56
S'2004-05'
p1201
sg58
S'3.9'
p1202
sg60
S'1.5'
p1203
sg62
S'.469'
p1204
sg64
S'939'
p1205
sg66
S'11'
p1206
sba(isrc.gp1.models.Per36Minutes
Per36Minutes
p1207
(dp1208
g8
S'2.3'
p1209
sg10
S'0.1'
p1210
sg12
S'.532'
p1211
sg14
S'1.1'
p1212
sg16
S'.200'
p1213
sg18
S'0.0'
p1214
sg20
S'8.0'
p1215
sg22
g23
sg24
S'.662'
p1216
sg28
S'NBA'
p1217
sg30
S'1.2'
p1218
sg32
S'6.5'
p1219
sg34
S'4.8'
p1220
sg36
S'1.7'
p1221
sg38
S'7.7'
p1222
sg40
S'29'
p1223
sg42
S'DEN'
p1224
sg44
S'72'
p1225
sg46
S'1.0'
p1226
sg48
S'3.4'
p1227
sg50
S'1.1'
p1228
sg52
S'6.4'
p1229
sg54
S'5.5'
p1230
sg56
S'2005-06'
p1231
sg58
S'3.4'
p1232
sg60
S'1.5'
p1233
sg62
S'.538'
p1234
sg64
S'1579'
p1235
sg66
S'54'
p1236
sba(isrc.gp1.models.Per36Minutes
Per36Minutes
p1237
(dp1238
g8
S'2.2'
p1239
sg10
S'0.1'
p1240
sg12
S'.511'
p1241
sg14
S'1.5'
p1242
sg16
S'.000'
p1243
sg18
S'0.0'
p1244
sg20
S'9.5'
p1245
sg22
g23
sg24
S'.775'
p1246
sg28
S'NBA'
p1247
sg30
S'0.8'
p1248
sg32
S'7.6'
p1249
sg34
S'5.0'
p1250
sg36
S'2.2'
p1251
sg38
S'9.1'
p1252
sg40
S'30'
p1253
sg42
S'SAS'
p1254
sg44
S'70'
p1255
sg46
S'1.6'
p1256
sg48
S'3.9'
p1257
sg50
S'1.7'
p1258
sg52
S'7.6'
p1259
sg54
S'6.9'
p1260
sg56
S'2006-07'
p1261
sg58
S'3.9'
p1262
sg60
S'2.3'
p1263
sg62
S'.514'
p1264
sg64
S'1332'
p1265
sg66
S'41'
p1266
sba(isrc.gp1.models.Per36Minutes
Per36Minutes
p1267
(dp1268
g8
S'2.2'
p1269
sg10
S'0.0'
p1270
sg12
S'.390'
p1271
sg14
S'1.1'
p1272
sg16
S'.000'
p1273
sg18
S'0.0'
p1274
sg20
S'9.3'
p1275
sg22
g23
sg24
S'.703'
p1276
sg28
S'NBA'
p1277
sg30
S'0.7'
p1278
sg32
S'10.5'
p1279
sg34
S'4.3'
p1280
sg36
S'1.6'
p1281
sg38
S'8.9'
p1282
sg40
S'31'
p1283
sg42
S'TOT'
p1284
sg44
S'63'
p1285
sg46
S'0.9'
p1286
sg48
S'4.1'
p1287
sg50
S'1.2'
p1288
sg52
S'10.4'
p1289
sg54
S'6.6'
p1290
sg56
S'2007-08'
p1291
sg58
S'4.1'
p1292
sg60
S'2.1'
p1293
sg62
S'.391'
p1294
sg64
S'813'
p1295
sg66
g101
sba(isrc.gp1.models.Per36Minutes
Per36Minutes
p1296
(dp1297
g8
S'2.2'
p1298
sg10
S'0.0'
p1299
sg12
S'.419'
p1300
sg14
S'1.1'
p1301
sg16
g3
sg18
S'0.0'
p1302
sg20
S'9.7'
p1303
sg22
g23
sg24
S'.833'
p1304
sg28
S'NBA'
p1305
sg30
S'0.6'
p1306
sg32
S'10.0'
p1307
sg34
S'4.2'
p1308
sg36
S'1.6'
p1309
sg38
S'9.1'
p1310
sg40
S'31'
p1311
sg42
S'SAS'
p1312
sg44
S'41'
p1313
sg46
S'0.9'
p1314
sg48
S'4.2'
p1315
sg50
S'1.3'
p1316
sg52
S'10.0'
p1317
sg54
S'6.9'
p1318
sg56
S'2007-08'
p1319
sg58
S'4.2'
p1320
sg60
S'2.0'
p1321
sg62
S'.419'
p1322
sg64
S'534'
p1323
sg66
g71
sba(isrc.gp1.models.Per36Minutes
Per36Minutes
p1324
(dp1325
g8
S'2.2'
p1326
sg10
S'0.1'
p1327
sg12
S'.341'
p1328
sg14
S'1.0'
p1329
sg16
S'.000'
p1330
sg18
S'0.0'
p1331
sg20
S'8.5'
p1332
sg22
g23
sg24
S'.462'
p1333
sg28
S'NBA'
p1334
sg30
S'0.8'
p1335
sg32
S'11.4'
p1336
sg34
S'4.4'
p1337
sg36
S'1.7'
p1338
sg38
S'8.4'
p1339
sg40
S'31'
p1340
sg42
S'SEA'
p1341
sg44
S'22'
p1342
sg46
S'0.8'
p1343
sg48
S'3.9'
p1344
sg50
S'0.8'
p1345
sg52
S'11.2'
p1346
sg54
S'6.2'
p1347
sg56
S'2007-08'
p1348
sg58
S'3.9'
p1349
sg60
S'2.2'
p1350
sg62
S'.345'
p1351
sg64
S'279'
p1352
sg66
g131
sba(isrc.gp1.models.Per36Minutes
Per36Minutes
p1353
(dp1354
g8
S'3.7'
p1355
sg10
S'0.1'
p1356
sg12
S'.491'
p1357
sg14
S'1.2'
p1358
sg16
S'.250'
p1359
sg18
S'0.0'
p1360
sg20
S'7.4'
p1361
sg22
g23
sg24
S'.846'
p1362
sg28
S'NBA'
p1363
sg30
S'1.3'
p1364
sg32
S'6.2'
p1365
sg34
S'5.3'
p1366
sg36
S'1.4'
p1367
sg38
S'8.4'
p1368
sg40
S'32'
p1369
sg42
S'MIL'
p1370
sg44
S'59'
p1371
sg46
S'1.3'
p1372
sg48
S'3.0'
p1373
sg50
S'1.2'
p1374
sg52
S'6.1'
p1375
sg54
S'4.8'
p1376
sg56
S'2008-09'
p1377
sg58
S'3.1'
p1378
sg60
S'1.8'
p1379
sg62
S'.497'
p1380
sg64
S'977'
p1381
sg66
S'23'
p1382
sba(isrc.gp1.models.Per36Minutes
Per36Minutes
p1383
(dp1384
g8
S'3.3'
p1385
sg10
S'0.0'
p1386
sg12
S'.333'
p1387
sg14
S'1.1'
p1388
sg16
g3
sg18
S'0.0'
p1389
sg20
S'6.5'
p1390
sg22
g23
sg24
S'.400'
p1391
sg28
S'NBA'
p1392
sg30
S'0.5'
p1393
sg32
S'8.2'
p1394
sg34
S'3.8'
p1395
sg36
S'2.7'
p1396
sg38
S'7.6'
p1397
sg40
S'33'
p1398
sg42
S'TOT'
p1399
sg44
S'12'
p1400
sg46
S'0.0'
p1401
sg48
S'2.7'
p1402
sg50
S'1.1'
p1403
sg52
S'8.2'
p1404
sg54
S'4.4'
p1405
sg56
S'2009-10'
p1406
sg58
S'2.7'
p1407
sg60
S'0.5'
p1408
sg62
S'.333'
p1409
sg64
S'66'
p1410
sg66
g19
sba(isrc.gp1.models.Per36Minutes
Per36Minutes
p1411
(dp1412
g8
S'2.9'
p1413
sg10
S'0.0'
p1414
sg12
S'.308'
p1415
sg14
S'1.2'
p1416
sg16
g3
sg18
S'0.0'
p1417
sg20
S'5.8'
p1418
sg22
g23
sg24
S'1.000'
p1419
sg28
S'NBA'
p1420
sg30
S'0.6'
p1421
sg32
S'7.5'
p1422
sg34
S'4.1'
p1423
sg36
S'1.2'
p1424
sg38
S'7.5'
p1425
sg40
S'33'
p1426
sg42
S'MIL'
p1427
sg44
S'11'
p1428
sg46
S'0.0'
p1429
sg48
S'2.3'
p1430
sg50
S'1.2'
p1431
sg52
S'7.5'
p1432
sg54
S'4.6'
p1433
sg56
S'2009-10'
p1434
sg58
S'2.3'
p1435
sg60
S'0.6'
p1436
sg62
S'.308'
p1437
sg64
S'62'
p1438
sg66
g19
sba(isrc.gp1.models.Per36Minutes
Per36Minutes
p1439
(dp1440
g8
S'9.0'
p1441
sg10
S'0.0'
p1442
sg12
S'.500'
p1443
sg14
S'0.0'
p1444
sg16
g3
sg18
S'0.0'
p1445
sg20
S'18.0'
p1446
sg22
g23
sg24
S'.000'
p1447
sg28
S'NBA'
p1448
sg30
S'0.0'
p1449
sg32
S'18.0'
p1450
sg34
S'0.0'
p1451
sg36
S'27.0'
p1452
sg38
S'9.0'
p1453
sg40
S'33'
p1454
sg42
S'PHI'
p1455
sg44
g11
sg46
S'0.0'
p1456
sg48
S'9.0'
p1457
sg50
S'0.0'
p1458
sg52
S'18.0'
p1459
sg54
S'0.0'
p1460
sg56
S'2009-10'
p1461
sg58
S'9.0'
p1462
sg60
S'0.0'
p1463
sg62
S'.500'
p1464
sg64
g242
sg66
g19
sba(isrc.gp1.models.Per36Minutes
Per36Minutes
p1465
(dp1466
g8
S'2.1'
p1467
sg10
S'0.0'
p1468
sg12
S'.478'
p1469
sg14
S'1.9'
p1470
sg16
g3
sg18
S'0.0'
p1471
sg20
S'7.9'
p1472
sg22
g23
sg24
S'.839'
p1473
sg28
S'NBA'
p1474
sg30
S'1.2'
p1475
sg32
S'6.7'
p1476
sg34
S'5.0'
p1477
sg36
S'1.8'
p1478
sg38
S'6.8'
p1479
sg40
S'34'
p1480
sg42
S'UTA'
p1481
sg44
S'62'
p1482
sg46
S'0.8'
p1483
sg48
S'3.2'
p1484
sg50
S'1.5'
p1485
sg52
S'6.7'
p1486
sg54
S'4.7'
p1487
sg56
S'2010-11'
p1488
sg58
S'3.2'
p1489
sg60
S'1.9'
p1490
sg62
S'.478'
p1491
sg64
S'610'
p1492
sg66
g11
sba(isrc.gp1.models.Per36Minutes
Per36Minutes
p1493
(dp1494
g8
S'0.0'
p1495
sg10
S'0.0'
p1496
sg12
S'.333'
p1497
sg14
S'2.3'
p1498
sg16
g3
sg18
S'0.0'
p1499
sg20
S'4.5'
p1500
sg22
g23
sg24
g3
sg28
S'NBA'
p1501
sg30
S'2.3'
p1502
sg32
S'6.8'
p1503
sg34
S'0.0'
p1504
sg36
S'0.0'
p1505
sg38
S'2.3'
p1506
sg40
S'35'
p1507
sg42
S'PHI'
p1508
sg44
g101
sg46
S'2.3'
p1509
sg48
S'2.3'
p1510
sg50
S'0.0'
p1511
sg52
S'6.8'
p1512
sg54
S'2.3'
p1513
sg56
S'2011-12'
p1514
sg58
S'2.3'
p1515
sg60
S'2.3'
p1516
sg62
S'.333'
p1517
sg64
S'16'
p1518
sg66
g19
sbasS'_fromYear'
p1519
S'2004'
p1520
sS'_url'
p1521
S'http://www.basketball-reference.com/players/e/elsonfr01.html'
p1522
sS'_perGame'
p1523
(isrc.gp1.models.PerGame
PerGame
p1524
(dp1525
g8
S'0.0'
p1526
sg10
S'0.0'
p1527
sg12
S'.333'
p1528
sS'_effectiveFieldGalPercentage'
p1529
S'.333'
p1530
sg14
S'0.2'
p1531
sg16
g3
sg18
S'0.0'
p1532
sg20
S'0.4'
p1533
sg22
g23
sg24
g3
sg28
S'NBA'
p1534
sg30
S'0.2'
p1535
sg34
S'0.0'
p1536
sS'_fieldGoalsttempted'
p1537
S'0.6'
p1538
sg36
S'0.0'
p1539
sg38
S'0.2'
p1540
sg40
S'35'
p1541
sg42
S'PHI'
p1542
sg44
g101
sg46
S'0.2'
p1543
sg48
S'0.2'
p1544
sg50
S'0.0'
p1545
sg52
S'0.6'
p1546
sg54
S'0.2'
p1547
sg56
S'2011-12'
p1548
sg58
S'0.2'
p1549
sg60
S'0.2'
p1550
sg62
S'.333'
p1551
sg64
S'3.2'
p1552
sg66
g19
sbsS'_weight'
p1553
S'235'
p1554
sS'_dob'
p1555
S'28-2-1976'
p1556
sS'_salary'
p1557
(lp1558
(isrc.gp1.models.Salary
Salary
p1559
(dp1560
g42
S'Denver Nuggets'
p1561
sg28
S'NBA'
p1562
sg1557
S'$366,931'
p1563
sg56
S'2003-04'
p1564
sba(isrc.gp1.models.Salary
Salary
p1565
(dp1566
g42
S'Denver Nuggets'
p1567
sg28
S'NBA'
p1568
sg1557
S'$620,046'
p1569
sg56
S'2004-05'
p1570
sba(isrc.gp1.models.Salary
Salary
p1571
(dp1572
g42
S'Denver Nuggets'
p1573
sg28
S'NBA'
p1574
sg1557
S'$719,373'
p1575
sg56
S'2005-06'
p1576
sba(isrc.gp1.models.Salary
Salary
p1577
(dp1578
g42
S'San Antonio Spurs'
p1579
sg28
S'NBA'
p1580
sg1557
S'$3,000,000'
p1581
sg56
S'2006-07'
p1582
sba(isrc.gp1.models.Salary
Salary
p1583
(dp1584
g42
S'Seattle SuperSonics'
p1585
sg28
S'NBA'
p1586
sg1557
S'$3,000,000'
p1587
sg56
S'2007-08'
p1588
sba(isrc.gp1.models.Salary
Salary
p1589
(dp1590
g42
S'Milwaukee Bucks'
p1591
sg28
S'NBA'
p1592
sg1557
S'$1,700,000'
p1593
sg56
S'2008-09'
p1594
sba(isrc.gp1.models.Salary
Salary
p1595
(dp1596
g42
S'Philadelphia 76ers'
p1597
sg28
S'NBA'
p1598
sg1557
S'$1,700,000'
p1599
sg56
S'2009-10'
p1600
sba(isrc.gp1.models.Salary
Salary
p1601
(dp1602
g42
S'Utah Jazz'
p1603
sg28
S'NBA'
p1604
sg1557
S'$1,146,337'
p1605
sg56
S'2010-11'
p1606
sba(isrc.gp1.models.Salary
Salary
p1607
(dp1608
g42
S'Philadelphia 76ers'
p1609
sg28
S'NBA'
p1610
sg1557
S'$305,792'
p1611
sg56
S'2011-12'
p1612
sbasg22
g23
sb.