(isrc.gp1.models.Player
Player
p0
(dp1
S'_experience'
p2
V16
p3
sS'_totals'
p4
(lp5
(isrc.gp1.models.Totals
Totals
p6
(dp7
S'_offensiveRebounds'
p8
S'348'
p9
sS'_threePointsAttempted'
p10
S'2'
p11
sS'_fieldGoalsPercentage'
p12
S'.482'
p13
sS'_assist'
p14
S'155'
p15
sS'_threePointsPercentage'
p16
S'.000'
p17
sS'_threePoints'
p18
S'0'
p19
sS'_points'
p20
S'1627'
p21
sS'_position'
p22
S'PF'
p23
sS'_freeThrowsPercentage'
p24
S'.685'
p25
sS'_effectiveFieldGoalPercentage'
p26
S'.482'
p27
sS'_league'
p28
S'NBA'
p29
sS'_steals'
p30
S'66'
p31
sS'_fieldGoalsAttempted'
p32
S'1306'
p33
sS'_personalFouls'
p34
S'259'
p35
sS'_freeThrowsAttempted'
p36
S'536'
p37
sS'_totalRebounds'
p38
S'810'
p39
sS'_age'
p40
S'20'
p41
sS'_team'
p42
S'CHI'
p43
sS'_games'
p44
S'81'
p45
sS'_blocks'
p46
S'132'
p47
sS'_twoPoints'
p48
S'630'
p49
sS'_freeThrows'
p50
S'367'
p51
sS'_twoPointsAttempted'
p52
S'1304'
p53
sS'_defensiveRebounds'
p54
S'462'
p55
sS'_season'
p56
S'1999-00'
p57
sS'_fieldGoals'
p58
S'630'
p59
sS'_turnOvers'
p60
S'228'
p61
sS'_twoPointsPercentage'
p62
S'.483'
p63
sS'_minutesPlayed'
p64
S'2999'
p65
sS'_gamesStarted'
p66
S'80'
p67
sba(isrc.gp1.models.Totals
Totals
p68
(dp69
g8
S'285'
p70
sg10
g11
sg12
S'.476'
p71
sg14
S'240'
p72
sg16
S'.000'
p73
sg18
g19
sg20
S'1490'
p74
sg22
S'PF'
p75
sg24
S'.708'
p76
sg26
S'.476'
p77
sg28
S'NBA'
p78
sg30
S'71'
p79
sg32
S'1215'
p80
sg34
S'243'
p81
sg36
S'472'
p82
sg38
S'746'
p83
sg40
S'21'
p84
sg42
S'CHI'
p85
sg44
S'74'
p86
sg46
S'118'
p87
sg48
S'578'
p88
sg50
S'334'
p89
sg52
S'1213'
p90
sg54
S'461'
p91
sg56
S'2000-01'
p92
sg58
S'578'
p93
sg60
S'219'
p94
sg62
S'.477'
p95
sg64
S'2906'
p96
sg66
S'74'
p97
sba(isrc.gp1.models.Totals
Totals
p98
(dp99
g8
S'925'
p100
sg10
S'532'
p101
sg12
g19
sg14
S'163'
p102
sg16
S'1010'
p103
sg18
g19
sg20
S'NA'
p104
sg22
S'80'
p105
sg24
S'529'
p106
sg26
S'524'
p107
sg28
S'PF'
p108
sg30
S'173'
p109
sg32
S'.527'
p110
sg34
g104
sg36
S'396'
p111
sg38
S'80'
p112
sg40
S'LAC'
p113
sg42
S'NBA'
p114
sg44
S'80'
p115
sg46
S'254'
p116
sg48
S'.527'
p117
sg50
S'.742'
p118
sg52
S'.527'
p119
sg54
S'191'
p120
sg56
S'22'
p121
sg58
S'1010'
p122
sg60
S'1453'
p123
sg62
S'389'
p124
sg64
S'532'
p125
sg66
S'3020'
p126
sba(isrc.gp1.models.Totals
Totals
p127
(dp128
g8
S'283'
p129
sg10
S'1'
p130
sg12
S'.502'
p131
sg14
S'157'
p132
sg16
S'.000'
p133
sg18
g19
sg20
S'1146'
p134
sg22
S'PF'
p135
sg24
S'.685'
p136
sg26
S'.502'
p137
sg28
S'NBA'
p138
sg30
S'71'
p139
sg32
S'899'
p140
sg34
S'204'
p141
sg36
S'356'
p142
sg38
S'703'
p143
sg40
S'23'
p144
sg42
S'LAC'
p145
sg44
S'62'
p146
sg46
S'158'
p147
sg48
S'451'
p148
sg50
S'244'
p149
sg52
S'898'
p150
sg54
S'420'
p151
sg56
S'2002-03'
p152
sg58
S'451'
p153
sg60
S'161'
p154
sg62
S'.502'
p155
sg64
S'2454'
p156
sg66
S'61'
p157
sba(isrc.gp1.models.Totals
Totals
p158
(dp159
g8
S'269'
p160
sg10
g130
sg12
S'.493'
p161
sg14
S'227'
p162
sg16
S'.000'
p163
sg18
g19
sg20
S'1379'
p164
sg22
S'PF'
p165
sg24
S'.773'
p166
sg26
S'.493'
p167
sg28
S'NBA'
p168
sg30
S'64'
p169
sg32
S'982'
p170
sg34
S'229'
p171
sg36
S'532'
p172
sg38
S'714'
p173
sg40
S'24'
p174
sg42
S'LAC'
p175
sg44
S'69'
p176
sg46
S'154'
p177
sg48
S'484'
p178
sg50
S'411'
p179
sg52
S'981'
p180
sg54
S'445'
p181
sg56
S'2003-04'
p182
sg58
S'484'
p183
sg60
S'193'
p184
sg62
S'.493'
p185
sg64
S'2670'
p186
sg66
S'68'
p187
sba(isrc.gp1.models.Totals
Totals
p188
(dp189
g8
S'296'
p190
sg10
S'3'
p191
sg12
S'.503'
p192
sg14
S'208'
p193
sg16
S'.000'
p194
sg18
g19
sg20
S'1622'
p195
sg22
S'PF'
p196
sg24
S'.752'
p197
sg26
S'.503'
p198
sg28
S'NBA'
p199
sg30
S'62'
p200
sg32
S'1251'
p201
sg34
S'240'
p202
sg36
S'484'
p203
sg38
S'770'
p204
sg40
S'25'
p205
sg42
S'LAC'
p206
sg44
S'81'
p207
sg46
S'169'
p208
sg48
S'629'
p209
sg50
S'364'
p210
sg52
S'1248'
p211
sg54
S'474'
p212
sg56
S'2004-05'
p213
sg58
S'629'
p214
sg60
S'183'
p215
sg62
S'.504'
p216
sg64
S'3001'
p217
sg66
S'81'
p218
sba(isrc.gp1.models.Totals
Totals
p219
(dp220
g8
S'554'
p221
sg10
S'.333'
p222
sg12
g130
sg14
S'81'
p223
sg16
S'755'
p224
sg18
g191
sg20
g104
sg22
S'79'
p225
sg24
S'236'
p226
sg26
S'440'
p227
sg28
S'PF'
p228
sg30
S'201'
p229
sg32
S'.527'
p230
sg34
S'1953'
p231
sg36
S'.775'
p232
sg38
S'208'
p233
sg40
S'LAC'
p234
sg42
S'NBA'
p235
sg44
S'79'
p236
sg46
S'173'
p237
sg48
S'1432'
p238
sg50
S'568'
p239
sg52
S'.527'
p240
sg54
S'790'
p241
sg56
S'26'
p242
sg58
S'1435'
p243
sg60
S'227'
p244
sg62
S'.527'
p245
sg64
S'756'
p246
sg66
S'3099'
p247
sba(isrc.gp1.models.Totals
Totals
p248
(dp249
g8
S'268'
p250
sg10
g130
sg12
S'.533'
p251
sg14
S'235'
p252
sg16
S'1.000'
p253
sg18
g130
sg20
S'1642'
p254
sg22
S'PF'
p255
sg24
S'.761'
p256
sg26
S'.533'
p257
sg28
S'NBA'
p258
sg30
S'77'
p259
sg32
S'1211'
p260
sg34
S'238'
p261
sg36
S'461'
p262
sg38
S'744'
p263
sg40
S'27'
p264
sg42
S'LAC'
p265
sg44
S'80'
p266
sg46
S'179'
p267
sg48
S'644'
p268
sg50
S'351'
p269
sg52
S'1210'
p270
sg54
S'476'
p271
sg56
S'2006-07'
p272
sg58
S'645'
p273
sg60
S'202'
p274
sg62
S'.532'
p275
sg64
S'3077'
p276
sg66
S'80'
p277
sba(isrc.gp1.models.Totals
Totals
p278
(dp279
g8
S'43'
p280
sg10
g19
sg12
S'.456'
p281
sg14
g191
sg16
S'52'
p282
sg18
g19
sg20
g104
sg22
S'PF'
p283
sg24
S'21'
p284
sg26
S'37'
p285
sg28
S'NBA'
p286
sg30
S'15'
p287
sg32
S'114'
p288
sg34
S'141'
p289
sg36
S'.787'
p290
sg38
S'16'
p291
sg40
S'28'
p292
sg42
S'LAC'
p293
sg44
S'8'
p294
sg46
S'17'
p295
sg48
S'114'
p296
sg50
S'47'
p297
sg52
S'.456'
p298
sg54
S'64'
p299
sg56
S'2007-08'
p300
sg58
S'52'
p301
sg60
S'21'
p302
sg62
S'.456'
p303
sg64
S'274'
p304
sg66
S'6'
p305
sba(isrc.gp1.models.Totals
Totals
p306
(dp307
g8
S'177'
p308
sg10
g19
sg12
S'.447'
p309
sg14
S'17'
p310
sg16
S'163'
p311
sg18
g19
sg20
g104
sg22
S'PF'
p312
sg24
S'77'
p313
sg26
S'73'
p314
sg28
S'NBA'
p315
sg30
S'45'
p316
sg32
S'365'
p317
sg34
S'399'
p318
sg36
S'.676'
p319
sg38
S'37'
p320
sg40
S'29'
p321
sg42
S'PHI'
p322
sg44
S'29'
p323
sg46
S'68'
p324
sg48
S'365'
p325
sg50
S'108'
p326
sg52
S'.447'
p327
sg54
S'254'
p328
sg56
S'2008-09'
p329
sg58
S'163'
p330
sg60
S'78'
p331
sg62
S'.447'
p332
sg64
S'920'
p333
sg66
S'23'
p334
sba(isrc.gp1.models.Totals
Totals
p335
(dp336
g8
S'179'
p337
sg10
g130
sg12
S'.480'
p338
sg14
S'109'
p339
sg16
S'.000'
p340
sg18
g19
sg20
S'996'
p341
sg22
S'PF'
p342
sg24
S'.738'
p343
sg26
S'.480'
p344
sg28
S'NBA'
p345
sg30
S'82'
p346
sg32
S'858'
p347
sg34
S'232'
p348
sg36
S'233'
p349
sg38
S'461'
p350
sg40
S'30'
p351
sg42
S'PHI'
p352
sg44
S'76'
p353
sg46
S'80'
p354
sg48
S'412'
p355
sg50
S'172'
p356
sg52
S'857'
p357
sg54
S'282'
p358
sg56
S'2009-10'
p359
sg58
S'412'
p360
sg60
S'131'
p361
sg62
S'.481'
p362
sg64
S'2297'
p363
sg66
S'57'
p364
sba(isrc.gp1.models.Totals
Totals
p365
(dp366
g8
S'237'
p367
sg10
g130
sg12
S'.512'
p368
sg14
S'120'
p369
sg16
S'.000'
p370
sg18
g19
sg20
S'1217'
p371
sg22
S'PF'
p372
sg24
S'.780'
p373
sg26
S'.512'
p374
sg28
S'NBA'
p375
sg30
S'92'
p376
sg32
S'981'
p377
sg34
S'244'
p378
sg36
S'273'
p379
sg38
S'676'
p380
sg40
S'31'
p381
sg42
S'PHI'
p382
sg44
S'81'
p383
sg46
S'106'
p384
sg48
S'502'
p385
sg50
S'213'
p386
sg52
S'980'
p387
sg54
S'439'
p388
sg56
S'2010-11'
p389
sg58
S'502'
p390
sg60
S'101'
p391
sg62
S'.512'
p392
sg64
S'2809'
p393
sg66
S'81'
p394
sba(isrc.gp1.models.Totals
Totals
p395
(dp396
g8
S'145'
p397
sg10
g130
sg12
S'.494'
p398
sg14
S'97'
p399
sg16
S'.000'
p400
sg18
g19
sg20
S'659'
p401
sg22
S'C'
p402
sg24
S'.733'
p403
sg26
S'.494'
p404
sg28
S'NBA'
p405
sg30
S'58'
p406
sg32
S'581'
p407
sg34
S'176'
p408
sg36
S'116'
p409
sg38
S'429'
p410
sg40
S'32'
p411
sg42
S'PHI'
p412
sg44
S'60'
p413
sg46
S'97'
p414
sg48
S'287'
p415
sg50
S'85'
p416
sg52
S'580'
p417
sg54
S'284'
p418
sg56
S'2011-12'
p419
sg58
S'287'
p420
sg60
S'65'
p421
sg62
S'.495'
p422
sg64
S'1732'
p423
sg66
S'60'
p424
sba(isrc.gp1.models.Totals
Totals
p425
(dp426
g8
S'130'
p427
sg10
g130
sg12
S'.473'
p428
sg14
S'70'
p429
sg16
S'.000'
p430
sg18
g19
sg20
S'518'
p431
sg22
g402
sg24
S'.710'
p432
sg26
S'.473'
p433
sg28
S'NBA'
p434
sg30
S'50'
p435
sg32
S'478'
p436
sg34
S'192'
p437
sg36
S'93'
p438
sg38
S'430'
p439
sg40
S'33'
p440
sg42
S'DAL'
p441
sg44
S'72'
p442
sg46
S'90'
p443
sg48
S'226'
p444
sg50
S'66'
p445
sg52
S'477'
p446
sg54
S'300'
p447
sg56
S'2012-13'
p448
sg58
S'226'
p449
sg60
S'57'
p450
sg62
S'.474'
p451
sg64
S'1527'
p452
sg66
S'18'
p453
sba(isrc.gp1.models.Totals
Totals
p454
(dp455
g8
S'97'
p456
sg10
g11
sg12
S'.539'
p457
sg14
S'74'
p458
sg16
S'.000'
p459
sg18
g19
sg20
S'419'
p460
sg22
S'PF'
p461
sg24
S'.649'
p462
sg26
S'.539'
p463
sg28
S'NBA'
p464
sg30
S'40'
p465
sg32
S'332'
p466
sg34
S'192'
p467
sg36
S'94'
p468
sg38
S'361'
p469
sg40
S'34'
p470
sg42
S'ATL'
p471
sg44
S'73'
p472
sg46
S'88'
p473
sg48
S'179'
p474
sg50
S'61'
p475
sg52
S'330'
p476
sg54
S'264'
p477
sg56
S'2013-14'
p478
sg58
S'179'
p479
sg60
S'60'
p480
sg62
S'.542'
p481
sg64
S'1414'
p482
sg66
S'15'
p483
sba(isrc.gp1.models.Totals
Totals
p484
(dp485
g8
S'28'
p486
sg10
g130
sg12
S'.442'
p487
sg14
S'22'
p488
sg16
S'.000'
p489
sg18
g19
sg20
S'96'
p490
sg22
S'PF'
p491
sg24
S'.522'
p492
sg26
S'.442'
p493
sg28
S'NBA'
p494
sg30
S'17'
p495
sg32
S'95'
p496
sg34
S'54'
p497
sg36
S'23'
p498
sg38
S'100'
p499
sg40
S'35'
p500
sg42
S'ATL'
p501
sg44
S'36'
p502
sg46
S'25'
p503
sg48
S'42'
p504
sg50
S'12'
p505
sg52
S'94'
p506
sg54
S'72'
p507
sg56
S'2014-15'
p508
sg58
S'42'
p509
sg60
S'18'
p510
sg62
S'.447'
p511
sg64
S'486'
p512
sg66
S'4'
p513
sbasS'_college'
p514
S'Duke University'
p515
sS'_toYear'
p516
S'2015'
p517
sS'_height'
p518
S'6-8'
p519
sS'_active'
p520
I01
sS'_shootingHand'
p521
VRight
p522
sS'_name'
p523
S'Elton Brand'
p524
sS'_per100Possessions'
p525
(lp526
(isrc.gp1.models.Per100Possession
Per100Possession
p527
(dp528
g8
S'6.2'
p529
sg10
S'0.0'
p530
sg12
S'.482'
p531
sS'_offensiveRating'
p532
S'104'
p533
sg14
S'2.8'
p534
sg16
S'.000'
p535
sg18
S'0.0'
p536
sg20
S'29.1'
p537
sg22
S'PF'
p538
sS'_defensiveRating'
p539
S'103'
p540
sg24
S'.685'
p541
sg28
S'NBA'
p542
sg30
S'1.2'
p543
sg32
S'23.4'
p544
sg34
S'4.6'
p545
sg36
S'9.6'
p546
sg38
S'14.5'
p547
sg40
S'20'
p548
sg42
S'CHI'
p549
sg44
S'81'
p550
sg46
S'2.4'
p551
sg48
S'11.3'
p552
sg50
S'6.6'
p553
sg52
S'23.3'
p554
sg54
S'8.3'
p555
sg56
S'1999-00'
p556
sg58
S'11.3'
p557
sg60
S'4.1'
p558
sg62
S'.483'
p559
sg64
S'2999'
p560
sg66
S'80'
p561
sba(isrc.gp1.models.Per100Possession
Per100Possession
p562
(dp563
g8
S'5.3'
p564
sg10
S'0.0'
p565
sg12
S'.476'
p566
sg532
S'103'
p567
sg14
S'4.4'
p568
sg16
S'.000'
p569
sg18
S'0.0'
p570
sg20
S'27.6'
p571
sg22
S'PF'
p572
sg539
S'106'
p573
sg24
S'.708'
p574
sg28
S'NBA'
p575
sg30
S'1.3'
p576
sg32
S'22.5'
p577
sg34
S'4.5'
p578
sg36
S'8.7'
p579
sg38
S'13.8'
p580
sg40
S'21'
p581
sg42
S'CHI'
p582
sg44
S'74'
p583
sg46
S'2.2'
p584
sg48
S'10.7'
p585
sg50
S'6.2'
p586
sg52
S'22.4'
p587
sg54
S'8.5'
p588
sg56
S'2000-01'
p589
sg58
S'10.7'
p590
sg60
S'4.0'
p591
sg62
S'.477'
p592
sg64
S'2906'
p593
sg66
S'74'
p594
sba(isrc.gp1.models.Per100Possession
Per100Possession
p595
(dp596
g8
S'16.3'
p597
sg10
S'9.4'
p598
sg12
S'0.0'
p599
sg532
g104
sg14
S'2.9'
p600
sg16
S'17.8'
p601
sg18
S'0.0'
p602
sg20
S'103'
p603
sg22
S'80'
p604
sg539
g104
sg24
S'9.3'
p605
sg28
S'PF'
p606
sg30
S'3.1'
p607
sg32
S'.527'
p608
sg34
S'120'
p609
sg36
S'7.0'
p610
sg38
S'1.4'
p611
sg40
S'LAC'
p612
sg42
S'NBA'
p613
sg44
S'80'
p614
sg46
S'4.5'
p615
sg48
S'.527'
p616
sg50
S'.742'
p617
sg52
S'6.9'
p618
sg54
S'3.4'
p619
sg56
S'22'
p620
sg58
S'17.8'
p621
sg60
S'25.6'
p622
sg62
S'9.2'
p623
sg64
S'9.4'
p624
sg66
S'3020'
p625
sba(isrc.gp1.models.Per100Possession
Per100Possession
p626
(dp627
g8
S'6.1'
p628
sg10
S'0.0'
p629
sg12
S'.502'
p630
sg532
S'109'
p631
sg14
S'3.4'
p632
sg16
S'.000'
p633
sg18
S'0.0'
p634
sg20
S'24.5'
p635
sg22
S'PF'
p636
sg539
S'103'
p637
sg24
S'.685'
p638
sg28
S'NBA'
p639
sg30
S'1.5'
p640
sg32
S'19.3'
p641
sg34
S'4.4'
p642
sg36
S'7.6'
p643
sg38
S'15.1'
p644
sg40
S'23'
p645
sg42
S'LAC'
p646
sg44
S'62'
p647
sg46
S'3.4'
p648
sg48
S'9.7'
p649
sg50
S'5.2'
p650
sg52
S'19.2'
p651
sg54
S'9.0'
p652
sg56
S'2002-03'
p653
sg58
S'9.7'
p654
sg60
S'3.4'
p655
sg62
S'.502'
p656
sg64
S'2454'
p657
sg66
S'61'
p658
sba(isrc.gp1.models.Per100Possession
Per100Possession
p659
(dp660
g8
S'5.3'
p661
sg10
S'0.0'
p662
sg12
S'.493'
p663
sg532
S'114'
p664
sg14
S'4.5'
p665
sg16
S'.000'
p666
sg18
S'0.0'
p667
sg20
S'27.3'
p668
sg22
S'PF'
p669
sg539
S'106'
p670
sg24
S'.773'
p671
sg28
S'NBA'
p672
sg30
S'1.3'
p673
sg32
S'19.4'
p674
sg34
S'4.5'
p675
sg36
S'10.5'
p676
sg38
S'14.1'
p677
sg40
S'24'
p678
sg42
S'LAC'
p679
sg44
S'69'
p680
sg46
S'3.0'
p681
sg48
S'9.6'
p682
sg50
S'8.1'
p683
sg52
S'19.4'
p684
sg54
S'8.8'
p685
sg56
S'2003-04'
p686
sg58
S'9.6'
p687
sg60
S'3.8'
p688
sg62
S'.493'
p689
sg64
S'2670'
p690
sg66
S'68'
p691
sba(isrc.gp1.models.Per100Possession
Per100Possession
p692
(dp693
g8
S'5.3'
p694
sg10
S'0.1'
p695
sg12
S'.503'
p696
sg532
S'113'
p697
sg14
S'3.7'
p698
sg16
S'.000'
p699
sg18
S'0.0'
p700
sg20
S'29.1'
p701
sg22
S'PF'
p702
sg539
S'104'
p703
sg24
S'.752'
p704
sg28
S'NBA'
p705
sg30
S'1.1'
p706
sg32
S'22.4'
p707
sg34
S'4.3'
p708
sg36
S'8.7'
p709
sg38
S'13.8'
p710
sg40
S'25'
p711
sg42
S'LAC'
p712
sg44
S'81'
p713
sg46
S'3.0'
p714
sg48
S'11.3'
p715
sg50
S'6.5'
p716
sg52
S'22.4'
p717
sg54
S'8.5'
p718
sg56
S'2004-05'
p719
sg58
S'11.3'
p720
sg60
S'3.3'
p721
sg62
S'.504'
p722
sg64
S'3001'
p723
sg66
S'81'
p724
sba(isrc.gp1.models.Per100Possession
Per100Possession
p725
(dp726
g8
S'9.4'
p727
sg10
S'.333'
p728
sg12
S'0.0'
p729
sg532
S'100'
p730
sg14
S'1.4'
p731
sg16
S'12.7'
p732
sg18
S'0.1'
p733
sg20
S'116'
p734
sg22
S'79'
p735
sg539
g104
sg24
S'4.0'
p736
sg28
S'PF'
p737
sg30
S'3.4'
p738
sg32
S'.527'
p739
sg34
S'33.0'
p740
sg36
S'.775'
p741
sg38
S'3.5'
p742
sg40
S'LAC'
p743
sg42
S'NBA'
p744
sg44
S'79'
p745
sg46
S'2.9'
p746
sg48
S'24.2'
p747
sg50
S'9.6'
p748
sg52
S'.527'
p749
sg54
S'13.3'
p750
sg56
S'26'
p751
sg58
S'24.2'
p752
sg60
S'3.8'
p753
sg62
S'7.4'
p754
sg64
S'12.8'
p755
sg66
S'3099'
p756
sba(isrc.gp1.models.Per100Possession
Per100Possession
p757
(dp758
g8
S'4.6'
p759
sg10
S'0.0'
p760
sg12
S'.533'
p761
sg532
S'114'
p762
sg14
S'4.0'
p763
sg16
S'1.000'
p764
sg18
S'0.0'
p765
sg20
S'28.2'
p766
sg22
S'PF'
p767
sg539
S'103'
p768
sg24
S'.761'
p769
sg28
S'NBA'
p770
sg30
S'1.3'
p771
sg32
S'20.8'
p772
sg34
S'4.1'
p773
sg36
S'7.9'
p774
sg38
S'12.8'
p775
sg40
S'27'
p776
sg42
S'LAC'
p777
sg44
S'80'
p778
sg46
S'3.1'
p779
sg48
S'11.1'
p780
sg50
S'6.0'
p781
sg52
S'20.8'
p782
sg54
S'8.2'
p783
sg56
S'2006-07'
p784
sg58
S'11.1'
p785
sg60
S'3.5'
p786
sg62
S'.532'
p787
sg64
S'3077'
p788
sg66
S'80'
p789
sba(isrc.gp1.models.Per100Possession
Per100Possession
p790
(dp791
g8
S'8.2'
p792
sg10
S'0.0'
p793
sg12
S'.456'
p794
sg532
S'108'
p795
sg14
S'0.6'
p796
sg16
S'9.9'
p797
sg18
S'0.0'
p798
sg20
S'104'
p799
sg22
S'PF'
p800
sg539
g104
sg24
S'4.0'
p801
sg28
S'NBA'
p802
sg30
S'2.9'
p803
sg32
S'21.7'
p804
sg34
S'26.8'
p805
sg36
S'.787'
p806
sg38
S'3.0'
p807
sg40
S'28'
p808
sg42
S'LAC'
p809
sg44
g294
sg46
S'3.2'
p810
sg48
S'21.7'
p811
sg50
S'8.9'
p812
sg52
S'.456'
p813
sg54
S'12.2'
p814
sg56
S'2007-08'
p815
sg58
S'9.9'
p816
sg60
S'4.0'
p817
sg62
S'7.0'
p818
sg64
S'274'
p819
sg66
g305
sba(isrc.gp1.models.Per100Possession
Per100Possession
p820
(dp821
g8
S'10.3'
p822
sg10
S'0.0'
p823
sg12
S'.447'
p824
sg532
S'105'
p825
sg14
S'1.0'
p826
sg16
S'9.5'
p827
sg18
S'0.0'
p828
sg20
S'97'
p829
sg22
S'PF'
p830
sg539
g104
sg24
S'4.5'
p831
sg28
S'NBA'
p832
sg30
S'2.6'
p833
sg32
S'21.2'
p834
sg34
S'23.1'
p835
sg36
S'.676'
p836
sg38
S'2.1'
p837
sg40
S'29'
p838
sg42
S'PHI'
p839
sg44
S'29'
p840
sg46
S'3.9'
p841
sg48
S'21.2'
p842
sg50
S'6.3'
p843
sg52
S'.447'
p844
sg54
S'14.7'
p845
sg56
S'2008-09'
p846
sg58
S'9.5'
p847
sg60
S'4.5'
p848
sg62
S'4.2'
p849
sg64
S'920'
p850
sg66
S'23'
p851
sba(isrc.gp1.models.Per100Possession
Per100Possession
p852
(dp853
g8
S'4.1'
p854
sg10
S'0.0'
p855
sg12
S'.480'
p856
sg532
S'104'
p857
sg14
S'2.5'
p858
sg16
S'.000'
p859
sg18
S'0.0'
p860
sg20
S'22.7'
p861
sg22
S'PF'
p862
sg539
S'109'
p863
sg24
S'.738'
p864
sg28
S'NBA'
p865
sg30
S'1.9'
p866
sg32
S'19.6'
p867
sg34
S'5.3'
p868
sg36
S'5.3'
p869
sg38
S'10.5'
p870
sg40
S'30'
p871
sg42
S'PHI'
p872
sg44
S'76'
p873
sg46
S'1.8'
p874
sg48
S'9.4'
p875
sg50
S'3.9'
p876
sg52
S'19.6'
p877
sg54
S'6.4'
p878
sg56
S'2009-10'
p879
sg58
S'9.4'
p880
sg60
S'3.0'
p881
sg62
S'.481'
p882
sg64
S'2297'
p883
sg66
S'57'
p884
sba(isrc.gp1.models.Per100Possession
Per100Possession
p885
(dp886
g8
S'4.4'
p887
sg10
S'0.0'
p888
sg12
S'.512'
p889
sg532
S'114'
p890
sg14
S'2.2'
p891
sg16
S'.000'
p892
sg18
S'0.0'
p893
sg20
S'22.7'
p894
sg22
S'PF'
p895
sg539
S'103'
p896
sg24
S'.780'
p897
sg28
S'NBA'
p898
sg30
S'1.7'
p899
sg32
S'18.3'
p900
sg34
S'4.5'
p901
sg36
S'5.1'
p902
sg38
S'12.6'
p903
sg40
S'31'
p904
sg42
S'PHI'
p905
sg44
S'81'
p906
sg46
S'2.0'
p907
sg48
S'9.4'
p908
sg50
S'4.0'
p909
sg52
S'18.3'
p910
sg54
S'8.2'
p911
sg56
S'2010-11'
p912
sg58
S'9.4'
p913
sg60
S'1.9'
p914
sg62
S'.512'
p915
sg64
S'2809'
p916
sg66
S'81'
p917
sba(isrc.gp1.models.Per100Possession
Per100Possession
p918
(dp919
g8
S'4.5'
p920
sg10
S'0.0'
p921
sg12
S'.494'
p922
sg532
S'108'
p923
sg14
S'3.0'
p924
sg16
S'.000'
p925
sg18
S'0.0'
p926
sg20
S'20.4'
p927
sg22
g402
sg539
S'96'
p928
sg24
S'.733'
p929
sg28
S'NBA'
p930
sg30
S'1.8'
p931
sg32
S'18.0'
p932
sg34
S'5.4'
p933
sg36
S'3.6'
p934
sg38
S'13.3'
p935
sg40
S'32'
p936
sg42
S'PHI'
p937
sg44
S'60'
p938
sg46
S'3.0'
p939
sg48
S'8.9'
p940
sg50
S'2.6'
p941
sg52
S'17.9'
p942
sg54
S'8.8'
p943
sg56
S'2011-12'
p944
sg58
S'8.9'
p945
sg60
S'2.0'
p946
sg62
S'.495'
p947
sg64
S'1732'
p948
sg66
S'60'
p949
sba(isrc.gp1.models.Per100Possession
Per100Possession
p950
(dp951
g8
S'4.3'
p952
sg10
S'0.0'
p953
sg12
S'.473'
p954
sg532
S'105'
p955
sg14
S'2.3'
p956
sg16
S'.000'
p957
sg18
S'0.0'
p958
sg20
S'17.3'
p959
sg22
g402
sg539
S'102'
p960
sg24
S'.710'
p961
sg28
S'NBA'
p962
sg30
S'1.7'
p963
sg32
S'16.0'
p964
sg34
S'6.4'
p965
sg36
S'3.1'
p966
sg38
S'14.4'
p967
sg40
S'33'
p968
sg42
S'DAL'
p969
sg44
S'72'
p970
sg46
S'3.0'
p971
sg48
S'7.6'
p972
sg50
S'2.2'
p973
sg52
S'15.9'
p974
sg54
S'10.0'
p975
sg56
S'2012-13'
p976
sg58
S'7.6'
p977
sg60
S'1.9'
p978
sg62
S'.474'
p979
sg64
S'1527'
p980
sg66
S'18'
p981
sba(isrc.gp1.models.Per100Possession
Per100Possession
p982
(dp983
g8
S'3.5'
p984
sg10
S'0.1'
p985
sg12
S'.539'
p986
sg532
S'110'
p987
sg14
S'2.7'
p988
sg16
S'.000'
p989
sg18
S'0.0'
p990
sg20
S'15.0'
p991
sg22
S'PF'
p992
sg539
S'103'
p993
sg24
S'.649'
p994
sg28
S'NBA'
p995
sg30
S'1.4'
p996
sg32
S'11.9'
p997
sg34
S'6.9'
p998
sg36
S'3.4'
p999
sg38
S'12.9'
p1000
sg40
S'34'
p1001
sg42
S'ATL'
p1002
sg44
S'73'
p1003
sg46
S'3.2'
p1004
sg48
S'6.4'
p1005
sg50
S'2.2'
p1006
sg52
S'11.8'
p1007
sg54
S'9.5'
p1008
sg56
S'2013-14'
p1009
sg58
S'6.4'
p1010
sg60
S'2.2'
p1011
sg62
S'.542'
p1012
sg64
S'1414'
p1013
sg66
S'15'
p1014
sba(isrc.gp1.models.Per100Possession
Per100Possession
p1015
(dp1016
g8
S'2.9'
p1017
sg10
S'0.1'
p1018
sg12
S'.442'
p1019
sg532
S'96'
p1020
sg14
S'2.3'
p1021
sg16
S'.000'
p1022
sg18
S'0.0'
p1023
sg20
S'10.1'
p1024
sg22
S'PF'
p1025
sg539
S'101'
p1026
sg24
S'.522'
p1027
sg28
S'NBA'
p1028
sg30
S'1.8'
p1029
sg32
S'10.0'
p1030
sg34
S'5.7'
p1031
sg36
S'2.4'
p1032
sg38
S'10.5'
p1033
sg40
S'35'
p1034
sg42
S'ATL'
p1035
sg44
S'36'
p1036
sg46
S'2.6'
p1037
sg48
S'4.4'
p1038
sg50
S'1.3'
p1039
sg52
S'9.9'
p1040
sg54
S'7.6'
p1041
sg56
S'2014-15'
p1042
sg58
S'4.4'
p1043
sg60
S'1.9'
p1044
sg62
S'.447'
p1045
sg64
S'486'
p1046
sg66
g513
sbasS'_advanced'
p1047
(lp1048
(isrc.gp1.models.Advanced
Advanced
p1049
(dp1050
S'_offensiveReboundPercentage'
p1051
S'13.3'
p1052
sS'_turnOverPercentage'
p1053
S'12.9'
p1054
sS'_winSharesPer48Minutes'
p1055
S'.121'
p1056
sS'_stealPercentage'
p1057
S'1.2'
p1058
sS'_usagePercentage'
p1059
S'27.0'
p1060
sS'_totalReboundsPercentage'
p1061
S'15.8'
p1062
sS'_defensiveBoxPlusMinus'
p1063
S'0.6'
p1064
sg22
S'PF'
p1065
sS'_valueOverReplacementPlayer'
p1066
S'2.9'
p1067
sS'_trueShootingPercentage'
p1068
S'.528'
p1069
sS'_defensiveReboundPercentage'
p1070
S'18.4'
p1071
sS'_freeThrowsAttempRate'
p1072
S'.410'
p1073
sS'_threePointsAttempRate'
p1074
S'.002'
p1075
sg28
S'NBA'
p1076
sS'_offensiveBoxPlusMinues'
p1077
S'1.3'
p1078
sS'_assistPercentage'
p1079
S'11.8'
p1080
sS'_defensiveWinShares'
p1081
S'3.3'
p1082
sg40
S'20'
p1083
sg42
S'CHI'
p1084
sg44
S'81'
p1085
sS'_blockPercentage'
p1086
S'3.3'
p1087
sS'_playerEfficiencyRating'
p1088
S'20.6'
p1089
sS'_offensiveWinShares'
p1090
S'4.2'
p1091
sg64
S'2999'
p1092
sS'_boxPlusMinus'
p1093
S'1.8'
p1094
sg56
S'1999-00'
p1095
sS'_winShares'
p1096
S'7.5'
p1097
sba(isrc.gp1.models.Advanced
Advanced
p1098
(dp1099
g1051
S'11.2'
p1100
sg1053
S'13.3'
p1101
sg1055
S'.101'
p1102
sg1057
S'1.3'
p1103
sg1059
S'26.3'
p1104
sg1061
S'15.2'
p1105
sg1063
S'0.5'
p1106
sg22
S'PF'
p1107
sg1066
S'3.0'
p1108
sg1068
S'.524'
p1109
sg1070
S'19.6'
p1110
sg1072
S'.388'
p1111
sg1074
S'.002'
p1112
sg28
S'NBA'
p1113
sg1077
S'1.7'
p1114
sg1079
S'17.0'
p1115
sg1081
S'2.0'
p1116
sg40
S'21'
p1117
sg42
S'CHI'
p1118
sg44
S'74'
p1119
sg1086
S'3.0'
p1120
sg1088
S'20.4'
p1121
sg1090
S'4.1'
p1122
sg64
S'2906'
p1123
sg1093
S'2.2'
p1124
sg56
S'2000-01'
p1125
sg1096
S'6.1'
p1126
sba(isrc.gp1.models.Advanced
Advanced
p1127
(dp1128
g1051
S'19.6'
p1129
sg1053
S'21.1'
p1130
sg1055
S'4.1'
p1131
sg1057
S'3.7'
p1132
sg1059
S'9.9'
p1133
sg1061
S'11.0'
p1134
sg1063
S'6.2'
p1135
sg22
S'80'
p1136
sg1066
g104
sg1068
S'.000'
p1137
sg1070
S'17.3'
p1138
sg1072
S'15.0'
p1139
sg1074
S'.519'
p1140
sg28
S'PF'
p1141
sg1077
S'2.1'
p1142
sg1079
S'1.4'
p1143
sg1081
S'13.6'
p1144
sg40
S'LAC'
p1145
sg42
S'NBA'
p1146
sg44
S'3020'
p1147
sg1086
S'12.2'
p1148
sg1088
S'.586'
p1149
sg1090
S'3.7'
p1150
sg64
S'23.6'
p1151
sg1093
S'6.2'
p1152
sg56
S'22'
p1153
sg1096
S'.216'
p1154
sba(isrc.gp1.models.Advanced
Advanced
p1155
(dp1156
g1051
S'13.1'
p1157
sg1053
S'13.2'
p1158
sg1055
S'.149'
p1159
sg1057
S'1.5'
p1160
sg1059
S'22.4'
p1161
sg1061
S'16.2'
p1162
sg1063
S'2.4'
p1163
sg22
S'PF'
p1164
sg1066
S'4.1'
p1165
sg1068
S'.543'
p1166
sg1070
S'19.3'
p1167
sg1072
S'.396'
p1168
sg1074
S'.001'
p1169
sg28
S'NBA'
p1170
sg1077
S'2.1'
p1171
sg1079
S'12.0'
p1172
sg1081
S'2.7'
p1173
sg40
S'23'
p1174
sg42
S'LAC'
p1175
sg44
S'62'
p1176
sg1086
S'4.6'
p1177
sg1088
S'21.7'
p1178
sg1090
S'4.9'
p1179
sg64
S'2454'
p1180
sg1093
S'4.5'
p1181
sg56
S'2002-03'
p1182
sg1096
S'7.6'
p1183
sba(isrc.gp1.models.Advanced
Advanced
p1184
(dp1185
g1051
S'11.4'
p1186
sg1053
S'13.7'
p1187
sg1055
S'.174'
p1188
sg1057
S'1.3'
p1189
sg1059
S'23.4'
p1190
sg1061
S'15.2'
p1191
sg1063
S'1.5'
p1192
sg22
S'PF'
p1193
sg1066
S'4.8'
p1194
sg1068
S'.567'
p1195
sg1070
S'19.1'
p1196
sg1072
S'.542'
p1197
sg1074
S'.001'
p1198
sg28
S'NBA'
p1199
sg1077
S'3.6'
p1200
sg1079
S'16.0'
p1201
sg1081
S'1.8'
p1202
sg40
S'24'
p1203
sg42
S'LAC'
p1204
sg44
S'69'
p1205
sg1086
S'4.2'
p1206
sg1088
S'23.2'
p1207
sg1090
S'7.9'
p1208
sg64
S'2670'
p1209
sg1093
S'5.1'
p1210
sg56
S'2003-04'
p1211
sg1096
S'9.7'
p1212
sba(isrc.gp1.models.Advanced
Advanced
p1213
(dp1214
g1051
S'12.2'
p1215
sg1053
S'11.1'
p1216
sg1055
S'.169'
p1217
sg1057
S'1.1'
p1218
sg1059
S'25.4'
p1219
sg1061
S'15.4'
p1220
sg1063
S'1.6'
p1221
sg22
S'PF'
p1222
sg1066
S'4.8'
p1223
sg1068
S'.554'
p1224
sg1070
S'18.4'
p1225
sg1072
S'.387'
p1226
sg1074
S'.002'
p1227
sg28
S'NBA'
p1228
sg1077
S'2.7'
p1229
sg1079
S'13.3'
p1230
sg1081
S'3.7'
p1231
sg40
S'25'
p1232
sg42
S'LAC'
p1233
sg44
S'81'
p1234
sg1086
S'4.3'
p1235
sg1088
S'22.4'
p1236
sg1090
S'6.9'
p1237
sg64
S'3001'
p1238
sg1093
S'4.4'
p1239
sg56
S'2004-05'
p1240
sg1096
S'10.6'
p1241
sba(isrc.gp1.models.Advanced
Advanced
p1242
(dp1243
g1051
S'19.9'
p1244
sg1053
S'27.7'
p1245
sg1055
S'3.6'
p1246
sg1057
S'4.9'
p1247
sg1059
S'9.3'
p1248
sg1061
S'13.1'
p1249
sg1063
S'6.3'
p1250
sg22
S'79'
p1251
sg1066
g104
sg1068
S'.002'
p1252
sg1070
S'14.8'
p1253
sg1072
S'9.3'
p1254
sg1074
S'.396'
p1255
sg28
S'PF'
p1256
sg1077
S'2.6'
p1257
sg1079
S'1.4'
p1258
sg1081
S'14.8'
p1259
sg40
S'LAC'
p1260
sg42
S'NBA'
p1261
sg44
S'3099'
p1262
sg1086
S'9.3'
p1263
sg1088
S'.580'
p1264
sg1090
S'5.5'
p1265
sg64
S'26.5'
p1266
sg1093
S'6.5'
p1267
sg56
S'26'
p1268
sg1096
S'.229'
p1269
sba(isrc.gp1.models.Advanced
Advanced
p1270
(dp1271
g1051
S'10.5'
p1272
sg1053
S'12.5'
p1273
sg1055
S'.180'
p1274
sg1057
S'1.3'
p1275
sg1059
S'24.3'
p1276
sg1061
S'14.5'
p1277
sg1063
S'2.3'
p1278
sg22
S'PF'
p1279
sg1066
S'5.5'
p1280
sg1068
S'.581'
p1281
sg1070
S'18.3'
p1282
sg1072
S'.381'
p1283
sg1074
S'.001'
p1284
sg28
S'NBA'
p1285
sg1077
S'2.7'
p1286
sg1079
S'14.7'
p1287
sg1081
S'4.3'
p1288
sg40
S'27'
p1289
sg42
S'LAC'
p1290
sg44
S'80'
p1291
sg1086
S'4.5'
p1292
sg1088
S'23.1'
p1293
sg1090
S'7.2'
p1294
sg64
S'3077'
p1295
sg1093
S'5.1'
p1296
sg56
S'2006-07'
p1297
sg1096
S'11.5'
p1298
sba(isrc.gp1.models.Advanced
Advanced
p1299
(dp1300
g1051
S'8.8'
p1301
sg1053
S'11.2'
p1302
sg1055
S'.080'
p1303
sg1057
S'0.6'
p1304
sg1059
S'25.5'
p1305
sg1061
S'13.5'
p1306
sg1063
S'0.3'
p1307
sg22
S'PF'
p1308
sg1066
S'0.0'
p1309
sg1068
S'.523'
p1310
sg1070
S'18.2'
p1311
sg1072
S'.412'
p1312
sg1074
S'.000'
p1313
sg28
S'NBA'
p1314
sg1077
S'-1.8'
p1315
sg1079
S'11.2'
p1316
sg1081
S'0.3'
p1317
sg40
S'28'
p1318
sg42
S'LAC'
p1319
sg44
g294
sg1086
S'4.1'
p1320
sg1088
S'18.0'
p1321
sg1090
S'0.2'
p1322
sg64
S'274'
p1323
sg1093
S'-1.5'
p1324
sg56
S'2007-08'
p1325
sg1096
S'0.5'
p1326
sba(isrc.gp1.models.Advanced
Advanced
p1327
(dp1328
g1051
S'9.9'
p1329
sg1053
S'14.2'
p1330
sg1055
S'.047'
p1331
sg1057
S'1.0'
p1332
sg1059
S'23.8'
p1333
sg1061
S'16.5'
p1334
sg1063
S'0.9'
p1335
sg22
S'PF'
p1336
sg1066
S'-0.2'
p1337
sg1068
S'.484'
p1338
sg1070
S'23.2'
p1339
sg1072
S'.296'
p1340
sg1074
S'.000'
p1341
sg28
S'NBA'
p1342
sg1077
S'-3.7'
p1343
sg1079
S'6.9'
p1344
sg1081
S'1.3'
p1345
sg40
S'29'
p1346
sg42
S'PHI'
p1347
sg44
S'29'
p1348
sg1086
S'3.9'
p1349
sg1088
S'14.6'
p1350
sg1090
S'-0.4'
p1351
sg64
S'920'
p1352
sg1093
S'-2.8'
p1353
sg56
S'2008-09'
p1354
sg1096
S'0.9'
p1355
sba(isrc.gp1.models.Advanced
Advanced
p1356
(dp1357
g1051
S'9.0'
p1358
sg1053
S'12.0'
p1359
sg1055
S'.073'
p1360
sg1057
S'1.9'
p1361
sg1059
S'21.7'
p1362
sg1061
S'11.8'
p1363
sg1063
S'0.2'
p1364
sg22
S'PF'
p1365
sg1066
S'0.5'
p1366
sg1068
S'.518'
p1367
sg1070
S'14.7'
p1368
sg1072
S'.272'
p1369
sg1074
S'.001'
p1370
sg28
S'NBA'
p1371
sg1077
S'-1.2'
p1372
sg1079
S'7.9'
p1373
sg1081
S'1.9'
p1374
sg40
S'30'
p1375
sg42
S'PHI'
p1376
sg44
S'76'
p1377
sg1086
S'2.7'
p1378
sg1088
S'15.7'
p1379
sg1090
S'1.6'
p1380
sg64
S'2297'
p1381
sg1093
S'-1.1'
p1382
sg56
S'2009-10'
p1383
sg1096
S'3.5'
p1384
sba(isrc.gp1.models.Advanced
Advanced
p1385
(dp1386
g1051
S'9.7'
p1387
sg1053
S'8.4'
p1388
sg1055
S'.161'
p1389
sg1057
S'1.7'
p1390
sg1059
S'19.7'
p1391
sg1061
S'13.9'
p1392
sg1063
S'1.9'
p1393
sg22
S'PF'
p1394
sg1066
S'3.1'
p1395
sg1068
S'.553'
p1396
sg1070
S'18.0'
p1397
sg1072
S'.278'
p1398
sg1074
S'.001'
p1399
sg28
S'NBA'
p1400
sg1077
S'0.5'
p1401
sg1079
S'7.1'
p1402
sg1081
S'4.4'
p1403
sg40
S'31'
p1404
sg42
S'PHI'
p1405
sg44
S'81'
p1406
sg1086
S'2.9'
p1407
sg1088
S'18.5'
p1408
sg1090
S'5.1'
p1409
sg64
S'2809'
p1410
sg1093
S'2.4'
p1411
sg56
S'2010-11'
p1412
sg1096
S'9.4'
p1413
sba(isrc.gp1.models.Advanced
Advanced
p1414
(dp1415
g1051
S'9.2'
p1416
sg1053
S'9.3'
p1417
sg1055
S'.168'
p1418
sg1057
S'1.8'
p1419
sg1059
S'18.9'
p1420
sg1061
S'13.7'
p1421
sg1063
S'3.4'
p1422
sg22
g402
sg1066
S'2.2'
p1423
sg1068
S'.521'
p1424
sg1070
S'18.3'
p1425
sg1072
S'.200'
p1426
sg1074
S'.002'
p1427
sg28
S'NBA'
p1428
sg1077
S'-0.5'
p1429
sg1079
S'9.2'
p1430
sg1081
S'3.6'
p1431
sg40
S'32'
p1432
sg42
S'PHI'
p1433
sg44
S'60'
p1434
sg1086
S'4.2'
p1435
sg1088
S'18.0'
p1436
sg1090
S'2.5'
p1437
sg64
S'1732'
p1438
sg1093
S'2.9'
p1439
sg56
S'2011-12'
p1440
sg1096
S'6.1'
p1441
sba(isrc.gp1.models.Advanced
Advanced
p1442
(dp1443
g1051
S'9.7'
p1444
sg1053
S'9.9'
p1445
sg1055
S'.107'
p1446
sg1057
S'1.7'
p1447
sg1059
S'17.2'
p1448
sg1061
S'15.7'
p1449
sg1063
S'2.5'
p1450
sg22
g402
sg1066
S'0.9'
p1451
sg1068
S'.499'
p1452
sg1070
S'21.5'
p1453
sg1072
S'.195'
p1454
sg1074
S'.002'
p1455
sg28
S'NBA'
p1456
sg1077
S'-2.1'
p1457
sg1079
S'7.1'
p1458
sg1081
S'2.2'
p1459
sg40
S'33'
p1460
sg42
S'DAL'
p1461
sg44
S'72'
p1462
sg1086
S'4.6'
p1463
sg1088
S'15.2'
p1464
sg1090
S'1.2'
p1465
sg64
S'1527'
p1466
sg1093
S'0.4'
p1467
sg56
S'2012-13'
p1468
sg1096
S'3.4'
p1469
sba(isrc.gp1.models.Advanced
Advanced
p1470
(dp1471
g1051
S'8.0'
p1472
sg1053
S'13.8'
p1473
sg1055
S'.121'
p1474
sg1057
S'1.4'
p1475
sg1059
S'13.9'
p1476
sg1061
S'14.8'
p1477
sg1063
S'3.1'
p1478
sg22
S'PF'
p1479
sg1066
S'0.9'
p1480
sg1068
S'.561'
p1481
sg1070
S'21.5'
p1482
sg1072
S'.283'
p1483
sg1074
S'.006'
p1484
sg28
S'NBA'
p1485
sg1077
S'-2.7'
p1486
sg1079
S'8.1'
p1487
sg1081
S'2.1'
p1488
sg40
S'34'
p1489
sg42
S'ATL'
p1490
sg44
S'73'
p1491
sg1086
S'4.9'
p1492
sg1088
S'14.0'
p1493
sg1090
S'1.4'
p1494
sg64
S'1414'
p1495
sg1093
S'0.5'
p1496
sg56
S'2013-14'
p1497
sg1096
S'3.6'
p1498
sba(isrc.gp1.models.Advanced
Advanced
p1499
(dp1500
g1051
S'6.8'
p1501
sg1053
S'14.6'
p1502
sg1055
S'.070'
p1503
sg1057
S'1.8'
p1504
sg1059
S'11.6'
p1505
sg1061
S'11.8'
p1506
sg1063
S'3.1'
p1507
sg22
S'PF'
p1508
sg1066
S'0.1'
p1509
sg1068
S'.457'
p1510
sg1070
S'16.4'
p1511
sg1072
S'.242'
p1512
sg1074
S'.011'
p1513
sg28
S'NBA'
p1514
sg1077
S'-4.5'
p1515
sg1079
S'6.4'
p1516
sg1081
S'0.8'
p1517
sg40
S'35'
p1518
sg42
S'ATL'
p1519
sg44
S'36'
p1520
sg1086
S'4.3'
p1521
sg1088
S'9.4'
p1522
sg1090
S'-0.1'
p1523
sg64
S'486'
p1524
sg1093
S'-1.4'
p1525
sg56
S'2014-15'
p1526
sg1096
S'0.7'
p1527
sbasS'_per36Minutes'
p1528
(lp1529
(isrc.gp1.models.Per36Minutes
Per36Minutes
p1530
(dp1531
g8
S'4.2'
p1532
sg10
S'0.0'
p1533
sg12
S'.482'
p1534
sg14
S'1.9'
p1535
sg16
S'.000'
p1536
sg18
S'0.0'
p1537
sg20
S'19.5'
p1538
sg22
S'PF'
p1539
sg24
S'.685'
p1540
sg28
S'NBA'
p1541
sg30
S'0.8'
p1542
sg32
S'15.7'
p1543
sg34
S'3.1'
p1544
sg36
S'6.4'
p1545
sg38
S'9.7'
p1546
sg40
S'20'
p1547
sg42
S'CHI'
p1548
sg44
S'81'
p1549
sg46
S'1.6'
p1550
sg48
S'7.6'
p1551
sg50
S'4.4'
p1552
sg52
S'15.7'
p1553
sg54
S'5.5'
p1554
sg56
S'1999-00'
p1555
sg58
S'7.6'
p1556
sg60
S'2.7'
p1557
sg62
S'.483'
p1558
sg64
S'2999'
p1559
sg66
S'80'
p1560
sba(isrc.gp1.models.Per36Minutes
Per36Minutes
p1561
(dp1562
g8
S'3.5'
p1563
sg10
S'0.0'
p1564
sg12
S'.476'
p1565
sg14
S'3.0'
p1566
sg16
S'.000'
p1567
sg18
S'0.0'
p1568
sg20
S'18.5'
p1569
sg22
S'PF'
p1570
sg24
S'.708'
p1571
sg28
S'NBA'
p1572
sg30
S'0.9'
p1573
sg32
S'15.1'
p1574
sg34
S'3.0'
p1575
sg36
S'5.8'
p1576
sg38
S'9.2'
p1577
sg40
S'21'
p1578
sg42
S'CHI'
p1579
sg44
S'74'
p1580
sg46
S'1.5'
p1581
sg48
S'7.2'
p1582
sg50
S'4.1'
p1583
sg52
S'15.0'
p1584
sg54
S'5.7'
p1585
sg56
S'2000-01'
p1586
sg58
S'7.2'
p1587
sg60
S'2.7'
p1588
sg62
S'.477'
p1589
sg64
S'2906'
p1590
sg66
S'74'
p1591
sba(isrc.gp1.models.Per36Minutes
Per36Minutes
p1592
(dp1593
g8
S'11.0'
p1594
sg10
S'6.3'
p1595
sg12
S'0.0'
p1596
sg14
S'1.9'
p1597
sg16
S'12.0'
p1598
sg18
S'0.0'
p1599
sg20
g104
sg22
S'80'
p1600
sg24
S'6.3'
p1601
sg28
S'PF'
p1602
sg30
S'2.1'
p1603
sg32
S'.527'
p1604
sg34
g104
sg36
S'4.7'
p1605
sg38
S'1.0'
p1606
sg40
S'LAC'
p1607
sg42
S'NBA'
p1608
sg44
S'80'
p1609
sg46
S'3.0'
p1610
sg48
S'.527'
p1611
sg50
S'.742'
p1612
sg52
S'4.6'
p1613
sg54
S'2.3'
p1614
sg56
S'22'
p1615
sg58
S'12.0'
p1616
sg60
S'17.3'
p1617
sg62
S'6.2'
p1618
sg64
S'6.3'
p1619
sg66
S'3020'
p1620
sba(isrc.gp1.models.Per36Minutes
Per36Minutes
p1621
(dp1622
g8
S'4.2'
p1623
sg10
S'0.0'
p1624
sg12
S'.502'
p1625
sg14
S'2.3'
p1626
sg16
S'.000'
p1627
sg18
S'0.0'
p1628
sg20
S'16.8'
p1629
sg22
S'PF'
p1630
sg24
S'.685'
p1631
sg28
S'NBA'
p1632
sg30
S'1.0'
p1633
sg32
S'13.2'
p1634
sg34
S'3.0'
p1635
sg36
S'5.2'
p1636
sg38
S'10.3'
p1637
sg40
S'23'
p1638
sg42
S'LAC'
p1639
sg44
S'62'
p1640
sg46
S'2.3'
p1641
sg48
S'6.6'
p1642
sg50
S'3.6'
p1643
sg52
S'13.2'
p1644
sg54
S'6.2'
p1645
sg56
S'2002-03'
p1646
sg58
S'6.6'
p1647
sg60
S'2.4'
p1648
sg62
S'.502'
p1649
sg64
S'2454'
p1650
sg66
S'61'
p1651
sba(isrc.gp1.models.Per36Minutes
Per36Minutes
p1652
(dp1653
g8
S'3.6'
p1654
sg10
S'0.0'
p1655
sg12
S'.493'
p1656
sg14
S'3.1'
p1657
sg16
S'.000'
p1658
sg18
S'0.0'
p1659
sg20
S'18.6'
p1660
sg22
S'PF'
p1661
sg24
S'.773'
p1662
sg28
S'NBA'
p1663
sg30
S'0.9'
p1664
sg32
S'13.2'
p1665
sg34
S'3.1'
p1666
sg36
S'7.2'
p1667
sg38
S'9.6'
p1668
sg40
S'24'
p1669
sg42
S'LAC'
p1670
sg44
S'69'
p1671
sg46
S'2.1'
p1672
sg48
S'6.5'
p1673
sg50
S'5.5'
p1674
sg52
S'13.2'
p1675
sg54
S'6.0'
p1676
sg56
S'2003-04'
p1677
sg58
S'6.5'
p1678
sg60
S'2.6'
p1679
sg62
S'.493'
p1680
sg64
S'2670'
p1681
sg66
S'68'
p1682
sba(isrc.gp1.models.Per36Minutes
Per36Minutes
p1683
(dp1684
g8
S'3.6'
p1685
sg10
S'0.0'
p1686
sg12
S'.503'
p1687
sg14
S'2.5'
p1688
sg16
S'.000'
p1689
sg18
S'0.0'
p1690
sg20
S'19.5'
p1691
sg22
S'PF'
p1692
sg24
S'.752'
p1693
sg28
S'NBA'
p1694
sg30
S'0.7'
p1695
sg32
S'15.0'
p1696
sg34
S'2.9'
p1697
sg36
S'5.8'
p1698
sg38
S'9.2'
p1699
sg40
S'25'
p1700
sg42
S'LAC'
p1701
sg44
S'81'
p1702
sg46
S'2.0'
p1703
sg48
S'7.5'
p1704
sg50
S'4.4'
p1705
sg52
S'15.0'
p1706
sg54
S'5.7'
p1707
sg56
S'2004-05'
p1708
sg58
S'7.5'
p1709
sg60
S'2.2'
p1710
sg62
S'.504'
p1711
sg64
S'3001'
p1712
sg66
S'81'
p1713
sba(isrc.gp1.models.Per36Minutes
Per36Minutes
p1714
(dp1715
g8
S'6.4'
p1716
sg10
S'.333'
p1717
sg12
S'0.0'
p1718
sg14
S'0.9'
p1719
sg16
S'8.8'
p1720
sg18
S'0.0'
p1721
sg20
g104
sg22
S'79'
p1722
sg24
S'2.7'
p1723
sg28
S'PF'
p1724
sg30
S'2.3'
p1725
sg32
S'.527'
p1726
sg34
S'22.7'
p1727
sg36
S'.775'
p1728
sg38
S'2.4'
p1729
sg40
S'LAC'
p1730
sg42
S'NBA'
p1731
sg44
S'79'
p1732
sg46
S'2.0'
p1733
sg48
S'16.6'
p1734
sg50
S'6.6'
p1735
sg52
S'.527'
p1736
sg54
S'9.2'
p1737
sg56
S'26'
p1738
sg58
S'16.7'
p1739
sg60
S'2.6'
p1740
sg62
S'5.1'
p1741
sg64
S'8.8'
p1742
sg66
S'3099'
p1743
sba(isrc.gp1.models.Per36Minutes
Per36Minutes
p1744
(dp1745
g8
S'3.1'
p1746
sg10
S'0.0'
p1747
sg12
S'.533'
p1748
sg14
S'2.7'
p1749
sg16
S'1.000'
p1750
sg18
S'0.0'
p1751
sg20
S'19.2'
p1752
sg22
S'PF'
p1753
sg24
S'.761'
p1754
sg28
S'NBA'
p1755
sg30
S'0.9'
p1756
sg32
S'14.2'
p1757
sg34
S'2.8'
p1758
sg36
S'5.4'
p1759
sg38
S'8.7'
p1760
sg40
S'27'
p1761
sg42
S'LAC'
p1762
sg44
S'80'
p1763
sg46
S'2.1'
p1764
sg48
S'7.5'
p1765
sg50
S'4.1'
p1766
sg52
S'14.2'
p1767
sg54
S'5.6'
p1768
sg56
S'2006-07'
p1769
sg58
S'7.5'
p1770
sg60
S'2.4'
p1771
sg62
S'.532'
p1772
sg64
S'3077'
p1773
sg66
S'80'
p1774
sba(isrc.gp1.models.Per36Minutes
Per36Minutes
p1775
(dp1776
g8
S'5.6'
p1777
sg10
S'0.0'
p1778
sg12
S'.456'
p1779
sg14
S'0.4'
p1780
sg16
S'6.8'
p1781
sg18
S'0.0'
p1782
sg20
g104
sg22
S'PF'
p1783
sg24
S'2.8'
p1784
sg28
S'NBA'
p1785
sg30
S'2.0'
p1786
sg32
S'15.0'
p1787
sg34
S'18.5'
p1788
sg36
S'.787'
p1789
sg38
S'2.1'
p1790
sg40
S'28'
p1791
sg42
S'LAC'
p1792
sg44
g294
sg46
S'2.2'
p1793
sg48
S'15.0'
p1794
sg50
S'6.2'
p1795
sg52
S'.456'
p1796
sg54
S'8.4'
p1797
sg56
S'2007-08'
p1798
sg58
S'6.8'
p1799
sg60
S'2.8'
p1800
sg62
S'4.9'
p1801
sg64
S'274'
p1802
sg66
g305
sba(isrc.gp1.models.Per36Minutes
Per36Minutes
p1803
(dp1804
g8
S'6.9'
p1805
sg10
S'0.0'
p1806
sg12
S'.447'
p1807
sg14
S'0.7'
p1808
sg16
S'6.4'
p1809
sg18
S'0.0'
p1810
sg20
g104
sg22
S'PF'
p1811
sg24
S'3.0'
p1812
sg28
S'NBA'
p1813
sg30
S'1.8'
p1814
sg32
S'14.3'
p1815
sg34
S'15.6'
p1816
sg36
S'.676'
p1817
sg38
S'1.4'
p1818
sg40
S'29'
p1819
sg42
S'PHI'
p1820
sg44
S'29'
p1821
sg46
S'2.7'
p1822
sg48
S'14.3'
p1823
sg50
S'4.2'
p1824
sg52
S'.447'
p1825
sg54
S'9.9'
p1826
sg56
S'2008-09'
p1827
sg58
S'6.4'
p1828
sg60
S'3.1'
p1829
sg62
S'2.9'
p1830
sg64
S'920'
p1831
sg66
S'23'
p1832
sba(isrc.gp1.models.Per36Minutes
Per36Minutes
p1833
(dp1834
g8
S'2.8'
p1835
sg10
S'0.0'
p1836
sg12
S'.480'
p1837
sg14
S'1.7'
p1838
sg16
S'.000'
p1839
sg18
S'0.0'
p1840
sg20
S'15.6'
p1841
sg22
S'PF'
p1842
sg24
S'.738'
p1843
sg28
S'NBA'
p1844
sg30
S'1.3'
p1845
sg32
S'13.4'
p1846
sg34
S'3.6'
p1847
sg36
S'3.7'
p1848
sg38
S'7.2'
p1849
sg40
S'30'
p1850
sg42
S'PHI'
p1851
sg44
S'76'
p1852
sg46
S'1.3'
p1853
sg48
S'6.5'
p1854
sg50
S'2.7'
p1855
sg52
S'13.4'
p1856
sg54
S'4.4'
p1857
sg56
S'2009-10'
p1858
sg58
S'6.5'
p1859
sg60
S'2.1'
p1860
sg62
S'.481'
p1861
sg64
S'2297'
p1862
sg66
S'57'
p1863
sba(isrc.gp1.models.Per36Minutes
Per36Minutes
p1864
(dp1865
g8
S'3.0'
p1866
sg10
S'0.0'
p1867
sg12
S'.512'
p1868
sg14
S'1.5'
p1869
sg16
S'.000'
p1870
sg18
S'0.0'
p1871
sg20
S'15.6'
p1872
sg22
S'PF'
p1873
sg24
S'.780'
p1874
sg28
S'NBA'
p1875
sg30
S'1.2'
p1876
sg32
S'12.6'
p1877
sg34
S'3.1'
p1878
sg36
S'3.5'
p1879
sg38
S'8.7'
p1880
sg40
S'31'
p1881
sg42
S'PHI'
p1882
sg44
S'81'
p1883
sg46
S'1.4'
p1884
sg48
S'6.4'
p1885
sg50
S'2.7'
p1886
sg52
S'12.6'
p1887
sg54
S'5.6'
p1888
sg56
S'2010-11'
p1889
sg58
S'6.4'
p1890
sg60
S'1.3'
p1891
sg62
S'.512'
p1892
sg64
S'2809'
p1893
sg66
S'81'
p1894
sba(isrc.gp1.models.Per36Minutes
Per36Minutes
p1895
(dp1896
g8
S'3.0'
p1897
sg10
S'0.0'
p1898
sg12
S'.494'
p1899
sg14
S'2.0'
p1900
sg16
S'.000'
p1901
sg18
S'0.0'
p1902
sg20
S'13.7'
p1903
sg22
g402
sg24
S'.733'
p1904
sg28
S'NBA'
p1905
sg30
S'1.2'
p1906
sg32
S'12.1'
p1907
sg34
S'3.7'
p1908
sg36
S'2.4'
p1909
sg38
S'8.9'
p1910
sg40
S'32'
p1911
sg42
S'PHI'
p1912
sg44
S'60'
p1913
sg46
S'2.0'
p1914
sg48
S'6.0'
p1915
sg50
S'1.8'
p1916
sg52
S'12.1'
p1917
sg54
S'5.9'
p1918
sg56
S'2011-12'
p1919
sg58
S'6.0'
p1920
sg60
S'1.4'
p1921
sg62
S'.495'
p1922
sg64
S'1732'
p1923
sg66
S'60'
p1924
sba(isrc.gp1.models.Per36Minutes
Per36Minutes
p1925
(dp1926
g8
S'3.1'
p1927
sg10
S'0.0'
p1928
sg12
S'.473'
p1929
sg14
S'1.7'
p1930
sg16
S'.000'
p1931
sg18
S'0.0'
p1932
sg20
S'12.2'
p1933
sg22
g402
sg24
S'.710'
p1934
sg28
S'NBA'
p1935
sg30
S'1.2'
p1936
sg32
S'11.3'
p1937
sg34
S'4.5'
p1938
sg36
S'2.2'
p1939
sg38
S'10.1'
p1940
sg40
S'33'
p1941
sg42
S'DAL'
p1942
sg44
S'72'
p1943
sg46
S'2.1'
p1944
sg48
S'5.3'
p1945
sg50
S'1.6'
p1946
sg52
S'11.2'
p1947
sg54
S'7.1'
p1948
sg56
S'2012-13'
p1949
sg58
S'5.3'
p1950
sg60
S'1.3'
p1951
sg62
S'.474'
p1952
sg64
S'1527'
p1953
sg66
S'18'
p1954
sba(isrc.gp1.models.Per36Minutes
Per36Minutes
p1955
(dp1956
g8
S'2.5'
p1957
sg10
S'0.1'
p1958
sg12
S'.539'
p1959
sg14
S'1.9'
p1960
sg16
S'.000'
p1961
sg18
S'0.0'
p1962
sg20
S'10.7'
p1963
sg22
S'PF'
p1964
sg24
S'.649'
p1965
sg28
S'NBA'
p1966
sg30
S'1.0'
p1967
sg32
S'8.5'
p1968
sg34
S'4.9'
p1969
sg36
S'2.4'
p1970
sg38
S'9.2'
p1971
sg40
S'34'
p1972
sg42
S'ATL'
p1973
sg44
S'73'
p1974
sg46
S'2.2'
p1975
sg48
S'4.6'
p1976
sg50
S'1.6'
p1977
sg52
S'8.4'
p1978
sg54
S'6.7'
p1979
sg56
S'2013-14'
p1980
sg58
S'4.6'
p1981
sg60
S'1.5'
p1982
sg62
S'.542'
p1983
sg64
S'1414'
p1984
sg66
S'15'
p1985
sba(isrc.gp1.models.Per36Minutes
Per36Minutes
p1986
(dp1987
g8
S'2.1'
p1988
sg10
S'0.1'
p1989
sg12
S'.442'
p1990
sg14
S'1.6'
p1991
sg16
S'.000'
p1992
sg18
S'0.0'
p1993
sg20
S'7.1'
p1994
sg22
S'PF'
p1995
sg24
S'.522'
p1996
sg28
S'NBA'
p1997
sg30
S'1.3'
p1998
sg32
S'7.0'
p1999
sg34
S'4.0'
p2000
sg36
S'1.7'
p2001
sg38
S'7.4'
p2002
sg40
S'35'
p2003
sg42
S'ATL'
p2004
sg44
S'36'
p2005
sg46
S'1.9'
p2006
sg48
S'3.1'
p2007
sg50
S'0.9'
p2008
sg52
S'7.0'
p2009
sg54
S'5.3'
p2010
sg56
S'2014-15'
p2011
sg58
S'3.1'
p2012
sg60
S'1.3'
p2013
sg62
S'.447'
p2014
sg64
S'486'
p2015
sg66
g513
sbasS'_fromYear'
p2016
S'2000'
p2017
sS'_url'
p2018
S'http://www.basketball-reference.com/players/b/brandel01.html'
p2019
sS'_perGame'
p2020
(isrc.gp1.models.PerGame
PerGame
p2021
(dp2022
g8
S'0.8'
p2023
sg10
S'0.0'
p2024
sg12
S'.442'
p2025
sS'_effectiveFieldGalPercentage'
p2026
S'.442'
p2027
sg14
S'0.6'
p2028
sg16
S'.000'
p2029
sg18
S'0.0'
p2030
sg20
S'2.7'
p2031
sg22
S'PF'
p2032
sg24
S'.522'
p2033
sg28
S'NBA'
p2034
sg30
S'0.5'
p2035
sg34
S'1.5'
p2036
sS'_fieldGoalsttempted'
p2037
S'2.6'
p2038
sg36
S'0.6'
p2039
sg38
S'2.8'
p2040
sg40
S'35'
p2041
sg42
S'ATL'
p2042
sg44
S'36'
p2043
sg46
S'0.7'
p2044
sg48
S'1.2'
p2045
sg50
S'0.3'
p2046
sg52
S'2.6'
p2047
sg54
S'2.0'
p2048
sg56
S'2014-15'
p2049
sg58
S'1.2'
p2050
sg60
S'0.5'
p2051
sg62
S'.447'
p2052
sg64
S'13.5'
p2053
sg66
g513
sbsS'_weight'
p2054
S'275'
p2055
sS'_dob'
p2056
S'11-3-1979'
p2057
sS'_salary'
p2058
(lp2059
(isrc.gp1.models.Salary
Salary
p2060
(dp2061
g42
S'Chicago Bulls'
p2062
sg28
S'NBA'
p2063
sg2058
S'$3,375,960'
p2064
sg56
S'1999-00'
p2065
sba(isrc.gp1.models.Salary
Salary
p2066
(dp2067
g42
S'Chicago Bulls'
p2068
sg28
S'NBA'
p2069
sg2058
S'$3,629,160'
p2070
sg56
S'2000-01'
p2071
sba(isrc.gp1.models.Salary
Salary
p2072
(dp2073
g42
S'Los Angeles Clippers'
p2074
sg28
S'NBA'
p2075
sg2058
S'$3,882,360'
p2076
sg56
S'2001-02'
p2077
sba(isrc.gp1.models.Salary
Salary
p2078
(dp2079
g42
S'Los Angeles Clippers'
p2080
sg28
S'NBA'
p2081
sg2058
S'$4,895,656'
p2082
sg56
S'2002-03'
p2083
sba(isrc.gp1.models.Salary
Salary
p2084
(dp2085
g42
S'Los Angeles Clippers'
p2086
sg28
S'NBA'
p2087
sg2058
S'$10,960,000'
p2088
sg56
S'2003-04'
p2089
sba(isrc.gp1.models.Salary
Salary
p2090
(dp2091
g42
S'Los Angeles Clippers'
p2092
sg28
S'NBA'
p2093
sg2058
S'$12,056,000'
p2094
sg56
S'2004-05'
p2095
sba(isrc.gp1.models.Salary
Salary
p2096
(dp2097
g42
S'Los Angeles Clippers'
p2098
sg28
S'NBA'
p2099
sg2058
S'$13,152,000'
p2100
sg56
S'2005-06'
p2101
sba(isrc.gp1.models.Salary
Salary
p2102
(dp2103
g42
S'Los Angeles Clippers'
p2104
sg28
S'NBA'
p2105
sg2058
S'$14,248,000'
p2106
sg56
S'2006-07'
p2107
sba(isrc.gp1.models.Salary
Salary
p2108
(dp2109
g42
S'Los Angeles Clippers'
p2110
sg28
S'NBA'
p2111
sg2058
S'$15,344,000'
p2112
sg56
S'2007-08'
p2113
sba(isrc.gp1.models.Salary
Salary
p2114
(dp2115
g42
S'Philadelphia 76ers'
p2116
sg28
S'NBA'
p2117
sg2058
S'$13,757,844'
p2118
sg56
S'2008-09'
p2119
sba(isrc.gp1.models.Salary
Salary
p2120
(dp2121
g42
S'Philadelphia 76ers'
p2122
sg28
S'NBA'
p2123
sg2058
S'$14,858,471'
p2124
sg56
S'2009-10'
p2125
sba(isrc.gp1.models.Salary
Salary
p2126
(dp2127
g42
S'Philadelphia 76ers'
p2128
sg28
S'NBA'
p2129
sg2058
S'$15,959,099'
p2130
sg56
S'2010-11'
p2131
sba(isrc.gp1.models.Salary
Salary
p2132
(dp2133
g42
S'Philadelphia 76ers'
p2134
sg28
S'NBA'
p2135
sg2058
S'$17,059,727'
p2136
sg56
S'2011-12'
p2137
sba(isrc.gp1.models.Salary
Salary
p2138
(dp2139
g42
S'Philadelphia 76ers'
p2140
sg28
S'NBA'
p2141
sg2058
S'$16,059,854'
p2142
sg56
S'2012-13'
p2143
sba(isrc.gp1.models.Salary
Salary
p2144
(dp2145
g42
S'Dallas Mavericks'
p2146
sg28
S'NBA'
p2147
sg2058
S'$2,100,500'
p2148
sg56
S'2012-13'
p2149
sba(isrc.gp1.models.Salary
Salary
p2150
(dp2151
g42
S'Atlanta Hawks'
p2152
sg28
S'NBA'
p2153
sg2058
S'$4,000,000'
p2154
sg56
S'2013-14'
p2155
sba(isrc.gp1.models.Salary
Salary
p2156
(dp2157
g42
S'Atlanta Hawks'
p2158
sg28
S'NBA'
p2159
sg2058
S'$2,000,000'
p2160
sg56
S'2014-15'
p2161
sbasg22
S'F'
p2162
sb.