(isrc.gp1.models.Player
Player
p0
(dp1
S'_experience'
p2
S'NA'
p3
sS'_totals'
p4
(lp5
(isrc.gp1.models.Totals
Totals
p6
(dp7
S'_offensiveRebounds'
p8
S'68'
p9
sS'_threePointsAttempted'
p10
g3
sS'_fieldGoalsPercentage'
p11
S'.477'
p12
sS'_assist'
p13
S'25'
p14
sS'_threePointsPercentage'
p15
g3
sS'_threePoints'
p16
g3
sS'_points'
p17
S'310'
p18
sS'_position'
p19
S'SF'
p20
sS'_freeThrowsPercentage'
p21
S'.767'
p22
sS'_effectiveFieldGoalPercentage'
p23
S'.477'
p24
sS'_league'
p25
S'NBA'
p26
sS'_steals'
p27
S'17'
p28
sS'_fieldGoalsAttempted'
p29
S'277'
p30
sS'_personalFouls'
p31
S'78'
p32
sS'_freeThrowsAttempted'
p33
S'60'
p34
sS'_totalRebounds'
p35
S'168'
p36
sS'_age'
p37
S'23'
p38
sS'_team'
p39
S'MIL'
p40
sS'_games'
p41
S'60'
p42
sS'_blocks'
p43
S'18'
p44
sS'_twoPoints'
p45
S'132'
p46
sS'_freeThrows'
p47
S'46'
p48
sS'_twoPointsAttempted'
p49
S'277'
p50
sS'_defensiveRebounds'
p51
S'100'
p52
sS'_season'
p53
S'1976-77'
p54
sS'_fieldGoals'
p55
S'132'
p56
sS'_turnOvers'
p57
g3
sS'_twoPointsPercentage'
p58
S'.477'
p59
sS'_minutesPlayed'
p60
S'648'
p61
sS'_gamesStarted'
p62
g3
sba(isrc.gp1.models.Totals
Totals
p63
(dp64
g8
S'144'
p65
sg10
g3
sg11
S'.542'
p66
sg13
S'129'
p67
sg15
g3
sg16
g3
sg17
S'790'
p68
sg19
S'SF'
p69
sg21
S'.727'
p70
sg23
S'.542'
p71
sg25
S'NBA'
p72
sg27
S'41'
p73
sg29
S'633'
p74
sg31
S'178'
p75
sg33
S'143'
p76
sg35
S'395'
p77
sg37
S'24'
p78
sg39
S'MIL'
p79
sg41
S'82'
p80
sg43
S'55'
p81
sg45
S'343'
p82
sg47
S'104'
p83
sg49
S'633'
p84
sg51
S'251'
p85
sg53
S'1977-78'
p86
sg55
S'343'
p87
sg57
S'137'
p88
sg58
S'.542'
p89
sg60
S'1552'
p90
sg62
g3
sba(isrc.gp1.models.Totals
Totals
p91
(dp92
g8
S'253'
p93
sg10
g3
sg11
S'.511'
p94
sg13
S'271'
p95
sg15
g3
sg16
g3
sg17
S'1299'
p96
sg19
S'SF'
p97
sg21
S'.752'
p98
sg23
S'.511'
p99
sg25
S'NBA'
p100
sg27
S'70'
p101
sg29
S'1102'
p102
sg31
S'214'
p103
sg33
S'230'
p104
sg35
S'655'
p105
sg37
S'25'
p106
sg39
S'IND'
p107
sg41
S'81'
p108
sg43
S'78'
p109
sg45
S'563'
p110
sg47
S'173'
p111
sg49
S'1102'
p112
sg51
S'402'
p113
sg53
S'1978-79'
p114
sg55
S'563'
p115
sg57
S'196'
p116
sg58
S'.511'
p117
sg60
S'2696'
p118
sg62
g3
sba(isrc.gp1.models.Totals
Totals
p119
(dp120
g8
S'269'
p121
sg10
S'6'
p122
sg11
S'.497'
p123
sg13
S'224'
p124
sg15
S'.333'
p125
sg16
S'2'
p126
sg17
S'1318'
p127
sg19
S'SF'
p128
sg21
S'.789'
p129
sg23
S'.498'
p130
sg25
S'NBA'
p131
sg27
S'73'
p132
sg29
S'1113'
p133
sg31
S'206'
p134
sg33
S'266'
p135
sg35
S'605'
p136
sg37
S'26'
p137
sg39
S'TOT'
p138
sg41
S'78'
p139
sg43
S'62'
p140
sg45
S'551'
p141
sg47
S'210'
p142
sg49
S'1107'
p143
sg51
S'336'
p144
sg53
S'1979-80'
p145
sg55
S'553'
p146
sg57
S'214'
p147
sg58
S'.498'
p148
sg60
S'2401'
p149
sg62
g3
sba(isrc.gp1.models.Totals
Totals
p150
(dp151
g8
S'167'
p152
sg10
S'3'
p153
sg11
S'.504'
p154
sg13
S'142'
p155
sg15
S'.000'
p156
sg16
S'0'
p157
sg17
S'806'
p158
sg19
S'SF'
p159
sg21
S'.814'
p160
sg23
S'.504'
p161
sg25
S'NBA'
p162
sg27
S'45'
p163
sg29
S'686'
p164
sg31
S'128'
p165
sg33
S'140'
p166
sg35
S'380'
p167
sg37
S'26'
p168
sg39
S'IND'
p169
sg41
S'54'
p170
sg43
S'33'
p171
sg45
S'346'
p172
sg47
S'114'
p173
sg49
S'683'
p174
sg51
S'213'
p175
sg53
S'1979-80'
p176
sg55
S'346'
p177
sg57
S'124'
p178
sg58
S'.507'
p179
sg60
S'1526'
p180
sg62
g3
sba(isrc.gp1.models.Totals
Totals
p181
(dp182
g8
S'102'
p183
sg10
g153
sg11
S'.485'
p184
sg13
S'82'
p185
sg15
S'.667'
p186
sg16
g126
sg17
S'512'
p187
sg19
S'SF'
p188
sg21
S'.762'
p189
sg23
S'.487'
p190
sg25
S'NBA'
p191
sg27
S'28'
p192
sg29
S'427'
p193
sg31
S'78'
p194
sg33
S'126'
p195
sg35
S'225'
p196
sg37
S'26'
p197
sg39
S'DEN'
p198
sg41
S'24'
p199
sg43
S'29'
p200
sg45
S'205'
p201
sg47
S'96'
p202
sg49
S'424'
p203
sg51
S'123'
p204
sg53
S'1979-80'
p205
sg55
S'207'
p206
sg57
S'90'
p207
sg58
S'.483'
p208
sg60
S'875'
p209
sg62
g3
sba(isrc.gp1.models.Totals
Totals
p210
(dp211
g8
S'273'
p212
sg10
S'5'
p213
sg11
S'.494'
p214
sg13
S'290'
p215
sg15
S'.600'
p216
sg16
g153
sg17
S'1929'
p217
sg19
S'SF'
p218
sg21
S'.850'
p219
sg23
S'.495'
p220
sg25
S'NBA'
p221
sg27
S'106'
p222
sg29
S'1555'
p223
sg31
S'255'
p224
sg33
S'459'
p225
sg35
S'646'
p226
sg37
S'27'
p227
sg39
S'DEN'
p228
sg41
S'81'
p229
sg43
S'100'
p230
sg45
S'765'
p231
sg47
S'390'
p232
sg49
S'1550'
p233
sg51
S'373'
p234
sg53
S'1980-81'
p235
sg55
S'768'
p236
sg57
S'241'
p237
sg58
S'.494'
p238
sg60
S'3093'
p239
sg62
g3
sba(isrc.gp1.models.Totals
Totals
p240
(dp241
g8
S'210'
p242
sg10
S'8'
p243
sg11
S'.551'
p244
sg13
S'433'
p245
sg15
S'.000'
p246
sg16
g157
sg17
S'2082'
p247
sg19
S'SF'
p248
sg21
S'.840'
p249
sg23
S'.551'
p250
sg25
S'NBA'
p251
sg27
S'87'
p252
sg29
S'1553'
p253
sg31
S'261'
p254
sg33
S'443'
p255
sg35
S'558'
p256
sg37
S'28'
p257
sg39
S'DEN'
p258
sg41
S'82'
p259
sg43
S'120'
p260
sg45
S'855'
p261
sg47
S'372'
p262
sg49
S'1545'
p263
sg51
S'348'
p264
sg53
S'1981-82'
p265
sg55
S'855'
p266
sg57
S'261'
p267
sg58
S'.553'
p268
sg60
S'3015'
p269
sg62
S'82'
p270
sba(isrc.gp1.models.Totals
Totals
p271
(dp272
g8
S'263'
p273
sg10
S'12'
p274
sg11
S'.516'
p275
sg13
S'397'
p276
sg15
S'.167'
p277
sg16
g126
sg17
S'2326'
p278
sg19
S'SF'
p279
sg21
S'.829'
p280
sg23
S'.517'
p281
sg25
S'NBA'
p282
sg27
S'116'
p283
sg29
S'1857'
p284
sg31
S'235'
p285
sg33
S'490'
p286
sg35
S'601'
p287
sg37
S'29'
p288
sg39
S'DEN'
p289
sg41
S'82'
p290
sg43
S'126'
p291
sg45
S'957'
p292
sg47
S'406'
p293
sg49
S'1845'
p294
sg51
S'338'
p295
sg53
S'1982-83'
p296
sg55
S'959'
p297
sg57
S'263'
p298
sg58
S'.519'
p299
sg60
S'2988'
p300
sg62
S'82'
p301
sba(isrc.gp1.models.Totals
Totals
p302
(dp303
g8
S'216'
p304
sg10
S'7'
p305
sg11
S'.529'
p306
sg13
S'406'
p307
sg15
S'.143'
p308
sg16
S'1'
p309
sg17
S'2167'
p310
sg19
S'SF'
p311
sg21
S'.824'
p312
sg23
S'.529'
p313
sg25
S'NBA'
p314
sg27
S'83'
p315
sg29
S'1714'
p316
sg31
S'252'
p317
sg33
S'427'
p318
sg35
S'464'
p319
sg37
S'30'
p320
sg39
S'DEN'
p321
sg41
S'82'
p322
sg43
S'95'
p323
sg45
S'906'
p324
sg47
S'352'
p325
sg49
S'1707'
p326
sg51
S'248'
p327
sg53
S'1983-84'
p328
sg55
S'907'
p329
sg57
S'222'
p330
sg58
S'.531'
p331
sg60
S'2870'
p332
sg62
S'77'
p333
sba(isrc.gp1.models.Totals
Totals
p334
(dp335
g8
S'203'
p336
sg10
g213
sg11
S'.518'
p337
sg13
S'344'
p338
sg15
S'.200'
p339
sg16
g309
sg17
S'2262'
p340
sg19
S'SF'
p341
sg21
S'.829'
p342
sg23
S'.518'
p343
sg25
S'NBA'
p344
sg27
S'101'
p345
sg29
S'1812'
p346
sg31
S'259'
p347
sg33
S'462'
p348
sg35
S'458'
p349
sg37
S'31'
p350
sg39
S'DEN'
p351
sg41
S'81'
p352
sg43
S'46'
p353
sg45
S'938'
p354
sg47
S'383'
p355
sg49
S'1807'
p356
sg51
S'255'
p357
sg53
S'1984-85'
p358
sg55
S'939'
p359
sg57
S'251'
p360
sg58
S'.519'
p361
sg60
S'2924'
p362
sg62
S'81'
p363
sba(isrc.gp1.models.Totals
Totals
p364
(dp365
g8
S'192'
p366
sg10
g213
sg11
S'.504'
p367
sg13
S'320'
p368
sg15
S'.200'
p369
sg16
g309
sg17
S'2414'
p370
sg19
S'SF'
p371
sg21
S'.862'
p372
sg23
S'.504'
p373
sg25
S'NBA'
p374
sg27
S'73'
p375
sg29
S'1888'
p376
sg31
S'235'
p377
sg33
S'593'
p378
sg35
S'405'
p379
sg37
S'32'
p380
sg39
S'DEN'
p381
sg41
S'81'
p382
sg43
S'29'
p383
sg45
S'950'
p384
sg47
S'511'
p385
sg49
S'1883'
p386
sg51
S'213'
p387
sg53
S'1985-86'
p388
sg55
S'951'
p389
sg57
S'249'
p390
sg58
S'.505'
p391
sg60
S'3024'
p392
sg62
S'81'
p393
sba(isrc.gp1.models.Totals
Totals
p394
(dp395
g8
S'146'
p396
sg10
S'15'
p397
sg11
S'.503'
p398
sg13
S'422'
p399
sg15
S'.267'
p400
sg16
S'4'
p401
sg17
S'2345'
p402
sg19
S'SF'
p403
sg21
S'.844'
p404
sg23
S'.504'
p405
sg25
S'NBA'
p406
sg27
S'73'
p407
sg29
S'1920'
p408
sg31
S'216'
p409
sg33
S'487'
p410
sg35
S'344'
p411
sg37
S'33'
p412
sg39
S'DEN'
p413
sg41
S'82'
p414
sg43
S'21'
p415
sg45
S'961'
p416
sg47
S'411'
p417
sg49
S'1905'
p418
sg51
S'198'
p419
sg53
S'1986-87'
p420
sg55
S'965'
p421
sg57
S'214'
p422
sg58
S'.504'
p423
sg60
S'3085'
p424
sg62
S'82'
p425
sba(isrc.gp1.models.Totals
Totals
p426
(dp427
g8
S'166'
p428
sg10
g122
sg11
S'.495'
p429
sg13
S'377'
p430
sg15
S'.000'
p431
sg16
g157
sg17
S'2000'
p432
sg19
S'SF'
p433
sg21
S'.828'
p434
sg23
S'.495'
p435
sg25
S'NBA'
p436
sg27
S'70'
p437
sg29
S'1704'
p438
sg31
S'193'
p439
sg33
S'379'
p440
sg35
S'373'
p441
sg37
S'34'
p442
sg39
S'DEN'
p443
sg41
S'80'
p444
sg43
S'23'
p445
sg45
S'843'
p446
sg47
S'314'
p447
sg49
S'1698'
p448
sg51
S'207'
p449
sg53
S'1987-88'
p450
sg55
S'843'
p451
sg57
S'181'
p452
sg58
S'.496'
p453
sg60
S'2818'
p454
sg62
S'80'
p455
sba(isrc.gp1.models.Totals
Totals
p456
(dp457
g8
S'148'
p458
sg10
g243
sg11
S'.491'
p459
sg13
S'383'
p460
sg15
S'.250'
p461
sg16
g126
sg17
S'2175'
p462
sg19
S'SF'
p463
sg21
S'.858'
p464
sg23
S'.492'
p465
sg25
S'NBA'
p466
sg27
S'66'
p467
sg29
S'1881'
p468
sg31
S'174'
p469
sg33
S'379'
p470
sg35
S'326'
p471
sg37
S'35'
p472
sg39
S'DEN'
p473
sg41
S'82'
p474
sg43
S'12'
p475
sg45
S'922'
p476
sg47
S'325'
p477
sg49
S'1873'
p478
sg51
S'178'
p479
sg53
S'1988-89'
p480
sg55
S'924'
p481
sg57
S'198'
p482
sg58
S'.492'
p483
sg60
S'2990'
p484
sg62
S'82'
p485
sba(isrc.gp1.models.Totals
Totals
p486
(dp487
g8
S'119'
p488
sg10
g213
sg11
S'.491'
p489
sg13
S'225'
p490
sg15
S'.400'
p491
sg16
g126
sg17
S'1433'
p492
sg19
S'SF'
p493
sg21
S'.880'
p494
sg23
S'.492'
p495
sg25
S'NBA'
p496
sg27
S'51'
p497
sg29
S'1293'
p498
sg31
S'130'
p499
sg33
S'183'
p500
sg35
S'286'
p501
sg37
S'36'
p502
sg39
S'DEN'
p503
sg41
S'80'
p504
sg43
S'23'
p505
sg45
S'633'
p506
sg47
S'161'
p507
sg49
S'1288'
p508
sg51
S'167'
p509
sg53
S'1989-90'
p510
sg55
S'635'
p511
sg57
S'93'
p512
sg58
S'.491'
p513
sg60
S'2211'
p514
sg62
S'80'
p515
sba(isrc.gp1.models.Totals
Totals
p516
(dp517
g8
S'108'
p518
sg10
g309
sg11
S'.439'
p519
sg13
S'105'
p520
sg15
S'.000'
p521
sg16
g157
sg17
S'763'
p522
sg19
S'SF'
p523
sg21
S'.850'
p524
sg23
S'.439'
p525
sg25
S'NBA'
p526
sg27
S'40'
p527
sg29
S'734'
p528
sg31
S'141'
p529
sg33
S'140'
p530
sg35
S'254'
p531
sg37
S'37'
p532
sg39
S'DAL'
p533
sg41
S'79'
p534
sg43
S'25'
p535
sg45
S'322'
p536
sg47
S'119'
p537
sg49
S'733'
p538
sg51
S'146'
p539
sg53
S'1990-91'
p540
sg55
S'322'
p541
sg57
S'101'
p542
sg58
S'.439'
p543
sg60
S'1748'
p544
sg62
S'26'
p545
sbasS'_college'
p546
S'University of South Carolina'
p547
sS'_toYear'
p548
S'1991'
p549
sS'_height'
p550
S'6-7'
p551
sS'_active'
p552
I00
sS'_shootingHand'
p553
VRight
p554
sS'_name'
p555
S'Alex English'
p556
sS'_per100Possessions'
p557
(lp558
(isrc.gp1.models.Per100Possession
Per100Possession
p559
(dp560
g8
S'4.7'
p561
sg10
g3
sg11
S'.477'
p562
sS'_offensiveRating'
p563
g3
sg13
S'1.7'
p564
sg15
g3
sg16
g3
sg17
S'21.2'
p565
sg19
S'SF'
p566
sS'_defensiveRating'
p567
S'103'
p568
sg21
S'.767'
p569
sg25
S'NBA'
p570
sg27
S'1.2'
p571
sg29
S'19.0'
p572
sg31
S'5.3'
p573
sg33
S'4.1'
p574
sg35
S'11.5'
p575
sg37
S'23'
p576
sg39
S'MIL'
p577
sg41
S'60'
p578
sg43
S'1.2'
p579
sg45
S'9.0'
p580
sg47
S'3.1'
p581
sg49
S'19.0'
p582
sg51
S'6.8'
p583
sg53
S'1976-77'
p584
sg55
S'9.0'
p585
sg57
g3
sg58
S'.477'
p586
sg60
S'648'
p587
sg62
g3
sba(isrc.gp1.models.Per100Possession
Per100Possession
p588
(dp589
g8
S'4.1'
p590
sg10
g3
sg11
S'.542'
p591
sg563
S'106'
p592
sg13
S'3.7'
p593
sg15
g3
sg16
g3
sg17
S'22.5'
p594
sg19
S'SF'
p595
sg567
S'102'
p596
sg21
S'.727'
p597
sg25
S'NBA'
p598
sg27
S'1.2'
p599
sg29
S'18.0'
p600
sg31
S'5.1'
p601
sg33
S'4.1'
p602
sg35
S'11.2'
p603
sg37
S'24'
p604
sg39
S'MIL'
p605
sg41
S'82'
p606
sg43
S'1.6'
p607
sg45
S'9.8'
p608
sg47
S'3.0'
p609
sg49
S'18.0'
p610
sg51
S'7.1'
p611
sg53
S'1977-78'
p612
sg55
S'9.8'
p613
sg57
S'3.9'
p614
sg58
S'.542'
p615
sg60
S'1552'
p616
sg62
g3
sba(isrc.gp1.models.Per100Possession
Per100Possession
p617
(dp618
g8
S'4.3'
p619
sg10
g3
sg11
S'.511'
p620
sg563
S'108'
p621
sg13
S'4.6'
p622
sg15
g3
sg16
g3
sg17
S'22.0'
p623
sg19
S'SF'
p624
sg567
S'104'
p625
sg21
S'.752'
p626
sg25
S'NBA'
p627
sg27
S'1.2'
p628
sg29
S'18.6'
p629
sg31
S'3.6'
p630
sg33
S'3.9'
p631
sg35
S'11.1'
p632
sg37
S'25'
p633
sg39
S'IND'
p634
sg41
S'81'
p635
sg43
S'1.3'
p636
sg45
S'9.5'
p637
sg47
S'2.9'
p638
sg49
S'18.6'
p639
sg51
S'6.8'
p640
sg53
S'1978-79'
p641
sg55
S'9.5'
p642
sg57
S'3.3'
p643
sg58
S'.511'
p644
sg60
S'2696'
p645
sg62
g3
sba(isrc.gp1.models.Per100Possession
Per100Possession
p646
(dp647
g8
S'5.2'
p648
sg10
S'0.1'
p649
sg11
S'.497'
p650
sg563
S'106'
p651
sg13
S'4.3'
p652
sg15
S'.333'
p653
sg16
S'0.0'
p654
sg17
S'25.3'
p655
sg19
S'SF'
p656
sg567
S'107'
p657
sg21
S'.789'
p658
sg25
S'NBA'
p659
sg27
S'1.4'
p660
sg29
S'21.3'
p661
sg31
S'4.0'
p662
sg33
S'5.1'
p663
sg35
S'11.6'
p664
sg37
S'26'
p665
sg39
S'TOT'
p666
sg41
S'78'
p667
sg43
S'1.2'
p668
sg45
S'10.6'
p669
sg47
S'4.0'
p670
sg49
S'21.2'
p671
sg51
S'6.4'
p672
sg53
S'1979-80'
p673
sg55
S'10.6'
p674
sg57
S'4.1'
p675
sg58
S'.498'
p676
sg60
S'2401'
p677
sg62
g3
sba(isrc.gp1.models.Per100Possession
Per100Possession
p678
(dp679
g8
S'5.0'
p680
sg10
S'0.1'
p681
sg11
S'.504'
p682
sg563
S'108'
p683
sg13
S'4.3'
p684
sg15
S'.000'
p685
sg16
S'0.0'
p686
sg17
S'24.3'
p687
sg19
S'SF'
p688
sg567
S'107'
p689
sg21
S'.814'
p690
sg25
S'NBA'
p691
sg27
S'1.4'
p692
sg29
S'20.7'
p693
sg31
S'3.9'
p694
sg33
S'4.2'
p695
sg35
S'11.4'
p696
sg37
S'26'
p697
sg39
S'IND'
p698
sg41
S'54'
p699
sg43
S'1.0'
p700
sg45
S'10.4'
p701
sg47
S'3.4'
p702
sg49
S'20.6'
p703
sg51
S'6.4'
p704
sg53
S'1979-80'
p705
sg55
S'10.4'
p706
sg57
S'3.7'
p707
sg58
S'.507'
p708
sg60
S'1526'
p709
sg62
g3
sba(isrc.gp1.models.Per100Possession
Per100Possession
p710
(dp711
g8
S'5.4'
p712
sg10
S'0.2'
p713
sg11
S'.485'
p714
sg563
S'104'
p715
sg13
S'4.3'
p716
sg15
S'.667'
p717
sg16
S'0.1'
p718
sg17
S'27.0'
p719
sg19
S'SF'
p720
sg567
S'107'
p721
sg21
S'.762'
p722
sg25
S'NBA'
p723
sg27
S'1.5'
p724
sg29
S'22.5'
p725
sg31
S'4.1'
p726
sg33
S'6.7'
p727
sg35
S'11.9'
p728
sg37
S'26'
p729
sg39
S'DEN'
p730
sg41
S'24'
p731
sg43
S'1.5'
p732
sg45
S'10.8'
p733
sg47
S'5.1'
p734
sg49
S'22.4'
p735
sg51
S'6.5'
p736
sg53
S'1979-80'
p737
sg55
S'10.9'
p738
sg57
S'4.8'
p739
sg58
S'.483'
p740
sg60
S'875'
p741
sg62
g3
sba(isrc.gp1.models.Per100Possession
Per100Possession
p742
(dp743
g8
S'3.9'
p744
sg10
S'0.1'
p745
sg11
S'.494'
p746
sg563
S'112'
p747
sg13
S'4.1'
p748
sg15
S'.600'
p749
sg16
S'0.0'
p750
sg17
S'27.3'
p751
sg19
S'SF'
p752
sg567
S'110'
p753
sg21
S'.850'
p754
sg25
S'NBA'
p755
sg27
S'1.5'
p756
sg29
S'22.0'
p757
sg31
S'3.6'
p758
sg33
S'6.5'
p759
sg35
S'9.1'
p760
sg37
S'27'
p761
sg39
S'DEN'
p762
sg41
S'81'
p763
sg43
S'1.4'
p764
sg45
S'10.8'
p765
sg47
S'5.5'
p766
sg49
S'21.9'
p767
sg51
S'5.3'
p768
sg53
S'1980-81'
p769
sg55
S'10.9'
p770
sg57
S'3.4'
p771
sg58
S'.494'
p772
sg60
S'3093'
p773
sg62
g3
sba(isrc.gp1.models.Per100Possession
Per100Possession
p774
(dp775
g8
S'3.0'
p776
sg10
S'0.1'
p777
sg11
S'.551'
p778
sg563
S'118'
p779
sg13
S'6.3'
p780
sg15
S'.000'
p781
sg16
S'0.0'
p782
sg17
S'30.2'
p783
sg19
S'SF'
p784
sg567
S'114'
p785
sg21
S'.840'
p786
sg25
S'NBA'
p787
sg27
S'1.3'
p788
sg29
S'22.5'
p789
sg31
S'3.8'
p790
sg33
S'6.4'
p791
sg35
S'8.1'
p792
sg37
S'28'
p793
sg39
S'DEN'
p794
sg41
S'82'
p795
sg43
S'1.7'
p796
sg45
S'12.4'
p797
sg47
S'5.4'
p798
sg49
S'22.4'
p799
sg51
S'5.0'
p800
sg53
S'1981-82'
p801
sg55
S'12.4'
p802
sg57
S'3.8'
p803
sg58
S'.553'
p804
sg60
S'3015'
p805
sg62
S'82'
p806
sba(isrc.gp1.models.Per100Possession
Per100Possession
p807
(dp808
g8
S'3.8'
p809
sg10
S'0.2'
p810
sg11
S'.516'
p811
sg563
S'113'
p812
sg13
S'5.7'
p813
sg15
S'.167'
p814
sg16
S'0.0'
p815
sg17
S'33.3'
p816
sg19
S'SF'
p817
sg567
S'109'
p818
sg21
S'.829'
p819
sg25
S'NBA'
p820
sg27
S'1.7'
p821
sg29
S'26.6'
p822
sg31
S'3.4'
p823
sg33
S'7.0'
p824
sg35
S'8.6'
p825
sg37
S'29'
p826
sg39
S'DEN'
p827
sg41
S'82'
p828
sg43
S'1.8'
p829
sg45
S'13.7'
p830
sg47
S'5.8'
p831
sg49
S'26.4'
p832
sg51
S'4.8'
p833
sg53
S'1982-83'
p834
sg55
S'13.7'
p835
sg57
S'3.8'
p836
sg58
S'.519'
p837
sg60
S'2988'
p838
sg62
S'82'
p839
sba(isrc.gp1.models.Per100Possession
Per100Possession
p840
(dp841
g8
S'3.3'
p842
sg10
S'0.1'
p843
sg11
S'.529'
p844
sg563
S'114'
p845
sg13
S'6.1'
p846
sg15
S'.143'
p847
sg16
S'0.0'
p848
sg17
S'32.8'
p849
sg19
S'SF'
p850
sg567
S'113'
p851
sg21
S'.824'
p852
sg25
S'NBA'
p853
sg27
S'1.3'
p854
sg29
S'26.0'
p855
sg31
S'3.8'
p856
sg33
S'6.5'
p857
sg35
S'7.0'
p858
sg37
S'30'
p859
sg39
S'DEN'
p860
sg41
S'82'
p861
sg43
S'1.4'
p862
sg45
S'13.7'
p863
sg47
S'5.3'
p864
sg49
S'25.8'
p865
sg51
S'3.8'
p866
sg53
S'1983-84'
p867
sg55
S'13.7'
p868
sg57
S'3.4'
p869
sg58
S'.531'
p870
sg60
S'2870'
p871
sg62
S'77'
p872
sba(isrc.gp1.models.Per100Possession
Per100Possession
p873
(dp874
g8
S'3.1'
p875
sg10
S'0.1'
p876
sg11
S'.518'
p877
sg563
S'113'
p878
sg13
S'5.2'
p879
sg15
S'.200'
p880
sg16
S'0.0'
p881
sg17
S'34.5'
p882
sg19
S'SF'
p883
sg567
S'111'
p884
sg21
S'.829'
p885
sg25
S'NBA'
p886
sg27
S'1.5'
p887
sg29
S'27.6'
p888
sg31
S'4.0'
p889
sg33
S'7.0'
p890
sg35
S'7.0'
p891
sg37
S'31'
p892
sg39
S'DEN'
p893
sg41
S'81'
p894
sg43
S'0.7'
p895
sg45
S'14.3'
p896
sg47
S'5.8'
p897
sg49
S'27.6'
p898
sg51
S'3.9'
p899
sg53
S'1984-85'
p900
sg55
S'14.3'
p901
sg57
S'3.8'
p902
sg58
S'.519'
p903
sg60
S'2924'
p904
sg62
S'81'
p905
sba(isrc.gp1.models.Per100Possession
Per100Possession
p906
(dp907
g8
S'2.9'
p908
sg10
S'0.1'
p909
sg11
S'.504'
p910
sg563
S'113'
p911
sg13
S'4.8'
p912
sg15
S'.200'
p913
sg16
S'0.0'
p914
sg17
S'35.9'
p915
sg19
S'SF'
p916
sg567
S'110'
p917
sg21
S'.862'
p918
sg25
S'NBA'
p919
sg27
S'1.1'
p920
sg29
S'28.1'
p921
sg31
S'3.5'
p922
sg33
S'8.8'
p923
sg35
S'6.0'
p924
sg37
S'32'
p925
sg39
S'DEN'
p926
sg41
S'81'
p927
sg43
S'0.4'
p928
sg45
S'14.1'
p929
sg47
S'7.6'
p930
sg49
S'28.0'
p931
sg51
S'3.2'
p932
sg53
S'1985-86'
p933
sg55
S'14.1'
p934
sg57
S'3.7'
p935
sg58
S'.505'
p936
sg60
S'3024'
p937
sg62
S'81'
p938
sba(isrc.gp1.models.Per100Possession
Per100Possession
p939
(dp940
g8
S'2.1'
p941
sg10
S'0.2'
p942
sg11
S'.503'
p943
sg563
S'113'
p944
sg13
S'6.2'
p945
sg15
S'.267'
p946
sg16
S'0.1'
p947
sg17
S'34.4'
p948
sg19
S'SF'
p949
sg567
S'114'
p950
sg21
S'.844'
p951
sg25
S'NBA'
p952
sg27
S'1.1'
p953
sg29
S'28.1'
p954
sg31
S'3.2'
p955
sg33
S'7.1'
p956
sg35
S'5.0'
p957
sg37
S'33'
p958
sg39
S'DEN'
p959
sg41
S'82'
p960
sg43
S'0.3'
p961
sg45
S'14.1'
p962
sg47
S'6.0'
p963
sg49
S'27.9'
p964
sg51
S'2.9'
p965
sg53
S'1986-87'
p966
sg55
S'14.1'
p967
sg57
S'3.1'
p968
sg58
S'.504'
p969
sg60
S'3085'
p970
sg62
S'82'
p971
sba(isrc.gp1.models.Per100Possession
Per100Possession
p972
(dp973
g8
S'2.7'
p974
sg10
S'0.1'
p975
sg11
S'.495'
p976
sg563
S'111'
p977
sg13
S'6.1'
p978
sg15
S'.000'
p979
sg16
S'0.0'
p980
sg17
S'32.3'
p981
sg19
S'SF'
p982
sg567
S'110'
p983
sg21
S'.828'
p984
sg25
S'NBA'
p985
sg27
S'1.1'
p986
sg29
S'27.5'
p987
sg31
S'3.1'
p988
sg33
S'6.1'
p989
sg35
S'6.0'
p990
sg37
S'34'
p991
sg39
S'DEN'
p992
sg41
S'80'
p993
sg43
S'0.4'
p994
sg45
S'13.6'
p995
sg47
S'5.1'
p996
sg49
S'27.4'
p997
sg51
S'3.3'
p998
sg53
S'1987-88'
p999
sg55
S'13.6'
p1000
sg57
S'2.9'
p1001
sg58
S'.496'
p1002
sg60
S'2818'
p1003
sg62
S'80'
p1004
sba(isrc.gp1.models.Per100Possession
Per100Possession
p1005
(dp1006
g8
S'2.2'
p1007
sg10
S'0.1'
p1008
sg11
S'.491'
p1009
sg563
S'109'
p1010
sg13
S'5.7'
p1011
sg15
S'.250'
p1012
sg16
S'0.0'
p1013
sg17
S'32.5'
p1014
sg19
S'SF'
p1015
sg567
S'112'
p1016
sg21
S'.858'
p1017
sg25
S'NBA'
p1018
sg27
S'1.0'
p1019
sg29
S'28.1'
p1020
sg31
S'2.6'
p1021
sg33
S'5.7'
p1022
sg35
S'4.9'
p1023
sg37
S'35'
p1024
sg39
S'DEN'
p1025
sg41
S'82'
p1026
sg43
S'0.2'
p1027
sg45
S'13.8'
p1028
sg47
S'4.9'
p1029
sg49
S'28.0'
p1030
sg51
S'2.7'
p1031
sg53
S'1988-89'
p1032
sg55
S'13.8'
p1033
sg57
S'3.0'
p1034
sg58
S'.492'
p1035
sg60
S'2990'
p1036
sg62
S'82'
p1037
sba(isrc.gp1.models.Per100Possession
Per100Possession
p1038
(dp1039
g8
S'2.5'
p1040
sg10
S'0.1'
p1041
sg11
S'.491'
p1042
sg563
S'110'
p1043
sg13
S'4.6'
p1044
sg15
S'.400'
p1045
sg16
S'0.0'
p1046
sg17
S'29.5'
p1047
sg19
S'SF'
p1048
sg567
S'110'
p1049
sg21
S'.880'
p1050
sg25
S'NBA'
p1051
sg27
S'1.1'
p1052
sg29
S'26.6'
p1053
sg31
S'2.7'
p1054
sg33
S'3.8'
p1055
sg35
S'5.9'
p1056
sg37
S'36'
p1057
sg39
S'DEN'
p1058
sg41
S'80'
p1059
sg43
S'0.5'
p1060
sg45
S'13.0'
p1061
sg47
S'3.3'
p1062
sg49
S'26.5'
p1063
sg51
S'3.4'
p1064
sg53
S'1989-90'
p1065
sg55
S'13.1'
p1066
sg57
S'1.9'
p1067
sg58
S'.491'
p1068
sg60
S'2211'
p1069
sg62
S'80'
p1070
sba(isrc.gp1.models.Per100Possession
Per100Possession
p1071
(dp1072
g8
S'3.1'
p1073
sg10
S'0.0'
p1074
sg11
S'.439'
p1075
sg563
S'98'
p1076
sg13
S'3.1'
p1077
sg15
S'.000'
p1078
sg16
S'0.0'
p1079
sg17
S'22.3'
p1080
sg19
S'SF'
p1081
sg567
S'113'
p1082
sg21
S'.850'
p1083
sg25
S'NBA'
p1084
sg27
S'1.2'
p1085
sg29
S'21.4'
p1086
sg31
S'4.1'
p1087
sg33
S'4.1'
p1088
sg35
S'7.4'
p1089
sg37
S'37'
p1090
sg39
S'DAL'
p1091
sg41
S'79'
p1092
sg43
S'0.7'
p1093
sg45
S'9.4'
p1094
sg47
S'3.5'
p1095
sg49
S'21.4'
p1096
sg51
S'4.3'
p1097
sg53
S'1990-91'
p1098
sg55
S'9.4'
p1099
sg57
S'2.9'
p1100
sg58
S'.439'
p1101
sg60
S'1748'
p1102
sg62
S'26'
p1103
sbasS'_advanced'
p1104
(lp1105
(isrc.gp1.models.Advanced
Advanced
p1106
(dp1107
S'_offensiveReboundPercentage'
p1108
S'10.8'
p1109
sS'_turnOverPercentage'
p1110
g3
sS'_winSharesPer48Minutes'
p1111
S'.090'
p1112
sS'_stealPercentage'
p1113
S'1.2'
p1114
sS'_usagePercentage'
p1115
g3
sS'_totalReboundsPercentage'
p1116
S'13.4'
p1117
sS'_defensiveBoxPlusMinus'
p1118
S'-2.3'
p1119
sg19
S'SF'
p1120
sS'_valueOverReplacementPlayer'
p1121
S'-0.3'
p1122
sS'_trueShootingPercentage'
p1123
S'.511'
p1124
sS'_defensiveReboundPercentage'
p1125
S'16.1'
p1126
sS'_freeThrowsAttempRate'
p1127
S'.217'
p1128
sS'_threePointsAttempRate'
p1129
g3
sg25
S'NBA'
p1130
sS'_offensiveBoxPlusMinues'
p1131
S'-1.3'
p1132
sS'_assistPercentage'
p1133
S'5.3'
p1134
sS'_defensiveWinShares'
p1135
S'0.4'
p1136
sg37
S'23'
p1137
sg39
S'MIL'
p1138
sg41
S'60'
p1139
sS'_blockPercentage'
p1140
S'1.4'
p1141
sS'_playerEfficiencyRating'
p1142
S'14.8'
p1143
sS'_offensiveWinShares'
p1144
S'0.8'
p1145
sg60
S'648'
p1146
sS'_boxPlusMinus'
p1147
S'-3.6'
p1148
sg53
S'1976-77'
p1149
sS'_winShares'
p1150
S'1.2'
p1151
sba(isrc.gp1.models.Advanced
Advanced
p1152
(dp1153
g1108
S'9.6'
p1154
sg1110
S'16.4'
p1155
sg1111
S'.123'
p1156
sg1113
S'1.2'
p1157
sg1115
S'20.3'
p1158
sg1116
S'13.4'
p1159
sg1118
S'-0.5'
p1160
sg19
S'SF'
p1161
sg1121
S'1.0'
p1162
sg1123
S'.568'
p1163
sg1125
S'17.4'
p1164
sg1127
S'.226'
p1165
sg1129
g3
sg25
S'NBA'
p1166
sg1131
S'1.0'
p1167
sg1133
S'11.4'
p1168
sg1135
S'1.3'
p1169
sg37
S'24'
p1170
sg39
S'MIL'
p1171
sg41
S'82'
p1172
sg1140
S'1.8'
p1173
sg1142
S'17.4'
p1174
sg1144
S'2.7'
p1175
sg60
S'1552'
p1176
sg1147
S'0.4'
p1177
sg53
S'1977-78'
p1178
sg1150
S'4.0'
p1179
sba(isrc.gp1.models.Advanced
Advanced
p1180
(dp1181
g1108
S'9.7'
p1182
sg1110
S'14.0'
p1183
sg1111
S'.124'
p1184
sg1113
S'1.2'
p1185
sg1115
S'20.3'
p1186
sg1116
S'12.5'
p1187
sg1118
S'0.8'
p1188
sg19
S'SF'
p1189
sg1121
S'3.2'
p1190
sg1123
S'.540'
p1191
sg1125
S'15.3'
p1192
sg1127
S'.209'
p1193
sg1129
g3
sg25
S'NBA'
p1194
sg1131
S'1.9'
p1195
sg1133
S'14.4'
p1196
sg1135
S'2.6'
p1197
sg37
S'25'
p1198
sg39
S'IND'
p1199
sg41
S'81'
p1200
sg1140
S'1.5'
p1201
sg1142
S'17.6'
p1202
sg1144
S'4.3'
p1203
sg60
S'2696'
p1204
sg1147
S'2.7'
p1205
sg53
S'1978-79'
p1206
sg1150
S'7.0'
p1207
sba(isrc.gp1.models.Advanced
Advanced
p1208
(dp1209
g1108
S'11.3'
p1210
sg1110
S'14.8'
p1211
sg1111
S'.105'
p1212
sg1113
S'1.4'
p1213
sg1115
S'23.4'
p1214
sg1116
S'13.1'
p1215
sg1118
S'-0.5'
p1216
sg19
S'SF'
p1217
sg1121
S'1.8'
p1218
sg1123
S'.536'
p1219
sg1125
S'14.9'
p1220
sg1127
S'.239'
p1221
sg1129
S'.005'
p1222
sg25
S'NBA'
p1223
sg1131
S'1.4'
p1224
sg1133
S'13.9'
p1225
sg1135
S'2.0'
p1226
sg37
S'26'
p1227
sg39
S'TOT'
p1228
sg41
S'78'
p1229
sg1140
S'1.4'
p1230
sg1142
S'18.0'
p1231
sg1144
S'3.3'
p1232
sg60
S'2401'
p1233
sg1147
S'1.0'
p1234
sg53
S'1979-80'
p1235
sg1150
S'5.3'
p1236
sba(isrc.gp1.models.Advanced
Advanced
p1237
(dp1238
g1108
S'11.0'
p1239
sg1110
S'14.2'
p1240
sg1111
S'.114'
p1241
sg1113
S'1.4'
p1242
sg1115
S'22.2'
p1243
sg1116
S'12.9'
p1244
sg1118
S'-0.7'
p1245
sg19
S'SF'
p1246
sg1121
S'1.0'
p1247
sg1123
S'.539'
p1248
sg1125
S'14.9'
p1249
sg1127
S'.204'
p1250
sg1129
S'.004'
p1251
sg25
S'NBA'
p1252
sg1131
S'1.3'
p1253
sg1133
S'13.5'
p1254
sg1135
S'1.3'
p1255
sg37
S'26'
p1256
sg39
S'IND'
p1257
sg41
S'54'
p1258
sg1140
S'1.2'
p1259
sg1142
S'17.7'
p1260
sg1144
S'2.4'
p1261
sg60
S'1526'
p1262
sg1147
S'0.6'
p1263
sg53
S'1979-80'
p1264
sg1150
S'3.6'
p1265
sba(isrc.gp1.models.Advanced
Advanced
p1266
(dp1267
g1108
S'11.9'
p1268
sg1110
S'15.7'
p1269
sg1111
S'.089'
p1270
sg1113
S'1.5'
p1271
sg1115
S'25.6'
p1272
sg1116
S'13.4'
p1273
sg1118
S'0.0'
p1274
sg19
S'SF'
p1275
sg1121
S'0.8'
p1276
sg1123
S'.531'
p1277
sg1125
S'15.0'
p1278
sg1127
S'.295'
p1279
sg1129
S'.007'
p1280
sg25
S'NBA'
p1281
sg1131
S'1.6'
p1282
sg1133
S'14.7'
p1283
sg1135
S'0.7'
p1284
sg37
S'26'
p1285
sg39
S'DEN'
p1286
sg41
S'24'
p1287
sg1140
S'1.8'
p1288
sg1142
S'18.5'
p1289
sg1144
S'0.9'
p1290
sg60
S'875'
p1291
sg1147
S'1.6'
p1292
sg53
S'1979-80'
p1293
sg1150
S'1.6'
p1294
sba(isrc.gp1.models.Advanced
Advanced
p1295
(dp1296
g1108
S'8.8'
p1297
sg1110
S'12.1'
p1298
sg1111
S'.129'
p1299
sg1113
S'1.5'
p1300
sg1115
S'24.0'
p1301
sg1116
S'10.7'
p1302
sg1118
S'-0.3'
p1303
sg19
S'SF'
p1304
sg1121
S'3.9'
p1305
sg1123
S'.549'
p1306
sg1125
S'12.6'
p1307
sg1127
S'.295'
p1308
sg1129
S'.003'
p1309
sg25
S'NBA'
p1310
sg1131
S'3.3'
p1311
sg1133
S'13.4'
p1312
sg1135
S'1.6'
p1313
sg37
S'27'
p1314
sg39
S'DEN'
p1315
sg41
S'81'
p1316
sg1140
S'1.6'
p1317
sg1142
S'19.7'
p1318
sg1144
S'6.7'
p1319
sg60
S'3093'
p1320
sg1147
S'3.0'
p1321
sg53
S'1980-81'
p1322
sg1150
S'8.3'
p1323
sba(isrc.gp1.models.Advanced
Advanced
p1324
(dp1325
g1108
S'7.7'
p1326
sg1110
S'13.0'
p1327
sg1111
S'.152'
p1328
sg1113
S'1.3'
p1329
sg1115
S'25.3'
p1330
sg1116
S'9.9'
p1331
sg1118
S'-0.8'
p1332
sg19
S'SF'
p1333
sg1121
S'4.6'
p1334
sg1123
S'.596'
p1335
sg1125
S'12.0'
p1336
sg1127
S'.285'
p1337
sg1129
S'.005'
p1338
sg25
S'NBA'
p1339
sg1131
S'4.9'
p1340
sg1133
S'19.9'
p1341
sg1135
S'0.6'
p1342
sg37
S'28'
p1343
sg39
S'DEN'
p1344
sg41
S'82'
p1345
sg1140
S'2.0'
p1346
sg1142
S'22.2'
p1347
sg1144
S'8.9'
p1348
sg60
S'3015'
p1349
sg1147
S'4.1'
p1350
sg53
S'1981-82'
p1351
sg1150
S'9.5'
p1352
sba(isrc.gp1.models.Advanced
Advanced
p1353
(dp1354
g1108
S'8.9'
p1355
sg1110
S'11.3'
p1356
sg1111
S'.166'
p1357
sg1113
S'1.7'
p1358
sg1115
S'28.9'
p1359
sg1116
S'10.2'
p1360
sg1118
S'-0.6'
p1361
sg19
S'SF'
p1362
sg1121
S'5.0'
p1363
sg1123
S'.561'
p1364
sg1125
S'11.5'
p1365
sg1127
S'.264'
p1366
sg1129
S'.006'
p1367
sg25
S'NBA'
p1368
sg1131
S'5.3'
p1369
sg1133
S'19.5'
p1370
sg1135
S'1.6'
p1371
sg37
S'29'
p1372
sg39
S'DEN'
p1373
sg41
S'82'
p1374
sg1140
S'2.1'
p1375
sg1142
S'24.1'
p1376
sg1144
S'8.7'
p1377
sg60
S'2988'
p1378
sg1147
S'4.7'
p1379
sg53
S'1982-83'
p1380
sg1150
S'10.3'
p1381
sba(isrc.gp1.models.Advanced
Advanced
p1382
(dp1383
g1108
S'7.7'
p1384
sg1110
S'10.5'
p1385
sg1111
S'.136'
p1386
sg1113
S'1.3'
p1387
sg1115
S'27.9'
p1388
sg1116
S'8.5'
p1389
sg1118
S'-1.4'
p1390
sg19
S'SF'
p1391
sg1121
S'3.9'
p1392
sg1123
S'.570'
p1393
sg1125
S'9.3'
p1394
sg1127
S'.249'
p1395
sg1129
S'.004'
p1396
sg25
S'NBA'
p1397
sg1131
S'4.7'
p1398
sg1133
S'20.9'
p1399
sg1135
S'1.0'
p1400
sg37
S'30'
p1401
sg39
S'DEN'
p1402
sg41
S'82'
p1403
sg1140
S'1.7'
p1404
sg1142
S'22.2'
p1405
sg1144
S'7.2'
p1406
sg60
S'2870'
p1407
sg1147
S'3.3'
p1408
sg53
S'1983-84'
p1409
sg1150
S'8.2'
p1410
sba(isrc.gp1.models.Advanced
Advanced
p1411
(dp1412
g1108
S'7.0'
p1413
sg1110
S'11.1'
p1414
sg1111
S'.146'
p1415
sg1113
S'1.5'
p1416
sg1115
S'29.3'
p1417
sg1116
S'8.3'
p1418
sg1118
S'-1.6'
p1419
sg19
S'SF'
p1420
sg1121
S'3.2'
p1421
sg1123
S'.561'
p1422
sg1125
S'9.9'
p1423
sg1127
S'.255'
p1424
sg1129
S'.003'
p1425
sg25
S'NBA'
p1426
sg1131
S'4.0'
p1427
sg1133
S'17.9'
p1428
sg1135
S'2.1'
p1429
sg37
S'31'
p1430
sg39
S'DEN'
p1431
sg41
S'81'
p1432
sg1140
S'0.9'
p1433
sg1142
S'21.6'
p1434
sg1144
S'6.8'
p1435
sg60
S'2924'
p1436
sg1147
S'2.4'
p1437
sg53
S'1984-85'
p1438
sg1150
S'8.9'
p1439
sba(isrc.gp1.models.Advanced
Advanced
p1440
(dp1441
g1108
S'6.3'
p1442
sg1110
S'10.4'
p1443
sg1111
S'.156'
p1444
sg1113
S'1.1'
p1445
sg1115
S'30.5'
p1446
sg1116
S'7.0'
p1447
sg1118
S'-2.0'
p1448
sg19
S'SF'
p1449
sg1121
S'3.2'
p1450
sg1123
S'.562'
p1451
sg1125
S'7.7'
p1452
sg1127
S'.314'
p1453
sg1129
S'.003'
p1454
sg25
S'NBA'
p1455
sg1131
S'4.1'
p1456
sg1133
S'17.0'
p1457
sg1135
S'2.3'
p1458
sg37
S'32'
p1459
sg39
S'DEN'
p1460
sg41
S'81'
p1461
sg1140
S'0.5'
p1462
sg1142
S'21.7'
p1463
sg1144
S'7.6'
p1464
sg60
S'3024'
p1465
sg1147
S'2.1'
p1466
sg53
S'1985-86'
p1467
sg1150
S'9.8'
p1468
sba(isrc.gp1.models.Advanced
Advanced
p1469
(dp1470
g1108
S'4.7'
p1471
sg1110
S'9.1'
p1472
sg1111
S'.126'
p1473
sg1113
S'1.1'
p1474
sg1115
S'29.2'
p1475
sg1116
S'5.8'
p1476
sg1118
S'-2.8'
p1477
sg19
S'SF'
p1478
sg1121
S'2.3'
p1479
sg1123
S'.549'
p1480
sg1125
S'7.2'
p1481
sg1127
S'.254'
p1482
sg1129
S'.008'
p1483
sg25
S'NBA'
p1484
sg1131
S'3.8'
p1485
sg1133
S'21.6'
p1486
sg1135
S'1.1'
p1487
sg37
S'33'
p1488
sg39
S'DEN'
p1489
sg41
S'82'
p1490
sg1140
S'0.4'
p1491
sg1142
S'20.5'
p1492
sg1144
S'7.0'
p1493
sg60
S'3085'
p1494
sg1147
S'1.0'
p1495
sg53
S'1986-87'
p1496
sg1150
S'8.1'
p1497
sba(isrc.gp1.models.Advanced
Advanced
p1498
(dp1499
g1108
S'6.0'
p1500
sg1110
S'8.8'
p1501
sg1111
S'.129'
p1502
sg1113
S'1.1'
p1503
sg1115
S'28.4'
p1504
sg1116
S'7.0'
p1505
sg1118
S'-1.6'
p1506
sg19
S'SF'
p1507
sg1121
S'2.5'
p1508
sg1123
S'.535'
p1509
sg1125
S'8.0'
p1510
sg1127
S'.222'
p1511
sg1129
S'.004'
p1512
sg25
S'NBA'
p1513
sg1131
S'3.0'
p1514
sg1133
S'20.5'
p1515
sg1135
S'2.2'
p1516
sg37
S'34'
p1517
sg39
S'DEN'
p1518
sg41
S'80'
p1519
sg1140
S'0.5'
p1520
sg1142
S'19.8'
p1521
sg1144
S'5.3'
p1522
sg60
S'2818'
p1523
sg1147
S'1.4'
p1524
sg53
S'1987-88'
p1525
sg1150
S'7.6'
p1526
sba(isrc.gp1.models.Advanced
Advanced
p1527
(dp1528
g1108
S'4.8'
p1529
sg1110
S'8.8'
p1530
sg1111
S'.110'
p1531
sg1113
S'1.0'
p1532
sg1115
S'28.8'
p1533
sg1116
S'5.6'
p1534
sg1118
S'-2.7'
p1535
sg19
S'SF'
p1536
sg1121
S'1.3'
p1537
sg1123
S'.531'
p1538
sg1125
S'6.5'
p1539
sg1127
S'.201'
p1540
sg1129
S'.004'
p1541
sg25
S'NBA'
p1542
sg1131
S'2.5'
p1543
sg1133
S'19.7'
p1544
sg1135
S'1.7'
p1545
sg37
S'35'
p1546
sg39
S'DEN'
p1547
sg41
S'82'
p1548
sg1140
S'0.2'
p1549
sg1142
S'19.0'
p1550
sg1144
S'5.1'
p1551
sg60
S'2990'
p1552
sg1147
S'-0.2'
p1553
sg53
S'1988-89'
p1554
sg1150
S'6.8'
p1555
sba(isrc.gp1.models.Advanced
Advanced
p1556
(dp1557
g1108
S'5.3'
p1558
sg1110
S'6.3'
p1559
sg1111
S'.110'
p1560
sg1113
S'1.1'
p1561
sg1115
S'26.0'
p1562
sg1116
S'6.8'
p1563
sg1118
S'-1.7'
p1564
sg19
S'SF'
p1565
sg1121
S'1.0'
p1566
sg1123
S'.522'
p1567
sg1125
S'8.4'
p1568
sg1127
S'.142'
p1569
sg1129
S'.004'
p1570
sg25
S'NBA'
p1571
sg1131
S'1.5'
p1572
sg1133
S'15.6'
p1573
sg1135
S'1.7'
p1574
sg37
S'36'
p1575
sg39
S'DEN'
p1576
sg41
S'80'
p1577
sg1140
S'0.6'
p1578
sg1142
S'17.9'
p1579
sg1144
S'3.3'
p1580
sg60
S'2211'
p1581
sg1147
S'-0.2'
p1582
sg53
S'1989-90'
p1583
sg1150
S'5.1'
p1584
sba(isrc.gp1.models.Advanced
Advanced
p1585
(dp1586
g1108
S'7.0'
p1587
sg1110
S'11.3'
p1588
sg1111
S'.017'
p1589
sg1113
S'1.2'
p1590
sg1115
S'22.7'
p1591
sg1116
S'8.3'
p1592
sg1118
S'-1.7'
p1593
sg19
S'SF'
p1594
sg1121
S'-1.0'
p1595
sg1123
S'.480'
p1596
sg1125
S'9.5'
p1597
sg1127
S'.191'
p1598
sg1129
S'.001'
p1599
sg25
S'NBA'
p1600
sg1131
S'-2.6'
p1601
sg1133
S'9.5'
p1602
sg1135
S'0.8'
p1603
sg37
S'37'
p1604
sg39
S'DAL'
p1605
sg41
S'79'
p1606
sg1140
S'0.9'
p1607
sg1142
S'12.2'
p1608
sg1144
S'-0.2'
p1609
sg60
S'1748'
p1610
sg1147
S'-4.3'
p1611
sg53
S'1990-91'
p1612
sg1150
S'0.6'
p1613
sbasS'_per36Minutes'
p1614
(lp1615
(isrc.gp1.models.Per36Minutes
Per36Minutes
p1616
(dp1617
g8
S'3.8'
p1618
sg10
g3
sg11
S'.477'
p1619
sg13
S'1.4'
p1620
sg15
g3
sg16
g3
sg17
S'17.2'
p1621
sg19
S'SF'
p1622
sg21
S'.767'
p1623
sg25
S'NBA'
p1624
sg27
S'0.9'
p1625
sg29
S'15.4'
p1626
sg31
S'4.3'
p1627
sg33
S'3.3'
p1628
sg35
S'9.3'
p1629
sg37
S'23'
p1630
sg39
S'MIL'
p1631
sg41
S'60'
p1632
sg43
S'1.0'
p1633
sg45
S'7.3'
p1634
sg47
S'2.6'
p1635
sg49
S'15.4'
p1636
sg51
S'5.6'
p1637
sg53
S'1976-77'
p1638
sg55
S'7.3'
p1639
sg57
g3
sg58
S'.477'
p1640
sg60
S'648'
p1641
sg62
g3
sba(isrc.gp1.models.Per36Minutes
Per36Minutes
p1642
(dp1643
g8
S'3.3'
p1644
sg10
g3
sg11
S'.542'
p1645
sg13
S'3.0'
p1646
sg15
g3
sg16
g3
sg17
S'18.3'
p1647
sg19
S'SF'
p1648
sg21
S'.727'
p1649
sg25
S'NBA'
p1650
sg27
S'1.0'
p1651
sg29
S'14.7'
p1652
sg31
S'4.1'
p1653
sg33
S'3.3'
p1654
sg35
S'9.2'
p1655
sg37
S'24'
p1656
sg39
S'MIL'
p1657
sg41
S'82'
p1658
sg43
S'1.3'
p1659
sg45
S'8.0'
p1660
sg47
S'2.4'
p1661
sg49
S'14.7'
p1662
sg51
S'5.8'
p1663
sg53
S'1977-78'
p1664
sg55
S'8.0'
p1665
sg57
S'3.2'
p1666
sg58
S'.542'
p1667
sg60
S'1552'
p1668
sg62
g3
sba(isrc.gp1.models.Per36Minutes
Per36Minutes
p1669
(dp1670
g8
S'3.4'
p1671
sg10
g3
sg11
S'.511'
p1672
sg13
S'3.6'
p1673
sg15
g3
sg16
g3
sg17
S'17.3'
p1674
sg19
S'SF'
p1675
sg21
S'.752'
p1676
sg25
S'NBA'
p1677
sg27
S'0.9'
p1678
sg29
S'14.7'
p1679
sg31
S'2.9'
p1680
sg33
S'3.1'
p1681
sg35
S'8.7'
p1682
sg37
S'25'
p1683
sg39
S'IND'
p1684
sg41
S'81'
p1685
sg43
S'1.0'
p1686
sg45
S'7.5'
p1687
sg47
S'2.3'
p1688
sg49
S'14.7'
p1689
sg51
S'5.4'
p1690
sg53
S'1978-79'
p1691
sg55
S'7.5'
p1692
sg57
S'2.6'
p1693
sg58
S'.511'
p1694
sg60
S'2696'
p1695
sg62
g3
sba(isrc.gp1.models.Per36Minutes
Per36Minutes
p1696
(dp1697
g8
S'4.0'
p1698
sg10
S'0.1'
p1699
sg11
S'.497'
p1700
sg13
S'3.4'
p1701
sg15
S'.333'
p1702
sg16
S'0.0'
p1703
sg17
S'19.8'
p1704
sg19
S'SF'
p1705
sg21
S'.789'
p1706
sg25
S'NBA'
p1707
sg27
S'1.1'
p1708
sg29
S'16.7'
p1709
sg31
S'3.1'
p1710
sg33
S'4.0'
p1711
sg35
S'9.1'
p1712
sg37
S'26'
p1713
sg39
S'TOT'
p1714
sg41
S'78'
p1715
sg43
S'0.9'
p1716
sg45
S'8.3'
p1717
sg47
S'3.1'
p1718
sg49
S'16.6'
p1719
sg51
S'5.0'
p1720
sg53
S'1979-80'
p1721
sg55
S'8.3'
p1722
sg57
S'3.2'
p1723
sg58
S'.498'
p1724
sg60
S'2401'
p1725
sg62
g3
sba(isrc.gp1.models.Per36Minutes
Per36Minutes
p1726
(dp1727
g8
S'3.9'
p1728
sg10
S'0.1'
p1729
sg11
S'.504'
p1730
sg13
S'3.3'
p1731
sg15
S'.000'
p1732
sg16
S'0.0'
p1733
sg17
S'19.0'
p1734
sg19
S'SF'
p1735
sg21
S'.814'
p1736
sg25
S'NBA'
p1737
sg27
S'1.1'
p1738
sg29
S'16.2'
p1739
sg31
S'3.0'
p1740
sg33
S'3.3'
p1741
sg35
S'9.0'
p1742
sg37
S'26'
p1743
sg39
S'IND'
p1744
sg41
S'54'
p1745
sg43
S'0.8'
p1746
sg45
S'8.2'
p1747
sg47
S'2.7'
p1748
sg49
S'16.1'
p1749
sg51
S'5.0'
p1750
sg53
S'1979-80'
p1751
sg55
S'8.2'
p1752
sg57
S'2.9'
p1753
sg58
S'.507'
p1754
sg60
S'1526'
p1755
sg62
g3
sba(isrc.gp1.models.Per36Minutes
Per36Minutes
p1756
(dp1757
g8
S'4.2'
p1758
sg10
S'0.1'
p1759
sg11
S'.485'
p1760
sg13
S'3.4'
p1761
sg15
S'.667'
p1762
sg16
S'0.1'
p1763
sg17
S'21.1'
p1764
sg19
S'SF'
p1765
sg21
S'.762'
p1766
sg25
S'NBA'
p1767
sg27
S'1.2'
p1768
sg29
S'17.6'
p1769
sg31
S'3.2'
p1770
sg33
S'5.2'
p1771
sg35
S'9.3'
p1772
sg37
S'26'
p1773
sg39
S'DEN'
p1774
sg41
S'24'
p1775
sg43
S'1.2'
p1776
sg45
S'8.4'
p1777
sg47
S'3.9'
p1778
sg49
S'17.4'
p1779
sg51
S'5.1'
p1780
sg53
S'1979-80'
p1781
sg55
S'8.5'
p1782
sg57
S'3.7'
p1783
sg58
S'.483'
p1784
sg60
S'875'
p1785
sg62
g3
sba(isrc.gp1.models.Per36Minutes
Per36Minutes
p1786
(dp1787
g8
S'3.2'
p1788
sg10
S'0.1'
p1789
sg11
S'.494'
p1790
sg13
S'3.4'
p1791
sg15
S'.600'
p1792
sg16
S'0.0'
p1793
sg17
S'22.5'
p1794
sg19
S'SF'
p1795
sg21
S'.850'
p1796
sg25
S'NBA'
p1797
sg27
S'1.2'
p1798
sg29
S'18.1'
p1799
sg31
S'3.0'
p1800
sg33
S'5.3'
p1801
sg35
S'7.5'
p1802
sg37
S'27'
p1803
sg39
S'DEN'
p1804
sg41
S'81'
p1805
sg43
S'1.2'
p1806
sg45
S'8.9'
p1807
sg47
S'4.5'
p1808
sg49
S'18.0'
p1809
sg51
S'4.3'
p1810
sg53
S'1980-81'
p1811
sg55
S'8.9'
p1812
sg57
S'2.8'
p1813
sg58
S'.494'
p1814
sg60
S'3093'
p1815
sg62
g3
sba(isrc.gp1.models.Per36Minutes
Per36Minutes
p1816
(dp1817
g8
S'2.5'
p1818
sg10
S'0.1'
p1819
sg11
S'.551'
p1820
sg13
S'5.2'
p1821
sg15
S'.000'
p1822
sg16
S'0.0'
p1823
sg17
S'24.9'
p1824
sg19
S'SF'
p1825
sg21
S'.840'
p1826
sg25
S'NBA'
p1827
sg27
S'1.0'
p1828
sg29
S'18.5'
p1829
sg31
S'3.1'
p1830
sg33
S'5.3'
p1831
sg35
S'6.7'
p1832
sg37
S'28'
p1833
sg39
S'DEN'
p1834
sg41
S'82'
p1835
sg43
S'1.4'
p1836
sg45
S'10.2'
p1837
sg47
S'4.4'
p1838
sg49
S'18.4'
p1839
sg51
S'4.2'
p1840
sg53
S'1981-82'
p1841
sg55
S'10.2'
p1842
sg57
S'3.1'
p1843
sg58
S'.553'
p1844
sg60
S'3015'
p1845
sg62
S'82'
p1846
sba(isrc.gp1.models.Per36Minutes
Per36Minutes
p1847
(dp1848
g8
S'3.2'
p1849
sg10
S'0.1'
p1850
sg11
S'.516'
p1851
sg13
S'4.8'
p1852
sg15
S'.167'
p1853
sg16
S'0.0'
p1854
sg17
S'28.0'
p1855
sg19
S'SF'
p1856
sg21
S'.829'
p1857
sg25
S'NBA'
p1858
sg27
S'1.4'
p1859
sg29
S'22.4'
p1860
sg31
S'2.8'
p1861
sg33
S'5.9'
p1862
sg35
S'7.2'
p1863
sg37
S'29'
p1864
sg39
S'DEN'
p1865
sg41
S'82'
p1866
sg43
S'1.5'
p1867
sg45
S'11.5'
p1868
sg47
S'4.9'
p1869
sg49
S'22.2'
p1870
sg51
S'4.1'
p1871
sg53
S'1982-83'
p1872
sg55
S'11.6'
p1873
sg57
S'3.2'
p1874
sg58
S'.519'
p1875
sg60
S'2988'
p1876
sg62
S'82'
p1877
sba(isrc.gp1.models.Per36Minutes
Per36Minutes
p1878
(dp1879
g8
S'2.7'
p1880
sg10
S'0.1'
p1881
sg11
S'.529'
p1882
sg13
S'5.1'
p1883
sg15
S'.143'
p1884
sg16
S'0.0'
p1885
sg17
S'27.2'
p1886
sg19
S'SF'
p1887
sg21
S'.824'
p1888
sg25
S'NBA'
p1889
sg27
S'1.0'
p1890
sg29
S'21.5'
p1891
sg31
S'3.2'
p1892
sg33
S'5.4'
p1893
sg35
S'5.8'
p1894
sg37
S'30'
p1895
sg39
S'DEN'
p1896
sg41
S'82'
p1897
sg43
S'1.2'
p1898
sg45
S'11.4'
p1899
sg47
S'4.4'
p1900
sg49
S'21.4'
p1901
sg51
S'3.1'
p1902
sg53
S'1983-84'
p1903
sg55
S'11.4'
p1904
sg57
S'2.8'
p1905
sg58
S'.531'
p1906
sg60
S'2870'
p1907
sg62
S'77'
p1908
sba(isrc.gp1.models.Per36Minutes
Per36Minutes
p1909
(dp1910
g8
S'2.5'
p1911
sg10
S'0.1'
p1912
sg11
S'.518'
p1913
sg13
S'4.2'
p1914
sg15
S'.200'
p1915
sg16
S'0.0'
p1916
sg17
S'27.8'
p1917
sg19
S'SF'
p1918
sg21
S'.829'
p1919
sg25
S'NBA'
p1920
sg27
S'1.2'
p1921
sg29
S'22.3'
p1922
sg31
S'3.2'
p1923
sg33
S'5.7'
p1924
sg35
S'5.6'
p1925
sg37
S'31'
p1926
sg39
S'DEN'
p1927
sg41
S'81'
p1928
sg43
S'0.6'
p1929
sg45
S'11.5'
p1930
sg47
S'4.7'
p1931
sg49
S'22.2'
p1932
sg51
S'3.1'
p1933
sg53
S'1984-85'
p1934
sg55
S'11.6'
p1935
sg57
S'3.1'
p1936
sg58
S'.519'
p1937
sg60
S'2924'
p1938
sg62
S'81'
p1939
sba(isrc.gp1.models.Per36Minutes
Per36Minutes
p1940
(dp1941
g8
S'2.3'
p1942
sg10
S'0.1'
p1943
sg11
S'.504'
p1944
sg13
S'3.8'
p1945
sg15
S'.200'
p1946
sg16
S'0.0'
p1947
sg17
S'28.7'
p1948
sg19
S'SF'
p1949
sg21
S'.862'
p1950
sg25
S'NBA'
p1951
sg27
S'0.9'
p1952
sg29
S'22.5'
p1953
sg31
S'2.8'
p1954
sg33
S'7.1'
p1955
sg35
S'4.8'
p1956
sg37
S'32'
p1957
sg39
S'DEN'
p1958
sg41
S'81'
p1959
sg43
S'0.3'
p1960
sg45
S'11.3'
p1961
sg47
S'6.1'
p1962
sg49
S'22.4'
p1963
sg51
S'2.5'
p1964
sg53
S'1985-86'
p1965
sg55
S'11.3'
p1966
sg57
S'3.0'
p1967
sg58
S'.505'
p1968
sg60
S'3024'
p1969
sg62
S'81'
p1970
sba(isrc.gp1.models.Per36Minutes
Per36Minutes
p1971
(dp1972
g8
S'1.7'
p1973
sg10
S'0.2'
p1974
sg11
S'.503'
p1975
sg13
S'4.9'
p1976
sg15
S'.267'
p1977
sg16
S'0.0'
p1978
sg17
S'27.4'
p1979
sg19
S'SF'
p1980
sg21
S'.844'
p1981
sg25
S'NBA'
p1982
sg27
S'0.9'
p1983
sg29
S'22.4'
p1984
sg31
S'2.5'
p1985
sg33
S'5.7'
p1986
sg35
S'4.0'
p1987
sg37
S'33'
p1988
sg39
S'DEN'
p1989
sg41
S'82'
p1990
sg43
S'0.2'
p1991
sg45
S'11.2'
p1992
sg47
S'4.8'
p1993
sg49
S'22.2'
p1994
sg51
S'2.3'
p1995
sg53
S'1986-87'
p1996
sg55
S'11.3'
p1997
sg57
S'2.5'
p1998
sg58
S'.504'
p1999
sg60
S'3085'
p2000
sg62
S'82'
p2001
sba(isrc.gp1.models.Per36Minutes
Per36Minutes
p2002
(dp2003
g8
S'2.1'
p2004
sg10
S'0.1'
p2005
sg11
S'.495'
p2006
sg13
S'4.8'
p2007
sg15
S'.000'
p2008
sg16
S'0.0'
p2009
sg17
S'25.6'
p2010
sg19
S'SF'
p2011
sg21
S'.828'
p2012
sg25
S'NBA'
p2013
sg27
S'0.9'
p2014
sg29
S'21.8'
p2015
sg31
S'2.5'
p2016
sg33
S'4.8'
p2017
sg35
S'4.8'
p2018
sg37
S'34'
p2019
sg39
S'DEN'
p2020
sg41
S'80'
p2021
sg43
S'0.3'
p2022
sg45
S'10.8'
p2023
sg47
S'4.0'
p2024
sg49
S'21.7'
p2025
sg51
S'2.6'
p2026
sg53
S'1987-88'
p2027
sg55
S'10.8'
p2028
sg57
S'2.3'
p2029
sg58
S'.496'
p2030
sg60
S'2818'
p2031
sg62
S'80'
p2032
sba(isrc.gp1.models.Per36Minutes
Per36Minutes
p2033
(dp2034
g8
S'1.8'
p2035
sg10
S'0.1'
p2036
sg11
S'.491'
p2037
sg13
S'4.6'
p2038
sg15
S'.250'
p2039
sg16
S'0.0'
p2040
sg17
S'26.2'
p2041
sg19
S'SF'
p2042
sg21
S'.858'
p2043
sg25
S'NBA'
p2044
sg27
S'0.8'
p2045
sg29
S'22.6'
p2046
sg31
S'2.1'
p2047
sg33
S'4.6'
p2048
sg35
S'3.9'
p2049
sg37
S'35'
p2050
sg39
S'DEN'
p2051
sg41
S'82'
p2052
sg43
S'0.1'
p2053
sg45
S'11.1'
p2054
sg47
S'3.9'
p2055
sg49
S'22.6'
p2056
sg51
S'2.1'
p2057
sg53
S'1988-89'
p2058
sg55
S'11.1'
p2059
sg57
S'2.4'
p2060
sg58
S'.492'
p2061
sg60
S'2990'
p2062
sg62
S'82'
p2063
sba(isrc.gp1.models.Per36Minutes
Per36Minutes
p2064
(dp2065
g8
S'1.9'
p2066
sg10
S'0.1'
p2067
sg11
S'.491'
p2068
sg13
S'3.7'
p2069
sg15
S'.400'
p2070
sg16
S'0.0'
p2071
sg17
S'23.3'
p2072
sg19
S'SF'
p2073
sg21
S'.880'
p2074
sg25
S'NBA'
p2075
sg27
S'0.8'
p2076
sg29
S'21.1'
p2077
sg31
S'2.1'
p2078
sg33
S'3.0'
p2079
sg35
S'4.7'
p2080
sg37
S'36'
p2081
sg39
S'DEN'
p2082
sg41
S'80'
p2083
sg43
S'0.4'
p2084
sg45
S'10.3'
p2085
sg47
S'2.6'
p2086
sg49
S'21.0'
p2087
sg51
S'2.7'
p2088
sg53
S'1989-90'
p2089
sg55
S'10.3'
p2090
sg57
S'1.5'
p2091
sg58
S'.491'
p2092
sg60
S'2211'
p2093
sg62
S'80'
p2094
sba(isrc.gp1.models.Per36Minutes
Per36Minutes
p2095
(dp2096
g8
S'2.2'
p2097
sg10
S'0.0'
p2098
sg11
S'.439'
p2099
sg13
S'2.2'
p2100
sg15
S'.000'
p2101
sg16
S'0.0'
p2102
sg17
S'15.7'
p2103
sg19
S'SF'
p2104
sg21
S'.850'
p2105
sg25
S'NBA'
p2106
sg27
S'0.8'
p2107
sg29
S'15.1'
p2108
sg31
S'2.9'
p2109
sg33
S'2.9'
p2110
sg35
S'5.2'
p2111
sg37
S'37'
p2112
sg39
S'DAL'
p2113
sg41
S'79'
p2114
sg43
S'0.5'
p2115
sg45
S'6.6'
p2116
sg47
S'2.5'
p2117
sg49
S'15.1'
p2118
sg51
S'3.0'
p2119
sg53
S'1990-91'
p2120
sg55
S'6.6'
p2121
sg57
S'2.1'
p2122
sg58
S'.439'
p2123
sg60
S'1748'
p2124
sg62
S'26'
p2125
sbasS'_fromYear'
p2126
S'1977'
p2127
sS'_url'
p2128
S'http://www.basketball-reference.com/players/e/englial01.html'
p2129
sS'_perGame'
p2130
(isrc.gp1.models.PerGame
PerGame
p2131
(dp2132
g8
S'1.4'
p2133
sg10
S'0.0'
p2134
sg11
S'.439'
p2135
sS'_effectiveFieldGalPercentage'
p2136
S'.439'
p2137
sg13
S'1.3'
p2138
sg15
S'.000'
p2139
sg16
S'0.0'
p2140
sg17
S'9.7'
p2141
sg19
S'SF'
p2142
sg21
S'.850'
p2143
sg25
S'NBA'
p2144
sg27
S'0.5'
p2145
sg31
S'1.8'
p2146
sS'_fieldGoalsttempted'
p2147
S'9.3'
p2148
sg33
S'1.8'
p2149
sg35
S'3.2'
p2150
sg37
S'37'
p2151
sg39
S'DAL'
p2152
sg41
S'79'
p2153
sg43
S'0.3'
p2154
sg45
S'4.1'
p2155
sg47
S'1.5'
p2156
sg49
S'9.3'
p2157
sg51
S'1.8'
p2158
sg53
S'1990-91'
p2159
sg55
S'4.1'
p2160
sg57
S'1.3'
p2161
sg58
S'.439'
p2162
sg60
S'22.1'
p2163
sg62
S'26'
p2164
sbsS'_weight'
p2165
S'190'
p2166
sS'_dob'
p2167
S'5-1-1954'
p2168
sS'_salary'
p2169
(lp2170
(isrc.gp1.models.Salary
Salary
p2171
(dp2172
g39
S'Denver Nuggets'
p2173
sg25
S'NBA'
p2174
sg2169
S'$825,000'
p2175
sg53
S'1985-86'
p2176
sba(isrc.gp1.models.Salary
Salary
p2177
(dp2178
g39
S'Denver Nuggets'
p2179
sg25
S'NBA'
p2180
sg2169
S'$1,500,000'
p2181
sg53
S'1987-88'
p2182
sba(isrc.gp1.models.Salary
Salary
p2183
(dp2184
g39
S'Denver Nuggets'
p2185
sg25
S'NBA'
p2186
sg2169
S'$1,650,000'
p2187
sg53
S'1988-89'
p2188
sba(isrc.gp1.models.Salary
Salary
p2189
(dp2190
g39
S'Dallas Mavericks'
p2191
sg25
S'NBA'
p2192
sg2169
S'$1,500,000'
p2193
sg53
S'1990-91'
p2194
sba(isrc.gp1.models.Salary
Salary
p2195
(dp2196
g39
S'Dallas Mavericks'
p2197
sg25
S'NBA'
p2198
sg2169
S'$500,000'
p2199
sg53
S'1991-92'
p2200
sbasg19
S'F'
p2201
sb.