(isrc.gp1.models.Player
Player
p0
(dp1
S'_experience'
p2
S'NA'
p3
sS'_totals'
p4
(lp5
(isrc.gp1.models.Totals
Totals
p6
(dp7
S'_offensiveRebounds'
p8
S'33'
p9
sS'_threePointsAttempted'
p10
S'.451'
p11
sS'_fieldGoalsPercentage'
p12
S'144'
p13
sS'_assist'
p14
S'319'
p15
sS'_threePointsPercentage'
p16
S'.451'
p17
sS'_threePoints'
p18
S'319'
p19
sS'_points'
p20
g3
sS'_position'
p21
S'SG'
p22
sS'_freeThrowsPercentage'
p23
S'101'
p24
sS'_effectiveFieldGoalPercentage'
p25
S'27'
p26
sS'_league'
p27
S'NBA'
p28
sS'_steals'
p29
g3
sS'_fieldGoalsAttempted'
p30
S'.451'
p31
sS'_personalFouls'
p32
g3
sS'_freeThrowsAttempted'
p33
S'88'
p34
sS'_totalRebounds'
p35
S'121'
p36
sS'_age'
p37
S'19'
p38
sS'_team'
p39
S'DET'
p40
sS'_games'
p41
S'66'
p42
sS'_blocks'
p43
g3
sS'_twoPoints'
p44
S'31'
p45
sS'_freeThrows'
p46
S'61'
p47
sS'_twoPointsAttempted'
p48
S'45'
p49
sS'_defensiveRebounds'
p50
S'2'
p51
sS'_season'
p52
S'1974-75'
p53
sS'_fieldGoals'
p54
S'319'
p55
sS'_turnOvers'
p56
g3
sS'_twoPointsPercentage'
p57
S'.689'
p58
sS'_minutesPlayed'
p59
S'144'
p60
sS'_gamesStarted'
p61
S'889'
p62
sba(isrc.gp1.models.Totals
Totals
p63
(dp64
g8
S'137'
p65
sg10
S'.474'
p66
sg12
S'449'
p67
sg14
S'1043'
p68
sg16
S'.474'
p69
sg18
S'947'
p70
sg20
g3
sg21
S'PG'
p71
sg23
S'338'
p72
sg25
S'77'
p73
sg27
S'NBA'
p74
sg29
g3
sg30
S'.474'
p75
sg32
g3
sg33
S'207'
p76
sg35
S'243'
p77
sg37
S'20'
p78
sg39
S'DET'
p79
sg41
S'80'
p80
sg43
g3
sg44
S'145'
p81
sg46
S'130'
p82
sg48
S'180'
p83
sg50
S'11'
p84
sg52
S'1975-76'
p85
sg54
S'947'
p86
sg56
g3
sg57
S'.806'
p87
sg59
S'449'
p88
sg61
S'2267'
p89
sba(isrc.gp1.models.Totals
Totals
p90
(dp91
g8
S'91'
p92
sg10
S'.521'
p93
sg12
S'329'
p94
sg14
S'748'
p95
sg16
S'.521'
p96
sg18
S'631'
p97
sg20
g3
sg21
S'PG'
p98
sg23
S'243'
p99
sg25
S'43'
p100
sg27
S'NBA'
p101
sg29
g3
sg30
S'.521'
p102
sg32
g3
sg33
S'124'
p103
sg35
S'199'
p104
sg37
S'21'
p105
sg39
S'DET'
p106
sg41
S'73'
p107
sg43
g3
sg44
S'90'
p108
sg46
S'81'
p109
sg48
S'114'
p110
sg50
S'14'
p111
sg52
S'1976-77'
p112
sg54
S'631'
p113
sg56
g3
sg57
S'.789'
p114
sg59
S'329'
p115
sg61
S'1586'
p116
sba(isrc.gp1.models.Totals
Totals
p117
(dp118
g8
S'123'
p119
sg10
S'.500'
p120
sg12
S'600'
p121
sg14
S'237'
p122
sg16
S'.500'
p123
sg18
S'1200'
p124
sg20
g3
sg21
S'PG'
p125
sg23
S'356'
p126
sg25
S'90'
p127
sg27
S'NBA'
p128
sg29
S'1414'
p129
sg30
S'.500'
p130
sg32
g3
sg33
S'209'
p131
sg35
S'322'
p132
sg37
S'22'
p133
sg39
S'DET'
p134
sg41
S'76'
p135
sg43
g3
sg44
S'214'
p136
sg46
S'119'
p137
sg48
S'298'
p138
sg50
S'12'
p139
sg52
S'1977-78'
p140
sg54
S'1200'
p141
sg56
g3
sg57
S'.718'
p142
sg59
S'600'
p143
sg61
S'2557'
p144
sba(isrc.gp1.models.Totals
Totals
p145
(dp146
g8
S'87'
p147
sg10
S'.497'
p148
sg12
S'444'
p149
sg14
S'202'
p150
sg16
S'.497'
p151
sg18
S'893'
p152
sg20
g3
sg21
S'PG'
p153
sg23
S'331'
p154
sg25
S'70'
p155
sg27
S'NBA'
p156
sg29
S'1058'
p157
sg30
S'.497'
p158
sg32
g3
sg33
S'162'
p159
sg35
S'235'
p160
sg37
S'23'
p161
sg39
S'TOT'
p162
sg41
S'70'
p163
sg43
g3
sg44
S'170'
p164
sg46
S'92'
p165
sg48
S'237'
p166
sg50
S'12'
p167
sg52
S'1978-79'
p168
sg54
S'893'
p169
sg56
g3
sg57
S'.717'
p170
sg59
S'444'
p171
sg61
S'1979'
p172
sba(isrc.gp1.models.Totals
Totals
p173
(dp174
g8
S'74'
p175
sg10
S'.481'
p176
sg12
S'325'
p177
sg14
S'132'
p178
sg16
S'.481'
p179
sg18
S'676'
p180
sg20
g3
sg21
S'PG'
p181
sg23
S'249'
p182
sg25
S'55'
p183
sg27
S'NBA'
p184
sg29
S'786'
p185
sg30
S'.481'
p186
sg32
g3
sg33
S'125'
p187
sg35
S'166'
p188
sg37
S'23'
p189
sg39
S'NJN'
p190
sg41
S'47'
p191
sg43
g3
sg44
S'136'
p192
sg46
S'70'
p193
sg48
S'183'
p194
sg50
S'10'
p195
sg52
S'1978-79'
p196
sg54
S'676'
p197
sg56
g3
sg57
S'.743'
p198
sg59
S'325'
p199
sg61
S'1434'
p200
sba(isrc.gp1.models.Totals
Totals
p201
(dp202
g8
S'13'
p203
sg10
S'.548'
p204
sg12
S'119'
p205
sg14
S'70'
p206
sg16
S'.548'
p207
sg18
S'217'
p208
sg20
g3
sg21
S'PG'
p209
sg23
S'82'
p210
sg25
S'15'
p211
sg27
S'NBA'
p212
sg29
S'272'
p213
sg30
S'.548'
p214
sg32
g3
sg33
S'37'
p215
sg35
S'69'
p216
sg37
S'23'
p217
sg39
S'PHI'
p218
sg41
S'23'
p219
sg43
g3
sg44
S'34'
p220
sg46
S'22'
p221
sg48
S'54'
p222
sg50
g51
sg52
S'1978-79'
p223
sg54
S'217'
p224
sg56
g3
sg57
S'.630'
p225
sg59
S'119'
p226
sg61
S'545'
p227
sba(isrc.gp1.models.Totals
Totals
p228
(dp229
g8
S'104'
p230
sg10
S'273'
p231
sg12
S'0'
p232
sg14
S'11'
p233
sg16
S'546'
p234
sg18
g232
sg20
g3
sg21
S'SG-PG'
p235
sg23
S'73'
p236
sg25
S'106'
p237
sg27
S'NBA'
p238
sg29
S'155'
p239
sg30
S'.500'
p240
sg32
g3
sg33
S'31'
p241
sg35
S'53'
p242
sg37
S'24'
p243
sg39
S'TOT'
p244
sg41
S'61'
p245
sg43
S'146'
p246
sg44
S'.500'
p247
sg46
S'.783'
p248
sg48
S'.500'
p249
sg50
S'254'
p250
sg52
S'1979-80'
p251
sg54
S'546'
p252
sg56
S'629'
p253
sg57
S'83'
p254
sg59
S'273'
p255
sg61
S'1549'
p256
sba(isrc.gp1.models.Totals
Totals
p257
(dp258
g8
S'7'
p259
sg10
S'14'
p260
sg12
g232
sg14
S'1'
p261
sg16
S'36'
p262
sg18
g232
sg20
g3
sg21
S'PG'
p263
sg23
S'4'
p264
sg25
g51
sg27
S'NBA'
p265
sg29
S'12'
p266
sg30
S'.389'
p267
sg32
g3
sg33
S'3'
p268
sg35
g232
sg37
S'24'
p269
sg39
S'PHI'
p270
sg41
S'6'
p271
sg43
S'11'
p272
sg44
S'.389'
p273
sg46
S'1.000'
p274
sg48
S'.389'
p275
sg50
S'16'
p276
sg52
S'1979-80'
p277
sg54
S'36'
p278
sg56
S'30'
p279
sg57
g51
sg59
S'14'
p280
sg61
S'82'
p281
sba(isrc.gp1.models.Totals
Totals
p282
(dp283
g8
S'97'
p284
sg10
S'259'
p285
sg12
g232
sg14
S'10'
p286
sg16
S'510'
p287
sg18
g232
sg20
g3
sg21
S'SG'
p288
sg23
S'69'
p289
sg25
S'104'
p290
sg27
S'NBA'
p291
sg29
S'143'
p292
sg30
S'.508'
p293
sg32
g3
sg33
S'28'
p294
sg35
S'53'
p295
sg37
S'24'
p296
sg39
S'DET'
p297
sg41
S'55'
p298
sg43
S'135'
p299
sg44
S'.508'
p300
sg46
S'.779'
p301
sg48
S'.508'
p302
sg50
S'238'
p303
sg52
S'1979-80'
p304
sg54
S'510'
p305
sg56
S'599'
p306
sg57
S'81'
p307
sg59
S'259'
p308
sg61
S'1467'
p309
sbasS'_college'
p310
S'University of Arizona'
p311
sS'_toYear'
p312
S'1980'
p313
sS'_height'
p314
S'6-0'
p315
sS'_active'
p316
I00
sS'_shootingHand'
p317
VRight
p318
sS'_name'
p319
S'Eric Money'
p320
sS'_per100Possessions'
p321
(lp322
(isrc.gp1.models.Per100Possession
Per100Possession
p323
(dp324
g8
S'1.8'
p325
sg10
S'.451'
p326
sg12
S'7.7'
p327
sS'_offensiveRating'
p328
g3
sg14
S'17.1'
p329
sg16
S'1.7'
p330
sg18
S'17.1'
p331
sg20
g3
sg21
S'SG'
p332
sS'_defensiveRating'
p333
g3
sg23
S'5.4'
p334
sg27
S'NBA'
p335
sg29
S'102'
p336
sg30
S'.451'
p337
sg32
g3
sg33
S'4.7'
p338
sg35
S'6.5'
p339
sg37
S'19'
p340
sg39
S'DET'
p341
sg41
S'66'
p342
sg43
g3
sg44
S'2.4'
p343
sg46
S'3.3'
p344
sg48
S'.689'
p345
sg50
S'0.1'
p346
sg52
S'1974-75'
p347
sg54
S'17.1'
p348
sg56
g3
sg57
S'1.5'
p349
sg59
S'7.7'
p350
sg61
S'889'
p351
sba(isrc.gp1.models.Per100Possession
Per100Possession
p352
(dp353
g8
S'2.8'
p354
sg10
S'.474'
p355
sg12
S'9.0'
p356
sg328
g3
sg14
S'21.0'
p357
sg16
S'2.9'
p358
sg18
S'19.1'
p359
sg20
g3
sg21
S'PG'
p360
sg333
g3
sg23
S'6.8'
p361
sg27
S'NBA'
p362
sg29
S'101'
p363
sg30
S'.474'
p364
sg32
g3
sg33
S'4.2'
p365
sg35
S'4.9'
p366
sg37
S'20'
p367
sg39
S'DET'
p368
sg41
S'80'
p369
sg43
g3
sg44
S'3.6'
p370
sg46
S'2.6'
p371
sg48
S'.806'
p372
sg50
S'0.2'
p373
sg52
S'1975-76'
p374
sg54
S'19.1'
p375
sg56
g3
sg57
S'1.5'
p376
sg59
S'9.0'
p377
sg61
S'2267'
p378
sba(isrc.gp1.models.Per100Possession
Per100Possession
p379
(dp380
g8
S'2.5'
p381
sg10
S'.521'
p382
sg12
S'9.2'
p383
sg328
g3
sg14
S'20.8'
p384
sg16
S'2.5'
p385
sg18
S'17.6'
p386
sg20
g3
sg21
S'PG'
p387
sg333
g3
sg23
S'6.8'
p388
sg27
S'NBA'
p389
sg29
S'103'
p390
sg30
S'.521'
p391
sg32
g3
sg33
S'3.5'
p392
sg35
S'5.5'
p393
sg37
S'21'
p394
sg39
S'DET'
p395
sg41
S'73'
p396
sg43
g3
sg44
S'3.2'
p397
sg46
S'2.3'
p398
sg48
S'.789'
p399
sg50
S'0.4'
p400
sg52
S'1976-77'
p401
sg54
S'17.6'
p402
sg56
g3
sg57
S'1.2'
p403
sg59
S'9.2'
p404
sg61
S'1586'
p405
sba(isrc.gp1.models.Per100Possession
Per100Possession
p406
(dp407
g8
S'2.1'
p408
sg10
S'.500'
p409
sg12
S'10.5'
p410
sg328
g3
sg14
S'4.1'
p411
sg16
S'3.7'
p412
sg18
S'20.9'
p413
sg20
g3
sg21
S'PG'
p414
sg333
g3
sg23
S'6.2'
p415
sg27
S'NBA'
p416
sg29
S'24.7'
p417
sg30
S'.500'
p418
sg32
g3
sg33
S'3.6'
p419
sg35
S'5.6'
p420
sg37
S'22'
p421
sg39
S'DET'
p422
sg41
S'76'
p423
sg43
S'98'
p424
sg44
S'5.2'
p425
sg46
S'2.1'
p426
sg48
S'.718'
p427
sg50
S'0.2'
p428
sg52
S'1977-78'
p429
sg54
S'20.9'
p430
sg56
S'104'
p431
sg57
S'1.6'
p432
sg59
S'10.5'
p433
sg61
S'2557'
p434
sba(isrc.gp1.models.Per100Possession
Per100Possession
p435
(dp436
g8
S'1.9'
p437
sg10
S'.497'
p438
sg12
S'9.9'
p439
sg328
g3
sg14
S'4.5'
p440
sg16
S'3.8'
p441
sg18
S'19.9'
p442
sg20
g3
sg21
S'PG'
p443
sg333
g3
sg23
S'7.4'
p444
sg27
S'NBA'
p445
sg29
S'23.6'
p446
sg30
S'.497'
p447
sg32
g3
sg33
S'3.6'
p448
sg35
S'5.2'
p449
sg37
S'23'
p450
sg39
S'TOT'
p451
sg41
S'70'
p452
sg43
S'98'
p453
sg44
S'5.3'
p454
sg46
S'2.1'
p455
sg48
S'.717'
p456
sg50
S'0.3'
p457
sg52
S'1978-79'
p458
sg54
S'19.9'
p459
sg56
S'105'
p460
sg57
S'1.6'
p461
sg59
S'9.9'
p462
sg61
S'1979'
p463
sba(isrc.gp1.models.Per100Possession
Per100Possession
p464
(dp465
g8
S'2.3'
p466
sg10
S'.481'
p467
sg12
S'9.9'
p468
sg328
g3
sg14
S'4.0'
p469
sg16
S'4.2'
p470
sg18
S'20.7'
p471
sg20
g3
sg21
S'PG'
p472
sg333
g3
sg23
S'7.6'
p473
sg27
S'NBA'
p474
sg29
S'24.0'
p475
sg30
S'.481'
p476
sg32
g3
sg33
S'3.8'
p477
sg35
S'5.1'
p478
sg37
S'23'
p479
sg39
S'NJN'
p480
sg41
S'47'
p481
sg43
S'99'
p482
sg44
S'5.6'
p483
sg46
S'2.1'
p484
sg48
S'.743'
p485
sg50
S'0.3'
p486
sg52
S'1978-79'
p487
sg54
S'20.7'
p488
sg56
S'104'
p489
sg57
S'1.7'
p490
sg59
S'9.9'
p491
sg61
S'1434'
p492
sba(isrc.gp1.models.Per100Possession
Per100Possession
p493
(dp494
g8
S'1.1'
p495
sg10
S'.548'
p496
sg12
S'9.8'
p497
sg328
g3
sg14
S'5.8'
p498
sg16
S'2.8'
p499
sg18
S'17.9'
p500
sg20
g3
sg21
S'PG'
p501
sg333
g3
sg23
S'6.8'
p502
sg27
S'NBA'
p503
sg29
S'22.4'
p504
sg30
S'.548'
p505
sg32
g3
sg33
S'3.1'
p506
sg35
S'5.7'
p507
sg37
S'23'
p508
sg39
S'PHI'
p509
sg41
S'23'
p510
sg43
S'97'
p511
sg44
S'4.5'
p512
sg46
S'1.8'
p513
sg48
S'.630'
p514
sg50
S'0.2'
p515
sg52
S'1978-79'
p516
sg54
S'17.9'
p517
sg56
S'106'
p518
sg57
S'1.2'
p519
sg59
S'9.8'
p520
sg61
S'545'
p521
sba(isrc.gp1.models.Per100Possession
Per100Possession
p522
(dp523
g8
S'3.0'
p524
sg10
S'7.9'
p525
sg12
S'0.0'
p526
sg328
g3
sg14
S'0.3'
p527
sg16
S'15.8'
p528
sg18
S'0.0'
p529
sg20
S'112'
p530
sg21
S'SG-PG'
p531
sg333
g3
sg23
S'2.1'
p532
sg27
S'NBA'
p533
sg29
S'4.5'
p534
sg30
S'.500'
p535
sg32
S'99'
p536
sg33
S'0.9'
p537
sg35
S'1.5'
p538
sg37
S'24'
p539
sg39
S'TOT'
p540
sg41
S'61'
p541
sg43
S'4.2'
p542
sg44
S'.500'
p543
sg46
S'.783'
p544
sg48
S'2.4'
p545
sg50
S'7.4'
p546
sg52
S'1979-80'
p547
sg54
S'15.8'
p548
sg56
S'18.2'
p549
sg57
S'3.1'
p550
sg59
S'7.9'
p551
sg61
S'1549'
p552
sba(isrc.gp1.models.Per100Possession
Per100Possession
p553
(dp554
g8
S'4.0'
p555
sg10
S'8.0'
p556
sg12
S'0.0'
p557
sg328
g3
sg14
S'0.6'
p558
sg16
S'20.5'
p559
sg18
S'0.0'
p560
sg20
S'108'
p561
sg21
S'PG'
p562
sg333
g3
sg23
S'2.3'
p563
sg27
S'NBA'
p564
sg29
S'6.8'
p565
sg30
S'.389'
p566
sg32
S'80'
p567
sg33
S'1.7'
p568
sg35
S'0.0'
p569
sg37
S'24'
p570
sg39
S'PHI'
p571
sg41
g271
sg43
S'6.3'
p572
sg44
S'.389'
p573
sg46
S'1.000'
p574
sg48
S'1.1'
p575
sg50
S'9.1'
p576
sg52
S'1979-80'
p577
sg54
S'20.5'
p578
sg56
S'17.0'
p579
sg57
S'1.1'
p580
sg59
S'8.0'
p581
sg61
S'82'
p582
sba(isrc.gp1.models.Per100Possession
Per100Possession
p583
(dp584
g8
S'3.0'
p585
sg10
S'7.9'
p586
sg12
S'0.0'
p587
sg328
g3
sg14
S'0.3'
p588
sg16
S'15.6'
p589
sg18
S'0.0'
p590
sg20
S'112'
p591
sg21
S'SG'
p592
sg333
g3
sg23
S'2.1'
p593
sg27
S'NBA'
p594
sg29
S'4.4'
p595
sg30
S'.508'
p596
sg32
S'100'
p597
sg33
S'0.9'
p598
sg35
S'1.6'
p599
sg37
S'24'
p600
sg39
S'DET'
p601
sg41
S'55'
p602
sg43
S'4.1'
p603
sg44
S'.508'
p604
sg46
S'.779'
p605
sg48
S'2.5'
p606
sg50
S'7.3'
p607
sg52
S'1979-80'
p608
sg54
S'15.6'
p609
sg56
S'18.3'
p610
sg57
S'3.2'
p611
sg59
S'7.9'
p612
sg61
S'1467'
p613
sbasS'_advanced'
p614
(lp615
(isrc.gp1.models.Advanced
Advanced
p616
(dp617
S'_offensiveReboundPercentage'
p618
S'7.5'
p619
sS'_turnOverPercentage'
p620
S'0.4'
p621
sS'_winSharesPer48Minutes'
p622
S'-4.3'
p623
sS'_stealPercentage'
p624
S'0.1'
p625
sS'_usagePercentage'
p626
S'0.3'
p627
sS'_totalReboundsPercentage'
p628
S'16.9'
p629
sS'_defensiveBoxPlusMinus'
p630
g3
sg21
S'SG'
p631
sS'_valueOverReplacementPlayer'
p632
g3
sS'_trueShootingPercentage'
p633
S'.471'
p634
sS'_defensiveReboundPercentage'
p635
S'5.4'
p636
sS'_freeThrowsAttempRate'
p637
S'3.4'
p638
sS'_threePointsAttempRate'
p639
S'.141'
p640
sg27
S'NBA'
p641
sS'_offensiveBoxPlusMinues'
p642
S'-0.5'
p643
sS'_assistPercentage'
p644
S'1.8'
p645
sS'_defensiveWinShares'
p646
S'-2.1'
p647
sg37
S'19'
p648
sg39
S'DET'
p649
sg41
S'66'
p650
sS'_blockPercentage'
p651
S'0.0'
p652
sS'_playerEfficiencyRating'
p653
S'11.3'
p654
sS'_offensiveWinShares'
p655
S'.019'
p656
sg59
S'889'
p657
sS'_boxPlusMinus'
p658
g3
sg52
S'1974-75'
p659
sS'_winShares'
p660
S'-2.2'
p661
sba(isrc.gp1.models.Advanced
Advanced
p662
(dp663
g618
S'6.0'
p664
sg620
S'1.5'
p665
sg622
S'1.6'
p666
sg624
S'0.3'
p667
sg626
S'4.2'
p668
sg628
S'21.5'
p669
sg630
g3
sg21
S'PG'
p670
sg632
g3
sg633
S'.508'
p671
sg635
S'4.7'
p672
sg637
S'3.4'
p673
sg639
S'.190'
p674
sg27
S'NBA'
p675
sg642
S'2.0'
p676
sg644
S'2.8'
p677
sg646
S'2.1'
p678
sg37
S'20'
p679
sg39
S'DET'
p680
sg41
S'80'
p681
sg651
S'2.8'
p682
sg653
S'16.3'
p683
sg655
S'.090'
p684
sg59
S'2267'
p685
sg658
g3
sg52
S'1975-76'
p686
sg660
S'-0.5'
p687
sba(isrc.gp1.models.Advanced
Advanced
p688
(dp689
g618
S'5.3'
p690
sg620
S'0.9'
p691
sg622
S'0.5'
p692
sg624
S'0.5'
p693
sg626
S'3.3'
p694
sg628
S'20.5'
p695
sg630
g3
sg21
S'PG'
p696
sg632
g3
sg633
S'.549'
p697
sg635
S'4.0'
p698
sg637
S'2.8'
p699
sg639
S'.181'
p700
sg27
S'NBA'
p701
sg642
S'1.0'
p702
sg644
S'2.5'
p703
sg646
S'1.6'
p704
sg37
S'21'
p705
sg39
S'DET'
p706
sg41
S'73'
p707
sg651
S'2.4'
p708
sg653
S'15.8'
p709
sg655
S'.099'
p710
sg59
S'1586'
p711
sg658
g3
sg52
S'1976-77'
p712
sg660
S'-1.2'
p713
sba(isrc.gp1.models.Advanced
Advanced
p714
(dp715
g618
S'4.8'
p716
sg620
S'24.7'
p717
sg622
S'0.6'
p718
sg624
S'0.2'
p719
sg626
S'2.0'
p720
sg628
S'21.1'
p721
sg630
S'-1.1'
p722
sg21
S'PG'
p723
sg632
g3
sg633
S'.531'
p724
sg635
S'4.3'
p725
sg637
S'3.8'
p726
sg639
S'.248'
p727
sg27
S'NBA'
p728
sg642
S'-1.7'
p729
sg644
S'2.1'
p730
sg646
S'3.6'
p731
sg37
S'22'
p732
sg39
S'DET'
p733
sg41
S'76'
p734
sg651
S'19.5'
p735
sg653
S'15.4'
p736
sg655
S'1.6'
p737
sg59
S'2557'
p738
sg658
S'0.6'
p739
sg52
S'1977-78'
p740
sg660
S'.067'
p741
sba(isrc.gp1.models.Advanced
Advanced
p742
(dp743
g618
S'5.0'
p744
sg620
S'23.6'
p745
sg622
S'0.0'
p746
sg624
S'0.3'
p747
sg626
S'0.9'
p748
sg628
S'25.4'
p749
sg630
S'-1.7'
p750
sg21
S'PG'
p751
sg632
g3
sg633
S'.530'
p752
sg635
S'4.3'
p753
sg637
S'3.6'
p754
sg639
S'.265'
p755
sg27
S'NBA'
p756
sg642
S'-1.7'
p757
sg644
S'1.9'
p758
sg646
S'2.7'
p759
sg37
S'23'
p760
sg39
S'TOT'
p761
sg41
S'70'
p762
sg651
S'19.1'
p763
sg653
S'14.4'
p764
sg655
S'1.8'
p765
sg59
S'1979'
p766
sg658
S'0.1'
p767
sg52
S'1978-79'
p768
sg660
S'.065'
p769
sba(isrc.gp1.models.Advanced
Advanced
p770
(dp771
g618
S'5.4'
p772
sg620
S'24.1'
p773
sg622
S'0.5'
p774
sg624
S'0.4'
p775
sg626
S'0.8'
p776
sg628
S'26.7'
p777
sg630
S'-0.8'
p778
sg21
S'PG'
p779
sg632
g3
sg633
S'.519'
p780
sg635
S'4.6'
p781
sg637
S'3.9'
p782
sg639
S'.271'
p783
sg27
S'NBA'
p784
sg642
S'-1.3'
p785
sg644
S'2.3'
p786
sg646
S'2.1'
p787
sg37
S'23'
p788
sg39
S'NJN'
p789
sg41
S'47'
p790
sg651
S'18.0'
p791
sg653
S'15.4'
p792
sg655
S'1.4'
p793
sg59
S'1434'
p794
sg658
S'0.4'
p795
sg52
S'1978-79'
p796
sg660
S'.072'
p797
sba(isrc.gp1.models.Advanced
Advanced
p798
(dp799
g618
S'4.0'
p800
sg620
S'22.1'
p801
sg622
S'-1.4'
p802
sg624
S'0.2'
p803
sg626
S'0.1'
p804
sg628
S'21.9'
p805
sg630
S'-4.2'
p806
sg21
S'PG'
p807
sg632
g3
sg633
S'.565'
p808
sg635
S'3.5'
p809
sg637
S'3.0'
p810
sg639
S'.249'
p811
sg27
S'NBA'
p812
sg642
S'-2.7'
p813
sg644
S'1.1'
p814
sg646
S'0.5'
p815
sg37
S'23'
p816
sg39
S'PHI'
p817
sg41
S'23'
p818
sg651
S'22.3'
p819
sg653
S'11.8'
p820
sg655
S'0.4'
p821
sg59
S'545'
p822
sg658
S'-0.3'
p823
sg52
S'1978-79'
p824
sg660
S'.048'
p825
sba(isrc.gp1.models.Advanced
Advanced
p826
(dp827
g618
S'2.1'
p828
sg620
S'20.7'
p829
sg622
S'.020'
p830
sg624
S'1.5'
p831
sg626
S'18.6'
p832
sg628
S'3.5'
p833
sg630
S'-2.8'
p834
sg21
S'SG-PG'
p835
sg632
S'-1.0'
p836
sg633
S'.531'
p837
sg635
S'5.0'
p838
sg637
S'.194'
p839
sg639
S'.000'
p840
sg27
S'NBA'
p841
sg642
S'-1.8'
p842
sg644
S'22.1'
p843
sg646
S'0.3'
p844
sg37
S'24'
p845
sg39
S'TOT'
p846
sg41
S'61'
p847
sg651
S'0.4'
p848
sg653
S'11.4'
p849
sg655
S'0.4'
p850
sg59
S'1549'
p851
sg658
S'-4.7'
p852
sg52
S'1979-80'
p853
sg660
S'0.6'
p854
sba(isrc.gp1.models.Advanced
Advanced
p855
(dp856
g618
S'4.1'
p857
sg620
S'24.5'
p858
sg622
S'-0.094'
p859
sg624
S'0.0'
p860
sg626
S'23.8'
p861
sg628
S'4.5'
p862
sg630
S'-3.9'
p863
sg21
S'PG'
p864
sg632
S'-0.2'
p865
sg633
S'.407'
p866
sg635
S'4.9'
p867
sg637
S'.056'
p868
sg639
S'.000'
p869
sg27
S'NBA'
p870
sg642
S'-6.8'
p871
sg644
S'27.2'
p872
sg646
S'0.1'
p873
sg37
S'24'
p874
sg39
S'PHI'
p875
sg41
g271
sg651
S'0.7'
p876
sg653
S'4.4'
p877
sg655
S'-0.2'
p878
sg59
S'82'
p879
sg658
S'-10.7'
p880
sg52
S'1979-80'
p881
sg660
S'-0.2'
p882
sba(isrc.gp1.models.Advanced
Advanced
p883
(dp884
g618
S'2.0'
p885
sg620
S'20.5'
p886
sg622
S'.026'
p887
sg624
S'1.6'
p888
sg626
S'18.3'
p889
sg628
S'3.5'
p890
sg630
S'-2.7'
p891
sg21
S'SG'
p892
sg632
S'-0.9'
p893
sg633
S'.539'
p894
sg635
S'5.0'
p895
sg637
S'.204'
p896
sg639
S'.000'
p897
sg27
S'NBA'
p898
sg642
S'-1.6'
p899
sg644
S'21.8'
p900
sg646
S'0.2'
p901
sg37
S'24'
p902
sg39
S'DET'
p903
sg41
S'55'
p904
sg651
S'0.4'
p905
sg653
S'11.7'
p906
sg655
S'0.6'
p907
sg59
S'1467'
p908
sg658
S'-4.3'
p909
sg52
S'1979-80'
p910
sg660
S'0.8'
p911
sbasS'_per36Minutes'
p912
(lp913
(isrc.gp1.models.Per36Minutes
Per36Minutes
p914
(dp915
g8
S'1.3'
p916
sg10
S'.451'
p917
sg12
S'5.8'
p918
sg14
S'12.9'
p919
sg16
S'1.3'
p920
sg18
S'12.9'
p921
sg20
g3
sg21
S'SG'
p922
sg23
S'4.1'
p923
sg27
S'NBA'
p924
sg29
g3
sg30
S'.451'
p925
sg32
g3
sg33
S'3.6'
p926
sg35
S'4.9'
p927
sg37
S'19'
p928
sg39
S'DET'
p929
sg41
S'66'
p930
sg43
g3
sg44
S'1.8'
p931
sg46
S'2.5'
p932
sg48
S'.689'
p933
sg50
S'0.1'
p934
sg52
S'1974-75'
p935
sg54
S'12.9'
p936
sg56
g3
sg57
S'1.1'
p937
sg59
S'5.8'
p938
sg61
S'889'
p939
sba(isrc.gp1.models.Per36Minutes
Per36Minutes
p940
(dp941
g8
S'2.2'
p942
sg10
S'.474'
p943
sg12
S'7.1'
p944
sg14
S'16.6'
p945
sg16
S'2.3'
p946
sg18
S'15.0'
p947
sg20
g3
sg21
S'PG'
p948
sg23
S'5.4'
p949
sg27
S'NBA'
p950
sg29
g3
sg30
S'.474'
p951
sg32
g3
sg33
S'3.3'
p952
sg35
S'3.9'
p953
sg37
S'20'
p954
sg39
S'DET'
p955
sg41
S'80'
p956
sg43
g3
sg44
S'2.9'
p957
sg46
S'2.1'
p958
sg48
S'.806'
p959
sg50
S'0.2'
p960
sg52
S'1975-76'
p961
sg54
S'15.0'
p962
sg56
g3
sg57
S'1.2'
p963
sg59
S'7.1'
p964
sg61
S'2267'
p965
sba(isrc.gp1.models.Per36Minutes
Per36Minutes
p966
(dp967
g8
S'2.1'
p968
sg10
S'.521'
p969
sg12
S'7.5'
p970
sg14
S'17.0'
p971
sg16
S'2.0'
p972
sg18
S'14.3'
p973
sg20
g3
sg21
S'PG'
p974
sg23
S'5.5'
p975
sg27
S'NBA'
p976
sg29
g3
sg30
S'.521'
p977
sg32
g3
sg33
S'2.8'
p978
sg35
S'4.5'
p979
sg37
S'21'
p980
sg39
S'DET'
p981
sg41
S'73'
p982
sg43
g3
sg44
S'2.6'
p983
sg46
S'1.8'
p984
sg48
S'.789'
p985
sg50
S'0.3'
p986
sg52
S'1976-77'
p987
sg54
S'14.3'
p988
sg56
g3
sg57
S'1.0'
p989
sg59
S'7.5'
p990
sg61
S'1586'
p991
sba(isrc.gp1.models.Per36Minutes
Per36Minutes
p992
(dp993
g8
S'1.7'
p994
sg10
S'.500'
p995
sg12
S'8.4'
p996
sg14
S'3.3'
p997
sg16
S'3.0'
p998
sg18
S'16.9'
p999
sg20
g3
sg21
S'PG'
p1000
sg23
S'5.0'
p1001
sg27
S'NBA'
p1002
sg29
S'19.9'
p1003
sg30
S'.500'
p1004
sg32
g3
sg33
S'2.9'
p1005
sg35
S'4.5'
p1006
sg37
S'22'
p1007
sg39
S'DET'
p1008
sg41
S'76'
p1009
sg43
g3
sg44
S'4.2'
p1010
sg46
S'1.7'
p1011
sg48
S'.718'
p1012
sg50
S'0.2'
p1013
sg52
S'1977-78'
p1014
sg54
S'16.9'
p1015
sg56
g3
sg57
S'1.3'
p1016
sg59
S'8.4'
p1017
sg61
S'2557'
p1018
sba(isrc.gp1.models.Per36Minutes
Per36Minutes
p1019
(dp1020
g8
S'1.6'
p1021
sg10
S'.497'
p1022
sg12
S'8.1'
p1023
sg14
S'3.7'
p1024
sg16
S'3.1'
p1025
sg18
S'16.2'
p1026
sg20
g3
sg21
S'PG'
p1027
sg23
S'6.0'
p1028
sg27
S'NBA'
p1029
sg29
S'19.2'
p1030
sg30
S'.497'
p1031
sg32
g3
sg33
S'2.9'
p1032
sg35
S'4.3'
p1033
sg37
S'23'
p1034
sg39
S'TOT'
p1035
sg41
S'70'
p1036
sg43
g3
sg44
S'4.3'
p1037
sg46
S'1.7'
p1038
sg48
S'.717'
p1039
sg50
S'0.2'
p1040
sg52
S'1978-79'
p1041
sg54
S'16.2'
p1042
sg56
g3
sg57
S'1.3'
p1043
sg59
S'8.1'
p1044
sg61
S'1979'
p1045
sba(isrc.gp1.models.Per36Minutes
Per36Minutes
p1046
(dp1047
g8
S'1.9'
p1048
sg10
S'.481'
p1049
sg12
S'8.2'
p1050
sg14
S'3.3'
p1051
sg16
S'3.4'
p1052
sg18
S'17.0'
p1053
sg20
g3
sg21
S'PG'
p1054
sg23
S'6.3'
p1055
sg27
S'NBA'
p1056
sg29
S'19.7'
p1057
sg30
S'.481'
p1058
sg32
g3
sg33
S'3.1'
p1059
sg35
S'4.2'
p1060
sg37
S'23'
p1061
sg39
S'NJN'
p1062
sg41
S'47'
p1063
sg43
g3
sg44
S'4.6'
p1064
sg46
S'1.8'
p1065
sg48
S'.743'
p1066
sg50
S'0.3'
p1067
sg52
S'1978-79'
p1068
sg54
S'17.0'
p1069
sg56
g3
sg57
S'1.4'
p1070
sg59
S'8.2'
p1071
sg61
S'1434'
p1072
sba(isrc.gp1.models.Per36Minutes
Per36Minutes
p1073
(dp1074
g8
S'0.9'
p1075
sg10
S'.548'
p1076
sg12
S'7.9'
p1077
sg14
S'4.6'
p1078
sg16
S'2.2'
p1079
sg18
S'14.3'
p1080
sg20
g3
sg21
S'PG'
p1081
sg23
S'5.4'
p1082
sg27
S'NBA'
p1083
sg29
S'18.0'
p1084
sg30
S'.548'
p1085
sg32
g3
sg33
S'2.4'
p1086
sg35
S'4.6'
p1087
sg37
S'23'
p1088
sg39
S'PHI'
p1089
sg41
S'23'
p1090
sg43
g3
sg44
S'3.6'
p1091
sg46
S'1.5'
p1092
sg48
S'.630'
p1093
sg50
S'0.1'
p1094
sg52
S'1978-79'
p1095
sg54
S'14.3'
p1096
sg56
g3
sg57
S'1.0'
p1097
sg59
S'7.9'
p1098
sg61
S'545'
p1099
sba(isrc.gp1.models.Per36Minutes
Per36Minutes
p1100
(dp1101
g8
S'2.4'
p1102
sg10
S'6.3'
p1103
sg12
S'0.0'
p1104
sg14
S'0.3'
p1105
sg16
S'12.7'
p1106
sg18
S'0.0'
p1107
sg20
g3
sg21
S'SG-PG'
p1108
sg23
S'1.7'
p1109
sg27
S'NBA'
p1110
sg29
S'3.6'
p1111
sg30
S'.500'
p1112
sg32
g3
sg33
S'0.7'
p1113
sg35
S'1.2'
p1114
sg37
S'24'
p1115
sg39
S'TOT'
p1116
sg41
S'61'
p1117
sg43
S'3.4'
p1118
sg44
S'.500'
p1119
sg46
S'.783'
p1120
sg48
S'1.9'
p1121
sg50
S'5.9'
p1122
sg52
S'1979-80'
p1123
sg54
S'12.7'
p1124
sg56
S'14.6'
p1125
sg57
S'2.5'
p1126
sg59
S'6.3'
p1127
sg61
S'1549'
p1128
sba(isrc.gp1.models.Per36Minutes
Per36Minutes
p1129
(dp1130
g8
S'3.1'
p1131
sg10
S'6.1'
p1132
sg12
S'0.0'
p1133
sg14
S'0.4'
p1134
sg16
S'15.8'
p1135
sg18
S'0.0'
p1136
sg20
g3
sg21
S'PG'
p1137
sg23
S'1.8'
p1138
sg27
S'NBA'
p1139
sg29
S'5.3'
p1140
sg30
S'.389'
p1141
sg32
g3
sg33
S'1.3'
p1142
sg35
S'0.0'
p1143
sg37
S'24'
p1144
sg39
S'PHI'
p1145
sg41
g271
sg43
S'4.8'
p1146
sg44
S'.389'
p1147
sg46
S'1.000'
p1148
sg48
S'0.9'
p1149
sg50
S'7.0'
p1150
sg52
S'1979-80'
p1151
sg54
S'15.8'
p1152
sg56
S'13.2'
p1153
sg57
S'0.9'
p1154
sg59
S'6.1'
p1155
sg61
S'82'
p1156
sba(isrc.gp1.models.Per36Minutes
Per36Minutes
p1157
(dp1158
g8
S'2.4'
p1159
sg10
S'6.4'
p1160
sg12
S'0.0'
p1161
sg14
S'0.2'
p1162
sg16
S'12.5'
p1163
sg18
S'0.0'
p1164
sg20
g3
sg21
S'SG'
p1165
sg23
S'1.7'
p1166
sg27
S'NBA'
p1167
sg29
S'3.5'
p1168
sg30
S'.508'
p1169
sg32
g3
sg33
S'0.7'
p1170
sg35
S'1.3'
p1171
sg37
S'24'
p1172
sg39
S'DET'
p1173
sg41
S'55'
p1174
sg43
S'3.3'
p1175
sg44
S'.508'
p1176
sg46
S'.779'
p1177
sg48
S'2.0'
p1178
sg50
S'5.8'
p1179
sg52
S'1979-80'
p1180
sg54
S'12.5'
p1181
sg56
S'14.7'
p1182
sg57
S'2.6'
p1183
sg59
S'6.4'
p1184
sg61
S'1467'
p1185
sbasS'_fromYear'
p1186
S'1975'
p1187
sS'_url'
p1188
S'http://www.basketball-reference.com/players/m/moneyer01.html'
p1189
sS'_perGame'
p1190
(isrc.gp1.models.PerGame
PerGame
p1191
(dp1192
g8
S'1.8'
p1193
sg10
S'4.7'
p1194
sg12
S'0.0'
p1195
sS'_effectiveFieldGalPercentage'
p1196
S'1.9'
p1197
sg14
S'0.2'
p1198
sg16
S'9.3'
p1199
sg18
S'0.0'
p1200
sg20
g3
sg21
S'SG'
p1201
sg23
S'1.3'
p1202
sg27
S'NBA'
p1203
sg29
S'2.6'
p1204
sg32
g3
sS'_fieldGoalsttempted'
p1205
S'.508'
p1206
sg33
S'0.5'
p1207
sg35
S'1.0'
p1208
sg37
S'24'
p1209
sg39
S'DET'
p1210
sg41
S'55'
p1211
sg43
S'2.5'
p1212
sg44
S'.508'
p1213
sg46
S'.779'
p1214
sg48
S'.508'
p1215
sg50
S'4.3'
p1216
sg52
S'1979-80'
p1217
sg54
S'9.3'
p1218
sg56
S'10.9'
p1219
sg57
S'1.5'
p1220
sg59
S'4.7'
p1221
sg61
S'26.7'
p1222
sbsS'_weight'
p1223
S'170'
p1224
sS'_dob'
p1225
S'6-2-1955'
p1226
sS'_salary'
p1227
(lp1228
sg21
S'G'
p1229
sb.