(isrc.gp1.models.Player
Player
p0
(dp1
S'_experience'
p2
S'NA'
p3
sS'_totals'
p4
(lp5
(isrc.gp1.models.Totals
Totals
p6
(dp7
S'_offensiveRebounds'
p8
S'196'
p9
sS'_threePointsAttempted'
p10
S'1'
p11
sS'_fieldGoalsPercentage'
p12
S'.534'
p13
sS'_assist'
p14
S'36'
p15
sS'_threePointsPercentage'
p16
S'.000'
p17
sS'_threePoints'
p18
S'0'
p19
sS'_points'
p20
S'781'
p21
sS'_position'
p22
S'C'
p23
sS'_freeThrowsPercentage'
p24
S'.635'
p25
sS'_effectiveFieldGoalPercentage'
p26
S'.534'
p27
sS'_league'
p28
S'NBA'
p29
sS'_steals'
p30
S'29'
p31
sS'_fieldGoalsAttempted'
p32
S'575'
p33
sS'_personalFouls'
p34
S'299'
p35
sS'_freeThrowsAttempted'
p36
S'263'
p37
sS'_totalRebounds'
p38
S'566'
p39
sS'_age'
p40
S'23'
p41
sS'_team'
p42
S'BOS'
p43
sS'_games'
p44
S'78'
p45
sS'_blocks'
p46
S'61'
p47
sS'_twoPoints'
p48
S'307'
p49
sS'_freeThrows'
p50
S'167'
p51
sS'_twoPointsAttempted'
p52
S'574'
p53
sS'_defensiveRebounds'
p54
S'370'
p55
sS'_season'
p56
S'1994-95'
p57
sS'_fieldGoals'
p58
S'307'
p59
sS'_turnOvers'
p60
S'112'
p61
sS'_twoPointsPercentage'
p62
S'.535'
p63
sS'_minutesPlayed'
p64
S'2315'
p65
sS'_gamesStarted'
p66
S'75'
p67
sba(isrc.gp1.models.Totals
Totals
p68
(dp69
g8
S'233'
p70
sg10
g19
sg12
S'.566'
p71
sg14
S'19'
p72
sg16
S'196'
p73
sg18
g19
sg20
g3
sg22
g23
sg24
S'119'
p74
sg26
S'50'
p75
sg28
S'NBA'
p76
sg30
S'29'
p77
sg32
S'346'
p78
sg34
S'442'
p79
sg36
S'.376'
p80
sg38
S'43'
p81
sg40
S'24'
p82
sg42
S'BOS'
p83
sg44
S'61'
p84
sg46
S'83'
p85
sg48
S'346'
p86
sg50
S'133'
p87
sg52
S'.566'
p88
sg54
S'352'
p89
sg56
S'1995-96'
p90
sg58
S'196'
p91
sg60
S'181'
p92
sg62
S'.566'
p93
sg64
S'1432'
p94
sg66
S'59'
p95
sba(isrc.gp1.models.Totals
Totals
p96
(dp97
g8
S'337'
p98
sg10
g19
sg12
S'.456'
p99
sg14
S'20'
p100
sg16
S'159'
p101
sg18
g19
sg20
g3
sg22
g23
sg24
S'181'
p102
sg26
S'21'
p103
sg28
S'NBA'
p104
sg30
S'73'
p105
sg32
S'349'
p106
sg34
S'339'
p107
sg36
S'.339'
p108
sg38
S'61'
p109
sg40
S'25'
p110
sg42
S'TOT'
p111
sg44
S'78'
p112
sg46
S'77'
p113
sg48
S'349'
p114
sg50
S'62'
p115
sg52
S'.456'
p116
sg54
S'518'
p117
sg56
S'1996-97'
p118
sg58
S'159'
p119
sg60
S'268'
p120
sg62
S'.456'
p121
sg64
S'1828'
p122
sg66
S'77'
p123
sba(isrc.gp1.models.Totals
Totals
p124
(dp125
g8
S'170'
p126
sg10
g19
sg12
S'.460'
p127
sg14
S'9'
p128
sg16
S'86'
p129
sg18
g19
sg20
g3
sg22
g23
sg24
S'66'
p130
sg26
S'10'
p131
sg28
S'NBA'
p132
sg30
S'34'
p133
sg32
S'187'
p134
sg34
S'182'
p135
sg36
S'.294'
p136
sg38
S'32'
p137
sg40
S'25'
p138
sg42
S'DAL'
p139
sg44
S'47'
p140
sg46
S'51'
p141
sg48
S'187'
p142
sg50
S'34'
p143
sg52
S'.460'
p144
sg54
S'236'
p145
sg56
S'1996-97'
p146
sg58
S'86'
p147
sg60
S'150'
p148
sg62
S'.460'
p149
sg64
S'984'
p150
sg66
S'46'
p151
sba(isrc.gp1.models.Totals
Totals
p152
(dp153
g8
S'167'
p154
sg10
g19
sg12
S'.451'
p155
sg14
S'11'
p156
sg16
S'73'
p157
sg18
g19
sg20
g3
sg22
g23
sg24
S'115'
p158
sg26
S'11'
p159
sg28
S'NBA'
p160
sg30
S'39'
p161
sg32
S'162'
p162
sg34
S'157'
p163
sg36
S'.393'
p164
sg38
S'29'
p165
sg40
S'25'
p166
sg42
S'NJN'
p167
sg44
S'31'
p168
sg46
S'26'
p169
sg48
S'162'
p170
sg50
S'28'
p171
sg52
S'.451'
p172
sg54
S'282'
p173
sg56
S'1996-97'
p174
sg58
S'73'
p175
sg60
S'118'
p176
sg62
S'.451'
p177
sg64
S'844'
p178
sg66
S'31'
p179
sba(isrc.gp1.models.Totals
Totals
p180
(dp181
g8
S'130'
p182
sg10
g19
sg12
S'.424'
p183
sg14
S'13'
p184
sg16
S'61'
p185
sg18
g19
sg20
g3
sg22
g23
sg24
S'69'
p186
sg26
S'16'
p187
sg28
S'NBA'
p188
sg30
S'27'
p189
sg32
S'144'
p190
sg34
S'138'
p191
sg36
S'.400'
p192
sg38
S'11'
p193
sg40
S'26'
p194
sg42
S'TOT'
p195
sg44
S'48'
p196
sg46
S'29'
p197
sg48
S'144'
p198
sg50
S'40'
p199
sg52
S'.424'
p200
sg54
S'199'
p201
sg56
S'1997-98'
p202
sg58
S'61'
p203
sg60
S'127'
p204
sg62
S'.424'
p205
sg64
S'691'
p206
sg66
S'30'
p207
sba(isrc.gp1.models.Totals
Totals
p208
(dp209
g8
S'64'
p210
sg10
g19
sg12
S'.395'
p211
sg14
S'7'
p212
sg16
S'30'
p213
sg18
g19
sg20
g3
sg22
g23
sg24
S'28'
p214
sg26
g212
sg28
S'NBA'
p215
sg30
S'12'
p216
sg32
S'76'
p217
sg34
S'67'
p218
sg36
S'.368'
p219
sg38
g212
sg40
S'26'
p220
sg42
S'PHI'
p221
sg44
S'20'
p222
sg46
S'15'
p223
sg48
S'76'
p224
sg50
S'19'
p225
sg52
S'.395'
p226
sg54
S'92'
p227
sg56
S'1997-98'
p228
sg58
S'30'
p229
sg60
S'61'
p230
sg62
S'.395'
p231
sg64
S'337'
p232
sg66
S'20'
p233
sba(isrc.gp1.models.Totals
Totals
p234
(dp235
g8
S'66'
p236
sg10
g19
sg12
S'.456'
p237
sg14
S'6'
p238
sg16
S'31'
p239
sg18
g19
sg20
g3
sg22
g23
sg24
S'41'
p240
sg26
g128
sg28
S'NBA'
p241
sg30
S'15'
p242
sg32
S'68'
p243
sg34
S'71'
p244
sg36
S'.429'
p245
sg38
S'4'
p246
sg40
S'26'
p247
sg42
S'DET'
p248
sg44
S'28'
p249
sg46
S'14'
p250
sg48
S'68'
p251
sg50
S'21'
p252
sg52
S'.456'
p253
sg54
S'107'
p254
sg56
S'1997-98'
p255
sg58
S'31'
p256
sg60
S'66'
p257
sg62
S'.456'
p258
sg64
S'354'
p259
sg66
S'10'
p260
sba(isrc.gp1.models.Totals
Totals
p261
(dp262
g8
S'45'
p263
sg10
g11
sg12
S'.525'
p264
sg14
S'14'
p265
sg16
S'.000'
p266
sg18
g19
sg20
S'95'
p267
sg22
g23
sg24
S'.344'
p268
sg26
S'.525'
p269
sg28
S'NBA'
p270
sg30
S'12'
p271
sg32
S'80'
p272
sg34
S'107'
p273
sg36
S'32'
p274
sg38
S'139'
p275
sg40
S'27'
p276
sg42
S'DET'
p277
sg44
S'46'
p278
sg46
S'27'
p279
sg48
S'42'
p280
sg50
S'11'
p281
sg52
S'79'
p282
sg54
S'94'
p283
sg56
S'1998-99'
p284
sg58
S'42'
p285
sg60
S'16'
p286
sg62
S'.532'
p287
sg64
S'577'
p288
sg66
S'2'
p289
sba(isrc.gp1.models.Totals
Totals
p290
(dp291
g8
S'54'
p292
sg10
g19
sg12
S'.309'
p293
sg14
g238
sg16
S'17'
p294
sg18
g19
sg20
g3
sg22
g23
sg24
S'18'
p295
sg26
g238
sg28
S'NBA'
p296
sg30
g128
sg32
S'55'
p297
sg34
S'40'
p298
sg36
S'.500'
p299
sg38
g212
sg40
S'28'
p300
sg42
S'DET'
p301
sg44
S'51'
p302
sg46
S'22'
p303
sg48
S'55'
p304
sg50
S'12'
p305
sg52
S'.309'
p306
sg54
S'72'
p307
sg56
S'1999-00'
p308
sg58
S'17'
p309
sg60
S'81'
p310
sg62
S'.309'
p311
sg64
S'332'
p312
sg66
g19
sba(isrc.gp1.models.Totals
Totals
p313
(dp314
g8
S'121'
p315
sg10
g19
sg12
S'.406'
p316
sg14
S'11'
p317
sg16
S'56'
p318
sg18
g19
sg20
g3
sg22
g23
sg24
S'52'
p319
sg26
S'8'
p320
sg28
S'NBA'
p321
sg30
S'26'
p322
sg32
S'138'
p323
sg34
S'120'
p324
sg36
S'.258'
p325
sg38
S'19'
p326
sg40
S'29'
p327
sg42
S'TOT'
p328
sg44
S'54'
p329
sg46
S'41'
p330
sg48
S'138'
p331
sg50
S'31'
p332
sg52
S'.406'
p333
sg54
S'173'
p334
sg56
S'2000-01'
p335
sg58
S'56'
p336
sg60
S'115'
p337
sg62
S'.406'
p338
sg64
S'649'
p339
sg66
S'21'
p340
sba(isrc.gp1.models.Totals
Totals
p341
(dp342
g8
S'101'
p343
sg10
g19
sg12
S'.413'
p344
sg14
g320
sg16
S'50'
p345
sg18
g19
sg20
g3
sg22
g23
sg24
S'43'
p346
sg26
g212
sg28
S'NBA'
p347
sg30
S'23'
p348
sg32
S'121'
p349
sg34
S'107'
p350
sg36
S'.269'
p351
sg38
S'15'
p352
sg40
S'29'
p353
sg42
S'DET'
p354
sg44
S'42'
p355
sg46
S'37'
p356
sg48
S'121'
p357
sg50
S'26'
p358
sg52
S'.413'
p359
sg54
S'144'
p360
sg56
S'2000-01'
p361
sg58
S'50'
p362
sg60
S'100'
p363
sg62
S'.413'
p364
sg64
S'568'
p365
sg66
S'20'
p366
sba(isrc.gp1.models.Totals
Totals
p367
(dp368
g8
S'20'
p369
sg10
g19
sg12
S'.353'
p370
sg14
S'3'
p371
sg16
g238
sg18
g19
sg20
g3
sg22
g23
sg24
g128
sg26
g11
sg28
S'NBA'
p372
sg30
g371
sg32
S'17'
p373
sg34
S'13'
p374
sg36
S'.200'
p375
sg38
g246
sg40
S'29'
p376
sg42
S'TOR'
p377
sg44
S'12'
p378
sg46
g246
sg48
S'17'
p379
sg50
S'5'
p380
sg52
S'.353'
p381
sg54
S'29'
p382
sg56
S'2000-01'
p383
sg58
g238
sg60
S'15'
p384
sg62
S'.353'
p385
sg64
S'81'
p386
sg66
g11
sba(isrc.gp1.models.Totals
Totals
p387
(dp388
g8
S'36'
p389
sg10
g11
sg12
S'.402'
p390
sg14
S'16'
p391
sg16
S'.000'
p392
sg18
g19
sg20
S'116'
p393
sg22
g23
sg24
S'.323'
p394
sg26
S'.402'
p395
sg28
S'NBA'
p396
sg30
S'12'
p397
sg32
S'132'
p398
sg34
S'92'
p399
sg36
S'31'
p400
sg38
S'140'
p401
sg40
S'30'
p402
sg42
S'TOR'
p403
sg44
S'49'
p404
sg46
S'23'
p405
sg48
S'53'
p406
sg50
S'10'
p407
sg52
S'131'
p408
sg54
S'104'
p409
sg56
S'2001-02'
p410
sg58
S'53'
p411
sg60
S'25'
p412
sg62
S'.405'
p413
sg64
S'655'
p414
sg66
S'24'
p415
sbasS'_college'
p416
S'University of North Carolina'
p417
sS'_toYear'
p418
S'2002'
p419
sS'_height'
p420
S'7-0'
p421
sS'_active'
p422
I00
sS'_shootingHand'
p423
VRight
p424
sS'_name'
p425
S'Eric Montross'
p426
sS'_per100Possessions'
p427
(lp428
(isrc.gp1.models.Per100Possession
Per100Possession
p429
(dp430
g8
S'4.3'
p431
sg10
S'0.0'
p432
sg12
S'.534'
p433
sS'_offensiveRating'
p434
S'111'
p435
sg14
S'0.8'
p436
sg16
S'.000'
p437
sg18
S'0.0'
p438
sg20
S'17.2'
p439
sg22
g23
sS'_defensiveRating'
p440
S'111'
p441
sg24
S'.635'
p442
sg28
S'NBA'
p443
sg30
S'0.6'
p444
sg32
S'12.7'
p445
sg34
S'6.6'
p446
sg36
S'5.8'
p447
sg38
S'12.5'
p448
sg40
S'23'
p449
sg42
S'BOS'
p450
sg44
S'78'
p451
sg46
S'1.3'
p452
sg48
S'6.8'
p453
sg50
S'3.7'
p454
sg52
S'12.7'
p455
sg54
S'8.2'
p456
sg56
S'1994-95'
p457
sg58
S'6.8'
p458
sg60
S'2.5'
p459
sg62
S'.535'
p460
sg64
S'2315'
p461
sg66
S'75'
p462
sba(isrc.gp1.models.Per100Possession
Per100Possession
p463
(dp464
g8
S'8.1'
p465
sg10
S'0.0'
p466
sg12
S'.566'
p467
sg434
S'111'
p468
sg14
S'0.7'
p469
sg16
S'6.8'
p470
sg18
S'0.0'
p471
sg20
S'102'
p472
sg22
g23
sg440
g3
sg24
S'4.1'
p473
sg28
S'NBA'
p474
sg30
S'1.0'
p475
sg32
S'12.1'
p476
sg34
S'15.4'
p477
sg36
S'.376'
p478
sg38
S'1.5'
p479
sg40
S'24'
p480
sg42
S'BOS'
p481
sg44
S'61'
p482
sg46
S'2.9'
p483
sg48
S'12.1'
p484
sg50
S'4.6'
p485
sg52
S'.566'
p486
sg54
S'12.3'
p487
sg56
S'1995-96'
p488
sg58
S'6.8'
p489
sg60
S'6.3'
p490
sg62
S'1.7'
p491
sg64
S'1432'
p492
sg66
S'59'
p493
sba(isrc.gp1.models.Per100Possession
Per100Possession
p494
(dp495
g8
S'9.8'
p496
sg10
S'0.0'
p497
sg12
S'.456'
p498
sg434
S'108'
p499
sg14
S'0.6'
p500
sg16
S'4.6'
p501
sg18
S'0.0'
p502
sg20
S'96'
p503
sg22
g23
sg440
g3
sg24
S'5.2'
p504
sg28
S'NBA'
p505
sg30
S'2.1'
p506
sg32
S'10.1'
p507
sg34
S'9.8'
p508
sg36
S'.339'
p509
sg38
S'1.8'
p510
sg40
S'25'
p511
sg42
S'TOT'
p512
sg44
S'78'
p513
sg46
S'2.2'
p514
sg48
S'10.1'
p515
sg50
S'1.8'
p516
sg52
S'.456'
p517
sg54
S'15.0'
p518
sg56
S'1996-97'
p519
sg58
S'4.6'
p520
sg60
S'7.8'
p521
sg62
S'0.6'
p522
sg64
S'1828'
p523
sg66
S'77'
p524
sba(isrc.gp1.models.Per100Possession
Per100Possession
p525
(dp526
g8
S'9.3'
p527
sg10
S'0.0'
p528
sg12
S'.460'
p529
sg434
S'108'
p530
sg14
S'0.5'
p531
sg16
S'4.7'
p532
sg18
S'0.0'
p533
sg20
S'87'
p534
sg22
g23
sg440
g3
sg24
S'3.6'
p535
sg28
S'NBA'
p536
sg30
S'1.9'
p537
sg32
S'10.2'
p538
sg34
S'10.0'
p539
sg36
S'.294'
p540
sg38
S'1.8'
p541
sg40
S'25'
p542
sg42
S'DAL'
p543
sg44
S'47'
p544
sg46
S'2.8'
p545
sg48
S'10.2'
p546
sg50
S'1.9'
p547
sg52
S'.460'
p548
sg54
S'12.9'
p549
sg56
S'1996-97'
p550
sg58
S'4.7'
p551
sg60
S'8.2'
p552
sg62
S'0.5'
p553
sg64
S'984'
p554
sg66
S'46'
p555
sba(isrc.gp1.models.Per100Possession
Per100Possession
p556
(dp557
g8
S'10.3'
p558
sg10
S'0.0'
p559
sg12
S'.451'
p560
sg434
S'108'
p561
sg14
S'0.7'
p562
sg16
S'4.5'
p563
sg18
S'0.0'
p564
sg20
S'107'
p565
sg22
g23
sg440
g3
sg24
S'7.1'
p566
sg28
S'NBA'
p567
sg30
S'2.4'
p568
sg32
S'10.0'
p569
sg34
S'9.7'
p570
sg36
S'.393'
p571
sg38
S'1.8'
p572
sg40
S'25'
p573
sg42
S'NJN'
p574
sg44
S'31'
p575
sg46
S'1.6'
p576
sg48
S'10.0'
p577
sg50
S'1.7'
p578
sg52
S'.451'
p579
sg54
S'17.4'
p580
sg56
S'1996-97'
p581
sg58
S'4.5'
p582
sg60
S'7.3'
p583
sg62
S'0.7'
p584
sg64
S'844'
p585
sg66
S'31'
p586
sba(isrc.gp1.models.Per100Possession
Per100Possession
p587
(dp588
g8
S'10.1'
p589
sg10
S'0.0'
p590
sg12
S'.424'
p591
sg434
S'102'
p592
sg14
S'1.0'
p593
sg16
S'4.7'
p594
sg18
S'0.0'
p595
sg20
S'92'
p596
sg22
g23
sg440
g3
sg24
S'5.4'
p597
sg28
S'NBA'
p598
sg30
S'2.1'
p599
sg32
S'11.2'
p600
sg34
S'10.7'
p601
sg36
S'.400'
p602
sg38
S'0.9'
p603
sg40
S'26'
p604
sg42
S'TOT'
p605
sg44
S'48'
p606
sg46
S'2.3'
p607
sg48
S'11.2'
p608
sg50
S'3.1'
p609
sg52
S'.424'
p610
sg54
S'15.5'
p611
sg56
S'1997-98'
p612
sg58
S'4.7'
p613
sg60
S'9.9'
p614
sg62
S'1.2'
p615
sg64
S'691'
p616
sg66
S'30'
p617
sba(isrc.gp1.models.Per100Possession
Per100Possession
p618
(dp619
g8
S'10.1'
p620
sg10
S'0.0'
p621
sg12
S'.395'
p622
sg434
S'103'
p623
sg14
S'1.1'
p624
sg16
S'4.7'
p625
sg18
S'0.0'
p626
sg20
S'85'
p627
sg22
g23
sg440
g3
sg24
S'4.4'
p628
sg28
S'NBA'
p629
sg30
S'1.9'
p630
sg32
S'12.0'
p631
sg34
S'10.6'
p632
sg36
S'.368'
p633
sg38
S'1.1'
p634
sg40
S'26'
p635
sg42
S'PHI'
p636
sg44
S'20'
p637
sg46
S'2.4'
p638
sg48
S'12.0'
p639
sg50
S'3.0'
p640
sg52
S'.395'
p641
sg54
S'14.5'
p642
sg56
S'1997-98'
p643
sg58
S'4.7'
p644
sg60
S'9.6'
p645
sg62
S'1.1'
p646
sg64
S'337'
p647
sg66
S'20'
p648
sba(isrc.gp1.models.Per100Possession
Per100Possession
p649
(dp650
g8
S'10.1'
p651
sg10
S'0.0'
p652
sg12
S'.456'
p653
sg434
S'101'
p654
sg14
S'0.9'
p655
sg16
S'4.8'
p656
sg18
S'0.0'
p657
sg20
S'99'
p658
sg22
g23
sg440
g3
sg24
S'6.3'
p659
sg28
S'NBA'
p660
sg30
S'2.3'
p661
sg32
S'10.5'
p662
sg34
S'10.9'
p663
sg36
S'.429'
p664
sg38
S'0.6'
p665
sg40
S'26'
p666
sg42
S'DET'
p667
sg44
S'28'
p668
sg46
S'2.2'
p669
sg48
S'10.5'
p670
sg50
S'3.2'
p671
sg52
S'.456'
p672
sg54
S'16.4'
p673
sg56
S'1997-98'
p674
sg58
S'4.8'
p675
sg60
S'10.1'
p676
sg62
S'1.4'
p677
sg64
S'354'
p678
sg66
S'10'
p679
sba(isrc.gp1.models.Per100Possession
Per100Possession
p680
(dp681
g8
S'4.3'
p682
sg10
S'0.1'
p683
sg12
S'.525'
p684
sg434
S'105'
p685
sg14
S'1.3'
p686
sg16
S'.000'
p687
sg18
S'0.0'
p688
sg20
S'9.2'
p689
sg22
g23
sg440
S'99'
p690
sg24
S'.344'
p691
sg28
S'NBA'
p692
sg30
S'1.2'
p693
sg32
S'7.7'
p694
sg34
S'10.3'
p695
sg36
S'3.1'
p696
sg38
S'13.4'
p697
sg40
S'27'
p698
sg42
S'DET'
p699
sg44
S'46'
p700
sg46
S'2.6'
p701
sg48
S'4.0'
p702
sg50
S'1.1'
p703
sg52
S'7.6'
p704
sg54
S'9.1'
p705
sg56
S'1998-99'
p706
sg58
S'4.0'
p707
sg60
S'1.5'
p708
sg62
S'.532'
p709
sg64
S'577'
p710
sg66
g289
sba(isrc.gp1.models.Per100Possession
Per100Possession
p711
(dp712
g8
S'8.2'
p713
sg10
S'0.0'
p714
sg12
S'.309'
p715
sg434
S'105'
p716
sg14
S'0.9'
p717
sg16
S'2.6'
p718
sg18
S'0.0'
p719
sg20
S'66'
p720
sg22
g23
sg440
g3
sg24
S'2.7'
p721
sg28
S'NBA'
p722
sg30
S'1.4'
p723
sg32
S'8.3'
p724
sg34
S'6.0'
p725
sg36
S'.500'
p726
sg38
S'1.1'
p727
sg40
S'28'
p728
sg42
S'DET'
p729
sg44
S'51'
p730
sg46
S'3.3'
p731
sg48
S'8.3'
p732
sg50
S'1.8'
p733
sg52
S'.309'
p734
sg54
S'10.9'
p735
sg56
S'1999-00'
p736
sg58
S'2.6'
p737
sg60
S'12.2'
p738
sg62
S'0.9'
p739
sg64
S'332'
p740
sg66
g19
sba(isrc.gp1.models.Per100Possession
Per100Possession
p741
(dp742
g8
S'9.5'
p743
sg10
S'0.0'
p744
sg12
S'.406'
p745
sg434
S'101'
p746
sg14
S'0.9'
p747
sg16
S'4.4'
p748
sg18
S'0.0'
p749
sg20
S'79'
p750
sg22
g23
sg440
g3
sg24
S'4.1'
p751
sg28
S'NBA'
p752
sg30
S'2.0'
p753
sg32
S'10.8'
p754
sg34
S'9.4'
p755
sg36
S'.258'
p756
sg38
S'1.5'
p757
sg40
S'29'
p758
sg42
S'TOT'
p759
sg44
S'54'
p760
sg46
S'3.2'
p761
sg48
S'10.8'
p762
sg50
S'2.4'
p763
sg52
S'.406'
p764
sg54
S'13.6'
p765
sg56
S'2000-01'
p766
sg58
S'4.4'
p767
sg60
S'9.0'
p768
sg62
S'0.6'
p769
sg64
S'649'
p770
sg66
S'21'
p771
sba(isrc.gp1.models.Per100Possession
Per100Possession
p772
(dp773
g8
S'9.0'
p774
sg10
S'0.0'
p775
sg12
S'.413'
p776
sg434
S'101'
p777
sg14
S'0.7'
p778
sg16
S'4.5'
p779
sg18
S'0.0'
p780
sg20
S'78'
p781
sg22
g23
sg440
g3
sg24
S'3.8'
p782
sg28
S'NBA'
p783
sg30
S'2.1'
p784
sg32
S'10.8'
p785
sg34
S'9.5'
p786
sg36
S'.269'
p787
sg38
S'1.3'
p788
sg40
S'29'
p789
sg42
S'DET'
p790
sg44
S'42'
p791
sg46
S'3.3'
p792
sg48
S'10.8'
p793
sg50
S'2.3'
p794
sg52
S'.413'
p795
sg54
S'12.8'
p796
sg56
S'2000-01'
p797
sg58
S'4.5'
p798
sg60
S'8.9'
p799
sg62
S'0.6'
p800
sg64
S'568'
p801
sg66
S'20'
p802
sba(isrc.gp1.models.Per100Possession
Per100Possession
p803
(dp804
g8
S'13.0'
p805
sg10
S'0.0'
p806
sg12
S'.353'
p807
sg434
S'98'
p808
sg14
S'2.0'
p809
sg16
S'3.9'
p810
sg18
S'0.0'
p811
sg20
S'82'
p812
sg22
g23
sg440
g3
sg24
S'5.9'
p813
sg28
S'NBA'
p814
sg30
S'2.0'
p815
sg32
S'11.1'
p816
sg34
S'8.5'
p817
sg36
S'.200'
p818
sg38
S'2.6'
p819
sg40
S'29'
p820
sg42
S'TOR'
p821
sg44
S'12'
p822
sg46
S'2.6'
p823
sg48
S'11.1'
p824
sg50
S'3.3'
p825
sg52
S'.353'
p826
sg54
S'18.9'
p827
sg56
S'2000-01'
p828
sg58
S'3.9'
p829
sg60
S'9.8'
p830
sg62
S'0.7'
p831
sg64
S'81'
p832
sg66
g11
sba(isrc.gp1.models.Per100Possession
Per100Possession
p833
(dp834
g8
S'3.0'
p835
sg10
S'0.1'
p836
sg12
S'.402'
p837
sg434
S'83'
p838
sg14
S'1.3'
p839
sg16
S'.000'
p840
sg18
S'0.0'
p841
sg20
S'9.6'
p842
sg22
g23
sg440
S'103'
p843
sg24
S'.323'
p844
sg28
S'NBA'
p845
sg30
S'1.0'
p846
sg32
S'10.9'
p847
sg34
S'7.6'
p848
sg36
S'2.6'
p849
sg38
S'11.6'
p850
sg40
S'30'
p851
sg42
S'TOR'
p852
sg44
S'49'
p853
sg46
S'1.9'
p854
sg48
S'4.4'
p855
sg50
S'0.8'
p856
sg52
S'10.8'
p857
sg54
S'8.6'
p858
sg56
S'2001-02'
p859
sg58
S'4.4'
p860
sg60
S'2.1'
p861
sg62
S'.405'
p862
sg64
S'655'
p863
sg66
S'24'
p864
sbasS'_advanced'
p865
(lp866
(isrc.gp1.models.Advanced
Advanced
p867
(dp868
S'_offensiveReboundPercentage'
p869
S'9.6'
p870
sS'_turnOverPercentage'
p871
S'14.0'
p872
sS'_winSharesPer48Minutes'
p873
S'.084'
p874
sS'_stealPercentage'
p875
S'0.6'
p876
sS'_usagePercentage'
p877
S'15.0'
p878
sS'_totalReboundsPercentage'
p879
S'14.1'
p880
sS'_defensiveBoxPlusMinus'
p881
S'-0.6'
p882
sg22
g23
sS'_valueOverReplacementPlayer'
p883
S'-0.1'
p884
sS'_trueShootingPercentage'
p885
S'.565'
p886
sS'_defensiveReboundPercentage'
p887
S'18.7'
p888
sS'_freeThrowsAttempRate'
p889
S'.457'
p890
sS'_threePointsAttempRate'
p891
S'.002'
p892
sg28
S'NBA'
p893
sS'_offensiveBoxPlusMinues'
p894
S'-1.6'
p895
sS'_assistPercentage'
p896
S'2.3'
p897
sS'_defensiveWinShares'
p898
S'1.8'
p899
sg40
S'23'
p900
sg42
S'BOS'
p901
sg44
S'78'
p902
sS'_blockPercentage'
p903
S'1.8'
p904
sS'_playerEfficiencyRating'
p905
S'12.1'
p906
sS'_offensiveWinShares'
p907
S'2.3'
p908
sg64
S'2315'
p909
sS'_boxPlusMinus'
p910
S'-2.2'
p911
sg56
S'1994-95'
p912
sS'_winShares'
p913
S'4.1'
p914
sba(isrc.gp1.models.Advanced
Advanced
p915
(dp916
g869
S'9.1'
p917
sg871
S'17.0'
p918
sg873
S'.044'
p919
sg875
S'0.7'
p920
sg877
S'14.7'
p921
sg879
S'13.8'
p922
sg881
S'-0.3'
p923
sg22
g23
sg883
S'-0.4'
p924
sg885
S'.546'
p925
sg887
S'18.7'
p926
sg889
S'.384'
p927
sg891
S'.000'
p928
sg28
S'NBA'
p929
sg894
S'-2.9'
p930
sg896
S'4.6'
p931
sg898
S'1.0'
p932
sg40
S'24'
p933
sg42
S'BOS'
p934
sg44
S'61'
p935
sg903
S'1.4'
p936
sg905
S'10.6'
p937
sg907
S'0.3'
p938
sg64
S'1432'
p939
sg910
S'-3.2'
p940
sg56
S'1995-96'
p941
sg913
S'1.3'
p942
sba(isrc.gp1.models.Advanced
Advanced
p943
(dp944
g869
S'10.5'
p945
sg871
S'17.0'
p946
sg873
S'.036'
p947
sg875
S'0.6'
p948
sg877
S'11.0'
p949
sg879
S'15.8'
p950
sg881
S'1.3'
p951
sg22
g23
sg883
S'-0.5'
p952
sg885
S'.450'
p953
sg887
S'21.5'
p954
sg889
S'.178'
p955
sg891
S'.000'
p956
sg28
S'NBA'
p957
sg894
S'-4.3'
p958
sg896
S'5.2'
p959
sg898
S'1.6'
p960
sg40
S'25'
p961
sg42
S'TOT'
p962
sg44
S'78'
p963
sg903
S'3.1'
p964
sg905
S'8.8'
p965
sg907
S'-0.3'
p966
sg64
S'1828'
p967
sg910
S'-3.0'
p968
sg56
S'1996-97'
p969
sg913
S'1.4'
p970
sba(isrc.gp1.models.Advanced
Advanced
p971
(dp972
g869
S'7.7'
p973
sg871
S'20.2'
p974
sg873
S'.005'
p975
sg875
S'0.5'
p976
sg877
S'11.8'
p977
sg879
S'13.9'
p978
sg881
S'1.1'
p979
sg22
g23
sg883
S'-0.7'
p980
sg885
S'.451'
p981
sg887
S'20.4'
p982
sg889
S'.182'
p983
sg891
S'.000'
p984
sg28
S'NBA'
p985
sg894
S'-5.7'
p986
sg896
S'5.2'
p987
sg898
S'0.9'
p988
sg40
S'25'
p989
sg42
S'DAL'
p990
sg44
S'47'
p991
sg903
S'2.7'
p992
sg905
S'6.6'
p993
sg907
S'-0.8'
p994
sg64
S'984'
p995
sg910
S'-4.6'
p996
sg56
S'1996-97'
p997
sg913
S'0.1'
p998
sba(isrc.gp1.models.Advanced
Advanced
p999
(dp1000
g869
S'13.9'
p1001
sg871
S'13.0'
p1002
sg873
S'.072'
p1003
sg875
S'0.7'
p1004
sg877
S'10.1'
p1005
sg879
S'18.1'
p1006
sg881
S'1.5'
p1007
sg22
g23
sg883
S'0.2'
p1008
sg885
S'.450'
p1009
sg887
S'22.7'
p1010
sg889
S'.173'
p1011
sg891
S'.000'
p1012
sg28
S'NBA'
p1013
sg894
S'-2.7'
p1014
sg896
S'5.1'
p1015
sg898
S'0.8'
p1016
sg40
S'25'
p1017
sg42
S'NJN'
p1018
sg44
S'31'
p1019
sg903
S'3.5'
p1020
sg905
S'11.3'
p1021
sg907
S'0.5'
p1022
sg64
S'844'
p1023
sg910
S'-1.2'
p1024
sg56
S'1996-97'
p1025
sg913
S'1.3'
p1026
sba(isrc.gp1.models.Advanced
Advanced
p1027
(dp1028
g869
S'11.6'
p1029
sg871
S'15.2'
p1030
sg873
S'.049'
p1031
sg875
S'1.0'
p1032
sg877
S'12.6'
p1033
sg879
S'16.9'
p1034
sg881
S'0.0'
p1035
sg22
g23
sg883
S'-0.5'
p1036
sg885
S'.427'
p1037
sg887
S'22.2'
p1038
sg889
S'.278'
p1039
sg891
S'.000'
p1040
sg28
S'NBA'
p1041
sg894
S'-5.0'
p1042
sg896
S'2.5'
p1043
sg898
S'0.9'
p1044
sg40
S'26'
p1045
sg42
S'TOT'
p1046
sg44
S'48'
p1047
sg903
S'2.9'
p1048
sg905
S'8.0'
p1049
sg907
S'-0.2'
p1050
sg64
S'691'
p1051
sg910
S'-5.0'
p1052
sg56
S'1997-98'
p1053
sg913
S'0.7'
p1054
sba(isrc.gp1.models.Advanced
Advanced
p1055
(dp1056
g869
S'9.5'
p1057
sg871
S'15.1'
p1058
sg873
S'.015'
p1059
sg875
S'1.1'
p1060
sg877
S'13.2'
p1061
sg879
S'15.7'
p1062
sg881
S'0.0'
p1063
sg22
g23
sg883
S'-0.3'
p1064
sg885
S'.397'
p1065
sg887
S'22.0'
p1066
sg889
S'.250'
p1067
sg891
S'.000'
p1068
sg28
S'NBA'
p1069
sg894
S'-5.9'
p1070
sg896
S'3.3'
p1071
sg898
S'0.4'
p1072
sg40
S'26'
p1073
sg42
S'PHI'
p1074
sg44
S'20'
p1075
sg903
S'2.6'
p1076
sg905
S'6.7'
p1077
sg907
S'-0.3'
p1078
sg64
S'337'
p1079
sg910
S'-5.8'
p1080
sg56
S'1997-98'
p1081
sg913
S'0.1'
p1082
sba(isrc.gp1.models.Advanced
Advanced
p1083
(dp1084
g869
S'13.7'
p1085
sg871
S'15.3'
p1086
sg873
S'.082'
p1087
sg875
S'0.9'
p1088
sg877
S'12.0'
p1089
sg879
S'18.0'
p1090
sg881
S'0.0'
p1091
sg22
g23
sg883
S'-0.2'
p1092
sg885
S'.460'
p1093
sg887
S'22.4'
p1094
sg889
S'.309'
p1095
sg891
S'.000'
p1096
sg28
S'NBA'
p1097
sg894
S'-4.3'
p1098
sg896
S'1.8'
p1099
sg898
S'0.5'
p1100
sg40
S'26'
p1101
sg42
S'DET'
p1102
sg44
S'28'
p1103
sg903
S'3.2'
p1104
sg905
S'9.4'
p1105
sg907
S'0.1'
p1106
sg64
S'354'
p1107
sg910
S'-4.3'
p1108
sg56
S'1997-98'
p1109
sg913
S'0.6'
p1110
sba(isrc.gp1.models.Advanced
Advanced
p1111
(dp1112
g869
S'9.5'
p1113
sg871
S'14.5'
p1114
sg873
S'.106'
p1115
sg875
S'1.2'
p1116
sg877
S'9.1'
p1117
sg879
S'14.7'
p1118
sg881
S'2.0'
p1119
sg22
g23
sg883
S'0.2'
p1120
sg885
S'.505'
p1121
sg887
S'20.0'
p1122
sg889
S'.400'
p1123
sg891
S'.013'
p1124
sg28
S'NBA'
p1125
sg894
S'-2.7'
p1126
sg896
S'3.9'
p1127
sg898
S'0.9'
p1128
sg40
S'27'
p1129
sg42
S'DET'
p1130
sg44
S'46'
p1131
sg903
S'3.8'
p1132
sg905
S'9.1'
p1133
sg907
S'0.4'
p1134
sg64
S'577'
p1135
sg910
S'-0.7'
p1136
sg56
S'1998-99'
p1137
sg913
S'1.3'
p1138
sba(isrc.gp1.models.Advanced
Advanced
p1139
(dp1140
g869
S'6.3'
p1141
sg871
S'26.7'
p1142
sg873
S'-0.058'
p1143
sg875
S'0.9'
p1144
sg877
S'10.9'
p1145
sg879
S'12.6'
p1146
sg881
S'0.1'
p1147
sg22
g23
sg883
S'-0.5'
p1148
sg885
S'.332'
p1149
sg887
S'18.8'
p1150
sg889
S'.218'
p1151
sg891
S'.000'
p1152
sg28
S'NBA'
p1153
sg894
S'-7.9'
p1154
sg896
S'2.9'
p1155
sg898
S'0.3'
p1156
sg40
S'28'
p1157
sg42
S'DET'
p1158
sg44
S'51'
p1159
sg903
S'2.0'
p1160
sg905
S'0.2'
p1161
sg907
S'-0.7'
p1162
sg64
S'332'
p1163
sg910
S'-7.8'
p1164
sg56
S'1999-00'
p1165
sg913
S'-0.4'
p1166
sba(isrc.gp1.models.Advanced
Advanced
p1167
(dp1168
g869
S'8.5'
p1169
sg871
S'21.3'
p1170
sg873
S'-0.001'
p1171
sg875
S'0.9'
p1172
sg877
S'12.9'
p1173
sg879
S'14.4'
p1174
sg881
S'1.3'
p1175
sg22
g23
sg883
S'-0.5'
p1176
sg885
S'.396'
p1177
sg887
S'20.5'
p1178
sg889
S'.225'
p1179
sg891
S'.000'
p1180
sg28
S'NBA'
p1181
sg894
S'-6.5'
p1182
sg896
S'4.5'
p1183
sg898
S'0.9'
p1184
sg40
S'29'
p1185
sg42
S'TOT'
p1186
sg44
S'54'
p1187
sg903
S'2.8'
p1188
sg905
S'5.4'
p1189
sg907
S'-0.9'
p1190
sg64
S'649'
p1191
sg910
S'-5.2'
p1192
sg56
S'2000-01'
p1193
sg913
S'0.0'
p1194
sba(isrc.gp1.models.Advanced
Advanced
p1195
(dp1196
g869
S'8.0'
p1197
sg871
S'21.8'
p1198
sg873
S'-0.006'
p1199
sg875
S'0.7'
p1200
sg877
S'12.9'
p1201
sg879
S'13.6'
p1202
sg881
S'1.2'
p1203
sg22
g23
sg883
S'-0.5'
p1204
sg885
S'.404'
p1205
sg887
S'19.4'
p1206
sg889
S'.215'
p1207
sg891
S'.000'
p1208
sg28
S'NBA'
p1209
sg894
S'-6.6'
p1210
sg896
S'4.1'
p1211
sg898
S'0.7'
p1212
sg40
S'29'
p1213
sg42
S'DET'
p1214
sg44
S'42'
p1215
sg903
S'2.9'
p1216
sg905
S'5.0'
p1217
sg907
S'-0.8'
p1218
sg64
S'568'
p1219
sg910
S'-5.4'
p1220
sg56
S'2000-01'
p1221
sg913
S'-0.1'
p1222
sba(isrc.gp1.models.Advanced
Advanced
p1223
(dp1224
g869
S'12.2'
p1225
sg871
S'17.2'
p1226
sg873
S'.028'
p1227
sg875
S'2.0'
p1228
sg877
S'12.8'
p1229
sg879
S'20.2'
p1230
sg881
S'2.0'
p1231
sg22
g23
sg883
S'0.0'
p1232
sg885
S'.339'
p1233
sg887
S'28.5'
p1234
sg889
S'.294'
p1235
sg891
S'.000'
p1236
sg28
S'NBA'
p1237
sg894
S'-5.6'
p1238
sg896
S'7.2'
p1239
sg898
S'0.1'
p1240
sg40
S'29'
p1241
sg42
S'TOR'
p1242
sg44
S'12'
p1243
sg903
S'2.6'
p1244
sg905
S'8.1'
p1245
sg907
S'-0.1'
p1246
sg64
S'81'
p1247
sg910
S'-3.6'
p1248
sg56
S'2000-01'
p1249
sg913
S'0.0'
p1250
sba(isrc.gp1.models.Advanced
Advanced
p1251
(dp1252
g869
S'6.1'
p1253
sg871
S'14.7'
p1254
sg873
S'.015'
p1255
sg875
S'1.0'
p1256
sg877
S'11.9'
p1257
sg879
S'12.3'
p1258
sg881
S'0.7'
p1259
sg22
g23
sg883
S'-0.6'
p1260
sg885
S'.398'
p1261
sg887
S'18.8'
p1262
sg889
S'.235'
p1263
sg891
S'.008'
p1264
sg28
S'NBA'
p1265
sg894
S'-6.4'
p1266
sg896
S'3.7'
p1267
sg898
S'0.8'
p1268
sg40
S'30'
p1269
sg42
S'TOR'
p1270
sg44
S'49'
p1271
sg903
S'2.6'
p1272
sg905
S'5.8'
p1273
sg907
S'-0.6'
p1274
sg64
S'655'
p1275
sg910
S'-5.6'
p1276
sg56
S'2001-02'
p1277
sg913
S'0.2'
p1278
sbasS'_per36Minutes'
p1279
(lp1280
(isrc.gp1.models.Per36Minutes
Per36Minutes
p1281
(dp1282
g8
S'3.0'
p1283
sg10
S'0.0'
p1284
sg12
S'.534'
p1285
sg14
S'0.6'
p1286
sg16
S'.000'
p1287
sg18
S'0.0'
p1288
sg20
S'12.1'
p1289
sg22
g23
sg24
S'.635'
p1290
sg28
S'NBA'
p1291
sg30
S'0.5'
p1292
sg32
S'8.9'
p1293
sg34
S'4.6'
p1294
sg36
S'4.1'
p1295
sg38
S'8.8'
p1296
sg40
S'23'
p1297
sg42
S'BOS'
p1298
sg44
S'78'
p1299
sg46
S'0.9'
p1300
sg48
S'4.8'
p1301
sg50
S'2.6'
p1302
sg52
S'8.9'
p1303
sg54
S'5.8'
p1304
sg56
S'1994-95'
p1305
sg58
S'4.8'
p1306
sg60
S'1.7'
p1307
sg62
S'.535'
p1308
sg64
S'2315'
p1309
sg66
S'75'
p1310
sba(isrc.gp1.models.Per36Minutes
Per36Minutes
p1311
(dp1312
g8
S'5.9'
p1313
sg10
S'0.0'
p1314
sg12
S'.566'
p1315
sg14
S'0.5'
p1316
sg16
S'4.9'
p1317
sg18
S'0.0'
p1318
sg20
g3
sg22
g23
sg24
S'3.0'
p1319
sg28
S'NBA'
p1320
sg30
S'0.7'
p1321
sg32
S'8.7'
p1322
sg34
S'11.1'
p1323
sg36
S'.376'
p1324
sg38
S'1.1'
p1325
sg40
S'24'
p1326
sg42
S'BOS'
p1327
sg44
S'61'
p1328
sg46
S'2.1'
p1329
sg48
S'8.7'
p1330
sg50
S'3.3'
p1331
sg52
S'.566'
p1332
sg54
S'8.8'
p1333
sg56
S'1995-96'
p1334
sg58
S'4.9'
p1335
sg60
S'4.6'
p1336
sg62
S'1.3'
p1337
sg64
S'1432'
p1338
sg66
S'59'
p1339
sba(isrc.gp1.models.Per36Minutes
Per36Minutes
p1340
(dp1341
g8
S'6.6'
p1342
sg10
S'0.0'
p1343
sg12
S'.456'
p1344
sg14
S'0.4'
p1345
sg16
S'3.1'
p1346
sg18
S'0.0'
p1347
sg20
g3
sg22
g23
sg24
S'3.6'
p1348
sg28
S'NBA'
p1349
sg30
S'1.4'
p1350
sg32
S'6.9'
p1351
sg34
S'6.7'
p1352
sg36
S'.339'
p1353
sg38
S'1.2'
p1354
sg40
S'25'
p1355
sg42
S'TOT'
p1356
sg44
S'78'
p1357
sg46
S'1.5'
p1358
sg48
S'6.9'
p1359
sg50
S'1.2'
p1360
sg52
S'.456'
p1361
sg54
S'10.2'
p1362
sg56
S'1996-97'
p1363
sg58
S'3.1'
p1364
sg60
S'5.3'
p1365
sg62
S'0.4'
p1366
sg64
S'1828'
p1367
sg66
S'77'
p1368
sba(isrc.gp1.models.Per36Minutes
Per36Minutes
p1369
(dp1370
g8
S'6.2'
p1371
sg10
S'0.0'
p1372
sg12
S'.460'
p1373
sg14
S'0.3'
p1374
sg16
S'3.1'
p1375
sg18
S'0.0'
p1376
sg20
g3
sg22
g23
sg24
S'2.4'
p1377
sg28
S'NBA'
p1378
sg30
S'1.2'
p1379
sg32
S'6.8'
p1380
sg34
S'6.7'
p1381
sg36
S'.294'
p1382
sg38
S'1.2'
p1383
sg40
S'25'
p1384
sg42
S'DAL'
p1385
sg44
S'47'
p1386
sg46
S'1.9'
p1387
sg48
S'6.8'
p1388
sg50
S'1.2'
p1389
sg52
S'.460'
p1390
sg54
S'8.6'
p1391
sg56
S'1996-97'
p1392
sg58
S'3.1'
p1393
sg60
S'5.5'
p1394
sg62
S'0.4'
p1395
sg64
S'984'
p1396
sg66
S'46'
p1397
sba(isrc.gp1.models.Per36Minutes
Per36Minutes
p1398
(dp1399
g8
S'7.1'
p1400
sg10
S'0.0'
p1401
sg12
S'.451'
p1402
sg14
S'0.5'
p1403
sg16
S'3.1'
p1404
sg18
S'0.0'
p1405
sg20
g3
sg22
g23
sg24
S'4.9'
p1406
sg28
S'NBA'
p1407
sg30
S'1.7'
p1408
sg32
S'6.9'
p1409
sg34
S'6.7'
p1410
sg36
S'.393'
p1411
sg38
S'1.2'
p1412
sg40
S'25'
p1413
sg42
S'NJN'
p1414
sg44
S'31'
p1415
sg46
S'1.1'
p1416
sg48
S'6.9'
p1417
sg50
S'1.2'
p1418
sg52
S'.451'
p1419
sg54
S'12.0'
p1420
sg56
S'1996-97'
p1421
sg58
S'3.1'
p1422
sg60
S'5.0'
p1423
sg62
S'0.5'
p1424
sg64
S'844'
p1425
sg66
S'31'
p1426
sba(isrc.gp1.models.Per36Minutes
Per36Minutes
p1427
(dp1428
g8
S'6.8'
p1429
sg10
S'0.0'
p1430
sg12
S'.424'
p1431
sg14
S'0.7'
p1432
sg16
S'3.2'
p1433
sg18
S'0.0'
p1434
sg20
g3
sg22
g23
sg24
S'3.6'
p1435
sg28
S'NBA'
p1436
sg30
S'1.4'
p1437
sg32
S'7.5'
p1438
sg34
S'7.2'
p1439
sg36
S'.400'
p1440
sg38
S'0.6'
p1441
sg40
S'26'
p1442
sg42
S'TOT'
p1443
sg44
S'48'
p1444
sg46
S'1.5'
p1445
sg48
S'7.5'
p1446
sg50
S'2.1'
p1447
sg52
S'.424'
p1448
sg54
S'10.4'
p1449
sg56
S'1997-98'
p1450
sg58
S'3.2'
p1451
sg60
S'6.6'
p1452
sg62
S'0.8'
p1453
sg64
S'691'
p1454
sg66
S'30'
p1455
sba(isrc.gp1.models.Per36Minutes
Per36Minutes
p1456
(dp1457
g8
S'6.8'
p1458
sg10
S'0.0'
p1459
sg12
S'.395'
p1460
sg14
S'0.7'
p1461
sg16
S'3.2'
p1462
sg18
S'0.0'
p1463
sg20
g3
sg22
g23
sg24
S'3.0'
p1464
sg28
S'NBA'
p1465
sg30
S'1.3'
p1466
sg32
S'8.1'
p1467
sg34
S'7.2'
p1468
sg36
S'.368'
p1469
sg38
S'0.7'
p1470
sg40
S'26'
p1471
sg42
S'PHI'
p1472
sg44
S'20'
p1473
sg46
S'1.6'
p1474
sg48
S'8.1'
p1475
sg50
S'2.0'
p1476
sg52
S'.395'
p1477
sg54
S'9.8'
p1478
sg56
S'1997-98'
p1479
sg58
S'3.2'
p1480
sg60
S'6.5'
p1481
sg62
S'0.7'
p1482
sg64
S'337'
p1483
sg66
S'20'
p1484
sba(isrc.gp1.models.Per36Minutes
Per36Minutes
p1485
(dp1486
g8
S'6.7'
p1487
sg10
S'0.0'
p1488
sg12
S'.456'
p1489
sg14
S'0.6'
p1490
sg16
S'3.2'
p1491
sg18
S'0.0'
p1492
sg20
g3
sg22
g23
sg24
S'4.2'
p1493
sg28
S'NBA'
p1494
sg30
S'1.5'
p1495
sg32
S'6.9'
p1496
sg34
S'7.2'
p1497
sg36
S'.429'
p1498
sg38
S'0.4'
p1499
sg40
S'26'
p1500
sg42
S'DET'
p1501
sg44
S'28'
p1502
sg46
S'1.4'
p1503
sg48
S'6.9'
p1504
sg50
S'2.1'
p1505
sg52
S'.456'
p1506
sg54
S'10.9'
p1507
sg56
S'1997-98'
p1508
sg58
S'3.2'
p1509
sg60
S'6.7'
p1510
sg62
S'0.9'
p1511
sg64
S'354'
p1512
sg66
S'10'
p1513
sba(isrc.gp1.models.Per36Minutes
Per36Minutes
p1514
(dp1515
g8
S'2.8'
p1516
sg10
S'0.1'
p1517
sg12
S'.525'
p1518
sg14
S'0.9'
p1519
sg16
S'.000'
p1520
sg18
S'0.0'
p1521
sg20
S'5.9'
p1522
sg22
g23
sg24
S'.344'
p1523
sg28
S'NBA'
p1524
sg30
S'0.7'
p1525
sg32
S'5.0'
p1526
sg34
S'6.7'
p1527
sg36
S'2.0'
p1528
sg38
S'8.7'
p1529
sg40
S'27'
p1530
sg42
S'DET'
p1531
sg44
S'46'
p1532
sg46
S'1.7'
p1533
sg48
S'2.6'
p1534
sg50
S'0.7'
p1535
sg52
S'4.9'
p1536
sg54
S'5.9'
p1537
sg56
S'1998-99'
p1538
sg58
S'2.6'
p1539
sg60
S'1.0'
p1540
sg62
S'.532'
p1541
sg64
S'577'
p1542
sg66
g289
sba(isrc.gp1.models.Per36Minutes
Per36Minutes
p1543
(dp1544
g8
S'5.9'
p1545
sg10
S'0.0'
p1546
sg12
S'.309'
p1547
sg14
S'0.7'
p1548
sg16
S'1.8'
p1549
sg18
S'0.0'
p1550
sg20
g3
sg22
g23
sg24
S'2.0'
p1551
sg28
S'NBA'
p1552
sg30
S'1.0'
p1553
sg32
S'6.0'
p1554
sg34
S'4.3'
p1555
sg36
S'.500'
p1556
sg38
S'0.8'
p1557
sg40
S'28'
p1558
sg42
S'DET'
p1559
sg44
S'51'
p1560
sg46
S'2.4'
p1561
sg48
S'6.0'
p1562
sg50
S'1.3'
p1563
sg52
S'.309'
p1564
sg54
S'7.8'
p1565
sg56
S'1999-00'
p1566
sg58
S'1.8'
p1567
sg60
S'8.8'
p1568
sg62
S'0.7'
p1569
sg64
S'332'
p1570
sg66
g19
sba(isrc.gp1.models.Per36Minutes
Per36Minutes
p1571
(dp1572
g8
S'6.7'
p1573
sg10
S'0.0'
p1574
sg12
S'.406'
p1575
sg14
S'0.6'
p1576
sg16
S'3.1'
p1577
sg18
S'0.0'
p1578
sg20
g3
sg22
g23
sg24
S'2.9'
p1579
sg28
S'NBA'
p1580
sg30
S'1.4'
p1581
sg32
S'7.7'
p1582
sg34
S'6.7'
p1583
sg36
S'.258'
p1584
sg38
S'1.1'
p1585
sg40
S'29'
p1586
sg42
S'TOT'
p1587
sg44
S'54'
p1588
sg46
S'2.3'
p1589
sg48
S'7.7'
p1590
sg50
S'1.7'
p1591
sg52
S'.406'
p1592
sg54
S'9.6'
p1593
sg56
S'2000-01'
p1594
sg58
S'3.1'
p1595
sg60
S'6.4'
p1596
sg62
S'0.4'
p1597
sg64
S'649'
p1598
sg66
S'21'
p1599
sba(isrc.gp1.models.Per36Minutes
Per36Minutes
p1600
(dp1601
g8
S'6.4'
p1602
sg10
S'0.0'
p1603
sg12
S'.413'
p1604
sg14
S'0.5'
p1605
sg16
S'3.2'
p1606
sg18
S'0.0'
p1607
sg20
g3
sg22
g23
sg24
S'2.7'
p1608
sg28
S'NBA'
p1609
sg30
S'1.5'
p1610
sg32
S'7.7'
p1611
sg34
S'6.8'
p1612
sg36
S'.269'
p1613
sg38
S'1.0'
p1614
sg40
S'29'
p1615
sg42
S'DET'
p1616
sg44
S'42'
p1617
sg46
S'2.3'
p1618
sg48
S'7.7'
p1619
sg50
S'1.6'
p1620
sg52
S'.413'
p1621
sg54
S'9.1'
p1622
sg56
S'2000-01'
p1623
sg58
S'3.2'
p1624
sg60
S'6.3'
p1625
sg62
S'0.4'
p1626
sg64
S'568'
p1627
sg66
S'20'
p1628
sba(isrc.gp1.models.Per36Minutes
Per36Minutes
p1629
(dp1630
g8
S'8.9'
p1631
sg10
S'0.0'
p1632
sg12
S'.353'
p1633
sg14
S'1.3'
p1634
sg16
S'2.7'
p1635
sg18
S'0.0'
p1636
sg20
g3
sg22
g23
sg24
S'4.0'
p1637
sg28
S'NBA'
p1638
sg30
S'1.3'
p1639
sg32
S'7.6'
p1640
sg34
S'5.8'
p1641
sg36
S'.200'
p1642
sg38
S'1.8'
p1643
sg40
S'29'
p1644
sg42
S'TOR'
p1645
sg44
S'12'
p1646
sg46
S'1.8'
p1647
sg48
S'7.6'
p1648
sg50
S'2.2'
p1649
sg52
S'.353'
p1650
sg54
S'12.9'
p1651
sg56
S'2000-01'
p1652
sg58
S'2.7'
p1653
sg60
S'6.7'
p1654
sg62
S'0.4'
p1655
sg64
S'81'
p1656
sg66
g11
sba(isrc.gp1.models.Per36Minutes
Per36Minutes
p1657
(dp1658
g8
S'2.0'
p1659
sg10
S'0.1'
p1660
sg12
S'.402'
p1661
sg14
S'0.9'
p1662
sg16
S'.000'
p1663
sg18
S'0.0'
p1664
sg20
S'6.4'
p1665
sg22
g23
sg24
S'.323'
p1666
sg28
S'NBA'
p1667
sg30
S'0.7'
p1668
sg32
S'7.3'
p1669
sg34
S'5.1'
p1670
sg36
S'1.7'
p1671
sg38
S'7.7'
p1672
sg40
S'30'
p1673
sg42
S'TOR'
p1674
sg44
S'49'
p1675
sg46
S'1.3'
p1676
sg48
S'2.9'
p1677
sg50
S'0.5'
p1678
sg52
S'7.2'
p1679
sg54
S'5.7'
p1680
sg56
S'2001-02'
p1681
sg58
S'2.9'
p1682
sg60
S'1.4'
p1683
sg62
S'.405'
p1684
sg64
S'655'
p1685
sg66
S'24'
p1686
sbasS'_fromYear'
p1687
S'1995'
p1688
sS'_url'
p1689
S'http://www.basketball-reference.com/players/m/montrer01.html'
p1690
sS'_perGame'
p1691
(isrc.gp1.models.PerGame
PerGame
p1692
(dp1693
g8
S'0.7'
p1694
sg10
S'0.0'
p1695
sg12
S'.402'
p1696
sS'_effectiveFieldGalPercentage'
p1697
S'.402'
p1698
sg14
S'0.3'
p1699
sg16
S'.000'
p1700
sg18
S'0.0'
p1701
sg20
S'2.4'
p1702
sg22
g23
sg24
S'.323'
p1703
sg28
S'NBA'
p1704
sg30
S'0.2'
p1705
sg34
S'1.9'
p1706
sS'_fieldGoalsttempted'
p1707
S'2.7'
p1708
sg36
S'0.6'
p1709
sg38
S'2.9'
p1710
sg40
S'30'
p1711
sg42
S'TOR'
p1712
sg44
S'49'
p1713
sg46
S'0.5'
p1714
sg48
S'1.1'
p1715
sg50
S'0.2'
p1716
sg52
S'2.7'
p1717
sg54
S'2.1'
p1718
sg56
S'2001-02'
p1719
sg58
S'1.1'
p1720
sg60
S'0.5'
p1721
sg62
S'.405'
p1722
sg64
S'13.4'
p1723
sg66
S'24'
p1724
sbsS'_weight'
p1725
S'270'
p1726
sS'_dob'
p1727
S'23-9-1971'
p1728
sS'_salary'
p1729
(lp1730
(isrc.gp1.models.Salary
Salary
p1731
(dp1732
g42
S'Boston Celtics'
p1733
sg28
S'NBA'
p1734
sg1729
S'$800,000'
p1735
sg56
S'1994-95'
p1736
sba(isrc.gp1.models.Salary
Salary
p1737
(dp1738
g42
S'Boston Celtics'
p1739
sg28
S'NBA'
p1740
sg1729
S'$1,040,000'
p1741
sg56
S'1995-96'
p1742
sba(isrc.gp1.models.Salary
Salary
p1743
(dp1744
g42
S'Dallas Mavericks'
p1745
sg28
S'NBA'
p1746
sg1729
S'$1,280,000'
p1747
sg56
S'1996-97'
p1748
sba(isrc.gp1.models.Salary
Salary
p1749
(dp1750
g42
S'Philadelphia 76ers'
p1751
sg28
S'NBA'
p1752
sg1729
S'$1,520,000'
p1753
sg56
S'1997-98'
p1754
sba(isrc.gp1.models.Salary
Salary
p1755
(dp1756
g42
S'Detroit Pistons'
p1757
sg28
S'NBA'
p1758
sg1729
S'$1,760,000'
p1759
sg56
S'1998-99'
p1760
sba(isrc.gp1.models.Salary
Salary
p1761
(dp1762
g42
S'Detroit Pistons'
p1763
sg28
S'NBA'
p1764
sg1729
S'$2,000,000'
p1765
sg56
S'1999-00'
p1766
sba(isrc.gp1.models.Salary
Salary
p1767
(dp1768
g42
S'Detroit Pistons'
p1769
sg28
S'NBA'
p1770
sg1729
S'$2,240,000'
p1771
sg56
S'2000-01'
p1772
sba(isrc.gp1.models.Salary
Salary
p1773
(dp1774
g42
S'Toronto Raptors'
p1775
sg28
S'NBA'
p1776
sg1729
S'$2,480,000'
p1777
sg56
S'2001-02'
p1778
sba(isrc.gp1.models.Salary
Salary
p1779
(dp1780
g42
S'Toronto Raptors'
p1781
sg28
S'NBA'
p1782
sg1729
S'$2,720,000'
p1783
sg56
S'2002-03'
p1784
sba(isrc.gp1.models.Salary
Salary
p1785
(dp1786
g42
S'Toronto Raptors'
p1787
sg28
S'NBA'
p1788
sg1729
S'$2,960,000'
p1789
sg56
S'2003-04'
p1790
sbasg22
g23
sb.