(isrc.gp1.models.Player
Player
p0
(dp1
S'_experience'
p2
S'NA'
p3
sS'_totals'
p4
(lp5
(isrc.gp1.models.Totals
Totals
p6
(dp7
S'_offensiveRebounds'
p8
g3
sS'_threePointsAttempted'
p9
S'.314'
p10
sS'_fieldGoalsPercentage'
p11
S'60'
p12
sS'_assist'
p13
g3
sS'_threePointsPercentage'
p14
S'.314'
p15
sS'_threePoints'
p16
S'191'
p17
sS'_points'
p18
g3
sS'_position'
p19
S'SG'
p20
sS'_freeThrowsPercentage'
p21
S'134'
p22
sS'_effectiveFieldGoalPercentage'
p23
S'100'
p24
sS'_league'
p25
S'NBA'
p26
sS'_steals'
p27
g3
sS'_fieldGoalsAttempted'
p28
S'.314'
p29
sS'_personalFouls'
p30
g3
sS'_freeThrowsAttempted'
p31
S'116'
p32
sS'_totalRebounds'
p33
g3
sS'_age'
p34
S'24'
p35
sS'_team'
p36
S'BOS'
p37
sS'_games'
p38
S'59'
p39
sS'_blocks'
p40
g3
sS'_twoPoints'
p41
S'14'
p42
sS'_freeThrows'
p43
S'55'
p44
sS'_twoPointsAttempted'
p45
S'25'
p46
sS'_defensiveRebounds'
p47
g3
sS'_season'
p48
S'1953-54'
p49
sS'_fieldGoals'
p50
S'191'
p51
sS'_turnOvers'
p52
g3
sS'_twoPointsPercentage'
p53
S'.560'
p54
sS'_minutesPlayed'
p55
S'60'
p56
sS'_gamesStarted'
p57
S'641'
p58
sba(isrc.gp1.models.Totals
Totals
p59
(dp60
g8
g3
sg9
g3
sg11
g3
sg13
g3
sg14
g3
sg16
g3
sg18
g3
sg19
g3
sg21
g3
sg23
g3
sg25
g3
sg27
g3
sg28
g3
sg30
g3
sg31
g3
sg33
g3
sg34
S'25'
p61
sg36
S'Did Not Play\xc2\xa0(retired)'
p62
sg38
g3
sg40
g3
sg41
g3
sg43
g3
sg45
g3
sg47
g3
sg48
S'1954-55'
p63
sg50
g3
sg52
g3
sg53
g3
sg55
g3
sg57
g3
sba(isrc.gp1.models.Totals
Totals
p64
(dp65
g8
g3
sg9
S'.388'
p66
sg11
S'207'
p67
sg13
g3
sg14
S'.388'
p68
sg16
S'533'
p69
sg18
g3
sg19
S'SG'
p70
sg21
S'507'
p71
sg23
S'243'
p72
sg25
S'NBA'
p73
sg27
g3
sg28
S'.388'
p74
sg30
g3
sg31
S'184'
p75
sg33
g3
sg34
S'26'
p76
sg36
S'BOS'
p77
sg38
S'72'
p78
sg40
g3
sg41
S'93'
p79
sg43
S'174'
p80
sg45
S'118'
p81
sg47
g3
sg48
S'1955-56'
p82
sg50
S'533'
p83
sg52
g3
sg53
S'.788'
p84
sg55
S'207'
p85
sg57
S'1451'
p86
sbasS'_college'
p87
S'Kansas State University'
p88
sS'_toYear'
p89
S'1956'
p90
sS'_height'
p91
S'6-3'
p92
sS'_active'
p93
I00
sS'_shootingHand'
p94
VRight
p95
sS'_name'
p96
S'Ernie Barrett'
p97
sS'_per100Possessions'
p98
(lp99
sS'_advanced'
p100
(lp101
(isrc.gp1.models.Advanced
Advanced
p102
(dp103
S'_offensiveReboundPercentage'
p104
S'0.3'
p105
sS'_turnOverPercentage'
p106
g3
sS'_winSharesPer48Minutes'
p107
g3
sS'_stealPercentage'
p108
g3
sS'_usagePercentage'
p109
g3
sS'_totalReboundsPercentage'
p110
S'-0.058'
p111
sS'_defensiveBoxPlusMinus'
p112
g3
sg19
S'SG'
p113
sS'_valueOverReplacementPlayer'
p114
g3
sS'_trueShootingPercentage'
p115
S'.332'
p116
sS'_defensiveReboundPercentage'
p117
S'-0.8'
p118
sS'_freeThrowsAttempRate'
p119
S'-1.1'
p120
sS'_threePointsAttempRate'
p121
S'.131'
p122
sg25
S'NBA'
p123
sS'_offensiveBoxPlusMinues'
p124
g3
sS'_assistPercentage'
p125
g3
sS'_defensiveWinShares'
p126
g3
sg34
S'24'
p127
sg36
S'BOS'
p128
sg38
S'59'
p129
sS'_blockPercentage'
p130
g3
sS'_playerEfficiencyRating'
p131
S'4.7'
p132
sS'_offensiveWinShares'
p133
g3
sg55
S'641'
p134
sS'_boxPlusMinus'
p135
g3
sg48
S'1953-54'
p136
sS'_winShares'
p137
g3
sba(isrc.gp1.models.Advanced
Advanced
p138
(dp139
g104
S'1.0'
p140
sg106
g3
sg107
g3
sg108
g3
sg109
g3
sg110
S'.051'
p141
sg112
g3
sg19
S'SG'
p142
sg114
g3
sg115
S'.433'
p143
sg117
S'1.5'
p144
sg119
S'0.5'
p145
sg121
S'.221'
p146
sg25
S'NBA'
p147
sg124
g3
sg125
g3
sg126
g3
sg34
S'26'
p148
sg36
S'BOS'
p149
sg38
S'72'
p150
sg130
g3
sg131
S'11.2'
p151
sg133
g3
sg55
S'1451'
p152
sg135
g3
sg48
S'1955-56'
p153
sg137
g3
sbasS'_per36Minutes'
p154
(lp155
(isrc.gp1.models.Per36Minutes
Per36Minutes
p156
(dp157
g8
g3
sg9
S'.314'
p158
sg11
S'3.4'
p159
sg13
g3
sg14
S'0.8'
p160
sg16
S'10.7'
p161
sg18
g3
sg19
S'SG'
p162
sg21
S'7.5'
p163
sg25
S'NBA'
p164
sg27
g3
sg28
S'.314'
p165
sg30
g3
sg31
S'6.5'
p166
sg33
g3
sg34
S'24'
p167
sg36
S'BOS'
p168
sg38
S'59'
p169
sg40
g3
sg41
S'1.4'
p170
sg43
S'3.1'
p171
sg45
S'.560'
p172
sg47
g3
sg48
S'1953-54'
p173
sg50
S'10.7'
p174
sg52
g3
sg53
S'5.6'
p175
sg55
S'3.4'
p176
sg57
S'641'
p177
sba(isrc.gp1.models.Per36Minutes
Per36Minutes
p178
(dp179
g8
g3
sg9
S'.388'
p180
sg11
S'5.1'
p181
sg13
g3
sg14
S'2.3'
p182
sg16
S'13.2'
p183
sg18
g3
sg19
S'SG'
p184
sg21
S'12.6'
p185
sg25
S'NBA'
p186
sg27
g3
sg28
S'.388'
p187
sg30
g3
sg31
S'4.6'
p188
sg33
g3
sg34
S'26'
p189
sg36
S'BOS'
p190
sg38
S'72'
p191
sg40
g3
sg41
S'2.9'
p192
sg43
S'4.3'
p193
sg45
S'.788'
p194
sg47
g3
sg48
S'1955-56'
p195
sg50
S'13.2'
p196
sg52
g3
sg53
S'6.0'
p197
sg55
S'5.1'
p198
sg57
S'1451'
p199
sbasS'_fromYear'
p200
S'1954'
p201
sS'_url'
p202
S'http://www.basketball-reference.com/players/b/barreer01.html'
p203
sS'_perGame'
p204
(isrc.gp1.models.PerGame
PerGame
p205
(dp206
g8
g3
sg9
S'.388'
p207
sg11
S'2.9'
p208
sS'_effectiveFieldGalPercentage'
p209
S'3.4'
p210
sg13
g3
sg14
S'.388'
p211
sg16
S'7.4'
p212
sg18
g3
sg19
S'SG'
p213
sg21
S'7.0'
p214
sg25
S'NBA'
p215
sg27
g3
sg30
g3
sS'_fieldGoalsttempted'
p216
S'.388'
p217
sg31
S'2.6'
p218
sg33
g3
sg34
S'26'
p219
sg36
S'BOS'
p220
sg38
S'72'
p221
sg40
g3
sg41
S'1.3'
p222
sg43
S'2.4'
p223
sg45
S'1.6'
p224
sg47
g3
sg48
S'1955-56'
p225
sg50
S'7.4'
p226
sg52
g3
sg53
S'.788'
p227
sg55
S'2.9'
p228
sg57
S'20.2'
p229
sbsS'_weight'
p230
S'180'
p231
sS'_dob'
p232
S'27-8-1929'
p233
sS'_salary'
p234
(lp235
sg19
S'G-F'
p236
sb.