(isrc.gp1.models.Player
Player
p0
(dp1
S'_experience'
p2
V8
p3
sS'_totals'
p4
(lp5
(isrc.gp1.models.Totals
Totals
p6
(dp7
S'_offensiveRebounds'
p8
S'22'
p9
sS'_threePointsAttempted'
p10
S'137'
p11
sS'_fieldGoalsPercentage'
p12
S'.422'
p13
sS'_assist'
p14
S'137'
p15
sS'_threePointsPercentage'
p16
S'.328'
p17
sS'_threePoints'
p18
S'45'
p19
sS'_points'
p20
S'320'
p21
sS'_position'
p22
S'PG'
p23
sS'_freeThrowsPercentage'
p24
S'.711'
p25
sS'_effectiveFieldGoalPercentage'
p26
S'.498'
p27
sS'_league'
p28
S'NBA'
p29
sS'_steals'
p30
S'44'
p31
sS'_fieldGoalsAttempted'
p32
S'294'
p33
sS'_personalFouls'
p34
S'77'
p35
sS'_freeThrowsAttempted'
p36
S'38'
p37
sS'_totalRebounds'
p38
S'119'
p39
sS'_age'
p40
S'20'
p41
sS'_team'
p42
S'LAL'
p43
sS'_games'
p44
S'72'
p45
sS'_blocks'
p46
S'7'
p47
sS'_twoPoints'
p48
S'79'
p49
sS'_freeThrows'
p50
S'27'
p51
sS'_twoPointsAttempted'
p52
S'157'
p53
sS'_defensiveRebounds'
p54
S'97'
p55
sS'_season'
p56
S'2006-07'
p57
sS'_fieldGoals'
p58
S'124'
p59
sS'_turnOvers'
p60
S'73'
p61
sS'_twoPointsPercentage'
p62
S'.503'
p63
sS'_minutesPlayed'
p64
S'1090'
p65
sS'_gamesStarted'
p66
S'2'
p67
sba(isrc.gp1.models.Totals
Totals
p68
(dp69
g8
S'39'
p70
sg10
S'307'
p71
sg12
S'.461'
p72
sg14
S'225'
p73
sg16
S'.371'
p74
sg18
S'114'
p75
sg20
S'749'
p76
sg22
S'PG'
p77
sg24
S'.679'
p78
sg26
S'.552'
p79
sg28
S'NBA'
p80
sg30
S'77'
p81
sg32
S'631'
p82
sg34
S'105'
p83
sg36
S'78'
p84
sg38
S'183'
p85
sg40
S'21'
p86
sg42
S'LAL'
p87
sg44
S'82'
p88
sg46
S'5'
p89
sg48
S'177'
p90
sg50
S'53'
p91
sg52
S'324'
p92
sg54
S'144'
p93
sg56
S'2007-08'
p94
sg58
S'291'
p95
sg60
S'108'
p96
sg62
S'.546'
p97
sg64
S'1690'
p98
sg66
S'0'
p99
sba(isrc.gp1.models.Totals
Totals
p100
(dp101
g8
S'22'
p102
sg10
S'146'
p103
sg12
S'.391'
p104
sg14
S'155'
p105
sg16
S'.336'
p106
sg18
S'49'
p107
sg20
S'416'
p108
sg22
S'PG'
p109
sg24
S'.584'
p110
sg26
S'.450'
p111
sg28
S'NBA'
p112
sg30
S'57'
p113
sg32
S'412'
p114
sg34
S'105'
p115
sg36
S'77'
p116
sg38
S'117'
p117
sg40
S'22'
p118
sg42
S'LAL'
p119
sg44
S'65'
p120
sg46
S'10'
p121
sg48
S'112'
p122
sg50
S'45'
p123
sg52
S'266'
p124
sg54
S'95'
p125
sg56
S'2008-09'
p126
sg58
S'161'
p127
sg60
S'87'
p128
sg62
S'.421'
p129
sg64
S'1192'
p130
sg66
g99
sba(isrc.gp1.models.Totals
Totals
p131
(dp132
g8
S'14'
p133
sg10
S'229'
p134
sg12
S'.435'
p135
sg14
S'127'
p136
sg16
S'.376'
p137
sg18
S'86'
p138
sg20
S'591'
p139
sg22
S'PG'
p140
sg24
S'.671'
p141
sg26
S'.518'
p142
sg28
S'NBA'
p143
sg30
S'52'
p144
sg32
S'515'
p145
sg34
S'109'
p146
sg36
S'85'
p147
sg38
S'131'
p148
sg40
S'23'
p149
sg42
S'LAL'
p150
sg44
S'82'
p151
sg46
S'11'
p152
sg48
S'138'
p153
sg50
S'57'
p154
sg52
S'286'
p155
sg54
S'117'
p156
sg56
S'2009-10'
p157
sg58
S'224'
p158
sg60
S'72'
p159
sg62
S'.483'
p160
sg64
S'1474'
p161
sg66
g99
sba(isrc.gp1.models.Totals
Totals
p162
(dp163
g8
S'24'
p164
sg10
S'304'
p165
sg12
S'.392'
p166
sg14
S'368'
p167
sg16
S'.359'
p168
sg18
S'109'
p169
sg20
S'701'
p170
sg22
S'PG'
p171
sg24
S'.820'
p172
sg26
S'.475'
p173
sg28
S'NBA'
p174
sg30
S'62'
p175
sg32
S'651'
p176
sg34
S'128'
p177
sg36
S'100'
p178
sg38
S'173'
p179
sg40
S'24'
p180
sg42
S'NJN'
p181
sg44
S'73'
p182
sg46
S'6'
p183
sg48
S'146'
p184
sg50
S'82'
p185
sg52
S'347'
p186
sg54
S'149'
p187
sg56
S'2010-11'
p188
sg58
S'255'
p189
sg60
S'139'
p190
sg62
S'.421'
p191
sg64
S'1796'
p192
sg66
S'18'
p193
sba(isrc.gp1.models.Totals
Totals
p194
(dp195
g8
g47
sg10
S'125'
p196
sg12
S'.467'
p197
sg14
S'129'
p198
sg16
S'.440'
p199
sg18
S'55'
p200
sg20
S'406'
p201
sg22
S'PG'
p202
sg24
S'.905'
p203
sg26
S'.554'
p204
sg28
S'NBA'
p205
sg30
S'24'
p206
sg32
S'315'
p207
sg34
S'49'
p208
sg36
S'63'
p209
sg38
S'61'
p210
sg40
S'25'
p211
sg42
S'NJN'
p212
sg44
S'39'
p213
sg46
g67
sg48
S'92'
p214
sg50
S'57'
p215
sg52
S'190'
p216
sg54
S'54'
p217
sg56
S'2011-12'
p218
sg58
S'147'
p219
sg60
S'68'
p220
sg62
S'.484'
p221
sg64
S'831'
p222
sg66
g89
sba(isrc.gp1.models.Totals
Totals
p223
(dp224
g8
S'NA'
p225
sg10
g225
sg12
g225
sg14
g225
sg16
g225
sg18
g225
sg20
g225
sg22
g225
sg24
g225
sg26
g225
sg28
g225
sg30
g225
sg32
g225
sg34
g225
sg36
g225
sg38
g225
sg40
S'26'
p226
sg42
S'Did Not Play'
p227
sg44
g225
sg46
g225
sg48
g225
sg50
g225
sg52
g225
sg54
g225
sg56
S'2012-13'
p228
sg58
g225
sg60
g225
sg62
g225
sg64
g225
sg66
g225
sba(isrc.gp1.models.Totals
Totals
p229
(dp230
g8
S'20'
p231
sg10
S'160'
p232
sg12
S'.415'
p233
sg14
S'199'
p234
sg16
S'.438'
p235
sg18
S'70'
p236
sg20
S'416'
p237
sg22
S'PG'
p238
sg24
S'.746'
p239
sg26
S'.511'
p240
sg28
S'NBA'
p241
sg30
S'38'
p242
sg32
S'364'
p243
sg34
S'65'
p244
sg36
S'59'
p245
sg38
S'104'
p246
sg40
S'27'
p247
sg42
S'LAL'
p248
sg44
S'41'
p249
sg46
S'8'
p250
sg48
S'81'
p251
sg50
S'44'
p252
sg52
S'204'
p253
sg54
S'84'
p254
sg56
S'2013-14'
p255
sg58
S'151'
p256
sg60
S'95'
p257
sg62
S'.397'
p258
sg64
S'912'
p259
sg66
g89
sba(isrc.gp1.models.Totals
Totals
p260
(dp261
g8
g250
sg10
S'97'
p262
sg12
S'.386'
p263
sg14
S'67'
p264
sg16
S'.361'
p265
sg18
S'35'
p266
sg20
S'167'
p267
sg22
S'PG'
p268
sg24
S'.909'
p269
sg26
S'.497'
p270
sg28
S'NBA'
p271
sg30
S'20'
p272
sg32
S'158'
p273
sg34
S'52'
p274
sg36
S'11'
p275
sg38
S'42'
p276
sg40
S'28'
p277
sg42
S'LAC'
p278
sg44
S'36'
p279
sg46
g89
sg48
S'26'
p280
sg50
S'10'
p281
sg52
S'61'
p282
sg54
S'34'
p283
sg56
S'2014-15'
p284
sg58
S'61'
p285
sg60
S'32'
p286
sg62
S'.426'
p287
sg64
S'529'
p288
sg66
g99
sbasS'_college'
p289
S'University of California, Los Angeles'
p290
sS'_toYear'
p291
S'2015'
p292
sS'_height'
p293
S'6-2'
p294
sS'_active'
p295
I01
sS'_shootingHand'
p296
VRight
p297
sS'_name'
p298
S'Jordan Farmar'
p299
sS'_per100Possessions'
p300
(lp301
(isrc.gp1.models.Per100Possession
Per100Possession
p302
(dp303
g8
S'1.0'
p304
sg10
S'6.4'
p305
sg12
S'.422'
p306
sS'_offensiveRating'
p307
S'99'
p308
sg14
S'6.4'
p309
sg16
S'.328'
p310
sg18
S'2.1'
p311
sg20
S'15.1'
p312
sg22
S'PG'
p313
sS'_defensiveRating'
p314
S'110'
p315
sg24
S'.711'
p316
sg28
S'NBA'
p317
sg30
S'2.1'
p318
sg32
S'13.8'
p319
sg34
S'3.6'
p320
sg36
S'1.8'
p321
sg38
S'5.6'
p322
sg40
S'20'
p323
sg42
S'LAL'
p324
sg44
S'72'
p325
sg46
S'0.3'
p326
sg48
S'3.7'
p327
sg50
S'1.3'
p328
sg52
S'7.4'
p329
sg54
S'4.6'
p330
sg56
S'2006-07'
p331
sg58
S'5.8'
p332
sg60
S'3.4'
p333
sg62
S'.503'
p334
sg64
S'1090'
p335
sg66
g67
sba(isrc.gp1.models.Per100Possession
Per100Possession
p336
(dp337
g8
S'1.2'
p338
sg10
S'9.1'
p339
sg12
S'.461'
p340
sg307
S'109'
p341
sg14
S'6.7'
p342
sg16
S'.371'
p343
sg18
S'3.4'
p344
sg20
S'22.3'
p345
sg22
S'PG'
p346
sg314
S'107'
p347
sg24
S'.679'
p348
sg28
S'NBA'
p349
sg30
S'2.3'
p350
sg32
S'18.7'
p351
sg34
S'3.1'
p352
sg36
S'2.3'
p353
sg38
S'5.4'
p354
sg40
S'21'
p355
sg42
S'LAL'
p356
sg44
S'82'
p357
sg46
S'0.1'
p358
sg48
S'5.3'
p359
sg50
S'1.6'
p360
sg52
S'9.6'
p361
sg54
S'4.3'
p362
sg56
S'2007-08'
p363
sg58
S'8.6'
p364
sg60
S'3.2'
p365
sg62
S'.546'
p366
sg64
S'1690'
p367
sg66
g99
sba(isrc.gp1.models.Per100Possession
Per100Possession
p368
(dp369
g8
S'0.9'
p370
sg10
S'6.2'
p371
sg12
S'.391'
p372
sg307
S'95'
p373
sg14
S'6.6'
p374
sg16
S'.336'
p375
sg18
S'2.1'
p376
sg20
S'17.8'
p377
sg22
S'PG'
p378
sg314
S'106'
p379
sg24
S'.584'
p380
sg28
S'NBA'
p381
sg30
S'2.4'
p382
sg32
S'17.6'
p383
sg34
S'4.5'
p384
sg36
S'3.3'
p385
sg38
S'5.0'
p386
sg40
S'22'
p387
sg42
S'LAL'
p388
sg44
S'65'
p389
sg46
S'0.4'
p390
sg48
S'4.8'
p391
sg50
S'1.9'
p392
sg52
S'11.4'
p393
sg54
S'4.1'
p394
sg56
S'2008-09'
p395
sg58
S'6.9'
p396
sg60
S'3.7'
p397
sg62
S'.421'
p398
sg64
S'1192'
p399
sg66
g99
sba(isrc.gp1.models.Per100Possession
Per100Possession
p400
(dp401
g8
S'0.5'
p402
sg10
S'8.0'
p403
sg12
S'.435'
p404
sg307
S'105'
p405
sg14
S'4.5'
p406
sg16
S'.376'
p407
sg18
S'3.0'
p408
sg20
S'20.7'
p409
sg22
S'PG'
p410
sg314
S'106'
p411
sg24
S'.671'
p412
sg28
S'NBA'
p413
sg30
S'1.8'
p414
sg32
S'18.1'
p415
sg34
S'3.8'
p416
sg36
S'3.0'
p417
sg38
S'4.6'
p418
sg40
S'23'
p419
sg42
S'LAL'
p420
sg44
S'82'
p421
sg46
S'0.4'
p422
sg48
S'4.8'
p423
sg50
S'2.0'
p424
sg52
S'10.0'
p425
sg54
S'4.1'
p426
sg56
S'2009-10'
p427
sg58
S'7.9'
p428
sg60
S'2.5'
p429
sg62
S'.483'
p430
sg64
S'1474'
p431
sg66
g99
sba(isrc.gp1.models.Per100Possession
Per100Possession
p432
(dp433
g8
S'0.7'
p434
sg10
S'9.0'
p435
sg12
S'.392'
p436
sg307
S'102'
p437
sg14
S'10.9'
p438
sg16
S'.359'
p439
sg18
S'3.2'
p440
sg20
S'20.8'
p441
sg22
S'PG'
p442
sg314
S'111'
p443
sg24
S'.820'
p444
sg28
S'NBA'
p445
sg30
S'1.8'
p446
sg32
S'19.4'
p447
sg34
S'3.8'
p448
sg36
S'3.0'
p449
sg38
S'5.1'
p450
sg40
S'24'
p451
sg42
S'NJN'
p452
sg44
S'73'
p453
sg46
S'0.2'
p454
sg48
S'4.3'
p455
sg50
S'2.4'
p456
sg52
S'10.3'
p457
sg54
S'4.4'
p458
sg56
S'2010-11'
p459
sg58
S'7.6'
p460
sg60
S'4.1'
p461
sg62
S'.421'
p462
sg64
S'1796'
p463
sg66
S'18'
p464
sba(isrc.gp1.models.Per100Possession
Per100Possession
p465
(dp466
g8
S'0.4'
p467
sg10
S'8.0'
p468
sg12
S'.467'
p469
sg307
S'111'
p470
sg14
S'8.3'
p471
sg16
S'.440'
p472
sg18
S'3.5'
p473
sg20
S'26.0'
p474
sg22
S'PG'
p475
sg314
S'113'
p476
sg24
S'.905'
p477
sg28
S'NBA'
p478
sg30
S'1.5'
p479
sg32
S'20.2'
p480
sg34
S'3.1'
p481
sg36
S'4.0'
p482
sg38
S'3.9'
p483
sg40
S'25'
p484
sg42
S'NJN'
p485
sg44
S'39'
p486
sg46
S'0.1'
p487
sg48
S'5.9'
p488
sg50
S'3.7'
p489
sg52
S'12.2'
p490
sg54
S'3.5'
p491
sg56
S'2011-12'
p492
sg58
S'9.4'
p493
sg60
S'4.4'
p494
sg62
S'.484'
p495
sg64
S'831'
p496
sg66
g89
sba(isrc.gp1.models.Per100Possession
Per100Possession
p497
(dp498
g8
S'1.1'
p499
sg10
S'8.5'
p500
sg12
S'.415'
p501
sg307
S'101'
p502
sg14
S'10.6'
p503
sg16
S'.438'
p504
sg18
S'3.7'
p505
sg20
S'22.2'
p506
sg22
S'PG'
p507
sg314
S'112'
p508
sg24
S'.746'
p509
sg28
S'NBA'
p510
sg30
S'2.0'
p511
sg32
S'19.4'
p512
sg34
S'3.5'
p513
sg36
S'3.1'
p514
sg38
S'5.5'
p515
sg40
S'27'
p516
sg42
S'LAL'
p517
sg44
S'41'
p518
sg46
S'0.4'
p519
sg48
S'4.3'
p520
sg50
S'2.3'
p521
sg52
S'10.9'
p522
sg54
S'4.5'
p523
sg56
S'2013-14'
p524
sg58
S'8.1'
p525
sg60
S'5.1'
p526
sg62
S'.397'
p527
sg64
S'912'
p528
sg66
g89
sba(isrc.gp1.models.Per100Possession
Per100Possession
p529
(dp530
g8
S'0.8'
p531
sg10
S'9.3'
p532
sg12
S'.386'
p533
sg307
S'101'
p534
sg14
S'6.4'
p535
sg16
S'.361'
p536
sg18
S'3.4'
p537
sg20
S'16.0'
p538
sg22
S'PG'
p539
sg314
S'108'
p540
sg24
S'.909'
p541
sg28
S'NBA'
p542
sg30
S'1.9'
p543
sg32
S'15.1'
p544
sg34
S'5.0'
p545
sg36
S'1.1'
p546
sg38
S'4.0'
p547
sg40
S'28'
p548
sg42
S'LAC'
p549
sg44
S'36'
p550
sg46
S'0.5'
p551
sg48
S'2.5'
p552
sg50
S'1.0'
p553
sg52
S'5.8'
p554
sg54
S'3.3'
p555
sg56
S'2014-15'
p556
sg58
S'5.8'
p557
sg60
S'3.1'
p558
sg62
S'.426'
p559
sg64
S'529'
p560
sg66
g99
sbasS'_advanced'
p561
(lp562
(isrc.gp1.models.Advanced
Advanced
p563
(dp564
S'_offensiveReboundPercentage'
p565
S'2.4'
p566
sS'_turnOverPercentage'
p567
S'19.0'
p568
sS'_winSharesPer48Minutes'
p569
S'.038'
p570
sS'_stealPercentage'
p571
S'2.1'
p572
sS'_usagePercentage'
p573
S'15.8'
p574
sS'_totalReboundsPercentage'
p575
S'6.4'
p576
sS'_defensiveBoxPlusMinus'
p577
S'-1.4'
p578
sg22
S'PG'
p579
sS'_valueOverReplacementPlayer'
p580
S'-0.3'
p581
sS'_trueShootingPercentage'
p582
S'.515'
p583
sS'_defensiveReboundPercentage'
p584
S'10.3'
p585
sS'_freeThrowsAttempRate'
p586
S'.129'
p587
sS'_threePointsAttempRate'
p588
S'.466'
p589
sg28
S'NBA'
p590
sS'_offensiveBoxPlusMinues'
p591
S'-1.6'
p592
sS'_assistPercentage'
p593
S'19.0'
p594
sS'_defensiveWinShares'
p595
S'0.7'
p596
sg40
S'20'
p597
sg42
S'LAL'
p598
sg44
S'72'
p599
sS'_blockPercentage'
p600
S'0.5'
p601
sS'_playerEfficiencyRating'
p602
S'10.8'
p603
sS'_offensiveWinShares'
p604
S'0.2'
p605
sg64
S'1090'
p606
sS'_boxPlusMinus'
p607
S'-2.9'
p608
sg56
S'2006-07'
p609
sS'_winShares'
p610
S'0.9'
p611
sba(isrc.gp1.models.Advanced
Advanced
p612
(dp613
g565
S'2.7'
p614
sg567
S'14.0'
p615
sg569
S'.111'
p616
sg571
S'2.3'
p617
sg573
S'20.2'
p618
sg575
S'6.0'
p619
sg577
S'-1.2'
p620
sg22
S'PG'
p621
sg580
S'1.2'
p622
sg582
S'.563'
p623
sg584
S'9.1'
p624
sg586
S'.124'
p625
sg588
S'.487'
p626
sg28
S'NBA'
p627
sg591
S'1.9'
p628
sg593
S'20.5'
p629
sg595
S'1.8'
p630
sg40
S'21'
p631
sg42
S'LAL'
p632
sg44
S'82'
p633
sg600
S'0.2'
p634
sg602
S'15.4'
p635
sg604
S'2.1'
p636
sg64
S'1690'
p637
sg607
S'0.7'
p638
sg56
S'2007-08'
p639
sg610
S'3.9'
p640
sba(isrc.gp1.models.Advanced
Advanced
p641
(dp642
g565
S'2.1'
p643
sg567
S'16.3'
p644
sg569
S'.034'
p645
sg571
S'2.4'
p646
sg573
S'19.6'
p647
sg575
S'5.5'
p648
sg577
S'-0.5'
p649
sg22
S'PG'
p650
sg580
S'-0.3'
p651
sg582
S'.466'
p652
sg584
S'8.9'
p653
sg586
S'.187'
p654
sg588
S'.354'
p655
sg28
S'NBA'
p656
sg591
S'-2.4'
p657
sg593
S'18.6'
p658
sg595
S'1.5'
p659
sg40
S'22'
p660
sg42
S'LAL'
p661
sg44
S'65'
p662
sg600
S'0.6'
p663
sg602
S'9.9'
p664
sg604
S'-0.7'
p665
sg64
S'1192'
p666
sg607
S'-2.9'
p667
sg56
S'2008-09'
p668
sg610
S'0.8'
p669
sba(isrc.gp1.models.Advanced
Advanced
p670
(dp671
g565
S'1.1'
p672
sg567
S'11.5'
p673
sg569
S'.093'
p674
sg571
S'1.8'
p675
sg573
S'19.0'
p676
sg575
S'5.0'
p677
sg577
S'-1.0'
p678
sg22
S'PG'
p679
sg580
S'0.2'
p680
sg582
S'.535'
p681
sg584
S'8.8'
p682
sg586
S'.165'
p683
sg588
S'.445'
p684
sg28
S'NBA'
p685
sg591
S'-0.5'
p686
sg593
S'13.4'
p687
sg595
S'1.8'
p688
sg40
S'23'
p689
sg42
S'LAL'
p690
sg44
S'82'
p691
sg600
S'0.6'
p692
sg602
S'12.3'
p693
sg604
S'1.0'
p694
sg64
S'1474'
p695
sg607
S'-1.4'
p696
sg56
S'2009-10'
p697
sg610
S'2.8'
p698
sba(isrc.gp1.models.Advanced
Advanced
p699
(dp700
g565
S'1.5'
p701
sg567
S'16.7'
p702
sg569
S'.050'
p703
sg571
S'1.8'
p704
sg573
S'21.6'
p705
sg575
S'5.7'
p706
sg577
S'-2.1'
p707
sg22
S'PG'
p708
sg580
S'0.5'
p709
sg582
S'.504'
p710
sg584
S'10.1'
p711
sg586
S'.154'
p712
sg588
S'.467'
p713
sg28
S'NBA'
p714
sg591
S'1.2'
p715
sg593
S'34.9'
p716
sg595
S'1.0'
p717
sg40
S'24'
p718
sg42
S'NJN'
p719
sg44
S'73'
p720
sg600
S'0.3'
p721
sg602
S'14.1'
p722
sg604
S'0.8'
p723
sg64
S'1796'
p724
sg607
S'-0.9'
p725
sg56
S'2010-11'
p726
sg610
S'1.9'
p727
sba(isrc.gp1.models.Advanced
Advanced
p728
(dp729
g565
S'1.0'
p730
sg567
S'16.6'
p731
sg569
S'.104'
p732
sg571
S'1.5'
p733
sg573
S'22.6'
p734
sg575
S'4.3'
p735
sg577
S'-4.1'
p736
sg22
S'PG'
p737
sg580
S'0.1'
p738
sg582
S'.592'
p739
sg584
S'7.8'
p740
sg586
S'.200'
p741
sg588
S'.397'
p742
sg28
S'NBA'
p743
sg591
S'2.4'
p744
sg593
S'29.0'
p745
sg595
S'0.0'
p746
sg40
S'25'
p747
sg42
S'NJN'
p748
sg44
S'39'
p749
sg600
S'0.2'
p750
sg602
S'17.4'
p751
sg604
S'1.8'
p752
sg64
S'831'
p753
sg607
S'-1.8'
p754
sg56
S'2011-12'
p755
sg610
S'1.8'
p756
sba(isrc.gp1.models.Advanced
Advanced
p757
(dp758
g565
S'2.3'
p759
sg567
S'19.6'
p760
sg569
S'.039'
p761
sg571
S'2.0'
p762
sg573
S'23.2'
p763
sg575
S'6.1'
p764
sg577
S'-2.0'
p765
sg22
S'PG'
p766
sg580
S'0.2'
p767
sg582
S'.533'
p768
sg584
S'9.8'
p769
sg586
S'.162'
p770
sg588
S'.440'
p771
sg28
S'NBA'
p772
sg591
S'0.9'
p773
sg593
S'34.6'
p774
sg595
S'0.4'
p775
sg40
S'27'
p776
sg42
S'LAL'
p777
sg44
S'41'
p778
sg600
S'0.6'
p779
sg602
S'15.0'
p780
sg604
S'0.4'
p781
sg64
S'912'
p782
sg607
S'-1.1'
p783
sg56
S'2013-14'
p784
sg610
S'0.7'
p785
sba(isrc.gp1.models.Advanced
Advanced
p786
(dp787
g565
S'1.7'
p788
sg567
S'16.4'
p789
sg569
S'.053'
p790
sg571
S'1.9'
p791
sg573
S'16.6'
p792
sg575
S'4.5'
p793
sg577
S'-1.3'
p794
sg22
S'PG'
p795
sg580
S'0.0'
p796
sg582
S'.513'
p797
sg584
S'7.1'
p798
sg586
S'.070'
p799
sg588
S'.614'
p800
sg28
S'NBA'
p801
sg591
S'-0.7'
p802
sg593
S'18.0'
p803
sg595
S'0.4'
p804
sg40
S'28'
p805
sg42
S'LAC'
p806
sg44
S'36'
p807
sg600
S'0.8'
p808
sg602
S'9.9'
p809
sg604
S'0.2'
p810
sg64
S'529'
p811
sg607
S'-2.0'
p812
sg56
S'2014-15'
p813
sg610
S'0.6'
p814
sbasS'_per36Minutes'
p815
(lp816
(isrc.gp1.models.Per36Minutes
Per36Minutes
p817
(dp818
g8
S'0.7'
p819
sg10
S'4.5'
p820
sg12
S'.422'
p821
sg14
S'4.5'
p822
sg16
S'.328'
p823
sg18
S'1.5'
p824
sg20
S'10.6'
p825
sg22
S'PG'
p826
sg24
S'.711'
p827
sg28
S'NBA'
p828
sg30
S'1.5'
p829
sg32
S'9.7'
p830
sg34
S'2.5'
p831
sg36
S'1.3'
p832
sg38
S'3.9'
p833
sg40
S'20'
p834
sg42
S'LAL'
p835
sg44
S'72'
p836
sg46
S'0.2'
p837
sg48
S'2.6'
p838
sg50
S'0.9'
p839
sg52
S'5.2'
p840
sg54
S'3.2'
p841
sg56
S'2006-07'
p842
sg58
S'4.1'
p843
sg60
S'2.4'
p844
sg62
S'.503'
p845
sg64
S'1090'
p846
sg66
g67
sba(isrc.gp1.models.Per36Minutes
Per36Minutes
p847
(dp848
g8
S'0.8'
p849
sg10
S'6.5'
p850
sg12
S'.461'
p851
sg14
S'4.8'
p852
sg16
S'.371'
p853
sg18
S'2.4'
p854
sg20
S'16.0'
p855
sg22
S'PG'
p856
sg24
S'.679'
p857
sg28
S'NBA'
p858
sg30
S'1.6'
p859
sg32
S'13.4'
p860
sg34
S'2.2'
p861
sg36
S'1.7'
p862
sg38
S'3.9'
p863
sg40
S'21'
p864
sg42
S'LAL'
p865
sg44
S'82'
p866
sg46
S'0.1'
p867
sg48
S'3.8'
p868
sg50
S'1.1'
p869
sg52
S'6.9'
p870
sg54
S'3.1'
p871
sg56
S'2007-08'
p872
sg58
S'6.2'
p873
sg60
S'2.3'
p874
sg62
S'.546'
p875
sg64
S'1690'
p876
sg66
g99
sba(isrc.gp1.models.Per36Minutes
Per36Minutes
p877
(dp878
g8
S'0.7'
p879
sg10
S'4.4'
p880
sg12
S'.391'
p881
sg14
S'4.7'
p882
sg16
S'.336'
p883
sg18
S'1.5'
p884
sg20
S'12.6'
p885
sg22
S'PG'
p886
sg24
S'.584'
p887
sg28
S'NBA'
p888
sg30
S'1.7'
p889
sg32
S'12.4'
p890
sg34
S'3.2'
p891
sg36
S'2.3'
p892
sg38
S'3.5'
p893
sg40
S'22'
p894
sg42
S'LAL'
p895
sg44
S'65'
p896
sg46
S'0.3'
p897
sg48
S'3.4'
p898
sg50
S'1.4'
p899
sg52
S'8.0'
p900
sg54
S'2.9'
p901
sg56
S'2008-09'
p902
sg58
S'4.9'
p903
sg60
S'2.6'
p904
sg62
S'.421'
p905
sg64
S'1192'
p906
sg66
g99
sba(isrc.gp1.models.Per36Minutes
Per36Minutes
p907
(dp908
g8
S'0.3'
p909
sg10
S'5.6'
p910
sg12
S'.435'
p911
sg14
S'3.1'
p912
sg16
S'.376'
p913
sg18
S'2.1'
p914
sg20
S'14.4'
p915
sg22
S'PG'
p916
sg24
S'.671'
p917
sg28
S'NBA'
p918
sg30
S'1.3'
p919
sg32
S'12.6'
p920
sg34
S'2.7'
p921
sg36
S'2.1'
p922
sg38
S'3.2'
p923
sg40
S'23'
p924
sg42
S'LAL'
p925
sg44
S'82'
p926
sg46
S'0.3'
p927
sg48
S'3.4'
p928
sg50
S'1.4'
p929
sg52
S'7.0'
p930
sg54
S'2.9'
p931
sg56
S'2009-10'
p932
sg58
S'5.5'
p933
sg60
S'1.8'
p934
sg62
S'.483'
p935
sg64
S'1474'
p936
sg66
g99
sba(isrc.gp1.models.Per36Minutes
Per36Minutes
p937
(dp938
g8
S'0.5'
p939
sg10
S'6.1'
p940
sg12
S'.392'
p941
sg14
S'7.4'
p942
sg16
S'.359'
p943
sg18
S'2.2'
p944
sg20
S'14.1'
p945
sg22
S'PG'
p946
sg24
S'.820'
p947
sg28
S'NBA'
p948
sg30
S'1.2'
p949
sg32
S'13.0'
p950
sg34
S'2.6'
p951
sg36
S'2.0'
p952
sg38
S'3.5'
p953
sg40
S'24'
p954
sg42
S'NJN'
p955
sg44
S'73'
p956
sg46
S'0.1'
p957
sg48
S'2.9'
p958
sg50
S'1.6'
p959
sg52
S'7.0'
p960
sg54
S'3.0'
p961
sg56
S'2010-11'
p962
sg58
S'5.1'
p963
sg60
S'2.8'
p964
sg62
S'.421'
p965
sg64
S'1796'
p966
sg66
S'18'
p967
sba(isrc.gp1.models.Per36Minutes
Per36Minutes
p968
(dp969
g8
S'0.3'
p970
sg10
S'5.4'
p971
sg12
S'.467'
p972
sg14
S'5.6'
p973
sg16
S'.440'
p974
sg18
S'2.4'
p975
sg20
S'17.6'
p976
sg22
S'PG'
p977
sg24
S'.905'
p978
sg28
S'NBA'
p979
sg30
S'1.0'
p980
sg32
S'13.6'
p981
sg34
S'2.1'
p982
sg36
S'2.7'
p983
sg38
S'2.6'
p984
sg40
S'25'
p985
sg42
S'NJN'
p986
sg44
S'39'
p987
sg46
S'0.1'
p988
sg48
S'4.0'
p989
sg50
S'2.5'
p990
sg52
S'8.2'
p991
sg54
S'2.3'
p992
sg56
S'2011-12'
p993
sg58
S'6.4'
p994
sg60
S'2.9'
p995
sg62
S'.484'
p996
sg64
S'831'
p997
sg66
g89
sba(isrc.gp1.models.Per36Minutes
Per36Minutes
p998
(dp999
g8
S'0.8'
p1000
sg10
S'6.3'
p1001
sg12
S'.415'
p1002
sg14
S'7.9'
p1003
sg16
S'.438'
p1004
sg18
S'2.8'
p1005
sg20
S'16.4'
p1006
sg22
S'PG'
p1007
sg24
S'.746'
p1008
sg28
S'NBA'
p1009
sg30
S'1.5'
p1010
sg32
S'14.4'
p1011
sg34
S'2.6'
p1012
sg36
S'2.3'
p1013
sg38
S'4.1'
p1014
sg40
S'27'
p1015
sg42
S'LAL'
p1016
sg44
S'41'
p1017
sg46
S'0.3'
p1018
sg48
S'3.2'
p1019
sg50
S'1.7'
p1020
sg52
S'8.1'
p1021
sg54
S'3.3'
p1022
sg56
S'2013-14'
p1023
sg58
S'6.0'
p1024
sg60
S'3.7'
p1025
sg62
S'.397'
p1026
sg64
S'912'
p1027
sg66
g89
sba(isrc.gp1.models.Per36Minutes
Per36Minutes
p1028
(dp1029
g8
S'0.5'
p1030
sg10
S'6.6'
p1031
sg12
S'.386'
p1032
sg14
S'4.6'
p1033
sg16
S'.361'
p1034
sg18
S'2.4'
p1035
sg20
S'11.4'
p1036
sg22
S'PG'
p1037
sg24
S'.909'
p1038
sg28
S'NBA'
p1039
sg30
S'1.4'
p1040
sg32
S'10.8'
p1041
sg34
S'3.5'
p1042
sg36
S'0.7'
p1043
sg38
S'2.9'
p1044
sg40
S'28'
p1045
sg42
S'LAC'
p1046
sg44
S'36'
p1047
sg46
S'0.3'
p1048
sg48
S'1.8'
p1049
sg50
S'0.7'
p1050
sg52
S'4.2'
p1051
sg54
S'2.3'
p1052
sg56
S'2014-15'
p1053
sg58
S'4.2'
p1054
sg60
S'2.2'
p1055
sg62
S'.426'
p1056
sg64
S'529'
p1057
sg66
g99
sbasS'_fromYear'
p1058
S'2007'
p1059
sS'_url'
p1060
S'http://www.basketball-reference.com/players/f/farmajo01.html'
p1061
sS'_perGame'
p1062
(isrc.gp1.models.PerGame
PerGame
p1063
(dp1064
g8
S'0.2'
p1065
sg10
S'2.7'
p1066
sg12
S'.386'
p1067
sS'_effectiveFieldGalPercentage'
p1068
S'.497'
p1069
sg14
S'1.9'
p1070
sg16
S'.361'
p1071
sg18
S'1.0'
p1072
sg20
S'4.6'
p1073
sg22
S'PG'
p1074
sg24
S'.909'
p1075
sg28
S'NBA'
p1076
sg30
S'0.6'
p1077
sg34
S'1.4'
p1078
sS'_fieldGoalsttempted'
p1079
S'4.4'
p1080
sg36
S'0.3'
p1081
sg38
S'1.2'
p1082
sg40
S'28'
p1083
sg42
S'LAC'
p1084
sg44
S'36'
p1085
sg46
S'0.1'
p1086
sg48
S'0.7'
p1087
sg50
S'0.3'
p1088
sg52
S'1.7'
p1089
sg54
S'0.9'
p1090
sg56
S'2014-15'
p1091
sg58
S'1.7'
p1092
sg60
S'0.9'
p1093
sg62
S'.426'
p1094
sg64
S'14.7'
p1095
sg66
g99
sbsS'_weight'
p1096
S'180'
p1097
sS'_dob'
p1098
S'30-11-1986'
p1099
sS'_salary'
p1100
(lp1101
(isrc.gp1.models.Salary
Salary
p1102
(dp1103
g42
S'Los Angeles Lakers'
p1104
sg28
S'NBA'
p1105
sg1100
S'$939,120'
p1106
sg56
S'2006-07'
p1107
sba(isrc.gp1.models.Salary
Salary
p1108
(dp1109
g42
S'Los Angeles Lakers'
p1110
sg28
S'NBA'
p1111
sg1100
S'$1,009,560'
p1112
sg56
S'2007-08'
p1113
sba(isrc.gp1.models.Salary
Salary
p1114
(dp1115
g42
S'Los Angeles Lakers'
p1116
sg28
S'NBA'
p1117
sg1100
S'$1,080,000'
p1118
sg56
S'2008-09'
p1119
sba(isrc.gp1.models.Salary
Salary
p1120
(dp1121
g42
S'Los Angeles Lakers'
p1122
sg28
S'NBA'
p1123
sg1100
S'$1,947,240'
p1124
sg56
S'2009-10'
p1125
sba(isrc.gp1.models.Salary
Salary
p1126
(dp1127
g42
S'New Jersey Nets'
p1128
sg28
S'NBA'
p1129
sg1100
S'$3,750,000'
p1130
sg56
S'2010-11'
p1131
sba(isrc.gp1.models.Salary
Salary
p1132
(dp1133
g42
S'New Jersey Nets'
p1134
sg28
S'NBA'
p1135
sg1100
S'$4,000,000'
p1136
sg56
S'2011-12'
p1137
sba(isrc.gp1.models.Salary
Salary
p1138
(dp1139
g42
S'Atlanta Hawks'
p1140
sg28
S'NBA'
p1141
sg1100
S'$1,500,000'
p1142
sg56
S'2012-13'
p1143
sba(isrc.gp1.models.Salary
Salary
p1144
(dp1145
g42
S'Los Angeles Lakers'
p1146
sg28
S'NBA'
p1147
sg1100
S'$1,106,941'
p1148
sg56
S'2013-14'
p1149
sba(isrc.gp1.models.Salary
Salary
p1150
(dp1151
g42
S'Los Angeles Clippers'
p1152
sg28
S'NBA'
p1153
sg1100
S'$2,077,000'
p1154
sg56
S'2014-15'
p1155
sbasg22
S'G'
p1156
sb.