(isrc.gp1.models.Player
Player
p0
(dp1
S'_experience'
p2
S'NA'
p3
sS'_totals'
p4
(lp5
(isrc.gp1.models.Totals
Totals
p6
(dp7
S'_offensiveRebounds'
p8
g3
sS'_threePointsAttempted'
p9
g3
sS'_fieldGoalsPercentage'
p10
S'.358'
p11
sS'_assist'
p12
S'163'
p13
sS'_threePointsPercentage'
p14
g3
sS'_threePoints'
p15
g3
sS'_points'
p16
S'546'
p17
sS'_position'
p18
S'SF'
p19
sS'_freeThrowsPercentage'
p20
S'.695'
p21
sS'_effectiveFieldGoalPercentage'
p22
S'.358'
p23
sS'_league'
p24
S'NBA'
p25
sS'_steals'
p26
g3
sS'_fieldGoalsAttempted'
p27
S'534'
p28
sS'_personalFouls'
p29
S'192'
p30
sS'_freeThrowsAttempted'
p31
S'236'
p32
sS'_totalRebounds'
p33
S'186'
p34
sS'_age'
p35
S'22'
p36
sS'_team'
p37
S'STL'
p38
sS'_games'
p39
S'68'
p40
sS'_blocks'
p41
g3
sS'_twoPoints'
p42
S'191'
p43
sS'_freeThrows'
p44
S'164'
p45
sS'_twoPointsAttempted'
p46
S'534'
p47
sS'_defensiveRebounds'
p48
g3
sS'_season'
p49
S'1955-56'
p50
sS'_fieldGoals'
p51
S'191'
p52
sS'_turnOvers'
p53
g3
sS'_twoPointsPercentage'
p54
S'.358'
p55
sS'_minutesPlayed'
p56
S'1611'
p57
sS'_gamesStarted'
p58
g3
sba(isrc.gp1.models.Totals
Totals
p59
(dp60
g8
g3
sg9
g3
sg10
g3
sg12
g3
sg14
g3
sg15
g3
sg16
g3
sg18
g3
sg20
g3
sg22
g3
sg24
g3
sg26
g3
sg27
g3
sg29
g3
sg31
g3
sg33
g3
sg35
S'23'
p61
sg37
S'Did Not Play\xc2\xa0(military service\xe2\x80\x94U.S. Army)'
p62
sg39
g3
sg41
g3
sg42
g3
sg44
g3
sg46
g3
sg48
g3
sg49
S'1956-57'
p63
sg51
g3
sg53
g3
sg54
g3
sg56
g3
sg58
g3
sba(isrc.gp1.models.Totals
Totals
p64
(dp65
g8
g3
sg9
g3
sg10
g3
sg12
g3
sg14
g3
sg15
g3
sg16
g3
sg18
g3
sg20
g3
sg22
g3
sg24
g3
sg26
g3
sg27
g3
sg29
g3
sg31
g3
sg33
g3
sg35
S'24'
p66
sg37
S'Did Not Play\xc2\xa0(military service\xe2\x80\x94U.S. Army)'
p67
sg39
g3
sg41
g3
sg42
g3
sg44
g3
sg46
g3
sg48
g3
sg49
S'1957-58'
p68
sg51
g3
sg53
g3
sg54
g3
sg56
g3
sg58
g3
sba(isrc.gp1.models.Totals
Totals
p69
(dp70
g8
g3
sg9
g3
sg10
S'.348'
p71
sg12
S'122'
p72
sg14
g3
sg15
g3
sg16
S'413'
p73
sg18
S'SG'
p74
sg20
S'.729'
p75
sg22
S'.348'
p76
sg24
S'NBA'
p77
sg26
g3
sg27
S'385'
p78
sg29
S'155'
p79
sg31
S'199'
p80
sg33
S'142'
p81
sg35
S'25'
p82
sg37
S'STL'
p83
sg39
S'72'
p84
sg41
g3
sg42
S'134'
p85
sg44
S'145'
p86
sg46
S'385'
p87
sg48
g3
sg49
S'1958-59'
p88
sg51
S'134'
p89
sg53
g3
sg54
S'.348'
p90
sg56
S'1189'
p91
sg58
g3
sba(isrc.gp1.models.Totals
Totals
p92
(dp93
g8
g3
sg9
g3
sg10
S'.413'
p94
sg12
S'188'
p95
sg14
g3
sg15
g3
sg16
S'608'
p96
sg18
S'SG'
p97
sg20
S'.782'
p98
sg22
S'.413'
p99
sg24
S'NBA'
p100
sg26
g3
sg27
S'523'
p101
sg29
S'205'
p102
sg31
S'225'
p103
sg33
S'162'
p104
sg35
S'26'
p105
sg37
S'STL'
p106
sg39
S'71'
p107
sg41
g3
sg42
S'216'
p108
sg44
S'176'
p109
sg46
S'523'
p110
sg48
g3
sg49
S'1959-60'
p111
sg51
S'216'
p112
sg53
g3
sg54
S'.413'
p113
sg56
S'1567'
p114
sg58
g3
sba(isrc.gp1.models.Totals
Totals
p115
(dp116
g8
g3
sg9
g3
sg10
S'.357'
p117
sg12
S'143'
p118
sg14
g3
sg15
g3
sg16
S'329'
p119
sg18
S'SG'
p120
sg20
S'.819'
p121
sg22
S'.357'
p122
sg24
S'NBA'
p123
sg26
g3
sg27
S'328'
p124
sg29
S'157'
p125
sg31
S'116'
p126
sg33
S'115'
p127
sg35
S'27'
p128
sg37
S'STL'
p129
sg39
S'63'
p130
sg41
g3
sg42
S'117'
p131
sg44
S'95'
p132
sg46
S'328'
p133
sg48
g3
sg49
S'1960-61'
p134
sg51
S'117'
p135
sg53
g3
sg54
S'.357'
p136
sg56
S'1031'
p137
sg58
g3
sba(isrc.gp1.models.Totals
Totals
p138
(dp139
g8
g3
sg9
g3
sg10
S'.357'
p140
sg12
S'313'
p141
sg14
g3
sg15
g3
sg16
S'591'
p142
sg18
S'SG'
p143
sg20
S'.799'
p144
sg22
S'.357'
p145
sg24
S'NBA'
p146
sg26
g3
sg27
S'582'
p147
sg29
S'278'
p148
sg31
S'219'
p149
sg33
S'213'
p150
sg35
S'28'
p151
sg37
S'STL'
p152
sg39
S'79'
p153
sg41
g3
sg42
S'208'
p154
sg44
S'175'
p155
sg46
S'582'
p156
sg48
g3
sg49
S'1961-62'
p157
sg51
S'208'
p158
sg53
g3
sg54
S'.357'
p159
sg56
S'2046'
p160
sg58
g3
sba(isrc.gp1.models.Totals
Totals
p161
(dp162
g8
g3
sg9
g3
sg10
S'.324'
p163
sg12
S'14'
p164
sg14
g3
sg15
g3
sg16
S'38'
p165
sg18
g3
sg20
S'.824'
p166
sg22
S'.324'
p167
sg24
S'NBA'
p168
sg26
g3
sg27
S'37'
p169
sg29
S'21'
p170
sg31
S'17'
p171
sg33
S'12'
p172
sg35
S'29'
p173
sg37
S'CHZ'
p174
sg39
S'18'
p175
sg41
g3
sg42
S'12'
p176
sg44
S'14'
p177
sg46
S'37'
p178
sg48
g3
sg49
S'1962-63'
p179
sg51
S'12'
p180
sg53
g3
sg54
S'.324'
p181
sg56
S'138'
p182
sg58
g3
sbasS'_college'
p183
S'Michigan State University'
p184
sS'_toYear'
p185
S'1963'
p186
sS'_height'
p187
S'6-4'
p188
sS'_active'
p189
I00
sS'_shootingHand'
p190
VRight
p191
sS'_name'
p192
S'Al Ferrari'
p193
sS'_per100Possessions'
p194
(lp195
sS'_advanced'
p196
(lp197
(isrc.gp1.models.Advanced
Advanced
p198
(dp199
S'_offensiveReboundPercentage'
p200
g3
sS'_turnOverPercentage'
p201
g3
sS'_winSharesPer48Minutes'
p202
S'.057'
p203
sS'_stealPercentage'
p204
g3
sS'_usagePercentage'
p205
g3
sS'_totalReboundsPercentage'
p206
g3
sS'_defensiveBoxPlusMinus'
p207
g3
sg18
S'SF'
p208
sS'_valueOverReplacementPlayer'
p209
g3
sS'_trueShootingPercentage'
p210
S'.428'
p211
sS'_defensiveReboundPercentage'
p212
g3
sS'_freeThrowsAttempRate'
p213
S'.442'
p214
sS'_threePointsAttempRate'
p215
g3
sg24
S'NBA'
p216
sS'_offensiveBoxPlusMinues'
p217
g3
sS'_assistPercentage'
p218
g3
sS'_defensiveWinShares'
p219
S'1.6'
p220
sg35
S'22'
p221
sg37
S'STL'
p222
sg39
S'68'
p223
sS'_blockPercentage'
p224
g3
sS'_playerEfficiencyRating'
p225
S'9.9'
p226
sS'_offensiveWinShares'
p227
S'0.4'
p228
sg56
S'1611'
p229
sS'_boxPlusMinus'
p230
g3
sg49
S'1955-56'
p231
sS'_winShares'
p232
S'1.9'
p233
sba(isrc.gp1.models.Advanced
Advanced
p234
(dp235
g200
g3
sg201
g3
sg202
S'.058'
p236
sg204
g3
sg205
g3
sg206
g3
sg207
g3
sg18
S'SG'
p237
sg209
g3
sg210
S'.437'
p238
sg212
g3
sg213
S'.517'
p239
sg215
g3
sg24
S'NBA'
p240
sg217
g3
sg218
g3
sg219
S'0.9'
p241
sg35
S'25'
p242
sg37
S'STL'
p243
sg39
S'72'
p244
sg224
g3
sg225
S'9.7'
p245
sg227
S'0.6'
p246
sg56
S'1189'
p247
sg230
g3
sg49
S'1958-59'
p248
sg232
S'1.4'
p249
sba(isrc.gp1.models.Advanced
Advanced
p250
(dp251
g200
g3
sg201
g3
sg202
S'.100'
p252
sg204
g3
sg205
g3
sg206
g3
sg207
g3
sg18
S'SG'
p253
sg209
g3
sg210
S'.489'
p254
sg212
g3
sg213
S'.430'
p255
sg215
g3
sg24
S'NBA'
p256
sg217
g3
sg218
g3
sg219
S'1.0'
p257
sg35
S'26'
p258
sg37
S'STL'
p259
sg39
S'71'
p260
sg224
g3
sg225
S'11.2'
p261
sg227
S'2.3'
p262
sg56
S'1567'
p263
sg230
g3
sg49
S'1959-60'
p264
sg232
S'3.3'
p265
sba(isrc.gp1.models.Advanced
Advanced
p266
(dp267
g200
g3
sg201
g3
sg202
S'.066'
p268
sg204
g3
sg205
g3
sg206
g3
sg207
g3
sg18
S'SG'
p269
sg209
g3
sg210
S'.434'
p270
sg212
g3
sg213
S'.354'
p271
sg215
g3
sg24
S'NBA'
p272
sg217
g3
sg218
g3
sg219
S'1.2'
p273
sg35
S'27'
p274
sg37
S'STL'
p275
sg39
S'63'
p276
sg224
g3
sg225
S'8.5'
p277
sg227
S'0.2'
p278
sg56
S'1031'
p279
sg230
g3
sg49
S'1960-61'
p280
sg232
S'1.4'
p281
sba(isrc.gp1.models.Advanced
Advanced
p282
(dp283
g200
g3
sg201
g3
sg202
S'.020'
p284
sg204
g3
sg205
g3
sg206
g3
sg207
g3
sg18
S'SG'
p285
sg209
g3
sg210
S'.436'
p286
sg212
g3
sg213
S'.376'
p287
sg215
g3
sg24
S'NBA'
p288
sg217
g3
sg218
g3
sg219
S'0.7'
p289
sg35
S'28'
p290
sg37
S'STL'
p291
sg39
S'79'
p292
sg224
g3
sg225
S'8.2'
p293
sg227
S'0.1'
p294
sg56
S'2046'
p295
sg230
g3
sg49
S'1961-62'
p296
sg232
S'0.9'
p297
sba(isrc.gp1.models.Advanced
Advanced
p298
(dp299
g200
g3
sg201
g3
sg202
S'-0.010'
p300
sg204
g3
sg205
g3
sg206
g3
sg207
g3
sg18
g3
sg209
g3
sg210
S'.427'
p301
sg212
g3
sg213
S'.459'
p302
sg215
g3
sg24
S'NBA'
p303
sg217
g3
sg218
g3
sg219
S'0.0'
p304
sg35
S'29'
p305
sg37
S'CHZ'
p306
sg39
S'18'
p307
sg224
g3
sg225
S'6.5'
p308
sg227
S'-0.1'
p309
sg56
S'138'
p310
sg230
g3
sg49
S'1962-63'
p311
sg232
S'0.0'
p312
sbasS'_per36Minutes'
p313
(lp314
(isrc.gp1.models.Per36Minutes
Per36Minutes
p315
(dp316
g8
g3
sg9
g3
sg10
S'.358'
p317
sg12
S'3.6'
p318
sg14
g3
sg15
g3
sg16
S'12.2'
p319
sg18
S'SF'
p320
sg20
S'.695'
p321
sg24
S'NBA'
p322
sg26
g3
sg27
S'11.9'
p323
sg29
S'4.3'
p324
sg31
S'5.3'
p325
sg33
S'4.2'
p326
sg35
S'22'
p327
sg37
S'STL'
p328
sg39
S'68'
p329
sg41
g3
sg42
S'4.3'
p330
sg44
S'3.7'
p331
sg46
S'11.9'
p332
sg48
g3
sg49
S'1955-56'
p333
sg51
S'4.3'
p334
sg53
g3
sg54
S'.358'
p335
sg56
S'1611'
p336
sg58
g3
sba(isrc.gp1.models.Per36Minutes
Per36Minutes
p337
(dp338
g8
g3
sg9
g3
sg10
S'.348'
p339
sg12
S'3.7'
p340
sg14
g3
sg15
g3
sg16
S'12.5'
p341
sg18
S'SG'
p342
sg20
S'.729'
p343
sg24
S'NBA'
p344
sg26
g3
sg27
S'11.7'
p345
sg29
S'4.7'
p346
sg31
S'6.0'
p347
sg33
S'4.3'
p348
sg35
S'25'
p349
sg37
S'STL'
p350
sg39
S'72'
p351
sg41
g3
sg42
S'4.1'
p352
sg44
S'4.4'
p353
sg46
S'11.7'
p354
sg48
g3
sg49
S'1958-59'
p355
sg51
S'4.1'
p356
sg53
g3
sg54
S'.348'
p357
sg56
S'1189'
p358
sg58
g3
sba(isrc.gp1.models.Per36Minutes
Per36Minutes
p359
(dp360
g8
g3
sg9
g3
sg10
S'.413'
p361
sg12
S'4.3'
p362
sg14
g3
sg15
g3
sg16
S'14.0'
p363
sg18
S'SG'
p364
sg20
S'.782'
p365
sg24
S'NBA'
p366
sg26
g3
sg27
S'12.0'
p367
sg29
S'4.7'
p368
sg31
S'5.2'
p369
sg33
S'3.7'
p370
sg35
S'26'
p371
sg37
S'STL'
p372
sg39
S'71'
p373
sg41
g3
sg42
S'5.0'
p374
sg44
S'4.0'
p375
sg46
S'12.0'
p376
sg48
g3
sg49
S'1959-60'
p377
sg51
S'5.0'
p378
sg53
g3
sg54
S'.413'
p379
sg56
S'1567'
p380
sg58
g3
sba(isrc.gp1.models.Per36Minutes
Per36Minutes
p381
(dp382
g8
g3
sg9
g3
sg10
S'.357'
p383
sg12
S'5.0'
p384
sg14
g3
sg15
g3
sg16
S'11.5'
p385
sg18
S'SG'
p386
sg20
S'.819'
p387
sg24
S'NBA'
p388
sg26
g3
sg27
S'11.5'
p389
sg29
S'5.5'
p390
sg31
S'4.1'
p391
sg33
S'4.0'
p392
sg35
S'27'
p393
sg37
S'STL'
p394
sg39
S'63'
p395
sg41
g3
sg42
S'4.1'
p396
sg44
S'3.3'
p397
sg46
S'11.5'
p398
sg48
g3
sg49
S'1960-61'
p399
sg51
S'4.1'
p400
sg53
g3
sg54
S'.357'
p401
sg56
S'1031'
p402
sg58
g3
sba(isrc.gp1.models.Per36Minutes
Per36Minutes
p403
(dp404
g8
g3
sg9
g3
sg10
S'.357'
p405
sg12
S'5.5'
p406
sg14
g3
sg15
g3
sg16
S'10.4'
p407
sg18
S'SG'
p408
sg20
S'.799'
p409
sg24
S'NBA'
p410
sg26
g3
sg27
S'10.2'
p411
sg29
S'4.9'
p412
sg31
S'3.9'
p413
sg33
S'3.7'
p414
sg35
S'28'
p415
sg37
S'STL'
p416
sg39
S'79'
p417
sg41
g3
sg42
S'3.7'
p418
sg44
S'3.1'
p419
sg46
S'10.2'
p420
sg48
g3
sg49
S'1961-62'
p421
sg51
S'3.7'
p422
sg53
g3
sg54
S'.357'
p423
sg56
S'2046'
p424
sg58
g3
sba(isrc.gp1.models.Per36Minutes
Per36Minutes
p425
(dp426
g8
g3
sg9
g3
sg10
S'.324'
p427
sg12
S'3.7'
p428
sg14
g3
sg15
g3
sg16
S'9.9'
p429
sg18
g3
sg20
S'.824'
p430
sg24
S'NBA'
p431
sg26
g3
sg27
S'9.7'
p432
sg29
S'5.5'
p433
sg31
S'4.4'
p434
sg33
S'3.1'
p435
sg35
S'29'
p436
sg37
S'CHZ'
p437
sg39
S'18'
p438
sg41
g3
sg42
S'3.1'
p439
sg44
S'3.7'
p440
sg46
S'9.7'
p441
sg48
g3
sg49
S'1962-63'
p442
sg51
S'3.1'
p443
sg53
g3
sg54
S'.324'
p444
sg56
S'138'
p445
sg58
g3
sbasS'_fromYear'
p446
S'1956'
p447
sS'_url'
p448
S'http://www.basketball-reference.com/players/f/ferraal01.html'
p449
sS'_perGame'
p450
(isrc.gp1.models.PerGame
PerGame
p451
(dp452
g8
g3
sg9
g3
sg10
S'.324'
p453
sS'_effectiveFieldGalPercentage'
p454
S'.324'
p455
sg12
S'0.8'
p456
sg14
g3
sg15
g3
sg16
S'2.1'
p457
sg18
g3
sg20
S'.824'
p458
sg24
S'NBA'
p459
sg26
g3
sg29
S'1.2'
p460
sS'_fieldGoalsttempted'
p461
S'2.1'
p462
sg31
S'0.9'
p463
sg33
S'0.7'
p464
sg35
S'29'
p465
sg37
S'CHZ'
p466
sg39
S'18'
p467
sg41
g3
sg42
S'0.7'
p468
sg44
S'0.8'
p469
sg46
S'2.1'
p470
sg48
g3
sg49
S'1962-63'
p471
sg51
S'0.7'
p472
sg53
g3
sg54
S'.324'
p473
sg56
S'7.7'
p474
sg58
g3
sbsS'_weight'
p475
S'190'
p476
sS'_dob'
p477
S'6-7-1933'
p478
sS'_salary'
p479
(lp480
sg18
S'G-F'
p481
sb.