(isrc.gp1.models.Player
Player
p0
(dp1
S'_experience'
p2
V2
p3
sS'_totals'
p4
(lp5
(isrc.gp1.models.Totals
Totals
p6
(dp7
S'_offensiveRebounds'
p8
S'172'
p9
sS'_threePointsAttempted'
p10
S'0'
p11
sS'_fieldGoalsPercentage'
p12
S'.438'
p13
sS'_assist'
p14
S'23'
p15
sS'_threePointsPercentage'
p16
S'74'
p17
sS'_threePoints'
p18
g11
sS'_points'
p19
S'NA'
p20
sS'_position'
p21
S'C'
p22
sS'_freeThrowsPercentage'
p23
S'141'
p24
sS'_effectiveFieldGoalPercentage'
p25
S'43'
p26
sS'_league'
p27
S'NBA'
p28
sS'_steals'
p29
S'74'
p30
sS'_fieldGoalsAttempted'
p31
S'169'
p32
sS'_personalFouls'
p33
S'191'
p34
sS'_freeThrowsAttempted'
p35
S'.531'
p36
sS'_totalRebounds'
p37
S'22'
p38
sS'_age'
p39
S'23'
p40
sS'_team'
p41
S'GSW'
p42
sS'_games'
p43
S'78'
p44
sS'_blocks'
p45
S'63'
p46
sS'_twoPoints'
p47
S'169'
p48
sS'_freeThrows'
p49
S'81'
p50
sS'_twoPointsAttempted'
p51
S'.438'
p52
sS'_defensiveRebounds'
p53
S'313'
p54
sS'_season'
p55
S'2012-13'
p56
sS'_fieldGoals'
p57
S'74'
p58
sS'_turnOvers'
p59
S'157'
p60
sS'_twoPointsPercentage'
p61
S'.438'
p62
sS'_minutesPlayed'
p63
S'1120'
p64
sS'_gamesStarted'
p65
S'41'
p66
sba(isrc.gp1.models.Totals
Totals
p67
(dp68
g8
g20
sg10
g20
sg12
g20
sg14
g20
sg16
g20
sg18
g20
sg19
g20
sg21
g20
sg23
g20
sg25
g20
sg27
g20
sg29
g20
sg31
g20
sg33
g20
sg35
g20
sg37
g20
sg39
S'24'
p69
sg41
S'Did Not Play'
p70
sg43
g20
sg45
g20
sg47
g20
sg49
g20
sg51
g20
sg53
g20
sg55
S'2013-14'
p71
sg57
g20
sg59
g20
sg61
g20
sg63
g20
sg65
g20
sba(isrc.gp1.models.Totals
Totals
p72
(dp73
g8
S'95'
p74
sg10
g11
sg12
S'.547'
p75
sg14
S'7'
p76
sg16
S'76'
p77
sg18
g11
sg19
g20
sg21
g22
sg23
S'60'
p78
sg25
S'49'
p79
sg27
S'NBA'
p80
sg29
S'42'
p81
sg31
S'139'
p82
sg33
S'201'
p83
sg35
S'.628'
p84
sg37
S'9'
p85
sg39
S'25'
p86
sg41
S'GSW'
p87
sg43
S'46'
p88
sg45
S'32'
p89
sg47
S'139'
p90
sg49
S'78'
p91
sg51
S'.547'
p92
sg53
S'155'
p93
sg55
S'2014-15'
p94
sg57
S'76'
p95
sg59
S'77'
p96
sg61
S'.547'
p97
sg63
S'504'
p98
sg65
g76
sba(isrc.gp1.models.Totals
Totals
p99
(dp100
g8
S'151'
p101
sg10
g11
sg12
S'.557'
p102
sg14
S'17'
p103
sg16
S'117'
p104
sg18
g11
sg19
g20
sg21
g22
sg23
S'83'
p105
sg25
S'66'
p106
sg27
S'NBA'
p107
sg29
S'49'
p108
sg31
S'210'
p109
sg33
S'300'
p110
sg35
S'.532'
p111
sg37
S'31'
p112
sg39
S'26'
p113
sg41
S'GSW'
p114
sg43
S'40'
p115
sg45
S'36'
p116
sg47
S'210'
p117
sg49
S'124'
p118
sg51
S'.557'
p119
sg53
S'234'
p120
sg55
S'2015-16'
p121
sg57
S'117'
p122
sg59
S'92'
p123
sg61
S'.557'
p124
sg63
S'710'
p125
sg65
S'11'
p126
sbasS'_college'
p127
S'Vanderbilt University'
p128
sS'_toYear'
p129
S'2016'
p130
sS'_height'
p131
S'6-11'
p132
sS'_active'
p133
I01
sS'_shootingHand'
p134
VRight
p135
sS'_name'
p136
S'Festus Ezeli'
p137
sS'_per100Possessions'
p138
(lp139
(isrc.gp1.models.Per100Possession
Per100Possession
p140
(dp141
g8
S'7.8'
p142
sg10
S'0.0'
p143
sg12
S'.438'
p144
sS'_offensiveRating'
p145
S'103'
p146
sg14
S'1.0'
p147
sg16
S'3.4'
p148
sg18
S'0.0'
p149
sg19
S'97'
p150
sg21
g22
sS'_defensiveRating'
p151
g20
sg23
S'6.4'
p152
sg27
S'NBA'
p153
sg29
S'3.4'
p154
sg31
S'7.7'
p155
sg33
S'8.7'
p156
sg35
S'.531'
p157
sg37
S'1.0'
p158
sg39
S'23'
p159
sg41
S'GSW'
p160
sg43
S'78'
p161
sg45
S'2.9'
p162
sg47
S'7.7'
p163
sg49
S'3.7'
p164
sg51
S'.438'
p165
sg53
S'14.2'
p166
sg55
S'2012-13'
p167
sg57
S'3.4'
p168
sg59
S'7.1'
p169
sg61
S'2.0'
p170
sg63
S'1120'
p171
sg65
S'41'
p172
sba(isrc.gp1.models.Per100Possession
Per100Possession
p173
(dp174
g8
S'9.2'
p175
sg10
S'0.0'
p176
sg12
S'.547'
p177
sg145
S'99'
p178
sg14
S'0.7'
p179
sg16
S'7.4'
p180
sg18
S'0.0'
p181
sg19
S'111'
p182
sg21
g22
sg151
g20
sg23
S'5.8'
p183
sg27
S'NBA'
p184
sg29
S'4.1'
p185
sg31
S'13.5'
p186
sg33
S'19.5'
p187
sg35
S'.628'
p188
sg37
S'0.9'
p189
sg39
S'25'
p190
sg41
S'GSW'
p191
sg43
S'46'
p192
sg45
S'3.1'
p193
sg47
S'13.5'
p194
sg49
S'7.6'
p195
sg51
S'.547'
p196
sg53
S'15.0'
p197
sg55
S'2014-15'
p198
sg57
S'7.4'
p199
sg59
S'7.5'
p200
sg61
S'4.7'
p201
sg63
S'504'
p202
sg65
g76
sba(isrc.gp1.models.Per100Possession
Per100Possession
p203
(dp204
g8
S'10.3'
p205
sg10
S'0.0'
p206
sg12
S'.557'
p207
sg145
S'99'
p208
sg14
S'1.2'
p209
sg16
S'7.9'
p210
sg18
S'0.0'
p211
sg19
S'115'
p212
sg21
g22
sg151
g20
sg23
S'5.6'
p213
sg27
S'NBA'
p214
sg29
S'3.3'
p215
sg31
S'14.3'
p216
sg33
S'20.4'
p217
sg35
S'.532'
p218
sg37
S'2.1'
p219
sg39
S'26'
p220
sg41
S'GSW'
p221
sg43
S'40'
p222
sg45
S'2.4'
p223
sg47
S'14.3'
p224
sg49
S'8.4'
p225
sg51
S'.557'
p226
sg53
S'15.9'
p227
sg55
S'2015-16'
p228
sg57
S'7.9'
p229
sg59
S'6.2'
p230
sg61
S'4.5'
p231
sg63
S'710'
p232
sg65
S'11'
p233
sbasS'_advanced'
p234
(lp235
(isrc.gp1.models.Advanced
Advanced
p236
(dp237
S'_offensiveReboundPercentage'
p238
S'14.3'
p239
sS'_turnOverPercentage'
p240
S'23.5'
p241
sS'_winSharesPer48Minutes'
p242
S'.066'
p243
sS'_stealPercentage'
p244
S'1.0'
p245
sS'_usagePercentage'
p246
S'10.7'
p247
sS'_totalReboundsPercentage'
p248
S'15.4'
p249
sS'_defensiveBoxPlusMinus'
p250
S'2.6'
p251
sg21
g22
sS'_valueOverReplacementPlayer'
p252
S'0.2'
p253
sS'_trueShootingPercentage'
p254
S'.467'
p255
sS'_defensiveReboundPercentage'
p256
S'16.4'
p257
sS'_freeThrowsAttempRate'
p258
S'.479'
p259
sS'_threePointsAttempRate'
p260
S'.000'
p261
sg27
S'NBA'
p262
sS'_offensiveBoxPlusMinues'
p263
S'-4.0'
p264
sS'_assistPercentage'
p265
S'2.7'
p266
sS'_defensiveWinShares'
p267
S'1.5'
p268
sg39
S'23'
p269
sg41
S'GSW'
p270
sg43
S'78'
p271
sS'_blockPercentage'
p272
S'5.2'
p273
sS'_playerEfficiencyRating'
p274
S'9.3'
p275
sS'_offensiveWinShares'
p276
S'0.0'
p277
sg63
S'1120'
p278
sS'_boxPlusMinus'
p279
S'-1.4'
p280
sg55
S'2012-13'
p281
sS'_winShares'
p282
S'1.5'
p283
sba(isrc.gp1.models.Advanced
Advanced
p284
(dp285
g238
S'13.3'
p286
sg240
S'15.6'
p287
sg242
S'.159'
p288
sg244
S'0.7'
p289
sg246
S'17.7'
p290
sg248
S'16.6'
p291
sg250
S'1.2'
p292
sg21
g22
sg252
S'0.0'
p293
sg254
S'.580'
p294
sg256
S'19.7'
p295
sg258
S'.561'
p296
sg260
S'.000'
p297
sg27
S'NBA'
p298
sg263
S'-3.0'
p299
sg265
S'2.5'
p300
sg267
S'0.9'
p301
sg39
S'25'
p302
sg41
S'GSW'
p303
sg43
S'46'
p304
sg272
S'6.2'
p305
sg274
S'16.2'
p306
sg276
S'0.8'
p307
sg63
S'504'
p308
sg279
S'-1.8'
p309
sg55
S'2014-15'
p310
sg282
S'1.7'
p311
sba(isrc.gp1.models.Advanced
Advanced
p312
(dp313
g238
S'13.5'
p314
sg240
S'12.0'
p315
sg242
S'.186'
p316
sg244
S'1.2'
p317
sg246
S'18.3'
p318
sg248
S'17.7'
p319
sg250
S'1.8'
p320
sg21
g22
sg252
S'0.5'
p321
sg254
S'.567'
p322
sg256
S'21.4'
p323
sg258
S'.590'
p324
sg260
S'.000'
p325
sg27
S'NBA'
p326
sg263
S'-1.0'
p327
sg265
S'6.1'
p328
sg267
S'1.3'
p329
sg39
S'26'
p330
sg41
S'GSW'
p331
sg43
S'40'
p332
sg272
S'4.9'
p333
sg274
S'18.2'
p334
sg276
S'1.4'
p335
sg63
S'710'
p336
sg279
S'0.8'
p337
sg55
S'2015-16'
p338
sg282
S'2.7'
p339
sbasS'_per36Minutes'
p340
(lp341
(isrc.gp1.models.Per36Minutes
Per36Minutes
p342
(dp343
g8
S'5.5'
p344
sg10
S'0.0'
p345
sg12
S'.438'
p346
sg14
S'0.7'
p347
sg16
S'2.4'
p348
sg18
S'0.0'
p349
sg19
g20
sg21
g22
sg23
S'4.5'
p350
sg27
S'NBA'
p351
sg29
S'2.4'
p352
sg31
S'5.4'
p353
sg33
S'6.1'
p354
sg35
S'.531'
p355
sg37
S'0.7'
p356
sg39
S'23'
p357
sg41
S'GSW'
p358
sg43
S'78'
p359
sg45
S'2.0'
p360
sg47
S'5.4'
p361
sg49
S'2.6'
p362
sg51
S'.438'
p363
sg53
S'10.1'
p364
sg55
S'2012-13'
p365
sg57
S'2.4'
p366
sg59
S'5.0'
p367
sg61
S'1.4'
p368
sg63
S'1120'
p369
sg65
S'41'
p370
sba(isrc.gp1.models.Per36Minutes
Per36Minutes
p371
(dp372
g8
S'6.8'
p373
sg10
S'0.0'
p374
sg12
S'.547'
p375
sg14
S'0.5'
p376
sg16
S'5.4'
p377
sg18
S'0.0'
p378
sg19
g20
sg21
g22
sg23
S'4.3'
p379
sg27
S'NBA'
p380
sg29
S'3.0'
p381
sg31
S'9.9'
p382
sg33
S'14.4'
p383
sg35
S'.628'
p384
sg37
S'0.6'
p385
sg39
S'25'
p386
sg41
S'GSW'
p387
sg43
S'46'
p388
sg45
S'2.3'
p389
sg47
S'9.9'
p390
sg49
S'5.6'
p391
sg51
S'.547'
p392
sg53
S'11.1'
p393
sg55
S'2014-15'
p394
sg57
S'5.4'
p395
sg59
S'5.5'
p396
sg61
S'3.5'
p397
sg63
S'504'
p398
sg65
g76
sba(isrc.gp1.models.Per36Minutes
Per36Minutes
p399
(dp400
g8
S'7.7'
p401
sg10
S'0.0'
p402
sg12
S'.557'
p403
sg14
S'0.9'
p404
sg16
S'5.9'
p405
sg18
S'0.0'
p406
sg19
g20
sg21
g22
sg23
S'4.2'
p407
sg27
S'NBA'
p408
sg29
S'2.5'
p409
sg31
S'10.6'
p410
sg33
S'15.2'
p411
sg35
S'.532'
p412
sg37
S'1.6'
p413
sg39
S'26'
p414
sg41
S'GSW'
p415
sg43
S'40'
p416
sg45
S'1.8'
p417
sg47
S'10.6'
p418
sg49
S'6.3'
p419
sg51
S'.557'
p420
sg53
S'11.9'
p421
sg55
S'2015-16'
p422
sg57
S'5.9'
p423
sg59
S'4.7'
p424
sg61
S'3.3'
p425
sg63
S'710'
p426
sg65
S'11'
p427
sbasS'_fromYear'
p428
S'2013'
p429
sS'_url'
p430
S'http://www.basketball-reference.com/players/e/ezelife01.html'
p431
sS'_perGame'
p432
(isrc.gp1.models.PerGame
PerGame
p433
(dp434
g8
S'3.8'
p435
sg10
S'0.0'
p436
sg12
S'.557'
p437
sS'_effectiveFieldGalPercentage'
p438
S'1.7'
p439
sg14
S'0.4'
p440
sg16
S'2.9'
p441
sg18
S'0.0'
p442
sg19
g20
sg21
g22
sg23
S'2.1'
p443
sg27
S'NBA'
p444
sg29
S'1.2'
p445
sg33
S'7.5'
p446
sS'_fieldGoalsttempted'
p447
S'5.3'
p448
sg35
S'.532'
p449
sg37
S'0.8'
p450
sg39
S'26'
p451
sg41
S'GSW'
p452
sg43
S'40'
p453
sg45
S'0.9'
p454
sg47
S'5.3'
p455
sg49
S'3.1'
p456
sg51
S'.557'
p457
sg53
S'5.9'
p458
sg55
S'2015-16'
p459
sg57
S'2.9'
p460
sg59
S'2.3'
p461
sg61
S'.557'
p462
sg63
S'17.8'
p463
sg65
S'11'
p464
sbsS'_weight'
p465
S'255'
p466
sS'_dob'
p467
S'21-10-1989'
p468
sS'_salary'
p469
(lp470
(isrc.gp1.models.Salary
Salary
p471
(dp472
g41
S'Golden State Warriors'
p473
sg27
S'NBA'
p474
sg469
S'$1,020,960'
p475
sg55
S'2012-13'
p476
sba(isrc.gp1.models.Salary
Salary
p477
(dp478
g41
S'Golden State Warriors'
p479
sg27
S'NBA'
p480
sg469
S'$1,066,920'
p481
sg55
S'2013-14'
p482
sba(isrc.gp1.models.Salary
Salary
p483
(dp484
g41
S'Golden State Warriors'
p485
sg27
S'NBA'
p486
sg469
S'$1,112,880'
p487
sg55
S'2014-15'
p488
sbasg21
g22
sb.