(isrc.gp1.models.Player
Player
p0
(dp1
S'_experience'
p2
S'NA'
p3
sS'_totals'
p4
(lp5
(isrc.gp1.models.Totals
Totals
p6
(dp7
S'_offensiveRebounds'
p8
g3
sS'_threePointsAttempted'
p9
g3
sS'_fieldGoalsPercentage'
p10
S'.362'
p11
sS'_assist'
p12
S'5'
p13
sS'_threePointsPercentage'
p14
g3
sS'_threePoints'
p15
g3
sS'_points'
p16
S'41'
p17
sS'_position'
p18
S'C'
p19
sS'_freeThrowsPercentage'
p20
S'.583'
p21
sS'_effectiveFieldGoalPercentage'
p22
S'.362'
p23
sS'_league'
p24
S'NBA'
p25
sS'_steals'
p26
g3
sS'_fieldGoalsAttempted'
p27
S'47'
p28
sS'_personalFouls'
p29
S'39'
p30
sS'_freeThrowsAttempted'
p31
S'12'
p32
sS'_totalRebounds'
p33
S'64'
p34
sS'_age'
p35
S'24'
p36
sS'_team'
p37
S'LAL'
p38
sS'_games'
p39
S'27'
p40
sS'_blocks'
p41
g3
sS'_twoPoints'
p42
S'17'
p43
sS'_freeThrows'
p44
S'7'
p45
sS'_twoPointsAttempted'
p46
S'47'
p47
sS'_defensiveRebounds'
p48
g3
sS'_season'
p49
S'1966-67'
p50
sS'_fieldGoals'
p51
S'17'
p52
sS'_turnOvers'
p53
g3
sS'_twoPointsPercentage'
p54
S'.362'
p55
sS'_minutesPlayed'
p56
S'141'
p57
sS'_gamesStarted'
p58
g3
sba(isrc.gp1.models.Totals
Totals
p59
(dp60
g8
g3
sg9
g3
sg10
S'.492'
p61
sg12
S'72'
p62
sg14
g3
sg15
g3
sg16
S'615'
p63
sg18
g19
sg20
S'.686'
p64
sg22
S'.492'
p65
sg24
S'NBA'
p66
sg26
g3
sg27
S'492'
p67
sg29
S'175'
p68
sg31
S'191'
p69
sg33
S'375'
p70
sg35
S'25'
p71
sg37
S'SDR'
p72
sg39
S'53'
p73
sg41
g3
sg42
S'242'
p74
sg44
S'131'
p75
sg46
S'492'
p76
sg48
g3
sg49
S'1967-68'
p77
sg51
S'242'
p78
sg53
g3
sg54
S'.492'
p79
sg56
S'1116'
p80
sg58
g3
sba(isrc.gp1.models.Totals
Totals
p81
(dp82
g8
g3
sg9
g3
sg10
S'.441'
p83
sg12
S'21'
p84
sg14
g3
sg15
g3
sg16
S'129'
p85
sg18
g19
sg20
S'.756'
p86
sg22
S'.441'
p87
sg24
S'NBA'
p88
sg26
g3
sg27
S'111'
p89
sg29
S'53'
p90
sg31
S'41'
p91
sg33
S'107'
p92
sg35
S'26'
p93
sg37
S'SDR'
p94
sg39
S'35'
p95
sg41
g3
sg42
S'49'
p96
sg44
S'31'
p97
sg46
S'111'
p98
sg48
g3
sg49
S'1968-69'
p99
sg51
S'49'
p100
sg53
g3
sg54
S'.441'
p101
sg56
S'332'
p102
sg58
g3
sba(isrc.gp1.models.Totals
Totals
p103
(dp104
g8
g3
sg9
g3
sg10
S'.454'
p105
sg12
S'103'
p106
sg14
g3
sg15
g3
sg16
S'776'
p107
sg18
g19
sg20
S'.670'
p108
sg22
S'.454'
p109
sg24
S'NBA'
p110
sg26
g3
sg27
S'683'
p111
sg29
S'292'
p112
sg31
S'233'
p113
sg33
S'613'
p114
sg35
S'27'
p115
sg37
S'BOS'
p116
sg39
S'80'
p117
sg41
g3
sg42
S'310'
p118
sg44
S'156'
p119
sg46
S'683'
p120
sg48
g3
sg49
S'1969-70'
p121
sg51
S'310'
p122
sg53
g3
sg54
S'.454'
p123
sg56
S'1866'
p124
sg58
g3
sba(isrc.gp1.models.Totals
Totals
p125
(dp126
g8
g3
sg9
g3
sg10
S'.438'
p127
sg12
S'79'
p128
sg14
g3
sg15
g3
sg16
S'521'
p129
sg18
g19
sg20
S'.732'
p130
sg22
S'.438'
p131
sg24
S'NBA'
p132
sg26
g3
sg27
S'489'
p133
sg29
S'196'
p134
sg31
S'127'
p135
sg33
S'343'
p136
sg35
S'28'
p137
sg37
S'BOS'
p138
sg39
S'80'
p139
sg41
g3
sg42
S'214'
p140
sg44
S'93'
p141
sg46
S'489'
p142
sg48
g3
sg49
S'1970-71'
p143
sg51
S'214'
p144
sg53
g3
sg54
S'.438'
p145
sg56
S'1234'
p146
sg58
g3
sba(isrc.gp1.models.Totals
Totals
p147
(dp148
g8
g3
sg9
g3
sg10
S'.406'
p149
sg12
S'61'
p150
sg14
g3
sg15
g3
sg16
S'249'
p151
sg18
g19
sg20
S'.581'
p152
sg22
S'.406'
p153
sg24
S'NBA'
p154
sg26
g3
sg27
S'254'
p155
sg29
S'118'
p156
sg31
S'74'
p157
sg33
S'251'
p158
sg35
S'29'
p159
sg37
S'BOS'
p160
sg39
S'78'
p161
sg41
g3
sg42
S'103'
p162
sg44
S'43'
p163
sg46
S'254'
p164
sg48
g3
sg49
S'1971-72'
p165
sg51
S'103'
p166
sg53
g3
sg54
S'.406'
p167
sg56
S'736'
p168
sg58
g3
sba(isrc.gp1.models.Totals
Totals
p169
(dp170
g8
g3
sg9
g3
sg10
S'.451'
p171
sg12
S'26'
p172
sg14
g3
sg15
g3
sg16
S'184'
p173
sg18
g19
sg20
S'.538'
p174
sg22
S'.451'
p175
sg24
S'NBA'
p176
sg26
g3
sg27
S'173'
p177
sg29
S'83'
p178
sg31
S'52'
p179
sg33
S'151'
p180
sg35
S'30'
p181
sg37
S'BOS'
p182
sg39
S'76'
p183
sg41
g3
sg42
S'78'
p184
sg44
S'28'
p185
sg46
S'173'
p186
sg48
g3
sg49
S'1972-73'
p187
sg51
S'78'
p188
sg53
g3
sg54
S'.451'
p189
sg56
S'496'
p190
sg58
g3
sba(isrc.gp1.models.Totals
Totals
p191
(dp192
g8
S'41'
p193
sg9
g3
sg10
S'.462'
p194
sg12
S'27'
p195
sg14
g3
sg15
g3
sg16
S'148'
p196
sg18
g19
sg20
S'.651'
p197
sg22
S'.462'
p198
sg24
S'NBA'
p199
sg26
S'3'
p200
sg27
S'130'
p201
sg29
S'62'
p202
sg31
S'43'
p203
sg33
S'135'
p204
sg35
S'31'
p205
sg37
S'BOS'
p206
sg39
S'60'
p207
sg41
g45
sg42
S'60'
p208
sg44
S'28'
p209
sg46
S'130'
p210
sg48
S'94'
p211
sg49
S'1973-74'
p212
sg51
S'60'
p213
sg53
g3
sg54
S'.462'
p214
sg56
S'427'
p215
sg58
g3
sba(isrc.gp1.models.Totals
Totals
p216
(dp217
g8
S'33'
p218
sg9
g3
sg10
S'.403'
p219
sg12
S'32'
p220
sg14
g3
sg15
g3
sg16
S'127'
p221
sg18
g19
sg20
S'.535'
p222
sg22
S'.403'
p223
sg24
S'NBA'
p224
sg26
g45
sg27
S'129'
p225
sg29
S'72'
p226
sg31
S'43'
p227
sg33
S'112'
p228
sg35
S'32'
p229
sg37
S'BOS'
p230
sg39
S'62'
p231
sg41
g200
sg42
S'52'
p232
sg44
S'23'
p233
sg46
S'129'
p234
sg48
S'79'
p235
sg49
S'1974-75'
p236
sg51
S'52'
p237
sg53
g3
sg54
S'.403'
p238
sg56
S'518'
p239
sg58
g3
sbasS'_college'
p240
S'University of Dayton'
p241
sS'_toYear'
p242
S'1975'
p243
sS'_height'
p244
S'7-0'
p245
sS'_active'
p246
I00
sS'_shootingHand'
p247
VLeft
p248
sS'_name'
p249
S'Hank Finkel'
p250
sS'_per100Possessions'
p251
(lp252
(isrc.gp1.models.Per100Possession
Per100Possession
p253
(dp254
g8
S'4.2'
p255
sg9
g3
sg10
S'.462'
p256
sS'_offensiveRating'
p257
g3
sg12
S'2.8'
p258
sg14
g3
sg15
g3
sg16
S'15.1'
p259
sg18
g19
sS'_defensiveRating'
p260
S'95'
p261
sg20
S'.651'
p262
sg24
S'NBA'
p263
sg26
S'0.3'
p264
sg27
S'13.3'
p265
sg29
S'6.3'
p266
sg31
S'4.4'
p267
sg33
S'13.8'
p268
sg35
S'31'
p269
sg37
S'BOS'
p270
sg39
S'60'
p271
sg41
S'0.7'
p272
sg42
S'6.1'
p273
sg44
S'2.9'
p274
sg46
S'13.3'
p275
sg48
S'9.6'
p276
sg49
S'1973-74'
p277
sg51
S'6.1'
p278
sg53
g3
sg54
S'.462'
p279
sg56
S'427'
p280
sg58
g3
sba(isrc.gp1.models.Per100Possession
Per100Possession
p281
(dp282
g8
S'2.9'
p283
sg9
g3
sg10
S'.403'
p284
sg257
g3
sg12
S'2.8'
p285
sg14
g3
sg15
g3
sg16
S'11.1'
p286
sg18
g19
sg260
S'97'
p287
sg20
S'.535'
p288
sg24
S'NBA'
p289
sg26
S'0.6'
p290
sg27
S'11.3'
p291
sg29
S'6.3'
p292
sg31
S'3.8'
p293
sg33
S'9.8'
p294
sg35
S'32'
p295
sg37
S'BOS'
p296
sg39
S'62'
p297
sg41
S'0.3'
p298
sg42
S'4.5'
p299
sg44
S'2.0'
p300
sg46
S'11.3'
p301
sg48
S'6.9'
p302
sg49
S'1974-75'
p303
sg51
S'4.5'
p304
sg53
g3
sg54
S'.403'
p305
sg56
S'518'
p306
sg58
g3
sbasS'_advanced'
p307
(lp308
(isrc.gp1.models.Advanced
Advanced
p309
(dp310
S'_offensiveReboundPercentage'
p311
g3
sS'_turnOverPercentage'
p312
g3
sS'_winSharesPer48Minutes'
p313
S'-0.005'
p314
sS'_stealPercentage'
p315
g3
sS'_usagePercentage'
p316
g3
sS'_totalReboundsPercentage'
p317
g3
sS'_defensiveBoxPlusMinus'
p318
g3
sg18
g19
sS'_valueOverReplacementPlayer'
p319
g3
sS'_trueShootingPercentage'
p320
S'.392'
p321
sS'_defensiveReboundPercentage'
p322
g3
sS'_freeThrowsAttempRate'
p323
S'.255'
p324
sS'_threePointsAttempRate'
p325
g3
sg24
S'NBA'
p326
sS'_offensiveBoxPlusMinues'
p327
g3
sS'_assistPercentage'
p328
S'4.2'
p329
sS'_defensiveWinShares'
p330
S'0.2'
p331
sg35
S'24'
p332
sg37
S'LAL'
p333
sg39
S'27'
p334
sS'_blockPercentage'
p335
g3
sS'_playerEfficiencyRating'
p336
S'7.7'
p337
sS'_offensiveWinShares'
p338
S'-0.2'
p339
sg56
S'141'
p340
sS'_boxPlusMinus'
p341
g3
sg49
S'1966-67'
p342
sS'_winShares'
p343
S'0.0'
p344
sba(isrc.gp1.models.Advanced
Advanced
p345
(dp346
g311
g3
sg312
g3
sg313
S'.146'
p347
sg315
g3
sg316
g3
sg317
g3
sg318
g3
sg18
g19
sg319
g3
sg320
S'.534'
p348
sg322
g3
sg323
S'.388'
p349
sg325
g3
sg24
S'NBA'
p350
sg327
g3
sg328
S'9.4'
p351
sg330
S'1.1'
p352
sg35
S'25'
p353
sg37
S'SDR'
p354
sg39
S'53'
p355
sg335
g3
sg336
S'17.5'
p356
sg338
S'2.3'
p357
sg56
S'1116'
p358
sg341
g3
sg49
S'1967-68'
p359
sg343
S'3.4'
p360
sba(isrc.gp1.models.Advanced
Advanced
p361
(dp362
g311
g3
sg312
g3
sg313
S'.123'
p363
sg315
g3
sg316
g3
sg317
g3
sg318
g3
sg18
g19
sg319
g3
sg320
S'.500'
p364
sg322
g3
sg323
S'.369'
p365
sg325
g3
sg24
S'NBA'
p366
sg327
g3
sg328
S'8.1'
p367
sg330
S'0.5'
p368
sg35
S'26'
p369
sg37
S'SDR'
p370
sg39
S'35'
p371
sg335
g3
sg336
S'13.1'
p372
sg338
S'0.3'
p373
sg56
S'332'
p374
sg341
g3
sg49
S'1968-69'
p375
sg343
S'0.9'
p376
sba(isrc.gp1.models.Advanced
Advanced
p377
(dp378
g311
g3
sg312
g3
sg313
S'.087'
p379
sg315
g3
sg316
g3
sg317
g3
sg318
g3
sg18
g19
sg319
g3
sg320
S'.494'
p380
sg322
g3
sg323
S'.341'
p381
sg325
g3
sg24
S'NBA'
p382
sg327
g3
sg328
S'7.3'
p383
sg330
S'2.4'
p384
sg35
S'27'
p385
sg37
S'BOS'
p386
sg39
S'80'
p387
sg335
g3
sg336
S'13.1'
p388
sg338
S'1.0'
p389
sg56
S'1866'
p390
sg341
g3
sg49
S'1969-70'
p391
sg343
S'3.4'
p392
sba(isrc.gp1.models.Advanced
Advanced
p393
(dp394
g311
g3
sg312
g3
sg313
S'.091'
p395
sg315
g3
sg316
g3
sg317
S'12.0'
p396
sg318
g3
sg18
g19
sg319
g3
sg320
S'.478'
p397
sg322
g3
sg323
S'.260'
p398
sg325
g3
sg24
S'NBA'
p399
sg327
g3
sg328
S'8.1'
p400
sg330
S'1.8'
p401
sg35
S'28'
p402
sg37
S'BOS'
p403
sg39
S'80'
p404
sg335
g3
sg336
S'12.1'
p405
sg338
S'0.5'
p406
sg56
S'1234'
p407
sg341
g3
sg49
S'1970-71'
p408
sg343
S'2.3'
p409
sba(isrc.gp1.models.Advanced
Advanced
p410
(dp411
g311
g3
sg312
g3
sg313
S'.068'
p412
sg315
g3
sg316
g3
sg317
S'15.6'
p413
sg318
g3
sg18
g19
sg319
g3
sg320
S'.434'
p414
sg322
g3
sg323
S'.291'
p415
sg325
g3
sg24
S'NBA'
p416
sg327
g3
sg328
S'10.0'
p417
sg330
S'1.5'
p418
sg35
S'29'
p419
sg37
S'BOS'
p420
sg39
S'78'
p421
sg335
g3
sg336
S'11.1'
p422
sg338
S'-0.5'
p423
sg56
S'736'
p424
sg341
g3
sg49
S'1971-72'
p425
sg343
S'1.0'
p426
sba(isrc.gp1.models.Advanced
Advanced
p427
(dp428
g311
g3
sg312
g3
sg313
S'.119'
p429
sg315
g3
sg316
g3
sg317
S'13.7'
p430
sg318
g3
sg18
g19
sg319
g3
sg320
S'.470'
p431
sg322
g3
sg323
S'.301'
p432
sg325
g3
sg24
S'NBA'
p433
sg327
g3
sg328
S'6.5'
p434
sg330
S'1.1'
p435
sg35
S'30'
p436
sg37
S'BOS'
p437
sg39
S'76'
p438
sg335
g3
sg336
S'11.4'
p439
sg338
S'0.1'
p440
sg56
S'496'
p441
sg341
g3
sg49
S'1972-73'
p442
sg343
S'1.2'
p443
sba(isrc.gp1.models.Advanced
Advanced
p444
(dp445
g311
S'9.5'
p446
sg312
g3
sg313
S'.096'
p447
sg315
S'0.3'
p448
sg316
g3
sg317
S'15.3'
p449
sg318
S'-0.7'
p450
sg18
g19
sg319
S'-0.2'
p451
sg320
S'.497'
p452
sg322
S'20.7'
p453
sg323
S'.331'
p454
sg325
g3
sg24
S'NBA'
p455
sg327
S'-3.3'
p456
sg328
S'8.1'
p457
sg330
S'0.6'
p458
sg35
S'31'
p459
sg37
S'BOS'
p460
sg39
S'60'
p461
sg335
S'0.8'
p462
sg336
S'11.6'
p463
sg338
S'0.3'
p464
sg56
S'427'
p465
sg341
S'-4.0'
p466
sg49
S'1973-74'
p467
sg343
S'0.9'
p468
sba(isrc.gp1.models.Advanced
Advanced
p469
(dp470
g311
S'6.4'
p471
sg312
g3
sg313
S'.038'
p472
sg315
S'0.6'
p473
sg316
g3
sg317
S'10.8'
p474
sg318
S'-0.5'
p475
sg18
g19
sg319
S'-0.5'
p476
sg320
S'.429'
p477
sg322
S'15.0'
p478
sg323
S'.333'
p479
sg325
g3
sg24
S'NBA'
p480
sg327
S'-5.1'
p481
sg328
S'7.7'
p482
sg330
S'0.6'
p483
sg35
S'32'
p484
sg37
S'BOS'
p485
sg39
S'62'
p486
sg335
S'0.3'
p487
sg336
S'7.5'
p488
sg338
S'-0.2'
p489
sg56
S'518'
p490
sg341
S'-5.6'
p491
sg49
S'1974-75'
p492
sg343
S'0.4'
p493
sbasS'_per36Minutes'
p494
(lp495
(isrc.gp1.models.Per36Minutes
Per36Minutes
p496
(dp497
g8
g3
sg9
g3
sg10
S'.362'
p498
sg12
S'1.3'
p499
sg14
g3
sg15
g3
sg16
S'10.5'
p500
sg18
g19
sg20
S'.583'
p501
sg24
S'NBA'
p502
sg26
g3
sg27
S'12.0'
p503
sg29
S'10.0'
p504
sg31
S'3.1'
p505
sg33
S'16.3'
p506
sg35
S'24'
p507
sg37
S'LAL'
p508
sg39
S'27'
p509
sg41
g3
sg42
S'4.3'
p510
sg44
S'1.8'
p511
sg46
S'12.0'
p512
sg48
g3
sg49
S'1966-67'
p513
sg51
S'4.3'
p514
sg53
g3
sg54
S'.362'
p515
sg56
S'141'
p516
sg58
g3
sba(isrc.gp1.models.Per36Minutes
Per36Minutes
p517
(dp518
g8
g3
sg9
g3
sg10
S'.492'
p519
sg12
S'2.3'
p520
sg14
g3
sg15
g3
sg16
S'19.8'
p521
sg18
g19
sg20
S'.686'
p522
sg24
S'NBA'
p523
sg26
g3
sg27
S'15.9'
p524
sg29
S'5.6'
p525
sg31
S'6.2'
p526
sg33
S'12.1'
p527
sg35
S'25'
p528
sg37
S'SDR'
p529
sg39
S'53'
p530
sg41
g3
sg42
S'7.8'
p531
sg44
S'4.2'
p532
sg46
S'15.9'
p533
sg48
g3
sg49
S'1967-68'
p534
sg51
S'7.8'
p535
sg53
g3
sg54
S'.492'
p536
sg56
S'1116'
p537
sg58
g3
sba(isrc.gp1.models.Per36Minutes
Per36Minutes
p538
(dp539
g8
g3
sg9
g3
sg10
S'.441'
p540
sg12
S'2.3'
p541
sg14
g3
sg15
g3
sg16
S'14.0'
p542
sg18
g19
sg20
S'.756'
p543
sg24
S'NBA'
p544
sg26
g3
sg27
S'12.0'
p545
sg29
S'5.7'
p546
sg31
S'4.4'
p547
sg33
S'11.6'
p548
sg35
S'26'
p549
sg37
S'SDR'
p550
sg39
S'35'
p551
sg41
g3
sg42
S'5.3'
p552
sg44
S'3.4'
p553
sg46
S'12.0'
p554
sg48
g3
sg49
S'1968-69'
p555
sg51
S'5.3'
p556
sg53
g3
sg54
S'.441'
p557
sg56
S'332'
p558
sg58
g3
sba(isrc.gp1.models.Per36Minutes
Per36Minutes
p559
(dp560
g8
g3
sg9
g3
sg10
S'.454'
p561
sg12
S'2.0'
p562
sg14
g3
sg15
g3
sg16
S'15.0'
p563
sg18
g19
sg20
S'.670'
p564
sg24
S'NBA'
p565
sg26
g3
sg27
S'13.2'
p566
sg29
S'5.6'
p567
sg31
S'4.5'
p568
sg33
S'11.8'
p569
sg35
S'27'
p570
sg37
S'BOS'
p571
sg39
S'80'
p572
sg41
g3
sg42
S'6.0'
p573
sg44
S'3.0'
p574
sg46
S'13.2'
p575
sg48
g3
sg49
S'1969-70'
p576
sg51
S'6.0'
p577
sg53
g3
sg54
S'.454'
p578
sg56
S'1866'
p579
sg58
g3
sba(isrc.gp1.models.Per36Minutes
Per36Minutes
p580
(dp581
g8
g3
sg9
g3
sg10
S'.438'
p582
sg12
S'2.3'
p583
sg14
g3
sg15
g3
sg16
S'15.2'
p584
sg18
g19
sg20
S'.732'
p585
sg24
S'NBA'
p586
sg26
g3
sg27
S'14.3'
p587
sg29
S'5.7'
p588
sg31
S'3.7'
p589
sg33
S'10.0'
p590
sg35
S'28'
p591
sg37
S'BOS'
p592
sg39
S'80'
p593
sg41
g3
sg42
S'6.2'
p594
sg44
S'2.7'
p595
sg46
S'14.3'
p596
sg48
g3
sg49
S'1970-71'
p597
sg51
S'6.2'
p598
sg53
g3
sg54
S'.438'
p599
sg56
S'1234'
p600
sg58
g3
sba(isrc.gp1.models.Per36Minutes
Per36Minutes
p601
(dp602
g8
g3
sg9
g3
sg10
S'.406'
p603
sg12
S'3.0'
p604
sg14
g3
sg15
g3
sg16
S'12.2'
p605
sg18
g19
sg20
S'.581'
p606
sg24
S'NBA'
p607
sg26
g3
sg27
S'12.4'
p608
sg29
S'5.8'
p609
sg31
S'3.6'
p610
sg33
S'12.3'
p611
sg35
S'29'
p612
sg37
S'BOS'
p613
sg39
S'78'
p614
sg41
g3
sg42
S'5.0'
p615
sg44
S'2.1'
p616
sg46
S'12.4'
p617
sg48
g3
sg49
S'1971-72'
p618
sg51
S'5.0'
p619
sg53
g3
sg54
S'.406'
p620
sg56
S'736'
p621
sg58
g3
sba(isrc.gp1.models.Per36Minutes
Per36Minutes
p622
(dp623
g8
g3
sg9
g3
sg10
S'.451'
p624
sg12
S'1.9'
p625
sg14
g3
sg15
g3
sg16
S'13.4'
p626
sg18
g19
sg20
S'.538'
p627
sg24
S'NBA'
p628
sg26
g3
sg27
S'12.6'
p629
sg29
S'6.0'
p630
sg31
S'3.8'
p631
sg33
S'11.0'
p632
sg35
S'30'
p633
sg37
S'BOS'
p634
sg39
S'76'
p635
sg41
g3
sg42
S'5.7'
p636
sg44
S'2.0'
p637
sg46
S'12.6'
p638
sg48
g3
sg49
S'1972-73'
p639
sg51
S'5.7'
p640
sg53
g3
sg54
S'.451'
p641
sg56
S'496'
p642
sg58
g3
sba(isrc.gp1.models.Per36Minutes
Per36Minutes
p643
(dp644
g8
S'3.5'
p645
sg9
g3
sg10
S'.462'
p646
sg12
S'2.3'
p647
sg14
g3
sg15
g3
sg16
S'12.5'
p648
sg18
g19
sg20
S'.651'
p649
sg24
S'NBA'
p650
sg26
S'0.3'
p651
sg27
S'11.0'
p652
sg29
S'5.2'
p653
sg31
S'3.6'
p654
sg33
S'11.4'
p655
sg35
S'31'
p656
sg37
S'BOS'
p657
sg39
S'60'
p658
sg41
S'0.6'
p659
sg42
S'5.1'
p660
sg44
S'2.4'
p661
sg46
S'11.0'
p662
sg48
S'7.9'
p663
sg49
S'1973-74'
p664
sg51
S'5.1'
p665
sg53
g3
sg54
S'.462'
p666
sg56
S'427'
p667
sg58
g3
sba(isrc.gp1.models.Per36Minutes
Per36Minutes
p668
(dp669
g8
S'2.3'
p670
sg9
g3
sg10
S'.403'
p671
sg12
S'2.2'
p672
sg14
g3
sg15
g3
sg16
S'8.8'
p673
sg18
g19
sg20
S'.535'
p674
sg24
S'NBA'
p675
sg26
S'0.5'
p676
sg27
S'9.0'
p677
sg29
S'5.0'
p678
sg31
S'3.0'
p679
sg33
S'7.8'
p680
sg35
S'32'
p681
sg37
S'BOS'
p682
sg39
S'62'
p683
sg41
S'0.2'
p684
sg42
S'3.6'
p685
sg44
S'1.6'
p686
sg46
S'9.0'
p687
sg48
S'5.5'
p688
sg49
S'1974-75'
p689
sg51
S'3.6'
p690
sg53
g3
sg54
S'.403'
p691
sg56
S'518'
p692
sg58
g3
sbasS'_fromYear'
p693
S'1967'
p694
sS'_url'
p695
S'http://www.basketball-reference.com/players/f/finkeha01.html'
p696
sS'_perGame'
p697
(isrc.gp1.models.PerGame
PerGame
p698
(dp699
g8
S'0.5'
p700
sg9
g3
sg10
S'.403'
p701
sS'_effectiveFieldGalPercentage'
p702
S'.403'
p703
sg12
S'0.5'
p704
sg14
g3
sg15
g3
sg16
S'2.0'
p705
sg18
g19
sg20
S'.535'
p706
sg24
S'NBA'
p707
sg26
S'0.1'
p708
sg29
S'1.2'
p709
sS'_fieldGoalsttempted'
p710
S'2.1'
p711
sg31
S'0.7'
p712
sg33
S'1.8'
p713
sg35
S'32'
p714
sg37
S'BOS'
p715
sg39
S'62'
p716
sg41
S'0.0'
p717
sg42
S'0.8'
p718
sg44
S'0.4'
p719
sg46
S'2.1'
p720
sg48
S'1.3'
p721
sg49
S'1974-75'
p722
sg51
S'0.8'
p723
sg53
g3
sg54
S'.403'
p724
sg56
S'8.4'
p725
sg58
g3
sbsS'_weight'
p726
S'240'
p727
sS'_dob'
p728
S'20-4-1942'
p729
sS'_salary'
p730
(lp731
sg18
g19
sb.