(isrc.gp1.models.Player
Player
p0
(dp1
S'_experience'
p2
S'NA'
p3
sS'_totals'
p4
(lp5
(isrc.gp1.models.Totals
Totals
p6
(dp7
S'_offensiveRebounds'
p8
S'139'
p9
sS'_threePointsAttempted'
p10
S'186'
p11
sS'_fieldGoalsPercentage'
p12
S'.476'
p13
sS'_assist'
p14
S'289'
p15
sS'_threePointsPercentage'
p16
S'.328'
p17
sS'_threePoints'
p18
S'61'
p19
sS'_points'
p20
S'1233'
p21
sS'_position'
p22
S'SF'
p23
sS'_freeThrowsPercentage'
p24
S'.749'
p25
sS'_effectiveFieldGoalPercentage'
p26
S'.508'
p27
sS'_league'
p28
S'NBA'
p29
sS'_steals'
p30
S'85'
p31
sS'_fieldGoalsAttempted'
p32
S'976'
p33
sS'_personalFouls'
p34
S'199'
p35
sS'_freeThrowsAttempted'
p36
S'323'
p37
sS'_totalRebounds'
p38
S'374'
p39
sS'_age'
p40
S'22'
p41
sS'_team'
p42
S'PHO'
p43
sS'_games'
p44
S'82'
p45
sS'_blocks'
p46
S'31'
p47
sS'_twoPoints'
p48
S'404'
p49
sS'_freeThrows'
p50
S'242'
p51
sS'_twoPointsAttempted'
p52
S'790'
p53
sS'_defensiveRebounds'
p54
S'235'
p55
sS'_season'
p56
S'1995-96'
p57
sS'_fieldGoals'
p58
S'465'
p59
sS'_turnOvers'
p60
S'133'
p61
sS'_twoPointsPercentage'
p62
S'.511'
p63
sS'_minutesPlayed'
p64
S'3212'
p65
sS'_gamesStarted'
p66
S'72'
p67
sba(isrc.gp1.models.Totals
Totals
p68
(dp69
g8
S'88'
p70
sg10
S'280'
p71
sg12
S'.444'
p72
sg14
S'224'
p73
sg16
S'.361'
p74
sg18
S'101'
p75
sg20
S'1249'
p76
sg22
S'SF'
p77
sg24
S'.808'
p78
sg26
S'.491'
p79
sg28
S'NBA'
p80
sg30
S'68'
p81
sg32
S'1071'
p82
sg34
S'138'
p83
sg36
S'245'
p84
sg38
S'372'
p85
sg40
S'23'
p86
sg42
S'TOT'
p87
sg44
S'83'
p88
sg46
S'24'
p89
sg48
S'374'
p90
sg50
S'198'
p91
sg52
S'791'
p92
sg54
S'284'
p93
sg56
S'1996-97'
p94
sg58
S'475'
p95
sg60
S'164'
p96
sg62
S'.473'
p97
sg64
S'2790'
p98
sg66
S'54'
p99
sba(isrc.gp1.models.Totals
Totals
p100
(dp101
g8
S'34'
p102
sg10
S'55'
p103
sg12
S'.475'
p104
sg14
S'68'
p105
sg16
S'.255'
p106
sg18
S'14'
p107
sg20
S'352'
p108
sg22
S'SF'
p109
sg24
S'.812'
p110
sg26
S'.498'
p111
sg28
S'NBA'
p112
sg30
S'18'
p113
sg32
S'297'
p114
sg34
S'42'
p115
sg36
S'69'
p116
sg38
S'120'
p117
sg40
S'23'
p118
sg42
S'PHO'
p119
sg44
S'27'
p120
sg46
S'4'
p121
sg48
S'127'
p122
sg50
S'56'
p123
sg52
S'242'
p124
sg54
S'86'
p125
sg56
S'1996-97'
p126
sg58
S'141'
p127
sg60
S'44'
p128
sg62
S'.525'
p129
sg64
S'796'
p130
sg66
S'18'
p131
sba(isrc.gp1.models.Totals
Totals
p132
(dp133
g8
S'54'
p134
sg10
S'225'
p135
sg12
S'.432'
p136
sg14
S'156'
p137
sg16
S'.387'
p138
sg18
S'87'
p139
sg20
S'897'
p140
sg22
S'SF'
p141
sg24
S'.807'
p142
sg26
S'.488'
p143
sg28
S'NBA'
p144
sg30
S'50'
p145
sg32
S'774'
p146
sg34
S'96'
p147
sg36
S'176'
p148
sg38
S'252'
p149
sg40
S'23'
p150
sg42
S'DAL'
p151
sg44
S'56'
p152
sg46
S'20'
p153
sg48
S'247'
p154
sg50
S'142'
p155
sg52
S'549'
p156
sg54
S'198'
p157
sg56
S'1996-97'
p158
sg58
S'334'
p159
sg60
S'120'
p160
sg62
S'.450'
p161
sg64
S'1994'
p162
sg66
S'36'
p163
sba(isrc.gp1.models.Totals
Totals
p164
(dp165
g8
S'150'
p166
sg10
S'244'
p167
sg12
S'.449'
p168
sg14
S'405'
p169
sg16
S'.357'
p170
sg18
S'87'
p171
sg20
S'1763'
p172
sg22
S'SF'
p173
sg24
S'.784'
p174
sg26
S'.477'
p175
sg28
S'NBA'
p176
sg30
S'132'
p177
sg32
S'1505'
p178
sg34
S'163'
p179
sg36
S'416'
p180
sg38
S'438'
p181
sg40
S'24'
p182
sg42
S'DAL'
p183
sg44
S'82'
p184
sg46
S'30'
p185
sg48
S'588'
p186
sg50
S'326'
p187
sg52
S'1261'
p188
sg54
S'288'
p189
sg56
S'1997-98'
p190
sg58
S'675'
p191
sg60
S'219'
p192
sg62
S'.466'
p193
sg64
S'3394'
p194
sg66
S'82'
p195
sba(isrc.gp1.models.Totals
Totals
p196
(dp197
g8
S'69'
p198
sg10
S'136'
p199
sg12
S'.444'
p200
sg14
S'218'
p201
sg16
S'.331'
p202
sg18
S'45'
p203
sg20
S'1009'
p204
sg22
S'SF'
p205
sg24
S'.823'
p206
sg26
S'.470'
p207
sg28
S'NBA'
p208
sg30
S'66'
p209
sg32
S'876'
p210
sg34
S'96'
p211
sg36
S'226'
p212
sg38
S'263'
p213
sg40
S'25'
p214
sg42
S'DAL'
p215
sg44
S'50'
p216
sg46
S'15'
p217
sg48
S'344'
p218
sg50
S'186'
p219
sg52
S'740'
p220
sg54
S'194'
p221
sg56
S'1998-99'
p222
sg58
S'389'
p223
sg60
S'107'
p224
sg62
S'.465'
p225
sg64
S'2051'
p226
sg66
S'50'
p227
sba(isrc.gp1.models.Totals
Totals
p228
(dp229
g8
S'122'
p230
sg10
S'247'
p231
sg12
S'.457'
p232
sg14
S'438'
p233
sg16
S'.401'
p234
sg18
S'99'
p235
sg20
S'1855'
p236
sg22
S'SF'
p237
sg24
S'.820'
p238
sg26
S'.487'
p239
sg28
S'NBA'
p240
sg30
S'109'
p241
sg32
S'1636'
p242
sg34
S'171'
p243
sg36
S'317'
p244
sg38
S'518'
p245
sg40
S'26'
p246
sg42
S'DAL'
p247
sg44
S'82'
p248
sg46
S'32'
p249
sg48
S'649'
p250
sg50
S'260'
p251
sg52
S'1389'
p252
sg54
S'396'
p253
sg56
S'1999-00'
p254
sg58
S'748'
p255
sg60
S'196'
p256
sg62
S'.467'
p257
sg64
S'3464'
p258
sg66
S'82'
p259
sba(isrc.gp1.models.Totals
Totals
p260
(dp261
g8
S'109'
p262
sg10
S'263'
p263
sg12
S'.458'
p264
sg14
S'360'
p265
sg16
S'.346'
p266
sg18
S'91'
p267
sg20
S'1765'
p268
sg22
S'SF'
p269
sg24
S'.775'
p270
sg26
S'.487'
p271
sg28
S'NBA'
p272
sg30
S'118'
p273
sg32
S'1552'
p274
sg34
S'174'
p275
sg36
S'325'
p276
sg38
S'425'
p277
sg40
S'27'
p278
sg42
S'DAL'
p279
sg44
S'82'
p280
sg46
S'32'
p281
sg48
S'620'
p282
sg50
S'252'
p283
sg52
S'1289'
p284
sg54
S'316'
p285
sg56
S'2000-01'
p286
sg58
S'711'
p287
sg60
S'190'
p288
sg62
S'.481'
p289
sg64
S'3443'
p290
sg66
S'82'
p291
sba(isrc.gp1.models.Totals
Totals
p292
(dp293
g8
S'90'
p294
sg10
S'224'
p295
sg12
S'.463'
p296
sg14
S'230'
p297
sg16
S'.339'
p298
sg18
S'76'
p299
sg20
S'1424'
p300
sg22
S'SF'
p301
sg24
S'.837'
p302
sg26
S'.494'
p303
sg28
S'NBA'
p304
sg30
S'65'
p305
sg32
S'1228'
p306
sg34
S'144'
p307
sg36
S'251'
p308
sg38
S'360'
p309
sg40
S'28'
p310
sg42
S'DAL'
p311
sg44
S'69'
p312
sg46
S'25'
p313
sg48
S'493'
p314
sg50
S'210'
p315
sg52
S'1004'
p316
sg54
S'270'
p317
sg56
S'2001-02'
p318
sg58
S'569'
p319
sg60
S'117'
p320
sg62
S'.491'
p321
sg64
S'2754'
p322
sg66
S'69'
p323
sba(isrc.gp1.models.Totals
Totals
p324
(dp325
g8
S'107'
p326
sg10
S'322'
p327
sg12
S'.425'
p328
sg14
S'205'
p329
sg16
S'.370'
p330
sg18
S'119'
p331
sg20
S'1331'
p332
sg22
S'SF'
p333
sg24
S'.861'
p334
sg26
S'.475'
p335
sg28
S'NBA'
p336
sg30
S'76'
p337
sg32
S'1193'
p338
sg34
S'105'
p339
sg36
S'230'
p340
sg38
S'402'
p341
sg40
S'29'
p342
sg42
S'DAL'
p343
sg44
S'69'
p344
sg46
S'21'
p345
sg48
S'388'
p346
sg50
S'198'
p347
sg52
S'871'
p348
sg54
S'295'
p349
sg56
S'2002-03'
p350
sg58
S'507'
p351
sg60
S'114'
p352
sg62
S'.445'
p353
sg64
S'2642'
p354
sg66
S'69'
p355
sba(isrc.gp1.models.Totals
Totals
p356
(dp357
g8
S'78'
p358
sg10
S'370'
p359
sg12
S'.443'
p360
sg14
S'212'
p361
sg16
S'.405'
p362
sg18
S'150'
p363
sg20
S'1342'
p364
sg22
S'SG'
p365
sg24
S'.850'
p366
sg26
S'.508'
p367
sg28
S'NBA'
p368
sg30
S'84'
p369
sg32
S'1159'
p370
sg34
S'118'
p371
sg36
S'193'
p372
sg38
S'325'
p373
sg40
S'30'
p374
sg42
S'DAL'
p375
sg44
S'72'
p376
sg46
S'39'
p377
sg48
S'364'
p378
sg50
S'164'
p379
sg52
S'789'
p380
sg54
S'247'
p381
sg56
S'2003-04'
p382
sg58
S'514'
p383
sg60
S'83'
p384
sg62
S'.461'
p385
sg64
S'2778'
p386
sg66
S'72'
p387
sba(isrc.gp1.models.Totals
Totals
p388
(dp389
g8
S'45'
p390
sg10
S'285'
p391
sg12
S'.427'
p392
sg14
S'169'
p393
sg16
S'.407'
p394
sg18
S'116'
p395
sg20
S'1003'
p396
sg22
S'SG'
p397
sg24
S'.831'
p398
sg26
S'.491'
p399
sg28
S'NBA'
p400
sg30
S'48'
p401
sg32
S'907'
p402
sg34
S'123'
p403
sg36
S'136'
p404
sg38
S'262'
p405
sg40
S'31'
p406
sg42
S'DAL'
p407
sg44
S'64'
p408
sg46
S'18'
p409
sg48
S'271'
p410
sg50
S'113'
p411
sg52
S'622'
p412
sg54
S'217'
p413
sg56
S'2004-05'
p414
sg58
S'387'
p415
sg60
S'60'
p416
sg62
S'.436'
p417
sg64
S'2358'
p418
sg66
S'64'
p419
sba(isrc.gp1.models.Totals
Totals
p420
(dp421
g8
S'31'
p422
sg10
S'279'
p423
sg12
S'.412'
p424
sg14
S'116'
p425
sg16
S'.394'
p426
sg18
S'110'
p427
sg20
S'780'
p428
sg22
S'SG'
p429
sg24
S'.852'
p430
sg26
S'.491'
p431
sg28
S'NBA'
p432
sg30
S'37'
p433
sg32
S'695'
p434
sg34
S'97'
p435
sg36
S'115'
p436
sg38
S'247'
p437
sg40
S'32'
p438
sg42
S'SAS'
p439
sg44
S'77'
p440
sg46
S'7'
p441
sg48
S'176'
p442
sg50
S'98'
p443
sg52
S'416'
p444
sg54
S'216'
p445
sg56
S'2005-06'
p446
sg58
S'286'
p447
sg60
S'62'
p448
sg62
S'.423'
p449
sg64
S'2038'
p450
sg66
S'18'
p451
sba(isrc.gp1.models.Totals
Totals
p452
(dp453
g8
S'34'
p454
sg10
S'286'
p455
sg12
S'.412'
p456
sg14
S'108'
p457
sg16
S'.364'
p458
sg18
S'104'
p459
sg20
S'740'
p460
sg22
S'SF'
p461
sg24
S'.918'
p462
sg26
S'.490'
p463
sg28
S'NBA'
p464
sg30
S'32'
p465
sg32
S'663'
p466
sg34
S'76'
p467
sg36
S'98'
p468
sg38
S'223'
p469
sg40
S'33'
p470
sg42
S'SAS'
p471
sg44
S'82'
p472
sg46
S'16'
p473
sg48
S'169'
p474
sg50
S'90'
p475
sg52
S'377'
p476
sg54
S'189'
p477
sg56
S'2006-07'
p478
sg58
S'273'
p479
sg60
S'46'
p480
sg62
S'.448'
p481
sg64
S'1823'
p482
sg66
S'16'
p483
sba(isrc.gp1.models.Totals
Totals
p484
(dp485
g8
S'27'
p486
sg10
S'357'
p487
sg12
S'.414'
p488
sg14
S'114'
p489
sg16
S'.370'
p490
sg18
S'132'
p491
sg20
S'826'
p492
sg22
S'SG'
p493
sg24
S'.800'
p494
sg26
S'.501'
p495
sg28
S'NBA'
p496
sg30
S'29'
p497
sg32
S'761'
p498
sg34
S'93'
p499
sg36
S'80'
p500
sg38
S'254'
p501
sg40
S'34'
p502
sg42
S'SAS'
p503
sg44
S'82'
p504
sg46
S'10'
p505
sg48
S'183'
p506
sg50
S'64'
p507
sg52
S'404'
p508
sg54
S'227'
p509
sg56
S'2007-08'
p510
sg58
S'315'
p511
sg60
S'56'
p512
sg62
S'.453'
p513
sg64
S'2204'
p514
sg66
S'61'
p515
sba(isrc.gp1.models.Totals
Totals
p516
(dp517
g8
S'26'
p518
sg10
S'319'
p519
sg12
S'.437'
p520
sg14
S'114'
p521
sg16
S'.411'
p522
sg18
S'131'
p523
sg20
S'784'
p524
sg22
S'SF'
p525
sg24
S'.823'
p526
sg26
S'.532'
p527
sg28
S'NBA'
p528
sg30
S'37'
p529
sg32
S'689'
p530
sg34
S'82'
p531
sg36
S'62'
p532
sg38
S'270'
p533
sg40
S'35'
p534
sg42
S'SAS'
p535
sg44
S'81'
p536
sg46
S'17'
p537
sg48
S'170'
p538
sg50
S'51'
p539
sg52
S'370'
p540
sg54
S'244'
p541
sg56
S'2008-09'
p542
sg58
S'301'
p543
sg60
S'61'
p544
sg62
S'.459'
p545
sg64
S'2336'
p546
sg66
S'77'
p547
sba(isrc.gp1.models.Totals
Totals
p548
(dp549
g8
S'6'
p550
sg10
S'82'
p551
sg12
S'.440'
p552
sg14
S'43'
p553
sg16
S'.390'
p554
sg18
S'32'
p555
sg20
S'202'
p556
sg22
S'SF'
p557
sg24
S'.533'
p558
sg26
S'.527'
p559
sg28
S'NBA'
p560
sg30
S'10'
p561
sg32
S'184'
p562
sg34
S'33'
p563
sg36
S'15'
p564
sg38
S'71'
p565
sg40
S'36'
p566
sg42
S'TOT'
p567
sg44
S'46'
p568
sg46
g550
sg48
S'49'
p569
sg50
S'8'
p570
sg52
S'102'
p571
sg54
S'65'
p572
sg56
S'2009-10'
p573
sg58
S'81'
p574
sg60
S'21'
p575
sg62
S'.480'
p576
sg64
S'709'
p577
sg66
g441
sba(isrc.gp1.models.Totals
Totals
p578
(dp579
g8
S'5'
p580
sg10
S'41'
p581
sg12
S'.381'
p582
sg14
S'19'
p583
sg16
S'.317'
p584
sg18
S'13'
p585
sg20
S'93'
p586
sg22
S'SF'
p587
sg24
S'.667'
p588
sg26
S'.448'
p589
sg28
S'NBA'
p590
sg30
g550
sg32
S'97'
p591
sg34
S'12'
p592
sg36
S'9'
p593
sg38
S'38'
p594
sg40
S'36'
p595
sg42
S'SAS'
p596
sg44
S'25'
p597
sg46
g121
sg48
S'24'
p598
sg50
g550
sg52
S'56'
p599
sg54
S'33'
p600
sg56
S'2009-10'
p601
sg58
S'37'
p602
sg60
S'13'
p603
sg62
S'.429'
p604
sg64
S'395'
p605
sg66
g550
sba(isrc.gp1.models.Totals
Totals
p606
(dp607
g8
S'1'
p608
sg10
S'41'
p609
sg12
S'.506'
p610
sg14
S'24'
p611
sg16
S'.463'
p612
sg18
S'19'
p613
sg20
S'109'
p614
sg22
S'SF'
p615
sg24
S'.333'
p616
sg26
S'.615'
p617
sg28
S'NBA'
p618
sg30
g121
sg32
S'87'
p619
sg34
S'21'
p620
sg36
g550
sg38
S'33'
p621
sg40
S'36'
p622
sg42
S'BOS'
p623
sg44
S'21'
p624
sg46
S'2'
p625
sg48
S'25'
p626
sg50
g625
sg52
S'46'
p627
sg54
S'32'
p628
sg56
S'2009-10'
p629
sg58
S'44'
p630
sg60
g570
sg62
S'.543'
p631
sg64
S'314'
p632
sg66
g608
sbasS'_college'
p633
S'University of Wisconsin'
p634
sS'_toYear'
p635
S'2010'
p636
sS'_height'
p637
S'6-7'
p638
sS'_active'
p639
I00
sS'_shootingHand'
p640
VRight
p641
sS'_name'
p642
S'Michael Finley'
p643
sS'_per100Possessions'
p644
(lp645
(isrc.gp1.models.Per100Possession
Per100Possession
p646
(dp647
g8
S'2.2'
p648
sg10
S'3.0'
p649
sg12
S'.476'
p650
sS'_offensiveRating'
p651
S'114'
p652
sg14
S'4.6'
p653
sg16
S'.328'
p654
sg18
S'1.0'
p655
sg20
S'19.8'
p656
sg22
S'SF'
p657
sS'_defensiveRating'
p658
S'113'
p659
sg24
S'.749'
p660
sg28
S'NBA'
p661
sg30
S'1.4'
p662
sg32
S'15.6'
p663
sg34
S'3.2'
p664
sg36
S'5.2'
p665
sg38
S'6.0'
p666
sg40
S'22'
p667
sg42
S'PHO'
p668
sg44
S'82'
p669
sg46
S'0.5'
p670
sg48
S'6.5'
p671
sg50
S'3.9'
p672
sg52
S'12.7'
p673
sg54
S'3.8'
p674
sg56
S'1995-96'
p675
sg58
S'7.5'
p676
sg60
S'2.1'
p677
sg62
S'.511'
p678
sg64
S'3212'
p679
sg66
S'72'
p680
sba(isrc.gp1.models.Per100Possession
Per100Possession
p681
(dp682
g8
S'1.7'
p683
sg10
S'5.3'
p684
sg12
S'.444'
p685
sg651
S'105'
p686
sg14
S'4.3'
p687
sg16
S'.361'
p688
sg18
S'1.9'
p689
sg20
S'23.8'
p690
sg22
S'SF'
p691
sg658
S'111'
p692
sg24
S'.808'
p693
sg28
S'NBA'
p694
sg30
S'1.3'
p695
sg32
S'20.4'
p696
sg34
S'2.6'
p697
sg36
S'4.7'
p698
sg38
S'7.1'
p699
sg40
S'23'
p700
sg42
S'TOT'
p701
sg44
S'83'
p702
sg46
S'0.5'
p703
sg48
S'7.1'
p704
sg50
S'3.8'
p705
sg52
S'15.1'
p706
sg54
S'5.4'
p707
sg56
S'1996-97'
p708
sg58
S'9.1'
p709
sg60
S'3.1'
p710
sg62
S'.473'
p711
sg64
S'2790'
p712
sg66
S'54'
p713
sba(isrc.gp1.models.Per100Possession
Per100Possession
p714
(dp715
g8
S'2.2'
p716
sg10
S'3.6'
p717
sg12
S'.475'
p718
sg651
S'107'
p719
sg14
S'4.4'
p720
sg16
S'.255'
p721
sg18
S'0.9'
p722
sg20
S'22.8'
p723
sg22
S'SF'
p724
sg658
S'111'
p725
sg24
S'.812'
p726
sg28
S'NBA'
p727
sg30
S'1.2'
p728
sg32
S'19.2'
p729
sg34
S'2.7'
p730
sg36
S'4.5'
p731
sg38
S'7.8'
p732
sg40
S'23'
p733
sg42
S'PHO'
p734
sg44
S'27'
p735
sg46
S'0.3'
p736
sg48
S'8.2'
p737
sg50
S'3.6'
p738
sg52
S'15.7'
p739
sg54
S'5.6'
p740
sg56
S'1996-97'
p741
sg58
S'9.1'
p742
sg60
S'2.8'
p743
sg62
S'.525'
p744
sg64
S'796'
p745
sg66
S'18'
p746
sba(isrc.gp1.models.Per100Possession
Per100Possession
p747
(dp748
g8
S'1.5'
p749
sg10
S'6.1'
p750
sg12
S'.432'
p751
sg651
S'104'
p752
sg14
S'4.2'
p753
sg16
S'.387'
p754
sg18
S'2.4'
p755
sg20
S'24.3'
p756
sg22
S'SF'
p757
sg658
S'110'
p758
sg24
S'.807'
p759
sg28
S'NBA'
p760
sg30
S'1.4'
p761
sg32
S'20.9'
p762
sg34
S'2.6'
p763
sg36
S'4.8'
p764
sg38
S'6.8'
p765
sg40
S'23'
p766
sg42
S'DAL'
p767
sg44
S'56'
p768
sg46
S'0.5'
p769
sg48
S'6.7'
p770
sg50
S'3.8'
p771
sg52
S'14.8'
p772
sg54
S'5.4'
p773
sg56
S'1996-97'
p774
sg58
S'9.0'
p775
sg60
S'3.2'
p776
sg62
S'.450'
p777
sg64
S'1994'
p778
sg66
S'36'
p779
sba(isrc.gp1.models.Per100Possession
Per100Possession
p780
(dp781
g8
S'2.4'
p782
sg10
S'3.8'
p783
sg12
S'.449'
p784
sg651
S'107'
p785
sg14
S'6.4'
p786
sg16
S'.357'
p787
sg18
S'1.4'
p788
sg20
S'27.7'
p789
sg22
S'SF'
p790
sg658
S'109'
p791
sg24
S'.784'
p792
sg28
S'NBA'
p793
sg30
S'2.1'
p794
sg32
S'23.7'
p795
sg34
S'2.6'
p796
sg36
S'6.5'
p797
sg38
S'6.9'
p798
sg40
S'24'
p799
sg42
S'DAL'
p800
sg44
S'82'
p801
sg46
S'0.5'
p802
sg48
S'9.2'
p803
sg50
S'5.1'
p804
sg52
S'19.8'
p805
sg54
S'4.5'
p806
sg56
S'1997-98'
p807
sg58
S'10.6'
p808
sg60
S'3.4'
p809
sg62
S'.466'
p810
sg64
S'3394'
p811
sg66
S'82'
p812
sba(isrc.gp1.models.Per100Possession
Per100Possession
p813
(dp814
g8
S'1.8'
p815
sg10
S'3.6'
p816
sg12
S'.444'
p817
sg651
S'108'
p818
sg14
S'5.7'
p819
sg16
S'.331'
p820
sg18
S'1.2'
p821
sg20
S'26.5'
p822
sg22
S'SF'
p823
sg658
S'107'
p824
sg24
S'.823'
p825
sg28
S'NBA'
p826
sg30
S'1.7'
p827
sg32
S'23.0'
p828
sg34
S'2.5'
p829
sg36
S'5.9'
p830
sg38
S'6.9'
p831
sg40
S'25'
p832
sg42
S'DAL'
p833
sg44
S'50'
p834
sg46
S'0.4'
p835
sg48
S'9.0'
p836
sg50
S'4.9'
p837
sg52
S'19.4'
p838
sg54
S'5.1'
p839
sg56
S'1998-99'
p840
sg58
S'10.2'
p841
sg60
S'2.8'
p842
sg62
S'.465'
p843
sg64
S'2051'
p844
sg66
S'50'
p845
sba(isrc.gp1.models.Per100Possession
Per100Possession
p846
(dp847
g8
S'1.8'
p848
sg10
S'3.6'
p849
sg12
S'.457'
p850
sg651
S'108'
p851
sg14
S'6.4'
p852
sg16
S'.401'
p853
sg18
S'1.4'
p854
sg20
S'27.1'
p855
sg22
S'SF'
p856
sg658
S'108'
p857
sg24
S'.820'
p858
sg28
S'NBA'
p859
sg30
S'1.6'
p860
sg32
S'23.9'
p861
sg34
S'2.5'
p862
sg36
S'4.6'
p863
sg38
S'7.6'
p864
sg40
S'26'
p865
sg42
S'DAL'
p866
sg44
S'82'
p867
sg46
S'0.5'
p868
sg48
S'9.5'
p869
sg50
S'3.8'
p870
sg52
S'20.3'
p871
sg54
S'5.8'
p872
sg56
S'1999-00'
p873
sg58
S'10.9'
p874
sg60
S'2.9'
p875
sg62
S'.467'
p876
sg64
S'3464'
p877
sg66
S'82'
p878
sba(isrc.gp1.models.Per100Possession
Per100Possession
p879
(dp880
g8
S'1.6'
p881
sg10
S'3.9'
p882
sg12
S'.458'
p883
sg651
S'105'
p884
sg14
S'5.4'
p885
sg16
S'.346'
p886
sg18
S'1.4'
p887
sg20
S'26.4'
p888
sg22
S'SF'
p889
sg658
S'105'
p890
sg24
S'.775'
p891
sg28
S'NBA'
p892
sg30
S'1.8'
p893
sg32
S'23.2'
p894
sg34
S'2.6'
p895
sg36
S'4.9'
p896
sg38
S'6.4'
p897
sg40
S'27'
p898
sg42
S'DAL'
p899
sg44
S'82'
p900
sg46
S'0.5'
p901
sg48
S'9.3'
p902
sg50
S'3.8'
p903
sg52
S'19.3'
p904
sg54
S'4.7'
p905
sg56
S'2000-01'
p906
sg58
S'10.6'
p907
sg60
S'2.8'
p908
sg62
S'.481'
p909
sg64
S'3443'
p910
sg66
S'82'
p911
sba(isrc.gp1.models.Per100Possession
Per100Possession
p912
(dp913
g8
S'1.7'
p914
sg10
S'4.2'
p915
sg12
S'.463'
p916
sg651
S'110'
p917
sg14
S'4.3'
p918
sg16
S'.339'
p919
sg18
S'1.4'
p920
sg20
S'26.7'
p921
sg22
S'SF'
p922
sg658
S'110'
p923
sg24
S'.837'
p924
sg28
S'NBA'
p925
sg30
S'1.2'
p926
sg32
S'23.1'
p927
sg34
S'2.7'
p928
sg36
S'4.7'
p929
sg38
S'6.8'
p930
sg40
S'28'
p931
sg42
S'DAL'
p932
sg44
S'69'
p933
sg46
S'0.5'
p934
sg48
S'9.3'
p935
sg50
S'3.9'
p936
sg52
S'18.8'
p937
sg54
S'5.1'
p938
sg56
S'2001-02'
p939
sg58
S'10.7'
p940
sg60
S'2.2'
p941
sg62
S'.491'
p942
sg64
S'2754'
p943
sg66
S'69'
p944
sba(isrc.gp1.models.Per100Possession
Per100Possession
p945
(dp946
g8
S'2.1'
p947
sg10
S'6.3'
p948
sg12
S'.425'
p949
sg651
S'107'
p950
sg14
S'4.0'
p951
sg16
S'.370'
p952
sg18
S'2.3'
p953
sg20
S'26.1'
p954
sg22
S'SF'
p955
sg658
S'104'
p956
sg24
S'.861'
p957
sg28
S'NBA'
p958
sg30
S'1.5'
p959
sg32
S'23.4'
p960
sg34
S'2.1'
p961
sg36
S'4.5'
p962
sg38
S'7.9'
p963
sg40
S'29'
p964
sg42
S'DAL'
p965
sg44
S'69'
p966
sg46
S'0.4'
p967
sg48
S'7.6'
p968
sg50
S'3.9'
p969
sg52
S'17.1'
p970
sg54
S'5.8'
p971
sg56
S'2002-03'
p972
sg58
S'10.0'
p973
sg60
S'2.2'
p974
sg62
S'.445'
p975
sg64
S'2642'
p976
sg66
S'69'
p977
sba(isrc.gp1.models.Per100Possession
Per100Possession
p978
(dp979
g8
S'1.4'
p980
sg10
S'6.9'
p981
sg12
S'.443'
p982
sg651
S'115'
p983
sg14
S'3.9'
p984
sg16
S'.405'
p985
sg18
S'2.8'
p986
sg20
S'24.9'
p987
sg22
S'SG'
p988
sg658
S'110'
p989
sg24
S'.850'
p990
sg28
S'NBA'
p991
sg30
S'1.6'
p992
sg32
S'21.5'
p993
sg34
S'2.2'
p994
sg36
S'3.6'
p995
sg38
S'6.0'
p996
sg40
S'30'
p997
sg42
S'DAL'
p998
sg44
S'72'
p999
sg46
S'0.7'
p1000
sg48
S'6.7'
p1001
sg50
S'3.0'
p1002
sg52
S'14.6'
p1003
sg54
S'4.6'
p1004
sg56
S'2003-04'
p1005
sg58
S'9.5'
p1006
sg60
S'1.5'
p1007
sg62
S'.461'
p1008
sg64
S'2778'
p1009
sg66
S'72'
p1010
sba(isrc.gp1.models.Per100Possession
Per100Possession
p1011
(dp1012
g8
S'1.0'
p1013
sg10
S'6.3'
p1014
sg12
S'.427'
p1015
sg651
S'111'
p1016
sg14
S'3.7'
p1017
sg16
S'.407'
p1018
sg18
S'2.5'
p1019
sg20
S'22.0'
p1020
sg22
S'SG'
p1021
sg658
S'108'
p1022
sg24
S'.831'
p1023
sg28
S'NBA'
p1024
sg30
S'1.1'
p1025
sg32
S'19.9'
p1026
sg34
S'2.7'
p1027
sg36
S'3.0'
p1028
sg38
S'5.8'
p1029
sg40
S'31'
p1030
sg42
S'DAL'
p1031
sg44
S'64'
p1032
sg46
S'0.4'
p1033
sg48
S'6.0'
p1034
sg50
S'2.5'
p1035
sg52
S'13.7'
p1036
sg54
S'4.8'
p1037
sg56
S'2004-05'
p1038
sg58
S'8.5'
p1039
sg60
S'1.3'
p1040
sg62
S'.436'
p1041
sg64
S'2358'
p1042
sg66
S'64'
p1043
sba(isrc.gp1.models.Per100Possession
Per100Possession
p1044
(dp1045
g8
S'0.8'
p1046
sg10
S'7.4'
p1047
sg12
S'.412'
p1048
sg651
S'107'
p1049
sg14
S'3.1'
p1050
sg16
S'.394'
p1051
sg18
S'2.9'
p1052
sg20
S'20.8'
p1053
sg22
S'SG'
p1054
sg658
S'103'
p1055
sg24
S'.852'
p1056
sg28
S'NBA'
p1057
sg30
S'1.0'
p1058
sg32
S'18.5'
p1059
sg34
S'2.6'
p1060
sg36
S'3.1'
p1061
sg38
S'6.6'
p1062
sg40
S'32'
p1063
sg42
S'SAS'
p1064
sg44
S'77'
p1065
sg46
S'0.2'
p1066
sg48
S'4.7'
p1067
sg50
S'2.6'
p1068
sg52
S'11.1'
p1069
sg54
S'5.7'
p1070
sg56
S'2005-06'
p1071
sg58
S'7.6'
p1072
sg60
S'1.6'
p1073
sg62
S'.423'
p1074
sg64
S'2038'
p1075
sg66
S'18'
p1076
sba(isrc.gp1.models.Per100Possession
Per100Possession
p1077
(dp1078
g8
S'1.0'
p1079
sg10
S'8.4'
p1080
sg12
S'.412'
p1081
sg651
S'108'
p1082
sg14
S'3.2'
p1083
sg16
S'.364'
p1084
sg18
S'3.1'
p1085
sg20
S'21.7'
p1086
sg22
S'SF'
p1087
sg658
S'103'
p1088
sg24
S'.918'
p1089
sg28
S'NBA'
p1090
sg30
S'0.9'
p1091
sg32
S'19.4'
p1092
sg34
S'2.2'
p1093
sg36
S'2.9'
p1094
sg38
S'6.5'
p1095
sg40
S'33'
p1096
sg42
S'SAS'
p1097
sg44
S'82'
p1098
sg46
S'0.5'
p1099
sg48
S'5.0'
p1100
sg50
S'2.6'
p1101
sg52
S'11.1'
p1102
sg54
S'5.5'
p1103
sg56
S'2006-07'
p1104
sg58
S'8.0'
p1105
sg60
S'1.3'
p1106
sg62
S'.448'
p1107
sg64
S'1823'
p1108
sg66
S'16'
p1109
sba(isrc.gp1.models.Per100Possession
Per100Possession
p1110
(dp1111
g8
S'0.7'
p1112
sg10
S'8.8'
p1113
sg12
S'.414'
p1114
sg651
S'105'
p1115
sg14
S'2.8'
p1116
sg16
S'.370'
p1117
sg18
S'3.2'
p1118
sg20
S'20.3'
p1119
sg22
S'SG'
p1120
sg658
S'105'
p1121
sg24
S'.800'
p1122
sg28
S'NBA'
p1123
sg30
S'0.7'
p1124
sg32
S'18.7'
p1125
sg34
S'2.3'
p1126
sg36
S'2.0'
p1127
sg38
S'6.2'
p1128
sg40
S'34'
p1129
sg42
S'SAS'
p1130
sg44
S'82'
p1131
sg46
S'0.2'
p1132
sg48
S'4.5'
p1133
sg50
S'1.6'
p1134
sg52
S'9.9'
p1135
sg54
S'5.6'
p1136
sg56
S'2007-08'
p1137
sg58
S'7.7'
p1138
sg60
S'1.4'
p1139
sg62
S'.453'
p1140
sg64
S'2204'
p1141
sg66
S'61'
p1142
sba(isrc.gp1.models.Per100Possession
Per100Possession
p1143
(dp1144
g8
S'0.6'
p1145
sg10
S'7.4'
p1146
sg12
S'.437'
p1147
sg651
S'107'
p1148
sg14
S'2.6'
p1149
sg16
S'.411'
p1150
sg18
S'3.0'
p1151
sg20
S'18.2'
p1152
sg22
S'SF'
p1153
sg658
S'107'
p1154
sg24
S'.823'
p1155
sg28
S'NBA'
p1156
sg30
S'0.9'
p1157
sg32
S'16.0'
p1158
sg34
S'1.9'
p1159
sg36
S'1.4'
p1160
sg38
S'6.3'
p1161
sg40
S'35'
p1162
sg42
S'SAS'
p1163
sg44
S'81'
p1164
sg46
S'0.4'
p1165
sg48
S'4.0'
p1166
sg50
S'1.2'
p1167
sg52
S'8.6'
p1168
sg54
S'5.7'
p1169
sg56
S'2008-09'
p1170
sg58
S'7.0'
p1171
sg60
S'1.4'
p1172
sg62
S'.459'
p1173
sg64
S'2336'
p1174
sg66
S'77'
p1175
sba(isrc.gp1.models.Per100Possession
Per100Possession
p1176
(dp1177
g8
S'0.4'
p1178
sg10
S'6.1'
p1179
sg12
S'.440'
p1180
sg651
S'104'
p1181
sg14
S'3.2'
p1182
sg16
S'.390'
p1183
sg18
S'2.4'
p1184
sg20
S'14.9'
p1185
sg22
S'SF'
p1186
sg658
S'108'
p1187
sg24
S'.533'
p1188
sg28
S'NBA'
p1189
sg30
S'0.7'
p1190
sg32
S'13.6'
p1191
sg34
S'2.4'
p1192
sg36
S'1.1'
p1193
sg38
S'5.2'
p1194
sg40
S'36'
p1195
sg42
S'TOT'
p1196
sg44
S'46'
p1197
sg46
S'0.4'
p1198
sg48
S'3.6'
p1199
sg50
S'0.6'
p1200
sg52
S'7.5'
p1201
sg54
S'4.8'
p1202
sg56
S'2009-10'
p1203
sg58
S'6.0'
p1204
sg60
S'1.6'
p1205
sg62
S'.480'
p1206
sg64
S'709'
p1207
sg66
g441
sba(isrc.gp1.models.Per100Possession
Per100Possession
p1208
(dp1209
g8
S'0.7'
p1210
sg10
S'5.4'
p1211
sg12
S'.381'
p1212
sg651
S'93'
p1213
sg14
S'2.5'
p1214
sg16
S'.317'
p1215
sg18
S'1.7'
p1216
sg20
S'12.3'
p1217
sg22
S'SF'
p1218
sg658
S'108'
p1219
sg24
S'.667'
p1220
sg28
S'NBA'
p1221
sg30
S'0.8'
p1222
sg32
S'12.9'
p1223
sg34
S'1.6'
p1224
sg36
S'1.2'
p1225
sg38
S'5.0'
p1226
sg40
S'36'
p1227
sg42
S'SAS'
p1228
sg44
S'25'
p1229
sg46
S'0.5'
p1230
sg48
S'3.2'
p1231
sg50
S'0.8'
p1232
sg52
S'7.4'
p1233
sg54
S'4.4'
p1234
sg56
S'2009-10'
p1235
sg58
S'4.9'
p1236
sg60
S'1.7'
p1237
sg62
S'.429'
p1238
sg64
S'395'
p1239
sg66
g550
sba(isrc.gp1.models.Per100Possession
Per100Possession
p1240
(dp1241
g8
S'0.2'
p1242
sg10
S'6.8'
p1243
sg12
S'.506'
p1244
sg651
S'116'
p1245
sg14
S'4.0'
p1246
sg16
S'.463'
p1247
sg18
S'3.2'
p1248
sg20
S'18.2'
p1249
sg22
S'SF'
p1250
sg658
S'108'
p1251
sg24
S'.333'
p1252
sg28
S'NBA'
p1253
sg30
S'0.7'
p1254
sg32
S'14.5'
p1255
sg34
S'3.5'
p1256
sg36
S'1.0'
p1257
sg38
S'5.5'
p1258
sg40
S'36'
p1259
sg42
S'BOS'
p1260
sg44
S'21'
p1261
sg46
S'0.3'
p1262
sg48
S'4.2'
p1263
sg50
S'0.3'
p1264
sg52
S'7.7'
p1265
sg54
S'5.3'
p1266
sg56
S'2009-10'
p1267
sg58
S'7.3'
p1268
sg60
S'1.3'
p1269
sg62
S'.543'
p1270
sg64
S'314'
p1271
sg66
g608
sbasS'_advanced'
p1272
(lp1273
(isrc.gp1.models.Advanced
Advanced
p1274
(dp1275
S'_offensiveReboundPercentage'
p1276
S'5.1'
p1277
sS'_turnOverPercentage'
p1278
S'10.6'
p1279
sS'_winSharesPer48Minutes'
p1280
S'.095'
p1281
sS'_stealPercentage'
p1282
S'1.4'
p1283
sS'_usagePercentage'
p1284
S'17.3'
p1285
sS'_totalReboundsPercentage'
p1286
S'6.7'
p1287
sS'_defensiveBoxPlusMinus'
p1288
S'-0.5'
p1289
sg22
S'SF'
p1290
sS'_valueOverReplacementPlayer'
p1291
S'2.5'
p1292
sS'_trueShootingPercentage'
p1293
S'.551'
p1294
sS'_defensiveReboundPercentage'
p1295
S'8.3'
p1296
sS'_freeThrowsAttempRate'
p1297
S'.331'
p1298
sS'_threePointsAttempRate'
p1299
S'.191'
p1300
sg28
S'NBA'
p1301
sS'_offensiveBoxPlusMinues'
p1302
S'1.6'
p1303
sS'_assistPercentage'
p1304
S'13.9'
p1305
sS'_defensiveWinShares'
p1306
S'1.3'
p1307
sg40
S'22'
p1308
sg42
S'PHO'
p1309
sg44
S'82'
p1310
sS'_blockPercentage'
p1311
S'0.7'
p1312
sS'_playerEfficiencyRating'
p1313
S'14.0'
p1314
sS'_offensiveWinShares'
p1315
S'5.0'
p1316
sg64
S'3212'
p1317
sS'_boxPlusMinus'
p1318
S'1.1'
p1319
sg56
S'1995-96'
p1320
sS'_winShares'
p1321
S'6.3'
p1322
sba(isrc.gp1.models.Advanced
Advanced
p1323
(dp1324
g1276
S'3.6'
p1325
sg1278
S'12.2'
p1326
sg1280
S'.067'
p1327
sg1282
S'1.3'
p1328
sg1284
S'22.0'
p1329
sg1286
S'7.8'
p1330
sg1288
S'-0.9'
p1331
sg22
S'SF'
p1332
sg1291
S'0.9'
p1333
sg1293
S'.530'
p1334
sg1295
S'11.9'
p1335
sg1297
S'.229'
p1336
sg1299
S'.261'
p1337
sg28
S'NBA'
p1338
sg1302
S'0.3'
p1339
sg1304
S'14.3'
p1340
sg1306
S'1.6'
p1341
sg40
S'23'
p1342
sg42
S'TOT'
p1343
sg44
S'83'
p1344
sg1311
S'0.7'
p1345
sg1313
S'14.5'
p1346
sg1315
S'2.3'
p1347
sg64
S'2790'
p1348
sg1318
S'-0.7'
p1349
sg56
S'1996-97'
p1350
sg1321
S'3.9'
p1351
sba(isrc.gp1.models.Advanced
Advanced
p1352
(dp1353
g1276
S'5.0'
p1354
sg1278
S'11.8'
p1355
sg1280
S'.074'
p1356
sg1282
S'1.2'
p1357
sg1284
S'21.0'
p1358
sg1286
S'8.8'
p1359
sg1288
S'-1.1'
p1360
sg22
S'SF'
p1361
sg1291
S'0.2'
p1362
sg1293
S'.538'
p1363
sg1295
S'12.5'
p1364
sg1297
S'.232'
p1365
sg1299
S'.185'
p1366
sg28
S'NBA'
p1367
sg1302
S'0.1'
p1368
sg1304
S'13.9'
p1369
sg1306
S'0.4'
p1370
sg40
S'23'
p1371
sg42
S'PHO'
p1372
sg44
S'27'
p1373
sg1311
S'0.4'
p1374
sg1313
S'14.6'
p1375
sg1315
S'0.8'
p1376
sg64
S'796'
p1377
sg1318
S'-1.0'
p1378
sg56
S'1996-97'
p1379
sg1321
S'1.2'
p1380
sba(isrc.gp1.models.Advanced
Advanced
p1381
(dp1382
g1276
S'3.1'
p1383
sg1278
S'12.4'
p1384
sg1280
S'.064'
p1385
sg1282
S'1.4'
p1386
sg1284
S'22.4'
p1387
sg1286
S'7.3'
p1388
sg1288
S'-0.9'
p1389
sg22
S'SF'
p1390
sg1291
S'0.7'
p1391
sg1293
S'.527'
p1392
sg1295
S'11.7'
p1393
sg1297
S'.227'
p1394
sg1299
S'.291'
p1395
sg28
S'NBA'
p1396
sg1302
S'0.3'
p1397
sg1304
S'14.4'
p1398
sg1306
S'1.1'
p1399
sg40
S'23'
p1400
sg42
S'DAL'
p1401
sg44
S'56'
p1402
sg1311
S'0.8'
p1403
sg1313
S'14.5'
p1404
sg1315
S'1.5'
p1405
sg64
S'1994'
p1406
sg1318
S'-0.5'
p1407
sg56
S'1996-97'
p1408
sg1321
S'2.7'
p1409
sba(isrc.gp1.models.Advanced
Advanced
p1410
(dp1411
g1276
S'4.8'
p1412
sg1278
S'11.5'
p1413
sg1280
S'.106'
p1414
sg1282
S'2.1'
p1415
sg1284
S'25.7'
p1416
sg1286
S'7.2'
p1417
sg1288
S'-0.8'
p1418
sg22
S'SF'
p1419
sg1291
S'3.7'
p1420
sg1293
S'.522'
p1421
sg1295
S'9.6'
p1422
sg1297
S'.276'
p1423
sg1299
S'.162'
p1424
sg28
S'NBA'
p1425
sg1302
S'3.2'
p1426
sg1304
S'22.7'
p1427
sg1306
S'2.0'
p1428
sg40
S'24'
p1429
sg42
S'DAL'
p1430
sg44
S'82'
p1431
sg1311
S'0.6'
p1432
sg1313
S'19.3'
p1433
sg1315
S'5.5'
p1434
sg64
S'3394'
p1435
sg1318
S'2.4'
p1436
sg56
S'1997-98'
p1437
sg1321
S'7.5'
p1438
sba(isrc.gp1.models.Advanced
Advanced
p1439
(dp1440
g1276
S'3.8'
p1441
sg1278
S'9.9'
p1442
sg1280
S'.126'
p1443
sg1282
S'1.7'
p1444
sg1284
S'24.2'
p1445
sg1286
S'7.2'
p1446
sg1288
S'-0.9'
p1447
sg22
S'SF'
p1448
sg1291
S'2.4'
p1449
sg1293
S'.517'
p1450
sg1295
S'10.7'
p1451
sg1297
S'.258'
p1452
sg1299
S'.155'
p1453
sg28
S'NBA'
p1454
sg1302
S'3.5'
p1455
sg1304
S'19.9'
p1456
sg1306
S'0.9'
p1457
sg40
S'25'
p1458
sg42
S'DAL'
p1459
sg44
S'50'
p1460
sg1311
S'0.5'
p1461
sg1313
S'19.2'
p1462
sg1315
S'4.4'
p1463
sg64
S'2051'
p1464
sg1318
S'2.6'
p1465
sg56
S'1998-99'
p1466
sg1321
S'5.4'
p1467
sba(isrc.gp1.models.Advanced
Advanced
p1468
(dp1469
g1276
S'3.8'
p1470
sg1278
S'9.9'
p1471
sg1280
S'.114'
p1472
sg1282
S'1.6'
p1473
sg1284
S'25.1'
p1474
sg1286
S'8.0'
p1475
sg1288
S'-0.7'
p1476
sg22
S'SF'
p1477
sg1291
S'3.8'
p1478
sg1293
S'.522'
p1479
sg1295
S'12.2'
p1480
sg1297
S'.194'
p1481
sg1299
S'.151'
p1482
sg28
S'NBA'
p1483
sg1302
S'3.0'
p1484
sg1304
S'21.3'
p1485
sg1306
S'1.9'
p1486
sg40
S'26'
p1487
sg42
S'DAL'
p1488
sg44
S'82'
p1489
sg1311
S'0.6'
p1490
sg1313
S'19.2'
p1491
sg1315
S'6.4'
p1492
sg64
S'3464'
p1493
sg1318
S'2.4'
p1494
sg56
S'1999-00'
p1495
sg1321
S'8.3'
p1496
sba(isrc.gp1.models.Advanced
Advanced
p1497
(dp1498
g1276
S'3.6'
p1499
sg1278
S'10.1'
p1500
sg1280
S'.119'
p1501
sg1282
S'1.8'
p1502
sg1284
S'24.9'
p1503
sg1286
S'6.9'
p1504
sg1288
S'-0.2'
p1505
sg22
S'SF'
p1506
sg1291
S'3.7'
p1507
sg1293
S'.521'
p1508
sg1295
S'10.0'
p1509
sg1297
S'.209'
p1510
sg1299
S'.169'
p1511
sg28
S'NBA'
p1512
sg1302
S'2.5'
p1513
sg1304
S'18.3'
p1514
sg1306
S'2.9'
p1515
sg40
S'27'
p1516
sg42
S'DAL'
p1517
sg44
S'82'
p1518
sg1311
S'0.7'
p1519
sg1313
S'18.2'
p1520
sg1315
S'5.6'
p1521
sg64
S'3443'
p1522
sg1318
S'2.3'
p1523
sg56
S'2000-01'
p1524
sg1321
S'8.5'
p1525
sba(isrc.gp1.models.Advanced
Advanced
p1526
(dp1527
g1276
S'3.7'
p1528
sg1278
S'8.0'
p1529
sg1280
S'.110'
p1530
sg1282
S'1.2'
p1531
sg1284
S'23.9'
p1532
sg1286
S'7.3'
p1533
sg1288
S'-1.3'
p1534
sg22
S'SF'
p1535
sg1291
S'2.1'
p1536
sg1293
S'.532'
p1537
sg1295
S'10.7'
p1538
sg1297
S'.204'
p1539
sg1299
S'.182'
p1540
sg28
S'NBA'
p1541
sg1302
S'2.3'
p1542
sg1304
S'14.0'
p1543
sg1306
S'1.0'
p1544
sg40
S'28'
p1545
sg42
S'DAL'
p1546
sg44
S'69'
p1547
sg1311
S'0.6'
p1548
sg1313
S'17.6'
p1549
sg1315
S'5.3'
p1550
sg64
S'2754'
p1551
sg1318
S'1.0'
p1552
sg56
S'2001-02'
p1553
sg1321
S'6.3'
p1554
sba(isrc.gp1.models.Advanced
Advanced
p1555
(dp1556
g1276
S'4.5'
p1557
sg1278
S'8.1'
p1558
sg1280
S'.123'
p1559
sg1282
S'1.5'
p1560
sg1284
S'24.2'
p1561
sg1286
S'8.4'
p1562
sg1288
S'-0.6'
p1563
sg22
S'SF'
p1564
sg1291
S'2.4'
p1565
sg1293
S'.514'
p1566
sg1295
S'12.3'
p1567
sg1297
S'.193'
p1568
sg1299
S'.270'
p1569
sg28
S'NBA'
p1570
sg1302
S'2.2'
p1571
sg1304
S'12.8'
p1572
sg1306
S'2.5'
p1573
sg40
S'29'
p1574
sg42
S'DAL'
p1575
sg44
S'69'
p1576
sg1311
S'0.6'
p1577
sg1313
S'17.6'
p1578
sg1315
S'4.3'
p1579
sg64
S'2642'
p1580
sg1318
S'1.6'
p1581
sg56
S'2002-03'
p1582
sg1321
S'6.7'
p1583
sba(isrc.gp1.models.Advanced
Advanced
p1584
(dp1585
g1276
S'3.0'
p1586
sg1278
S'6.3'
p1587
sg1280
S'.131'
p1588
sg1282
S'1.6'
p1589
sg1284
S'20.9'
p1590
sg1286
S'6.4'
p1591
sg1288
S'-1.5'
p1592
sg22
S'SG'
p1593
sg1291
S'3.0'
p1594
sg1293
S'.539'
p1595
sg1295
S'9.9'
p1596
sg1297
S'.167'
p1597
sg1299
S'.319'
p1598
sg28
S'NBA'
p1599
sg1302
S'3.8'
p1600
sg1304
S'11.7'
p1601
sg1306
S'0.5'
p1602
sg40
S'30'
p1603
sg42
S'DAL'
p1604
sg44
S'72'
p1605
sg1311
S'1.0'
p1606
sg1313
S'17.8'
p1607
sg1315
S'7.0'
p1608
sg64
S'2778'
p1609
sg1318
S'2.3'
p1610
sg56
S'2003-04'
p1611
sg1321
S'7.6'
p1612
sba(isrc.gp1.models.Advanced
Advanced
p1613
(dp1614
g1276
S'2.2'
p1615
sg1278
S'5.8'
p1616
sg1280
S'.112'
p1617
sg1282
S'1.1'
p1618
sg1284
S'19.5'
p1619
sg1286
S'6.2'
p1620
sg1288
S'-0.7'
p1621
sg22
S'SG'
p1622
sg1291
S'1.8'
p1623
sg1293
S'.519'
p1624
sg1295
S'10.1'
p1625
sg1297
S'.150'
p1626
sg1299
S'.314'
p1627
sg28
S'NBA'
p1628
sg1302
S'1.7'
p1629
sg1304
S'11.7'
p1630
sg1306
S'1.9'
p1631
sg40
S'31'
p1632
sg42
S'DAL'
p1633
sg44
S'64'
p1634
sg1311
S'0.6'
p1635
sg1313
S'14.3'
p1636
sg1315
S'3.6'
p1637
sg64
S'2358'
p1638
sg1318
S'1.0'
p1639
sg56
S'2004-05'
p1640
sg1321
S'5.5'
p1641
sba(isrc.gp1.models.Advanced
Advanced
p1642
(dp1643
g1276
S'1.8'
p1644
sg1278
S'7.7'
p1645
sg1280
S'.117'
p1646
sg1282
S'1.0'
p1647
sg1284
S'18.9'
p1648
sg1286
S'7.2'
p1649
sg1288
S'-0.3'
p1650
sg22
S'SG'
p1651
sg1291
S'0.8'
p1652
sg1293
S'.523'
p1653
sg1295
S'12.2'
p1654
sg1297
S'.165'
p1655
sg1299
S'.401'
p1656
sg28
S'NBA'
p1657
sg1302
S'-0.1'
p1658
sg1304
S'9.3'
p1659
sg1306
S'2.9'
p1660
sg40
S'32'
p1661
sg42
S'SAS'
p1662
sg44
S'77'
p1663
sg1311
S'0.2'
p1664
sg1313
S'12.7'
p1665
sg1315
S'2.0'
p1666
sg64
S'2038'
p1667
sg1318
S'-0.4'
p1668
sg56
S'2005-06'
p1669
sg1321
S'5.0'
p1670
sba(isrc.gp1.models.Advanced
Advanced
p1671
(dp1672
g1276
S'2.3'
p1673
sg1278
S'6.1'
p1674
sg1280
S'.125'
p1675
sg1282
S'0.9'
p1676
sg1284
S'19.6'
p1677
sg1286
S'7.4'
p1678
sg1288
S'-0.6'
p1679
sg22
S'SF'
p1680
sg1291
S'0.7'
p1681
sg1293
S'.524'
p1682
sg1295
S'12.0'
p1683
sg1297
S'.148'
p1684
sg1299
S'.431'
p1685
sg28
S'NBA'
p1686
sg1302
S'0.1'
p1687
sg1304
S'9.7'
p1688
sg1306
S'2.6'
p1689
sg40
S'33'
p1690
sg42
S'SAS'
p1691
sg44
S'82'
p1692
sg1311
S'0.6'
p1693
sg1313
S'13.7'
p1694
sg1315
S'2.1'
p1695
sg64
S'1823'
p1696
sg1318
S'-0.4'
p1697
sg56
S'2006-07'
p1698
sg1321
S'4.7'
p1699
sba(isrc.gp1.models.Advanced
Advanced
p1700
(dp1701
g1276
S'1.5'
p1702
sg1278
S'6.6'
p1703
sg1280
S'.091'
p1704
sg1282
S'0.7'
p1705
sg1284
S'18.5'
p1706
sg1286
S'6.8'
p1707
sg1288
S'-0.4'
p1708
sg22
S'SG'
p1709
sg1291
S'0.5'
p1710
sg1293
S'.519'
p1711
sg1295
S'12.0'
p1712
sg1297
S'.105'
p1713
sg1299
S'.469'
p1714
sg28
S'NBA'
p1715
sg1302
S'-0.6'
p1716
sg1304
S'8.6'
p1717
sg1306
S'2.9'
p1718
sg40
S'34'
p1719
sg42
S'SAS'
p1720
sg44
S'82'
p1721
sg1311
S'0.3'
p1722
sg1313
S'11.4'
p1723
sg1315
S'1.3'
p1724
sg64
S'2204'
p1725
sg1318
S'-1.0'
p1726
sg56
S'2007-08'
p1727
sg1321
S'4.2'
p1728
sba(isrc.gp1.models.Advanced
Advanced
p1729
(dp1730
g1276
S'1.3'
p1731
sg1278
S'7.8'
p1732
sg1280
S'.091'
p1733
sg1282
S'0.9'
p1734
sg1284
S'16.1'
p1735
sg1286
S'6.9'
p1736
sg1288
S'0.1'
p1737
sg22
S'SF'
p1738
sg1291
S'0.9'
p1739
sg1293
S'.547'
p1740
sg1295
S'12.3'
p1741
sg1297
S'.090'
p1742
sg1299
S'.463'
p1743
sg28
S'NBA'
p1744
sg1302
S'-0.6'
p1745
sg1304
S'7.7'
p1746
sg1306
S'2.8'
p1747
sg40
S'35'
p1748
sg42
S'SAS'
p1749
sg44
S'81'
p1750
sg1311
S'0.5'
p1751
sg1313
S'11.4'
p1752
sg1315
S'1.6'
p1753
sg64
S'2336'
p1754
sg1318
S'-0.5'
p1755
sg56
S'2008-09'
p1756
sg1321
S'4.4'
p1757
sba(isrc.gp1.models.Advanced
Advanced
p1758
(dp1759
g1276
S'1.0'
p1760
sg1278
S'9.9'
p1761
sg1280
S'.066'
p1762
sg1282
S'0.7'
p1763
sg1284
S'13.8'
p1764
sg1286
S'6.0'
p1765
sg1288
S'-0.7'
p1766
sg22
S'SF'
p1767
sg1291
S'-0.1'
p1768
sg1293
S'.530'
p1769
sg1295
S'10.7'
p1770
sg1297
S'.082'
p1771
sg1299
S'.446'
p1772
sg28
S'NBA'
p1773
sg1302
S'-1.9'
p1774
sg1304
S'9.2'
p1775
sg1306
S'0.7'
p1776
sg40
S'36'
p1777
sg42
S'TOT'
p1778
sg44
S'46'
p1779
sg1311
S'0.6'
p1780
sg1313
S'9.0'
p1781
sg1315
S'0.3'
p1782
sg64
S'709'
p1783
sg1318
S'-2.6'
p1784
sg56
S'2009-10'
p1785
sg1321
S'1.0'
p1786
sba(isrc.gp1.models.Advanced
Advanced
p1787
(dp1788
g1276
S'1.5'
p1789
sg1278
S'11.4'
p1790
sg1280
S'.026'
p1791
sg1282
S'0.8'
p1792
sg1284
S'13.2'
p1793
sg1286
S'5.6'
p1794
sg1288
S'-0.2'
p1795
sg22
S'SF'
p1796
sg1291
S'-0.2'
p1797
sg1293
S'.461'
p1798
sg1295
S'9.6'
p1799
sg1297
S'.093'
p1800
sg1299
S'.423'
p1801
sg28
S'NBA'
p1802
sg1302
S'-3.4'
p1803
sg1304
S'6.8'
p1804
sg1306
S'0.4'
p1805
sg40
S'36'
p1806
sg42
S'SAS'
p1807
sg44
S'25'
p1808
sg1311
S'0.7'
p1809
sg1313
S'6.5'
p1810
sg1315
S'-0.2'
p1811
sg64
S'395'
p1812
sg1318
S'-3.7'
p1813
sg56
S'2009-10'
p1814
sg1321
S'0.2'
p1815
sba(isrc.gp1.models.Advanced
Advanced
p1816
(dp1817
g1276
S'0.4'
p1818
sg1278
S'8.2'
p1819
sg1280
S'.115'
p1820
sg1282
S'0.7'
p1821
sg1284
S'14.6'
p1822
sg1286
S'6.4'
p1823
sg1288
S'-1.3'
p1824
sg22
S'SF'
p1825
sg1291
S'0.1'
p1826
sg1293
S'.608'
p1827
sg1295
S'12.2'
p1828
sg1297
S'.069'
p1829
sg1299
S'.471'
p1830
sg28
S'NBA'
p1831
sg1302
S'0.0'
p1832
sg1304
S'12.2'
p1833
sg1306
S'0.3'
p1834
sg40
S'36'
p1835
sg42
S'BOS'
p1836
sg44
S'21'
p1837
sg1311
S'0.5'
p1838
sg1313
S'12.1'
p1839
sg1315
S'0.4'
p1840
sg64
S'314'
p1841
sg1318
S'-1.3'
p1842
sg56
S'2009-10'
p1843
sg1321
S'0.8'
p1844
sbasS'_per36Minutes'
p1845
(lp1846
(isrc.gp1.models.Per36Minutes
Per36Minutes
p1847
(dp1848
g8
S'1.6'
p1849
sg10
S'2.1'
p1850
sg12
S'.476'
p1851
sg14
S'3.2'
p1852
sg16
S'.328'
p1853
sg18
S'0.7'
p1854
sg20
S'13.8'
p1855
sg22
S'SF'
p1856
sg24
S'.749'
p1857
sg28
S'NBA'
p1858
sg30
S'1.0'
p1859
sg32
S'10.9'
p1860
sg34
S'2.2'
p1861
sg36
S'3.6'
p1862
sg38
S'4.2'
p1863
sg40
S'22'
p1864
sg42
S'PHO'
p1865
sg44
S'82'
p1866
sg46
S'0.3'
p1867
sg48
S'4.5'
p1868
sg50
S'2.7'
p1869
sg52
S'8.9'
p1870
sg54
S'2.6'
p1871
sg56
S'1995-96'
p1872
sg58
S'5.2'
p1873
sg60
S'1.5'
p1874
sg62
S'.511'
p1875
sg64
S'3212'
p1876
sg66
S'72'
p1877
sba(isrc.gp1.models.Per36Minutes
Per36Minutes
p1878
(dp1879
g8
S'1.1'
p1880
sg10
S'3.6'
p1881
sg12
S'.444'
p1882
sg14
S'2.9'
p1883
sg16
S'.361'
p1884
sg18
S'1.3'
p1885
sg20
S'16.1'
p1886
sg22
S'SF'
p1887
sg24
S'.808'
p1888
sg28
S'NBA'
p1889
sg30
S'0.9'
p1890
sg32
S'13.8'
p1891
sg34
S'1.8'
p1892
sg36
S'3.2'
p1893
sg38
S'4.8'
p1894
sg40
S'23'
p1895
sg42
S'TOT'
p1896
sg44
S'83'
p1897
sg46
S'0.3'
p1898
sg48
S'4.8'
p1899
sg50
S'2.6'
p1900
sg52
S'10.2'
p1901
sg54
S'3.7'
p1902
sg56
S'1996-97'
p1903
sg58
S'6.1'
p1904
sg60
S'2.1'
p1905
sg62
S'.473'
p1906
sg64
S'2790'
p1907
sg66
S'54'
p1908
sba(isrc.gp1.models.Per36Minutes
Per36Minutes
p1909
(dp1910
g8
S'1.5'
p1911
sg10
S'2.5'
p1912
sg12
S'.475'
p1913
sg14
S'3.1'
p1914
sg16
S'.255'
p1915
sg18
S'0.6'
p1916
sg20
S'15.9'
p1917
sg22
S'SF'
p1918
sg24
S'.812'
p1919
sg28
S'NBA'
p1920
sg30
S'0.8'
p1921
sg32
S'13.4'
p1922
sg34
S'1.9'
p1923
sg36
S'3.1'
p1924
sg38
S'5.4'
p1925
sg40
S'23'
p1926
sg42
S'PHO'
p1927
sg44
S'27'
p1928
sg46
S'0.2'
p1929
sg48
S'5.7'
p1930
sg50
S'2.5'
p1931
sg52
S'10.9'
p1932
sg54
S'3.9'
p1933
sg56
S'1996-97'
p1934
sg58
S'6.4'
p1935
sg60
S'2.0'
p1936
sg62
S'.525'
p1937
sg64
S'796'
p1938
sg66
S'18'
p1939
sba(isrc.gp1.models.Per36Minutes
Per36Minutes
p1940
(dp1941
g8
S'1.0'
p1942
sg10
S'4.1'
p1943
sg12
S'.432'
p1944
sg14
S'2.8'
p1945
sg16
S'.387'
p1946
sg18
S'1.6'
p1947
sg20
S'16.2'
p1948
sg22
S'SF'
p1949
sg24
S'.807'
p1950
sg28
S'NBA'
p1951
sg30
S'0.9'
p1952
sg32
S'14.0'
p1953
sg34
S'1.7'
p1954
sg36
S'3.2'
p1955
sg38
S'4.5'
p1956
sg40
S'23'
p1957
sg42
S'DAL'
p1958
sg44
S'56'
p1959
sg46
S'0.4'
p1960
sg48
S'4.5'
p1961
sg50
S'2.6'
p1962
sg52
S'9.9'
p1963
sg54
S'3.6'
p1964
sg56
S'1996-97'
p1965
sg58
S'6.0'
p1966
sg60
S'2.2'
p1967
sg62
S'.450'
p1968
sg64
S'1994'
p1969
sg66
S'36'
p1970
sba(isrc.gp1.models.Per36Minutes
Per36Minutes
p1971
(dp1972
g8
S'1.6'
p1973
sg10
S'2.6'
p1974
sg12
S'.449'
p1975
sg14
S'4.3'
p1976
sg16
S'.357'
p1977
sg18
S'0.9'
p1978
sg20
S'18.7'
p1979
sg22
S'SF'
p1980
sg24
S'.784'
p1981
sg28
S'NBA'
p1982
sg30
S'1.4'
p1983
sg32
S'16.0'
p1984
sg34
S'1.7'
p1985
sg36
S'4.4'
p1986
sg38
S'4.6'
p1987
sg40
S'24'
p1988
sg42
S'DAL'
p1989
sg44
S'82'
p1990
sg46
S'0.3'
p1991
sg48
S'6.2'
p1992
sg50
S'3.5'
p1993
sg52
S'13.4'
p1994
sg54
S'3.1'
p1995
sg56
S'1997-98'
p1996
sg58
S'7.2'
p1997
sg60
S'2.3'
p1998
sg62
S'.466'
p1999
sg64
S'3394'
p2000
sg66
S'82'
p2001
sba(isrc.gp1.models.Per36Minutes
Per36Minutes
p2002
(dp2003
g8
S'1.2'
p2004
sg10
S'2.4'
p2005
sg12
S'.444'
p2006
sg14
S'3.8'
p2007
sg16
S'.331'
p2008
sg18
S'0.8'
p2009
sg20
S'17.7'
p2010
sg22
S'SF'
p2011
sg24
S'.823'
p2012
sg28
S'NBA'
p2013
sg30
S'1.2'
p2014
sg32
S'15.4'
p2015
sg34
S'1.7'
p2016
sg36
S'4.0'
p2017
sg38
S'4.6'
p2018
sg40
S'25'
p2019
sg42
S'DAL'
p2020
sg44
S'50'
p2021
sg46
S'0.3'
p2022
sg48
S'6.0'
p2023
sg50
S'3.3'
p2024
sg52
S'13.0'
p2025
sg54
S'3.4'
p2026
sg56
S'1998-99'
p2027
sg58
S'6.8'
p2028
sg60
S'1.9'
p2029
sg62
S'.465'
p2030
sg64
S'2051'
p2031
sg66
S'50'
p2032
sba(isrc.gp1.models.Per36Minutes
Per36Minutes
p2033
(dp2034
g8
S'1.3'
p2035
sg10
S'2.6'
p2036
sg12
S'.457'
p2037
sg14
S'4.6'
p2038
sg16
S'.401'
p2039
sg18
S'1.0'
p2040
sg20
S'19.3'
p2041
sg22
S'SF'
p2042
sg24
S'.820'
p2043
sg28
S'NBA'
p2044
sg30
S'1.1'
p2045
sg32
S'17.0'
p2046
sg34
S'1.8'
p2047
sg36
S'3.3'
p2048
sg38
S'5.4'
p2049
sg40
S'26'
p2050
sg42
S'DAL'
p2051
sg44
S'82'
p2052
sg46
S'0.3'
p2053
sg48
S'6.7'
p2054
sg50
S'2.7'
p2055
sg52
S'14.4'
p2056
sg54
S'4.1'
p2057
sg56
S'1999-00'
p2058
sg58
S'7.8'
p2059
sg60
S'2.0'
p2060
sg62
S'.467'
p2061
sg64
S'3464'
p2062
sg66
S'82'
p2063
sba(isrc.gp1.models.Per36Minutes
Per36Minutes
p2064
(dp2065
g8
S'1.1'
p2066
sg10
S'2.7'
p2067
sg12
S'.458'
p2068
sg14
S'3.8'
p2069
sg16
S'.346'
p2070
sg18
S'1.0'
p2071
sg20
S'18.5'
p2072
sg22
S'SF'
p2073
sg24
S'.775'
p2074
sg28
S'NBA'
p2075
sg30
S'1.2'
p2076
sg32
S'16.2'
p2077
sg34
S'1.8'
p2078
sg36
S'3.4'
p2079
sg38
S'4.4'
p2080
sg40
S'27'
p2081
sg42
S'DAL'
p2082
sg44
S'82'
p2083
sg46
S'0.3'
p2084
sg48
S'6.5'
p2085
sg50
S'2.6'
p2086
sg52
S'13.5'
p2087
sg54
S'3.3'
p2088
sg56
S'2000-01'
p2089
sg58
S'7.4'
p2090
sg60
S'2.0'
p2091
sg62
S'.481'
p2092
sg64
S'3443'
p2093
sg66
S'82'
p2094
sba(isrc.gp1.models.Per36Minutes
Per36Minutes
p2095
(dp2096
g8
S'1.2'
p2097
sg10
S'2.9'
p2098
sg12
S'.463'
p2099
sg14
S'3.0'
p2100
sg16
S'.339'
p2101
sg18
S'1.0'
p2102
sg20
S'18.6'
p2103
sg22
S'SF'
p2104
sg24
S'.837'
p2105
sg28
S'NBA'
p2106
sg30
S'0.8'
p2107
sg32
S'16.1'
p2108
sg34
S'1.9'
p2109
sg36
S'3.3'
p2110
sg38
S'4.7'
p2111
sg40
S'28'
p2112
sg42
S'DAL'
p2113
sg44
S'69'
p2114
sg46
S'0.3'
p2115
sg48
S'6.4'
p2116
sg50
S'2.7'
p2117
sg52
S'13.1'
p2118
sg54
S'3.5'
p2119
sg56
S'2001-02'
p2120
sg58
S'7.4'
p2121
sg60
S'1.5'
p2122
sg62
S'.491'
p2123
sg64
S'2754'
p2124
sg66
S'69'
p2125
sba(isrc.gp1.models.Per36Minutes
Per36Minutes
p2126
(dp2127
g8
S'1.5'
p2128
sg10
S'4.4'
p2129
sg12
S'.425'
p2130
sg14
S'2.8'
p2131
sg16
S'.370'
p2132
sg18
S'1.6'
p2133
sg20
S'18.1'
p2134
sg22
S'SF'
p2135
sg24
S'.861'
p2136
sg28
S'NBA'
p2137
sg30
S'1.0'
p2138
sg32
S'16.3'
p2139
sg34
S'1.4'
p2140
sg36
S'3.1'
p2141
sg38
S'5.5'
p2142
sg40
S'29'
p2143
sg42
S'DAL'
p2144
sg44
S'69'
p2145
sg46
S'0.3'
p2146
sg48
S'5.3'
p2147
sg50
S'2.7'
p2148
sg52
S'11.9'
p2149
sg54
S'4.0'
p2150
sg56
S'2002-03'
p2151
sg58
S'6.9'
p2152
sg60
S'1.6'
p2153
sg62
S'.445'
p2154
sg64
S'2642'
p2155
sg66
S'69'
p2156
sba(isrc.gp1.models.Per36Minutes
Per36Minutes
p2157
(dp2158
g8
S'1.0'
p2159
sg10
S'4.8'
p2160
sg12
S'.443'
p2161
sg14
S'2.7'
p2162
sg16
S'.405'
p2163
sg18
S'1.9'
p2164
sg20
S'17.4'
p2165
sg22
S'SG'
p2166
sg24
S'.850'
p2167
sg28
S'NBA'
p2168
sg30
S'1.1'
p2169
sg32
S'15.0'
p2170
sg34
S'1.5'
p2171
sg36
S'2.5'
p2172
sg38
S'4.2'
p2173
sg40
S'30'
p2174
sg42
S'DAL'
p2175
sg44
S'72'
p2176
sg46
S'0.5'
p2177
sg48
S'4.7'
p2178
sg50
S'2.1'
p2179
sg52
S'10.2'
p2180
sg54
S'3.2'
p2181
sg56
S'2003-04'
p2182
sg58
S'6.7'
p2183
sg60
S'1.1'
p2184
sg62
S'.461'
p2185
sg64
S'2778'
p2186
sg66
S'72'
p2187
sba(isrc.gp1.models.Per36Minutes
Per36Minutes
p2188
(dp2189
g8
S'0.7'
p2190
sg10
S'4.4'
p2191
sg12
S'.427'
p2192
sg14
S'2.6'
p2193
sg16
S'.407'
p2194
sg18
S'1.8'
p2195
sg20
S'15.3'
p2196
sg22
S'SG'
p2197
sg24
S'.831'
p2198
sg28
S'NBA'
p2199
sg30
S'0.7'
p2200
sg32
S'13.8'
p2201
sg34
S'1.9'
p2202
sg36
S'2.1'
p2203
sg38
S'4.0'
p2204
sg40
S'31'
p2205
sg42
S'DAL'
p2206
sg44
S'64'
p2207
sg46
S'0.3'
p2208
sg48
S'4.1'
p2209
sg50
S'1.7'
p2210
sg52
S'9.5'
p2211
sg54
S'3.3'
p2212
sg56
S'2004-05'
p2213
sg58
S'5.9'
p2214
sg60
S'0.9'
p2215
sg62
S'.436'
p2216
sg64
S'2358'
p2217
sg66
S'64'
p2218
sba(isrc.gp1.models.Per36Minutes
Per36Minutes
p2219
(dp2220
g8
S'0.5'
p2221
sg10
S'4.9'
p2222
sg12
S'.412'
p2223
sg14
S'2.0'
p2224
sg16
S'.394'
p2225
sg18
S'1.9'
p2226
sg20
S'13.8'
p2227
sg22
S'SG'
p2228
sg24
S'.852'
p2229
sg28
S'NBA'
p2230
sg30
S'0.7'
p2231
sg32
S'12.3'
p2232
sg34
S'1.7'
p2233
sg36
S'2.0'
p2234
sg38
S'4.4'
p2235
sg40
S'32'
p2236
sg42
S'SAS'
p2237
sg44
S'77'
p2238
sg46
S'0.1'
p2239
sg48
S'3.1'
p2240
sg50
S'1.7'
p2241
sg52
S'7.3'
p2242
sg54
S'3.8'
p2243
sg56
S'2005-06'
p2244
sg58
S'5.1'
p2245
sg60
S'1.1'
p2246
sg62
S'.423'
p2247
sg64
S'2038'
p2248
sg66
S'18'
p2249
sba(isrc.gp1.models.Per36Minutes
Per36Minutes
p2250
(dp2251
g8
S'0.7'
p2252
sg10
S'5.6'
p2253
sg12
S'.412'
p2254
sg14
S'2.1'
p2255
sg16
S'.364'
p2256
sg18
S'2.1'
p2257
sg20
S'14.6'
p2258
sg22
S'SF'
p2259
sg24
S'.918'
p2260
sg28
S'NBA'
p2261
sg30
S'0.6'
p2262
sg32
S'13.1'
p2263
sg34
S'1.5'
p2264
sg36
S'1.9'
p2265
sg38
S'4.4'
p2266
sg40
S'33'
p2267
sg42
S'SAS'
p2268
sg44
S'82'
p2269
sg46
S'0.3'
p2270
sg48
S'3.3'
p2271
sg50
S'1.8'
p2272
sg52
S'7.4'
p2273
sg54
S'3.7'
p2274
sg56
S'2006-07'
p2275
sg58
S'5.4'
p2276
sg60
S'0.9'
p2277
sg62
S'.448'
p2278
sg64
S'1823'
p2279
sg66
S'16'
p2280
sba(isrc.gp1.models.Per36Minutes
Per36Minutes
p2281
(dp2282
g8
S'0.4'
p2283
sg10
S'5.8'
p2284
sg12
S'.414'
p2285
sg14
S'1.9'
p2286
sg16
S'.370'
p2287
sg18
S'2.2'
p2288
sg20
S'13.5'
p2289
sg22
S'SG'
p2290
sg24
S'.800'
p2291
sg28
S'NBA'
p2292
sg30
S'0.5'
p2293
sg32
S'12.4'
p2294
sg34
S'1.5'
p2295
sg36
S'1.3'
p2296
sg38
S'4.1'
p2297
sg40
S'34'
p2298
sg42
S'SAS'
p2299
sg44
S'82'
p2300
sg46
S'0.2'
p2301
sg48
S'3.0'
p2302
sg50
S'1.0'
p2303
sg52
S'6.6'
p2304
sg54
S'3.7'
p2305
sg56
S'2007-08'
p2306
sg58
S'5.1'
p2307
sg60
S'0.9'
p2308
sg62
S'.453'
p2309
sg64
S'2204'
p2310
sg66
S'61'
p2311
sba(isrc.gp1.models.Per36Minutes
Per36Minutes
p2312
(dp2313
g8
S'0.4'
p2314
sg10
S'4.9'
p2315
sg12
S'.437'
p2316
sg14
S'1.8'
p2317
sg16
S'.411'
p2318
sg18
S'2.0'
p2319
sg20
S'12.1'
p2320
sg22
S'SF'
p2321
sg24
S'.823'
p2322
sg28
S'NBA'
p2323
sg30
S'0.6'
p2324
sg32
S'10.6'
p2325
sg34
S'1.3'
p2326
sg36
S'1.0'
p2327
sg38
S'4.2'
p2328
sg40
S'35'
p2329
sg42
S'SAS'
p2330
sg44
S'81'
p2331
sg46
S'0.3'
p2332
sg48
S'2.6'
p2333
sg50
S'0.8'
p2334
sg52
S'5.7'
p2335
sg54
S'3.8'
p2336
sg56
S'2008-09'
p2337
sg58
S'4.6'
p2338
sg60
S'0.9'
p2339
sg62
S'.459'
p2340
sg64
S'2336'
p2341
sg66
S'77'
p2342
sba(isrc.gp1.models.Per36Minutes
Per36Minutes
p2343
(dp2344
g8
S'0.3'
p2345
sg10
S'4.2'
p2346
sg12
S'.440'
p2347
sg14
S'2.2'
p2348
sg16
S'.390'
p2349
sg18
S'1.6'
p2350
sg20
S'10.3'
p2351
sg22
S'SF'
p2352
sg24
S'.533'
p2353
sg28
S'NBA'
p2354
sg30
S'0.5'
p2355
sg32
S'9.3'
p2356
sg34
S'1.7'
p2357
sg36
S'0.8'
p2358
sg38
S'3.6'
p2359
sg40
S'36'
p2360
sg42
S'TOT'
p2361
sg44
S'46'
p2362
sg46
S'0.3'
p2363
sg48
S'2.5'
p2364
sg50
S'0.4'
p2365
sg52
S'5.2'
p2366
sg54
S'3.3'
p2367
sg56
S'2009-10'
p2368
sg58
S'4.1'
p2369
sg60
S'1.1'
p2370
sg62
S'.480'
p2371
sg64
S'709'
p2372
sg66
g441
sba(isrc.gp1.models.Per36Minutes
Per36Minutes
p2373
(dp2374
g8
S'0.5'
p2375
sg10
S'3.7'
p2376
sg12
S'.381'
p2377
sg14
S'1.7'
p2378
sg16
S'.317'
p2379
sg18
S'1.2'
p2380
sg20
S'8.5'
p2381
sg22
S'SF'
p2382
sg24
S'.667'
p2383
sg28
S'NBA'
p2384
sg30
S'0.5'
p2385
sg32
S'8.8'
p2386
sg34
S'1.1'
p2387
sg36
S'0.8'
p2388
sg38
S'3.5'
p2389
sg40
S'36'
p2390
sg42
S'SAS'
p2391
sg44
S'25'
p2392
sg46
S'0.4'
p2393
sg48
S'2.2'
p2394
sg50
S'0.5'
p2395
sg52
S'5.1'
p2396
sg54
S'3.0'
p2397
sg56
S'2009-10'
p2398
sg58
S'3.4'
p2399
sg60
S'1.2'
p2400
sg62
S'.429'
p2401
sg64
S'395'
p2402
sg66
g550
sba(isrc.gp1.models.Per36Minutes
Per36Minutes
p2403
(dp2404
g8
S'0.1'
p2405
sg10
S'4.7'
p2406
sg12
S'.506'
p2407
sg14
S'2.8'
p2408
sg16
S'.463'
p2409
sg18
S'2.2'
p2410
sg20
S'12.5'
p2411
sg22
S'SF'
p2412
sg24
S'.333'
p2413
sg28
S'NBA'
p2414
sg30
S'0.5'
p2415
sg32
S'10.0'
p2416
sg34
S'2.4'
p2417
sg36
S'0.7'
p2418
sg38
S'3.8'
p2419
sg40
S'36'
p2420
sg42
S'BOS'
p2421
sg44
S'21'
p2422
sg46
S'0.2'
p2423
sg48
S'2.9'
p2424
sg50
S'0.2'
p2425
sg52
S'5.3'
p2426
sg54
S'3.7'
p2427
sg56
S'2009-10'
p2428
sg58
S'5.0'
p2429
sg60
S'0.9'
p2430
sg62
S'.543'
p2431
sg64
S'314'
p2432
sg66
g608
sbasS'_fromYear'
p2433
S'1996'
p2434
sS'_url'
p2435
S'http://www.basketball-reference.com/players/f/finlemi01.html'
p2436
sS'_perGame'
p2437
(isrc.gp1.models.PerGame
PerGame
p2438
(dp2439
g8
S'0.0'
p2440
sg10
S'2.0'
p2441
sg12
S'.506'
p2442
sS'_effectiveFieldGalPercentage'
p2443
S'.615'
p2444
sg14
S'1.1'
p2445
sg16
S'.463'
p2446
sg18
S'0.9'
p2447
sg20
S'5.2'
p2448
sg22
S'SF'
p2449
sg24
S'.333'
p2450
sg28
S'NBA'
p2451
sg30
S'0.2'
p2452
sg34
S'1.0'
p2453
sS'_fieldGoalsttempted'
p2454
S'4.1'
p2455
sg36
S'0.3'
p2456
sg38
S'1.6'
p2457
sg40
S'36'
p2458
sg42
S'BOS'
p2459
sg44
S'21'
p2460
sg46
S'0.1'
p2461
sg48
S'1.2'
p2462
sg50
S'0.1'
p2463
sg52
S'2.2'
p2464
sg54
S'1.5'
p2465
sg56
S'2009-10'
p2466
sg58
S'2.1'
p2467
sg60
S'0.4'
p2468
sg62
S'.543'
p2469
sg64
S'15.0'
p2470
sg66
g608
sbsS'_weight'
p2471
S'215'
p2472
sS'_dob'
p2473
S'6-3-1973'
p2474
sS'_salary'
p2475
(lp2476
(isrc.gp1.models.Salary
Salary
p2477
(dp2478
g42
S'Phoenix Suns'
p2479
sg28
S'NBA'
p2480
sg2475
S'$628,000'
p2481
sg56
S'1995-96'
p2482
sba(isrc.gp1.models.Salary
Salary
p2483
(dp2484
g42
S'Dallas Mavericks'
p2485
sg28
S'NBA'
p2486
sg2475
S'$723,000'
p2487
sg56
S'1996-97'
p2488
sba(isrc.gp1.models.Salary
Salary
p2489
(dp2490
g42
S'Dallas Mavericks'
p2491
sg28
S'NBA'
p2492
sg2475
S'$816,840'
p2493
sg56
S'1997-98'
p2494
sba(isrc.gp1.models.Salary
Salary
p2495
(dp2496
g42
S'Dallas Mavericks'
p2497
sg28
S'NBA'
p2498
sg2475
S'$6,000,000'
p2499
sg56
S'1998-99'
p2500
sba(isrc.gp1.models.Salary
Salary
p2501
(dp2502
g42
S'Dallas Mavericks'
p2503
sg28
S'NBA'
p2504
sg2475
S'$7,200,000'
p2505
sg56
S'1999-00'
p2506
sba(isrc.gp1.models.Salary
Salary
p2507
(dp2508
g42
S'Dallas Mavericks'
p2509
sg28
S'NBA'
p2510
sg2475
S'$8,400,000'
p2511
sg56
S'2000-01'
p2512
sba(isrc.gp1.models.Salary
Salary
p2513
(dp2514
g42
S'Dallas Mavericks'
p2515
sg28
S'NBA'
p2516
sg2475
S'$10,625,000'
p2517
sg56
S'2001-02'
p2518
sba(isrc.gp1.models.Salary
Salary
p2519
(dp2520
g42
S'Dallas Mavericks'
p2521
sg28
S'NBA'
p2522
sg2475
S'$11,953,125'
p2523
sg56
S'2002-03'
p2524
sba(isrc.gp1.models.Salary
Salary
p2525
(dp2526
g42
S'Dallas Mavericks'
p2527
sg28
S'NBA'
p2528
sg2475
S'$13,281,250'
p2529
sg56
S'2003-04'
p2530
sba(isrc.gp1.models.Salary
Salary
p2531
(dp2532
g42
S'Dallas Mavericks'
p2533
sg28
S'NBA'
p2534
sg2475
S'$14,609,375'
p2535
sg56
S'2004-05'
p2536
sba(isrc.gp1.models.Salary
Salary
p2537
(dp2538
g42
S'Dallas Mavericks'
p2539
sg28
S'NBA'
p2540
sg2475
S'$15,937,500'
p2541
sg56
S'2005-06'
p2542
sba(isrc.gp1.models.Salary
Salary
p2543
(dp2544
g42
S'San Antonio Spurs'
p2545
sg28
S'NBA'
p2546
sg2475
S'$2,675,000'
p2547
sg56
S'2005-06'
p2548
sba(isrc.gp1.models.Salary
Salary
p2549
(dp2550
g42
S'Dallas Mavericks'
p2551
sg28
S'NBA'
p2552
sg2475
S'$16,141,999'
p2553
sg56
S'2006-07'
p2554
sba(isrc.gp1.models.Salary
Salary
p2555
(dp2556
g42
S'San Antonio Spurs'
p2557
sg28
S'NBA'
p2558
sg2475
S'$2,889,000'
p2559
sg56
S'2006-07'
p2560
sba(isrc.gp1.models.Salary
Salary
p2561
(dp2562
g42
S'Dallas Mavericks'
p2563
sg28
S'NBA'
p2564
sg2475
S'$18,593,750'
p2565
sg56
S'2007-08'
p2566
sba(isrc.gp1.models.Salary
Salary
p2567
(dp2568
g42
S'San Antonio Spurs'
p2569
sg28
S'NBA'
p2570
sg2475
S'$3,103,000'
p2571
sg56
S'2007-08'
p2572
sba(isrc.gp1.models.Salary
Salary
p2573
(dp2574
g42
S'San Antonio Spurs'
p2575
sg28
S'NBA'
p2576
sg2475
S'$2,500,000'
p2577
sg56
S'2008-09'
p2578
sba(isrc.gp1.models.Salary
Salary
p2579
(dp2580
g42
S'San Antonio Spurs'
p2581
sg28
S'NBA'
p2582
sg2475
S'$2,500,000'
p2583
sg56
S'2009-10'
p2584
sbasg22
S'G-F'
p2585
sb.