(isrc.gp1.models.Player
Player
p0
(dp1
S'_experience'
p2
S'NA'
p3
sS'_totals'
p4
(lp5
(isrc.gp1.models.Totals
Totals
p6
(dp7
S'_offensiveRebounds'
p8
S'63'
p9
sS'_threePointsAttempted'
p10
S'99'
p11
sS'_fieldGoalsPercentage'
p12
S'.378'
p13
sS'_assist'
p14
S'133'
p15
sS'_threePointsPercentage'
p16
S'.253'
p17
sS'_threePoints'
p18
S'25'
p19
sS'_points'
p20
S'421'
p21
sS'_position'
p22
S'SG'
p23
sS'_freeThrowsPercentage'
p24
S'.577'
p25
sS'_effectiveFieldGoalPercentage'
p26
S'.407'
p27
sS'_league'
p28
S'ABA'
p29
sS'_steals'
p30
S'44'
p31
sS'_fieldGoalsAttempted'
p32
S'439'
p33
sS'_personalFouls'
p34
S'112'
p35
sS'_freeThrowsAttempted'
p36
S'111'
p37
sS'_totalRebounds'
p38
S'133'
p39
sS'_age'
p40
S'22'
p41
sS'_team'
p42
S'INA'
p43
sS'_games'
p44
S'67'
p45
sS'_blocks'
p46
S'9'
p47
sS'_twoPoints'
p48
S'141'
p49
sS'_freeThrows'
p50
S'64'
p51
sS'_twoPointsAttempted'
p52
S'340'
p53
sS'_defensiveRebounds'
p54
S'70'
p55
sS'_season'
p56
S'1975-76'
p57
sS'_fieldGoals'
p58
S'166'
p59
sS'_turnOvers'
p60
S'81'
p61
sS'_twoPointsPercentage'
p62
S'.415'
p63
sS'_minutesPlayed'
p64
S'1097'
p65
sS'_gamesStarted'
p66
g3
sba(isrc.gp1.models.Totals
Totals
p67
(dp68
g8
S'76'
p69
sg10
g3
sg12
S'.436'
p70
sg14
S'179'
p71
sg16
g3
sg18
g3
sg20
S'601'
p72
sg22
S'SG'
p73
sg24
S'.711'
p74
sg26
S'.436'
p75
sg28
S'NBA'
p76
sg30
S'57'
p77
sg32
S'573'
p78
sg34
S'106'
p79
sg36
S'142'
p80
sg38
S'187'
p81
sg40
S'23'
p82
sg42
S'IND'
p83
sg44
S'73'
p84
sg46
S'6'
p85
sg48
S'250'
p86
sg50
S'101'
p87
sg52
S'573'
p88
sg54
S'111'
p89
sg56
S'1976-77'
p90
sg58
S'250'
p91
sg60
g3
sg62
S'.436'
p92
sg64
S'1324'
p93
sg66
g3
sba(isrc.gp1.models.Totals
Totals
p94
(dp95
g8
S'47'
p96
sg10
g3
sg12
S'.449'
p97
sg14
S'142'
p98
sg16
g3
sg18
g3
sg20
S'295'
p99
sg22
S'PG'
p100
sg24
S'.567'
p101
sg26
S'.449'
p102
sg28
S'NBA'
p103
sg30
S'41'
p104
sg32
S'267'
p105
sg34
S'52'
p106
sg36
S'97'
p107
sg38
S'117'
p108
sg40
S'24'
p109
sg42
S'IND'
p110
sg44
S'71'
p111
sg46
S'10'
p112
sg48
S'120'
p113
sg50
S'55'
p114
sg52
S'267'
p115
sg54
S'70'
p116
sg56
S'1977-78'
p117
sg58
S'120'
p118
sg60
S'75'
p119
sg62
S'.449'
p120
sg64
S'955'
p121
sg66
g3
sbasS'_college'
p122
S'University of Kentucky'
p123
sS'_toYear'
p124
S'1978'
p125
sS'_height'
p126
S'6-2'
p127
sS'_active'
p128
I00
sS'_shootingHand'
p129
VRight
p130
sS'_name'
p131
S'Mike Flynn'
p132
sS'_per100Possessions'
p133
(lp134
(isrc.gp1.models.Per100Possession
Per100Possession
p135
(dp136
g8
S'2.6'
p137
sg10
S'4.0'
p138
sg12
S'.378'
p139
sS'_offensiveRating'
p140
S'93'
p141
sg14
S'5.4'
p142
sg16
S'.253'
p143
sg18
S'1.0'
p144
sg20
S'17.1'
p145
sg22
S'SG'
p146
sS'_defensiveRating'
p147
S'107'
p148
sg24
S'.577'
p149
sg28
S'ABA'
p150
sg30
S'1.8'
p151
sg32
S'17.8'
p152
sg34
S'4.6'
p153
sg36
S'4.5'
p154
sg38
S'5.4'
p155
sg40
S'22'
p156
sg42
S'INA'
p157
sg44
S'67'
p158
sg46
S'0.4'
p159
sg48
S'5.7'
p160
sg50
S'2.6'
p161
sg52
S'13.8'
p162
sg54
S'2.8'
p163
sg56
S'1975-76'
p164
sg58
S'6.7'
p165
sg60
S'3.3'
p166
sg62
S'.415'
p167
sg64
S'1097'
p168
sg66
g3
sba(isrc.gp1.models.Per100Possession
Per100Possession
p169
(dp170
g8
S'2.6'
p171
sg10
g3
sg12
S'.436'
p172
sg140
g3
sg14
S'6.1'
p173
sg16
g3
sg18
g3
sg20
S'20.3'
p174
sg22
S'SG'
p175
sg147
S'104'
p176
sg24
S'.711'
p177
sg28
S'NBA'
p178
sg30
S'1.9'
p179
sg32
S'19.4'
p180
sg34
S'3.6'
p181
sg36
S'4.8'
p182
sg38
S'6.3'
p183
sg40
S'23'
p184
sg42
S'IND'
p185
sg44
S'73'
p186
sg46
S'0.2'
p187
sg48
S'8.5'
p188
sg50
S'3.4'
p189
sg52
S'19.4'
p190
sg54
S'3.8'
p191
sg56
S'1976-77'
p192
sg58
S'8.5'
p193
sg60
g3
sg62
S'.436'
p194
sg64
S'1324'
p195
sg66
g3
sba(isrc.gp1.models.Per100Possession
Per100Possession
p196
(dp197
g8
S'2.2'
p198
sg10
g3
sg12
S'.449'
p199
sg140
S'95'
p200
sg14
S'6.6'
p201
sg16
g3
sg18
g3
sg20
S'13.7'
p202
sg22
S'PG'
p203
sg147
S'104'
p204
sg24
S'.567'
p205
sg28
S'NBA'
p206
sg30
S'1.9'
p207
sg32
S'12.4'
p208
sg34
S'2.4'
p209
sg36
S'4.5'
p210
sg38
S'5.4'
p211
sg40
S'24'
p212
sg42
S'IND'
p213
sg44
S'71'
p214
sg46
S'0.5'
p215
sg48
S'5.6'
p216
sg50
S'2.6'
p217
sg52
S'12.4'
p218
sg54
S'3.3'
p219
sg56
S'1977-78'
p220
sg58
S'5.6'
p221
sg60
S'3.5'
p222
sg62
S'.449'
p223
sg64
S'955'
p224
sg66
g3
sbasS'_advanced'
p225
(lp226
(isrc.gp1.models.Advanced
Advanced
p227
(dp228
S'_offensiveReboundPercentage'
p229
S'5.0'
p230
sS'_turnOverPercentage'
p231
S'14.2'
p232
sS'_winSharesPer48Minutes'
p233
S'.012'
p234
sS'_stealPercentage'
p235
S'1.8'
p236
sS'_usagePercentage'
p237
S'19.2'
p238
sS'_totalReboundsPercentage'
p239
S'5.5'
p240
sS'_defensiveBoxPlusMinus'
p241
S'-1.5'
p242
sg22
S'SG'
p243
sS'_valueOverReplacementPlayer'
p244
S'-0.5'
p245
sS'_trueShootingPercentage'
p246
S'.431'
p247
sS'_defensiveReboundPercentage'
p248
S'6.1'
p249
sS'_freeThrowsAttempRate'
p250
S'.253'
p251
sS'_threePointsAttempRate'
p252
S'.226'
p253
sg28
S'ABA'
p254
sS'_offensiveBoxPlusMinues'
p255
S'-2.1'
p256
sS'_assistPercentage'
p257
S'15.8'
p258
sS'_defensiveWinShares'
p259
S'0.7'
p260
sg40
S'22'
p261
sg42
S'INA'
p262
sg44
S'67'
p263
sS'_blockPercentage'
p264
S'0.4'
p265
sS'_playerEfficiencyRating'
p266
S'9.6'
p267
sS'_offensiveWinShares'
p268
S'-0.4'
p269
sg64
S'1097'
p270
sS'_boxPlusMinus'
p271
S'-3.7'
p272
sg56
S'1975-76'
p273
sS'_winShares'
p274
S'0.3'
p275
sba(isrc.gp1.models.Advanced
Advanced
p276
(dp277
g229
S'5.4'
p278
sg231
g3
sg233
S'.062'
p279
sg235
S'1.9'
p280
sg237
g3
sg239
S'6.9'
p281
sg241
S'-1.8'
p282
sg22
S'SG'
p283
sg244
S'0.0'
p284
sg246
S'.473'
p285
sg248
S'8.4'
p286
sg250
S'.248'
p287
sg252
g3
sg28
S'NBA'
p288
sg255
S'-0.3'
p289
sg257
S'19.2'
p290
sg259
S'0.7'
p291
sg40
S'23'
p292
sg42
S'IND'
p293
sg44
S'73'
p294
sg264
S'0.2'
p295
sg266
S'14.5'
p296
sg268
S'1.0'
p297
sg64
S'1324'
p298
sg271
S'-2.0'
p299
sg56
S'1976-77'
p300
sg274
S'1.7'
p301
sba(isrc.gp1.models.Advanced
Advanced
p302
(dp303
g229
S'4.7'
p304
sg231
S'19.5'
p305
sg233
S'.042'
p306
sg235
S'1.9'
p307
sg237
S'15.1'
p308
sg239
S'6.0'
p309
sg241
S'-1.1'
p310
sg22
S'PG'
p311
sg244
S'-0.3'
p312
sg246
S'.476'
p313
sg248
S'7.3'
p314
sg250
S'.363'
p315
sg252
g3
sg28
S'NBA'
p316
sg255
S'-2.0'
p317
sg257
S'19.6'
p318
sg259
S'0.6'
p319
sg40
S'24'
p320
sg42
S'IND'
p321
sg44
S'71'
p322
sg264
S'0.5'
p323
sg266
S'11.6'
p324
sg268
S'0.3'
p325
sg64
S'955'
p326
sg271
S'-3.1'
p327
sg56
S'1977-78'
p328
sg274
S'0.8'
p329
sbasS'_per36Minutes'
p330
(lp331
(isrc.gp1.models.Per36Minutes
Per36Minutes
p332
(dp333
g8
S'2.1'
p334
sg10
S'3.2'
p335
sg12
S'.378'
p336
sg14
S'4.4'
p337
sg16
S'.253'
p338
sg18
S'0.8'
p339
sg20
S'13.8'
p340
sg22
S'SG'
p341
sg24
S'.577'
p342
sg28
S'ABA'
p343
sg30
S'1.4'
p344
sg32
S'14.4'
p345
sg34
S'3.7'
p346
sg36
S'3.6'
p347
sg38
S'4.4'
p348
sg40
S'22'
p349
sg42
S'INA'
p350
sg44
S'67'
p351
sg46
S'0.3'
p352
sg48
S'4.6'
p353
sg50
S'2.1'
p354
sg52
S'11.2'
p355
sg54
S'2.3'
p356
sg56
S'1975-76'
p357
sg58
S'5.4'
p358
sg60
S'2.7'
p359
sg62
S'.415'
p360
sg64
S'1097'
p361
sg66
g3
sba(isrc.gp1.models.Per36Minutes
Per36Minutes
p362
(dp363
g8
S'2.1'
p364
sg10
g3
sg12
S'.436'
p365
sg14
S'4.9'
p366
sg16
g3
sg18
g3
sg20
S'16.3'
p367
sg22
S'SG'
p368
sg24
S'.711'
p369
sg28
S'NBA'
p370
sg30
S'1.5'
p371
sg32
S'15.6'
p372
sg34
S'2.9'
p373
sg36
S'3.9'
p374
sg38
S'5.1'
p375
sg40
S'23'
p376
sg42
S'IND'
p377
sg44
S'73'
p378
sg46
S'0.2'
p379
sg48
S'6.8'
p380
sg50
S'2.7'
p381
sg52
S'15.6'
p382
sg54
S'3.0'
p383
sg56
S'1976-77'
p384
sg58
S'6.8'
p385
sg60
g3
sg62
S'.436'
p386
sg64
S'1324'
p387
sg66
g3
sba(isrc.gp1.models.Per36Minutes
Per36Minutes
p388
(dp389
g8
S'1.8'
p390
sg10
g3
sg12
S'.449'
p391
sg14
S'5.4'
p392
sg16
g3
sg18
g3
sg20
S'11.1'
p393
sg22
S'PG'
p394
sg24
S'.567'
p395
sg28
S'NBA'
p396
sg30
S'1.5'
p397
sg32
S'10.1'
p398
sg34
S'2.0'
p399
sg36
S'3.7'
p400
sg38
S'4.4'
p401
sg40
S'24'
p402
sg42
S'IND'
p403
sg44
S'71'
p404
sg46
S'0.4'
p405
sg48
S'4.5'
p406
sg50
S'2.1'
p407
sg52
S'10.1'
p408
sg54
S'2.6'
p409
sg56
S'1977-78'
p410
sg58
S'4.5'
p411
sg60
S'2.8'
p412
sg62
S'.449'
p413
sg64
S'955'
p414
sg66
g3
sbasS'_fromYear'
p415
S'1976'
p416
sS'_url'
p417
S'http://www.basketball-reference.com/players/f/flynnmi01.html'
p418
sS'_perGame'
p419
(isrc.gp1.models.PerGame
PerGame
p420
(dp421
g8
S'0.7'
p422
sg10
g3
sg12
S'.449'
p423
sS'_effectiveFieldGalPercentage'
p424
S'.449'
p425
sg14
S'2.0'
p426
sg16
g3
sg18
g3
sg20
S'4.2'
p427
sg22
S'PG'
p428
sg24
S'.567'
p429
sg28
S'NBA'
p430
sg30
S'0.6'
p431
sg34
S'0.7'
p432
sS'_fieldGoalsttempted'
p433
S'3.8'
p434
sg36
S'1.4'
p435
sg38
S'1.6'
p436
sg40
S'24'
p437
sg42
S'IND'
p438
sg44
S'71'
p439
sg46
S'0.1'
p440
sg48
S'1.7'
p441
sg50
S'0.8'
p442
sg52
S'3.8'
p443
sg54
S'1.0'
p444
sg56
S'1977-78'
p445
sg58
S'1.7'
p446
sg60
S'1.1'
p447
sg62
S'.449'
p448
sg64
S'13.5'
p449
sg66
g3
sbsS'_weight'
p450
S'180'
p451
sS'_dob'
p452
S'31-7-1953'
p453
sS'_salary'
p454
(lp455
sg22
S'G'
p456
sb.