(isrc.gp1.models.Player
Player
p0
(dp1
S'_experience'
p2
S'NA'
p3
sS'_totals'
p4
(lp5
(isrc.gp1.models.Totals
Totals
p6
(dp7
S'_offensiveRebounds'
p8
g3
sS'_threePointsAttempted'
p9
S'.399'
p10
sS'_fieldGoalsPercentage'
p11
S'236'
p12
sS'_assist'
p13
g3
sS'_threePointsPercentage'
p14
S'.399'
p15
sS'_threePoints'
p16
S'592'
p17
sS'_points'
p18
g3
sS'_position'
p19
S'SF'
p20
sS'_freeThrowsPercentage'
p21
S'715'
p22
sS'_effectiveFieldGoalPercentage'
p23
S'402'
p24
sS'_league'
p25
S'NBA'
p26
sS'_steals'
p27
g3
sS'_fieldGoalsAttempted'
p28
S'.399'
p29
sS'_personalFouls'
p30
g3
sS'_freeThrowsAttempted'
p31
S'250'
p32
sS'_totalRebounds'
p33
g3
sS'_age'
p34
S'23'
p35
sS'_team'
p36
S'BOS'
p37
sS'_games'
p38
S'64'
p39
sS'_blocks'
p40
g3
sS'_twoPoints'
p41
S'243'
p42
sS'_freeThrows'
p43
S'185'
p44
sS'_twoPointsAttempted'
p45
S'322'
p46
sS'_defensiveRebounds'
p47
g3
sS'_season'
p48
S'1954-55'
p49
sS'_fieldGoals'
p50
S'592'
p51
sS'_turnOvers'
p52
g3
sS'_twoPointsPercentage'
p53
S'.755'
p54
sS'_minutesPlayed'
p55
S'236'
p56
sS'_gamesStarted'
p57
S'1754'
p58
sba(isrc.gp1.models.Totals
Totals
p59
(dp60
g8
g3
sg9
g3
sg11
g3
sg13
g3
sg14
g3
sg16
g3
sg18
g3
sg19
g3
sg21
g3
sg23
g3
sg25
g3
sg27
g3
sg28
g3
sg30
g3
sg31
g3
sg33
g3
sg34
S'24'
p61
sg36
S'Did Not Play\xc2\xa0(military service\xe2\x80\x94U.S. Army)'
p62
sg38
g3
sg40
g3
sg41
g3
sg43
g3
sg45
g3
sg47
g3
sg48
S'1955-56'
p63
sg50
g3
sg52
g3
sg53
g3
sg55
g3
sg57
g3
sba(isrc.gp1.models.Totals
Totals
p64
(dp65
g8
g3
sg9
S'.393'
p66
sg11
S'137'
p67
sg13
g3
sg14
S'.393'
p68
sg16
S'349'
p69
sg18
g3
sg19
S'SG'
p70
sg21
S'418'
p71
sg23
S'178'
p72
sg25
S'NBA'
p73
sg27
g3
sg28
S'.393'
p74
sg30
g3
sg31
S'113'
p75
sg33
g3
sg34
S'25'
p76
sg36
S'BOS'
p77
sg38
S'35'
p78
sg40
g3
sg41
S'144'
p79
sg43
S'67'
p80
sg45
S'182'
p81
sg47
g3
sg48
S'1956-57'
p82
sg50
S'349'
p83
sg52
g3
sg53
S'.791'
p84
sg55
S'137'
p85
sg57
S'807'
p86
sba(isrc.gp1.models.Totals
Totals
p87
(dp88
g8
g3
sg9
S'.419'
p89
sg11
S'377'
p90
sg13
g3
sg14
S'.419'
p91
sg16
S'900'
p92
sg18
g3
sg19
S'SG'
p93
sg21
S'1137'
p94
sg23
S'504'
p95
sg25
S'NBA'
p96
sg27
g3
sg28
S'.419'
p97
sg30
g3
sg31
S'245'
p98
sg33
g3
sg34
S'26'
p99
sg36
S'BOS'
p100
sg38
S'69'
p101
sg40
g3
sg41
S'383'
p102
sg43
S'167'
p103
sg45
S'472'
p104
sg47
g3
sg48
S'1957-58'
p105
sg50
S'900'
p106
sg52
g3
sg53
S'.811'
p107
sg55
S'377'
p108
sg57
S'2047'
p109
sba(isrc.gp1.models.Totals
Totals
p110
(dp111
g8
g3
sg9
S'.378'
p112
sg11
S'383'
p113
sg13
g3
sg14
S'.378'
p114
sg16
S'1013'
p115
sg18
g3
sg19
S'SG'
p116
sg21
S'1107'
p117
sg23
S'491'
p118
sg25
S'NBA'
p119
sg27
g3
sg28
S'.378'
p120
sg30
g3
sg31
S'266'
p121
sg33
g3
sg34
S'27'
p122
sg36
S'BOS'
p123
sg38
S'72'
p124
sg40
g3
sg41
S'341'
p125
sg43
S'147'
p126
sg45
S'436'
p127
sg47
g3
sg48
S'1958-59'
p128
sg50
S'1013'
p129
sg52
g3
sg53
S'.782'
p130
sg55
S'383'
p131
sg57
S'2013'
p132
sba(isrc.gp1.models.Totals
Totals
p133
(dp134
g8
g3
sg9
S'.397'
p135
sg11
S'422'
p136
sg13
g3
sg14
S'.397'
p137
sg16
S'1062'
p138
sg18
g3
sg19
S'SG'
p139
sg21
S'1117'
p140
sg23
S'506'
p141
sg25
S'NBA'
p142
sg27
g3
sg28
S'.397'
p143
sg30
g3
sg31
S'251'
p144
sg33
g3
sg34
S'28'
p145
sg36
S'BOS'
p146
sg38
S'73'
p147
sg40
g3
sg41
S'273'
p148
sg43
S'137'
p149
sg45
S'347'
p150
sg47
g3
sg48
S'1959-60'
p151
sg50
S'1062'
p152
sg52
g3
sg53
S'.787'
p153
sg55
S'422'
p154
sg57
S'2009'
p155
sba(isrc.gp1.models.Totals
Totals
p156
(dp157
g8
g3
sg9
S'.407'
p158
sg11
S'448'
p159
sg13
g3
sg14
S'.407'
p160
sg16
S'1100'
p161
sg18
g3
sg19
S'SG'
p162
sg21
S'1191'
p163
sg23
S'431'
p164
sg25
S'NBA'
p165
sg27
g3
sg28
S'.407'
p166
sg30
g3
sg31
S'284'
p167
sg33
g3
sg34
S'29'
p168
sg36
S'BOS'
p169
sg38
S'79'
p170
sg40
g3
sg41
S'295'
p171
sg43
S'146'
p172
sg45
S'354'
p173
sg47
g3
sg48
S'1960-61'
p174
sg50
S'1100'
p175
sg52
g3
sg53
S'.833'
p176
sg55
S'448'
p177
sg57
S'2019'
p178
sba(isrc.gp1.models.Totals
Totals
p179
(dp180
g8
g3
sg9
S'.428'
p181
sg11
S'436'
p182
sg13
g3
sg14
S'.428'
p183
sg16
S'1019'
p184
sg18
g3
sg19
S'SG'
p185
sg21
S'1206'
p186
sg23
S'387'
p187
sg25
S'NBA'
p188
sg27
g3
sg28
S'.428'
p189
sg30
g3
sg31
S'245'
p190
sg33
g3
sg34
S'30'
p191
sg36
S'BOS'
p192
sg38
S'79'
p193
sg40
g3
sg41
S'334'
p194
sg43
S'109'
p195
sg45
S'405'
p196
sg47
g3
sg48
S'1961-62'
p197
sg50
S'1019'
p198
sg52
g3
sg53
S'.825'
p199
sg55
S'436'
p200
sg57
S'1913'
p201
sba(isrc.gp1.models.Totals
Totals
p202
(dp203
g8
g3
sg9
S'.382'
p204
sg11
S'284'
p205
sg13
g3
sg14
S'.382'
p206
sg16
S'743'
p207
sg18
g3
sg19
S'SG'
p208
sg21
S'839'
p209
sg23
S'288'
p210
sg25
S'NBA'
p211
sg27
g3
sg28
S'.382'
p212
sg30
g3
sg31
S'259'
p213
sg33
g3
sg34
S'31'
p214
sg36
S'BOS'
p215
sg38
S'77'
p216
sg40
g3
sg41
S'271'
p217
sg43
S'95'
p218
sg45
S'332'
p219
sg47
g3
sg48
S'1962-63'
p220
sg50
S'743'
p221
sg52
g3
sg53
S'.816'
p222
sg55
S'284'
p223
sg57
S'1541'
p224
sba(isrc.gp1.models.Totals
Totals
p225
(dp226
g8
g3
sg9
S'.374'
p227
sg11
S'226'
p228
sg13
g3
sg14
S'.374'
p229
sg16
S'604'
p230
sg18
g3
sg19
S'SG'
p231
sg21
S'648'
p232
sg23
S'223'
p233
sg25
S'NBA'
p234
sg27
g3
sg28
S'.374'
p235
sg30
g3
sg31
S'245'
p236
sg33
g3
sg34
S'32'
p237
sg36
S'BOS'
p238
sg38
S'75'
p239
sg40
g3
sg41
S'196'
p240
sg43
S'81'
p241
sg45
S'233'
p242
sg47
g3
sg48
S'1963-64'
p243
sg50
S'604'
p244
sg52
g3
sg53
S'.841'
p245
sg55
S'226'
p246
sg57
S'1227'
p247
sbasS'_college'
p248
S'University of Kentucky'
p249
sS'_toYear'
p250
S'1964'
p251
sS'_height'
p252
S'6-3'
p253
sS'_active'
p254
I00
sS'_shootingHand'
p255
VRight
p256
sS'_name'
p257
S'Frank Ramsey'
p258
sS'_per100Possessions'
p259
(lp260
sS'_advanced'
p261
(lp262
(isrc.gp1.models.Advanced
Advanced
p263
(dp264
S'_offensiveReboundPercentage'
p265
S'0.9'
p266
sS'_turnOverPercentage'
p267
g3
sS'_winSharesPer48Minutes'
p268
g3
sS'_stealPercentage'
p269
g3
sS'_usagePercentage'
p270
g3
sS'_totalReboundsPercentage'
p271
S'.110'
p272
sS'_defensiveBoxPlusMinus'
p273
g3
sg19
S'SF'
p274
sS'_valueOverReplacementPlayer'
p275
g3
sS'_trueShootingPercentage'
p276
S'.487'
p277
sS'_defensiveReboundPercentage'
p278
S'4.0'
p279
sS'_freeThrowsAttempRate'
p280
S'3.1'
p281
sS'_threePointsAttempRate'
p282
S'.544'
p283
sg25
S'NBA'
p284
sS'_offensiveBoxPlusMinues'
p285
g3
sS'_assistPercentage'
p286
g3
sS'_defensiveWinShares'
p287
g3
sg34
S'23'
p288
sg36
S'BOS'
p289
sg38
S'64'
p290
sS'_blockPercentage'
p291
g3
sS'_playerEfficiencyRating'
p292
S'14.8'
p293
sS'_offensiveWinShares'
p294
g3
sg55
S'1754'
p295
sS'_boxPlusMinus'
p296
g3
sg48
S'1954-55'
p297
sS'_winShares'
p298
g3
sba(isrc.gp1.models.Advanced
Advanced
p299
(dp300
g265
S'1.4'
p301
sg267
g3
sg268
g3
sg269
g3
sg270
g3
sg271
S'.194'
p302
sg273
g3
sg19
S'SG'
p303
sg275
g3
sg276
S'.487'
p304
sg278
S'3.3'
p305
sg280
S'1.9'
p306
sg282
S'.521'
p307
sg25
S'NBA'
p308
sg285
g3
sg286
g3
sg287
g3
sg34
S'25'
p309
sg36
S'BOS'
p310
sg38
S'35'
p311
sg291
g3
sg292
S'17.4'
p312
sg294
g3
sg55
S'807'
p313
sg296
g3
sg48
S'1956-57'
p314
sg298
g3
sba(isrc.gp1.models.Advanced
Advanced
p315
(dp316
g265
S'3.6'
p317
sg267
g3
sg268
g3
sg269
g3
sg270
g3
sg271
S'.234'
p318
sg273
g3
sg19
S'SG'
p319
sg275
g3
sg276
S'.513'
p320
sg278
S'10.0'
p321
sg280
S'6.4'
p322
sg282
S'.524'
p323
sg25
S'NBA'
p324
sg285
g3
sg286
g3
sg287
g3
sg34
S'26'
p325
sg36
S'BOS'
p326
sg38
S'69'
p327
sg291
g3
sg292
S'19.5'
p328
sg294
g3
sg55
S'2047'
p329
sg296
g3
sg48
S'1957-58'
p330
sg298
g3
sba(isrc.gp1.models.Advanced
Advanced
p331
(dp332
g265
S'3.5'
p333
sg267
g3
sg268
g3
sg269
g3
sg270
g3
sg271
S'.142'
p334
sg273
g3
sg19
S'SG'
p335
sg275
g3
sg276
S'.459'
p336
sg278
S'5.9'
p337
sg280
S'2.5'
p338
sg282
S'.430'
p339
sg25
S'NBA'
p340
sg285
g3
sg286
g3
sg287
g3
sg34
S'27'
p341
sg36
S'BOS'
p342
sg38
S'72'
p343
sg291
g3
sg292
S'15.7'
p344
sg294
g3
sg55
S'2013'
p345
sg296
g3
sg48
S'1958-59'
p346
sg298
g3
sba(isrc.gp1.models.Advanced
Advanced
p347
(dp348
g265
S'3.4'
p349
sg267
g3
sg268
g3
sg269
g3
sg270
g3
sg271
S'.128'
p350
sg273
g3
sg19
S'SG'
p351
sg275
g3
sg276
S'.460'
p352
sg278
S'5.3'
p353
sg280
S'2.0'
p354
sg282
S'.327'
p355
sg25
S'NBA'
p356
sg285
g3
sg286
g3
sg287
g3
sg34
S'28'
p357
sg36
S'BOS'
p358
sg38
S'73'
p359
sg291
g3
sg292
S'14.5'
p360
sg294
g3
sg55
S'2009'
p361
sg296
g3
sg48
S'1959-60'
p362
sg298
g3
sba(isrc.gp1.models.Advanced
Advanced
p363
(dp364
g265
S'3.8'
p365
sg267
g3
sg268
g3
sg269
g3
sg270
g3
sg271
S'.155'
p366
sg273
g3
sg19
S'SG'
p367
sg275
g3
sg276
S'.474'
p368
sg278
S'6.5'
p369
sg280
S'2.7'
p370
sg282
S'.322'
p371
sg25
S'NBA'
p372
sg285
g3
sg286
g3
sg287
g3
sg34
S'29'
p373
sg36
S'BOS'
p374
sg38
S'79'
p375
sg291
g3
sg292
S'15.2'
p376
sg294
g3
sg55
S'2019'
p377
sg296
g3
sg48
S'1960-61'
p378
sg298
g3
sba(isrc.gp1.models.Advanced
Advanced
p379
(dp380
g265
S'3.4'
p381
sg267
g3
sg268
g3
sg269
g3
sg270
g3
sg271
S'.183'
p382
sg273
g3
sg19
S'SG'
p383
sg275
g3
sg276
S'.504'
p384
sg278
S'7.3'
p385
sg280
S'3.9'
p386
sg282
S'.397'
p387
sg25
S'NBA'
p388
sg285
g3
sg286
g3
sg287
g3
sg34
S'30'
p389
sg36
S'BOS'
p390
sg38
S'79'
p391
sg291
g3
sg292
S'16.3'
p392
sg294
g3
sg55
S'1913'
p393
sg296
g3
sg48
S'1961-62'
p394
sg298
g3
sba(isrc.gp1.models.Advanced
Advanced
p395
(dp396
g265
S'2.8'
p397
sg267
g3
sg268
g3
sg269
g3
sg270
g3
sg271
S'.113'
p398
sg273
g3
sg19
S'SG'
p399
sg275
g3
sg276
S'.472'
p400
sg278
S'3.6'
p401
sg280
S'0.8'
p402
sg282
S'.447'
p403
sg25
S'NBA'
p404
sg285
g3
sg286
g3
sg287
g3
sg34
S'31'
p405
sg36
S'BOS'
p406
sg38
S'77'
p407
sg291
g3
sg292
S'12.8'
p408
sg294
g3
sg55
S'1541'
p409
sg296
g3
sg48
S'1962-63'
p410
sg298
g3
sba(isrc.gp1.models.Advanced
Advanced
p411
(dp412
g265
S'2.7'
p413
sg267
g3
sg268
g3
sg269
g3
sg270
g3
sg271
S'.125'
p414
sg273
g3
sg19
S'SG'
p415
sg275
g3
sg276
S'.459'
p416
sg278
S'3.2'
p417
sg280
S'0.5'
p418
sg282
S'.386'
p419
sg25
S'NBA'
p420
sg285
g3
sg286
g3
sg287
g3
sg34
S'32'
p421
sg36
S'BOS'
p422
sg38
S'75'
p423
sg291
g3
sg292
S'12.6'
p424
sg294
g3
sg55
S'1227'
p425
sg296
g3
sg48
S'1963-64'
p426
sg298
g3
sbasS'_per36Minutes'
p427
(lp428
(isrc.gp1.models.Per36Minutes
Per36Minutes
p429
(dp430
g8
g3
sg9
S'.399'
p431
sg11
S'4.8'
p432
sg13
g3
sg14
S'5.0'
p433
sg16
S'12.2'
p434
sg18
g3
sg19
S'SF'
p435
sg21
S'14.7'
p436
sg25
S'NBA'
p437
sg27
g3
sg28
S'.399'
p438
sg30
g3
sg31
S'5.1'
p439
sg33
g3
sg34
S'23'
p440
sg36
S'BOS'
p441
sg38
S'64'
p442
sg40
g3
sg41
S'6.6'
p443
sg43
S'3.8'
p444
sg45
S'.755'
p445
sg47
g3
sg48
S'1954-55'
p446
sg50
S'12.2'
p447
sg52
g3
sg53
S'8.3'
p448
sg55
S'4.8'
p449
sg57
S'1754'
p450
sba(isrc.gp1.models.Per36Minutes
Per36Minutes
p451
(dp452
g8
g3
sg9
S'.393'
p453
sg11
S'6.1'
p454
sg13
g3
sg14
S'6.4'
p455
sg16
S'15.6'
p456
sg18
g3
sg19
S'SG'
p457
sg21
S'18.6'
p458
sg25
S'NBA'
p459
sg27
g3
sg28
S'.393'
p460
sg30
g3
sg31
S'5.0'
p461
sg33
g3
sg34
S'25'
p462
sg36
S'BOS'
p463
sg38
S'35'
p464
sg40
g3
sg41
S'8.1'
p465
sg43
S'3.0'
p466
sg45
S'.791'
p467
sg47
g3
sg48
S'1956-57'
p468
sg50
S'15.6'
p469
sg52
g3
sg53
S'7.9'
p470
sg55
S'6.1'
p471
sg57
S'807'
p472
sba(isrc.gp1.models.Per36Minutes
Per36Minutes
p473
(dp474
g8
g3
sg9
S'.419'
p475
sg11
S'6.6'
p476
sg13
g3
sg14
S'6.7'
p477
sg16
S'15.8'
p478
sg18
g3
sg19
S'SG'
p479
sg21
S'20.0'
p480
sg25
S'NBA'
p481
sg27
g3
sg28
S'.419'
p482
sg30
g3
sg31
S'4.3'
p483
sg33
g3
sg34
S'26'
p484
sg36
S'BOS'
p485
sg38
S'69'
p486
sg40
g3
sg41
S'8.3'
p487
sg43
S'2.9'
p488
sg45
S'.811'
p489
sg47
g3
sg48
S'1957-58'
p490
sg50
S'15.8'
p491
sg52
g3
sg53
S'8.9'
p492
sg55
S'6.6'
p493
sg57
S'2047'
p494
sba(isrc.gp1.models.Per36Minutes
Per36Minutes
p495
(dp496
g8
g3
sg9
S'.378'
p497
sg11
S'6.8'
p498
sg13
g3
sg14
S'6.1'
p499
sg16
S'18.1'
p500
sg18
g3
sg19
S'SG'
p501
sg21
S'19.8'
p502
sg25
S'NBA'
p503
sg27
g3
sg28
S'.378'
p504
sg30
g3
sg31
S'4.8'
p505
sg33
g3
sg34
S'27'
p506
sg36
S'BOS'
p507
sg38
S'72'
p508
sg40
g3
sg41
S'7.8'
p509
sg43
S'2.6'
p510
sg45
S'.782'
p511
sg47
g3
sg48
S'1958-59'
p512
sg50
S'18.1'
p513
sg52
g3
sg53
S'8.8'
p514
sg55
S'6.8'
p515
sg57
S'2013'
p516
sba(isrc.gp1.models.Per36Minutes
Per36Minutes
p517
(dp518
g8
g3
sg9
S'.397'
p519
sg11
S'7.6'
p520
sg13
g3
sg14
S'4.9'
p521
sg16
S'19.0'
p522
sg18
g3
sg19
S'SG'
p523
sg21
S'20.0'
p524
sg25
S'NBA'
p525
sg27
g3
sg28
S'.397'
p526
sg30
g3
sg31
S'4.5'
p527
sg33
g3
sg34
S'28'
p528
sg36
S'BOS'
p529
sg38
S'73'
p530
sg40
g3
sg41
S'6.2'
p531
sg43
S'2.5'
p532
sg45
S'.787'
p533
sg47
g3
sg48
S'1959-60'
p534
sg50
S'19.0'
p535
sg52
g3
sg53
S'9.1'
p536
sg55
S'7.6'
p537
sg57
S'2009'
p538
sba(isrc.gp1.models.Per36Minutes
Per36Minutes
p539
(dp540
g8
g3
sg9
S'.407'
p541
sg11
S'8.0'
p542
sg13
g3
sg14
S'5.3'
p543
sg16
S'19.6'
p544
sg18
g3
sg19
S'SG'
p545
sg21
S'21.2'
p546
sg25
S'NBA'
p547
sg27
g3
sg28
S'.407'
p548
sg30
g3
sg31
S'5.1'
p549
sg33
g3
sg34
S'29'
p550
sg36
S'BOS'
p551
sg38
S'79'
p552
sg40
g3
sg41
S'6.3'
p553
sg43
S'2.6'
p554
sg45
S'.833'
p555
sg47
g3
sg48
S'1960-61'
p556
sg50
S'19.6'
p557
sg52
g3
sg53
S'7.7'
p558
sg55
S'8.0'
p559
sg57
S'2019'
p560
sba(isrc.gp1.models.Per36Minutes
Per36Minutes
p561
(dp562
g8
g3
sg9
S'.428'
p563
sg11
S'8.2'
p564
sg13
g3
sg14
S'6.3'
p565
sg16
S'19.2'
p566
sg18
g3
sg19
S'SG'
p567
sg21
S'22.7'
p568
sg25
S'NBA'
p569
sg27
g3
sg28
S'.428'
p570
sg30
g3
sg31
S'4.6'
p571
sg33
g3
sg34
S'30'
p572
sg36
S'BOS'
p573
sg38
S'79'
p574
sg40
g3
sg41
S'7.6'
p575
sg43
S'2.1'
p576
sg45
S'.825'
p577
sg47
g3
sg48
S'1961-62'
p578
sg50
S'19.2'
p579
sg52
g3
sg53
S'7.3'
p580
sg55
S'8.2'
p581
sg57
S'1913'
p582
sba(isrc.gp1.models.Per36Minutes
Per36Minutes
p583
(dp584
g8
g3
sg9
S'.382'
p585
sg11
S'6.6'
p586
sg13
g3
sg14
S'6.3'
p587
sg16
S'17.4'
p588
sg18
g3
sg19
S'SG'
p589
sg21
S'19.6'
p590
sg25
S'NBA'
p591
sg27
g3
sg28
S'.382'
p592
sg30
g3
sg31
S'6.1'
p593
sg33
g3
sg34
S'31'
p594
sg36
S'BOS'
p595
sg38
S'77'
p596
sg40
g3
sg41
S'7.8'
p597
sg43
S'2.2'
p598
sg45
S'.816'
p599
sg47
g3
sg48
S'1962-63'
p600
sg50
S'17.4'
p601
sg52
g3
sg53
S'6.7'
p602
sg55
S'6.6'
p603
sg57
S'1541'
p604
sba(isrc.gp1.models.Per36Minutes
Per36Minutes
p605
(dp606
g8
g3
sg9
S'.374'
p607
sg11
S'6.6'
p608
sg13
g3
sg14
S'5.8'
p609
sg16
S'17.7'
p610
sg18
g3
sg19
S'SG'
p611
sg21
S'19.0'
p612
sg25
S'NBA'
p613
sg27
g3
sg28
S'.374'
p614
sg30
g3
sg31
S'7.2'
p615
sg33
g3
sg34
S'32'
p616
sg36
S'BOS'
p617
sg38
S'75'
p618
sg40
g3
sg41
S'6.8'
p619
sg43
S'2.4'
p620
sg45
S'.841'
p621
sg47
g3
sg48
S'1963-64'
p622
sg50
S'17.7'
p623
sg52
g3
sg53
S'6.5'
p624
sg55
S'6.6'
p625
sg57
S'1227'
p626
sbasS'_fromYear'
p627
S'1955'
p628
sS'_url'
p629
S'http://www.basketball-reference.com/players/r/ramsefr01.html'
p630
sS'_perGame'
p631
(isrc.gp1.models.PerGame
PerGame
p632
(dp633
g8
g3
sg9
S'.374'
p634
sg11
S'3.0'
p635
sS'_effectiveFieldGalPercentage'
p636
S'3.0'
p637
sg13
g3
sg14
S'.374'
p638
sg16
S'8.1'
p639
sg18
g3
sg19
S'SG'
p640
sg21
S'8.6'
p641
sg25
S'NBA'
p642
sg27
g3
sg30
g3
sS'_fieldGoalsttempted'
p643
S'.374'
p644
sg31
S'3.3'
p645
sg33
g3
sg34
S'32'
p646
sg36
S'BOS'
p647
sg38
S'75'
p648
sg40
g3
sg41
S'2.6'
p649
sg43
S'1.1'
p650
sg45
S'3.1'
p651
sg47
g3
sg48
S'1963-64'
p652
sg50
S'8.1'
p653
sg52
g3
sg53
S'.841'
p654
sg55
S'3.0'
p655
sg57
S'16.4'
p656
sbsS'_weight'
p657
S'190'
p658
sS'_dob'
p659
S'13-7-1931'
p660
sS'_salary'
p661
(lp662
sg19
S'F-G'
p663
sb.