(isrc.gp1.models.Player
Player
p0
(dp1
S'_experience'
p2
S'NA'
p3
sS'_totals'
p4
(lp5
(isrc.gp1.models.Totals
Totals
p6
(dp7
S'_offensiveRebounds'
p8
S'4'
p9
sS'_threePointsAttempted'
p10
S'8'
p11
sS'_fieldGoalsPercentage'
p12
S'1'
p13
sS'_assist'
p14
S'18'
p15
sS'_threePointsPercentage'
p16
S'21'
p17
sS'_threePoints'
p18
S'.000'
p19
sS'_points'
p20
g3
sS'_position'
p21
S'14'
p22
sS'_freeThrowsPercentage'
p23
S'2'
p24
sS'_effectiveFieldGoalPercentage'
p25
S'9'
p26
sS'_league'
p27
S'ABA'
p28
sS'_steals'
p29
S'22'
p30
sS'_fieldGoalsAttempted'
p31
S'0'
p32
sS'_personalFouls'
p33
g3
sS'_freeThrowsAttempted'
p34
g24
sS'_totalRebounds'
p35
S'22'
p36
sS'_age'
p37
S'22'
p38
sS'_team'
p39
S'FLO'
p40
sS'_games'
p41
S'101'
p42
sS'_blocks'
p43
g3
sS'_twoPoints'
p44
S'.381'
p45
sS'_freeThrows'
p46
S'.667'
p47
sS'_twoPointsAttempted'
p48
S'.364'
p49
sS'_defensiveRebounds'
p50
S'13'
p51
sS'_season'
p52
S'1970-71'
p53
sS'_fieldGoals'
p54
S'.364'
p55
sS'_turnOvers'
p56
g3
sS'_twoPointsPercentage'
p57
S'6'
p58
sS'_minutesPlayed'
p59
S'22'
p60
sS'_gamesStarted'
p61
g11
sbasS'_college'
p62
S'Villanova University'
p63
sS'_toYear'
p64
S'1971'
p65
sS'_height'
p66
S'6-1'
p67
sS'_active'
p68
I00
sS'_shootingHand'
p69
VRight
p70
sS'_name'
p71
S"Francis O'Hanlon"
p72
sS'_per100Possessions'
p73
(lp74
sS'_advanced'
p75
(lp76
(isrc.gp1.models.Advanced
Advanced
p77
(dp78
S'_offensiveReboundPercentage'
p79
S'15.7'
p80
sS'_turnOverPercentage'
p81
S'-0.004'
p82
sS'_winSharesPer48Minutes'
p83
g3
sS'_stealPercentage'
p84
S'0.1'
p85
sS'_usagePercentage'
p86
g3
sS'_totalReboundsPercentage'
p87
S'17.7'
p88
sS'_defensiveBoxPlusMinus'
p89
g3
sg21
S'14'
p90
sS'_valueOverReplacementPlayer'
p91
g3
sS'_trueShootingPercentage'
p92
S'.045'
p93
sS'_defensiveReboundPercentage'
p94
S'45.9'
p95
sS'_freeThrowsAttempRate'
p96
S'1.9'
p97
sS'_threePointsAttempRate'
p98
S'.409'
p99
sg27
S'ABA'
p100
sS'_offensiveBoxPlusMinues'
p101
g3
sS'_assistPercentage'
p102
S'-0.1'
p103
sS'_defensiveWinShares'
p104
g3
sg37
S'22'
p105
sg39
S'FLO'
p106
sg41
S'101'
p107
sS'_blockPercentage'
p108
S'0.0'
p109
sS'_playerEfficiencyRating'
p110
S'.424'
p111
sS'_offensiveWinShares'
p112
g3
sg59
S'-5.2'
p113
sS'_boxPlusMinus'
p114
g3
sg52
S'1970-71'
p115
sS'_winShares'
p116
g3
sbasS'_per36Minutes'
p117
(lp118
(isrc.gp1.models.Per36Minutes
Per36Minutes
p119
(dp120
g8
S'1.4'
p121
sg10
S'2.9'
p122
sg12
S'0.4'
p123
sg14
S'6.4'
p124
sg16
S'7.5'
p125
sg18
S'.000'
p126
sg20
g3
sg21
S'14'
p127
sg23
S'0.7'
p128
sg27
S'ABA'
p129
sg29
S'7.8'
p130
sg31
S'0.0'
p131
sg33
g3
sg34
S'0.7'
p132
sg35
S'7.8'
p133
sg37
S'22'
p134
sg39
S'FLO'
p135
sg41
S'101'
p136
sg43
g3
sg44
S'.381'
p137
sg46
S'.667'
p138
sg48
S'2.1'
p139
sg50
S'4.6'
p140
sg52
S'1970-71'
p141
sg54
S'.364'
p142
sg56
g3
sg57
S'3.2'
p143
sg59
S'7.8'
p144
sg61
S'2.9'
p145
sbasS'_fromYear'
p146
S'1971'
p147
sS'_url'
p148
S'http://www.basketball-reference.com/players/o/ohanlfr01.html'
p149
sS'_perGame'
p150
(isrc.gp1.models.PerGame
PerGame
p151
(dp152
g8
S'0.3'
p153
sg10
S'0.6'
p154
sg12
S'0.1'
p155
sS'_effectiveFieldGalPercentage'
p156
S'0.6'
p157
sg14
S'1.3'
p158
sg16
S'1.5'
p159
sg18
S'.000'
p160
sg20
g3
sg21
S'14'
p161
sg23
S'0.1'
p162
sg27
S'ABA'
p163
sg29
S'1.6'
p164
sg33
g3
sS'_fieldGoalsttempted'
p165
S'0.0'
p166
sg34
S'0.1'
p167
sg35
S'1.6'
p168
sg37
S'22'
p169
sg39
S'FLO'
p170
sg41
S'7.2'
p171
sg43
g3
sg44
S'.381'
p172
sg46
S'.667'
p173
sg48
S'.364'
p174
sg50
S'0.9'
p175
sg52
S'1970-71'
p176
sg54
S'.364'
p177
sg56
g3
sg57
S'0.4'
p178
sg59
S'1.6'
p179
sg61
S'0.6'
p180
sbsS'_weight'
p181
S'175'
p182
sS'_dob'
p183
S'24-8-1948'
p184
sS'_salary'
p185
(lp186
sg21
S'G'
p187
sb.