(isrc.gp1.models.Player
Player
p0
(dp1
S'_experience'
p2
S'NA'
p3
sS'_totals'
p4
(lp5
(isrc.gp1.models.Totals
Totals
p6
(dp7
S'_offensiveRebounds'
p8
S'123'
p9
sS'_threePointsAttempted'
p10
S'7'
p11
sS'_fieldGoalsPercentage'
p12
S'.416'
p13
sS'_assist'
p14
S'50'
p15
sS'_threePointsPercentage'
p16
S'.286'
p17
sS'_threePoints'
p18
S'2'
p19
sS'_points'
p20
S'545'
p21
sS'_position'
p22
S'PF'
p23
sS'_freeThrowsPercentage'
p24
S'.598'
p25
sS'_effectiveFieldGoalPercentage'
p26
S'.418'
p27
sS'_league'
p28
S'ABA'
p29
sS'_steals'
p30
g3
sS'_fieldGoalsAttempted'
p31
S'524'
p32
sS'_personalFouls'
p33
S'157'
p34
sS'_freeThrowsAttempted'
p35
S'179'
p36
sS'_totalRebounds'
p37
S'289'
p38
sS'_age'
p39
S'23'
p40
sS'_team'
p41
S'VIR'
p42
sS'_games'
p43
S'73'
p44
sS'_blocks'
p45
g3
sS'_twoPoints'
p46
S'216'
p47
sS'_freeThrows'
p48
S'107'
p49
sS'_twoPointsAttempted'
p50
S'517'
p51
sS'_defensiveRebounds'
p52
S'166'
p53
sS'_season'
p54
S'1972-73'
p55
sS'_fieldGoals'
p56
S'218'
p57
sS'_turnOvers'
p58
S'123'
p59
sS'_twoPointsPercentage'
p60
S'.418'
p61
sS'_minutesPlayed'
p62
S'990'
p63
sS'_gamesStarted'
p64
g3
sba(isrc.gp1.models.Totals
Totals
p65
(dp66
g8
g3
sg10
g3
sg12
g3
sg14
g3
sg16
g3
sg18
g3
sg20
g3
sg22
g3
sg24
g3
sg26
g3
sg28
g3
sg30
g3
sg31
g3
sg33
g3
sg35
g3
sg37
g3
sg39
S'24'
p67
sg41
S'Did Not Play'
p68
sg43
g3
sg45
g3
sg46
g3
sg48
g3
sg50
g3
sg52
g3
sg54
S'1973-74'
p69
sg56
g3
sg58
g3
sg60
g3
sg62
g3
sg64
g3
sba(isrc.gp1.models.Totals
Totals
p70
(dp71
g8
S'39'
p72
sg10
S'1'
p73
sg12
S'.376'
p74
sg14
S'10'
p75
sg16
S'.000'
p76
sg18
S'0'
p77
sg20
S'79'
p78
sg22
S'PF'
p79
sg24
S'.652'
p80
sg26
S'.376'
p81
sg28
S'ABA'
p82
sg30
S'3'
p83
sg31
S'85'
p84
sg33
S'37'
p85
sg35
S'23'
p86
sg37
S'82'
p87
sg39
S'25'
p88
sg41
S'SAA'
p89
sg43
S'24'
p90
sg45
g19
sg46
S'32'
p91
sg48
S'15'
p92
sg50
S'84'
p93
sg52
S'43'
p94
sg54
S'1974-75'
p95
sg56
S'32'
p96
sg58
S'18'
p97
sg60
S'.381'
p98
sg62
S'179'
p99
sg64
g3
sba(isrc.gp1.models.Totals
Totals
p100
(dp101
g8
S'12'
p102
sg10
g77
sg12
S'.545'
p103
sg14
S'5'
p104
sg16
g3
sg18
g77
sg20
S'33'
p105
sg22
S'PF'
p106
sg24
S'.563'
p107
sg26
S'.545'
p108
sg28
S'ABA'
p109
sg30
g83
sg31
S'22'
p110
sg33
S'16'
p111
sg35
S'16'
p112
sg37
S'29'
p113
sg39
S'26'
p114
sg41
S'SAA'
p115
sg43
S'10'
p116
sg45
g83
sg46
S'12'
p117
sg48
S'9'
p118
sg50
S'22'
p119
sg52
S'17'
p120
sg54
S'1975-76'
p121
sg56
S'12'
p122
sg58
g104
sg60
S'.545'
p123
sg62
S'95'
p124
sg64
g3
sbasS'_college'
p125
S'Purdue University'
p126
sS'_toYear'
p127
S'1976'
p128
sS'_height'
p129
S'6-7'
p130
sS'_active'
p131
I00
sS'_shootingHand'
p132
VRight
p133
sS'_name'
p134
S'William Franklin'
p135
sS'_per100Possessions'
p136
(lp137
(isrc.gp1.models.Per100Possession
Per100Possession
p138
(dp139
g8
S'10.2'
p140
sg10
S'0.3'
p141
sg12
S'.376'
p142
sS'_offensiveRating'
p143
S'94'
p144
sg14
S'2.6'
p145
sg16
S'.000'
p146
sg18
S'0.0'
p147
sg20
S'20.6'
p148
sg22
S'PF'
p149
sS'_defensiveRating'
p150
S'104'
p151
sg24
S'.652'
p152
sg28
S'ABA'
p153
sg30
S'0.8'
p154
sg31
S'22.1'
p155
sg33
S'9.6'
p156
sg35
S'6.0'
p157
sg37
S'21.4'
p158
sg39
S'25'
p159
sg41
S'SAA'
p160
sg43
S'24'
p161
sg45
S'0.5'
p162
sg46
S'8.3'
p163
sg48
S'3.9'
p164
sg50
S'21.9'
p165
sg52
S'11.2'
p166
sg54
S'1974-75'
p167
sg56
S'8.3'
p168
sg58
S'4.7'
p169
sg60
S'.381'
p170
sg62
S'179'
p171
sg64
g3
sba(isrc.gp1.models.Per100Possession
Per100Possession
p172
(dp173
g8
S'5.7'
p174
sg10
S'0.0'
p175
sg12
S'.545'
p176
sg143
S'116'
p177
sg14
S'2.4'
p178
sg16
g3
sg18
S'0.0'
p179
sg20
S'15.6'
p180
sg22
S'PF'
p181
sg150
S'103'
p182
sg24
S'.563'
p183
sg28
S'ABA'
p184
sg30
S'1.4'
p185
sg31
S'10.4'
p186
sg33
S'7.6'
p187
sg35
S'7.6'
p188
sg37
S'13.7'
p189
sg39
S'26'
p190
sg41
S'SAA'
p191
sg43
S'10'
p192
sg45
S'1.4'
p193
sg46
S'5.7'
p194
sg48
S'4.3'
p195
sg50
S'10.4'
p196
sg52
S'8.0'
p197
sg54
S'1975-76'
p198
sg56
S'5.7'
p199
sg58
S'2.4'
p200
sg60
S'.545'
p201
sg62
S'95'
p202
sg64
g3
sbasS'_advanced'
p203
(lp204
(isrc.gp1.models.Advanced
Advanced
p205
(dp206
S'_offensiveReboundPercentage'
p207
S'12.2'
p208
sS'_turnOverPercentage'
p209
S'16.9'
p210
sS'_winSharesPer48Minutes'
p211
S'-0.009'
p212
sS'_stealPercentage'
p213
g3
sS'_usagePercentage'
p214
S'27.1'
p215
sS'_totalReboundsPercentage'
p216
S'14.2'
p217
sS'_defensiveBoxPlusMinus'
p218
g3
sg22
S'PF'
p219
sS'_valueOverReplacementPlayer'
p220
g3
sS'_trueShootingPercentage'
p221
S'.452'
p222
sS'_defensiveReboundPercentage'
p223
S'16.2'
p224
sS'_freeThrowsAttempRate'
p225
S'.342'
p226
sS'_threePointsAttempRate'
p227
S'.013'
p228
sg28
S'ABA'
p229
sS'_offensiveBoxPlusMinues'
p230
g3
sS'_assistPercentage'
p231
S'7.1'
p232
sS'_defensiveWinShares'
p233
S'0.9'
p234
sg39
S'23'
p235
sg41
S'VIR'
p236
sg43
S'73'
p237
sS'_blockPercentage'
p238
g3
sS'_playerEfficiencyRating'
p239
S'10.8'
p240
sS'_offensiveWinShares'
p241
S'-1.1'
p242
sg62
S'990'
p243
sS'_boxPlusMinus'
p244
g3
sg54
S'1972-73'
p245
sS'_winShares'
p246
S'-0.2'
p247
sba(isrc.gp1.models.Advanced
Advanced
p248
(dp249
g207
S'21.9'
p250
sg209
S'15.9'
p251
sg211
S'.039'
p252
sg213
S'0.8'
p253
sg214
S'24.7'
p254
sg216
S'22.8'
p255
sg218
S'-2.8'
p256
sg22
S'PF'
p257
sg220
S'-0.1'
p258
sg221
S'.415'
p259
sg223
S'23.7'
p260
sg225
S'.271'
p261
sg227
S'.012'
p262
sg28
S'ABA'
p263
sg230
S'-2.5'
p264
sg231
S'7.4'
p265
sg233
S'0.2'
p266
sg39
S'25'
p267
sg41
S'SAA'
p268
sg43
S'24'
p269
sg238
S'0.6'
p270
sg239
S'12.8'
p271
sg241
S'-0.1'
p272
sg62
S'179'
p273
sg244
S'-5.2'
p274
sg54
S'1974-75'
p275
sg246
S'0.1'
p276
sba(isrc.gp1.models.Advanced
Advanced
p277
(dp278
g207
S'13.0'
p279
sg209
S'14.7'
p280
sg211
S'.145'
p281
sg213
S'1.4'
p282
sg214
S'13.8'
p283
sg216
S'15.2'
p284
sg218
S'-0.4'
p285
sg22
S'PF'
p286
sg220
S'0.0'
p287
sg221
S'.568'
p288
sg223
S'17.2'
p289
sg225
S'.727'
p290
sg227
S'.000'
p291
sg28
S'ABA'
p292
sg230
S'0.1'
p293
sg231
S'6.3'
p294
sg233
S'0.1'
p295
sg39
S'26'
p296
sg41
S'SAA'
p297
sg43
S'10'
p298
sg238
S'1.7'
p299
sg239
S'14.0'
p300
sg241
S'0.2'
p301
sg62
S'95'
p302
sg244
S'-0.3'
p303
sg54
S'1975-76'
p304
sg246
S'0.3'
p305
sbasS'_per36Minutes'
p306
(lp307
(isrc.gp1.models.Per36Minutes
Per36Minutes
p308
(dp309
g8
S'4.5'
p310
sg10
S'0.3'
p311
sg12
S'.416'
p312
sg14
S'1.8'
p313
sg16
S'.286'
p314
sg18
S'0.1'
p315
sg20
S'19.8'
p316
sg22
S'PF'
p317
sg24
S'.598'
p318
sg28
S'ABA'
p319
sg30
g3
sg31
S'19.1'
p320
sg33
S'5.7'
p321
sg35
S'6.5'
p322
sg37
S'10.5'
p323
sg39
S'23'
p324
sg41
S'VIR'
p325
sg43
S'73'
p326
sg45
g3
sg46
S'7.9'
p327
sg48
S'3.9'
p328
sg50
S'18.8'
p329
sg52
S'6.0'
p330
sg54
S'1972-73'
p331
sg56
S'7.9'
p332
sg58
S'4.5'
p333
sg60
S'.418'
p334
sg62
S'990'
p335
sg64
g3
sba(isrc.gp1.models.Per36Minutes
Per36Minutes
p336
(dp337
g8
S'7.8'
p338
sg10
S'0.2'
p339
sg12
S'.376'
p340
sg14
S'2.0'
p341
sg16
S'.000'
p342
sg18
S'0.0'
p343
sg20
S'15.9'
p344
sg22
S'PF'
p345
sg24
S'.652'
p346
sg28
S'ABA'
p347
sg30
S'0.6'
p348
sg31
S'17.1'
p349
sg33
S'7.4'
p350
sg35
S'4.6'
p351
sg37
S'16.5'
p352
sg39
S'25'
p353
sg41
S'SAA'
p354
sg43
S'24'
p355
sg45
S'0.4'
p356
sg46
S'6.4'
p357
sg48
S'3.0'
p358
sg50
S'16.9'
p359
sg52
S'8.6'
p360
sg54
S'1974-75'
p361
sg56
S'6.4'
p362
sg58
S'3.6'
p363
sg60
S'.381'
p364
sg62
S'179'
p365
sg64
g3
sba(isrc.gp1.models.Per36Minutes
Per36Minutes
p366
(dp367
g8
S'4.5'
p368
sg10
S'0.0'
p369
sg12
S'.545'
p370
sg14
S'1.9'
p371
sg16
g3
sg18
S'0.0'
p372
sg20
S'12.5'
p373
sg22
S'PF'
p374
sg24
S'.563'
p375
sg28
S'ABA'
p376
sg30
S'1.1'
p377
sg31
S'8.3'
p378
sg33
S'6.1'
p379
sg35
S'6.1'
p380
sg37
S'11.0'
p381
sg39
S'26'
p382
sg41
S'SAA'
p383
sg43
S'10'
p384
sg45
S'1.1'
p385
sg46
S'4.5'
p386
sg48
S'3.4'
p387
sg50
S'8.3'
p388
sg52
S'6.4'
p389
sg54
S'1975-76'
p390
sg56
S'4.5'
p391
sg58
S'1.9'
p392
sg60
S'.545'
p393
sg62
S'95'
p394
sg64
g3
sbasS'_fromYear'
p395
S'1973'
p396
sS'_url'
p397
S'http://www.basketball-reference.com/players/f/frankwi01.html'
p398
sS'_perGame'
p399
(isrc.gp1.models.PerGame
PerGame
p400
(dp401
g8
S'1.2'
p402
sg10
S'0.0'
p403
sg12
S'.545'
p404
sS'_effectiveFieldGalPercentage'
p405
S'.545'
p406
sg14
S'0.5'
p407
sg16
g3
sg18
S'0.0'
p408
sg20
S'3.3'
p409
sg22
S'PF'
p410
sg24
S'.563'
p411
sg28
S'ABA'
p412
sg30
S'0.3'
p413
sg33
S'1.6'
p414
sS'_fieldGoalsttempted'
p415
S'2.2'
p416
sg35
S'1.6'
p417
sg37
S'2.9'
p418
sg39
S'26'
p419
sg41
S'SAA'
p420
sg43
S'10'
p421
sg45
S'0.3'
p422
sg46
S'1.2'
p423
sg48
S'0.9'
p424
sg50
S'2.2'
p425
sg52
S'1.7'
p426
sg54
S'1975-76'
p427
sg56
S'1.2'
p428
sg58
S'0.5'
p429
sg60
S'.545'
p430
sg62
S'9.5'
p431
sg64
g3
sbsS'_weight'
p432
S'220'
p433
sS'_dob'
p434
S'19-10-1949'
p435
sS'_salary'
p436
(lp437
sg22
S'F'
p438
sb.