(isrc.gp1.models.Player
Player
p0
(dp1
S'_experience'
p2
S'NA'
p3
sS'_totals'
p4
(lp5
(isrc.gp1.models.Totals
Totals
p6
(dp7
S'_offensiveRebounds'
p8
g3
sS'_threePointsAttempted'
p9
S'.398'
p10
sS'_fieldGoalsPercentage'
p11
S'93'
p12
sS'_assist'
p13
g3
sS'_threePointsPercentage'
p14
S'13'
p15
sS'_threePoints'
p16
S'.398'
p17
sS'_points'
p18
g3
sS'_position'
p19
S'37'
p20
sS'_freeThrowsPercentage'
p21
g3
sS'_effectiveFieldGoalPercentage'
p22
S'4'
p23
sS'_league'
p24
S'NBA'
p25
sS'_steals'
p26
g3
sS'_fieldGoalsAttempted'
p27
S'37'
p28
sS'_personalFouls'
p29
g3
sS'_freeThrowsAttempted'
p30
S'87'
p31
sS'_totalRebounds'
p32
g3
sS'_age'
p33
S'23'
p34
sS'_team'
p35
S'PHW'
p36
sS'_games'
p37
S'175'
p38
sS'_blocks'
p39
g3
sS'_twoPoints'
p40
S'26'
p41
sS'_freeThrows'
p42
S'27'
p43
sS'_twoPointsAttempted'
p44
S'.500'
p45
sS'_defensiveRebounds'
p46
g3
sS'_season'
p47
S'1961-62'
p48
sS'_fieldGoals'
p49
S'.398'
p50
sS'_turnOvers'
p51
g3
sS'_twoPointsPercentage'
p52
S'51'
p53
sS'_minutesPlayed'
p54
S'93'
p55
sS'_gamesStarted'
p56
S'37'
p57
sbasS'_college'
p58
S'Indiana University'
p59
sS'_toYear'
p60
S'1962'
p61
sS'_height'
p62
S'6-8'
p63
sS'_active'
p64
I00
sS'_shootingHand'
p65
VRight
p66
sS'_name'
p67
S'Frank Radovich'
p68
sS'_per100Possessions'
p69
(lp70
sS'_advanced'
p71
(lp72
(isrc.gp1.models.Advanced
Advanced
p73
(dp74
S'_offensiveReboundPercentage'
p75
S'0.0'
p76
sS'_turnOverPercentage'
p77
g3
sS'_winSharesPer48Minutes'
p78
g3
sS'_stealPercentage'
p79
g3
sS'_usagePercentage'
p80
g3
sS'_totalReboundsPercentage'
p81
g3
sS'_defensiveBoxPlusMinus'
p82
g3
sg19
S'37'
p83
sS'_valueOverReplacementPlayer'
p84
g3
sS'_trueShootingPercentage'
p85
S'.280'
p86
sS'_defensiveReboundPercentage'
p87
S'.006'
p88
sS'_freeThrowsAttempRate'
p89
S'0.2'
p90
sS'_threePointsAttempRate'
p91
S'-0.1'
p92
sg24
S'NBA'
p93
sS'_offensiveBoxPlusMinues'
p94
g3
sS'_assistPercentage'
p95
g3
sS'_defensiveWinShares'
p96
g3
sg33
S'23'
p97
sg35
S'PHW'
p98
sg37
S'175'
p99
sS'_blockPercentage'
p100
g3
sS'_playerEfficiencyRating'
p101
S'.417'
p102
sS'_offensiveWinShares'
p103
g3
sg54
S'9.8'
p104
sS'_boxPlusMinus'
p105
g3
sg47
S'1961-62'
p106
sS'_winShares'
p107
g3
sbasS'_per36Minutes'
p108
(lp109
(isrc.gp1.models.Per36Minutes
Per36Minutes
p110
(dp111
g8
g3
sg9
S'2.7'
p112
sg11
S'19.1'
p113
sg13
g3
sg14
S'5.3'
p114
sg16
S'.398'
p115
sg18
g3
sg19
S'37'
p116
sg21
g3
sg24
S'NBA'
p117
sg26
g3
sg27
S'7.6'
p118
sg29
g3
sg30
S'17.9'
p119
sg32
g3
sg33
S'23'
p120
sg35
S'PHW'
p121
sg37
S'175'
p122
sg39
g3
sg40
S'.500'
p123
sg42
S'5.6'
p124
sg44
S'10.5'
p125
sg46
g3
sg47
S'1961-62'
p126
sg49
S'.398'
p127
sg51
g3
sg52
S'0.8'
p128
sg54
S'19.1'
p129
sg56
S'7.6'
p130
sbasS'_fromYear'
p131
S'1962'
p132
sS'_url'
p133
S'http://www.basketball-reference.com/players/r/radovfr01.html'
p134
sS'_perGame'
p135
(isrc.gp1.models.PerGame
PerGame
p136
(dp137
g8
g3
sg9
S'.398'
p138
sg11
S'2.5'
p139
sS'_effectiveFieldGalPercentage'
p140
S'0.1'
p141
sg13
g3
sg14
S'0.4'
p142
sg16
S'.398'
p143
sg18
g3
sg19
S'37'
p144
sg21
g3
sg24
S'NBA'
p145
sg26
g3
sg29
g3
sS'_fieldGoalsttempted'
p146
S'1.0'
p147
sg30
S'2.4'
p148
sg32
g3
sg33
S'23'
p149
sg35
S'PHW'
p150
sg37
S'4.7'
p151
sg39
g3
sg40
S'0.7'
p152
sg42
S'0.7'
p153
sg44
S'.500'
p154
sg46
g3
sg47
S'1961-62'
p155
sg49
S'.398'
p156
sg51
g3
sg52
S'1.4'
p157
sg54
S'2.5'
p158
sg56
S'1.0'
p159
sbsS'_weight'
p160
S'235'
p161
sS'_dob'
p162
S'3-3-1938'
p163
sS'_salary'
p164
(lp165
sg19
S'F'
p166
sb.