(isrc.gp1.models.Player
Player
p0
(dp1
S'_experience'
p2
S'NA'
p3
sS'_totals'
p4
(lp5
(isrc.gp1.models.Totals
Totals
p6
(dp7
S'_offensiveRebounds'
p8
g3
sS'_threePointsAttempted'
p9
g3
sS'_fieldGoalsPercentage'
p10
S'.451'
p11
sS'_assist'
p12
S'305'
p13
sS'_threePointsPercentage'
p14
g3
sS'_threePoints'
p15
g3
sS'_points'
p16
S'666'
p17
sS'_position'
p18
S'PG'
p19
sS'_freeThrowsPercentage'
p20
S'.655'
p21
sS'_effectiveFieldGoalPercentage'
p22
S'.451'
p23
sS'_league'
p24
S'NBA'
p25
sS'_steals'
p26
g3
sS'_fieldGoalsAttempted'
p27
S'568'
p28
sS'_personalFouls'
p29
S'199'
p30
sS'_freeThrowsAttempted'
p31
S'235'
p32
sS'_totalRebounds'
p33
S'313'
p34
sS'_age'
p35
S'22'
p36
sS'_team'
p37
S'NYK'
p38
sS'_games'
p39
S'74'
p40
sS'_blocks'
p41
g3
sS'_twoPoints'
p42
S'256'
p43
sS'_freeThrows'
p44
S'154'
p45
sS'_twoPointsAttempted'
p46
S'568'
p47
sS'_defensiveRebounds'
p48
g3
sS'_season'
p49
S'1967-68'
p50
sS'_fieldGoals'
p51
S'256'
p52
sS'_turnOvers'
p53
g3
sS'_twoPointsPercentage'
p54
S'.451'
p55
sS'_minutesPlayed'
p56
S'1588'
p57
sS'_gamesStarted'
p58
g3
sba(isrc.gp1.models.Totals
Totals
p59
(dp60
g8
g3
sg9
g3
sg10
S'.505'
p61
sg12
S'635'
p62
sg14
g3
sg15
g3
sg16
S'1403'
p63
sg18
S'PG'
p64
sg20
S'.746'
p65
sg22
S'.505'
p66
sg24
S'NBA'
p67
sg26
g3
sg27
S'1052'
p68
sg29
S'245'
p69
sg31
S'457'
p70
sg33
S'499'
p71
sg35
S'23'
p72
sg37
S'NYK'
p73
sg39
S'80'
p74
sg41
g3
sg42
S'531'
p75
sg44
S'341'
p76
sg46
S'1052'
p77
sg48
g3
sg49
S'1968-69'
p78
sg51
S'531'
p79
sg53
g3
sg54
S'.505'
p80
sg56
S'2949'
p81
sg58
g3
sba(isrc.gp1.models.Totals
Totals
p82
(dp83
g8
g3
sg9
g3
sg10
S'.518'
p84
sg12
S'629'
p85
sg14
g3
sg15
g3
sg16
S'1609'
p86
sg18
S'PG'
p87
sg20
S'.748'
p88
sg22
S'.518'
p89
sg24
S'NBA'
p90
sg26
g3
sg27
S'1158'
p91
sg29
S'203'
p92
sg31
S'547'
p93
sg33
S'465'
p94
sg35
S'24'
p95
sg37
S'NYK'
p96
sg39
S'77'
p97
sg41
g3
sg42
S'600'
p98
sg44
S'409'
p99
sg46
S'1158'
p100
sg48
g3
sg49
S'1969-70'
p101
sg51
S'600'
p102
sg53
g3
sg54
S'.518'
p103
sg56
S'3040'
p104
sg58
g3
sba(isrc.gp1.models.Totals
Totals
p105
(dp106
g8
g3
sg9
g3
sg10
S'.494'
p107
sg12
S'536'
p108
sg14
g3
sg15
g3
sg16
S'1736'
p109
sg18
S'PG'
p110
sg20
S'.779'
p111
sg22
S'.494'
p112
sg24
S'NBA'
p113
sg26
g3
sg27
S'1317'
p114
sg29
S'240'
p115
sg31
S'557'
p116
sg33
S'544'
p117
sg35
S'25'
p118
sg37
S'NYK'
p119
sg39
S'80'
p120
sg41
g3
sg42
S'651'
p121
sg44
S'434'
p122
sg46
S'1317'
p123
sg48
g3
sg49
S'1970-71'
p124
sg51
S'651'
p125
sg53
g3
sg54
S'.494'
p126
sg56
S'3455'
p127
sg58
g3
sba(isrc.gp1.models.Totals
Totals
p128
(dp129
g8
g3
sg9
g3
sg10
S'.512'
p130
sg12
S'446'
p131
sg14
g3
sg15
g3
sg16
S'1788'
p132
sg18
S'PG'
p133
sg20
S'.808'
p134
sg22
S'.512'
p135
sg24
S'NBA'
p136
sg26
g3
sg27
S'1307'
p137
sg29
S'185'
p138
sg31
S'557'
p139
sg33
S'513'
p140
sg35
S'26'
p141
sg37
S'NYK'
p142
sg39
S'77'
p143
sg41
g3
sg42
S'669'
p144
sg44
S'450'
p145
sg46
S'1307'
p146
sg48
g3
sg49
S'1971-72'
p147
sg51
S'669'
p148
sg53
g3
sg54
S'.512'
p149
sg56
S'3126'
p150
sg58
g3
sba(isrc.gp1.models.Totals
Totals
p151
(dp152
g8
g3
sg9
g3
sg10
S'.490'
p153
sg12
S'461'
p154
sg14
g3
sg15
g3
sg16
S'1648'
p155
sg18
S'PG'
p156
sg20
S'.817'
p157
sg22
S'.490'
p158
sg24
S'NBA'
p159
sg26
g3
sg27
S'1389'
p160
sg29
S'186'
p161
sg31
S'350'
p162
sg33
S'570'
p163
sg35
S'27'
p164
sg37
S'NYK'
p165
sg39
S'78'
p166
sg41
g3
sg42
S'681'
p167
sg44
S'286'
p168
sg46
S'1389'
p169
sg48
g3
sg49
S'1972-73'
p170
sg51
S'681'
p171
sg53
g3
sg54
S'.490'
p172
sg56
S'3181'
p173
sg58
g3
sba(isrc.gp1.models.Totals
Totals
p174
(dp175
g8
S'120'
p176
sg9
g3
sg10
S'.472'
p177
sg12
S'551'
p178
sg14
g3
sg15
g3
sg16
S'1643'
p179
sg18
S'PG'
p180
sg20
S'.838'
p181
sg22
S'.472'
p182
sg24
S'NBA'
p183
sg26
S'161'
p184
sg27
S'1429'
p185
sg29
S'212'
p186
sg31
S'352'
p187
sg33
S'536'
p188
sg35
S'28'
p189
sg37
S'NYK'
p190
sg39
S'80'
p191
sg41
S'15'
p192
sg42
S'674'
p193
sg44
S'295'
p194
sg46
S'1429'
p195
sg48
S'416'
p196
sg49
S'1973-74'
p197
sg51
S'674'
p198
sg53
g3
sg54
S'.472'
p199
sg56
S'3338'
p200
sg58
g3
sba(isrc.gp1.models.Totals
Totals
p201
(dp202
g8
S'90'
p203
sg9
g3
sg10
S'.483'
p204
sg12
S'474'
p205
sg14
g3
sg15
g3
sg16
S'1675'
p206
sg18
S'PG'
p207
sg20
S'.828'
p208
sg22
S'.483'
p209
sg24
S'NBA'
p210
sg26
S'190'
p211
sg27
S'1391'
p212
sg29
S'205'
p213
sg31
S'400'
p214
sg33
S'465'
p215
sg35
S'29'
p216
sg37
S'NYK'
p217
sg39
S'78'
p218
sg41
S'14'
p219
sg42
S'672'
p220
sg44
S'331'
p221
sg46
S'1391'
p222
sg48
S'375'
p223
sg49
S'1974-75'
p224
sg51
S'672'
p225
sg53
g3
sg54
S'.483'
p226
sg56
S'3204'
p227
sg58
g3
sba(isrc.gp1.models.Totals
Totals
p228
(dp229
g8
S'79'
p230
sg9
g3
sg10
S'.485'
p231
sg12
S'351'
p232
sg14
g3
sg15
g3
sg16
S'1126'
p233
sg18
S'PG'
p234
sg20
S'.823'
p235
sg22
S'.485'
p236
sg24
S'NBA'
p237
sg26
S'106'
p238
sg27
S'969'
p239
sg29
S'163'
p240
sg31
S'226'
p241
sg33
S'400'
p242
sg35
S'30'
p243
sg37
S'NYK'
p244
sg39
S'59'
p245
sg41
S'9'
p246
sg42
S'470'
p247
sg44
S'186'
p248
sg46
S'969'
p249
sg48
S'321'
p250
sg49
S'1975-76'
p251
sg51
S'470'
p252
sg53
g3
sg54
S'.485'
p253
sg56
S'2427'
p254
sg58
g3
sba(isrc.gp1.models.Totals
Totals
p255
(dp256
g8
S'52'
p257
sg9
g3
sg10
S'.489'
p258
sg12
S'403'
p259
sg14
g3
sg15
g3
sg16
S'1323'
p260
sg18
S'PG'
p261
sg20
S'.771'
p262
sg22
S'.489'
p263
sg24
S'NBA'
p264
sg26
S'132'
p265
sg27
S'1089'
p266
sg29
S'194'
p267
sg31
S'336'
p268
sg33
S'293'
p269
sg35
S'31'
p270
sg37
S'NYK'
p271
sg39
S'76'
p272
sg41
g246
sg42
S'532'
p273
sg44
S'259'
p274
sg46
S'1089'
p275
sg48
S'241'
p276
sg49
S'1976-77'
p277
sg51
S'532'
p278
sg53
g3
sg54
S'.489'
p279
sg56
S'2687'
p280
sg58
g3
sba(isrc.gp1.models.Totals
Totals
p281
(dp282
g8
S'54'
p283
sg9
g3
sg10
S'.471'
p284
sg12
S'209'
p285
sg14
g3
sg15
g3
sg16
S'825'
p286
sg18
S'PG'
p287
sg20
S'.850'
p288
sg22
S'.471'
p289
sg24
S'NBA'
p290
sg26
S'77'
p291
sg27
S'714'
p292
sg29
S'124'
p293
sg31
S'180'
p294
sg33
S'209'
p295
sg35
S'32'
p296
sg37
S'CLE'
p297
sg39
S'51'
p298
sg41
S'13'
p299
sg42
S'336'
p300
sg44
S'153'
p301
sg46
S'714'
p302
sg48
S'155'
p303
sg49
S'1977-78'
p304
sg51
S'336'
p305
sg53
S'113'
p306
sg54
S'.471'
p307
sg56
S'1664'
p308
sg58
g3
sba(isrc.gp1.models.Totals
Totals
p309
(dp310
g8
S'7'
p311
sg9
g3
sg10
S'.443'
p312
sg12
S'32'
p313
sg14
g3
sg15
g3
sg16
S'129'
p314
sg18
S'PG'
p315
sg20
S'.778'
p316
sg22
S'.443'
p317
sg24
S'NBA'
p318
sg26
S'13'
p319
sg27
S'122'
p320
sg29
S'22'
p321
sg31
S'27'
p322
sg33
S'20'
p323
sg35
S'33'
p324
sg37
S'CLE'
p325
sg39
S'12'
p326
sg41
S'2'
p327
sg42
S'54'
p328
sg44
S'21'
p329
sg46
S'122'
p330
sg48
S'13'
p331
sg49
S'1978-79'
p332
sg51
S'54'
p333
sg53
S'22'
p334
sg54
S'.443'
p335
sg56
S'279'
p336
sg58
g3
sba(isrc.gp1.models.Totals
Totals
p337
(dp338
g8
S'1'
p339
sg9
g339
sg10
S'.364'
p340
sg12
S'8'
p341
sg14
S'.000'
p342
sg15
S'0'
p343
sg16
S'10'
p344
sg18
S'PG'
p345
sg20
S'1.000'
p346
sg22
S'.364'
p347
sg24
S'NBA'
p348
sg26
g327
sg27
S'11'
p349
sg29
g327
sg31
g327
sg33
S'3'
p350
sg35
S'34'
p351
sg37
S'CLE'
p352
sg39
g350
sg41
g339
sg42
S'4'
p353
sg44
g327
sg46
S'10'
p354
sg48
g327
sg49
S'1979-80'
p355
sg51
g353
sg53
g353
sg54
S'.400'
p356
sg56
S'27'
p357
sg58
g3
sbasS'_college'
p358
S'Southern Illinois University'
p359
sS'_toYear'
p360
S'1980'
p361
sS'_height'
p362
S'6-4'
p363
sS'_active'
p364
I00
sS'_shootingHand'
p365
VRight
p366
sS'_name'
p367
S'Walt Frazier'
p368
sS'_per100Possessions'
p369
(lp370
(isrc.gp1.models.Per100Possession
Per100Possession
p371
(dp372
g8
S'1.7'
p373
sg9
g3
sg10
S'.472'
p374
sS'_offensiveRating'
p375
g3
sg12
S'7.7'
p376
sg14
g3
sg15
g3
sg16
S'22.8'
p377
sg18
S'PG'
p378
sS'_defensiveRating'
p379
S'94'
p380
sg20
S'.838'
p381
sg24
S'NBA'
p382
sg26
S'2.2'
p383
sg27
S'19.9'
p384
sg29
S'2.9'
p385
sg31
S'4.9'
p386
sg33
S'7.4'
p387
sg35
S'28'
p388
sg37
S'NYK'
p389
sg39
S'80'
p390
sg41
S'0.2'
p391
sg42
S'9.4'
p392
sg44
S'4.1'
p393
sg46
S'19.9'
p394
sg48
S'5.8'
p395
sg49
S'1973-74'
p396
sg51
S'9.4'
p397
sg53
g3
sg54
S'.472'
p398
sg56
S'3338'
p399
sg58
g3
sba(isrc.gp1.models.Per100Possession
Per100Possession
p400
(dp401
g8
S'1.3'
p402
sg9
g3
sg10
S'.483'
p403
sg375
g3
sg12
S'6.9'
p404
sg14
g3
sg15
g3
sg16
S'24.3'
p405
sg18
S'PG'
p406
sg379
S'97'
p407
sg20
S'.828'
p408
sg24
S'NBA'
p409
sg26
S'2.8'
p410
sg27
S'20.2'
p411
sg29
S'3.0'
p412
sg31
S'5.8'
p413
sg33
S'6.8'
p414
sg35
S'29'
p415
sg37
S'NYK'
p416
sg39
S'78'
p417
sg41
S'0.2'
p418
sg42
S'9.8'
p419
sg44
S'4.8'
p420
sg46
S'20.2'
p421
sg48
S'5.4'
p422
sg49
S'1974-75'
p423
sg51
S'9.8'
p424
sg53
g3
sg54
S'.483'
p425
sg56
S'3204'
p426
sg58
g3
sba(isrc.gp1.models.Per100Possession
Per100Possession
p427
(dp428
g8
S'1.5'
p429
sg9
g3
sg10
S'.485'
p430
sg375
g3
sg12
S'6.7'
p431
sg14
g3
sg15
g3
sg16
S'21.4'
p432
sg18
S'PG'
p433
sg379
S'99'
p434
sg20
S'.823'
p435
sg24
S'NBA'
p436
sg26
S'2.0'
p437
sg27
S'18.4'
p438
sg29
S'3.1'
p439
sg31
S'4.3'
p440
sg33
S'7.6'
p441
sg35
S'30'
p442
sg37
S'NYK'
p443
sg39
S'59'
p444
sg41
S'0.2'
p445
sg42
S'8.9'
p446
sg44
S'3.5'
p447
sg46
S'18.4'
p448
sg48
S'6.1'
p449
sg49
S'1975-76'
p450
sg51
S'8.9'
p451
sg53
g3
sg54
S'.485'
p452
sg56
S'2427'
p453
sg58
g3
sba(isrc.gp1.models.Per100Possession
Per100Possession
p454
(dp455
g8
S'0.9'
p456
sg9
g3
sg10
S'.489'
p457
sg375
g3
sg12
S'6.7'
p458
sg14
g3
sg15
g3
sg16
S'21.9'
p459
sg18
S'PG'
p460
sg379
S'101'
p461
sg20
S'.771'
p462
sg24
S'NBA'
p463
sg26
S'2.2'
p464
sg27
S'18.0'
p465
sg29
S'3.2'
p466
sg31
S'5.6'
p467
sg33
S'4.8'
p468
sg35
S'31'
p469
sg37
S'NYK'
p470
sg39
S'76'
p471
sg41
S'0.1'
p472
sg42
S'8.8'
p473
sg44
S'4.3'
p474
sg46
S'18.0'
p475
sg48
S'4.0'
p476
sg49
S'1976-77'
p477
sg51
S'8.8'
p478
sg53
g3
sg54
S'.489'
p479
sg56
S'2687'
p480
sg58
g3
sba(isrc.gp1.models.Per100Possession
Per100Possession
p481
(dp482
g8
S'1.5'
p483
sg9
g3
sg10
S'.471'
p484
sg375
S'105'
p485
sg12
S'5.8'
p486
sg14
g3
sg15
g3
sg16
S'23.0'
p487
sg18
S'PG'
p488
sg379
S'101'
p489
sg20
S'.850'
p490
sg24
S'NBA'
p491
sg26
S'2.1'
p492
sg27
S'19.9'
p493
sg29
S'3.5'
p494
sg31
S'5.0'
p495
sg33
S'5.8'
p496
sg35
S'32'
p497
sg37
S'CLE'
p498
sg39
S'51'
p499
sg41
S'0.4'
p500
sg42
S'9.4'
p501
sg44
S'4.3'
p502
sg46
S'19.9'
p503
sg48
S'4.3'
p504
sg49
S'1977-78'
p505
sg51
S'9.4'
p506
sg53
S'3.2'
p507
sg54
S'.471'
p508
sg56
S'1664'
p509
sg58
g3
sba(isrc.gp1.models.Per100Possession
Per100Possession
p510
(dp511
g8
S'1.2'
p512
sg9
g3
sg10
S'.443'
p513
sg375
S'97'
p514
sg12
S'5.4'
p515
sg14
g3
sg15
g3
sg16
S'21.6'
p516
sg18
S'PG'
p517
sg379
S'109'
p518
sg20
S'.778'
p519
sg24
S'NBA'
p520
sg26
S'2.2'
p521
sg27
S'20.4'
p522
sg29
S'3.7'
p523
sg31
S'4.5'
p524
sg33
S'3.4'
p525
sg35
S'33'
p526
sg37
S'CLE'
p527
sg39
S'12'
p528
sg41
S'0.3'
p529
sg42
S'9.0'
p530
sg44
S'3.5'
p531
sg46
S'20.4'
p532
sg48
S'2.2'
p533
sg49
S'1978-79'
p534
sg51
S'9.0'
p535
sg53
S'3.7'
p536
sg54
S'.443'
p537
sg56
S'279'
p538
sg58
g3
sba(isrc.gp1.models.Per100Possession
Per100Possession
p539
(dp540
g8
S'1.7'
p541
sg9
S'1.7'
p542
sg10
S'.364'
p543
sg375
S'87'
p544
sg12
S'13.5'
p545
sg14
S'.000'
p546
sg15
S'0.0'
p547
sg16
S'16.8'
p548
sg18
S'PG'
p549
sg379
S'104'
p550
sg20
S'1.000'
p551
sg24
S'NBA'
p552
sg26
S'3.4'
p553
sg27
S'18.5'
p554
sg29
S'3.4'
p555
sg31
S'3.4'
p556
sg33
S'5.0'
p557
sg35
S'34'
p558
sg37
S'CLE'
p559
sg39
g350
sg41
S'1.7'
p560
sg42
S'6.7'
p561
sg44
S'3.4'
p562
sg46
S'16.8'
p563
sg48
S'3.4'
p564
sg49
S'1979-80'
p565
sg51
S'6.7'
p566
sg53
S'6.7'
p567
sg54
S'.400'
p568
sg56
S'27'
p569
sg58
g3
sbasS'_advanced'
p570
(lp571
(isrc.gp1.models.Advanced
Advanced
p572
(dp573
S'_offensiveReboundPercentage'
p574
g3
sS'_turnOverPercentage'
p575
g3
sS'_winSharesPer48Minutes'
p576
S'.105'
p577
sS'_stealPercentage'
p578
g3
sS'_usagePercentage'
p579
g3
sS'_totalReboundsPercentage'
p580
g3
sS'_defensiveBoxPlusMinus'
p581
g3
sg18
S'PG'
p582
sS'_valueOverReplacementPlayer'
p583
g3
sS'_trueShootingPercentage'
p584
S'.496'
p585
sS'_defensiveReboundPercentage'
p586
g3
sS'_freeThrowsAttempRate'
p587
S'.414'
p588
sS'_threePointsAttempRate'
p589
g3
sg24
S'NBA'
p590
sS'_offensiveBoxPlusMinues'
p591
g3
sS'_assistPercentage'
p592
S'25.1'
p593
sS'_defensiveWinShares'
p594
S'1.9'
p595
sg35
S'22'
p596
sg37
S'NYK'
p597
sg39
S'74'
p598
sS'_blockPercentage'
p599
g3
sS'_playerEfficiencyRating'
p600
S'15.4'
p601
sS'_offensiveWinShares'
p602
S'1.6'
p603
sg56
S'1588'
p604
sS'_boxPlusMinus'
p605
g3
sg49
S'1967-68'
p606
sS'_winShares'
p607
S'3.5'
p608
sba(isrc.gp1.models.Advanced
Advanced
p609
(dp610
g574
g3
sg575
g3
sg576
S'.207'
p611
sg578
g3
sg579
g3
sg580
g3
sg581
g3
sg18
S'PG'
p612
sg583
g3
sg584
S'.560'
p613
sg586
g3
sg587
S'.434'
p614
sg589
g3
sg24
S'NBA'
p615
sg591
g3
sg592
S'29.5'
p616
sg594
S'4.4'
p617
sg35
S'23'
p618
sg37
S'NYK'
p619
sg39
S'80'
p620
sg599
g3
sg600
S'20.2'
p621
sg602
S'8.3'
p622
sg56
S'2949'
p623
sg605
g3
sg49
S'1968-69'
p624
sg607
S'12.7'
p625
sba(isrc.gp1.models.Advanced
Advanced
p626
(dp627
g574
g3
sg575
g3
sg576
S'.236'
p628
sg578
g3
sg579
g3
sg580
g3
sg581
g3
sg18
S'PG'
p629
sg583
g3
sg584
S'.575'
p630
sg586
g3
sg587
S'.472'
p631
sg589
g3
sg24
S'NBA'
p632
sg591
g3
sg592
S'27.0'
p633
sg594
S'6.4'
p634
sg35
S'24'
p635
sg37
S'NYK'
p636
sg39
S'77'
p637
sg599
g3
sg600
S'21.1'
p638
sg602
S'8.6'
p639
sg56
S'3040'
p640
sg605
g3
sg49
S'1969-70'
p641
sg607
S'15.0'
p642
sba(isrc.gp1.models.Advanced
Advanced
p643
(dp644
g574
g3
sg575
g3
sg576
S'.217'
p645
sg578
g3
sg579
g3
sg580
S'7.2'
p646
sg581
g3
sg18
S'PG'
p647
sg583
g3
sg584
S'.556'
p648
sg586
g3
sg587
S'.423'
p649
sg589
g3
sg24
S'NBA'
p650
sg591
g3
sg592
S'21.2'
p651
sg594
S'6.7'
p652
sg35
S'25'
p653
sg37
S'NYK'
p654
sg39
S'80'
p655
sg599
g3
sg600
S'19.5'
p656
sg602
S'8.9'
p657
sg56
S'3455'
p658
sg605
g3
sg49
S'1970-71'
p659
sg607
S'15.6'
p660
sba(isrc.gp1.models.Advanced
Advanced
p661
(dp662
g574
g3
sg575
g3
sg576
S'.223'
p663
sg578
g3
sg579
g3
sg580
S'8.0'
p664
sg581
g3
sg18
S'PG'
p665
sg583
g3
sg584
S'.576'
p666
sg586
g3
sg587
S'.426'
p667
sg589
g3
sg24
S'NBA'
p668
sg591
g3
sg592
S'21.1'
p669
sg594
S'4.2'
p670
sg35
S'26'
p671
sg37
S'NYK'
p672
sg39
S'77'
p673
sg599
g3
sg600
S'21.6'
p674
sg602
S'10.3'
p675
sg56
S'3126'
p676
sg605
g3
sg49
S'1971-72'
p677
sg607
S'14.5'
p678
sba(isrc.gp1.models.Advanced
Advanced
p679
(dp680
g574
g3
sg575
g3
sg576
S'.196'
p681
sg578
g3
sg579
g3
sg580
S'8.9'
p682
sg581
g3
sg18
S'PG'
p683
sg583
g3
sg584
S'.534'
p684
sg586
g3
sg587
S'.252'
p685
sg589
g3
sg24
S'NBA'
p686
sg591
g3
sg592
S'20.6'
p687
sg594
S'5.7'
p688
sg35
S'27'
p689
sg37
S'NYK'
p690
sg39
S'78'
p691
sg599
g3
sg600
S'19.7'
p692
sg602
S'7.3'
p693
sg56
S'3181'
p694
sg605
g3
sg49
S'1972-73'
p695
sg607
S'13.0'
p696
sba(isrc.gp1.models.Advanced
Advanced
p697
(dp698
g574
S'3.8'
p699
sg575
g3
sg576
S'.157'
p700
sg578
S'2.2'
p701
sg579
g3
sg580
S'8.5'
p702
sg581
S'1.7'
p703
sg18
S'PG'
p704
sg583
S'6.3'
p705
sg584
S'.519'
p706
sg586
S'13.1'
p707
sg587
S'.246'
p708
sg589
g3
sg24
S'NBA'
p709
sg591
S'3.7'
p710
sg592
S'24.4'
p711
sg594
S'5.1'
p712
sg35
S'28'
p713
sg37
S'NYK'
p714
sg39
S'80'
p715
sg599
S'0.2'
p716
sg600
S'18.7'
p717
sg602
S'5.9'
p718
sg56
S'3338'
p719
sg605
S'5.5'
p720
sg49
S'1973-74'
p721
sg607
S'10.9'
p722
sba(isrc.gp1.models.Advanced
Advanced
p723
(dp724
g574
S'2.9'
p725
sg575
g3
sg576
S'.161'
p726
sg578
S'2.8'
p727
sg579
g3
sg580
S'7.6'
p728
sg581
S'1.1'
p729
sg18
S'PG'
p730
sg583
S'6.3'
p731
sg584
S'.534'
p732
sg586
S'12.4'
p733
sg587
S'.288'
p734
sg589
g3
sg24
S'NBA'
p735
sg591
S'4.7'
p736
sg592
S'23.1'
p737
sg594
S'3.5'
p738
sg35
S'29'
p739
sg37
S'NYK'
p740
sg39
S'78'
p741
sg599
S'0.2'
p742
sg600
S'19.9'
p743
sg602
S'7.2'
p744
sg56
S'3204'
p745
sg605
S'5.8'
p746
sg49
S'1974-75'
p747
sg607
S'10.8'
p748
sba(isrc.gp1.models.Advanced
Advanced
p749
(dp750
g574
S'3.3'
p751
sg575
g3
sg576
S'.134'
p752
sg578
S'2.0'
p753
sg579
g3
sg580
S'8.5'
p754
sg581
S'1.2'
p755
sg18
S'PG'
p756
sg583
S'3.9'
p757
sg584
S'.527'
p758
sg586
S'13.8'
p759
sg587
S'.233'
p760
sg589
g3
sg24
S'NBA'
p761
sg591
S'3.2'
p762
sg592
S'21.4'
p763
sg594
S'2.4'
p764
sg35
S'30'
p765
sg37
S'NYK'
p766
sg39
S'59'
p767
sg599
S'0.2'
p768
sg600
S'17.7'
p769
sg602
S'4.4'
p770
sg56
S'2427'
p771
sg605
S'4.4'
p772
sg49
S'1975-76'
p773
sg607
S'6.8'
p774
sba(isrc.gp1.models.Advanced
Advanced
p775
(dp776
g574
S'2.1'
p777
sg575
g3
sg576
S'.108'
p778
sg578
S'2.2'
p779
sg579
g3
sg580
S'5.7'
p780
sg581
S'0.0'
p781
sg18
S'PG'
p782
sg583
S'2.7'
p783
sg584
S'.535'
p784
sg586
S'9.2'
p785
sg587
S'.309'
p786
sg589
g3
sg24
S'NBA'
p787
sg591
S'1.9'
p788
sg592
S'20.6'
p789
sg594
S'2.3'
p790
sg35
S'31'
p791
sg37
S'NYK'
p792
sg39
S'76'
p793
sg599
S'0.2'
p794
sg600
S'16.6'
p795
sg602
S'3.8'
p796
sg56
S'2687'
p797
sg605
S'2.0'
p798
sg49
S'1976-77'
p799
sg607
S'6.1'
p800
sba(isrc.gp1.models.Advanced
Advanced
p801
(dp802
g574
S'3.3'
p803
sg575
S'12.5'
p804
sg576
S'.132'
p805
sg578
S'2.1'
p806
sg579
S'21.6'
p807
sg580
S'6.4'
p808
sg581
S'0.3'
p809
sg18
S'PG'
p810
sg583
S'1.8'
p811
sg584
S'.520'
p812
sg586
S'9.5'
p813
sg587
S'.252'
p814
sg589
g3
sg24
S'NBA'
p815
sg591
S'1.9'
p816
sg592
S'18.5'
p817
sg594
S'1.8'
p818
sg35
S'32'
p819
sg37
S'CLE'
p820
sg39
S'51'
p821
sg599
S'0.4'
p822
sg600
S'17.5'
p823
sg602
S'2.8'
p824
sg56
S'1664'
p825
sg605
S'2.3'
p826
sg49
S'1977-78'
p827
sg607
S'4.6'
p828
sba(isrc.gp1.models.Advanced
Advanced
p829
(dp830
g574
S'2.6'
p831
sg575
S'14.1'
p832
sg576
S'.029'
p833
sg578
S'2.2'
p834
sg579
S'22.2'
p835
sg580
S'3.9'
p836
sg581
S'-2.3'
p837
sg18
S'PG'
p838
sg583
S'-0.1'
p839
sg584
S'.482'
p840
sg586
S'5.4'
p841
sg587
S'.221'
p842
sg589
g3
sg24
S'NBA'
p843
sg591
S'-1.5'
p844
sg592
S'16.2'
p845
sg594
S'0.1'
p846
sg35
S'33'
p847
sg37
S'CLE'
p848
sg39
S'12'
p849
sg599
S'0.4'
p850
sg600
S'12.9'
p851
sg602
S'0.1'
p852
sg56
S'279'
p853
sg605
S'-3.8'
p854
sg49
S'1978-79'
p855
sg607
S'0.2'
p856
sba(isrc.gp1.models.Advanced
Advanced
p857
(dp858
g574
S'3.7'
p859
sg575
S'25.2'
p860
sg576
S'-0.012'
p861
sg578
S'3.4'
p862
sg579
S'22.6'
p863
sg580
S'5.9'
p864
sg581
S'-0.1'
p865
sg18
S'PG'
p866
sg583
S'0.0'
p867
sg584
S'.421'
p868
sg586
S'8.2'
p869
sg587
S'.182'
p870
sg589
S'.091'
p871
sg24
S'NBA'
p872
sg591
S'-3.3'
p873
sg592
S'36.7'
p874
sg594
S'0.0'
p875
sg35
S'34'
p876
sg37
S'CLE'
p877
sg39
g350
sg599
S'2.0'
p878
sg600
S'13.6'
p879
sg602
S'0.0'
p880
sg56
S'27'
p881
sg605
S'-3.4'
p882
sg49
S'1979-80'
p883
sg607
S'0.0'
p884
sbasS'_per36Minutes'
p885
(lp886
(isrc.gp1.models.Per36Minutes
Per36Minutes
p887
(dp888
g8
g3
sg9
g3
sg10
S'.451'
p889
sg12
S'6.9'
p890
sg14
g3
sg15
g3
sg16
S'15.1'
p891
sg18
S'PG'
p892
sg20
S'.655'
p893
sg24
S'NBA'
p894
sg26
g3
sg27
S'12.9'
p895
sg29
S'4.5'
p896
sg31
S'5.3'
p897
sg33
S'7.1'
p898
sg35
S'22'
p899
sg37
S'NYK'
p900
sg39
S'74'
p901
sg41
g3
sg42
S'5.8'
p902
sg44
S'3.5'
p903
sg46
S'12.9'
p904
sg48
g3
sg49
S'1967-68'
p905
sg51
S'5.8'
p906
sg53
g3
sg54
S'.451'
p907
sg56
S'1588'
p908
sg58
g3
sba(isrc.gp1.models.Per36Minutes
Per36Minutes
p909
(dp910
g8
g3
sg9
g3
sg10
S'.505'
p911
sg12
S'7.8'
p912
sg14
g3
sg15
g3
sg16
S'17.1'
p913
sg18
S'PG'
p914
sg20
S'.746'
p915
sg24
S'NBA'
p916
sg26
g3
sg27
S'12.8'
p917
sg29
S'3.0'
p918
sg31
S'5.6'
p919
sg33
S'6.1'
p920
sg35
S'23'
p921
sg37
S'NYK'
p922
sg39
S'80'
p923
sg41
g3
sg42
S'6.5'
p924
sg44
S'4.2'
p925
sg46
S'12.8'
p926
sg48
g3
sg49
S'1968-69'
p927
sg51
S'6.5'
p928
sg53
g3
sg54
S'.505'
p929
sg56
S'2949'
p930
sg58
g3
sba(isrc.gp1.models.Per36Minutes
Per36Minutes
p931
(dp932
g8
g3
sg9
g3
sg10
S'.518'
p933
sg12
S'7.4'
p934
sg14
g3
sg15
g3
sg16
S'19.1'
p935
sg18
S'PG'
p936
sg20
S'.748'
p937
sg24
S'NBA'
p938
sg26
g3
sg27
S'13.7'
p939
sg29
S'2.4'
p940
sg31
S'6.5'
p941
sg33
S'5.5'
p942
sg35
S'24'
p943
sg37
S'NYK'
p944
sg39
S'77'
p945
sg41
g3
sg42
S'7.1'
p946
sg44
S'4.8'
p947
sg46
S'13.7'
p948
sg48
g3
sg49
S'1969-70'
p949
sg51
S'7.1'
p950
sg53
g3
sg54
S'.518'
p951
sg56
S'3040'
p952
sg58
g3
sba(isrc.gp1.models.Per36Minutes
Per36Minutes
p953
(dp954
g8
g3
sg9
g3
sg10
S'.494'
p955
sg12
S'5.6'
p956
sg14
g3
sg15
g3
sg16
S'18.1'
p957
sg18
S'PG'
p958
sg20
S'.779'
p959
sg24
S'NBA'
p960
sg26
g3
sg27
S'13.7'
p961
sg29
S'2.5'
p962
sg31
S'5.8'
p963
sg33
S'5.7'
p964
sg35
S'25'
p965
sg37
S'NYK'
p966
sg39
S'80'
p967
sg41
g3
sg42
S'6.8'
p968
sg44
S'4.5'
p969
sg46
S'13.7'
p970
sg48
g3
sg49
S'1970-71'
p971
sg51
S'6.8'
p972
sg53
g3
sg54
S'.494'
p973
sg56
S'3455'
p974
sg58
g3
sba(isrc.gp1.models.Per36Minutes
Per36Minutes
p975
(dp976
g8
g3
sg9
g3
sg10
S'.512'
p977
sg12
S'5.1'
p978
sg14
g3
sg15
g3
sg16
S'20.6'
p979
sg18
S'PG'
p980
sg20
S'.808'
p981
sg24
S'NBA'
p982
sg26
g3
sg27
S'15.1'
p983
sg29
S'2.1'
p984
sg31
S'6.4'
p985
sg33
S'5.9'
p986
sg35
S'26'
p987
sg37
S'NYK'
p988
sg39
S'77'
p989
sg41
g3
sg42
S'7.7'
p990
sg44
S'5.2'
p991
sg46
S'15.1'
p992
sg48
g3
sg49
S'1971-72'
p993
sg51
S'7.7'
p994
sg53
g3
sg54
S'.512'
p995
sg56
S'3126'
p996
sg58
g3
sba(isrc.gp1.models.Per36Minutes
Per36Minutes
p997
(dp998
g8
g3
sg9
g3
sg10
S'.490'
p999
sg12
S'5.2'
p1000
sg14
g3
sg15
g3
sg16
S'18.7'
p1001
sg18
S'PG'
p1002
sg20
S'.817'
p1003
sg24
S'NBA'
p1004
sg26
g3
sg27
S'15.7'
p1005
sg29
S'2.1'
p1006
sg31
S'4.0'
p1007
sg33
S'6.5'
p1008
sg35
S'27'
p1009
sg37
S'NYK'
p1010
sg39
S'78'
p1011
sg41
g3
sg42
S'7.7'
p1012
sg44
S'3.2'
p1013
sg46
S'15.7'
p1014
sg48
g3
sg49
S'1972-73'
p1015
sg51
S'7.7'
p1016
sg53
g3
sg54
S'.490'
p1017
sg56
S'3181'
p1018
sg58
g3
sba(isrc.gp1.models.Per36Minutes
Per36Minutes
p1019
(dp1020
g8
S'1.3'
p1021
sg9
g3
sg10
S'.472'
p1022
sg12
S'5.9'
p1023
sg14
g3
sg15
g3
sg16
S'17.7'
p1024
sg18
S'PG'
p1025
sg20
S'.838'
p1026
sg24
S'NBA'
p1027
sg26
S'1.7'
p1028
sg27
S'15.4'
p1029
sg29
S'2.3'
p1030
sg31
S'3.8'
p1031
sg33
S'5.8'
p1032
sg35
S'28'
p1033
sg37
S'NYK'
p1034
sg39
S'80'
p1035
sg41
S'0.2'
p1036
sg42
S'7.3'
p1037
sg44
S'3.2'
p1038
sg46
S'15.4'
p1039
sg48
S'4.5'
p1040
sg49
S'1973-74'
p1041
sg51
S'7.3'
p1042
sg53
g3
sg54
S'.472'
p1043
sg56
S'3338'
p1044
sg58
g3
sba(isrc.gp1.models.Per36Minutes
Per36Minutes
p1045
(dp1046
g8
S'1.0'
p1047
sg9
g3
sg10
S'.483'
p1048
sg12
S'5.3'
p1049
sg14
g3
sg15
g3
sg16
S'18.8'
p1050
sg18
S'PG'
p1051
sg20
S'.828'
p1052
sg24
S'NBA'
p1053
sg26
S'2.1'
p1054
sg27
S'15.6'
p1055
sg29
S'2.3'
p1056
sg31
S'4.5'
p1057
sg33
S'5.2'
p1058
sg35
S'29'
p1059
sg37
S'NYK'
p1060
sg39
S'78'
p1061
sg41
S'0.2'
p1062
sg42
S'7.6'
p1063
sg44
S'3.7'
p1064
sg46
S'15.6'
p1065
sg48
S'4.2'
p1066
sg49
S'1974-75'
p1067
sg51
S'7.6'
p1068
sg53
g3
sg54
S'.483'
p1069
sg56
S'3204'
p1070
sg58
g3
sba(isrc.gp1.models.Per36Minutes
Per36Minutes
p1071
(dp1072
g8
S'1.2'
p1073
sg9
g3
sg10
S'.485'
p1074
sg12
S'5.2'
p1075
sg14
g3
sg15
g3
sg16
S'16.7'
p1076
sg18
S'PG'
p1077
sg20
S'.823'
p1078
sg24
S'NBA'
p1079
sg26
S'1.6'
p1080
sg27
S'14.4'
p1081
sg29
S'2.4'
p1082
sg31
S'3.4'
p1083
sg33
S'5.9'
p1084
sg35
S'30'
p1085
sg37
S'NYK'
p1086
sg39
S'59'
p1087
sg41
S'0.1'
p1088
sg42
S'7.0'
p1089
sg44
S'2.8'
p1090
sg46
S'14.4'
p1091
sg48
S'4.8'
p1092
sg49
S'1975-76'
p1093
sg51
S'7.0'
p1094
sg53
g3
sg54
S'.485'
p1095
sg56
S'2427'
p1096
sg58
g3
sba(isrc.gp1.models.Per36Minutes
Per36Minutes
p1097
(dp1098
g8
S'0.7'
p1099
sg9
g3
sg10
S'.489'
p1100
sg12
S'5.4'
p1101
sg14
g3
sg15
g3
sg16
S'17.7'
p1102
sg18
S'PG'
p1103
sg20
S'.771'
p1104
sg24
S'NBA'
p1105
sg26
S'1.8'
p1106
sg27
S'14.6'
p1107
sg29
S'2.6'
p1108
sg31
S'4.5'
p1109
sg33
S'3.9'
p1110
sg35
S'31'
p1111
sg37
S'NYK'
p1112
sg39
S'76'
p1113
sg41
S'0.1'
p1114
sg42
S'7.1'
p1115
sg44
S'3.5'
p1116
sg46
S'14.6'
p1117
sg48
S'3.2'
p1118
sg49
S'1976-77'
p1119
sg51
S'7.1'
p1120
sg53
g3
sg54
S'.489'
p1121
sg56
S'2687'
p1122
sg58
g3
sba(isrc.gp1.models.Per36Minutes
Per36Minutes
p1123
(dp1124
g8
S'1.2'
p1125
sg9
g3
sg10
S'.471'
p1126
sg12
S'4.5'
p1127
sg14
g3
sg15
g3
sg16
S'17.8'
p1128
sg18
S'PG'
p1129
sg20
S'.850'
p1130
sg24
S'NBA'
p1131
sg26
S'1.7'
p1132
sg27
S'15.4'
p1133
sg29
S'2.7'
p1134
sg31
S'3.9'
p1135
sg33
S'4.5'
p1136
sg35
S'32'
p1137
sg37
S'CLE'
p1138
sg39
S'51'
p1139
sg41
S'0.3'
p1140
sg42
S'7.3'
p1141
sg44
S'3.3'
p1142
sg46
S'15.4'
p1143
sg48
S'3.4'
p1144
sg49
S'1977-78'
p1145
sg51
S'7.3'
p1146
sg53
S'2.4'
p1147
sg54
S'.471'
p1148
sg56
S'1664'
p1149
sg58
g3
sba(isrc.gp1.models.Per36Minutes
Per36Minutes
p1150
(dp1151
g8
S'0.9'
p1152
sg9
g3
sg10
S'.443'
p1153
sg12
S'4.1'
p1154
sg14
g3
sg15
g3
sg16
S'16.6'
p1155
sg18
S'PG'
p1156
sg20
S'.778'
p1157
sg24
S'NBA'
p1158
sg26
S'1.7'
p1159
sg27
S'15.7'
p1160
sg29
S'2.8'
p1161
sg31
S'3.5'
p1162
sg33
S'2.6'
p1163
sg35
S'33'
p1164
sg37
S'CLE'
p1165
sg39
S'12'
p1166
sg41
S'0.3'
p1167
sg42
S'7.0'
p1168
sg44
S'2.7'
p1169
sg46
S'15.7'
p1170
sg48
S'1.7'
p1171
sg49
S'1978-79'
p1172
sg51
S'7.0'
p1173
sg53
S'2.8'
p1174
sg54
S'.443'
p1175
sg56
S'279'
p1176
sg58
g3
sba(isrc.gp1.models.Per36Minutes
Per36Minutes
p1177
(dp1178
g8
S'1.3'
p1179
sg9
S'1.3'
p1180
sg10
S'.364'
p1181
sg12
S'10.7'
p1182
sg14
S'.000'
p1183
sg15
S'0.0'
p1184
sg16
S'13.3'
p1185
sg18
S'PG'
p1186
sg20
S'1.000'
p1187
sg24
S'NBA'
p1188
sg26
S'2.7'
p1189
sg27
S'14.7'
p1190
sg29
S'2.7'
p1191
sg31
S'2.7'
p1192
sg33
S'4.0'
p1193
sg35
S'34'
p1194
sg37
S'CLE'
p1195
sg39
g350
sg41
S'1.3'
p1196
sg42
S'5.3'
p1197
sg44
S'2.7'
p1198
sg46
S'13.3'
p1199
sg48
S'2.7'
p1200
sg49
S'1979-80'
p1201
sg51
S'5.3'
p1202
sg53
S'5.3'
p1203
sg54
S'.400'
p1204
sg56
S'27'
p1205
sg58
g3
sbasS'_fromYear'
p1206
S'1968'
p1207
sS'_url'
p1208
S'http://www.basketball-reference.com/players/f/fraziwa01.html'
p1209
sS'_perGame'
p1210
(isrc.gp1.models.PerGame
PerGame
p1211
(dp1212
g8
S'0.3'
p1213
sg9
S'0.3'
p1214
sg10
S'.364'
p1215
sS'_effectiveFieldGalPercentage'
p1216
S'.364'
p1217
sg12
S'2.7'
p1218
sg14
S'.000'
p1219
sg15
S'0.0'
p1220
sg16
S'3.3'
p1221
sg18
S'PG'
p1222
sg20
S'1.000'
p1223
sg24
S'NBA'
p1224
sg26
S'0.7'
p1225
sg29
S'0.7'
p1226
sS'_fieldGoalsttempted'
p1227
S'3.7'
p1228
sg31
S'0.7'
p1229
sg33
S'1.0'
p1230
sg35
S'34'
p1231
sg37
S'CLE'
p1232
sg39
g350
sg41
S'0.3'
p1233
sg42
S'1.3'
p1234
sg44
S'0.7'
p1235
sg46
S'3.3'
p1236
sg48
S'0.7'
p1237
sg49
S'1979-80'
p1238
sg51
S'1.3'
p1239
sg53
S'1.3'
p1240
sg54
S'.400'
p1241
sg56
S'9.0'
p1242
sg58
g3
sbsS'_weight'
p1243
S'200'
p1244
sS'_dob'
p1245
S'29-3-1945'
p1246
sS'_salary'
p1247
(lp1248
sg18
S'G'
p1249
sb.