(isrc.gp1.models.Player
Player
p0
(dp1
S'_experience'
p2
S'NA'
p3
sS'_totals'
p4
(lp5
(isrc.gp1.models.Totals
Totals
p6
(dp7
S'_offensiveRebounds'
p8
S'26'
p9
sS'_threePointsAttempted'
p10
S'18'
p11
sS'_fieldGoalsPercentage'
p12
S'.500'
p13
sS'_assist'
p14
S'18'
p15
sS'_threePointsPercentage'
p16
S'.389'
p17
sS'_threePoints'
p18
S'7'
p19
sS'_points'
p20
S'217'
p21
sS'_position'
p22
S'PF'
p23
sS'_freeThrowsPercentage'
p24
S'.714'
p25
sS'_effectiveFieldGoalPercentage'
p26
S'.521'
p27
sS'_league'
p28
S'NBA'
p29
sS'_steals'
p30
S'8'
p31
sS'_fieldGoalsAttempted'
p32
S'170'
p33
sS'_personalFouls'
p34
S'62'
p35
sS'_freeThrowsAttempted'
p36
S'56'
p37
sS'_totalRebounds'
p38
S'75'
p39
sS'_age'
p40
S'22'
p41
sS'_team'
p42
S'PHO'
p43
sS'_games'
p44
S'39'
p45
sS'_blocks'
p46
S'3'
p47
sS'_twoPoints'
p48
S'78'
p49
sS'_freeThrows'
p50
S'40'
p51
sS'_twoPointsAttempted'
p52
S'152'
p53
sS'_defensiveRebounds'
p54
S'49'
p55
sS'_season'
p56
S'1998-99'
p57
sS'_fieldGoals'
p58
S'85'
p59
sS'_turnOvers'
p60
S'20'
p61
sS'_twoPointsPercentage'
p62
S'.513'
p63
sS'_minutesPlayed'
p64
S'538'
p65
sS'_gamesStarted'
p66
S'9'
p67
sba(isrc.gp1.models.Totals
Totals
p68
(dp69
g8
S'44'
p70
sg10
S'197'
p71
sg12
S'.441'
p72
sg14
S'58'
p73
sg16
S'.401'
p74
sg18
S'79'
p75
sg20
S'675'
p76
sg22
S'SF'
p77
sg24
S'.721'
p78
sg26
S'.509'
p79
sg28
S'NBA'
p80
sg30
S'31'
p81
sg32
S'585'
p82
sg34
S'197'
p83
sg36
S'111'
p84
sg38
S'210'
p85
sg40
S'23'
p86
sg42
S'ORL'
p87
sg44
S'82'
p88
sg46
S'19'
p89
sg48
S'179'
p90
sg50
S'80'
p91
sg52
S'388'
p92
sg54
S'166'
p93
sg56
S'1999-00'
p94
sg58
S'258'
p95
sg60
S'85'
p96
sg62
S'.461'
p97
sg64
S'1479'
p98
sg66
S'1'
p99
sba(isrc.gp1.models.Totals
Totals
p100
(dp101
g8
S'51'
p102
sg10
S'224'
p103
sg12
S'.387'
p104
sg14
S'51'
p105
sg16
S'.433'
p106
sg18
S'97'
p107
sg20
S'628'
p108
sg22
S'SF'
p109
sg24
S'.867'
p110
sg26
S'.471'
p111
sg28
S'NBA'
p112
sg30
S'40'
p113
sg32
S'576'
p114
sg34
S'241'
p115
sg36
S'98'
p116
sg38
S'210'
p117
sg40
S'24'
p118
sg42
S'ORL'
p119
sg44
S'76'
p120
sg46
S'15'
p121
sg48
S'126'
p122
sg50
S'85'
p123
sg52
S'352'
p124
sg54
S'159'
p125
sg56
S'2000-01'
p126
sg58
S'223'
p127
sg60
S'68'
p128
sg62
S'.358'
p129
sg64
S'1579'
p130
sg66
g99
sba(isrc.gp1.models.Totals
Totals
p131
(dp132
g8
S'77'
p133
sg10
S'396'
p134
sg12
S'.426'
p135
sg14
S'99'
p136
sg16
S'.427'
p137
sg18
S'169'
p138
sg20
S'884'
p139
sg22
S'PF'
p140
sg24
S'.836'
p141
sg26
S'.537'
p142
sg28
S'NBA'
p143
sg30
S'61'
p144
sg32
S'767'
p145
sg34
S'230'
p146
sg36
S'73'
p147
sg38
S'338'
p148
sg40
S'25'
p149
sg42
S'ORL'
p150
sg44
S'80'
p151
sg46
S'28'
p152
sg48
S'158'
p153
sg50
S'61'
p154
sg52
S'371'
p155
sg54
S'261'
p156
sg56
S'2001-02'
p157
sg58
S'327'
p158
sg60
S'68'
p159
sg62
S'.426'
p160
sg64
S'2406'
p161
sg66
S'43'
p162
sba(isrc.gp1.models.Totals
Totals
p163
(dp164
g8
S'72'
p165
sg10
S'407'
p166
sg12
S'.419'
p167
sg14
S'121'
p168
sg16
S'.396'
p169
sg18
S'161'
p170
sg20
S'868'
p171
sg22
S'PF'
p172
sg24
S'.830'
p173
sg26
S'.528'
p174
sg28
S'NBA'
p175
sg30
S'62'
p176
sg32
S'744'
p177
sg34
S'255'
p178
sg36
S'100'
p179
sg38
S'306'
p180
sg40
S'26'
p181
sg42
S'ORL'
p182
sg44
S'81'
p183
sg46
S'20'
p184
sg48
S'151'
p185
sg50
S'83'
p186
sg52
S'337'
p187
sg54
S'234'
p188
sg56
S'2002-03'
p189
sg58
S'312'
p190
sg60
S'77'
p191
sg62
S'.448'
p192
sg64
S'2584'
p193
sg66
S'53'
p194
sba(isrc.gp1.models.Totals
Totals
p195
(dp196
g8
S'0'
p197
sg10
g197
sg12
S'.333'
p198
sg14
g99
sg16
g3
sg18
g197
sg20
S'2'
p199
sg22
S'PF'
p200
sg24
g3
sg26
S'.333'
p201
sg28
S'NBA'
p202
sg30
g197
sg32
g47
sg34
g199
sg36
g197
sg38
g197
sg40
S'27'
p203
sg42
S'ORL'
p204
sg44
g199
sg46
g197
sg48
g99
sg50
g197
sg52
g47
sg54
g197
sg56
S'2003-04'
p205
sg58
g99
sg60
g197
sg62
S'.333'
p206
sg64
S'22'
p207
sg66
g197
sba(isrc.gp1.models.Totals
Totals
p208
(dp209
g8
S'21'
p210
sg10
S'147'
p211
sg12
S'.402'
p212
sg14
S'30'
p213
sg16
S'.333'
p214
sg18
S'49'
p215
sg20
S'324'
p216
sg22
S'PF'
p217
sg24
S'.879'
p218
sg26
S'.482'
p219
sg28
S'NBA'
p220
sg30
S'19'
p221
sg32
S'306'
p222
sg34
S'107'
p223
sg36
S'33'
p224
sg38
S'124'
p225
sg40
S'28'
p226
sg42
S'ORL'
p227
sg44
S'71'
p228
sg46
g67
sg48
S'74'
p229
sg50
S'29'
p230
sg52
S'159'
p231
sg54
S'103'
p232
sg56
S'2004-05'
p233
sg58
S'123'
p234
sg60
S'30'
p235
sg62
S'.465'
p236
sg64
S'955'
p237
sg66
g197
sba(isrc.gp1.models.Totals
Totals
p238
(dp239
g8
S'31'
p240
sg10
S'129'
p241
sg12
S'.417'
p242
sg14
S'38'
p243
sg16
S'.388'
p244
sg18
S'50'
p245
sg20
S'282'
p246
sg22
S'PF'
p247
sg24
S'.811'
p248
sg26
S'.521'
p249
sg28
S'NBA'
p250
sg30
S'12'
p251
sg32
S'242'
p252
sg34
S'108'
p253
sg36
S'37'
p254
sg38
S'108'
p255
sg40
S'29'
p256
sg42
S'ORL'
p257
sg44
S'57'
p258
sg46
g67
sg48
S'51'
p259
sg50
S'30'
p260
sg52
S'113'
p261
sg54
S'77'
p262
sg56
S'2005-06'
p263
sg58
S'101'
p264
sg60
S'38'
p265
sg62
S'.451'
p266
sg64
S'938'
p267
sg66
g197
sba(isrc.gp1.models.Totals
Totals
p268
(dp269
g8
S'12'
p270
sg10
S'32'
p271
sg12
S'.314'
p272
sg14
S'14'
p273
sg16
S'.344'
p274
sg18
S'11'
p275
sg20
S'71'
p276
sg22
S'PF'
p277
sg24
S'.889'
p278
sg26
S'.393'
p279
sg28
S'NBA'
p280
sg30
g19
sg32
S'70'
p281
sg34
S'37'
p282
sg36
S'18'
p283
sg38
S'42'
p284
sg40
S'30'
p285
sg42
S'ORL'
p286
sg44
S'33'
p287
sg46
g197
sg48
S'11'
p288
sg50
S'16'
p289
sg52
S'38'
p290
sg54
S'30'
p291
sg56
S'2006-07'
p292
sg58
S'22'
p293
sg60
S'14'
p294
sg62
S'.289'
p295
sg64
S'277'
p296
sg66
g197
sba(isrc.gp1.models.Totals
Totals
p297
(dp298
g8
g67
sg10
S'37'
p299
sg12
S'.338'
p300
sg14
S'13'
p301
sg16
S'.216'
p302
sg18
g31
sg20
S'66'
p303
sg22
S'PF'
p304
sg24
S'.800'
p305
sg26
S'.388'
p306
sg28
S'NBA'
p307
sg30
S'6'
p308
sg32
S'80'
p309
sg34
S'35'
p310
sg36
S'5'
p311
sg38
S'44'
p312
sg40
S'31'
p313
sg42
S'ORL'
p314
sg44
S'31'
p315
sg46
g99
sg48
S'19'
p316
sg50
S'4'
p317
sg52
S'43'
p318
sg54
S'35'
p319
sg56
S'2007-08'
p320
sg58
S'27'
p321
sg60
S'17'
p322
sg62
S'.442'
p323
sg64
S'284'
p324
sg66
g197
sbasS'_college'
p325
S'University of Notre Dame'
p326
sS'_toYear'
p327
S'2008'
p328
sS'_height'
p329
S'6-9'
p330
sS'_active'
p331
I00
sS'_shootingHand'
p332
VRight
p333
sS'_name'
p334
S'Pat Garrity'
p335
sS'_per100Possessions'
p336
(lp337
(isrc.gp1.models.Per100Possession
Per100Possession
p338
(dp339
g8
S'2.6'
p340
sg10
S'1.8'
p341
sg12
S'.500'
p342
sS'_offensiveRating'
p343
S'110'
p344
sg14
S'1.8'
p345
sg16
S'.389'
p346
sg18
S'0.7'
p347
sg20
S'21.5'
p348
sg22
S'PF'
p349
sS'_defensiveRating'
p350
S'107'
p351
sg24
S'.714'
p352
sg28
S'NBA'
p353
sg30
S'0.8'
p354
sg32
S'16.9'
p355
sg34
S'6.1'
p356
sg36
S'5.6'
p357
sg38
S'7.4'
p358
sg40
S'22'
p359
sg42
S'PHO'
p360
sg44
S'39'
p361
sg46
S'0.3'
p362
sg48
S'7.7'
p363
sg50
S'4.0'
p364
sg52
S'15.1'
p365
sg54
S'4.9'
p366
sg56
S'1998-99'
p367
sg58
S'8.4'
p368
sg60
S'2.0'
p369
sg62
S'.513'
p370
sg64
S'538'
p371
sg66
g67
sba(isrc.gp1.models.Per100Possession
Per100Possession
p372
(dp373
g8
S'1.5'
p374
sg10
S'6.6'
p375
sg12
S'.441'
p376
sg343
S'104'
p377
sg14
S'1.9'
p378
sg16
S'.401'
p379
sg18
S'2.6'
p380
sg20
S'22.5'
p381
sg22
S'SF'
p382
sg350
S'105'
p383
sg24
S'.721'
p384
sg28
S'NBA'
p385
sg30
S'1.0'
p386
sg32
S'19.5'
p387
sg34
S'6.6'
p388
sg36
S'3.7'
p389
sg38
S'7.0'
p390
sg40
S'23'
p391
sg42
S'ORL'
p392
sg44
S'82'
p393
sg46
S'0.6'
p394
sg48
S'6.0'
p395
sg50
S'2.7'
p396
sg52
S'12.9'
p397
sg54
S'5.5'
p398
sg56
S'1999-00'
p399
sg58
S'8.6'
p400
sg60
S'2.8'
p401
sg62
S'.461'
p402
sg64
S'1479'
p403
sg66
g99
sba(isrc.gp1.models.Per100Possession
Per100Possession
p404
(dp405
g8
S'1.7'
p406
sg10
S'7.3'
p407
sg12
S'.387'
p408
sg343
S'101'
p409
sg14
S'1.7'
p410
sg16
S'.433'
p411
sg18
S'3.2'
p412
sg20
S'20.5'
p413
sg22
S'SF'
p414
sg350
S'104'
p415
sg24
S'.867'
p416
sg28
S'NBA'
p417
sg30
S'1.3'
p418
sg32
S'18.8'
p419
sg34
S'7.9'
p420
sg36
S'3.2'
p421
sg38
S'6.9'
p422
sg40
S'24'
p423
sg42
S'ORL'
p424
sg44
S'76'
p425
sg46
S'0.5'
p426
sg48
S'4.1'
p427
sg50
S'2.8'
p428
sg52
S'11.5'
p429
sg54
S'5.2'
p430
sg56
S'2000-01'
p431
sg58
S'7.3'
p432
sg60
S'2.2'
p433
sg62
S'.358'
p434
sg64
S'1579'
p435
sg66
g99
sba(isrc.gp1.models.Per100Possession
Per100Possession
p436
(dp437
g8
S'1.6'
p438
sg10
S'8.5'
p439
sg12
S'.426'
p440
sg343
S'111'
p441
sg14
S'2.1'
p442
sg16
S'.427'
p443
sg18
S'3.6'
p444
sg20
S'18.9'
p445
sg22
S'PF'
p446
sg350
S'107'
p447
sg24
S'.836'
p448
sg28
S'NBA'
p449
sg30
S'1.3'
p450
sg32
S'16.4'
p451
sg34
S'4.9'
p452
sg36
S'1.6'
p453
sg38
S'7.2'
p454
sg40
S'25'
p455
sg42
S'ORL'
p456
sg44
S'80'
p457
sg46
S'0.6'
p458
sg48
S'3.4'
p459
sg50
S'1.3'
p460
sg52
S'7.9'
p461
sg54
S'5.6'
p462
sg56
S'2001-02'
p463
sg58
S'7.0'
p464
sg60
S'1.5'
p465
sg62
S'.426'
p466
sg64
S'2406'
p467
sg66
S'43'
p468
sba(isrc.gp1.models.Per100Possession
Per100Possession
p469
(dp470
g8
S'1.4'
p471
sg10
S'8.1'
p472
sg12
S'.419'
p473
sg343
S'111'
p474
sg14
S'2.4'
p475
sg16
S'.396'
p476
sg18
S'3.2'
p477
sg20
S'17.3'
p478
sg22
S'PF'
p479
sg350
S'108'
p480
sg24
S'.830'
p481
sg28
S'NBA'
p482
sg30
S'1.2'
p483
sg32
S'14.8'
p484
sg34
S'5.1'
p485
sg36
S'2.0'
p486
sg38
S'6.1'
p487
sg40
S'26'
p488
sg42
S'ORL'
p489
sg44
S'81'
p490
sg46
S'0.4'
p491
sg48
S'3.0'
p492
sg50
S'1.7'
p493
sg52
S'6.7'
p494
sg54
S'4.7'
p495
sg56
S'2002-03'
p496
sg58
S'6.2'
p497
sg60
S'1.5'
p498
sg62
S'.448'
p499
sg64
S'2584'
p500
sg66
S'53'
p501
sba(isrc.gp1.models.Per100Possession
Per100Possession
p502
(dp503
g8
S'0.0'
p504
sg10
S'0.0'
p505
sg12
S'.333'
p506
sg343
S'87'
p507
sg14
S'2.4'
p508
sg16
g3
sg18
S'0.0'
p509
sg20
S'4.8'
p510
sg22
S'PF'
p511
sg350
S'119'
p512
sg24
g3
sg28
S'NBA'
p513
sg30
S'0.0'
p514
sg32
S'7.2'
p515
sg34
S'4.8'
p516
sg36
S'0.0'
p517
sg38
S'0.0'
p518
sg40
S'27'
p519
sg42
S'ORL'
p520
sg44
g199
sg46
S'0.0'
p521
sg48
S'2.4'
p522
sg50
S'0.0'
p523
sg52
S'7.2'
p524
sg54
S'0.0'
p525
sg56
S'2003-04'
p526
sg58
S'2.4'
p527
sg60
S'0.0'
p528
sg62
S'.333'
p529
sg64
S'22'
p530
sg66
g197
sba(isrc.gp1.models.Per100Possession
Per100Possession
p531
(dp532
g8
S'1.1'
p533
sg10
S'7.8'
p534
sg12
S'.402'
p535
sg343
S'104'
p536
sg14
S'1.6'
p537
sg16
S'.333'
p538
sg18
S'2.6'
p539
sg20
S'17.2'
p540
sg22
S'PF'
p541
sg350
S'110'
p542
sg24
S'.879'
p543
sg28
S'NBA'
p544
sg30
S'1.0'
p545
sg32
S'16.2'
p546
sg34
S'5.7'
p547
sg36
S'1.8'
p548
sg38
S'6.6'
p549
sg40
S'28'
p550
sg42
S'ORL'
p551
sg44
S'71'
p552
sg46
S'0.5'
p553
sg48
S'3.9'
p554
sg50
S'1.5'
p555
sg52
S'8.4'
p556
sg54
S'5.5'
p557
sg56
S'2004-05'
p558
sg58
S'6.5'
p559
sg60
S'1.6'
p560
sg62
S'.465'
p561
sg64
S'955'
p562
sg66
g197
sba(isrc.gp1.models.Per100Possession
Per100Possession
p563
(dp564
g8
S'1.8'
p565
sg10
S'7.5'
p566
sg12
S'.417'
p567
sg343
S'107'
p568
sg14
S'2.2'
p569
sg16
S'.388'
p570
sg18
S'2.9'
p571
sg20
S'16.3'
p572
sg22
S'PF'
p573
sg350
S'111'
p574
sg24
S'.811'
p575
sg28
S'NBA'
p576
sg30
S'0.7'
p577
sg32
S'14.0'
p578
sg34
S'6.3'
p579
sg36
S'2.1'
p580
sg38
S'6.3'
p581
sg40
S'29'
p582
sg42
S'ORL'
p583
sg44
S'57'
p584
sg46
S'0.5'
p585
sg48
S'3.0'
p586
sg50
S'1.7'
p587
sg52
S'6.5'
p588
sg54
S'4.5'
p589
sg56
S'2005-06'
p590
sg58
S'5.9'
p591
sg60
S'2.2'
p592
sg62
S'.451'
p593
sg64
S'938'
p594
sg66
g197
sba(isrc.gp1.models.Per100Possession
Per100Possession
p595
(dp596
g8
S'2.3'
p597
sg10
S'6.2'
p598
sg12
S'.314'
p599
sg343
S'95'
p600
sg14
S'2.7'
p601
sg16
S'.344'
p602
sg18
S'2.1'
p603
sg20
S'13.7'
p604
sg22
S'PF'
p605
sg350
S'106'
p606
sg24
S'.889'
p607
sg28
S'NBA'
p608
sg30
S'1.3'
p609
sg32
S'13.5'
p610
sg34
S'7.1'
p611
sg36
S'3.5'
p612
sg38
S'8.1'
p613
sg40
S'30'
p614
sg42
S'ORL'
p615
sg44
S'33'
p616
sg46
S'0.0'
p617
sg48
S'2.1'
p618
sg50
S'3.1'
p619
sg52
S'7.3'
p620
sg54
S'5.8'
p621
sg56
S'2006-07'
p622
sg58
S'4.2'
p623
sg60
S'2.7'
p624
sg62
S'.289'
p625
sg64
S'277'
p626
sg66
g197
sba(isrc.gp1.models.Per100Possession
Per100Possession
p627
(dp628
g8
S'1.6'
p629
sg10
S'6.7'
p630
sg12
S'.338'
p631
sg343
S'79'
p632
sg14
S'2.4'
p633
sg16
S'.216'
p634
sg18
S'1.4'
p635
sg20
S'11.9'
p636
sg22
S'PF'
p637
sg350
S'107'
p638
sg24
S'.800'
p639
sg28
S'NBA'
p640
sg30
S'1.1'
p641
sg32
S'14.5'
p642
sg34
S'6.3'
p643
sg36
S'0.9'
p644
sg38
S'8.0'
p645
sg40
S'31'
p646
sg42
S'ORL'
p647
sg44
S'31'
p648
sg46
S'0.2'
p649
sg48
S'3.4'
p650
sg50
S'0.7'
p651
sg52
S'7.8'
p652
sg54
S'6.3'
p653
sg56
S'2007-08'
p654
sg58
S'4.9'
p655
sg60
S'3.1'
p656
sg62
S'.442'
p657
sg64
S'284'
p658
sg66
g197
sbasS'_advanced'
p659
(lp660
(isrc.gp1.models.Advanced
Advanced
p661
(dp662
S'_offensiveReboundPercentage'
p663
S'5.5'
p664
sS'_turnOverPercentage'
p665
S'9.3'
p666
sS'_winSharesPer48Minutes'
p667
S'.101'
p668
sS'_stealPercentage'
p669
S'0.8'
p670
sS'_usagePercentage'
p671
S'18.4'
p672
sS'_totalReboundsPercentage'
p673
S'8.1'
p674
sS'_defensiveBoxPlusMinus'
p675
S'-3.0'
p676
sg22
S'PF'
p677
sS'_valueOverReplacementPlayer'
p678
S'-0.3'
p679
sS'_trueShootingPercentage'
p680
S'.557'
p681
sS'_defensiveReboundPercentage'
p682
S'10.8'
p683
sS'_freeThrowsAttempRate'
p684
S'.329'
p685
sS'_threePointsAttempRate'
p686
S'.106'
p687
sg28
S'NBA'
p688
sS'_offensiveBoxPlusMinues'
p689
S'-1.1'
p690
sS'_assistPercentage'
p691
S'5.7'
p692
sS'_defensiveWinShares'
p693
S'0.2'
p694
sg40
S'22'
p695
sg42
S'PHO'
p696
sg44
S'39'
p697
sS'_blockPercentage'
p698
S'0.4'
p699
sS'_playerEfficiencyRating'
p700
S'13.0'
p701
sS'_offensiveWinShares'
p702
S'0.9'
p703
sg64
S'538'
p704
sS'_boxPlusMinus'
p705
S'-4.1'
p706
sg56
S'1998-99'
p707
sS'_winShares'
p708
S'1.1'
p709
sba(isrc.gp1.models.Advanced
Advanced
p710
(dp711
g663
S'3.2'
p712
sg665
S'11.8'
p713
sg667
S'.091'
p714
sg669
S'1.0'
p715
sg671
S'20.4'
p716
sg673
S'7.7'
p717
sg675
S'-1.6'
p718
sg22
S'SF'
p719
sg678
S'0.0'
p720
sg680
S'.532'
p721
sg682
S'12.2'
p722
sg684
S'.190'
p723
sg686
S'.337'
p724
sg28
S'NBA'
p725
sg689
S'-0.5'
p726
sg691
S'6.2'
p727
sg693
S'1.4'
p728
sg40
S'23'
p729
sg42
S'ORL'
p730
sg44
S'82'
p731
sg698
S'0.9'
p732
sg700
S'11.9'
p733
sg702
S'1.4'
p734
sg64
S'1479'
p735
sg705
S'-2.1'
p736
sg56
S'1999-00'
p737
sg708
S'2.8'
p738
sba(isrc.gp1.models.Advanced
Advanced
p739
(dp740
g663
S'3.5'
p741
sg665
S'9.9'
p742
sg667
S'.076'
p743
sg669
S'1.3'
p744
sg671
S'19.2'
p745
sg673
S'7.4'
p746
sg675
S'-2.2'
p747
sg22
S'SF'
p748
sg678
S'-0.5'
p749
sg680
S'.507'
p750
sg682
S'11.4'
p751
sg684
S'.170'
p752
sg686
S'.389'
p753
sg28
S'NBA'
p754
sg689
S'-1.1'
p755
sg691
S'5.3'
p756
sg693
S'1.3'
p757
sg40
S'24'
p758
sg42
S'ORL'
p759
sg44
S'76'
p760
sg698
S'0.7'
p761
sg700
S'10.1'
p762
sg702
S'1.2'
p763
sg64
S'1579'
p764
sg705
S'-3.3'
p765
sg56
S'2000-01'
p766
sg708
S'2.5'
p767
sba(isrc.gp1.models.Advanced
Advanced
p768
(dp769
g663
S'3.6'
p770
sg665
S'7.8'
p771
sg667
S'.101'
p772
sg669
S'1.3'
p773
sg671
S'16.1'
p774
sg673
S'7.8'
p775
sg675
S'-1.1'
p776
sg22
S'PF'
p777
sg678
S'1.3'
p778
sg680
S'.553'
p779
sg682
S'12.2'
p780
sg684
S'.095'
p781
sg686
S'.516'
p782
sg28
S'NBA'
p783
sg689
S'1.2'
p784
sg691
S'6.4'
p785
sg693
S'1.7'
p786
sg40
S'25'
p787
sg42
S'ORL'
p788
sg44
S'80'
p789
sg698
S'0.8'
p790
sg700
S'12.3'
p791
sg702
S'3.4'
p792
sg64
S'2406'
p793
sg705
S'0.1'
p794
sg56
S'2001-02'
p795
sg708
S'5.1'
p796
sba(isrc.gp1.models.Advanced
Advanced
p797
(dp798
g663
S'3.1'
p799
sg665
S'8.9'
p800
sg667
S'.091'
p801
sg669
S'1.2'
p802
sg671
S'15.0'
p803
sg673
S'6.8'
p804
sg675
S'-1.1'
p805
sg22
S'PF'
p806
sg678
S'1.2'
p807
sg680
S'.551'
p808
sg682
S'10.7'
p809
sg684
S'.134'
p810
sg686
S'.547'
p811
sg28
S'NBA'
p812
sg689
S'1.0'
p813
sg691
S'7.5'
p814
sg693
S'1.3'
p815
sg40
S'26'
p816
sg42
S'ORL'
p817
sg44
S'81'
p818
sg698
S'0.6'
p819
sg700
S'11.2'
p820
sg702
S'3.6'
p821
sg64
S'2584'
p822
sg705
S'-0.1'
p823
sg56
S'2002-03'
p824
sg708
S'4.9'
p825
sba(isrc.gp1.models.Advanced
Advanced
p826
(dp827
g663
S'0.0'
p828
sg665
S'0.0'
p829
sg667
S'-0.060'
p830
sg669
S'0.0'
p831
sg671
S'6.2'
p832
sg673
S'0.0'
p833
sg675
S'-5.2'
p834
sg22
S'PF'
p835
sg678
S'-0.1'
p836
sg680
S'.333'
p837
sg682
S'0.0'
p838
sg684
S'.000'
p839
sg686
S'.000'
p840
sg28
S'NBA'
p841
sg689
S'-6.4'
p842
sg691
S'6.6'
p843
sg693
S'0.0'
p844
sg40
S'27'
p845
sg42
S'ORL'
p846
sg44
g199
sg698
S'0.0'
p847
sg700
S'0.5'
p848
sg702
S'0.0'
p849
sg64
S'22'
p850
sg705
S'-11.6'
p851
sg56
S'2003-04'
p852
sg708
S'0.0'
p853
sba(isrc.gp1.models.Advanced
Advanced
p854
(dp855
g663
S'2.5'
p856
sg665
S'8.6'
p857
sg667
S'.054'
p858
sg669
S'1.0'
p859
sg671
S'16.0'
p860
sg673
S'7.3'
p861
sg675
S'-2.4'
p862
sg22
S'PF'
p863
sg678
S'-0.5'
p864
sg680
S'.505'
p865
sg682
S'11.9'
p866
sg684
S'.108'
p867
sg686
S'.480'
p868
sg28
S'NBA'
p869
sg689
S'-1.5'
p870
sg691
S'4.9'
p871
sg693
S'0.5'
p872
sg40
S'28'
p873
sg42
S'ORL'
p874
sg44
S'71'
p875
sg698
S'0.7'
p876
sg700
S'9.1'
p877
sg702
S'0.5'
p878
sg64
S'955'
p879
sg705
S'-4.0'
p880
sg56
S'2004-05'
p881
sg708
S'1.1'
p882
sba(isrc.gp1.models.Advanced
Advanced
p883
(dp884
g663
S'4.2'
p885
sg665
S'12.8'
p886
sg667
S'.062'
p887
sg669
S'0.7'
p888
sg671
S'15.0'
p889
sg673
S'7.1'
p890
sg675
S'-1.9'
p891
sg22
S'PF'
p892
sg678
S'0.0'
p893
sg680
S'.546'
p894
sg682
S'9.9'
p895
sg684
S'.153'
p896
sg686
S'.533'
p897
sg28
S'NBA'
p898
sg689
S'-0.3'
p899
sg691
S'6.5'
p900
sg693
S'0.4'
p901
sg40
S'29'
p902
sg42
S'ORL'
p903
sg44
S'57'
p904
sg698
S'0.8'
p905
sg700
S'9.1'
p906
sg702
S'0.8'
p907
sg64
S'938'
p908
sg705
S'-2.2'
p909
sg56
S'2005-06'
p910
sg708
S'1.2'
p911
sba(isrc.gp1.models.Advanced
Advanced
p912
(dp913
g663
S'5.5'
p914
sg665
S'15.2'
p915
sg667
S'.038'
p916
sg669
S'1.3'
p917
sg671
S'15.4'
p918
sg673
S'9.3'
p919
sg675
S'-1.2'
p920
sg22
S'PF'
p921
sg678
S'-0.1'
p922
sg680
S'.456'
p923
sg682
S'13.1'
p924
sg684
S'.257'
p925
sg686
S'.457'
p926
sg28
S'NBA'
p927
sg689
S'-2.7'
p928
sg691
S'7.8'
p929
sg693
S'0.3'
p930
sg40
S'30'
p931
sg42
S'ORL'
p932
sg44
S'33'
p933
sg698
S'0.0'
p934
sg700
S'6.4'
p935
sg702
S'-0.1'
p936
sg64
S'277'
p937
sg705
S'-3.9'
p938
sg56
S'2006-07'
p939
sg708
S'0.2'
p940
sba(isrc.gp1.models.Advanced
Advanced
p941
(dp942
g663
S'3.8'
p943
sg665
S'17.1'
p944
sg667
S'-0.038'
p945
sg669
S'1.1'
p946
sg671
S'16.0'
p947
sg673
S'8.9'
p948
sg675
S'-0.6'
p949
sg22
S'PF'
p950
sg678
S'-0.3'
p951
sg680
S'.401'
p952
sg682
S'13.6'
p953
sg684
S'.063'
p954
sg686
S'.463'
p955
sg28
S'NBA'
p956
sg689
S'-5.4'
p957
sg691
S'6.8'
p958
sg693
S'0.3'
p959
sg40
S'31'
p960
sg42
S'ORL'
p961
sg44
S'31'
p962
sg698
S'0.3'
p963
sg700
S'3.2'
p964
sg702
S'-0.5'
p965
sg64
S'284'
p966
sg705
S'-6.0'
p967
sg56
S'2007-08'
p968
sg708
S'-0.2'
p969
sbasS'_per36Minutes'
p970
(lp971
(isrc.gp1.models.Per36Minutes
Per36Minutes
p972
(dp973
g8
S'1.7'
p974
sg10
S'1.2'
p975
sg12
S'.500'
p976
sg14
S'1.2'
p977
sg16
S'.389'
p978
sg18
S'0.5'
p979
sg20
S'14.5'
p980
sg22
S'PF'
p981
sg24
S'.714'
p982
sg28
S'NBA'
p983
sg30
S'0.5'
p984
sg32
S'11.4'
p985
sg34
S'4.1'
p986
sg36
S'3.7'
p987
sg38
S'5.0'
p988
sg40
S'22'
p989
sg42
S'PHO'
p990
sg44
S'39'
p991
sg46
S'0.2'
p992
sg48
S'5.2'
p993
sg50
S'2.7'
p994
sg52
S'10.2'
p995
sg54
S'3.3'
p996
sg56
S'1998-99'
p997
sg58
S'5.7'
p998
sg60
S'1.3'
p999
sg62
S'.513'
p1000
sg64
S'538'
p1001
sg66
g67
sba(isrc.gp1.models.Per36Minutes
Per36Minutes
p1002
(dp1003
g8
S'1.1'
p1004
sg10
S'4.8'
p1005
sg12
S'.441'
p1006
sg14
S'1.4'
p1007
sg16
S'.401'
p1008
sg18
S'1.9'
p1009
sg20
S'16.4'
p1010
sg22
S'SF'
p1011
sg24
S'.721'
p1012
sg28
S'NBA'
p1013
sg30
S'0.8'
p1014
sg32
S'14.2'
p1015
sg34
S'4.8'
p1016
sg36
S'2.7'
p1017
sg38
S'5.1'
p1018
sg40
S'23'
p1019
sg42
S'ORL'
p1020
sg44
S'82'
p1021
sg46
S'0.5'
p1022
sg48
S'4.4'
p1023
sg50
S'1.9'
p1024
sg52
S'9.4'
p1025
sg54
S'4.0'
p1026
sg56
S'1999-00'
p1027
sg58
S'6.3'
p1028
sg60
S'2.1'
p1029
sg62
S'.461'
p1030
sg64
S'1479'
p1031
sg66
g99
sba(isrc.gp1.models.Per36Minutes
Per36Minutes
p1032
(dp1033
g8
S'1.2'
p1034
sg10
S'5.1'
p1035
sg12
S'.387'
p1036
sg14
S'1.2'
p1037
sg16
S'.433'
p1038
sg18
S'2.2'
p1039
sg20
S'14.3'
p1040
sg22
S'SF'
p1041
sg24
S'.867'
p1042
sg28
S'NBA'
p1043
sg30
S'0.9'
p1044
sg32
S'13.1'
p1045
sg34
S'5.5'
p1046
sg36
S'2.2'
p1047
sg38
S'4.8'
p1048
sg40
S'24'
p1049
sg42
S'ORL'
p1050
sg44
S'76'
p1051
sg46
S'0.3'
p1052
sg48
S'2.9'
p1053
sg50
S'1.9'
p1054
sg52
S'8.0'
p1055
sg54
S'3.6'
p1056
sg56
S'2000-01'
p1057
sg58
S'5.1'
p1058
sg60
S'1.6'
p1059
sg62
S'.358'
p1060
sg64
S'1579'
p1061
sg66
g99
sba(isrc.gp1.models.Per36Minutes
Per36Minutes
p1062
(dp1063
g8
S'1.2'
p1064
sg10
S'5.9'
p1065
sg12
S'.426'
p1066
sg14
S'1.5'
p1067
sg16
S'.427'
p1068
sg18
S'2.5'
p1069
sg20
S'13.2'
p1070
sg22
S'PF'
p1071
sg24
S'.836'
p1072
sg28
S'NBA'
p1073
sg30
S'0.9'
p1074
sg32
S'11.5'
p1075
sg34
S'3.4'
p1076
sg36
S'1.1'
p1077
sg38
S'5.1'
p1078
sg40
S'25'
p1079
sg42
S'ORL'
p1080
sg44
S'80'
p1081
sg46
S'0.4'
p1082
sg48
S'2.4'
p1083
sg50
S'0.9'
p1084
sg52
S'5.6'
p1085
sg54
S'3.9'
p1086
sg56
S'2001-02'
p1087
sg58
S'4.9'
p1088
sg60
S'1.0'
p1089
sg62
S'.426'
p1090
sg64
S'2406'
p1091
sg66
S'43'
p1092
sba(isrc.gp1.models.Per36Minutes
Per36Minutes
p1093
(dp1094
g8
S'1.0'
p1095
sg10
S'5.7'
p1096
sg12
S'.419'
p1097
sg14
S'1.7'
p1098
sg16
S'.396'
p1099
sg18
S'2.2'
p1100
sg20
S'12.1'
p1101
sg22
S'PF'
p1102
sg24
S'.830'
p1103
sg28
S'NBA'
p1104
sg30
S'0.9'
p1105
sg32
S'10.4'
p1106
sg34
S'3.6'
p1107
sg36
S'1.4'
p1108
sg38
S'4.3'
p1109
sg40
S'26'
p1110
sg42
S'ORL'
p1111
sg44
S'81'
p1112
sg46
S'0.3'
p1113
sg48
S'2.1'
p1114
sg50
S'1.2'
p1115
sg52
S'4.7'
p1116
sg54
S'3.3'
p1117
sg56
S'2002-03'
p1118
sg58
S'4.3'
p1119
sg60
S'1.1'
p1120
sg62
S'.448'
p1121
sg64
S'2584'
p1122
sg66
S'53'
p1123
sba(isrc.gp1.models.Per36Minutes
Per36Minutes
p1124
(dp1125
g8
S'0.0'
p1126
sg10
S'0.0'
p1127
sg12
S'.333'
p1128
sg14
S'1.6'
p1129
sg16
g3
sg18
S'0.0'
p1130
sg20
S'3.3'
p1131
sg22
S'PF'
p1132
sg24
g3
sg28
S'NBA'
p1133
sg30
S'0.0'
p1134
sg32
S'4.9'
p1135
sg34
S'3.3'
p1136
sg36
S'0.0'
p1137
sg38
S'0.0'
p1138
sg40
S'27'
p1139
sg42
S'ORL'
p1140
sg44
g199
sg46
S'0.0'
p1141
sg48
S'1.6'
p1142
sg50
S'0.0'
p1143
sg52
S'4.9'
p1144
sg54
S'0.0'
p1145
sg56
S'2003-04'
p1146
sg58
S'1.6'
p1147
sg60
S'0.0'
p1148
sg62
S'.333'
p1149
sg64
S'22'
p1150
sg66
g197
sba(isrc.gp1.models.Per36Minutes
Per36Minutes
p1151
(dp1152
g8
S'0.8'
p1153
sg10
S'5.5'
p1154
sg12
S'.402'
p1155
sg14
S'1.1'
p1156
sg16
S'.333'
p1157
sg18
S'1.8'
p1158
sg20
S'12.2'
p1159
sg22
S'PF'
p1160
sg24
S'.879'
p1161
sg28
S'NBA'
p1162
sg30
S'0.7'
p1163
sg32
S'11.5'
p1164
sg34
S'4.0'
p1165
sg36
S'1.2'
p1166
sg38
S'4.7'
p1167
sg40
S'28'
p1168
sg42
S'ORL'
p1169
sg44
S'71'
p1170
sg46
S'0.3'
p1171
sg48
S'2.8'
p1172
sg50
S'1.1'
p1173
sg52
S'6.0'
p1174
sg54
S'3.9'
p1175
sg56
S'2004-05'
p1176
sg58
S'4.6'
p1177
sg60
S'1.1'
p1178
sg62
S'.465'
p1179
sg64
S'955'
p1180
sg66
g197
sba(isrc.gp1.models.Per36Minutes
Per36Minutes
p1181
(dp1182
g8
S'1.2'
p1183
sg10
S'5.0'
p1184
sg12
S'.417'
p1185
sg14
S'1.5'
p1186
sg16
S'.388'
p1187
sg18
S'1.9'
p1188
sg20
S'10.8'
p1189
sg22
S'PF'
p1190
sg24
S'.811'
p1191
sg28
S'NBA'
p1192
sg30
S'0.5'
p1193
sg32
S'9.3'
p1194
sg34
S'4.1'
p1195
sg36
S'1.4'
p1196
sg38
S'4.1'
p1197
sg40
S'29'
p1198
sg42
S'ORL'
p1199
sg44
S'57'
p1200
sg46
S'0.3'
p1201
sg48
S'2.0'
p1202
sg50
S'1.2'
p1203
sg52
S'4.3'
p1204
sg54
S'3.0'
p1205
sg56
S'2005-06'
p1206
sg58
S'3.9'
p1207
sg60
S'1.5'
p1208
sg62
S'.451'
p1209
sg64
S'938'
p1210
sg66
g197
sba(isrc.gp1.models.Per36Minutes
Per36Minutes
p1211
(dp1212
g8
S'1.6'
p1213
sg10
S'4.2'
p1214
sg12
S'.314'
p1215
sg14
S'1.8'
p1216
sg16
S'.344'
p1217
sg18
S'1.4'
p1218
sg20
S'9.2'
p1219
sg22
S'PF'
p1220
sg24
S'.889'
p1221
sg28
S'NBA'
p1222
sg30
S'0.9'
p1223
sg32
S'9.1'
p1224
sg34
S'4.8'
p1225
sg36
S'2.3'
p1226
sg38
S'5.5'
p1227
sg40
S'30'
p1228
sg42
S'ORL'
p1229
sg44
S'33'
p1230
sg46
S'0.0'
p1231
sg48
S'1.4'
p1232
sg50
S'2.1'
p1233
sg52
S'4.9'
p1234
sg54
S'3.9'
p1235
sg56
S'2006-07'
p1236
sg58
S'2.9'
p1237
sg60
S'1.8'
p1238
sg62
S'.289'
p1239
sg64
S'277'
p1240
sg66
g197
sba(isrc.gp1.models.Per36Minutes
Per36Minutes
p1241
(dp1242
g8
S'1.1'
p1243
sg10
S'4.7'
p1244
sg12
S'.338'
p1245
sg14
S'1.6'
p1246
sg16
S'.216'
p1247
sg18
S'1.0'
p1248
sg20
S'8.4'
p1249
sg22
S'PF'
p1250
sg24
S'.800'
p1251
sg28
S'NBA'
p1252
sg30
S'0.8'
p1253
sg32
S'10.1'
p1254
sg34
S'4.4'
p1255
sg36
S'0.6'
p1256
sg38
S'5.6'
p1257
sg40
S'31'
p1258
sg42
S'ORL'
p1259
sg44
S'31'
p1260
sg46
S'0.1'
p1261
sg48
S'2.4'
p1262
sg50
S'0.5'
p1263
sg52
S'5.5'
p1264
sg54
S'4.4'
p1265
sg56
S'2007-08'
p1266
sg58
S'3.4'
p1267
sg60
S'2.2'
p1268
sg62
S'.442'
p1269
sg64
S'284'
p1270
sg66
g197
sbasS'_fromYear'
p1271
S'1999'
p1272
sS'_url'
p1273
S'http://www.basketball-reference.com/players/g/garripa01.html'
p1274
sS'_perGame'
p1275
(isrc.gp1.models.PerGame
PerGame
p1276
(dp1277
g8
S'0.3'
p1278
sg10
S'1.2'
p1279
sg12
S'.338'
p1280
sS'_effectiveFieldGalPercentage'
p1281
S'.388'
p1282
sg14
S'0.4'
p1283
sg16
S'.216'
p1284
sg18
S'0.3'
p1285
sg20
S'2.1'
p1286
sg22
S'PF'
p1287
sg24
S'.800'
p1288
sg28
S'NBA'
p1289
sg30
S'0.2'
p1290
sg34
S'1.1'
p1291
sS'_fieldGoalsttempted'
p1292
S'2.6'
p1293
sg36
S'0.2'
p1294
sg38
S'1.4'
p1295
sg40
S'31'
p1296
sg42
S'ORL'
p1297
sg44
S'31'
p1298
sg46
S'0.0'
p1299
sg48
S'0.6'
p1300
sg50
S'0.1'
p1301
sg52
S'1.4'
p1302
sg54
S'1.1'
p1303
sg56
S'2007-08'
p1304
sg58
S'0.9'
p1305
sg60
S'0.5'
p1306
sg62
S'.442'
p1307
sg64
S'9.2'
p1308
sg66
g197
sbsS'_weight'
p1309
S'238'
p1310
sS'_dob'
p1311
S'23-8-1976'
p1312
sS'_salary'
p1313
(lp1314
(isrc.gp1.models.Salary
Salary
p1315
(dp1316
g42
S'Phoenix Suns'
p1317
sg28
S'NBA'
p1318
sg1313
S'$740,000'
p1319
sg56
S'1998-99'
p1320
sba(isrc.gp1.models.Salary
Salary
p1321
(dp1322
g42
S'Orlando Magic'
p1323
sg28
S'NBA'
p1324
sg1313
S'$952,800'
p1325
sg56
S'1999-00'
p1326
sba(isrc.gp1.models.Salary
Salary
p1327
(dp1328
g42
S'Orlando Magic'
p1329
sg28
S'NBA'
p1330
sg1313
S'$1,019,280'
p1331
sg56
S'2000-01'
p1332
sba(isrc.gp1.models.Salary
Salary
p1333
(dp1334
g42
S'Orlando Magic'
p1335
sg28
S'NBA'
p1336
sg1313
S'$1,569,691'
p1337
sg56
S'2001-02'
p1338
sba(isrc.gp1.models.Salary
Salary
p1339
(dp1340
g42
S'Orlando Magic'
p1341
sg28
S'NBA'
p1342
sg1313
S'$2,350,000'
p1343
sg56
S'2002-03'
p1344
sba(isrc.gp1.models.Salary
Salary
p1345
(dp1346
g42
S'Orlando Magic'
p1347
sg28
S'NBA'
p1348
sg1313
S'$2,643,750'
p1349
sg56
S'2003-04'
p1350
sba(isrc.gp1.models.Salary
Salary
p1351
(dp1352
g42
S'Orlando Magic'
p1353
sg28
S'NBA'
p1354
sg1313
S'$2,937,500'
p1355
sg56
S'2004-05'
p1356
sba(isrc.gp1.models.Salary
Salary
p1357
(dp1358
g42
S'Orlando Magic'
p1359
sg28
S'NBA'
p1360
sg1313
S'$3,231,250'
p1361
sg56
S'2005-06'
p1362
sba(isrc.gp1.models.Salary
Salary
p1363
(dp1364
g42
S'Orlando Magic'
p1365
sg28
S'NBA'
p1366
sg1313
S'$3,525,000'
p1367
sg56
S'2006-07'
p1368
sba(isrc.gp1.models.Salary
Salary
p1369
(dp1370
g42
S'Orlando Magic'
p1371
sg28
S'NBA'
p1372
sg1313
S'$3,818,750'
p1373
sg56
S'2007-08'
p1374
sbasg22
S'F'
p1375
sb.