(isrc.gp1.models.Player
Player
p0
(dp1
S'_experience'
p2
S'NA'
p3
sS'_totals'
p4
(lp5
(isrc.gp1.models.Totals
Totals
p6
(dp7
S'_offensiveRebounds'
p8
g3
sS'_threePointsAttempted'
p9
g3
sS'_fieldGoalsPercentage'
p10
S'.434'
p11
sS'_assist'
p12
S'180'
p13
sS'_threePointsPercentage'
p14
g3
sS'_threePoints'
p15
g3
sS'_points'
p16
S'846'
p17
sS'_position'
p18
S'SG'
p19
sS'_freeThrowsPercentage'
p20
S'.852'
p21
sS'_effectiveFieldGoalPercentage'
p22
S'.434'
p23
sS'_league'
p24
S'NBA'
p25
sS'_steals'
p26
g3
sS'_fieldGoalsAttempted'
p27
S'816'
p28
sS'_personalFouls'
p29
S'236'
p30
sS'_freeThrowsAttempted'
p31
S'162'
p32
sS'_totalRebounds'
p33
S'235'
p34
sS'_age'
p35
S'23'
p36
sS'_team'
p37
S'LAL'
p38
sS'_games'
p39
S'73'
p40
sS'_blocks'
p41
g3
sS'_twoPoints'
p42
S'354'
p43
sS'_freeThrows'
p44
S'138'
p45
sS'_twoPointsAttempted'
p46
S'816'
p47
sS'_defensiveRebounds'
p48
g3
sS'_season'
p49
S'1969-70'
p50
sS'_fieldGoals'
p51
S'354'
p52
sS'_turnOvers'
p53
g3
sS'_twoPointsPercentage'
p54
S'.434'
p55
sS'_minutesPlayed'
p56
S'2318'
p57
sS'_gamesStarted'
p58
g3
sba(isrc.gp1.models.Totals
Totals
p59
(dp60
g8
g3
sg9
g3
sg10
S'.414'
p61
sg12
S'264'
p62
sg14
g3
sg15
g3
sg16
S'964'
p63
sg18
S'PG'
p64
sg20
S'.869'
p65
sg22
S'.414'
p66
sg24
S'NBA'
p67
sg26
g3
sg27
S'902'
p68
sg29
S'290'
p69
sg31
S'251'
p70
sg33
S'295'
p71
sg35
S'24'
p72
sg37
S'BUF'
p73
sg39
S'75'
p74
sg41
g3
sg42
S'373'
p75
sg44
S'218'
p76
sg46
S'902'
p77
sg48
g3
sg49
S'1970-71'
p78
sg51
S'373'
p79
sg53
g3
sg54
S'.414'
p80
sg56
S'2375'
p81
sg58
g3
sba(isrc.gp1.models.Totals
Totals
p82
(dp83
g8
g3
sg9
g3
sg10
S'.442'
p84
sg12
S'165'
p85
sg14
g3
sg15
g3
sg16
S'786'
p86
sg18
S'SG'
p87
sg20
S'.866'
p88
sg22
S'.442'
p89
sg24
S'NBA'
p90
sg26
g3
sg27
S'735'
p91
sg29
S'225'
p92
sg31
S'157'
p93
sg33
S'225'
p94
sg35
S'25'
p95
sg37
S'BUF'
p96
sg39
S'73'
p97
sg41
g3
sg42
S'325'
p98
sg44
S'136'
p99
sg46
S'735'
p100
sg48
g3
sg49
S'1971-72'
p101
sg51
S'325'
p102
sg53
g3
sg54
S'.442'
p103
sg56
S'1905'
p104
sg58
g3
sba(isrc.gp1.models.Totals
Totals
p105
(dp106
g8
g3
sg9
g3
sg10
S'.419'
p107
sg12
S'217'
p108
sg14
g3
sg15
g3
sg16
S'778'
p109
sg18
S'SG'
p110
sg20
S'.873'
p111
sg22
S'.419'
p112
sg24
S'NBA'
p113
sg26
g3
sg27
S'813'
p114
sg29
S'217'
p115
sg31
S'110'
p116
sg33
S'209'
p117
sg35
S'26'
p118
sg37
S'BUF'
p119
sg39
S'78'
p120
sg41
g3
sg42
S'341'
p121
sg44
S'96'
p122
sg46
S'813'
p123
sg48
g3
sg49
S'1972-73'
p124
sg51
S'341'
p125
sg53
g3
sg54
S'.419'
p126
sg56
S'1805'
p127
sg58
g3
sba(isrc.gp1.models.Totals
Totals
p128
(dp129
g8
S'15'
p130
sg9
g3
sg10
S'.341'
p131
sg12
S'23'
p132
sg14
g3
sg15
g3
sg16
S'101'
p133
sg18
S'SG'
p134
sg20
S'.789'
p135
sg22
S'.341'
p136
sg24
S'NBA'
p137
sg26
S'10'
p138
sg27
S'126'
p139
sg29
S'56'
p140
sg31
S'19'
p141
sg33
S'40'
p142
sg35
S'27'
p143
sg37
S'TOT'
p144
sg39
S'40'
p145
sg41
S'1'
p146
sg42
S'43'
p147
sg44
S'15'
p148
sg46
S'126'
p149
sg48
S'25'
p150
sg49
S'1973-74'
p151
sg51
S'43'
p152
sg53
g3
sg54
S'.341'
p153
sg56
S'326'
p154
sg58
g3
sba(isrc.gp1.models.Totals
Totals
p155
(dp156
g8
S'10'
p157
sg9
g3
sg10
S'.352'
p158
sg12
S'14'
p159
sg14
g3
sg15
g3
sg16
S'74'
p160
sg18
S'SG'
p161
sg20
S'.769'
p162
sg22
S'.352'
p163
sg24
S'NBA'
p164
sg26
S'7'
p165
sg27
S'91'
p166
sg29
S'41'
p167
sg31
S'13'
p168
sg33
S'26'
p169
sg35
S'27'
p170
sg37
S'NYK'
p171
sg39
S'25'
p172
sg41
g146
sg42
S'32'
p173
sg44
S'10'
p174
sg46
S'91'
p175
sg48
S'16'
p176
sg49
S'1973-74'
p177
sg51
S'32'
p178
sg53
g3
sg54
S'.352'
p179
sg56
S'239'
p180
sg58
g3
sba(isrc.gp1.models.Totals
Totals
p181
(dp182
g8
S'5'
p183
sg9
g3
sg10
S'.314'
p184
sg12
S'9'
p185
sg14
g3
sg15
g3
sg16
S'27'
p186
sg18
S'SG'
p187
sg20
S'.833'
p188
sg22
S'.314'
p189
sg24
S'NBA'
p190
sg26
S'3'
p191
sg27
S'35'
p192
sg29
S'15'
p193
sg31
S'6'
p194
sg33
S'14'
p195
sg35
S'27'
p196
sg37
S'MIL'
p197
sg39
S'15'
p198
sg41
S'0'
p199
sg42
S'11'
p200
sg44
g183
sg46
S'35'
p201
sg48
g185
sg49
S'1973-74'
p202
sg51
S'11'
p203
sg53
g3
sg54
S'.314'
p204
sg56
S'87'
p205
sg58
g3
sbasS'_college'
p206
S'Southern Illinois University'
p207
sS'_toYear'
p208
S'1974'
p209
sS'_height'
p210
S'6-3'
p211
sS'_active'
p212
I00
sS'_shootingHand'
p213
VRight
p214
sS'_name'
p215
S'Dick Garrett'
p216
sS'_per100Possessions'
p217
(lp218
(isrc.gp1.models.Per100Possession
Per100Possession
p219
(dp220
g8
S'2.1'
p221
sg9
g3
sg10
S'.341'
p222
sS'_offensiveRating'
p223
g3
sg12
S'3.3'
p224
sg14
g3
sg15
g3
sg16
S'14.3'
p225
sg18
S'SG'
p226
sS'_defensiveRating'
p227
S'97'
p228
sg20
S'.789'
p229
sg24
S'NBA'
p230
sg26
S'1.4'
p231
sg27
S'17.8'
p232
sg29
S'7.9'
p233
sg31
S'2.7'
p234
sg33
S'5.7'
p235
sg35
S'27'
p236
sg37
S'TOT'
p237
sg39
S'40'
p238
sg41
S'0.1'
p239
sg42
S'6.1'
p240
sg44
S'2.1'
p241
sg46
S'17.8'
p242
sg48
S'3.5'
p243
sg49
S'1973-74'
p244
sg51
S'6.1'
p245
sg53
g3
sg54
S'.341'
p246
sg56
S'326'
p247
sg58
g3
sba(isrc.gp1.models.Per100Possession
Per100Possession
p248
(dp249
g8
S'1.9'
p250
sg9
g3
sg10
S'.352'
p251
sg223
g3
sg12
S'2.7'
p252
sg14
g3
sg15
g3
sg16
S'14.4'
p253
sg18
S'SG'
p254
sg227
S'97'
p255
sg20
S'.769'
p256
sg24
S'NBA'
p257
sg26
S'1.4'
p258
sg27
S'17.7'
p259
sg29
S'8.0'
p260
sg31
S'2.5'
p261
sg33
S'5.0'
p262
sg35
S'27'
p263
sg37
S'NYK'
p264
sg39
S'25'
p265
sg41
S'0.2'
p266
sg42
S'6.2'
p267
sg44
S'1.9'
p268
sg46
S'17.7'
p269
sg48
S'3.1'
p270
sg49
S'1973-74'
p271
sg51
S'6.2'
p272
sg53
g3
sg54
S'.352'
p273
sg56
S'239'
p274
sg58
g3
sba(isrc.gp1.models.Per100Possession
Per100Possession
p275
(dp276
g8
S'2.6'
p277
sg9
g3
sg10
S'.314'
p278
sg223
g3
sg12
S'4.7'
p279
sg14
g3
sg15
g3
sg16
S'14.1'
p280
sg18
S'SG'
p281
sg227
S'96'
p282
sg20
S'.833'
p283
sg24
S'NBA'
p284
sg26
S'1.6'
p285
sg27
S'18.3'
p286
sg29
S'7.9'
p287
sg31
S'3.1'
p288
sg33
S'7.3'
p289
sg35
S'27'
p290
sg37
S'MIL'
p291
sg39
S'15'
p292
sg41
S'0.0'
p293
sg42
S'5.8'
p294
sg44
S'2.6'
p295
sg46
S'18.3'
p296
sg48
S'4.7'
p297
sg49
S'1973-74'
p298
sg51
S'5.8'
p299
sg53
g3
sg54
S'.314'
p300
sg56
S'87'
p301
sg58
g3
sbasS'_advanced'
p302
(lp303
(isrc.gp1.models.Advanced
Advanced
p304
(dp305
S'_offensiveReboundPercentage'
p306
g3
sS'_turnOverPercentage'
p307
g3
sS'_winSharesPer48Minutes'
p308
S'.047'
p309
sS'_stealPercentage'
p310
g3
sS'_usagePercentage'
p311
g3
sS'_totalReboundsPercentage'
p312
g3
sS'_defensiveBoxPlusMinus'
p313
g3
sg18
S'SG'
p314
sS'_valueOverReplacementPlayer'
p315
g3
sS'_trueShootingPercentage'
p316
S'.477'
p317
sS'_defensiveReboundPercentage'
p318
g3
sS'_freeThrowsAttempRate'
p319
S'.199'
p320
sS'_threePointsAttempRate'
p321
g3
sg24
S'NBA'
p322
sS'_offensiveBoxPlusMinues'
p323
g3
sS'_assistPercentage'
p324
S'10.1'
p325
sS'_defensiveWinShares'
p326
S'2.0'
p327
sg35
S'23'
p328
sg37
S'LAL'
p329
sg39
S'73'
p330
sS'_blockPercentage'
p331
g3
sS'_playerEfficiencyRating'
p332
S'9.4'
p333
sS'_offensiveWinShares'
p334
S'0.3'
p335
sg56
S'2318'
p336
sS'_boxPlusMinus'
p337
g3
sg49
S'1969-70'
p338
sS'_winShares'
p339
S'2.3'
p340
sba(isrc.gp1.models.Advanced
Advanced
p341
(dp342
g306
g3
sg307
g3
sg308
S'.048'
p343
sg310
g3
sg311
g3
sg312
S'5.6'
p344
sg313
g3
sg18
S'PG'
p345
sg315
g3
sg316
S'.476'
p346
sg318
g3
sg319
S'.278'
p347
sg321
g3
sg24
S'NBA'
p348
sg323
g3
sg324
S'15.7'
p349
sg326
S'1.4'
p350
sg35
S'24'
p351
sg37
S'BUF'
p352
sg39
S'75'
p353
sg331
g3
sg332
S'11.6'
p354
sg334
S'1.0'
p355
sg56
S'2375'
p356
sg337
g3
sg49
S'1970-71'
p357
sg339
S'2.4'
p358
sba(isrc.gp1.models.Advanced
Advanced
p359
(dp360
g306
g3
sg307
g3
sg308
S'.039'
p361
sg310
g3
sg311
g3
sg312
S'5.7'
p362
sg313
g3
sg18
S'SG'
p363
sg315
g3
sg316
S'.489'
p364
sg318
g3
sg319
S'.214'
p365
sg321
g3
sg24
S'NBA'
p366
sg323
g3
sg324
S'12.6'
p367
sg326
S'0.4'
p368
sg35
S'25'
p369
sg37
S'BUF'
p370
sg39
S'73'
p371
sg331
g3
sg332
S'11.8'
p372
sg334
S'1.2'
p373
sg56
S'1905'
p374
sg337
g3
sg49
S'1971-72'
p375
sg339
S'1.6'
p376
sba(isrc.gp1.models.Advanced
Advanced
p377
(dp378
g306
g3
sg307
g3
sg308
S'.001'
p379
sg310
g3
sg311
g3
sg312
S'5.4'
p380
sg313
g3
sg18
S'SG'
p381
sg315
g3
sg316
S'.452'
p382
sg318
g3
sg319
S'.135'
p383
sg321
g3
sg24
S'NBA'
p384
sg323
g3
sg324
S'17.0'
p385
sg326
S'0.4'
p386
sg35
S'26'
p387
sg37
S'BUF'
p388
sg39
S'78'
p389
sg331
g3
sg332
S'11.2'
p390
sg334
S'-0.3'
p391
sg56
S'1805'
p392
sg337
g3
sg49
S'1972-73'
p393
sg339
S'0.1'
p394
sba(isrc.gp1.models.Advanced
Advanced
p395
(dp396
g306
S'4.9'
p397
sg307
g3
sg308
S'-0.034'
p398
sg310
S'1.4'
p399
sg311
g3
sg312
S'6.4'
p400
sg313
S'-1.5'
p401
sg18
S'SG'
p402
sg315
S'-0.4'
p403
sg316
S'.376'
p404
sg318
S'7.8'
p405
sg319
S'.151'
p406
sg321
g3
sg24
S'NBA'
p407
sg323
S'-5.8'
p408
sg324
S'9.1'
p409
sg326
S'0.4'
p410
sg35
S'27'
p411
sg37
S'TOT'
p412
sg39
S'40'
p413
sg331
S'0.2'
p414
sg332
S'6.3'
p415
sg334
S'-0.6'
p416
sg56
S'326'
p417
sg337
S'-7.3'
p418
sg49
S'1973-74'
p419
sg339
S'-0.2'
p420
sba(isrc.gp1.models.Advanced
Advanced
p421
(dp422
g306
S'4.4'
p423
sg307
g3
sg308
S'-0.032'
p424
sg310
S'1.4'
p425
sg311
g3
sg312
S'5.7'
p426
sg313
S'-1.5'
p427
sg18
S'SG'
p428
sg315
S'-0.3'
p429
sg316
S'.383'
p430
sg318
S'7.0'
p431
sg319
S'.143'
p432
sg321
g3
sg24
S'NBA'
p433
sg323
S'-5.8'
p434
sg324
S'7.9'
p435
sg326
S'0.3'
p436
sg35
S'27'
p437
sg37
S'NYK'
p438
sg39
S'25'
p439
sg331
S'0.2'
p440
sg332
S'6.0'
p441
sg334
S'-0.4'
p442
sg56
S'239'
p443
sg337
S'-7.3'
p444
sg49
S'1973-74'
p445
sg339
S'-0.2'
p446
sba(isrc.gp1.models.Advanced
Advanced
p447
(dp448
g306
S'6.3'
p449
sg307
g3
sg308
S'-0.038'
p450
sg310
S'1.6'
p451
sg311
g3
sg312
S'8.2'
p452
sg313
S'-1.6'
p453
sg18
S'SG'
p454
sg315
S'-0.1'
p455
sg316
S'.359'
p456
sg318
S'9.8'
p457
sg319
S'.171'
p458
sg321
g3
sg24
S'NBA'
p459
sg323
S'-5.7'
p460
sg324
S'12.7'
p461
sg326
S'0.1'
p462
sg35
S'27'
p463
sg37
S'MIL'
p464
sg39
S'15'
p465
sg331
S'0.0'
p466
sg332
S'7.2'
p467
sg334
S'-0.2'
p468
sg56
S'87'
p469
sg337
S'-7.3'
p470
sg49
S'1973-74'
p471
sg339
S'-0.1'
p472
sbasS'_per36Minutes'
p473
(lp474
(isrc.gp1.models.Per36Minutes
Per36Minutes
p475
(dp476
g8
g3
sg9
g3
sg10
S'.434'
p477
sg12
S'2.8'
p478
sg14
g3
sg15
g3
sg16
S'13.1'
p479
sg18
S'SG'
p480
sg20
S'.852'
p481
sg24
S'NBA'
p482
sg26
g3
sg27
S'12.7'
p483
sg29
S'3.7'
p484
sg31
S'2.5'
p485
sg33
S'3.6'
p486
sg35
S'23'
p487
sg37
S'LAL'
p488
sg39
S'73'
p489
sg41
g3
sg42
S'5.5'
p490
sg44
S'2.1'
p491
sg46
S'12.7'
p492
sg48
g3
sg49
S'1969-70'
p493
sg51
S'5.5'
p494
sg53
g3
sg54
S'.434'
p495
sg56
S'2318'
p496
sg58
g3
sba(isrc.gp1.models.Per36Minutes
Per36Minutes
p497
(dp498
g8
g3
sg9
g3
sg10
S'.414'
p499
sg12
S'4.0'
p500
sg14
g3
sg15
g3
sg16
S'14.6'
p501
sg18
S'PG'
p502
sg20
S'.869'
p503
sg24
S'NBA'
p504
sg26
g3
sg27
S'13.7'
p505
sg29
S'4.4'
p506
sg31
S'3.8'
p507
sg33
S'4.5'
p508
sg35
S'24'
p509
sg37
S'BUF'
p510
sg39
S'75'
p511
sg41
g3
sg42
S'5.7'
p512
sg44
S'3.3'
p513
sg46
S'13.7'
p514
sg48
g3
sg49
S'1970-71'
p515
sg51
S'5.7'
p516
sg53
g3
sg54
S'.414'
p517
sg56
S'2375'
p518
sg58
g3
sba(isrc.gp1.models.Per36Minutes
Per36Minutes
p519
(dp520
g8
g3
sg9
g3
sg10
S'.442'
p521
sg12
S'3.1'
p522
sg14
g3
sg15
g3
sg16
S'14.9'
p523
sg18
S'SG'
p524
sg20
S'.866'
p525
sg24
S'NBA'
p526
sg26
g3
sg27
S'13.9'
p527
sg29
S'4.3'
p528
sg31
S'3.0'
p529
sg33
S'4.3'
p530
sg35
S'25'
p531
sg37
S'BUF'
p532
sg39
S'73'
p533
sg41
g3
sg42
S'6.1'
p534
sg44
S'2.6'
p535
sg46
S'13.9'
p536
sg48
g3
sg49
S'1971-72'
p537
sg51
S'6.1'
p538
sg53
g3
sg54
S'.442'
p539
sg56
S'1905'
p540
sg58
g3
sba(isrc.gp1.models.Per36Minutes
Per36Minutes
p541
(dp542
g8
g3
sg9
g3
sg10
S'.419'
p543
sg12
S'4.3'
p544
sg14
g3
sg15
g3
sg16
S'15.5'
p545
sg18
S'SG'
p546
sg20
S'.873'
p547
sg24
S'NBA'
p548
sg26
g3
sg27
S'16.2'
p549
sg29
S'4.3'
p550
sg31
S'2.2'
p551
sg33
S'4.2'
p552
sg35
S'26'
p553
sg37
S'BUF'
p554
sg39
S'78'
p555
sg41
g3
sg42
S'6.8'
p556
sg44
S'1.9'
p557
sg46
S'16.2'
p558
sg48
g3
sg49
S'1972-73'
p559
sg51
S'6.8'
p560
sg53
g3
sg54
S'.419'
p561
sg56
S'1805'
p562
sg58
g3
sba(isrc.gp1.models.Per36Minutes
Per36Minutes
p563
(dp564
g8
S'1.7'
p565
sg9
g3
sg10
S'.341'
p566
sg12
S'2.5'
p567
sg14
g3
sg15
g3
sg16
S'11.2'
p568
sg18
S'SG'
p569
sg20
S'.789'
p570
sg24
S'NBA'
p571
sg26
S'1.1'
p572
sg27
S'13.9'
p573
sg29
S'6.2'
p574
sg31
S'2.1'
p575
sg33
S'4.4'
p576
sg35
S'27'
p577
sg37
S'TOT'
p578
sg39
S'40'
p579
sg41
S'0.1'
p580
sg42
S'4.7'
p581
sg44
S'1.7'
p582
sg46
S'13.9'
p583
sg48
S'2.8'
p584
sg49
S'1973-74'
p585
sg51
S'4.7'
p586
sg53
g3
sg54
S'.341'
p587
sg56
S'326'
p588
sg58
g3
sba(isrc.gp1.models.Per36Minutes
Per36Minutes
p589
(dp590
g8
S'1.5'
p591
sg9
g3
sg10
S'.352'
p592
sg12
S'2.1'
p593
sg14
g3
sg15
g3
sg16
S'11.1'
p594
sg18
S'SG'
p595
sg20
S'.769'
p596
sg24
S'NBA'
p597
sg26
S'1.1'
p598
sg27
S'13.7'
p599
sg29
S'6.2'
p600
sg31
S'2.0'
p601
sg33
S'3.9'
p602
sg35
S'27'
p603
sg37
S'NYK'
p604
sg39
S'25'
p605
sg41
S'0.2'
p606
sg42
S'4.8'
p607
sg44
S'1.5'
p608
sg46
S'13.7'
p609
sg48
S'2.4'
p610
sg49
S'1973-74'
p611
sg51
S'4.8'
p612
sg53
g3
sg54
S'.352'
p613
sg56
S'239'
p614
sg58
g3
sba(isrc.gp1.models.Per36Minutes
Per36Minutes
p615
(dp616
g8
S'2.1'
p617
sg9
g3
sg10
S'.314'
p618
sg12
S'3.7'
p619
sg14
g3
sg15
g3
sg16
S'11.2'
p620
sg18
S'SG'
p621
sg20
S'.833'
p622
sg24
S'NBA'
p623
sg26
S'1.2'
p624
sg27
S'14.5'
p625
sg29
S'6.2'
p626
sg31
S'2.5'
p627
sg33
S'5.8'
p628
sg35
S'27'
p629
sg37
S'MIL'
p630
sg39
S'15'
p631
sg41
S'0.0'
p632
sg42
S'4.6'
p633
sg44
S'2.1'
p634
sg46
S'14.5'
p635
sg48
S'3.7'
p636
sg49
S'1973-74'
p637
sg51
S'4.6'
p638
sg53
g3
sg54
S'.314'
p639
sg56
S'87'
p640
sg58
g3
sbasS'_fromYear'
p641
S'1970'
p642
sS'_url'
p643
S'http://www.basketball-reference.com/players/g/garredi01.html'
p644
sS'_perGame'
p645
(isrc.gp1.models.PerGame
PerGame
p646
(dp647
g8
S'0.3'
p648
sg9
g3
sg10
S'.314'
p649
sS'_effectiveFieldGalPercentage'
p650
S'.314'
p651
sg12
S'0.6'
p652
sg14
g3
sg15
g3
sg16
S'1.8'
p653
sg18
S'SG'
p654
sg20
S'.833'
p655
sg24
S'NBA'
p656
sg26
S'0.2'
p657
sg29
S'1.0'
p658
sS'_fieldGoalsttempted'
p659
S'2.3'
p660
sg31
S'0.4'
p661
sg33
S'0.9'
p662
sg35
S'27'
p663
sg37
S'MIL'
p664
sg39
S'15'
p665
sg41
S'0.0'
p666
sg42
S'0.7'
p667
sg44
S'0.3'
p668
sg46
S'2.3'
p669
sg48
S'0.6'
p670
sg49
S'1973-74'
p671
sg51
S'0.7'
p672
sg53
g3
sg54
S'.314'
p673
sg56
S'5.8'
p674
sg58
g3
sbsS'_weight'
p675
S'185'
p676
sS'_dob'
p677
S'31-1-1947'
p678
sS'_salary'
p679
(lp680
sg18
S'G'
p681
sb.