(isrc.gp1.models.Player
Player
p0
(dp1
S'_experience'
p2
S'NA'
p3
sS'_totals'
p4
(lp5
(isrc.gp1.models.Totals
Totals
p6
(dp7
S'_offensiveRebounds'
p8
S'2'
p9
sS'_threePointsAttempted'
p10
S'0'
p11
sS'_fieldGoalsPercentage'
p12
S'.200'
p13
sS'_assist'
p14
S'1'
p15
sS'_threePointsPercentage'
p16
g3
sS'_threePoints'
p17
g11
sS'_points'
p18
g9
sS'_position'
p19
S'C'
p20
sS'_freeThrowsPercentage'
p21
S'.000'
p22
sS'_effectiveFieldGoalPercentage'
p23
S'.200'
p24
sS'_league'
p25
S'NBA'
p26
sS'_steals'
p27
g11
sS'_fieldGoalsAttempted'
p28
S'5'
p29
sS'_personalFouls'
p30
g15
sS'_freeThrowsAttempted'
p31
g9
sS'_totalRebounds'
p32
g9
sS'_age'
p33
S'27'
p34
sS'_team'
p35
S'TOT'
p36
sS'_games'
p37
S'4'
p38
sS'_blocks'
p39
g15
sS'_twoPoints'
p40
g15
sS'_freeThrows'
p41
g11
sS'_twoPointsAttempted'
p42
g29
sS'_defensiveRebounds'
p43
g11
sS'_season'
p44
S'2000-01'
p45
sS'_fieldGoals'
p46
g15
sS'_turnOvers'
p47
g9
sS'_twoPointsPercentage'
p48
S'.200'
p49
sS'_minutesPlayed'
p50
S'16'
p51
sS'_gamesStarted'
p52
g11
sba(isrc.gp1.models.Totals
Totals
p53
(dp54
g8
g9
sg10
g11
sg12
S'.500'
p55
sg14
g15
sg16
g3
sg17
g11
sg18
g9
sg19
g20
sg21
g3
sg23
S'.500'
p56
sg25
S'NBA'
p57
sg27
g11
sg28
g9
sg30
g15
sg31
g11
sg32
g9
sg33
S'27'
p58
sg35
S'TOR'
p59
sg37
g9
sg39
g11
sg40
g15
sg41
g11
sg42
g9
sg43
g11
sg44
S'2000-01'
p60
sg46
g15
sg47
g15
sg48
S'.500'
p61
sg50
S'8'
p62
sg52
g11
sba(isrc.gp1.models.Totals
Totals
p63
(dp64
g8
g11
sg10
g11
sg12
S'.000'
p65
sg14
g11
sg16
g3
sg17
g11
sg18
g11
sg19
g20
sg21
S'.000'
p66
sg23
S'.000'
p67
sg25
S'NBA'
p68
sg27
g11
sg28
S'3'
p69
sg30
g11
sg31
g9
sg32
g11
sg33
S'27'
p70
sg35
S'DEN'
p71
sg37
g9
sg39
g15
sg40
g11
sg41
g11
sg42
g69
sg43
g11
sg44
S'2000-01'
p72
sg46
g11
sg47
g15
sg48
S'.000'
p73
sg50
g62
sg52
g11
sbasS'_college'
p74
S'College of Saint Rose'
p75
sS'_toYear'
p76
S'2001'
p77
sS'_height'
p78
S'7-2'
p79
sS'_active'
p80
I00
sS'_shootingHand'
p81
VRight
p82
sS'_name'
p83
S'Garth Joseph'
p84
sS'_per100Possessions'
p85
(lp86
(isrc.gp1.models.Per100Possession
Per100Possession
p87
(dp88
g8
S'6.5'
p89
sg10
S'0.0'
p90
sg12
S'.200'
p91
sS'_offensiveRating'
p92
S'45'
p93
sg14
S'3.3'
p94
sg16
g3
sg17
S'0.0'
p95
sg18
S'6.5'
p96
sg19
g20
sS'_defensiveRating'
p97
S'111'
p98
sg21
S'.000'
p99
sg25
S'NBA'
p100
sg27
S'0.0'
p101
sg28
S'16.3'
p102
sg30
S'3.3'
p103
sg31
S'6.5'
p104
sg32
S'6.5'
p105
sg33
S'27'
p106
sg35
S'TOT'
p107
sg37
g38
sg39
S'3.3'
p108
sg40
S'3.3'
p109
sg41
S'0.0'
p110
sg42
S'16.3'
p111
sg43
S'0.0'
p112
sg44
S'2000-01'
p113
sg46
S'3.3'
p114
sg47
S'6.5'
p115
sg48
S'.200'
p116
sg50
S'16'
p117
sg52
g11
sba(isrc.gp1.models.Per100Possession
Per100Possession
p118
(dp119
g8
S'13.2'
p120
sg10
S'0.0'
p121
sg12
S'.500'
p122
sg92
S'99'
p123
sg14
S'6.6'
p124
sg16
g3
sg17
S'0.0'
p125
sg18
S'13.2'
p126
sg19
g20
sg97
S'113'
p127
sg21
g3
sg25
S'NBA'
p128
sg27
S'0.0'
p129
sg28
S'13.2'
p130
sg30
S'6.6'
p131
sg31
S'0.0'
p132
sg32
S'13.2'
p133
sg33
S'27'
p134
sg35
S'TOR'
p135
sg37
g9
sg39
S'0.0'
p136
sg40
S'6.6'
p137
sg41
S'0.0'
p138
sg42
S'13.2'
p139
sg43
S'0.0'
p140
sg44
S'2000-01'
p141
sg46
S'6.6'
p142
sg47
S'6.6'
p143
sg48
S'.500'
p144
sg50
g62
sg52
g11
sba(isrc.gp1.models.Per100Possession
Per100Possession
p145
(dp146
g8
S'0.0'
p147
sg10
S'0.0'
p148
sg12
S'.000'
p149
sg92
g11
sg14
S'0.0'
p150
sg16
g3
sg17
S'0.0'
p151
sg18
S'0.0'
p152
sg19
g20
sg97
S'109'
p153
sg21
S'.000'
p154
sg25
S'NBA'
p155
sg27
S'0.0'
p156
sg28
S'19.4'
p157
sg30
S'0.0'
p158
sg31
S'13.0'
p159
sg32
S'0.0'
p160
sg33
S'27'
p161
sg35
S'DEN'
p162
sg37
g9
sg39
S'6.5'
p163
sg40
S'0.0'
p164
sg41
S'0.0'
p165
sg42
S'19.4'
p166
sg43
S'0.0'
p167
sg44
S'2000-01'
p168
sg46
S'0.0'
p169
sg47
S'6.5'
p170
sg48
S'.000'
p171
sg50
g62
sg52
g11
sbasS'_advanced'
p172
(lp173
(isrc.gp1.models.Advanced
Advanced
p174
(dp175
S'_offensiveReboundPercentage'
p176
S'13.7'
p177
sS'_turnOverPercentage'
p178
S'25.4'
p179
sS'_winSharesPer48Minutes'
p180
S'-0.345'
p181
sS'_stealPercentage'
p182
S'0.0'
p183
sS'_usagePercentage'
p184
S'22.0'
p185
sS'_totalReboundsPercentage'
p186
S'7.0'
p187
sS'_defensiveBoxPlusMinus'
p188
S'-1.9'
p189
sg19
g20
sS'_valueOverReplacementPlayer'
p190
S'0.0'
p191
sS'_trueShootingPercentage'
p192
S'.170'
p193
sS'_defensiveReboundPercentage'
p194
S'0.0'
p195
sS'_freeThrowsAttempRate'
p196
S'.400'
p197
sS'_threePointsAttempRate'
p198
S'.000'
p199
sg25
S'NBA'
p200
sS'_offensiveBoxPlusMinues'
p201
S'-12.3'
p202
sS'_assistPercentage'
p203
S'9.8'
p204
sS'_defensiveWinShares'
p205
S'0.0'
p206
sg33
S'27'
p207
sg35
S'TOT'
p208
sg37
g38
sS'_blockPercentage'
p209
S'4.3'
p210
sS'_playerEfficiencyRating'
p211
S'-5.0'
p212
sS'_offensiveWinShares'
p213
S'-0.1'
p214
sg50
S'16'
p215
sS'_boxPlusMinus'
p216
S'-14.2'
p217
sg44
S'2000-01'
p218
sS'_winShares'
p219
S'-0.1'
p220
sba(isrc.gp1.models.Advanced
Advanced
p221
(dp222
g176
S'27.5'
p223
sg178
S'33.3'
p224
sg180
S'.017'
p225
sg182
S'0.0'
p226
sg184
S'16.8'
p227
sg186
S'14.1'
p228
sg188
S'-2.3'
p229
sg19
g20
sg190
S'0.0'
p230
sg192
S'.500'
p231
sg194
S'0.0'
p232
sg196
S'.000'
p233
sg198
S'.000'
p234
sg25
S'NBA'
p235
sg201
S'1.0'
p236
sg203
S'19.6'
p237
sg205
S'0.0'
p238
sg33
S'27'
p239
sg35
S'TOR'
p240
sg37
g9
sg209
S'0.0'
p241
sg211
S'11.3'
p242
sg213
S'0.0'
p243
sg50
g62
sg216
S'-1.3'
p244
sg44
S'2000-01'
p245
sg219
S'0.0'
p246
sba(isrc.gp1.models.Advanced
Advanced
p247
(dp248
g176
S'0.0'
p249
sg178
S'20.5'
p250
sg180
S'-0.707'
p251
sg182
S'0.0'
p252
sg184
S'27.2'
p253
sg186
S'0.0'
p254
sg188
S'-1.6'
p255
sg19
g20
sg190
S'-0.1'
p256
sg192
S'.000'
p257
sg194
S'0.0'
p258
sg196
S'.667'
p259
sg198
S'.000'
p260
sg25
S'NBA'
p261
sg201
S'-25.5'
p262
sg203
S'0.0'
p263
sg205
S'0.0'
p264
sg33
S'27'
p265
sg35
S'DEN'
p266
sg37
g9
sg209
S'8.6'
p267
sg211
S'-21.3'
p268
sg213
S'-0.1'
p269
sg50
g62
sg216
S'-27.1'
p270
sg44
S'2000-01'
p271
sg219
S'-0.1'
p272
sbasS'_per36Minutes'
p273
(lp274
(isrc.gp1.models.Per36Minutes
Per36Minutes
p275
(dp276
g8
S'4.5'
p277
sg10
S'0.0'
p278
sg12
S'.200'
p279
sg14
S'2.3'
p280
sg16
g3
sg17
S'0.0'
p281
sg18
S'4.5'
p282
sg19
g20
sg21
S'.000'
p283
sg25
S'NBA'
p284
sg27
S'0.0'
p285
sg28
S'11.3'
p286
sg30
S'2.3'
p287
sg31
S'4.5'
p288
sg32
S'4.5'
p289
sg33
S'27'
p290
sg35
S'TOT'
p291
sg37
g38
sg39
S'2.3'
p292
sg40
S'2.3'
p293
sg41
S'0.0'
p294
sg42
S'11.3'
p295
sg43
S'0.0'
p296
sg44
S'2000-01'
p297
sg46
S'2.3'
p298
sg47
S'4.5'
p299
sg48
S'.200'
p300
sg50
S'16'
p301
sg52
g11
sba(isrc.gp1.models.Per36Minutes
Per36Minutes
p302
(dp303
g8
S'9.0'
p304
sg10
S'0.0'
p305
sg12
S'.500'
p306
sg14
S'4.5'
p307
sg16
g3
sg17
S'0.0'
p308
sg18
S'9.0'
p309
sg19
g20
sg21
g3
sg25
S'NBA'
p310
sg27
S'0.0'
p311
sg28
S'9.0'
p312
sg30
S'4.5'
p313
sg31
S'0.0'
p314
sg32
S'9.0'
p315
sg33
S'27'
p316
sg35
S'TOR'
p317
sg37
g9
sg39
S'0.0'
p318
sg40
S'4.5'
p319
sg41
S'0.0'
p320
sg42
S'9.0'
p321
sg43
S'0.0'
p322
sg44
S'2000-01'
p323
sg46
S'4.5'
p324
sg47
S'4.5'
p325
sg48
S'.500'
p326
sg50
g62
sg52
g11
sba(isrc.gp1.models.Per36Minutes
Per36Minutes
p327
(dp328
g8
S'0.0'
p329
sg10
S'0.0'
p330
sg12
S'.000'
p331
sg14
S'0.0'
p332
sg16
g3
sg17
S'0.0'
p333
sg18
S'0.0'
p334
sg19
g20
sg21
S'.000'
p335
sg25
S'NBA'
p336
sg27
S'0.0'
p337
sg28
S'13.5'
p338
sg30
S'0.0'
p339
sg31
S'9.0'
p340
sg32
S'0.0'
p341
sg33
S'27'
p342
sg35
S'DEN'
p343
sg37
g9
sg39
S'4.5'
p344
sg40
S'0.0'
p345
sg41
S'0.0'
p346
sg42
S'13.5'
p347
sg43
S'0.0'
p348
sg44
S'2000-01'
p349
sg46
S'0.0'
p350
sg47
S'4.5'
p351
sg48
S'.000'
p352
sg50
g62
sg52
g11
sbasS'_fromYear'
p353
S'2001'
p354
sS'_url'
p355
S'http://www.basketball-reference.com/players/j/josepga01.html'
p356
sS'_perGame'
p357
(isrc.gp1.models.PerGame
PerGame
p358
(dp359
g8
S'0.0'
p360
sg10
S'0.0'
p361
sg12
S'.000'
p362
sS'_effectiveFieldGalPercentage'
p363
S'.000'
p364
sg14
S'0.0'
p365
sg16
g3
sg17
S'0.0'
p366
sg18
S'0.0'
p367
sg19
g20
sg21
S'.000'
p368
sg25
S'NBA'
p369
sg27
S'0.0'
p370
sg30
S'0.0'
p371
sS'_fieldGoalsttempted'
p372
S'1.5'
p373
sg31
S'1.0'
p374
sg32
S'0.0'
p375
sg33
S'27'
p376
sg35
S'DEN'
p377
sg37
g9
sg39
S'0.5'
p378
sg40
S'0.0'
p379
sg41
S'0.0'
p380
sg42
S'1.5'
p381
sg43
S'0.0'
p382
sg44
S'2000-01'
p383
sg46
S'0.0'
p384
sg47
S'0.5'
p385
sg48
S'.000'
p386
sg50
S'4.0'
p387
sg52
g11
sbsS'_weight'
p388
S'315'
p389
sS'_dob'
p390
S'8-8-1973'
p391
sS'_salary'
p392
(lp393
(isrc.gp1.models.Salary
Salary
p394
(dp395
g35
S'Toronto Raptors'
p396
sg25
S'NBA'
p397
sg392
S'$316,969'
p398
sg44
S'2000-01'
p399
sbasg19
g20
sb.