(isrc.gp1.models.Player
Player
p0
(dp1
S'_experience'
p2
S'NA'
p3
sS'_totals'
p4
(lp5
(isrc.gp1.models.Totals
Totals
p6
(dp7
S'_offensiveRebounds'
p8
S'41'
p9
sS'_threePointsAttempted'
p10
S'.460'
p11
sS'_fieldGoalsPercentage'
p12
S'202'
p13
sS'_assist'
p14
S'496'
p15
sS'_threePointsPercentage'
p16
S'.460'
p17
sS'_threePoints'
p18
S'439'
p19
sS'_points'
p20
g3
sS'_position'
p21
S'PG'
p22
sS'_freeThrowsPercentage'
p23
S'142'
p24
sS'_effectiveFieldGoalPercentage'
p25
S'46'
p26
sS'_league'
p27
S'NBA'
p28
sS'_steals'
p29
g3
sS'_fieldGoalsAttempted'
p30
S'.460'
p31
sS'_personalFouls'
p32
g3
sS'_freeThrowsAttempted'
p33
S'142'
p34
sS'_totalRebounds'
p35
S'85'
p36
sS'_age'
p37
S'23'
p38
sS'_team'
p39
S'PHO'
p40
sS'_games'
p41
S'69'
p42
sS'_blocks'
p43
g3
sS'_twoPoints'
p44
S'92'
p45
sS'_freeThrows'
p46
S'96'
p47
sS'_twoPointsAttempted'
p48
S'107'
p49
sS'_defensiveRebounds'
p50
S'9'
p51
sS'_season'
p52
S'1973-74'
p53
sS'_fieldGoals'
p54
S'439'
p55
sS'_turnOvers'
p56
g3
sS'_twoPointsPercentage'
p57
S'.860'
p58
sS'_minutesPlayed'
p59
S'202'
p60
sS'_gamesStarted'
p61
S'1251'
p62
sba(isrc.gp1.models.Totals
Totals
p63
(dp64
g8
S'48'
p65
sg10
S'.430'
p66
sg12
S'232'
p67
sg14
S'578'
p68
sg16
S'.430'
p69
sg18
S'539'
p70
sg20
g3
sg21
S'SG'
p71
sg23
S'156'
p72
sg25
S'45'
p73
sg27
S'NBA'
p74
sg29
g3
sg30
S'.430'
p75
sg32
g3
sg33
S'187'
p76
sg35
S'116'
p77
sg37
S'24'
p78
sg39
S'PHO'
p79
sg41
S'68'
p80
sg43
g3
sg44
S'114'
p81
sg46
S'142'
p82
sg48
S'141'
p83
sg50
S'12'
p84
sg52
S'1974-75'
p85
sg54
S'539'
p86
sg56
g3
sg57
S'.809'
p87
sg59
S'232'
p88
sg61
S'1529'
p89
sbasS'_college'
p90
S'Duke University'
p91
sS'_toYear'
p92
S'1975'
p93
sS'_height'
p94
S'6-2'
p95
sS'_active'
p96
I00
sS'_shootingHand'
p97
VLeft
p98
sS'_name'
p99
S'Gary Melchionni'
p100
sS'_per100Possessions'
p101
(lp102
(isrc.gp1.models.Per100Possession
Per100Possession
p103
(dp104
g8
S'1.4'
p105
sg10
S'.460'
p106
sg12
S'7.1'
p107
sS'_offensiveRating'
p108
g3
sg14
S'17.4'
p109
sg16
S'3.2'
p110
sg18
S'15.4'
p111
sg20
g3
sg21
S'PG'
p112
sS'_defensiveRating'
p113
g3
sg23
S'5.0'
p114
sg27
S'NBA'
p115
sg29
S'104'
p116
sg30
S'.460'
p117
sg32
g3
sg33
S'5.0'
p118
sg35
S'3.0'
p119
sg37
S'23'
p120
sg39
S'PHO'
p121
sg41
S'69'
p122
sg43
g3
sg44
S'3.7'
p123
sg46
S'3.4'
p124
sg48
S'.860'
p125
sg50
S'0.3'
p126
sg52
S'1973-74'
p127
sg54
S'15.4'
p128
sg56
g3
sg57
S'1.6'
p129
sg59
S'7.1'
p130
sg61
S'1251'
p131
sba(isrc.gp1.models.Per100Possession
Per100Possession
p132
(dp133
g8
S'1.4'
p134
sg10
S'.430'
p135
sg12
S'7.0'
p136
sg108
g3
sg14
S'17.4'
p137
sg16
S'3.4'
p138
sg18
S'16.2'
p139
sg20
g3
sg21
S'SG'
p140
sg113
g3
sg23
S'4.7'
p141
sg27
S'NBA'
p142
sg29
S'101'
p143
sg30
S'.430'
p144
sg32
g3
sg33
S'5.6'
p145
sg35
S'3.5'
p146
sg37
S'24'
p147
sg39
S'PHO'
p148
sg41
S'68'
p149
sg43
g3
sg44
S'4.2'
p150
sg46
S'4.3'
p151
sg48
S'.809'
p152
sg50
S'0.4'
p153
sg52
S'1974-75'
p154
sg54
S'16.2'
p155
sg56
g3
sg57
S'1.4'
p156
sg59
S'7.0'
p157
sg61
S'1529'
p158
sbasS'_advanced'
p159
(lp160
(isrc.gp1.models.Advanced
Advanced
p161
(dp162
S'_offensiveReboundPercentage'
p163
S'7.7'
p164
sS'_turnOverPercentage'
p165
S'0.3'
p166
sS'_winSharesPer48Minutes'
p167
S'-3.1'
p168
sS'_stealPercentage'
p169
S'0.4'
p170
sS'_usagePercentage'
p171
S'1.8'
p172
sS'_totalReboundsPercentage'
p173
S'15.4'
p174
sS'_defensiveBoxPlusMinus'
p175
g3
sg21
S'PG'
p176
sS'_valueOverReplacementPlayer'
p177
g3
sS'_trueShootingPercentage'
p178
S'.510'
p179
sS'_defensiveReboundPercentage'
p180
S'5.7'
p181
sS'_freeThrowsAttempRate'
p182
S'3.8'
p183
sS'_threePointsAttempRate'
p184
S'.244'
p185
sg27
S'NBA'
p186
sS'_offensiveBoxPlusMinues'
p187
S'-0.3'
p188
sS'_assistPercentage'
p189
S'1.4'
p190
sS'_defensiveWinShares'
p191
S'-1.2'
p192
sg37
S'23'
p193
sg39
S'PHO'
p194
sg41
S'69'
p195
sS'_blockPercentage'
p196
S'1.5'
p197
sS'_playerEfficiencyRating'
p198
S'13.0'
p199
sS'_offensiveWinShares'
p200
S'.070'
p201
sg59
S'1251'
p202
sS'_boxPlusMinus'
p203
g3
sg52
S'1973-74'
p204
sS'_winShares'
p205
S'-1.9'
p206
sba(isrc.gp1.models.Advanced
Advanced
p207
(dp208
g163
S'9.7'
p209
sg165
S'1.0'
p210
sg167
S'-3.2'
p211
sg169
S'0.4'
p212
sg171
S'2.1'
p213
sg173
S'14.5'
p214
sg175
g3
sg21
S'SG'
p215
sg177
g3
sg178
S'.481'
p216
sg180
S'6.3'
p217
sg182
S'3.0'
p218
sg184
S'.262'
p219
sg27
S'NBA'
p220
sg187
S'-0.5'
p221
sg189
S'1.4'
p222
sg191
S'-2.1'
p223
sg37
S'24'
p224
sg39
S'PHO'
p225
sg41
S'68'
p226
sg196
S'1.1'
p227
sg198
S'12.3'
p228
sg200
S'.065'
p229
sg59
S'1529'
p230
sg203
g3
sg52
S'1974-75'
p231
sg205
S'-1.1'
p232
sbasS'_per36Minutes'
p233
(lp234
(isrc.gp1.models.Per36Minutes
Per36Minutes
p235
(dp236
g8
S'1.2'
p237
sg10
S'.460'
p238
sg12
S'5.8'
p239
sg14
S'14.3'
p240
sg16
S'2.6'
p241
sg18
S'12.6'
p242
sg20
g3
sg21
S'PG'
p243
sg23
S'4.1'
p244
sg27
S'NBA'
p245
sg29
g3
sg30
S'.460'
p246
sg32
g3
sg33
S'4.1'
p247
sg35
S'2.4'
p248
sg37
S'23'
p249
sg39
S'PHO'
p250
sg41
S'69'
p251
sg43
g3
sg44
S'3.1'
p252
sg46
S'2.8'
p253
sg48
S'.860'
p254
sg50
S'0.3'
p255
sg52
S'1973-74'
p256
sg54
S'12.6'
p257
sg56
g3
sg57
S'1.3'
p258
sg59
S'5.8'
p259
sg61
S'1251'
p260
sba(isrc.gp1.models.Per36Minutes
Per36Minutes
p261
(dp262
g8
S'1.1'
p263
sg10
S'.430'
p264
sg12
S'5.5'
p265
sg14
S'13.6'
p266
sg16
S'2.7'
p267
sg18
S'12.7'
p268
sg20
g3
sg21
S'SG'
p269
sg23
S'3.7'
p270
sg27
S'NBA'
p271
sg29
g3
sg30
S'.430'
p272
sg32
g3
sg33
S'4.4'
p273
sg35
S'2.7'
p274
sg37
S'24'
p275
sg39
S'PHO'
p276
sg41
S'68'
p277
sg43
g3
sg44
S'3.3'
p278
sg46
S'3.3'
p279
sg48
S'.809'
p280
sg50
S'0.3'
p281
sg52
S'1974-75'
p282
sg54
S'12.7'
p283
sg56
g3
sg57
S'1.1'
p284
sg59
S'5.5'
p285
sg61
S'1529'
p286
sbasS'_fromYear'
p287
S'1974'
p288
sS'_url'
p289
S'http://www.basketball-reference.com/players/m/melchga01.html'
p290
sS'_perGame'
p291
(isrc.gp1.models.PerGame
PerGame
p292
(dp293
g8
S'0.7'
p294
sg10
S'.430'
p295
sg12
S'3.4'
p296
sS'_effectiveFieldGalPercentage'
p297
S'0.7'
p298
sg14
S'8.5'
p299
sg16
S'.430'
p300
sg18
S'7.9'
p301
sg20
g3
sg21
S'SG'
p302
sg23
S'2.3'
p303
sg27
S'NBA'
p304
sg29
g3
sg32
g3
sS'_fieldGoalsttempted'
p305
S'.430'
p306
sg33
S'2.8'
p307
sg35
S'1.7'
p308
sg37
S'24'
p309
sg39
S'PHO'
p310
sg41
S'68'
p311
sg43
g3
sg44
S'1.7'
p312
sg46
S'2.1'
p313
sg48
S'2.1'
p314
sg50
S'0.2'
p315
sg52
S'1974-75'
p316
sg54
S'7.9'
p317
sg56
g3
sg57
S'.809'
p318
sg59
S'3.4'
p319
sg61
S'22.5'
p320
sbsS'_weight'
p321
S'185'
p322
sS'_dob'
p323
S'19-1-1951'
p324
sS'_salary'
p325
(lp326
sg21
S'G'
p327
sb.