(isrc.gp1.models.Player
Player
p0
(dp1
S'_experience'
p2
S'NA'
p3
sS'_totals'
p4
(lp5
(isrc.gp1.models.Totals
Totals
p6
(dp7
S'_offensiveRebounds'
p8
g3
sS'_threePointsAttempted'
p9
S'.500'
p10
sS'_fieldGoalsPercentage'
p11
S'5'
p12
sS'_assist'
p13
g3
sS'_threePointsPercentage'
p14
S'.500'
p15
sS'_threePoints'
p16
S'10'
p17
sS'_points'
p18
g3
sS'_position'
p19
S'C'
p20
sS'_freeThrowsPercentage'
p21
S'12'
p22
sS'_effectiveFieldGoalPercentage'
p23
S'15'
p24
sS'_league'
p25
S'NBA'
p26
sS'_steals'
p27
g3
sS'_fieldGoalsAttempted'
p28
S'.500'
p29
sS'_personalFouls'
p30
g3
sS'_freeThrowsAttempted'
p31
S'11'
p32
sS'_totalRebounds'
p33
g3
sS'_age'
p34
S'25'
p35
sS'_team'
p36
S'STL'
p37
sS'_games'
p38
S'7'
p39
sS'_blocks'
p40
g3
sS'_twoPoints'
p41
S'2'
p42
sS'_freeThrows'
p43
g12
sS'_twoPointsAttempted'
p44
S'10'
p45
sS'_defensiveRebounds'
p46
g3
sS'_season'
p47
S'1962-63'
p48
sS'_fieldGoals'
p49
S'10'
p50
sS'_turnOvers'
p51
g3
sS'_twoPointsPercentage'
p52
S'.200'
p53
sS'_minutesPlayed'
p54
g12
sS'_gamesStarted'
p55
S'47'
p56
sba(isrc.gp1.models.Totals
Totals
p57
(dp58
g8
g3
sg9
S'.376'
p59
sg11
S'94'
p60
sg13
g3
sg14
S'.376'
p61
sg16
S'250'
p62
sg18
g3
sg19
g20
sg21
S'210'
p63
sg23
S'216'
p64
sg25
S'NBA'
p65
sg27
g3
sg28
S'.376'
p66
sg30
g3
sg31
S'128'
p67
sg33
g3
sg34
S'26'
p68
sg36
S'STL'
p69
sg38
S'51'
p70
sg40
g3
sg41
S'22'
p71
sg43
S'50'
p72
sg44
S'46'
p73
sg46
g3
sg47
S'1963-64'
p74
sg49
S'250'
p75
sg51
g3
sg52
S'.478'
p76
sg54
S'94'
p77
sg55
S'640'
p78
sba(isrc.gp1.models.Totals
Totals
p79
(dp80
g8
g3
sg9
g3
sg11
g3
sg13
g3
sg14
g3
sg16
g3
sg18
g3
sg19
g3
sg21
g3
sg23
g3
sg25
g3
sg27
g3
sg28
g3
sg30
g3
sg31
g3
sg33
g3
sg34
S'27'
p81
sg36
S'Did Not Play\xc2\xa0(retired)'
p82
sg38
g3
sg40
g3
sg41
g3
sg43
g3
sg44
g3
sg46
g3
sg47
S'1964-65'
p83
sg49
g3
sg51
g3
sg52
g3
sg54
g3
sg55
g3
sba(isrc.gp1.models.Totals
Totals
p84
(dp85
g8
g3
sg9
S'.444'
p86
sg11
S'144'
p87
sg13
g3
sg14
S'.444'
p88
sg16
S'324'
p89
sg18
g3
sg19
g20
sg21
S'342'
p90
sg23
S'314'
p91
sg25
S'NBA'
p92
sg27
g3
sg28
S'.444'
p93
sg30
g3
sg31
S'138'
p94
sg33
g3
sg34
S'28'
p95
sg36
S'STL'
p96
sg38
S'71'
p97
sg40
g3
sg41
S'54'
p98
sg43
S'60'
p99
sg44
S'82'
p100
sg46
g3
sg47
S'1965-66'
p101
sg49
S'324'
p102
sg51
g3
sg52
S'.659'
p103
sg54
S'144'
p104
sg55
S'775'
p105
sba(isrc.gp1.models.Totals
Totals
p106
(dp107
g8
g3
sg9
S'.427'
p108
sg11
S'172'
p109
sg13
g3
sg14
S'.427'
p110
sg16
S'403'
p111
sg18
g3
sg19
g20
sg21
S'394'
p112
sg23
S'347'
p113
sg25
S'NBA'
p114
sg27
g3
sg28
S'.427'
p115
sg30
g3
sg31
S'177'
p116
sg33
g3
sg34
S'29'
p117
sg36
S'STL'
p118
sg38
S'63'
p119
sg40
g3
sg41
S'50'
p120
sg43
S'73'
p121
sg44
S'84'
p122
sg46
g3
sg47
S'1966-67'
p123
sg49
S'403'
p124
sg51
g3
sg52
S'.595'
p125
sg54
S'172'
p126
sg55
S'1036'
p127
sba(isrc.gp1.models.Totals
Totals
p128
(dp129
g8
g3
sg9
S'.374'
p130
sg11
S'98'
p131
sg13
g3
sg14
S'.374'
p132
sg16
S'262'
p133
sg18
g3
sg19
g20
sg21
S'229'
p134
sg23
S'226'
p135
sg25
S'NBA'
p136
sg27
g3
sg28
S'.374'
p137
sg30
g3
sg31
S'94'
p138
sg33
g3
sg34
S'30'
p139
sg36
S'STL'
p140
sg38
S'77'
p141
sg40
g3
sg41
S'33'
p142
sg43
S'68'
p143
sg44
S'56'
p144
sg46
g3
sg47
S'1967-68'
p145
sg49
S'262'
p146
sg51
g3
sg52
S'.589'
p147
sg54
S'98'
p148
sg55
S'714'
p149
sba(isrc.gp1.models.Totals
Totals
p150
(dp151
g8
g3
sg9
g3
sg11
g3
sg13
g3
sg14
g3
sg16
g3
sg18
g3
sg19
g3
sg21
g3
sg23
g3
sg25
g3
sg27
g3
sg28
g3
sg30
g3
sg31
g3
sg33
g3
sg34
S'31'
p152
sg36
S'Did Not Play\xc2\xa0(retired)'
p153
sg38
g3
sg40
g3
sg41
g3
sg43
g3
sg44
g3
sg46
g3
sg47
S'1968-69'
p154
sg49
g3
sg51
g3
sg52
g3
sg54
g3
sg55
g3
sba(isrc.gp1.models.Totals
Totals
p155
(dp156
g8
g3
sg9
S'.500'
p157
sg11
g42
sg13
g3
sg14
S'.500'
p158
sg16
S'4'
p159
sg18
g3
sg19
g20
sg21
g3
sg23
S'1'
p160
sg25
S'NBA'
p161
sg27
g3
sg28
S'.500'
p162
sg30
g3
sg31
g159
sg33
g3
sg34
S'32'
p163
sg36
S'ATL'
p164
sg38
g42
sg40
g3
sg41
S'0'
p165
sg43
S'3'
p166
sg44
g165
sg46
g3
sg47
S'1969-70'
p167
sg49
g159
sg51
g3
sg52
g159
sg54
g42
sg55
S'11'
p168
sbasS'_college'
p169
S'University of Tennessee'
p170
sS'_toYear'
p171
S'1970'
p172
sS'_height'
p173
S'6-8'
p174
sS'_active'
p175
I00
sS'_shootingHand'
p176
VRight
p177
sS'_name'
p178
S'Gene Tormohlen'
p179
sS'_per100Possessions'
p180
(lp181
sS'_advanced'
p182
(lp183
(isrc.gp1.models.Advanced
Advanced
p184
(dp185
S'_offensiveReboundPercentage'
p186
S'0.1'
p187
sS'_turnOverPercentage'
p188
g3
sS'_winSharesPer48Minutes'
p189
g3
sS'_stealPercentage'
p190
g3
sS'_usagePercentage'
p191
g3
sS'_totalReboundsPercentage'
p192
S'.056'
p193
sS'_defensiveBoxPlusMinus'
p194
g3
sg19
g20
sS'_valueOverReplacementPlayer'
p195
g3
sS'_trueShootingPercentage'
p196
S'.417'
p197
sS'_defensiveReboundPercentage'
p198
S'0.1'
p199
sS'_freeThrowsAttempRate'
p200
S'0.0'
p201
sS'_threePointsAttempRate'
p202
S'1.000'
p203
sg25
S'NBA'
p204
sS'_offensiveBoxPlusMinues'
p205
g3
sS'_assistPercentage'
p206
g3
sS'_defensiveWinShares'
p207
g3
sg34
S'25'
p208
sg36
S'STL'
p209
sg38
g39
sS'_blockPercentage'
p210
g3
sS'_playerEfficiencyRating'
p211
S'8.6'
p212
sS'_offensiveWinShares'
p213
g3
sg54
S'47'
p214
sS'_boxPlusMinus'
p215
g3
sg47
S'1962-63'
p216
sS'_winShares'
p217
g3
sba(isrc.gp1.models.Advanced
Advanced
p218
(dp219
g186
S'0.9'
p220
sg188
g3
sg189
g3
sg190
g3
sg191
g3
sg192
S'-0.002'
p221
sg194
g3
sg19
g20
sg195
g3
sg196
S'.389'
p222
sg198
S'0.0'
p223
sg200
S'-0.9'
p224
sg202
S'.184'
p225
sg25
S'NBA'
p226
sg205
g3
sg206
g3
sg207
g3
sg34
S'26'
p227
sg36
S'STL'
p228
sg38
S'51'
p229
sg210
g3
sg211
S'9.4'
p230
sg213
g3
sg54
S'640'
p231
sg215
g3
sg47
S'1963-64'
p232
sg217
g3
sba(isrc.gp1.models.Advanced
Advanced
p233
(dp234
g186
S'0.5'
p235
sg188
g3
sg189
g3
sg190
g3
sg191
g3
sg192
S'1.4'
p236
sg194
g3
sg19
g20
sg195
g3
sg196
S'.475'
p237
sg198
S'0.9'
p238
sg200
S'11.2'
p239
sg202
S'.253'
p240
sg25
S'NBA'
p241
sg205
g3
sg206
S'.088'
p242
sg207
g3
sg34
S'28'
p243
sg36
S'STL'
p244
sg38
S'71'
p245
sg210
g3
sg211
S'15.4'
p246
sg213
g3
sg54
S'775'
p247
sg215
g3
sg47
S'1965-66'
p248
sg217
g3
sba(isrc.gp1.models.Advanced
Advanced
p249
(dp250
g186
S'-0.2'
p251
sg188
g3
sg189
g3
sg190
g3
sg191
g3
sg192
S'0.8'
p252
sg194
g3
sg19
g20
sg195
g3
sg196
S'.448'
p253
sg198
S'1.0'
p254
sg200
S'9.5'
p255
sg202
S'.208'
p256
sg25
S'NBA'
p257
sg205
g3
sg206
S'.039'
p258
sg207
g3
sg34
S'29'
p259
sg36
S'STL'
p260
sg38
S'63'
p261
sg210
g3
sg211
S'11.9'
p262
sg213
g3
sg54
S'1036'
p263
sg215
g3
sg47
S'1966-67'
p264
sg217
g3
sba(isrc.gp1.models.Advanced
Advanced
p265
(dp266
g186
S'-0.9'
p267
sg188
g3
sg189
g3
sg190
g3
sg191
g3
sg192
S'0.0'
p268
sg194
g3
sg19
g20
sg195
g3
sg196
S'.399'
p269
sg198
S'0.9'
p270
sg200
S'12.8'
p271
sg202
S'.214'
p272
sg25
S'NBA'
p273
sg205
g3
sg206
S'-0.001'
p274
sg207
g3
sg34
S'30'
p275
sg36
S'STL'
p276
sg38
S'77'
p277
sg210
g3
sg211
S'10.5'
p278
sg213
g3
sg54
S'714'
p279
sg215
g3
sg47
S'1967-68'
p280
sg217
g3
sba(isrc.gp1.models.Advanced
Advanced
p281
(dp282
g186
S'0.0'
p283
sg188
g3
sg189
g3
sg190
g3
sg191
g3
sg192
S'0.0'
p284
sg194
g3
sg19
g20
sg195
g3
sg196
S'.500'
p285
sg198
S'0.0'
p286
sg200
S'11.6'
p287
sg202
S'.000'
p288
sg25
S'NBA'
p289
sg205
g3
sg206
S'.062'
p290
sg207
g3
sg34
S'32'
p291
sg36
S'ATL'
p292
sg38
g42
sg210
g3
sg211
S'11.4'
p293
sg213
g3
sg54
S'11'
p294
sg215
g3
sg47
S'1969-70'
p295
sg217
g3
sbasS'_per36Minutes'
p296
(lp297
(isrc.gp1.models.Per36Minutes
Per36Minutes
p298
(dp299
g8
g3
sg9
S'.500'
p300
sg11
S'3.8'
p301
sg13
g3
sg14
S'1.5'
p302
sg16
S'7.7'
p303
sg18
g3
sg19
g20
sg21
S'9.2'
p304
sg25
S'NBA'
p305
sg27
g3
sg28
S'.500'
p306
sg30
g3
sg31
S'8.4'
p307
sg33
g3
sg34
S'25'
p308
sg36
S'STL'
p309
sg38
g39
sg40
g3
sg41
S'7.7'
p310
sg43
S'3.8'
p311
sg44
S'.200'
p312
sg46
g3
sg47
S'1962-63'
p313
sg49
S'7.7'
p314
sg51
g3
sg52
S'11.5'
p315
sg54
S'3.8'
p316
sg55
S'47'
p317
sba(isrc.gp1.models.Per36Minutes
Per36Minutes
p318
(dp319
g8
g3
sg9
S'.376'
p320
sg11
S'5.3'
p321
sg13
g3
sg14
S'1.2'
p322
sg16
S'14.1'
p323
sg18
g3
sg19
g20
sg21
S'11.8'
p324
sg25
S'NBA'
p325
sg27
g3
sg28
S'.376'
p326
sg30
g3
sg31
S'7.2'
p327
sg33
g3
sg34
S'26'
p328
sg36
S'STL'
p329
sg38
S'51'
p330
sg40
g3
sg41
S'2.6'
p331
sg43
S'2.8'
p332
sg44
S'.478'
p333
sg46
g3
sg47
S'1963-64'
p334
sg49
S'14.1'
p335
sg51
g3
sg52
S'12.2'
p336
sg54
S'5.3'
p337
sg55
S'640'
p338
sba(isrc.gp1.models.Per36Minutes
Per36Minutes
p339
(dp340
g8
g3
sg9
S'.444'
p341
sg11
S'6.7'
p342
sg13
g3
sg14
S'2.5'
p343
sg16
S'15.1'
p344
sg18
g3
sg19
g20
sg21
S'15.9'
p345
sg25
S'NBA'
p346
sg27
g3
sg28
S'.444'
p347
sg30
g3
sg31
S'6.4'
p348
sg33
g3
sg34
S'28'
p349
sg36
S'STL'
p350
sg38
S'71'
p351
sg40
g3
sg41
S'3.8'
p352
sg43
S'2.8'
p353
sg44
S'.659'
p354
sg46
g3
sg47
S'1965-66'
p355
sg49
S'15.1'
p356
sg51
g3
sg52
S'14.6'
p357
sg54
S'6.7'
p358
sg55
S'775'
p359
sba(isrc.gp1.models.Per36Minutes
Per36Minutes
p360
(dp361
g8
g3
sg9
S'.427'
p362
sg11
S'6.0'
p363
sg13
g3
sg14
S'1.7'
p364
sg16
S'14.0'
p365
sg18
g3
sg19
g20
sg21
S'13.7'
p366
sg25
S'NBA'
p367
sg27
g3
sg28
S'.427'
p368
sg30
g3
sg31
S'6.2'
p369
sg33
g3
sg34
S'29'
p370
sg36
S'STL'
p371
sg38
S'63'
p372
sg40
g3
sg41
S'2.9'
p373
sg43
S'2.5'
p374
sg44
S'.595'
p375
sg46
g3
sg47
S'1966-67'
p376
sg49
S'14.0'
p377
sg51
g3
sg52
S'12.1'
p378
sg54
S'6.0'
p379
sg55
S'1036'
p380
sba(isrc.gp1.models.Per36Minutes
Per36Minutes
p381
(dp382
g8
g3
sg9
S'.374'
p383
sg11
S'4.9'
p384
sg13
g3
sg14
S'1.7'
p385
sg16
S'13.2'
p386
sg18
g3
sg19
g20
sg21
S'11.5'
p387
sg25
S'NBA'
p388
sg27
g3
sg28
S'.374'
p389
sg30
g3
sg31
S'4.7'
p390
sg33
g3
sg34
S'30'
p391
sg36
S'STL'
p392
sg38
S'77'
p393
sg40
g3
sg41
S'2.8'
p394
sg43
S'3.4'
p395
sg44
S'.589'
p396
sg46
g3
sg47
S'1967-68'
p397
sg49
S'13.2'
p398
sg51
g3
sg52
S'11.4'
p399
sg54
S'4.9'
p400
sg55
S'714'
p401
sba(isrc.gp1.models.Per36Minutes
Per36Minutes
p402
(dp403
g8
g3
sg9
S'.500'
p404
sg11
S'6.5'
p405
sg13
g3
sg14
S'0.0'
p406
sg16
S'13.1'
p407
sg18
g3
sg19
g20
sg21
g3
sg25
S'NBA'
p408
sg27
g3
sg28
S'.500'
p409
sg30
g3
sg31
S'13.1'
p410
sg33
g3
sg34
S'32'
p411
sg36
S'ATL'
p412
sg38
g42
sg40
g3
sg41
S'0.0'
p413
sg43
S'9.8'
p414
sg44
S'13.1'
p415
sg46
g3
sg47
S'1969-70'
p416
sg49
S'13.1'
p417
sg51
g3
sg52
S'3.3'
p418
sg54
S'6.5'
p419
sg55
S'11'
p420
sbasS'_fromYear'
p421
S'1963'
p422
sS'_url'
p423
S'http://www.basketball-reference.com/players/t/tormobu01.html'
p424
sS'_perGame'
p425
(isrc.gp1.models.PerGame
PerGame
p426
(dp427
g8
g3
sg9
S'.500'
p428
sg11
S'1.0'
p429
sS'_effectiveFieldGalPercentage'
p430
S'0.5'
p431
sg13
g3
sg14
S'.500'
p432
sg16
S'2.0'
p433
sg18
g3
sg19
g20
sg21
g3
sg25
S'NBA'
p434
sg27
g3
sg30
g3
sS'_fieldGoalsttempted'
p435
S'.500'
p436
sg31
S'2.0'
p437
sg33
g3
sg34
S'32'
p438
sg36
S'ATL'
p439
sg38
g42
sg40
g3
sg41
S'0.0'
p440
sg43
S'1.5'
p441
sg44
S'0.0'
p442
sg46
g3
sg47
S'1969-70'
p443
sg49
S'2.0'
p444
sg51
g3
sg52
S'2.0'
p445
sg54
S'1.0'
p446
sg55
S'5.5'
p447
sbsS'_weight'
p448
S'230'
p449
sS'_dob'
p450
S'12-5-1937'
p451
sS'_salary'
p452
(lp453
sg19
S'C-F'
p454
sb.