(isrc.gp1.models.Player
Player
p0
(dp1
S'_experience'
p2
S'NA'
p3
sS'_totals'
p4
(lp5
(isrc.gp1.models.Totals
Totals
p6
(dp7
S'_offensiveRebounds'
p8
g3
sS'_threePointsAttempted'
p9
g3
sS'_fieldGoalsPercentage'
p10
S'.267'
p11
sS'_assist'
p12
S'34'
p13
sS'_threePointsPercentage'
p14
g3
sS'_threePoints'
p15
g3
sS'_points'
p16
S'366'
p17
sS'_position'
p18
S'PG'
p19
sS'_freeThrowsPercentage'
p20
S'.661'
p21
sS'_effectiveFieldGoalPercentage'
p22
S'.267'
p23
sS'_league'
p24
S'BAA'
p25
sS'_steals'
p26
g3
sS'_fieldGoalsAttempted'
p27
S'531'
p28
sS'_personalFouls'
p29
S'83'
p30
sS'_freeThrowsAttempted'
p31
S'124'
p32
sS'_totalRebounds'
p33
g3
sS'_age'
p34
S'24'
p35
sS'_team'
p36
S'PHW'
p37
sS'_games'
p38
S'58'
p39
sS'_blocks'
p40
g3
sS'_twoPoints'
p41
S'142'
p42
sS'_freeThrows'
p43
S'82'
p44
sS'_twoPointsAttempted'
p45
S'531'
p46
sS'_defensiveRebounds'
p47
g3
sS'_season'
p48
S'1946-47'
p49
sS'_fieldGoals'
p50
S'142'
p51
sS'_turnOvers'
p52
g3
sS'_twoPointsPercentage'
p53
S'.267'
p54
sS'_minutesPlayed'
p55
g3
sS'_gamesStarted'
p56
g3
sba(isrc.gp1.models.Totals
Totals
p57
(dp58
g8
g3
sg9
g3
sg10
S'.277'
p59
sg12
S'52'
p60
sg14
g3
sg15
g3
sg16
S'414'
p61
sg18
S'PG'
p62
sg20
S'.667'
p63
sg22
S'.277'
p64
sg24
S'BAA'
p65
sg26
g3
sg27
S'570'
p66
sg29
S'90'
p67
sg31
S'147'
p68
sg33
g3
sg34
S'25'
p69
sg36
S'PHW'
p70
sg38
S'47'
p71
sg40
g3
sg41
S'158'
p72
sg43
S'98'
p73
sg45
S'570'
p74
sg47
g3
sg48
S'1947-48'
p75
sg50
S'158'
p76
sg52
g3
sg53
S'.277'
p77
sg55
g3
sg56
g3
sba(isrc.gp1.models.Totals
Totals
p78
(dp79
g8
g3
sg9
g3
sg10
S'.267'
p80
sg12
S'233'
p81
sg14
g3
sg15
g3
sg16
S'387'
p82
sg18
S'PG'
p83
sg20
S'.730'
p84
sg22
S'.267'
p85
sg24
S'BAA'
p86
sg26
g3
sg27
S'516'
p87
sg29
S'133'
p88
sg31
S'152'
p89
sg33
g3
sg34
S'26'
p90
sg36
S'PHW'
p91
sg38
S'60'
p92
sg40
g3
sg41
S'138'
p93
sg43
S'111'
p94
sg45
S'516'
p95
sg47
g3
sg48
S'1948-49'
p96
sg50
S'138'
p97
sg52
g3
sg53
S'.267'
p98
sg55
g3
sg56
g3
sba(isrc.gp1.models.Totals
Totals
p99
(dp100
g8
g3
sg9
g3
sg10
S'.320'
p101
sg12
S'264'
p102
sg14
g3
sg15
g3
sg16
S'611'
p103
sg18
S'PG'
p104
sg20
S'.704'
p105
sg22
S'.320'
p106
sg24
S'NBA'
p107
sg26
g3
sg27
S'709'
p108
sg29
S'164'
p109
sg31
S'223'
p110
sg33
g3
sg34
S'27'
p111
sg36
S'PHW'
p112
sg38
S'68'
p113
sg40
g3
sg41
S'227'
p114
sg43
S'157'
p115
sg45
S'709'
p116
sg47
g3
sg48
S'1949-50'
p117
sg50
S'227'
p118
sg52
g3
sg53
S'.320'
p119
sg55
g3
sg56
g3
sba(isrc.gp1.models.Totals
Totals
p120
(dp121
g8
g3
sg9
g3
sg10
S'.354'
p122
sg12
S'342'
p123
sg14
g3
sg15
g3
sg16
S'679'
p124
sg18
S'PG'
p125
sg20
S'.761'
p126
sg22
S'.354'
p127
sg24
S'NBA'
p128
sg26
g3
sg27
S'703'
p129
sg29
S'144'
p130
sg31
S'238'
p131
sg33
S'326'
p132
sg34
S'28'
p133
sg36
S'PHW'
p134
sg38
S'65'
p135
sg40
g3
sg41
S'249'
p136
sg43
S'181'
p137
sg45
S'703'
p138
sg47
g3
sg48
S'1950-51'
p139
sg50
S'249'
p140
sg52
g3
sg53
S'.354'
p141
sg55
g3
sg56
g3
sba(isrc.gp1.models.Totals
Totals
p142
(dp143
g8
g3
sg9
g3
sg10
S'.361'
p144
sg12
S'280'
p145
sg14
g3
sg15
g3
sg16
S'474'
p146
sg18
S'PG'
p147
sg20
S'.753'
p148
sg22
S'.361'
p149
sg24
S'NBA'
p150
sg26
g3
sg27
S'454'
p151
sg29
S'123'
p152
sg31
S'194'
p153
sg33
S'232'
p154
sg34
S'29'
p155
sg36
S'PHW'
p156
sg38
S'57'
p157
sg40
g3
sg41
S'164'
p158
sg43
S'146'
p159
sg45
S'454'
p160
sg47
g3
sg48
S'1951-52'
p161
sg50
S'164'
p162
sg52
g3
sg53
S'.361'
p163
sg55
S'1925'
p164
sg56
g3
sba(isrc.gp1.models.Totals
Totals
p165
(dp166
g8
g3
sg9
g3
sg10
S'.330'
p167
sg12
S'264'
p168
sg14
g3
sg15
g3
sg16
S'413'
p169
sg18
S'PG'
p170
sg20
S'.637'
p171
sg22
S'.330'
p172
sg24
S'NBA'
p173
sg26
g3
sg27
S'485'
p174
sg29
S'166'
p175
sg31
S'146'
p176
sg33
S'254'
p177
sg34
S'30'
p178
sg36
S'PHW'
p179
sg38
S'69'
p180
sg40
g3
sg41
S'160'
p181
sg43
S'93'
p182
sg45
S'485'
p183
sg47
g3
sg48
S'1952-53'
p184
sg50
S'160'
p185
sg52
g3
sg53
S'.330'
p186
sg55
S'2336'
p187
sg56
g3
sba(isrc.gp1.models.Totals
Totals
p188
(dp189
g8
g3
sg9
g3
sg10
S'.345'
p190
sg12
S'84'
p191
sg14
g3
sg15
g3
sg16
S'111'
p192
sg18
S'PG'
p193
sg20
S'.547'
p194
sg22
S'.345'
p195
sg24
S'NBA'
p196
sg26
g3
sg27
S'119'
p197
sg29
S'79'
p198
sg31
S'53'
p199
sg33
S'66'
p200
sg34
S'31'
p201
sg36
S'PHW'
p202
sg38
S'58'
p203
sg40
g3
sg41
S'41'
p204
sg43
S'29'
p205
sg45
S'119'
p206
sg47
g3
sg48
S'1953-54'
p207
sg50
S'41'
p208
sg52
g3
sg53
S'.345'
p209
sg55
S'771'
p210
sg56
g3
sbasS'_college'
p211
S"Saint Joseph's University"
p212
sS'_toYear'
p213
S'1954'
p214
sS'_height'
p215
S'6-2'
p216
sS'_active'
p217
I00
sS'_shootingHand'
p218
VRight
p219
sS'_name'
p220
S'George Senesky'
p221
sS'_per100Possessions'
p222
(lp223
sS'_advanced'
p224
(lp225
(isrc.gp1.models.Advanced
Advanced
p226
(dp227
S'_offensiveReboundPercentage'
p228
g3
sS'_turnOverPercentage'
p229
g3
sS'_winSharesPer48Minutes'
p230
g3
sS'_stealPercentage'
p231
g3
sS'_usagePercentage'
p232
g3
sS'_totalReboundsPercentage'
p233
g3
sS'_defensiveBoxPlusMinus'
p234
g3
sg18
S'PG'
p235
sS'_valueOverReplacementPlayer'
p236
g3
sS'_trueShootingPercentage'
p237
S'.313'
p238
sS'_defensiveReboundPercentage'
p239
g3
sS'_freeThrowsAttempRate'
p240
S'.234'
p241
sS'_threePointsAttempRate'
p242
g3
sg24
S'BAA'
p243
sS'_offensiveBoxPlusMinues'
p244
g3
sS'_assistPercentage'
p245
g3
sS'_defensiveWinShares'
p246
S'1.6'
p247
sg34
S'24'
p248
sg36
S'PHW'
p249
sg38
S'58'
p250
sS'_blockPercentage'
p251
g3
sS'_playerEfficiencyRating'
p252
g3
sS'_offensiveWinShares'
p253
S'0.7'
p254
sg55
g3
sS'_boxPlusMinus'
p255
g3
sg48
S'1946-47'
p256
sS'_winShares'
p257
S'2.3'
p258
sba(isrc.gp1.models.Advanced
Advanced
p259
(dp260
g228
g3
sg229
g3
sg230
g3
sg231
g3
sg232
g3
sg233
g3
sg234
g3
sg18
S'PG'
p261
sg236
g3
sg237
S'.326'
p262
sg239
g3
sg240
S'.258'
p263
sg242
g3
sg24
S'BAA'
p264
sg244
g3
sg245
g3
sg246
S'2.6'
p265
sg34
S'25'
p266
sg36
S'PHW'
p267
sg38
S'47'
p268
sg251
g3
sg252
g3
sg253
S'1.0'
p269
sg55
g3
sg255
g3
sg48
S'1947-48'
p270
sg257
S'3.6'
p271
sba(isrc.gp1.models.Advanced
Advanced
p272
(dp273
g228
g3
sg229
g3
sg230
g3
sg231
g3
sg232
g3
sg233
g3
sg234
g3
sg18
S'PG'
p274
sg236
g3
sg237
S'.332'
p275
sg239
g3
sg240
S'.295'
p276
sg242
g3
sg24
S'BAA'
p277
sg244
g3
sg245
g3
sg246
S'2.4'
p278
sg34
S'26'
p279
sg36
S'PHW'
p280
sg38
S'60'
p281
sg251
g3
sg252
g3
sg253
S'-0.4'
p282
sg55
g3
sg255
g3
sg48
S'1948-49'
p283
sg257
S'2.0'
p284
sba(isrc.gp1.models.Advanced
Advanced
p285
(dp286
g228
g3
sg229
g3
sg230
g3
sg231
g3
sg232
g3
sg233
g3
sg234
g3
sg18
S'PG'
p287
sg236
g3
sg237
S'.379'
p288
sg239
g3
sg240
S'.315'
p289
sg242
g3
sg24
S'NBA'
p290
sg244
g3
sg245
g3
sg246
S'3.7'
p291
sg34
S'27'
p292
sg36
S'PHW'
p293
sg38
S'68'
p294
sg251
g3
sg252
g3
sg253
S'0.7'
p295
sg55
g3
sg255
g3
sg48
S'1949-50'
p296
sg257
S'4.4'
p297
sba(isrc.gp1.models.Advanced
Advanced
p298
(dp299
g228
g3
sg229
g3
sg230
g3
sg231
g3
sg232
g3
sg233
g3
sg234
g3
sg18
S'PG'
p300
sg236
g3
sg237
S'.420'
p301
sg239
g3
sg240
S'.339'
p302
sg242
g3
sg24
S'NBA'
p303
sg244
g3
sg245
g3
sg246
S'3.9'
p304
sg34
S'28'
p305
sg36
S'PHW'
p306
sg38
S'65'
p307
sg251
g3
sg252
g3
sg253
S'2.3'
p308
sg55
g3
sg255
g3
sg48
S'1950-51'
p309
sg257
S'6.2'
p310
sba(isrc.gp1.models.Advanced
Advanced
p311
(dp312
g228
g3
sg229
g3
sg230
S'.066'
p313
sg231
g3
sg232
g3
sg233
g3
sg234
g3
sg18
S'PG'
p314
sg236
g3
sg237
S'.439'
p315
sg239
g3
sg240
S'.427'
p316
sg242
g3
sg24
S'NBA'
p317
sg244
g3
sg245
g3
sg246
S'0.7'
p318
sg34
S'29'
p319
sg36
S'PHW'
p320
sg38
S'57'
p321
sg251
g3
sg252
S'13.3'
p322
sg253
S'1.9'
p323
sg55
S'1925'
p324
sg255
g3
sg48
S'1951-52'
p325
sg257
S'2.6'
p326
sba(isrc.gp1.models.Advanced
Advanced
p327
(dp328
g228
g3
sg229
g3
sg230
S'.006'
p329
sg231
g3
sg232
g3
sg233
g3
sg234
g3
sg18
S'PG'
p330
sg236
g3
sg237
S'.376'
p331
sg239
g3
sg240
S'.301'
p332
sg242
g3
sg24
S'NBA'
p333
sg244
g3
sg245
g3
sg246
S'1.2'
p334
sg34
S'30'
p335
sg36
S'PHW'
p336
sg38
S'69'
p337
sg251
g3
sg252
S'9.0'
p338
sg253
S'-0.9'
p339
sg55
S'2336'
p340
sg255
g3
sg48
S'1952-53'
p341
sg257
S'0.3'
p342
sba(isrc.gp1.models.Advanced
Advanced
p343
(dp344
g228
g3
sg229
g3
sg230
S'.032'
p345
sg231
g3
sg232
g3
sg233
g3
sg234
g3
sg18
S'PG'
p346
sg236
g3
sg237
S'.390'
p347
sg239
g3
sg240
S'.445'
p348
sg242
g3
sg24
S'NBA'
p349
sg244
g3
sg245
g3
sg246
S'0.5'
p350
sg34
S'31'
p351
sg36
S'PHW'
p352
sg38
S'58'
p353
sg251
g3
sg252
S'7.3'
p354
sg253
S'0.0'
p355
sg55
S'771'
p356
sg255
g3
sg48
S'1953-54'
p357
sg257
S'0.5'
p358
sbasS'_per36Minutes'
p359
(lp360
(isrc.gp1.models.Per36Minutes
Per36Minutes
p361
(dp362
g8
g3
sg9
g3
sg10
S'.267'
p363
sg12
g3
sg14
g3
sg15
g3
sg16
g3
sg18
S'PG'
p364
sg20
S'.661'
p365
sg24
S'BAA'
p366
sg26
g3
sg27
g3
sg29
g3
sg31
g3
sg33
g3
sg34
S'24'
p367
sg36
S'PHW'
p368
sg38
S'58'
p369
sg40
g3
sg41
g3
sg43
g3
sg45
g3
sg47
g3
sg48
S'1946-47'
p370
sg50
g3
sg52
g3
sg53
S'.267'
p371
sg55
g3
sg56
g3
sba(isrc.gp1.models.Per36Minutes
Per36Minutes
p372
(dp373
g8
g3
sg9
g3
sg10
S'.277'
p374
sg12
g3
sg14
g3
sg15
g3
sg16
g3
sg18
S'PG'
p375
sg20
S'.667'
p376
sg24
S'BAA'
p377
sg26
g3
sg27
g3
sg29
g3
sg31
g3
sg33
g3
sg34
S'25'
p378
sg36
S'PHW'
p379
sg38
S'47'
p380
sg40
g3
sg41
g3
sg43
g3
sg45
g3
sg47
g3
sg48
S'1947-48'
p381
sg50
g3
sg52
g3
sg53
S'.277'
p382
sg55
g3
sg56
g3
sba(isrc.gp1.models.Per36Minutes
Per36Minutes
p383
(dp384
g8
g3
sg9
g3
sg10
S'.267'
p385
sg12
g3
sg14
g3
sg15
g3
sg16
g3
sg18
S'PG'
p386
sg20
S'.730'
p387
sg24
S'BAA'
p388
sg26
g3
sg27
g3
sg29
g3
sg31
g3
sg33
g3
sg34
S'26'
p389
sg36
S'PHW'
p390
sg38
S'60'
p391
sg40
g3
sg41
g3
sg43
g3
sg45
g3
sg47
g3
sg48
S'1948-49'
p392
sg50
g3
sg52
g3
sg53
S'.267'
p393
sg55
g3
sg56
g3
sba(isrc.gp1.models.Per36Minutes
Per36Minutes
p394
(dp395
g8
g3
sg9
g3
sg10
S'.320'
p396
sg12
g3
sg14
g3
sg15
g3
sg16
g3
sg18
S'PG'
p397
sg20
S'.704'
p398
sg24
S'NBA'
p399
sg26
g3
sg27
g3
sg29
g3
sg31
g3
sg33
g3
sg34
S'27'
p400
sg36
S'PHW'
p401
sg38
S'68'
p402
sg40
g3
sg41
g3
sg43
g3
sg45
g3
sg47
g3
sg48
S'1949-50'
p403
sg50
g3
sg52
g3
sg53
S'.320'
p404
sg55
g3
sg56
g3
sba(isrc.gp1.models.Per36Minutes
Per36Minutes
p405
(dp406
g8
g3
sg9
g3
sg10
S'.354'
p407
sg12
g3
sg14
g3
sg15
g3
sg16
g3
sg18
S'PG'
p408
sg20
S'.761'
p409
sg24
S'NBA'
p410
sg26
g3
sg27
g3
sg29
g3
sg31
g3
sg33
g3
sg34
S'28'
p411
sg36
S'PHW'
p412
sg38
S'65'
p413
sg40
g3
sg41
g3
sg43
g3
sg45
g3
sg47
g3
sg48
S'1950-51'
p414
sg50
g3
sg52
g3
sg53
S'.354'
p415
sg55
g3
sg56
g3
sba(isrc.gp1.models.Per36Minutes
Per36Minutes
p416
(dp417
g8
g3
sg9
g3
sg10
S'.361'
p418
sg12
S'5.2'
p419
sg14
g3
sg15
g3
sg16
S'8.9'
p420
sg18
S'PG'
p421
sg20
S'.753'
p422
sg24
S'NBA'
p423
sg26
g3
sg27
S'8.5'
p424
sg29
S'2.3'
p425
sg31
S'3.6'
p426
sg33
S'4.3'
p427
sg34
S'29'
p428
sg36
S'PHW'
p429
sg38
S'57'
p430
sg40
g3
sg41
S'3.1'
p431
sg43
S'2.7'
p432
sg45
S'8.5'
p433
sg47
g3
sg48
S'1951-52'
p434
sg50
S'3.1'
p435
sg52
g3
sg53
S'.361'
p436
sg55
S'1925'
p437
sg56
g3
sba(isrc.gp1.models.Per36Minutes
Per36Minutes
p438
(dp439
g8
g3
sg9
g3
sg10
S'.330'
p440
sg12
S'4.1'
p441
sg14
g3
sg15
g3
sg16
S'6.4'
p442
sg18
S'PG'
p443
sg20
S'.637'
p444
sg24
S'NBA'
p445
sg26
g3
sg27
S'7.5'
p446
sg29
S'2.6'
p447
sg31
S'2.3'
p448
sg33
S'3.9'
p449
sg34
S'30'
p450
sg36
S'PHW'
p451
sg38
S'69'
p452
sg40
g3
sg41
S'2.5'
p453
sg43
S'1.4'
p454
sg45
S'7.5'
p455
sg47
g3
sg48
S'1952-53'
p456
sg50
S'2.5'
p457
sg52
g3
sg53
S'.330'
p458
sg55
S'2336'
p459
sg56
g3
sba(isrc.gp1.models.Per36Minutes
Per36Minutes
p460
(dp461
g8
g3
sg9
g3
sg10
S'.345'
p462
sg12
S'3.9'
p463
sg14
g3
sg15
g3
sg16
S'5.2'
p464
sg18
S'PG'
p465
sg20
S'.547'
p466
sg24
S'NBA'
p467
sg26
g3
sg27
S'5.6'
p468
sg29
S'3.7'
p469
sg31
S'2.5'
p470
sg33
S'3.1'
p471
sg34
S'31'
p472
sg36
S'PHW'
p473
sg38
S'58'
p474
sg40
g3
sg41
S'1.9'
p475
sg43
S'1.4'
p476
sg45
S'5.6'
p477
sg47
g3
sg48
S'1953-54'
p478
sg50
S'1.9'
p479
sg52
g3
sg53
S'.345'
p480
sg55
S'771'
p481
sg56
g3
sbasS'_fromYear'
p482
S'1947'
p483
sS'_url'
p484
S'http://www.basketball-reference.com/players/s/senesge01.html'
p485
sS'_perGame'
p486
(isrc.gp1.models.PerGame
PerGame
p487
(dp488
g8
g3
sg9
g3
sg10
S'.345'
p489
sS'_effectiveFieldGalPercentage'
p490
S'.345'
p491
sg12
S'1.4'
p492
sg14
g3
sg15
g3
sg16
S'1.9'
p493
sg18
S'PG'
p494
sg20
S'.547'
p495
sg24
S'NBA'
p496
sg26
g3
sg29
S'1.4'
p497
sS'_fieldGoalsttempted'
p498
S'2.1'
p499
sg31
S'0.9'
p500
sg33
S'1.1'
p501
sg34
S'31'
p502
sg36
S'PHW'
p503
sg38
S'58'
p504
sg40
g3
sg41
S'0.7'
p505
sg43
S'0.5'
p506
sg45
S'2.1'
p507
sg47
g3
sg48
S'1953-54'
p508
sg50
S'0.7'
p509
sg52
g3
sg53
S'.345'
p510
sg55
S'13.3'
p511
sg56
g3
sbsS'_weight'
p512
S'179'
p513
sS'_dob'
p514
S'4-4-1922'
p515
sS'_salary'
p516
(lp517
sg18
S'G'
p518
sb.