(isrc.gp1.models.Player
Player
p0
(dp1
S'_experience'
p2
S'NA'
p3
sS'_totals'
p4
(lp5
(isrc.gp1.models.Totals
Totals
p6
(dp7
S'_offensiveRebounds'
p8
g3
sS'_threePointsAttempted'
p9
S'.369'
p10
sS'_fieldGoalsPercentage'
p11
S'439'
p12
sS'_assist'
p13
g3
sS'_threePointsPercentage'
p14
S'211'
p15
sS'_threePoints'
p16
S'.369'
p17
sS'_points'
p18
g3
sS'_position'
p19
S'PF'
p20
sS'_freeThrowsPercentage'
p21
g3
sS'_effectiveFieldGoalPercentage'
p22
S'201'
p23
sS'_league'
p24
S'NBA'
p25
sS'_steals'
p26
g3
sS'_fieldGoalsAttempted'
p27
S'162'
p28
sS'_personalFouls'
p29
g3
sS'_freeThrowsAttempted'
p30
g3
sS'_totalRebounds'
p31
g3
sS'_age'
p32
S'27'
p33
sS'_team'
p34
S'SYR'
p35
sS'_games'
p36
S'62'
p37
sS'_blocks'
p38
g3
sS'_twoPoints'
p39
S'348'
p40
sS'_freeThrows'
p41
S'535'
p42
sS'_twoPointsAttempted'
p43
S'.606'
p44
sS'_defensiveRebounds'
p45
g3
sS'_season'
p46
S'1949-50'
p47
sS'_fieldGoals'
p48
S'.369'
p49
sS'_turnOvers'
p50
g3
sS'_twoPointsPercentage'
p51
S'124'
p52
sS'_minutesPlayed'
p53
S'439'
p54
sS'_gamesStarted'
p55
S'162'
p56
sba(isrc.gp1.models.Totals
Totals
p57
(dp58
g8
g3
sg9
S'.415'
p59
sg11
S'636'
p60
sg13
g3
sg14
S'321'
p61
sg16
S'.415'
p62
sg18
g3
sg19
S'PF'
p63
sg21
g3
sg22
S'193'
p64
sg24
S'NBA'
p65
sg26
g3
sg27
S'264'
p66
sg29
g3
sg30
S'849'
p67
sg31
g3
sg32
S'28'
p68
sg34
S'SYR'
p69
sg36
S'66'
p70
sg38
g3
sg39
S'439'
p71
sg41
S'256'
p72
sg43
S'.731'
p73
sg45
g3
sg46
S'1950-51'
p74
sg48
S'.415'
p75
sg50
g3
sg51
S'547'
p76
sg53
S'636'
p77
sg55
S'264'
p78
sba(isrc.gp1.models.Totals
Totals
p79
(dp80
g8
g3
sg9
S'.349'
p81
sg11
S'165'
p82
sg13
g3
sg14
S'.349'
p83
sg16
S'473'
p84
sg18
g3
sg19
S'PF'
p85
sg21
S'493'
p86
sg22
S'328'
p87
sg24
S'NBA'
p88
sg26
g3
sg27
S'.349'
p89
sg29
g3
sg30
S'235'
p90
sg31
g3
sg32
S'29'
p91
sg34
S'SYR'
p92
sg36
S'66'
p93
sg38
g3
sg39
S'163'
p94
sg41
S'90'
p95
sg43
S'242'
p96
sg45
g3
sg46
S'1951-52'
p97
sg48
S'473'
p98
sg50
g3
sg51
S'.674'
p99
sg53
S'165'
p100
sg55
S'1356'
p101
sba(isrc.gp1.models.Totals
Totals
p102
(dp103
g8
g3
sg9
S'.336'
p104
sg11
S'208'
p105
sg13
g3
sg14
S'.336'
p106
sg16
S'619'
p107
sg18
g3
sg19
S'PF'
p108
sg21
S'678'
p109
sg22
S'522'
p110
sg24
S'NBA'
p111
sg26
g3
sg27
S'.336'
p112
sg29
g3
sg30
S'287'
p113
sg31
g3
sg32
S'30'
p114
sg34
S'TOT'
p115
sg36
S'71'
p116
sg38
g3
sg39
S'262'
p117
sg41
S'217'
p118
sg43
S'373'
p119
sg45
g3
sg46
S'1952-53'
p120
sg48
S'619'
p121
sg50
g3
sg51
S'.702'
p122
sg53
S'208'
p123
sg55
S'2235'
p124
sba(isrc.gp1.models.Totals
Totals
p125
(dp126
g8
g3
sg9
S'.372'
p127
sg11
S'16'
p128
sg13
g3
sg14
S'.372'
p129
sg16
S'43'
p130
sg18
g3
sg19
S'PF'
p131
sg21
S'51'
p132
sg22
S'52'
p133
sg24
S'NBA'
p134
sg26
g3
sg27
S'.372'
p135
sg29
g3
sg30
S'33'
p136
sg31
g3
sg32
S'30'
p137
sg34
S'BLB'
p138
sg36
S'10'
p139
sg38
g3
sg39
S'19'
p140
sg41
S'18'
p141
sg43
S'37'
p142
sg45
g3
sg46
S'1952-53'
p143
sg48
S'43'
p144
sg50
g3
sg51
S'.514'
p145
sg53
S'16'
p146
sg55
S'197'
p147
sba(isrc.gp1.models.Totals
Totals
p148
(dp149
g8
g3
sg9
S'.333'
p150
sg11
S'192'
p151
sg13
g3
sg14
S'.333'
p152
sg16
S'576'
p153
sg18
g3
sg19
S'PF'
p154
sg21
S'627'
p155
sg22
S'470'
p156
sg24
S'NBA'
p157
sg26
g3
sg27
S'.333'
p158
sg29
g3
sg30
S'254'
p159
sg31
g3
sg32
S'30'
p160
sg34
S'MLH'
p161
sg36
S'61'
p162
sg38
g3
sg39
S'243'
p163
sg41
S'199'
p164
sg43
S'336'
p165
sg45
g3
sg46
S'1952-53'
p166
sg48
S'576'
p167
sg50
g3
sg51
S'.723'
p168
sg53
S'192'
p169
sg55
S'2038'
p170
sba(isrc.gp1.models.Totals
Totals
p171
(dp172
g8
g3
sg9
S'.393'
p173
sg11
S'197'
p174
sg13
g3
sg14
S'.393'
p175
sg16
S'501'
p176
sg18
g3
sg19
S'PF'
p177
sg21
S'570'
p178
sg22
S'523'
p179
sg24
S'NBA'
p180
sg26
g3
sg27
S'.393'
p181
sg29
g3
sg30
S'255'
p182
sg31
g3
sg32
S'31'
p183
sg34
S'MLH'
p184
sg36
S'69'
p185
sg38
g3
sg39
S'176'
p186
sg41
S'154'
p187
sg43
S'273'
p188
sg45
g3
sg46
S'1953-54'
p189
sg48
S'501'
p190
sg50
g3
sg51
S'.645'
p191
sg53
S'197'
p192
sg55
S'2170'
p193
sba(isrc.gp1.models.Totals
Totals
p194
(dp195
g8
g3
sg9
S'.158'
p196
sg11
S'3'
p197
sg13
g3
sg14
S'.158'
p198
sg16
S'19'
p199
sg18
g3
sg19
S'PF'
p200
sg21
S'16'
p201
sg22
S'17'
p202
sg24
S'NBA'
p203
sg26
g3
sg27
S'.158'
p204
sg29
g3
sg30
S'15'
p205
sg31
g3
sg32
S'32'
p206
sg34
S'MLH'
p207
sg36
S'9'
p208
sg38
g3
sg39
S'10'
p209
sg41
S'13'
p210
sg43
S'23'
p211
sg45
g3
sg46
S'1954-55'
p212
sg48
S'19'
p213
sg50
g3
sg51
S'.435'
p214
sg53
g197
sg55
S'102'
p215
sbasS'_college'
p216
S'NA'
p217
sS'_toYear'
p218
S'1955'
p219
sS'_height'
p220
S'6-6'
p221
sS'_active'
p222
I00
sS'_shootingHand'
p223
VRight
p224
sS'_name'
p225
S'George Ratkovicz'
p226
sS'_per100Possessions'
p227
(lp228
sS'_advanced'
p229
(lp230
(isrc.gp1.models.Advanced
Advanced
p231
(dp232
S'_offensiveReboundPercentage'
p233
g3
sS'_turnOverPercentage'
p234
g3
sS'_winSharesPer48Minutes'
p235
g3
sS'_stealPercentage'
p236
g3
sS'_usagePercentage'
p237
g3
sS'_totalReboundsPercentage'
p238
g3
sS'_defensiveBoxPlusMinus'
p239
g3
sg19
S'PF'
p240
sS'_valueOverReplacementPlayer'
p241
g3
sS'_trueShootingPercentage'
p242
S'3.4'
p243
sS'_defensiveReboundPercentage'
p244
g3
sS'_freeThrowsAttempRate'
p245
S'6.0'
p246
sS'_threePointsAttempRate'
p247
S'2.6'
p248
sg24
S'NBA'
p249
sS'_offensiveBoxPlusMinues'
p250
g3
sS'_assistPercentage'
p251
g3
sS'_defensiveWinShares'
p252
g3
sg32
S'27'
p253
sg34
S'SYR'
p254
sg36
S'62'
p255
sS'_blockPercentage'
p256
g3
sS'_playerEfficiencyRating'
p257
S'.793'
p258
sS'_offensiveWinShares'
p259
g3
sg53
S'.452'
p260
sS'_boxPlusMinus'
p261
g3
sg46
S'1949-50'
p262
sS'_winShares'
p263
g3
sba(isrc.gp1.models.Advanced
Advanced
p264
(dp265
g233
g3
sg234
g3
sg235
g3
sg236
g3
sg237
g3
sg238
g3
sg239
g3
sg19
S'PF'
p266
sg241
g3
sg242
S'7.1'
p267
sg244
g3
sg245
S'9.3'
p268
sg247
S'2.2'
p269
sg24
S'NBA'
p270
sg250
g3
sg251
g3
sg252
g3
sg32
S'28'
p271
sg34
S'SYR'
p272
sg36
S'66'
p273
sg256
g3
sg257
S'.690'
p274
sg259
g3
sg53
S'.512'
p275
sg261
g3
sg46
S'1950-51'
p276
sg263
g3
sba(isrc.gp1.models.Advanced
Advanced
p277
(dp278
g233
S'1.9'
p279
sg234
g3
sg235
g3
sg236
g3
sg237
g3
sg238
S'.098'
p280
sg239
g3
sg19
S'PF'
p281
sg241
g3
sg242
S'.425'
p282
sg244
S'2.8'
p283
sg245
S'0.8'
p284
sg247
S'.512'
p285
sg24
S'NBA'
p286
sg250
g3
sg251
g3
sg252
g3
sg32
S'29'
p287
sg34
S'SYR'
p288
sg36
S'66'
p289
sg256
g3
sg257
S'13.4'
p290
sg259
g3
sg53
S'1356'
p291
sg261
g3
sg46
S'1951-52'
p292
sg263
g3
sba(isrc.gp1.models.Advanced
Advanced
p293
(dp294
g233
S'3.8'
p295
sg234
g3
sg235
g3
sg236
g3
sg237
g3
sg238
S'.117'
p296
sg239
g3
sg19
S'PF'
p297
sg241
g3
sg242
S'.433'
p298
sg244
S'5.4'
p299
sg245
S'1.7'
p300
sg247
S'.603'
p301
sg24
S'NBA'
p302
sg250
g3
sg251
g3
sg252
g3
sg32
S'30'
p303
sg34
S'TOT'
p304
sg36
S'71'
p305
sg256
g3
sg257
S'16.1'
p306
sg259
g3
sg53
S'2235'
p307
sg261
g3
sg46
S'1952-53'
p308
sg263
g3
sba(isrc.gp1.models.Advanced
Advanced
p309
(dp310
g233
S'0.1'
p311
sg234
g3
sg235
g3
sg236
g3
sg237
g3
sg238
S'.040'
p312
sg239
g3
sg19
S'PF'
p313
sg241
g3
sg242
S'.430'
p314
sg244
S'0.2'
p315
sg245
S'0.1'
p316
sg247
S'.860'
p317
sg24
S'NBA'
p318
sg250
g3
sg251
g3
sg252
g3
sg32
S'30'
p319
sg34
S'BLB'
p320
sg36
S'10'
p321
sg256
g3
sg257
S'12.8'
p322
sg259
g3
sg53
S'197'
p323
sg261
g3
sg46
S'1952-53'
p324
sg263
g3
sba(isrc.gp1.models.Advanced
Advanced
p325
(dp326
g233
S'3.7'
p327
sg234
g3
sg235
g3
sg236
g3
sg237
g3
sg238
S'.124'
p328
sg239
g3
sg19
S'PF'
p329
sg241
g3
sg242
S'.433'
p330
sg244
S'5.3'
p331
sg245
S'1.6'
p332
sg247
S'.583'
p333
sg24
S'NBA'
p334
sg250
g3
sg251
g3
sg252
g3
sg32
S'30'
p335
sg34
S'MLH'
p336
sg36
S'61'
p337
sg256
g3
sg257
S'16.4'
p338
sg259
g3
sg53
S'2038'
p339
sg261
g3
sg46
S'1952-53'
p340
sg263
g3
sba(isrc.gp1.models.Advanced
Advanced
p341
(dp342
g233
S'2.4'
p343
sg234
g3
sg235
g3
sg236
g3
sg237
g3
sg238
S'.116'
p344
sg239
g3
sg19
S'PF'
p345
sg241
g3
sg242
S'.459'
p346
sg244
S'5.2'
p347
sg245
S'2.8'
p348
sg247
S'.545'
p349
sg24
S'NBA'
p350
sg250
g3
sg251
g3
sg252
g3
sg32
S'31'
p351
sg34
S'MLH'
p352
sg36
S'69'
p353
sg256
g3
sg257
S'15.3'
p354
sg259
g3
sg53
S'2170'
p355
sg261
g3
sg46
S'1953-54'
p356
sg263
g3
sba(isrc.gp1.models.Advanced
Advanced
p357
(dp358
g233
S'0.1'
p359
sg234
g3
sg235
g3
sg236
g3
sg237
g3
sg238
S'-0.065'
p360
sg239
g3
sg19
S'PF'
p361
sg241
g3
sg242
S'.275'
p362
sg244
S'-0.1'
p363
sg245
S'-0.3'
p364
sg247
S'1.211'
p365
sg24
S'NBA'
p366
sg250
g3
sg251
g3
sg252
g3
sg32
S'32'
p367
sg34
S'MLH'
p368
sg36
g208
sg256
g3
sg257
S'4.1'
p369
sg259
g3
sg53
S'102'
p370
sg261
g3
sg46
S'1954-55'
p371
sg263
g3
sbasS'_per36Minutes'
p372
(lp373
(isrc.gp1.models.Per36Minutes
Per36Minutes
p374
(dp375
g8
g3
sg9
g3
sg11
g3
sg13
g3
sg14
g3
sg16
g3
sg18
g3
sg19
S'PF'
p376
sg21
g3
sg24
S'NBA'
p377
sg26
g3
sg27
g3
sg29
g3
sg30
g3
sg31
g3
sg32
S'27'
p378
sg34
S'SYR'
p379
sg36
S'62'
p380
sg38
g3
sg39
g3
sg41
g3
sg43
g3
sg45
g3
sg46
S'1949-50'
p381
sg48
S'.606'
p382
sg50
g3
sg51
g3
sg53
S'.369'
p383
sg55
S'.369'
p384
sba(isrc.gp1.models.Per36Minutes
Per36Minutes
p385
(dp386
g8
g3
sg9
g3
sg11
g3
sg13
g3
sg14
g3
sg16
g3
sg18
g3
sg19
S'PF'
p387
sg21
g3
sg24
S'NBA'
p388
sg26
g3
sg27
g3
sg29
g3
sg30
g3
sg31
g3
sg32
S'28'
p389
sg34
S'SYR'
p390
sg36
S'66'
p391
sg38
g3
sg39
g3
sg41
g3
sg43
g3
sg45
g3
sg46
S'1950-51'
p392
sg48
S'.731'
p393
sg50
g3
sg51
g3
sg53
S'.415'
p394
sg55
S'.415'
p395
sba(isrc.gp1.models.Per36Minutes
Per36Minutes
p396
(dp397
g8
g3
sg9
S'.349'
p398
sg11
S'4.4'
p399
sg13
g3
sg14
S'4.3'
p400
sg16
S'12.6'
p401
sg18
g3
sg19
S'PF'
p402
sg21
S'13.1'
p403
sg24
S'NBA'
p404
sg26
g3
sg27
S'.349'
p405
sg29
g3
sg30
S'6.2'
p406
sg31
g3
sg32
S'29'
p407
sg34
S'SYR'
p408
sg36
S'66'
p409
sg38
g3
sg39
S'6.4'
p410
sg41
S'2.4'
p411
sg43
S'.674'
p412
sg45
g3
sg46
S'1951-52'
p413
sg48
S'12.6'
p414
sg50
g3
sg51
S'8.7'
p415
sg53
S'4.4'
p416
sg55
S'1356'
p417
sba(isrc.gp1.models.Per36Minutes
Per36Minutes
p418
(dp419
g8
g3
sg9
S'.336'
p420
sg11
S'3.4'
p421
sg13
g3
sg14
S'4.2'
p422
sg16
S'10.0'
p423
sg18
g3
sg19
S'PF'
p424
sg21
S'10.9'
p425
sg24
S'NBA'
p426
sg26
g3
sg27
S'.336'
p427
sg29
g3
sg30
S'4.6'
p428
sg31
g3
sg32
S'30'
p429
sg34
S'TOT'
p430
sg36
S'71'
p431
sg38
g3
sg39
S'6.0'
p432
sg41
S'3.5'
p433
sg43
S'.702'
p434
sg45
g3
sg46
S'1952-53'
p435
sg48
S'10.0'
p436
sg50
g3
sg51
S'8.4'
p437
sg53
S'3.4'
p438
sg55
S'2235'
p439
sba(isrc.gp1.models.Per36Minutes
Per36Minutes
p440
(dp441
g8
g3
sg9
S'.372'
p442
sg11
S'2.9'
p443
sg13
g3
sg14
S'3.5'
p444
sg16
S'7.9'
p445
sg18
g3
sg19
S'PF'
p446
sg21
S'9.3'
p447
sg24
S'NBA'
p448
sg26
g3
sg27
S'.372'
p449
sg29
g3
sg30
S'6.0'
p450
sg31
g3
sg32
S'30'
p451
sg34
S'BLB'
p452
sg36
S'10'
p453
sg38
g3
sg39
S'6.8'
p454
sg41
S'3.3'
p455
sg43
S'.514'
p456
sg45
g3
sg46
S'1952-53'
p457
sg48
S'7.9'
p458
sg50
g3
sg51
S'9.5'
p459
sg53
S'2.9'
p460
sg55
S'197'
p461
sba(isrc.gp1.models.Per36Minutes
Per36Minutes
p462
(dp463
g8
g3
sg9
S'.333'
p464
sg11
S'3.4'
p465
sg13
g3
sg14
S'4.3'
p466
sg16
S'10.2'
p467
sg18
g3
sg19
S'PF'
p468
sg21
S'11.1'
p469
sg24
S'NBA'
p470
sg26
g3
sg27
S'.333'
p471
sg29
g3
sg30
S'4.5'
p472
sg31
g3
sg32
S'30'
p473
sg34
S'MLH'
p474
sg36
S'61'
p475
sg38
g3
sg39
S'5.9'
p476
sg41
S'3.5'
p477
sg43
S'.723'
p478
sg45
g3
sg46
S'1952-53'
p479
sg48
S'10.2'
p480
sg50
g3
sg51
S'8.3'
p481
sg53
S'3.4'
p482
sg55
S'2038'
p483
sba(isrc.gp1.models.Per36Minutes
Per36Minutes
p484
(dp485
g8
g3
sg9
S'.393'
p486
sg11
S'3.3'
p487
sg13
g3
sg14
S'2.9'
p488
sg16
S'8.3'
p489
sg18
g3
sg19
S'PF'
p490
sg21
S'9.5'
p491
sg24
S'NBA'
p492
sg26
g3
sg27
S'.393'
p493
sg29
g3
sg30
S'4.2'
p494
sg31
g3
sg32
S'31'
p495
sg34
S'MLH'
p496
sg36
S'69'
p497
sg38
g3
sg39
S'4.5'
p498
sg41
S'2.6'
p499
sg43
S'.645'
p500
sg45
g3
sg46
S'1953-54'
p501
sg48
S'8.3'
p502
sg50
g3
sg51
S'8.7'
p503
sg53
S'3.3'
p504
sg55
S'2170'
p505
sba(isrc.gp1.models.Per36Minutes
Per36Minutes
p506
(dp507
g8
g3
sg9
S'.158'
p508
sg11
S'1.1'
p509
sg13
g3
sg14
S'3.5'
p510
sg16
S'6.7'
p511
sg18
g3
sg19
S'PF'
p512
sg21
S'5.6'
p513
sg24
S'NBA'
p514
sg26
g3
sg27
S'.158'
p515
sg29
g3
sg30
S'5.3'
p516
sg31
g3
sg32
S'32'
p517
sg34
S'MLH'
p518
sg36
g208
sg38
g3
sg39
S'8.1'
p519
sg41
S'4.6'
p520
sg43
S'.435'
p521
sg45
g3
sg46
S'1954-55'
p522
sg48
S'6.7'
p523
sg50
g3
sg51
S'6.0'
p524
sg53
S'1.1'
p525
sg55
S'102'
p526
sbasS'_fromYear'
p527
S'1950'
p528
sS'_url'
p529
S'http://www.basketball-reference.com/players/r/ratkoge01.html'
p530
sS'_perGame'
p531
(isrc.gp1.models.PerGame
PerGame
p532
(dp533
g8
g3
sg9
S'.158'
p534
sg11
S'0.3'
p535
sS'_effectiveFieldGalPercentage'
p536
S'1.9'
p537
sg13
g3
sg14
S'.158'
p538
sg16
S'2.1'
p539
sg18
g3
sg19
S'PF'
p540
sg21
S'1.8'
p541
sg24
S'NBA'
p542
sg26
g3
sg29
g3
sS'_fieldGoalsttempted'
p543
S'.158'
p544
sg30
S'1.7'
p545
sg31
g3
sg32
S'32'
p546
sg34
S'MLH'
p547
sg36
g208
sg38
g3
sg39
S'1.1'
p548
sg41
S'1.4'
p549
sg43
S'2.6'
p550
sg45
g3
sg46
S'1954-55'
p551
sg48
S'2.1'
p552
sg50
g3
sg51
S'.435'
p553
sg53
S'0.3'
p554
sg55
S'11.3'
p555
sbsS'_weight'
p556
S'220'
p557
sS'_dob'
p558
S'13-11-1922'
p559
sS'_salary'
p560
(lp561
sg19
S'C-F'
p562
sb.