(isrc.gp1.models.Player
Player
p0
(dp1
S'_experience'
p2
S'NA'
p3
sS'_totals'
p4
(lp5
(isrc.gp1.models.Totals
Totals
p6
(dp7
S'_offensiveRebounds'
p8
g3
sS'_threePointsAttempted'
p9
g3
sS'_fieldGoalsPercentage'
p10
S'.000'
p11
sS'_assist'
p12
S'0'
p13
sS'_threePointsPercentage'
p14
g3
sS'_threePoints'
p15
g3
sS'_points'
p16
S'1'
p17
sS'_position'
p18
g3
sS'_freeThrowsPercentage'
p19
S'.500'
p20
sS'_effectiveFieldGoalPercentage'
p21
S'.000'
p22
sS'_league'
p23
S'NBA'
p24
sS'_steals'
p25
g3
sS'_fieldGoalsAttempted'
p26
S'2'
p27
sS'_personalFouls'
p28
g17
sS'_freeThrowsAttempted'
p29
g27
sS'_totalRebounds'
p30
g17
sS'_age'
p31
S'22'
p32
sS'_team'
p33
S'MNL'
p34
sS'_games'
p35
g17
sS'_blocks'
p36
g3
sS'_twoPoints'
p37
g13
sS'_freeThrows'
p38
g17
sS'_twoPointsAttempted'
p39
g27
sS'_defensiveRebounds'
p40
g3
sS'_season'
p41
S'1957-58'
p42
sS'_fieldGoals'
p43
g13
sS'_turnOvers'
p44
g3
sS'_twoPointsPercentage'
p45
S'.000'
p46
sS'_minutesPlayed'
p47
S'6'
p48
sS'_gamesStarted'
p49
g3
sbasS'_college'
p50
S'Wayne State University'
p51
sS'_toYear'
p52
S'1958'
p53
sS'_height'
p54
S'6-6'
p55
sS'_active'
p56
I00
sS'_shootingHand'
p57
VRight
p58
sS'_name'
p59
S'George Brown'
p60
sS'_per100Possessions'
p61
(lp62
sS'_advanced'
p63
(lp64
(isrc.gp1.models.Advanced
Advanced
p65
(dp66
S'_offensiveReboundPercentage'
p67
g3
sS'_turnOverPercentage'
p68
g3
sS'_winSharesPer48Minutes'
p69
S'-0.308'
p70
sS'_stealPercentage'
p71
g3
sS'_usagePercentage'
p72
g3
sS'_totalReboundsPercentage'
p73
g3
sS'_defensiveBoxPlusMinus'
p74
g3
sg18
g3
sS'_valueOverReplacementPlayer'
p75
g3
sS'_trueShootingPercentage'
p76
S'.174'
p77
sS'_defensiveReboundPercentage'
p78
g3
sS'_freeThrowsAttempRate'
p79
S'1.000'
p80
sS'_threePointsAttempRate'
p81
g3
sg23
S'NBA'
p82
sS'_offensiveBoxPlusMinues'
p83
g3
sS'_assistPercentage'
p84
g3
sS'_defensiveWinShares'
p85
S'0.0'
p86
sg31
S'22'
p87
sg33
S'MNL'
p88
sg35
g17
sS'_blockPercentage'
p89
g3
sS'_playerEfficiencyRating'
p90
S'-7.2'
p91
sS'_offensiveWinShares'
p92
S'0.0'
p93
sg47
g48
sS'_boxPlusMinus'
p94
g3
sg41
S'1957-58'
p95
sS'_winShares'
p96
S'0.0'
p97
sbasS'_per36Minutes'
p98
(lp99
(isrc.gp1.models.Per36Minutes
Per36Minutes
p100
(dp101
g8
g3
sg9
g3
sg10
S'.000'
p102
sg12
S'0.0'
p103
sg14
g3
sg15
g3
sg16
S'6.0'
p104
sg18
g3
sg19
S'.500'
p105
sg23
S'NBA'
p106
sg25
g3
sg26
S'12.0'
p107
sg28
S'6.0'
p108
sg29
S'12.0'
p109
sg30
S'6.0'
p110
sg31
S'22'
p111
sg33
S'MNL'
p112
sg35
g17
sg36
g3
sg37
S'0.0'
p113
sg38
S'6.0'
p114
sg39
S'12.0'
p115
sg40
g3
sg41
S'1957-58'
p116
sg43
S'0.0'
p117
sg44
g3
sg45
S'.000'
p118
sg47
g48
sg49
g3
sbasS'_fromYear'
p119
S'1958'
p120
sS'_url'
p121
S'http://www.basketball-reference.com/players/b/brownge01.html'
p122
sS'_perGame'
p123
(isrc.gp1.models.PerGame
PerGame
p124
(dp125
g8
g3
sg9
g3
sg10
S'.000'
p126
sS'_effectiveFieldGalPercentage'
p127
S'.000'
p128
sg12
S'0.0'
p129
sg14
g3
sg15
g3
sg16
S'1.0'
p130
sg18
g3
sg19
S'.500'
p131
sg23
S'NBA'
p132
sg25
g3
sg28
S'1.0'
p133
sS'_fieldGoalsttempted'
p134
S'2.0'
p135
sg29
S'2.0'
p136
sg30
S'1.0'
p137
sg31
S'22'
p138
sg33
S'MNL'
p139
sg35
g17
sg36
g3
sg37
S'0.0'
p140
sg38
S'1.0'
p141
sg39
S'2.0'
p142
sg40
g3
sg41
S'1957-58'
p143
sg43
S'0.0'
p144
sg44
g3
sg45
S'.000'
p145
sg47
S'6.0'
p146
sg49
g3
sbsS'_weight'
p147
S'190'
p148
sS'_dob'
p149
S'30-10-1935'
p150
sS'_salary'
p151
(lp152
sg18
S'F'
p153
sb.