(isrc.gp1.models.Player
Player
p0
(dp1
S'_experience'
p2
S'NA'
p3
sS'_totals'
p4
(lp5
(isrc.gp1.models.Totals
Totals
p6
(dp7
S'_offensiveRebounds'
p8
g3
sS'_threePointsAttempted'
p9
S'.000'
p10
sS'_fieldGoalsPercentage'
p11
S'2'
p12
sS'_assist'
p13
g3
sS'_threePointsPercentage'
p14
S'1'
p15
sS'_threePoints'
p16
S'.000'
p17
sS'_points'
p18
g3
sS'_position'
p19
g15
sS'_freeThrowsPercentage'
p20
g3
sS'_effectiveFieldGoalPercentage'
p21
S'0'
p22
sS'_league'
p23
S'NBA'
p24
sS'_steals'
p25
g3
sS'_fieldGoalsAttempted'
p26
g22
sS'_personalFouls'
p27
g3
sS'_freeThrowsAttempted'
p28
g15
sS'_totalRebounds'
p29
g3
sS'_age'
p30
S'22'
p31
sS'_team'
p32
S'MNL'
p33
sS'_games'
p34
S'6'
p35
sS'_blocks'
p36
g3
sS'_twoPoints'
p37
g12
sS'_freeThrows'
p38
g15
sS'_twoPointsAttempted'
p39
S'.500'
p40
sS'_defensiveRebounds'
p41
g3
sS'_season'
p42
S'1957-58'
p43
sS'_fieldGoals'
p44
S'.000'
p45
sS'_turnOvers'
p46
g3
sS'_twoPointsPercentage'
p47
g15
sS'_minutesPlayed'
p48
g12
sS'_gamesStarted'
p49
g22
sbasS'_college'
p50
S'Wayne State University'
p51
sS'_toYear'
p52
S'1958'
p53
sS'_height'
p54
S'6-6'
p55
sS'_active'
p56
I00
sS'_shootingHand'
p57
VRight
p58
sS'_name'
p59
S'George Brown'
p60
sS'_per100Possessions'
p61
(lp62
sS'_advanced'
p63
(lp64
(isrc.gp1.models.Advanced
Advanced
p65
(dp66
S'_offensiveReboundPercentage'
p67
S'0.0'
p68
sS'_turnOverPercentage'
p69
g3
sS'_winSharesPer48Minutes'
p70
g3
sS'_stealPercentage'
p71
g3
sS'_usagePercentage'
p72
g3
sS'_totalReboundsPercentage'
p73
g3
sS'_defensiveBoxPlusMinus'
p74
g3
sg19
g15
sS'_valueOverReplacementPlayer'
p75
g3
sS'_trueShootingPercentage'
p76
S'1.000'
p77
sS'_defensiveReboundPercentage'
p78
S'-0.308'
p79
sS'_freeThrowsAttempRate'
p80
S'0.0'
p81
sS'_threePointsAttempRate'
p82
S'0.0'
p83
sg23
S'NBA'
p84
sS'_offensiveBoxPlusMinues'
p85
g3
sS'_assistPercentage'
p86
g3
sS'_defensiveWinShares'
p87
g3
sg30
S'22'
p88
sg32
S'MNL'
p89
sg34
g35
sS'_blockPercentage'
p90
g3
sS'_playerEfficiencyRating'
p91
S'.174'
p92
sS'_offensiveWinShares'
p93
g3
sg48
S'-7.2'
p94
sS'_boxPlusMinus'
p95
g3
sg42
S'1957-58'
p96
sS'_winShares'
p97
g3
sbasS'_per36Minutes'
p98
(lp99
(isrc.gp1.models.Per36Minutes
Per36Minutes
p100
(dp101
g8
g3
sg9
S'6.0'
p102
sg11
S'12.0'
p103
sg13
g3
sg14
S'12.0'
p104
sg16
S'.000'
p105
sg18
g3
sg19
g15
sg20
g3
sg23
S'NBA'
p106
sg25
g3
sg26
S'0.0'
p107
sg27
g3
sg28
S'6.0'
p108
sg29
g3
sg30
S'22'
p109
sg32
S'MNL'
p110
sg34
g35
sg36
g3
sg37
S'.500'
p111
sg38
S'6.0'
p112
sg39
S'6.0'
p113
sg41
g3
sg42
S'1957-58'
p114
sg44
S'.000'
p115
sg46
g3
sg47
S'0.0'
p116
sg48
S'12.0'
p117
sg49
S'0.0'
p118
sbasS'_fromYear'
p119
S'1958'
p120
sS'_url'
p121
S'http://www.basketball-reference.com/players/b/brownge01.html'
p122
sS'_perGame'
p123
(isrc.gp1.models.PerGame
PerGame
p124
(dp125
g8
g3
sg9
S'.000'
p126
sg11
S'2.0'
p127
sS'_effectiveFieldGalPercentage'
p128
S'0.0'
p129
sg13
g3
sg14
S'1.0'
p130
sg16
S'.000'
p131
sg18
g3
sg19
g15
sg20
g3
sg23
S'NBA'
p132
sg25
g3
sg27
g3
sS'_fieldGoalsttempted'
p133
S'0.0'
p134
sg28
S'1.0'
p135
sg29
g3
sg30
S'22'
p136
sg32
S'MNL'
p137
sg34
S'6.0'
p138
sg36
g3
sg37
S'2.0'
p139
sg38
S'1.0'
p140
sg39
S'.500'
p141
sg41
g3
sg42
S'1957-58'
p142
sg44
S'.000'
p143
sg46
g3
sg47
S'1.0'
p144
sg48
S'2.0'
p145
sg49
S'0.0'
p146
sbsS'_weight'
p147
S'190'
p148
sS'_dob'
p149
S'30-10-1935'
p150
sS'_salary'
p151
(lp152
sg19
S'F'
p153
sb.