(isrc.gp1.models.Player
Player
p0
(dp1
S'_experience'
p2
S'NA'
p3
sS'_totals'
p4
(lp5
(isrc.gp1.models.Totals
Totals
p6
(dp7
S'_offensiveRebounds'
p8
g3
sS'_threePointsAttempted'
p9
g3
sS'_fieldGoalsPercentage'
p10
S'.125'
p11
sS'_assist'
p12
S'4'
p13
sS'_threePointsPercentage'
p14
g3
sS'_threePoints'
p15
g3
sS'_points'
p16
S'12'
p17
sS'_position'
p18
g3
sS'_freeThrowsPercentage'
p19
S'.533'
p20
sS'_effectiveFieldGoalPercentage'
p21
S'.125'
p22
sS'_league'
p23
S'NBA'
p24
sS'_steals'
p25
g3
sS'_fieldGoalsAttempted'
p26
S'16'
p27
sS'_personalFouls'
p28
S'16'
p29
sS'_freeThrowsAttempted'
p30
S'15'
p31
sS'_totalRebounds'
p32
S'21'
p33
sS'_age'
p34
S'22'
p35
sS'_team'
p36
S'BLB'
p37
sS'_games'
p38
S'10'
p39
sS'_blocks'
p40
g3
sS'_twoPoints'
p41
S'2'
p42
sS'_freeThrows'
p43
S'8'
p44
sS'_twoPointsAttempted'
p45
S'16'
p46
sS'_defensiveRebounds'
p47
g3
sS'_season'
p48
S'1952-53'
p49
sS'_fieldGoals'
p50
g42
sS'_turnOvers'
p51
g3
sS'_twoPointsPercentage'
p52
S'.125'
p53
sS'_minutesPlayed'
p54
S'85'
p55
sS'_gamesStarted'
p56
g3
sbasS'_college'
p57
S'Texas Christian University'
p58
sS'_toYear'
p59
S'1953'
p60
sS'_height'
p61
S'6-5'
p62
sS'_active'
p63
I00
sS'_shootingHand'
p64
VRight
p65
sS'_name'
p66
S'George McLeod'
p67
sS'_per100Possessions'
p68
(lp69
sS'_advanced'
p70
(lp71
(isrc.gp1.models.Advanced
Advanced
p72
(dp73
S'_offensiveReboundPercentage'
p74
g3
sS'_turnOverPercentage'
p75
g3
sS'_winSharesPer48Minutes'
p76
S'-0.115'
p77
sS'_stealPercentage'
p78
g3
sS'_usagePercentage'
p79
g3
sS'_totalReboundsPercentage'
p80
g3
sS'_defensiveBoxPlusMinus'
p81
g3
sg18
g3
sS'_valueOverReplacementPlayer'
p82
g3
sS'_trueShootingPercentage'
p83
S'.265'
p84
sS'_defensiveReboundPercentage'
p85
g3
sS'_freeThrowsAttempRate'
p86
S'.938'
p87
sS'_threePointsAttempRate'
p88
g3
sg23
S'NBA'
p89
sS'_offensiveBoxPlusMinues'
p90
g3
sS'_assistPercentage'
p91
g3
sS'_defensiveWinShares'
p92
S'0.0'
p93
sg34
S'22'
p94
sg36
S'BLB'
p95
sg38
S'10'
p96
sS'_blockPercentage'
p97
g3
sS'_playerEfficiencyRating'
p98
S'2.9'
p99
sS'_offensiveWinShares'
p100
S'-0.2'
p101
sg54
S'85'
p102
sS'_boxPlusMinus'
p103
g3
sg48
S'1952-53'
p104
sS'_winShares'
p105
S'-0.2'
p106
sbasS'_per36Minutes'
p107
(lp108
(isrc.gp1.models.Per36Minutes
Per36Minutes
p109
(dp110
g8
g3
sg9
g3
sg10
S'.125'
p111
sg12
S'1.7'
p112
sg14
g3
sg15
g3
sg16
S'5.1'
p113
sg18
g3
sg19
S'.533'
p114
sg23
S'NBA'
p115
sg25
g3
sg26
S'6.8'
p116
sg28
S'6.8'
p117
sg30
S'6.4'
p118
sg32
S'8.9'
p119
sg34
S'22'
p120
sg36
S'BLB'
p121
sg38
S'10'
p122
sg40
g3
sg41
S'0.8'
p123
sg43
S'3.4'
p124
sg45
S'6.8'
p125
sg47
g3
sg48
S'1952-53'
p126
sg50
S'0.8'
p127
sg51
g3
sg52
S'.125'
p128
sg54
S'85'
p129
sg56
g3
sbasS'_fromYear'
p130
S'1953'
p131
sS'_url'
p132
S'http://www.basketball-reference.com/players/m/mcleoge01.html'
p133
sS'_perGame'
p134
(isrc.gp1.models.PerGame
PerGame
p135
(dp136
g8
g3
sg9
g3
sg10
S'.125'
p137
sS'_effectiveFieldGalPercentage'
p138
S'.125'
p139
sg12
S'0.4'
p140
sg14
g3
sg15
g3
sg16
S'1.2'
p141
sg18
g3
sg19
S'.533'
p142
sg23
S'NBA'
p143
sg25
g3
sg28
S'1.6'
p144
sS'_fieldGoalsttempted'
p145
S'1.6'
p146
sg30
S'1.5'
p147
sg32
S'2.1'
p148
sg34
S'22'
p149
sg36
S'BLB'
p150
sg38
S'10'
p151
sg40
g3
sg41
S'0.2'
p152
sg43
S'0.8'
p153
sg45
S'1.6'
p154
sg47
g3
sg48
S'1952-53'
p155
sg50
S'0.2'
p156
sg51
g3
sg52
S'.125'
p157
sg54
S'8.5'
p158
sg56
g3
sbsS'_weight'
p159
S'200'
p160
sS'_dob'
p161
S'3-1-1931'
p162
sS'_salary'
p163
(lp164
sg18
S'F'
p165
sb.