(isrc.gp1.models.Player
Player
p0
(dp1
S'_experience'
p2
S'NA'
p3
sS'_totals'
p4
(lp5
(isrc.gp1.models.Totals
Totals
p6
(dp7
S'_offensiveRebounds'
p8
S'31'
p9
sS'_threePointsAttempted'
p10
S'1'
p11
sS'_fieldGoalsPercentage'
p12
S'.402'
p13
sS'_assist'
p14
S'32'
p15
sS'_threePointsPercentage'
p16
S'1.000'
p17
sS'_threePoints'
p18
g11
sS'_points'
p19
S'239'
p20
sS'_position'
p21
S'PF'
p22
sS'_freeThrowsPercentage'
p23
S'.574'
p24
sS'_effectiveFieldGoalPercentage'
p25
S'.404'
p26
sS'_league'
p27
S'NBA'
p28
sS'_steals'
p29
S'26'
p30
sS'_fieldGoalsAttempted'
p31
S'209'
p32
sS'_personalFouls'
p33
S'124'
p34
sS'_freeThrowsAttempted'
p35
S'122'
p36
sS'_totalRebounds'
p37
S'163'
p38
sS'_age'
p39
S'26'
p40
sS'_team'
p41
S'PHO'
p42
sS'_games'
p43
S'49'
p44
sS'_blocks'
p45
S'25'
p46
sS'_twoPoints'
p47
S'83'
p48
sS'_freeThrows'
p49
S'70'
p50
sS'_twoPointsAttempted'
p51
S'208'
p52
sS'_defensiveRebounds'
p53
S'132'
p54
sS'_season'
p55
S'1985-86'
p56
sS'_fieldGoals'
p57
S'84'
p58
sS'_turnOvers'
p59
S'76'
p60
sS'_twoPointsPercentage'
p61
S'.399'
p62
sS'_minutesPlayed'
p63
S'772'
p64
sS'_gamesStarted'
p65
S'16'
p66
sbasS'_college'
p67
S'NA'
p68
sS'_toYear'
p69
S'1986'
p70
sS'_height'
p71
S'6-8'
p72
sS'_active'
p73
I00
sS'_shootingHand'
p74
VRight
p75
sS'_name'
p76
S'Georgi Glouchkov'
p77
sS'_per100Possessions'
p78
(lp79
(isrc.gp1.models.Per100Possession
Per100Possession
p80
(dp81
g8
S'1.8'
p82
sg10
S'0.1'
p83
sg12
S'.402'
p84
sS'_offensiveRating'
p85
S'81'
p86
sg14
S'1.9'
p87
sg16
S'1.000'
p88
sg18
S'0.1'
p89
sg19
S'14.2'
p90
sg21
S'PF'
p91
sS'_defensiveRating'
p92
S'106'
p93
sg23
S'.574'
p94
sg27
S'NBA'
p95
sg29
S'1.5'
p96
sg31
S'12.4'
p97
sg33
S'7.4'
p98
sg35
S'7.2'
p99
sg37
S'9.7'
p100
sg39
S'26'
p101
sg41
S'PHO'
p102
sg43
S'49'
p103
sg45
S'1.5'
p104
sg47
S'4.9'
p105
sg49
S'4.2'
p106
sg51
S'12.3'
p107
sg53
S'7.8'
p108
sg55
S'1985-86'
p109
sg57
S'5.0'
p110
sg59
S'4.5'
p111
sg61
S'.399'
p112
sg63
S'772'
p113
sg65
S'16'
p114
sbasS'_advanced'
p115
(lp116
(isrc.gp1.models.Advanced
Advanced
p117
(dp118
S'_offensiveReboundPercentage'
p119
S'4.8'
p120
sS'_turnOverPercentage'
p121
S'22.4'
p122
sS'_winSharesPer48Minutes'
p123
S'-0.029'
p124
sS'_stealPercentage'
p125
S'1.5'
p126
sS'_usagePercentage'
p127
S'17.5'
p128
sS'_totalReboundsPercentage'
p129
S'12.1'
p130
sS'_defensiveBoxPlusMinus'
p131
S'0.4'
p132
sg21
S'PF'
p133
sS'_valueOverReplacementPlayer'
p134
S'-0.9'
p135
sS'_trueShootingPercentage'
p136
S'.455'
p137
sS'_defensiveReboundPercentage'
p138
S'18.9'
p139
sS'_freeThrowsAttempRate'
p140
S'.584'
p141
sS'_threePointsAttempRate'
p142
S'.005'
p143
sg27
S'NBA'
p144
sS'_offensiveBoxPlusMinues'
p145
S'-7.0'
p146
sS'_assistPercentage'
p147
S'5.3'
p148
sS'_defensiveWinShares'
p149
S'0.9'
p150
sg39
S'26'
p151
sg41
S'PHO'
p152
sg43
S'49'
p153
sS'_blockPercentage'
p154
S'1.8'
p155
sS'_playerEfficiencyRating'
p156
S'5.7'
p157
sS'_offensiveWinShares'
p158
S'-1.4'
p159
sg63
S'772'
p160
sS'_boxPlusMinus'
p161
S'-6.6'
p162
sg55
S'1985-86'
p163
sS'_winShares'
p164
S'-0.5'
p165
sbasS'_per36Minutes'
p166
(lp167
(isrc.gp1.models.Per36Minutes
Per36Minutes
p168
(dp169
g8
S'1.4'
p170
sg10
S'0.0'
p171
sg12
S'.402'
p172
sg14
S'1.5'
p173
sg16
S'1.000'
p174
sg18
S'0.0'
p175
sg19
S'11.1'
p176
sg21
S'PF'
p177
sg23
S'.574'
p178
sg27
S'NBA'
p179
sg29
S'1.2'
p180
sg31
S'9.7'
p181
sg33
S'5.8'
p182
sg35
S'5.7'
p183
sg37
S'7.6'
p184
sg39
S'26'
p185
sg41
S'PHO'
p186
sg43
S'49'
p187
sg45
S'1.2'
p188
sg47
S'3.9'
p189
sg49
S'3.3'
p190
sg51
S'9.7'
p191
sg53
S'6.2'
p192
sg55
S'1985-86'
p193
sg57
S'3.9'
p194
sg59
S'3.5'
p195
sg61
S'.399'
p196
sg63
S'772'
p197
sg65
S'16'
p198
sbasS'_fromYear'
p199
S'1986'
p200
sS'_url'
p201
S'http://www.basketball-reference.com/players/g/gloucge01.html'
p202
sS'_perGame'
p203
(isrc.gp1.models.PerGame
PerGame
p204
(dp205
g8
S'0.6'
p206
sg10
S'0.0'
p207
sg12
S'.402'
p208
sS'_effectiveFieldGalPercentage'
p209
S'.404'
p210
sg14
S'0.7'
p211
sg16
S'1.000'
p212
sg18
S'0.0'
p213
sg19
S'4.9'
p214
sg21
S'PF'
p215
sg23
S'.574'
p216
sg27
S'NBA'
p217
sg29
S'0.5'
p218
sg33
S'2.5'
p219
sS'_fieldGoalsttempted'
p220
S'4.3'
p221
sg35
S'2.5'
p222
sg37
S'3.3'
p223
sg39
S'26'
p224
sg41
S'PHO'
p225
sg43
S'49'
p226
sg45
S'0.5'
p227
sg47
S'1.7'
p228
sg49
S'1.4'
p229
sg51
S'4.2'
p230
sg53
S'2.7'
p231
sg55
S'1985-86'
p232
sg57
S'1.7'
p233
sg59
S'1.6'
p234
sg61
S'.399'
p235
sg63
S'15.8'
p236
sg65
S'16'
p237
sbsS'_weight'
p238
S'235'
p239
sS'_dob'
p240
S'10-1-1960'
p241
sS'_salary'
p242
(lp243
(isrc.gp1.models.Salary
Salary
p244
(dp245
g41
S'Phoenix Suns'
p246
sg27
S'NBA'
p247
sg242
S'$175,000'
p248
sg55
S'1985-86'
p249
sbasg21
S'F'
p250
sb.