(isrc.gp1.models.Player
Player
p0
(dp1
S'_experience'
p2
S'NA'
p3
sS'_totals'
p4
(lp5
(isrc.gp1.models.Totals
Totals
p6
(dp7
S'_offensiveRebounds'
p8
g3
sS'_threePointsAttempted'
p9
S'.368'
p10
sS'_fieldGoalsPercentage'
p11
S'315'
p12
sS'_assist'
p13
g3
sS'_threePointsPercentage'
p14
S'72'
p15
sS'_threePoints'
p16
S'.368'
p17
sS'_points'
p18
g3
sS'_position'
p19
S'SF'
p20
sS'_freeThrowsPercentage'
p21
g3
sS'_effectiveFieldGoalPercentage'
p22
S'28'
p23
sS'_league'
p24
S'BAA'
p25
sS'_steals'
p26
g3
sS'_fieldGoalsAttempted'
p27
S'116'
p28
sS'_personalFouls'
p29
g3
sS'_freeThrowsAttempted'
p30
g3
sS'_totalRebounds'
p31
g3
sS'_age'
p32
S'20'
p33
sS'_team'
p34
S'BOS'
p35
sS'_games'
p36
S'21'
p37
sS'_blocks'
p38
g3
sS'_twoPoints'
p39
S'115'
p40
sS'_freeThrows'
p41
S'304'
p42
sS'_twoPointsAttempted'
p43
S'.626'
p44
sS'_defensiveRebounds'
p45
g3
sS'_season'
p46
S'1948-49'
p47
sS'_fieldGoals'
p48
S'.368'
p49
sS'_turnOvers'
p50
g3
sS'_twoPointsPercentage'
p51
S'61'
p52
sS'_minutesPlayed'
p53
S'315'
p54
sS'_gamesStarted'
p55
S'116'
p56
sba(isrc.gp1.models.Totals
Totals
p57
(dp58
g8
g3
sg9
S'.372'
p59
sg11
S'535'
p60
sg13
g3
sg14
S'136'
p61
sg16
S'.372'
p62
sg18
g3
sg19
S'SF'
p63
sg21
g3
sg22
S'92'
p64
sg24
S'NBA'
p65
sg26
g3
sg27
S'199'
p66
sg29
g3
sg30
g3
sg31
g3
sg32
S'21'
p67
sg34
S'BOS'
p68
sg36
S'55'
p69
sg38
g3
sg39
S'208'
p70
sg41
S'534'
p71
sg43
S'.654'
p72
sg45
g3
sg46
S'1949-50'
p73
sg48
S'.372'
p74
sg50
g3
sg51
S'145'
p75
sg53
S'535'
p76
sg55
S'199'
p77
sba(isrc.gp1.models.Totals
Totals
p78
(dp79
g8
g3
sg9
S'.388'
p80
sg11
S'286'
p81
sg13
g3
sg14
S'78'
p82
sg16
S'.388'
p83
sg18
g3
sg19
S'SF'
p84
sg21
g3
sg22
S'74'
p85
sg24
S'NBA'
p86
sg26
g3
sg27
S'111'
p87
sg29
g3
sg30
S'300'
p88
sg31
g3
sg32
S'22'
p89
sg34
S'NYK'
p90
sg36
S'61'
p91
sg38
g3
sg39
S'125'
p92
sg41
S'102'
p93
sg43
S'.624'
p94
sg45
g3
sg46
S'1950-51'
p95
sg48
S'.388'
p96
sg50
g3
sg51
S'153'
p97
sg53
S'286'
p98
sg55
S'111'
p99
sba(isrc.gp1.models.Totals
Totals
p100
(dp101
g8
g3
sg9
S'.375'
p102
sg11
S'115'
p103
sg13
g3
sg14
S'.375'
p104
sg16
S'307'
p105
sg18
g3
sg19
S'SF'
p106
sg21
S'322'
p107
sg22
S'196'
p108
sg24
S'NBA'
p109
sg26
g3
sg27
S'.375'
p110
sg29
g3
sg30
S'107'
p111
sg31
g3
sg32
S'23'
p112
sg34
S'NYK'
p113
sg36
S'52'
p114
sg38
g3
sg39
S'92'
p115
sg41
S'88'
p116
sg43
S'134'
p117
sg45
g3
sg46
S'1951-52'
p118
sg48
S'307'
p119
sg50
g3
sg51
S'.687'
p120
sg53
S'115'
p121
sg55
S'955'
p122
sba(isrc.gp1.models.Totals
Totals
p123
(dp124
g8
g3
sg9
S'.317'
p125
sg11
S'45'
p126
sg13
g3
sg14
S'.317'
p127
sg16
S'142'
p128
sg18
g3
sg19
S'SF'
p129
sg21
S'134'
p130
sg22
S'75'
p131
sg24
S'NBA'
p132
sg26
g3
sg27
S'.317'
p133
sg29
g3
sg30
S'59'
p134
sg31
g3
sg32
S'24'
p135
sg34
S'BLB'
p136
sg36
S'23'
p137
sg38
g3
sg39
S'44'
p138
sg41
S'31'
p139
sg43
S'67'
p140
sg45
g3
sg46
S'1952-53'
p141
sg48
S'142'
p142
sg50
g3
sg51
S'.657'
p143
sg53
S'45'
p144
sg55
S'380'
p145
sbasS'_college'
p146
S'College of the Holy Cross'
p147
sS'_toYear'
p148
S'1953'
p149
sS'_height'
p150
S'6-3'
p151
sS'_active'
p152
I00
sS'_shootingHand'
p153
VRight
p154
sS'_name'
p155
S'George Kaftan'
p156
sS'_per100Possessions'
p157
(lp158
sS'_advanced'
p159
(lp160
(isrc.gp1.models.Advanced
Advanced
p161
(dp162
S'_offensiveReboundPercentage'
p163
g3
sS'_turnOverPercentage'
p164
g3
sS'_winSharesPer48Minutes'
p165
g3
sS'_stealPercentage'
p166
g3
sS'_usagePercentage'
p167
g3
sS'_totalReboundsPercentage'
p168
g3
sS'_defensiveBoxPlusMinus'
p169
g3
sg19
S'SF'
p170
sS'_valueOverReplacementPlayer'
p171
g3
sS'_trueShootingPercentage'
p172
S'1.6'
p173
sS'_defensiveReboundPercentage'
p174
g3
sS'_freeThrowsAttempRate'
p175
S'2.4'
p176
sS'_threePointsAttempRate'
p177
S'0.8'
p178
sg24
S'BAA'
p179
sS'_offensiveBoxPlusMinues'
p180
g3
sS'_assistPercentage'
p181
g3
sS'_defensiveWinShares'
p182
g3
sg32
S'20'
p183
sg34
S'BOS'
p184
sg36
S'21'
p185
sS'_blockPercentage'
p186
g3
sS'_playerEfficiencyRating'
p187
S'.365'
p188
sS'_offensiveWinShares'
p189
g3
sg53
S'.416'
p190
sS'_boxPlusMinus'
p191
g3
sg46
S'1948-49'
p192
sS'_winShares'
p193
g3
sba(isrc.gp1.models.Advanced
Advanced
p194
(dp195
g163
g3
sg164
g3
sg165
g3
sg166
g3
sg167
g3
sg168
g3
sg169
g3
sg19
S'SF'
p196
sg171
g3
sg172
S'2.3'
p197
sg174
g3
sg175
S'3.4'
p198
sg177
S'1.0'
p199
sg24
S'NBA'
p200
sg180
g3
sg181
g3
sg182
g3
sg32
S'21'
p201
sg34
S'BOS'
p202
sg36
S'55'
p203
sg186
g3
sg187
S'.389'
p204
sg189
g3
sg53
S'.426'
p205
sg191
g3
sg46
S'1949-50'
p206
sg193
g3
sba(isrc.gp1.models.Advanced
Advanced
p207
(dp208
g163
g3
sg164
g3
sg165
g3
sg166
g3
sg167
g3
sg168
g3
sg169
g3
sg19
S'SF'
p209
sg171
g3
sg172
S'1.1'
p210
sg174
g3
sg175
S'1.6'
p211
sg177
S'0.4'
p212
sg24
S'NBA'
p213
sg180
g3
sg181
g3
sg182
g3
sg32
S'22'
p214
sg34
S'NYK'
p215
sg36
S'61'
p216
sg186
g3
sg187
S'.437'
p217
sg189
g3
sg53
S'.440'
p218
sg191
g3
sg46
S'1950-51'
p219
sg193
g3
sba(isrc.gp1.models.Advanced
Advanced
p220
(dp221
g163
S'0.8'
p222
sg164
g3
sg165
g3
sg166
g3
sg167
g3
sg168
S'.088'
p223
sg169
g3
sg19
S'SF'
p224
sg171
g3
sg172
S'.440'
p225
sg174
S'1.7'
p226
sg175
S'1.0'
p227
sg177
S'.436'
p228
sg24
S'NBA'
p229
sg180
g3
sg181
g3
sg182
g3
sg32
S'23'
p230
sg34
S'NYK'
p231
sg36
S'52'
p232
sg186
g3
sg187
S'14.7'
p233
sg189
g3
sg53
S'955'
p234
sg191
g3
sg46
S'1951-52'
p235
sg193
g3
sba(isrc.gp1.models.Advanced
Advanced
p236
(dp237
g163
S'0.1'
p238
sg164
g3
sg165
g3
sg166
g3
sg167
g3
sg168
S'-0.018'
p239
sg169
g3
sg19
S'SF'
p240
sg171
g3
sg172
S'.391'
p241
sg174
S'-0.1'
p242
sg175
S'-0.2'
p243
sg177
S'.472'
p244
sg24
S'NBA'
p245
sg180
g3
sg181
g3
sg182
g3
sg32
S'24'
p246
sg34
S'BLB'
p247
sg36
S'23'
p248
sg186
g3
sg187
S'11.3'
p249
sg189
g3
sg53
S'380'
p250
sg191
g3
sg46
S'1952-53'
p251
sg193
g3
sbasS'_per36Minutes'
p252
(lp253
(isrc.gp1.models.Per36Minutes
Per36Minutes
p254
(dp255
g8
g3
sg9
g3
sg11
g3
sg13
g3
sg14
g3
sg16
g3
sg18
g3
sg19
S'SF'
p256
sg21
g3
sg24
S'BAA'
p257
sg26
g3
sg27
g3
sg29
g3
sg30
g3
sg31
g3
sg32
S'20'
p258
sg34
S'BOS'
p259
sg36
S'21'
p260
sg38
g3
sg39
g3
sg41
g3
sg43
g3
sg45
g3
sg46
S'1948-49'
p261
sg48
S'.626'
p262
sg50
g3
sg51
g3
sg53
S'.368'
p263
sg55
S'.368'
p264
sba(isrc.gp1.models.Per36Minutes
Per36Minutes
p265
(dp266
g8
g3
sg9
g3
sg11
g3
sg13
g3
sg14
g3
sg16
g3
sg18
g3
sg19
S'SF'
p267
sg21
g3
sg24
S'NBA'
p268
sg26
g3
sg27
g3
sg29
g3
sg30
g3
sg31
g3
sg32
S'21'
p269
sg34
S'BOS'
p270
sg36
S'55'
p271
sg38
g3
sg39
g3
sg41
g3
sg43
g3
sg45
g3
sg46
S'1949-50'
p272
sg48
S'.654'
p273
sg50
g3
sg51
g3
sg53
S'.372'
p274
sg55
S'.372'
p275
sba(isrc.gp1.models.Per36Minutes
Per36Minutes
p276
(dp277
g8
g3
sg9
g3
sg11
g3
sg13
g3
sg14
g3
sg16
g3
sg18
g3
sg19
S'SF'
p278
sg21
g3
sg24
S'NBA'
p279
sg26
g3
sg27
g3
sg29
g3
sg30
g3
sg31
g3
sg32
S'22'
p280
sg34
S'NYK'
p281
sg36
S'61'
p282
sg38
g3
sg39
g3
sg41
g3
sg43
g3
sg45
g3
sg46
S'1950-51'
p283
sg48
S'.624'
p284
sg50
g3
sg51
g3
sg53
S'.388'
p285
sg55
S'.388'
p286
sba(isrc.gp1.models.Per36Minutes
Per36Minutes
p287
(dp288
g8
g3
sg9
S'.375'
p289
sg11
S'4.3'
p290
sg13
g3
sg14
S'3.5'
p291
sg16
S'11.6'
p292
sg18
g3
sg19
S'SF'
p293
sg21
S'12.1'
p294
sg24
S'NBA'
p295
sg26
g3
sg27
S'.375'
p296
sg29
g3
sg30
S'4.0'
p297
sg31
g3
sg32
S'23'
p298
sg34
S'NYK'
p299
sg36
S'52'
p300
sg38
g3
sg39
S'5.1'
p301
sg41
S'3.3'
p302
sg43
S'.687'
p303
sg45
g3
sg46
S'1951-52'
p304
sg48
S'11.6'
p305
sg50
g3
sg51
S'7.4'
p306
sg53
S'4.3'
p307
sg55
S'955'
p308
sba(isrc.gp1.models.Per36Minutes
Per36Minutes
p309
(dp310
g8
g3
sg9
S'.317'
p311
sg11
S'4.3'
p312
sg13
g3
sg14
S'4.2'
p313
sg16
S'13.5'
p314
sg18
g3
sg19
S'SF'
p315
sg21
S'12.7'
p316
sg24
S'NBA'
p317
sg26
g3
sg27
S'.317'
p318
sg29
g3
sg30
S'5.6'
p319
sg31
g3
sg32
S'24'
p320
sg34
S'BLB'
p321
sg36
S'23'
p322
sg38
g3
sg39
S'6.3'
p323
sg41
S'2.9'
p324
sg43
S'.657'
p325
sg45
g3
sg46
S'1952-53'
p326
sg48
S'13.5'
p327
sg50
g3
sg51
S'7.1'
p328
sg53
S'4.3'
p329
sg55
S'380'
p330
sbasS'_fromYear'
p331
S'1949'
p332
sS'_url'
p333
S'http://www.basketball-reference.com/players/k/kaftage01.html'
p334
sS'_perGame'
p335
(isrc.gp1.models.PerGame
PerGame
p336
(dp337
g8
g3
sg9
S'.317'
p338
sg11
S'2.0'
p339
sS'_effectiveFieldGalPercentage'
p340
S'3.3'
p341
sg13
g3
sg14
S'.317'
p342
sg16
S'6.2'
p343
sg18
g3
sg19
S'SF'
p344
sg21
S'5.8'
p345
sg24
S'NBA'
p346
sg26
g3
sg29
g3
sS'_fieldGoalsttempted'
p347
S'.317'
p348
sg30
S'2.6'
p349
sg31
g3
sg32
S'24'
p350
sg34
S'BLB'
p351
sg36
S'23'
p352
sg38
g3
sg39
S'1.9'
p353
sg41
S'1.3'
p354
sg43
S'2.9'
p355
sg45
g3
sg46
S'1952-53'
p356
sg48
S'6.2'
p357
sg50
g3
sg51
S'.657'
p358
sg53
S'2.0'
p359
sg55
S'16.5'
p360
sbsS'_weight'
p361
S'190'
p362
sS'_dob'
p363
S'22-2-1928'
p364
sS'_salary'
p365
(lp366
sg19
S'F'
p367
sb.