(isrc.gp1.models.Player
Player
p0
(dp1
S'_experience'
p2
S'NA'
p3
sS'_totals'
p4
(lp5
(isrc.gp1.models.Totals
Totals
p6
(dp7
S'_offensiveRebounds'
p8
g3
sS'_threePointsAttempted'
p9
S'70'
p10
sS'_fieldGoalsPercentage'
p11
S'.297'
p12
sS'_assist'
p13
g3
sS'_threePointsPercentage'
p14
S'160'
p15
sS'_threePoints'
p16
S'.297'
p17
sS'_points'
p18
g3
sS'_position'
p19
S'60'
p20
sS'_freeThrowsPercentage'
p21
g3
sS'_effectiveFieldGoalPercentage'
p22
S'354'
p23
sS'_league'
p24
S'BAA'
p25
sS'_steals'
p26
g3
sS'_fieldGoalsAttempted'
p27
S'478'
p28
sS'_personalFouls'
p29
g3
sS'_freeThrowsAttempted'
p30
g3
sS'_totalRebounds'
p31
g3
sS'_age'
p32
S'23'
p33
sS'_team'
p34
S'STB'
p35
sS'_games'
p36
S'142'
p37
sS'_blocks'
p38
g3
sS'_twoPoints'
p39
S'.438'
p40
sS'_freeThrows'
p41
g3
sS'_twoPointsAttempted'
p42
S'17'
p43
sS'_defensiveRebounds'
p44
g3
sS'_season'
p45
S'1946-47'
p46
sS'_fieldGoals'
p47
S'142'
p48
sS'_turnOvers'
p49
g3
sS'_twoPointsPercentage'
p50
S'95'
p51
sS'_minutesPlayed'
p52
S'.297'
p53
sS'_gamesStarted'
p54
S'478'
p55
sba(isrc.gp1.models.Totals
Totals
p56
(dp57
g8
g3
sg9
S'40'
p58
sg11
S'.264'
p59
sg13
g3
sg14
S'68'
p60
sg16
S'.264'
p61
sg18
g3
sg19
S'46'
p62
sg21
g3
sg22
S'176'
p63
sg24
S'BAA'
p64
sg26
g3
sg27
S'258'
p65
sg29
g3
sg30
g3
sg31
g3
sg32
S'24'
p66
sg34
S'STB'
p67
sg36
S'68'
p68
sg38
g3
sg39
S'.588'
p69
sg41
g3
sg42
S'12'
p70
sg44
g3
sg45
S'1947-48'
p71
sg47
S'68'
p72
sg49
g3
sg50
S'60'
p73
sg52
S'.264'
p74
sg54
S'258'
p75
sba(isrc.gp1.models.Totals
Totals
p76
(dp77
g8
g3
sg9
S'29'
p78
sg11
S'.246'
p79
sg13
g3
sg14
S'44'
p80
sg16
S'.246'
p81
sg18
g3
sg19
S'45'
p82
sg21
g3
sg22
S'87'
p83
sg24
S'BAA'
p84
sg26
g3
sg27
S'118'
p85
sg29
g3
sg30
g3
sg31
g3
sg32
S'25'
p86
sg34
S'TOT'
p87
sg36
S'29'
p88
sg38
g3
sg39
S'.659'
p89
sg41
g3
sg42
S'20'
p90
sg44
g3
sg45
S'1948-49'
p91
sg47
S'29'
p92
sg49
g3
sg50
S'30'
p93
sg52
S'.246'
p94
sg54
S'118'
p95
sba(isrc.gp1.models.Totals
Totals
p96
(dp97
g8
g3
sg9
S'15'
p98
sg11
S'.250'
p99
sg13
g3
sg14
S'17'
p100
sg16
S'.250'
p101
sg18
g3
sg19
S'19'
p102
sg21
g3
sg22
S'37'
p103
sg24
S'BAA'
p104
sg26
g3
sg27
S'44'
p105
sg29
g3
sg30
g3
sg31
g3
sg32
S'25'
p106
sg34
S'STB'
p107
sg36
S'11'
p108
sg38
g3
sg39
S'.882'
p109
sg41
g3
sg42
S'11'
p110
sg44
g3
sg45
S'1948-49'
p111
sg47
S'11'
p112
sg49
g3
sg50
S'12'
p113
sg52
S'.250'
p114
sg54
S'44'
p115
sba(isrc.gp1.models.Totals
Totals
p116
(dp117
g8
g3
sg9
S'14'
p118
sg11
S'.243'
p119
sg13
g3
sg14
S'27'
p120
sg16
S'.243'
p121
sg18
g3
sg19
S'26'
p122
sg21
g3
sg22
S'50'
p123
sg24
S'BAA'
p124
sg26
g3
sg27
S'74'
p125
sg29
g3
sg30
g3
sg31
g3
sg32
S'25'
p126
sg34
S'PRO'
p127
sg36
S'18'
p128
sg38
g3
sg39
S'.519'
p129
sg41
g3
sg42
S'9'
p130
sg44
g3
sg45
S'1948-49'
p131
sg47
S'18'
p132
sg49
g3
sg50
S'18'
p133
sg52
S'.243'
p134
sg54
S'74'
p135
sbasS'_college'
p136
S'University of Kansas'
p137
sS'_toYear'
p138
S'1949'
p139
sS'_height'
p140
S'6-5'
p141
sS'_active'
p142
I00
sS'_shootingHand'
p143
VRight
p144
sS'_name'
p145
S'Giff Roux'
p146
sS'_per100Possessions'
p147
(lp148
sS'_advanced'
p149
(lp150
(isrc.gp1.models.Advanced
Advanced
p151
(dp152
S'_offensiveReboundPercentage'
p153
g3
sS'_turnOverPercentage'
p154
g3
sS'_winSharesPer48Minutes'
p155
g3
sS'_stealPercentage'
p156
g3
sS'_usagePercentage'
p157
g3
sS'_totalReboundsPercentage'
p158
g3
sS'_defensiveBoxPlusMinus'
p159
g3
sg19
S'60'
p160
sS'_valueOverReplacementPlayer'
p161
g3
sS'_trueShootingPercentage'
p162
S'2.3'
p163
sS'_defensiveReboundPercentage'
p164
g3
sS'_freeThrowsAttempRate'
p165
g3
sS'_threePointsAttempRate'
p166
S'3.4'
p167
sg24
S'BAA'
p168
sS'_offensiveBoxPlusMinues'
p169
g3
sS'_assistPercentage'
p170
g3
sS'_defensiveWinShares'
p171
g3
sg32
S'23'
p172
sg34
S'STB'
p173
sg36
S'.323'
p174
sS'_blockPercentage'
p175
g3
sS'_playerEfficiencyRating'
p176
S'1.1'
p177
sS'_offensiveWinShares'
p178
g3
sg52
S'.335'
p179
sS'_boxPlusMinus'
p180
g3
sg45
S'1946-47'
p181
sS'_winShares'
p182
g3
sba(isrc.gp1.models.Advanced
Advanced
p183
(dp184
g153
g3
sg154
g3
sg155
g3
sg156
g3
sg157
g3
sg158
g3
sg159
g3
sg19
S'46'
p185
sg161
g3
sg162
S'0.9'
p186
sg164
g3
sg165
g3
sg166
S'0.8'
p187
sg24
S'BAA'
p188
sg169
g3
sg170
g3
sg171
g3
sg32
S'24'
p189
sg34
S'STB'
p190
sg36
S'.306'
p191
sg175
g3
sg176
S'-0.1'
p192
sg178
g3
sg52
S'.264'
p193
sg180
g3
sg45
S'1947-48'
p194
sg182
g3
sba(isrc.gp1.models.Advanced
Advanced
p195
(dp196
g153
g3
sg154
g3
sg155
g3
sg156
g3
sg157
g3
sg158
g3
sg159
g3
sg19
S'45'
p197
sg161
g3
sg162
S'0.0'
p198
sg164
g3
sg165
g3
sg166
S'-0.5'
p199
sg24
S'BAA'
p200
sg169
g3
sg170
g3
sg171
g3
sg32
S'25'
p201
sg34
S'TOT'
p202
sg36
S'.317'
p203
sg175
g3
sg176
S'-0.4'
p204
sg178
g3
sg52
S'.373'
p205
sg180
g3
sg45
S'1948-49'
p206
sg182
g3
sba(isrc.gp1.models.Advanced
Advanced
p207
(dp208
g153
g3
sg154
g3
sg155
g3
sg156
g3
sg157
g3
sg158
g3
sg159
g3
sg19
S'19'
p209
sg161
g3
sg162
S'0.0'
p210
sg164
g3
sg165
g3
sg166
S'0.0'
p211
sg24
S'BAA'
p212
sg169
g3
sg170
g3
sg171
g3
sg32
S'25'
p213
sg34
S'STB'
p214
sg36
S'.359'
p215
sg175
g3
sg176
S'0.0'
p216
sg178
g3
sg52
S'.386'
p217
sg180
g3
sg45
S'1948-49'
p218
sg182
g3
sba(isrc.gp1.models.Advanced
Advanced
p219
(dp220
g153
g3
sg154
g3
sg155
g3
sg156
g3
sg157
g3
sg158
g3
sg159
g3
sg19
S'26'
p221
sg161
g3
sg162
S'0.0'
p222
sg164
g3
sg165
g3
sg166
S'-0.5'
p223
sg24
S'BAA'
p224
sg169
g3
sg170
g3
sg171
g3
sg32
S'25'
p225
sg34
S'PRO'
p226
sg36
S'.291'
p227
sg175
g3
sg176
S'-0.4'
p228
sg178
g3
sg52
S'.365'
p229
sg180
g3
sg45
S'1948-49'
p230
sg182
g3
sbasS'_per36Minutes'
p231
(lp232
(isrc.gp1.models.Per36Minutes
Per36Minutes
p233
(dp234
g8
g3
sg9
g3
sg11
g3
sg13
g3
sg14
g3
sg16
g3
sg18
g3
sg19
S'60'
p235
sg21
g3
sg24
S'BAA'
p236
sg26
g3
sg27
g3
sg29
g3
sg30
g3
sg31
g3
sg32
S'23'
p237
sg34
S'STB'
p238
sg36
S'.297'
p239
sg38
g3
sg39
g3
sg41
g3
sg42
g3
sg44
g3
sg45
S'1946-47'
p240
sg47
g3
sg49
g3
sg50
g3
sg52
S'.438'
p241
sg54
S'.297'
p242
sba(isrc.gp1.models.Per36Minutes
Per36Minutes
p243
(dp244
g8
g3
sg9
g3
sg11
g3
sg13
g3
sg14
g3
sg16
g3
sg18
g3
sg19
S'46'
p245
sg21
g3
sg24
S'BAA'
p246
sg26
g3
sg27
g3
sg29
g3
sg30
g3
sg31
g3
sg32
S'24'
p247
sg34
S'STB'
p248
sg36
S'.264'
p249
sg38
g3
sg39
g3
sg41
g3
sg42
g3
sg44
g3
sg45
S'1947-48'
p250
sg47
g3
sg49
g3
sg50
g3
sg52
S'.588'
p251
sg54
S'.264'
p252
sba(isrc.gp1.models.Per36Minutes
Per36Minutes
p253
(dp254
g8
g3
sg9
g3
sg11
g3
sg13
g3
sg14
g3
sg16
g3
sg18
g3
sg19
S'45'
p255
sg21
g3
sg24
S'BAA'
p256
sg26
g3
sg27
g3
sg29
g3
sg30
g3
sg31
g3
sg32
S'25'
p257
sg34
S'TOT'
p258
sg36
S'.246'
p259
sg38
g3
sg39
g3
sg41
g3
sg42
g3
sg44
g3
sg45
S'1948-49'
p260
sg47
g3
sg49
g3
sg50
g3
sg52
S'.659'
p261
sg54
S'.246'
p262
sba(isrc.gp1.models.Per36Minutes
Per36Minutes
p263
(dp264
g8
g3
sg9
g3
sg11
g3
sg13
g3
sg14
g3
sg16
g3
sg18
g3
sg19
S'19'
p265
sg21
g3
sg24
S'BAA'
p266
sg26
g3
sg27
g3
sg29
g3
sg30
g3
sg31
g3
sg32
S'25'
p267
sg34
S'STB'
p268
sg36
S'.250'
p269
sg38
g3
sg39
g3
sg41
g3
sg42
g3
sg44
g3
sg45
S'1948-49'
p270
sg47
g3
sg49
g3
sg50
g3
sg52
S'.882'
p271
sg54
S'.250'
p272
sba(isrc.gp1.models.Per36Minutes
Per36Minutes
p273
(dp274
g8
g3
sg9
g3
sg11
g3
sg13
g3
sg14
g3
sg16
g3
sg18
g3
sg19
S'26'
p275
sg21
g3
sg24
S'BAA'
p276
sg26
g3
sg27
g3
sg29
g3
sg30
g3
sg31
g3
sg32
S'25'
p277
sg34
S'PRO'
p278
sg36
S'.243'
p279
sg38
g3
sg39
g3
sg41
g3
sg42
g3
sg44
g3
sg45
S'1948-49'
p280
sg47
g3
sg49
g3
sg50
g3
sg52
S'.519'
p281
sg54
S'.243'
p282
sbasS'_fromYear'
p283
S'1947'
p284
sS'_url'
p285
S'http://www.basketball-reference.com/players/r/rouxgi01.html'
p286
sS'_perGame'
p287
(isrc.gp1.models.PerGame
PerGame
p288
(dp289
g8
g3
sg9
S'0.5'
p290
sg11
S'.243'
p291
sS'_effectiveFieldGalPercentage'
p292
S'1.9'
p293
sg13
g3
sg14
S'1.0'
p294
sg16
S'.243'
p295
sg18
g3
sg19
S'26'
p296
sg21
g3
sg24
S'BAA'
p297
sg26
g3
sg29
g3
sS'_fieldGoalsttempted'
p298
S'2.8'
p299
sg30
g3
sg31
g3
sg32
S'25'
p300
sg34
S'PRO'
p301
sg36
S'0.7'
p302
sg38
g3
sg39
S'.519'
p303
sg41
g3
sg42
S'0.3'
p304
sg44
g3
sg45
S'1948-49'
p305
sg47
S'0.7'
p306
sg49
g3
sg50
S'0.7'
p307
sg52
S'.243'
p308
sg54
S'2.8'
p309
sbsS'_weight'
p310
S'195'
p311
sS'_dob'
p312
S'28-6-1923'
p313
sS'_salary'
p314
(lp315
sg19
S'F-C'
p316
sb.