(isrc.gp1.models.Player
Player
p0
(dp1
S'_experience'
p2
S'NA'
p3
sS'_totals'
p4
(lp5
(isrc.gp1.models.Totals
Totals
p6
(dp7
S'_offensiveRebounds'
p8
g3
sS'_threePointsAttempted'
p9
g3
sS'_fieldGoalsPercentage'
p10
S'.406'
p11
sS'_assist'
p12
S'178'
p13
sS'_threePointsPercentage'
p14
g3
sS'_threePoints'
p15
g3
sS'_points'
p16
S'426'
p17
sS'_position'
p18
S'SG'
p19
sS'_freeThrowsPercentage'
p20
S'.747'
p21
sS'_effectiveFieldGoalPercentage'
p22
S'.406'
p23
sS'_league'
p24
S'NBA'
p25
sS'_steals'
p26
g3
sS'_fieldGoalsAttempted'
p27
S'441'
p28
sS'_personalFouls'
p29
S'163'
p30
sS'_freeThrowsAttempted'
p31
S'91'
p32
sS'_totalRebounds'
p33
S'215'
p34
sS'_age'
p35
S'23'
p36
sS'_team'
p37
S'CIN'
p38
sS'_games'
p39
S'57'
p40
sS'_blocks'
p41
g3
sS'_twoPoints'
p42
S'179'
p43
sS'_freeThrows'
p44
S'68'
p45
sS'_twoPointsAttempted'
p46
S'441'
p47
sS'_defensiveRebounds'
p48
g3
sS'_season'
p49
S'1969-70'
p50
sS'_fieldGoals'
p51
S'179'
p52
sS'_turnOvers'
p53
g3
sS'_twoPointsPercentage'
p54
S'.406'
p55
sS'_minutesPlayed'
p56
S'1161'
p57
sS'_gamesStarted'
p58
g3
sba(isrc.gp1.models.Totals
Totals
p59
(dp60
g8
g3
sg9
g3
sg10
S'.422'
p61
sg12
S'291'
p62
sg14
g3
sg15
g3
sg16
S'898'
p63
sg18
S'SG'
p64
sg20
S'.751'
p65
sg22
S'.422'
p66
sg24
S'NBA'
p67
sg26
g3
sg27
S'896'
p68
sg29
S'246'
p69
sg31
S'189'
p70
sg33
S'334'
p71
sg35
S'24'
p72
sg37
S'BUF'
p73
sg39
S'80'
p74
sg41
g3
sg42
S'378'
p75
sg44
S'142'
p76
sg46
S'896'
p77
sg48
g3
sg49
S'1970-71'
p78
sg51
S'378'
p79
sg53
g3
sg54
S'.422'
p80
sg56
S'2082'
p81
sg58
g3
sba(isrc.gp1.models.Totals
Totals
p82
(dp83
g8
g3
sg9
g3
sg10
S'.446'
p84
sg12
S'377'
p85
sg14
g3
sg15
g3
sg16
S'835'
p86
sg18
S'PG'
p87
sg20
S'.838'
p88
sg22
S'.446'
p89
sg24
S'NBA'
p90
sg26
g3
sg27
S'774'
p91
sg29
S'232'
p92
sg31
S'173'
p93
sg33
S'335'
p94
sg35
S'25'
p95
sg37
S'ATL'
p96
sg39
S'82'
p97
sg41
g3
sg42
S'345'
p98
sg44
S'145'
p99
sg46
S'774'
p100
sg48
g3
sg49
S'1971-72'
p101
sg51
S'345'
p102
sg53
g3
sg54
S'.446'
p103
sg56
S'2337'
p104
sg58
g3
sba(isrc.gp1.models.Totals
Totals
p105
(dp106
g8
g3
sg9
g3
sg10
S'.468'
p107
sg12
S'482'
p108
sg14
g3
sg15
g3
sg16
S'1065'
p109
sg18
S'PG'
p110
sg20
S'.820'
p111
sg22
S'.468'
p112
sg24
S'NBA'
p113
sg26
g3
sg27
S'1007'
p114
sg29
S'257'
p115
sg31
S'150'
p116
sg33
S'399'
p117
sg35
S'26'
p118
sg37
S'ATL'
p119
sg39
S'76'
p120
sg41
g3
sg42
S'471'
p121
sg44
S'123'
p122
sg46
S'1007'
p123
sg48
g3
sg49
S'1972-73'
p124
sg51
S'471'
p125
sg53
g3
sg54
S'.468'
p126
sg56
S'2741'
p127
sg58
g3
sba(isrc.gp1.models.Totals
Totals
p128
(dp129
g8
S'61'
p130
sg9
g3
sg10
S'.454'
p131
sg12
S'355'
p132
sg14
g3
sg15
g3
sg16
S'874'
p133
sg18
S'PG'
p134
sg20
S'.791'
p135
sg22
S'.454'
p136
sg24
S'NBA'
p137
sg26
S'134'
p138
sg27
S'846'
p139
sg29
S'190'
p140
sg31
S'134'
p141
sg33
S'267'
p142
sg35
S'27'
p143
sg37
S'ATL'
p144
sg39
S'62'
p145
sg41
S'18'
p146
sg42
S'384'
p147
sg44
S'106'
p148
sg46
S'846'
p149
sg48
S'206'
p150
sg49
S'1973-74'
p151
sg51
S'384'
p152
sg53
g3
sg54
S'.454'
p153
sg56
S'2003'
p154
sg58
g3
sba(isrc.gp1.models.Totals
Totals
p155
(dp156
g8
S'76'
p157
sg9
g3
sg10
S'.427'
p158
sg12
S'170'
p159
sg14
g3
sg15
g3
sg16
S'722'
p160
sg18
S'SG'
p161
sg20
S'.832'
p162
sg22
S'.427'
p163
sg24
S'NBA'
p164
sg26
S'77'
p165
sg27
S'736'
p166
sg29
S'124'
p167
sg31
S'113'
p168
sg33
S'204'
p169
sg35
S'28'
p170
sg37
S'ATL'
p171
sg39
S'60'
p172
sg41
S'13'
p173
sg42
S'314'
p174
sg44
S'94'
p175
sg46
S'736'
p176
sg48
S'128'
p177
sg49
S'1974-75'
p178
sg51
S'314'
p179
sg53
g3
sg54
S'.427'
p180
sg56
S'1393'
p181
sg58
g3
sba(isrc.gp1.models.Totals
Totals
p182
(dp183
g8
S'56'
p184
sg9
g3
sg10
S'.442'
p185
sg12
S'202'
p186
sg14
g3
sg15
g3
sg16
S'688'
p187
sg18
S'SG'
p188
sg20
S'.776'
p189
sg22
S'.442'
p190
sg24
S'NBA'
p191
sg26
S'82'
p192
sg27
S'676'
p193
sg29
S'139'
p194
sg31
S'116'
p195
sg33
S'220'
p196
sg35
S'29'
p197
sg37
S'SEA'
p198
sg39
S'81'
p199
sg41
S'12'
p200
sg42
S'299'
p201
sg44
S'90'
p202
sg46
S'676'
p203
sg48
S'164'
p204
sg49
S'1975-76'
p205
sg51
S'299'
p206
sg53
g3
sg54
S'.442'
p207
sg56
S'1644'
p208
sg58
g3
sba(isrc.gp1.models.Totals
Totals
p209
(dp210
g8
S'64'
p211
sg9
g3
sg10
S'.438'
p212
sg12
S'170'
p213
sg14
g3
sg15
g3
sg16
S'744'
p214
sg18
S'SG'
p215
sg20
S'.767'
p216
sg22
S'.438'
p217
sg24
S'NBA'
p218
sg26
S'76'
p219
sg27
S'744'
p220
sg29
S'168'
p221
sg31
S'120'
p222
sg33
S'201'
p223
sg35
S'30'
p224
sg37
S'POR'
p225
sg39
S'80'
p226
sg41
S'6'
p227
sg42
S'326'
p228
sg44
S'92'
p229
sg46
S'744'
p230
sg48
S'137'
p231
sg49
S'1976-77'
p232
sg51
S'326'
p233
sg53
g3
sg54
S'.438'
p234
sg56
S'1665'
p235
sg58
g3
sbasS'_college'
p236
S'Purdue University'
p237
sS'_toYear'
p238
S'1977'
p239
sS'_height'
p240
S'6-3'
p241
sS'_active'
p242
I00
sS'_shootingHand'
p243
VRight
p244
sS'_name'
p245
S'Herm Gilliam'
p246
sS'_per100Possessions'
p247
(lp248
(isrc.gp1.models.Per100Possession
Per100Possession
p249
(dp250
g8
S'1.3'
p251
sg9
g3
sg10
S'.454'
p252
sS'_offensiveRating'
p253
g3
sg12
S'7.7'
p254
sg14
g3
sg15
g3
sg16
S'18.9'
p255
sg18
S'PG'
p256
sS'_defensiveRating'
p257
S'98'
p258
sg20
S'.791'
p259
sg24
S'NBA'
p260
sg26
S'2.9'
p261
sg27
S'18.3'
p262
sg29
S'4.1'
p263
sg31
S'2.9'
p264
sg33
S'5.8'
p265
sg35
S'27'
p266
sg37
S'ATL'
p267
sg39
S'62'
p268
sg41
S'0.4'
p269
sg42
S'8.3'
p270
sg44
S'2.3'
p271
sg46
S'18.3'
p272
sg48
S'4.5'
p273
sg49
S'1973-74'
p274
sg51
S'8.3'
p275
sg53
g3
sg54
S'.454'
p276
sg56
S'2003'
p277
sg58
g3
sba(isrc.gp1.models.Per100Possession
Per100Possession
p278
(dp279
g8
S'2.5'
p280
sg9
g3
sg10
S'.427'
p281
sg253
g3
sg12
S'5.5'
p282
sg14
g3
sg15
g3
sg16
S'23.4'
p283
sg18
S'SG'
p284
sg257
S'99'
p285
sg20
S'.832'
p286
sg24
S'NBA'
p287
sg26
S'2.5'
p288
sg27
S'23.9'
p289
sg29
S'4.0'
p290
sg31
S'3.7'
p291
sg33
S'6.6'
p292
sg35
S'28'
p293
sg37
S'ATL'
p294
sg39
S'60'
p295
sg41
S'0.4'
p296
sg42
S'10.2'
p297
sg44
S'3.0'
p298
sg46
S'23.9'
p299
sg48
S'4.1'
p300
sg49
S'1974-75'
p301
sg51
S'10.2'
p302
sg53
g3
sg54
S'.427'
p303
sg56
S'1393'
p304
sg58
g3
sba(isrc.gp1.models.Per100Possession
Per100Possession
p305
(dp306
g8
S'1.5'
p307
sg9
g3
sg10
S'.442'
p308
sg253
g3
sg12
S'5.5'
p309
sg14
g3
sg15
g3
sg16
S'18.7'
p310
sg18
S'SG'
p311
sg257
S'99'
p312
sg20
S'.776'
p313
sg24
S'NBA'
p314
sg26
S'2.2'
p315
sg27
S'18.3'
p316
sg29
S'3.8'
p317
sg31
S'3.1'
p318
sg33
S'6.0'
p319
sg35
S'29'
p320
sg37
S'SEA'
p321
sg39
S'81'
p322
sg41
S'0.3'
p323
sg42
S'8.1'
p324
sg44
S'2.4'
p325
sg46
S'18.3'
p326
sg48
S'4.4'
p327
sg49
S'1975-76'
p328
sg51
S'8.1'
p329
sg53
g3
sg54
S'.442'
p330
sg56
S'1644'
p331
sg58
g3
sba(isrc.gp1.models.Per100Possession
Per100Possession
p332
(dp333
g8
S'1.7'
p334
sg9
g3
sg10
S'.438'
p335
sg253
g3
sg12
S'4.5'
p336
sg14
g3
sg15
g3
sg16
S'19.9'
p337
sg18
S'SG'
p338
sg257
S'100'
p339
sg20
S'.767'
p340
sg24
S'NBA'
p341
sg26
S'2.0'
p342
sg27
S'19.9'
p343
sg29
S'4.5'
p344
sg31
S'3.2'
p345
sg33
S'5.4'
p346
sg35
S'30'
p347
sg37
S'POR'
p348
sg39
S'80'
p349
sg41
S'0.2'
p350
sg42
S'8.7'
p351
sg44
S'2.5'
p352
sg46
S'19.9'
p353
sg48
S'3.7'
p354
sg49
S'1976-77'
p355
sg51
S'8.7'
p356
sg53
g3
sg54
S'.438'
p357
sg56
S'1665'
p358
sg58
g3
sbasS'_advanced'
p359
(lp360
(isrc.gp1.models.Advanced
Advanced
p361
(dp362
S'_offensiveReboundPercentage'
p363
g3
sS'_turnOverPercentage'
p364
g3
sS'_winSharesPer48Minutes'
p365
S'.019'
p366
sS'_stealPercentage'
p367
g3
sS'_usagePercentage'
p368
g3
sS'_totalReboundsPercentage'
p369
g3
sS'_defensiveBoxPlusMinus'
p370
g3
sg18
S'SG'
p371
sS'_valueOverReplacementPlayer'
p372
g3
sS'_trueShootingPercentage'
p373
S'.443'
p374
sS'_defensiveReboundPercentage'
p375
g3
sS'_freeThrowsAttempRate'
p376
S'.206'
p377
sS'_threePointsAttempRate'
p378
g3
sg24
S'NBA'
p379
sS'_offensiveBoxPlusMinues'
p380
g3
sS'_assistPercentage'
p381
S'19.3'
p382
sS'_defensiveWinShares'
p383
S'1.1'
p384
sg35
S'23'
p385
sg37
S'CIN'
p386
sg39
S'57'
p387
sS'_blockPercentage'
p388
g3
sS'_playerEfficiencyRating'
p389
S'11.0'
p390
sS'_offensiveWinShares'
p391
S'-0.6'
p392
sg56
S'1161'
p393
sS'_boxPlusMinus'
p394
g3
sg49
S'1969-70'
p395
sS'_winShares'
p396
S'0.4'
p397
sba(isrc.gp1.models.Advanced
Advanced
p398
(dp399
g363
g3
sg364
g3
sg365
S'.033'
p400
sg367
g3
sg368
g3
sg369
S'7.3'
p401
sg370
g3
sg18
S'SG'
p402
sg372
g3
sg373
S'.459'
p403
sg375
g3
sg376
S'.211'
p404
sg378
g3
sg24
S'NBA'
p405
sg380
g3
sg381
S'20.5'
p406
sg383
S'1.4'
p407
sg35
S'24'
p408
sg37
S'BUF'
p409
sg39
S'80'
p410
sg388
g3
sg389
S'13.1'
p411
sg391
S'0.0'
p412
sg56
S'2082'
p413
sg394
g3
sg49
S'1970-71'
p414
sg396
S'1.4'
p415
sba(isrc.gp1.models.Advanced
Advanced
p416
(dp417
g363
g3
sg364
g3
sg365
S'.061'
p418
sg367
g3
sg368
g3
sg369
S'7.0'
p419
sg370
g3
sg18
S'PG'
p420
sg372
g3
sg373
S'.491'
p421
sg375
g3
sg376
S'.224'
p422
sg378
g3
sg24
S'NBA'
p423
sg380
g3
sg381
S'22.0'
p424
sg383
S'1.5'
p425
sg35
S'25'
p426
sg37
S'ATL'
p427
sg39
S'82'
p428
sg388
g3
sg389
S'13.1'
p429
sg391
S'1.5'
p430
sg56
S'2337'
p431
sg394
g3
sg49
S'1971-72'
p432
sg396
S'2.9'
p433
sba(isrc.gp1.models.Advanced
Advanced
p434
(dp435
g363
g3
sg364
g3
sg365
S'.086'
p436
sg367
g3
sg368
g3
sg369
S'6.9'
p437
sg370
g3
sg18
S'PG'
p438
sg372
g3
sg373
S'.496'
p439
sg375
g3
sg376
S'.149'
p440
sg378
g3
sg24
S'NBA'
p441
sg380
g3
sg381
S'23.1'
p442
sg383
S'2.4'
p443
sg35
S'26'
p444
sg37
S'ATL'
p445
sg39
S'76'
p446
sg388
g3
sg389
S'14.0'
p447
sg391
S'2.5'
p448
sg56
S'2741'
p449
sg394
g3
sg49
S'1972-73'
p450
sg396
S'4.9'
p451
sba(isrc.gp1.models.Advanced
Advanced
p452
(dp453
g363
S'3.0'
p454
sg364
g3
sg365
S'.082'
p455
sg367
S'2.9'
p456
sg368
g3
sg369
S'6.7'
p457
sg370
S'0.4'
p458
sg18
S'PG'
p459
sg372
S'1.6'
p460
sg373
S'.483'
p461
sg375
S'10.5'
p462
sg376
S'.158'
p463
sg378
g3
sg24
S'NBA'
p464
sg380
S'0.7'
p465
sg381
S'24.6'
p466
sg383
S'2.1'
p467
sg35
S'27'
p468
sg37
S'ATL'
p469
sg39
S'62'
p470
sg388
S'0.5'
p471
sg389
S'15.8'
p472
sg391
S'1.4'
p473
sg56
S'2003'
p474
sg394
S'1.1'
p475
sg49
S'1973-74'
p476
sg396
S'3.4'
p477
sba(isrc.gp1.models.Advanced
Advanced
p478
(dp479
g363
S'5.0'
p480
sg364
g3
sg365
S'.087'
p481
sg367
S'2.5'
p482
sg368
g3
sg369
S'7.1'
p483
sg370
S'-0.5'
p484
sg18
S'SG'
p485
sg372
S'0.9'
p486
sg373
S'.459'
p487
sg375
S'9.5'
p488
sg376
S'.154'
p489
sg378
g3
sg24
S'NBA'
p490
sg380
S'1.0'
p491
sg381
S'19.1'
p492
sg383
S'1.1'
p493
sg35
S'28'
p494
sg37
S'ATL'
p495
sg39
S'60'
p496
sg388
S'0.5'
p497
sg389
S'16.2'
p498
sg391
S'1.4'
p499
sg56
S'1393'
p500
sg394
S'0.5'
p501
sg49
S'1974-75'
p502
sg396
S'2.5'
p503
sba(isrc.gp1.models.Advanced
Advanced
p504
(dp505
g363
S'3.4'
p506
sg364
g3
sg365
S'.078'
p507
sg367
S'2.2'
p508
sg368
g3
sg369
S'6.9'
p509
sg370
S'-0.5'
p510
sg18
S'SG'
p511
sg372
S'0.2'
p512
sg373
S'.473'
p513
sg375
S'10.6'
p514
sg376
S'.172'
p515
sg378
g3
sg24
S'NBA'
p516
sg380
S'-1.1'
p517
sg381
S'17.2'
p518
sg383
S'1.4'
p519
sg35
S'29'
p520
sg37
S'SEA'
p521
sg39
S'81'
p522
sg388
S'0.4'
p523
sg389
S'13.8'
p524
sg391
S'1.2'
p525
sg56
S'1644'
p526
sg394
S'-1.6'
p527
sg49
S'1975-76'
p528
sg396
S'2.7'
p529
sba(isrc.gp1.models.Advanced
Advanced
p530
(dp531
g363
S'4.0'
p532
sg364
g3
sg365
S'.071'
p533
sg367
S'2.0'
p534
sg368
g3
sg369
S'6.2'
p535
sg370
S'-1.2'
p536
sg18
S'SG'
p537
sg372
S'-0.4'
p538
sg373
S'.467'
p539
sg375
S'8.3'
p540
sg376
S'.161'
p541
sg378
g3
sg24
S'NBA'
p542
sg380
S'-1.7'
p543
sg381
S'14.1'
p544
sg383
S'1.5'
p545
sg35
S'30'
p546
sg37
S'POR'
p547
sg39
S'80'
p548
sg388
S'0.2'
p549
sg389
S'12.7'
p550
sg391
S'0.9'
p551
sg56
S'1665'
p552
sg394
S'-2.9'
p553
sg49
S'1976-77'
p554
sg396
S'2.5'
p555
sbasS'_per36Minutes'
p556
(lp557
(isrc.gp1.models.Per36Minutes
Per36Minutes
p558
(dp559
g8
g3
sg9
g3
sg10
S'.406'
p560
sg12
S'5.5'
p561
sg14
g3
sg15
g3
sg16
S'13.2'
p562
sg18
S'SG'
p563
sg20
S'.747'
p564
sg24
S'NBA'
p565
sg26
g3
sg27
S'13.7'
p566
sg29
S'5.1'
p567
sg31
S'2.8'
p568
sg33
S'6.7'
p569
sg35
S'23'
p570
sg37
S'CIN'
p571
sg39
S'57'
p572
sg41
g3
sg42
S'5.6'
p573
sg44
S'2.1'
p574
sg46
S'13.7'
p575
sg48
g3
sg49
S'1969-70'
p576
sg51
S'5.6'
p577
sg53
g3
sg54
S'.406'
p578
sg56
S'1161'
p579
sg58
g3
sba(isrc.gp1.models.Per36Minutes
Per36Minutes
p580
(dp581
g8
g3
sg9
g3
sg10
S'.422'
p582
sg12
S'5.0'
p583
sg14
g3
sg15
g3
sg16
S'15.5'
p584
sg18
S'SG'
p585
sg20
S'.751'
p586
sg24
S'NBA'
p587
sg26
g3
sg27
S'15.5'
p588
sg29
S'4.3'
p589
sg31
S'3.3'
p590
sg33
S'5.8'
p591
sg35
S'24'
p592
sg37
S'BUF'
p593
sg39
S'80'
p594
sg41
g3
sg42
S'6.5'
p595
sg44
S'2.5'
p596
sg46
S'15.5'
p597
sg48
g3
sg49
S'1970-71'
p598
sg51
S'6.5'
p599
sg53
g3
sg54
S'.422'
p600
sg56
S'2082'
p601
sg58
g3
sba(isrc.gp1.models.Per36Minutes
Per36Minutes
p602
(dp603
g8
g3
sg9
g3
sg10
S'.446'
p604
sg12
S'5.8'
p605
sg14
g3
sg15
g3
sg16
S'12.9'
p606
sg18
S'PG'
p607
sg20
S'.838'
p608
sg24
S'NBA'
p609
sg26
g3
sg27
S'11.9'
p610
sg29
S'3.6'
p611
sg31
S'2.7'
p612
sg33
S'5.2'
p613
sg35
S'25'
p614
sg37
S'ATL'
p615
sg39
S'82'
p616
sg41
g3
sg42
S'5.3'
p617
sg44
S'2.2'
p618
sg46
S'11.9'
p619
sg48
g3
sg49
S'1971-72'
p620
sg51
S'5.3'
p621
sg53
g3
sg54
S'.446'
p622
sg56
S'2337'
p623
sg58
g3
sba(isrc.gp1.models.Per36Minutes
Per36Minutes
p624
(dp625
g8
g3
sg9
g3
sg10
S'.468'
p626
sg12
S'6.3'
p627
sg14
g3
sg15
g3
sg16
S'14.0'
p628
sg18
S'PG'
p629
sg20
S'.820'
p630
sg24
S'NBA'
p631
sg26
g3
sg27
S'13.2'
p632
sg29
S'3.4'
p633
sg31
S'2.0'
p634
sg33
S'5.2'
p635
sg35
S'26'
p636
sg37
S'ATL'
p637
sg39
S'76'
p638
sg41
g3
sg42
S'6.2'
p639
sg44
S'1.6'
p640
sg46
S'13.2'
p641
sg48
g3
sg49
S'1972-73'
p642
sg51
S'6.2'
p643
sg53
g3
sg54
S'.468'
p644
sg56
S'2741'
p645
sg58
g3
sba(isrc.gp1.models.Per36Minutes
Per36Minutes
p646
(dp647
g8
S'1.1'
p648
sg9
g3
sg10
S'.454'
p649
sg12
S'6.4'
p650
sg14
g3
sg15
g3
sg16
S'15.7'
p651
sg18
S'PG'
p652
sg20
S'.791'
p653
sg24
S'NBA'
p654
sg26
S'2.4'
p655
sg27
S'15.2'
p656
sg29
S'3.4'
p657
sg31
S'2.4'
p658
sg33
S'4.8'
p659
sg35
S'27'
p660
sg37
S'ATL'
p661
sg39
S'62'
p662
sg41
S'0.3'
p663
sg42
S'6.9'
p664
sg44
S'1.9'
p665
sg46
S'15.2'
p666
sg48
S'3.7'
p667
sg49
S'1973-74'
p668
sg51
S'6.9'
p669
sg53
g3
sg54
S'.454'
p670
sg56
S'2003'
p671
sg58
g3
sba(isrc.gp1.models.Per36Minutes
Per36Minutes
p672
(dp673
g8
S'2.0'
p674
sg9
g3
sg10
S'.427'
p675
sg12
S'4.4'
p676
sg14
g3
sg15
g3
sg16
S'18.7'
p677
sg18
S'SG'
p678
sg20
S'.832'
p679
sg24
S'NBA'
p680
sg26
S'2.0'
p681
sg27
S'19.0'
p682
sg29
S'3.2'
p683
sg31
S'2.9'
p684
sg33
S'5.3'
p685
sg35
S'28'
p686
sg37
S'ATL'
p687
sg39
S'60'
p688
sg41
S'0.3'
p689
sg42
S'8.1'
p690
sg44
S'2.4'
p691
sg46
S'19.0'
p692
sg48
S'3.3'
p693
sg49
S'1974-75'
p694
sg51
S'8.1'
p695
sg53
g3
sg54
S'.427'
p696
sg56
S'1393'
p697
sg58
g3
sba(isrc.gp1.models.Per36Minutes
Per36Minutes
p698
(dp699
g8
S'1.2'
p700
sg9
g3
sg10
S'.442'
p701
sg12
S'4.4'
p702
sg14
g3
sg15
g3
sg16
S'15.1'
p703
sg18
S'SG'
p704
sg20
S'.776'
p705
sg24
S'NBA'
p706
sg26
S'1.8'
p707
sg27
S'14.8'
p708
sg29
S'3.0'
p709
sg31
S'2.5'
p710
sg33
S'4.8'
p711
sg35
S'29'
p712
sg37
S'SEA'
p713
sg39
S'81'
p714
sg41
S'0.3'
p715
sg42
S'6.5'
p716
sg44
S'2.0'
p717
sg46
S'14.8'
p718
sg48
S'3.6'
p719
sg49
S'1975-76'
p720
sg51
S'6.5'
p721
sg53
g3
sg54
S'.442'
p722
sg56
S'1644'
p723
sg58
g3
sba(isrc.gp1.models.Per36Minutes
Per36Minutes
p724
(dp725
g8
S'1.4'
p726
sg9
g3
sg10
S'.438'
p727
sg12
S'3.7'
p728
sg14
g3
sg15
g3
sg16
S'16.1'
p729
sg18
S'SG'
p730
sg20
S'.767'
p731
sg24
S'NBA'
p732
sg26
S'1.6'
p733
sg27
S'16.1'
p734
sg29
S'3.6'
p735
sg31
S'2.6'
p736
sg33
S'4.3'
p737
sg35
S'30'
p738
sg37
S'POR'
p739
sg39
S'80'
p740
sg41
S'0.1'
p741
sg42
S'7.0'
p742
sg44
S'2.0'
p743
sg46
S'16.1'
p744
sg48
S'3.0'
p745
sg49
S'1976-77'
p746
sg51
S'7.0'
p747
sg53
g3
sg54
S'.438'
p748
sg56
S'1665'
p749
sg58
g3
sbasS'_fromYear'
p750
S'1970'
p751
sS'_url'
p752
S'http://www.basketball-reference.com/players/g/gillihe01.html'
p753
sS'_perGame'
p754
(isrc.gp1.models.PerGame
PerGame
p755
(dp756
g8
S'0.8'
p757
sg9
g3
sg10
S'.438'
p758
sS'_effectiveFieldGalPercentage'
p759
S'.438'
p760
sg12
S'2.1'
p761
sg14
g3
sg15
g3
sg16
S'9.3'
p762
sg18
S'SG'
p763
sg20
S'.767'
p764
sg24
S'NBA'
p765
sg26
S'1.0'
p766
sg29
S'2.1'
p767
sS'_fieldGoalsttempted'
p768
S'9.3'
p769
sg31
S'1.5'
p770
sg33
S'2.5'
p771
sg35
S'30'
p772
sg37
S'POR'
p773
sg39
S'80'
p774
sg41
S'0.1'
p775
sg42
S'4.1'
p776
sg44
S'1.2'
p777
sg46
S'9.3'
p778
sg48
S'1.7'
p779
sg49
S'1976-77'
p780
sg51
S'4.1'
p781
sg53
g3
sg54
S'.438'
p782
sg56
S'20.8'
p783
sg58
g3
sbsS'_weight'
p784
S'190'
p785
sS'_dob'
p786
S'5-5-1946'
p787
sS'_salary'
p788
(lp789
sg18
S'G-F'
p790
sb.