(isrc.gp1.models.Player
Player
p0
(dp1
S'_experience'
p2
S'NA'
p3
sS'_totals'
p4
(lp5
(isrc.gp1.models.Totals
Totals
p6
(dp7
S'_offensiveRebounds'
p8
S'14'
p9
sS'_threePointsAttempted'
p10
g3
sS'_fieldGoalsPercentage'
p11
S'.527'
p12
sS'_assist'
p13
S'78'
p14
sS'_threePointsPercentage'
p15
g3
sS'_threePoints'
p16
g3
sS'_points'
p17
S'441'
p18
sS'_position'
p19
S'SG'
p20
sS'_freeThrowsPercentage'
p21
S'.785'
p22
sS'_effectiveFieldGoalPercentage'
p23
S'.527'
p24
sS'_league'
p25
S'NBA'
p26
sS'_steals'
p27
S'35'
p28
sS'_fieldGoalsAttempted'
p29
S'370'
p30
sS'_personalFouls'
p31
S'98'
p32
sS'_freeThrowsAttempted'
p33
S'65'
p34
sS'_totalRebounds'
p35
S'79'
p36
sS'_age'
p37
S'22'
p38
sS'_team'
p39
S'BUF'
p40
sS'_games'
p41
S'56'
p42
sS'_blocks'
p43
S'5'
p44
sS'_twoPoints'
p45
S'195'
p46
sS'_freeThrows'
p47
S'51'
p48
sS'_twoPointsAttempted'
p49
S'370'
p50
sS'_defensiveRebounds'
p51
S'65'
p52
sS'_season'
p53
S'1977-78'
p54
sS'_fieldGoals'
p55
S'195'
p56
sS'_turnOvers'
p57
S'50'
p58
sS'_twoPointsPercentage'
p59
S'.527'
p60
sS'_minutesPlayed'
p61
S'947'
p62
sS'_gamesStarted'
p63
g3
sba(isrc.gp1.models.Totals
Totals
p64
(dp65
g8
S'28'
p66
sg10
g3
sg11
S'.541'
p67
sg13
S'136'
p68
sg15
g3
sg16
g3
sg17
S'583'
p69
sg19
S'SG'
p70
sg21
S'.905'
p71
sg23
S'.541'
p72
sg25
S'NBA'
p73
sg27
S'37'
p74
sg29
S'486'
p75
sg31
S'113'
p76
sg33
S'63'
p77
sg35
S'82'
p78
sg37
S'23'
p79
sg39
S'NYK'
p80
sg41
S'75'
p81
sg43
S'6'
p82
sg45
S'263'
p83
sg47
S'57'
p84
sg49
S'486'
p85
sg51
S'54'
p86
sg53
S'1978-79'
p87
sg55
S'263'
p88
sg57
S'64'
p89
sg59
S'.541'
p90
sg61
S'1171'
p91
sg63
g3
sba(isrc.gp1.models.Totals
Totals
p92
(dp93
g8
S'21'
p94
sg10
S'10'
p95
sg11
S'.516'
p96
sg13
S'85'
p97
sg15
S'.200'
p98
sg16
S'2'
p99
sg17
S'441'
p100
sg19
S'SG'
p101
sg21
S'.863'
p102
sg23
S'.519'
p103
sg25
S'NBA'
p104
sg27
S'35'
p105
sg29
S'364'
p106
sg31
S'79'
p107
sg33
S'73'
p108
sg35
S'66'
p109
sg37
S'24'
p110
sg39
S'NYK'
p111
sg41
S'75'
p112
sg43
S'7'
p113
sg45
S'186'
p114
sg47
S'63'
p115
sg49
S'354'
p116
sg51
S'45'
p117
sg53
S'1979-80'
p118
sg55
S'188'
p119
sg57
S'38'
p120
sg59
S'.525'
p121
sg61
S'800'
p122
sg63
g3
sba(isrc.gp1.models.Totals
Totals
p123
(dp124
g8
S'27'
p125
sg10
S'11'
p126
sg11
S'.558'
p127
sg13
S'108'
p128
sg15
S'.364'
p129
sg16
S'4'
p130
sg17
S'672'
p131
sg19
S'PG'
p132
sg21
S'.891'
p133
sg23
S'.562'
p134
sg25
S'NBA'
p135
sg27
S'72'
p136
sg29
S'511'
p137
sg31
S'126'
p138
sg33
S'110'
p139
sg35
S'88'
p140
sg37
S'25'
p141
sg39
S'NYK'
p142
sg41
S'82'
p143
sg43
g44
sg45
S'281'
p144
sg47
S'98'
p145
sg49
S'500'
p146
sg51
S'61'
p147
sg53
S'1980-81'
p148
sg55
S'285'
p149
sg57
S'62'
p150
sg59
S'.562'
p151
sg61
S'1506'
p152
sg63
g3
sba(isrc.gp1.models.Totals
Totals
p153
(dp154
g8
g44
sg10
g99
sg11
S'.543'
p155
sg13
S'87'
p156
sg15
S'.500'
p157
sg16
S'1'
p158
sg17
S'376'
p159
sg19
S'SG'
p160
sg21
S'.881'
p161
sg23
S'.545'
p162
sg25
S'NBA'
p163
sg27
S'26'
p164
sg29
S'291'
p165
sg31
S'80'
p166
sg33
S'67'
p167
sg35
S'61'
p168
sg37
S'26'
p169
sg39
S'ATL'
p170
sg41
S'49'
p171
sg43
S'3'
p172
sg45
S'157'
p173
sg47
S'59'
p174
sg49
S'289'
p175
sg51
S'56'
p176
sg53
S'1981-82'
p177
sg55
S'158'
p178
sg57
S'27'
p179
sg59
S'.543'
p180
sg61
S'833'
p181
sg63
S'0'
p182
sba(isrc.gp1.models.Totals
Totals
p183
(dp184
g8
S'16'
p185
sg10
g158
sg11
S'.518'
p186
sg13
S'125'
p187
sg15
S'.000'
p188
sg16
g182
sg17
S'534'
p189
sg19
S'SG'
p190
sg21
S'.831'
p191
sg23
S'.518'
p192
sg25
S'NBA'
p193
sg27
S'30'
p194
sg29
S'444'
p195
sg31
S'132'
p196
sg33
S'89'
p197
sg35
S'90'
p198
sg37
S'27'
p199
sg39
S'ATL'
p200
sg41
S'73'
p201
sg43
S'9'
p202
sg45
S'230'
p203
sg47
S'74'
p204
sg49
S'443'
p205
sg51
S'74'
p206
sg53
S'1982-83'
p207
sg55
S'230'
p208
sg57
S'52'
p209
sg59
S'.519'
p210
sg61
S'1124'
p211
sg63
g130
sba(isrc.gp1.models.Totals
Totals
p212
(dp213
g8
S'17'
p214
sg10
g99
sg11
S'.563'
p215
sg13
S'171'
p216
sg15
S'.500'
p217
sg16
g158
sg17
S'681'
p218
sg19
S'SG'
p219
sg21
S'.800'
p220
sg23
S'.564'
p221
sg25
S'NBA'
p222
sg27
S'46'
p223
sg29
S'554'
p224
sg31
S'146'
p225
sg33
S'70'
p226
sg35
S'104'
p227
sg37
S'28'
p228
sg39
S'ATL'
p229
sg41
S'81'
p230
sg43
g44
sg45
S'311'
p231
sg47
S'56'
p232
sg49
S'552'
p233
sg51
S'87'
p234
sg53
S'1983-84'
p235
sg55
S'312'
p236
sg57
S'63'
p237
sg59
S'.563'
p238
sg61
S'1503'
p239
sg63
g182
sba(isrc.gp1.models.Totals
Totals
p240
(dp241
g8
S'20'
p242
sg10
g99
sg11
S'.588'
p243
sg13
S'122'
p244
sg15
S'.000'
p245
sg16
g182
sg17
S'518'
p246
sg19
S'SG'
p247
sg21
S'.816'
p248
sg23
S'.588'
p249
sg25
S'NBA'
p250
sg27
S'27'
p251
sg29
S'388'
p252
sg31
S'74'
p253
sg33
S'76'
p254
sg35
S'81'
p255
sg37
S'29'
p256
sg39
S'ATL'
p257
sg41
S'60'
p258
sg43
g182
sg45
S'228'
p259
sg47
S'62'
p260
sg49
S'386'
p261
sg51
S'61'
p262
sg53
S'1984-85'
p263
sg55
S'228'
p264
sg57
S'55'
p265
sg59
S'.591'
p266
sg61
S'1126'
p267
sg63
g44
sba(isrc.gp1.models.Totals
Totals
p268
(dp269
g8
g130
sg10
g182
sg11
S'.495'
p270
sg13
S'39'
p271
sg15
g3
sg16
g182
sg17
S'235'
p272
sg19
S'SG'
p273
sg21
S'.959'
p274
sg23
S'.495'
p275
sg25
S'NBA'
p276
sg27
g202
sg29
S'190'
p277
sg31
S'42'
p278
sg33
S'49'
p279
sg35
S'57'
p280
sg37
S'30'
p281
sg39
S'MIL'
p282
sg41
S'38'
p283
sg43
g172
sg45
S'94'
p284
sg47
S'47'
p285
sg49
S'190'
p286
sg51
S'53'
p287
sg53
S'1985-86'
p288
sg55
S'94'
p289
sg57
S'18'
p290
sg59
S'.495'
p291
sg61
S'573'
p292
sg63
g158
sba(isrc.gp1.models.Totals
Totals
p293
(dp294
g8
g182
sg10
g182
sg11
S'.385'
p295
sg13
g158
sg15
g3
sg16
g182
sg17
S'15'
p296
sg19
S'SG'
p297
sg21
S'.714'
p298
sg23
S'.385'
p299
sg25
S'NBA'
p300
sg27
g158
sg29
S'13'
p301
sg31
g172
sg33
g113
sg35
g99
sg37
S'31'
p302
sg39
S'MIL'
p303
sg41
g130
sg43
g182
sg45
g44
sg47
g44
sg49
S'13'
p304
sg51
g99
sg53
S'1986-87'
p305
sg55
g44
sg57
g182
sg59
S'.385'
p306
sg61
S'34'
p307
sg63
g182
sbasS'_college'
p308
S'Southern Illinois University'
p309
sS'_toYear'
p310
S'1987'
p311
sS'_height'
p312
S'6-2'
p313
sS'_active'
p314
I00
sS'_shootingHand'
p315
VRight
p316
sS'_name'
p317
S'Mike Glenn'
p318
sS'_per100Possessions'
p319
(lp320
(isrc.gp1.models.Per100Possession
Per100Possession
p321
(dp322
g8
S'0.7'
p323
sg10
g3
sg11
S'.527'
p324
sS'_offensiveRating'
p325
S'107'
p326
sg13
S'3.8'
p327
sg15
g3
sg16
g3
sg17
S'21.4'
p328
sg19
S'SG'
p329
sS'_defensiveRating'
p330
S'106'
p331
sg21
S'.785'
p332
sg25
S'NBA'
p333
sg27
S'1.7'
p334
sg29
S'18.0'
p335
sg31
S'4.8'
p336
sg33
S'3.2'
p337
sg35
S'3.8'
p338
sg37
S'22'
p339
sg39
S'BUF'
p340
sg41
S'56'
p341
sg43
S'0.2'
p342
sg45
S'9.5'
p343
sg47
S'2.5'
p344
sg49
S'18.0'
p345
sg51
S'3.2'
p346
sg53
S'1977-78'
p347
sg55
S'9.5'
p348
sg57
S'2.4'
p349
sg59
S'.527'
p350
sg61
S'947'
p351
sg63
g3
sba(isrc.gp1.models.Per100Possession
Per100Possession
p352
(dp353
g8
S'1.1'
p354
sg10
g3
sg11
S'.541'
p355
sg325
S'113'
p356
sg13
S'5.3'
p357
sg15
g3
sg16
g3
sg17
S'22.8'
p358
sg19
S'SG'
p359
sg330
S'109'
p360
sg21
S'.905'
p361
sg25
S'NBA'
p362
sg27
S'1.4'
p363
sg29
S'19.0'
p364
sg31
S'4.4'
p365
sg33
S'2.5'
p366
sg35
S'3.2'
p367
sg37
S'23'
p368
sg39
S'NYK'
p369
sg41
S'75'
p370
sg43
S'0.2'
p371
sg45
S'10.3'
p372
sg47
S'2.2'
p373
sg49
S'19.0'
p374
sg51
S'2.1'
p375
sg53
S'1978-79'
p376
sg55
S'10.3'
p377
sg57
S'2.5'
p378
sg59
S'.541'
p379
sg61
S'1171'
p380
sg63
g3
sba(isrc.gp1.models.Per100Possession
Per100Possession
p381
(dp382
g8
S'1.2'
p383
sg10
S'0.6'
p384
sg11
S'.516'
p385
sg325
S'115'
p386
sg13
S'4.8'
p387
sg15
S'.200'
p388
sg16
S'0.1'
p389
sg17
S'24.8'
p390
sg19
S'SG'
p391
sg330
S'110'
p392
sg21
S'.863'
p393
sg25
S'NBA'
p394
sg27
S'2.0'
p395
sg29
S'20.5'
p396
sg31
S'4.5'
p397
sg33
S'4.1'
p398
sg35
S'3.7'
p399
sg37
S'24'
p400
sg39
S'NYK'
p401
sg41
S'75'
p402
sg43
S'0.4'
p403
sg45
S'10.5'
p404
sg47
S'3.5'
p405
sg49
S'19.9'
p406
sg51
S'2.5'
p407
sg53
S'1979-80'
p408
sg55
S'10.6'
p409
sg57
S'2.1'
p410
sg59
S'.525'
p411
sg61
S'800'
p412
sg63
g3
sba(isrc.gp1.models.Per100Possession
Per100Possession
p413
(dp414
g8
S'0.9'
p415
sg10
S'0.3'
p416
sg11
S'.558'
p417
sg325
S'118'
p418
sg13
S'3.4'
p419
sg15
S'.364'
p420
sg16
S'0.1'
p421
sg17
S'21.2'
p422
sg19
S'PG'
p423
sg330
S'107'
p424
sg21
S'.891'
p425
sg25
S'NBA'
p426
sg27
S'2.3'
p427
sg29
S'16.1'
p428
sg31
S'4.0'
p429
sg33
S'3.5'
p430
sg35
S'2.8'
p431
sg37
S'25'
p432
sg39
S'NYK'
p433
sg41
S'82'
p434
sg43
S'0.2'
p435
sg45
S'8.9'
p436
sg47
S'3.1'
p437
sg49
S'15.8'
p438
sg51
S'1.9'
p439
sg53
S'1980-81'
p440
sg55
S'9.0'
p441
sg57
S'2.0'
p442
sg59
S'.562'
p443
sg61
S'1506'
p444
sg63
g3
sba(isrc.gp1.models.Per100Possession
Per100Possession
p445
(dp446
g8
S'0.3'
p447
sg10
S'0.1'
p448
sg11
S'.543'
p449
sg325
S'121'
p450
sg13
S'5.3'
p451
sg15
S'.500'
p452
sg16
S'0.1'
p453
sg17
S'22.8'
p454
sg19
S'SG'
p455
sg330
S'107'
p456
sg21
S'.881'
p457
sg25
S'NBA'
p458
sg27
S'1.6'
p459
sg29
S'17.6'
p460
sg31
S'4.8'
p461
sg33
S'4.1'
p462
sg35
S'3.7'
p463
sg37
S'26'
p464
sg39
S'ATL'
p465
sg41
S'49'
p466
sg43
S'0.2'
p467
sg45
S'9.5'
p468
sg47
S'3.6'
p469
sg49
S'17.5'
p470
sg51
S'3.4'
p471
sg53
S'1981-82'
p472
sg55
S'9.6'
p473
sg57
S'1.6'
p474
sg59
S'.543'
p475
sg61
S'833'
p476
sg63
g182
sba(isrc.gp1.models.Per100Possession
Per100Possession
p477
(dp478
g8
S'0.7'
p479
sg10
S'0.0'
p480
sg11
S'.518'
p481
sg325
S'112'
p482
sg13
S'5.4'
p483
sg15
S'.000'
p484
sg16
S'0.0'
p485
sg17
S'23.1'
p486
sg19
S'SG'
p487
sg330
S'106'
p488
sg21
S'.831'
p489
sg25
S'NBA'
p490
sg27
S'1.3'
p491
sg29
S'19.2'
p492
sg31
S'5.7'
p493
sg33
S'3.8'
p494
sg35
S'3.9'
p495
sg37
S'27'
p496
sg39
S'ATL'
p497
sg41
S'73'
p498
sg43
S'0.4'
p499
sg45
S'9.9'
p500
sg47
S'3.2'
p501
sg49
S'19.1'
p502
sg51
S'3.2'
p503
sg53
S'1982-83'
p504
sg55
S'9.9'
p505
sg57
S'2.2'
p506
sg59
S'.519'
p507
sg61
S'1124'
p508
sg63
g130
sba(isrc.gp1.models.Per100Possession
Per100Possession
p509
(dp510
g8
S'0.6'
p511
sg10
S'0.1'
p512
sg11
S'.563'
p513
sg325
S'116'
p514
sg13
S'5.7'
p515
sg15
S'.500'
p516
sg16
S'0.0'
p517
sg17
S'22.8'
p518
sg19
S'SG'
p519
sg330
S'110'
p520
sg21
S'.800'
p521
sg25
S'NBA'
p522
sg27
S'1.5'
p523
sg29
S'18.6'
p524
sg31
S'4.9'
p525
sg33
S'2.3'
p526
sg35
S'3.5'
p527
sg37
S'28'
p528
sg39
S'ATL'
p529
sg41
S'81'
p530
sg43
S'0.2'
p531
sg45
S'10.4'
p532
sg47
S'1.9'
p533
sg49
S'18.5'
p534
sg51
S'2.9'
p535
sg53
S'1983-84'
p536
sg55
S'10.5'
p537
sg57
S'2.1'
p538
sg59
S'.563'
p539
sg61
S'1503'
p540
sg63
g182
sba(isrc.gp1.models.Per100Possession
Per100Possession
p541
(dp542
g8
S'0.9'
p543
sg10
S'0.1'
p544
sg11
S'.588'
p545
sg325
S'119'
p546
sg13
S'5.2'
p547
sg15
S'.000'
p548
sg16
S'0.0'
p549
sg17
S'22.1'
p550
sg19
S'SG'
p551
sg330
S'112'
p552
sg21
S'.816'
p553
sg25
S'NBA'
p554
sg27
S'1.2'
p555
sg29
S'16.6'
p556
sg31
S'3.2'
p557
sg33
S'3.2'
p558
sg35
S'3.5'
p559
sg37
S'29'
p560
sg39
S'ATL'
p561
sg41
S'60'
p562
sg43
S'0.0'
p563
sg45
S'9.7'
p564
sg47
S'2.6'
p565
sg49
S'16.5'
p566
sg51
S'2.6'
p567
sg53
S'1984-85'
p568
sg55
S'9.7'
p569
sg57
S'2.3'
p570
sg59
S'.591'
p571
sg61
S'1126'
p572
sg63
g44
sba(isrc.gp1.models.Per100Possession
Per100Possession
p573
(dp574
g8
S'0.3'
p575
sg10
S'0.0'
p576
sg11
S'.495'
p577
sg325
S'116'
p578
sg13
S'3.2'
p579
sg15
g3
sg16
S'0.0'
p580
sg17
S'19.3'
p581
sg19
S'SG'
p582
sg330
S'107'
p583
sg21
S'.959'
p584
sg25
S'NBA'
p585
sg27
S'0.7'
p586
sg29
S'15.6'
p587
sg31
S'3.4'
p588
sg33
S'4.0'
p589
sg35
S'4.7'
p590
sg37
S'30'
p591
sg39
S'MIL'
p592
sg41
S'38'
p593
sg43
S'0.2'
p594
sg45
S'7.7'
p595
sg47
S'3.9'
p596
sg49
S'15.6'
p597
sg51
S'4.3'
p598
sg53
S'1985-86'
p599
sg55
S'7.7'
p600
sg57
S'1.5'
p601
sg59
S'.495'
p602
sg61
S'573'
p603
sg63
g158
sba(isrc.gp1.models.Per100Possession
Per100Possession
p604
(dp605
g8
S'0.0'
p606
sg10
S'0.0'
p607
sg11
S'.385'
p608
sg325
S'108'
p609
sg13
S'1.4'
p610
sg15
g3
sg16
S'0.0'
p611
sg17
S'21.1'
p612
sg19
S'SG'
p613
sg330
S'110'
p614
sg21
S'.714'
p615
sg25
S'NBA'
p616
sg27
S'1.4'
p617
sg29
S'18.3'
p618
sg31
S'4.2'
p619
sg33
S'9.9'
p620
sg35
S'2.8'
p621
sg37
S'31'
p622
sg39
S'MIL'
p623
sg41
g130
sg43
S'0.0'
p624
sg45
S'7.0'
p625
sg47
S'7.0'
p626
sg49
S'18.3'
p627
sg51
S'2.8'
p628
sg53
S'1986-87'
p629
sg55
S'7.0'
p630
sg57
S'0.0'
p631
sg59
S'.385'
p632
sg61
S'34'
p633
sg63
g182
sbasS'_advanced'
p634
(lp635
(isrc.gp1.models.Advanced
Advanced
p636
(dp637
S'_offensiveReboundPercentage'
p638
S'1.6'
p639
sS'_turnOverPercentage'
p640
S'11.1'
p641
sS'_winSharesPer48Minutes'
p642
S'.096'
p643
sS'_stealPercentage'
p644
S'1.7'
p645
sS'_usagePercentage'
p646
S'18.9'
p647
sS'_totalReboundsPercentage'
p648
S'4.5'
p649
sS'_defensiveBoxPlusMinus'
p650
S'-2.2'
p651
sg19
S'SG'
p652
sS'_valueOverReplacementPlayer'
p653
S'-0.1'
p654
sS'_trueShootingPercentage'
p655
S'.553'
p656
sS'_defensiveReboundPercentage'
p657
S'7.3'
p658
sS'_freeThrowsAttempRate'
p659
S'.176'
p660
sS'_threePointsAttempRate'
p661
g3
sg25
S'NBA'
p662
sS'_offensiveBoxPlusMinues'
p663
S'0.0'
p664
sS'_assistPercentage'
p665
S'12.6'
p666
sS'_defensiveWinShares'
p667
S'0.4'
p668
sg37
S'22'
p669
sg39
S'BUF'
p670
sg41
S'56'
p671
sS'_blockPercentage'
p672
S'0.3'
p673
sS'_playerEfficiencyRating'
p674
S'14.3'
p675
sS'_offensiveWinShares'
p676
S'1.5'
p677
sg61
S'947'
p678
sS'_boxPlusMinus'
p679
S'-2.3'
p680
sg53
S'1977-78'
p681
sS'_winShares'
p682
S'1.9'
p683
sba(isrc.gp1.models.Advanced
Advanced
p684
(dp685
g638
S'2.6'
p686
sg640
S'11.1'
p687
sg642
S'.117'
p688
sg644
S'1.4'
p689
sg646
S'19.3'
p690
sg648
S'3.8'
p691
sg650
S'-2.8'
p692
sg19
S'SG'
p693
sg653
S'-0.1'
p694
sg655
S'.567'
p695
sg657
S'5.0'
p696
sg659
S'.130'
p697
sg661
g3
sg25
S'NBA'
p698
sg663
S'0.6'
p699
sg665
S'16.5'
p700
sg667
S'0.5'
p701
sg37
S'23'
p702
sg39
S'NYK'
p703
sg41
S'75'
p704
sg672
S'0.3'
p705
sg674
S'15.5'
p706
sg676
S'2.4'
p707
sg61
S'1171'
p708
sg679
S'-2.2'
p709
sg53
S'1978-79'
p710
sg682
S'2.8'
p711
sba(isrc.gp1.models.Advanced
Advanced
p712
(dp713
g638
S'2.8'
p714
sg640
S'8.8'
p715
sg642
S'.126'
p716
sg644
S'2.0'
p717
sg646
S'20.9'
p718
sg648
S'4.5'
p719
sg650
S'-3.1'
p720
sg19
S'SG'
p721
sg653
S'-0.1'
p722
sg655
S'.557'
p723
sg657
S'6.2'
p724
sg659
S'.201'
p725
sg661
S'.027'
p726
sg25
S'NBA'
p727
sg663
S'0.5'
p728
sg665
S'14.6'
p729
sg667
S'0.3'
p730
sg37
S'24'
p731
sg39
S'NYK'
p732
sg41
S'75'
p733
sg672
S'0.5'
p734
sg674
S'16.6'
p735
sg676
S'1.8'
p736
sg61
S'800'
p737
sg679
S'-2.5'
p738
sg53
S'1979-80'
p739
sg682
S'2.1'
p740
sba(isrc.gp1.models.Advanced
Advanced
p741
(dp742
g638
S'2.0'
p743
sg640
S'10.0'
p744
sg642
S'.139'
p745
sg644
S'2.3'
p746
sg646
S'16.8'
p747
sg648
S'3.3'
p748
sg650
S'-1.3'
p749
sg19
S'PG'
p750
sg653
S'0.5'
p751
sg655
S'.601'
p752
sg657
S'4.8'
p753
sg659
S'.215'
p754
sg661
S'.022'
p755
sg25
S'NBA'
p756
sg663
S'0.5'
p757
sg665
S'10.3'
p758
sg667
S'1.3'
p759
sg37
S'25'
p760
sg39
S'NYK'
p761
sg41
S'82'
p762
sg672
S'0.2'
p763
sg674
S'15.0'
p764
sg676
S'3.1'
p765
sg61
S'1506'
p766
sg679
S'-0.7'
p767
sg53
S'1980-81'
p768
sg682
S'4.4'
p769
sba(isrc.gp1.models.Advanced
Advanced
p770
(dp771
g638
S'0.7'
p772
sg640
S'7.8'
p773
sg642
S'.161'
p774
sg644
S'1.6'
p775
sg646
S'18.1'
p776
sg648
S'4.1'
p777
sg650
S'-1.3'
p778
sg19
S'SG'
p779
sg653
S'0.3'
p780
sg655
S'.587'
p781
sg657
S'7.6'
p782
sg659
S'.230'
p783
sg661
S'.007'
p784
sg25
S'NBA'
p785
sg663
S'0.9'
p786
sg665
S'16.9'
p787
sg667
S'0.8'
p788
sg37
S'26'
p789
sg39
S'ATL'
p790
sg41
S'49'
p791
sg672
S'0.2'
p792
sg674
S'16.0'
p793
sg676
S'2.0'
p794
sg61
S'833'
p795
sg679
S'-0.5'
p796
sg53
S'1981-82'
p797
sg682
S'2.8'
p798
sba(isrc.gp1.models.Advanced
Advanced
p799
(dp800
g638
S'1.5'
p801
sg640
S'9.7'
p802
sg642
S'.126'
p803
sg644
S'1.3'
p804
sg646
S'19.8'
p805
sg648
S'4.3'
p806
sg650
S'-1.9'
p807
sg19
S'SG'
p808
sg653
S'0.1'
p809
sg655
S'.553'
p810
sg657
S'7.0'
p811
sg659
S'.200'
p812
sg661
S'.002'
p813
sg25
S'NBA'
p814
sg663
S'0.2'
p815
sg665
S'17.3'
p816
sg667
S'0.9'
p817
sg37
S'27'
p818
sg39
S'ATL'
p819
sg41
S'73'
p820
sg672
S'0.5'
p821
sg674
S'15.1'
p822
sg676
S'2.0'
p823
sg61
S'1124'
p824
sg679
S'-1.6'
p825
sg53
S'1982-83'
p826
sg682
S'2.9'
p827
sba(isrc.gp1.models.Advanced
Advanced
p828
(dp829
g638
S'1.3'
p830
sg640
S'9.7'
p831
sg642
S'.124'
p832
sg644
S'1.5'
p833
sg646
S'18.6'
p834
sg648
S'4.0'
p835
sg650
S'-1.8'
p836
sg19
S'SG'
p837
sg653
S'0.4'
p838
sg655
S'.582'
p839
sg657
S'6.7'
p840
sg659
S'.126'
p841
sg661
S'.004'
p842
sg25
S'NBA'
p843
sg663
S'1.0'
p844
sg665
S'18.8'
p845
sg667
S'1.1'
p846
sg37
S'28'
p847
sg39
S'ATL'
p848
sg41
S'81'
p849
sg672
S'0.2'
p850
sg674
S'15.5'
p851
sg676
S'2.8'
p852
sg61
S'1503'
p853
sg679
S'-0.9'
p854
sg53
S'1983-84'
p855
sg682
S'3.9'
p856
sba(isrc.gp1.models.Advanced
Advanced
p857
(dp858
g638
S'2.0'
p859
sg640
S'11.5'
p860
sg642
S'.126'
p861
sg644
S'1.2'
p862
sg646
S'17.4'
p863
sg648
S'3.9'
p864
sg650
S'-1.9'
p865
sg19
S'SG'
p866
sg653
S'0.3'
p867
sg655
S'.615'
p868
sg657
S'5.9'
p869
sg659
S'.196'
p870
sg661
S'.005'
p871
sg25
S'NBA'
p872
sg663
S'0.8'
p873
sg665
S'16.3'
p874
sg667
S'0.7'
p875
sg37
S'29'
p876
sg39
S'ATL'
p877
sg41
S'60'
p878
sg672
S'0.0'
p879
sg674
S'15.2'
p880
sg676
S'2.3'
p881
sg61
S'1126'
p882
sg679
S'-1.1'
p883
sg53
S'1984-85'
p884
sg682
S'2.9'
p885
sba(isrc.gp1.models.Advanced
Advanced
p886
(dp887
g638
S'0.8'
p888
sg640
S'7.8'
p889
sg642
S'.128'
p890
sg644
S'0.7'
p891
sg646
S'16.1'
p892
sg648
S'5.5'
p893
sg650
S'-1.3'
p894
sg19
S'SG'
p895
sg653
S'-0.1'
p896
sg655
S'.555'
p897
sg657
S'10.2'
p898
sg659
S'.258'
p899
sg661
S'.000'
p900
sg25
S'NBA'
p901
sg663
S'-1.4'
p902
sg665
S'9.1'
p903
sg667
S'0.6'
p904
sg37
S'30'
p905
sg39
S'MIL'
p906
sg41
S'38'
p907
sg672
S'0.3'
p908
sg674
S'12.0'
p909
sg676
S'0.9'
p910
sg61
S'573'
p911
sg679
S'-2.7'
p912
sg53
S'1985-86'
p913
sg682
S'1.5'
p914
sba(isrc.gp1.models.Advanced
Advanced
p915
(dp916
g638
S'0.0'
p917
sg640
S'0.0'
p918
sg642
S'.080'
p919
sg644
S'1.4'
p920
sg646
S'19.4'
p921
sg648
S'3.3'
p922
sg650
S'-3.3'
p923
sg19
S'SG'
p924
sg653
S'0.0'
p925
sg655
S'.466'
p926
sg657
S'6.6'
p927
sg659
S'.538'
p928
sg661
S'.000'
p929
sg25
S'NBA'
p930
sg663
S'-4.0'
p931
sg665
S'4.0'
p932
sg667
S'0.0'
p933
sg37
S'31'
p934
sg39
S'MIL'
p935
sg41
g130
sg672
S'0.0'
p936
sg674
S'10.1'
p937
sg676
S'0.0'
p938
sg61
S'34'
p939
sg679
S'-7.3'
p940
sg53
S'1986-87'
p941
sg682
S'0.1'
p942
sbasS'_per36Minutes'
p943
(lp944
(isrc.gp1.models.Per36Minutes
Per36Minutes
p945
(dp946
g8
S'0.5'
p947
sg10
g3
sg11
S'.527'
p948
sg13
S'3.0'
p949
sg15
g3
sg16
g3
sg17
S'16.8'
p950
sg19
S'SG'
p951
sg21
S'.785'
p952
sg25
S'NBA'
p953
sg27
S'1.3'
p954
sg29
S'14.1'
p955
sg31
S'3.7'
p956
sg33
S'2.5'
p957
sg35
S'3.0'
p958
sg37
S'22'
p959
sg39
S'BUF'
p960
sg41
S'56'
p961
sg43
S'0.2'
p962
sg45
S'7.4'
p963
sg47
S'1.9'
p964
sg49
S'14.1'
p965
sg51
S'2.5'
p966
sg53
S'1977-78'
p967
sg55
S'7.4'
p968
sg57
S'1.9'
p969
sg59
S'.527'
p970
sg61
S'947'
p971
sg63
g3
sba(isrc.gp1.models.Per36Minutes
Per36Minutes
p972
(dp973
g8
S'0.9'
p974
sg10
g3
sg11
S'.541'
p975
sg13
S'4.2'
p976
sg15
g3
sg16
g3
sg17
S'17.9'
p977
sg19
S'SG'
p978
sg21
S'.905'
p979
sg25
S'NBA'
p980
sg27
S'1.1'
p981
sg29
S'14.9'
p982
sg31
S'3.5'
p983
sg33
S'1.9'
p984
sg35
S'2.5'
p985
sg37
S'23'
p986
sg39
S'NYK'
p987
sg41
S'75'
p988
sg43
S'0.2'
p989
sg45
S'8.1'
p990
sg47
S'1.8'
p991
sg49
S'14.9'
p992
sg51
S'1.7'
p993
sg53
S'1978-79'
p994
sg55
S'8.1'
p995
sg57
S'2.0'
p996
sg59
S'.541'
p997
sg61
S'1171'
p998
sg63
g3
sba(isrc.gp1.models.Per36Minutes
Per36Minutes
p999
(dp1000
g8
S'0.9'
p1001
sg10
S'0.5'
p1002
sg11
S'.516'
p1003
sg13
S'3.8'
p1004
sg15
S'.200'
p1005
sg16
S'0.1'
p1006
sg17
S'19.8'
p1007
sg19
S'SG'
p1008
sg21
S'.863'
p1009
sg25
S'NBA'
p1010
sg27
S'1.6'
p1011
sg29
S'16.4'
p1012
sg31
S'3.6'
p1013
sg33
S'3.3'
p1014
sg35
S'3.0'
p1015
sg37
S'24'
p1016
sg39
S'NYK'
p1017
sg41
S'75'
p1018
sg43
S'0.3'
p1019
sg45
S'8.4'
p1020
sg47
S'2.8'
p1021
sg49
S'15.9'
p1022
sg51
S'2.0'
p1023
sg53
S'1979-80'
p1024
sg55
S'8.5'
p1025
sg57
S'1.7'
p1026
sg59
S'.525'
p1027
sg61
S'800'
p1028
sg63
g3
sba(isrc.gp1.models.Per36Minutes
Per36Minutes
p1029
(dp1030
g8
S'0.6'
p1031
sg10
S'0.3'
p1032
sg11
S'.558'
p1033
sg13
S'2.6'
p1034
sg15
S'.364'
p1035
sg16
S'0.1'
p1036
sg17
S'16.1'
p1037
sg19
S'PG'
p1038
sg21
S'.891'
p1039
sg25
S'NBA'
p1040
sg27
S'1.7'
p1041
sg29
S'12.2'
p1042
sg31
S'3.0'
p1043
sg33
S'2.6'
p1044
sg35
S'2.1'
p1045
sg37
S'25'
p1046
sg39
S'NYK'
p1047
sg41
S'82'
p1048
sg43
S'0.1'
p1049
sg45
S'6.7'
p1050
sg47
S'2.3'
p1051
sg49
S'12.0'
p1052
sg51
S'1.5'
p1053
sg53
S'1980-81'
p1054
sg55
S'6.8'
p1055
sg57
S'1.5'
p1056
sg59
S'.562'
p1057
sg61
S'1506'
p1058
sg63
g3
sba(isrc.gp1.models.Per36Minutes
Per36Minutes
p1059
(dp1060
g8
S'0.2'
p1061
sg10
S'0.1'
p1062
sg11
S'.543'
p1063
sg13
S'3.8'
p1064
sg15
S'.500'
p1065
sg16
S'0.0'
p1066
sg17
S'16.2'
p1067
sg19
S'SG'
p1068
sg21
S'.881'
p1069
sg25
S'NBA'
p1070
sg27
S'1.1'
p1071
sg29
S'12.6'
p1072
sg31
S'3.5'
p1073
sg33
S'2.9'
p1074
sg35
S'2.6'
p1075
sg37
S'26'
p1076
sg39
S'ATL'
p1077
sg41
S'49'
p1078
sg43
S'0.1'
p1079
sg45
S'6.8'
p1080
sg47
S'2.5'
p1081
sg49
S'12.5'
p1082
sg51
S'2.4'
p1083
sg53
S'1981-82'
p1084
sg55
S'6.8'
p1085
sg57
S'1.2'
p1086
sg59
S'.543'
p1087
sg61
S'833'
p1088
sg63
g182
sba(isrc.gp1.models.Per36Minutes
Per36Minutes
p1089
(dp1090
g8
S'0.5'
p1091
sg10
S'0.0'
p1092
sg11
S'.518'
p1093
sg13
S'4.0'
p1094
sg15
S'.000'
p1095
sg16
S'0.0'
p1096
sg17
S'17.1'
p1097
sg19
S'SG'
p1098
sg21
S'.831'
p1099
sg25
S'NBA'
p1100
sg27
S'1.0'
p1101
sg29
S'14.2'
p1102
sg31
S'4.2'
p1103
sg33
S'2.9'
p1104
sg35
S'2.9'
p1105
sg37
S'27'
p1106
sg39
S'ATL'
p1107
sg41
S'73'
p1108
sg43
S'0.3'
p1109
sg45
S'7.4'
p1110
sg47
S'2.4'
p1111
sg49
S'14.2'
p1112
sg51
S'2.4'
p1113
sg53
S'1982-83'
p1114
sg55
S'7.4'
p1115
sg57
S'1.7'
p1116
sg59
S'.519'
p1117
sg61
S'1124'
p1118
sg63
g130
sba(isrc.gp1.models.Per36Minutes
Per36Minutes
p1119
(dp1120
g8
S'0.4'
p1121
sg10
S'0.0'
p1122
sg11
S'.563'
p1123
sg13
S'4.1'
p1124
sg15
S'.500'
p1125
sg16
S'0.0'
p1126
sg17
S'16.3'
p1127
sg19
S'SG'
p1128
sg21
S'.800'
p1129
sg25
S'NBA'
p1130
sg27
S'1.1'
p1131
sg29
S'13.3'
p1132
sg31
S'3.5'
p1133
sg33
S'1.7'
p1134
sg35
S'2.5'
p1135
sg37
S'28'
p1136
sg39
S'ATL'
p1137
sg41
S'81'
p1138
sg43
S'0.1'
p1139
sg45
S'7.4'
p1140
sg47
S'1.3'
p1141
sg49
S'13.2'
p1142
sg51
S'2.1'
p1143
sg53
S'1983-84'
p1144
sg55
S'7.5'
p1145
sg57
S'1.5'
p1146
sg59
S'.563'
p1147
sg61
S'1503'
p1148
sg63
g182
sba(isrc.gp1.models.Per36Minutes
Per36Minutes
p1149
(dp1150
g8
S'0.6'
p1151
sg10
S'0.1'
p1152
sg11
S'.588'
p1153
sg13
S'3.9'
p1154
sg15
S'.000'
p1155
sg16
S'0.0'
p1156
sg17
S'16.6'
p1157
sg19
S'SG'
p1158
sg21
S'.816'
p1159
sg25
S'NBA'
p1160
sg27
S'0.9'
p1161
sg29
S'12.4'
p1162
sg31
S'2.4'
p1163
sg33
S'2.4'
p1164
sg35
S'2.6'
p1165
sg37
S'29'
p1166
sg39
S'ATL'
p1167
sg41
S'60'
p1168
sg43
S'0.0'
p1169
sg45
S'7.3'
p1170
sg47
S'2.0'
p1171
sg49
S'12.3'
p1172
sg51
S'2.0'
p1173
sg53
S'1984-85'
p1174
sg55
S'7.3'
p1175
sg57
S'1.8'
p1176
sg59
S'.591'
p1177
sg61
S'1126'
p1178
sg63
g44
sba(isrc.gp1.models.Per36Minutes
Per36Minutes
p1179
(dp1180
g8
S'0.3'
p1181
sg10
S'0.0'
p1182
sg11
S'.495'
p1183
sg13
S'2.5'
p1184
sg15
g3
sg16
S'0.0'
p1185
sg17
S'14.8'
p1186
sg19
S'SG'
p1187
sg21
S'.959'
p1188
sg25
S'NBA'
p1189
sg27
S'0.6'
p1190
sg29
S'11.9'
p1191
sg31
S'2.6'
p1192
sg33
S'3.1'
p1193
sg35
S'3.6'
p1194
sg37
S'30'
p1195
sg39
S'MIL'
p1196
sg41
S'38'
p1197
sg43
S'0.2'
p1198
sg45
S'5.9'
p1199
sg47
S'3.0'
p1200
sg49
S'11.9'
p1201
sg51
S'3.3'
p1202
sg53
S'1985-86'
p1203
sg55
S'5.9'
p1204
sg57
S'1.1'
p1205
sg59
S'.495'
p1206
sg61
S'573'
p1207
sg63
g158
sba(isrc.gp1.models.Per36Minutes
Per36Minutes
p1208
(dp1209
g8
S'0.0'
p1210
sg10
S'0.0'
p1211
sg11
S'.385'
p1212
sg13
S'1.1'
p1213
sg15
g3
sg16
S'0.0'
p1214
sg17
S'15.9'
p1215
sg19
S'SG'
p1216
sg21
S'.714'
p1217
sg25
S'NBA'
p1218
sg27
S'1.1'
p1219
sg29
S'13.8'
p1220
sg31
S'3.2'
p1221
sg33
S'7.4'
p1222
sg35
S'2.1'
p1223
sg37
S'31'
p1224
sg39
S'MIL'
p1225
sg41
g130
sg43
S'0.0'
p1226
sg45
S'5.3'
p1227
sg47
S'5.3'
p1228
sg49
S'13.8'
p1229
sg51
S'2.1'
p1230
sg53
S'1986-87'
p1231
sg55
S'5.3'
p1232
sg57
S'0.0'
p1233
sg59
S'.385'
p1234
sg61
S'34'
p1235
sg63
g182
sbasS'_fromYear'
p1236
S'1978'
p1237
sS'_url'
p1238
S'http://www.basketball-reference.com/players/g/glennmi01.html'
p1239
sS'_perGame'
p1240
(isrc.gp1.models.PerGame
PerGame
p1241
(dp1242
g8
S'0.0'
p1243
sg10
S'0.0'
p1244
sg11
S'.385'
p1245
sS'_effectiveFieldGalPercentage'
p1246
S'.385'
p1247
sg13
S'0.3'
p1248
sg15
g3
sg16
S'0.0'
p1249
sg17
S'3.8'
p1250
sg19
S'SG'
p1251
sg21
S'.714'
p1252
sg25
S'NBA'
p1253
sg27
S'0.3'
p1254
sg31
S'0.8'
p1255
sS'_fieldGoalsttempted'
p1256
S'3.3'
p1257
sg33
S'1.8'
p1258
sg35
S'0.5'
p1259
sg37
S'31'
p1260
sg39
S'MIL'
p1261
sg41
g130
sg43
S'0.0'
p1262
sg45
S'1.3'
p1263
sg47
S'1.3'
p1264
sg49
S'3.3'
p1265
sg51
S'0.5'
p1266
sg53
S'1986-87'
p1267
sg55
S'1.3'
p1268
sg57
S'0.0'
p1269
sg59
S'.385'
p1270
sg61
S'8.5'
p1271
sg63
g182
sbsS'_weight'
p1272
S'175'
p1273
sS'_dob'
p1274
S'10-9-1955'
p1275
sS'_salary'
p1276
(lp1277
sg19
S'G'
p1278
sb.