(isrc.gp1.models.Player
Player
p0
(dp1
S'_experience'
p2
S'NA'
p3
sS'_totals'
p4
(lp5
(isrc.gp1.models.Totals
Totals
p6
(dp7
S'_offensiveRebounds'
p8
g3
sS'_threePointsAttempted'
p9
g3
sS'_fieldGoalsPercentage'
p10
S'.350'
p11
sS'_assist'
p12
S'10'
p13
sS'_threePointsPercentage'
p14
g3
sS'_threePoints'
p15
g3
sS'_points'
p16
S'50'
p17
sS'_position'
p18
g3
sS'_freeThrowsPercentage'
p19
S'.421'
p20
sS'_effectiveFieldGoalPercentage'
p21
S'.350'
p22
sS'_league'
p23
S'NBA'
p24
sS'_steals'
p25
g3
sS'_fieldGoalsAttempted'
p26
S'60'
p27
sS'_personalFouls'
p28
S'12'
p29
sS'_freeThrowsAttempted'
p30
S'19'
p31
sS'_totalRebounds'
p32
S'26'
p33
sS'_age'
p34
S'21'
p35
sS'_team'
p36
S'ATL'
p37
sS'_games'
p38
S'24'
p39
sS'_blocks'
p40
g3
sS'_twoPoints'
p41
S'21'
p42
sS'_freeThrows'
p43
S'8'
p44
sS'_twoPointsAttempted'
p45
S'60'
p46
sS'_defensiveRebounds'
p47
g3
sS'_season'
p48
S'1969-70'
p49
sS'_fieldGoals'
p50
S'21'
p51
sS'_turnOvers'
p52
g3
sS'_twoPointsPercentage'
p53
S'.350'
p54
sS'_minutesPlayed'
p55
S'113'
p56
sS'_gamesStarted'
p57
g3
sbasS'_college'
p58
S'Manhattan College'
p59
sS'_toYear'
p60
S'1970'
p61
sS'_height'
p62
S'6-5'
p63
sS'_active'
p64
I00
sS'_shootingHand'
p65
VRight
p66
sS'_name'
p67
S"Grady O'Malley"
p68
sS'_per100Possessions'
p69
(lp70
sS'_advanced'
p71
(lp72
(isrc.gp1.models.Advanced
Advanced
p73
(dp74
S'_offensiveReboundPercentage'
p75
g3
sS'_turnOverPercentage'
p76
g3
sS'_winSharesPer48Minutes'
p77
S'-0.136'
p78
sS'_stealPercentage'
p79
g3
sS'_usagePercentage'
p80
g3
sS'_totalReboundsPercentage'
p81
g3
sS'_defensiveBoxPlusMinus'
p82
g3
sg18
g3
sS'_valueOverReplacementPlayer'
p83
g3
sS'_trueShootingPercentage'
p84
S'.366'
p85
sS'_defensiveReboundPercentage'
p86
g3
sS'_freeThrowsAttempRate'
p87
S'.317'
p88
sS'_threePointsAttempRate'
p89
g3
sg23
S'NBA'
p90
sS'_offensiveBoxPlusMinues'
p91
g3
sS'_assistPercentage'
p92
S'11.4'
p93
sS'_defensiveWinShares'
p94
S'0.1'
p95
sg34
S'21'
p96
sg36
S'ATL'
p97
sg38
S'24'
p98
sS'_blockPercentage'
p99
g3
sS'_playerEfficiencyRating'
p100
S'8.6'
p101
sS'_offensiveWinShares'
p102
S'-0.4'
p103
sg55
S'113'
p104
sS'_boxPlusMinus'
p105
g3
sg48
S'1969-70'
p106
sS'_winShares'
p107
S'-0.3'
p108
sbasS'_per36Minutes'
p109
(lp110
(isrc.gp1.models.Per36Minutes
Per36Minutes
p111
(dp112
g8
g3
sg9
g3
sg10
S'.350'
p113
sg12
S'3.2'
p114
sg14
g3
sg15
g3
sg16
S'15.9'
p115
sg18
g3
sg19
S'.421'
p116
sg23
S'NBA'
p117
sg25
g3
sg26
S'19.1'
p118
sg28
S'3.8'
p119
sg30
S'6.1'
p120
sg32
S'8.3'
p121
sg34
S'21'
p122
sg36
S'ATL'
p123
sg38
S'24'
p124
sg40
g3
sg41
S'6.7'
p125
sg43
S'2.5'
p126
sg45
S'19.1'
p127
sg47
g3
sg48
S'1969-70'
p128
sg50
S'6.7'
p129
sg52
g3
sg53
S'.350'
p130
sg55
S'113'
p131
sg57
g3
sbasS'_fromYear'
p132
S'1970'
p133
sS'_url'
p134
S'http://www.basketball-reference.com/players/o/omallgr01.html'
p135
sS'_perGame'
p136
(isrc.gp1.models.PerGame
PerGame
p137
(dp138
g8
g3
sg9
g3
sg10
S'.350'
p139
sS'_effectiveFieldGalPercentage'
p140
S'.350'
p141
sg12
S'0.4'
p142
sg14
g3
sg15
g3
sg16
S'2.1'
p143
sg18
g3
sg19
S'.421'
p144
sg23
S'NBA'
p145
sg25
g3
sg28
S'0.5'
p146
sS'_fieldGoalsttempted'
p147
S'2.5'
p148
sg30
S'0.8'
p149
sg32
S'1.1'
p150
sg34
S'21'
p151
sg36
S'ATL'
p152
sg38
S'24'
p153
sg40
g3
sg41
S'0.9'
p154
sg43
S'0.3'
p155
sg45
S'2.5'
p156
sg47
g3
sg48
S'1969-70'
p157
sg50
S'0.9'
p158
sg52
g3
sg53
S'.350'
p159
sg55
S'4.7'
p160
sg57
g3
sbsS'_weight'
p161
S'205'
p162
sS'_dob'
p163
S'25-4-1948'
p164
sS'_salary'
p165
(lp166
sg18
S'F'
p167
sb.