(isrc.gp1.models.Player
Player
p0
(dp1
S'_experience'
p2
S'NA'
p3
sS'_totals'
p4
(lp5
(isrc.gp1.models.Totals
Totals
p6
(dp7
S'_offensiveRebounds'
p8
S'133'
p9
sS'_threePointsAttempted'
p10
g3
sS'_fieldGoalsPercentage'
p11
S'.489'
p12
sS'_assist'
p13
S'163'
p14
sS'_threePointsPercentage'
p15
g3
sS'_threePoints'
p16
g3
sS'_points'
p17
S'860'
p18
sS'_position'
p19
S'PF'
p20
sS'_freeThrowsPercentage'
p21
S'.722'
p22
sS'_effectiveFieldGoalPercentage'
p23
S'.489'
p24
sS'_league'
p25
S'NBA'
p26
sS'_steals'
p27
S'63'
p28
sS'_fieldGoalsAttempted'
p29
S'773'
p30
sS'_personalFouls'
p31
S'292'
p32
sS'_freeThrowsAttempted'
p33
S'144'
p34
sS'_totalRebounds'
p35
S'478'
p36
sS'_age'
p37
S'23'
p38
sS'_team'
p39
S'SEA'
p40
sS'_games'
p41
S'75'
p42
sS'_blocks'
p43
S'24'
p44
sS'_twoPoints'
p45
S'378'
p46
sS'_freeThrows'
p47
S'104'
p48
sS'_twoPointsAttempted'
p49
S'773'
p50
sS'_defensiveRebounds'
p51
S'345'
p52
sS'_season'
p53
S'1974-75'
p54
sS'_fieldGoals'
p55
S'378'
p56
sS'_turnOvers'
p57
g3
sS'_twoPointsPercentage'
p58
S'.489'
p59
sS'_minutesPlayed'
p60
S'2280'
p61
sS'_gamesStarted'
p62
g3
sba(isrc.gp1.models.Totals
Totals
p63
(dp64
g8
S'109'
p65
sg10
g3
sg11
S'.474'
p66
sg13
S'203'
p67
sg15
g3
sg16
g3
sg17
S'914'
p68
sg19
S'PF'
p69
sg21
S'.746'
p70
sg23
S'.474'
p71
sg25
S'NBA'
p72
sg27
S'75'
p73
sg29
S'831'
p74
sg31
S'260'
p75
sg33
S'169'
p76
sg35
S'398'
p77
sg37
S'24'
p78
sg39
S'SEA'
p79
sg41
S'66'
p80
sg43
S'36'
p81
sg45
S'394'
p82
sg47
S'126'
p83
sg49
S'831'
p84
sg51
S'289'
p85
sg53
S'1975-76'
p86
sg55
S'394'
p87
sg57
g3
sg58
S'.474'
p88
sg60
S'2139'
p89
sg62
g3
sba(isrc.gp1.models.Totals
Totals
p90
(dp91
g8
S'84'
p92
sg10
g3
sg11
S'.436'
p93
sg13
S'124'
p94
sg15
g3
sg16
g3
sg17
S'634'
p95
sg19
S'PF'
p96
sg21
S'.747'
p97
sg23
S'.436'
p98
sg25
S'NBA'
p99
sg27
S'58'
p100
sg29
S'592'
p101
sg31
S'273'
p102
sg33
S'158'
p103
sg35
S'293'
p104
sg37
S'25'
p105
sg39
S'TOT'
p106
sg41
S'83'
p107
sg43
S'31'
p108
sg45
S'258'
p109
sg47
S'118'
p110
sg49
S'592'
p111
sg51
S'209'
p112
sg53
S'1976-77'
p113
sg55
S'258'
p114
sg57
g3
sg58
S'.436'
p115
sg60
S'1639'
p116
sg62
g3
sba(isrc.gp1.models.Totals
Totals
p117
(dp118
g8
S'23'
p119
sg10
g3
sg11
S'.435'
p120
sg13
S'55'
p121
sg15
g3
sg16
g3
sg17
S'287'
p122
sg19
S'PF'
p123
sg21
S'.756'
p124
sg23
S'.435'
p125
sg25
S'NBA'
p126
sg27
S'27'
p127
sg29
S'262'
p128
sg31
S'84'
p129
sg33
S'78'
p130
sg35
S'107'
p131
sg37
S'25'
p132
sg39
S'SEA'
p133
sg41
S'25'
p134
sg43
S'13'
p135
sg45
S'114'
p136
sg47
S'59'
p137
sg49
S'262'
p138
sg51
S'84'
p139
sg53
S'1976-77'
p140
sg55
S'114'
p141
sg57
g3
sg58
S'.435'
p142
sg60
S'643'
p143
sg62
g3
sba(isrc.gp1.models.Totals
Totals
p144
(dp145
g8
S'61'
p146
sg10
g3
sg11
S'.436'
p147
sg13
S'69'
p148
sg15
g3
sg16
g3
sg17
S'347'
p149
sg19
S'PF'
p150
sg21
S'.738'
p151
sg23
S'.436'
p152
sg25
S'NBA'
p153
sg27
S'31'
p154
sg29
S'330'
p155
sg31
S'189'
p156
sg33
S'80'
p157
sg35
S'186'
p158
sg37
S'25'
p159
sg39
S'WSB'
p160
sg41
S'58'
p161
sg43
S'18'
p162
sg45
S'144'
p163
sg47
S'59'
p164
sg49
S'330'
p165
sg51
S'125'
p166
sg53
S'1976-77'
p167
sg55
S'144'
p168
sg57
g3
sg58
S'.436'
p169
sg60
S'996'
p170
sg62
g3
sbasS'_college'
p171
S'California State University, Long Beach'
p172
sS'_toYear'
p173
S'1977'
p174
sS'_height'
p175
S'6-8'
p176
sS'_active'
p177
I00
sS'_shootingHand'
p178
VRight
p179
sS'_name'
p180
S'Leonard Gray'
p181
sS'_per100Possessions'
p182
(lp183
(isrc.gp1.models.Per100Possession
Per100Possession
p184
(dp185
g8
S'2.7'
p186
sg10
g3
sg11
S'.489'
p187
sS'_offensiveRating'
p188
g3
sg13
S'3.3'
p189
sg15
g3
sg16
g3
sg17
S'17.2'
p190
sg19
S'PF'
p191
sS'_defensiveRating'
p192
S'99'
p193
sg21
S'.722'
p194
sg25
S'NBA'
p195
sg27
S'1.3'
p196
sg29
S'15.4'
p197
sg31
S'5.8'
p198
sg33
S'2.9'
p199
sg35
S'9.5'
p200
sg37
S'23'
p201
sg39
S'SEA'
p202
sg41
S'75'
p203
sg43
S'0.5'
p204
sg45
S'7.5'
p205
sg47
S'2.1'
p206
sg49
S'15.4'
p207
sg51
S'6.9'
p208
sg53
S'1974-75'
p209
sg55
S'7.5'
p210
sg57
g3
sg58
S'.489'
p211
sg60
S'2280'
p212
sg62
g3
sba(isrc.gp1.models.Per100Possession
Per100Possession
p213
(dp214
g8
S'2.3'
p215
sg10
g3
sg11
S'.474'
p216
sg188
g3
sg13
S'4.2'
p217
sg15
g3
sg16
g3
sg17
S'19.0'
p218
sg19
S'PF'
p219
sg192
S'99'
p220
sg21
S'.746'
p221
sg25
S'NBA'
p222
sg27
S'1.6'
p223
sg29
S'17.3'
p224
sg31
S'5.4'
p225
sg33
S'3.5'
p226
sg35
S'8.3'
p227
sg37
S'24'
p228
sg39
S'SEA'
p229
sg41
S'66'
p230
sg43
S'0.8'
p231
sg45
S'8.2'
p232
sg47
S'2.6'
p233
sg49
S'17.3'
p234
sg51
S'6.0'
p235
sg53
S'1975-76'
p236
sg55
S'8.2'
p237
sg57
g3
sg58
S'.474'
p238
sg60
S'2139'
p239
sg62
g3
sba(isrc.gp1.models.Per100Possession
Per100Possession
p240
(dp241
g8
S'2.3'
p242
sg10
g3
sg11
S'.436'
p243
sg188
g3
sg13
S'3.4'
p244
sg15
g3
sg16
g3
sg17
S'17.5'
p245
sg19
S'PF'
p246
sg192
S'99'
p247
sg21
S'.747'
p248
sg25
S'NBA'
p249
sg27
S'1.6'
p250
sg29
S'16.3'
p251
sg31
S'7.5'
p252
sg33
S'4.4'
p253
sg35
S'8.1'
p254
sg37
S'25'
p255
sg39
S'TOT'
p256
sg41
S'83'
p257
sg43
S'0.9'
p258
sg45
S'7.1'
p259
sg47
S'3.3'
p260
sg49
S'16.3'
p261
sg51
S'5.8'
p262
sg53
S'1976-77'
p263
sg55
S'7.1'
p264
sg57
g3
sg58
S'.436'
p265
sg60
S'1639'
p266
sg62
g3
sba(isrc.gp1.models.Per100Possession
Per100Possession
p267
(dp268
g8
S'1.6'
p269
sg10
g3
sg11
S'.435'
p270
sg188
g3
sg13
S'3.8'
p271
sg15
g3
sg16
g3
sg17
S'20.1'
p272
sg19
S'PF'
p273
sg192
S'99'
p274
sg21
S'.756'
p275
sg25
S'NBA'
p276
sg27
S'1.9'
p277
sg29
S'18.3'
p278
sg31
S'5.9'
p279
sg33
S'5.5'
p280
sg35
S'7.5'
p281
sg37
S'25'
p282
sg39
S'SEA'
p283
sg41
S'25'
p284
sg43
S'0.9'
p285
sg45
S'8.0'
p286
sg47
S'4.1'
p287
sg49
S'18.3'
p288
sg51
S'5.9'
p289
sg53
S'1976-77'
p290
sg55
S'8.0'
p291
sg57
g3
sg58
S'.435'
p292
sg60
S'643'
p293
sg62
g3
sba(isrc.gp1.models.Per100Possession
Per100Possession
p294
(dp295
g8
S'2.8'
p296
sg10
g3
sg11
S'.436'
p297
sg188
g3
sg13
S'3.1'
p298
sg15
g3
sg16
g3
sg17
S'15.8'
p299
sg19
S'PF'
p300
sg192
S'99'
p301
sg21
S'.738'
p302
sg25
S'NBA'
p303
sg27
S'1.4'
p304
sg29
S'15.0'
p305
sg31
S'8.6'
p306
sg33
S'3.6'
p307
sg35
S'8.5'
p308
sg37
S'25'
p309
sg39
S'WSB'
p310
sg41
S'58'
p311
sg43
S'0.8'
p312
sg45
S'6.6'
p313
sg47
S'2.7'
p314
sg49
S'15.0'
p315
sg51
S'5.7'
p316
sg53
S'1976-77'
p317
sg55
S'6.6'
p318
sg57
g3
sg58
S'.436'
p319
sg60
S'996'
p320
sg62
g3
sbasS'_advanced'
p321
(lp322
(isrc.gp1.models.Advanced
Advanced
p323
(dp324
S'_offensiveReboundPercentage'
p325
S'6.0'
p326
sS'_turnOverPercentage'
p327
g3
sS'_winSharesPer48Minutes'
p328
S'.084'
p329
sS'_stealPercentage'
p330
S'1.3'
p331
sS'_usagePercentage'
p332
g3
sS'_totalReboundsPercentage'
p333
S'10.7'
p334
sS'_defensiveBoxPlusMinus'
p335
S'0.3'
p336
sg19
S'PF'
p337
sS'_valueOverReplacementPlayer'
p338
S'0.8'
p339
sS'_trueShootingPercentage'
p340
S'.514'
p341
sS'_defensiveReboundPercentage'
p342
S'15.6'
p343
sS'_freeThrowsAttempRate'
p344
S'.186'
p345
sS'_threePointsAttempRate'
p346
g3
sg25
S'NBA'
p347
sS'_offensiveBoxPlusMinues'
p348
S'-0.8'
p349
sS'_assistPercentage'
p350
S'10.0'
p351
sS'_defensiveWinShares'
p352
S'2.0'
p353
sg37
S'23'
p354
sg39
S'SEA'
p355
sg41
S'75'
p356
sS'_blockPercentage'
p357
S'0.6'
p358
sS'_playerEfficiencyRating'
p359
S'12.6'
p360
sS'_offensiveWinShares'
p361
S'1.9'
p362
sg60
S'2280'
p363
sS'_boxPlusMinus'
p364
S'-0.5'
p365
sg53
S'1974-75'
p366
sS'_winShares'
p367
S'4.0'
p368
sba(isrc.gp1.models.Advanced
Advanced
p369
(dp370
g325
S'5.1'
p371
sg327
g3
sg328
S'.092'
p372
sg330
S'1.6'
p373
sg332
g3
sg333
S'9.6'
p374
sg335
S'0.4'
p375
sg19
S'PF'
p376
sg338
S'1.3'
p377
sg340
S'.505'
p378
sg342
S'14.3'
p379
sg344
S'.203'
p380
sg346
g3
sg25
S'NBA'
p381
sg348
S'0.0'
p382
sg350
S'13.3'
p383
sg352
S'2.0'
p384
sg37
S'24'
p385
sg39
S'SEA'
p386
sg41
S'66'
p387
sg357
S'0.9'
p388
sg359
S'13.9'
p389
sg361
S'2.2'
p390
sg60
S'2139'
p391
sg364
S'0.4'
p392
sg53
S'1975-76'
p393
sg367
S'4.1'
p394
sba(isrc.gp1.models.Advanced
Advanced
p395
(dp396
g325
S'5.3'
p397
sg327
g3
sg328
S'.053'
p398
sg330
S'1.6'
p399
sg332
g3
sg333
S'9.2'
p400
sg335
S'0.2'
p401
sg19
S'PF'
p402
sg338
S'0.0'
p403
sg340
S'.479'
p404
sg342
S'13.2'
p405
sg344
S'.267'
p406
sg346
g3
sg25
S'NBA'
p407
sg348
S'-2.1'
p408
sg350
S'10.5'
p409
sg352
S'1.8'
p410
sg37
S'25'
p411
sg39
S'TOT'
p412
sg41
S'83'
p413
sg357
S'1.0'
p414
sg359
S'11.4'
p415
sg361
S'0.0'
p416
sg60
S'1639'
p417
sg364
S'-2.0'
p418
sg53
S'1976-77'
p419
sg367
S'1.8'
p420
sba(isrc.gp1.models.Advanced
Advanced
p421
(dp422
g325
S'3.5'
p423
sg327
g3
sg328
S'.070'
p424
sg330
S'1.9'
p425
sg332
g3
sg333
S'8.6'
p426
sg335
S'0.1'
p427
sg19
S'PF'
p428
sg338
S'0.1'
p429
sg340
S'.484'
p430
sg342
S'14.0'
p431
sg344
S'.298'
p432
sg346
g3
sg25
S'NBA'
p433
sg348
S'-1.6'
p434
sg350
S'12.4'
p435
sg352
S'0.7'
p436
sg37
S'25'
p437
sg39
S'SEA'
p438
sg41
S'25'
p439
sg357
S'1.1'
p440
sg359
S'13.3'
p441
sg361
S'0.2'
p442
sg60
S'643'
p443
sg364
S'-1.4'
p444
sg53
S'1976-77'
p445
sg367
S'0.9'
p446
sba(isrc.gp1.models.Advanced
Advanced
p447
(dp448
g325
S'6.4'
p449
sg327
g3
sg328
S'.042'
p450
sg330
S'1.4'
p451
sg332
g3
sg333
S'9.6'
p452
sg335
S'0.2'
p453
sg19
S'PF'
p454
sg338
S'-0.1'
p455
sg340
S'.475'
p456
sg342
S'12.6'
p457
sg344
S'.242'
p458
sg346
g3
sg25
S'NBA'
p459
sg348
S'-2.5'
p460
sg350
S'9.3'
p461
sg352
S'1.1'
p462
sg37
S'25'
p463
sg39
S'WSB'
p464
sg41
S'58'
p465
sg357
S'0.9'
p466
sg359
S'10.2'
p467
sg361
S'-0.2'
p468
sg60
S'996'
p469
sg364
S'-2.3'
p470
sg53
S'1976-77'
p471
sg367
S'0.9'
p472
sbasS'_per36Minutes'
p473
(lp474
(isrc.gp1.models.Per36Minutes
Per36Minutes
p475
(dp476
g8
S'2.1'
p477
sg10
g3
sg11
S'.489'
p478
sg13
S'2.6'
p479
sg15
g3
sg16
g3
sg17
S'13.6'
p480
sg19
S'PF'
p481
sg21
S'.722'
p482
sg25
S'NBA'
p483
sg27
S'1.0'
p484
sg29
S'12.2'
p485
sg31
S'4.6'
p486
sg33
S'2.3'
p487
sg35
S'7.5'
p488
sg37
S'23'
p489
sg39
S'SEA'
p490
sg41
S'75'
p491
sg43
S'0.4'
p492
sg45
S'6.0'
p493
sg47
S'1.6'
p494
sg49
S'12.2'
p495
sg51
S'5.4'
p496
sg53
S'1974-75'
p497
sg55
S'6.0'
p498
sg57
g3
sg58
S'.489'
p499
sg60
S'2280'
p500
sg62
g3
sba(isrc.gp1.models.Per36Minutes
Per36Minutes
p501
(dp502
g8
S'1.8'
p503
sg10
g3
sg11
S'.474'
p504
sg13
S'3.4'
p505
sg15
g3
sg16
g3
sg17
S'15.4'
p506
sg19
S'PF'
p507
sg21
S'.746'
p508
sg25
S'NBA'
p509
sg27
S'1.3'
p510
sg29
S'14.0'
p511
sg31
S'4.4'
p512
sg33
S'2.8'
p513
sg35
S'6.7'
p514
sg37
S'24'
p515
sg39
S'SEA'
p516
sg41
S'66'
p517
sg43
S'0.6'
p518
sg45
S'6.6'
p519
sg47
S'2.1'
p520
sg49
S'14.0'
p521
sg51
S'4.9'
p522
sg53
S'1975-76'
p523
sg55
S'6.6'
p524
sg57
g3
sg58
S'.474'
p525
sg60
S'2139'
p526
sg62
g3
sba(isrc.gp1.models.Per36Minutes
Per36Minutes
p527
(dp528
g8
S'1.8'
p529
sg10
g3
sg11
S'.436'
p530
sg13
S'2.7'
p531
sg15
g3
sg16
g3
sg17
S'13.9'
p532
sg19
S'PF'
p533
sg21
S'.747'
p534
sg25
S'NBA'
p535
sg27
S'1.3'
p536
sg29
S'13.0'
p537
sg31
S'6.0'
p538
sg33
S'3.5'
p539
sg35
S'6.4'
p540
sg37
S'25'
p541
sg39
S'TOT'
p542
sg41
S'83'
p543
sg43
S'0.7'
p544
sg45
S'5.7'
p545
sg47
S'2.6'
p546
sg49
S'13.0'
p547
sg51
S'4.6'
p548
sg53
S'1976-77'
p549
sg55
S'5.7'
p550
sg57
g3
sg58
S'.436'
p551
sg60
S'1639'
p552
sg62
g3
sba(isrc.gp1.models.Per36Minutes
Per36Minutes
p553
(dp554
g8
S'1.3'
p555
sg10
g3
sg11
S'.435'
p556
sg13
S'3.1'
p557
sg15
g3
sg16
g3
sg17
S'16.1'
p558
sg19
S'PF'
p559
sg21
S'.756'
p560
sg25
S'NBA'
p561
sg27
S'1.5'
p562
sg29
S'14.7'
p563
sg31
S'4.7'
p564
sg33
S'4.4'
p565
sg35
S'6.0'
p566
sg37
S'25'
p567
sg39
S'SEA'
p568
sg41
S'25'
p569
sg43
S'0.7'
p570
sg45
S'6.4'
p571
sg47
S'3.3'
p572
sg49
S'14.7'
p573
sg51
S'4.7'
p574
sg53
S'1976-77'
p575
sg55
S'6.4'
p576
sg57
g3
sg58
S'.435'
p577
sg60
S'643'
p578
sg62
g3
sba(isrc.gp1.models.Per36Minutes
Per36Minutes
p579
(dp580
g8
S'2.2'
p581
sg10
g3
sg11
S'.436'
p582
sg13
S'2.5'
p583
sg15
g3
sg16
g3
sg17
S'12.5'
p584
sg19
S'PF'
p585
sg21
S'.738'
p586
sg25
S'NBA'
p587
sg27
S'1.1'
p588
sg29
S'11.9'
p589
sg31
S'6.8'
p590
sg33
S'2.9'
p591
sg35
S'6.7'
p592
sg37
S'25'
p593
sg39
S'WSB'
p594
sg41
S'58'
p595
sg43
S'0.7'
p596
sg45
S'5.2'
p597
sg47
S'2.1'
p598
sg49
S'11.9'
p599
sg51
S'4.5'
p600
sg53
S'1976-77'
p601
sg55
S'5.2'
p602
sg57
g3
sg58
S'.436'
p603
sg60
S'996'
p604
sg62
g3
sbasS'_fromYear'
p605
S'1975'
p606
sS'_url'
p607
S'http://www.basketball-reference.com/players/g/grayle01.html'
p608
sS'_perGame'
p609
(isrc.gp1.models.PerGame
PerGame
p610
(dp611
g8
S'1.1'
p612
sg10
g3
sg11
S'.436'
p613
sS'_effectiveFieldGalPercentage'
p614
S'.436'
p615
sg13
S'1.2'
p616
sg15
g3
sg16
g3
sg17
S'6.0'
p617
sg19
S'PF'
p618
sg21
S'.738'
p619
sg25
S'NBA'
p620
sg27
S'0.5'
p621
sg31
S'3.3'
p622
sS'_fieldGoalsttempted'
p623
S'5.7'
p624
sg33
S'1.4'
p625
sg35
S'3.2'
p626
sg37
S'25'
p627
sg39
S'WSB'
p628
sg41
S'58'
p629
sg43
S'0.3'
p630
sg45
S'2.5'
p631
sg47
S'1.0'
p632
sg49
S'5.7'
p633
sg51
S'2.2'
p634
sg53
S'1976-77'
p635
sg55
S'2.5'
p636
sg57
g3
sg58
S'.436'
p637
sg60
S'17.2'
p638
sg62
g3
sbsS'_weight'
p639
S'240'
p640
sS'_dob'
p641
S'19-12-1951'
p642
sS'_salary'
p643
(lp644
sg19
S'F'
p645
sb.