(isrc.gp1.models.Player
Player
p0
(dp1
S'_experience'
p2
S'NA'
p3
sS'_totals'
p4
(lp5
(isrc.gp1.models.Totals
Totals
p6
(dp7
S'_offensiveRebounds'
p8
S'31'
p9
sS'_threePointsAttempted'
p10
S'0'
p11
sS'_fieldGoalsPercentage'
p12
S'.432'
p13
sS'_assist'
p14
S'2'
p15
sS'_threePointsPercentage'
p16
S'16'
p17
sS'_threePoints'
p18
g11
sS'_points'
p19
g3
sS'_position'
p20
S'C'
p21
sS'_freeThrowsPercentage'
p22
S'12'
p23
sS'_effectiveFieldGoalPercentage'
p24
S'10'
p25
sS'_league'
p26
S'NBA'
p27
sS'_steals'
p28
g15
sS'_fieldGoalsAttempted'
p29
S'37'
p30
sS'_personalFouls'
p31
S'42'
p32
sS'_freeThrowsAttempted'
p33
S'.833'
p34
sS'_totalRebounds'
p35
S'7'
p36
sS'_age'
p37
S'24'
p38
sS'_team'
p39
S'IND'
p40
sS'_games'
p41
S'24'
p42
sS'_blocks'
p43
g36
sS'_twoPoints'
p44
S'37'
p45
sS'_freeThrows'
p46
S'12'
p47
sS'_twoPointsAttempted'
p48
S'.432'
p49
sS'_defensiveRebounds'
p50
S'43'
p51
sS'_season'
p52
S'1986-87'
p53
sS'_fieldGoals'
p54
S'16'
p55
sS'_turnOvers'
p56
S'42'
p57
sS'_twoPointsPercentage'
p58
S'.432'
p59
sS'_minutesPlayed'
p60
S'128'
p61
sS'_gamesStarted'
p62
g11
sba(isrc.gp1.models.Totals
Totals
p63
(dp64
g8
S'14'
p65
sg10
g11
sg12
S'.471'
p66
sg14
g15
sg16
S'8'
p67
sg18
g11
sg19
g3
sg20
g21
sg22
S'3'
p68
sg24
S'18'
p69
sg26
S'NBA'
p70
sg28
S'4'
p71
sg29
S'17'
p72
sg31
S'34'
p73
sg33
S'.692'
p74
sg35
S'5'
p75
sg37
S'25'
p76
sg39
S'IND'
p77
sg41
S'20'
p78
sg43
S'11'
p79
sg44
S'17'
p80
sg46
S'26'
p81
sg48
S'.471'
p82
sg50
S'17'
p83
sg52
S'1987-88'
p84
sg54
g67
sg56
S'19'
p85
sg58
S'.471'
p86
sg60
S'74'
p87
sg62
g11
sba(isrc.gp1.models.Totals
Totals
p88
(dp89
g8
S'53'
p90
sg10
g11
sg12
S'.558'
p91
sg14
g75
sg16
S'43'
p92
sg18
g11
sg19
g3
sg20
g21
sg22
S'39'
p93
sg24
S'43'
p94
sg26
S'NBA'
p95
sg28
S'11'
p96
sg29
S'77'
p97
sg31
S'129'
p98
sg33
S'.672'
p99
sg35
S'18'
p100
sg37
S'26'
p101
sg39
S'IND'
p102
sg41
S'53'
p103
sg43
S'39'
p104
sg44
S'77'
p105
sg46
S'64'
p106
sg48
S'.558'
p107
sg50
S'92'
p108
sg52
S'1988-89'
p109
sg54
S'43'
p110
sg56
S'100'
p111
sg58
S'.558'
p112
sg60
S'396'
p113
sg62
g71
sba(isrc.gp1.models.Totals
Totals
p114
(dp115
g8
S'66'
p116
sg10
g11
sg12
S'.377'
p117
sg14
g71
sg16
S'20'
p118
sg18
g11
sg19
g3
sg20
g21
sg22
S'21'
p119
sg24
S'25'
p120
sg26
S'NBA'
p121
sg28
S'14'
p122
sg29
S'53'
p123
sg31
S'65'
p124
sg33
S'.735'
p125
sg35
g67
sg37
S'27'
p126
sg39
S'IND'
p127
sg41
S'49'
p128
sg43
S'19'
p129
sg44
S'53'
p130
sg46
S'34'
p131
sg48
S'.377'
p132
sg50
S'87'
p133
sg52
S'1989-90'
p134
sg54
S'20'
p135
sg56
S'69'
p136
sg58
S'.377'
p137
sg60
S'307'
p138
sg62
g11
sba(isrc.gp1.models.Totals
Totals
p139
(dp140
g8
S'66'
p141
sg10
g15
sg12
S'.505'
p142
sg14
S'51'
p143
sg16
S'.000'
p144
sg18
g11
sg19
S'259'
p145
sg20
g21
sg22
S'.600'
p146
sg24
S'.505'
p147
sg26
S'NBA'
p148
sg28
S'24'
p149
sg29
S'194'
p150
sg31
S'178'
p151
sg33
S'105'
p152
sg35
S'255'
p153
sg37
S'28'
p154
sg39
S'IND'
p155
sg41
S'73'
p156
sg43
S'29'
p157
sg44
S'98'
p158
sg46
S'63'
p159
sg48
S'192'
p160
sg50
S'189'
p161
sg52
S'1990-91'
p162
sg54
S'98'
p163
sg56
S'57'
p164
sg58
S'.510'
p165
sg60
S'1031'
p166
sg62
S'42'
p167
sba(isrc.gp1.models.Totals
Totals
p168
(dp169
g8
S'22'
p170
sg10
S'1'
p171
sg12
S'.494'
p172
sg14
S'25'
p173
sg16
S'1.000'
p174
sg18
g171
sg19
S'117'
p175
sg20
g21
sg22
S'.750'
p176
sg24
S'.500'
p177
sg26
S'NBA'
p178
sg28
S'10'
p179
sg29
S'87'
p180
sg31
S'123'
p181
sg33
S'40'
p182
sg35
S'96'
p183
sg37
S'29'
p184
sg39
S'IND'
p185
sg41
S'60'
p186
sg43
S'16'
p187
sg44
S'42'
p188
sg46
S'30'
p189
sg48
S'86'
p190
sg50
S'74'
p191
sg52
S'1991-92'
p192
sg54
S'43'
p193
sg56
S'31'
p194
sg58
S'.488'
p195
sg60
S'509'
p196
sg62
S'23'
p197
sba(isrc.gp1.models.Totals
Totals
p198
(dp199
g8
S'26'
p200
sg10
g71
sg12
S'.328'
p201
sg14
g67
sg16
S'.000'
p202
sg18
g11
sg19
S'46'
p203
sg20
g21
sg22
S'.533'
p204
sg24
S'.328'
p205
sg26
S'NBA'
p206
sg28
g75
sg29
S'58'
p207
sg31
S'60'
p208
sg33
S'15'
p209
sg35
S'66'
p210
sg37
S'30'
p211
sg39
S'IND'
p212
sg41
S'43'
p213
sg43
g67
sg44
S'19'
p214
sg46
g67
sg48
S'54'
p215
sg50
S'40'
p216
sg52
S'1992-93'
p217
sg54
S'19'
p218
sg56
S'9'
p219
sg58
S'.352'
p220
sg60
S'239'
p221
sg62
g11
sba(isrc.gp1.models.Totals
Totals
p222
(dp223
g8
S'47'
p224
sg10
g171
sg12
S'.500'
p225
sg14
S'31'
p226
sg16
S'1.000'
p227
sg18
g171
sg19
S'132'
p228
sg20
g21
sg22
S'.711'
p229
sg24
S'.505'
p230
sg26
S'NBA'
p231
sg28
S'16'
p232
sg29
S'104'
p233
sg31
S'159'
p234
sg33
S'38'
p235
sg35
S'170'
p236
sg37
S'31'
p237
sg39
S'DAL'
p238
sg41
S'54'
p239
sg43
S'24'
p240
sg44
S'51'
p241
sg46
S'27'
p242
sg48
S'103'
p243
sg50
S'123'
p244
sg52
S'1993-94'
p245
sg54
S'52'
p246
sg56
S'43'
p247
sg58
S'.495'
p248
sg60
S'685'
p249
sg62
S'19'
p250
sba(isrc.gp1.models.Totals
Totals
p251
(dp252
g8
S'84'
p253
sg10
g11
sg12
S'.412'
p254
sg14
S'6'
p255
sg16
S'42'
p256
sg18
g11
sg19
g3
sg20
g21
sg22
S'32'
p257
sg24
S'26'
p258
sg26
S'NBA'
p259
sg28
S'22'
p260
sg29
S'102'
p261
sg31
S'110'
p262
sg33
S'.634'
p263
sg35
S'22'
p264
sg37
S'32'
p265
sg39
S'CLE'
p266
sg41
S'58'
p267
sg43
S'25'
p268
sg44
S'102'
p269
sg46
S'41'
p270
sg48
S'.412'
p271
sg50
S'116'
p272
sg52
S'1994-95'
p273
sg54
S'42'
p274
sg56
S'108'
p275
sg58
S'.412'
p276
sg60
S'483'
p277
sg62
g68
sba(isrc.gp1.models.Totals
Totals
p278
(dp279
g8
g3
sg10
g3
sg12
g3
sg14
g3
sg16
g3
sg18
g3
sg19
g3
sg20
g3
sg22
g3
sg24
g3
sg26
g3
sg28
g3
sg29
g3
sg31
g3
sg33
g3
sg35
g3
sg37
S'33'
p280
sg39
S'Did Not Play\xc2\xa0(other pro league\xe2\x80\x94CBA)'
p281
sg41
g3
sg43
g3
sg44
g3
sg46
g3
sg48
g3
sg50
g3
sg52
S'1995-96'
p282
sg54
g3
sg56
g3
sg58
g3
sg60
g3
sg62
g3
sba(isrc.gp1.models.Totals
Totals
p283
(dp284
g8
S'19'
p285
sg10
g171
sg12
S'.459'
p286
sg14
S'11'
p287
sg16
S'1.000'
p288
sg18
g171
sg19
S'80'
p289
sg20
g21
sg22
S'.407'
p290
sg24
S'.466'
p291
sg26
S'NBA'
p292
sg28
g67
sg29
S'74'
p293
sg31
S'65'
p294
sg33
S'27'
p295
sg35
S'76'
p296
sg37
S'34'
p297
sg39
S'DAL'
p298
sg41
S'40'
p299
sg43
g36
sg44
S'33'
p300
sg46
S'11'
p301
sg48
S'73'
p302
sg50
S'57'
p303
sg52
S'1996-97'
p304
sg54
S'34'
p305
sg56
g219
sg58
S'.452'
p306
sg60
S'389'
p307
sg62
g68
sbasS'_college'
p308
S'University of Kansas'
p309
sS'_toYear'
p310
S'1997'
p311
sS'_height'
p312
S'7-1'
p313
sS'_active'
p314
I00
sS'_shootingHand'
p315
VRight
p316
sS'_name'
p317
S'Greg Dreiling'
p318
sS'_per100Possessions'
p319
(lp320
(isrc.gp1.models.Per100Possession
Per100Possession
p321
(dp322
g8
S'11.8'
p323
sg10
S'0.0'
p324
sg12
S'.432'
p325
sS'_offensiveRating'
p326
S'104'
p327
sg14
S'0.8'
p328
sg16
S'6.1'
p329
sg18
S'0.0'
p330
sg19
S'103'
p331
sg20
g21
sS'_defensiveRating'
p332
g3
sg22
S'4.6'
p333
sg26
S'NBA'
p334
sg28
S'0.8'
p335
sg29
S'14.0'
p336
sg31
S'15.9'
p337
sg33
S'.833'
p338
sg35
S'2.7'
p339
sg37
S'24'
p340
sg39
S'IND'
p341
sg41
S'24'
p342
sg43
S'2.7'
p343
sg44
S'14.0'
p344
sg46
S'4.6'
p345
sg48
S'.432'
p346
sg50
S'16.3'
p347
sg52
S'1986-87'
p348
sg54
S'6.1'
p349
sg56
S'15.9'
p350
sg58
S'3.8'
p351
sg60
S'128'
p352
sg62
g11
sba(isrc.gp1.models.Per100Possession
Per100Possession
p353
(dp354
g8
S'9.3'
p355
sg10
S'0.0'
p356
sg12
S'.471'
p357
sg326
S'104'
p358
sg14
S'1.3'
p359
sg16
S'5.3'
p360
sg18
S'0.0'
p361
sg19
S'95'
p362
sg20
g21
sg332
g3
sg22
S'2.0'
p363
sg26
S'NBA'
p364
sg28
S'2.6'
p365
sg29
S'11.3'
p366
sg31
S'22.5'
p367
sg33
S'.692'
p368
sg35
S'3.3'
p369
sg37
S'25'
p370
sg39
S'IND'
p371
sg41
S'20'
p372
sg43
S'7.3'
p373
sg44
S'11.3'
p374
sg46
S'17.2'
p375
sg48
S'.471'
p376
sg50
S'11.3'
p377
sg52
S'1987-88'
p378
sg54
S'5.3'
p379
sg56
S'12.6'
p380
sg58
S'11.9'
p381
sg60
S'74'
p382
sg62
g11
sba(isrc.gp1.models.Per100Possession
Per100Possession
p383
(dp384
g8
S'6.5'
p385
sg10
S'0.0'
p386
sg12
S'.558'
p387
sg326
S'112'
p388
sg14
S'0.6'
p389
sg16
S'5.3'
p390
sg18
S'0.0'
p391
sg19
S'103'
p392
sg20
g21
sg332
g3
sg22
S'4.8'
p393
sg26
S'NBA'
p394
sg28
S'1.3'
p395
sg29
S'9.4'
p396
sg31
S'15.8'
p397
sg33
S'.672'
p398
sg35
S'2.2'
p399
sg37
S'26'
p400
sg39
S'IND'
p401
sg41
S'53'
p402
sg43
S'4.8'
p403
sg44
S'9.4'
p404
sg46
S'7.8'
p405
sg48
S'.558'
p406
sg50
S'11.2'
p407
sg52
S'1988-89'
p408
sg54
S'5.3'
p409
sg56
S'12.2'
p410
sg58
S'5.3'
p411
sg60
S'396'
p412
sg62
g71
sba(isrc.gp1.models.Per100Possession
Per100Possession
p413
(dp414
g8
S'10.6'
p415
sg10
S'0.0'
p416
sg12
S'.377'
p417
sg326
S'108'
p418
sg14
S'0.6'
p419
sg16
S'3.2'
p420
sg18
S'0.0'
p421
sg19
S'93'
p422
sg20
g21
sg332
g3
sg22
S'3.4'
p423
sg26
S'NBA'
p424
sg28
S'2.3'
p425
sg29
S'8.5'
p426
sg31
S'10.5'
p427
sg33
S'.735'
p428
sg35
S'1.3'
p429
sg37
S'27'
p430
sg39
S'IND'
p431
sg41
S'49'
p432
sg43
S'3.1'
p433
sg44
S'8.5'
p434
sg46
S'5.5'
p435
sg48
S'.377'
p436
sg50
S'14.0'
p437
sg52
S'1989-90'
p438
sg54
S'3.2'
p439
sg56
S'11.1'
p440
sg58
S'4.0'
p441
sg60
S'307'
p442
sg62
g11
sba(isrc.gp1.models.Per100Possession
Per100Possession
p443
(dp444
g8
S'3.1'
p445
sg10
S'0.1'
p446
sg12
S'.505'
p447
sg326
S'103'
p448
sg14
S'2.4'
p449
sg16
S'.000'
p450
sg18
S'0.0'
p451
sg19
S'12.1'
p452
sg20
g21
sg332
S'110'
p453
sg22
S'.600'
p454
sg26
S'NBA'
p455
sg28
S'1.1'
p456
sg29
S'9.1'
p457
sg31
S'8.3'
p458
sg33
S'4.9'
p459
sg35
S'11.9'
p460
sg37
S'28'
p461
sg39
S'IND'
p462
sg41
S'73'
p463
sg43
S'1.4'
p464
sg44
S'4.6'
p465
sg46
S'3.0'
p466
sg48
S'9.0'
p467
sg50
S'8.9'
p468
sg52
S'1990-91'
p469
sg54
S'4.6'
p470
sg56
S'2.7'
p471
sg58
S'.510'
p472
sg60
S'1031'
p473
sg62
S'42'
p474
sba(isrc.gp1.models.Per100Possession
Per100Possession
p475
(dp476
g8
S'2.1'
p477
sg10
S'0.1'
p478
sg12
S'.494'
p479
sg326
S'100'
p480
sg14
S'2.4'
p481
sg16
S'1.000'
p482
sg18
S'0.1'
p483
sg19
S'11.1'
p484
sg20
g21
sg332
S'110'
p485
sg22
S'.750'
p486
sg26
S'NBA'
p487
sg28
S'1.0'
p488
sg29
S'8.3'
p489
sg31
S'11.7'
p490
sg33
S'3.8'
p491
sg35
S'9.1'
p492
sg37
S'29'
p493
sg39
S'IND'
p494
sg41
S'60'
p495
sg43
S'1.5'
p496
sg44
S'4.0'
p497
sg46
S'2.9'
p498
sg48
S'8.2'
p499
sg50
S'7.0'
p500
sg52
S'1991-92'
p501
sg54
S'4.1'
p502
sg56
S'3.0'
p503
sg58
S'.488'
p504
sg60
S'509'
p505
sg62
S'23'
p506
sba(isrc.gp1.models.Per100Possession
Per100Possession
p507
(dp508
g8
S'5.4'
p509
sg10
S'0.8'
p510
sg12
S'.328'
p511
sg326
S'90'
p512
sg14
S'1.7'
p513
sg16
S'.000'
p514
sg18
S'0.0'
p515
sg19
S'9.6'
p516
sg20
g21
sg332
S'108'
p517
sg22
S'.533'
p518
sg26
S'NBA'
p519
sg28
S'1.0'
p520
sg29
S'12.1'
p521
sg31
S'12.6'
p522
sg33
S'3.1'
p523
sg35
S'13.8'
p524
sg37
S'30'
p525
sg39
S'IND'
p526
sg41
S'43'
p527
sg43
S'1.7'
p528
sg44
S'4.0'
p529
sg46
S'1.7'
p530
sg48
S'11.3'
p531
sg50
S'8.4'
p532
sg52
S'1992-93'
p533
sg54
S'4.0'
p534
sg56
S'1.9'
p535
sg58
S'.352'
p536
sg60
S'239'
p537
sg62
g11
sba(isrc.gp1.models.Per100Possession
Per100Possession
p538
(dp539
g8
S'3.5'
p540
sg10
S'0.1'
p541
sg12
S'.500'
p542
sg326
S'97'
p543
sg14
S'2.3'
p544
sg16
S'1.000'
p545
sg18
S'0.1'
p546
sg19
S'9.8'
p547
sg20
g21
sg332
S'107'
p548
sg22
S'.711'
p549
sg26
S'NBA'
p550
sg28
S'1.2'
p551
sg29
S'7.7'
p552
sg31
S'11.8'
p553
sg33
S'2.8'
p554
sg35
S'12.6'
p555
sg37
S'31'
p556
sg39
S'DAL'
p557
sg41
S'54'
p558
sg43
S'1.8'
p559
sg44
S'3.8'
p560
sg46
S'2.0'
p561
sg48
S'7.6'
p562
sg50
S'9.1'
p563
sg52
S'1993-94'
p564
sg54
S'3.9'
p565
sg56
S'3.2'
p566
sg58
S'.495'
p567
sg60
S'685'
p568
sg62
S'19'
p569
sba(isrc.gp1.models.Per100Possession
Per100Possession
p570
(dp571
g8
S'9.8'
p572
sg10
S'0.0'
p573
sg12
S'.412'
p574
sg326
S'103'
p575
sg14
S'0.7'
p576
sg16
S'4.9'
p577
sg18
S'0.0'
p578
sg19
S'94'
p579
sg20
g21
sg332
g3
sg22
S'3.8'
p580
sg26
S'NBA'
p581
sg28
S'2.6'
p582
sg29
S'12.0'
p583
sg31
S'12.9'
p584
sg33
S'.634'
p585
sg35
S'2.6'
p586
sg37
S'32'
p587
sg39
S'CLE'
p588
sg41
S'58'
p589
sg43
S'2.9'
p590
sg44
S'12.0'
p591
sg46
S'4.8'
p592
sg48
S'.412'
p593
sg50
S'13.6'
p594
sg52
S'1994-95'
p595
sg54
S'4.9'
p596
sg56
S'12.7'
p597
sg58
S'3.0'
p598
sg60
S'483'
p599
sg62
g68
sba(isrc.gp1.models.Per100Possession
Per100Possession
p600
(dp601
g8
S'2.6'
p602
sg10
S'0.1'
p603
sg12
S'.459'
p604
sg326
S'99'
p605
sg14
S'1.5'
p606
sg16
S'1.000'
p607
sg18
S'0.1'
p608
sg19
S'11.1'
p609
sg20
g21
sg332
S'108'
p610
sg22
S'.407'
p611
sg26
S'NBA'
p612
sg28
S'1.1'
p613
sg29
S'10.3'
p614
sg31
S'9.0'
p615
sg33
S'3.7'
p616
sg35
S'10.5'
p617
sg37
S'34'
p618
sg39
S'DAL'
p619
sg41
S'40'
p620
sg43
S'1.0'
p621
sg44
S'4.6'
p622
sg46
S'1.5'
p623
sg48
S'10.1'
p624
sg50
S'7.9'
p625
sg52
S'1996-97'
p626
sg54
S'4.7'
p627
sg56
S'1.2'
p628
sg58
S'.452'
p629
sg60
S'389'
p630
sg62
g68
sbasS'_advanced'
p631
(lp632
(isrc.gp1.models.Advanced
Advanced
p633
(dp634
S'_offensiveReboundPercentage'
p635
S'10.1'
p636
sS'_turnOverPercentage'
p637
S'14.2'
p638
sS'_winSharesPer48Minutes'
p639
S'.093'
p640
sS'_stealPercentage'
p641
S'0.8'
p642
sS'_usagePercentage'
p643
S'16.1'
p644
sS'_totalReboundsPercentage'
p645
S'18.4'
p646
sS'_defensiveBoxPlusMinus'
p647
S'-0.4'
p648
sg20
g21
sS'_valueOverReplacementPlayer'
p649
S'-0.1'
p650
sS'_trueShootingPercentage'
p651
S'.497'
p652
sS'_defensiveReboundPercentage'
p653
S'27.0'
p654
sS'_freeThrowsAttempRate'
p655
S'.324'
p656
sS'_threePointsAttempRate'
p657
S'.000'
p658
sg26
S'NBA'
p659
sS'_offensiveBoxPlusMinues'
p660
S'-4.2'
p661
sS'_assistPercentage'
p662
S'7.4'
p663
sS'_defensiveWinShares'
p664
S'0.2'
p665
sg37
S'24'
p666
sg39
S'IND'
p667
sg41
S'24'
p668
sS'_blockPercentage'
p669
S'0.9'
p670
sS'_playerEfficiencyRating'
p671
S'8.6'
p672
sS'_offensiveWinShares'
p673
S'0.0'
p674
sg60
S'128'
p675
sS'_boxPlusMinus'
p676
S'-4.6'
p677
sg52
S'1986-87'
p678
sS'_winShares'
p679
S'0.2'
p680
sba(isrc.gp1.models.Advanced
Advanced
p681
(dp682
g635
S'4.5'
p683
sg637
S'27.9'
p684
sg639
S'.048'
p685
sg641
S'1.3'
p686
sg643
S'22.5'
p687
sg645
S'12.6'
p688
sg647
S'0.7'
p689
sg20
g21
sg649
S'-0.1'
p690
sg651
S'.598'
p691
sg653
S'20.6'
p692
sg655
S'1.529'
p693
sg657
S'.000'
p694
sg26
S'NBA'
p695
sg660
S'-5.6'
p696
sg662
S'8.8'
p697
sg664
S'0.1'
p698
sg37
S'25'
p699
sg39
S'IND'
p700
sg41
S'20'
p701
sg669
S'3.2'
p702
sg671
S'10.5'
p703
sg673
S'0.0'
p704
sg60
S'74'
p705
sg676
S'-4.9'
p706
sg52
S'1987-88'
p707
sg679
S'0.1'
p708
sba(isrc.gp1.models.Advanced
Advanced
p709
(dp710
g635
S'11.6'
p711
sg637
S'27.1'
p712
sg639
S'.045'
p713
sg641
S'0.6'
p714
sg643
S'15.2'
p715
sg645
S'12.9'
p716
sg647
S'-0.9'
p717
sg20
g21
sg649
S'-0.2'
p718
sg651
S'.613'
p719
sg653
S'14.0'
p720
sg655
S'.831'
p721
sg657
S'.000'
p722
sg26
S'NBA'
p723
sg660
S'-2.6'
p724
sg662
S'6.1'
p725
sg664
S'0.2'
p726
sg37
S'26'
p727
sg39
S'IND'
p728
sg41
S'53'
p729
sg669
S'1.6'
p730
sg671
S'8.1'
p731
sg673
S'0.1'
p732
sg60
S'396'
p733
sg676
S'-3.5'
p734
sg52
S'1988-89'
p735
sg679
S'0.4'
p736
sba(isrc.gp1.models.Advanced
Advanced
p737
(dp738
g635
S'8.4'
p739
sg637
S'21.8'
p740
sg639
S'.028'
p741
sg641
S'0.6'
p742
sg643
S'12.3'
p743
sg645
S'16.6'
p744
sg647
S'-0.4'
p745
sg20
g21
sg649
S'-0.3'
p746
sg651
S'.478'
p747
sg653
S'24.0'
p748
sg655
S'.642'
p749
sg657
S'.000'
p750
sg26
S'NBA'
p751
sg660
S'-6.0'
p752
sg662
S'3.3'
p753
sg664
S'0.3'
p754
sg37
S'27'
p755
sg39
S'IND'
p756
sg41
S'49'
p757
sg669
S'2.7'
p758
sg671
S'6.0'
p759
sg673
S'-0.1'
p760
sg60
S'307'
p761
sg676
S'-6.3'
p762
sg52
S'1989-90'
p763
sg679
S'0.2'
p764
sba(isrc.gp1.models.Advanced
Advanced
p765
(dp766
g635
S'7.6'
p767
sg637
S'19.2'
p768
sg639
S'.050'
p769
sg641
S'1.1'
p770
sg643
S'12.1'
p771
sg645
S'14.2'
p772
sg647
S'0.0'
p773
sg20
g21
sg649
S'-0.3'
p774
sg651
S'.539'
p775
sg653
S'20.3'
p776
sg655
S'.541'
p777
sg657
S'.010'
p778
sg26
S'NBA'
p779
sg660
S'-3.0'
p780
sg662
S'6.4'
p781
sg664
S'0.8'
p782
sg37
S'28'
p783
sg39
S'IND'
p784
sg41
S'73'
p785
sg669
S'1.7'
p786
sg671
S'8.7'
p787
sg673
S'0.3'
p788
sg60
S'1031'
p789
sg676
S'-3.0'
p790
sg52
S'1990-91'
p791
sg679
S'1.1'
p792
sba(isrc.gp1.models.Advanced
Advanced
p793
(dp794
g635
S'5.1'
p795
sg637
S'22.9'
p796
sg639
S'.043'
p797
sg641
S'1.0'
p798
sg643
S'11.2'
p799
sg645
S'10.4'
p800
sg647
S'0.2'
p801
sg20
g21
sg649
S'-0.3'
p802
sg651
S'.559'
p803
sg653
S'15.2'
p804
sg655
S'.460'
p805
sg657
S'.011'
p806
sg26
S'NBA'
p807
sg660
S'-4.3'
p808
sg662
S'6.2'
p809
sg664
S'0.4'
p810
sg37
S'29'
p811
sg39
S'IND'
p812
sg41
S'60'
p813
sg669
S'1.9'
p814
sg671
S'5.6'
p815
sg673
S'0.0'
p816
sg60
S'509'
p817
sg676
S'-4.1'
p818
sg52
S'1991-92'
p819
sg679
S'0.5'
p820
sba(isrc.gp1.models.Advanced
Advanced
p821
(dp822
g635
S'12.1'
p823
sg637
S'12.2'
p824
sg639
S'.011'
p825
sg641
S'1.0'
p826
sg643
S'13.0'
p827
sg645
S'15.1'
p828
sg647
S'-0.6'
p829
sg20
g21
sg649
S'-0.2'
p830
sg651
S'.356'
p831
sg653
S'18.1'
p832
sg655
S'.259'
p833
sg657
S'.069'
p834
sg26
S'NBA'
p835
sg660
S'-5.0'
p836
sg662
S'4.3'
p837
sg664
S'0.2'
p838
sg37
S'30'
p839
sg39
S'IND'
p840
sg41
S'43'
p841
sg669
S'2.1'
p842
sg671
S'5.0'
p843
sg673
S'-0.2'
p844
sg60
S'239'
p845
sg676
S'-5.6'
p846
sg52
S'1992-93'
p847
sg679
S'0.1'
p848
sba(isrc.gp1.models.Advanced
Advanced
p849
(dp850
g635
S'7.2'
p851
sg637
S'26.3'
p852
sg639
S'.040'
p853
sg641
S'1.2'
p854
sg643
S'10.1'
p855
sg645
S'13.9'
p856
sg647
S'0.9'
p857
sg20
g21
sg649
S'-0.4'
p858
sg651
S'.547'
p859
sg653
S'21.8'
p860
sg655
S'.365'
p861
sg657
S'.010'
p862
sg26
S'NBA'
p863
sg660
S'-4.9'
p864
sg662
S'6.5'
p865
sg664
S'0.6'
p866
sg37
S'31'
p867
sg39
S'DAL'
p868
sg41
S'54'
p869
sg669
S'2.4'
p870
sg671
S'7.2'
p871
sg673
S'0.0'
p872
sg60
S'685'
p873
sg676
S'-4.0'
p874
sg52
S'1993-94'
p875
sg679
S'0.6'
p876
sba(isrc.gp1.models.Advanced
Advanced
p877
(dp878
g635
S'8.0'
p879
sg637
S'17.2'
p880
sg639
S'.059'
p881
sg641
S'0.7'
p882
sg643
S'14.4'
p883
sg645
S'15.0'
p884
sg647
S'1.9'
p885
sg20
g21
sg649
S'-0.2'
p886
sg651
S'.458'
p887
sg653
S'22.4'
p888
sg655
S'.402'
p889
sg657
S'.000'
p890
sg26
S'NBA'
p891
sg660
S'-5.9'
p892
sg662
S'7.5'
p893
sg664
S'0.8'
p894
sg37
S'32'
p895
sg39
S'CLE'
p896
sg41
S'58'
p897
sg669
S'3.6'
p898
sg671
S'7.8'
p899
sg673
S'-0.2'
p900
sg60
S'483'
p901
sg676
S'-4.0'
p902
sg52
S'1994-95'
p903
sg679
S'0.6'
p904
sba(isrc.gp1.models.Advanced
Advanced
p905
(dp906
g635
S'5.6'
p907
sg637
S'9.5'
p908
sg639
S'.045'
p909
sg641
S'1.1'
p910
sg643
S'11.2'
p911
sg645
S'11.3'
p912
sg647
S'-0.1'
p913
sg20
g21
sg649
S'-0.3'
p914
sg651
S'.466'
p915
sg653
S'17.3'
p916
sg655
S'.365'
p917
sg657
S'.014'
p918
sg26
S'NBA'
p919
sg660
S'-5.0'
p920
sg662
S'4.5'
p921
sg664
S'0.3'
p922
sg37
S'34'
p923
sg39
S'DAL'
p924
sg41
S'40'
p925
sg669
S'1.4'
p926
sg671
S'7.3'
p927
sg673
S'0.0'
p928
sg60
S'389'
p929
sg676
S'-5.2'
p930
sg52
S'1996-97'
p931
sg679
S'0.4'
p932
sbasS'_per36Minutes'
p933
(lp934
(isrc.gp1.models.Per36Minutes
Per36Minutes
p935
(dp936
g8
S'8.7'
p937
sg10
S'0.0'
p938
sg12
S'.432'
p939
sg14
S'0.6'
p940
sg16
S'4.5'
p941
sg18
S'0.0'
p942
sg19
g3
sg20
g21
sg22
S'3.4'
p943
sg26
S'NBA'
p944
sg28
S'0.6'
p945
sg29
S'10.4'
p946
sg31
S'11.8'
p947
sg33
S'.833'
p948
sg35
S'2.0'
p949
sg37
S'24'
p950
sg39
S'IND'
p951
sg41
S'24'
p952
sg43
S'2.0'
p953
sg44
S'10.4'
p954
sg46
S'3.4'
p955
sg48
S'.432'
p956
sg50
S'12.1'
p957
sg52
S'1986-87'
p958
sg54
S'4.5'
p959
sg56
S'11.8'
p960
sg58
S'2.8'
p961
sg60
S'128'
p962
sg62
g11
sba(isrc.gp1.models.Per36Minutes
Per36Minutes
p963
(dp964
g8
S'6.8'
p965
sg10
S'0.0'
p966
sg12
S'.471'
p967
sg14
S'1.0'
p968
sg16
S'3.9'
p969
sg18
S'0.0'
p970
sg19
g3
sg20
g21
sg22
S'1.5'
p971
sg26
S'NBA'
p972
sg28
S'1.9'
p973
sg29
S'8.3'
p974
sg31
S'16.5'
p975
sg33
S'.692'
p976
sg35
S'2.4'
p977
sg37
S'25'
p978
sg39
S'IND'
p979
sg41
S'20'
p980
sg43
S'5.4'
p981
sg44
S'8.3'
p982
sg46
S'12.6'
p983
sg48
S'.471'
p984
sg50
S'8.3'
p985
sg52
S'1987-88'
p986
sg54
S'3.9'
p987
sg56
S'9.2'
p988
sg58
S'8.8'
p989
sg60
S'74'
p990
sg62
g11
sba(isrc.gp1.models.Per36Minutes
Per36Minutes
p991
(dp992
g8
S'4.8'
p993
sg10
S'0.0'
p994
sg12
S'.558'
p995
sg14
S'0.5'
p996
sg16
S'3.9'
p997
sg18
S'0.0'
p998
sg19
g3
sg20
g21
sg22
S'3.5'
p999
sg26
S'NBA'
p1000
sg28
S'1.0'
p1001
sg29
S'7.0'
p1002
sg31
S'11.7'
p1003
sg33
S'.672'
p1004
sg35
S'1.6'
p1005
sg37
S'26'
p1006
sg39
S'IND'
p1007
sg41
S'53'
p1008
sg43
S'3.5'
p1009
sg44
S'7.0'
p1010
sg46
S'5.8'
p1011
sg48
S'.558'
p1012
sg50
S'8.4'
p1013
sg52
S'1988-89'
p1014
sg54
S'3.9'
p1015
sg56
S'9.1'
p1016
sg58
S'3.9'
p1017
sg60
S'396'
p1018
sg62
g71
sba(isrc.gp1.models.Per36Minutes
Per36Minutes
p1019
(dp1020
g8
S'7.7'
p1021
sg10
S'0.0'
p1022
sg12
S'.377'
p1023
sg14
S'0.5'
p1024
sg16
S'2.3'
p1025
sg18
S'0.0'
p1026
sg19
g3
sg20
g21
sg22
S'2.5'
p1027
sg26
S'NBA'
p1028
sg28
S'1.6'
p1029
sg29
S'6.2'
p1030
sg31
S'7.6'
p1031
sg33
S'.735'
p1032
sg35
S'0.9'
p1033
sg37
S'27'
p1034
sg39
S'IND'
p1035
sg41
S'49'
p1036
sg43
S'2.2'
p1037
sg44
S'6.2'
p1038
sg46
S'4.0'
p1039
sg48
S'.377'
p1040
sg50
S'10.2'
p1041
sg52
S'1989-90'
p1042
sg54
S'2.3'
p1043
sg56
S'8.1'
p1044
sg58
S'2.9'
p1045
sg60
S'307'
p1046
sg62
g11
sba(isrc.gp1.models.Per36Minutes
Per36Minutes
p1047
(dp1048
g8
S'2.3'
p1049
sg10
S'0.1'
p1050
sg12
S'.505'
p1051
sg14
S'1.8'
p1052
sg16
S'.000'
p1053
sg18
S'0.0'
p1054
sg19
S'9.0'
p1055
sg20
g21
sg22
S'.600'
p1056
sg26
S'NBA'
p1057
sg28
S'0.8'
p1058
sg29
S'6.8'
p1059
sg31
S'6.2'
p1060
sg33
S'3.7'
p1061
sg35
S'8.9'
p1062
sg37
S'28'
p1063
sg39
S'IND'
p1064
sg41
S'73'
p1065
sg43
S'1.0'
p1066
sg44
S'3.4'
p1067
sg46
S'2.2'
p1068
sg48
S'6.7'
p1069
sg50
S'6.6'
p1070
sg52
S'1990-91'
p1071
sg54
S'3.4'
p1072
sg56
S'2.0'
p1073
sg58
S'.510'
p1074
sg60
S'1031'
p1075
sg62
S'42'
p1076
sba(isrc.gp1.models.Per36Minutes
Per36Minutes
p1077
(dp1078
g8
S'1.6'
p1079
sg10
S'0.1'
p1080
sg12
S'.494'
p1081
sg14
S'1.8'
p1082
sg16
S'1.000'
p1083
sg18
S'0.1'
p1084
sg19
S'8.3'
p1085
sg20
g21
sg22
S'.750'
p1086
sg26
S'NBA'
p1087
sg28
S'0.7'
p1088
sg29
S'6.2'
p1089
sg31
S'8.7'
p1090
sg33
S'2.8'
p1091
sg35
S'6.8'
p1092
sg37
S'29'
p1093
sg39
S'IND'
p1094
sg41
S'60'
p1095
sg43
S'1.1'
p1096
sg44
S'3.0'
p1097
sg46
S'2.1'
p1098
sg48
S'6.1'
p1099
sg50
S'5.2'
p1100
sg52
S'1991-92'
p1101
sg54
S'3.0'
p1102
sg56
S'2.2'
p1103
sg58
S'.488'
p1104
sg60
S'509'
p1105
sg62
S'23'
p1106
sba(isrc.gp1.models.Per36Minutes
Per36Minutes
p1107
(dp1108
g8
S'3.9'
p1109
sg10
S'0.6'
p1110
sg12
S'.328'
p1111
sg14
S'1.2'
p1112
sg16
S'.000'
p1113
sg18
S'0.0'
p1114
sg19
S'6.9'
p1115
sg20
g21
sg22
S'.533'
p1116
sg26
S'NBA'
p1117
sg28
S'0.8'
p1118
sg29
S'8.7'
p1119
sg31
S'9.0'
p1120
sg33
S'2.3'
p1121
sg35
S'9.9'
p1122
sg37
S'30'
p1123
sg39
S'IND'
p1124
sg41
S'43'
p1125
sg43
S'1.2'
p1126
sg44
S'2.9'
p1127
sg46
S'1.2'
p1128
sg48
S'8.1'
p1129
sg50
S'6.0'
p1130
sg52
S'1992-93'
p1131
sg54
S'2.9'
p1132
sg56
S'1.4'
p1133
sg58
S'.352'
p1134
sg60
S'239'
p1135
sg62
g11
sba(isrc.gp1.models.Per36Minutes
Per36Minutes
p1136
(dp1137
g8
S'2.5'
p1138
sg10
S'0.1'
p1139
sg12
S'.500'
p1140
sg14
S'1.6'
p1141
sg16
S'1.000'
p1142
sg18
S'0.1'
p1143
sg19
S'6.9'
p1144
sg20
g21
sg22
S'.711'
p1145
sg26
S'NBA'
p1146
sg28
S'0.8'
p1147
sg29
S'5.5'
p1148
sg31
S'8.4'
p1149
sg33
S'2.0'
p1150
sg35
S'8.9'
p1151
sg37
S'31'
p1152
sg39
S'DAL'
p1153
sg41
S'54'
p1154
sg43
S'1.3'
p1155
sg44
S'2.7'
p1156
sg46
S'1.4'
p1157
sg48
S'5.4'
p1158
sg50
S'6.5'
p1159
sg52
S'1993-94'
p1160
sg54
S'2.7'
p1161
sg56
S'2.3'
p1162
sg58
S'.495'
p1163
sg60
S'685'
p1164
sg62
S'19'
p1165
sba(isrc.gp1.models.Per36Minutes
Per36Minutes
p1166
(dp1167
g8
S'6.3'
p1168
sg10
S'0.0'
p1169
sg12
S'.412'
p1170
sg14
S'0.4'
p1171
sg16
S'3.1'
p1172
sg18
S'0.0'
p1173
sg19
g3
sg20
g21
sg22
S'2.4'
p1174
sg26
S'NBA'
p1175
sg28
S'1.6'
p1176
sg29
S'7.6'
p1177
sg31
S'8.2'
p1178
sg33
S'.634'
p1179
sg35
S'1.6'
p1180
sg37
S'32'
p1181
sg39
S'CLE'
p1182
sg41
S'58'
p1183
sg43
S'1.9'
p1184
sg44
S'7.6'
p1185
sg46
S'3.1'
p1186
sg48
S'.412'
p1187
sg50
S'8.6'
p1188
sg52
S'1994-95'
p1189
sg54
S'3.1'
p1190
sg56
S'8.0'
p1191
sg58
S'1.9'
p1192
sg60
S'483'
p1193
sg62
g68
sba(isrc.gp1.models.Per36Minutes
Per36Minutes
p1194
(dp1195
g8
S'1.8'
p1196
sg10
S'0.1'
p1197
sg12
S'.459'
p1198
sg14
S'1.0'
p1199
sg16
S'1.000'
p1200
sg18
S'0.1'
p1201
sg19
S'7.4'
p1202
sg20
g21
sg22
S'.407'
p1203
sg26
S'NBA'
p1204
sg28
S'0.7'
p1205
sg29
S'6.8'
p1206
sg31
S'6.0'
p1207
sg33
S'2.5'
p1208
sg35
S'7.0'
p1209
sg37
S'34'
p1210
sg39
S'DAL'
p1211
sg41
S'40'
p1212
sg43
S'0.6'
p1213
sg44
S'3.1'
p1214
sg46
S'1.0'
p1215
sg48
S'6.8'
p1216
sg50
S'5.3'
p1217
sg52
S'1996-97'
p1218
sg54
S'3.1'
p1219
sg56
S'0.8'
p1220
sg58
S'.452'
p1221
sg60
S'389'
p1222
sg62
g68
sbasS'_fromYear'
p1223
S'1987'
p1224
sS'_url'
p1225
S'http://www.basketball-reference.com/players/d/dreilgr01.html'
p1226
sS'_perGame'
p1227
(isrc.gp1.models.PerGame
PerGame
p1228
(dp1229
g8
S'0.5'
p1230
sg10
S'0.0'
p1231
sg12
S'.459'
p1232
sS'_effectiveFieldGalPercentage'
p1233
S'.466'
p1234
sg14
S'0.3'
p1235
sg16
S'1.000'
p1236
sg18
S'0.0'
p1237
sg19
S'2.0'
p1238
sg20
g21
sg22
S'.407'
p1239
sg26
S'NBA'
p1240
sg28
S'0.2'
p1241
sg31
S'1.6'
p1242
sS'_fieldGoalsttempted'
p1243
S'1.9'
p1244
sg33
S'0.7'
p1245
sg35
S'1.9'
p1246
sg37
S'34'
p1247
sg39
S'DAL'
p1248
sg41
S'40'
p1249
sg43
S'0.2'
p1250
sg44
S'0.8'
p1251
sg46
S'0.3'
p1252
sg48
S'1.8'
p1253
sg50
S'1.4'
p1254
sg52
S'1996-97'
p1255
sg54
S'0.9'
p1256
sg56
S'0.2'
p1257
sg58
S'.452'
p1258
sg60
S'9.7'
p1259
sg62
g68
sbsS'_weight'
p1260
S'250'
p1261
sS'_dob'
p1262
S'7-11-1962'
p1263
sS'_salary'
p1264
(lp1265
(isrc.gp1.models.Salary
Salary
p1266
(dp1267
g39
S'Indiana Pacers'
p1268
sg26
S'NBA'
p1269
sg1264
S'$180,000'
p1270
sg52
S'1987-88'
p1271
sba(isrc.gp1.models.Salary
Salary
p1272
(dp1273
g39
S'Indiana Pacers'
p1274
sg26
S'NBA'
p1275
sg1264
S'$200,000'
p1276
sg52
S'1988-89'
p1277
sba(isrc.gp1.models.Salary
Salary
p1278
(dp1279
g39
S'Indiana Pacers'
p1280
sg26
S'NBA'
p1281
sg1264
S'$300,000'
p1282
sg52
S'1990-91'
p1283
sba(isrc.gp1.models.Salary
Salary
p1284
(dp1285
g39
S'Indiana Pacers'
p1286
sg26
S'NBA'
p1287
sg1264
S'$600,000'
p1288
sg52
S'1991-92'
p1289
sba(isrc.gp1.models.Salary
Salary
p1290
(dp1291
g39
S'Indiana Pacers'
p1292
sg26
S'NBA'
p1293
sg1264
S'$650,000'
p1294
sg52
S'1992-93'
p1295
sba(isrc.gp1.models.Salary
Salary
p1296
(dp1297
g39
S'Dallas Mavericks'
p1298
sg26
S'NBA'
p1299
sg1264
S'$300,000'
p1300
sg52
S'1993-94'
p1301
sba(isrc.gp1.models.Salary
Salary
p1302
(dp1303
g39
S'Cleveland Cavaliers'
p1304
sg26
S'NBA'
p1305
sg1264
S'$150,000'
p1306
sg52
S'1994-95'
p1307
sba(isrc.gp1.models.Salary
Salary
p1308
(dp1309
g39
S'Dallas Mavericks'
p1310
sg26
S'NBA'
p1311
sg1264
S'$247,500'
p1312
sg52
S'1996-97'
p1313
sbasg20
g21
sb.