(isrc.gp1.models.Player
Player
p0
(dp1
S'_experience'
p2
S'NA'
p3
sS'_totals'
p4
(lp5
(isrc.gp1.models.Totals
Totals
p6
(dp7
S'_offensiveRebounds'
p8
S'35'
p9
sS'_threePointsAttempted'
p10
S'0'
p11
sS'_fieldGoalsPercentage'
p12
S'.455'
p13
sS'_assist'
p14
S'1'
p15
sS'_threePointsPercentage'
p16
S'30'
p17
sS'_threePoints'
p18
g11
sS'_points'
p19
g3
sS'_position'
p20
S'C'
p21
sS'_freeThrowsPercentage'
p22
S'27'
p23
sS'_effectiveFieldGoalPercentage'
p24
S'5'
p25
sS'_league'
p26
S'NBA'
p27
sS'_steals'
p28
g25
sS'_fieldGoalsAttempted'
p29
S'66'
p30
sS'_personalFouls'
p31
S'65'
p32
sS'_freeThrowsAttempted'
p33
S'.313'
p34
sS'_totalRebounds'
p35
S'7'
p36
sS'_age'
p37
S'22'
p38
sS'_team'
p39
S'BOS'
p40
sS'_games'
p41
S'35'
p42
sS'_blocks'
p43
S'20'
p44
sS'_twoPoints'
p45
S'66'
p46
sS'_freeThrows'
p47
S'16'
p48
sS'_twoPointsAttempted'
p49
S'.455'
p50
sS'_defensiveRebounds'
p51
S'62'
p52
sS'_season'
p53
S'1983-84'
p54
sS'_fieldGoals'
p55
S'30'
p56
sS'_turnOvers'
p57
S'42'
p58
sS'_twoPointsPercentage'
p59
S'.455'
p60
sS'_minutesPlayed'
p61
S'197'
p62
sS'_gamesStarted'
p63
g15
sba(isrc.gp1.models.Totals
Totals
p64
(dp65
g8
S'51'
p66
sg10
g11
sg12
S'.375'
p67
sg14
S'3'
p68
sg16
S'33'
p69
sg18
g11
sg19
g3
sg20
g21
sg22
S'38'
p70
sg24
S'22'
p71
sg26
S'NBA'
p72
sg28
S'10'
p73
sg29
S'88'
p74
sg31
S'88'
p75
sg33
S'.688'
p76
sg35
S'17'
p77
sg37
S'23'
p78
sg39
S'BOS'
p79
sg41
S'55'
p80
sg43
S'29'
p81
sg45
S'88'
p82
sg47
S'32'
p83
sg49
S'.375'
p84
sg51
S'89'
p85
sg53
S'1984-85'
p86
sg55
S'33'
p87
sg57
S'84'
p88
sg59
S'.375'
p89
sg61
S'424'
p90
sg63
S'4'
p91
sba(isrc.gp1.models.Totals
Totals
p92
(dp93
g8
S'35'
p94
sg10
g15
sg12
S'.374'
p95
sg14
S'17'
p96
sg16
S'.000'
p97
sg18
g11
sg19
S'83'
p98
sg20
g21
sg22
S'.385'
p99
sg24
S'.374'
p100
sg26
S'NBA'
p101
sg28
g68
sg29
S'91'
p102
sg31
S'81'
p103
sg33
S'39'
p104
sg35
S'128'
p105
sg37
S'24'
p106
sg39
S'BOS'
p107
sg41
S'64'
p108
sg43
S'28'
p109
sg45
S'34'
p110
sg47
S'15'
p111
sg49
S'90'
p112
sg51
S'93'
p113
sg53
S'1985-86'
p114
sg55
S'34'
p115
sg57
S'32'
p116
sg59
S'.378'
p117
sg61
S'464'
p118
sg63
S'2'
p119
sba(isrc.gp1.models.Totals
Totals
p120
(dp121
g8
S'61'
p122
sg10
g15
sg12
S'.427'
p123
sg14
S'27'
p124
sg16
S'.000'
p125
sg18
g11
sg19
S'123'
p126
sg20
g21
sg22
S'.382'
p127
sg24
S'.427'
p128
sg26
S'NBA'
p129
sg28
S'17'
p130
sg29
S'110'
p131
sg31
S'148'
p132
sg33
S'76'
p133
sg35
S'169'
p134
sg37
S'25'
p135
sg39
S'BOS'
p136
sg41
S'74'
p137
sg43
S'46'
p138
sg45
S'47'
p139
sg47
S'29'
p140
sg49
S'109'
p141
sg51
S'108'
p142
sg53
S'1986-87'
p143
sg55
S'47'
p144
sg57
S'34'
p145
sg59
S'.431'
p146
sg61
S'745'
p147
sg63
g15
sba(isrc.gp1.models.Totals
Totals
p148
(dp149
g8
S'85'
p150
sg10
g15
sg12
S'.449'
p151
sg14
S'47'
p152
sg16
S'.000'
p153
sg18
g11
sg19
S'224'
p154
sg20
g21
sg22
S'.506'
p155
sg24
S'.449'
p156
sg26
S'NBA'
p157
sg28
S'19'
p158
sg29
S'205'
p159
sg31
S'153'
p160
sg33
S'79'
p161
sg35
S'264'
p162
sg37
S'26'
p163
sg39
S'TOT'
p164
sg41
S'53'
p165
sg43
S'58'
p166
sg45
S'92'
p167
sg47
S'40'
p168
sg49
S'204'
p169
sg51
S'179'
p170
sg53
S'1987-88'
p171
sg55
S'92'
p172
sg57
S'73'
p173
sg59
S'.451'
p174
sg61
S'1063'
p175
sg63
S'19'
p176
sba(isrc.gp1.models.Totals
Totals
p177
(dp178
g8
S'14'
p179
sg10
g11
sg12
S'.391'
p180
sg14
g68
sg16
S'9'
p181
sg18
g11
sg19
g3
sg20
g21
sg22
S'10'
p182
sg24
g15
sg26
S'NBA'
p183
sg28
S'8'
p184
sg29
S'23'
p185
sg31
S'19'
p186
sg33
S'.167'
p187
sg35
g119
sg37
S'26'
p188
sg39
S'BOS'
p189
sg41
S'13'
p190
sg43
g181
sg45
S'23'
p191
sg47
S'6'
p192
sg49
S'.391'
p193
sg51
S'24'
p194
sg53
S'1987-88'
p195
sg55
g181
sg57
S'16'
p196
sg59
S'.391'
p197
sg61
S'86'
p198
sg63
g11
sba(isrc.gp1.models.Totals
Totals
p199
(dp200
g8
S'75'
p201
sg10
g15
sg12
S'.456'
p202
sg14
S'45'
p203
sg16
S'.000'
p204
sg18
g11
sg19
S'205'
p205
sg20
g21
sg22
S'.534'
p206
sg24
S'.456'
p207
sg26
S'NBA'
p208
sg28
S'16'
p209
sg29
S'182'
p210
sg31
S'137'
p211
sg33
S'73'
p212
sg35
S'240'
p213
sg37
S'26'
p214
sg39
S'LAC'
p215
sg41
S'40'
p216
sg43
S'50'
p217
sg45
S'83'
p218
sg47
S'39'
p219
sg49
S'181'
p220
sg51
S'165'
p221
sg53
S'1987-88'
p222
sg55
S'83'
p223
sg57
S'64'
p224
sg59
S'.459'
p225
sg61
S'977'
p226
sg63
S'19'
p227
sba(isrc.gp1.models.Totals
Totals
p228
(dp229
g8
S'162'
p230
sg10
g11
sg12
S'.430'
p231
sg14
S'27'
p232
sg16
S'65'
p233
sg18
g11
sg19
g3
sg20
g21
sg22
S'81'
p234
sg24
S'20'
p235
sg26
S'NBA'
p236
sg28
S'54'
p237
sg29
S'151'
p238
sg31
S'150'
p239
sg33
S'.488'
p240
sg35
S'36'
p241
sg37
S'27'
p242
sg39
S'TOT'
p243
sg41
S'70'
p244
sg43
S'58'
p245
sg45
S'151'
p246
sg47
S'41'
p247
sg49
S'.430'
p248
sg51
S'243'
p249
sg53
S'1988-89'
p250
sg55
S'65'
p251
sg57
S'161'
p252
sg59
S'.430'
p253
sg61
S'942'
p254
sg63
S'24'
p255
sba(isrc.gp1.models.Totals
Totals
p256
(dp257
g8
S'124'
p258
sg10
g11
sg12
S'.405'
p259
sg14
S'23'
p260
sg16
S'49'
p261
sg18
g11
sg19
g3
sg20
g21
sg22
S'66'
p262
sg24
S'14'
p263
sg26
S'NBA'
p264
sg28
S'46'
p265
sg29
S'121'
p266
sg31
S'112'
p267
sg33
S'.452'
p268
sg35
S'29'
p269
sg37
S'27'
p270
sg39
S'LAC'
p271
sg41
S'58'
p272
sg43
S'46'
p273
sg45
S'121'
p274
sg47
S'31'
p275
sg49
S'.405'
p276
sg51
S'190'
p277
sg53
S'1988-89'
p278
sg55
S'49'
p279
sg57
S'118'
p280
sg59
S'.405'
p281
sg61
S'729'
p282
sg63
S'12'
p283
sba(isrc.gp1.models.Totals
Totals
p284
(dp285
g8
S'38'
p286
sg10
g11
sg12
S'.533'
p287
sg14
g91
sg16
S'16'
p288
sg18
g11
sg19
g3
sg20
g21
sg22
S'15'
p289
sg24
g192
sg26
S'NBA'
p290
sg28
g184
sg29
S'30'
p291
sg31
S'38'
p292
sg33
S'.600'
p293
sg35
g36
sg37
S'27'
p294
sg39
S'CHH'
p295
sg41
S'12'
p296
sg43
S'12'
p297
sg45
S'30'
p298
sg47
S'10'
p299
sg49
S'.533'
p300
sg51
S'53'
p301
sg53
S'1988-89'
p302
sg55
S'16'
p303
sg57
S'43'
p304
sg59
S'.533'
p305
sg61
S'213'
p306
sg63
S'12'
p307
sba(isrc.gp1.models.Totals
Totals
p308
(dp309
g8
S'131'
p310
sg10
g15
sg12
S'.432'
p311
sg14
S'76'
p312
sg16
S'1.000'
p313
sg18
g15
sg19
S'230'
p314
sg20
g21
sg22
S'.500'
p315
sg24
S'.434'
p316
sg26
S'NBA'
p317
sg28
S'31'
p318
sg29
S'234'
p319
sg31
S'201'
p320
sg33
S'54'
p321
sg35
S'377'
p322
sg37
S'28'
p323
sg39
S'SAC'
p324
sg41
S'71'
p325
sg43
S'51'
p326
sg45
S'100'
p327
sg47
S'27'
p328
sg49
S'233'
p329
sg51
S'246'
p330
sg53
S'1989-90'
p331
sg55
S'101'
p332
sg57
S'76'
p333
sg59
S'.429'
p334
sg61
S'1515'
p335
sg63
S'47'
p336
sba(isrc.gp1.models.Totals
Totals
p337
(dp338
g8
S'399'
p339
sg10
g11
sg12
S'.491'
p340
sg14
S'25'
p341
sg16
S'166'
p342
sg18
g11
sg19
g3
sg20
g21
sg22
S'189'
p343
sg24
S'63'
p344
sg26
S'NBA'
p345
sg28
S'81'
p346
sg29
S'338'
p347
sg31
S'395'
p348
sg33
S'.512'
p349
sg35
S'59'
p350
sg37
S'29'
p351
sg39
S'ORL'
p352
sg41
S'82'
p353
sg43
S'102'
p354
sg45
S'338'
p355
sg47
S'123'
p356
sg49
S'.491'
p357
sg51
S'588'
p358
sg53
S'1990-91'
p359
sg55
S'166'
p360
sg57
S'298'
p361
sg59
S'.491'
p362
sg61
S'2225'
p363
sg63
S'82'
p364
sba(isrc.gp1.models.Totals
Totals
p365
(dp366
g8
S'156'
p367
sg10
g15
sg12
S'.437'
p368
sg14
S'44'
p369
sg16
S'.000'
p370
sg18
g11
sg19
S'228'
p371
sg20
g21
sg22
S'.588'
p372
sg24
S'.437'
p373
sg26
S'NBA'
p374
sg28
S'30'
p375
sg29
S'215'
p376
sg31
S'212'
p377
sg33
S'68'
p378
sg35
S'402'
p379
sg37
S'30'
p380
sg39
S'ORL'
p381
sg41
S'72'
p382
sg43
S'57'
p383
sg45
S'94'
p384
sg47
S'40'
p385
sg49
S'214'
p386
sg51
S'246'
p387
sg53
S'1991-92'
p388
sg55
S'94'
p389
sg57
S'61'
p390
sg59
S'.439'
p391
sg61
S'1479'
p392
sg63
S'44'
p393
sba(isrc.gp1.models.Totals
Totals
p394
(dp395
g8
S'66'
p396
sg10
g15
sg12
S'.452'
p397
sg14
S'10'
p398
sg16
S'.000'
p399
sg18
g11
sg19
S'89'
p400
sg20
g21
sg22
S'.542'
p401
sg24
S'.452'
p402
sg26
S'NBA'
p403
sg28
S'13'
p404
sg29
S'84'
p405
sg31
S'133'
p406
sg33
S'24'
p407
sg35
S'193'
p408
sg37
S'31'
p409
sg39
S'ORL'
p410
sg41
S'64'
p411
sg43
S'12'
p412
sg45
S'38'
p413
sg47
S'13'
p414
sg49
S'83'
p415
sg51
S'127'
p416
sg53
S'1992-93'
p417
sg55
S'38'
p418
sg57
S'35'
p419
sg59
S'.458'
p420
sg61
S'640'
p421
sg63
g15
sba(isrc.gp1.models.Totals
Totals
p422
(dp423
g8
S'48'
p424
sg10
g11
sg12
S'.371'
p425
sg14
g119
sg16
S'13'
p426
sg18
g11
sg19
g3
sg20
g21
sg22
S'22'
p427
sg24
g184
sg26
S'NBA'
p428
sg28
S'12'
p429
sg29
S'35'
p430
sg31
S'34'
p431
sg33
S'.364'
p432
sg35
g91
sg37
S'32'
p433
sg39
S'ORL'
p434
sg41
S'29'
p435
sg43
S'17'
p436
sg45
S'35'
p437
sg47
S'22'
p438
sg49
S'.371'
p439
sg51
S'70'
p440
sg53
S'1993-94'
p441
sg55
S'13'
p442
sg57
S'61'
p443
sg59
S'.371'
p444
sg61
S'309'
p445
sg63
g11
sba(isrc.gp1.models.Totals
Totals
p446
(dp447
g8
S'10'
p448
sg10
g11
sg12
S'.176'
p449
sg14
g11
sg16
g68
sg18
g11
sg19
g3
sg20
g21
sg22
S'12'
p450
sg24
g119
sg26
S'NBA'
p451
sg28
g11
sg29
S'17'
p452
sg31
g184
sg33
S'.200'
p453
sg35
g15
sg37
S'33'
p454
sg39
S'TOT'
p455
sg41
S'11'
p456
sg43
g192
sg45
S'17'
p457
sg47
S'10'
p458
sg49
S'.176'
p459
sg51
S'22'
p460
sg53
S'1994-95'
p461
sg55
g68
sg57
S'15'
p462
sg59
S'.176'
p463
sg61
S'77'
p464
sg63
g11
sba(isrc.gp1.models.Totals
Totals
p465
(dp466
g8
g91
sg10
g11
sg12
S'.000'
p467
sg14
g11
sg16
g11
sg18
g11
sg19
g3
sg20
g21
sg22
g119
sg24
g11
sg26
S'NBA'
p468
sg28
g15
sg29
g68
sg31
g3
sg33
g119
sg35
g11
sg37
S'33'
p469
sg39
S'NYK'
p470
sg41
g119
sg43
g119
sg45
g68
sg47
g11
sg49
S'.000'
p471
sg51
g11
sg53
S'1994-95'
p472
sg55
g11
sg57
g11
sg59
S'.000'
p473
sg61
S'16'
p474
sg63
g11
sba(isrc.gp1.models.Totals
Totals
p475
(dp476
g8
g184
sg10
g11
sg12
S'.214'
p477
sg14
g11
sg16
g68
sg18
g11
sg19
g3
sg20
g21
sg22
S'10'
p478
sg24
g119
sg26
S'NBA'
p479
sg28
g11
sg29
S'14'
p480
sg31
g184
sg33
S'.200'
p481
sg35
g15
sg37
S'33'
p482
sg39
S'IND'
p483
sg41
g181
sg43
g25
sg45
S'14'
p484
sg47
S'10'
p485
sg49
S'.214'
p486
sg51
S'18'
p487
sg53
S'1994-95'
p488
sg55
g68
sg57
S'13'
p489
sg59
S'.214'
p490
sg61
S'61'
p491
sg63
g11
sbasS'_college'
p492
S'Brigham Young University'
p493
sS'_toYear'
p494
S'1995'
p495
sS'_height'
p496
S'6-11'
p497
sS'_active'
p498
I00
sS'_shootingHand'
p499
VRight
p500
sS'_name'
p501
S'Greg Kite'
p502
sS'_per100Possessions'
p503
(lp504
(isrc.gp1.models.Per100Possession
Per100Possession
p505
(dp506
g8
S'8.6'
p507
sg10
S'0.0'
p508
sg12
S'.455'
p509
sS'_offensiveRating'
p510
S'105'
p511
sg14
S'0.2'
p512
sg16
S'7.3'
p513
sg18
S'0.0'
p514
sg19
S'87'
p515
sg20
g21
sS'_defensiveRating'
p516
g3
sg22
S'6.6'
p517
sg26
S'NBA'
p518
sg28
S'1.2'
p519
sg29
S'16.1'
p520
sg31
S'15.9'
p521
sg33
S'.313'
p522
sg35
S'1.7'
p523
sg37
S'22'
p524
sg39
S'BOS'
p525
sg41
S'35'
p526
sg43
S'4.9'
p527
sg45
S'16.1'
p528
sg47
S'3.9'
p529
sg49
S'.455'
p530
sg51
S'15.1'
p531
sg53
S'1983-84'
p532
sg55
S'7.3'
p533
sg57
S'10.3'
p534
sg59
S'1.2'
p535
sg61
S'197'
p536
sg63
g15
sba(isrc.gp1.models.Per100Possession
Per100Possession
p537
(dp538
g8
S'5.7'
p539
sg10
S'0.0'
p540
sg12
S'.375'
p541
sg510
S'109'
p542
sg14
S'0.3'
p543
sg16
S'3.7'
p544
sg18
S'0.0'
p545
sg19
S'89'
p546
sg20
g21
sg516
g3
sg22
S'4.2'
p547
sg26
S'NBA'
p548
sg28
S'1.1'
p549
sg29
S'9.8'
p550
sg31
S'9.8'
p551
sg33
S'.688'
p552
sg35
S'1.9'
p553
sg37
S'23'
p554
sg39
S'BOS'
p555
sg41
S'55'
p556
sg43
S'3.2'
p557
sg45
S'9.8'
p558
sg47
S'3.6'
p559
sg49
S'.375'
p560
sg51
S'9.9'
p561
sg53
S'1984-85'
p562
sg55
S'3.7'
p563
sg57
S'9.4'
p564
sg59
S'2.5'
p565
sg61
S'424'
p566
sg63
g91
sba(isrc.gp1.models.Per100Possession
Per100Possession
p567
(dp568
g8
S'3.6'
p569
sg10
S'0.1'
p570
sg12
S'.374'
p571
sg510
S'79'
p572
sg14
S'1.7'
p573
sg16
S'.000'
p574
sg18
S'0.0'
p575
sg19
S'8.5'
p576
sg20
g21
sg516
S'101'
p577
sg22
S'.385'
p578
sg26
S'NBA'
p579
sg28
S'0.3'
p580
sg29
S'9.3'
p581
sg31
S'8.3'
p582
sg33
S'4.0'
p583
sg35
S'13.1'
p584
sg37
S'24'
p585
sg39
S'BOS'
p586
sg41
S'64'
p587
sg43
S'2.9'
p588
sg45
S'3.5'
p589
sg47
S'1.5'
p590
sg49
S'9.2'
p591
sg51
S'9.5'
p592
sg53
S'1985-86'
p593
sg55
S'3.5'
p594
sg57
S'3.3'
p595
sg59
S'.378'
p596
sg61
S'464'
p597
sg63
g119
sba(isrc.gp1.models.Per100Possession
Per100Possession
p598
(dp599
g8
S'4.0'
p600
sg10
S'0.1'
p601
sg12
S'.427'
p602
sg510
S'92'
p603
sg14
S'1.8'
p604
sg16
S'.000'
p605
sg18
S'0.0'
p606
sg19
S'8.0'
p607
sg20
g21
sg516
S'105'
p608
sg22
S'.382'
p609
sg26
S'NBA'
p610
sg28
S'1.1'
p611
sg29
S'7.2'
p612
sg31
S'9.7'
p613
sg33
S'5.0'
p614
sg35
S'11.0'
p615
sg37
S'25'
p616
sg39
S'BOS'
p617
sg41
S'74'
p618
sg43
S'3.0'
p619
sg45
S'3.1'
p620
sg47
S'1.9'
p621
sg49
S'7.1'
p622
sg51
S'7.1'
p623
sg53
S'1986-87'
p624
sg55
S'3.1'
p625
sg57
S'2.2'
p626
sg59
S'.431'
p627
sg61
S'745'
p628
sg63
g15
sba(isrc.gp1.models.Per100Possession
Per100Possession
p629
(dp630
g8
S'3.8'
p631
sg10
S'0.0'
p632
sg12
S'.449'
p633
sg510
S'88'
p634
sg14
S'2.1'
p635
sg16
S'.000'
p636
sg18
S'0.0'
p637
sg19
S'10.1'
p638
sg20
g21
sg516
S'107'
p639
sg22
S'.506'
p640
sg26
S'NBA'
p641
sg28
S'0.9'
p642
sg29
S'9.2'
p643
sg31
S'6.9'
p644
sg33
S'3.5'
p645
sg35
S'11.9'
p646
sg37
S'26'
p647
sg39
S'TOT'
p648
sg41
S'53'
p649
sg43
S'2.6'
p650
sg45
S'4.1'
p651
sg47
S'1.8'
p652
sg49
S'9.2'
p653
sg51
S'8.0'
p654
sg53
S'1987-88'
p655
sg55
S'4.1'
p656
sg57
S'3.3'
p657
sg59
S'.451'
p658
sg61
S'1063'
p659
sg63
S'19'
p660
sba(isrc.gp1.models.Per100Possession
Per100Possession
p661
(dp662
g8
S'8.0'
p663
sg10
S'0.0'
p664
sg12
S'.391'
p665
sg510
S'104'
p666
sg14
S'1.7'
p667
sg16
S'5.1'
p668
sg18
S'0.0'
p669
sg19
S'73'
p670
sg20
g21
sg516
g3
sg22
S'5.7'
p671
sg26
S'NBA'
p672
sg28
S'4.6'
p673
sg29
S'13.1'
p674
sg31
S'10.8'
p675
sg33
S'.167'
p676
sg35
S'1.1'
p677
sg37
S'26'
p678
sg39
S'BOS'
p679
sg41
S'13'
p680
sg43
S'5.1'
p681
sg45
S'13.1'
p682
sg47
S'3.4'
p683
sg49
S'.391'
p684
sg51
S'13.7'
p685
sg53
S'1987-88'
p686
sg55
S'5.1'
p687
sg57
S'9.1'
p688
sg59
S'0.6'
p689
sg61
S'86'
p690
sg63
g11
sba(isrc.gp1.models.Per100Possession
Per100Possession
p691
(dp692
g8
S'3.7'
p693
sg10
S'0.0'
p694
sg12
S'.456'
p695
sg510
S'89'
p696
sg14
S'2.2'
p697
sg16
S'.000'
p698
sg18
S'0.0'
p699
sg19
S'10.0'
p700
sg20
g21
sg516
S'107'
p701
sg22
S'.534'
p702
sg26
S'NBA'
p703
sg28
S'0.8'
p704
sg29
S'8.9'
p705
sg31
S'6.7'
p706
sg33
S'3.6'
p707
sg35
S'11.7'
p708
sg37
S'26'
p709
sg39
S'LAC'
p710
sg41
S'40'
p711
sg43
S'2.4'
p712
sg45
S'4.0'
p713
sg47
S'1.9'
p714
sg49
S'8.8'
p715
sg51
S'8.0'
p716
sg53
S'1987-88'
p717
sg55
S'4.0'
p718
sg57
S'3.1'
p719
sg59
S'.459'
p720
sg61
S'977'
p721
sg63
S'19'
p722
sba(isrc.gp1.models.Per100Possession
Per100Possession
p723
(dp724
g8
S'8.0'
p725
sg10
S'0.0'
p726
sg12
S'.430'
p727
sg510
S'109'
p728
sg14
S'1.3'
p729
sg16
S'3.2'
p730
sg18
S'0.0'
p731
sg19
S'86'
p732
sg20
g21
sg516
g3
sg22
S'4.0'
p733
sg26
S'NBA'
p734
sg28
S'2.7'
p735
sg29
S'7.4'
p736
sg31
S'7.4'
p737
sg33
S'.488'
p738
sg35
S'1.8'
p739
sg37
S'27'
p740
sg39
S'TOT'
p741
sg41
S'70'
p742
sg43
S'2.9'
p743
sg45
S'7.4'
p744
sg47
S'2.0'
p745
sg49
S'.430'
p746
sg51
S'12.0'
p747
sg53
S'1988-89'
p748
sg55
S'3.2'
p749
sg57
S'7.9'
p750
sg59
S'1.0'
p751
sg61
S'942'
p752
sg63
S'24'
p753
sba(isrc.gp1.models.Per100Possession
Per100Possession
p754
(dp755
g8
S'7.8'
p756
sg10
S'0.0'
p757
sg12
S'.405'
p758
sg510
S'108'
p759
sg14
S'1.5'
p760
sg16
S'3.1'
p761
sg18
S'0.0'
p762
sg19
S'83'
p763
sg20
g21
sg516
g3
sg22
S'4.2'
p764
sg26
S'NBA'
p765
sg28
S'2.9'
p766
sg29
S'7.6'
p767
sg31
S'7.1'
p768
sg33
S'.452'
p769
sg35
S'1.8'
p770
sg37
S'27'
p771
sg39
S'LAC'
p772
sg41
S'58'
p773
sg43
S'2.9'
p774
sg45
S'7.6'
p775
sg47
S'2.0'
p776
sg49
S'.405'
p777
sg51
S'12.0'
p778
sg53
S'1988-89'
p779
sg55
S'3.1'
p780
sg57
S'7.4'
p781
sg59
S'0.9'
p782
sg61
S'729'
p783
sg63
S'12'
p784
sba(isrc.gp1.models.Per100Possession
Per100Possession
p785
(dp786
g8
S'8.5'
p787
sg10
S'0.0'
p788
sg12
S'.533'
p789
sg510
S'110'
p790
sg14
S'0.9'
p791
sg16
S'3.6'
p792
sg18
S'0.0'
p793
sg19
S'96'
p794
sg20
g21
sg516
g3
sg22
S'3.4'
p795
sg26
S'NBA'
p796
sg28
S'1.8'
p797
sg29
S'6.7'
p798
sg31
S'8.5'
p799
sg33
S'.600'
p800
sg35
S'1.6'
p801
sg37
S'27'
p802
sg39
S'CHH'
p803
sg41
S'12'
p804
sg43
S'2.7'
p805
sg45
S'6.7'
p806
sg47
S'2.2'
p807
sg49
S'.533'
p808
sg51
S'11.9'
p809
sg53
S'1988-89'
p810
sg55
S'3.6'
p811
sg57
S'9.7'
p812
sg59
S'1.3'
p813
sg61
S'213'
p814
sg63
S'12'
p815
sba(isrc.gp1.models.Per100Possession
Per100Possession
p816
(dp817
g8
S'4.3'
p818
sg10
S'0.0'
p819
sg12
S'.432'
p820
sg510
S'93'
p821
sg14
S'2.5'
p822
sg16
S'1.000'
p823
sg18
S'0.0'
p824
sg19
S'7.5'
p825
sg20
g21
sg516
S'109'
p826
sg22
S'.500'
p827
sg26
S'NBA'
p828
sg28
S'1.0'
p829
sg29
S'7.7'
p830
sg31
S'6.6'
p831
sg33
S'1.8'
p832
sg35
S'12.4'
p833
sg37
S'28'
p834
sg39
S'SAC'
p835
sg41
S'71'
p836
sg43
S'1.7'
p837
sg45
S'3.3'
p838
sg47
S'0.9'
p839
sg49
S'7.6'
p840
sg51
S'8.1'
p841
sg53
S'1989-90'
p842
sg55
S'3.3'
p843
sg57
S'2.5'
p844
sg59
S'.429'
p845
sg61
S'1515'
p846
sg63
S'47'
p847
sba(isrc.gp1.models.Per100Possession
Per100Possession
p848
(dp849
g8
S'8.7'
p850
sg10
S'0.0'
p851
sg12
S'.491'
p852
sg510
S'109'
p853
sg14
S'0.5'
p854
sg16
S'3.6'
p855
sg18
S'0.0'
p856
sg19
S'99'
p857
sg20
g21
sg516
g3
sg22
S'4.1'
p858
sg26
S'NBA'
p859
sg28
S'1.8'
p860
sg29
S'7.3'
p861
sg31
S'8.6'
p862
sg33
S'.512'
p863
sg35
S'1.3'
p864
sg37
S'29'
p865
sg39
S'ORL'
p866
sg41
S'82'
p867
sg43
S'2.2'
p868
sg45
S'7.3'
p869
sg47
S'2.7'
p870
sg49
S'.491'
p871
sg51
S'12.8'
p872
sg53
S'1990-91'
p873
sg55
S'3.6'
p874
sg57
S'6.5'
p875
sg59
S'1.4'
p876
sg61
S'2225'
p877
sg63
S'82'
p878
sba(isrc.gp1.models.Per100Possession
Per100Possession
p879
(dp880
g8
S'5.2'
p881
sg10
S'0.0'
p882
sg12
S'.437'
p883
sg510
S'100'
p884
sg14
S'1.5'
p885
sg16
S'.000'
p886
sg18
S'0.0'
p887
sg19
S'7.5'
p888
sg20
g21
sg516
S'109'
p889
sg22
S'.588'
p890
sg26
S'NBA'
p891
sg28
S'1.0'
p892
sg29
S'7.1'
p893
sg31
S'7.0'
p894
sg33
S'2.3'
p895
sg35
S'13.3'
p896
sg37
S'30'
p897
sg39
S'ORL'
p898
sg41
S'72'
p899
sg43
S'1.9'
p900
sg45
S'3.1'
p901
sg47
S'1.3'
p902
sg49
S'7.1'
p903
sg51
S'8.1'
p904
sg53
S'1991-92'
p905
sg55
S'3.1'
p906
sg57
S'2.0'
p907
sg59
S'.439'
p908
sg61
S'1479'
p909
sg63
S'44'
p910
sba(isrc.gp1.models.Per100Possession
Per100Possession
p911
(dp912
g8
S'5.1'
p913
sg10
S'0.1'
p914
sg12
S'.452'
p915
sg510
S'93'
p916
sg14
S'0.8'
p917
sg16
S'.000'
p918
sg18
S'0.0'
p919
sg19
S'6.9'
p920
sg20
g21
sg516
S'105'
p921
sg22
S'.542'
p922
sg26
S'NBA'
p923
sg28
S'1.0'
p924
sg29
S'6.5'
p925
sg31
S'10.4'
p926
sg33
S'1.9'
p927
sg35
S'15.0'
p928
sg37
S'31'
p929
sg39
S'ORL'
p930
sg41
S'64'
p931
sg43
S'0.9'
p932
sg45
S'3.0'
p933
sg47
S'1.0'
p934
sg49
S'6.5'
p935
sg51
S'9.9'
p936
sg53
S'1992-93'
p937
sg55
S'3.0'
p938
sg57
S'2.7'
p939
sg59
S'.458'
p940
sg61
S'640'
p941
sg63
g15
sba(isrc.gp1.models.Per100Possession
Per100Possession
p942
(dp943
g8
S'7.8'
p944
sg10
S'0.0'
p945
sg12
S'.371'
p946
sg510
S'108'
p947
sg14
S'0.3'
p948
sg16
S'2.1'
p949
sg18
S'0.0'
p950
sg19
S'76'
p951
sg20
g21
sg516
g3
sg22
S'3.6'
p952
sg26
S'NBA'
p953
sg28
S'2.0'
p954
sg29
S'5.7'
p955
sg31
S'5.5'
p956
sg33
S'.364'
p957
sg35
S'0.7'
p958
sg37
S'32'
p959
sg39
S'ORL'
p960
sg41
S'29'
p961
sg43
S'2.8'
p962
sg45
S'5.7'
p963
sg47
S'3.6'
p964
sg49
S'.371'
p965
sg51
S'11.4'
p966
sg53
S'1993-94'
p967
sg55
S'2.1'
p968
sg57
S'10.0'
p969
sg59
S'1.3'
p970
sg61
S'309'
p971
sg63
g11
sba(isrc.gp1.models.Per100Possession
Per100Possession
p972
(dp973
g8
S'6.9'
p974
sg10
S'0.0'
p975
sg12
S'.176'
p976
sg510
S'109'
p977
sg14
S'0.0'
p978
sg16
S'2.1'
p979
sg18
S'0.0'
p980
sg19
S'58'
p981
sg20
g21
sg516
g3
sg22
S'8.3'
p982
sg26
S'NBA'
p983
sg28
S'0.0'
p984
sg29
S'11.7'
p985
sg31
S'5.5'
p986
sg33
S'.200'
p987
sg35
S'0.7'
p988
sg37
S'33'
p989
sg39
S'TOT'
p990
sg41
S'11'
p991
sg43
S'4.1'
p992
sg45
S'11.7'
p993
sg47
S'6.9'
p994
sg49
S'.176'
p995
sg51
S'15.2'
p996
sg53
S'1994-95'
p997
sg55
S'2.1'
p998
sg57
S'10.4'
p999
sg59
S'1.4'
p1000
sg61
S'77'
p1001
sg63
g11
sba(isrc.gp1.models.Per100Possession
Per100Possession
p1002
(dp1003
g8
S'13.2'
p1004
sg10
S'0.0'
p1005
sg12
S'.000'
p1006
sg510
g3
sg14
S'0.0'
p1007
sg16
S'0.0'
p1008
sg18
S'0.0'
p1009
sg19
S'108'
p1010
sg20
g21
sg516
g3
sg22
S'6.6'
p1011
sg26
S'NBA'
p1012
sg28
S'3.3'
p1013
sg29
S'9.9'
p1014
sg31
S'34'
p1015
sg33
S'6.6'
p1016
sg35
S'0.0'
p1017
sg37
S'33'
p1018
sg39
S'NYK'
p1019
sg41
g119
sg43
S'6.6'
p1020
sg45
S'9.9'
p1021
sg47
S'0.0'
p1022
sg49
S'.000'
p1023
sg51
S'0.0'
p1024
sg53
S'1994-95'
p1025
sg55
S'0.0'
p1026
sg57
S'0.0'
p1027
sg59
S'0.0'
p1028
sg61
S'16'
p1029
sg63
g11
sba(isrc.gp1.models.Per100Possession
Per100Possession
p1030
(dp1031
g8
S'7.0'
p1032
sg10
S'0.0'
p1033
sg12
S'.214'
p1034
sg510
S'109'
p1035
sg14
S'0.0'
p1036
sg16
S'2.6'
p1037
sg18
S'0.0'
p1038
sg19
S'62'
p1039
sg20
g21
sg516
g3
sg22
S'8.7'
p1040
sg26
S'NBA'
p1041
sg28
S'0.0'
p1042
sg29
S'12.2'
p1043
sg31
S'7.0'
p1044
sg33
S'.200'
p1045
sg35
S'0.9'
p1046
sg37
S'33'
p1047
sg39
S'IND'
p1048
sg41
g181
sg43
S'4.4'
p1049
sg45
S'12.2'
p1050
sg47
S'8.7'
p1051
sg49
S'.214'
p1052
sg51
S'15.7'
p1053
sg53
S'1994-95'
p1054
sg55
S'2.6'
p1055
sg57
S'11.4'
p1056
sg59
S'1.7'
p1057
sg61
S'61'
p1058
sg63
g11
sbasS'_advanced'
p1059
(lp1060
(isrc.gp1.models.Advanced
Advanced
p1061
(dp1062
S'_offensiveReboundPercentage'
p1063
S'16.2'
p1064
sS'_turnOverPercentage'
p1065
S'21.5'
p1066
sS'_winSharesPer48Minutes'
p1067
S'-0.008'
p1068
sS'_stealPercentage'
p1069
S'0.2'
p1070
sS'_usagePercentage'
p1071
S'19.4'
p1072
sS'_totalReboundsPercentage'
p1073
S'17.9'
p1074
sS'_defensiveBoxPlusMinus'
p1075
S'-1.8'
p1076
sg20
g21
sS'_valueOverReplacementPlayer'
p1077
S'-0.2'
p1078
sS'_trueShootingPercentage'
p1079
S'.445'
p1080
sS'_defensiveReboundPercentage'
p1081
S'19.5'
p1082
sS'_freeThrowsAttempRate'
p1083
S'.242'
p1084
sS'_threePointsAttempRate'
p1085
S'.000'
p1086
sg26
S'NBA'
p1087
sS'_offensiveBoxPlusMinues'
p1088
S'-5.2'
p1089
sS'_assistPercentage'
p1090
S'4.7'
p1091
sS'_defensiveWinShares'
p1092
S'0.3'
p1093
sg37
S'22'
p1094
sg39
S'BOS'
p1095
sg41
S'35'
p1096
sS'_blockPercentage'
p1097
S'1.4'
p1098
sS'_playerEfficiencyRating'
p1099
S'6.8'
p1100
sS'_offensiveWinShares'
p1101
S'-0.3'
p1102
sg61
S'197'
p1103
sS'_boxPlusMinus'
p1104
S'-7.0'
p1105
sg53
S'1983-84'
p1106
sS'_winShares'
p1107
S'0.0'
p1108
sba(isrc.gp1.models.Advanced
Advanced
p1109
(dp1110
g1063
S'10.4'
p1111
sg1065
S'22.1'
p1112
sg1067
S'.006'
p1113
sg1069
S'0.3'
p1114
sg1071
S'12.6'
p1115
sg1073
S'11.6'
p1116
sg1075
S'-0.7'
p1117
sg20
g21
sg1077
S'-0.4'
p1118
sg1079
S'.431'
p1119
sg1081
S'12.7'
p1120
sg1083
S'.364'
p1121
sg1085
S'.000'
p1122
sg26
S'NBA'
p1123
sg1088
S'-4.9'
p1124
sg1090
S'4.6'
p1125
sg1092
S'0.4'
p1126
sg37
S'23'
p1127
sg39
S'BOS'
p1128
sg41
S'55'
p1129
sg1097
S'1.3'
p1130
sg1099
S'3.9'
p1131
sg1101
S'-0.3'
p1132
sg61
S'424'
p1133
sg1104
S'-5.6'
p1134
sg53
S'1984-85'
p1135
sg1107
S'0.1'
p1136
sba(isrc.gp1.models.Advanced
Advanced
p1137
(dp1138
g1063
S'8.9'
p1139
sg1065
S'22.8'
p1140
sg1067
S'.007'
p1141
sg1069
S'0.3'
p1142
sg1071
S'12.4'
p1143
sg1073
S'15.2'
p1144
sg1075
S'1.3'
p1145
sg20
g21
sg1077
S'-0.4'
p1146
sg1079
S'.384'
p1147
sg1081
S'20.7'
p1148
sg1083
S'.429'
p1149
sg1085
S'.011'
p1150
sg26
S'NBA'
p1151
sg1088
S'-6.6'
p1152
sg1090
S'4.2'
p1153
sg1092
S'0.8'
p1154
sg37
S'24'
p1155
sg39
S'BOS'
p1156
sg41
S'64'
p1157
sg1097
S'3.3'
p1158
sg1099
S'4.6'
p1159
sg1101
S'-0.7'
p1160
sg61
S'464'
p1161
sg1104
S'-5.3'
p1162
sg53
S'1985-86'
p1163
sg1107
S'0.1'
p1164
sba(isrc.gp1.models.Advanced
Advanced
p1165
(dp1166
g1063
S'10.1'
p1167
sg1065
S'19.2'
p1168
sg1067
S'.044'
p1169
sg1069
S'1.1'
p1170
sg1071
S'10.1'
p1171
sg1073
S'12.8'
p1172
sg1075
S'1.8'
p1173
sg20
g21
sg1077
S'-0.1'
p1174
sg1079
S'.429'
p1175
sg1081
S'15.0'
p1176
sg1083
S'.691'
p1177
sg1085
S'.009'
p1178
sg26
S'NBA'
p1179
sg1088
S'-4.2'
p1180
sg1090
S'4.2'
p1181
sg1092
S'1.0'
p1182
sg37
S'25'
p1183
sg39
S'BOS'
p1184
sg41
S'74'
p1185
sg1097
S'3.4'
p1186
sg1099
S'6.0'
p1187
sg1101
S'-0.4'
p1188
sg61
S'745'
p1189
sg1104
S'-2.4'
p1190
sg53
S'1986-87'
p1191
sg1107
S'0.7'
p1192
sba(isrc.gp1.models.Advanced
Advanced
p1193
(dp1194
g1063
S'8.4'
p1195
sg1065
S'23.3'
p1196
sg1067
S'.014'
p1197
sg1069
S'0.9'
p1198
sg1071
S'12.0'
p1199
sg1073
S'13.3'
p1200
sg1075
S'2.3'
p1201
sg20
g21
sg1077
S'-0.3'
p1202
sg1079
S'.467'
p1203
sg1081
S'18.6'
p1204
sg1083
S'.385'
p1205
sg1085
S'.005'
p1206
sg26
S'NBA'
p1207
sg1088
S'-5.6'
p1208
sg1090
S'6.1'
p1209
sg1092
S'1.3'
p1210
sg37
S'26'
p1211
sg39
S'TOT'
p1212
sg41
S'53'
p1213
sg1097
S'3.1'
p1214
sg1099
S'7.3'
p1215
sg1101
S'-1.0'
p1216
sg61
S'1063'
p1217
sg1104
S'-3.3'
p1218
sg53
S'1987-88'
p1219
sg1107
S'0.3'
p1220
sba(isrc.gp1.models.Advanced
Advanced
p1221
(dp1222
g1063
S'14.7'
p1223
sg1065
S'26.0'
p1224
sg1067
S'-0.067'
p1225
sg1069
S'1.7'
p1226
sg1071
S'17.3'
p1227
sg1073
S'16.5'
p1228
sg1075
S'1.2'
p1229
sg20
g21
sg1077
S'-0.1'
p1230
sg1079
S'.371'
p1231
sg1081
S'18.1'
p1232
sg1083
S'.261'
p1233
sg1085
S'.000'
p1234
sg26
S'NBA'
p1235
sg1088
S'-7.3'
p1236
sg1090
S'2.9'
p1237
sg1092
S'0.1'
p1238
sg37
S'26'
p1239
sg39
S'BOS'
p1240
sg41
S'13'
p1241
sg1097
S'5.3'
p1242
sg1099
S'5.5'
p1243
sg1101
S'-0.2'
p1244
sg61
S'86'
p1245
sg1104
S'-6.1'
p1246
sg53
S'1987-88'
p1247
sg1107
S'-0.1'
p1248
sba(isrc.gp1.models.Advanced
Advanced
p1249
(dp1250
g1063
S'7.9'
p1251
sg1065
S'23.0'
p1252
sg1067
S'.022'
p1253
sg1069
S'0.8'
p1254
sg1071
S'11.6'
p1255
sg1073
S'13.1'
p1256
sg1075
S'2.4'
p1257
sg20
g21
sg1077
S'-0.3'
p1258
sg1079
S'.479'
p1259
sg1081
S'18.6'
p1260
sg1083
S'.401'
p1261
sg1085
S'.005'
p1262
sg26
S'NBA'
p1263
sg1088
S'-5.4'
p1264
sg1090
S'6.4'
p1265
sg1092
S'1.2'
p1266
sg37
S'26'
p1267
sg39
S'LAC'
p1268
sg41
S'40'
p1269
sg1097
S'2.9'
p1270
sg1099
S'7.5'
p1271
sg1101
S'-0.7'
p1272
sg61
S'977'
p1273
sg1104
S'-3.0'
p1274
sg53
S'1987-88'
p1275
sg1107
S'0.4'
p1276
sba(isrc.gp1.models.Advanced
Advanced
p1277
(dp1278
g1063
S'9.2'
p1279
sg1065
S'25.5'
p1280
sg1067
S'.005'
p1281
sg1069
S'1.3'
p1282
sg1071
S'9.6'
p1283
sg1073
S'13.9'
p1284
sg1075
S'1.8'
p1285
sg20
g21
sg1077
S'-0.4'
p1286
sg1079
S'.444'
p1287
sg1081
S'18.7'
p1288
sg1083
S'.272'
p1289
sg1085
S'.000'
p1290
sg26
S'NBA'
p1291
sg1088
S'-5.6'
p1292
sg1090
S'4.7'
p1293
sg1092
S'0.9'
p1294
sg37
S'27'
p1295
sg39
S'TOT'
p1296
sg41
S'70'
p1297
sg1097
S'3.2'
p1298
sg1099
S'6.3'
p1299
sg1101
S'-0.8'
p1300
sg61
S'942'
p1301
sg1104
S'-3.8'
p1302
sg53
S'1988-89'
p1303
sg1107
S'0.1'
p1304
sba(isrc.gp1.models.Advanced
Advanced
p1305
(dp1306
g1063
S'9.7'
p1307
sg1065
S'25.5'
p1308
sg1067
S'-0.002'
p1309
sg1069
S'1.5'
p1310
sg1071
S'9.8'
p1311
sg1073
S'13.9'
p1312
sg1075
S'1.8'
p1313
sg20
g21
sg1077
S'-0.4'
p1314
sg1079
S'.416'
p1315
sg1081
S'18.1'
p1316
sg1083
S'.256'
p1317
sg1085
S'.000'
p1318
sg26
S'NBA'
p1319
sg1088
S'-5.8'
p1320
sg1090
S'4.8'
p1321
sg1092
S'0.7'
p1322
sg37
S'27'
p1323
sg39
S'LAC'
p1324
sg41
S'58'
p1325
sg1097
S'3.5'
p1326
sg1099
S'6.4'
p1327
sg1101
S'-0.7'
p1328
sg61
S'729'
p1329
sg1104
S'-4.0'
p1330
sg53
S'1988-89'
p1331
sg1107
S'0.0'
p1332
sba(isrc.gp1.models.Advanced
Advanced
p1333
(dp1334
g1063
S'7.4'
p1335
sg1065
S'25.9'
p1336
sg1067
S'.026'
p1337
sg1069
S'0.9'
p1338
sg1071
S'8.9'
p1339
sg1073
S'13.8'
p1340
sg1075
S'1.4'
p1341
sg20
g21
sg1077
S'-0.1'
p1342
sg1079
S'.552'
p1343
sg1081
S'20.8'
p1344
sg1083
S'.333'
p1345
sg1085
S'.000'
p1346
sg26
S'NBA'
p1347
sg1088
S'-4.7'
p1348
sg1090
S'4.2'
p1349
sg1092
S'0.2'
p1350
sg37
S'27'
p1351
sg39
S'CHH'
p1352
sg41
S'12'
p1353
sg1097
S'2.2'
p1354
sg1099
S'6.1'
p1355
sg1101
S'0.0'
p1356
sg61
S'213'
p1357
sg1104
S'-3.3'
p1358
sg53
S'1988-89'
p1359
sg1107
S'0.1'
p1360
sba(isrc.gp1.models.Advanced
Advanced
p1361
(dp1362
g1063
S'9.8'
p1363
sg1065
S'22.8'
p1364
sg1067
S'.026'
p1365
sg1069
S'1.0'
p1366
sg1071
S'9.5'
p1367
sg1073
S'14.1'
p1368
sg1075
S'1.8'
p1369
sg20
g21
sg1077
S'-0.2'
p1370
sg1079
S'.446'
p1371
sg1081
S'18.3'
p1372
sg1083
S'.231'
p1373
sg1085
S'.004'
p1374
sg26
S'NBA'
p1375
sg1088
S'-4.4'
p1376
sg1090
S'6.5'
p1377
sg1092
S'1.5'
p1378
sg37
S'28'
p1379
sg39
S'SAC'
p1380
sg41
S'71'
p1381
sg1097
S'2.0'
p1382
sg1099
S'7.0'
p1383
sg1101
S'-0.6'
p1384
sg61
S'1515'
p1385
sg1104
S'-2.6'
p1386
sg53
S'1989-90'
p1387
sg1107
S'0.8'
p1388
sba(isrc.gp1.models.Advanced
Advanced
p1389
(dp1390
g1063
S'9.0'
p1391
sg1065
S'20.6'
p1392
sg1067
S'.043'
p1393
sg1069
S'0.5'
p1394
sg1071
S'9.0'
p1395
sg1073
S'14.4'
p1396
sg1075
S'1.7'
p1397
sg20
g21
sg1077
S'0.2'
p1398
sg1079
S'.504'
p1399
sg1081
S'20.1'
p1400
sg1083
S'.364'
p1401
sg1085
S'.000'
p1402
sg26
S'NBA'
p1403
sg1088
S'-3.4'
p1404
sg1090
S'3.5'
p1405
sg1092
S'2.0'
p1406
sg37
S'29'
p1407
sg39
S'ORL'
p1408
sg41
S'82'
p1409
sg1097
S'2.2'
p1410
sg1099
S'7.4'
p1411
sg1101
S'0.0'
p1412
sg61
S'2225'
p1413
sg1104
S'-1.7'
p1414
sg53
S'1990-91'
p1415
sg1107
S'2.0'
p1416
sba(isrc.gp1.models.Advanced
Advanced
p1417
(dp1418
g1063
S'11.5'
p1419
sg1065
S'19.9'
p1420
sg1067
S'.045'
p1421
sg1069
S'1.0'
p1422
sg1071
S'8.6'
p1423
sg1073
S'15.2'
p1424
sg1075
S'1.7'
p1425
sg20
g21
sg1077
S'0.0'
p1426
sg1079
S'.465'
p1427
sg1081
S'19.1'
p1428
sg1083
S'.316'
p1429
sg1085
S'.005'
p1430
sg26
S'NBA'
p1431
sg1088
S'-3.7'
p1432
sg1090
S'3.9'
p1433
sg1092
S'1.3'
p1434
sg37
S'30'
p1435
sg39
S'ORL'
p1436
sg41
S'72'
p1437
sg1097
S'2.4'
p1438
sg1099
S'7.7'
p1439
sg1101
S'0.1'
p1440
sg61
S'1479'
p1441
sg1104
S'-1.9'
p1442
sg53
S'1991-92'
p1443
sg1107
S'1.4'
p1444
sba(isrc.gp1.models.Advanced
Advanced
p1445
(dp1446
g1063
S'12.4'
p1447
sg1065
S'27.0'
p1448
sg1067
S'.047'
p1449
sg1069
S'1.0'
p1450
sg1071
S'8.7'
p1451
sg1073
S'17.0'
p1452
sg1075
S'0.5'
p1453
sg20
g21
sg1077
S'-0.3'
p1454
sg1079
S'.471'
p1455
sg1081
S'21.1'
p1456
sg1083
S'.286'
p1457
sg1085
S'.012'
p1458
sg26
S'NBA'
p1459
sg1088
S'-4.6'
p1460
sg1090
S'2.1'
p1461
sg1092
S'0.9'
p1462
sg37
S'31'
p1463
sg39
S'ORL'
p1464
sg41
S'64'
p1465
sg1097
S'1.1'
p1466
sg1099
S'5.3'
p1467
sg1101
S'-0.2'
p1468
sg61
S'640'
p1469
sg1104
S'-4.1'
p1470
sg53
S'1992-93'
p1471
sg1107
S'0.6'
p1472
sba(isrc.gp1.models.Advanced
Advanced
p1473
(dp1474
g1063
S'8.1'
p1475
sg1065
S'27.6'
p1476
sg1067
S'-0.018'
p1477
sg1069
S'0.3'
p1478
sg1071
S'8.5'
p1479
sg1073
S'12.7'
p1480
sg1075
S'-0.1'
p1481
sg20
g21
sg1077
S'-0.4'
p1482
sg1079
S'.380'
p1483
sg1081
S'17.3'
p1484
sg1083
S'.629'
p1485
sg1085
S'.000'
p1486
sg26
S'NBA'
p1487
sg1088
S'-6.6'
p1488
sg1090
S'1.6'
p1489
sg1092
S'0.3'
p1490
sg37
S'32'
p1491
sg39
S'ORL'
p1492
sg41
S'29'
p1493
sg1097
S'2.4'
p1494
sg1099
S'2.2'
p1495
sg1101
S'-0.4'
p1496
sg61
S'309'
p1497
sg1104
S'-6.6'
p1498
sg53
S'1993-94'
p1499
sg1107
S'-0.1'
p1500
sba(isrc.gp1.models.Advanced
Advanced
p1501
(dp1502
g1063
S'19.2'
p1503
sg1065
S'21.9'
p1504
sg1067
S'-0.163'
p1505
sg1069
S'0.0'
p1506
sg1071
S'16.3'
p1507
sg1073
S'17.2'
p1508
sg1075
S'-3.2'
p1509
sg20
g21
sg1077
S'-0.2'
p1510
sg1079
S'.187'
p1511
sg1081
S'15.3'
p1512
sg1083
S'.588'
p1513
sg1085
S'.000'
p1514
sg26
S'NBA'
p1515
sg1088
S'-10.3'
p1516
sg1090
S'1.8'
p1517
sg1092
S'0.1'
p1518
sg37
S'33'
p1519
sg39
S'TOT'
p1520
sg41
S'11'
p1521
sg1097
S'0.0'
p1522
sg1099
S'-3.2'
p1523
sg1101
S'-0.3'
p1524
sg61
S'77'
p1525
sg1104
S'-13.5'
p1526
sg53
S'1994-95'
p1527
sg1107
S'-0.3'
p1528
sba(isrc.gp1.models.Advanced
Advanced
p1529
(dp1530
g1063
S'15.2'
p1531
sg1065
S'25.0'
p1532
sg1067
S'-0.175'
p1533
sg1069
S'0.0'
p1534
sg1071
S'11.5'
p1535
sg1073
S'14.7'
p1536
sg1075
S'-3.3'
p1537
sg20
g21
sg1077
S'-0.1'
p1538
sg1079
S'.000'
p1539
sg1081
S'14.2'
p1540
sg1083
S'.000'
p1541
sg1085
S'.000'
p1542
sg26
S'NBA'
p1543
sg1088
S'-13.5'
p1544
sg1090
S'0.0'
p1545
sg1092
S'0.0'
p1546
sg37
S'33'
p1547
sg39
S'NYK'
p1548
sg41
g119
sg1097
S'0.0'
p1549
sg1099
S'-5.4'
p1550
sg1101
S'-0.1'
p1551
sg61
S'16'
p1552
sg1104
S'-16.7'
p1553
sg53
S'1994-95'
p1554
sg1107
S'-0.1'
p1555
sba(isrc.gp1.models.Advanced
Advanced
p1556
(dp1557
g1063
S'20.2'
p1558
sg1065
S'21.4'
p1559
sg1067
S'-0.160'
p1560
sg1069
S'0.0'
p1561
sg1071
S'17.6'
p1562
sg1073
S'17.8'
p1563
sg1075
S'-3.2'
p1564
sg20
g21
sg1077
S'-0.2'
p1565
sg1079
S'.217'
p1566
sg1081
S'15.5'
p1567
sg1083
S'.714'
p1568
sg1085
S'.000'
p1569
sg26
S'NBA'
p1570
sg1088
S'-9.5'
p1571
sg1090
S'2.3'
p1572
sg1092
S'0.1'
p1573
sg37
S'33'
p1574
sg39
S'IND'
p1575
sg41
g181
sg1097
S'0.0'
p1576
sg1099
S'-2.6'
p1577
sg1101
S'-0.3'
p1578
sg61
S'61'
p1579
sg1104
S'-12.6'
p1580
sg53
S'1994-95'
p1581
sg1107
S'-0.2'
p1582
sbasS'_per36Minutes'
p1583
(lp1584
(isrc.gp1.models.Per36Minutes
Per36Minutes
p1585
(dp1586
g8
S'6.4'
p1587
sg10
S'0.0'
p1588
sg12
S'.455'
p1589
sg14
S'0.2'
p1590
sg16
S'5.5'
p1591
sg18
S'0.0'
p1592
sg19
g3
sg20
g21
sg22
S'4.9'
p1593
sg26
S'NBA'
p1594
sg28
S'0.9'
p1595
sg29
S'12.1'
p1596
sg31
S'11.9'
p1597
sg33
S'.313'
p1598
sg35
S'1.3'
p1599
sg37
S'22'
p1600
sg39
S'BOS'
p1601
sg41
S'35'
p1602
sg43
S'3.7'
p1603
sg45
S'12.1'
p1604
sg47
S'2.9'
p1605
sg49
S'.455'
p1606
sg51
S'11.3'
p1607
sg53
S'1983-84'
p1608
sg55
S'5.5'
p1609
sg57
S'7.7'
p1610
sg59
S'0.9'
p1611
sg61
S'197'
p1612
sg63
g15
sba(isrc.gp1.models.Per36Minutes
Per36Minutes
p1613
(dp1614
g8
S'4.3'
p1615
sg10
S'0.0'
p1616
sg12
S'.375'
p1617
sg14
S'0.3'
p1618
sg16
S'2.8'
p1619
sg18
S'0.0'
p1620
sg19
g3
sg20
g21
sg22
S'3.2'
p1621
sg26
S'NBA'
p1622
sg28
S'0.8'
p1623
sg29
S'7.5'
p1624
sg31
S'7.5'
p1625
sg33
S'.688'
p1626
sg35
S'1.4'
p1627
sg37
S'23'
p1628
sg39
S'BOS'
p1629
sg41
S'55'
p1630
sg43
S'2.5'
p1631
sg45
S'7.5'
p1632
sg47
S'2.7'
p1633
sg49
S'.375'
p1634
sg51
S'7.6'
p1635
sg53
S'1984-85'
p1636
sg55
S'2.8'
p1637
sg57
S'7.1'
p1638
sg59
S'1.9'
p1639
sg61
S'424'
p1640
sg63
g91
sba(isrc.gp1.models.Per36Minutes
Per36Minutes
p1641
(dp1642
g8
S'2.7'
p1643
sg10
S'0.1'
p1644
sg12
S'.374'
p1645
sg14
S'1.3'
p1646
sg16
S'.000'
p1647
sg18
S'0.0'
p1648
sg19
S'6.4'
p1649
sg20
g21
sg22
S'.385'
p1650
sg26
S'NBA'
p1651
sg28
S'0.2'
p1652
sg29
S'7.1'
p1653
sg31
S'6.3'
p1654
sg33
S'3.0'
p1655
sg35
S'9.9'
p1656
sg37
S'24'
p1657
sg39
S'BOS'
p1658
sg41
S'64'
p1659
sg43
S'2.2'
p1660
sg45
S'2.6'
p1661
sg47
S'1.2'
p1662
sg49
S'7.0'
p1663
sg51
S'7.2'
p1664
sg53
S'1985-86'
p1665
sg55
S'2.6'
p1666
sg57
S'2.5'
p1667
sg59
S'.378'
p1668
sg61
S'464'
p1669
sg63
g119
sba(isrc.gp1.models.Per36Minutes
Per36Minutes
p1670
(dp1671
g8
S'2.9'
p1672
sg10
S'0.0'
p1673
sg12
S'.427'
p1674
sg14
S'1.3'
p1675
sg16
S'.000'
p1676
sg18
S'0.0'
p1677
sg19
S'5.9'
p1678
sg20
g21
sg22
S'.382'
p1679
sg26
S'NBA'
p1680
sg28
S'0.8'
p1681
sg29
S'5.3'
p1682
sg31
S'7.2'
p1683
sg33
S'3.7'
p1684
sg35
S'8.2'
p1685
sg37
S'25'
p1686
sg39
S'BOS'
p1687
sg41
S'74'
p1688
sg43
S'2.2'
p1689
sg45
S'2.3'
p1690
sg47
S'1.4'
p1691
sg49
S'5.3'
p1692
sg51
S'5.2'
p1693
sg53
S'1986-87'
p1694
sg55
S'2.3'
p1695
sg57
S'1.6'
p1696
sg59
S'.431'
p1697
sg61
S'745'
p1698
sg63
g15
sba(isrc.gp1.models.Per36Minutes
Per36Minutes
p1699
(dp1700
g8
S'2.9'
p1701
sg10
S'0.0'
p1702
sg12
S'.449'
p1703
sg14
S'1.6'
p1704
sg16
S'.000'
p1705
sg18
S'0.0'
p1706
sg19
S'7.6'
p1707
sg20
g21
sg22
S'.506'
p1708
sg26
S'NBA'
p1709
sg28
S'0.6'
p1710
sg29
S'6.9'
p1711
sg31
S'5.2'
p1712
sg33
S'2.7'
p1713
sg35
S'8.9'
p1714
sg37
S'26'
p1715
sg39
S'TOT'
p1716
sg41
S'53'
p1717
sg43
S'2.0'
p1718
sg45
S'3.1'
p1719
sg47
S'1.4'
p1720
sg49
S'6.9'
p1721
sg51
S'6.1'
p1722
sg53
S'1987-88'
p1723
sg55
S'3.1'
p1724
sg57
S'2.5'
p1725
sg59
S'.451'
p1726
sg61
S'1063'
p1727
sg63
S'19'
p1728
sba(isrc.gp1.models.Per36Minutes
Per36Minutes
p1729
(dp1730
g8
S'5.9'
p1731
sg10
S'0.0'
p1732
sg12
S'.391'
p1733
sg14
S'1.3'
p1734
sg16
S'3.8'
p1735
sg18
S'0.0'
p1736
sg19
g3
sg20
g21
sg22
S'4.2'
p1737
sg26
S'NBA'
p1738
sg28
S'3.3'
p1739
sg29
S'9.6'
p1740
sg31
S'8.0'
p1741
sg33
S'.167'
p1742
sg35
S'0.8'
p1743
sg37
S'26'
p1744
sg39
S'BOS'
p1745
sg41
S'13'
p1746
sg43
S'3.8'
p1747
sg45
S'9.6'
p1748
sg47
S'2.5'
p1749
sg49
S'.391'
p1750
sg51
S'10.0'
p1751
sg53
S'1987-88'
p1752
sg55
S'3.8'
p1753
sg57
S'6.7'
p1754
sg59
S'0.4'
p1755
sg61
S'86'
p1756
sg63
g11
sba(isrc.gp1.models.Per36Minutes
Per36Minutes
p1757
(dp1758
g8
S'2.8'
p1759
sg10
S'0.0'
p1760
sg12
S'.456'
p1761
sg14
S'1.7'
p1762
sg16
S'.000'
p1763
sg18
S'0.0'
p1764
sg19
S'7.6'
p1765
sg20
g21
sg22
S'.534'
p1766
sg26
S'NBA'
p1767
sg28
S'0.6'
p1768
sg29
S'6.7'
p1769
sg31
S'5.0'
p1770
sg33
S'2.7'
p1771
sg35
S'8.8'
p1772
sg37
S'26'
p1773
sg39
S'LAC'
p1774
sg41
S'40'
p1775
sg43
S'1.8'
p1776
sg45
S'3.1'
p1777
sg47
S'1.4'
p1778
sg49
S'6.7'
p1779
sg51
S'6.1'
p1780
sg53
S'1987-88'
p1781
sg55
S'3.1'
p1782
sg57
S'2.4'
p1783
sg59
S'.459'
p1784
sg61
S'977'
p1785
sg63
S'19'
p1786
sba(isrc.gp1.models.Per36Minutes
Per36Minutes
p1787
(dp1788
g8
S'6.2'
p1789
sg10
S'0.0'
p1790
sg12
S'.430'
p1791
sg14
S'1.0'
p1792
sg16
S'2.5'
p1793
sg18
S'0.0'
p1794
sg19
g3
sg20
g21
sg22
S'3.1'
p1795
sg26
S'NBA'
p1796
sg28
S'2.1'
p1797
sg29
S'5.8'
p1798
sg31
S'5.7'
p1799
sg33
S'.488'
p1800
sg35
S'1.4'
p1801
sg37
S'27'
p1802
sg39
S'TOT'
p1803
sg41
S'70'
p1804
sg43
S'2.2'
p1805
sg45
S'5.8'
p1806
sg47
S'1.6'
p1807
sg49
S'.430'
p1808
sg51
S'9.3'
p1809
sg53
S'1988-89'
p1810
sg55
S'2.5'
p1811
sg57
S'6.2'
p1812
sg59
S'0.8'
p1813
sg61
S'942'
p1814
sg63
S'24'
p1815
sba(isrc.gp1.models.Per36Minutes
Per36Minutes
p1816
(dp1817
g8
S'6.1'
p1818
sg10
S'0.0'
p1819
sg12
S'.405'
p1820
sg14
S'1.1'
p1821
sg16
S'2.4'
p1822
sg18
S'0.0'
p1823
sg19
g3
sg20
g21
sg22
S'3.3'
p1824
sg26
S'NBA'
p1825
sg28
S'2.3'
p1826
sg29
S'6.0'
p1827
sg31
S'5.5'
p1828
sg33
S'.452'
p1829
sg35
S'1.4'
p1830
sg37
S'27'
p1831
sg39
S'LAC'
p1832
sg41
S'58'
p1833
sg43
S'2.3'
p1834
sg45
S'6.0'
p1835
sg47
S'1.5'
p1836
sg49
S'.405'
p1837
sg51
S'9.4'
p1838
sg53
S'1988-89'
p1839
sg55
S'2.4'
p1840
sg57
S'5.8'
p1841
sg59
S'0.7'
p1842
sg61
S'729'
p1843
sg63
S'12'
p1844
sba(isrc.gp1.models.Per36Minutes
Per36Minutes
p1845
(dp1846
g8
S'6.4'
p1847
sg10
S'0.0'
p1848
sg12
S'.533'
p1849
sg14
S'0.7'
p1850
sg16
S'2.7'
p1851
sg18
S'0.0'
p1852
sg19
g3
sg20
g21
sg22
S'2.5'
p1853
sg26
S'NBA'
p1854
sg28
S'1.4'
p1855
sg29
S'5.1'
p1856
sg31
S'6.4'
p1857
sg33
S'.600'
p1858
sg35
S'1.2'
p1859
sg37
S'27'
p1860
sg39
S'CHH'
p1861
sg41
S'12'
p1862
sg43
S'2.0'
p1863
sg45
S'5.1'
p1864
sg47
S'1.7'
p1865
sg49
S'.533'
p1866
sg51
S'9.0'
p1867
sg53
S'1988-89'
p1868
sg55
S'2.7'
p1869
sg57
S'7.3'
p1870
sg59
S'1.0'
p1871
sg61
S'213'
p1872
sg63
S'12'
p1873
sba(isrc.gp1.models.Per36Minutes
Per36Minutes
p1874
(dp1875
g8
S'3.1'
p1876
sg10
S'0.0'
p1877
sg12
S'.432'
p1878
sg14
S'1.8'
p1879
sg16
S'1.000'
p1880
sg18
S'0.0'
p1881
sg19
S'5.5'
p1882
sg20
g21
sg22
S'.500'
p1883
sg26
S'NBA'
p1884
sg28
S'0.7'
p1885
sg29
S'5.6'
p1886
sg31
S'4.8'
p1887
sg33
S'1.3'
p1888
sg35
S'9.0'
p1889
sg37
S'28'
p1890
sg39
S'SAC'
p1891
sg41
S'71'
p1892
sg43
S'1.2'
p1893
sg45
S'2.4'
p1894
sg47
S'0.6'
p1895
sg49
S'5.5'
p1896
sg51
S'5.8'
p1897
sg53
S'1989-90'
p1898
sg55
S'2.4'
p1899
sg57
S'1.8'
p1900
sg59
S'.429'
p1901
sg61
S'1515'
p1902
sg63
S'47'
p1903
sba(isrc.gp1.models.Per36Minutes
Per36Minutes
p1904
(dp1905
g8
S'6.5'
p1906
sg10
S'0.0'
p1907
sg12
S'.491'
p1908
sg14
S'0.4'
p1909
sg16
S'2.7'
p1910
sg18
S'0.0'
p1911
sg19
g3
sg20
g21
sg22
S'3.1'
p1912
sg26
S'NBA'
p1913
sg28
S'1.3'
p1914
sg29
S'5.5'
p1915
sg31
S'6.4'
p1916
sg33
S'.512'
p1917
sg35
S'1.0'
p1918
sg37
S'29'
p1919
sg39
S'ORL'
p1920
sg41
S'82'
p1921
sg43
S'1.7'
p1922
sg45
S'5.5'
p1923
sg47
S'2.0'
p1924
sg49
S'.491'
p1925
sg51
S'9.5'
p1926
sg53
S'1990-91'
p1927
sg55
S'2.7'
p1928
sg57
S'4.8'
p1929
sg59
S'1.0'
p1930
sg61
S'2225'
p1931
sg63
S'82'
p1932
sba(isrc.gp1.models.Per36Minutes
Per36Minutes
p1933
(dp1934
g8
S'3.8'
p1935
sg10
S'0.0'
p1936
sg12
S'.437'
p1937
sg14
S'1.1'
p1938
sg16
S'.000'
p1939
sg18
S'0.0'
p1940
sg19
S'5.5'
p1941
sg20
g21
sg22
S'.588'
p1942
sg26
S'NBA'
p1943
sg28
S'0.7'
p1944
sg29
S'5.2'
p1945
sg31
S'5.2'
p1946
sg33
S'1.7'
p1947
sg35
S'9.8'
p1948
sg37
S'30'
p1949
sg39
S'ORL'
p1950
sg41
S'72'
p1951
sg43
S'1.4'
p1952
sg45
S'2.3'
p1953
sg47
S'1.0'
p1954
sg49
S'5.2'
p1955
sg51
S'6.0'
p1956
sg53
S'1991-92'
p1957
sg55
S'2.3'
p1958
sg57
S'1.5'
p1959
sg59
S'.439'
p1960
sg61
S'1479'
p1961
sg63
S'44'
p1962
sba(isrc.gp1.models.Per36Minutes
Per36Minutes
p1963
(dp1964
g8
S'3.7'
p1965
sg10
S'0.1'
p1966
sg12
S'.452'
p1967
sg14
S'0.6'
p1968
sg16
S'.000'
p1969
sg18
S'0.0'
p1970
sg19
S'5.0'
p1971
sg20
g21
sg22
S'.542'
p1972
sg26
S'NBA'
p1973
sg28
S'0.7'
p1974
sg29
S'4.7'
p1975
sg31
S'7.5'
p1976
sg33
S'1.4'
p1977
sg35
S'10.9'
p1978
sg37
S'31'
p1979
sg39
S'ORL'
p1980
sg41
S'64'
p1981
sg43
S'0.7'
p1982
sg45
S'2.1'
p1983
sg47
S'0.7'
p1984
sg49
S'4.7'
p1985
sg51
S'7.1'
p1986
sg53
S'1992-93'
p1987
sg55
S'2.1'
p1988
sg57
S'2.0'
p1989
sg59
S'.458'
p1990
sg61
S'640'
p1991
sg63
g15
sba(isrc.gp1.models.Per36Minutes
Per36Minutes
p1992
(dp1993
g8
S'5.6'
p1994
sg10
S'0.0'
p1995
sg12
S'.371'
p1996
sg14
S'0.2'
p1997
sg16
S'1.5'
p1998
sg18
S'0.0'
p1999
sg19
g3
sg20
g21
sg22
S'2.6'
p2000
sg26
S'NBA'
p2001
sg28
S'1.4'
p2002
sg29
S'4.1'
p2003
sg31
S'4.0'
p2004
sg33
S'.364'
p2005
sg35
S'0.5'
p2006
sg37
S'32'
p2007
sg39
S'ORL'
p2008
sg41
S'29'
p2009
sg43
S'2.0'
p2010
sg45
S'4.1'
p2011
sg47
S'2.6'
p2012
sg49
S'.371'
p2013
sg51
S'8.2'
p2014
sg53
S'1993-94'
p2015
sg55
S'1.5'
p2016
sg57
S'7.1'
p2017
sg59
S'0.9'
p2018
sg61
S'309'
p2019
sg63
g11
sba(isrc.gp1.models.Per36Minutes
Per36Minutes
p2020
(dp2021
g8
S'4.7'
p2022
sg10
S'0.0'
p2023
sg12
S'.176'
p2024
sg14
S'0.0'
p2025
sg16
S'1.4'
p2026
sg18
S'0.0'
p2027
sg19
g3
sg20
g21
sg22
S'5.6'
p2028
sg26
S'NBA'
p2029
sg28
S'0.0'
p2030
sg29
S'7.9'
p2031
sg31
S'3.7'
p2032
sg33
S'.200'
p2033
sg35
S'0.5'
p2034
sg37
S'33'
p2035
sg39
S'TOT'
p2036
sg41
S'11'
p2037
sg43
S'2.8'
p2038
sg45
S'7.9'
p2039
sg47
S'4.7'
p2040
sg49
S'.176'
p2041
sg51
S'10.3'
p2042
sg53
S'1994-95'
p2043
sg55
S'1.4'
p2044
sg57
S'7.0'
p2045
sg59
S'0.9'
p2046
sg61
S'77'
p2047
sg63
g11
sba(isrc.gp1.models.Per36Minutes
Per36Minutes
p2048
(dp2049
g8
S'9.0'
p2050
sg10
S'0.0'
p2051
sg12
S'.000'
p2052
sg14
S'0.0'
p2053
sg16
S'0.0'
p2054
sg18
S'0.0'
p2055
sg19
g3
sg20
g21
sg22
S'4.5'
p2056
sg26
S'NBA'
p2057
sg28
S'2.3'
p2058
sg29
S'6.8'
p2059
sg31
g3
sg33
S'4.5'
p2060
sg35
S'0.0'
p2061
sg37
S'33'
p2062
sg39
S'NYK'
p2063
sg41
g119
sg43
S'4.5'
p2064
sg45
S'6.8'
p2065
sg47
S'0.0'
p2066
sg49
S'.000'
p2067
sg51
S'0.0'
p2068
sg53
S'1994-95'
p2069
sg55
S'0.0'
p2070
sg57
S'0.0'
p2071
sg59
S'0.0'
p2072
sg61
S'16'
p2073
sg63
g11
sba(isrc.gp1.models.Per36Minutes
Per36Minutes
p2074
(dp2075
g8
S'4.7'
p2076
sg10
S'0.0'
p2077
sg12
S'.214'
p2078
sg14
S'0.0'
p2079
sg16
S'1.8'
p2080
sg18
S'0.0'
p2081
sg19
g3
sg20
g21
sg22
S'5.9'
p2082
sg26
S'NBA'
p2083
sg28
S'0.0'
p2084
sg29
S'8.3'
p2085
sg31
S'4.7'
p2086
sg33
S'.200'
p2087
sg35
S'0.6'
p2088
sg37
S'33'
p2089
sg39
S'IND'
p2090
sg41
g181
sg43
S'3.0'
p2091
sg45
S'8.3'
p2092
sg47
S'5.9'
p2093
sg49
S'.214'
p2094
sg51
S'10.6'
p2095
sg53
S'1994-95'
p2096
sg55
S'1.8'
p2097
sg57
S'7.7'
p2098
sg59
S'1.2'
p2099
sg61
S'61'
p2100
sg63
g11
sbasS'_fromYear'
p2101
S'1984'
p2102
sS'_url'
p2103
S'http://www.basketball-reference.com/players/k/kitegr01.html'
p2104
sS'_perGame'
p2105
(isrc.gp1.models.PerGame
PerGame
p2106
(dp2107
g8
S'0.9'
p2108
sg10
S'0.0'
p2109
sg12
S'.214'
p2110
sS'_effectiveFieldGalPercentage'
p2111
S'0.2'
p2112
sg14
S'0.0'
p2113
sg16
S'0.3'
p2114
sg18
S'0.0'
p2115
sg19
g3
sg20
g21
sg22
S'1.1'
p2116
sg26
S'NBA'
p2117
sg28
S'0.0'
p2118
sg31
S'0.9'
p2119
sS'_fieldGoalsttempted'
p2120
S'1.6'
p2121
sg33
S'.200'
p2122
sg35
S'0.1'
p2123
sg37
S'33'
p2124
sg39
S'IND'
p2125
sg41
g181
sg43
S'0.6'
p2126
sg45
S'1.6'
p2127
sg47
S'1.1'
p2128
sg49
S'.214'
p2129
sg51
S'2.0'
p2130
sg53
S'1994-95'
p2131
sg55
S'0.3'
p2132
sg57
S'1.4'
p2133
sg59
S'.214'
p2134
sg61
S'6.8'
p2135
sg63
g11
sbsS'_weight'
p2136
S'250'
p2137
sS'_dob'
p2138
S'5-8-1961'
p2139
sS'_salary'
p2140
(lp2141
(isrc.gp1.models.Salary
Salary
p2142
(dp2143
g39
S'Boston Celtics'
p2144
sg26
S'NBA'
p2145
sg2140
S'$150,000'
p2146
sg53
S'1985-86'
p2147
sba(isrc.gp1.models.Salary
Salary
p2148
(dp2149
g39
S'Los Angeles Clippers'
p2150
sg26
S'NBA'
p2151
sg2140
S'$200,000'
p2152
sg53
S'1987-88'
p2153
sba(isrc.gp1.models.Salary
Salary
p2154
(dp2155
g39
S'Los Angeles Clippers'
p2156
sg26
S'NBA'
p2157
sg2140
S'$250,000'
p2158
sg53
S'1988-89'
p2159
sba(isrc.gp1.models.Salary
Salary
p2160
(dp2161
g39
S'Orlando Magic'
p2162
sg26
S'NBA'
p2163
sg2140
S'$480,000'
p2164
sg53
S'1990-91'
p2165
sba(isrc.gp1.models.Salary
Salary
p2166
(dp2167
g39
S'Orlando Magic'
p2168
sg26
S'NBA'
p2169
sg2140
S'$700,000'
p2170
sg53
S'1991-92'
p2171
sba(isrc.gp1.models.Salary
Salary
p2172
(dp2173
g39
S'Orlando Magic'
p2174
sg26
S'NBA'
p2175
sg2140
S'$775,000'
p2176
sg53
S'1992-93'
p2177
sba(isrc.gp1.models.Salary
Salary
p2178
(dp2179
g39
S'Orlando Magic'
p2180
sg26
S'NBA'
p2181
sg2140
S'$985,000'
p2182
sg53
S'1993-94'
p2183
sba(isrc.gp1.models.Salary
Salary
p2184
(dp2185
g39
S'Orlando Magic'
p2186
sg26
S'NBA'
p2187
sg2140
S'$1,195,000'
p2188
sg53
S'1994-95'
p2189
sbasg20
g21
sb.