(isrc.gp1.models.Player
Player
p0
(dp1
S'_experience'
p2
S'NA'
p3
sS'_totals'
p4
(lp5
(isrc.gp1.models.Totals
Totals
p6
(dp7
S'_offensiveRebounds'
p8
S'68'
p9
sS'_threePointsAttempted'
p10
S'.235'
p11
sS'_fieldGoalsPercentage'
p12
S'4'
p13
sS'_assist'
p14
S'36'
p15
sS'_threePointsPercentage'
p16
S'76'
p17
sS'_threePoints'
p18
S'17'
p19
sS'_points'
p20
g3
sS'_position'
p21
S'PF'
p22
sS'_freeThrowsPercentage'
p23
S'30'
p24
sS'_effectiveFieldGoalPercentage'
p25
S'32'
p26
sS'_league'
p27
S'ABA'
p28
sS'_steals'
p29
S'87'
p30
sS'_fieldGoalsAttempted'
p31
S'.392'
p32
sS'_personalFouls'
p33
g3
sS'_freeThrowsAttempted'
p34
S'.542'
p35
sS'_totalRebounds'
p36
S'15'
p37
sS'_age'
p38
S'22'
p39
sS'_team'
p40
S'DNR'
p41
sS'_games'
p42
S'50'
p43
sS'_blocks'
p44
S'196'
p45
sS'_twoPoints'
p46
S'187'
p47
sS'_freeThrows'
p48
S'59'
p49
sS'_twoPointsAttempted'
p50
S'.406'
p51
sS'_defensiveRebounds'
p52
S'98'
p53
sS'_season'
p54
S'1969-70'
p55
sS'_fieldGoals'
p56
S'204'
p57
sS'_turnOvers'
p58
g3
sS'_twoPointsPercentage'
p59
S'.402'
p60
sS'_minutesPlayed'
p61
S'80'
p62
sS'_gamesStarted'
p63
S'453'
p64
sba(isrc.gp1.models.Totals
Totals
p65
(dp66
g8
S'10'
p67
sg10
S'.000'
p68
sg12
S'0'
p69
sg14
S'8'
p70
sg16
S'6'
p71
sg18
S'1'
p72
sg20
g3
sg21
S'PF'
p73
sg23
S'9'
p74
sg25
g13
sg27
S'ABA'
p75
sg29
S'21'
p76
sg31
S'.240'
p77
sg33
g3
sg34
S'.444'
p78
sg36
g69
sg38
S'23'
p79
sg40
S'TOT'
p80
sg42
S'10'
p81
sg44
S'16'
p82
sg46
S'24'
p83
sg48
g74
sg50
S'.250'
p84
sg52
S'19'
p85
sg54
S'1970-71'
p86
sg56
S'25'
p87
sg58
g3
sg59
S'.240'
p88
sg61
g71
sg63
S'70'
p89
sba(isrc.gp1.models.Totals
Totals
p90
(dp91
g8
S'10'
p92
sg10
S'2'
p93
sg12
g69
sg14
S'14'
p94
sg16
S'12'
p95
sg18
g69
sg20
g3
sg21
S'PF'
p96
sg23
S'5'
p97
sg25
S'7'
p98
sg27
S'ABA'
p99
sg29
g70
sg31
S'.167'
p100
sg33
g3
sg34
g97
sg36
g13
sg38
S'23'
p101
sg40
S'FLO'
p102
sg42
g97
sg44
g3
sg46
S'.167'
p103
sg48
S'.571'
p104
sg50
S'.167'
p105
sg52
g69
sg54
S'1970-71'
p106
sg56
S'12'
p107
sg58
g3
sg59
g13
sg61
g93
sg63
S'40'
p108
sba(isrc.gp1.models.Totals
Totals
p109
(dp110
g8
g97
sg10
S'.000'
p111
sg12
g69
sg14
g13
sg16
g13
sg18
g72
sg20
g3
sg21
S'PF'
p112
sg23
g13
sg25
g69
sg27
S'ABA'
p113
sg29
g98
sg31
S'.308'
p114
sg33
g3
sg34
S'.000'
p115
sg36
g69
sg38
S'23'
p116
sg40
S'TEX'
p117
sg42
g97
sg44
g70
sg46
S'12'
p118
sg48
g93
sg50
S'.333'
p119
sg52
g74
sg54
S'1970-71'
p120
sg56
S'13'
p121
sg58
g3
sg59
S'.308'
p122
sg61
g13
sg63
S'30'
p123
sbasS'_college'
p124
S'Western Carolina University'
p125
sS'_toYear'
p126
S'1971'
p127
sS'_height'
p128
S'6-8'
p129
sS'_active'
p130
I00
sS'_shootingHand'
p131
VRight
p132
sS'_name'
p133
S'Greg Wittman'
p134
sS'_per100Possessions'
p135
(lp136
sS'_advanced'
p137
(lp138
(isrc.gp1.models.Advanced
Advanced
p139
(dp140
S'_offensiveReboundPercentage'
p141
S'9.5'
p142
sS'_turnOverPercentage'
p143
S'0.0'
p144
sS'_winSharesPer48Minutes'
p145
g3
sS'_stealPercentage'
p146
S'-0.5'
p147
sS'_usagePercentage'
p148
S'.005'
p149
sS'_totalReboundsPercentage'
p150
S'13.5'
p151
sS'_defensiveBoxPlusMinus'
p152
g3
sg21
S'PF'
p153
sS'_valueOverReplacementPlayer'
p154
g3
sS'_trueShootingPercentage'
p155
S'.426'
p156
sS'_defensiveReboundPercentage'
p157
S'4.5'
p158
sS'_freeThrowsAttempRate'
p159
S'.289'
p160
sS'_threePointsAttempRate'
p161
S'.083'
p162
sg27
S'ABA'
p163
sS'_offensiveBoxPlusMinues'
p164
g3
sS'_assistPercentage'
p165
S'21.8'
p166
sS'_defensiveWinShares'
p167
g3
sg38
S'22'
p168
sg40
S'DNR'
p169
sg42
S'50'
p170
sS'_blockPercentage'
p171
S'0.5'
p172
sS'_playerEfficiencyRating'
p173
S'7.6'
p174
sS'_offensiveWinShares'
p175
g3
sg61
S'453'
p176
sS'_boxPlusMinus'
p177
g3
sg54
S'1969-70'
p178
sS'_winShares'
p179
g3
sba(isrc.gp1.models.Advanced
Advanced
p180
(dp181
g141
S'12.2'
p182
sg143
S'-0.2'
p183
sg145
g3
sg146
S'-0.3'
p184
sg148
S'-0.162'
p185
sg150
S'21.6'
p186
sg152
g3
sg21
S'PF'
p187
sg154
g3
sg155
S'.276'
p188
sg157
S'0.0'
p189
sg159
S'.360'
p190
sg161
S'.040'
p191
sg27
S'ABA'
p192
sg164
g3
sg165
S'19.2'
p193
sg167
g3
sg38
S'23'
p194
sg40
S'TOT'
p195
sg42
S'10'
p196
sg171
S'0.0'
p197
sg173
S'-5.2'
p198
sg175
g3
sg61
S'70'
p199
sg177
g3
sg54
S'1970-71'
p200
sg179
g3
sba(isrc.gp1.models.Advanced
Advanced
p201
(dp202
g141
S'11.7'
p203
sg143
S'-0.1'
p204
sg145
g3
sg146
S'-0.2'
p205
sg148
S'-0.164'
p206
sg150
S'21.0'
p207
sg152
g3
sg21
S'PF'
p208
sg154
g3
sg155
S'.265'
p209
sg157
S'0.0'
p210
sg159
S'.583'
p211
sg161
S'.000'
p212
sg27
S'ABA'
p213
sg164
g3
sg165
S'17.8'
p214
sg167
g3
sg38
S'23'
p215
sg40
S'FLO'
p216
sg42
g97
sg171
S'0.0'
p217
sg173
S'-6.5'
p218
sg175
g3
sg61
S'40'
p219
sg177
g3
sg54
S'1970-71'
p220
sg179
g3
sba(isrc.gp1.models.Advanced
Advanced
p221
(dp222
g141
S'12.8'
p223
sg143
S'-0.1'
p224
sg145
g3
sg146
S'-0.1'
p225
sg148
S'-0.160'
p226
sg150
S'22.4'
p227
sg152
g3
sg21
S'PF'
p228
sg154
g3
sg155
S'.288'
p229
sg157
S'0.0'
p230
sg159
S'.154'
p231
sg161
S'.077'
p232
sg27
S'ABA'
p233
sg164
g3
sg165
S'21.0'
p234
sg167
g3
sg38
S'23'
p235
sg40
S'TEX'
p236
sg42
g97
sg171
S'0.0'
p237
sg173
S'-3.5'
p238
sg175
g3
sg61
S'30'
p239
sg177
g3
sg54
S'1970-71'
p240
sg179
g3
sbasS'_per36Minutes'
p241
(lp242
(isrc.gp1.models.Per36Minutes
Per36Minutes
p243
(dp244
g8
S'5.4'
p245
sg10
S'.235'
p246
sg12
S'0.3'
p247
sg14
S'2.9'
p248
sg16
S'6.0'
p249
sg18
S'1.4'
p250
sg20
g3
sg21
S'PF'
p251
sg23
S'2.4'
p252
sg27
S'ABA'
p253
sg29
S'6.9'
p254
sg31
S'.392'
p255
sg33
g3
sg34
S'.542'
p256
sg36
S'1.2'
p257
sg38
S'22'
p258
sg40
S'DNR'
p259
sg42
S'50'
p260
sg44
S'15.6'
p261
sg46
S'14.9'
p262
sg48
S'4.7'
p263
sg50
S'.406'
p264
sg52
S'7.8'
p265
sg54
S'1969-70'
p266
sg56
S'16.2'
p267
sg58
g3
sg59
S'2.5'
p268
sg61
S'6.4'
p269
sg63
S'453'
p270
sba(isrc.gp1.models.Per36Minutes
Per36Minutes
p271
(dp272
g8
S'5.1'
p273
sg10
S'.000'
p274
sg12
S'0.0'
p275
sg14
S'4.1'
p276
sg16
S'3.1'
p277
sg18
S'0.5'
p278
sg20
g3
sg21
S'PF'
p279
sg23
S'4.6'
p280
sg27
S'ABA'
p281
sg29
S'10.8'
p282
sg31
S'.240'
p283
sg33
g3
sg34
S'.444'
p284
sg36
S'0.0'
p285
sg38
S'23'
p286
sg40
S'TOT'
p287
sg42
S'10'
p288
sg44
S'8.2'
p289
sg46
S'12.3'
p290
sg48
S'4.6'
p291
sg50
S'.250'
p292
sg52
S'9.8'
p293
sg54
S'1970-71'
p294
sg56
S'12.9'
p295
sg58
g3
sg59
S'2.1'
p296
sg61
S'3.1'
p297
sg63
S'70'
p298
sba(isrc.gp1.models.Per36Minutes
Per36Minutes
p299
(dp300
g8
S'9.0'
p301
sg10
S'1.8'
p302
sg12
S'0.0'
p303
sg14
S'12.6'
p304
sg16
S'10.8'
p305
sg18
S'0.0'
p306
sg20
g3
sg21
S'PF'
p307
sg23
S'4.5'
p308
sg27
S'ABA'
p309
sg29
S'7.2'
p310
sg31
S'.167'
p311
sg33
g3
sg34
S'4.5'
p312
sg36
S'3.6'
p313
sg38
S'23'
p314
sg40
S'FLO'
p315
sg42
g97
sg44
g3
sg46
S'.167'
p316
sg48
S'.571'
p317
sg50
S'3.6'
p318
sg52
S'0.0'
p319
sg54
S'1970-71'
p320
sg56
S'10.8'
p321
sg58
g3
sg59
S'6.3'
p322
sg61
S'1.8'
p323
sg63
S'40'
p324
sba(isrc.gp1.models.Per36Minutes
Per36Minutes
p325
(dp326
g8
S'6.0'
p327
sg10
S'.000'
p328
sg12
S'0.0'
p329
sg14
S'4.8'
p330
sg16
S'4.8'
p331
sg18
S'1.2'
p332
sg20
g3
sg21
S'PF'
p333
sg23
S'4.8'
p334
sg27
S'ABA'
p335
sg29
S'8.4'
p336
sg31
S'.308'
p337
sg33
g3
sg34
S'.000'
p338
sg36
S'0.0'
p339
sg38
S'23'
p340
sg40
S'TEX'
p341
sg42
g97
sg44
S'9.6'
p342
sg46
S'14.4'
p343
sg48
S'2.4'
p344
sg50
S'.333'
p345
sg52
S'10.8'
p346
sg54
S'1970-71'
p347
sg56
S'15.6'
p348
sg58
g3
sg59
S'0.0'
p349
sg61
S'4.8'
p350
sg63
S'30'
p351
sbasS'_fromYear'
p352
S'1970'
p353
sS'_url'
p354
S'http://www.basketball-reference.com/players/w/wittmgr01.html'
p355
sS'_perGame'
p356
(isrc.gp1.models.PerGame
PerGame
p357
(dp358
g8
S'1.0'
p359
sg10
S'.000'
p360
sg12
S'0.0'
p361
sS'_effectiveFieldGalPercentage'
p362
S'0.0'
p363
sg14
S'0.8'
p364
sg16
S'0.8'
p365
sg18
S'0.2'
p366
sg20
g3
sg21
S'PF'
p367
sg23
S'0.8'
p368
sg27
S'ABA'
p369
sg29
S'1.4'
p370
sg33
g3
sS'_fieldGoalsttempted'
p371
S'.308'
p372
sg34
S'.000'
p373
sg36
S'0.0'
p374
sg38
S'23'
p375
sg40
S'TEX'
p376
sg42
g97
sg44
S'1.6'
p377
sg46
S'2.4'
p378
sg48
S'0.4'
p379
sg50
S'.333'
p380
sg52
S'1.8'
p381
sg54
S'1970-71'
p382
sg56
S'2.6'
p383
sg58
g3
sg59
S'.308'
p384
sg61
S'0.8'
p385
sg63
S'6.0'
p386
sbsS'_weight'
p387
S'210'
p388
sS'_dob'
p389
S'10-5-1947'
p390
sS'_salary'
p391
(lp392
sg21
S'F'
p393
sb.