(isrc.gp1.models.Player
Player
p0
(dp1
S'_experience'
p2
S'NA'
p3
sS'_totals'
p4
(lp5
(isrc.gp1.models.Totals
Totals
p6
(dp7
S'_offensiveRebounds'
p8
g3
sS'_threePointsAttempted'
p9
g3
sS'_fieldGoalsPercentage'
p10
S'.368'
p11
sS'_assist'
p12
S'7'
p13
sS'_threePointsPercentage'
p14
g3
sS'_threePoints'
p15
g3
sS'_points'
p16
S'16'
p17
sS'_position'
p18
g3
sS'_freeThrowsPercentage'
p19
S'.250'
p20
sS'_effectiveFieldGoalPercentage'
p21
S'.368'
p22
sS'_league'
p23
S'NBA'
p24
sS'_steals'
p25
g3
sS'_fieldGoalsAttempted'
p26
S'19'
p27
sS'_personalFouls'
p28
S'9'
p29
sS'_freeThrowsAttempted'
p30
S'8'
p31
sS'_totalRebounds'
p32
S'11'
p33
sS'_age'
p34
S'26'
p35
sS'_team'
p36
S'NYK'
p37
sS'_games'
p38
g13
sS'_blocks'
p39
g3
sS'_twoPoints'
p40
g13
sS'_freeThrows'
p41
S'2'
p42
sS'_twoPointsAttempted'
p43
S'19'
p44
sS'_defensiveRebounds'
p45
g3
sS'_season'
p46
S'1954-55'
p47
sS'_fieldGoals'
p48
g13
sS'_turnOvers'
p49
g3
sS'_twoPointsPercentage'
p50
S'.368'
p51
sS'_minutesPlayed'
p52
S'45'
p53
sS'_gamesStarted'
p54
g3
sbasS'_college'
p55
S'University of Dayton'
p56
sS'_toYear'
p57
S'1955'
p58
sS'_height'
p59
S'6-5'
p60
sS'_active'
p61
I00
sS'_shootingHand'
p62
VRight
p63
sS'_name'
p64
S'Chuck Grigsby'
p65
sS'_per100Possessions'
p66
(lp67
sS'_advanced'
p68
(lp69
(isrc.gp1.models.Advanced
Advanced
p70
(dp71
S'_offensiveReboundPercentage'
p72
g3
sS'_turnOverPercentage'
p73
g3
sS'_winSharesPer48Minutes'
p74
S'-0.042'
p75
sS'_stealPercentage'
p76
g3
sS'_usagePercentage'
p77
g3
sS'_totalReboundsPercentage'
p78
g3
sS'_defensiveBoxPlusMinus'
p79
g3
sg18
g3
sS'_valueOverReplacementPlayer'
p80
g3
sS'_trueShootingPercentage'
p81
S'.355'
p82
sS'_defensiveReboundPercentage'
p83
g3
sS'_freeThrowsAttempRate'
p84
S'.421'
p85
sS'_threePointsAttempRate'
p86
g3
sg23
S'NBA'
p87
sS'_offensiveBoxPlusMinues'
p88
g3
sS'_assistPercentage'
p89
g3
sS'_defensiveWinShares'
p90
S'0.1'
p91
sg34
S'26'
p92
sg36
S'NYK'
p93
sg38
g13
sS'_blockPercentage'
p94
g3
sS'_playerEfficiencyRating'
p95
S'9.9'
p96
sS'_offensiveWinShares'
p97
S'-0.1'
p98
sg52
S'45'
p99
sS'_boxPlusMinus'
p100
g3
sg46
S'1954-55'
p101
sS'_winShares'
p102
S'0.0'
p103
sbasS'_per36Minutes'
p104
(lp105
(isrc.gp1.models.Per36Minutes
Per36Minutes
p106
(dp107
g8
g3
sg9
g3
sg10
S'.368'
p108
sg12
S'5.6'
p109
sg14
g3
sg15
g3
sg16
S'12.8'
p110
sg18
g3
sg19
S'.250'
p111
sg23
S'NBA'
p112
sg25
g3
sg26
S'15.2'
p113
sg28
S'7.2'
p114
sg30
S'6.4'
p115
sg32
S'8.8'
p116
sg34
S'26'
p117
sg36
S'NYK'
p118
sg38
g13
sg39
g3
sg40
S'5.6'
p119
sg41
S'1.6'
p120
sg43
S'15.2'
p121
sg45
g3
sg46
S'1954-55'
p122
sg48
S'5.6'
p123
sg49
g3
sg50
S'.368'
p124
sg52
S'45'
p125
sg54
g3
sbasS'_fromYear'
p126
S'1955'
p127
sS'_url'
p128
S'http://www.basketball-reference.com/players/g/grigsch01.html'
p129
sS'_perGame'
p130
(isrc.gp1.models.PerGame
PerGame
p131
(dp132
g8
g3
sg9
g3
sg10
S'.368'
p133
sS'_effectiveFieldGalPercentage'
p134
S'.368'
p135
sg12
S'1.0'
p136
sg14
g3
sg15
g3
sg16
S'2.3'
p137
sg18
g3
sg19
S'.250'
p138
sg23
S'NBA'
p139
sg25
g3
sg28
S'1.3'
p140
sS'_fieldGoalsttempted'
p141
S'2.7'
p142
sg30
S'1.1'
p143
sg32
S'1.6'
p144
sg34
S'26'
p145
sg36
S'NYK'
p146
sg38
g13
sg39
g3
sg40
S'1.0'
p147
sg41
S'0.3'
p148
sg43
S'2.7'
p149
sg45
g3
sg46
S'1954-55'
p150
sg48
S'1.0'
p151
sg49
g3
sg50
S'.368'
p152
sg52
S'6.4'
p153
sg54
g3
sbsS'_weight'
p154
S'190'
p155
sS'_dob'
p156
S'15-8-1928'
p157
sS'_salary'
p158
(lp159
sg18
S'G'
p160
sb.