(isrc.gp1.models.Player
Player
p0
(dp1
S'_experience'
p2
S'NA'
p3
sS'_totals'
p4
(lp5
(isrc.gp1.models.Totals
Totals
p6
(dp7
S'_offensiveRebounds'
p8
S'1'
p9
sS'_threePointsAttempted'
p10
S'15'
p11
sS'_fieldGoalsPercentage'
p12
S'.500'
p13
sS'_assist'
p14
S'9'
p15
sS'_threePointsPercentage'
p16
S'.333'
p17
sS'_threePoints'
p18
S'5'
p19
sS'_points'
p20
S'52'
p21
sS'_position'
p22
S'SG'
p23
sS'_freeThrowsPercentage'
p24
S'.643'
p25
sS'_effectiveFieldGoalPercentage'
p26
S'.566'
p27
sS'_league'
p28
S'NBA'
p29
sS'_steals'
p30
S'7'
p31
sS'_fieldGoalsAttempted'
p32
S'38'
p33
sS'_personalFouls'
p34
S'14'
p35
sS'_freeThrowsAttempted'
p36
S'14'
p37
sS'_totalRebounds'
p38
S'17'
p39
sS'_age'
p40
S'26'
p41
sS'_team'
p42
S'ATL'
p43
sS'_games'
p44
S'12'
p45
sS'_blocks'
p46
S'0'
p47
sS'_twoPoints'
p48
S'14'
p49
sS'_freeThrows'
p50
g15
sS'_twoPointsAttempted'
p51
S'23'
p52
sS'_defensiveRebounds'
p53
S'16'
p54
sS'_season'
p55
S'2005-06'
p56
sS'_fieldGoals'
p57
S'19'
p58
sS'_turnOvers'
p59
g15
sS'_twoPointsPercentage'
p60
S'.609'
p61
sS'_minutesPlayed'
p62
S'108'
p63
sS'_gamesStarted'
p64
g47
sbasS'_college'
p65
S'North Carolina State University'
p66
sS'_toYear'
p67
S'2006'
p68
sS'_height'
p69
S'6-3'
p70
sS'_active'
p71
I00
sS'_shootingHand'
p72
VRight
p73
sS'_name'
p74
S'Anthony Grundy'
p75
sS'_per100Possessions'
p76
(lp77
(isrc.gp1.models.Per100Possession
Per100Possession
p78
(dp79
g8
S'0.5'
p80
sg10
S'7.4'
p81
sg12
S'.500'
p82
sS'_offensiveRating'
p83
S'106'
p84
sg14
S'4.4'
p85
sg16
S'.333'
p86
sg18
S'2.5'
p87
sg20
S'25.6'
p88
sg22
S'SG'
p89
sS'_defensiveRating'
p90
S'107'
p91
sg24
S'.643'
p92
sg28
S'NBA'
p93
sg30
S'3.4'
p94
sg32
S'18.7'
p95
sg34
S'6.9'
p96
sg36
S'6.9'
p97
sg38
S'8.4'
p98
sg40
S'26'
p99
sg42
S'ATL'
p100
sg44
S'12'
p101
sg46
S'0.0'
p102
sg48
S'6.9'
p103
sg50
S'4.4'
p104
sg51
S'11.3'
p105
sg53
S'7.9'
p106
sg55
S'2005-06'
p107
sg57
S'9.3'
p108
sg59
S'4.4'
p109
sg60
S'.609'
p110
sg62
S'108'
p111
sg64
g47
sbasS'_advanced'
p112
(lp113
(isrc.gp1.models.Advanced
Advanced
p114
(dp115
S'_offensiveReboundPercentage'
p116
S'1.1'
p117
sS'_turnOverPercentage'
p118
S'16.9'
p119
sS'_winSharesPer48Minutes'
p120
S'.095'
p121
sS'_stealPercentage'
p122
S'3.4'
p123
sS'_usagePercentage'
p124
S'22.4'
p125
sS'_totalReboundsPercentage'
p126
S'9.5'
p127
sS'_defensiveBoxPlusMinus'
p128
S'-1.8'
p129
sg22
S'SG'
p130
sS'_valueOverReplacementPlayer'
p131
S'0.0'
p132
sS'_trueShootingPercentage'
p133
S'.589'
p134
sS'_defensiveReboundPercentage'
p135
S'18.3'
p136
sS'_freeThrowsAttempRate'
p137
S'.368'
p138
sS'_threePointsAttempRate'
p139
S'.395'
p140
sg28
S'NBA'
p141
sS'_offensiveBoxPlusMinues'
p142
S'0.1'
p143
sS'_assistPercentage'
p144
S'14.7'
p145
sS'_defensiveWinShares'
p146
S'0.1'
p147
sg40
S'26'
p148
sg42
S'ATL'
p149
sg44
S'12'
p150
sS'_blockPercentage'
p151
S'0.0'
p152
sS'_playerEfficiencyRating'
p153
S'16.6'
p154
sS'_offensiveWinShares'
p155
S'0.1'
p156
sg62
S'108'
p157
sS'_boxPlusMinus'
p158
S'-1.7'
p159
sg55
S'2005-06'
p160
sS'_winShares'
p161
S'0.2'
p162
sbasS'_per36Minutes'
p163
(lp164
(isrc.gp1.models.Per36Minutes
Per36Minutes
p165
(dp166
g8
S'0.3'
p167
sg10
S'5.0'
p168
sg12
S'.500'
p169
sg14
S'3.0'
p170
sg16
S'.333'
p171
sg18
S'1.7'
p172
sg20
S'17.3'
p173
sg22
S'SG'
p174
sg24
S'.643'
p175
sg28
S'NBA'
p176
sg30
S'2.3'
p177
sg32
S'12.7'
p178
sg34
S'4.7'
p179
sg36
S'4.7'
p180
sg38
S'5.7'
p181
sg40
S'26'
p182
sg42
S'ATL'
p183
sg44
S'12'
p184
sg46
S'0.0'
p185
sg48
S'4.7'
p186
sg50
S'3.0'
p187
sg51
S'7.7'
p188
sg53
S'5.3'
p189
sg55
S'2005-06'
p190
sg57
S'6.3'
p191
sg59
S'3.0'
p192
sg60
S'.609'
p193
sg62
S'108'
p194
sg64
g47
sbasS'_fromYear'
p195
S'2006'
p196
sS'_url'
p197
S'http://www.basketball-reference.com/players/g/grundan01.html'
p198
sS'_perGame'
p199
(isrc.gp1.models.PerGame
PerGame
p200
(dp201
g8
S'0.1'
p202
sg10
S'1.3'
p203
sg12
S'.500'
p204
sS'_effectiveFieldGalPercentage'
p205
S'.566'
p206
sg14
S'0.8'
p207
sg16
S'.333'
p208
sg18
S'0.4'
p209
sg20
S'4.3'
p210
sg22
S'SG'
p211
sg24
S'.643'
p212
sg28
S'NBA'
p213
sg30
S'0.6'
p214
sg34
S'1.2'
p215
sS'_fieldGoalsttempted'
p216
S'3.2'
p217
sg36
S'1.2'
p218
sg38
S'1.4'
p219
sg40
S'26'
p220
sg42
S'ATL'
p221
sg44
S'12'
p222
sg46
S'0.0'
p223
sg48
S'1.2'
p224
sg50
S'0.8'
p225
sg51
S'1.9'
p226
sg53
S'1.3'
p227
sg55
S'2005-06'
p228
sg57
S'1.6'
p229
sg59
S'0.8'
p230
sg60
S'.609'
p231
sg62
S'9.0'
p232
sg64
g47
sbsS'_weight'
p233
S'180'
p234
sS'_dob'
p235
S'15-4-1979'
p236
sS'_salary'
p237
(lp238
sg22
S'G'
p239
sb.