(isrc.gp1.models.Player
Player
p0
(dp1
S'_experience'
p2
S'NA'
p3
sS'_totals'
p4
(lp5
(isrc.gp1.models.Totals
Totals
p6
(dp7
S'_offensiveRebounds'
p8
g3
sS'_threePointsAttempted'
p9
S'.430'
p10
sS'_fieldGoalsPercentage'
p11
S'571'
p12
sS'_assist'
p13
g3
sS'_threePointsPercentage'
p14
S'.430'
p15
sS'_threePoints'
p16
S'1329'
p17
sS'_points'
p18
g3
sS'_position'
p19
S'PF'
p20
sS'_freeThrowsPercentage'
p21
S'1352'
p22
sS'_effectiveFieldGoalPercentage'
p23
S'1064'
p24
sS'_league'
p25
S'NBA'
p26
sS'_steals'
p27
g3
sS'_fieldGoalsAttempted'
p28
S'.430'
p29
sS'_personalFouls'
p30
g3
sS'_freeThrowsAttempted'
p31
S'321'
p32
sS'_totalRebounds'
p33
g3
sS'_age'
p34
S'25'
p35
sS'_team'
p36
S'BAL'
p37
sS'_games'
p38
S'78'
p39
sS'_blocks'
p40
g3
sS'_twoPoints'
p41
S'210'
p42
sS'_freeThrows'
p43
S'169'
p44
sS'_twoPointsAttempted'
p45
S'319'
p46
sS'_defensiveRebounds'
p47
g3
sS'_season'
p48
S'1963-64'
p49
sS'_fieldGoals'
p50
S'1329'
p51
sS'_turnOvers'
p52
g3
sS'_twoPointsPercentage'
p53
S'.658'
p54
sS'_minutesPlayed'
p55
S'571'
p56
sS'_gamesStarted'
p57
S'2847'
p58
sba(isrc.gp1.models.Totals
Totals
p59
(dp60
g8
g3
sg9
S'.418'
p61
sg11
S'577'
p62
sg13
g3
sg14
S'.418'
p63
sg16
S'1379'
p64
sg18
g3
sg19
S'SF'
p65
sg21
S'1415'
p66
sg23
S'988'
p67
sg25
S'NBA'
p68
sg27
g3
sg28
S'.418'
p69
sg30
g3
sg31
S'258'
p70
sg33
g3
sg34
S'26'
p71
sg36
S'BAL'
p72
sg38
S'76'
p73
sg40
g3
sg41
S'261'
p74
sg43
S'270'
p75
sg45
S'386'
p76
sg47
g3
sg48
S'1964-65'
p77
sg50
S'1379'
p78
sg52
g3
sg53
S'.676'
p79
sg55
S'577'
p80
sg57
S'2899'
p81
sba(isrc.gp1.models.Totals
Totals
p82
(dp83
g8
g3
sg9
S'.413'
p84
sg11
S'273'
p85
sg13
g3
sg14
S'.413'
p86
sg16
S'661'
p87
sg18
g3
sg19
S'SF'
p88
sg21
S'677'
p89
sg23
S'546'
p90
sg25
S'NBA'
p91
sg27
g3
sg28
S'.413'
p92
sg30
g3
sg31
S'136'
p93
sg33
g3
sg34
S'27'
p94
sg36
S'BAL'
p95
sg38
S'41'
p96
sg40
g3
sg41
S'131'
p97
sg43
S'114'
p98
sg45
S'178'
p99
sg47
g3
sg48
S'1965-66'
p100
sg50
S'661'
p101
sg52
g3
sg53
S'.736'
p102
sg55
S'273'
p103
sg57
S'1284'
p104
sba(isrc.gp1.models.Totals
Totals
p105
(dp106
g8
g3
sg9
S'.450'
p107
sg11
S'620'
p108
sg13
g3
sg14
S'.450'
p109
sg16
S'1377'
p110
sg18
g3
sg19
S'SF'
p111
sg21
S'1511'
p112
sg23
S'855'
p113
sg25
S'NBA'
p114
sg27
g3
sg28
S'.450'
p115
sg30
g3
sg31
S'281'
p116
sg33
g3
sg34
S'28'
p117
sg36
S'BAL'
p118
sg38
S'73'
p119
sg40
g3
sg41
S'271'
p120
sg43
S'194'
p121
sg45
S'383'
p122
sg47
g3
sg48
S'1966-67'
p123
sg50
S'1377'
p124
sg52
g3
sg53
S'.708'
p125
sg55
S'620'
p126
sg57
S'2626'
p127
sba(isrc.gp1.models.Totals
Totals
p128
(dp129
g8
g3
sg9
S'.467'
p130
sg11
S'482'
p131
sg13
g3
sg14
S'.467'
p132
sg16
S'1033'
p133
sg18
g3
sg19
S'SF'
p134
sg21
S'1144'
p135
sg23
S'782'
p136
sg25
S'NBA'
p137
sg27
g3
sg28
S'.467'
p138
sg30
g3
sg31
S'223'
p139
sg33
g3
sg34
S'29'
p140
sg36
S'BAL'
p141
sg38
S'60'
p142
sg40
g3
sg41
S'180'
p143
sg43
S'159'
p144
sg45
S'270'
p145
sg47
g3
sg48
S'1967-68'
p146
sg50
S'1033'
p147
sg52
g3
sg53
S'.667'
p148
sg55
S'482'
p149
sg57
S'2271'
p150
sba(isrc.gp1.models.Totals
Totals
p151
(dp152
g8
g3
sg9
S'.459'
p153
sg11
S'359'
p154
sg13
g3
sg14
S'.459'
p155
sg16
S'782'
p156
sg18
g3
sg19
S'PF'
p157
sg21
S'878'
p158
sg23
S'568'
p159
sg25
S'NBA'
p160
sg27
g3
sg28
S'.459'
p161
sg30
g3
sg31
S'176'
p162
sg33
g3
sg34
S'30'
p163
sg36
S'BAL'
p164
sg38
S'49'
p165
sg40
g3
sg41
S'160'
p166
sg43
S'97'
p167
sg45
S'223'
p168
sg47
g3
sg48
S'1968-69'
p169
sg50
S'782'
p170
sg52
g3
sg53
S'.717'
p171
sg55
S'359'
p172
sg57
S'1671'
p173
sba(isrc.gp1.models.Totals
Totals
p174
(dp175
g8
g3
sg9
S'.451'
p176
sg11
S'578'
p177
sg13
g3
sg14
S'.451'
p178
sg16
S'1282'
p179
sg18
g3
sg19
S'PF'
p180
sg21
S'1353'
p181
sg23
S'1086'
p182
sg25
S'NBA'
p183
sg27
g3
sg28
S'.451'
p184
sg30
g3
sg31
S'269'
p185
sg33
g3
sg34
S'31'
p186
sg36
S'BAL'
p187
sg38
S'78'
p188
sg40
g3
sg41
S'197'
p189
sg43
S'264'
p190
sg45
S'272'
p191
sg47
g3
sg48
S'1969-70'
p192
sg50
S'1282'
p193
sg52
g3
sg53
S'.724'
p194
sg55
S'578'
p195
sg57
S'2919'
p196
sba(isrc.gp1.models.Totals
Totals
p197
(dp198
g8
g3
sg9
S'.453'
p199
sg11
S'494'
p200
sg13
g3
sg14
S'.453'
p201
sg16
S'1090'
p202
sg18
g3
sg19
S'PF'
p203
sg21
S'1202'
p204
sg23
S'1128'
p205
sg25
S'NBA'
p206
sg27
g3
sg28
S'.453'
p207
sg30
g3
sg31
S'227'
p208
sg33
g3
sg34
S'32'
p209
sg36
S'BAL'
p210
sg38
S'66'
p211
sg40
g3
sg41
S'214'
p212
sg43
S'192'
p213
sg45
S'290'
p214
sg47
g3
sg48
S'1970-71'
p215
sg50
S'1090'
p216
sg52
g3
sg53
S'.738'
p217
sg55
S'494'
p218
sg57
S'2538'
p219
sba(isrc.gp1.models.Totals
Totals
p220
(dp221
g8
g3
sg9
S'.383'
p222
sg11
S'103'
p223
sg13
g3
sg14
S'.383'
p224
sg16
S'269'
p225
sg18
g3
sg19
S'PF'
p226
sg21
S'249'
p227
sg23
S'226'
p228
sg25
S'NBA'
p229
sg27
g3
sg28
S'.383'
p230
sg30
g3
sg31
S'91'
p231
sg33
g3
sg34
S'33'
p232
sg36
S'BAL'
p233
sg38
S'39'
p234
sg40
g3
sg41
S'43'
p235
sg43
S'51'
p236
sg45
S'63'
p237
sg47
g3
sg48
S'1971-72'
p238
sg50
S'269'
p239
sg52
g3
sg53
S'.683'
p240
sg55
S'103'
p241
sg57
S'668'
p242
sba(isrc.gp1.models.Totals
Totals
p243
(dp244
g8
S'296'
p245
sg9
S'.190'
p246
sg11
S'4'
p247
sg13
S'70'
p248
sg14
S'197'
p249
sg16
S'21'
p250
sg18
g3
sg19
S'SF-PF'
p251
sg21
S'85'
p252
sg23
S'56'
p253
sg25
S'TOT'
p254
sg27
S'168'
p255
sg28
S'.419'
p256
sg30
g3
sg31
S'.718'
p257
sg33
S'93'
p258
sg34
S'34'
p259
sg36
S'TOT'
p260
sg38
S'71'
p261
sg40
S'462'
p262
sg41
S'459'
p263
sg43
S'78'
p264
sg45
S'.429'
p265
sg47
S'381'
p266
sg48
S'1972-73'
p267
sg50
S'480'
p268
sg52
g3
sg53
S'.423'
p269
sg55
S'201'
p270
sg57
S'1170'
p271
sba(isrc.gp1.models.Totals
Totals
p272
(dp273
g8
g3
sg9
S'.381'
p274
sg11
S'69'
p275
sg13
g3
sg14
S'.381'
p276
sg16
S'181'
p277
sg18
g3
sg19
S'PF'
p278
sg21
S'163'
p279
sg23
S'136'
p280
sg25
S'NBA'
p281
sg27
g3
sg28
S'.381'
p282
sg30
g3
sg31
S'55'
p283
sg33
g3
sg34
S'34'
p284
sg36
S'PHO'
p285
sg38
S'21'
p286
sg40
g3
sg41
S'25'
p287
sg43
S'31'
p288
sg45
S'36'
p289
sg47
g3
sg48
S'1972-73'
p290
sg50
S'181'
p291
sg52
g3
sg53
S'.694'
p292
sg55
S'69'
p293
sg57
S'417'
p294
sba(isrc.gp1.models.Totals
Totals
p295
(dp296
g8
S'160'
p297
sg9
S'.190'
p298
sg11
g247
sg13
S'70'
p299
sg14
S'128'
p300
sg16
S'21'
p301
sg18
g3
sg19
S'SF'
p302
sg21
S'85'
p303
sg23
S'31'
p304
sg25
S'ABA'
p305
sg27
S'113'
p306
sg28
S'.441'
p307
sg30
g3
sg31
S'.738'
p308
sg33
S'62'
p309
sg34
S'34'
p310
sg36
S'INA'
p311
sg38
S'50'
p312
sg40
S'299'
p313
sg41
S'278'
p314
sg43
S'42'
p315
sg45
S'.460'
p316
sg47
S'245'
p317
sg48
S'1972-73'
p318
sg50
S'299'
p319
sg52
g3
sg53
S'.448'
p320
sg55
S'132'
p321
sg57
S'753'
p322
sbasS'_college'
p323
S'University of Idaho'
p324
sS'_toYear'
p325
S'1973'
p326
sS'_height'
p327
S'6-6'
p328
sS'_active'
p329
I00
sS'_shootingHand'
p330
VRight
p331
sS'_name'
p332
S'Gus Johnson'
p333
sS'_per100Possessions'
p334
(lp335
sS'_advanced'
p336
(lp337
(isrc.gp1.models.Advanced
Advanced
p338
(dp339
S'_offensiveReboundPercentage'
p340
S'2.5'
p341
sS'_turnOverPercentage'
p342
g3
sS'_winSharesPer48Minutes'
p343
g3
sS'_stealPercentage'
p344
g3
sS'_usagePercentage'
p345
g3
sS'_totalReboundsPercentage'
p346
S'.060'
p347
sS'_defensiveBoxPlusMinus'
p348
g3
sg19
S'PF'
p349
sS'_valueOverReplacementPlayer'
p350
g3
sS'_trueShootingPercentage'
p351
S'.460'
p352
sS'_defensiveReboundPercentage'
p353
S'3.5'
p354
sS'_freeThrowsAttempRate'
p355
S'1.0'
p356
sS'_threePointsAttempRate'
p357
S'.240'
p358
sg25
S'NBA'
p359
sS'_offensiveBoxPlusMinues'
p360
g3
sS'_assistPercentage'
p361
g3
sS'_defensiveWinShares'
p362
g3
sg34
S'25'
p363
sg36
S'BAL'
p364
sg38
S'78'
p365
sS'_blockPercentage'
p366
g3
sS'_playerEfficiencyRating'
p367
S'16.3'
p368
sS'_offensiveWinShares'
p369
g3
sg55
S'2847'
p370
sS'_boxPlusMinus'
p371
g3
sg48
S'1963-64'
p372
sS'_winShares'
p373
g3
sba(isrc.gp1.models.Advanced
Advanced
p374
(dp375
g340
S'1.3'
p376
sg342
g3
sg343
g3
sg344
g3
sg345
g3
sg346
S'2.2'
p377
sg348
g3
sg19
S'SF'
p378
sg350
g3
sg351
S'.457'
p379
sg353
S'0.8'
p380
sg355
S'13.6'
p381
sg357
S'.280'
p382
sg25
S'NBA'
p383
sg360
g3
sg361
S'.036'
p384
sg362
g3
sg34
S'26'
p385
sg36
S'BAL'
p386
sg38
S'76'
p387
sg366
g3
sg367
S'16.6'
p388
sg369
g3
sg55
S'2899'
p389
sg371
g3
sg48
S'1964-65'
p390
sg373
g3
sba(isrc.gp1.models.Advanced
Advanced
p391
(dp392
g340
S'0.4'
p393
sg342
g3
sg343
g3
sg344
g3
sg345
g3
sg346
S'1.6'
p394
sg348
g3
sg19
S'SF'
p395
sg350
g3
sg351
S'.458'
p396
sg353
S'1.3'
p397
sg355
S'12.3'
p398
sg357
S'.269'
p399
sg25
S'NBA'
p400
sg360
g3
sg361
S'.060'
p401
sg362
g3
sg34
S'27'
p402
sg36
S'BAL'
p403
sg38
S'41'
p404
sg366
g3
sg367
S'17.4'
p405
sg369
g3
sg55
S'1284'
p406
sg371
g3
sg48
S'1965-66'
p407
sg373
g3
sba(isrc.gp1.models.Advanced
Advanced
p408
(dp409
g340
S'2.7'
p410
sg342
g3
sg343
g3
sg344
g3
sg345
g3
sg346
S'5.0'
p411
sg348
g3
sg19
S'SF'
p412
sg350
g3
sg351
S'.489'
p413
sg353
S'2.3'
p414
sg355
S'10.5'
p415
sg357
S'.278'
p416
sg25
S'NBA'
p417
sg360
g3
sg361
S'.092'
p418
sg362
g3
sg34
S'28'
p419
sg36
S'BAL'
p420
sg38
S'73'
p421
sg366
g3
sg367
S'17.6'
p422
sg369
g3
sg55
S'2626'
p423
sg371
g3
sg48
S'1966-67'
p424
sg373
g3
sba(isrc.gp1.models.Advanced
Advanced
p425
(dp426
g340
S'2.3'
p427
sg342
g3
sg343
g3
sg344
g3
sg345
g3
sg346
S'5.3'
p428
sg348
g3
sg19
S'SF'
p429
sg350
g3
sg351
S'.497'
p430
sg353
S'3.0'
p431
sg355
S'9.7'
p432
sg357
S'.261'
p433
sg25
S'NBA'
p434
sg360
g3
sg361
S'.112'
p435
sg362
g3
sg34
S'29'
p436
sg36
S'BAL'
p437
sg38
S'60'
p438
sg366
g3
sg367
S'17.1'
p439
sg369
g3
sg55
S'2271'
p440
sg371
g3
sg48
S'1967-68'
p441
sg373
g3
sba(isrc.gp1.models.Advanced
Advanced
p442
(dp443
g340
S'2.2'
p444
sg342
g3
sg343
g3
sg344
g3
sg345
g3
sg346
S'5.1'
p445
sg348
g3
sg19
S'PF'
p446
sg350
g3
sg351
S'.499'
p447
sg353
S'3.0'
p448
sg355
S'7.9'
p449
sg357
S'.285'
p450
sg25
S'NBA'
p451
sg360
g3
sg361
S'.148'
p452
sg362
g3
sg34
S'30'
p453
sg36
S'BAL'
p454
sg38
S'49'
p455
sg366
g3
sg367
S'17.5'
p456
sg369
g3
sg55
S'1671'
p457
sg371
g3
sg48
S'1968-69'
p458
sg373
g3
sba(isrc.gp1.models.Advanced
Advanced
p459
(dp460
g340
S'0.9'
p461
sg342
g3
sg343
g3
sg344
g3
sg345
g3
sg346
S'5.9'
p462
sg348
g3
sg19
S'PF'
p463
sg350
g3
sg351
S'.483'
p464
sg353
S'5.0'
p465
sg355
S'11.5'
p466
sg357
S'.212'
p467
sg25
S'NBA'
p468
sg360
g3
sg361
S'.097'
p469
sg362
g3
sg34
S'31'
p470
sg36
S'BAL'
p471
sg38
S'78'
p472
sg366
g3
sg367
S'16.3'
p473
sg369
g3
sg55
S'2919'
p474
sg371
g3
sg48
S'1969-70'
p475
sg373
g3
sba(isrc.gp1.models.Advanced
Advanced
p476
(dp477
g340
S'10.3'
p478
sg342
g3
sg343
g3
sg344
S'.136'
p479
sg345
g3
sg346
S'5.0'
p480
sg348
g3
sg19
S'PF'
p481
sg350
g3
sg351
S'.494'
p482
sg353
S'2.2'
p483
sg355
S'19.6'
p484
sg357
S'.266'
p485
sg25
S'NBA'
p486
sg360
g3
sg361
S'7.2'
p487
sg362
g3
sg34
S'32'
p488
sg36
S'BAL'
p489
sg38
S'66'
p490
sg366
g3
sg367
S'18.9'
p491
sg369
g3
sg55
S'2538'
p492
sg371
g3
sg48
S'1970-71'
p493
sg373
g3
sba(isrc.gp1.models.Advanced
Advanced
p494
(dp495
g340
S'10.5'
p496
sg342
g3
sg343
g3
sg344
S'.007'
p497
sg345
g3
sg346
S'0.9'
p498
sg348
g3
sg19
S'PF'
p499
sg350
g3
sg351
S'.420'
p500
sg353
S'-0.8'
p501
sg355
S'15.9'
p502
sg357
S'.234'
p503
sg25
S'NBA'
p504
sg360
g3
sg361
S'0.1'
p505
sg362
g3
sg34
S'33'
p506
sg36
S'BAL'
p507
sg38
S'39'
p508
sg366
g3
sg367
S'12.2'
p509
sg369
g3
sg55
S'668'
p510
sg371
g3
sg48
S'1971-72'
p511
sg373
g3
sba(isrc.gp1.models.Advanced
Advanced
p512
(dp513
g340
S'10.7'
p514
sg342
S'-0.7'
p515
sg343
g3
sg344
S'18.1'
p516
sg345
S'1.6'
p517
sg346
S'15.2'
p518
sg348
g3
sg19
S'SF-PF'
p519
sg350
g3
sg351
S'.449'
p520
sg353
S'18.9'
p521
sg355
S'.163'
p522
sg357
S'.044'
p523
sg25
S'TOT'
p524
sg360
g3
sg361
S'10.8'
p525
sg362
S'.035'
p526
sg34
S'34'
p527
sg36
S'TOT'
p528
sg38
S'71'
p529
sg366
S'19.4'
p530
sg367
S'11.9'
p531
sg369
S'0.9'
p532
sg55
S'1170'
p533
sg371
g3
sg48
S'1972-73'
p534
sg373
g3
sba(isrc.gp1.models.Advanced
Advanced
p535
(dp536
g340
S'9.9'
p537
sg342
g3
sg343
g3
sg344
S'-0.020'
p538
sg345
g3
sg346
S'0.3'
p539
sg348
g3
sg19
S'PF'
p540
sg350
g3
sg351
S'.414'
p541
sg353
S'-0.5'
p542
sg355
S'15.8'
p543
sg357
S'.199'
p544
sg25
S'NBA'
p545
sg360
g3
sg361
S'-0.2'
p546
sg362
g3
sg34
S'34'
p547
sg36
S'PHO'
p548
sg38
S'21'
p549
sg366
g3
sg367
S'11.6'
p550
sg369
g3
sg55
S'417'
p551
sg371
g3
sg48
S'1972-73'
p552
sg373
g3
sba(isrc.gp1.models.Advanced
Advanced
p553
(dp554
g340
S'10.7'
p555
sg342
S'-0.3'
p556
sg343
g3
sg344
S'18.1'
p557
sg345
S'1.3'
p558
sg346
S'14.9'
p559
sg348
g3
sg19
S'SF'
p560
sg350
g3
sg351
S'.471'
p561
sg353
S'18.9'
p562
sg355
S'.140'
p563
sg357
S'.070'
p564
sg25
S'ABA'
p565
sg360
g3
sg361
S'11.3'
p566
sg362
S'.066'
p567
sg34
S'34'
p568
sg36
S'INA'
p569
sg38
S'50'
p570
sg366
S'19.4'
p571
sg367
S'12.0'
p572
sg369
S'1.0'
p573
sg55
S'753'
p574
sg371
g3
sg48
S'1972-73'
p575
sg373
g3
sbasS'_per36Minutes'
p576
(lp577
(isrc.gp1.models.Per36Minutes
Per36Minutes
p578
(dp579
g8
g3
sg9
S'.430'
p580
sg11
S'7.2'
p581
sg13
g3
sg14
S'2.7'
p582
sg16
S'16.8'
p583
sg18
g3
sg19
S'PF'
p584
sg21
S'17.1'
p585
sg25
S'NBA'
p586
sg27
g3
sg28
S'.430'
p587
sg30
g3
sg31
S'4.1'
p588
sg33
g3
sg34
S'25'
p589
sg36
S'BAL'
p590
sg38
S'78'
p591
sg40
g3
sg41
S'4.0'
p592
sg43
S'2.1'
p593
sg45
S'.658'
p594
sg47
g3
sg48
S'1963-64'
p595
sg50
S'16.8'
p596
sg52
g3
sg53
S'13.5'
p597
sg55
S'7.2'
p598
sg57
S'2847'
p599
sba(isrc.gp1.models.Per36Minutes
Per36Minutes
p600
(dp601
g8
g3
sg9
S'.418'
p602
sg11
S'7.2'
p603
sg13
g3
sg14
S'3.2'
p604
sg16
S'17.1'
p605
sg18
g3
sg19
S'SF'
p606
sg21
S'17.6'
p607
sg25
S'NBA'
p608
sg27
g3
sg28
S'.418'
p609
sg30
g3
sg31
S'3.2'
p610
sg33
g3
sg34
S'26'
p611
sg36
S'BAL'
p612
sg38
S'76'
p613
sg40
g3
sg41
S'4.8'
p614
sg43
S'3.4'
p615
sg45
S'.676'
p616
sg47
g3
sg48
S'1964-65'
p617
sg50
S'17.1'
p618
sg52
g3
sg53
S'12.3'
p619
sg55
S'7.2'
p620
sg57
S'2899'
p621
sba(isrc.gp1.models.Per36Minutes
Per36Minutes
p622
(dp623
g8
g3
sg9
S'.413'
p624
sg11
S'7.7'
p625
sg13
g3
sg14
S'3.7'
p626
sg16
S'18.5'
p627
sg18
g3
sg19
S'SF'
p628
sg21
S'19.0'
p629
sg25
S'NBA'
p630
sg27
g3
sg28
S'.413'
p631
sg30
g3
sg31
S'3.8'
p632
sg33
g3
sg34
S'27'
p633
sg36
S'BAL'
p634
sg38
S'41'
p635
sg40
g3
sg41
S'5.0'
p636
sg43
S'3.2'
p637
sg45
S'.736'
p638
sg47
g3
sg48
S'1965-66'
p639
sg50
S'18.5'
p640
sg52
g3
sg53
S'15.3'
p641
sg55
S'7.7'
p642
sg57
S'1284'
p643
sba(isrc.gp1.models.Per36Minutes
Per36Minutes
p644
(dp645
g8
g3
sg9
S'.450'
p646
sg11
S'8.5'
p647
sg13
g3
sg14
S'3.7'
p648
sg16
S'18.9'
p649
sg18
g3
sg19
S'SF'
p650
sg21
S'20.7'
p651
sg25
S'NBA'
p652
sg27
g3
sg28
S'.450'
p653
sg30
g3
sg31
S'3.9'
p654
sg33
g3
sg34
S'28'
p655
sg36
S'BAL'
p656
sg38
S'73'
p657
sg40
g3
sg41
S'5.3'
p658
sg43
S'2.7'
p659
sg45
S'.708'
p660
sg47
g3
sg48
S'1966-67'
p661
sg50
S'18.9'
p662
sg52
g3
sg53
S'11.7'
p663
sg55
S'8.5'
p664
sg57
S'2626'
p665
sba(isrc.gp1.models.Per36Minutes
Per36Minutes
p666
(dp667
g8
g3
sg9
S'.467'
p668
sg11
S'7.6'
p669
sg13
g3
sg14
S'2.9'
p670
sg16
S'16.4'
p671
sg18
g3
sg19
S'SF'
p672
sg21
S'18.1'
p673
sg25
S'NBA'
p674
sg27
g3
sg28
S'.467'
p675
sg30
g3
sg31
S'3.5'
p676
sg33
g3
sg34
S'29'
p677
sg36
S'BAL'
p678
sg38
S'60'
p679
sg40
g3
sg41
S'4.3'
p680
sg43
S'2.5'
p681
sg45
S'.667'
p682
sg47
g3
sg48
S'1967-68'
p683
sg50
S'16.4'
p684
sg52
g3
sg53
S'12.4'
p685
sg55
S'7.6'
p686
sg57
S'2271'
p687
sba(isrc.gp1.models.Per36Minutes
Per36Minutes
p688
(dp689
g8
g3
sg9
S'.459'
p690
sg11
S'7.7'
p691
sg13
g3
sg14
S'3.4'
p692
sg16
S'16.8'
p693
sg18
g3
sg19
S'PF'
p694
sg21
S'18.9'
p695
sg25
S'NBA'
p696
sg27
g3
sg28
S'.459'
p697
sg30
g3
sg31
S'3.8'
p698
sg33
g3
sg34
S'30'
p699
sg36
S'BAL'
p700
sg38
S'49'
p701
sg40
g3
sg41
S'4.8'
p702
sg43
S'2.1'
p703
sg45
S'.717'
p704
sg47
g3
sg48
S'1968-69'
p705
sg50
S'16.8'
p706
sg52
g3
sg53
S'12.2'
p707
sg55
S'7.7'
p708
sg57
S'1671'
p709
sba(isrc.gp1.models.Per36Minutes
Per36Minutes
p710
(dp711
g8
g3
sg9
S'.451'
p712
sg11
S'7.1'
p713
sg13
g3
sg14
S'2.4'
p714
sg16
S'15.8'
p715
sg18
g3
sg19
S'PF'
p716
sg21
S'16.7'
p717
sg25
S'NBA'
p718
sg27
g3
sg28
S'.451'
p719
sg30
g3
sg31
S'3.3'
p720
sg33
g3
sg34
S'31'
p721
sg36
S'BAL'
p722
sg38
S'78'
p723
sg40
g3
sg41
S'3.4'
p724
sg43
S'3.3'
p725
sg45
S'.724'
p726
sg47
g3
sg48
S'1969-70'
p727
sg50
S'15.8'
p728
sg52
g3
sg53
S'13.4'
p729
sg55
S'7.1'
p730
sg57
S'2919'
p731
sba(isrc.gp1.models.Per36Minutes
Per36Minutes
p732
(dp733
g8
g3
sg9
S'.453'
p734
sg11
S'7.0'
p735
sg13
g3
sg14
S'3.0'
p736
sg16
S'15.5'
p737
sg18
g3
sg19
S'PF'
p738
sg21
S'17.0'
p739
sg25
S'NBA'
p740
sg27
g3
sg28
S'.453'
p741
sg30
g3
sg31
S'3.2'
p742
sg33
g3
sg34
S'32'
p743
sg36
S'BAL'
p744
sg38
S'66'
p745
sg40
g3
sg41
S'4.1'
p746
sg43
S'2.7'
p747
sg45
S'.738'
p748
sg47
g3
sg48
S'1970-71'
p749
sg50
S'15.5'
p750
sg52
g3
sg53
S'16.0'
p751
sg55
S'7.0'
p752
sg57
S'2538'
p753
sba(isrc.gp1.models.Per36Minutes
Per36Minutes
p754
(dp755
g8
g3
sg9
S'.383'
p756
sg11
S'5.6'
p757
sg13
g3
sg14
S'2.3'
p758
sg16
S'14.5'
p759
sg18
g3
sg19
S'PF'
p760
sg21
S'13.4'
p761
sg25
S'NBA'
p762
sg27
g3
sg28
S'.383'
p763
sg30
g3
sg31
S'4.9'
p764
sg33
g3
sg34
S'33'
p765
sg36
S'BAL'
p766
sg38
S'39'
p767
sg40
g3
sg41
S'3.4'
p768
sg43
S'2.7'
p769
sg45
S'.683'
p770
sg47
g3
sg48
S'1971-72'
p771
sg50
S'14.5'
p772
sg52
g3
sg53
S'12.2'
p773
sg55
S'5.6'
p774
sg57
S'668'
p775
sba(isrc.gp1.models.Per36Minutes
Per36Minutes
p776
(dp777
g8
S'4.9'
p778
sg9
S'.190'
p779
sg11
S'0.1'
p780
sg13
S'2.2'
p781
sg14
S'6.1'
p782
sg16
S'0.6'
p783
sg18
g3
sg19
S'SF-PF'
p784
sg21
S'2.6'
p785
sg25
S'TOT'
p786
sg27
S'5.2'
p787
sg28
S'.419'
p788
sg30
g3
sg31
S'.718'
p789
sg33
S'2.9'
p790
sg34
S'34'
p791
sg36
S'TOT'
p792
sg38
S'71'
p793
sg40
S'14.2'
p794
sg41
S'14.1'
p795
sg43
S'2.4'
p796
sg45
S'.429'
p797
sg47
S'11.7'
p798
sg48
S'1972-73'
p799
sg50
S'14.8'
p800
sg52
g3
sg53
S'1.7'
p801
sg55
S'6.2'
p802
sg57
S'1170'
p803
sba(isrc.gp1.models.Per36Minutes
Per36Minutes
p804
(dp805
g8
g3
sg9
S'.381'
p806
sg11
S'6.0'
p807
sg13
g3
sg14
S'2.2'
p808
sg16
S'15.6'
p809
sg18
g3
sg19
S'PF'
p810
sg21
S'14.1'
p811
sg25
S'NBA'
p812
sg27
g3
sg28
S'.381'
p813
sg30
g3
sg31
S'4.7'
p814
sg33
g3
sg34
S'34'
p815
sg36
S'PHO'
p816
sg38
S'21'
p817
sg40
g3
sg41
S'3.1'
p818
sg43
S'2.7'
p819
sg45
S'.694'
p820
sg47
g3
sg48
S'1972-73'
p821
sg50
S'15.6'
p822
sg52
g3
sg53
S'11.7'
p823
sg55
S'6.0'
p824
sg57
S'417'
p825
sba(isrc.gp1.models.Per36Minutes
Per36Minutes
p826
(dp827
g8
S'7.6'
p828
sg9
S'.190'
p829
sg11
S'0.2'
p830
sg13
S'3.3'
p831
sg14
S'6.1'
p832
sg16
S'1.0'
p833
sg18
g3
sg19
S'SF'
p834
sg21
S'4.1'
p835
sg25
S'ABA'
p836
sg27
S'5.4'
p837
sg28
S'.441'
p838
sg30
g3
sg31
S'.738'
p839
sg33
S'3.0'
p840
sg34
S'34'
p841
sg36
S'INA'
p842
sg38
S'50'
p843
sg40
S'14.3'
p844
sg41
S'13.3'
p845
sg43
S'2.0'
p846
sg45
S'.460'
p847
sg47
S'11.7'
p848
sg48
S'1972-73'
p849
sg50
S'14.3'
p850
sg52
g3
sg53
S'1.5'
p851
sg55
S'6.3'
p852
sg57
S'753'
p853
sbasS'_fromYear'
p854
S'1964'
p855
sS'_url'
p856
S'http://www.basketball-reference.com/players/j/johnsgu01.html'
p857
sS'_perGame'
p858
(isrc.gp1.models.PerGame
PerGame
p859
(dp860
g8
S'3.2'
p861
sg9
S'.190'
p862
sg11
S'0.1'
p863
sS'_effectiveFieldGalPercentage'
p864
S'0.6'
p865
sg13
S'1.4'
p866
sg14
S'2.6'
p867
sg16
S'0.4'
p868
sg18
g3
sg19
S'SF'
p869
sg21
S'1.7'
p870
sg25
S'ABA'
p871
sg27
S'2.3'
p872
sg30
g3
sS'_fieldGoalsttempted'
p873
S'.441'
p874
sg31
S'.738'
p875
sg33
S'1.2'
p876
sg34
S'34'
p877
sg36
S'INA'
p878
sg38
S'50'
p879
sg40
S'6.0'
p880
sg41
S'5.6'
p881
sg43
S'0.8'
p882
sg45
S'.460'
p883
sg47
S'4.9'
p884
sg48
S'1972-73'
p885
sg50
S'6.0'
p886
sg52
g3
sg53
S'.448'
p887
sg55
S'2.6'
p888
sg57
S'15.1'
p889
sbsS'_weight'
p890
S'230'
p891
sS'_dob'
p892
S'13-12-1938'
p893
sS'_salary'
p894
(lp895
sg19
S'F-C'
p896
sb.