(isrc.gp1.models.Player
Player
p0
(dp1
S'_experience'
p2
S'NA'
p3
sS'_totals'
p4
(lp5
(isrc.gp1.models.Totals
Totals
p6
(dp7
S'_offensiveRebounds'
p8
S'140'
p9
sS'_threePointsAttempted'
p10
S'.428'
p11
sS'_fieldGoalsPercentage'
p12
S'365'
p13
sS'_assist'
p14
S'903'
p15
sS'_threePointsPercentage'
p16
S'.428'
p17
sS'_threePoints'
p18
S'853'
p19
sS'_points'
p20
g3
sS'_position'
p21
S'PG'
p22
sS'_freeThrowsPercentage'
p23
S'240'
p24
sS'_effectiveFieldGoalPercentage'
p25
S'62'
p26
sS'_league'
p27
S'NBA'
p28
sS'_steals'
p29
g3
sS'_fieldGoalsAttempted'
p30
S'.428'
p31
sS'_personalFouls'
p32
g3
sS'_freeThrowsAttempted'
p33
S'159'
p34
sS'_totalRebounds'
p35
S'143'
p36
sS'_age'
p37
S'22'
p38
sS'_team'
p39
S'GSW'
p40
sS'_games'
p41
S'77'
p42
sS'_blocks'
p43
g3
sS'_twoPoints'
p44
S'173'
p45
sS'_freeThrows'
p46
S'97'
p47
sS'_twoPointsAttempted'
p48
S'233'
p49
sS'_defensiveRebounds'
p50
S'26'
p51
sS'_season'
p52
S'1975-76'
p53
sS'_fieldGoals'
p54
S'853'
p55
sS'_turnOvers'
p56
g3
sS'_twoPointsPercentage'
p57
S'.742'
p58
sS'_minutesPlayed'
p59
S'365'
p60
sS'_gamesStarted'
p61
S'1728'
p62
sba(isrc.gp1.models.Totals
Totals
p63
(dp64
g8
S'121'
p65
sg10
S'.464'
p66
sg12
S'325'
p67
sg14
S'762'
p68
sg16
S'.464'
p69
sg18
S'701'
p70
sg20
g3
sg21
S'PG'
p71
sg23
S'292'
p72
sg25
S'72'
p73
sg27
S'NBA'
p74
sg29
g3
sg30
S'.464'
p75
sg32
g3
sg33
S'233'
p76
sg35
S'218'
p77
sg37
S'23'
p78
sg39
S'GSW'
p79
sg41
S'82'
p80
sg43
g3
sg44
S'112'
p81
sg46
S'161'
p82
sg48
S'150'
p83
sg50
S'19'
p84
sg52
S'1976-77'
p85
sg54
S'701'
p86
sg56
g3
sg57
S'.747'
p87
sg59
S'325'
p88
sg61
S'1930'
p89
sba(isrc.gp1.models.Totals
Totals
p90
(dp91
g8
S'185'
p92
sg10
S'.451'
p93
sg12
S'602'
p94
sg14
S'198'
p95
sg16
S'.451'
p96
sg18
S'1335'
p97
sg20
g3
sg21
S'PG'
p98
sg23
S'294'
p99
sg25
S'83'
p100
sg27
S'NBA'
p101
sg29
S'1431'
p102
sg30
S'.451'
p103
sg32
g3
sg33
S'256'
p104
sg35
S'189'
p105
sg37
S'24'
p106
sg39
S'SEA'
p107
sg41
S'79'
p108
sg43
g3
sg44
S'227'
p109
sg46
S'173'
p110
sg48
S'278'
p111
sg50
S'41'
p112
sg52
S'1977-78'
p113
sg54
S'1335'
p114
sg56
g3
sg57
S'.817'
p115
sg59
S'602'
p116
sg61
S'2572'
p117
sba(isrc.gp1.models.Totals
Totals
p118
(dp119
g8
S'158'
p120
sg10
S'.495'
p121
sg12
S'606'
p122
sg14
S'162'
p123
sg16
S'.495'
p124
sg18
S'1224'
p125
sg20
g3
sg21
S'PG'
p126
sg23
S'307'
p127
sg25
S'111'
p128
sg27
S'NBA'
p129
sg29
S'1457'
p130
sg30
S'.495'
p131
sg32
g3
sg33
S'245'
p132
sg35
S'190'
p133
sg37
S'25'
p134
sg39
S'SEA'
p135
sg41
S'76'
p136
sg43
g3
sg44
S'245'
p137
sg46
S'134'
p138
sg48
S'316'
p139
sg50
S'29'
p140
sg52
S'1978-79'
p141
sg54
S'1224'
p142
sg56
g3
sg57
S'.775'
p143
sg59
S'606'
p144
sg61
S'2266'
p145
sba(isrc.gp1.models.Totals
Totals
p146
(dp147
g8
S'148'
p148
sg10
S'.194'
p149
sg12
S'7'
p150
sg14
S'200'
p151
sg16
S'732'
p152
sg18
S'36'
p153
sg20
g3
sg21
S'PG'
p154
sg23
S'127'
p155
sg25
S'331'
p156
sg27
S'NBA'
p157
sg29
S'37'
p158
sg30
S'.482'
p159
sg32
S'1816'
p160
sg33
S'.788'
p161
sg35
S'397'
p162
sg37
S'26'
p163
sg39
S'SEA'
p164
sg41
S'82'
p165
sg43
S'181'
p166
sg44
S'1497'
p167
sg46
S'420'
p168
sg48
S'.489'
p169
sg50
S'275'
p170
sg52
S'1979-80'
p171
sg54
S'1533'
p172
sg56
S'160'
p173
sg57
S'.484'
p174
sg59
S'739'
p175
sg61
S'2969'
p176
sba(isrc.gp1.models.Totals
Totals
p177
(dp178
g8
g3
sg10
g3
sg12
g3
sg14
g3
sg16
g3
sg18
g3
sg20
g3
sg21
g3
sg23
g3
sg25
g3
sg27
g3
sg29
g3
sg30
g3
sg32
g3
sg33
g3
sg35
g3
sg37
S'27'
p179
sg39
S'Did Not Play\xc2\xa0(holdout)'
p180
sg41
g3
sg43
g3
sg44
g3
sg46
g3
sg48
g3
sg50
g3
sg52
S'1980-81'
p181
sg54
g3
sg56
g3
sg57
g3
sg59
g3
sg61
g3
sba(isrc.gp1.models.Totals
Totals
p182
(dp183
g8
S'92'
p184
sg10
S'40'
p185
sg12
S'.486'
p186
sg14
S'549'
p187
sg16
S'.225'
p188
sg18
S'9'
p189
sg20
S'1875'
p190
sg21
S'PG'
p191
sg23
S'.734'
p192
sg25
S'.488'
p193
sg27
S'NBA'
p194
sg29
S'172'
p195
sg30
S'1592'
p196
sg32
S'163'
p197
sg33
S'436'
p198
sg35
S'244'
p199
sg37
S'28'
p200
sg39
S'SEA'
p201
sg41
S'80'
p202
sg43
S'36'
p203
sg44
S'764'
p204
sg46
S'320'
p205
sg48
S'1552'
p206
sg50
S'152'
p207
sg52
S'1981-82'
p208
sg54
S'773'
p209
sg56
S'197'
p210
sg57
S'.492'
p211
sg59
S'2876'
p212
sg61
S'80'
p213
sba(isrc.gp1.models.Totals
Totals
p214
(dp215
g8
S'72'
p216
sg10
S'43'
p217
sg12
S'.477'
p218
sg14
S'643'
p219
sg16
S'.047'
p220
sg18
S'2'
p221
sg20
S'1600'
p222
sg21
S'PG'
p223
sg23
S'.751'
p224
sg25
S'.478'
p225
sg27
S'NBA'
p226
sg29
S'182'
p227
sg30
S'1384'
p228
sg32
S'117'
p229
sg33
S'370'
p230
sg35
S'205'
p231
sg37
S'29'
p232
sg39
S'SEA'
p233
sg41
S'80'
p234
sg43
S'26'
p235
sg44
S'658'
p236
sg46
S'278'
p237
sg48
S'1341'
p238
sg50
S'133'
p239
sg52
S'1982-83'
p240
sg54
S'660'
p241
sg56
S'230'
p242
sg57
S'.491'
p243
sg59
S'2761'
p244
sg61
S'80'
p245
sba(isrc.gp1.models.Totals
Totals
p246
(dp247
g8
S'67'
p248
sg10
S'25'
p249
sg12
S'.458'
p250
sg14
S'675'
p251
sg16
S'.160'
p252
sg18
S'4'
p253
sg20
S'1497'
p254
sg21
S'PG'
p255
sg23
S'.750'
p256
sg25
S'.459'
p257
sg27
S'NBA'
p258
sg29
S'189'
p259
sg30
S'1306'
p260
sg32
S'151'
p261
sg33
S'396'
p262
sg35
S'204'
p263
sg37
S'30'
p264
sg39
S'SEA'
p265
sg41
S'80'
p266
sg43
S'25'
p267
sg44
S'594'
p268
sg46
S'297'
p269
sg48
S'1281'
p270
sg50
S'137'
p271
sg52
S'1983-84'
p272
sg54
S'598'
p273
sg56
S'232'
p274
sg57
S'.464'
p275
sg59
S'2818'
p276
sg61
S'80'
p277
sba(isrc.gp1.models.Totals
Totals
p278
(dp279
g8
S'72'
p280
sg10
S'176'
p281
sg12
S'.430'
p282
sg14
S'608'
p283
sg16
S'.290'
p284
sg18
S'51'
p285
sg20
S'1578'
p286
sg21
S'PG'
p287
sg23
S'.725'
p288
sg25
S'.447'
p289
sg27
S'NBA'
p290
sg29
S'178'
p291
sg30
S'1483'
p292
sg32
S'159'
p293
sg33
S'346'
p294
sg35
S'195'
p295
sg37
S'31'
p296
sg39
S'WSB'
p297
sg41
S'79'
p298
sg43
S'32'
p299
sg44
S'587'
p300
sg46
S'251'
p301
sg48
S'1307'
p302
sg50
S'123'
p303
sg52
S'1984-85'
p304
sg54
S'638'
p305
sg56
S'213'
p306
sg57
S'.449'
p307
sg59
S'2960'
p308
sg61
S'78'
p309
sba(isrc.gp1.models.Totals
Totals
p310
(dp311
g8
S'52'
p312
sg10
S'116'
p313
sg12
S'.428'
p314
sg14
S'453'
p315
sg16
S'.259'
p316
sg18
S'30'
p317
sg20
S'1036'
p318
sg21
S'PG'
p319
sg23
S'.734'
p320
sg25
S'.443'
p321
sg27
S'NBA'
p322
sg29
S'96'
p323
sg30
S'1013'
p324
sg32
S'113'
p325
sg33
S'188'
p326
sg35
S'166'
p327
sg37
S'32'
p328
sg39
S'WSB'
p329
sg41
S'77'
p330
sg43
S'15'
p331
sg44
S'404'
p332
sg46
S'138'
p333
sg48
S'897'
p334
sg50
S'114'
p335
sg52
S'1985-86'
p336
sg54
S'434'
p337
sg56
S'160'
p338
sg57
S'.450'
p339
sg59
S'2284'
p340
sg61
S'67'
p341
sba(isrc.gp1.models.Totals
Totals
p342
(dp343
g8
S'8'
p344
sg10
S'18'
p345
sg12
S'.363'
p346
sg14
S'139'
p347
sg16
S'.278'
p348
sg18
S'5'
p349
sg20
S'138'
p350
sg21
S'SG'
p351
sg23
S'.675'
p352
sg25
S'.380'
p353
sg27
S'NBA'
p354
sg29
S'17'
p355
sg30
S'146'
p356
sg32
S'53'
p357
sg33
S'40'
p358
sg35
S'40'
p359
sg37
S'33'
p360
sg39
S'ATL'
p361
sg41
S'33'
p362
sg43
g349
sg44
S'48'
p363
sg46
S'27'
p364
sg48
S'128'
p365
sg50
S'32'
p366
sg52
S'1986-87'
p367
sg54
S'53'
p368
sg56
S'54'
p369
sg57
S'.375'
p370
sg59
S'481'
p371
sg61
S'0'
p372
sbasS'_college'
p373
S'University of Southern California'
p374
sS'_toYear'
p375
S'1987'
p376
sS'_height'
p377
S'6-2'
p378
sS'_active'
p379
I00
sS'_shootingHand'
p380
VRight
p381
sS'_name'
p382
S'Gus Williams'
p383
sS'_per100Possessions'
p384
(lp385
(isrc.gp1.models.Per100Possession
Per100Possession
p386
(dp387
g8
S'3.6'
p388
sg10
S'.428'
p389
sg12
S'9.4'
p390
sS'_offensiveRating'
p391
g3
sg14
S'23.2'
p392
sg16
S'4.4'
p393
sg18
S'21.9'
p394
sg20
g3
sg21
S'PG'
p395
sS'_defensiveRating'
p396
g3
sg23
S'6.2'
p397
sg27
S'NBA'
p398
sg29
S'95'
p399
sg30
S'.428'
p400
sg32
g3
sg33
S'4.1'
p401
sg35
S'3.7'
p402
sg37
S'22'
p403
sg39
S'GSW'
p404
sg41
S'77'
p405
sg43
g3
sg44
S'6.0'
p406
sg46
S'2.5'
p407
sg48
S'.742'
p408
sg50
S'0.7'
p409
sg52
S'1975-76'
p410
sg54
S'21.9'
p411
sg56
g3
sg57
S'1.6'
p412
sg59
S'9.4'
p413
sg61
S'1728'
p414
sba(isrc.gp1.models.Per100Possession
Per100Possession
p415
(dp416
g8
S'2.8'
p417
sg10
S'.464'
p418
sg12
S'7.5'
p419
sg391
g3
sg14
S'17.6'
p420
sg16
S'2.6'
p421
sg18
S'16.2'
p422
sg20
g3
sg21
S'PG'
p423
sg396
g3
sg23
S'6.7'
p424
sg27
S'NBA'
p425
sg29
S'100'
p426
sg30
S'.464'
p427
sg32
g3
sg33
S'5.4'
p428
sg35
S'5.0'
p429
sg37
S'23'
p430
sg39
S'GSW'
p431
sg41
S'82'
p432
sg43
g3
sg44
S'3.5'
p433
sg46
S'3.7'
p434
sg48
S'.747'
p435
sg50
S'0.4'
p436
sg52
S'1976-77'
p437
sg54
S'16.2'
p438
sg56
g3
sg57
S'1.7'
p439
sg59
S'7.5'
p440
sg61
S'1930'
p441
sba(isrc.gp1.models.Per100Possession
Per100Possession
p442
(dp443
g8
S'3.3'
p444
sg10
S'.451'
p445
sg12
S'10.7'
p446
sg391
g3
sg14
S'3.5'
p447
sg16
S'4.0'
p448
sg18
S'23.8'
p449
sg20
g3
sg21
S'PG'
p450
sg396
g3
sg23
S'5.2'
p451
sg27
S'NBA'
p452
sg29
S'25.5'
p453
sg30
S'.451'
p454
sg32
g3
sg33
S'4.6'
p455
sg35
S'3.4'
p456
sg37
S'24'
p457
sg39
S'SEA'
p458
sg41
S'79'
p459
sg43
S'103'
p460
sg44
S'5.0'
p461
sg46
S'3.1'
p462
sg48
S'.817'
p463
sg50
S'0.7'
p464
sg52
S'1977-78'
p465
sg54
S'23.8'
p466
sg56
S'97'
p467
sg57
S'1.5'
p468
sg59
S'10.7'
p469
sg61
S'2572'
p470
sba(isrc.gp1.models.Per100Possession
Per100Possession
p471
(dp472
g8
S'3.2'
p473
sg10
S'.495'
p474
sg12
S'12.4'
p475
sg391
g3
sg14
S'3.3'
p476
sg16
S'5.0'
p477
sg18
S'25.1'
p478
sg20
g3
sg21
S'PG'
p479
sg396
g3
sg23
S'6.3'
p480
sg27
S'NBA'
p481
sg29
S'29.9'
p482
sg30
S'.495'
p483
sg32
g3
sg33
S'5.0'
p484
sg35
S'3.9'
p485
sg37
S'25'
p486
sg39
S'SEA'
p487
sg41
S'76'
p488
sg43
S'108'
p489
sg44
S'6.5'
p490
sg46
S'2.7'
p491
sg48
S'.775'
p492
sg50
S'0.6'
p493
sg52
S'1978-79'
p494
sg54
S'25.1'
p495
sg56
S'100'
p496
sg57
S'2.3'
p497
sg59
S'12.4'
p498
sg61
S'2266'
p499
sba(isrc.gp1.models.Per100Possession
Per100Possession
p500
(dp501
g8
S'2.4'
p502
sg10
S'.194'
p503
sg12
S'0.1'
p504
sg391
S'102'
p505
sg14
S'3.2'
p506
sg16
S'11.6'
p507
sg18
S'0.6'
p508
sg20
S'113'
p509
sg21
S'PG'
p510
sg396
g3
sg23
S'2.0'
p511
sg27
S'NBA'
p512
sg29
S'0.6'
p513
sg30
S'.482'
p514
sg32
S'28.8'
p515
sg33
S'.788'
p516
sg35
S'6.3'
p517
sg37
S'26'
p518
sg39
S'SEA'
p519
sg41
S'82'
p520
sg43
S'2.9'
p521
sg44
S'23.8'
p522
sg46
S'6.7'
p523
sg48
S'.489'
p524
sg50
S'4.4'
p525
sg52
S'1979-80'
p526
sg54
S'24.3'
p527
sg56
S'2.5'
p528
sg57
S'5.3'
p529
sg59
S'11.7'
p530
sg61
S'2969'
p531
sba(isrc.gp1.models.Per100Possession
Per100Possession
p532
(dp533
g8
S'1.5'
p534
sg10
S'0.7'
p535
sg12
S'.486'
p536
sg391
S'111'
p537
sg14
S'9.2'
p538
sg16
S'.225'
p539
sg18
S'0.2'
p540
sg20
S'31.3'
p541
sg21
S'PG'
p542
sg396
S'103'
p543
sg23
S'.734'
p544
sg27
S'NBA'
p545
sg29
S'2.9'
p546
sg30
S'26.6'
p547
sg32
S'2.7'
p548
sg33
S'7.3'
p549
sg35
S'4.1'
p550
sg37
S'28'
p551
sg39
S'SEA'
p552
sg41
S'80'
p553
sg43
S'0.6'
p554
sg44
S'12.7'
p555
sg46
S'5.3'
p556
sg48
S'25.9'
p557
sg50
S'2.5'
p558
sg52
S'1981-82'
p559
sg54
S'12.9'
p560
sg56
S'3.3'
p561
sg57
S'.492'
p562
sg59
S'2876'
p563
sg61
S'80'
p564
sba(isrc.gp1.models.Per100Possession
Per100Possession
p565
(dp566
g8
S'1.2'
p567
sg10
S'0.7'
p568
sg12
S'.477'
p569
sg391
S'108'
p570
sg14
S'10.8'
p571
sg16
S'.047'
p572
sg18
S'0.0'
p573
sg20
S'27.0'
p574
sg21
S'PG'
p575
sg396
S'104'
p576
sg23
S'.751'
p577
sg27
S'NBA'
p578
sg29
S'3.1'
p579
sg30
S'23.3'
p580
sg32
S'2.0'
p581
sg33
S'6.2'
p582
sg35
S'3.5'
p583
sg37
S'29'
p584
sg39
S'SEA'
p585
sg41
S'80'
p586
sg43
S'0.4'
p587
sg44
S'11.1'
p588
sg46
S'4.7'
p589
sg48
S'22.6'
p590
sg50
S'2.2'
p591
sg52
S'1982-83'
p592
sg54
S'11.1'
p593
sg56
S'3.9'
p594
sg57
S'.491'
p595
sg59
S'2761'
p596
sg61
S'80'
p597
sba(isrc.gp1.models.Per100Possession
Per100Possession
p598
(dp599
g8
S'1.1'
p600
sg10
S'0.4'
p601
sg12
S'.458'
p602
sg391
S'106'
p603
sg14
S'11.5'
p604
sg16
S'.160'
p605
sg18
S'0.1'
p606
sg20
S'25.6'
p607
sg21
S'PG'
p608
sg396
S'108'
p609
sg23
S'.750'
p610
sg27
S'NBA'
p611
sg29
S'3.2'
p612
sg30
S'22.3'
p613
sg32
S'2.6'
p614
sg33
S'6.8'
p615
sg35
S'3.5'
p616
sg37
S'30'
p617
sg39
S'SEA'
p618
sg41
S'80'
p619
sg43
S'0.4'
p620
sg44
S'10.1'
p621
sg46
S'5.1'
p622
sg48
S'21.9'
p623
sg50
S'2.3'
p624
sg52
S'1983-84'
p625
sg54
S'10.2'
p626
sg56
S'4.0'
p627
sg57
S'.464'
p628
sg59
S'2818'
p629
sg61
S'80'
p630
sba(isrc.gp1.models.Per100Possession
Per100Possession
p631
(dp632
g8
S'1.2'
p633
sg10
S'2.8'
p634
sg12
S'.430'
p635
sg391
S'102'
p636
sg14
S'9.8'
p637
sg16
S'.290'
p638
sg18
S'0.8'
p639
sg20
S'25.5'
p640
sg21
S'PG'
p641
sg396
S'105'
p642
sg23
S'.725'
p643
sg27
S'NBA'
p644
sg29
S'2.9'
p645
sg30
S'24.0'
p646
sg32
S'2.6'
p647
sg33
S'5.6'
p648
sg35
S'3.2'
p649
sg37
S'31'
p650
sg39
S'WSB'
p651
sg41
S'79'
p652
sg43
S'0.5'
p653
sg44
S'9.5'
p654
sg46
S'4.1'
p655
sg48
S'21.1'
p656
sg50
S'2.0'
p657
sg52
S'1984-85'
p658
sg54
S'10.3'
p659
sg56
S'3.4'
p660
sg57
S'.449'
p661
sg59
S'2960'
p662
sg61
S'78'
p663
sba(isrc.gp1.models.Per100Possession
Per100Possession
p664
(dp665
g8
S'1.1'
p666
sg10
S'2.5'
p667
sg12
S'.428'
p668
sg391
S'101'
p669
sg14
S'9.6'
p670
sg16
S'.259'
p671
sg18
S'0.6'
p672
sg20
S'22.0'
p673
sg21
S'PG'
p674
sg396
S'108'
p675
sg23
S'.734'
p676
sg27
S'NBA'
p677
sg29
S'2.0'
p678
sg30
S'21.5'
p679
sg32
S'2.4'
p680
sg33
S'4.0'
p681
sg35
S'3.5'
p682
sg37
S'32'
p683
sg39
S'WSB'
p684
sg41
S'77'
p685
sg43
S'0.3'
p686
sg44
S'8.6'
p687
sg46
S'2.9'
p688
sg48
S'19.0'
p689
sg50
S'2.4'
p690
sg52
S'1985-86'
p691
sg54
S'9.2'
p692
sg56
S'3.4'
p693
sg57
S'.450'
p694
sg59
S'2284'
p695
sg61
S'67'
p696
sba(isrc.gp1.models.Per100Possession
Per100Possession
p697
(dp698
g8
S'0.8'
p699
sg10
S'1.8'
p700
sg12
S'.363'
p701
sg391
S'92'
p702
sg14
S'14.2'
p703
sg16
S'.278'
p704
sg18
S'0.5'
p705
sg20
S'14.1'
p706
sg21
S'SG'
p707
sg396
S'108'
p708
sg23
S'.675'
p709
sg27
S'NBA'
p710
sg29
S'1.7'
p711
sg30
S'15.0'
p712
sg32
S'5.4'
p713
sg33
S'4.1'
p714
sg35
S'4.1'
p715
sg37
S'33'
p716
sg39
S'ATL'
p717
sg41
S'33'
p718
sg43
S'0.5'
p719
sg44
S'4.9'
p720
sg46
S'2.8'
p721
sg48
S'13.1'
p722
sg50
S'3.3'
p723
sg52
S'1986-87'
p724
sg54
S'5.4'
p725
sg56
S'5.5'
p726
sg57
S'.375'
p727
sg59
S'481'
p728
sg61
g372
sbasS'_advanced'
p729
(lp730
(isrc.gp1.models.Advanced
Advanced
p731
(dp732
S'_offensiveReboundPercentage'
p733
S'5.3'
p734
sS'_turnOverPercentage'
p735
S'2.6'
p736
sS'_winSharesPer48Minutes'
p737
S'0.8'
p738
sS'_stealPercentage'
p739
S'0.8'
p740
sS'_usagePercentage'
p741
S'4.2'
p742
sS'_totalReboundsPercentage'
p743
S'19.3'
p744
sS'_defensiveBoxPlusMinus'
p745
g3
sg21
S'PG'
p746
sS'_valueOverReplacementPlayer'
p747
g3
sS'_trueShootingPercentage'
p748
S'.473'
p749
sS'_defensiveReboundPercentage'
p750
S'4.4'
p751
sS'_freeThrowsAttempRate'
p752
S'3.5'
p753
sS'_threePointsAttempRate'
p754
S'.273'
p755
sg27
S'NBA'
p756
sS'_offensiveBoxPlusMinues'
p757
S'1.2'
p758
sS'_assistPercentage'
p759
S'3.6'
p760
sS'_defensiveWinShares'
p761
S'0.6'
p762
sg37
S'22'
p763
sg39
S'GSW'
p764
sg41
S'77'
p765
sS'_blockPercentage'
p766
S'1.6'
p767
sS'_playerEfficiencyRating'
p768
S'17.0'
p769
sS'_offensiveWinShares'
p770
S'.117'
p771
sg59
S'1728'
p772
sS'_boxPlusMinus'
p773
g3
sg52
S'1975-76'
p774
sS'_winShares'
p775
S'0.2'
p776
sba(isrc.gp1.models.Advanced
Advanced
p777
(dp778
g733
S'8.5'
p779
sg735
S'1.9'
p780
sg737
S'0.2'
p781
sg739
S'0.5'
p782
sg741
S'3.6'
p783
sg743
S'19.6'
p784
sg745
g3
sg21
S'PG'
p785
sg747
g3
sg748
S'.497'
p786
sg750
S'6.1'
p787
sg752
S'3.7'
p788
sg754
S'.214'
p789
sg27
S'NBA'
p790
sg757
S'1.1'
p791
sg759
S'2.8'
p792
sg761
S'0.1'
p793
sg37
S'23'
p794
sg39
S'GSW'
p795
sg41
S'82'
p796
sg766
S'1.6'
p797
sg768
S'14.2'
p798
sg770
S'.088'
p799
sg59
S'1930'
p800
sg773
g3
sg52
S'1976-77'
p801
sg775
S'0.1'
p802
sba(isrc.gp1.models.Advanced
Advanced
p803
(dp804
g733
S'7.1'
p805
sg735
S'24.4'
p806
sg737
S'1.6'
p807
sg739
S'0.9'
p808
sg741
S'3.8'
p809
sg743
S'18.0'
p810
sg745
S'2.4'
p811
sg21
S'PG'
p812
sg747
g3
sg748
S'.491'
p813
sg750
S'5.1'
p814
sg752
S'3.1'
p815
sg754
S'.208'
p816
sg27
S'NBA'
p817
sg757
S'0.7'
p818
sg759
S'3.3'
p819
sg761
S'7.7'
p820
sg37
S'24'
p821
sg39
S'SEA'
p822
sg41
S'79'
p823
sg766
S'11.5'
p824
sg768
S'18.1'
p825
sg770
S'3.9'
p826
sg59
S'2572'
p827
sg773
S'2.8'
p828
sg52
S'1977-78'
p829
sg775
S'.143'
p830
sba(isrc.gp1.models.Advanced
Advanced
p831
(dp832
g733
S'6.2'
p833
sg735
S'26.9'
p834
sg737
S'3.5'
p835
sg739
S'0.7'
p836
sg741
S'4.7'
p837
sg743
S'21.9'
p838
sg745
S'4.0'
p839
sg21
S'PG'
p840
sg747
g3
sg748
S'.534'
p841
sg750
S'5.7'
p842
sg752
S'5.1'
p843
sg754
S'.258'
p844
sg27
S'NBA'
p845
sg757
S'0.5'
p846
sg759
S'3.2'
p847
sg761
S'8.3'
p848
sg37
S'25'
p849
sg39
S'SEA'
p850
sg41
S'76'
p851
sg766
S'12.2'
p852
sg768
S'21.1'
p853
sg770
S'3.5'
p854
sg59
S'2266'
p855
sg773
S'3.4'
p856
sg52
S'1978-79'
p857
sg775
S'.175'
p858
sba(isrc.gp1.models.Advanced
Advanced
p859
(dp860
g733
S'4.5'
p861
sg735
S'9.5'
p862
sg737
S'.187'
p863
sg739
S'3.2'
p864
sg741
S'25.2'
p865
sg743
S'4.9'
p866
sg745
S'0.5'
p867
sg21
S'PG'
p868
sg747
S'4.5'
p869
sg748
S'.529'
p870
sg750
S'5.3'
p871
sg752
S'.274'
p872
sg754
S'.023'
p873
sg27
S'NBA'
p874
sg757
S'3.6'
p875
sg759
S'20.7'
p876
sg761
S'4.4'
p877
sg37
S'26'
p878
sg39
S'SEA'
p879
sg41
S'82'
p880
sg766
S'0.7'
p881
sg768
S'20.6'
p882
sg770
S'7.2'
p883
sg59
S'2969'
p884
sg773
S'4.1'
p885
sg52
S'1979-80'
p886
sg775
S'11.6'
p887
sba(isrc.gp1.models.Advanced
Advanced
p888
(dp889
g733
S'3.6'
p890
sg735
S'9.9'
p891
sg737
S'.171'
p892
sg739
S'2.9'
p893
sg741
S'28.5'
p894
sg743
S'4.6'
p895
sg745
S'0.0'
p896
sg21
S'PG'
p897
sg747
S'4.5'
p898
sg748
S'.526'
p899
sg750
S'5.5'
p900
sg752
S'.274'
p901
sg754
S'.025'
p902
sg27
S'NBA'
p903
sg757
S'4.1'
p904
sg759
S'31.0'
p905
sg761
S'4.3'
p906
sg37
S'28'
p907
sg39
S'SEA'
p908
sg41
S'80'
p909
sg766
S'0.7'
p910
sg768
S'21.8'
p911
sg770
S'5.9'
p912
sg59
S'2876'
p913
sg773
S'4.2'
p914
sg52
S'1981-82'
p915
sg775
S'10.2'
p916
sba(isrc.gp1.models.Advanced
Advanced
p917
(dp918
g733
S'2.9'
p919
sg735
S'12.9'
p920
sg737
S'.148'
p921
sg739
S'3.1'
p922
sg741
S'25.8'
p923
sg743
S'4.0'
p924
sg745
S'-0.5'
p925
sg21
S'PG'
p926
sg747
S'3.3'
p927
sg748
S'.517'
p928
sg750
S'4.9'
p929
sg752
S'.267'
p930
sg754
S'.031'
p931
sg27
S'NBA'
p932
sg757
S'3.2'
p933
sg759
S'34.8'
p934
sg761
S'3.3'
p935
sg37
S'29'
p936
sg39
S'SEA'
p937
sg41
S'80'
p938
sg766
S'0.5'
p939
sg768
S'20.5'
p940
sg770
S'5.2'
p941
sg59
S'2761'
p942
sg773
S'2.7'
p943
sg52
S'1982-83'
p944
sg775
S'8.5'
p945
sba(isrc.gp1.models.Advanced
Advanced
p946
(dp947
g733
S'2.7'
p948
sg735
S'13.5'
p949
sg737
S'.101'
p950
sg739
S'3.2'
p951
sg741
S'25.2'
p952
sg743
S'4.1'
p953
sg745
S'-0.7'
p954
sg21
S'PG'
p955
sg747
S'2.4'
p956
sg748
S'.506'
p957
sg750
S'5.5'
p958
sg752
S'.303'
p959
sg754
S'.019'
p960
sg27
S'NBA'
p961
sg757
S'2.0'
p962
sg759
S'36.2'
p963
sg761
S'2.9'
p964
sg37
S'30'
p965
sg39
S'SEA'
p966
sg41
S'80'
p967
sg766
S'0.5'
p968
sg768
S'18.9'
p969
sg770
S'3.0'
p970
sg59
S'2818'
p971
sg773
S'1.3'
p972
sg52
S'1983-84'
p973
sg775
S'5.9'
p974
sba(isrc.gp1.models.Advanced
Advanced
p975
(dp976
g733
S'2.6'
p977
sg735
S'11.5'
p978
sg737
S'.083'
p979
sg739
S'2.9'
p980
sg741
S'26.0'
p981
sg743
S'3.6'
p982
sg745
S'-0.4'
p983
sg21
S'PG'
p984
sg747
S'2.3'
p985
sg748
S'.482'
p986
sg750
S'4.7'
p987
sg752
S'.233'
p988
sg754
S'.119'
p989
sg27
S'NBA'
p990
sg757
S'1.4'
p991
sg759
S'30.5'
p992
sg761
S'3.9'
p993
sg37
S'31'
p994
sg39
S'WSB'
p995
sg41
S'79'
p996
sg766
S'0.6'
p997
sg768
S'17.3'
p998
sg770
S'1.2'
p999
sg59
S'2960'
p1000
sg773
S'1.0'
p1001
sg52
S'1984-85'
p1002
sg775
S'5.1'
p1003
sba(isrc.gp1.models.Advanced
Advanced
p1004
(dp1005
g733
S'2.5'
p1006
sg735
S'12.7'
p1007
sg737
S'.060'
p1008
sg739
S'2.0'
p1009
sg741
S'23.0'
p1010
sg743
S'3.9'
p1011
sg745
S'-1.8'
p1012
sg21
S'PG'
p1013
sg747
S'0.3'
p1014
sg748
S'.473'
p1015
sg750
S'5.4'
p1016
sg752
S'.186'
p1017
sg754
S'.115'
p1018
sg27
S'NBA'
p1019
sg757
S'0.3'
p1020
sg759
S'30.8'
p1021
sg761
S'2.2'
p1022
sg37
S'32'
p1023
sg39
S'WSB'
p1024
sg41
S'77'
p1025
sg766
S'0.4'
p1026
sg768
S'15.0'
p1027
sg770
S'0.7'
p1028
sg59
S'2284'
p1029
sg773
S'-1.5'
p1030
sg52
S'1985-86'
p1031
sg775
S'2.8'
p1032
sba(isrc.gp1.models.Advanced
Advanced
p1033
(dp1034
g733
S'1.8'
p1035
sg735
S'24.8'
p1036
sg737
S'.007'
p1037
sg739
S'1.7'
p1038
sg741
S'18.6'
p1039
sg743
S'4.5'
p1040
sg745
S'-1.6'
p1041
sg21
S'SG'
p1042
sg747
S'-0.4'
p1043
sg748
S'.422'
p1044
sg750
S'7.1'
p1045
sg752
S'.274'
p1046
sg754
S'.123'
p1047
sg27
S'NBA'
p1048
sg757
S'-3.3'
p1049
sg759
S'38.0'
p1050
sg761
S'0.5'
p1051
sg37
S'33'
p1052
sg39
S'ATL'
p1053
sg41
S'33'
p1054
sg766
S'0.6'
p1055
sg768
S'9.6'
p1056
sg770
S'-0.4'
p1057
sg59
S'481'
p1058
sg773
S'-4.9'
p1059
sg52
S'1986-87'
p1060
sg775
S'0.1'
p1061
sbasS'_per36Minutes'
p1062
(lp1063
(isrc.gp1.models.Per36Minutes
Per36Minutes
p1064
(dp1065
g8
S'2.9'
p1066
sg10
S'.428'
p1067
sg12
S'7.6'
p1068
sg14
S'18.8'
p1069
sg16
S'3.6'
p1070
sg18
S'17.8'
p1071
sg20
g3
sg21
S'PG'
p1072
sg23
S'5.0'
p1073
sg27
S'NBA'
p1074
sg29
g3
sg30
S'.428'
p1075
sg32
g3
sg33
S'3.3'
p1076
sg35
S'3.0'
p1077
sg37
S'22'
p1078
sg39
S'GSW'
p1079
sg41
S'77'
p1080
sg43
g3
sg44
S'4.9'
p1081
sg46
S'2.0'
p1082
sg48
S'.742'
p1083
sg50
S'0.5'
p1084
sg52
S'1975-76'
p1085
sg54
S'17.8'
p1086
sg56
g3
sg57
S'1.3'
p1087
sg59
S'7.6'
p1088
sg61
S'1728'
p1089
sba(isrc.gp1.models.Per36Minutes
Per36Minutes
p1090
(dp1091
g8
S'2.3'
p1092
sg10
S'.464'
p1093
sg12
S'6.1'
p1094
sg14
S'14.2'
p1095
sg16
S'2.1'
p1096
sg18
S'13.1'
p1097
sg20
g3
sg21
S'PG'
p1098
sg23
S'5.4'
p1099
sg27
S'NBA'
p1100
sg29
g3
sg30
S'.464'
p1101
sg32
g3
sg33
S'4.3'
p1102
sg35
S'4.1'
p1103
sg37
S'23'
p1104
sg39
S'GSW'
p1105
sg41
S'82'
p1106
sg43
g3
sg44
S'2.8'
p1107
sg46
S'3.0'
p1108
sg48
S'.747'
p1109
sg50
S'0.4'
p1110
sg52
S'1976-77'
p1111
sg54
S'13.1'
p1112
sg56
g3
sg57
S'1.3'
p1113
sg59
S'6.1'
p1114
sg61
S'1930'
p1115
sba(isrc.gp1.models.Per36Minutes
Per36Minutes
p1116
(dp1117
g8
S'2.6'
p1118
sg10
S'.451'
p1119
sg12
S'8.4'
p1120
sg14
S'2.8'
p1121
sg16
S'3.2'
p1122
sg18
S'18.7'
p1123
sg20
g3
sg21
S'PG'
p1124
sg23
S'4.1'
p1125
sg27
S'NBA'
p1126
sg29
S'20.0'
p1127
sg30
S'.451'
p1128
sg32
g3
sg33
S'3.6'
p1129
sg35
S'2.6'
p1130
sg37
S'24'
p1131
sg39
S'SEA'
p1132
sg41
S'79'
p1133
sg43
g3
sg44
S'3.9'
p1134
sg46
S'2.4'
p1135
sg48
S'.817'
p1136
sg50
S'0.6'
p1137
sg52
S'1977-78'
p1138
sg54
S'18.7'
p1139
sg56
g3
sg57
S'1.2'
p1140
sg59
S'8.4'
p1141
sg61
S'2572'
p1142
sba(isrc.gp1.models.Per36Minutes
Per36Minutes
p1143
(dp1144
g8
S'2.5'
p1145
sg10
S'.495'
p1146
sg12
S'9.6'
p1147
sg14
S'2.6'
p1148
sg16
S'3.9'
p1149
sg18
S'19.4'
p1150
sg20
g3
sg21
S'PG'
p1151
sg23
S'4.9'
p1152
sg27
S'NBA'
p1153
sg29
S'23.1'
p1154
sg30
S'.495'
p1155
sg32
g3
sg33
S'3.9'
p1156
sg35
S'3.0'
p1157
sg37
S'25'
p1158
sg39
S'SEA'
p1159
sg41
S'76'
p1160
sg43
g3
sg44
S'5.0'
p1161
sg46
S'2.1'
p1162
sg48
S'.775'
p1163
sg50
S'0.5'
p1164
sg52
S'1978-79'
p1165
sg54
S'19.4'
p1166
sg56
g3
sg57
S'1.8'
p1167
sg59
S'9.6'
p1168
sg61
S'2266'
p1169
sba(isrc.gp1.models.Per36Minutes
Per36Minutes
p1170
(dp1171
g8
S'1.8'
p1172
sg10
S'.194'
p1173
sg12
S'0.1'
p1174
sg14
S'2.4'
p1175
sg16
S'8.9'
p1176
sg18
S'0.4'
p1177
sg20
g3
sg21
S'PG'
p1178
sg23
S'1.5'
p1179
sg27
S'NBA'
p1180
sg29
S'0.4'
p1181
sg30
S'.482'
p1182
sg32
S'22.0'
p1183
sg33
S'.788'
p1184
sg35
S'4.8'
p1185
sg37
S'26'
p1186
sg39
S'SEA'
p1187
sg41
S'82'
p1188
sg43
S'2.2'
p1189
sg44
S'18.2'
p1190
sg46
S'5.1'
p1191
sg48
S'.489'
p1192
sg50
S'3.3'
p1193
sg52
S'1979-80'
p1194
sg54
S'18.6'
p1195
sg56
S'1.9'
p1196
sg57
S'4.0'
p1197
sg59
S'9.0'
p1198
sg61
S'2969'
p1199
sba(isrc.gp1.models.Per36Minutes
Per36Minutes
p1200
(dp1201
g8
S'1.2'
p1202
sg10
S'0.5'
p1203
sg12
S'.486'
p1204
sg14
S'6.9'
p1205
sg16
S'.225'
p1206
sg18
S'0.1'
p1207
sg20
S'23.5'
p1208
sg21
S'PG'
p1209
sg23
S'.734'
p1210
sg27
S'NBA'
p1211
sg29
S'2.2'
p1212
sg30
S'19.9'
p1213
sg32
S'2.0'
p1214
sg33
S'5.5'
p1215
sg35
S'3.1'
p1216
sg37
S'28'
p1217
sg39
S'SEA'
p1218
sg41
S'80'
p1219
sg43
S'0.5'
p1220
sg44
S'9.6'
p1221
sg46
S'4.0'
p1222
sg48
S'19.4'
p1223
sg50
S'1.9'
p1224
sg52
S'1981-82'
p1225
sg54
S'9.7'
p1226
sg56
S'2.5'
p1227
sg57
S'.492'
p1228
sg59
S'2876'
p1229
sg61
S'80'
p1230
sba(isrc.gp1.models.Per36Minutes
Per36Minutes
p1231
(dp1232
g8
S'0.9'
p1233
sg10
S'0.6'
p1234
sg12
S'.477'
p1235
sg14
S'8.4'
p1236
sg16
S'.047'
p1237
sg18
S'0.0'
p1238
sg20
S'20.9'
p1239
sg21
S'PG'
p1240
sg23
S'.751'
p1241
sg27
S'NBA'
p1242
sg29
S'2.4'
p1243
sg30
S'18.0'
p1244
sg32
S'1.5'
p1245
sg33
S'4.8'
p1246
sg35
S'2.7'
p1247
sg37
S'29'
p1248
sg39
S'SEA'
p1249
sg41
S'80'
p1250
sg43
S'0.3'
p1251
sg44
S'8.6'
p1252
sg46
S'3.6'
p1253
sg48
S'17.5'
p1254
sg50
S'1.7'
p1255
sg52
S'1982-83'
p1256
sg54
S'8.6'
p1257
sg56
S'3.0'
p1258
sg57
S'.491'
p1259
sg59
S'2761'
p1260
sg61
S'80'
p1261
sba(isrc.gp1.models.Per36Minutes
Per36Minutes
p1262
(dp1263
g8
S'0.9'
p1264
sg10
S'0.3'
p1265
sg12
S'.458'
p1266
sg14
S'8.6'
p1267
sg16
S'.160'
p1268
sg18
S'0.1'
p1269
sg20
S'19.1'
p1270
sg21
S'PG'
p1271
sg23
S'.750'
p1272
sg27
S'NBA'
p1273
sg29
S'2.4'
p1274
sg30
S'16.7'
p1275
sg32
S'1.9'
p1276
sg33
S'5.1'
p1277
sg35
S'2.6'
p1278
sg37
S'30'
p1279
sg39
S'SEA'
p1280
sg41
S'80'
p1281
sg43
S'0.3'
p1282
sg44
S'7.6'
p1283
sg46
S'3.8'
p1284
sg48
S'16.4'
p1285
sg50
S'1.8'
p1286
sg52
S'1983-84'
p1287
sg54
S'7.6'
p1288
sg56
S'3.0'
p1289
sg57
S'.464'
p1290
sg59
S'2818'
p1291
sg61
S'80'
p1292
sba(isrc.gp1.models.Per36Minutes
Per36Minutes
p1293
(dp1294
g8
S'0.9'
p1295
sg10
S'2.1'
p1296
sg12
S'.430'
p1297
sg14
S'7.4'
p1298
sg16
S'.290'
p1299
sg18
S'0.6'
p1300
sg20
S'19.2'
p1301
sg21
S'PG'
p1302
sg23
S'.725'
p1303
sg27
S'NBA'
p1304
sg29
S'2.2'
p1305
sg30
S'18.0'
p1306
sg32
S'1.9'
p1307
sg33
S'4.2'
p1308
sg35
S'2.4'
p1309
sg37
S'31'
p1310
sg39
S'WSB'
p1311
sg41
S'79'
p1312
sg43
S'0.4'
p1313
sg44
S'7.1'
p1314
sg46
S'3.1'
p1315
sg48
S'15.9'
p1316
sg50
S'1.5'
p1317
sg52
S'1984-85'
p1318
sg54
S'7.8'
p1319
sg56
S'2.6'
p1320
sg57
S'.449'
p1321
sg59
S'2960'
p1322
sg61
S'78'
p1323
sba(isrc.gp1.models.Per36Minutes
Per36Minutes
p1324
(dp1325
g8
S'0.8'
p1326
sg10
S'1.8'
p1327
sg12
S'.428'
p1328
sg14
S'7.1'
p1329
sg16
S'.259'
p1330
sg18
S'0.5'
p1331
sg20
S'16.3'
p1332
sg21
S'PG'
p1333
sg23
S'.734'
p1334
sg27
S'NBA'
p1335
sg29
S'1.5'
p1336
sg30
S'16.0'
p1337
sg32
S'1.8'
p1338
sg33
S'3.0'
p1339
sg35
S'2.6'
p1340
sg37
S'32'
p1341
sg39
S'WSB'
p1342
sg41
S'77'
p1343
sg43
S'0.2'
p1344
sg44
S'6.4'
p1345
sg46
S'2.2'
p1346
sg48
S'14.1'
p1347
sg50
S'1.8'
p1348
sg52
S'1985-86'
p1349
sg54
S'6.8'
p1350
sg56
S'2.5'
p1351
sg57
S'.450'
p1352
sg59
S'2284'
p1353
sg61
S'67'
p1354
sba(isrc.gp1.models.Per36Minutes
Per36Minutes
p1355
(dp1356
g8
S'0.6'
p1357
sg10
S'1.3'
p1358
sg12
S'.363'
p1359
sg14
S'10.4'
p1360
sg16
S'.278'
p1361
sg18
S'0.4'
p1362
sg20
S'10.3'
p1363
sg21
S'SG'
p1364
sg23
S'.675'
p1365
sg27
S'NBA'
p1366
sg29
S'1.3'
p1367
sg30
S'10.9'
p1368
sg32
S'4.0'
p1369
sg33
S'3.0'
p1370
sg35
S'3.0'
p1371
sg37
S'33'
p1372
sg39
S'ATL'
p1373
sg41
S'33'
p1374
sg43
S'0.4'
p1375
sg44
S'3.6'
p1376
sg46
S'2.0'
p1377
sg48
S'9.6'
p1378
sg50
S'2.4'
p1379
sg52
S'1986-87'
p1380
sg54
S'4.0'
p1381
sg56
S'4.0'
p1382
sg57
S'.375'
p1383
sg59
S'481'
p1384
sg61
g372
sbasS'_fromYear'
p1385
S'1976'
p1386
sS'_url'
p1387
S'http://www.basketball-reference.com/players/w/willigu01.html'
p1388
sS'_perGame'
p1389
(isrc.gp1.models.PerGame
PerGame
p1390
(dp1391
g8
S'0.2'
p1392
sg10
S'0.5'
p1393
sg12
S'.363'
p1394
sS'_effectiveFieldGalPercentage'
p1395
S'.380'
p1396
sg14
S'4.2'
p1397
sg16
S'.278'
p1398
sg18
S'0.2'
p1399
sg20
S'4.2'
p1400
sg21
S'SG'
p1401
sg23
S'.675'
p1402
sg27
S'NBA'
p1403
sg29
S'0.5'
p1404
sg32
S'1.6'
p1405
sS'_fieldGoalsttempted'
p1406
S'4.4'
p1407
sg33
S'1.2'
p1408
sg35
S'1.2'
p1409
sg37
S'33'
p1410
sg39
S'ATL'
p1411
sg41
S'33'
p1412
sg43
S'0.2'
p1413
sg44
S'1.5'
p1414
sg46
S'0.8'
p1415
sg48
S'3.9'
p1416
sg50
S'1.0'
p1417
sg52
S'1986-87'
p1418
sg54
S'1.6'
p1419
sg56
S'1.6'
p1420
sg57
S'.375'
p1421
sg59
S'14.6'
p1422
sg61
g372
sbsS'_weight'
p1423
S'175'
p1424
sS'_dob'
p1425
S'10-10-1953'
p1426
sS'_salary'
p1427
(lp1428
(isrc.gp1.models.Salary
Salary
p1429
(dp1430
g39
S'Washington Bullets'
p1431
sg27
S'NBA'
p1432
sg1427
S'$790,000'
p1433
sg52
S'1985-86'
p1434
sbasg21
S'G'
p1435
sb.