(isrc.gp1.models.Player
Player
p0
(dp1
S'_experience'
p2
V3
p3
sS'_totals'
p4
(lp5
(isrc.gp1.models.Totals
Totals
p6
(dp7
S'_offensiveRebounds'
p8
S'5'
p9
sS'_threePointsAttempted'
p10
S'0'
p11
sS'_fieldGoalsPercentage'
p12
S'.800'
p13
sS'_assist'
p14
S'2'
p15
sS'_threePointsPercentage'
p16
S'4'
p17
sS'_threePoints'
p18
g11
sS'_points'
p19
S'NA'
p20
sS'_position'
p21
S'C'
p22
sS'_freeThrowsPercentage'
p23
g15
sS'_effectiveFieldGoalPercentage'
p24
S'6'
p25
sS'_league'
p26
S'NBA'
p27
sS'_steals'
p28
g9
sS'_fieldGoalsAttempted'
p29
g9
sS'_personalFouls'
p30
S'14'
p31
sS'_freeThrowsAttempted'
p32
S'.500'
p33
sS'_totalRebounds'
p34
g11
sS'_age'
p35
S'24'
p36
sS'_team'
p37
S'WAS'
p38
sS'_games'
p39
S'16'
p40
sS'_blocks'
p41
S'3'
p42
sS'_twoPoints'
p43
g9
sS'_freeThrows'
p44
S'12'
p45
sS'_twoPointsAttempted'
p46
S'.800'
p47
sS'_defensiveRebounds'
p48
S'7'
p49
sS'_season'
p50
S'2010-11'
p51
sS'_fieldGoals'
p52
g17
sS'_turnOvers'
p53
S'18'
p54
sS'_twoPointsPercentage'
p55
S'.800'
p56
sS'_minutesPlayed'
p57
S'80'
p58
sS'_gamesStarted'
p59
g11
sba(isrc.gp1.models.Totals
Totals
p60
(dp61
g8
g11
sg10
g11
sg12
S'.000'
p62
sg14
g11
sg16
g11
sg18
g11
sg19
g20
sg21
g22
sg23
g11
sg24
g11
sg26
S'NBA'
p63
sg28
g11
sg29
S'1'
p64
sg30
g20
sg32
g11
sg34
g11
sg35
S'25'
p65
sg37
S'WAS'
p66
sg39
g42
sg41
g11
sg43
g64
sg44
g11
sg46
S'.000'
p67
sg48
g11
sg50
S'2011-12'
p68
sg52
g11
sg53
g11
sg55
S'.000'
p69
sg57
g42
sg59
g11
sba(isrc.gp1.models.Totals
Totals
p70
(dp71
g8
g20
sg10
g20
sg12
g20
sg14
g20
sg16
g20
sg18
g20
sg19
g20
sg21
g20
sg23
g20
sg24
g20
sg26
g20
sg28
g20
sg29
g20
sg30
g20
sg32
g20
sg34
g20
sg35
S'26'
p72
sg37
S'Did Not Play'
p73
sg39
g20
sg41
g20
sg43
g20
sg44
g20
sg46
g20
sg48
g20
sg50
S'2012-13'
p74
sg52
g20
sg53
g20
sg55
g20
sg57
g20
sg59
g20
sba(isrc.gp1.models.Totals
Totals
p75
(dp76
g8
S'13'
p77
sg10
g11
sg12
S'.333'
p78
sg14
g11
sg16
g42
sg18
g11
sg19
g20
sg21
g22
sg23
g9
sg24
g11
sg26
S'NBA'
p79
sg28
g17
sg29
S'9'
p80
sg30
g25
sg32
S'.000'
p81
sg34
g42
sg35
S'27'
p82
sg37
S'SAC'
p83
sg39
S'14'
p84
sg41
g42
sg43
g80
sg44
g64
sg46
S'.333'
p85
sg48
S'18'
p86
sg50
S'2013-14'
p87
sg52
g42
sg53
S'15'
p88
sg55
S'.333'
p89
sg57
S'74'
p90
sg59
g11
sbasS'_college'
p91
S'Rutgers University'
p92
sS'_toYear'
p93
S'2014'
p94
sS'_height'
p95
S'7-0'
p96
sS'_active'
p97
I01
sS'_shootingHand'
p98
VRight
p99
sS'_name'
p100
S"Hamady N'Diaye"
p101
sS'_per100Possessions'
p102
(lp103
(isrc.gp1.models.Per100Possession
Per100Possession
p104
(dp105
g8
S'3.2'
p106
sg10
S'0.0'
p107
sg12
S'.800'
p108
sS'_offensiveRating'
p109
S'111'
p110
sg14
S'1.3'
p111
sg16
S'2.6'
p112
sg18
S'0.0'
p113
sg19
S'107'
p114
sg21
g22
sS'_defensiveRating'
p115
g20
sg23
S'1.3'
p116
sg26
S'NBA'
p117
sg28
S'3.2'
p118
sg29
S'3.2'
p119
sg30
S'9.0'
p120
sg32
S'.500'
p121
sg34
S'0.0'
p122
sg35
S'24'
p123
sg37
S'WAS'
p124
sg39
S'16'
p125
sg41
S'1.9'
p126
sg43
S'3.2'
p127
sg44
S'7.7'
p128
sg46
S'.800'
p129
sg48
S'4.5'
p130
sg50
S'2010-11'
p131
sg52
S'2.6'
p132
sg53
S'11.5'
p133
sg55
S'3.8'
p134
sg57
S'80'
p135
sg59
g11
sba(isrc.gp1.models.Per100Possession
Per100Possession
p136
(dp137
g8
S'0.0'
p138
sg10
S'0.0'
p139
sg12
S'.000'
p140
sg109
g20
sg14
S'0.0'
p141
sg16
S'0.0'
p142
sg18
S'0.0'
p143
sg19
S'116'
p144
sg21
g22
sg115
g20
sg23
S'0.0'
p145
sg26
S'NBA'
p146
sg28
S'0.0'
p147
sg29
S'17.3'
p148
sg30
g11
sg32
S'0.0'
p149
sg34
S'0.0'
p150
sg35
S'25'
p151
sg37
S'WAS'
p152
sg39
g42
sg41
S'0.0'
p153
sg43
S'17.3'
p154
sg44
S'0.0'
p155
sg46
S'.000'
p156
sg48
S'0.0'
p157
sg50
S'2011-12'
p158
sg52
S'0.0'
p159
sg53
S'0.0'
p160
sg55
S'0.0'
p161
sg57
g42
sg59
g11
sba(isrc.gp1.models.Per100Possession
Per100Possession
p162
(dp163
g8
S'8.9'
p164
sg10
S'0.0'
p165
sg12
S'.333'
p166
sg109
S'108'
p167
sg14
S'0.0'
p168
sg16
S'2.1'
p169
sg18
S'0.0'
p170
sg19
S'78'
p171
sg21
g22
sg115
g20
sg23
S'3.4'
p172
sg26
S'NBA'
p173
sg28
S'2.7'
p174
sg29
S'6.2'
p175
sg30
S'4.1'
p176
sg32
S'.000'
p177
sg34
S'2.1'
p178
sg35
S'27'
p179
sg37
S'SAC'
p180
sg39
S'14'
p181
sg41
S'2.1'
p182
sg43
S'6.2'
p183
sg44
S'0.7'
p184
sg46
S'.333'
p185
sg48
S'12.4'
p186
sg50
S'2013-14'
p187
sg52
S'2.1'
p188
sg53
S'10.3'
p189
sg55
S'0.0'
p190
sg57
S'74'
p191
sg59
g11
sbasS'_advanced'
p192
(lp193
(isrc.gp1.models.Advanced
Advanced
p194
(dp195
S'_offensiveReboundPercentage'
p196
S'2.8'
p197
sS'_turnOverPercentage'
p198
S'22.6'
p199
sS'_winSharesPer48Minutes'
p200
S'.046'
p201
sS'_stealPercentage'
p202
S'1.3'
p203
sS'_usagePercentage'
p204
S'7.3'
p205
sS'_totalReboundsPercentage'
p206
S'5.0'
p207
sS'_defensiveBoxPlusMinus'
p208
S'0.2'
p209
sg21
g22
sS'_valueOverReplacementPlayer'
p210
S'-0.1'
p211
sS'_trueShootingPercentage'
p212
S'.681'
p213
sS'_defensiveReboundPercentage'
p214
S'7.4'
p215
sS'_freeThrowsAttempRate'
p216
S'2.400'
p217
sS'_threePointsAttempRate'
p218
S'.000'
p219
sg26
S'NBA'
p220
sS'_offensiveBoxPlusMinues'
p221
S'-4.8'
p222
sS'_assistPercentage'
p223
S'0.0'
p224
sS'_defensiveWinShares'
p225
S'0.0'
p226
sg35
S'24'
p227
sg37
S'WAS'
p228
sg39
S'16'
p229
sS'_blockPercentage'
p230
S'4.8'
p231
sS'_playerEfficiencyRating'
p232
S'5.3'
p233
sS'_offensiveWinShares'
p234
S'0.0'
p235
sg57
S'80'
p236
sS'_boxPlusMinus'
p237
S'-4.6'
p238
sg50
S'2010-11'
p239
sS'_winShares'
p240
S'0.1'
p241
sba(isrc.gp1.models.Advanced
Advanced
p242
(dp243
g196
S'0.0'
p244
sg198
S'0.0'
p245
sg200
S'-0.369'
p246
sg202
S'0.0'
p247
sg204
S'14.9'
p248
sg206
S'0.0'
p249
sg208
S'-4.8'
p250
sg21
g22
sg210
S'0.0'
p251
sg212
S'.000'
p252
sg214
S'0.0'
p253
sg216
S'.000'
p254
sg218
S'.000'
p255
sg26
S'NBA'
p256
sg221
S'-15.6'
p257
sg223
S'0.0'
p258
sg225
S'0.0'
p259
sg35
S'25'
p260
sg37
S'WAS'
p261
sg39
g42
sg230
S'0.0'
p262
sg232
S'-13.1'
p263
sg234
S'0.0'
p264
sg57
g42
sg237
S'-20.4'
p265
sg50
S'2011-12'
p266
sg240
S'0.0'
p267
sba(isrc.gp1.models.Advanced
Advanced
p268
(dp269
g196
S'7.5'
p270
sg198
S'24.1'
p271
sg200
S'-0.008'
p272
sg202
S'0.0'
p273
sg204
S'7.4'
p274
sg206
S'13.7'
p275
sg208
S'2.1'
p276
sg21
g22
sg210
S'0.0'
p277
sg212
S'.318'
p278
sg214
S'20.1'
p279
sg216
S'.111'
p280
sg218
S'.000'
p281
sg26
S'NBA'
p282
sg221
S'-6.7'
p283
sg223
S'5.6'
p284
sg225
S'0.1'
p285
sg35
S'27'
p286
sg37
S'SAC'
p287
sg39
S'14'
p288
sg230
S'4.4'
p289
sg232
S'2.9'
p290
sg234
S'-0.1'
p291
sg57
S'74'
p292
sg237
S'-4.6'
p293
sg50
S'2013-14'
p294
sg240
S'0.0'
p295
sbasS'_per36Minutes'
p296
(lp297
(isrc.gp1.models.Per36Minutes
Per36Minutes
p298
(dp299
g8
S'2.3'
p300
sg10
S'0.0'
p301
sg12
S'.800'
p302
sg14
S'0.9'
p303
sg16
S'1.8'
p304
sg18
S'0.0'
p305
sg19
g20
sg21
g22
sg23
S'0.9'
p306
sg26
S'NBA'
p307
sg28
S'2.3'
p308
sg29
S'2.3'
p309
sg30
S'6.3'
p310
sg32
S'.500'
p311
sg34
S'0.0'
p312
sg35
S'24'
p313
sg37
S'WAS'
p314
sg39
S'16'
p315
sg41
S'1.4'
p316
sg43
S'2.3'
p317
sg44
S'5.4'
p318
sg46
S'.800'
p319
sg48
S'3.2'
p320
sg50
S'2010-11'
p321
sg52
S'1.8'
p322
sg53
S'8.1'
p323
sg55
S'2.7'
p324
sg57
S'80'
p325
sg59
g11
sba(isrc.gp1.models.Per36Minutes
Per36Minutes
p326
(dp327
g8
S'0.0'
p328
sg10
S'0.0'
p329
sg12
S'.000'
p330
sg14
S'0.0'
p331
sg16
S'0.0'
p332
sg18
S'0.0'
p333
sg19
g20
sg21
g22
sg23
S'0.0'
p334
sg26
S'NBA'
p335
sg28
S'0.0'
p336
sg29
S'12.0'
p337
sg30
g20
sg32
S'0.0'
p338
sg34
S'0.0'
p339
sg35
S'25'
p340
sg37
S'WAS'
p341
sg39
g42
sg41
S'0.0'
p342
sg43
S'12.0'
p343
sg44
S'0.0'
p344
sg46
S'.000'
p345
sg48
S'0.0'
p346
sg50
S'2011-12'
p347
sg52
S'0.0'
p348
sg53
S'0.0'
p349
sg55
S'0.0'
p350
sg57
g42
sg59
g11
sba(isrc.gp1.models.Per36Minutes
Per36Minutes
p351
(dp352
g8
S'6.3'
p353
sg10
S'0.0'
p354
sg12
S'.333'
p355
sg14
S'0.0'
p356
sg16
S'1.5'
p357
sg18
S'0.0'
p358
sg19
g20
sg21
g22
sg23
S'2.4'
p359
sg26
S'NBA'
p360
sg28
S'1.9'
p361
sg29
S'4.4'
p362
sg30
S'2.9'
p363
sg32
S'.000'
p364
sg34
S'1.5'
p365
sg35
S'27'
p366
sg37
S'SAC'
p367
sg39
S'14'
p368
sg41
S'1.5'
p369
sg43
S'4.4'
p370
sg44
S'0.5'
p371
sg46
S'.333'
p372
sg48
S'8.8'
p373
sg50
S'2013-14'
p374
sg52
S'1.5'
p375
sg53
S'7.3'
p376
sg55
S'0.0'
p377
sg57
S'74'
p378
sg59
g11
sbasS'_fromYear'
p379
S'2011'
p380
sS'_url'
p381
S'http://www.basketball-reference.com/players/n/ndiayha01.html'
p382
sS'_perGame'
p383
(isrc.gp1.models.PerGame
PerGame
p384
(dp385
g8
S'0.9'
p386
sg10
S'0.0'
p387
sg12
S'.333'
p388
sS'_effectiveFieldGalPercentage'
p389
S'0.0'
p390
sg14
S'0.0'
p391
sg16
S'0.2'
p392
sg18
S'0.0'
p393
sg19
g20
sg21
g22
sg23
S'0.4'
p394
sg26
S'NBA'
p395
sg28
S'0.3'
p396
sg30
S'0.4'
p397
sS'_fieldGoalsttempted'
p398
S'0.6'
p399
sg32
S'.000'
p400
sg34
S'0.2'
p401
sg35
S'27'
p402
sg37
S'SAC'
p403
sg39
S'14'
p404
sg41
S'0.2'
p405
sg43
S'0.6'
p406
sg44
S'0.1'
p407
sg46
S'.333'
p408
sg48
S'1.3'
p409
sg50
S'2013-14'
p410
sg52
S'0.2'
p411
sg53
S'1.1'
p412
sg55
S'.333'
p413
sg57
S'5.3'
p414
sg59
g11
sbsS'_weight'
p415
S'235'
p416
sS'_dob'
p417
S'12-1-1987'
p418
sS'_salary'
p419
(lp420
(isrc.gp1.models.Salary
Salary
p421
(dp422
g37
S'Washington Wizards'
p423
sg26
S'NBA'
p424
sg419
S'$473,604'
p425
sg50
S'2010-11'
p426
sba(isrc.gp1.models.Salary
Salary
p427
(dp428
g37
S'Washington Wizards'
p429
sg26
S'NBA'
p430
sg419
S'$270,427'
p431
sg50
S'2011-12'
p432
sbasg21
g22
sb.