(isrc.gp1.models.Player
Player
p0
(dp1
S'_experience'
p2
S'NA'
p3
sS'_totals'
p4
(lp5
(isrc.gp1.models.Totals
Totals
p6
(dp7
S'_offensiveRebounds'
p8
S'22'
p9
sS'_threePointsAttempted'
p10
g3
sS'_fieldGoalsPercentage'
p11
S'.509'
p12
sS'_assist'
p13
S'14'
p14
sS'_threePointsPercentage'
p15
g3
sS'_threePoints'
p16
g3
sS'_points'
p17
S'76'
p18
sS'_position'
p19
S'C'
p20
sS'_freeThrowsPercentage'
p21
S'.581'
p22
sS'_effectiveFieldGoalPercentage'
p23
S'.509'
p24
sS'_league'
p25
S'NBA'
p26
sS'_steals'
p27
S'1'
p28
sS'_fieldGoalsAttempted'
p29
S'57'
p30
sS'_personalFouls'
p31
S'28'
p32
sS'_freeThrowsAttempted'
p33
S'31'
p34
sS'_totalRebounds'
p35
S'59'
p36
sS'_age'
p37
S'24'
p38
sS'_team'
p39
S'SEA'
p40
sS'_games'
p41
S'15'
p42
sS'_blocks'
p43
g28
sS'_twoPoints'
p44
S'29'
p45
sS'_freeThrows'
p46
S'18'
p47
sS'_twoPointsAttempted'
p48
S'57'
p49
sS'_defensiveRebounds'
p50
S'37'
p51
sS'_season'
p52
S'1978-79'
p53
sS'_fieldGoals'
p54
S'29'
p55
sS'_turnOvers'
p56
S'9'
p57
sS'_twoPointsPercentage'
p58
S'.509'
p59
sS'_minutesPlayed'
p60
S'205'
p61
sS'_gamesStarted'
p62
g3
sbasS'_college'
p63
S'University of Washington'
p64
sS'_toYear'
p65
S'1979'
p66
sS'_height'
p67
S'6-10'
p68
sS'_active'
p69
I00
sS'_shootingHand'
p70
VRight
p71
sS'_name'
p72
S'Lars Hansen'
p73
sS'_per100Possessions'
p74
(lp75
(isrc.gp1.models.Per100Possession
Per100Possession
p76
(dp77
g8
S'5.0'
p78
sg10
g3
sg11
S'.509'
p79
sS'_offensiveRating'
p80
S'114'
p81
sg13
S'3.2'
p82
sg15
g3
sg16
g3
sg17
S'17.2'
p83
sg19
g20
sS'_defensiveRating'
p84
S'102'
p85
sg21
S'.581'
p86
sg25
S'NBA'
p87
sg27
S'0.2'
p88
sg29
S'12.9'
p89
sg31
S'6.3'
p90
sg33
S'7.0'
p91
sg35
S'13.4'
p92
sg37
S'24'
p93
sg39
S'SEA'
p94
sg41
S'15'
p95
sg43
S'0.2'
p96
sg44
S'6.6'
p97
sg46
S'4.1'
p98
sg48
S'12.9'
p99
sg50
S'8.4'
p100
sg52
S'1978-79'
p101
sg54
S'6.6'
p102
sg56
S'2.0'
p103
sg58
S'.509'
p104
sg60
S'205'
p105
sg62
g3
sbasS'_advanced'
p106
(lp107
(isrc.gp1.models.Advanced
Advanced
p108
(dp109
S'_offensiveReboundPercentage'
p110
S'11.3'
p111
sS'_turnOverPercentage'
p112
S'11.3'
p113
sS'_winSharesPer48Minutes'
p114
S'.149'
p115
sS'_stealPercentage'
p116
S'0.2'
p117
sS'_usagePercentage'
p118
S'15.2'
p119
sS'_totalReboundsPercentage'
p120
S'15.1'
p121
sS'_defensiveBoxPlusMinus'
p122
S'-0.7'
p123
sg19
g20
sS'_valueOverReplacementPlayer'
p124
S'0.0'
p125
sS'_trueShootingPercentage'
p126
S'.538'
p127
sS'_defensiveReboundPercentage'
p128
S'19.0'
p129
sS'_freeThrowsAttempRate'
p130
S'.544'
p131
sS'_threePointsAttempRate'
p132
g3
sg25
S'NBA'
p133
sS'_offensiveBoxPlusMinues'
p134
S'-0.4'
p135
sS'_assistPercentage'
p136
S'9.2'
p137
sS'_defensiveWinShares'
p138
S'0.3'
p139
sg37
S'24'
p140
sg39
S'SEA'
p141
sg41
S'15'
p142
sS'_blockPercentage'
p143
S'0.3'
p144
sS'_playerEfficiencyRating'
p145
S'13.6'
p146
sS'_offensiveWinShares'
p147
S'0.4'
p148
sg60
S'205'
p149
sS'_boxPlusMinus'
p150
S'-1.1'
p151
sg52
S'1978-79'
p152
sS'_winShares'
p153
S'0.6'
p154
sbasS'_per36Minutes'
p155
(lp156
(isrc.gp1.models.Per36Minutes
Per36Minutes
p157
(dp158
g8
S'3.9'
p159
sg10
g3
sg11
S'.509'
p160
sg13
S'2.5'
p161
sg15
g3
sg16
g3
sg17
S'13.3'
p162
sg19
g20
sg21
S'.581'
p163
sg25
S'NBA'
p164
sg27
S'0.2'
p165
sg29
S'10.0'
p166
sg31
S'4.9'
p167
sg33
S'5.4'
p168
sg35
S'10.4'
p169
sg37
S'24'
p170
sg39
S'SEA'
p171
sg41
S'15'
p172
sg43
S'0.2'
p173
sg44
S'5.1'
p174
sg46
S'3.2'
p175
sg48
S'10.0'
p176
sg50
S'6.5'
p177
sg52
S'1978-79'
p178
sg54
S'5.1'
p179
sg56
S'1.6'
p180
sg58
S'.509'
p181
sg60
S'205'
p182
sg62
g3
sbasS'_fromYear'
p183
S'1979'
p184
sS'_url'
p185
S'http://www.basketball-reference.com/players/h/hansela01.html'
p186
sS'_perGame'
p187
(isrc.gp1.models.PerGame
PerGame
p188
(dp189
g8
S'1.5'
p190
sg10
g3
sg11
S'.509'
p191
sS'_effectiveFieldGalPercentage'
p192
S'.509'
p193
sg13
S'0.9'
p194
sg15
g3
sg16
g3
sg17
S'5.1'
p195
sg19
g20
sg21
S'.581'
p196
sg25
S'NBA'
p197
sg27
S'0.1'
p198
sg31
S'1.9'
p199
sS'_fieldGoalsttempted'
p200
S'3.8'
p201
sg33
S'2.1'
p202
sg35
S'3.9'
p203
sg37
S'24'
p204
sg39
S'SEA'
p205
sg41
S'15'
p206
sg43
S'0.1'
p207
sg44
S'1.9'
p208
sg46
S'1.2'
p209
sg48
S'3.8'
p210
sg50
S'2.5'
p211
sg52
S'1978-79'
p212
sg54
S'1.9'
p213
sg56
S'0.6'
p214
sg58
S'.509'
p215
sg60
S'13.7'
p216
sg62
g3
sbsS'_weight'
p217
S'225'
p218
sS'_dob'
p219
S'14-9-1954'
p220
sS'_salary'
p221
(lp222
sg19
g20
sb.