(isrc.gp1.models.Player
Player
p0
(dp1
S'_experience'
p2
S'NA'
p3
sS'_totals'
p4
(lp5
(isrc.gp1.models.Totals
Totals
p6
(dp7
S'_offensiveRebounds'
p8
g3
sS'_threePointsAttempted'
p9
S'.373'
p10
sS'_fieldGoalsPercentage'
p11
S'131'
p12
sS'_assist'
p13
g3
sS'_threePointsPercentage'
p14
S'.373'
p15
sS'_threePoints'
p16
S'351'
p17
sS'_points'
p18
g3
sS'_position'
p19
S'PF'
p20
sS'_freeThrowsPercentage'
p21
S'372'
p22
sS'_effectiveFieldGoalPercentage'
p23
S'293'
p24
sS'_league'
p25
S'NBA'
p26
sS'_steals'
p27
g3
sS'_fieldGoalsAttempted'
p28
S'.373'
p29
sS'_personalFouls'
p30
g3
sS'_freeThrowsAttempted'
p31
S'95'
p32
sS'_totalRebounds'
p33
g3
sS'_age'
p34
S'22'
p35
sS'_team'
p36
S'CIN'
p37
sS'_games'
p38
S'61'
p39
sS'_blocks'
p40
g3
sS'_twoPoints'
p41
S'110'
p42
sS'_freeThrows'
p43
S'27'
p44
sS'_twoPointsAttempted'
p45
S'165'
p46
sS'_defensiveRebounds'
p47
g3
sS'_season'
p48
S'1964-65'
p49
sS'_fieldGoals'
p50
S'351'
p51
sS'_turnOvers'
p52
g3
sS'_twoPointsPercentage'
p53
S'.667'
p54
sS'_minutesPlayed'
p55
S'131'
p56
sS'_gamesStarted'
p57
S'736'
p58
sba(isrc.gp1.models.Totals
Totals
p59
(dp60
g8
g3
sg9
S'.489'
p61
sg11
S'398'
p62
sg13
g3
sg14
S'.489'
p63
sg16
S'814'
p64
sg18
g3
sg19
S'PF'
p65
sg21
S'1016'
p66
sg23
S'546'
p67
sg25
S'NBA'
p68
sg27
g3
sg28
S'.489'
p69
sg30
g3
sg31
S'216'
p70
sg33
g3
sg34
S'23'
p71
sg36
S'CIN'
p72
sg38
S'72'
p73
sg40
g3
sg41
S'220'
p74
sg43
S'44'
p75
sg45
S'321'
p76
sg47
g3
sg48
S'1965-66'
p77
sg50
S'814'
p78
sg52
g3
sg53
S'.685'
p79
sg55
S'398'
p80
sg57
S'1794'
p81
sba(isrc.gp1.models.Totals
Totals
p82
(dp83
g8
g3
sg9
S'.479'
p84
sg11
S'461'
p85
sg13
g3
sg14
S'.479'
p86
sg16
S'962'
p87
sg18
g3
sg19
S'SF'
p88
sg21
S'1174'
p89
sg23
S'631'
p90
sg25
S'NBA'
p91
sg27
g3
sg28
S'.479'
p92
sg30
g3
sg31
S'273'
p93
sg33
g3
sg34
S'24'
p94
sg36
S'CIN'
p95
sg38
S'79'
p96
sg40
g3
sg41
S'252'
p97
sg43
S'62'
p98
sg45
S'382'
p99
sg47
g3
sg48
S'1966-67'
p100
sg50
S'962'
p101
sg52
g3
sg53
S'.660'
p102
sg55
S'461'
p103
sg57
S'2442'
p104
sba(isrc.gp1.models.Totals
Totals
p105
(dp106
g8
g3
sg9
S'.487'
p107
sg11
S'481'
p108
sg13
g3
sg14
S'.487'
p109
sg16
S'987'
p110
sg18
g3
sg19
S'PF'
p111
sg21
S'1327'
p112
sg23
S'617'
p113
sg25
S'NBA'
p114
sg27
g3
sg28
S'.487'
p115
sg30
g3
sg31
S'199'
p116
sg33
g3
sg34
S'25'
p117
sg36
S'TOT'
p118
sg38
S'74'
p119
sg40
g3
sg41
S'365'
p120
sg43
S'95'
p121
sg45
S'522'
p122
sg47
g3
sg48
S'1967-68'
p123
sg50
S'987'
p124
sg52
g3
sg53
S'.699'
p125
sg55
S'481'
p126
sg57
S'2517'
p127
sba(isrc.gp1.models.Totals
Totals
p128
(dp129
g8
g3
sg9
S'.503'
p130
sg11
S'317'
p131
sg13
g3
sg14
S'.503'
p132
sg16
S'630'
p133
sg18
g3
sg19
S'PF'
p134
sg21
S'837'
p135
sg23
S'355'
p136
sg25
S'NBA'
p137
sg27
g3
sg28
S'.503'
p138
sg30
g3
sg31
S'127'
p139
sg33
g3
sg34
S'25'
p140
sg36
S'CIN'
p141
sg38
S'48'
p142
sg40
g3
sg41
S'203'
p143
sg43
S'58'
p144
sg45
S'296'
p145
sg47
g3
sg48
S'1967-68'
p146
sg50
S'630'
p147
sg52
g3
sg53
S'.686'
p148
sg55
S'317'
p149
sg57
S'1625'
p150
sba(isrc.gp1.models.Totals
Totals
p151
(dp152
g8
g3
sg9
S'.459'
p153
sg11
S'164'
p154
sg13
g3
sg14
S'.459'
p155
sg16
S'357'
p156
sg18
g3
sg19
S'PF'
p157
sg21
S'490'
p158
sg23
S'262'
p159
sg25
S'NBA'
p160
sg27
g3
sg28
S'.459'
p161
sg30
g3
sg31
S'72'
p162
sg33
g3
sg34
S'25'
p163
sg36
S'DET'
p164
sg38
S'26'
p165
sg40
g3
sg41
S'162'
p166
sg43
S'37'
p167
sg45
S'226'
p168
sg47
g3
sg48
S'1967-68'
p169
sg50
S'357'
p170
sg52
g3
sg53
S'.717'
p171
sg55
S'164'
p172
sg57
S'892'
p173
sba(isrc.gp1.models.Totals
Totals
p174
(dp175
g8
g3
sg9
S'.469'
p176
sg11
S'530'
p177
sg13
g3
sg14
S'.469'
p178
sg16
S'1131'
p179
sg18
g3
sg19
S'PF'
p180
sg21
S'1464'
p181
sg23
S'959'
p182
sg25
S'NBA'
p183
sg27
g3
sg28
S'.469'
p184
sg30
g3
sg31
S'255'
p185
sg33
g3
sg34
S'26'
p186
sg36
S'DET'
p187
sg38
S'81'
p188
sg40
g3
sg41
S'404'
p189
sg43
S'109'
p190
sg45
S'553'
p191
sg47
g3
sg48
S'1968-69'
p192
sg50
S'1131'
p193
sg52
g3
sg53
S'.731'
p194
sg55
S'530'
p195
sg57
S'2889'
p196
sba(isrc.gp1.models.Totals
Totals
p197
(dp198
g8
g3
sg9
S'.496'
p199
sg11
S'483'
p200
sg13
g3
sg14
S'.496'
p201
sg16
S'973'
p202
sg18
g3
sg19
S'PF'
p203
sg21
S'1292'
p204
sg23
S'775'
p205
sg25
S'NBA'
p206
sg27
g3
sg28
S'.496'
p207
sg30
g3
sg31
S'230'
p208
sg33
g3
sg34
S'27'
p209
sg36
S'TOT'
p210
sg38
S'70'
p211
sg40
g3
sg41
S'326'
p212
sg43
S'121'
p213
sg45
S'413'
p214
sg47
g3
sg48
S'1969-70'
p215
sg50
S'973'
p216
sg52
g3
sg53
S'.789'
p217
sg55
S'483'
p218
sg57
S'2427'
p219
sba(isrc.gp1.models.Totals
Totals
p220
(dp221
g8
g3
sg9
S'.553'
p222
sg11
S'57'
p223
sg13
g3
sg14
S'.553'
p224
sg16
S'103'
p225
sg18
g3
sg19
S'PF'
p226
sg21
S'159'
p227
sg23
S'88'
p228
sg25
S'NBA'
p229
sg27
g3
sg28
S'.553'
p230
sg30
g3
sg31
S'36'
p231
sg33
g3
sg34
S'27'
p232
sg36
S'DET'
p233
sg38
S'15'
p234
sg40
g3
sg41
S'45'
p235
sg43
S'11'
p236
sg45
S'63'
p237
sg47
g3
sg48
S'1969-70'
p238
sg50
S'103'
p239
sg52
g3
sg53
S'.714'
p240
sg55
S'57'
p241
sg57
S'282'
p242
sba(isrc.gp1.models.Totals
Totals
p243
(dp244
g8
g3
sg9
S'.490'
p245
sg11
S'426'
p246
sg13
g3
sg14
S'.490'
p247
sg16
S'870'
p248
sg18
g3
sg19
S'PF'
p249
sg21
S'1133'
p250
sg23
S'687'
p251
sg25
S'NBA'
p252
sg27
g3
sg28
S'.490'
p253
sg30
g3
sg31
S'194'
p254
sg33
g3
sg34
S'27'
p255
sg36
S'LAL'
p256
sg38
S'55'
p257
sg40
g3
sg41
S'281'
p258
sg43
S'110'
p259
sg45
S'350'
p260
sg47
g3
sg48
S'1969-70'
p261
sg50
S'870'
p262
sg52
g3
sg53
S'.803'
p263
sg55
S'426'
p264
sg57
S'2145'
p265
sba(isrc.gp1.models.Totals
Totals
p266
(dp267
g8
g3
sg9
S'.466'
p268
sg11
S'574'
p269
sg13
g3
sg14
S'.466'
p270
sg16
S'1233'
p271
sg18
g3
sg19
S'PF'
p272
sg21
S'1485'
p273
sg23
S'797'
p274
sg25
S'NBA'
p275
sg27
g3
sg28
S'.466'
p276
sg30
g3
sg31
S'256'
p277
sg33
g3
sg34
S'28'
p278
sg36
S'LAL'
p279
sg38
S'80'
p280
sg40
g3
sg41
S'337'
p281
sg43
S'168'
p282
sg45
S'431'
p283
sg47
g3
sg48
S'1970-71'
p284
sg50
S'1233'
p285
sg52
g3
sg53
S'.782'
p286
sg55
S'574'
p287
sg57
S'2921'
p288
sba(isrc.gp1.models.Totals
Totals
p289
(dp290
g8
g3
sg9
S'.461'
p291
sg11
S'368'
p292
sg13
g3
sg14
S'.461'
p293
sg16
S'798'
p294
sg18
g3
sg19
S'PF'
p295
sg21
S'1047'
p296
sg23
S'1045'
p297
sg25
S'NBA'
p298
sg27
g3
sg28
S'.461'
p299
sg30
g3
sg31
S'251'
p300
sg33
g3
sg34
S'29'
p301
sg36
S'LAL'
p302
sg38
S'80'
p303
sg40
g3
sg41
S'311'
p304
sg43
S'193'
p305
sg45
S'399'
p306
sg47
g3
sg48
S'1971-72'
p307
sg50
S'798'
p308
sg52
g3
sg53
S'.779'
p309
sg55
S'368'
p310
sg57
S'2748'
p311
sba(isrc.gp1.models.Totals
Totals
p312
(dp313
g8
g3
sg9
S'.482'
p314
sg11
S'158'
p315
sg13
g3
sg14
S'.482'
p316
sg16
S'328'
p317
sg18
g3
sg19
S'PF'
p318
sg21
S'456'
p319
sg23
S'370'
p320
sg25
S'NBA'
p321
sg27
g3
sg28
S'.482'
p322
sg30
g3
sg31
S'77'
p323
sg33
g3
sg34
S'30'
p324
sg36
S'LAL'
p325
sg38
S'28'
p326
sg40
g3
sg41
S'140'
p327
sg43
S'68'
p328
sg45
S'178'
p329
sg47
g3
sg48
S'1972-73'
p330
sg50
S'328'
p331
sg52
g3
sg53
S'.787'
p332
sg55
S'158'
p333
sg57
S'939'
p334
sba(isrc.gp1.models.Totals
Totals
p335
(dp336
g8
S'64'
p337
sg9
S'.507'
p338
sg11
S'385'
p339
sg13
S'1113'
p340
sg14
S'.507'
p341
sg16
S'759'
p342
sg18
g3
sg19
S'PF'
p343
sg21
S'208'
p344
sg23
S'335'
p345
sg25
S'NBA'
p346
sg27
g3
sg28
S'.507'
p347
sg30
g3
sg31
S'1040'
p348
sg33
S'264'
p349
sg34
S'31'
p350
sg36
S'LAL'
p351
sg38
S'77'
p352
sg40
g3
sg41
S'343'
p353
sg43
S'705'
p354
sg45
S'445'
p355
sg47
S'17'
p356
sg48
S'1973-74'
p357
sg50
S'759'
p358
sg52
g3
sg53
S'.771'
p359
sg55
S'385'
p360
sg57
S'2634'
p361
sba(isrc.gp1.models.Totals
Totals
p362
(dp363
g8
S'52'
p364
sg9
S'.506'
p365
sg11
S'271'
p366
sg13
S'759'
p367
sg14
S'.506'
p368
sg16
S'536'
p369
sg18
g3
sg19
S'PF'
p370
sg21
S'173'
p371
sg23
S'304'
p372
sg25
S'NBA'
p373
sg27
g3
sg28
S'.506'
p374
sg30
g3
sg31
S'946'
p375
sg33
S'218'
p376
sg34
S'32'
p377
sg36
S'LAL'
p378
sg38
S'74'
p379
sg40
g3
sg41
S'217'
p380
sg43
S'642'
p381
sg45
S'271'
p382
sg47
S'11'
p383
sg48
S'1974-75'
p384
sg50
S'536'
p385
sg52
g3
sg53
S'.801'
p386
sg55
S'271'
p387
sg57
S'2283'
p388
sbasS'_college'
p389
S'New York University'
p390
sS'_toYear'
p391
S'1975'
p392
sS'_height'
p393
S'6-7'
p394
sS'_active'
p395
I00
sS'_shootingHand'
p396
VRight
p397
sS'_name'
p398
S'Happy Hairston'
p399
sS'_per100Possessions'
p400
(lp401
(isrc.gp1.models.Per100Possession
Per100Possession
p402
(dp403
g8
S'1.0'
p404
sg9
S'.507'
p405
sg11
S'6.3'
p406
sS'_offensiveRating'
p407
g3
sg13
S'18.2'
p408
sg14
S'5.6'
p409
sg16
S'12.4'
p410
sg18
g3
sg19
S'PF'
p411
sS'_defensiveRating'
p412
g3
sg21
S'3.4'
p413
sg25
S'NBA'
p414
sg27
S'95'
p415
sg28
S'.507'
p416
sg30
g3
sg31
S'17.0'
p417
sg33
S'4.3'
p418
sg34
S'31'
p419
sg36
S'LAL'
p420
sg38
S'77'
p421
sg40
g3
sg41
S'7.3'
p422
sg43
S'11.5'
p423
sg45
S'.771'
p424
sg47
S'0.3'
p425
sg48
S'1973-74'
p426
sg50
S'12.4'
p427
sg52
g3
sg53
S'5.5'
p428
sg55
S'6.3'
p429
sg57
S'2634'
p430
sba(isrc.gp1.models.Per100Possession
Per100Possession
p431
(dp432
g8
S'1.0'
p433
sg9
S'.506'
p434
sg11
S'5.4'
p435
sg407
g3
sg13
S'15.0'
p436
sg14
S'4.3'
p437
sg16
S'10.6'
p438
sg18
g3
sg19
S'PF'
p439
sg412
g3
sg21
S'3.4'
p440
sg25
S'NBA'
p441
sg27
S'97'
p442
sg28
S'.506'
p443
sg30
g3
sg31
S'18.7'
p444
sg33
S'4.3'
p445
sg34
S'32'
p446
sg36
S'LAL'
p447
sg38
S'74'
p448
sg40
g3
sg41
S'5.4'
p449
sg43
S'12.7'
p450
sg45
S'.801'
p451
sg47
S'0.2'
p452
sg48
S'1974-75'
p453
sg50
S'10.6'
p454
sg52
g3
sg53
S'6.0'
p455
sg55
S'5.4'
p456
sg57
S'2283'
p457
sbasS'_advanced'
p458
(lp459
(isrc.gp1.models.Advanced
Advanced
p460
(dp461
S'_offensiveReboundPercentage'
p462
S'-0.1'
p463
sS'_turnOverPercentage'
p464
g3
sS'_winSharesPer48Minutes'
p465
g3
sS'_stealPercentage'
p466
g3
sS'_usagePercentage'
p467
g3
sS'_totalReboundsPercentage'
p468
S'0.4'
p469
sS'_defensiveBoxPlusMinus'
p470
g3
sg19
S'PF'
p471
sS'_valueOverReplacementPlayer'
p472
g3
sS'_trueShootingPercentage'
p473
S'.439'
p474
sS'_defensiveReboundPercentage'
p475
S'0.5'
p476
sS'_freeThrowsAttempRate'
p477
S'5.1'
p478
sS'_threePointsAttempRate'
p479
S'.470'
p480
sg25
S'NBA'
p481
sS'_offensiveBoxPlusMinues'
p482
g3
sS'_assistPercentage'
p483
S'.027'
p484
sS'_defensiveWinShares'
p485
g3
sg34
S'22'
p486
sg36
S'CIN'
p487
sg38
S'61'
p488
sS'_blockPercentage'
p489
g3
sS'_playerEfficiencyRating'
p490
S'15.0'
p491
sS'_offensiveWinShares'
p492
g3
sg55
S'736'
p493
sS'_boxPlusMinus'
p494
g3
sg48
S'1964-65'
p495
sS'_winShares'
p496
g3
sba(isrc.gp1.models.Advanced
Advanced
p497
(dp498
g462
S'4.1'
p499
sg464
g3
sg465
g3
sg466
g3
sg467
g3
sg468
S'5.3'
p500
sg470
g3
sg19
S'PF'
p501
sg472
g3
sg473
S'.532'
p502
sg475
S'1.3'
p503
sg477
S'3.4'
p504
sg479
S'.394'
p505
sg25
S'NBA'
p506
sg482
g3
sg483
S'.142'
p507
sg485
g3
sg34
S'23'
p508
sg36
S'CIN'
p509
sg38
S'72'
p510
sg489
g3
sg490
S'16.8'
p511
sg492
g3
sg55
S'1794'
p512
sg494
g3
sg48
S'1965-66'
p513
sg496
g3
sba(isrc.gp1.models.Advanced
Advanced
p514
(dp515
g462
S'3.7'
p516
sg464
g3
sg465
g3
sg466
g3
sg467
g3
sg468
S'5.1'
p517
sg470
g3
sg19
S'SF'
p518
sg472
g3
sg473
S'.519'
p519
sg475
S'1.4'
p520
sg477
S'3.4'
p521
sg479
S'.397'
p522
sg25
S'NBA'
p523
sg482
g3
sg483
S'.101'
p524
sg485
g3
sg34
S'24'
p525
sg36
S'CIN'
p526
sg38
S'79'
p527
sg489
g3
sg490
S'13.8'
p528
sg492
g3
sg55
S'2442'
p529
sg494
g3
sg48
S'1966-67'
p530
sg496
g3
sba(isrc.gp1.models.Advanced
Advanced
p531
(dp532
g462
S'5.5'
p533
sg464
g3
sg465
g3
sg466
g3
sg467
g3
sg468
S'6.5'
p534
sg470
g3
sg19
S'PF'
p535
sg472
g3
sg473
S'.545'
p536
sg475
S'1.0'
p537
sg477
S'5.1'
p538
sg479
S'.529'
p539
sg25
S'NBA'
p540
sg482
g3
sg483
S'.124'
p541
sg485
g3
sg34
S'25'
p542
sg36
S'TOT'
p543
sg38
S'74'
p544
sg489
g3
sg490
S'16.0'
p545
sg492
g3
sg55
S'2517'
p546
sg494
g3
sg48
S'1967-68'
p547
sg496
g3
sba(isrc.gp1.models.Advanced
Advanced
p548
(dp549
g462
S'3.6'
p550
sg464
g3
sg465
g3
sg466
g3
sg467
g3
sg468
S'4.0'
p551
sg470
g3
sg19
S'PF'
p552
sg472
g3
sg473
S'.550'
p553
sg475
S'0.3'
p554
sg477
S'4.9'
p555
sg479
S'.470'
p556
sg25
S'NBA'
p557
sg482
g3
sg483
S'.117'
p558
sg485
g3
sg34
S'25'
p559
sg36
S'CIN'
p560
sg38
S'48'
p561
sg489
g3
sg490
S'15.2'
p562
sg492
g3
sg55
S'1625'
p563
sg494
g3
sg48
S'1967-68'
p564
sg496
g3
sba(isrc.gp1.models.Advanced
Advanced
p565
(dp566
g462
S'1.8'
p567
sg464
g3
sg465
g3
sg466
g3
sg467
g3
sg468
S'2.5'
p568
sg470
g3
sg19
S'PF'
p569
sg472
g3
sg473
S'.537'
p570
sg475
S'0.7'
p571
sg477
S'5.4'
p572
sg479
S'.633'
p573
sg25
S'NBA'
p574
sg482
g3
sg483
S'.137'
p575
sg485
g3
sg34
S'25'
p576
sg36
S'DET'
p577
sg38
S'26'
p578
sg489
g3
sg490
S'17.3'
p579
sg492
g3
sg55
S'892'
p580
sg494
g3
sg48
S'1967-68'
p581
sg496
g3
sba(isrc.gp1.models.Advanced
Advanced
p582
(dp583
g462
S'5.8'
p584
sg464
g3
sg465
g3
sg466
g3
sg467
g3
sg468
S'7.0'
p585
sg470
g3
sg19
S'PF'
p586
sg472
g3
sg473
S'.533'
p587
sg475
S'1.2'
p588
sg477
S'5.2'
p589
sg479
S'.489'
p590
sg25
S'NBA'
p591
sg482
g3
sg483
S'.116'
p592
sg485
g3
sg34
S'26'
p593
sg36
S'DET'
p594
sg38
S'81'
p595
sg489
g3
sg490
S'17.2'
p596
sg492
g3
sg55
S'2889'
p597
sg494
g3
sg48
S'1968-69'
p598
sg496
g3
sba(isrc.gp1.models.Advanced
Advanced
p599
(dp600
g462
S'5.6'
p601
sg464
g3
sg465
g3
sg466
g3
sg467
g3
sg468
S'8.8'
p602
sg470
g3
sg19
S'PF'
p603
sg472
g3
sg473
S'.559'
p604
sg475
S'3.2'
p605
sg477
S'6.9'
p606
sg479
S'.424'
p607
sg25
S'NBA'
p608
sg482
g3
sg483
S'.174'
p609
sg485
g3
sg34
S'27'
p610
sg36
S'TOT'
p611
sg38
S'70'
p612
sg489
g3
sg490
S'18.4'
p613
sg492
g3
sg55
S'2427'
p614
sg494
g3
sg48
S'1969-70'
p615
sg496
g3
sba(isrc.gp1.models.Advanced
Advanced
p616
(dp617
g462
S'1.0'
p618
sg464
g3
sg465
g3
sg466
g3
sg467
g3
sg468
S'1.1'
p619
sg470
g3
sg19
S'PF'
p620
sg472
g3
sg473
S'.608'
p621
sg475
S'0.2'
p622
sg477
S'5.6'
p623
sg479
S'.612'
p624
sg25
S'NBA'
p625
sg482
g3
sg483
S'.191'
p626
sg485
g3
sg34
S'27'
p627
sg36
S'DET'
p628
sg38
S'15'
p629
sg489
g3
sg490
S'19.5'
p630
sg492
g3
sg55
S'282'
p631
sg494
g3
sg48
S'1969-70'
p632
sg496
g3
sba(isrc.gp1.models.Advanced
Advanced
p633
(dp634
g462
S'4.6'
p635
sg464
g3
sg465
g3
sg466
g3
sg467
g3
sg468
S'7.7'
p636
sg470
g3
sg19
S'PF'
p637
sg472
g3
sg473
S'.553'
p638
sg475
S'3.1'
p639
sg477
S'7.1'
p640
sg479
S'.402'
p641
sg25
S'NBA'
p642
sg482
g3
sg483
S'.172'
p643
sg485
g3
sg34
S'27'
p644
sg36
S'LAL'
p645
sg38
S'55'
p646
sg489
g3
sg490
S'18.3'
p647
sg492
g3
sg55
S'2145'
p648
sg494
g3
sg48
S'1969-70'
p649
sg496
g3
sba(isrc.gp1.models.Advanced
Advanced
p650
(dp651
g462
S'7.7'
p652
sg464
g3
sg465
g3
sg466
S'.119'
p653
sg467
g3
sg468
S'2.6'
p654
sg470
g3
sg19
S'PF'
p655
sg472
g3
sg473
S'.522'
p656
sg475
S'4.7'
p657
sg477
S'12.2'
p658
sg479
S'.350'
p659
sg25
S'NBA'
p660
sg482
g3
sg483
S'7.2'
p661
sg485
g3
sg34
S'28'
p662
sg36
S'LAL'
p663
sg38
S'80'
p664
sg489
g3
sg490
S'16.2'
p665
sg492
g3
sg55
S'2921'
p666
sg494
g3
sg48
S'1970-71'
p667
sg496
g3
sba(isrc.gp1.models.Advanced
Advanced
p668
(dp669
g462
S'8.2'
p670
sg464
g3
sg465
g3
sg466
S'.161'
p671
sg467
g3
sg468
S'5.3'
p672
sg470
g3
sg19
S'PF'
p673
sg472
g3
sg473
S'.538'
p674
sg475
S'3.9'
p675
sg477
S'16.8'
p676
sg479
S'.500'
p677
sg25
S'NBA'
p678
sg482
g3
sg483
S'9.2'
p679
sg485
g3
sg34
S'29'
p680
sg36
S'LAL'
p681
sg38
S'80'
p682
sg489
g3
sg490
S'15.7'
p683
sg492
g3
sg55
S'2748'
p684
sg494
g3
sg48
S'1971-72'
p685
sg496
g3
sba(isrc.gp1.models.Advanced
Advanced
p686
(dp687
g462
S'9.3'
p688
sg464
g3
sg465
g3
sg466
S'.214'
p689
sg467
g3
sg468
S'1.8'
p690
sg470
g3
sg19
S'PF'
p691
sg472
g3
sg473
S'.561'
p692
sg475
S'2.4'
p693
sg477
S'18.0'
p694
sg479
S'.543'
p695
sg25
S'NBA'
p696
sg482
g3
sg483
S'4.2'
p697
sg485
g3
sg34
S'30'
p698
sg36
S'LAL'
p699
sg38
S'28'
p700
sg489
g3
sg490
S'20.0'
p701
sg492
g3
sg55
S'939'
p702
sg494
g3
sg48
S'1972-73'
p703
sg496
g3
sba(isrc.gp1.models.Advanced
Advanced
p704
(dp705
g462
S'23.5'
p706
sg464
S'3.7'
p707
sg465
S'2.0'
p708
sg466
S'0.3'
p709
sg467
S'9.3'
p710
sg468
S'10.5'
p711
sg470
g3
sg19
S'PF'
p712
sg472
g3
sg473
S'.583'
p713
sg475
S'18.0'
p714
sg477
S'12.1'
p715
sg479
S'.586'
p716
sg25
S'NBA'
p717
sg482
S'2.7'
p718
sg483
S'1.0'
p719
sg485
S'1.6'
p720
sg34
S'31'
p721
sg36
S'LAL'
p722
sg38
S'77'
p723
sg489
S'5.6'
p724
sg490
S'17.2'
p725
sg492
S'.170'
p726
sg55
S'2634'
p727
sg494
g3
sg48
S'1973-74'
p728
sg496
S'0.4'
p729
sba(isrc.gp1.models.Advanced
Advanced
p730
(dp731
g462
S'26.7'
p732
sg464
S'2.6'
p733
sg465
S'1.2'
p734
sg466
S'0.2'
p735
sg467
S'7.0'
p736
sg468
S'10.2'
p737
sg470
g3
sg19
S'PF'
p738
sg472
g3
sg473
S'.579'
p739
sg475
S'19.8'
p740
sg477
S'12.8'
p741
sg479
S'.506'
p742
sg25
S'NBA'
p743
sg482
S'1.8'
p744
sg483
S'1.0'
p745
sg485
S'0.6'
p746
sg34
S'32'
p747
sg36
S'LAL'
p748
sg38
S'74'
p749
sg489
S'4.4'
p750
sg490
S'16.2'
p751
sg492
S'.146'
p752
sg55
S'2283'
p753
sg494
g3
sg48
S'1974-75'
p754
sg496
S'0.6'
p755
sbasS'_per36Minutes'
p756
(lp757
(isrc.gp1.models.Per36Minutes
Per36Minutes
p758
(dp759
g8
g3
sg9
S'.373'
p760
sg11
S'6.4'
p761
sg13
g3
sg14
S'5.4'
p762
sg16
S'17.2'
p763
sg18
g3
sg19
S'PF'
p764
sg21
S'18.2'
p765
sg25
S'NBA'
p766
sg27
g3
sg28
S'.373'
p767
sg30
g3
sg31
S'4.6'
p768
sg33
g3
sg34
S'22'
p769
sg36
S'CIN'
p770
sg38
S'61'
p771
sg40
g3
sg41
S'8.1'
p772
sg43
S'1.3'
p773
sg45
S'.667'
p774
sg47
g3
sg48
S'1964-65'
p775
sg50
S'17.2'
p776
sg52
g3
sg53
S'14.3'
p777
sg55
S'6.4'
p778
sg57
S'736'
p779
sba(isrc.gp1.models.Per36Minutes
Per36Minutes
p780
(dp781
g8
g3
sg9
S'.489'
p782
sg11
S'8.0'
p783
sg13
g3
sg14
S'4.4'
p784
sg16
S'16.3'
p785
sg18
g3
sg19
S'PF'
p786
sg21
S'20.4'
p787
sg25
S'NBA'
p788
sg27
g3
sg28
S'.489'
p789
sg30
g3
sg31
S'4.3'
p790
sg33
g3
sg34
S'23'
p791
sg36
S'CIN'
p792
sg38
S'72'
p793
sg40
g3
sg41
S'6.4'
p794
sg43
S'0.9'
p795
sg45
S'.685'
p796
sg47
g3
sg48
S'1965-66'
p797
sg50
S'16.3'
p798
sg52
g3
sg53
S'11.0'
p799
sg55
S'8.0'
p800
sg57
S'1794'
p801
sba(isrc.gp1.models.Per36Minutes
Per36Minutes
p802
(dp803
g8
g3
sg9
S'.479'
p804
sg11
S'6.8'
p805
sg13
g3
sg14
S'3.7'
p806
sg16
S'14.2'
p807
sg18
g3
sg19
S'SF'
p808
sg21
S'17.3'
p809
sg25
S'NBA'
p810
sg27
g3
sg28
S'.479'
p811
sg30
g3
sg31
S'4.0'
p812
sg33
g3
sg34
S'24'
p813
sg36
S'CIN'
p814
sg38
S'79'
p815
sg40
g3
sg41
S'5.6'
p816
sg43
S'0.9'
p817
sg45
S'.660'
p818
sg47
g3
sg48
S'1966-67'
p819
sg50
S'14.2'
p820
sg52
g3
sg53
S'9.3'
p821
sg55
S'6.8'
p822
sg57
S'2442'
p823
sba(isrc.gp1.models.Per36Minutes
Per36Minutes
p824
(dp825
g8
g3
sg9
S'.487'
p826
sg11
S'6.9'
p827
sg13
g3
sg14
S'5.2'
p828
sg16
S'14.1'
p829
sg18
g3
sg19
S'PF'
p830
sg21
S'19.0'
p831
sg25
S'NBA'
p832
sg27
g3
sg28
S'.487'
p833
sg30
g3
sg31
S'2.8'
p834
sg33
g3
sg34
S'25'
p835
sg36
S'TOT'
p836
sg38
S'74'
p837
sg40
g3
sg41
S'7.5'
p838
sg43
S'1.4'
p839
sg45
S'.699'
p840
sg47
g3
sg48
S'1967-68'
p841
sg50
S'14.1'
p842
sg52
g3
sg53
S'8.8'
p843
sg55
S'6.9'
p844
sg57
S'2517'
p845
sba(isrc.gp1.models.Per36Minutes
Per36Minutes
p846
(dp847
g8
g3
sg9
S'.503'
p848
sg11
S'7.0'
p849
sg13
g3
sg14
S'4.5'
p850
sg16
S'14.0'
p851
sg18
g3
sg19
S'PF'
p852
sg21
S'18.5'
p853
sg25
S'NBA'
p854
sg27
g3
sg28
S'.503'
p855
sg30
g3
sg31
S'2.8'
p856
sg33
g3
sg34
S'25'
p857
sg36
S'CIN'
p858
sg38
S'48'
p859
sg40
g3
sg41
S'6.6'
p860
sg43
S'1.3'
p861
sg45
S'.686'
p862
sg47
g3
sg48
S'1967-68'
p863
sg50
S'14.0'
p864
sg52
g3
sg53
S'7.9'
p865
sg55
S'7.0'
p866
sg57
S'1625'
p867
sba(isrc.gp1.models.Per36Minutes
Per36Minutes
p868
(dp869
g8
g3
sg9
S'.459'
p870
sg11
S'6.6'
p871
sg13
g3
sg14
S'6.5'
p872
sg16
S'14.4'
p873
sg18
g3
sg19
S'PF'
p874
sg21
S'19.8'
p875
sg25
S'NBA'
p876
sg27
g3
sg28
S'.459'
p877
sg30
g3
sg31
S'2.9'
p878
sg33
g3
sg34
S'25'
p879
sg36
S'DET'
p880
sg38
S'26'
p881
sg40
g3
sg41
S'9.1'
p882
sg43
S'1.5'
p883
sg45
S'.717'
p884
sg47
g3
sg48
S'1967-68'
p885
sg50
S'14.4'
p886
sg52
g3
sg53
S'10.6'
p887
sg55
S'6.6'
p888
sg57
S'892'
p889
sba(isrc.gp1.models.Per36Minutes
Per36Minutes
p890
(dp891
g8
g3
sg9
S'.469'
p892
sg11
S'6.6'
p893
sg13
g3
sg14
S'5.0'
p894
sg16
S'14.1'
p895
sg18
g3
sg19
S'PF'
p896
sg21
S'18.2'
p897
sg25
S'NBA'
p898
sg27
g3
sg28
S'.469'
p899
sg30
g3
sg31
S'3.2'
p900
sg33
g3
sg34
S'26'
p901
sg36
S'DET'
p902
sg38
S'81'
p903
sg40
g3
sg41
S'6.9'
p904
sg43
S'1.4'
p905
sg45
S'.731'
p906
sg47
g3
sg48
S'1968-69'
p907
sg50
S'14.1'
p908
sg52
g3
sg53
S'12.0'
p909
sg55
S'6.6'
p910
sg57
S'2889'
p911
sba(isrc.gp1.models.Per36Minutes
Per36Minutes
p912
(dp913
g8
g3
sg9
S'.496'
p914
sg11
S'7.2'
p915
sg13
g3
sg14
S'4.8'
p916
sg16
S'14.4'
p917
sg18
g3
sg19
S'PF'
p918
sg21
S'19.2'
p919
sg25
S'NBA'
p920
sg27
g3
sg28
S'.496'
p921
sg30
g3
sg31
S'3.4'
p922
sg33
g3
sg34
S'27'
p923
sg36
S'TOT'
p924
sg38
S'70'
p925
sg40
g3
sg41
S'6.1'
p926
sg43
S'1.8'
p927
sg45
S'.789'
p928
sg47
g3
sg48
S'1969-70'
p929
sg50
S'14.4'
p930
sg52
g3
sg53
S'11.5'
p931
sg55
S'7.2'
p932
sg57
S'2427'
p933
sba(isrc.gp1.models.Per36Minutes
Per36Minutes
p934
(dp935
g8
g3
sg9
S'.553'
p936
sg11
S'7.3'
p937
sg13
g3
sg14
S'5.7'
p938
sg16
S'13.1'
p939
sg18
g3
sg19
S'PF'
p940
sg21
S'20.3'
p941
sg25
S'NBA'
p942
sg27
g3
sg28
S'.553'
p943
sg30
g3
sg31
S'4.6'
p944
sg33
g3
sg34
S'27'
p945
sg36
S'DET'
p946
sg38
S'15'
p947
sg40
g3
sg41
S'8.0'
p948
sg43
S'1.4'
p949
sg45
S'.714'
p950
sg47
g3
sg48
S'1969-70'
p951
sg50
S'13.1'
p952
sg52
g3
sg53
S'11.2'
p953
sg55
S'7.3'
p954
sg57
S'282'
p955
sba(isrc.gp1.models.Per36Minutes
Per36Minutes
p956
(dp957
g8
g3
sg9
S'.490'
p958
sg11
S'7.1'
p959
sg13
g3
sg14
S'4.7'
p960
sg16
S'14.6'
p961
sg18
g3
sg19
S'PF'
p962
sg21
S'19.0'
p963
sg25
S'NBA'
p964
sg27
g3
sg28
S'.490'
p965
sg30
g3
sg31
S'3.3'
p966
sg33
g3
sg34
S'27'
p967
sg36
S'LAL'
p968
sg38
S'55'
p969
sg40
g3
sg41
S'5.9'
p970
sg43
S'1.8'
p971
sg45
S'.803'
p972
sg47
g3
sg48
S'1969-70'
p973
sg50
S'14.6'
p974
sg52
g3
sg53
S'11.5'
p975
sg55
S'7.1'
p976
sg57
S'2145'
p977
sba(isrc.gp1.models.Per36Minutes
Per36Minutes
p978
(dp979
g8
g3
sg9
S'.466'
p980
sg11
S'7.1'
p981
sg13
g3
sg14
S'4.2'
p982
sg16
S'15.2'
p983
sg18
g3
sg19
S'PF'
p984
sg21
S'18.3'
p985
sg25
S'NBA'
p986
sg27
g3
sg28
S'.466'
p987
sg30
g3
sg31
S'3.2'
p988
sg33
g3
sg34
S'28'
p989
sg36
S'LAL'
p990
sg38
S'80'
p991
sg40
g3
sg41
S'5.3'
p992
sg43
S'2.1'
p993
sg45
S'.782'
p994
sg47
g3
sg48
S'1970-71'
p995
sg50
S'15.2'
p996
sg52
g3
sg53
S'9.8'
p997
sg55
S'7.1'
p998
sg57
S'2921'
p999
sba(isrc.gp1.models.Per36Minutes
Per36Minutes
p1000
(dp1001
g8
g3
sg9
S'.461'
p1002
sg11
S'4.8'
p1003
sg13
g3
sg14
S'4.1'
p1004
sg16
S'10.5'
p1005
sg18
g3
sg19
S'PF'
p1006
sg21
S'13.7'
p1007
sg25
S'NBA'
p1008
sg27
g3
sg28
S'.461'
p1009
sg30
g3
sg31
S'3.3'
p1010
sg33
g3
sg34
S'29'
p1011
sg36
S'LAL'
p1012
sg38
S'80'
p1013
sg40
g3
sg41
S'5.2'
p1014
sg43
S'2.5'
p1015
sg45
S'.779'
p1016
sg47
g3
sg48
S'1971-72'
p1017
sg50
S'10.5'
p1018
sg52
g3
sg53
S'13.7'
p1019
sg55
S'4.8'
p1020
sg57
S'2748'
p1021
sba(isrc.gp1.models.Per36Minutes
Per36Minutes
p1022
(dp1023
g8
g3
sg9
S'.482'
p1024
sg11
S'6.1'
p1025
sg13
g3
sg14
S'5.4'
p1026
sg16
S'12.6'
p1027
sg18
g3
sg19
S'PF'
p1028
sg21
S'17.5'
p1029
sg25
S'NBA'
p1030
sg27
g3
sg28
S'.482'
p1031
sg30
g3
sg31
S'3.0'
p1032
sg33
g3
sg34
S'30'
p1033
sg36
S'LAL'
p1034
sg38
S'28'
p1035
sg40
g3
sg41
S'6.8'
p1036
sg43
S'2.6'
p1037
sg45
S'.787'
p1038
sg47
g3
sg48
S'1972-73'
p1039
sg50
S'12.6'
p1040
sg52
g3
sg53
S'14.2'
p1041
sg55
S'6.1'
p1042
sg57
S'939'
p1043
sba(isrc.gp1.models.Per36Minutes
Per36Minutes
p1044
(dp1045
g8
S'0.9'
p1046
sg9
S'.507'
p1047
sg11
S'5.3'
p1048
sg13
S'15.2'
p1049
sg14
S'4.7'
p1050
sg16
S'10.4'
p1051
sg18
g3
sg19
S'PF'
p1052
sg21
S'2.8'
p1053
sg25
S'NBA'
p1054
sg27
g3
sg28
S'.507'
p1055
sg30
g3
sg31
S'14.2'
p1056
sg33
S'3.6'
p1057
sg34
S'31'
p1058
sg36
S'LAL'
p1059
sg38
S'77'
p1060
sg40
g3
sg41
S'6.1'
p1061
sg43
S'9.6'
p1062
sg45
S'.771'
p1063
sg47
S'0.2'
p1064
sg48
S'1973-74'
p1065
sg50
S'10.4'
p1066
sg52
g3
sg53
S'4.6'
p1067
sg55
S'5.3'
p1068
sg57
S'2634'
p1069
sba(isrc.gp1.models.Per36Minutes
Per36Minutes
p1070
(dp1071
g8
S'0.8'
p1072
sg9
S'.506'
p1073
sg11
S'4.3'
p1074
sg13
S'12.0'
p1075
sg14
S'3.4'
p1076
sg16
S'8.5'
p1077
sg18
g3
sg19
S'PF'
p1078
sg21
S'2.7'
p1079
sg25
S'NBA'
p1080
sg27
g3
sg28
S'.506'
p1081
sg30
g3
sg31
S'14.9'
p1082
sg33
S'3.4'
p1083
sg34
S'32'
p1084
sg36
S'LAL'
p1085
sg38
S'74'
p1086
sg40
g3
sg41
S'4.3'
p1087
sg43
S'10.1'
p1088
sg45
S'.801'
p1089
sg47
S'0.2'
p1090
sg48
S'1974-75'
p1091
sg50
S'8.5'
p1092
sg52
g3
sg53
S'4.8'
p1093
sg55
S'4.3'
p1094
sg57
S'2283'
p1095
sbasS'_fromYear'
p1096
S'1965'
p1097
sS'_url'
p1098
S'http://www.basketball-reference.com/players/h/hairsha01.html'
p1099
sS'_perGame'
p1100
(isrc.gp1.models.PerGame
PerGame
p1101
(dp1102
g8
S'0.7'
p1103
sg9
S'.506'
p1104
sg11
S'3.7'
p1105
sS'_effectiveFieldGalPercentage'
p1106
S'4.1'
p1107
sg13
S'10.3'
p1108
sg14
S'.506'
p1109
sg16
S'7.2'
p1110
sg18
g3
sg19
S'PF'
p1111
sg21
S'2.3'
p1112
sg25
S'NBA'
p1113
sg27
g3
sg30
g3
sS'_fieldGoalsttempted'
p1114
S'.506'
p1115
sg31
S'12.8'
p1116
sg33
S'2.9'
p1117
sg34
S'32'
p1118
sg36
S'LAL'
p1119
sg38
S'74'
p1120
sg40
g3
sg41
S'2.9'
p1121
sg43
S'8.7'
p1122
sg45
S'3.7'
p1123
sg47
S'0.1'
p1124
sg48
S'1974-75'
p1125
sg50
S'7.2'
p1126
sg52
g3
sg53
S'.801'
p1127
sg55
S'3.7'
p1128
sg57
S'30.9'
p1129
sbsS'_weight'
p1130
S'225'
p1131
sS'_dob'
p1132
S'31-5-1942'
p1133
sS'_salary'
p1134
(lp1135
sg19
S'F'
p1136
sb.