(isrc.gp1.models.Player
Player
p0
(dp1
S'_experience'
p2
S'NA'
p3
sS'_totals'
p4
(lp5
(isrc.gp1.models.Totals
Totals
p6
(dp7
S'_offensiveRebounds'
p8
S'88'
p9
sS'_threePointsAttempted'
p10
S'25'
p11
sS'_fieldGoalsPercentage'
p12
S'.463'
p13
sS'_assist'
p14
S'45'
p15
sS'_threePointsPercentage'
p16
S'.400'
p17
sS'_threePoints'
p18
S'10'
p19
sS'_points'
p20
S'408'
p21
sS'_position'
p22
S'SF'
p23
sS'_freeThrowsPercentage'
p24
S'.713'
p25
sS'_effectiveFieldGoalPercentage'
p26
S'.478'
p27
sS'_league'
p28
S'NBA'
p29
sS'_steals'
p30
S'30'
p31
sS'_fieldGoalsAttempted'
p32
S'320'
p33
sS'_personalFouls'
p34
S'112'
p35
sS'_freeThrowsAttempted'
p36
S'143'
p37
sS'_totalRebounds'
p38
S'214'
p39
sS'_age'
p40
S'22'
p41
sS'_team'
p42
S'ORL'
p43
sS'_games'
p44
S'50'
p45
sS'_blocks'
p46
S'6'
p47
sS'_twoPoints'
p48
S'138'
p49
sS'_freeThrows'
p50
S'102'
p51
sS'_twoPointsAttempted'
p52
S'295'
p53
sS'_defensiveRebounds'
p54
S'126'
p55
sS'_season'
p56
S'1998-99'
p57
sS'_fieldGoals'
p58
S'148'
p59
sS'_turnOvers'
p60
S'73'
p61
sS'_twoPointsPercentage'
p62
S'.468'
p63
sS'_minutesPlayed'
p64
S'1114'
p65
sS'_gamesStarted'
p66
S'22'
p67
sba(isrc.gp1.models.Totals
Totals
p68
(dp69
g8
S'5'
p70
sg10
S'2'
p71
sg12
S'.235'
p72
sg14
S'8'
p73
sg16
S'1.000'
p74
sg18
g71
sg20
S'16'
p75
sg22
S'SF'
p76
sg24
S'.857'
p77
sg26
S'.294'
p78
sg28
S'NBA'
p79
sg30
g70
sg32
S'17'
p80
sg34
S'7'
p81
sg36
g81
sg38
S'12'
p82
sg40
S'23'
p83
sg42
S'ORL'
p84
sg44
S'4'
p85
sg46
S'1'
p86
sg48
g71
sg50
g47
sg52
S'15'
p87
sg54
g81
sg56
S'1999-00'
p88
sg58
g85
sg60
g86
sg62
S'.133'
p89
sg64
S'63'
p90
sg66
S'0'
p91
sba(isrc.gp1.models.Totals
Totals
p92
(dp93
g8
S'90'
p94
sg10
S'52'
p95
sg12
S'.454'
p96
sg14
S'102'
p97
sg16
S'.250'
p98
sg18
S'13'
p99
sg20
S'623'
p100
sg22
S'SG'
p101
sg24
S'.812'
p102
sg26
S'.467'
p103
sg28
S'NBA'
p104
sg30
S'42'
p105
sg32
S'524'
p106
sg34
S'161'
p107
sg36
S'165'
p108
sg38
S'242'
p109
sg40
S'24'
p110
sg42
S'CLE'
p111
sg44
S'56'
p112
sg46
S'17'
p113
sg48
S'225'
p114
sg50
S'134'
p115
sg52
S'472'
p116
sg54
S'152'
p117
sg56
S'2000-01'
p118
sg58
S'238'
p119
sg60
S'90'
p120
sg62
S'.477'
p121
sg64
S'1615'
p122
sg66
S'55'
p123
sba(isrc.gp1.models.Totals
Totals
p124
(dp125
g8
S'203'
p126
sg10
S'69'
p127
sg12
S'.461'
p128
sg14
S'107'
p129
sg16
S'.304'
p130
sg18
S'21'
p131
sg20
S'958'
p132
sg22
S'SF'
p133
sg24
S'.743'
p134
sg26
S'.473'
p135
sg28
S'NBA'
p136
sg30
S'70'
p137
sg32
S'838'
p138
sg34
S'201'
p139
sg36
S'222'
p140
sg38
S'573'
p141
sg40
S'25'
p142
sg42
S'PHI'
p143
sg44
S'81'
p144
sg46
g70
sg48
S'365'
p145
sg50
S'165'
p146
sg52
S'769'
p147
sg54
S'370'
p148
sg56
S'2001-02'
p149
sg58
S'386'
p150
sg60
S'127'
p151
sg62
S'.475'
p152
sg64
S'2541'
p153
sg66
S'81'
p154
sba(isrc.gp1.models.Totals
Totals
p155
(dp156
g8
S'190'
p157
sg10
S'160'
p158
sg12
S'.511'
p159
sg14
S'133'
p160
sg16
S'.413'
p161
sg18
S'66'
p162
sg20
S'1370'
p163
sg22
S'SF'
p164
sg24
S'.792'
p165
sg26
S'.543'
p166
sg28
S'NBA'
p167
sg30
S'73'
p168
sg32
S'1020'
p169
sg34
S'217'
p170
sg36
S'331'
p171
sg38
S'514'
p172
sg40
S'26'
p173
sg42
S'UTA'
p174
sg44
S'78'
p175
sg46
S'17'
p176
sg48
S'455'
p177
sg50
S'262'
p178
sg52
S'860'
p179
sg54
S'324'
p180
sg56
S'2002-03'
p181
sg58
S'521'
p182
sg60
S'160'
p183
sg62
S'.529'
p184
sg64
S'2557'
p185
sg66
S'69'
p186
sba(isrc.gp1.models.Totals
Totals
p187
(dp188
g8
S'91'
p189
sg10
S'33'
p190
sg12
S'.471'
p191
sg14
S'63'
p192
sg16
S'.242'
p193
sg18
g73
sg20
S'502'
p194
sg22
S'SF'
p195
sg24
S'.688'
p196
sg26
S'.480'
p197
sg28
S'NBA'
p198
sg30
S'22'
p199
sg32
S'410'
p200
sg34
S'102'
p201
sg36
S'157'
p202
sg38
S'247'
p203
sg40
S'27'
p204
sg42
S'UTA'
p205
sg44
S'31'
p206
sg46
g71
sg48
S'185'
p207
sg50
S'108'
p208
sg52
S'377'
p209
sg54
S'156'
p210
sg56
S'2003-04'
p211
sg58
S'193'
p212
sg60
S'65'
p213
sg62
S'.491'
p214
sg64
S'1134'
p215
sg66
S'31'
p216
sba(isrc.gp1.models.Totals
Totals
p217
(dp218
g8
S'196'
p219
sg10
S'43'
p220
sg12
S'.489'
p221
sg14
S'142'
p222
sg16
S'.209'
p223
sg18
S'9'
p224
sg20
S'1090'
p225
sg22
S'SF'
p226
sg24
S'.778'
p227
sg26
S'.494'
p228
sg28
S'NBA'
p229
sg30
S'70'
p230
sg32
S'855'
p231
sg34
S'250'
p232
sg36
S'315'
p233
sg38
S'480'
p234
sg40
S'28'
p235
sg42
S'UTA'
p236
sg44
S'78'
p237
sg46
S'16'
p238
sg48
S'409'
p239
sg50
S'245'
p240
sg52
S'812'
p241
sg54
S'284'
p242
sg56
S'2004-05'
p243
sg58
S'418'
p244
sg60
S'133'
p245
sg62
S'.504'
p246
sg64
S'2584'
p247
sg66
S'55'
p248
sba(isrc.gp1.models.Totals
Totals
p249
(dp250
g8
S'158'
p251
sg10
S'39'
p252
sg12
S'.475'
p253
sg14
S'98'
p254
sg16
S'.359'
p255
sg18
S'14'
p256
sg20
S'885'
p257
sg22
S'SF'
p258
sg24
S'.725'
p259
sg26
S'.485'
p260
sg28
S'NBA'
p261
sg30
S'59'
p262
sg32
S'678'
p263
sg34
S'202'
p264
sg36
S'313'
p265
sg38
S'368'
p266
sg40
S'29'
p267
sg42
S'UTA'
p268
sg44
S'71'
p269
sg46
S'14'
p270
sg48
S'308'
p271
sg50
S'227'
p272
sg52
S'639'
p273
sg54
S'210'
p274
sg56
S'2005-06'
p275
sg58
S'322'
p276
sg60
S'109'
p277
sg62
S'.482'
p278
sg64
S'1944'
p279
sg66
S'32'
p280
sba(isrc.gp1.models.Totals
Totals
p281
(dp282
g8
S'117'
p283
sg10
S'39'
p284
sg12
S'.491'
p285
sg14
S'99'
p286
sg16
S'.333'
p287
sg18
S'13'
p288
sg20
S'894'
p289
sg22
S'SF'
p290
sg24
S'.767'
p291
sg26
S'.501'
p292
sg28
S'NBA'
p293
sg30
S'52'
p294
sg32
S'656'
p295
sg34
S'232'
p296
sg36
S'309'
p297
sg38
S'353'
p298
sg40
S'30'
p299
sg42
S'UTA'
p300
sg44
S'77'
p301
sg46
S'11'
p302
sg48
S'309'
p303
sg50
S'237'
p304
sg52
S'617'
p305
sg54
S'236'
p306
sg56
S'2006-07'
p307
sg58
S'322'
p308
sg60
S'118'
p309
sg62
S'.501'
p310
sg64
S'1965'
p311
sg66
g71
sba(isrc.gp1.models.Totals
Totals
p312
(dp313
g8
S'96'
p314
sg10
S'10'
p315
sg12
S'.500'
p316
sg14
S'82'
p317
sg16
S'.200'
p318
sg18
g71
sg20
S'622'
p319
sg22
S'SF'
p320
sg24
S'.712'
p321
sg26
S'.502'
p322
sg28
S'NBA'
p323
sg30
S'45'
p324
sg32
S'474'
p325
sg34
S'162'
p326
sg36
S'205'
p327
sg38
S'240'
p328
sg40
S'31'
p329
sg42
S'UTA'
p330
sg44
S'76'
p331
sg46
S'14'
p332
sg48
S'235'
p333
sg50
S'146'
p334
sg52
S'464'
p335
sg54
S'144'
p336
sg56
S'2007-08'
p337
sg58
S'237'
p338
sg60
S'95'
p339
sg62
S'.506'
p340
sg64
S'1374'
p341
sg66
g91
sba(isrc.gp1.models.Totals
Totals
p342
(dp343
g8
S'47'
p344
sg10
g71
sg12
S'.461'
p345
sg14
S'28'
p346
sg16
S'.000'
p347
sg18
g91
sg20
S'277'
p348
sg22
S'SG'
p349
sg24
S'.764'
p350
sg26
S'.461'
p351
sg28
S'NBA'
p352
sg30
S'29'
p353
sg32
S'241'
p354
sg34
S'102'
p355
sg36
S'72'
p356
sg38
S'123'
p357
sg40
S'32'
p358
sg42
S'UTA'
p359
sg44
S'63'
p360
sg46
g224
sg48
S'111'
p361
sg50
S'55'
p362
sg52
S'239'
p363
sg54
S'76'
p364
sg56
S'2008-09'
p365
sg58
S'111'
p366
sg60
S'29'
p367
sg62
S'.464'
p368
sg64
S'693'
p369
sg66
g71
sbasS'_college'
p370
S'Georgia Institute of Technology'
p371
sS'_toYear'
p372
S'2009'
p373
sS'_height'
p374
S'6-7'
p375
sS'_active'
p376
I00
sS'_shootingHand'
p377
VRight
p378
sS'_name'
p379
S'Matt Harpring'
p380
sS'_per100Possessions'
p381
(lp382
(isrc.gp1.models.Per100Possession
Per100Possession
p383
(dp384
g8
S'4.3'
p385
sg10
S'1.2'
p386
sg12
S'.463'
p387
sS'_offensiveRating'
p388
S'103'
p389
sg14
S'2.2'
p390
sg16
S'.400'
p391
sg18
S'0.5'
p392
sg20
S'19.8'
p393
sg22
S'SF'
p394
sS'_defensiveRating'
p395
S'100'
p396
sg24
S'.713'
p397
sg28
S'NBA'
p398
sg30
S'1.5'
p399
sg32
S'15.5'
p400
sg34
S'5.4'
p401
sg36
S'6.9'
p402
sg38
S'10.4'
p403
sg40
S'22'
p404
sg42
S'ORL'
p405
sg44
S'50'
p406
sg46
S'0.3'
p407
sg48
S'6.7'
p408
sg50
S'4.9'
p409
sg52
S'14.3'
p410
sg54
S'6.1'
p411
sg56
S'1998-99'
p412
sg58
S'7.2'
p413
sg60
S'3.5'
p414
sg62
S'.468'
p415
sg64
S'1114'
p416
sg66
S'22'
p417
sba(isrc.gp1.models.Per100Possession
Per100Possession
p418
(dp419
g8
S'3.9'
p420
sg10
S'1.6'
p421
sg12
S'.235'
p422
sg388
S'110'
p423
sg14
S'6.3'
p424
sg16
S'1.000'
p425
sg18
S'1.6'
p426
sg20
S'12.5'
p427
sg22
S'SF'
p428
sg395
S'98'
p429
sg24
S'.857'
p430
sg28
S'NBA'
p431
sg30
S'3.9'
p432
sg32
S'13.3'
p433
sg34
S'5.5'
p434
sg36
S'5.5'
p435
sg38
S'9.4'
p436
sg40
S'23'
p437
sg42
S'ORL'
p438
sg44
g85
sg46
S'0.8'
p439
sg48
S'1.6'
p440
sg50
S'4.7'
p441
sg52
S'11.7'
p442
sg54
S'5.5'
p443
sg56
S'1999-00'
p444
sg58
S'3.1'
p445
sg60
S'0.8'
p446
sg62
S'.133'
p447
sg64
S'63'
p448
sg66
g91
sba(isrc.gp1.models.Per100Possession
Per100Possession
p449
(dp450
g8
S'2.9'
p451
sg10
S'1.7'
p452
sg12
S'.454'
p453
sg388
S'104'
p454
sg14
S'3.3'
p455
sg16
S'.250'
p456
sg18
S'0.4'
p457
sg20
S'20.3'
p458
sg22
S'SG'
p459
sg395
S'107'
p460
sg24
S'.812'
p461
sg28
S'NBA'
p462
sg30
S'1.4'
p463
sg32
S'17.1'
p464
sg34
S'5.2'
p465
sg36
S'5.4'
p466
sg38
S'7.9'
p467
sg40
S'24'
p468
sg42
S'CLE'
p469
sg44
S'56'
p470
sg46
S'0.6'
p471
sg48
S'7.3'
p472
sg50
S'4.4'
p473
sg52
S'15.4'
p474
sg54
S'5.0'
p475
sg56
S'2000-01'
p476
sg58
S'7.8'
p477
sg60
S'2.9'
p478
sg62
S'.477'
p479
sg64
S'1615'
p480
sg66
S'55'
p481
sba(isrc.gp1.models.Per100Possession
Per100Possession
p482
(dp483
g8
S'4.3'
p484
sg10
S'1.5'
p485
sg12
S'.461'
p486
sg388
S'105'
p487
sg14
S'2.3'
p488
sg16
S'.304'
p489
sg18
S'0.4'
p490
sg20
S'20.4'
p491
sg22
S'SF'
p492
sg395
S'102'
p493
sg24
S'.743'
p494
sg28
S'NBA'
p495
sg30
S'1.5'
p496
sg32
S'17.8'
p497
sg34
S'4.3'
p498
sg36
S'4.7'
p499
sg38
S'12.2'
p500
sg40
S'25'
p501
sg42
S'PHI'
p502
sg44
S'81'
p503
sg46
S'0.1'
p504
sg48
S'7.8'
p505
sg50
S'3.5'
p506
sg52
S'16.3'
p507
sg54
S'7.9'
p508
sg56
S'2001-02'
p509
sg58
S'8.2'
p510
sg60
S'2.7'
p511
sg62
S'.475'
p512
sg64
S'2541'
p513
sg66
S'81'
p514
sba(isrc.gp1.models.Per100Possession
Per100Possession
p515
(dp516
g8
S'4.0'
p517
sg10
S'3.4'
p518
sg12
S'.511'
p519
sg388
S'113'
p520
sg14
S'2.8'
p521
sg16
S'.413'
p522
sg18
S'1.4'
p523
sg20
S'28.8'
p524
sg22
S'SF'
p525
sg395
S'104'
p526
sg24
S'.792'
p527
sg28
S'NBA'
p528
sg30
S'1.5'
p529
sg32
S'21.4'
p530
sg34
S'4.6'
p531
sg36
S'7.0'
p532
sg38
S'10.8'
p533
sg40
S'26'
p534
sg42
S'UTA'
p535
sg44
S'78'
p536
sg46
S'0.4'
p537
sg48
S'9.6'
p538
sg50
S'5.5'
p539
sg52
S'18.1'
p540
sg54
S'6.8'
p541
sg56
S'2002-03'
p542
sg58
S'11.0'
p543
sg60
S'3.4'
p544
sg62
S'.529'
p545
sg64
S'2557'
p546
sg66
S'69'
p547
sba(isrc.gp1.models.Per100Possession
Per100Possession
p548
(dp549
g8
S'4.4'
p550
sg10
S'1.6'
p551
sg12
S'.471'
p552
sg388
S'107'
p553
sg14
S'3.1'
p554
sg16
S'.242'
p555
sg18
S'0.4'
p556
sg20
S'24.5'
p557
sg22
S'SF'
p558
sg395
S'105'
p559
sg24
S'.688'
p560
sg28
S'NBA'
p561
sg30
S'1.1'
p562
sg32
S'20.0'
p563
sg34
S'5.0'
p564
sg36
S'7.7'
p565
sg38
S'12.1'
p566
sg40
S'27'
p567
sg42
S'UTA'
p568
sg44
S'31'
p569
sg46
S'0.1'
p570
sg48
S'9.0'
p571
sg50
S'5.3'
p572
sg52
S'18.4'
p573
sg54
S'7.6'
p574
sg56
S'2003-04'
p575
sg58
S'9.4'
p576
sg60
S'3.2'
p577
sg62
S'.491'
p578
sg64
S'1134'
p579
sg66
S'31'
p580
sba(isrc.gp1.models.Per100Possession
Per100Possession
p581
(dp582
g8
S'4.1'
p583
sg10
S'0.9'
p584
sg12
S'.489'
p585
sg388
S'111'
p586
sg14
S'3.0'
p587
sg16
S'.209'
p588
sg18
S'0.2'
p589
sg20
S'22.9'
p590
sg22
S'SF'
p591
sg395
S'111'
p592
sg24
S'.778'
p593
sg28
S'NBA'
p594
sg30
S'1.5'
p595
sg32
S'18.0'
p596
sg34
S'5.3'
p597
sg36
S'6.6'
p598
sg38
S'10.1'
p599
sg40
S'28'
p600
sg42
S'UTA'
p601
sg44
S'78'
p602
sg46
S'0.3'
p603
sg48
S'8.6'
p604
sg50
S'5.2'
p605
sg52
S'17.1'
p606
sg54
S'6.0'
p607
sg56
S'2004-05'
p608
sg58
S'8.8'
p609
sg60
S'2.8'
p610
sg62
S'.504'
p611
sg64
S'2584'
p612
sg66
S'55'
p613
sba(isrc.gp1.models.Per100Possession
Per100Possession
p614
(dp615
g8
S'4.4'
p616
sg10
S'1.1'
p617
sg12
S'.475'
p618
sg388
S'110'
p619
sg14
S'2.8'
p620
sg16
S'.359'
p621
sg18
S'0.4'
p622
sg20
S'24.9'
p623
sg22
S'SF'
p624
sg395
S'108'
p625
sg24
S'.725'
p626
sg28
S'NBA'
p627
sg30
S'1.7'
p628
sg32
S'19.1'
p629
sg34
S'5.7'
p630
sg36
S'8.8'
p631
sg38
S'10.3'
p632
sg40
S'29'
p633
sg42
S'UTA'
p634
sg44
S'71'
p635
sg46
S'0.4'
p636
sg48
S'8.7'
p637
sg50
S'6.4'
p638
sg52
S'18.0'
p639
sg54
S'5.9'
p640
sg56
S'2005-06'
p641
sg58
S'9.1'
p642
sg60
S'3.1'
p643
sg62
S'.482'
p644
sg64
S'1944'
p645
sg66
S'32'
p646
sba(isrc.gp1.models.Per100Possession
Per100Possession
p647
(dp648
g8
S'3.1'
p649
sg10
S'1.0'
p650
sg12
S'.491'
p651
sg388
S'111'
p652
sg14
S'2.6'
p653
sg16
S'.333'
p654
sg18
S'0.3'
p655
sg20
S'23.8'
p656
sg22
S'SF'
p657
sg395
S'108'
p658
sg24
S'.767'
p659
sg28
S'NBA'
p660
sg30
S'1.4'
p661
sg32
S'17.5'
p662
sg34
S'6.2'
p663
sg36
S'8.2'
p664
sg38
S'9.4'
p665
sg40
S'30'
p666
sg42
S'UTA'
p667
sg44
S'77'
p668
sg46
S'0.3'
p669
sg48
S'8.2'
p670
sg50
S'6.3'
p671
sg52
S'16.5'
p672
sg54
S'6.3'
p673
sg56
S'2006-07'
p674
sg58
S'8.6'
p675
sg60
S'3.1'
p676
sg62
S'.501'
p677
sg64
S'1965'
p678
sg66
g71
sba(isrc.gp1.models.Per100Possession
Per100Possession
p679
(dp680
g8
S'3.6'
p681
sg10
S'0.4'
p682
sg12
S'.500'
p683
sg388
S'107'
p684
sg14
S'3.1'
p685
sg16
S'.200'
p686
sg18
S'0.1'
p687
sg20
S'23.3'
p688
sg22
S'SF'
p689
sg395
S'108'
p690
sg24
S'.712'
p691
sg28
S'NBA'
p692
sg30
S'1.7'
p693
sg32
S'17.8'
p694
sg34
S'6.1'
p695
sg36
S'7.7'
p696
sg38
S'9.0'
p697
sg40
S'31'
p698
sg42
S'UTA'
p699
sg44
S'76'
p700
sg46
S'0.5'
p701
sg48
S'8.8'
p702
sg50
S'5.5'
p703
sg52
S'17.4'
p704
sg54
S'5.4'
p705
sg56
S'2007-08'
p706
sg58
S'8.9'
p707
sg60
S'3.6'
p708
sg62
S'.506'
p709
sg64
S'1374'
p710
sg66
g91
sba(isrc.gp1.models.Per100Possession
Per100Possession
p711
(dp712
g8
S'3.5'
p713
sg10
S'0.1'
p714
sg12
S'.461'
p715
sg388
S'105'
p716
sg14
S'2.1'
p717
sg16
S'.000'
p718
sg18
S'0.0'
p719
sg20
S'20.6'
p720
sg22
S'SG'
p721
sg395
S'107'
p722
sg24
S'.764'
p723
sg28
S'NBA'
p724
sg30
S'2.2'
p725
sg32
S'17.9'
p726
sg34
S'7.6'
p727
sg36
S'5.4'
p728
sg38
S'9.1'
p729
sg40
S'32'
p730
sg42
S'UTA'
p731
sg44
S'63'
p732
sg46
S'0.7'
p733
sg48
S'8.3'
p734
sg50
S'4.1'
p735
sg52
S'17.8'
p736
sg54
S'5.7'
p737
sg56
S'2008-09'
p738
sg58
S'8.3'
p739
sg60
S'2.2'
p740
sg62
S'.464'
p741
sg64
S'693'
p742
sg66
g71
sbasS'_advanced'
p743
(lp744
(isrc.gp1.models.Advanced
Advanced
p745
(dp746
S'_offensiveReboundPercentage'
p747
S'9.0'
p748
sS'_turnOverPercentage'
p749
S'16.0'
p750
sS'_winSharesPer48Minutes'
p751
S'.113'
p752
sS'_stealPercentage'
p753
S'1.5'
p754
sS'_usagePercentage'
p755
S'18.6'
p756
sS'_totalReboundsPercentage'
p757
S'11.2'
p758
sS'_defensiveBoxPlusMinus'
p759
S'-0.2'
p760
sg22
S'SF'
p761
sS'_valueOverReplacementPlayer'
p762
S'0.2'
p763
sS'_trueShootingPercentage'
p764
S'.533'
p765
sS'_defensiveReboundPercentage'
p766
S'13.4'
p767
sS'_freeThrowsAttempRate'
p768
S'.447'
p769
sS'_threePointsAttempRate'
p770
S'.078'
p771
sg28
S'NBA'
p772
sS'_offensiveBoxPlusMinues'
p773
S'-1.2'
p774
sS'_assistPercentage'
p775
S'7.1'
p776
sS'_defensiveWinShares'
p777
S'1.5'
p778
sg40
S'22'
p779
sg42
S'ORL'
p780
sg44
S'50'
p781
sS'_blockPercentage'
p782
S'0.4'
p783
sS'_playerEfficiencyRating'
p784
S'13.0'
p785
sS'_offensiveWinShares'
p786
S'1.2'
p787
sg64
S'1114'
p788
sS'_boxPlusMinus'
p789
S'-1.4'
p790
sg56
S'1998-99'
p791
sS'_winShares'
p792
S'2.6'
p793
sba(isrc.gp1.models.Advanced
Advanced
p794
(dp795
g747
S'8.7'
p796
sg749
S'4.7'
p797
sg751
S'.146'
p798
sg753
S'3.9'
p799
sg755
S'14.1'
p800
sg757
S'10.4'
p801
sg759
S'2.7'
p802
sg22
S'SF'
p803
sg762
S'0.1'
p804
sg764
S'.398'
p805
sg766
S'12.1'
p806
sg768
S'.412'
p807
sg770
S'.118'
p808
sg28
S'NBA'
p809
sg773
S'0.1'
p810
sg775
S'17.2'
p811
sg777
S'0.1'
p812
sg40
S'23'
p813
sg42
S'ORL'
p814
sg44
g85
sg782
S'1.1'
p815
sg784
S'14.2'
p816
sg786
S'0.1'
p817
sg64
S'63'
p818
sg789
S'2.7'
p819
sg56
S'1999-00'
p820
sg792
S'0.2'
p821
sba(isrc.gp1.models.Advanced
Advanced
p822
(dp823
g747
S'6.5'
p824
sg749
S'13.1'
p825
sg751
S'.077'
p826
sg753
S'1.4'
p827
sg755
S'19.2'
p828
sg757
S'8.7'
p829
sg759
S'-0.8'
p830
sg22
S'SG'
p831
sg762
S'0.6'
p832
sg764
S'.522'
p833
sg766
S'10.9'
p834
sg768
S'.315'
p835
sg770
S'.099'
p836
sg28
S'NBA'
p837
sg773
S'0.2'
p838
sg775
S'10.9'
p839
sg777
S'0.8'
p840
sg40
S'24'
p841
sg42
S'CLE'
p842
sg44
S'56'
p843
sg782
S'0.8'
p844
sg784
S'13.3'
p845
sg786
S'1.8'
p846
sg64
S'1615'
p847
sg789
S'-0.6'
p848
sg56
S'2000-01'
p849
sg792
S'2.6'
p850
sba(isrc.gp1.models.Advanced
Advanced
p851
(dp852
g747
S'9.2'
p853
sg749
S'12.0'
p854
sg751
S'.115'
p855
sg753
S'1.5'
p856
sg755
S'19.1'
p857
sg757
S'12.8'
p858
sg759
S'0.0'
p859
sg22
S'SF'
p860
sg762
S'0.9'
p861
sg764
S'.512'
p862
sg766
S'16.3'
p863
sg768
S'.265'
p864
sg770
S'.082'
p865
sg28
S'NBA'
p866
sg773
S'-0.6'
p867
sg775
S'7.5'
p868
sg777
S'3.6'
p869
sg40
S'25'
p870
sg42
S'PHI'
p871
sg44
S'81'
p872
sg782
S'0.1'
p873
sg784
S'14.1'
p874
sg786
S'2.6'
p875
sg64
S'2541'
p876
sg789
S'-0.6'
p877
sg56
S'2001-02'
p878
sg792
S'6.1'
p879
sba(isrc.gp1.models.Advanced
Advanced
p880
(dp881
g747
S'9.4'
p882
sg749
S'12.1'
p883
sg751
S'.166'
p884
sg753
S'1.5'
p885
sg755
S'23.9'
p886
sg757
S'12.2'
p887
sg759
S'-1.1'
p888
sg22
S'SF'
p889
sg762
S'2.9'
p890
sg764
S'.588'
p891
sg766
S'14.8'
p892
sg768
S'.325'
p893
sg770
S'.157'
p894
sg28
S'NBA'
p895
sg773
S'3.5'
p896
sg775
S'9.9'
p897
sg777
S'2.4'
p898
sg40
S'26'
p899
sg42
S'UTA'
p900
sg44
S'78'
p901
sg782
S'0.5'
p902
sg784
S'19.3'
p903
sg786
S'6.4'
p904
sg64
S'2557'
p905
sg789
S'2.4'
p906
sg56
S'2002-03'
p907
sg792
S'8.8'
p908
sba(isrc.gp1.models.Advanced
Advanced
p909
(dp910
g747
S'9.8'
p911
sg749
S'11.9'
p912
sg751
S'.116'
p913
sg753
S'1.1'
p914
sg755
S'22.3'
p915
sg757
S'13.5'
p916
sg759
S'-1.3'
p917
sg22
S'SF'
p918
sg762
S'0.6'
p919
sg764
S'.524'
p920
sg766
S'17.3'
p921
sg768
S'.383'
p922
sg770
S'.080'
p923
sg28
S'NBA'
p924
sg773
S'1.3'
p925
sg775
S'10.9'
p926
sg777
S'0.9'
p927
sg40
S'27'
p928
sg42
S'UTA'
p929
sg44
S'31'
p930
sg782
S'0.1'
p931
sg784
S'16.1'
p932
sg786
S'1.9'
p933
sg64
S'1134'
p934
sg789
S'0.1'
p935
sg56
S'2003-04'
p936
sg792
S'2.8'
p937
sba(isrc.gp1.models.Advanced
Advanced
p938
(dp939
g747
S'9.2'
p940
sg749
S'11.8'
p941
sg751
S'.102'
p942
sg753
S'1.5'
p943
sg755
S'20.1'
p944
sg757
S'11.5'
p945
sg759
S'-0.7'
p946
sg22
S'SF'
p947
sg762
S'1.8'
p948
sg764
S'.549'
p949
sg766
S'14.0'
p950
sg768
S'.368'
p951
sg770
S'.050'
p952
sg28
S'NBA'
p953
sg773
S'1.4'
p954
sg775
S'9.9'
p955
sg777
S'1.2'
p956
sg40
S'28'
p957
sg42
S'UTA'
p958
sg44
S'78'
p959
sg782
S'0.5'
p960
sg784
S'15.5'
p961
sg786
S'4.2'
p962
sg64
S'2584'
p963
sg789
S'0.7'
p964
sg56
S'2004-05'
p965
sg792
S'5.5'
p966
sba(isrc.gp1.models.Advanced
Advanced
p967
(dp968
g747
S'9.8'
p969
sg749
S'11.8'
p970
sg751
S'.115'
p971
sg753
S'1.7'
p972
sg755
S'22.0'
p973
sg757
S'11.5'
p974
sg759
S'-1.2'
p975
sg22
S'SF'
p976
sg762
S'0.7'
p977
sg764
S'.542'
p978
sg766
S'13.2'
p979
sg768
S'.462'
p980
sg770
S'.058'
p981
sg28
S'NBA'
p982
sg773
S'0.6'
p983
sg775
S'9.6'
p984
sg777
S'1.6'
p985
sg40
S'29'
p986
sg42
S'UTA'
p987
sg44
S'71'
p988
sg782
S'0.6'
p989
sg784
S'16.3'
p990
sg786
S'3.1'
p991
sg64
S'1944'
p992
sg789
S'-0.6'
p993
sg56
S'2005-06'
p994
sg792
S'4.7'
p995
sba(isrc.gp1.models.Advanced
Advanced
p996
(dp997
g747
S'7.3'
p998
sg749
S'13.0'
p999
sg751
S'.115'
p1000
sg753
S'1.4'
p1001
sg755
S'20.8'
p1002
sg757
S'10.9'
p1003
sg759
S'-0.8'
p1004
sg22
S'SF'
p1005
sg762
S'0.6'
p1006
sg764
S'.564'
p1007
sg766
S'14.6'
p1008
sg768
S'.471'
p1009
sg770
S'.059'
p1010
sg28
S'NBA'
p1011
sg773
S'0.0'
p1012
sg775
S'8.2'
p1013
sg777
S'1.6'
p1014
sg40
S'30'
p1015
sg42
S'UTA'
p1016
sg44
S'77'
p1017
sg782
S'0.5'
p1018
sg784
S'14.7'
p1019
sg786
S'3.1'
p1020
sg64
S'1965'
p1021
sg789
S'-0.8'
p1022
sg56
S'2006-07'
p1023
sg792
S'4.7'
p1024
sba(isrc.gp1.models.Advanced
Advanced
p1025
(dp1026
g747
S'8.6'
p1027
sg749
S'14.4'
p1028
sg751
S'.096'
p1029
sg753
S'1.7'
p1030
sg755
S'21.5'
p1031
sg757
S'10.7'
p1032
sg759
S'-0.7'
p1033
sg22
S'SF'
p1034
sg762
S'0.2'
p1035
sg764
S'.551'
p1036
sg766
S'12.7'
p1037
sg768
S'.432'
p1038
sg770
S'.021'
p1039
sg28
S'NBA'
p1040
sg773
S'-0.8'
p1041
sg775
S'9.0'
p1042
sg777
S'1.4'
p1043
sg40
S'31'
p1044
sg42
S'UTA'
p1045
sg44
S'76'
p1046
sg782
S'0.8'
p1047
sg784
S'14.1'
p1048
sg786
S'1.4'
p1049
sg64
S'1374'
p1050
sg789
S'-1.5'
p1051
sg56
S'2007-08'
p1052
sg792
S'2.8'
p1053
sba(isrc.gp1.models.Advanced
Advanced
p1054
(dp1055
g747
S'8.1'
p1056
sg749
S'9.6'
p1057
sg751
S'.086'
p1058
sg753
S'2.2'
p1059
sg755
S'19.5'
p1060
sg757
S'10.6'
p1061
sg759
S'-0.6'
p1062
sg22
S'SG'
p1063
sg762
S'-0.2'
p1064
sg764
S'.508'
p1065
sg766
S'13.1'
p1066
sg768
S'.299'
p1067
sg770
S'.008'
p1068
sg28
S'NBA'
p1069
sg773
S'-2.4'
p1070
sg775
S'6.4'
p1071
sg777
S'0.8'
p1072
sg40
S'32'
p1073
sg42
S'UTA'
p1074
sg44
S'63'
p1075
sg782
S'1.0'
p1076
sg784
S'12.3'
p1077
sg786
S'0.4'
p1078
sg64
S'693'
p1079
sg789
S'-3.0'
p1080
sg56
S'2008-09'
p1081
sg792
S'1.2'
p1082
sbasS'_per36Minutes'
p1083
(lp1084
(isrc.gp1.models.Per36Minutes
Per36Minutes
p1085
(dp1086
g8
S'2.8'
p1087
sg10
S'0.8'
p1088
sg12
S'.463'
p1089
sg14
S'1.5'
p1090
sg16
S'.400'
p1091
sg18
S'0.3'
p1092
sg20
S'13.2'
p1093
sg22
S'SF'
p1094
sg24
S'.713'
p1095
sg28
S'NBA'
p1096
sg30
S'1.0'
p1097
sg32
S'10.3'
p1098
sg34
S'3.6'
p1099
sg36
S'4.6'
p1100
sg38
S'6.9'
p1101
sg40
S'22'
p1102
sg42
S'ORL'
p1103
sg44
S'50'
p1104
sg46
S'0.2'
p1105
sg48
S'4.5'
p1106
sg50
S'3.3'
p1107
sg52
S'9.5'
p1108
sg54
S'4.1'
p1109
sg56
S'1998-99'
p1110
sg58
S'4.8'
p1111
sg60
S'2.4'
p1112
sg62
S'.468'
p1113
sg64
S'1114'
p1114
sg66
S'22'
p1115
sba(isrc.gp1.models.Per36Minutes
Per36Minutes
p1116
(dp1117
g8
S'2.9'
p1118
sg10
S'1.1'
p1119
sg12
S'.235'
p1120
sg14
S'4.6'
p1121
sg16
S'1.000'
p1122
sg18
S'1.1'
p1123
sg20
S'9.1'
p1124
sg22
S'SF'
p1125
sg24
S'.857'
p1126
sg28
S'NBA'
p1127
sg30
S'2.9'
p1128
sg32
S'9.7'
p1129
sg34
S'4.0'
p1130
sg36
S'4.0'
p1131
sg38
S'6.9'
p1132
sg40
S'23'
p1133
sg42
S'ORL'
p1134
sg44
g85
sg46
S'0.6'
p1135
sg48
S'1.1'
p1136
sg50
S'3.4'
p1137
sg52
S'8.6'
p1138
sg54
S'4.0'
p1139
sg56
S'1999-00'
p1140
sg58
S'2.3'
p1141
sg60
S'0.6'
p1142
sg62
S'.133'
p1143
sg64
S'63'
p1144
sg66
g91
sba(isrc.gp1.models.Per36Minutes
Per36Minutes
p1145
(dp1146
g8
S'2.0'
p1147
sg10
S'1.2'
p1148
sg12
S'.454'
p1149
sg14
S'2.3'
p1150
sg16
S'.250'
p1151
sg18
S'0.3'
p1152
sg20
S'13.9'
p1153
sg22
S'SG'
p1154
sg24
S'.812'
p1155
sg28
S'NBA'
p1156
sg30
S'0.9'
p1157
sg32
S'11.7'
p1158
sg34
S'3.6'
p1159
sg36
S'3.7'
p1160
sg38
S'5.4'
p1161
sg40
S'24'
p1162
sg42
S'CLE'
p1163
sg44
S'56'
p1164
sg46
S'0.4'
p1165
sg48
S'5.0'
p1166
sg50
S'3.0'
p1167
sg52
S'10.5'
p1168
sg54
S'3.4'
p1169
sg56
S'2000-01'
p1170
sg58
S'5.3'
p1171
sg60
S'2.0'
p1172
sg62
S'.477'
p1173
sg64
S'1615'
p1174
sg66
S'55'
p1175
sba(isrc.gp1.models.Per36Minutes
Per36Minutes
p1176
(dp1177
g8
S'2.9'
p1178
sg10
S'1.0'
p1179
sg12
S'.461'
p1180
sg14
S'1.5'
p1181
sg16
S'.304'
p1182
sg18
S'0.3'
p1183
sg20
S'13.6'
p1184
sg22
S'SF'
p1185
sg24
S'.743'
p1186
sg28
S'NBA'
p1187
sg30
S'1.0'
p1188
sg32
S'11.9'
p1189
sg34
S'2.8'
p1190
sg36
S'3.1'
p1191
sg38
S'8.1'
p1192
sg40
S'25'
p1193
sg42
S'PHI'
p1194
sg44
S'81'
p1195
sg46
S'0.1'
p1196
sg48
S'5.2'
p1197
sg50
S'2.3'
p1198
sg52
S'10.9'
p1199
sg54
S'5.2'
p1200
sg56
S'2001-02'
p1201
sg58
S'5.5'
p1202
sg60
S'1.8'
p1203
sg62
S'.475'
p1204
sg64
S'2541'
p1205
sg66
S'81'
p1206
sba(isrc.gp1.models.Per36Minutes
Per36Minutes
p1207
(dp1208
g8
S'2.7'
p1209
sg10
S'2.3'
p1210
sg12
S'.511'
p1211
sg14
S'1.9'
p1212
sg16
S'.413'
p1213
sg18
S'0.9'
p1214
sg20
S'19.3'
p1215
sg22
S'SF'
p1216
sg24
S'.792'
p1217
sg28
S'NBA'
p1218
sg30
S'1.0'
p1219
sg32
S'14.4'
p1220
sg34
S'3.1'
p1221
sg36
S'4.7'
p1222
sg38
S'7.2'
p1223
sg40
S'26'
p1224
sg42
S'UTA'
p1225
sg44
S'78'
p1226
sg46
S'0.2'
p1227
sg48
S'6.4'
p1228
sg50
S'3.7'
p1229
sg52
S'12.1'
p1230
sg54
S'4.6'
p1231
sg56
S'2002-03'
p1232
sg58
S'7.3'
p1233
sg60
S'2.3'
p1234
sg62
S'.529'
p1235
sg64
S'2557'
p1236
sg66
S'69'
p1237
sba(isrc.gp1.models.Per36Minutes
Per36Minutes
p1238
(dp1239
g8
S'2.9'
p1240
sg10
S'1.0'
p1241
sg12
S'.471'
p1242
sg14
S'2.0'
p1243
sg16
S'.242'
p1244
sg18
S'0.3'
p1245
sg20
S'15.9'
p1246
sg22
S'SF'
p1247
sg24
S'.688'
p1248
sg28
S'NBA'
p1249
sg30
S'0.7'
p1250
sg32
S'13.0'
p1251
sg34
S'3.2'
p1252
sg36
S'5.0'
p1253
sg38
S'7.8'
p1254
sg40
S'27'
p1255
sg42
S'UTA'
p1256
sg44
S'31'
p1257
sg46
S'0.1'
p1258
sg48
S'5.9'
p1259
sg50
S'3.4'
p1260
sg52
S'12.0'
p1261
sg54
S'5.0'
p1262
sg56
S'2003-04'
p1263
sg58
S'6.1'
p1264
sg60
S'2.1'
p1265
sg62
S'.491'
p1266
sg64
S'1134'
p1267
sg66
S'31'
p1268
sba(isrc.gp1.models.Per36Minutes
Per36Minutes
p1269
(dp1270
g8
S'2.7'
p1271
sg10
S'0.6'
p1272
sg12
S'.489'
p1273
sg14
S'2.0'
p1274
sg16
S'.209'
p1275
sg18
S'0.1'
p1276
sg20
S'15.2'
p1277
sg22
S'SF'
p1278
sg24
S'.778'
p1279
sg28
S'NBA'
p1280
sg30
S'1.0'
p1281
sg32
S'11.9'
p1282
sg34
S'3.5'
p1283
sg36
S'4.4'
p1284
sg38
S'6.7'
p1285
sg40
S'28'
p1286
sg42
S'UTA'
p1287
sg44
S'78'
p1288
sg46
S'0.2'
p1289
sg48
S'5.7'
p1290
sg50
S'3.4'
p1291
sg52
S'11.3'
p1292
sg54
S'4.0'
p1293
sg56
S'2004-05'
p1294
sg58
S'5.8'
p1295
sg60
S'1.9'
p1296
sg62
S'.504'
p1297
sg64
S'2584'
p1298
sg66
S'55'
p1299
sba(isrc.gp1.models.Per36Minutes
Per36Minutes
p1300
(dp1301
g8
S'2.9'
p1302
sg10
S'0.7'
p1303
sg12
S'.475'
p1304
sg14
S'1.8'
p1305
sg16
S'.359'
p1306
sg18
S'0.3'
p1307
sg20
S'16.4'
p1308
sg22
S'SF'
p1309
sg24
S'.725'
p1310
sg28
S'NBA'
p1311
sg30
S'1.1'
p1312
sg32
S'12.6'
p1313
sg34
S'3.7'
p1314
sg36
S'5.8'
p1315
sg38
S'6.8'
p1316
sg40
S'29'
p1317
sg42
S'UTA'
p1318
sg44
S'71'
p1319
sg46
S'0.3'
p1320
sg48
S'5.7'
p1321
sg50
S'4.2'
p1322
sg52
S'11.8'
p1323
sg54
S'3.9'
p1324
sg56
S'2005-06'
p1325
sg58
S'6.0'
p1326
sg60
S'2.0'
p1327
sg62
S'.482'
p1328
sg64
S'1944'
p1329
sg66
S'32'
p1330
sba(isrc.gp1.models.Per36Minutes
Per36Minutes
p1331
(dp1332
g8
S'2.1'
p1333
sg10
S'0.7'
p1334
sg12
S'.491'
p1335
sg14
S'1.8'
p1336
sg16
S'.333'
p1337
sg18
S'0.2'
p1338
sg20
S'16.4'
p1339
sg22
S'SF'
p1340
sg24
S'.767'
p1341
sg28
S'NBA'
p1342
sg30
S'1.0'
p1343
sg32
S'12.0'
p1344
sg34
S'4.3'
p1345
sg36
S'5.7'
p1346
sg38
S'6.5'
p1347
sg40
S'30'
p1348
sg42
S'UTA'
p1349
sg44
S'77'
p1350
sg46
S'0.2'
p1351
sg48
S'5.7'
p1352
sg50
S'4.3'
p1353
sg52
S'11.3'
p1354
sg54
S'4.3'
p1355
sg56
S'2006-07'
p1356
sg58
S'5.9'
p1357
sg60
S'2.2'
p1358
sg62
S'.501'
p1359
sg64
S'1965'
p1360
sg66
g71
sba(isrc.gp1.models.Per36Minutes
Per36Minutes
p1361
(dp1362
g8
S'2.5'
p1363
sg10
S'0.3'
p1364
sg12
S'.500'
p1365
sg14
S'2.1'
p1366
sg16
S'.200'
p1367
sg18
S'0.1'
p1368
sg20
S'16.3'
p1369
sg22
S'SF'
p1370
sg24
S'.712'
p1371
sg28
S'NBA'
p1372
sg30
S'1.2'
p1373
sg32
S'12.4'
p1374
sg34
S'4.2'
p1375
sg36
S'5.4'
p1376
sg38
S'6.3'
p1377
sg40
S'31'
p1378
sg42
S'UTA'
p1379
sg44
S'76'
p1380
sg46
S'0.4'
p1381
sg48
S'6.2'
p1382
sg50
S'3.8'
p1383
sg52
S'12.2'
p1384
sg54
S'3.8'
p1385
sg56
S'2007-08'
p1386
sg58
S'6.2'
p1387
sg60
S'2.5'
p1388
sg62
S'.506'
p1389
sg64
S'1374'
p1390
sg66
g91
sba(isrc.gp1.models.Per36Minutes
Per36Minutes
p1391
(dp1392
g8
S'2.4'
p1393
sg10
S'0.1'
p1394
sg12
S'.461'
p1395
sg14
S'1.5'
p1396
sg16
S'.000'
p1397
sg18
S'0.0'
p1398
sg20
S'14.4'
p1399
sg22
S'SG'
p1400
sg24
S'.764'
p1401
sg28
S'NBA'
p1402
sg30
S'1.5'
p1403
sg32
S'12.5'
p1404
sg34
S'5.3'
p1405
sg36
S'3.7'
p1406
sg38
S'6.4'
p1407
sg40
S'32'
p1408
sg42
S'UTA'
p1409
sg44
S'63'
p1410
sg46
S'0.5'
p1411
sg48
S'5.8'
p1412
sg50
S'2.9'
p1413
sg52
S'12.4'
p1414
sg54
S'3.9'
p1415
sg56
S'2008-09'
p1416
sg58
S'5.8'
p1417
sg60
S'1.5'
p1418
sg62
S'.464'
p1419
sg64
S'693'
p1420
sg66
g71
sbasS'_fromYear'
p1421
S'1999'
p1422
sS'_url'
p1423
S'http://www.basketball-reference.com/players/h/harprma01.html'
p1424
sS'_perGame'
p1425
(isrc.gp1.models.PerGame
PerGame
p1426
(dp1427
g8
S'0.7'
p1428
sg10
S'0.0'
p1429
sg12
S'.461'
p1430
sS'_effectiveFieldGalPercentage'
p1431
S'.461'
p1432
sg14
S'0.4'
p1433
sg16
S'.000'
p1434
sg18
S'0.0'
p1435
sg20
S'4.4'
p1436
sg22
S'SG'
p1437
sg24
S'.764'
p1438
sg28
S'NBA'
p1439
sg30
S'0.5'
p1440
sg34
S'1.6'
p1441
sS'_fieldGoalsttempted'
p1442
S'3.8'
p1443
sg36
S'1.1'
p1444
sg38
S'2.0'
p1445
sg40
S'32'
p1446
sg42
S'UTA'
p1447
sg44
S'63'
p1448
sg46
S'0.1'
p1449
sg48
S'1.8'
p1450
sg50
S'0.9'
p1451
sg52
S'3.8'
p1452
sg54
S'1.2'
p1453
sg56
S'2008-09'
p1454
sg58
S'1.8'
p1455
sg60
S'0.5'
p1456
sg62
S'.464'
p1457
sg64
S'11.0'
p1458
sg66
g71
sbsS'_weight'
p1459
S'231'
p1460
sS'_dob'
p1461
S'31-5-1976'
p1462
sS'_salary'
p1463
(lp1464
(isrc.gp1.models.Salary
Salary
p1465
(dp1466
g42
S'Orlando Magic'
p1467
sg28
S'NBA'
p1468
sg1463
S'$900,000'
p1469
sg56
S'1998-99'
p1470
sba(isrc.gp1.models.Salary
Salary
p1471
(dp1472
g42
S'Orlando Magic'
p1473
sg28
S'NBA'
p1474
sg1463
S'$1,163,760'
p1475
sg56
S'1999-00'
p1476
sba(isrc.gp1.models.Salary
Salary
p1477
(dp1478
g42
S'Cleveland Cavaliers'
p1479
sg28
S'NBA'
p1480
sg1463
S'$1,244,880'
p1481
sg56
S'2000-01'
p1482
sba(isrc.gp1.models.Salary
Salary
p1483
(dp1484
g42
S'Philadelphia 76ers'
p1485
sg28
S'NBA'
p1486
sg1463
S'$1,908,401'
p1487
sg56
S'2001-02'
p1488
sba(isrc.gp1.models.Salary
Salary
p1489
(dp1490
g42
S'Utah Jazz'
p1491
sg28
S'NBA'
p1492
sg1463
S'$4,000,000'
p1493
sg56
S'2002-03'
p1494
sba(isrc.gp1.models.Salary
Salary
p1495
(dp1496
g42
S'Utah Jazz'
p1497
sg28
S'NBA'
p1498
sg1463
S'$4,290,000'
p1499
sg56
S'2003-04'
p1500
sba(isrc.gp1.models.Salary
Salary
p1501
(dp1502
g42
S'Utah Jazz'
p1503
sg28
S'NBA'
p1504
sg1463
S'$4,690,000'
p1505
sg56
S'2004-05'
p1506
sba(isrc.gp1.models.Salary
Salary
p1507
(dp1508
g42
S'Utah Jazz'
p1509
sg28
S'NBA'
p1510
sg1463
S'$5,020,000'
p1511
sg56
S'2005-06'
p1512
sba(isrc.gp1.models.Salary
Salary
p1513
(dp1514
g42
S'Utah Jazz'
p1515
sg28
S'NBA'
p1516
sg1463
S'$6,500,000'
p1517
sg56
S'2006-07'
p1518
sba(isrc.gp1.models.Salary
Salary
p1519
(dp1520
g42
S'Utah Jazz'
p1521
sg28
S'NBA'
p1522
sg1463
S'$6,000,000'
p1523
sg56
S'2007-08'
p1524
sba(isrc.gp1.models.Salary
Salary
p1525
(dp1526
g42
S'Utah Jazz'
p1527
sg28
S'NBA'
p1528
sg1463
S'$6,000,000'
p1529
sg56
S'2008-09'
p1530
sba(isrc.gp1.models.Salary
Salary
p1531
(dp1532
g42
S'Oklahoma City Thunder'
p1533
sg28
S'NBA'
p1534
sg1463
S'$6,500,000'
p1535
sg56
S'2009-10'
p1536
sbasg22
S'F'
p1537
sb.