(isrc.gp1.models.Player
Player
p0
(dp1
S'_experience'
p2
S'NA'
p3
sS'_totals'
p4
(lp5
(isrc.gp1.models.Totals
Totals
p6
(dp7
S'_offensiveRebounds'
p8
S'13'
p9
sS'_threePointsAttempted'
p10
S'.431'
p11
sS'_fieldGoalsPercentage'
p12
S'66'
p13
sS'_assist'
p14
S'66'
p15
sS'_threePointsPercentage'
p16
S'.431'
p17
sS'_threePoints'
p18
S'153'
p19
sS'_points'
p20
g3
sS'_position'
p21
S'SF'
p22
sS'_freeThrowsPercentage'
p23
S'16'
p24
sS'_effectiveFieldGoalPercentage'
p25
S'27'
p26
sS'_league'
p27
S'NBA'
p28
sS'_steals'
p29
S'162'
p30
sS'_fieldGoalsAttempted'
p31
S'.431'
p32
sS'_personalFouls'
p33
g3
sS'_freeThrowsAttempted'
p34
S'66'
p35
sS'_totalRebounds'
p36
S'23'
p37
sS'_age'
p38
S'23'
p39
sS'_team'
p40
S'CLE'
p41
sS'_games'
p42
S'40'
p43
sS'_blocks'
p44
g3
sS'_twoPoints'
p45
S'30'
p46
sS'_freeThrows'
p47
S'39'
p48
sS'_twoPointsAttempted'
p49
S'43'
p50
sS'_defensiveRebounds'
p51
S'8'
p52
sS'_season'
p53
S'1978-79'
p54
sS'_fieldGoals'
p55
S'153'
p56
sS'_turnOvers'
p57
g3
sS'_twoPointsPercentage'
p58
S'.698'
p59
sS'_minutesPlayed'
p60
S'66'
p61
sS'_gamesStarted'
p62
S'394'
p63
sba(isrc.gp1.models.Totals
Totals
p64
(dp65
g8
S'6'
p66
sg10
g66
sg12
S'0'
p67
sg14
g67
sg16
S'12'
p68
sg18
g67
sg20
g3
sg21
S'SF'
p69
sg23
S'4'
p70
sg25
S'2'
p71
sg27
S'NBA'
p72
sg29
S'3'
p73
sg31
S'.500'
p74
sg33
g3
sg34
g71
sg36
S'1'
p75
sg38
S'24'
p76
sg40
S'SAS'
p77
sg42
g70
sg44
g52
sg45
S'.500'
p78
sg47
S'.500'
p79
sg49
S'.500'
p80
sg51
g67
sg53
S'1979-80'
p81
sg55
S'12'
p82
sg57
S'13'
p83
sg58
g75
sg60
g66
sg62
S'30'
p84
sbasS'_college'
p85
S'Florida State University'
p86
sS'_toYear'
p87
S'1980'
p88
sS'_height'
p89
S'6-7'
p90
sS'_active'
p91
I00
sS'_shootingHand'
p92
VRight
p93
sS'_name'
p94
S'Harry Davis'
p95
sS'_per100Possessions'
p96
(lp97
(isrc.gp1.models.Per100Possession
Per100Possession
p98
(dp99
g8
S'1.5'
p100
sg10
S'.431'
p101
sg12
S'7.8'
p102
sS'_offensiveRating'
p103
g3
sg14
S'7.8'
p104
sg16
S'3.6'
p105
sg18
S'18.2'
p106
sg20
g3
sg21
S'SF'
p107
sS'_defensiveRating'
p108
g3
sg23
S'1.9'
p109
sg27
S'NBA'
p110
sg29
S'19.2'
p111
sg31
S'.431'
p112
sg33
g3
sg34
S'7.8'
p113
sg36
S'2.7'
p114
sg38
S'23'
p115
sg40
S'CLE'
p116
sg42
S'40'
p117
sg44
S'98'
p118
sg45
S'5.1'
p119
sg47
S'4.6'
p120
sg49
S'.698'
p121
sg51
S'0.9'
p122
sg53
S'1978-79'
p123
sg55
S'18.2'
p124
sg57
S'108'
p125
sg58
S'3.2'
p126
sg60
S'7.8'
p127
sg62
S'394'
p128
sba(isrc.gp1.models.Per100Possession
Per100Possession
p129
(dp130
g8
S'8.8'
p131
sg10
S'8.8'
p132
sg12
S'0.0'
p133
sg103
g3
sg14
S'0.0'
p134
sg16
S'17.5'
p135
sg18
S'0.0'
p136
sg20
S'110'
p137
sg21
S'SF'
p138
sg108
g3
sg23
S'5.8'
p139
sg27
S'NBA'
p140
sg29
S'4.4'
p141
sg31
S'.500'
p142
sg33
S'87'
p143
sg34
S'2.9'
p144
sg36
S'1.5'
p145
sg38
S'24'
p146
sg40
S'SAS'
p147
sg42
g70
sg44
S'11.7'
p148
sg45
S'.500'
p149
sg47
S'.500'
p150
sg49
S'1.5'
p151
sg51
S'0.0'
p152
sg53
S'1979-80'
p153
sg55
S'17.5'
p154
sg57
S'19.0'
p155
sg58
S'2.9'
p156
sg60
S'8.8'
p157
sg62
S'30'
p158
sbasS'_advanced'
p159
(lp160
(isrc.gp1.models.Advanced
Advanced
p161
(dp162
S'_offensiveReboundPercentage'
p163
S'11.5'
p164
sS'_turnOverPercentage'
p165
S'19.7'
p166
sS'_winSharesPer48Minutes'
p167
S'-2.7'
p168
sS'_stealPercentage'
p169
S'1.1'
p170
sS'_usagePercentage'
p171
S'0.1'
p172
sS'_totalReboundsPercentage'
p173
S'5.5'
p174
sS'_defensiveBoxPlusMinus'
p175
S'-4.8'
p176
sg21
S'SF'
p177
sS'_valueOverReplacementPlayer'
p178
g3
sS'_trueShootingPercentage'
p179
S'.471'
p180
sS'_defensiveReboundPercentage'
p181
S'9.2'
p182
sS'_freeThrowsAttempRate'
p183
S'7.1'
p184
sS'_threePointsAttempRate'
p185
S'.281'
p186
sg27
S'NBA'
p187
sS'_offensiveBoxPlusMinues'
p188
S'-2.2'
p189
sS'_assistPercentage'
p190
S'1.5'
p191
sS'_defensiveWinShares'
p192
S'0.3'
p193
sg38
S'23'
p194
sg40
S'CLE'
p195
sg42
S'40'
p196
sS'_blockPercentage'
p197
S'11.8'
p198
sS'_playerEfficiencyRating'
p199
S'10.6'
p200
sS'_offensiveWinShares'
p201
S'0.2'
p202
sg60
S'394'
p203
sS'_boxPlusMinus'
p204
S'-0.3'
p205
sg53
S'1978-79'
p206
sS'_winShares'
p207
S'.038'
p208
sba(isrc.gp1.models.Advanced
Advanced
p209
(dp210
g163
S'7.3'
p211
sg165
S'18.9'
p212
sg167
S'-0.030'
p213
sg169
S'1.5'
p214
sg171
S'20.0'
p215
sg173
S'10.7'
p216
sg175
S'-5.8'
p217
sg21
S'SF'
p218
sg178
S'-0.1'
p219
sg179
S'.505'
p220
sg181
S'14.0'
p221
sg183
S'.167'
p222
sg185
S'.000'
p223
sg27
S'NBA'
p224
sg188
S'-6.2'
p225
sg190
S'0.0'
p226
sg192
S'0.0'
p227
sg38
S'24'
p228
sg40
S'SAS'
p229
sg42
g70
sg197
S'0.0'
p230
sg199
S'5.8'
p231
sg201
S'0.0'
p232
sg60
S'30'
p233
sg204
S'-12.0'
p234
sg53
S'1979-80'
p235
sg207
S'0.0'
p236
sbasS'_per36Minutes'
p237
(lp238
(isrc.gp1.models.Per36Minutes
Per36Minutes
p239
(dp240
g8
S'1.2'
p241
sg10
S'.431'
p242
sg12
S'6.0'
p243
sg14
S'6.0'
p244
sg16
S'2.7'
p245
sg18
S'14.0'
p246
sg20
g3
sg21
S'SF'
p247
sg23
S'1.5'
p248
sg27
S'NBA'
p249
sg29
S'14.8'
p250
sg31
S'.431'
p251
sg33
g3
sg34
S'6.0'
p252
sg36
S'2.1'
p253
sg38
S'23'
p254
sg40
S'CLE'
p255
sg42
S'40'
p256
sg44
g3
sg45
S'3.9'
p257
sg47
S'3.6'
p258
sg49
S'.698'
p259
sg51
S'0.7'
p260
sg53
S'1978-79'
p261
sg55
S'14.0'
p262
sg57
g3
sg58
S'2.5'
p263
sg60
S'6.0'
p264
sg62
S'394'
p265
sba(isrc.gp1.models.Per36Minutes
Per36Minutes
p266
(dp267
g8
S'7.2'
p268
sg10
S'7.2'
p269
sg12
S'0.0'
p270
sg14
S'0.0'
p271
sg16
S'14.4'
p272
sg18
S'0.0'
p273
sg20
g3
sg21
S'SF'
p274
sg23
S'4.8'
p275
sg27
S'NBA'
p276
sg29
S'3.6'
p277
sg31
S'.500'
p278
sg33
g3
sg34
S'2.4'
p279
sg36
S'1.2'
p280
sg38
S'24'
p281
sg40
S'SAS'
p282
sg42
g70
sg44
S'9.6'
p283
sg45
S'.500'
p284
sg47
S'.500'
p285
sg49
S'1.2'
p286
sg51
S'0.0'
p287
sg53
S'1979-80'
p288
sg55
S'14.4'
p289
sg57
S'15.6'
p290
sg58
S'2.4'
p291
sg60
S'7.2'
p292
sg62
S'30'
p293
sbasS'_fromYear'
p294
S'1979'
p295
sS'_url'
p296
S'http://www.basketball-reference.com/players/d/davisha01.html'
p297
sS'_perGame'
p298
(isrc.gp1.models.PerGame
PerGame
p299
(dp300
g8
S'1.5'
p301
sg10
S'1.5'
p302
sg12
S'0.0'
p303
sS'_effectiveFieldGalPercentage'
p304
S'0.5'
p305
sg14
S'0.0'
p306
sg16
S'3.0'
p307
sg18
S'0.0'
p308
sg20
g3
sg21
S'SF'
p309
sg23
S'1.0'
p310
sg27
S'NBA'
p311
sg29
S'0.8'
p312
sg33
g3
sS'_fieldGoalsttempted'
p313
S'.500'
p314
sg34
S'0.5'
p315
sg36
S'0.3'
p316
sg38
S'24'
p317
sg40
S'SAS'
p318
sg42
g70
sg44
S'2.0'
p319
sg45
S'.500'
p320
sg47
S'.500'
p321
sg49
S'.500'
p322
sg51
S'0.0'
p323
sg53
S'1979-80'
p324
sg55
S'3.0'
p325
sg57
S'3.3'
p326
sg58
S'0.3'
p327
sg60
S'1.5'
p328
sg62
S'7.5'
p329
sbsS'_weight'
p330
S'220'
p331
sS'_dob'
p332
S'27-1-1956'
p333
sS'_salary'
p334
(lp335
sg21
S'F'
p336
sb.