(isrc.gp1.models.Player
Player
p0
(dp1
S'_experience'
p2
S'NA'
p3
sS'_totals'
p4
(lp5
(isrc.gp1.models.Totals
Totals
p6
(dp7
S'_offensiveRebounds'
p8
S'0'
p9
sS'_threePointsAttempted'
p10
S'2'
p11
sS'_fieldGoalsPercentage'
p12
S'.250'
p13
sS'_assist'
p14
g9
sS'_threePointsPercentage'
p15
S'.000'
p16
sS'_threePoints'
p17
g9
sS'_points'
p18
S'10'
p19
sS'_position'
p20
S'SG'
p21
sS'_freeThrowsPercentage'
p22
S'.500'
p23
sS'_effectiveFieldGoalPercentage'
p24
S'.250'
p25
sS'_league'
p26
S'NBA'
p27
sS'_steals'
p28
S'1'
p29
sS'_fieldGoalsAttempted'
p30
S'16'
p31
sS'_personalFouls'
p32
S'5'
p33
sS'_freeThrowsAttempted'
p34
S'4'
p35
sS'_totalRebounds'
p36
g29
sS'_age'
p37
S'23'
p38
sS'_team'
p39
S'PHI'
p40
sS'_games'
p41
S'6'
p42
sS'_blocks'
p43
g9
sS'_twoPoints'
p44
g35
sS'_freeThrows'
p45
g11
sS'_twoPointsAttempted'
p46
S'14'
p47
sS'_defensiveRebounds'
p48
g29
sS'_season'
p49
S'1990-91'
p50
sS'_fieldGoals'
p51
g35
sS'_turnOvers'
p52
S'3'
p53
sS'_twoPointsPercentage'
p54
S'.286'
p55
sS'_minutesPlayed'
p56
S'41'
p57
sS'_gamesStarted'
p58
g9
sba(isrc.gp1.models.Totals
Totals
p59
(dp60
g8
g3
sg10
g3
sg12
g3
sg14
g3
sg15
g3
sg17
g3
sg18
g3
sg20
g3
sg22
g3
sg24
g3
sg26
g3
sg28
g3
sg30
g3
sg32
g3
sg34
g3
sg36
g3
sg37
S'24'
p61
sg39
S'Did Not Play\xc2\xa0(other pro league\xe2\x80\x94CBA)'
p62
sg41
g3
sg43
g3
sg44
g3
sg45
g3
sg46
g3
sg48
g3
sg49
S'1991-92'
p63
sg51
g3
sg52
g3
sg54
g3
sg56
g3
sg58
g3
sba(isrc.gp1.models.Totals
Totals
p64
(dp65
g8
g3
sg10
g3
sg12
g3
sg14
g3
sg15
g3
sg17
g3
sg18
g3
sg20
g3
sg22
g3
sg24
g3
sg26
g3
sg28
g3
sg30
g3
sg32
g3
sg34
g3
sg36
g3
sg37
S'25'
p66
sg39
S'Did Not Play\xc2\xa0(other pro league\xe2\x80\x94CBA)'
p67
sg41
g3
sg43
g3
sg44
g3
sg45
g3
sg46
g3
sg48
g3
sg49
S'1992-93'
p68
sg51
g3
sg52
g3
sg54
g3
sg56
g3
sg58
g3
sba(isrc.gp1.models.Totals
Totals
p69
(dp70
g8
g53
sg10
S'9'
p71
sg12
S'.290'
p72
sg14
S'8'
p73
sg15
S'.333'
p74
sg17
g53
sg18
S'44'
p75
sg20
S'SG'
p76
sg22
S'.920'
p77
sg24
S'.339'
p78
sg26
S'NBA'
p79
sg28
g35
sg30
S'31'
p80
sg32
g73
sg34
S'25'
p81
sg36
S'10'
p82
sg37
S'26'
p83
sg39
S'BOS'
p84
sg41
g33
sg43
g9
sg44
g42
sg45
S'23'
p85
sg46
S'22'
p86
sg48
S'7'
p87
sg49
S'1993-94'
p88
sg51
g71
sg52
g42
sg54
S'.273'
p89
sg56
S'88'
p90
sg58
g9
sba(isrc.gp1.models.Totals
Totals
p91
(dp92
g8
g9
sg10
g29
sg12
S'.375'
p93
sg14
g9
sg15
S'.000'
p94
sg17
g9
sg18
S'14'
p95
sg20
S'SG'
p96
sg22
S'.889'
p97
sg24
S'.375'
p98
sg26
S'NBA'
p99
sg28
g9
sg30
g73
sg32
g11
sg34
g71
sg36
g9
sg37
S'27'
p100
sg39
S'BOS'
p101
sg41
g53
sg43
g9
sg44
g53
sg45
g73
sg46
g87
sg48
g9
sg49
S'1994-95'
p102
sg51
g53
sg52
g29
sg54
S'.429'
p103
sg56
S'18'
p104
sg58
g9
sbasS'_college'
p105
S'University of New Orleans'
p106
sS'_toYear'
p107
S'1995'
p108
sS'_height'
p109
S'6-3'
p110
sS'_active'
p111
I00
sS'_shootingHand'
p112
VRight
p113
sS'_name'
p114
S'Tony Harris'
p115
sS'_per100Possessions'
p116
(lp117
(isrc.gp1.models.Per100Possession
Per100Possession
p118
(dp119
g8
S'0.0'
p120
sg10
S'2.4'
p121
sg12
S'.250'
p122
sS'_offensiveRating'
p123
S'53'
p124
sg14
S'0.0'
p125
sg15
S'.000'
p126
sg17
S'0.0'
p127
sg18
S'12.2'
p128
sg20
S'SG'
p129
sS'_defensiveRating'
p130
S'114'
p131
sg22
S'.500'
p132
sg26
S'NBA'
p133
sg28
S'1.2'
p134
sg30
S'19.6'
p135
sg32
S'6.1'
p136
sg34
S'4.9'
p137
sg36
S'1.2'
p138
sg37
S'23'
p139
sg39
S'PHI'
p140
sg41
g42
sg43
S'0.0'
p141
sg44
S'4.9'
p142
sg45
S'2.4'
p143
sg46
S'17.1'
p144
sg48
S'1.2'
p145
sg49
S'1990-91'
p146
sg51
S'4.9'
p147
sg52
S'3.7'
p148
sg54
S'.286'
p149
sg56
S'41'
p150
sg58
g9
sba(isrc.gp1.models.Per100Possession
Per100Possession
p151
(dp152
g8
S'1.7'
p153
sg10
S'5.1'
p154
sg12
S'.290'
p155
sg123
S'109'
p156
sg14
S'4.6'
p157
sg15
S'.333'
p158
sg17
S'1.7'
p159
sg18
S'25.1'
p160
sg20
S'SG'
p161
sg130
S'110'
p162
sg22
S'.920'
p163
sg26
S'NBA'
p164
sg28
S'2.3'
p165
sg30
S'17.7'
p166
sg32
S'4.6'
p167
sg34
S'14.3'
p168
sg36
S'5.7'
p169
sg37
S'26'
p170
sg39
S'BOS'
p171
sg41
g33
sg43
S'0.0'
p172
sg44
S'3.4'
p173
sg45
S'13.1'
p174
sg46
S'12.5'
p175
sg48
S'4.0'
p176
sg49
S'1993-94'
p177
sg51
S'5.1'
p178
sg52
S'3.4'
p179
sg54
S'.273'
p180
sg56
S'88'
p181
sg58
g9
sba(isrc.gp1.models.Per100Possession
Per100Possession
p182
(dp183
g8
S'0.0'
p184
sg10
S'2.8'
p185
sg12
S'.375'
p186
sg123
S'122'
p187
sg14
S'0.0'
p188
sg15
S'.000'
p189
sg17
S'0.0'
p190
sg18
S'39.7'
p191
sg20
S'SG'
p192
sg130
S'119'
p193
sg22
S'.889'
p194
sg26
S'NBA'
p195
sg28
S'0.0'
p196
sg30
S'22.7'
p197
sg32
S'5.7'
p198
sg34
S'25.5'
p199
sg36
S'0.0'
p200
sg37
S'27'
p201
sg39
S'BOS'
p202
sg41
g53
sg43
S'0.0'
p203
sg44
S'8.5'
p204
sg45
S'22.7'
p205
sg46
S'19.9'
p206
sg48
S'0.0'
p207
sg49
S'1994-95'
p208
sg51
S'8.5'
p209
sg52
S'2.8'
p210
sg54
S'.429'
p211
sg56
S'18'
p212
sg58
g9
sbasS'_advanced'
p213
(lp214
(isrc.gp1.models.Advanced
Advanced
p215
(dp216
S'_offensiveReboundPercentage'
p217
S'0.0'
p218
sS'_turnOverPercentage'
p219
S'14.5'
p220
sS'_winSharesPer48Minutes'
p221
S'-0.248'
p222
sS'_stealPercentage'
p223
S'1.2'
p224
sS'_usagePercentage'
p225
S'22.1'
p226
sS'_totalReboundsPercentage'
p227
S'1.4'
p228
sS'_defensiveBoxPlusMinus'
p229
S'-4.8'
p230
sg20
S'SG'
p231
sS'_valueOverReplacementPlayer'
p232
S'-0.2'
p233
sS'_trueShootingPercentage'
p234
S'.282'
p235
sS'_defensiveReboundPercentage'
p236
S'2.7'
p237
sS'_freeThrowsAttempRate'
p238
S'.250'
p239
sS'_threePointsAttempRate'
p240
S'.125'
p241
sg26
S'NBA'
p242
sS'_offensiveBoxPlusMinues'
p243
S'-12.5'
p244
sS'_assistPercentage'
p245
S'0.0'
p246
sS'_defensiveWinShares'
p247
S'0.0'
p248
sg37
S'23'
p249
sg39
S'PHI'
p250
sg41
g42
sS'_blockPercentage'
p251
S'0.0'
p252
sS'_playerEfficiencyRating'
p253
S'-5.0'
p254
sS'_offensiveWinShares'
p255
S'-0.2'
p256
sg56
S'41'
p257
sS'_boxPlusMinus'
p258
S'-17.4'
p259
sg49
S'1990-91'
p260
sS'_winShares'
p261
S'-0.2'
p262
sba(isrc.gp1.models.Advanced
Advanced
p263
(dp264
g217
S'3.8'
p265
sg219
S'12.5'
p266
sg221
S'.106'
p267
sg223
S'2.3'
p268
sg225
S'23.7'
p269
sg227
S'6.4'
p270
sg229
S'-2.5'
p271
sg20
S'SG'
p272
sg232
S'0.0'
p273
sg234
S'.524'
p274
sg236
S'9.0'
p275
sg238
S'.806'
p276
sg240
S'.290'
p277
sg26
S'NBA'
p278
sg243
S'0.1'
p279
sg245
S'12.4'
p280
sg247
S'0.1'
p281
sg37
S'26'
p282
sg39
S'BOS'
p283
sg41
g33
sg251
S'0.0'
p284
sg253
S'14.9'
p285
sg255
S'0.1'
p286
sg56
S'88'
p287
sg258
S'-2.4'
p288
sg49
S'1993-94'
p289
sg261
S'0.2'
p290
sba(isrc.gp1.models.Advanced
Advanced
p291
(dp292
g217
S'0.0'
p293
sg219
S'7.7'
p294
sg221
S'.172'
p295
sg223
S'0.0'
p296
sg225
S'31.2'
p297
sg227
S'0.0'
p298
sg229
S'-8.8'
p299
sg20
S'SG'
p300
sg232
S'0.0'
p301
sg234
S'.585'
p302
sg236
S'0.0'
p303
sg238
S'1.125'
p304
sg240
S'.125'
p305
sg26
S'NBA'
p306
sg243
S'-1.5'
p307
sg245
S'0.0'
p308
sg247
S'0.0'
p309
sg37
S'27'
p310
sg39
S'BOS'
p311
sg41
g53
sg251
S'0.0'
p312
sg253
S'17.6'
p313
sg255
S'0.1'
p314
sg56
S'18'
p315
sg258
S'-10.4'
p316
sg49
S'1994-95'
p317
sg261
S'0.1'
p318
sbasS'_per36Minutes'
p319
(lp320
(isrc.gp1.models.Per36Minutes
Per36Minutes
p321
(dp322
g8
S'0.0'
p323
sg10
S'1.8'
p324
sg12
S'.250'
p325
sg14
S'0.0'
p326
sg15
S'.000'
p327
sg17
S'0.0'
p328
sg18
S'8.8'
p329
sg20
S'SG'
p330
sg22
S'.500'
p331
sg26
S'NBA'
p332
sg28
S'0.9'
p333
sg30
S'14.0'
p334
sg32
S'4.4'
p335
sg34
S'3.5'
p336
sg36
S'0.9'
p337
sg37
S'23'
p338
sg39
S'PHI'
p339
sg41
g42
sg43
S'0.0'
p340
sg44
S'3.5'
p341
sg45
S'1.8'
p342
sg46
S'12.3'
p343
sg48
S'0.9'
p344
sg49
S'1990-91'
p345
sg51
S'3.5'
p346
sg52
S'2.6'
p347
sg54
S'.286'
p348
sg56
S'41'
p349
sg58
g9
sba(isrc.gp1.models.Per36Minutes
Per36Minutes
p350
(dp351
g8
S'1.2'
p352
sg10
S'3.7'
p353
sg12
S'.290'
p354
sg14
S'3.3'
p355
sg15
S'.333'
p356
sg17
S'1.2'
p357
sg18
S'18.0'
p358
sg20
S'SG'
p359
sg22
S'.920'
p360
sg26
S'NBA'
p361
sg28
S'1.6'
p362
sg30
S'12.7'
p363
sg32
S'3.3'
p364
sg34
S'10.2'
p365
sg36
S'4.1'
p366
sg37
S'26'
p367
sg39
S'BOS'
p368
sg41
g33
sg43
S'0.0'
p369
sg44
S'2.5'
p370
sg45
S'9.4'
p371
sg46
S'9.0'
p372
sg48
S'2.9'
p373
sg49
S'1993-94'
p374
sg51
S'3.7'
p375
sg52
S'2.5'
p376
sg54
S'.273'
p377
sg56
S'88'
p378
sg58
g9
sba(isrc.gp1.models.Per36Minutes
Per36Minutes
p379
(dp380
g8
S'0.0'
p381
sg10
S'2.0'
p382
sg12
S'.375'
p383
sg14
S'0.0'
p384
sg15
S'.000'
p385
sg17
S'0.0'
p386
sg18
S'28.0'
p387
sg20
S'SG'
p388
sg22
S'.889'
p389
sg26
S'NBA'
p390
sg28
S'0.0'
p391
sg30
S'16.0'
p392
sg32
S'4.0'
p393
sg34
S'18.0'
p394
sg36
S'0.0'
p395
sg37
S'27'
p396
sg39
S'BOS'
p397
sg41
g53
sg43
S'0.0'
p398
sg44
S'6.0'
p399
sg45
S'16.0'
p400
sg46
S'14.0'
p401
sg48
S'0.0'
p402
sg49
S'1994-95'
p403
sg51
S'6.0'
p404
sg52
S'2.0'
p405
sg54
S'.429'
p406
sg56
S'18'
p407
sg58
g9
sbasS'_fromYear'
p408
S'1991'
p409
sS'_url'
p410
S'http://www.basketball-reference.com/players/h/harrito01.html'
p411
sS'_perGame'
p412
(isrc.gp1.models.PerGame
PerGame
p413
(dp414
g8
S'0.0'
p415
sg10
S'0.3'
p416
sg12
S'.375'
p417
sS'_effectiveFieldGalPercentage'
p418
S'.375'
p419
sg14
S'0.0'
p420
sg15
S'.000'
p421
sg17
S'0.0'
p422
sg18
S'4.7'
p423
sg20
S'SG'
p424
sg22
S'.889'
p425
sg26
S'NBA'
p426
sg28
S'0.0'
p427
sg32
S'0.7'
p428
sS'_fieldGoalsttempted'
p429
S'2.7'
p430
sg34
S'3.0'
p431
sg36
S'0.0'
p432
sg37
S'27'
p433
sg39
S'BOS'
p434
sg41
g53
sg43
S'0.0'
p435
sg44
S'1.0'
p436
sg45
S'2.7'
p437
sg46
S'2.3'
p438
sg48
S'0.0'
p439
sg49
S'1994-95'
p440
sg51
S'1.0'
p441
sg52
S'0.3'
p442
sg54
S'.429'
p443
sg56
S'6.0'
p444
sg58
g9
sbsS'_weight'
p445
S'190'
p446
sS'_dob'
p447
S'13-5-1967'
p448
sS'_salary'
p449
(lp450
(isrc.gp1.models.Salary
Salary
p451
(dp452
g39
S'Boston Celtics'
p453
sg26
S'NBA'
p454
sg449
S'$150,000'
p455
sg49
S'1994-95'
p456
sbasg20
S'G'
p457
sb.