(isrc.gp1.models.Player
Player
p0
(dp1
S'_experience'
p2
V3
p3
sS'_totals'
p4
(lp5
(isrc.gp1.models.Totals
Totals
p6
(dp7
S'_offensiveRebounds'
p8
S'0'
p9
sS'_threePointsAttempted'
p10
g9
sS'_fieldGoalsPercentage'
p11
g9
sS'_assist'
p12
g9
sS'_threePointsPercentage'
p13
g9
sS'_threePoints'
p14
g9
sS'_points'
p15
S'NA'
p16
sS'_position'
p17
S'C'
p18
sS'_freeThrowsPercentage'
p19
g9
sS'_effectiveFieldGoalPercentage'
p20
g9
sS'_league'
p21
S'NBA'
p22
sS'_steals'
p23
g16
sS'_fieldGoalsAttempted'
p24
g9
sS'_personalFouls'
p25
g16
sS'_freeThrowsAttempted'
p26
g9
sS'_totalRebounds'
p27
S'2'
p28
sS'_age'
p29
S'21'
p30
sS'_team'
p31
S'SAC'
p32
sS'_games'
p33
S'1'
p34
sS'_blocks'
p35
g16
sS'_twoPoints'
p36
g9
sS'_freeThrows'
p37
g9
sS'_twoPointsAttempted'
p38
g9
sS'_defensiveRebounds'
p39
g9
sS'_season'
p40
S'2010-11'
p41
sS'_fieldGoals'
p42
g9
sS'_turnOvers'
p43
g16
sS'_twoPointsPercentage'
p44
g9
sS'_minutesPlayed'
p45
g28
sS'_gamesStarted'
p46
g9
sba(isrc.gp1.models.Totals
Totals
p47
(dp48
g8
S'23'
p49
sg10
g9
sg11
S'.444'
p50
sg12
S'3'
p51
sg13
S'12'
p52
sg14
g9
sg15
g16
sg17
g18
sg19
S'16'
p53
sg20
S'5'
p54
sg21
S'NBA'
p55
sg23
S'15'
p56
sg24
S'27'
p57
sg25
S'29'
p58
sg26
S'.417'
p59
sg27
g9
sg29
S'22'
p60
sg31
S'SAC'
p61
sg33
S'18'
p62
sg35
g54
sg36
S'27'
p63
sg37
S'12'
p64
sg38
S'.444'
p65
sg39
S'39'
p66
sg40
S'2011-12'
p67
sg42
S'12'
p68
sg43
S'12'
p69
sg44
S'.444'
p70
sg45
S'109'
p71
sg46
g9
sba(isrc.gp1.models.Totals
Totals
p72
(dp73
g8
g16
sg10
g16
sg11
g16
sg12
g16
sg13
g16
sg14
g16
sg15
g16
sg17
g16
sg19
g16
sg20
g16
sg21
g16
sg23
g16
sg24
g16
sg25
g16
sg26
g16
sg27
g16
sg29
S'23'
p74
sg31
S'Did Not Play'
p75
sg33
g16
sg35
g16
sg36
g16
sg37
g16
sg38
g16
sg39
g16
sg40
S'2012-13'
p76
sg42
g16
sg43
g16
sg44
g16
sg45
g16
sg46
g16
sba(isrc.gp1.models.Totals
Totals
p77
(dp78
g8
g16
sg10
g16
sg11
g16
sg12
g16
sg13
g16
sg14
g16
sg15
g16
sg17
g16
sg19
g16
sg20
g16
sg21
g16
sg23
g16
sg24
g16
sg25
g16
sg26
g16
sg27
g16
sg29
S'24'
p79
sg31
S'Did Not Play'
p80
sg33
g16
sg35
g16
sg36
g16
sg37
g16
sg38
g16
sg39
g16
sg40
S'2013-14'
p81
sg42
g16
sg43
g16
sg44
g16
sg45
g16
sg46
g16
sba(isrc.gp1.models.Totals
Totals
p82
(dp83
g8
S'337'
p84
sg10
g9
sg11
S'.628'
p85
sg12
S'27'
p86
sg13
S'243'
p87
sg14
g9
sg15
g16
sg17
g18
sg19
S'145'
p88
sg20
S'78'
p89
sg21
S'NBA'
p90
sg23
S'123'
p91
sg24
S'387'
p92
sg25
S'564'
p93
sg26
S'.500'
p94
sg27
S'6'
p95
sg29
S'25'
p96
sg31
S'MIA'
p97
sg33
S'48'
p98
sg35
S'58'
p99
sg36
S'387'
p100
sg37
S'156'
p101
sg38
S'.628'
p102
sg39
S'482'
p103
sg40
S'2014-15'
p104
sg42
S'243'
p105
sg43
S'129'
p106
sg44
S'.628'
p107
sg45
S'1142'
p108
sg46
S'32'
p109
sba(isrc.gp1.models.Totals
Totals
p110
(dp111
g8
S'344'
p112
sg10
g9
sg11
S'.616'
p113
sg12
S'24'
p114
sg13
S'220'
p115
sg14
g9
sg15
g16
sg17
g18
sg19
S'134'
p116
sg20
S'85'
p117
sg21
S'NBA'
p118
sg23
S'173'
p119
sg24
S'357'
p120
sg25
S'525'
p121
sg26
S'.545'
p122
sg27
S'15'
p123
sg29
S'26'
p124
sg31
S'MIA'
p125
sg33
S'43'
p126
sg35
S'88'
p127
sg36
S'357'
p128
sg37
S'156'
p129
sg38
S'.616'
p130
sg39
S'478'
p131
sg40
S'2015-16'
p132
sg42
S'220'
p133
sg43
S'108'
p134
sg44
S'.616'
p135
sg45
S'1228'
p136
sg46
S'40'
p137
sbasS'_college'
p138
S'Marshall University'
p139
sS'_toYear'
p140
S'2016'
p141
sS'_height'
p142
S'7-0'
p143
sS'_active'
p144
I01
sS'_shootingHand'
p145
VRight
p146
sS'_name'
p147
S'Hassan Whiteside'
p148
sS'_per100Possessions'
p149
(lp150
(isrc.gp1.models.Per100Possession
Per100Possession
p151
(dp152
g8
S'0.0'
p153
sg10
S'0.0'
p154
sg11
S'0.0'
p155
sS'_offensiveRating'
p156
g16
sg12
S'50.4'
p157
sg13
S'0.0'
p158
sg14
S'0.0'
p159
sg15
g16
sg17
g18
sS'_defensiveRating'
p160
g16
sg19
S'0.0'
p161
sg21
S'NBA'
p162
sg23
S'0.0'
p163
sg24
S'0.0'
p164
sg25
g16
sg26
S'0.0'
p165
sg27
S'0.0'
p166
sg29
S'21'
p167
sg31
S'SAC'
p168
sg33
g34
sg35
S'115'
p169
sg36
S'0.0'
p170
sg37
S'0.0'
p171
sg38
S'0.0'
p172
sg39
S'0.0'
p173
sg40
S'2010-11'
p174
sg42
S'0.0'
p175
sg43
g16
sg44
S'0.0'
p176
sg45
g28
sg46
g9
sba(isrc.gp1.models.Per100Possession
Per100Possession
p177
(dp178
g8
S'10.7'
p179
sg10
S'0.0'
p180
sg11
S'.444'
p181
sg156
S'102'
p182
sg12
S'1.4'
p183
sg13
S'5.6'
p184
sg14
S'0.0'
p185
sg15
S'98'
p186
sg17
g18
sg160
g16
sg19
S'7.4'
p187
sg21
S'NBA'
p188
sg23
S'7.0'
p189
sg24
S'12.6'
p190
sg25
S'13.5'
p191
sg26
S'.417'
p192
sg27
S'0.0'
p193
sg29
S'22'
p194
sg31
S'SAC'
p195
sg33
S'18'
p196
sg35
S'2.3'
p197
sg36
S'12.6'
p198
sg37
S'5.6'
p199
sg38
S'.444'
p200
sg39
S'18.1'
p201
sg40
S'2011-12'
p202
sg42
S'5.6'
p203
sg43
S'5.6'
p204
sg44
S'2.3'
p205
sg45
S'109'
p206
sg46
g9
sba(isrc.gp1.models.Per100Possession
Per100Possession
p207
(dp208
g8
S'15.6'
p209
sg10
S'0.0'
p210
sg11
S'.628'
p211
sg156
S'97'
p212
sg12
S'1.2'
p213
sg13
S'11.2'
p214
sg14
S'0.0'
p215
sg15
S'117'
p216
sg17
g18
sg160
g16
sg19
S'6.7'
p217
sg21
S'NBA'
p218
sg23
S'5.7'
p219
sg24
S'17.9'
p220
sg25
S'26.1'
p221
sg26
S'.500'
p222
sg27
S'0.3'
p223
sg29
S'25'
p224
sg31
S'MIA'
p225
sg33
S'48'
p226
sg35
S'2.7'
p227
sg36
S'17.9'
p228
sg37
S'7.2'
p229
sg38
S'.628'
p230
sg39
S'22.3'
p231
sg40
S'2014-15'
p232
sg42
S'11.2'
p233
sg43
S'6.0'
p234
sg44
S'3.6'
p235
sg45
S'1142'
p236
sg46
S'32'
p237
sba(isrc.gp1.models.Per100Possession
Per100Possession
p238
(dp239
g8
S'14.5'
p240
sg10
S'0.0'
p241
sg11
S'.616'
p242
sg156
S'93'
p243
sg12
S'1.0'
p244
sg13
S'9.3'
p245
sg14
S'0.0'
p246
sg15
S'110'
p247
sg17
g18
sg160
g16
sg19
S'5.7'
p248
sg21
S'NBA'
p249
sg23
S'7.3'
p250
sg24
S'15.1'
p251
sg25
S'22.2'
p252
sg26
S'.545'
p253
sg27
S'0.6'
p254
sg29
S'26'
p255
sg31
S'MIA'
p256
sg33
S'43'
p257
sg35
S'3.7'
p258
sg36
S'15.1'
p259
sg37
S'6.6'
p260
sg38
S'.616'
p261
sg39
S'20.2'
p262
sg40
S'2015-16'
p263
sg42
S'9.3'
p264
sg43
S'4.6'
p265
sg44
S'3.6'
p266
sg45
S'1228'
p267
sg46
S'40'
p268
sbasS'_advanced'
p269
(lp270
(isrc.gp1.models.Advanced
Advanced
p271
(dp272
S'_offensiveReboundPercentage'
p273
S'0.0'
p274
sS'_turnOverPercentage'
p275
S'0.0'
p276
sS'_winSharesPer48Minutes'
p277
S'0.0'
p278
sS'_stealPercentage'
p279
S'0.0'
p280
sS'_usagePercentage'
p281
S'.007'
p282
sS'_totalReboundsPercentage'
p283
S'0.0'
p284
sS'_defensiveBoxPlusMinus'
p285
g16
sg17
g18
sS'_valueOverReplacementPlayer'
p286
g16
sS'_trueShootingPercentage'
p287
S'0.0'
p288
sS'_defensiveReboundPercentage'
p289
S'0.0'
p290
sS'_freeThrowsAttempRate'
p291
S'0.0'
p292
sS'_threePointsAttempRate'
p293
S'0.0'
p294
sg21
S'NBA'
p295
sS'_offensiveBoxPlusMinues'
p296
g16
sS'_assistPercentage'
p297
S'0.0'
p298
sS'_defensiveWinShares'
p299
S'0.0'
p300
sg29
S'21'
p301
sg31
S'SAC'
p302
sg33
g34
sS'_blockPercentage'
p303
S'0.0'
p304
sS'_playerEfficiencyRating'
p305
S'-17.9'
p306
sS'_offensiveWinShares'
p307
S'-6.5'
p308
sg45
g28
sS'_boxPlusMinus'
p309
g16
sg40
S'2010-11'
p310
sS'_winShares'
p311
S'-6.5'
p312
sba(isrc.gp1.models.Advanced
Advanced
p313
(dp314
g273
S'15.4'
p315
sg275
S'13.4'
p316
sg277
S'.073'
p317
sg279
S'1.4'
p318
sg281
S'14.8'
p319
sg283
S'19.6'
p320
sg285
S'-0.3'
p321
sg17
g18
sg286
S'-0.1'
p322
sg287
S'.449'
p323
sg289
S'24.3'
p324
sg291
S'.444'
p325
sg293
S'.000'
p326
sg21
S'NBA'
p327
sg296
S'-6.4'
p328
sg297
S'0.0'
p329
sg299
S'0.2'
p330
sg29
S'22'
p331
sg31
S'SAC'
p332
sg33
S'18'
p333
sg303
S'10.0'
p334
sg305
S'16.2'
p335
sg307
S'0.0'
p336
sg45
S'109'
p337
sg309
S'-6.7'
p338
sg40
S'2011-12'
p339
sg311
S'0.2'
p340
sba(isrc.gp1.models.Advanced
Advanced
p341
(dp342
g273
S'15.6'
p343
sg275
S'11.3'
p344
sg277
S'.221'
p345
sg279
S'1.2'
p346
sg281
S'21.1'
p347
sg283
S'25.4'
p348
sg285
S'0.7'
p349
sg17
g18
sg286
S'0.3'
p350
sg287
S'.619'
p351
sg289
S'34.7'
p352
sg291
S'.403'
p353
sg293
S'.000'
p354
sg21
S'NBA'
p355
sg296
S'-1.6'
p356
sg297
S'1.0'
p357
sg299
S'2.4'
p358
sg29
S'25'
p359
sg31
S'MIA'
p360
sg33
S'48'
p361
sg303
S'9.2'
p362
sg305
S'26.2'
p363
sg307
S'2.8'
p364
sg45
S'1142'
p365
sg309
S'-0.9'
p366
sg40
S'2014-15'
p367
sg311
S'5.3'
p368
sba(isrc.gp1.models.Advanced
Advanced
p369
(dp370
g273
S'12.8'
p371
sg275
S'17.1'
p372
sg277
S'.198'
p373
sg279
S'1.0'
p374
sg281
S'19.5'
p375
sg283
S'22.2'
p376
sg285
S'4.4'
p377
sg17
g18
sg286
S'1.2'
p378
sg287
S'.617'
p379
sg289
S'31.1'
p380
sg291
S'.437'
p381
sg293
S'.000'
p382
sg21
S'NBA'
p383
sg296
S'-2.5'
p384
sg297
S'2.1'
p385
sg299
S'3.2'
p386
sg29
S'26'
p387
sg31
S'MIA'
p388
sg33
S'43'
p389
sg303
S'11.1'
p390
sg305
S'23.8'
p391
sg307
S'1.8'
p392
sg45
S'1228'
p393
sg309
S'1.9'
p394
sg40
S'2015-16'
p395
sg311
S'5.1'
p396
sbasS'_per36Minutes'
p397
(lp398
(isrc.gp1.models.Per36Minutes
Per36Minutes
p399
(dp400
g8
S'0.0'
p401
sg10
S'0.0'
p402
sg11
S'0.0'
p403
sg12
S'36.0'
p404
sg13
S'0.0'
p405
sg14
S'0.0'
p406
sg15
g16
sg17
g18
sg19
S'0.0'
p407
sg21
S'NBA'
p408
sg23
S'0.0'
p409
sg24
S'0.0'
p410
sg25
g16
sg26
S'0.0'
p411
sg27
S'0.0'
p412
sg29
S'21'
p413
sg31
S'SAC'
p414
sg33
g34
sg35
g16
sg36
S'0.0'
p415
sg37
S'0.0'
p416
sg38
S'0.0'
p417
sg39
S'0.0'
p418
sg40
S'2010-11'
p419
sg42
S'0.0'
p420
sg43
g16
sg44
S'0.0'
p421
sg45
g28
sg46
g9
sba(isrc.gp1.models.Per36Minutes
Per36Minutes
p422
(dp423
g8
S'7.6'
p424
sg10
S'0.0'
p425
sg11
S'.444'
p426
sg12
S'1.0'
p427
sg13
S'4.0'
p428
sg14
S'0.0'
p429
sg15
g16
sg17
g18
sg19
S'5.3'
p430
sg21
S'NBA'
p431
sg23
S'5.0'
p432
sg24
S'8.9'
p433
sg25
S'9.6'
p434
sg26
S'.417'
p435
sg27
S'0.0'
p436
sg29
S'22'
p437
sg31
S'SAC'
p438
sg33
S'18'
p439
sg35
S'1.7'
p440
sg36
S'8.9'
p441
sg37
S'4.0'
p442
sg38
S'.444'
p443
sg39
S'12.9'
p444
sg40
S'2011-12'
p445
sg42
S'4.0'
p446
sg43
S'4.0'
p447
sg44
S'1.7'
p448
sg45
S'109'
p449
sg46
g9
sba(isrc.gp1.models.Per36Minutes
Per36Minutes
p450
(dp451
g8
S'10.6'
p452
sg10
S'0.0'
p453
sg11
S'.628'
p454
sg12
S'0.9'
p455
sg13
S'7.7'
p456
sg14
S'0.0'
p457
sg15
g16
sg17
g18
sg19
S'4.6'
p458
sg21
S'NBA'
p459
sg23
S'3.9'
p460
sg24
S'12.2'
p461
sg25
S'17.8'
p462
sg26
S'.500'
p463
sg27
S'0.2'
p464
sg29
S'25'
p465
sg31
S'MIA'
p466
sg33
S'48'
p467
sg35
S'1.8'
p468
sg36
S'12.2'
p469
sg37
S'4.9'
p470
sg38
S'.628'
p471
sg39
S'15.2'
p472
sg40
S'2014-15'
p473
sg42
S'7.7'
p474
sg43
S'4.1'
p475
sg44
S'2.5'
p476
sg45
S'1142'
p477
sg46
S'32'
p478
sba(isrc.gp1.models.Per36Minutes
Per36Minutes
p479
(dp480
g8
S'10.1'
p481
sg10
S'0.0'
p482
sg11
S'.616'
p483
sg12
S'0.7'
p484
sg13
S'6.4'
p485
sg14
S'0.0'
p486
sg15
g16
sg17
g18
sg19
S'3.9'
p487
sg21
S'NBA'
p488
sg23
S'5.1'
p489
sg24
S'10.5'
p490
sg25
S'15.4'
p491
sg26
S'.545'
p492
sg27
S'0.4'
p493
sg29
S'26'
p494
sg31
S'MIA'
p495
sg33
S'43'
p496
sg35
S'2.6'
p497
sg36
S'10.5'
p498
sg37
S'4.6'
p499
sg38
S'.616'
p500
sg39
S'14.0'
p501
sg40
S'2015-16'
p502
sg42
S'6.4'
p503
sg43
S'3.2'
p504
sg44
S'2.5'
p505
sg45
S'1228'
p506
sg46
S'40'
p507
sbasS'_fromYear'
p508
S'2011'
p509
sS'_url'
p510
S'http://www.basketball-reference.com/players/w/whiteha01.html'
p511
sS'_perGame'
p512
(isrc.gp1.models.PerGame
PerGame
p513
(dp514
g8
S'8.0'
p515
sg10
S'0.0'
p516
sg11
S'.616'
p517
sS'_effectiveFieldGalPercentage'
p518
S'2.0'
p519
sg12
S'0.6'
p520
sg13
S'5.1'
p521
sg14
S'0.0'
p522
sg15
g16
sg17
g18
sg19
S'3.1'
p523
sg21
S'NBA'
p524
sg23
S'4.0'
p525
sg25
S'12.2'
p526
sS'_fieldGoalsttempted'
p527
S'8.3'
p528
sg26
S'.545'
p529
sg27
S'0.3'
p530
sg29
S'26'
p531
sg31
S'MIA'
p532
sg33
S'43'
p533
sg35
S'2.0'
p534
sg36
S'8.3'
p535
sg37
S'3.6'
p536
sg38
S'.616'
p537
sg39
S'11.1'
p538
sg40
S'2015-16'
p539
sg42
S'5.1'
p540
sg43
S'2.5'
p541
sg44
S'.616'
p542
sg45
S'28.6'
p543
sg46
S'40'
p544
sbsS'_weight'
p545
S'265'
p546
sS'_dob'
p547
S'13-6-1989'
p548
sS'_salary'
p549
(lp550
(isrc.gp1.models.Salary
Salary
p551
(dp552
g31
S'Sacramento Kings'
p553
sg21
S'NBA'
p554
sg549
S'$730,437'
p555
sg40
S'2010-11'
p556
sba(isrc.gp1.models.Salary
Salary
p557
(dp558
g31
S'Sacramento Kings'
p559
sg21
S'NBA'
p560
sg549
S'$762,195'
p561
sg40
S'2011-12'
p562
sba(isrc.gp1.models.Salary
Salary
p563
(dp564
g31
S'Miami Heat'
p565
sg21
S'NBA'
p566
sg549
S'$769,881'
p567
sg40
S'2014-15'
p568
sbasg17
g18
sb.