(isrc.gp1.models.Player
Player
p0
(dp1
S'_experience'
p2
S'NA'
p3
sS'_totals'
p4
(lp5
(isrc.gp1.models.Totals
Totals
p6
(dp7
S'_offensiveRebounds'
p8
g3
sS'_threePointsAttempted'
p9
g3
sS'_fieldGoalsPercentage'
p10
S'.542'
p11
sS'_assist'
p12
S'6'
p13
sS'_threePointsPercentage'
p14
g3
sS'_threePoints'
p15
g3
sS'_points'
p16
S'28'
p17
sS'_position'
p18
g3
sS'_freeThrowsPercentage'
p19
S'.500'
p20
sS'_effectiveFieldGoalPercentage'
p21
S'.542'
p22
sS'_league'
p23
S'NBA'
p24
sS'_steals'
p25
g3
sS'_fieldGoalsAttempted'
p26
S'24'
p27
sS'_personalFouls'
p28
S'17'
p29
sS'_freeThrowsAttempted'
p30
S'4'
p31
sS'_totalRebounds'
p32
g31
sS'_age'
p33
S'23'
p34
sS'_team'
p35
S'BAL'
p36
sS'_games'
p37
S'14'
p38
sS'_blocks'
p39
g3
sS'_twoPoints'
p40
S'13'
p41
sS'_freeThrows'
p42
S'2'
p43
sS'_twoPointsAttempted'
p44
S'24'
p45
sS'_defensiveRebounds'
p46
g3
sS'_season'
p47
S'1969-70'
p48
sS'_fieldGoals'
p49
S'13'
p50
sS'_turnOvers'
p51
g3
sS'_twoPointsPercentage'
p52
S'.542'
p53
sS'_minutesPlayed'
p54
S'70'
p55
sS'_gamesStarted'
p56
g3
sbasS'_college'
p57
S'Acadia University'
p58
sS'_toYear'
p59
S'1970'
p60
sS'_height'
p61
S'6-2'
p62
sS'_active'
p63
I00
sS'_shootingHand'
p64
VRight
p65
sS'_name'
p66
S'Brian Heaney'
p67
sS'_per100Possessions'
p68
(lp69
sS'_advanced'
p70
(lp71
(isrc.gp1.models.Advanced
Advanced
p72
(dp73
S'_offensiveReboundPercentage'
p74
g3
sS'_turnOverPercentage'
p75
g3
sS'_winSharesPer48Minutes'
p76
S'.106'
p77
sS'_stealPercentage'
p78
g3
sS'_usagePercentage'
p79
g3
sS'_totalReboundsPercentage'
p80
g3
sS'_defensiveBoxPlusMinus'
p81
g3
sg18
g3
sS'_valueOverReplacementPlayer'
p82
g3
sS'_trueShootingPercentage'
p83
S'.543'
p84
sS'_defensiveReboundPercentage'
p85
g3
sS'_freeThrowsAttempRate'
p86
S'.167'
p87
sS'_threePointsAttempRate'
p88
g3
sg23
S'NBA'
p89
sS'_offensiveBoxPlusMinues'
p90
g3
sS'_assistPercentage'
p91
S'10.7'
p92
sS'_defensiveWinShares'
p93
S'0.1'
p94
sg33
S'23'
p95
sg35
S'BAL'
p96
sg37
S'14'
p97
sS'_blockPercentage'
p98
g3
sS'_playerEfficiencyRating'
p99
S'8.3'
p100
sS'_offensiveWinShares'
p101
S'0.1'
p102
sg54
S'70'
p103
sS'_boxPlusMinus'
p104
g3
sg47
S'1969-70'
p105
sS'_winShares'
p106
S'0.2'
p107
sbasS'_per36Minutes'
p108
(lp109
(isrc.gp1.models.Per36Minutes
Per36Minutes
p110
(dp111
g8
g3
sg9
g3
sg10
S'.542'
p112
sg12
S'3.1'
p113
sg14
g3
sg15
g3
sg16
S'14.4'
p114
sg18
g3
sg19
S'.500'
p115
sg23
S'NBA'
p116
sg25
g3
sg26
S'12.3'
p117
sg28
S'8.7'
p118
sg30
S'2.1'
p119
sg32
S'2.1'
p120
sg33
S'23'
p121
sg35
S'BAL'
p122
sg37
S'14'
p123
sg39
g3
sg40
S'6.7'
p124
sg42
S'1.0'
p125
sg44
S'12.3'
p126
sg46
g3
sg47
S'1969-70'
p127
sg49
S'6.7'
p128
sg51
g3
sg52
S'.542'
p129
sg54
S'70'
p130
sg56
g3
sbasS'_fromYear'
p131
S'1970'
p132
sS'_url'
p133
S'http://www.basketball-reference.com/players/h/heanebr01.html'
p134
sS'_perGame'
p135
(isrc.gp1.models.PerGame
PerGame
p136
(dp137
g8
g3
sg9
g3
sg10
S'.542'
p138
sS'_effectiveFieldGalPercentage'
p139
S'.542'
p140
sg12
S'0.4'
p141
sg14
g3
sg15
g3
sg16
S'2.0'
p142
sg18
g3
sg19
S'.500'
p143
sg23
S'NBA'
p144
sg25
g3
sg28
S'1.2'
p145
sS'_fieldGoalsttempted'
p146
S'1.7'
p147
sg30
S'0.3'
p148
sg32
S'0.3'
p149
sg33
S'23'
p150
sg35
S'BAL'
p151
sg37
S'14'
p152
sg39
g3
sg40
S'0.9'
p153
sg42
S'0.1'
p154
sg44
S'1.7'
p155
sg46
g3
sg47
S'1969-70'
p156
sg49
S'0.9'
p157
sg51
g3
sg52
S'.542'
p158
sg54
S'5.0'
p159
sg56
g3
sbsS'_weight'
p160
S'180'
p161
sS'_dob'
p162
S'3-9-1946'
p163
sS'_salary'
p164
(lp165
sg18
S'G'
p166
sb.