(isrc.gp1.models.Player
Player
p0
(dp1
S'_experience'
p2
S'NA'
p3
sS'_totals'
p4
(lp5
(isrc.gp1.models.Totals
Totals
p6
(dp7
S'_offensiveRebounds'
p8
g3
sS'_threePointsAttempted'
p9
g3
sS'_fieldGoalsPercentage'
p10
S'.397'
p11
sS'_assist'
p12
S'117'
p13
sS'_threePointsPercentage'
p14
g3
sS'_threePoints'
p15
g3
sS'_points'
p16
S'1163'
p17
sS'_position'
p18
S'PF'
p19
sS'_freeThrowsPercentage'
p20
S'.790'
p21
sS'_effectiveFieldGoalPercentage'
p22
S'.397'
p23
sS'_league'
p24
S'NBA'
p25
sS'_steals'
p26
g3
sS'_fieldGoalsAttempted'
p27
S'1123'
p28
sS'_personalFouls'
p29
S'304'
p30
sS'_freeThrowsAttempted'
p31
S'343'
p32
sS'_totalRebounds'
p33
S'705'
p34
sS'_age'
p35
S'22'
p36
sS'_team'
p37
S'BOS'
p38
sS'_games'
p39
S'72'
p40
sS'_blocks'
p41
g3
sS'_twoPoints'
p42
S'446'
p43
sS'_freeThrows'
p44
S'271'
p45
sS'_twoPointsAttempted'
p46
S'1123'
p47
sS'_defensiveRebounds'
p48
g3
sS'_season'
p49
S'1956-57'
p50
sS'_fieldGoals'
p51
S'446'
p52
sS'_turnOvers'
p53
g3
sS'_twoPointsPercentage'
p54
S'.397'
p55
sS'_minutesPlayed'
p56
S'2150'
p57
sS'_gamesStarted'
p58
g3
sba(isrc.gp1.models.Totals
Totals
p59
(dp60
g8
g3
sg9
g3
sg10
S'.382'
p61
sg12
S'125'
p62
sg14
g3
sg15
g3
sg16
S'1230'
p63
sg18
S'PF'
p64
sg20
S'.746'
p65
sg22
S'.382'
p66
sg24
S'NBA'
p67
sg26
g3
sg27
S'1226'
p68
sg29
S'274'
p69
sg31
S'394'
p70
sg33
S'705'
p71
sg35
S'23'
p72
sg37
S'BOS'
p73
sg39
S'69'
p74
sg41
g3
sg42
S'468'
p75
sg44
S'294'
p76
sg46
S'1226'
p77
sg48
g3
sg49
S'1957-58'
p78
sg51
S'468'
p79
sg53
g3
sg54
S'.382'
p80
sg56
S'2206'
p81
sg58
g3
sba(isrc.gp1.models.Totals
Totals
p82
(dp83
g8
g3
sg9
g3
sg10
S'.390'
p84
sg12
S'164'
p85
sg14
g3
sg15
g3
sg16
S'1242'
p86
sg18
S'PF'
p87
sg20
S'.798'
p88
sg22
S'.390'
p89
sg24
S'NBA'
p90
sg26
g3
sg27
S'1192'
p91
sg29
S'271'
p92
sg31
S'391'
p93
sg33
S'638'
p94
sg35
S'24'
p95
sg37
S'BOS'
p96
sg39
S'66'
p97
sg41
g3
sg42
S'465'
p98
sg44
S'312'
p99
sg46
S'1192'
p100
sg48
g3
sg49
S'1958-59'
p101
sg51
S'465'
p102
sg53
g3
sg54
S'.390'
p103
sg56
S'2089'
p104
sg58
g3
sba(isrc.gp1.models.Totals
Totals
p105
(dp106
g8
g3
sg9
g3
sg10
S'.423'
p107
sg12
S'171'
p108
sg14
g3
sg15
g3
sg16
S'1629'
p109
sg18
S'PF'
p110
sg20
S'.733'
p111
sg22
S'.423'
p112
sg24
S'NBA'
p113
sg26
g3
sg27
S'1590'
p114
sg29
S'275'
p115
sg31
S'386'
p116
sg33
S'794'
p117
sg35
S'25'
p118
sg37
S'BOS'
p119
sg39
S'75'
p120
sg41
g3
sg42
S'673'
p121
sg44
S'283'
p122
sg46
S'1590'
p123
sg48
g3
sg49
S'1959-60'
p124
sg51
S'673'
p125
sg53
g3
sg54
S'.423'
p126
sg56
S'2420'
p127
sg58
g3
sba(isrc.gp1.models.Totals
Totals
p128
(dp129
g8
g3
sg9
g3
sg10
S'.400'
p130
sg12
S'141'
p131
sg14
g3
sg15
g3
sg16
S'1579'
p132
sg18
S'PF'
p133
sg20
S'.767'
p134
sg22
S'.400'
p135
sg24
S'NBA'
p136
sg26
g3
sg27
S'1566'
p137
sg29
S'260'
p138
sg31
S'424'
p139
sg33
S'732'
p140
sg35
S'26'
p141
sg37
S'BOS'
p142
sg39
S'74'
p143
sg41
g3
sg42
S'627'
p144
sg44
S'325'
p145
sg46
S'1566'
p146
sg48
g3
sg49
S'1960-61'
p147
sg51
S'627'
p148
sg53
g3
sg54
S'.400'
p149
sg56
S'2256'
p150
sg58
g3
sba(isrc.gp1.models.Totals
Totals
p151
(dp152
g8
g3
sg9
g3
sg10
S'.429'
p153
sg12
S'165'
p154
sg14
g3
sg15
g3
sg16
S'1742'
p155
sg18
S'PF'
p156
sg20
S'.819'
p157
sg22
S'.429'
p158
sg24
S'NBA'
p159
sg26
g3
sg27
S'1613'
p160
sg29
S'280'
p161
sg31
S'437'
p162
sg33
S'747'
p163
sg35
S'27'
p164
sg37
S'BOS'
p165
sg39
S'79'
p166
sg41
g3
sg42
S'692'
p167
sg44
S'358'
p168
sg46
S'1613'
p169
sg48
g3
sg49
S'1961-62'
p170
sg51
S'692'
p171
sg53
g3
sg54
S'.429'
p172
sg56
S'2383'
p173
sg58
g3
sba(isrc.gp1.models.Totals
Totals
p174
(dp175
g8
g3
sg9
g3
sg10
S'.423'
p176
sg12
S'95'
p177
sg14
g3
sg15
g3
sg16
S'1440'
p178
sg18
S'PF'
p179
sg20
S'.835'
p180
sg22
S'.423'
p181
sg24
S'NBA'
p182
sg26
g3
sg27
S'1300'
p183
sg29
S'270'
p184
sg31
S'407'
p185
sg33
S'569'
p186
sg35
S'28'
p187
sg37
S'BOS'
p188
sg39
S'76'
p189
sg41
g3
sg42
S'550'
p190
sg44
S'340'
p191
sg46
S'1300'
p192
sg48
g3
sg49
S'1962-63'
p193
sg51
S'550'
p194
sg53
g3
sg54
S'.423'
p195
sg56
S'2004'
p196
sg58
g3
sba(isrc.gp1.models.Totals
Totals
p197
(dp198
g8
g3
sg9
g3
sg10
S'.398'
p199
sg12
S'183'
p200
sg14
g3
sg15
g3
sg16
S'1257'
p201
sg18
S'PF'
p202
sg20
S'.827'
p203
sg22
S'.398'
p204
sg24
S'NBA'
p205
sg26
g3
sg27
S'1223'
p206
sg29
S'268'
p207
sg31
S'342'
p208
sg33
S'460'
p209
sg35
S'29'
p210
sg37
S'BOS'
p211
sg39
S'76'
p212
sg41
g3
sg42
S'487'
p213
sg44
S'283'
p214
sg46
S'1223'
p215
sg48
g3
sg49
S'1963-64'
p216
sg51
S'487'
p217
sg53
g3
sg54
S'.398'
p218
sg56
S'2040'
p219
sg58
g3
sba(isrc.gp1.models.Totals
Totals
p220
(dp221
g8
g3
sg9
g3
sg10
S'.383'
p222
sg12
S'157'
p223
sg14
g3
sg15
g3
sg16
S'912'
p224
sg18
S'SF'
p225
sg20
S'.795'
p226
sg22
S'.383'
p227
sg24
S'NBA'
p228
sg26
g3
sg27
S'954'
p229
sg29
S'252'
p230
sg31
S'229'
p231
sg33
S'399'
p232
sg35
S'30'
p233
sg37
S'BOS'
p234
sg39
S'67'
p235
sg41
g3
sg42
S'365'
p236
sg44
S'182'
p237
sg46
S'954'
p238
sg48
g3
sg49
S'1964-65'
p239
sg51
S'365'
p240
sg53
g3
sg54
S'.383'
p241
sg56
S'1706'
p242
sg58
g3
sbasS'_college'
p243
S'College of the Holy Cross'
p244
sS'_toYear'
p245
S'1965'
p246
sS'_height'
p247
S'6-7'
p248
sS'_active'
p249
I00
sS'_shootingHand'
p250
VRight
p251
sS'_name'
p252
S'Tom Heinsohn'
p253
sS'_per100Possessions'
p254
(lp255
sS'_advanced'
p256
(lp257
(isrc.gp1.models.Advanced
Advanced
p258
(dp259
S'_offensiveReboundPercentage'
p260
g3
sS'_turnOverPercentage'
p261
g3
sS'_winSharesPer48Minutes'
p262
S'.160'
p263
sS'_stealPercentage'
p264
g3
sS'_usagePercentage'
p265
g3
sS'_totalReboundsPercentage'
p266
g3
sS'_defensiveBoxPlusMinus'
p267
g3
sg18
S'PF'
p268
sS'_valueOverReplacementPlayer'
p269
g3
sS'_trueShootingPercentage'
p270
S'.456'
p271
sS'_defensiveReboundPercentage'
p272
g3
sS'_freeThrowsAttempRate'
p273
S'.305'
p274
sS'_threePointsAttempRate'
p275
g3
sg24
S'NBA'
p276
sS'_offensiveBoxPlusMinues'
p277
g3
sS'_assistPercentage'
p278
g3
sS'_defensiveWinShares'
p279
S'4.1'
p280
sg35
S'22'
p281
sg37
S'BOS'
p282
sg39
S'72'
p283
sS'_blockPercentage'
p284
g3
sS'_playerEfficiencyRating'
p285
S'18.0'
p286
sS'_offensiveWinShares'
p287
S'3.0'
p288
sg56
S'2150'
p289
sS'_boxPlusMinus'
p290
g3
sg49
S'1956-57'
p291
sS'_winShares'
p292
S'7.1'
p293
sba(isrc.gp1.models.Advanced
Advanced
p294
(dp295
g260
g3
sg261
g3
sg262
S'.130'
p296
sg264
g3
sg265
g3
sg266
g3
sg267
g3
sg18
S'PF'
p297
sg269
g3
sg270
S'.439'
p298
sg272
g3
sg273
S'.321'
p299
sg275
g3
sg24
S'NBA'
p300
sg277
g3
sg278
g3
sg279
S'4.1'
p301
sg35
S'23'
p302
sg37
S'BOS'
p303
sg39
S'69'
p304
sg284
g3
sg285
S'16.9'
p305
sg287
S'1.9'
p306
sg56
S'2206'
p307
sg290
g3
sg49
S'1957-58'
p308
sg292
S'6.0'
p309
sba(isrc.gp1.models.Advanced
Advanced
p310
(dp311
g260
g3
sg261
g3
sg262
S'.150'
p312
sg264
g3
sg265
g3
sg266
g3
sg267
g3
sg18
S'PF'
p313
sg269
g3
sg270
S'.455'
p314
sg272
g3
sg273
S'.328'
p315
sg275
g3
sg24
S'NBA'
p316
sg277
g3
sg278
g3
sg279
S'4.1'
p317
sg35
S'24'
p318
sg37
S'BOS'
p319
sg39
S'66'
p320
sg284
g3
sg285
S'17.9'
p321
sg287
S'2.5'
p322
sg56
S'2089'
p323
sg290
g3
sg49
S'1958-59'
p324
sg292
S'6.5'
p325
sba(isrc.gp1.models.Advanced
Advanced
p326
(dp327
g260
g3
sg261
g3
sg262
S'.154'
p328
sg264
g3
sg265
g3
sg266
g3
sg267
g3
sg18
S'PF'
p329
sg269
g3
sg270
S'.463'
p330
sg272
g3
sg273
S'.243'
p331
sg275
g3
sg24
S'NBA'
p332
sg277
g3
sg278
g3
sg279
S'4.7'
p333
sg35
S'25'
p334
sg37
S'BOS'
p335
sg39
S'75'
p336
sg284
g3
sg285
S'18.4'
p337
sg287
S'3.0'
p338
sg56
S'2420'
p339
sg290
g3
sg49
S'1959-60'
p340
sg292
S'7.7'
p341
sba(isrc.gp1.models.Advanced
Advanced
p342
(dp343
g260
g3
sg261
g3
sg262
S'.141'
p344
sg264
g3
sg265
g3
sg266
g3
sg267
g3
sg18
S'PF'
p345
sg269
g3
sg270
S'.450'
p346
sg272
g3
sg273
S'.271'
p347
sg275
g3
sg24
S'NBA'
p348
sg277
g3
sg278
g3
sg279
S'5.2'
p349
sg35
S'26'
p350
sg37
S'BOS'
p351
sg39
S'74'
p352
sg284
g3
sg285
S'18.4'
p353
sg287
S'1.4'
p354
sg56
S'2256'
p355
sg290
g3
sg49
S'1960-61'
p356
sg292
S'6.6'
p357
sba(isrc.gp1.models.Advanced
Advanced
p358
(dp359
g260
g3
sg261
g3
sg262
S'.187'
p360
sg264
g3
sg265
g3
sg266
g3
sg267
g3
sg18
S'PF'
p361
sg269
g3
sg270
S'.482'
p362
sg272
g3
sg273
S'.271'
p363
sg275
g3
sg24
S'NBA'
p364
sg277
g3
sg278
g3
sg279
S'5.5'
p365
sg35
S'27'
p366
sg37
S'BOS'
p367
sg39
S'79'
p368
sg284
g3
sg285
S'20.0'
p369
sg287
S'3.7'
p370
sg56
S'2383'
p371
sg290
g3
sg49
S'1961-62'
p372
sg292
S'9.3'
p373
sba(isrc.gp1.models.Advanced
Advanced
p374
(dp375
g260
g3
sg261
g3
sg262
S'.163'
p376
sg264
g3
sg265
g3
sg266
g3
sg267
g3
sg18
S'PF'
p377
sg269
g3
sg270
S'.487'
p378
sg272
g3
sg273
S'.313'
p379
sg275
g3
sg24
S'NBA'
p380
sg277
g3
sg278
g3
sg279
S'4.4'
p381
sg35
S'28'
p382
sg37
S'BOS'
p383
sg39
S'76'
p384
sg284
g3
sg285
S'18.7'
p385
sg287
S'2.5'
p386
sg56
S'2004'
p387
sg290
g3
sg49
S'1962-63'
p388
sg292
S'6.8'
p389
sba(isrc.gp1.models.Advanced
Advanced
p390
(dp391
g260
g3
sg261
g3
sg262
S'.147'
p392
sg264
g3
sg265
g3
sg266
g3
sg267
g3
sg18
S'PF'
p393
sg269
g3
sg270
S'.458'
p394
sg272
g3
sg273
S'.280'
p395
sg275
g3
sg24
S'NBA'
p396
sg277
g3
sg278
g3
sg279
S'5.4'
p397
sg35
S'29'
p398
sg37
S'BOS'
p399
sg39
S'76'
p400
sg284
g3
sg285
S'17.0'
p401
sg287
S'0.8'
p402
sg56
S'2040'
p403
sg290
g3
sg49
S'1963-64'
p404
sg292
S'6.2'
p405
sba(isrc.gp1.models.Advanced
Advanced
p406
(dp407
g260
g3
sg261
g3
sg262
S'.102'
p408
sg264
g3
sg265
g3
sg266
g3
sg267
g3
sg18
S'SF'
p409
sg269
g3
sg270
S'.432'
p410
sg272
g3
sg273
S'.240'
p411
sg275
g3
sg24
S'NBA'
p412
sg277
g3
sg278
S'12.9'
p413
sg279
S'4.2'
p414
sg35
S'30'
p415
sg37
S'BOS'
p416
sg39
S'67'
p417
sg284
g3
sg285
S'14.3'
p418
sg287
S'-0.5'
p419
sg56
S'1706'
p420
sg290
g3
sg49
S'1964-65'
p421
sg292
S'3.6'
p422
sbasS'_per36Minutes'
p423
(lp424
(isrc.gp1.models.Per36Minutes
Per36Minutes
p425
(dp426
g8
g3
sg9
g3
sg10
S'.397'
p427
sg12
S'2.0'
p428
sg14
g3
sg15
g3
sg16
S'19.5'
p429
sg18
S'PF'
p430
sg20
S'.790'
p431
sg24
S'NBA'
p432
sg26
g3
sg27
S'18.8'
p433
sg29
S'5.1'
p434
sg31
S'5.7'
p435
sg33
S'11.8'
p436
sg35
S'22'
p437
sg37
S'BOS'
p438
sg39
S'72'
p439
sg41
g3
sg42
S'7.5'
p440
sg44
S'4.5'
p441
sg46
S'18.8'
p442
sg48
g3
sg49
S'1956-57'
p443
sg51
S'7.5'
p444
sg53
g3
sg54
S'.397'
p445
sg56
S'2150'
p446
sg58
g3
sba(isrc.gp1.models.Per36Minutes
Per36Minutes
p447
(dp448
g8
g3
sg9
g3
sg10
S'.382'
p449
sg12
S'2.0'
p450
sg14
g3
sg15
g3
sg16
S'20.1'
p451
sg18
S'PF'
p452
sg20
S'.746'
p453
sg24
S'NBA'
p454
sg26
g3
sg27
S'20.0'
p455
sg29
S'4.5'
p456
sg31
S'6.4'
p457
sg33
S'11.5'
p458
sg35
S'23'
p459
sg37
S'BOS'
p460
sg39
S'69'
p461
sg41
g3
sg42
S'7.6'
p462
sg44
S'4.8'
p463
sg46
S'20.0'
p464
sg48
g3
sg49
S'1957-58'
p465
sg51
S'7.6'
p466
sg53
g3
sg54
S'.382'
p467
sg56
S'2206'
p468
sg58
g3
sba(isrc.gp1.models.Per36Minutes
Per36Minutes
p469
(dp470
g8
g3
sg9
g3
sg10
S'.390'
p471
sg12
S'2.8'
p472
sg14
g3
sg15
g3
sg16
S'21.4'
p473
sg18
S'PF'
p474
sg20
S'.798'
p475
sg24
S'NBA'
p476
sg26
g3
sg27
S'20.5'
p477
sg29
S'4.7'
p478
sg31
S'6.7'
p479
sg33
S'11.0'
p480
sg35
S'24'
p481
sg37
S'BOS'
p482
sg39
S'66'
p483
sg41
g3
sg42
S'8.0'
p484
sg44
S'5.4'
p485
sg46
S'20.5'
p486
sg48
g3
sg49
S'1958-59'
p487
sg51
S'8.0'
p488
sg53
g3
sg54
S'.390'
p489
sg56
S'2089'
p490
sg58
g3
sba(isrc.gp1.models.Per36Minutes
Per36Minutes
p491
(dp492
g8
g3
sg9
g3
sg10
S'.423'
p493
sg12
S'2.5'
p494
sg14
g3
sg15
g3
sg16
S'24.2'
p495
sg18
S'PF'
p496
sg20
S'.733'
p497
sg24
S'NBA'
p498
sg26
g3
sg27
S'23.7'
p499
sg29
S'4.1'
p500
sg31
S'5.7'
p501
sg33
S'11.8'
p502
sg35
S'25'
p503
sg37
S'BOS'
p504
sg39
S'75'
p505
sg41
g3
sg42
S'10.0'
p506
sg44
S'4.2'
p507
sg46
S'23.7'
p508
sg48
g3
sg49
S'1959-60'
p509
sg51
S'10.0'
p510
sg53
g3
sg54
S'.423'
p511
sg56
S'2420'
p512
sg58
g3
sba(isrc.gp1.models.Per36Minutes
Per36Minutes
p513
(dp514
g8
g3
sg9
g3
sg10
S'.400'
p515
sg12
S'2.3'
p516
sg14
g3
sg15
g3
sg16
S'25.2'
p517
sg18
S'PF'
p518
sg20
S'.767'
p519
sg24
S'NBA'
p520
sg26
g3
sg27
S'25.0'
p521
sg29
S'4.1'
p522
sg31
S'6.8'
p523
sg33
S'11.7'
p524
sg35
S'26'
p525
sg37
S'BOS'
p526
sg39
S'74'
p527
sg41
g3
sg42
S'10.0'
p528
sg44
S'5.2'
p529
sg46
S'25.0'
p530
sg48
g3
sg49
S'1960-61'
p531
sg51
S'10.0'
p532
sg53
g3
sg54
S'.400'
p533
sg56
S'2256'
p534
sg58
g3
sba(isrc.gp1.models.Per36Minutes
Per36Minutes
p535
(dp536
g8
g3
sg9
g3
sg10
S'.429'
p537
sg12
S'2.5'
p538
sg14
g3
sg15
g3
sg16
S'26.3'
p539
sg18
S'PF'
p540
sg20
S'.819'
p541
sg24
S'NBA'
p542
sg26
g3
sg27
S'24.4'
p543
sg29
S'4.2'
p544
sg31
S'6.6'
p545
sg33
S'11.3'
p546
sg35
S'27'
p547
sg37
S'BOS'
p548
sg39
S'79'
p549
sg41
g3
sg42
S'10.5'
p550
sg44
S'5.4'
p551
sg46
S'24.4'
p552
sg48
g3
sg49
S'1961-62'
p553
sg51
S'10.5'
p554
sg53
g3
sg54
S'.429'
p555
sg56
S'2383'
p556
sg58
g3
sba(isrc.gp1.models.Per36Minutes
Per36Minutes
p557
(dp558
g8
g3
sg9
g3
sg10
S'.423'
p559
sg12
S'1.7'
p560
sg14
g3
sg15
g3
sg16
S'25.9'
p561
sg18
S'PF'
p562
sg20
S'.835'
p563
sg24
S'NBA'
p564
sg26
g3
sg27
S'23.4'
p565
sg29
S'4.9'
p566
sg31
S'7.3'
p567
sg33
S'10.2'
p568
sg35
S'28'
p569
sg37
S'BOS'
p570
sg39
S'76'
p571
sg41
g3
sg42
S'9.9'
p572
sg44
S'6.1'
p573
sg46
S'23.4'
p574
sg48
g3
sg49
S'1962-63'
p575
sg51
S'9.9'
p576
sg53
g3
sg54
S'.423'
p577
sg56
S'2004'
p578
sg58
g3
sba(isrc.gp1.models.Per36Minutes
Per36Minutes
p579
(dp580
g8
g3
sg9
g3
sg10
S'.398'
p581
sg12
S'3.2'
p582
sg14
g3
sg15
g3
sg16
S'22.2'
p583
sg18
S'PF'
p584
sg20
S'.827'
p585
sg24
S'NBA'
p586
sg26
g3
sg27
S'21.6'
p587
sg29
S'4.7'
p588
sg31
S'6.0'
p589
sg33
S'8.1'
p590
sg35
S'29'
p591
sg37
S'BOS'
p592
sg39
S'76'
p593
sg41
g3
sg42
S'8.6'
p594
sg44
S'5.0'
p595
sg46
S'21.6'
p596
sg48
g3
sg49
S'1963-64'
p597
sg51
S'8.6'
p598
sg53
g3
sg54
S'.398'
p599
sg56
S'2040'
p600
sg58
g3
sba(isrc.gp1.models.Per36Minutes
Per36Minutes
p601
(dp602
g8
g3
sg9
g3
sg10
S'.383'
p603
sg12
S'3.3'
p604
sg14
g3
sg15
g3
sg16
S'19.2'
p605
sg18
S'SF'
p606
sg20
S'.795'
p607
sg24
S'NBA'
p608
sg26
g3
sg27
S'20.1'
p609
sg29
S'5.3'
p610
sg31
S'4.8'
p611
sg33
S'8.4'
p612
sg35
S'30'
p613
sg37
S'BOS'
p614
sg39
S'67'
p615
sg41
g3
sg42
S'7.7'
p616
sg44
S'3.8'
p617
sg46
S'20.1'
p618
sg48
g3
sg49
S'1964-65'
p619
sg51
S'7.7'
p620
sg53
g3
sg54
S'.383'
p621
sg56
S'1706'
p622
sg58
g3
sbasS'_fromYear'
p623
S'1957'
p624
sS'_url'
p625
S'http://www.basketball-reference.com/players/h/heinsto01.html'
p626
sS'_perGame'
p627
(isrc.gp1.models.PerGame
PerGame
p628
(dp629
g8
g3
sg9
g3
sg10
S'.383'
p630
sS'_effectiveFieldGalPercentage'
p631
S'.383'
p632
sg12
S'2.3'
p633
sg14
g3
sg15
g3
sg16
S'13.6'
p634
sg18
S'SF'
p635
sg20
S'.795'
p636
sg24
S'NBA'
p637
sg26
g3
sg29
S'3.8'
p638
sS'_fieldGoalsttempted'
p639
S'14.2'
p640
sg31
S'3.4'
p641
sg33
S'6.0'
p642
sg35
S'30'
p643
sg37
S'BOS'
p644
sg39
S'67'
p645
sg41
g3
sg42
S'5.4'
p646
sg44
S'2.7'
p647
sg46
S'14.2'
p648
sg48
g3
sg49
S'1964-65'
p649
sg51
S'5.4'
p650
sg53
g3
sg54
S'.383'
p651
sg56
S'25.5'
p652
sg58
g3
sbsS'_weight'
p653
S'218'
p654
sS'_dob'
p655
S'26-8-1934'
p656
sS'_salary'
p657
(lp658
sg18
S'F-C'
p659
sb.