(isrc.gp1.models.Player
Player
p0
(dp1
S'_experience'
p2
S'NA'
p3
sS'_totals'
p4
(lp5
(isrc.gp1.models.Totals
Totals
p6
(dp7
S'_offensiveRebounds'
p8
g3
sS'_threePointsAttempted'
p9
g3
sS'_fieldGoalsPercentage'
p10
S'.000'
p11
sS'_assist'
p12
S'0'
p13
sS'_threePointsPercentage'
p14
g3
sS'_threePoints'
p15
g3
sS'_points'
p16
S'2'
p17
sS'_position'
p18
g3
sS'_freeThrowsPercentage'
p19
S'.667'
p20
sS'_effectiveFieldGoalPercentage'
p21
S'.000'
p22
sS'_league'
p23
S'BAA'
p24
sS'_steals'
p25
g3
sS'_fieldGoalsAttempted'
p26
S'6'
p27
sS'_personalFouls'
p28
S'5'
p29
sS'_freeThrowsAttempted'
p30
S'3'
p31
sS'_totalRebounds'
p32
g3
sS'_age'
p33
S'46'
p34
sS'_team'
p35
S'PRO'
p36
sS'_games'
p37
g17
sS'_blocks'
p38
g3
sS'_twoPoints'
p39
g13
sS'_freeThrows'
p40
g17
sS'_twoPointsAttempted'
p41
g27
sS'_defensiveRebounds'
p42
g3
sS'_season'
p43
S'1947-48'
p44
sS'_fieldGoals'
p45
g13
sS'_turnOvers'
p46
g3
sS'_twoPointsPercentage'
p47
S'.000'
p48
sS'_minutesPlayed'
p49
g3
sS'_gamesStarted'
p50
g3
sbasS'_college'
p51
S'NA'
p52
sS'_toYear'
p53
S'1948'
p54
sS'_height'
p55
S'5-11'
p56
sS'_active'
p57
I00
sS'_shootingHand'
p58
VRight
p59
sS'_name'
p60
S'Nat Hickey'
p61
sS'_per100Possessions'
p62
(lp63
sS'_advanced'
p64
(lp65
(isrc.gp1.models.Advanced
Advanced
p66
(dp67
S'_offensiveReboundPercentage'
p68
g3
sS'_turnOverPercentage'
p69
g3
sS'_winSharesPer48Minutes'
p70
g3
sS'_stealPercentage'
p71
g3
sS'_usagePercentage'
p72
g3
sS'_totalReboundsPercentage'
p73
g3
sS'_defensiveBoxPlusMinus'
p74
g3
sg18
g3
sS'_valueOverReplacementPlayer'
p75
g3
sS'_trueShootingPercentage'
p76
S'.137'
p77
sS'_defensiveReboundPercentage'
p78
g3
sS'_freeThrowsAttempRate'
p79
S'.500'
p80
sS'_threePointsAttempRate'
p81
g3
sg23
S'BAA'
p82
sS'_offensiveBoxPlusMinues'
p83
g3
sS'_assistPercentage'
p84
g3
sS'_defensiveWinShares'
p85
S'0.0'
p86
sg33
S'46'
p87
sg35
S'PRO'
p88
sg37
g17
sS'_blockPercentage'
p89
g3
sS'_playerEfficiencyRating'
p90
g3
sS'_offensiveWinShares'
p91
S'-0.1'
p92
sg49
g3
sS'_boxPlusMinus'
p93
g3
sg43
S'1947-48'
p94
sS'_winShares'
p95
S'-0.1'
p96
sbasS'_per36Minutes'
p97
(lp98
(isrc.gp1.models.Per36Minutes
Per36Minutes
p99
(dp100
g8
g3
sg9
g3
sg10
S'.000'
p101
sg12
g3
sg14
g3
sg15
g3
sg16
g3
sg18
g3
sg19
S'.667'
p102
sg23
S'BAA'
p103
sg25
g3
sg26
g3
sg28
g3
sg30
g3
sg32
g3
sg33
S'46'
p104
sg35
S'PRO'
p105
sg37
g17
sg38
g3
sg39
g3
sg40
g3
sg41
g3
sg42
g3
sg43
S'1947-48'
p106
sg45
g3
sg46
g3
sg47
S'.000'
p107
sg49
g3
sg50
g3
sbasS'_fromYear'
p108
S'1948'
p109
sS'_url'
p110
S'http://www.basketball-reference.com/players/h/hickena01.html'
p111
sS'_perGame'
p112
(isrc.gp1.models.PerGame
PerGame
p113
(dp114
g8
g3
sg9
g3
sg10
S'.000'
p115
sS'_effectiveFieldGalPercentage'
p116
S'.000'
p117
sg12
S'0.0'
p118
sg14
g3
sg15
g3
sg16
S'1.0'
p119
sg18
g3
sg19
S'.667'
p120
sg23
S'BAA'
p121
sg25
g3
sg28
S'2.5'
p122
sS'_fieldGoalsttempted'
p123
S'3.0'
p124
sg30
S'1.5'
p125
sg32
g3
sg33
S'46'
p126
sg35
S'PRO'
p127
sg37
g17
sg38
g3
sg39
S'0.0'
p128
sg40
S'1.0'
p129
sg41
S'3.0'
p130
sg42
g3
sg43
S'1947-48'
p131
sg45
S'0.0'
p132
sg46
g3
sg47
S'.000'
p133
sg49
g3
sg50
g3
sbsS'_weight'
p134
S'180'
p135
sS'_dob'
p136
S'30-1-1902'
p137
sS'_salary'
p138
(lp139
sg18
S'G-F'
p140
sb.