(isrc.gp1.models.Player
Player
p0
(dp1
S'_experience'
p2
S'NA'
p3
sS'_totals'
p4
(lp5
(isrc.gp1.models.Totals
Totals
p6
(dp7
S'_offensiveRebounds'
p8
S'39'
p9
sS'_threePointsAttempted'
p10
g3
sS'_fieldGoalsPercentage'
p11
S'.399'
p12
sS'_assist'
p13
S'403'
p14
sS'_threePointsPercentage'
p15
g3
sS'_threePoints'
p16
g3
sS'_points'
p17
S'489'
p18
sS'_position'
p19
S'PG'
p20
sS'_freeThrowsPercentage'
p21
S'.799'
p22
sS'_effectiveFieldGoalPercentage'
p23
S'.399'
p24
sS'_league'
p25
S'NBA'
p26
sS'_steals'
p27
S'85'
p28
sS'_fieldGoalsAttempted'
p29
S'439'
p30
sS'_personalFouls'
p31
S'245'
p32
sS'_freeThrowsAttempted'
p33
S'174'
p34
sS'_totalRebounds'
p35
S'143'
p36
sS'_age'
p37
S'23'
p38
sS'_team'
p39
S'ATL'
p40
sS'_games'
p41
S'81'
p42
sS'_blocks'
p43
S'6'
p44
sS'_twoPoints'
p45
S'175'
p46
sS'_freeThrows'
p47
S'139'
p48
sS'_twoPointsAttempted'
p49
S'439'
p50
sS'_defensiveRebounds'
p51
S'104'
p52
sS'_season'
p53
S'1976-77'
p54
sS'_fieldGoals'
p55
S'175'
p56
sS'_turnOvers'
p57
g3
sS'_twoPointsPercentage'
p58
S'.399'
p59
sS'_minutesPlayed'
p60
S'1825'
p61
sS'_gamesStarted'
p62
g3
sba(isrc.gp1.models.Totals
Totals
p63
(dp64
g8
S'59'
p65
sg10
g3
sg11
S'.415'
p66
sg13
S'427'
p67
sg15
g3
sg16
g3
sg17
S'797'
p68
sg19
S'PG'
p69
sg21
S'.848'
p70
sg23
S'.415'
p71
sg25
S'NBA'
p72
sg27
S'151'
p73
sg29
S'732'
p74
sg31
S'302'
p75
sg33
S'223'
p76
sg35
S'231'
p77
sg37
S'24'
p78
sg39
S'ATL'
p79
sg41
S'82'
p80
sg43
S'15'
p81
sg45
S'304'
p82
sg47
S'189'
p83
sg49
S'732'
p84
sg51
S'172'
p85
sg53
S'1977-78'
p86
sg55
S'304'
p87
sg57
S'240'
p88
sg58
S'.415'
p89
sg60
S'2530'
p90
sg62
g3
sba(isrc.gp1.models.Totals
Totals
p91
(dp92
g8
S'41'
p93
sg10
g3
sg11
S'.434'
p94
sg13
S'480'
p95
sg15
g3
sg16
g3
sg17
S'838'
p96
sg19
S'PG'
p97
sg21
S'.854'
p98
sg23
S'.434'
p99
sg25
S'NBA'
p100
sg27
S'102'
p101
sg29
S'682'
p102
sg31
S'292'
p103
sg33
S'288'
p104
sg35
S'164'
p105
sg37
S'25'
p106
sg39
S'ATL'
p107
sg41
S'82'
p108
sg43
S'16'
p109
sg45
S'296'
p110
sg47
S'246'
p111
sg49
S'682'
p112
sg51
S'123'
p113
sg53
S'1978-79'
p114
sg55
S'296'
p115
sg57
S'202'
p116
sg58
S'.434'
p117
sg60
S'2527'
p118
sg62
g3
sba(isrc.gp1.models.Totals
Totals
p119
(dp120
g8
S'31'
p121
sg10
S'4'
p122
sg11
S'.411'
p123
sg13
S'424'
p124
sg15
S'.250'
p125
sg16
S'1'
p126
sg17
S'479'
p127
sg19
S'PG'
p128
sg21
S'.849'
p129
sg23
S'.412'
p130
sg25
S'NBA'
p131
sg27
S'107'
p132
sg29
S'431'
p133
sg31
S'261'
p134
sg33
S'146'
p135
sg35
S'138'
p136
sg37
S'26'
p137
sg39
S'ATL'
p138
sg41
S'79'
p139
sg43
S'8'
p140
sg45
S'176'
p141
sg47
S'124'
p142
sg49
S'427'
p143
sg51
S'107'
p144
sg53
S'1979-80'
p145
sg55
S'177'
p146
sg57
S'171'
p147
sg58
S'.412'
p148
sg60
S'2092'
p149
sg62
g3
sba(isrc.gp1.models.Totals
Totals
p150
(dp151
g8
S'41'
p152
sg10
S'7'
p153
sg11
S'.349'
p154
sg13
S'292'
p155
sg15
S'.000'
p156
sg16
S'0'
p157
sg17
S'375'
p158
sg19
S'PG'
p159
sg21
S'.820'
p160
sg23
S'.349'
p161
sg25
S'NBA'
p162
sg27
S'66'
p163
sg29
S'335'
p164
sg31
S'207'
p165
sg33
S'172'
p166
sg35
S'159'
p167
sg37
S'27'
p168
sg39
S'TOT'
p169
sg41
S'75'
p170
sg43
S'11'
p171
sg45
S'117'
p172
sg47
S'141'
p173
sg49
S'328'
p174
sg51
S'118'
p175
sg53
S'1980-81'
p176
sg55
S'117'
p177
sg57
S'127'
p178
sg58
S'.357'
p179
sg60
S'1738'
p180
sg62
g3
sba(isrc.gp1.models.Totals
Totals
p181
(dp182
g8
S'10'
p183
sg10
g126
sg11
S'.336'
p184
sg13
S'118'
p185
sg15
S'.000'
p186
sg16
g157
sg17
S'120'
p187
sg19
S'PG'
p188
sg21
S'.840'
p189
sg23
S'.336'
p190
sg25
S'NBA'
p191
sg27
S'26'
p192
sg29
S'116'
p193
sg31
S'60'
p194
sg33
S'50'
p195
sg35
S'51'
p196
sg37
S'27'
p197
sg39
S'ATL'
p198
sg41
S'24'
p199
sg43
S'3'
p200
sg45
S'39'
p201
sg47
S'42'
p202
sg49
S'115'
p203
sg51
S'41'
p204
sg53
S'1980-81'
p205
sg55
S'39'
p206
sg57
S'58'
p207
sg58
S'.339'
p208
sg60
S'624'
p209
sg62
g3
sba(isrc.gp1.models.Totals
Totals
p210
(dp211
g8
S'31'
p212
sg10
g44
sg11
S'.356'
p213
sg13
S'174'
p214
sg15
S'.000'
p215
sg16
g157
sg17
S'255'
p216
sg19
S'PG'
p217
sg21
S'.811'
p218
sg23
S'.356'
p219
sg25
S'NBA'
p220
sg27
S'40'
p221
sg29
S'219'
p222
sg31
S'147'
p223
sg33
S'122'
p224
sg35
S'108'
p225
sg37
S'27'
p226
sg39
S'SEA'
p227
sg41
S'51'
p228
sg43
g140
sg45
S'78'
p229
sg47
S'99'
p230
sg49
S'213'
p231
sg51
S'77'
p232
sg53
S'1980-81'
p233
sg55
S'78'
p234
sg57
S'69'
p235
sg58
S'.366'
p236
sg60
S'1114'
p237
sg62
g3
sba(isrc.gp1.models.Totals
Totals
p238
(dp239
g8
S'12'
p240
sg10
S'2'
p241
sg11
S'.421'
p242
sg13
S'106'
p243
sg15
S'.000'
p244
sg16
g157
sg17
S'145'
p245
sg19
S'PG'
p246
sg21
S'.709'
p247
sg23
S'.421'
p248
sg25
S'NBA'
p249
sg27
S'21'
p250
sg29
S'126'
p251
sg31
S'88'
p252
sg33
S'55'
p253
sg35
S'52'
p254
sg37
S'28'
p255
sg39
S'TOT'
p256
sg41
S'40'
p257
sg43
S'5'
p258
sg45
S'53'
p259
sg47
S'39'
p260
sg49
S'124'
p261
sg51
S'40'
p262
sg53
S'1981-82'
p263
sg55
S'53'
p264
sg57
S'66'
p265
sg58
S'.427'
p266
sg60
S'723'
p267
sg62
S'18'
p268
sba(isrc.gp1.models.Totals
Totals
p269
(dp270
g8
g44
sg10
g157
sg11
S'.514'
p271
sg13
S'25'
p272
sg15
g3
sg16
g157
sg17
S'55'
p273
sg19
S'PG'
p274
sg21
S'.739'
p275
sg23
S'.514'
p276
sg25
S'NBA'
p277
sg27
g258
sg29
S'37'
p278
sg31
S'37'
p279
sg33
S'23'
p280
sg35
S'25'
p281
sg37
S'28'
p282
sg39
S'SEA'
p283
sg41
S'21'
p284
sg43
g241
sg45
S'19'
p285
sg47
S'17'
p286
sg49
S'37'
p287
sg51
S'19'
p288
sg53
S'1981-82'
p289
sg55
S'19'
p290
sg57
S'14'
p291
sg58
S'.514'
p292
sg60
S'243'
p293
sg62
g122
sba(isrc.gp1.models.Totals
Totals
p294
(dp295
g8
g44
sg10
g241
sg11
S'.382'
p296
sg13
S'81'
p297
sg15
S'.000'
p298
sg16
g157
sg17
S'90'
p299
sg19
S'PG'
p300
sg21
S'.688'
p301
sg23
S'.382'
p302
sg25
S'NBA'
p303
sg27
S'16'
p304
sg29
S'89'
p305
sg31
S'51'
p306
sg33
S'32'
p307
sg35
S'27'
p308
sg37
S'28'
p309
sg39
S'SDC'
p310
sg41
S'19'
p311
sg43
g200
sg45
S'34'
p312
sg47
S'22'
p313
sg49
S'87'
p314
sg51
S'21'
p315
sg53
S'1981-82'
p316
sg55
S'34'
p317
sg57
S'52'
p318
sg58
S'.391'
p319
sg60
S'480'
p320
sg62
S'14'
p321
sba(isrc.gp1.models.Totals
Totals
p322
(dp323
g8
g258
sg10
g157
sg11
S'.538'
p324
sg13
S'27'
p325
sg15
g3
sg16
g157
sg17
S'46'
p326
sg19
S'PG'
p327
sg21
S'.818'
p328
sg23
S'.538'
p329
sg25
S'NBA'
p330
sg27
S'9'
p331
sg29
S'26'
p332
sg31
S'20'
p333
sg33
S'22'
p334
sg35
S'20'
p335
sg37
S'29'
p336
sg39
S'MIL'
p337
sg41
S'14'
p338
sg43
g157
sg45
S'14'
p339
sg47
S'18'
p340
sg49
S'26'
p341
sg51
S'15'
p342
sg53
S'1982-83'
p343
sg55
S'14'
p344
sg57
S'13'
p345
sg58
S'.538'
p346
sg60
S'169'
p347
sg62
g200
sba(isrc.gp1.models.Totals
Totals
p348
(dp349
g8
g241
sg10
g157
sg11
S'.304'
p350
sg13
S'35'
p351
sg15
g3
sg16
g157
sg17
S'45'
p352
sg19
S'PG'
p353
sg21
S'.810'
p354
sg23
S'.304'
p355
sg25
S'NBA'
p356
sg27
g153
sg29
S'46'
p357
sg31
S'30'
p358
sg33
S'21'
p359
sg35
S'10'
p360
sg37
S'30'
p361
sg39
S'ATL'
p362
sg41
S'15'
p363
sg43
g157
sg45
S'14'
p364
sg47
S'17'
p365
sg49
S'46'
p366
sg51
g140
sg53
S'1983-84'
p367
sg55
S'14'
p368
sg57
S'14'
p369
sg58
S'.304'
p370
sg60
S'181'
p371
sg62
g241
sbasS'_college'
p372
S'Princeton University'
p373
sS'_toYear'
p374
S'1984'
p375
sS'_height'
p376
S'6-4'
p377
sS'_active'
p378
I00
sS'_shootingHand'
p379
VRight
p380
sS'_name'
p381
S'Armond Hill'
p382
sS'_per100Possessions'
p383
(lp384
(isrc.gp1.models.Per100Possession
Per100Possession
p385
(dp386
g8
S'1.0'
p387
sg10
g3
sg11
S'.399'
p388
sS'_offensiveRating'
p389
g3
sg13
S'10.1'
p390
sg15
g3
sg16
g3
sg17
S'12.3'
p391
sg19
S'PG'
p392
sS'_defensiveRating'
p393
S'103'
p394
sg21
S'.799'
p395
sg25
S'NBA'
p396
sg27
S'2.1'
p397
sg29
S'11.0'
p398
sg31
S'6.2'
p399
sg33
S'4.4'
p400
sg35
S'3.6'
p401
sg37
S'23'
p402
sg39
S'ATL'
p403
sg41
S'81'
p404
sg43
S'0.2'
p405
sg45
S'4.4'
p406
sg47
S'3.5'
p407
sg49
S'11.0'
p408
sg51
S'2.6'
p409
sg53
S'1976-77'
p410
sg55
S'4.4'
p411
sg57
g3
sg58
S'.399'
p412
sg60
S'1825'
p413
sg62
g3
sba(isrc.gp1.models.Per100Possession
Per100Possession
p414
(dp415
g8
S'1.1'
p416
sg10
g3
sg11
S'.415'
p417
sg389
S'92'
p418
sg13
S'7.8'
p419
sg15
g3
sg16
g3
sg17
S'14.6'
p420
sg19
S'PG'
p421
sg393
S'101'
p422
sg21
S'.848'
p423
sg25
S'NBA'
p424
sg27
S'2.8'
p425
sg29
S'13.4'
p426
sg31
S'5.5'
p427
sg33
S'4.1'
p428
sg35
S'4.2'
p429
sg37
S'24'
p430
sg39
S'ATL'
p431
sg41
S'82'
p432
sg43
S'0.3'
p433
sg45
S'5.6'
p434
sg47
S'3.5'
p435
sg49
S'13.4'
p436
sg51
S'3.2'
p437
sg53
S'1977-78'
p438
sg55
S'5.6'
p439
sg57
S'4.4'
p440
sg58
S'.415'
p441
sg60
S'2530'
p442
sg62
g3
sba(isrc.gp1.models.Per100Possession
Per100Possession
p443
(dp444
g8
S'0.8'
p445
sg10
g3
sg11
S'.434'
p446
sg389
S'105'
p447
sg13
S'8.9'
p448
sg15
g3
sg16
g3
sg17
S'15.5'
p449
sg19
S'PG'
p450
sg393
S'107'
p451
sg21
S'.854'
p452
sg25
S'NBA'
p453
sg27
S'1.9'
p454
sg29
S'12.6'
p455
sg31
S'5.4'
p456
sg33
S'5.3'
p457
sg35
S'3.0'
p458
sg37
S'25'
p459
sg39
S'ATL'
p460
sg41
S'82'
p461
sg43
S'0.3'
p462
sg45
S'5.5'
p463
sg47
S'4.6'
p464
sg49
S'12.6'
p465
sg51
S'2.3'
p466
sg53
S'1978-79'
p467
sg55
S'5.5'
p468
sg57
S'3.7'
p469
sg58
S'.434'
p470
sg60
S'2527'
p471
sg62
g3
sba(isrc.gp1.models.Per100Possession
Per100Possession
p472
(dp473
g8
S'0.7'
p474
sg10
S'0.1'
p475
sg11
S'.411'
p476
sg389
S'97'
p477
sg13
S'9.8'
p478
sg15
S'.250'
p479
sg16
S'0.0'
p480
sg17
S'11.1'
p481
sg19
S'PG'
p482
sg393
S'104'
p483
sg21
S'.849'
p484
sg25
S'NBA'
p485
sg27
S'2.5'
p486
sg29
S'10.0'
p487
sg31
S'6.1'
p488
sg33
S'3.4'
p489
sg35
S'3.2'
p490
sg37
S'26'
p491
sg39
S'ATL'
p492
sg41
S'79'
p493
sg43
S'0.2'
p494
sg45
S'4.1'
p495
sg47
S'2.9'
p496
sg49
S'9.9'
p497
sg51
S'2.5'
p498
sg53
S'1979-80'
p499
sg55
S'4.1'
p500
sg57
S'4.0'
p501
sg58
S'.412'
p502
sg60
S'2092'
p503
sg62
g3
sba(isrc.gp1.models.Per100Possession
Per100Possession
p504
(dp505
g8
S'1.1'
p506
sg10
S'0.2'
p507
sg11
S'.349'
p508
sg389
S'95'
p509
sg13
S'8.1'
p510
sg15
S'.000'
p511
sg16
S'0.0'
p512
sg17
S'10.4'
p513
sg19
S'PG'
p514
sg393
S'108'
p515
sg21
S'.820'
p516
sg25
S'NBA'
p517
sg27
S'1.8'
p518
sg29
S'9.3'
p519
sg31
S'5.7'
p520
sg33
S'4.8'
p521
sg35
S'4.4'
p522
sg37
S'27'
p523
sg39
S'TOT'
p524
sg41
S'75'
p525
sg43
S'0.3'
p526
sg45
S'3.2'
p527
sg47
S'3.9'
p528
sg49
S'9.1'
p529
sg51
S'3.3'
p530
sg53
S'1980-81'
p531
sg55
S'3.2'
p532
sg57
S'3.5'
p533
sg58
S'.357'
p534
sg60
S'1738'
p535
sg62
g3
sba(isrc.gp1.models.Per100Possession
Per100Possession
p536
(dp537
g8
S'0.8'
p538
sg10
S'0.1'
p539
sg11
S'.336'
p540
sg389
S'87'
p541
sg13
S'9.1'
p542
sg15
S'.000'
p543
sg16
S'0.0'
p544
sg17
S'9.3'
p545
sg19
S'PG'
p546
sg393
S'109'
p547
sg21
S'.840'
p548
sg25
S'NBA'
p549
sg27
S'2.0'
p550
sg29
S'9.0'
p551
sg31
S'4.6'
p552
sg33
S'3.9'
p553
sg35
S'3.9'
p554
sg37
S'27'
p555
sg39
S'ATL'
p556
sg41
S'24'
p557
sg43
S'0.2'
p558
sg45
S'3.0'
p559
sg47
S'3.3'
p560
sg49
S'8.9'
p561
sg51
S'3.2'
p562
sg53
S'1980-81'
p563
sg55
S'3.0'
p564
sg57
S'4.5'
p565
sg58
S'.339'
p566
sg60
S'624'
p567
sg62
g3
sba(isrc.gp1.models.Per100Possession
Per100Possession
p568
(dp569
g8
S'1.3'
p570
sg10
S'0.3'
p571
sg11
S'.356'
p572
sg389
S'100'
p573
sg13
S'7.5'
p574
sg15
S'.000'
p575
sg16
S'0.0'
p576
sg17
S'11.0'
p577
sg19
S'PG'
p578
sg393
S'107'
p579
sg21
S'.811'
p580
sg25
S'NBA'
p581
sg27
S'1.7'
p582
sg29
S'9.4'
p583
sg31
S'6.3'
p584
sg33
S'5.2'
p585
sg35
S'4.6'
p586
sg37
S'27'
p587
sg39
S'SEA'
p588
sg41
S'51'
p589
sg43
S'0.3'
p590
sg45
S'3.4'
p591
sg47
S'4.3'
p592
sg49
S'9.2'
p593
sg51
S'3.3'
p594
sg53
S'1980-81'
p595
sg55
S'3.4'
p596
sg57
S'3.0'
p597
sg58
S'.366'
p598
sg60
S'1114'
p599
sg62
g3
sba(isrc.gp1.models.Per100Possession
Per100Possession
p600
(dp601
g8
S'0.8'
p602
sg10
S'0.1'
p603
sg11
S'.421'
p604
sg389
S'88'
p605
sg13
S'7.0'
p606
sg15
S'.000'
p607
sg16
S'0.0'
p608
sg17
S'9.5'
p609
sg19
S'PG'
p610
sg393
S'113'
p611
sg21
S'.709'
p612
sg25
S'NBA'
p613
sg27
S'1.4'
p614
sg29
S'8.3'
p615
sg31
S'5.8'
p616
sg33
S'3.6'
p617
sg35
S'3.4'
p618
sg37
S'28'
p619
sg39
S'TOT'
p620
sg41
S'40'
p621
sg43
S'0.3'
p622
sg45
S'3.5'
p623
sg47
S'2.6'
p624
sg49
S'8.2'
p625
sg51
S'2.6'
p626
sg53
S'1981-82'
p627
sg55
S'3.5'
p628
sg57
S'4.3'
p629
sg58
S'.427'
p630
sg60
S'723'
p631
sg62
S'18'
p632
sba(isrc.gp1.models.Per100Possession
Per100Possession
p633
(dp634
g8
S'1.2'
p635
sg10
S'0.0'
p636
sg11
S'.514'
p637
sg389
S'107'
p638
sg13
S'4.9'
p639
sg15
g3
sg16
S'0.0'
p640
sg17
S'10.9'
p641
sg19
S'PG'
p642
sg393
S'106'
p643
sg21
S'.739'
p644
sg25
S'NBA'
p645
sg27
S'1.0'
p646
sg29
S'7.3'
p647
sg31
S'7.3'
p648
sg33
S'4.5'
p649
sg35
S'4.9'
p650
sg37
S'28'
p651
sg39
S'SEA'
p652
sg41
S'21'
p653
sg43
S'0.4'
p654
sg45
S'3.8'
p655
sg47
S'3.4'
p656
sg49
S'7.3'
p657
sg51
S'3.8'
p658
sg53
S'1981-82'
p659
sg55
S'3.8'
p660
sg57
S'2.8'
p661
sg58
S'.514'
p662
sg60
S'243'
p663
sg62
g122
sba(isrc.gp1.models.Per100Possession
Per100Possession
p664
(dp665
g8
S'0.6'
p666
sg10
S'0.2'
p667
sg11
S'.382'
p668
sg389
S'81'
p669
sg13
S'8.0'
p670
sg15
S'.000'
p671
sg16
S'0.0'
p672
sg17
S'8.9'
p673
sg19
S'PG'
p674
sg393
S'116'
p675
sg21
S'.688'
p676
sg25
S'NBA'
p677
sg27
S'1.6'
p678
sg29
S'8.8'
p679
sg31
S'5.0'
p680
sg33
S'3.2'
p681
sg35
S'2.7'
p682
sg37
S'28'
p683
sg39
S'SDC'
p684
sg41
S'19'
p685
sg43
S'0.3'
p686
sg45
S'3.4'
p687
sg47
S'2.2'
p688
sg49
S'8.6'
p689
sg51
S'2.1'
p690
sg53
S'1981-82'
p691
sg55
S'3.4'
p692
sg57
S'5.1'
p693
sg58
S'.391'
p694
sg60
S'480'
p695
sg62
S'14'
p696
sba(isrc.gp1.models.Per100Possession
Per100Possession
p697
(dp698
g8
S'1.4'
p699
sg10
S'0.0'
p700
sg11
S'.538'
p701
sg389
S'114'
p702
sg13
S'7.7'
p703
sg15
g3
sg16
S'0.0'
p704
sg17
S'13.1'
p705
sg19
S'PG'
p706
sg393
S'102'
p707
sg21
S'.818'
p708
sg25
S'NBA'
p709
sg27
S'2.6'
p710
sg29
S'7.4'
p711
sg31
S'5.7'
p712
sg33
S'6.2'
p713
sg35
S'5.7'
p714
sg37
S'29'
p715
sg39
S'MIL'
p716
sg41
S'14'
p717
sg43
S'0.0'
p718
sg45
S'4.0'
p719
sg47
S'5.1'
p720
sg49
S'7.4'
p721
sg51
S'4.3'
p722
sg53
S'1982-83'
p723
sg55
S'4.0'
p724
sg57
S'3.7'
p725
sg58
S'.538'
p726
sg60
S'169'
p727
sg62
g200
sba(isrc.gp1.models.Per100Possession
Per100Possession
p728
(dp729
g8
S'0.6'
p730
sg10
S'0.0'
p731
sg11
S'.304'
p732
sg389
S'89'
p733
sg13
S'9.7'
p734
sg15
g3
sg16
S'0.0'
p735
sg17
S'12.5'
p736
sg19
S'PG'
p737
sg393
S'110'
p738
sg21
S'.810'
p739
sg25
S'NBA'
p740
sg27
S'1.9'
p741
sg29
S'12.8'
p742
sg31
S'8.3'
p743
sg33
S'5.8'
p744
sg35
S'2.8'
p745
sg37
S'30'
p746
sg39
S'ATL'
p747
sg41
S'15'
p748
sg43
S'0.0'
p749
sg45
S'3.9'
p750
sg47
S'4.7'
p751
sg49
S'12.8'
p752
sg51
S'2.2'
p753
sg53
S'1983-84'
p754
sg55
S'3.9'
p755
sg57
S'3.9'
p756
sg58
S'.304'
p757
sg60
S'181'
p758
sg62
g241
sbasS'_advanced'
p759
(lp760
(isrc.gp1.models.Advanced
Advanced
p761
(dp762
S'_offensiveReboundPercentage'
p763
S'2.2'
p764
sS'_turnOverPercentage'
p765
g3
sS'_winSharesPer48Minutes'
p766
S'.022'
p767
sS'_stealPercentage'
p768
S'2.1'
p769
sS'_usagePercentage'
p770
g3
sS'_totalReboundsPercentage'
p771
S'4.2'
p772
sS'_defensiveBoxPlusMinus'
p773
S'-1.3'
p774
sg19
S'PG'
p775
sS'_valueOverReplacementPlayer'
p776
S'-0.2'
p777
sS'_trueShootingPercentage'
p778
S'.474'
p779
sS'_defensiveReboundPercentage'
p780
S'6.2'
p781
sS'_freeThrowsAttempRate'
p782
S'.396'
p783
sS'_threePointsAttempRate'
p784
g3
sg25
S'NBA'
p785
sS'_offensiveBoxPlusMinues'
p786
S'-1.3'
p787
sS'_assistPercentage'
p788
S'30.0'
p789
sS'_defensiveWinShares'
p790
S'1.0'
p791
sg37
S'23'
p792
sg39
S'ATL'
p793
sg41
S'81'
p794
sS'_blockPercentage'
p795
S'0.2'
p796
sS'_playerEfficiencyRating'
p797
S'11.9'
p798
sS'_offensiveWinShares'
p799
S'-0.1'
p800
sg60
S'1825'
p801
sS'_boxPlusMinus'
p802
S'-2.5'
p803
sg53
S'1976-77'
p804
sS'_winShares'
p805
S'0.8'
p806
sba(isrc.gp1.models.Advanced
Advanced
p807
(dp808
g763
S'2.5'
p809
sg765
S'22.4'
p810
sg766
S'.050'
p811
sg768
S'2.8'
p812
sg770
S'17.0'
p813
sg771
S'5.0'
p814
sg773
S'0.5'
p815
sg19
S'PG'
p816
sg776
S'0.6'
p817
sg778
S'.480'
p818
sg780
S'7.7'
p819
sg782
S'.305'
p820
sg784
g3
sg25
S'NBA'
p821
sg786
S'-1.5'
p822
sg788
S'23.4'
p823
sg790
S'2.7'
p824
sg37
S'24'
p825
sg39
S'ATL'
p826
sg41
S'82'
p827
sg795
S'0.4'
p828
sg797
S'11.0'
p829
sg799
S'-0.1'
p830
sg60
S'2530'
p831
sg802
S'-1.0'
p832
sg53
S'1977-78'
p833
sg805
S'2.6'
p834
sba(isrc.gp1.models.Advanced
Advanced
p835
(dp836
g763
S'1.7'
p837
sg765
S'20.0'
p838
sg766
S'.080'
p839
sg768
S'1.9'
p840
sg770
S'15.8'
p841
sg771
S'3.5'
p842
sg773
S'-1.1'
p843
sg19
S'PG'
p844
sg776
S'0.3'
p845
sg778
S'.518'
p846
sg780
S'5.5'
p847
sg782
S'.422'
p848
sg784
g3
sg25
S'NBA'
p849
sg786
S'-0.4'
p850
sg788
S'24.8'
p851
sg790
S'1.8'
p852
sg37
S'25'
p853
sg39
S'ATL'
p854
sg41
S'82'
p855
sg795
S'0.4'
p856
sg797
S'11.8'
p857
sg799
S'2.4'
p858
sg60
S'2527'
p859
sg802
S'-1.5'
p860
sg53
S'1978-79'
p861
sg805
S'4.2'
p862
sba(isrc.gp1.models.Advanced
Advanced
p863
(dp864
g763
S'1.6'
p865
sg765
S'25.7'
p866
sg766
S'.057'
p867
sg768
S'2.5'
p868
sg770
S'13.0'
p869
sg771
S'3.5'
p870
sg773
S'-0.2'
p871
sg19
S'PG'
p872
sg776
S'-0.3'
p873
sg778
S'.484'
p874
sg780
S'5.5'
p875
sg782
S'.339'
p876
sg784
S'.009'
p877
sg25
S'NBA'
p878
sg786
S'-2.3'
p879
sg788
S'27.4'
p880
sg790
S'2.4'
p881
sg37
S'26'
p882
sg39
S'ATL'
p883
sg41
S'79'
p884
sg795
S'0.2'
p885
sg797
S'9.2'
p886
sg799
S'0.1'
p887
sg60
S'2092'
p888
sg802
S'-2.5'
p889
sg53
S'1979-80'
p890
sg805
S'2.5'
p891
sba(isrc.gp1.models.Advanced
Advanced
p892
(dp893
g763
S'2.7'
p894
sg765
S'23.6'
p895
sg766
S'.028'
p896
sg768
S'1.8'
p897
sg770
S'12.7'
p898
sg771
S'5.1'
p899
sg773
S'-0.3'
p900
sg19
S'PG'
p901
sg776
S'-0.7'
p902
sg778
S'.457'
p903
sg780
S'7.5'
p904
sg782
S'.513'
p905
sg784
S'.021'
p906
sg25
S'NBA'
p907
sg786
S'-3.2'
p908
sg788
S'21.8'
p909
sg790
S'1.3'
p910
sg37
S'27'
p911
sg39
S'TOT'
p912
sg41
S'75'
p913
sg795
S'0.4'
p914
sg797
S'8.0'
p915
sg799
S'-0.3'
p916
sg60
S'1738'
p917
sg802
S'-3.5'
p918
sg53
S'1980-81'
p919
sg805
S'1.0'
p920
sba(isrc.gp1.models.Advanced
Advanced
p921
(dp922
g763
S'1.8'
p923
sg765
S'29.6'
p924
sg766
S'-0.013'
p925
sg768
S'2.0'
p926
sg770
S'13.0'
p927
sg771
S'4.7'
p928
sg773
S'-0.7'
p929
sg19
S'PG'
p930
sg776
S'-0.4'
p931
sg778
S'.435'
p932
sg780
S'7.6'
p933
sg782
S'.431'
p934
sg784
S'.009'
p935
sg25
S'NBA'
p936
sg786
S'-4.0'
p937
sg788
S'24.8'
p938
sg790
S'0.4'
p939
sg37
S'27'
p940
sg39
S'ATL'
p941
sg41
S'24'
p942
sg795
S'0.3'
p943
sg797
S'7.2'
p944
sg799
S'-0.5'
p945
sg60
S'624'
p946
sg802
S'-4.7'
p947
sg53
S'1980-81'
p948
sg805
S'-0.2'
p949
sba(isrc.gp1.models.Advanced
Advanced
p950
(dp951
g763
S'3.1'
p952
sg765
S'20.2'
p953
sg766
S'.052'
p954
sg768
S'1.7'
p955
sg770
S'12.5'
p956
sg771
S'5.3'
p957
sg773
S'-0.1'
p958
sg19
S'PG'
p959
sg776
S'-0.2'
p960
sg778
S'.468'
p961
sg780
S'7.4'
p962
sg782
S'.557'
p963
sg784
S'.027'
p964
sg25
S'NBA'
p965
sg786
S'-2.7'
p966
sg788
S'20.2'
p967
sg790
S'0.9'
p968
sg37
S'27'
p969
sg39
S'SEA'
p970
sg41
S'51'
p971
sg795
S'0.4'
p972
sg797
S'8.4'
p973
sg799
S'0.3'
p974
sg60
S'1114'
p975
sg802
S'-2.8'
p976
sg53
S'1980-81'
p977
sg805
S'1.2'
p978
sba(isrc.gp1.models.Advanced
Advanced
p979
(dp980
g763
S'1.9'
p981
sg765
S'30.5'
p982
sg766
S'-0.024'
p983
sg768
S'1.4'
p984
sg770
S'12.2'
p985
sg771
S'4.1'
p986
sg773
S'-1.3'
p987
sg19
S'PG'
p988
sg776
S'-0.7'
p989
sg778
S'.483'
p990
sg780
S'6.3'
p991
sg782
S'.437'
p992
sg784
S'.016'
p993
sg25
S'NBA'
p994
sg786
S'-4.6'
p995
sg788
S'17.8'
p996
sg790
S'0.2'
p997
sg37
S'28'
p998
sg39
S'TOT'
p999
sg41
S'40'
p1000
sg795
S'0.4'
p1001
sg797
S'5.5'
p1002
sg799
S'-0.6'
p1003
sg60
S'723'
p1004
sg802
S'-5.9'
p1005
sg53
S'1981-82'
p1006
sg805
S'-0.4'
p1007
sba(isrc.gp1.models.Advanced
Advanced
p1008
(dp1009
g763
S'2.8'
p1010
sg765
S'22.9'
p1011
sg766
S'.083'
p1012
sg768
S'1.0'
p1013
sg770
S'10.4'
p1014
sg771
S'5.6'
p1015
sg773
S'0.2'
p1016
sg19
S'PG'
p1017
sg776
S'-0.1'
p1018
sg778
S'.584'
p1019
sg780
S'8.2'
p1020
sg782
S'.622'
p1021
sg784
S'.000'
p1022
sg25
S'NBA'
p1023
sg786
S'-3.3'
p1024
sg788
S'12.8'
p1025
sg790
S'0.3'
p1026
sg37
S'28'
p1027
sg39
S'SEA'
p1028
sg41
S'21'
p1029
sg795
S'0.5'
p1030
sg797
S'7.4'
p1031
sg799
S'0.1'
p1032
sg60
S'243'
p1033
sg802
S'-3.2'
p1034
sg53
S'1981-82'
p1035
sg805
S'0.4'
p1036
sba(isrc.gp1.models.Advanced
Advanced
p1037
(dp1038
g763
S'1.4'
p1039
sg765
S'33.5'
p1040
sg766
S'-0.078'
p1041
sg768
S'1.6'
p1042
sg770
S'13.2'
p1043
sg771
S'3.3'
p1044
sg773
S'-2.0'
p1045
sg19
S'PG'
p1046
sg776
S'-0.6'
p1047
sg778
S'.437'
p1048
sg780
S'5.4'
p1049
sg782
S'.360'
p1050
sg784
S'.022'
p1051
sg25
S'NBA'
p1052
sg786
S'-5.3'
p1053
sg788
S'20.4'
p1054
sg790
S'0.0'
p1055
sg37
S'28'
p1056
sg39
S'SDC'
p1057
sg41
S'19'
p1058
sg795
S'0.4'
p1059
sg797
S'4.6'
p1060
sg799
S'-0.7'
p1061
sg60
S'480'
p1062
sg802
S'-7.3'
p1063
sg53
S'1981-82'
p1064
sg805
S'-0.8'
p1065
sba(isrc.gp1.models.Advanced
Advanced
p1066
(dp1067
g763
S'3.4'
p1068
sg765
S'26.7'
p1069
sg766
S'.137'
p1070
sg768
S'2.6'
p1071
sg770
S'11.9'
p1072
sg771
S'6.5'
p1073
sg773
S'0.5'
p1074
sg19
S'PG'
p1075
sg776
S'0.1'
p1076
sg778
S'.645'
p1077
sg780
S'9.3'
p1078
sg782
S'.846'
p1079
sg784
S'.000'
p1080
sg25
S'NBA'
p1081
sg786
S'-1.0'
p1082
sg788
S'20.1'
p1083
sg790
S'0.2'
p1084
sg37
S'29'
p1085
sg39
S'MIL'
p1086
sg41
S'14'
p1087
sg795
S'0.0'
p1088
sg797
S'12.6'
p1089
sg799
S'0.2'
p1090
sg60
S'169'
p1091
sg802
S'-0.5'
p1092
sg53
S'1982-83'
p1093
sg805
S'0.5'
p1094
sba(isrc.gp1.models.Advanced
Advanced
p1095
(dp1096
g763
S'1.2'
p1097
sg765
S'20.2'
p1098
sg766
S'-0.012'
p1099
sg768
S'1.9'
p1100
sg770
S'16.5'
p1101
sg771
S'3.2'
p1102
sg773
S'-2.3'
p1103
sg19
S'PG'
p1104
sg776
S'-0.2'
p1105
sg778
S'.407'
p1106
sg780
S'5.1'
p1107
sg782
S'.457'
p1108
sg784
S'.000'
p1109
sg25
S'NBA'
p1110
sg786
S'-5.0'
p1111
sg788
S'26.3'
p1112
sg790
S'0.1'
p1113
sg37
S'30'
p1114
sg39
S'ATL'
p1115
sg41
S'15'
p1116
sg795
S'0.0'
p1117
sg797
S'6.5'
p1118
sg799
S'-0.2'
p1119
sg60
S'181'
p1120
sg802
S'-7.3'
p1121
sg53
S'1983-84'
p1122
sg805
S'0.0'
p1123
sbasS'_per36Minutes'
p1124
(lp1125
(isrc.gp1.models.Per36Minutes
Per36Minutes
p1126
(dp1127
g8
S'0.8'
p1128
sg10
g3
sg11
S'.399'
p1129
sg13
S'7.9'
p1130
sg15
g3
sg16
g3
sg17
S'9.6'
p1131
sg19
S'PG'
p1132
sg21
S'.799'
p1133
sg25
S'NBA'
p1134
sg27
S'1.7'
p1135
sg29
S'8.7'
p1136
sg31
S'4.8'
p1137
sg33
S'3.4'
p1138
sg35
S'2.8'
p1139
sg37
S'23'
p1140
sg39
S'ATL'
p1141
sg41
S'81'
p1142
sg43
S'0.1'
p1143
sg45
S'3.5'
p1144
sg47
S'2.7'
p1145
sg49
S'8.7'
p1146
sg51
S'2.1'
p1147
sg53
S'1976-77'
p1148
sg55
S'3.5'
p1149
sg57
g3
sg58
S'.399'
p1150
sg60
S'1825'
p1151
sg62
g3
sba(isrc.gp1.models.Per36Minutes
Per36Minutes
p1152
(dp1153
g8
S'0.8'
p1154
sg10
g3
sg11
S'.415'
p1155
sg13
S'6.1'
p1156
sg15
g3
sg16
g3
sg17
S'11.3'
p1157
sg19
S'PG'
p1158
sg21
S'.848'
p1159
sg25
S'NBA'
p1160
sg27
S'2.1'
p1161
sg29
S'10.4'
p1162
sg31
S'4.3'
p1163
sg33
S'3.2'
p1164
sg35
S'3.3'
p1165
sg37
S'24'
p1166
sg39
S'ATL'
p1167
sg41
S'82'
p1168
sg43
S'0.2'
p1169
sg45
S'4.3'
p1170
sg47
S'2.7'
p1171
sg49
S'10.4'
p1172
sg51
S'2.4'
p1173
sg53
S'1977-78'
p1174
sg55
S'4.3'
p1175
sg57
S'3.4'
p1176
sg58
S'.415'
p1177
sg60
S'2530'
p1178
sg62
g3
sba(isrc.gp1.models.Per36Minutes
Per36Minutes
p1179
(dp1180
g8
S'0.6'
p1181
sg10
g3
sg11
S'.434'
p1182
sg13
S'6.8'
p1183
sg15
g3
sg16
g3
sg17
S'11.9'
p1184
sg19
S'PG'
p1185
sg21
S'.854'
p1186
sg25
S'NBA'
p1187
sg27
S'1.5'
p1188
sg29
S'9.7'
p1189
sg31
S'4.2'
p1190
sg33
S'4.1'
p1191
sg35
S'2.3'
p1192
sg37
S'25'
p1193
sg39
S'ATL'
p1194
sg41
S'82'
p1195
sg43
S'0.2'
p1196
sg45
S'4.2'
p1197
sg47
S'3.5'
p1198
sg49
S'9.7'
p1199
sg51
S'1.8'
p1200
sg53
S'1978-79'
p1201
sg55
S'4.2'
p1202
sg57
S'2.9'
p1203
sg58
S'.434'
p1204
sg60
S'2527'
p1205
sg62
g3
sba(isrc.gp1.models.Per36Minutes
Per36Minutes
p1206
(dp1207
g8
S'0.5'
p1208
sg10
S'0.1'
p1209
sg11
S'.411'
p1210
sg13
S'7.3'
p1211
sg15
S'.250'
p1212
sg16
S'0.0'
p1213
sg17
S'8.2'
p1214
sg19
S'PG'
p1215
sg21
S'.849'
p1216
sg25
S'NBA'
p1217
sg27
S'1.8'
p1218
sg29
S'7.4'
p1219
sg31
S'4.5'
p1220
sg33
S'2.5'
p1221
sg35
S'2.4'
p1222
sg37
S'26'
p1223
sg39
S'ATL'
p1224
sg41
S'79'
p1225
sg43
S'0.1'
p1226
sg45
S'3.0'
p1227
sg47
S'2.1'
p1228
sg49
S'7.3'
p1229
sg51
S'1.8'
p1230
sg53
S'1979-80'
p1231
sg55
S'3.0'
p1232
sg57
S'2.9'
p1233
sg58
S'.412'
p1234
sg60
S'2092'
p1235
sg62
g3
sba(isrc.gp1.models.Per36Minutes
Per36Minutes
p1236
(dp1237
g8
S'0.8'
p1238
sg10
S'0.1'
p1239
sg11
S'.349'
p1240
sg13
S'6.0'
p1241
sg15
S'.000'
p1242
sg16
S'0.0'
p1243
sg17
S'7.8'
p1244
sg19
S'PG'
p1245
sg21
S'.820'
p1246
sg25
S'NBA'
p1247
sg27
S'1.4'
p1248
sg29
S'6.9'
p1249
sg31
S'4.3'
p1250
sg33
S'3.6'
p1251
sg35
S'3.3'
p1252
sg37
S'27'
p1253
sg39
S'TOT'
p1254
sg41
S'75'
p1255
sg43
S'0.2'
p1256
sg45
S'2.4'
p1257
sg47
S'2.9'
p1258
sg49
S'6.8'
p1259
sg51
S'2.4'
p1260
sg53
S'1980-81'
p1261
sg55
S'2.4'
p1262
sg57
S'2.6'
p1263
sg58
S'.357'
p1264
sg60
S'1738'
p1265
sg62
g3
sba(isrc.gp1.models.Per36Minutes
Per36Minutes
p1266
(dp1267
g8
S'0.6'
p1268
sg10
S'0.1'
p1269
sg11
S'.336'
p1270
sg13
S'6.8'
p1271
sg15
S'.000'
p1272
sg16
S'0.0'
p1273
sg17
S'6.9'
p1274
sg19
S'PG'
p1275
sg21
S'.840'
p1276
sg25
S'NBA'
p1277
sg27
S'1.5'
p1278
sg29
S'6.7'
p1279
sg31
S'3.5'
p1280
sg33
S'2.9'
p1281
sg35
S'2.9'
p1282
sg37
S'27'
p1283
sg39
S'ATL'
p1284
sg41
S'24'
p1285
sg43
S'0.2'
p1286
sg45
S'2.3'
p1287
sg47
S'2.4'
p1288
sg49
S'6.6'
p1289
sg51
S'2.4'
p1290
sg53
S'1980-81'
p1291
sg55
S'2.3'
p1292
sg57
S'3.3'
p1293
sg58
S'.339'
p1294
sg60
S'624'
p1295
sg62
g3
sba(isrc.gp1.models.Per36Minutes
Per36Minutes
p1296
(dp1297
g8
S'1.0'
p1298
sg10
S'0.2'
p1299
sg11
S'.356'
p1300
sg13
S'5.6'
p1301
sg15
S'.000'
p1302
sg16
S'0.0'
p1303
sg17
S'8.2'
p1304
sg19
S'PG'
p1305
sg21
S'.811'
p1306
sg25
S'NBA'
p1307
sg27
S'1.3'
p1308
sg29
S'7.1'
p1309
sg31
S'4.8'
p1310
sg33
S'3.9'
p1311
sg35
S'3.5'
p1312
sg37
S'27'
p1313
sg39
S'SEA'
p1314
sg41
S'51'
p1315
sg43
S'0.3'
p1316
sg45
S'2.5'
p1317
sg47
S'3.2'
p1318
sg49
S'6.9'
p1319
sg51
S'2.5'
p1320
sg53
S'1980-81'
p1321
sg55
S'2.5'
p1322
sg57
S'2.2'
p1323
sg58
S'.366'
p1324
sg60
S'1114'
p1325
sg62
g3
sba(isrc.gp1.models.Per36Minutes
Per36Minutes
p1326
(dp1327
g8
S'0.6'
p1328
sg10
S'0.1'
p1329
sg11
S'.421'
p1330
sg13
S'5.3'
p1331
sg15
S'.000'
p1332
sg16
S'0.0'
p1333
sg17
S'7.2'
p1334
sg19
S'PG'
p1335
sg21
S'.709'
p1336
sg25
S'NBA'
p1337
sg27
S'1.0'
p1338
sg29
S'6.3'
p1339
sg31
S'4.4'
p1340
sg33
S'2.7'
p1341
sg35
S'2.6'
p1342
sg37
S'28'
p1343
sg39
S'TOT'
p1344
sg41
S'40'
p1345
sg43
S'0.2'
p1346
sg45
S'2.6'
p1347
sg47
S'1.9'
p1348
sg49
S'6.2'
p1349
sg51
S'2.0'
p1350
sg53
S'1981-82'
p1351
sg55
S'2.6'
p1352
sg57
S'3.3'
p1353
sg58
S'.427'
p1354
sg60
S'723'
p1355
sg62
S'18'
p1356
sba(isrc.gp1.models.Per36Minutes
Per36Minutes
p1357
(dp1358
g8
S'0.9'
p1359
sg10
S'0.0'
p1360
sg11
S'.514'
p1361
sg13
S'3.7'
p1362
sg15
g3
sg16
S'0.0'
p1363
sg17
S'8.1'
p1364
sg19
S'PG'
p1365
sg21
S'.739'
p1366
sg25
S'NBA'
p1367
sg27
S'0.7'
p1368
sg29
S'5.5'
p1369
sg31
S'5.5'
p1370
sg33
S'3.4'
p1371
sg35
S'3.7'
p1372
sg37
S'28'
p1373
sg39
S'SEA'
p1374
sg41
S'21'
p1375
sg43
S'0.3'
p1376
sg45
S'2.8'
p1377
sg47
S'2.5'
p1378
sg49
S'5.5'
p1379
sg51
S'2.8'
p1380
sg53
S'1981-82'
p1381
sg55
S'2.8'
p1382
sg57
S'2.1'
p1383
sg58
S'.514'
p1384
sg60
S'243'
p1385
sg62
g122
sba(isrc.gp1.models.Per36Minutes
Per36Minutes
p1386
(dp1387
g8
S'0.5'
p1388
sg10
S'0.1'
p1389
sg11
S'.382'
p1390
sg13
S'6.1'
p1391
sg15
S'.000'
p1392
sg16
S'0.0'
p1393
sg17
S'6.8'
p1394
sg19
S'PG'
p1395
sg21
S'.688'
p1396
sg25
S'NBA'
p1397
sg27
S'1.2'
p1398
sg29
S'6.7'
p1399
sg31
S'3.8'
p1400
sg33
S'2.4'
p1401
sg35
S'2.0'
p1402
sg37
S'28'
p1403
sg39
S'SDC'
p1404
sg41
S'19'
p1405
sg43
S'0.2'
p1406
sg45
S'2.5'
p1407
sg47
S'1.6'
p1408
sg49
S'6.5'
p1409
sg51
S'1.6'
p1410
sg53
S'1981-82'
p1411
sg55
S'2.5'
p1412
sg57
S'3.9'
p1413
sg58
S'.391'
p1414
sg60
S'480'
p1415
sg62
S'14'
p1416
sba(isrc.gp1.models.Per36Minutes
Per36Minutes
p1417
(dp1418
g8
S'1.1'
p1419
sg10
S'0.0'
p1420
sg11
S'.538'
p1421
sg13
S'5.8'
p1422
sg15
g3
sg16
S'0.0'
p1423
sg17
S'9.8'
p1424
sg19
S'PG'
p1425
sg21
S'.818'
p1426
sg25
S'NBA'
p1427
sg27
S'1.9'
p1428
sg29
S'5.5'
p1429
sg31
S'4.3'
p1430
sg33
S'4.7'
p1431
sg35
S'4.3'
p1432
sg37
S'29'
p1433
sg39
S'MIL'
p1434
sg41
S'14'
p1435
sg43
S'0.0'
p1436
sg45
S'3.0'
p1437
sg47
S'3.8'
p1438
sg49
S'5.5'
p1439
sg51
S'3.2'
p1440
sg53
S'1982-83'
p1441
sg55
S'3.0'
p1442
sg57
S'2.8'
p1443
sg58
S'.538'
p1444
sg60
S'169'
p1445
sg62
g200
sba(isrc.gp1.models.Per36Minutes
Per36Minutes
p1446
(dp1447
g8
S'0.4'
p1448
sg10
S'0.0'
p1449
sg11
S'.304'
p1450
sg13
S'7.0'
p1451
sg15
g3
sg16
S'0.0'
p1452
sg17
S'9.0'
p1453
sg19
S'PG'
p1454
sg21
S'.810'
p1455
sg25
S'NBA'
p1456
sg27
S'1.4'
p1457
sg29
S'9.1'
p1458
sg31
S'6.0'
p1459
sg33
S'4.2'
p1460
sg35
S'2.0'
p1461
sg37
S'30'
p1462
sg39
S'ATL'
p1463
sg41
S'15'
p1464
sg43
S'0.0'
p1465
sg45
S'2.8'
p1466
sg47
S'3.4'
p1467
sg49
S'9.1'
p1468
sg51
S'1.6'
p1469
sg53
S'1983-84'
p1470
sg55
S'2.8'
p1471
sg57
S'2.8'
p1472
sg58
S'.304'
p1473
sg60
S'181'
p1474
sg62
g241
sbasS'_fromYear'
p1475
S'1977'
p1476
sS'_url'
p1477
S'http://www.basketball-reference.com/players/h/hillar01.html'
p1478
sS'_perGame'
p1479
(isrc.gp1.models.PerGame
PerGame
p1480
(dp1481
g8
S'0.1'
p1482
sg10
S'0.0'
p1483
sg11
S'.304'
p1484
sS'_effectiveFieldGalPercentage'
p1485
S'.304'
p1486
sg13
S'2.3'
p1487
sg15
g3
sg16
S'0.0'
p1488
sg17
S'3.0'
p1489
sg19
S'PG'
p1490
sg21
S'.810'
p1491
sg25
S'NBA'
p1492
sg27
S'0.5'
p1493
sg31
S'2.0'
p1494
sS'_fieldGoalsttempted'
p1495
S'3.1'
p1496
sg33
S'1.4'
p1497
sg35
S'0.7'
p1498
sg37
S'30'
p1499
sg39
S'ATL'
p1500
sg41
S'15'
p1501
sg43
S'0.0'
p1502
sg45
S'0.9'
p1503
sg47
S'1.1'
p1504
sg49
S'3.1'
p1505
sg51
S'0.5'
p1506
sg53
S'1983-84'
p1507
sg55
S'0.9'
p1508
sg57
S'0.9'
p1509
sg58
S'.304'
p1510
sg60
S'12.1'
p1511
sg62
g241
sbsS'_weight'
p1512
S'190'
p1513
sS'_dob'
p1514
S'31-3-1953'
p1515
sS'_salary'
p1516
(lp1517
sg19
S'G'
p1518
sb.