(isrc.gp1.models.Player
Player
p0
(dp1
S'_experience'
p2
V9
p3
sS'_totals'
p4
(lp5
(isrc.gp1.models.Totals
Totals
p6
(dp7
S'_offensiveRebounds'
p8
S'11'
p9
sS'_threePointsAttempted'
p10
S'0'
p11
sS'_fieldGoalsPercentage'
p12
S'.556'
p13
sS'_assist'
p14
S'1'
p15
sS'_threePointsPercentage'
p16
S'NA'
p17
sS'_threePoints'
p18
g11
sS'_points'
p19
S'64'
p20
sS'_position'
p21
S'C'
p22
sS'_freeThrowsPercentage'
p23
S'.600'
p24
sS'_effectiveFieldGoalPercentage'
p25
S'.556'
p26
sS'_league'
p27
S'NBA'
p28
sS'_steals'
p29
S'4'
p30
sS'_fieldGoalsAttempted'
p31
S'36'
p32
sS'_personalFouls'
p33
S'40'
p34
sS'_freeThrowsAttempted'
p35
S'40'
p36
sS'_totalRebounds'
p37
S'31'
p38
sS'_age'
p39
S'22'
p40
sS'_team'
p41
S'CHA'
p42
sS'_games'
p43
S'27'
p44
sS'_blocks'
p45
S'7'
p46
sS'_twoPoints'
p47
S'20'
p48
sS'_freeThrows'
p49
S'24'
p50
sS'_twoPointsAttempted'
p51
S'36'
p52
sS'_defensiveRebounds'
p53
S'20'
p54
sS'_season'
p55
S'2006-07'
p56
sS'_fieldGoals'
p57
S'20'
p58
sS'_turnOvers'
p59
S'16'
p60
sS'_twoPointsPercentage'
p61
S'.556'
p62
sS'_minutesPlayed'
p63
S'185'
p64
sS'_gamesStarted'
p65
g11
sba(isrc.gp1.models.Totals
Totals
p66
(dp67
g8
S'53'
p68
sg10
g11
sg12
S'.489'
p69
sg14
S'14'
p70
sg16
g17
sg18
g11
sg19
S'147'
p71
sg21
S'PF'
p72
sg23
S'.671'
p73
sg25
S'.489'
p74
sg27
S'NBA'
p75
sg29
S'10'
p76
sg31
S'94'
p77
sg33
S'96'
p78
sg35
S'82'
p79
sg37
S'107'
p80
sg39
S'23'
p81
sg41
S'CHA'
p82
sg43
S'60'
p83
sg45
S'30'
p84
sg47
S'46'
p85
sg49
S'55'
p86
sg51
S'94'
p87
sg53
S'54'
p88
sg55
S'2007-08'
p89
sg57
S'46'
p90
sg59
S'25'
p91
sg61
S'.489'
p92
sg63
S'532'
p93
sg65
g15
sba(isrc.gp1.models.Totals
Totals
p94
(dp95
g8
S'46'
p96
sg10
g11
sg12
S'.532'
p97
sg14
g46
sg16
g17
sg18
g11
sg19
S'143'
p98
sg21
g22
sg23
S'.597'
p99
sg25
S'.532'
p100
sg27
S'NBA'
p101
sg29
g46
sg31
S'94'
p102
sg33
S'78'
p103
sg35
S'72'
p104
sg37
S'97'
p105
sg39
S'24'
p106
sg41
S'TOT'
p107
sg43
S'45'
p108
sg45
S'32'
p109
sg47
S'50'
p110
sg49
S'43'
p111
sg51
S'94'
p112
sg53
S'51'
p113
sg55
S'2008-09'
p114
sg57
S'50'
p115
sg59
S'24'
p116
sg61
S'.532'
p117
sg63
S'444'
p118
sg65
S'3'
p119
sba(isrc.gp1.models.Totals
Totals
p120
(dp121
g8
S'19'
p122
sg10
g11
sg12
S'.543'
p123
sg14
g30
sg16
g17
sg18
g11
sg19
S'64'
p124
sg21
g22
sg23
S'.667'
p125
sg25
S'.543'
p126
sg27
S'NBA'
p127
sg29
g119
sg31
S'35'
p128
sg33
S'34'
p129
sg35
S'39'
p130
sg37
S'36'
p131
sg39
S'24'
p132
sg41
S'CHA'
p133
sg43
S'18'
p134
sg45
S'17'
p135
sg47
S'19'
p136
sg49
S'26'
p137
sg51
S'35'
p138
sg53
S'17'
p139
sg55
S'2008-09'
p140
sg57
S'19'
p141
sg59
S'10'
p142
sg61
S'.543'
p143
sg63
S'184'
p144
sg65
g15
sba(isrc.gp1.models.Totals
Totals
p145
(dp146
g8
S'27'
p147
sg10
g11
sg12
S'.525'
p148
sg14
g119
sg16
g17
sg18
g11
sg19
S'79'
p149
sg21
g22
sg23
S'.515'
p150
sg25
S'.525'
p151
sg27
S'NBA'
p152
sg29
g30
sg31
S'59'
p153
sg33
S'44'
p154
sg35
S'33'
p155
sg37
S'61'
p156
sg39
S'24'
p157
sg41
S'DAL'
p158
sg43
S'27'
p159
sg45
S'15'
p160
sg47
S'31'
p161
sg49
S'17'
p162
sg51
S'59'
p163
sg53
S'34'
p164
sg55
S'2008-09'
p165
sg57
S'31'
p166
sg59
S'14'
p167
sg61
S'.525'
p168
sg63
S'260'
p169
sg65
S'2'
p170
sba(isrc.gp1.models.Totals
Totals
p171
(dp172
g8
S'79'
p173
sg10
g15
sg12
S'.558'
p174
sg14
S'51'
p175
sg16
S'.000'
p176
sg18
g11
sg19
S'447'
p177
sg21
g22
sg23
S'.690'
p178
sg25
S'.558'
p179
sg27
S'NBA'
p180
sg29
S'19'
p181
sg31
S'303'
p182
sg33
S'199'
p183
sg35
S'158'
p184
sg37
S'207'
p185
sg39
S'25'
p186
sg41
S'MIN'
p187
sg43
S'73'
p188
sg45
S'38'
p189
sg47
S'169'
p190
sg49
S'109'
p191
sg51
S'302'
p192
sg53
S'128'
p193
sg55
S'2009-10'
p194
sg57
S'169'
p195
sg59
S'95'
p196
sg61
S'.560'
p197
sg63
S'1223'
p198
sg65
S'27'
p199
sba(isrc.gp1.models.Totals
Totals
p200
(dp201
g8
S'70'
p202
sg10
g11
sg12
S'.598'
p203
sg14
S'26'
p204
sg16
g17
sg18
g11
sg19
S'373'
p205
sg21
g22
sg23
S'.681'
p206
sg25
S'.598'
p207
sg27
S'NBA'
p208
sg29
S'22'
p209
sg31
S'219'
p210
sg33
S'199'
p211
sg35
S'163'
p212
sg37
S'186'
p213
sg39
S'26'
p214
sg41
S'CLE'
p215
sg43
S'70'
p216
sg45
S'42'
p217
sg47
S'131'
p218
sg49
S'111'
p219
sg51
S'219'
p220
sg53
S'116'
p221
sg55
S'2010-11'
p222
sg57
S'131'
p223
sg59
S'67'
p224
sg61
S'.598'
p225
sg63
S'1182'
p226
sg65
S'16'
p227
sba(isrc.gp1.models.Totals
Totals
p228
(dp229
g8
S'34'
p230
sg10
g11
sg12
S'.548'
p231
sg14
S'9'
p232
sg16
g17
sg18
g11
sg19
S'131'
p233
sg21
g22
sg23
S'.520'
p234
sg25
S'.548'
p235
sg27
S'NBA'
p236
sg29
S'5'
p237
sg31
S'84'
p238
sg33
S'78'
p239
sg35
S'75'
p240
sg37
S'82'
p241
sg39
S'27'
p242
sg41
S'TOT'
p243
sg43
S'39'
p244
sg45
S'17'
p245
sg47
S'46'
p246
sg49
S'39'
p247
sg51
S'84'
p248
sg53
S'48'
p249
sg55
S'2011-12'
p250
sg57
S'46'
p251
sg59
S'35'
p252
sg61
S'.548'
p253
sg63
S'522'
p254
sg65
S'8'
p255
sba(isrc.gp1.models.Totals
Totals
p256
(dp257
g8
S'25'
p258
sg10
g11
sg12
S'.500'
p259
sg14
S'6'
p260
sg16
g17
sg18
g11
sg19
S'89'
p261
sg21
g22
sg23
S'.600'
p262
sg25
S'.500'
p263
sg27
S'NBA'
p264
sg29
g30
sg31
S'56'
p265
sg33
S'55'
p266
sg35
S'55'
p267
sg37
S'56'
p268
sg39
S'27'
p269
sg41
S'CLE'
p270
sg43
S'24'
p271
sg45
S'12'
p272
sg47
S'28'
p273
sg49
S'33'
p274
sg51
S'56'
p275
sg53
S'31'
p276
sg55
S'2011-12'
p277
sg57
S'28'
p278
sg59
S'24'
p279
sg61
S'.500'
p280
sg63
S'362'
p281
sg65
g46
sba(isrc.gp1.models.Totals
Totals
p282
(dp283
g8
g232
sg10
g11
sg12
S'.643'
p284
sg14
g119
sg16
g17
sg18
g11
sg19
S'42'
p285
sg21
g22
sg23
S'.300'
p286
sg25
S'.643'
p287
sg27
S'NBA'
p288
sg29
g15
sg31
S'28'
p289
sg33
S'23'
p290
sg35
S'20'
p291
sg37
S'26'
p292
sg39
S'27'
p293
sg41
S'BOS'
p294
sg43
S'15'
p295
sg45
g237
sg47
S'18'
p296
sg49
g260
sg51
S'28'
p297
sg53
S'17'
p298
sg55
S'2011-12'
p299
sg57
S'18'
p300
sg59
S'11'
p301
sg61
S'.643'
p302
sg63
S'160'
p303
sg65
g15
sba(isrc.gp1.models.Totals
Totals
p304
(dp305
g8
S'50'
p306
sg10
g11
sg12
S'.614'
p307
sg14
S'11'
p308
sg16
g17
sg18
g11
sg19
S'206'
p309
sg21
g22
sg23
S'.750'
p310
sg25
S'.614'
p311
sg27
S'NBA'
p312
sg29
g260
sg31
S'114'
p313
sg33
S'133'
p314
sg35
S'88'
p315
sg37
S'139'
p316
sg39
S'28'
p317
sg41
S'LAC'
p318
sg43
S'60'
p319
sg45
S'34'
p320
sg47
S'70'
p321
sg49
S'66'
p322
sg51
S'114'
p323
sg53
S'89'
p324
sg55
S'2012-13'
p325
sg57
S'70'
p326
sg59
S'44'
p327
sg61
S'.614'
p328
sg63
S'663'
p329
sg65
g11
sba(isrc.gp1.models.Totals
Totals
p330
(dp331
g8
S'31'
p332
sg10
g11
sg12
S'.736'
p333
sg14
g255
sg16
g17
sg18
g11
sg19
S'141'
p334
sg21
S'PF'
p335
sg23
S'.625'
p336
sg25
S'.736'
p337
sg27
S'NBA'
p338
sg29
g232
sg31
S'72'
p339
sg33
S'87'
p340
sg35
S'56'
p341
sg37
S'90'
p342
sg39
S'29'
p343
sg41
S'LAC'
p344
sg43
S'61'
p345
sg45
S'31'
p346
sg47
S'53'
p347
sg49
S'35'
p348
sg51
S'72'
p349
sg53
S'59'
p350
sg55
S'2013-14'
p351
sg57
S'53'
p352
sg59
S'29'
p353
sg61
S'.736'
p354
sg63
S'482'
p355
sg65
g11
sba(isrc.gp1.models.Totals
Totals
p356
(dp357
g8
S'36'
p358
sg10
g11
sg12
S'.646'
p359
sg14
S'14'
p360
sg16
g17
sg18
g11
sg19
S'137'
p361
sg21
g22
sg23
S'.574'
p362
sg25
S'.646'
p363
sg27
S'NBA'
p364
sg29
g260
sg31
S'82'
p365
sg33
S'65'
p366
sg35
S'54'
p367
sg37
S'103'
p368
sg39
S'30'
p369
sg41
S'SAC'
p370
sg43
S'46'
p371
sg45
S'19'
p372
sg47
S'53'
p373
sg49
S'31'
p374
sg51
S'82'
p375
sg53
S'67'
p376
sg55
S'2014-15'
p377
sg57
S'53'
p378
sg59
S'25'
p379
sg61
S'.646'
p380
sg63
S'441'
p381
sg65
g232
sba(isrc.gp1.models.Totals
Totals
p382
(dp383
g8
S'18'
p384
sg10
g11
sg12
S'.607'
p385
sg14
g237
sg16
g17
sg18
g11
sg19
S'44'
p386
sg21
g22
sg23
S'.769'
p387
sg25
S'.607'
p388
sg27
S'NBA'
p389
sg29
g170
sg31
S'28'
p390
sg33
S'25'
p391
sg35
S'13'
p392
sg37
S'36'
p393
sg39
S'31'
p394
sg41
S'TOT'
p395
sg43
S'16'
p396
sg45
S'10'
p397
sg47
S'17'
p398
sg49
S'10'
p399
sg51
S'28'
p400
sg53
S'18'
p401
sg55
S'2015-16'
p402
sg57
S'17'
p403
sg59
g255
sg61
S'.607'
p404
sg63
S'165'
p405
sg65
g119
sba(isrc.gp1.models.Totals
Totals
p406
(dp407
g8
g46
sg10
g11
sg12
S'.571'
p408
sg14
g11
sg16
g17
sg18
g11
sg19
g255
sg21
g22
sg23
g17
sg25
S'.571'
p409
sg27
S'NBA'
p410
sg29
g11
sg31
g46
sg33
g30
sg35
g11
sg37
S'11'
p411
sg39
S'31'
p412
sg41
S'WAS'
p413
sg43
g237
sg45
g15
sg47
g30
sg49
g11
sg51
g46
sg53
g30
sg55
S'2015-16'
p414
sg57
g30
sg59
g119
sg61
S'.571'
p415
sg63
S'48'
p416
sg65
g119
sba(isrc.gp1.models.Totals
Totals
p417
(dp418
g8
S'11'
p419
sg10
g11
sg12
S'.619'
p420
sg14
g237
sg16
g17
sg18
g11
sg19
S'36'
p421
sg21
g22
sg23
S'.769'
p422
sg25
S'.619'
p423
sg27
S'NBA'
p424
sg29
g170
sg31
S'21'
p425
sg33
S'21'
p426
sg35
S'13'
p427
sg37
S'25'
p428
sg39
S'31'
p429
sg41
S'MEM'
p430
sg43
S'11'
p431
sg45
g232
sg47
S'13'
p432
sg49
S'10'
p433
sg51
S'21'
p434
sg53
S'14'
p435
sg55
S'2015-16'
p436
sg57
S'13'
p437
sg59
g237
sg61
S'.619'
p438
sg63
S'117'
p439
sg65
g11
sbasS'_college'
p440
S'University of California, Los Angeles'
p441
sS'_toYear'
p442
S'2016'
p443
sS'_height'
p444
S'7-0'
p445
sS'_active'
p446
I01
sS'_shootingHand'
p447
VRight
p448
sS'_name'
p449
S'Ryan Hollins'
p450
sS'_per100Possessions'
p451
(lp452
(isrc.gp1.models.Per100Possession
Per100Possession
p453
(dp454
g8
S'3.1'
p455
sg10
S'0.0'
p456
sg12
S'.556'
p457
sS'_offensiveRating'
p458
S'97'
p459
sg14
S'0.3'
p460
sg16
g17
sg18
S'0.0'
p461
sg19
S'18.0'
p462
sg21
g22
sS'_defensiveRating'
p463
S'108'
p464
sg23
S'.600'
p465
sg27
S'NBA'
p466
sg29
S'1.1'
p467
sg31
S'10.2'
p468
sg33
S'11.3'
p469
sg35
S'11.3'
p470
sg37
S'8.7'
p471
sg39
S'22'
p472
sg41
S'CHA'
p473
sg43
S'27'
p474
sg45
S'2.0'
p475
sg47
S'5.6'
p476
sg49
S'6.8'
p477
sg51
S'10.2'
p478
sg53
S'5.6'
p479
sg55
S'2006-07'
p480
sg57
S'5.6'
p481
sg59
S'4.5'
p482
sg61
S'.556'
p483
sg63
S'185'
p484
sg65
g11
sba(isrc.gp1.models.Per100Possession
Per100Possession
p485
(dp486
g8
S'5.2'
p487
sg10
S'0.0'
p488
sg12
S'.489'
p489
sg458
S'113'
p490
sg14
S'1.4'
p491
sg16
g17
sg18
S'0.0'
p492
sg19
S'14.4'
p493
sg21
S'PF'
p494
sg463
S'109'
p495
sg23
S'.671'
p496
sg27
S'NBA'
p497
sg29
S'1.0'
p498
sg31
S'9.2'
p499
sg33
S'9.4'
p500
sg35
S'8.1'
p501
sg37
S'10.5'
p502
sg39
S'23'
p503
sg41
S'CHA'
p504
sg43
S'60'
p505
sg45
S'2.9'
p506
sg47
S'4.5'
p507
sg49
S'5.4'
p508
sg51
S'9.2'
p509
sg53
S'5.3'
p510
sg55
S'2007-08'
p511
sg57
S'4.5'
p512
sg59
S'2.5'
p513
sg61
S'.489'
p514
sg63
S'532'
p515
sg65
g15
sba(isrc.gp1.models.Per100Possession
Per100Possession
p516
(dp517
g8
S'5.5'
p518
sg10
S'0.0'
p519
sg12
S'.532'
p520
sg458
S'110'
p521
sg14
S'0.8'
p522
sg16
g17
sg18
S'0.0'
p523
sg19
S'17.1'
p524
sg21
g22
sg463
S'106'
p525
sg23
S'.597'
p526
sg27
S'NBA'
p527
sg29
S'0.8'
p528
sg31
S'11.3'
p529
sg33
S'9.4'
p530
sg35
S'8.6'
p531
sg37
S'11.6'
p532
sg39
S'24'
p533
sg41
S'TOT'
p534
sg43
S'45'
p535
sg45
S'3.8'
p536
sg47
S'6.0'
p537
sg49
S'5.2'
p538
sg51
S'11.3'
p539
sg53
S'6.1'
p540
sg55
S'2008-09'
p541
sg57
S'6.0'
p542
sg59
S'2.9'
p543
sg61
S'.532'
p544
sg63
S'444'
p545
sg65
g119
sba(isrc.gp1.models.Per100Possession
Per100Possession
p546
(dp547
g8
S'5.6'
p548
sg10
S'0.0'
p549
sg12
S'.543'
p550
sg458
S'118'
p551
sg14
S'1.2'
p552
sg16
g17
sg18
S'0.0'
p553
sg19
S'18.9'
p554
sg21
g22
sg463
S'104'
p555
sg23
S'.667'
p556
sg27
S'NBA'
p557
sg29
S'0.9'
p558
sg31
S'10.3'
p559
sg33
S'10.0'
p560
sg35
S'11.5'
p561
sg37
S'10.6'
p562
sg39
S'24'
p563
sg41
S'CHA'
p564
sg43
S'18'
p565
sg45
S'5.0'
p566
sg47
S'5.6'
p567
sg49
S'7.7'
p568
sg51
S'10.3'
p569
sg53
S'5.0'
p570
sg55
S'2008-09'
p571
sg57
S'5.6'
p572
sg59
S'3.0'
p573
sg61
S'.543'
p574
sg63
S'184'
p575
sg65
g15
sba(isrc.gp1.models.Per100Possession
Per100Possession
p576
(dp577
g8
S'5.4'
p578
sg10
S'0.0'
p579
sg12
S'.525'
p580
sg458
S'105'
p581
sg14
S'0.6'
p582
sg16
g17
sg18
S'0.0'
p583
sg19
S'15.9'
p584
sg21
g22
sg463
S'108'
p585
sg23
S'.515'
p586
sg27
S'NBA'
p587
sg29
S'0.8'
p588
sg31
S'11.9'
p589
sg33
S'8.9'
p590
sg35
S'6.7'
p591
sg37
S'12.3'
p592
sg39
S'24'
p593
sg41
S'DAL'
p594
sg43
S'27'
p595
sg45
S'3.0'
p596
sg47
S'6.3'
p597
sg49
S'3.4'
p598
sg51
S'11.9'
p599
sg53
S'6.9'
p600
sg55
S'2008-09'
p601
sg57
S'6.3'
p602
sg59
S'2.8'
p603
sg61
S'.525'
p604
sg63
S'260'
p605
sg65
g170
sba(isrc.gp1.models.Per100Possession
Per100Possession
p606
(dp607
g8
S'3.2'
p608
sg10
S'0.0'
p609
sg12
S'.558'
p610
sg458
S'105'
p611
sg14
S'2.1'
p612
sg16
S'.000'
p613
sg18
S'0.0'
p614
sg19
S'18.3'
p615
sg21
g22
sg463
S'113'
p616
sg23
S'.690'
p617
sg27
S'NBA'
p618
sg29
S'0.8'
p619
sg31
S'12.4'
p620
sg33
S'8.1'
p621
sg35
S'6.5'
p622
sg37
S'8.5'
p623
sg39
S'25'
p624
sg41
S'MIN'
p625
sg43
S'73'
p626
sg45
S'1.6'
p627
sg47
S'6.9'
p628
sg49
S'4.5'
p629
sg51
S'12.3'
p630
sg53
S'5.2'
p631
sg55
S'2009-10'
p632
sg57
S'6.9'
p633
sg59
S'3.9'
p634
sg61
S'.560'
p635
sg63
S'1223'
p636
sg65
S'27'
p637
sba(isrc.gp1.models.Per100Possession
Per100Possession
p638
(dp639
g8
S'3.1'
p640
sg10
S'0.0'
p641
sg12
S'.598'
p642
sg458
S'112'
p643
sg14
S'1.1'
p644
sg16
g17
sg18
S'0.0'
p645
sg19
S'16.3'
p646
sg21
g22
sg463
S'113'
p647
sg23
S'.681'
p648
sg27
S'NBA'
p649
sg29
S'1.0'
p650
sg31
S'9.6'
p651
sg33
S'8.7'
p652
sg35
S'7.1'
p653
sg37
S'8.1'
p654
sg39
S'26'
p655
sg41
S'CLE'
p656
sg43
S'70'
p657
sg45
S'1.8'
p658
sg47
S'5.7'
p659
sg49
S'4.8'
p660
sg51
S'9.6'
p661
sg53
S'5.1'
p662
sg55
S'2010-11'
p663
sg57
S'5.7'
p664
sg59
S'2.9'
p665
sg61
S'.598'
p666
sg63
S'1182'
p667
sg65
S'16'
p668
sba(isrc.gp1.models.Per100Possession
Per100Possession
p669
(dp670
g8
S'3.4'
p671
sg10
S'0.0'
p672
sg12
S'.548'
p673
sg458
S'95'
p674
sg14
S'0.9'
p675
sg16
g17
sg18
S'0.0'
p676
sg19
S'13.2'
p677
sg21
g22
sg463
S'108'
p678
sg23
S'.520'
p679
sg27
S'NBA'
p680
sg29
S'0.5'
p681
sg31
S'8.5'
p682
sg33
S'7.9'
p683
sg35
S'7.6'
p684
sg37
S'8.3'
p685
sg39
S'27'
p686
sg41
S'TOT'
p687
sg43
S'39'
p688
sg45
S'1.7'
p689
sg47
S'4.6'
p690
sg49
S'3.9'
p691
sg51
S'8.5'
p692
sg53
S'4.8'
p693
sg55
S'2011-12'
p694
sg57
S'4.6'
p695
sg59
S'3.5'
p696
sg61
S'.548'
p697
sg63
S'522'
p698
sg65
g255
sba(isrc.gp1.models.Per100Possession
Per100Possession
p699
(dp700
g8
S'3.6'
p701
sg10
S'0.0'
p702
sg12
S'.500'
p703
sg458
S'97'
p704
sg14
S'0.9'
p705
sg16
g17
sg18
S'0.0'
p706
sg19
S'12.9'
p707
sg21
g22
sg463
S'111'
p708
sg23
S'.600'
p709
sg27
S'NBA'
p710
sg29
S'0.6'
p711
sg31
S'8.1'
p712
sg33
S'8.0'
p713
sg35
S'8.0'
p714
sg37
S'8.1'
p715
sg39
S'27'
p716
sg41
S'CLE'
p717
sg43
S'24'
p718
sg45
S'1.7'
p719
sg47
S'4.1'
p720
sg49
S'4.8'
p721
sg51
S'8.1'
p722
sg53
S'4.5'
p723
sg55
S'2011-12'
p724
sg57
S'4.1'
p725
sg59
S'3.5'
p726
sg61
S'.500'
p727
sg63
S'362'
p728
sg65
g46
sba(isrc.gp1.models.Per100Possession
Per100Possession
p729
(dp730
g8
S'3.0'
p731
sg10
S'0.0'
p732
sg12
S'.643'
p733
sg458
S'91'
p734
sg14
S'1.0'
p735
sg16
g17
sg18
S'0.0'
p736
sg19
S'13.9'
p737
sg21
g22
sg463
S'102'
p738
sg23
S'.300'
p739
sg27
S'NBA'
p740
sg29
S'0.3'
p741
sg31
S'9.3'
p742
sg33
S'7.6'
p743
sg35
S'6.6'
p744
sg37
S'8.6'
p745
sg39
S'27'
p746
sg41
S'BOS'
p747
sg43
S'15'
p748
sg45
S'1.7'
p749
sg47
S'6.0'
p750
sg49
S'2.0'
p751
sg51
S'9.3'
p752
sg53
S'5.6'
p753
sg55
S'2011-12'
p754
sg57
S'6.0'
p755
sg59
S'3.7'
p756
sg61
S'.643'
p757
sg63
S'160'
p758
sg65
g15
sba(isrc.gp1.models.Per100Possession
Per100Possession
p759
(dp760
g8
S'4.0'
p761
sg10
S'0.0'
p762
sg12
S'.614'
p763
sg458
S'115'
p764
sg14
S'0.9'
p765
sg16
g17
sg18
S'0.0'
p766
sg19
S'16.4'
p767
sg21
g22
sg463
S'105'
p768
sg23
S'.750'
p769
sg27
S'NBA'
p770
sg29
S'0.5'
p771
sg31
S'9.1'
p772
sg33
S'10.6'
p773
sg35
S'7.0'
p774
sg37
S'11.0'
p775
sg39
S'28'
p776
sg41
S'LAC'
p777
sg43
S'60'
p778
sg45
S'2.7'
p779
sg47
S'5.6'
p780
sg49
S'5.2'
p781
sg51
S'9.1'
p782
sg53
S'7.1'
p783
sg55
S'2012-13'
p784
sg57
S'5.6'
p785
sg59
S'3.5'
p786
sg61
S'.614'
p787
sg63
S'663'
p788
sg65
g11
sba(isrc.gp1.models.Per100Possession
Per100Possession
p789
(dp790
g8
S'3.2'
p791
sg10
S'0.0'
p792
sg12
S'.736'
p793
sg458
S'117'
p794
sg14
S'0.8'
p795
sg16
g17
sg18
S'0.0'
p796
sg19
S'14.6'
p797
sg21
S'PF'
p798
sg463
S'105'
p799
sg23
S'.625'
p800
sg27
S'NBA'
p801
sg29
S'0.9'
p802
sg31
S'7.5'
p803
sg33
S'9.0'
p804
sg35
S'5.8'
p805
sg37
S'9.3'
p806
sg39
S'29'
p807
sg41
S'LAC'
p808
sg43
S'61'
p809
sg45
S'3.2'
p810
sg47
S'5.5'
p811
sg49
S'3.6'
p812
sg51
S'7.5'
p813
sg53
S'6.1'
p814
sg55
S'2013-14'
p815
sg57
S'5.5'
p816
sg59
S'3.0'
p817
sg61
S'.736'
p818
sg63
S'482'
p819
sg65
g11
sba(isrc.gp1.models.Per100Possession
Per100Possession
p820
(dp821
g8
S'4.1'
p822
sg10
S'0.0'
p823
sg12
S'.646'
p824
sg458
S'115'
p825
sg14
S'1.6'
p826
sg16
g17
sg18
S'0.0'
p827
sg19
S'15.6'
p828
sg21
g22
sg463
S'109'
p829
sg23
S'.574'
p830
sg27
S'NBA'
p831
sg29
S'0.7'
p832
sg31
S'9.4'
p833
sg33
S'7.4'
p834
sg35
S'6.2'
p835
sg37
S'11.8'
p836
sg39
S'30'
p837
sg41
S'SAC'
p838
sg43
S'46'
p839
sg45
S'2.2'
p840
sg47
S'6.0'
p841
sg49
S'3.5'
p842
sg51
S'9.4'
p843
sg53
S'7.6'
p844
sg55
S'2014-15'
p845
sg57
S'6.0'
p846
sg59
S'2.9'
p847
sg61
S'.646'
p848
sg63
S'441'
p849
sg65
g232
sba(isrc.gp1.models.Per100Possession
Per100Possession
p850
(dp851
g8
S'5.5'
p852
sg10
S'0.0'
p853
sg12
S'.607'
p854
sg458
S'122'
p855
sg14
S'1.5'
p856
sg16
g17
sg18
S'0.0'
p857
sg19
S'13.6'
p858
sg21
g22
sg463
S'107'
p859
sg23
S'.769'
p860
sg27
S'NBA'
p861
sg29
S'0.6'
p862
sg31
S'8.6'
p863
sg33
S'7.7'
p864
sg35
S'4.0'
p865
sg37
S'11.1'
p866
sg39
S'31'
p867
sg41
S'TOT'
p868
sg43
S'16'
p869
sg45
S'3.1'
p870
sg47
S'5.2'
p871
sg49
S'3.1'
p872
sg51
S'8.6'
p873
sg53
S'5.5'
p874
sg55
S'2015-16'
p875
sg57
S'5.2'
p876
sg59
S'2.5'
p877
sg61
S'.607'
p878
sg63
S'165'
p879
sg65
g119
sba(isrc.gp1.models.Per100Possession
Per100Possession
p880
(dp881
g8
S'7.1'
p882
sg10
S'0.0'
p883
sg12
S'.571'
p884
sg458
S'104'
p885
sg14
S'0.0'
p886
sg16
g17
sg18
S'0.0'
p887
sg19
S'8.2'
p888
sg21
g22
sg463
S'113'
p889
sg23
g17
sg27
S'NBA'
p890
sg29
S'0.0'
p891
sg31
S'7.1'
p892
sg33
S'4.1'
p893
sg35
S'0.0'
p894
sg37
S'11.2'
p895
sg39
S'31'
p896
sg41
S'WAS'
p897
sg43
g237
sg45
S'1.0'
p898
sg47
S'4.1'
p899
sg49
S'0.0'
p900
sg51
S'7.1'
p901
sg53
S'4.1'
p902
sg55
S'2015-16'
p903
sg57
S'4.1'
p904
sg59
S'3.1'
p905
sg61
S'.571'
p906
sg63
S'48'
p907
sg65
g119
sba(isrc.gp1.models.Per100Possession
Per100Possession
p908
(dp909
g8
S'4.9'
p910
sg10
S'0.0'
p911
sg12
S'.619'
p912
sg458
S'128'
p913
sg14
S'2.2'
p914
sg16
g17
sg18
S'0.0'
p915
sg19
S'15.9'
p916
sg21
g22
sg463
S'104'
p917
sg23
S'.769'
p918
sg27
S'NBA'
p919
sg29
S'0.9'
p920
sg31
S'9.3'
p921
sg33
S'9.3'
p922
sg35
S'5.7'
p923
sg37
S'11.0'
p924
sg39
S'31'
p925
sg41
S'MEM'
p926
sg43
S'11'
p927
sg45
S'4.0'
p928
sg47
S'5.7'
p929
sg49
S'4.4'
p930
sg51
S'9.3'
p931
sg53
S'6.2'
p932
sg55
S'2015-16'
p933
sg57
S'5.7'
p934
sg59
S'2.2'
p935
sg61
S'.619'
p936
sg63
S'117'
p937
sg65
g11
sbasS'_advanced'
p938
(lp939
(isrc.gp1.models.Advanced
Advanced
p940
(dp941
S'_offensiveReboundPercentage'
p942
S'6.8'
p943
sS'_turnOverPercentage'
p944
S'23.0'
p945
sS'_winSharesPer48Minutes'
p946
S'.040'
p947
sS'_stealPercentage'
p948
S'1.1'
p949
sS'_usagePercentage'
p950
S'17.1'
p951
sS'_totalReboundsPercentage'
p952
S'9.9'
p953
sS'_defensiveBoxPlusMinus'
p954
S'-1.5'
p955
sg21
g22
sS'_valueOverReplacementPlayer'
p956
S'-0.2'
p957
sS'_trueShootingPercentage'
p958
S'.597'
p959
sS'_defensiveReboundPercentage'
p960
S'13.2'
p961
sS'_freeThrowsAttempRate'
p962
S'1.111'
p963
sS'_threePointsAttempRate'
p964
S'.000'
p965
sg27
S'NBA'
p966
sS'_offensiveBoxPlusMinues'
p967
S'-5.4'
p968
sS'_assistPercentage'
p969
S'0.9'
p970
sS'_defensiveWinShares'
p971
S'0.2'
p972
sg39
S'22'
p973
sg41
S'CHA'
p974
sg43
S'27'
p975
sS'_blockPercentage'
p976
S'2.9'
p977
sS'_playerEfficiencyRating'
p978
S'8.5'
p979
sS'_offensiveWinShares'
p980
S'0.0'
p981
sg63
S'185'
p982
sS'_boxPlusMinus'
p983
S'-6.9'
p984
sg55
S'2006-07'
p985
sS'_winShares'
p986
S'0.2'
p987
sba(isrc.gp1.models.Advanced
Advanced
p988
(dp989
g942
S'11.4'
p990
sg944
S'16.1'
p991
sg946
S'.096'
p992
sg948
S'1.0'
p993
sg950
S'13.3'
p994
sg952
S'11.6'
p995
sg954
S'0.6'
p996
sg21
S'PF'
p997
sg956
S'0.0'
p998
sg958
S'.565'
p999
sg960
S'11.7'
p1000
sg962
S'.872'
p1001
sg964
S'.000'
p1002
sg27
S'NBA'
p1003
sg967
S'-2.7'
p1004
sg969
S'4.0'
p1005
sg971
S'0.4'
p1006
sg39
S'23'
p1007
sg41
S'CHA'
p1008
sg43
S'60'
p1009
sg976
S'4.3'
p1010
sg978
S'11.4'
p1011
sg980
S'0.6'
p1012
sg63
S'532'
p1013
sg983
S'-2.2'
p1014
sg55
S'2007-08'
p1015
sg986
S'1.1'
p1016
sba(isrc.gp1.models.Advanced
Advanced
p1017
(dp1018
g942
S'12.4'
p1019
sg944
S'16.0'
p1020
sg946
S'.110'
p1021
sg948
S'0.8'
p1022
sg950
S'15.7'
p1023
sg952
S'12.9'
p1024
sg954
S'0.9'
p1025
sg21
g22
sg956
S'0.0'
p1026
sg958
S'.569'
p1027
sg960
S'13.4'
p1028
sg962
S'.766'
p1029
sg964
S'.000'
p1030
sg27
S'NBA'
p1031
sg967
S'-2.9'
p1032
sg969
S'2.5'
p1033
sg971
S'0.6'
p1034
sg39
S'24'
p1035
sg41
S'TOT'
p1036
sg43
S'45'
p1037
sg976
S'5.7'
p1038
sg978
S'12.9'
p1039
sg980
S'0.5'
p1040
sg63
S'444'
p1041
sg983
S'-2.0'
p1042
sg55
S'2008-09'
p1043
sg986
S'1.0'
p1044
sba(isrc.gp1.models.Advanced
Advanced
p1045
(dp1046
g942
S'12.9'
p1047
sg944
S'16.1'
p1048
sg946
S'.158'
p1049
sg948
S'0.9'
p1050
sg950
S'15.9'
p1051
sg952
S'12.1'
p1052
sg954
S'2.4'
p1053
sg21
g22
sg956
S'0.1'
p1054
sg958
S'.613'
p1055
sg960
S'11.4'
p1056
sg962
S'1.114'
p1057
sg964
S'.000'
p1058
sg27
S'NBA'
p1059
sg967
S'-1.9'
p1060
sg969
S'3.5'
p1061
sg971
S'0.3'
p1062
sg39
S'24'
p1063
sg41
S'CHA'
p1064
sg43
S'18'
p1065
sg976
S'7.6'
p1066
sg978
S'15.3'
p1067
sg980
S'0.3'
p1068
sg63
S'184'
p1069
sg983
S'0.5'
p1070
sg55
S'2008-09'
p1071
sg986
S'0.6'
p1072
sba(isrc.gp1.models.Advanced
Advanced
p1073
(dp1074
g942
S'12.0'
p1075
sg944
S'16.0'
p1076
sg946
S'.076'
p1077
sg948
S'0.8'
p1078
sg950
S'15.5'
p1079
sg952
S'13.5'
p1080
sg954
S'-0.1'
p1081
sg21
g22
sg956
S'-0.1'
p1082
sg958
S'.537'
p1083
sg960
S'14.9'
p1084
sg962
S'.559'
p1085
sg964
S'.000'
p1086
sg27
S'NBA'
p1087
sg967
S'-3.7'
p1088
sg969
S'1.7'
p1089
sg971
S'0.3'
p1090
sg39
S'24'
p1091
sg41
S'DAL'
p1092
sg43
S'27'
p1093
sg976
S'4.3'
p1094
sg978
S'11.3'
p1095
sg980
S'0.1'
p1096
sg63
S'260'
p1097
sg983
S'-3.8'
p1098
sg55
S'2008-09'
p1099
sg986
S'0.4'
p1100
sba(isrc.gp1.models.Advanced
Advanced
p1101
(dp1102
g942
S'7.1'
p1103
sg944
S'20.3'
p1104
sg946
S'.048'
p1105
sg948
S'0.8'
p1106
sg950
S'16.6'
p1107
sg952
S'9.5'
p1108
sg954
S'-0.7'
p1109
sg21
g22
sg956
S'-0.4'
p1110
sg958
S'.600'
p1111
sg960
S'11.9'
p1112
sg962
S'.521'
p1113
sg964
S'.003'
p1114
sg27
S'NBA'
p1115
sg967
S'-2.6'
p1116
sg969
S'6.4'
p1117
sg971
S'0.5'
p1118
sg39
S'25'
p1119
sg41
S'MIN'
p1120
sg43
S'73'
p1121
sg976
S'2.3'
p1122
sg978
S'11.0'
p1123
sg980
S'0.8'
p1124
sg63
S'1223'
p1125
sg983
S'-3.3'
p1126
sg55
S'2009-10'
p1127
sg986
S'1.2'
p1128
sba(isrc.gp1.models.Advanced
Advanced
p1129
(dp1130
g942
S'6.6'
p1131
sg944
S'18.7'
p1132
sg946
S'.072'
p1133
sg948
S'1.0'
p1134
sg950
S'13.7'
p1135
sg952
S'9.0'
p1136
sg954
S'-0.2'
p1137
sg21
g22
sg956
S'-0.2'
p1138
sg958
S'.642'
p1139
sg960
S'11.6'
p1140
sg962
S'.744'
p1141
sg964
S'.000'
p1142
sg27
S'NBA'
p1143
sg967
S'-2.5'
p1144
sg969
S'3.6'
p1145
sg971
S'0.5'
p1146
sg39
S'26'
p1147
sg41
S'CLE'
p1148
sg43
S'70'
p1149
sg976
S'2.7'
p1150
sg978
S'10.7'
p1151
sg980
S'1.3'
p1152
sg63
S'1182'
p1153
sg983
S'-2.7'
p1154
sg55
S'2010-11'
p1155
sg986
S'1.8'
p1156
sba(isrc.gp1.models.Advanced
Advanced
p1157
(dp1158
g942
S'7.4'
p1159
sg944
S'23.0'
p1160
sg946
S'.023'
p1161
sg948
S'0.5'
p1162
sg950
S'13.4'
p1163
sg952
S'9.0'
p1164
sg954
S'-0.6'
p1165
sg21
g22
sg956
S'-0.4'
p1166
sg958
S'.560'
p1167
sg960
S'10.7'
p1168
sg962
S'.893'
p1169
sg964
S'.000'
p1170
sg27
S'NBA'
p1171
sg967
S'-4.6'
p1172
sg969
S'2.7'
p1173
sg971
S'0.3'
p1174
sg39
S'27'
p1175
sg41
S'TOT'
p1176
sg43
S'39'
p1177
sg976
S'2.5'
p1178
sg978
S'6.9'
p1179
sg980
S'-0.1'
p1180
sg63
S'522'
p1181
sg983
S'-5.1'
p1182
sg55
S'2011-12'
p1183
sg986
S'0.2'
p1184
sba(isrc.gp1.models.Advanced
Advanced
p1185
(dp1186
g942
S'7.6'
p1187
sg944
S'23.0'
p1188
sg946
S'.013'
p1189
sg948
S'0.6'
p1190
sg950
S'12.9'
p1191
sg952
S'8.8'
p1192
sg954
S'-0.9'
p1193
sg21
g22
sg956
S'-0.3'
p1194
sg958
S'.555'
p1195
sg960
S'10.1'
p1196
sg962
S'.982'
p1197
sg964
S'.000'
p1198
sg27
S'NBA'
p1199
sg967
S'-4.4'
p1200
sg969
S'2.6'
p1201
sg971
S'0.1'
p1202
sg39
S'27'
p1203
sg41
S'CLE'
p1204
sg43
S'24'
p1205
sg976
S'2.5'
p1206
sg978
S'7.0'
p1207
sg980
S'0.0'
p1208
sg63
S'362'
p1209
sg983
S'-5.4'
p1210
sg55
S'2011-12'
p1211
sg986
S'0.1'
p1212
sba(isrc.gp1.models.Advanced
Advanced
p1213
(dp1214
g942
S'7.0'
p1215
sg944
S'23.0'
p1216
sg946
S'.044'
p1217
sg948
S'0.3'
p1218
sg950
S'14.3'
p1219
sg952
S'9.6'
p1220
sg954
S'0.3'
p1221
sg21
g22
sg956
S'-0.1'
p1222
sg958
S'.571'
p1223
sg960
S'12.0'
p1224
sg962
S'.714'
p1225
sg964
S'.000'
p1226
sg27
S'NBA'
p1227
sg967
S'-5.0'
p1228
sg969
S'3.0'
p1229
sg971
S'0.2'
p1230
sg39
S'27'
p1231
sg41
S'BOS'
p1232
sg43
S'15'
p1233
sg976
S'2.4'
p1234
sg978
S'6.8'
p1235
sg980
S'-0.1'
p1236
sg63
S'160'
p1237
sg983
S'-4.7'
p1238
sg55
S'2011-12'
p1239
sg986
S'0.1'
p1240
sba(isrc.gp1.models.Advanced
Advanced
p1241
(dp1242
g942
S'9.1'
p1243
sg944
S'22.4'
p1244
sg946
S'.125'
p1245
sg948
S'0.5'
p1246
sg950
S'13.6'
p1247
sg952
S'12.5'
p1248
sg954
S'0.3'
p1249
sg21
g22
sg956
S'0.0'
p1250
sg958
S'.674'
p1251
sg960
S'15.7'
p1252
sg962
S'.772'
p1253
sg964
S'.000'
p1254
sg27
S'NBA'
p1255
sg967
S'-2.2'
p1256
sg969
S'2.4'
p1257
sg971
S'0.8'
p1258
sg39
S'28'
p1259
sg41
S'LAC'
p1260
sg43
S'60'
p1261
sg976
S'4.3'
p1262
sg978
S'11.3'
p1263
sg980
S'1.0'
p1264
sg63
S'663'
p1265
sg983
S'-1.9'
p1266
sg55
S'2012-13'
p1267
sg986
S'1.7'
p1268
sba(isrc.gp1.models.Advanced
Advanced
p1269
(dp1270
g942
S'7.4'
p1271
sg944
S'23.1'
p1272
sg946
S'.126'
p1273
sg948
S'0.9'
p1274
sg950
S'11.5'
p1275
sg952
S'10.4'
p1276
sg954
S'1.7'
p1277
sg21
S'PF'
p1278
sg956
S'0.2'
p1279
sg958
S'.730'
p1280
sg960
S'13.1'
p1281
sg962
S'.778'
p1282
sg964
S'.000'
p1283
sg27
S'NBA'
p1284
sg967
S'-2.0'
p1285
sg969
S'2.4'
p1286
sg971
S'0.6'
p1287
sg39
S'29'
p1288
sg41
S'LAC'
p1289
sg43
S'61'
p1290
sg976
S'4.9'
p1291
sg978
S'11.9'
p1292
sg980
S'0.7'
p1293
sg63
S'482'
p1294
sg983
S'-0.3'
p1295
sg55
S'2013-14'
p1296
sg986
S'1.3'
p1297
sba(isrc.gp1.models.Advanced
Advanced
p1298
(dp1299
g942
S'9.6'
p1300
sg944
S'19.1'
p1301
sg946
S'.104'
p1302
sg948
S'0.7'
p1303
sg950
S'13.1'
p1304
sg952
S'13.2'
p1305
sg954
S'0.0'
p1306
sg21
g22
sg956
S'0.1'
p1307
sg958
S'.648'
p1308
sg960
S'16.6'
p1309
sg962
S'.659'
p1310
sg964
S'.000'
p1311
sg27
S'NBA'
p1312
sg967
S'-1.4'
p1313
sg969
S'5.0'
p1314
sg971
S'0.3'
p1315
sg39
S'30'
p1316
sg41
S'SAC'
p1317
sg43
S'46'
p1318
sg976
S'3.4'
p1319
sg978
S'13.1'
p1320
sg980
S'0.7'
p1321
sg63
S'441'
p1322
sg983
S'-1.4'
p1323
sg55
S'2014-15'
p1324
sg986
S'1.0'
p1325
sba(isrc.gp1.models.Advanced
Advanced
p1326
(dp1327
g942
S'12.2'
p1328
sg944
S'19.2'
p1329
sg946
S'.133'
p1330
sg948
S'0.6'
p1331
sg950
S'11.5'
p1332
sg952
S'12.5'
p1333
sg954
S'0.8'
p1334
sg21
g22
sg956
S'0.0'
p1335
sg958
S'.652'
p1336
sg960
S'12.8'
p1337
sg962
S'.464'
p1338
sg964
S'.000'
p1339
sg27
S'NBA'
p1340
sg967
S'-1.6'
p1341
sg969
S'4.8'
p1342
sg971
S'0.1'
p1343
sg39
S'31'
p1344
sg41
S'TOT'
p1345
sg43
S'16'
p1346
sg976
S'5.5'
p1347
sg978
S'13.5'
p1348
sg980
S'0.3'
p1349
sg63
S'165'
p1350
sg983
S'-0.8'
p1351
sg55
S'2015-16'
p1352
sg986
S'0.5'
p1353
sba(isrc.gp1.models.Advanced
Advanced
p1354
(dp1355
g942
S'16.2'
p1356
sg944
S'30.0'
p1357
sg946
S'.027'
p1358
sg948
S'0.0'
p1359
sg950
S'9.2'
p1360
sg952
S'13.1'
p1361
sg954
S'-3.7'
p1362
sg21
g22
sg956
S'-0.1'
p1363
sg958
S'.571'
p1364
sg960
S'9.8'
p1365
sg962
S'.000'
p1366
sg964
S'.000'
p1367
sg27
S'NBA'
p1368
sg967
S'-4.3'
p1369
sg969
S'0.0'
p1370
sg971
S'0.0'
p1371
sg39
S'31'
p1372
sg41
S'WAS'
p1373
sg43
g237
sg976
S'1.7'
p1374
sg978
S'7.4'
p1375
sg980
S'0.0'
p1376
sg63
S'48'
p1377
sg983
S'-8.0'
p1378
sg55
S'2015-16'
p1379
sg986
S'0.0'
p1380
sba(isrc.gp1.models.Advanced
Advanced
p1381
(dp1382
g942
S'10.6'
p1383
sg944
S'15.8'
p1384
sg946
S'.177'
p1385
sg948
S'0.9'
p1386
sg950
S'12.4'
p1387
sg952
S'12.3'
p1388
sg954
S'2.6'
p1389
sg21
g22
sg956
S'0.1'
p1390
sg958
S'.674'
p1391
sg960
S'14.1'
p1392
sg962
S'.619'
p1393
sg964
S'.000'
p1394
sg27
S'NBA'
p1395
sg967
S'-0.5'
p1396
sg969
S'6.8'
p1397
sg971
S'0.1'
p1398
sg39
S'31'
p1399
sg41
S'MEM'
p1400
sg43
S'11'
p1401
sg976
S'7.0'
p1402
sg978
S'16.0'
p1403
sg980
S'0.3'
p1404
sg63
S'117'
p1405
sg983
S'2.1'
p1406
sg55
S'2015-16'
p1407
sg986
S'0.4'
p1408
sbasS'_per36Minutes'
p1409
(lp1410
(isrc.gp1.models.Per36Minutes
Per36Minutes
p1411
(dp1412
g8
S'2.1'
p1413
sg10
S'0.0'
p1414
sg12
S'.556'
p1415
sg14
S'0.2'
p1416
sg16
g17
sg18
S'0.0'
p1417
sg19
S'12.5'
p1418
sg21
g22
sg23
S'.600'
p1419
sg27
S'NBA'
p1420
sg29
S'0.8'
p1421
sg31
S'7.0'
p1422
sg33
S'7.8'
p1423
sg35
S'7.8'
p1424
sg37
S'6.0'
p1425
sg39
S'22'
p1426
sg41
S'CHA'
p1427
sg43
S'27'
p1428
sg45
S'1.4'
p1429
sg47
S'3.9'
p1430
sg49
S'4.7'
p1431
sg51
S'7.0'
p1432
sg53
S'3.9'
p1433
sg55
S'2006-07'
p1434
sg57
S'3.9'
p1435
sg59
S'3.1'
p1436
sg61
S'.556'
p1437
sg63
S'185'
p1438
sg65
g11
sba(isrc.gp1.models.Per36Minutes
Per36Minutes
p1439
(dp1440
g8
S'3.6'
p1441
sg10
S'0.0'
p1442
sg12
S'.489'
p1443
sg14
S'0.9'
p1444
sg16
g17
sg18
S'0.0'
p1445
sg19
S'9.9'
p1446
sg21
S'PF'
p1447
sg23
S'.671'
p1448
sg27
S'NBA'
p1449
sg29
S'0.7'
p1450
sg31
S'6.4'
p1451
sg33
S'6.5'
p1452
sg35
S'5.5'
p1453
sg37
S'7.2'
p1454
sg39
S'23'
p1455
sg41
S'CHA'
p1456
sg43
S'60'
p1457
sg45
S'2.0'
p1458
sg47
S'3.1'
p1459
sg49
S'3.7'
p1460
sg51
S'6.4'
p1461
sg53
S'3.7'
p1462
sg55
S'2007-08'
p1463
sg57
S'3.1'
p1464
sg59
S'1.7'
p1465
sg61
S'.489'
p1466
sg63
S'532'
p1467
sg65
g15
sba(isrc.gp1.models.Per36Minutes
Per36Minutes
p1468
(dp1469
g8
S'3.7'
p1470
sg10
S'0.0'
p1471
sg12
S'.532'
p1472
sg14
S'0.6'
p1473
sg16
g17
sg18
S'0.0'
p1474
sg19
S'11.6'
p1475
sg21
g22
sg23
S'.597'
p1476
sg27
S'NBA'
p1477
sg29
S'0.6'
p1478
sg31
S'7.6'
p1479
sg33
S'6.3'
p1480
sg35
S'5.8'
p1481
sg37
S'7.9'
p1482
sg39
S'24'
p1483
sg41
S'TOT'
p1484
sg43
S'45'
p1485
sg45
S'2.6'
p1486
sg47
S'4.1'
p1487
sg49
S'3.5'
p1488
sg51
S'7.6'
p1489
sg53
S'4.1'
p1490
sg55
S'2008-09'
p1491
sg57
S'4.1'
p1492
sg59
S'1.9'
p1493
sg61
S'.532'
p1494
sg63
S'444'
p1495
sg65
g119
sba(isrc.gp1.models.Per36Minutes
Per36Minutes
p1496
(dp1497
g8
S'3.7'
p1498
sg10
S'0.0'
p1499
sg12
S'.543'
p1500
sg14
S'0.8'
p1501
sg16
g17
sg18
S'0.0'
p1502
sg19
S'12.5'
p1503
sg21
g22
sg23
S'.667'
p1504
sg27
S'NBA'
p1505
sg29
S'0.6'
p1506
sg31
S'6.8'
p1507
sg33
S'6.7'
p1508
sg35
S'7.6'
p1509
sg37
S'7.0'
p1510
sg39
S'24'
p1511
sg41
S'CHA'
p1512
sg43
S'18'
p1513
sg45
S'3.3'
p1514
sg47
S'3.7'
p1515
sg49
S'5.1'
p1516
sg51
S'6.8'
p1517
sg53
S'3.3'
p1518
sg55
S'2008-09'
p1519
sg57
S'3.7'
p1520
sg59
S'2.0'
p1521
sg61
S'.543'
p1522
sg63
S'184'
p1523
sg65
g15
sba(isrc.gp1.models.Per36Minutes
Per36Minutes
p1524
(dp1525
g8
S'3.7'
p1526
sg10
S'0.0'
p1527
sg12
S'.525'
p1528
sg14
S'0.4'
p1529
sg16
g17
sg18
S'0.0'
p1530
sg19
S'10.9'
p1531
sg21
g22
sg23
S'.515'
p1532
sg27
S'NBA'
p1533
sg29
S'0.6'
p1534
sg31
S'8.2'
p1535
sg33
S'6.1'
p1536
sg35
S'4.6'
p1537
sg37
S'8.4'
p1538
sg39
S'24'
p1539
sg41
S'DAL'
p1540
sg43
S'27'
p1541
sg45
S'2.1'
p1542
sg47
S'4.3'
p1543
sg49
S'2.4'
p1544
sg51
S'8.2'
p1545
sg53
S'4.7'
p1546
sg55
S'2008-09'
p1547
sg57
S'4.3'
p1548
sg59
S'1.9'
p1549
sg61
S'.525'
p1550
sg63
S'260'
p1551
sg65
g170
sba(isrc.gp1.models.Per36Minutes
Per36Minutes
p1552
(dp1553
g8
S'2.3'
p1554
sg10
S'0.0'
p1555
sg12
S'.558'
p1556
sg14
S'1.5'
p1557
sg16
S'.000'
p1558
sg18
S'0.0'
p1559
sg19
S'13.2'
p1560
sg21
g22
sg23
S'.690'
p1561
sg27
S'NBA'
p1562
sg29
S'0.6'
p1563
sg31
S'8.9'
p1564
sg33
S'5.9'
p1565
sg35
S'4.7'
p1566
sg37
S'6.1'
p1567
sg39
S'25'
p1568
sg41
S'MIN'
p1569
sg43
S'73'
p1570
sg45
S'1.1'
p1571
sg47
S'5.0'
p1572
sg49
S'3.2'
p1573
sg51
S'8.9'
p1574
sg53
S'3.8'
p1575
sg55
S'2009-10'
p1576
sg57
S'5.0'
p1577
sg59
S'2.8'
p1578
sg61
S'.560'
p1579
sg63
S'1223'
p1580
sg65
S'27'
p1581
sba(isrc.gp1.models.Per36Minutes
Per36Minutes
p1582
(dp1583
g8
S'2.1'
p1584
sg10
S'0.0'
p1585
sg12
S'.598'
p1586
sg14
S'0.8'
p1587
sg16
g17
sg18
S'0.0'
p1588
sg19
S'11.4'
p1589
sg21
g22
sg23
S'.681'
p1590
sg27
S'NBA'
p1591
sg29
S'0.7'
p1592
sg31
S'6.7'
p1593
sg33
S'6.1'
p1594
sg35
S'5.0'
p1595
sg37
S'5.7'
p1596
sg39
S'26'
p1597
sg41
S'CLE'
p1598
sg43
S'70'
p1599
sg45
S'1.3'
p1600
sg47
S'4.0'
p1601
sg49
S'3.4'
p1602
sg51
S'6.7'
p1603
sg53
S'3.5'
p1604
sg55
S'2010-11'
p1605
sg57
S'4.0'
p1606
sg59
S'2.0'
p1607
sg61
S'.598'
p1608
sg63
S'1182'
p1609
sg65
S'16'
p1610
sba(isrc.gp1.models.Per36Minutes
Per36Minutes
p1611
(dp1612
g8
S'2.3'
p1613
sg10
S'0.0'
p1614
sg12
S'.548'
p1615
sg14
S'0.6'
p1616
sg16
g17
sg18
S'0.0'
p1617
sg19
S'9.0'
p1618
sg21
g22
sg23
S'.520'
p1619
sg27
S'NBA'
p1620
sg29
S'0.3'
p1621
sg31
S'5.8'
p1622
sg33
S'5.4'
p1623
sg35
S'5.2'
p1624
sg37
S'5.7'
p1625
sg39
S'27'
p1626
sg41
S'TOT'
p1627
sg43
S'39'
p1628
sg45
S'1.2'
p1629
sg47
S'3.2'
p1630
sg49
S'2.7'
p1631
sg51
S'5.8'
p1632
sg53
S'3.3'
p1633
sg55
S'2011-12'
p1634
sg57
S'3.2'
p1635
sg59
S'2.4'
p1636
sg61
S'.548'
p1637
sg63
S'522'
p1638
sg65
g255
sba(isrc.gp1.models.Per36Minutes
Per36Minutes
p1639
(dp1640
g8
S'2.5'
p1641
sg10
S'0.0'
p1642
sg12
S'.500'
p1643
sg14
S'0.6'
p1644
sg16
g17
sg18
S'0.0'
p1645
sg19
S'8.9'
p1646
sg21
g22
sg23
S'.600'
p1647
sg27
S'NBA'
p1648
sg29
S'0.4'
p1649
sg31
S'5.6'
p1650
sg33
S'5.5'
p1651
sg35
S'5.5'
p1652
sg37
S'5.6'
p1653
sg39
S'27'
p1654
sg41
S'CLE'
p1655
sg43
S'24'
p1656
sg45
S'1.2'
p1657
sg47
S'2.8'
p1658
sg49
S'3.3'
p1659
sg51
S'5.6'
p1660
sg53
S'3.1'
p1661
sg55
S'2011-12'
p1662
sg57
S'2.8'
p1663
sg59
S'2.4'
p1664
sg61
S'.500'
p1665
sg63
S'362'
p1666
sg65
g46
sba(isrc.gp1.models.Per36Minutes
Per36Minutes
p1667
(dp1668
g8
S'2.0'
p1669
sg10
S'0.0'
p1670
sg12
S'.643'
p1671
sg14
S'0.7'
p1672
sg16
g17
sg18
S'0.0'
p1673
sg19
S'9.5'
p1674
sg21
g22
sg23
S'.300'
p1675
sg27
S'NBA'
p1676
sg29
S'0.2'
p1677
sg31
S'6.3'
p1678
sg33
S'5.2'
p1679
sg35
S'4.5'
p1680
sg37
S'5.9'
p1681
sg39
S'27'
p1682
sg41
S'BOS'
p1683
sg43
S'15'
p1684
sg45
S'1.1'
p1685
sg47
S'4.1'
p1686
sg49
S'1.4'
p1687
sg51
S'6.3'
p1688
sg53
S'3.8'
p1689
sg55
S'2011-12'
p1690
sg57
S'4.1'
p1691
sg59
S'2.5'
p1692
sg61
S'.643'
p1693
sg63
S'160'
p1694
sg65
g15
sba(isrc.gp1.models.Per36Minutes
Per36Minutes
p1695
(dp1696
g8
S'2.7'
p1697
sg10
S'0.0'
p1698
sg12
S'.614'
p1699
sg14
S'0.6'
p1700
sg16
g17
sg18
S'0.0'
p1701
sg19
S'11.2'
p1702
sg21
g22
sg23
S'.750'
p1703
sg27
S'NBA'
p1704
sg29
S'0.3'
p1705
sg31
S'6.2'
p1706
sg33
S'7.2'
p1707
sg35
S'4.8'
p1708
sg37
S'7.5'
p1709
sg39
S'28'
p1710
sg41
S'LAC'
p1711
sg43
S'60'
p1712
sg45
S'1.8'
p1713
sg47
S'3.8'
p1714
sg49
S'3.6'
p1715
sg51
S'6.2'
p1716
sg53
S'4.8'
p1717
sg55
S'2012-13'
p1718
sg57
S'3.8'
p1719
sg59
S'2.4'
p1720
sg61
S'.614'
p1721
sg63
S'663'
p1722
sg65
g11
sba(isrc.gp1.models.Per36Minutes
Per36Minutes
p1723
(dp1724
g8
S'2.3'
p1725
sg10
S'0.0'
p1726
sg12
S'.736'
p1727
sg14
S'0.6'
p1728
sg16
g17
sg18
S'0.0'
p1729
sg19
S'10.5'
p1730
sg21
S'PF'
p1731
sg23
S'.625'
p1732
sg27
S'NBA'
p1733
sg29
S'0.7'
p1734
sg31
S'5.4'
p1735
sg33
S'6.5'
p1736
sg35
S'4.2'
p1737
sg37
S'6.7'
p1738
sg39
S'29'
p1739
sg41
S'LAC'
p1740
sg43
S'61'
p1741
sg45
S'2.3'
p1742
sg47
S'4.0'
p1743
sg49
S'2.6'
p1744
sg51
S'5.4'
p1745
sg53
S'4.4'
p1746
sg55
S'2013-14'
p1747
sg57
S'4.0'
p1748
sg59
S'2.2'
p1749
sg61
S'.736'
p1750
sg63
S'482'
p1751
sg65
g11
sba(isrc.gp1.models.Per36Minutes
Per36Minutes
p1752
(dp1753
g8
S'2.9'
p1754
sg10
S'0.0'
p1755
sg12
S'.646'
p1756
sg14
S'1.1'
p1757
sg16
g17
sg18
S'0.0'
p1758
sg19
S'11.2'
p1759
sg21
g22
sg23
S'.574'
p1760
sg27
S'NBA'
p1761
sg29
S'0.5'
p1762
sg31
S'6.7'
p1763
sg33
S'5.3'
p1764
sg35
S'4.4'
p1765
sg37
S'8.4'
p1766
sg39
S'30'
p1767
sg41
S'SAC'
p1768
sg43
S'46'
p1769
sg45
S'1.6'
p1770
sg47
S'4.3'
p1771
sg49
S'2.5'
p1772
sg51
S'6.7'
p1773
sg53
S'5.5'
p1774
sg55
S'2014-15'
p1775
sg57
S'4.3'
p1776
sg59
S'2.0'
p1777
sg61
S'.646'
p1778
sg63
S'441'
p1779
sg65
g232
sba(isrc.gp1.models.Per36Minutes
Per36Minutes
p1780
(dp1781
g8
S'3.9'
p1782
sg10
S'0.0'
p1783
sg12
S'.607'
p1784
sg14
S'1.1'
p1785
sg16
g17
sg18
S'0.0'
p1786
sg19
S'9.6'
p1787
sg21
g22
sg23
S'.769'
p1788
sg27
S'NBA'
p1789
sg29
S'0.4'
p1790
sg31
S'6.1'
p1791
sg33
S'5.5'
p1792
sg35
S'2.8'
p1793
sg37
S'7.9'
p1794
sg39
S'31'
p1795
sg41
S'TOT'
p1796
sg43
S'16'
p1797
sg45
S'2.2'
p1798
sg47
S'3.7'
p1799
sg49
S'2.2'
p1800
sg51
S'6.1'
p1801
sg53
S'3.9'
p1802
sg55
S'2015-16'
p1803
sg57
S'3.7'
p1804
sg59
S'1.7'
p1805
sg61
S'.607'
p1806
sg63
S'165'
p1807
sg65
g119
sba(isrc.gp1.models.Per36Minutes
Per36Minutes
p1808
(dp1809
g8
S'5.2'
p1810
sg10
S'0.0'
p1811
sg12
S'.571'
p1812
sg14
S'0.0'
p1813
sg16
g17
sg18
S'0.0'
p1814
sg19
S'6.0'
p1815
sg21
g22
sg23
g17
sg27
S'NBA'
p1816
sg29
S'0.0'
p1817
sg31
S'5.2'
p1818
sg33
S'3.0'
p1819
sg35
S'0.0'
p1820
sg37
S'8.2'
p1821
sg39
S'31'
p1822
sg41
S'WAS'
p1823
sg43
g237
sg45
S'0.7'
p1824
sg47
S'3.0'
p1825
sg49
S'0.0'
p1826
sg51
S'5.2'
p1827
sg53
S'3.0'
p1828
sg55
S'2015-16'
p1829
sg57
S'3.0'
p1830
sg59
S'2.3'
p1831
sg61
S'.571'
p1832
sg63
S'48'
p1833
sg65
g119
sba(isrc.gp1.models.Per36Minutes
Per36Minutes
p1834
(dp1835
g8
S'3.4'
p1836
sg10
S'0.0'
p1837
sg12
S'.619'
p1838
sg14
S'1.5'
p1839
sg16
g17
sg18
S'0.0'
p1840
sg19
S'11.1'
p1841
sg21
g22
sg23
S'.769'
p1842
sg27
S'NBA'
p1843
sg29
S'0.6'
p1844
sg31
S'6.5'
p1845
sg33
S'6.5'
p1846
sg35
S'4.0'
p1847
sg37
S'7.7'
p1848
sg39
S'31'
p1849
sg41
S'MEM'
p1850
sg43
S'11'
p1851
sg45
S'2.8'
p1852
sg47
S'4.0'
p1853
sg49
S'3.1'
p1854
sg51
S'6.5'
p1855
sg53
S'4.3'
p1856
sg55
S'2015-16'
p1857
sg57
S'4.0'
p1858
sg59
S'1.5'
p1859
sg61
S'.619'
p1860
sg63
S'117'
p1861
sg65
g11
sbasS'_fromYear'
p1862
S'2007'
p1863
sS'_url'
p1864
S'http://www.basketball-reference.com/players/h/holliry01.html'
p1865
sS'_perGame'
p1866
(isrc.gp1.models.PerGame
PerGame
p1867
(dp1868
g8
S'1.0'
p1869
sg10
S'0.0'
p1870
sg12
S'.619'
p1871
sS'_effectiveFieldGalPercentage'
p1872
S'.619'
p1873
sg14
S'0.5'
p1874
sg16
g17
sg18
S'0.0'
p1875
sg19
S'3.3'
p1876
sg21
g22
sg23
S'.769'
p1877
sg27
S'NBA'
p1878
sg29
S'0.2'
p1879
sg33
S'1.9'
p1880
sS'_fieldGoalsttempted'
p1881
S'1.9'
p1882
sg35
S'1.2'
p1883
sg37
S'2.3'
p1884
sg39
S'31'
p1885
sg41
S'MEM'
p1886
sg43
S'11'
p1887
sg45
S'0.8'
p1888
sg47
S'1.2'
p1889
sg49
S'0.9'
p1890
sg51
S'1.9'
p1891
sg53
S'1.3'
p1892
sg55
S'2015-16'
p1893
sg57
S'1.2'
p1894
sg59
S'0.5'
p1895
sg61
S'.619'
p1896
sg63
S'10.6'
p1897
sg65
g11
sbsS'_weight'
p1898
S'240'
p1899
sS'_dob'
p1900
S'10-10-1984'
p1901
sS'_salary'
p1902
(lp1903
(isrc.gp1.models.Salary
Salary
p1904
(dp1905
g41
S'Charlotte Bobcats'
p1906
sg27
S'NBA'
p1907
sg1902
S'$412,718'
p1908
sg55
S'2006-07'
p1909
sba(isrc.gp1.models.Salary
Salary
p1910
(dp1911
g41
S'Charlotte Bobcats'
p1912
sg27
S'NBA'
p1913
sg1902
S'$687,456'
p1914
sg55
S'2007-08'
p1915
sba(isrc.gp1.models.Salary
Salary
p1916
(dp1917
g41
S'Dallas Mavericks'
p1918
sg27
S'NBA'
p1919
sg1902
S'$972,581'
p1920
sg55
S'2008-09'
p1921
sba(isrc.gp1.models.Salary
Salary
p1922
(dp1923
g41
S'Minnesota Timberwolves'
p1924
sg27
S'NBA'
p1925
sg1902
S'$2,183,333'
p1926
sg55
S'2009-10'
p1927
sba(isrc.gp1.models.Salary
Salary
p1928
(dp1929
g41
S'Cleveland Cavaliers'
p1930
sg27
S'NBA'
p1931
sg1902
S'$2,333,333'
p1932
sg55
S'2010-11'
p1933
sba(isrc.gp1.models.Salary
Salary
p1934
(dp1935
g41
S'Cleveland Cavaliers'
p1936
sg27
S'NBA'
p1937
sg1902
S'$2,483,333'
p1938
sg55
S'2011-12'
p1939
sba(isrc.gp1.models.Salary
Salary
p1940
(dp1941
g41
S'Los Angeles Clippers'
p1942
sg27
S'NBA'
p1943
sg1902
S'$1,069,509'
p1944
sg55
S'2012-13'
p1945
sba(isrc.gp1.models.Salary
Salary
p1946
(dp1947
g41
S'Los Angeles Clippers'
p1948
sg27
S'NBA'
p1949
sg1902
S'$1,186,459'
p1950
sg55
S'2013-14'
p1951
sba(isrc.gp1.models.Salary
Salary
p1952
(dp1953
g41
S'Sacramento Kings'
p1954
sg27
S'NBA'
p1955
sg1902
S'$1,316,809'
p1956
sg55
S'2014-15'
p1957
sbasg21
g22
sb.