(isrc.gp1.models.Player
Player
p0
(dp1
S'_experience'
p2
V1 year
p3
sS'_totals'
p4
(lp5
(isrc.gp1.models.Totals
Totals
p6
(dp7
S'_offensiveRebounds'
p8
S'9'
p9
sS'_threePointsAttempted'
p10
S'170'
p11
sS'_fieldGoalsPercentage'
p12
S'.414'
p13
sS'_assist'
p14
S'83'
p15
sS'_threePointsPercentage'
p16
S'.365'
p17
sS'_threePoints'
p18
S'62'
p19
sS'_points'
p20
S'433'
p21
sS'_position'
p22
S'SG'
p23
sS'_freeThrowsPercentage'
p24
S'.763'
p25
sS'_effectiveFieldGoalPercentage'
p26
S'.497'
p27
sS'_league'
p28
S'NBA'
p29
sS'_steals'
p30
S'30'
p31
sS'_fieldGoalsAttempted'
p32
S'374'
p33
sS'_personalFouls'
p34
S'119'
p35
sS'_freeThrowsAttempted'
p36
S'80'
p37
sS'_totalRebounds'
p38
S'117'
p39
sS'_age'
p40
S'22'
p41
sS'_team'
p42
S'UTA'
p43
sS'_games'
p44
S'50'
p45
sS'_blocks'
p46
S'12'
p47
sS'_twoPoints'
p48
S'93'
p49
sS'_freeThrows'
p50
S'61'
p51
sS'_twoPointsAttempted'
p52
S'204'
p53
sS'_defensiveRebounds'
p54
S'108'
p55
sS'_season'
p56
S'2014-15'
p57
sS'_fieldGoals'
p58
S'155'
p59
sS'_turnOvers'
p60
S'45'
p61
sS'_twoPointsPercentage'
p62
S'.456'
p63
sS'_minutesPlayed'
p64
S'1064'
p65
sS'_gamesStarted'
p66
S'21'
p67
sba(isrc.gp1.models.Totals
Totals
p68
(dp69
g8
S'19'
p70
sg10
S'254'
p71
sg12
S'.420'
p72
sg14
S'122'
p73
sg16
S'.362'
p74
sg18
S'92'
p75
sg20
S'676'
p76
sg22
S'SG'
p77
sg24
S'.884'
p78
sg26
S'.502'
p79
sg28
S'NBA'
p80
sg30
S'41'
p81
sg32
S'560'
p82
sg34
S'141'
p83
sg36
S'129'
p84
sg38
S'149'
p85
sg40
S'23'
p86
sg42
S'UTA'
p87
sg44
S'47'
p88
sg46
S'11'
p89
sg48
S'143'
p90
sg50
S'114'
p91
sg52
S'306'
p92
sg54
S'130'
p93
sg56
S'2015-16'
p94
sg58
S'235'
p95
sg60
S'78'
p96
sg62
S'.467'
p97
sg64
S'1459'
p98
sg66
S'47'
p99
sbasS'_college'
p100
S'Duke University'
p101
sS'_toYear'
p102
S'2016'
p103
sS'_height'
p104
S'6-8'
p105
sS'_active'
p106
I01
sS'_shootingHand'
p107
VLeft
p108
sS'_name'
p109
S'Rodney Hood'
p110
sS'_per100Possessions'
p111
(lp112
(isrc.gp1.models.Per100Possession
Per100Possession
p113
(dp114
g8
S'0.4'
p115
sg10
S'8.5'
p116
sg12
S'.414'
p117
sS'_offensiveRating'
p118
S'108'
p119
sg14
S'4.1'
p120
sg16
S'.365'
p121
sg18
S'3.1'
p122
sg20
S'21.6'
p123
sg22
S'SG'
p124
sS'_defensiveRating'
p125
S'107'
p126
sg24
S'.763'
p127
sg28
S'NBA'
p128
sg30
S'1.5'
p129
sg32
S'18.7'
p130
sg34
S'5.9'
p131
sg36
S'4.0'
p132
sg38
S'5.8'
p133
sg40
S'22'
p134
sg42
S'UTA'
p135
sg44
S'50'
p136
sg46
S'0.6'
p137
sg48
S'4.6'
p138
sg50
S'3.0'
p139
sg52
S'10.2'
p140
sg54
S'5.4'
p141
sg56
S'2014-15'
p142
sg58
S'7.7'
p143
sg60
S'2.2'
p144
sg62
S'.456'
p145
sg64
S'1064'
p146
sg66
S'21'
p147
sba(isrc.gp1.models.Per100Possession
Per100Possession
p148
(dp149
g8
S'0.7'
p150
sg10
S'9.2'
p151
sg12
S'.420'
p152
sg118
S'109'
p153
sg14
S'4.4'
p154
sg16
S'.362'
p155
sg18
S'3.3'
p156
sg20
S'24.5'
p157
sg22
S'SG'
p158
sg125
S'107'
p159
sg24
S'.884'
p160
sg28
S'NBA'
p161
sg30
S'1.5'
p162
sg32
S'20.3'
p163
sg34
S'5.1'
p164
sg36
S'4.7'
p165
sg38
S'5.4'
p166
sg40
S'23'
p167
sg42
S'UTA'
p168
sg44
S'47'
p169
sg46
S'0.4'
p170
sg48
S'5.2'
p171
sg50
S'4.1'
p172
sg52
S'11.1'
p173
sg54
S'4.7'
p174
sg56
S'2015-16'
p175
sg58
S'8.5'
p176
sg60
S'2.8'
p177
sg62
S'.467'
p178
sg64
S'1459'
p179
sg66
S'47'
p180
sbasS'_advanced'
p181
(lp182
(isrc.gp1.models.Advanced
Advanced
p183
(dp184
S'_offensiveReboundPercentage'
p185
S'1.0'
p186
sS'_turnOverPercentage'
p187
S'9.9'
p188
sS'_winSharesPer48Minutes'
p189
S'.098'
p190
sS'_stealPercentage'
p191
S'1.5'
p192
sS'_usagePercentage'
p193
S'19.6'
p194
sS'_totalReboundsPercentage'
p195
S'6.4'
p196
sS'_defensiveBoxPlusMinus'
p197
S'-1.3'
p198
sg22
S'SG'
p199
sS'_valueOverReplacementPlayer'
p200
S'0.2'
p201
sS'_trueShootingPercentage'
p202
S'.529'
p203
sS'_defensiveReboundPercentage'
p204
S'11.7'
p205
sS'_freeThrowsAttempRate'
p206
S'.214'
p207
sS'_threePointsAttempRate'
p208
S'.455'
p209
sg28
S'NBA'
p210
sS'_offensiveBoxPlusMinues'
p211
S'0.2'
p212
sS'_assistPercentage'
p213
S'13.2'
p214
sS'_defensiveWinShares'
p215
S'0.9'
p216
sg40
S'22'
p217
sg42
S'UTA'
p218
sg44
S'50'
p219
sS'_blockPercentage'
p220
S'0.9'
p221
sS'_playerEfficiencyRating'
p222
S'12.3'
p223
sS'_offensiveWinShares'
p224
S'1.3'
p225
sg64
S'1064'
p226
sS'_boxPlusMinus'
p227
S'-1.1'
p228
sg56
S'2014-15'
p229
sS'_winShares'
p230
S'2.2'
p231
sba(isrc.gp1.models.Advanced
Advanced
p232
(dp233
g185
S'1.5'
p234
sg187
S'11.2'
p235
sg189
S'.114'
p236
sg191
S'1.5'
p237
sg193
S'22.0'
p238
sg195
S'6.0'
p239
sg197
S'-1.3'
p240
sg22
S'SG'
p241
sg200
S'0.9'
p242
sg202
S'.548'
p243
sg204
S'10.5'
p244
sg206
S'.230'
p245
sg208
S'.454'
p246
sg28
S'NBA'
p247
sg211
S'1.8'
p248
sg213
S'14.6'
p249
sg215
S'1.2'
p250
sg40
S'23'
p251
sg42
S'UTA'
p252
sg44
S'47'
p253
sg220
S'0.6'
p254
sg222
S'14.4'
p255
sg224
S'2.2'
p256
sg64
S'1459'
p257
sg227
S'0.5'
p258
sg56
S'2015-16'
p259
sg230
S'3.5'
p260
sbasS'_per36Minutes'
p261
(lp262
(isrc.gp1.models.Per36Minutes
Per36Minutes
p263
(dp264
g8
S'0.3'
p265
sg10
S'5.8'
p266
sg12
S'.414'
p267
sg14
S'2.8'
p268
sg16
S'.365'
p269
sg18
S'2.1'
p270
sg20
S'14.7'
p271
sg22
S'SG'
p272
sg24
S'.763'
p273
sg28
S'NBA'
p274
sg30
S'1.0'
p275
sg32
S'12.7'
p276
sg34
S'4.0'
p277
sg36
S'2.7'
p278
sg38
S'4.0'
p279
sg40
S'22'
p280
sg42
S'UTA'
p281
sg44
S'50'
p282
sg46
S'0.4'
p283
sg48
S'3.1'
p284
sg50
S'2.1'
p285
sg52
S'6.9'
p286
sg54
S'3.7'
p287
sg56
S'2014-15'
p288
sg58
S'5.2'
p289
sg60
S'1.5'
p290
sg62
S'.456'
p291
sg64
S'1064'
p292
sg66
S'21'
p293
sba(isrc.gp1.models.Per36Minutes
Per36Minutes
p294
(dp295
g8
S'0.5'
p296
sg10
S'6.3'
p297
sg12
S'.420'
p298
sg14
S'3.0'
p299
sg16
S'.362'
p300
sg18
S'2.3'
p301
sg20
S'16.7'
p302
sg22
S'SG'
p303
sg24
S'.884'
p304
sg28
S'NBA'
p305
sg30
S'1.0'
p306
sg32
S'13.8'
p307
sg34
S'3.5'
p308
sg36
S'3.2'
p309
sg38
S'3.7'
p310
sg40
S'23'
p311
sg42
S'UTA'
p312
sg44
S'47'
p313
sg46
S'0.3'
p314
sg48
S'3.5'
p315
sg50
S'2.8'
p316
sg52
S'7.6'
p317
sg54
S'3.2'
p318
sg56
S'2015-16'
p319
sg58
S'5.8'
p320
sg60
S'1.9'
p321
sg62
S'.467'
p322
sg64
S'1459'
p323
sg66
S'47'
p324
sbasS'_fromYear'
p325
S'2015'
p326
sS'_url'
p327
S'http://www.basketball-reference.com/players/h/hoodro01.html'
p328
sS'_perGame'
p329
(isrc.gp1.models.PerGame
PerGame
p330
(dp331
g8
S'0.4'
p332
sg10
S'5.4'
p333
sg12
S'.420'
p334
sS'_effectiveFieldGalPercentage'
p335
S'.502'
p336
sg14
S'2.6'
p337
sg16
S'.362'
p338
sg18
S'2.0'
p339
sg20
S'14.4'
p340
sg22
S'SG'
p341
sg24
S'.884'
p342
sg28
S'NBA'
p343
sg30
S'0.9'
p344
sg34
S'3.0'
p345
sS'_fieldGoalsttempted'
p346
S'11.9'
p347
sg36
S'2.7'
p348
sg38
S'3.2'
p349
sg40
S'23'
p350
sg42
S'UTA'
p351
sg44
S'47'
p352
sg46
S'0.2'
p353
sg48
S'3.0'
p354
sg50
S'2.4'
p355
sg52
S'6.5'
p356
sg54
S'2.8'
p357
sg56
S'2015-16'
p358
sg58
S'5.0'
p359
sg60
S'1.7'
p360
sg62
S'.467'
p361
sg64
S'31.0'
p362
sg66
S'47'
p363
sbsS'_weight'
p364
S'206'
p365
sS'_dob'
p366
S'20-10-1992'
p367
sS'_salary'
p368
(lp369
(isrc.gp1.models.Salary
Salary
p370
(dp371
g42
S'Utah Jazz'
p372
sg28
S'NBA'
p373
sg368
S'$1,290,360'
p374
sg56
S'2014-15'
p375
sbasg22
S'G-F'
p376
sb.