(isrc.gp1.models.Player
Player
p0
(dp1
S'_experience'
p2
S'NA'
p3
sS'_totals'
p4
(lp5
(isrc.gp1.models.Totals
Totals
p6
(dp7
S'_offensiveRebounds'
p8
g3
sS'_threePointsAttempted'
p9
g3
sS'_fieldGoalsPercentage'
p10
S'.344'
p11
sS'_assist'
p12
S'37'
p13
sS'_threePointsPercentage'
p14
g3
sS'_threePoints'
p15
g3
sS'_points'
p16
S'176'
p17
sS'_position'
p18
g3
sS'_freeThrowsPercentage'
p19
S'.656'
p20
sS'_effectiveFieldGoalPercentage'
p21
S'.344'
p22
sS'_league'
p23
S'NBA'
p24
sS'_steals'
p25
g3
sS'_fieldGoalsAttempted'
p26
S'195'
p27
sS'_personalFouls'
p28
S'106'
p29
sS'_freeThrowsAttempted'
p30
S'64'
p31
sS'_totalRebounds'
p32
g3
sS'_age'
p33
S'28'
p34
sS'_team'
p35
S'TOT'
p36
sS'_games'
p37
S'32'
p38
sS'_blocks'
p39
g3
sS'_twoPoints'
p40
S'67'
p41
sS'_freeThrows'
p42
S'42'
p43
sS'_twoPointsAttempted'
p44
S'195'
p45
sS'_defensiveRebounds'
p46
g3
sS'_season'
p47
S'1949-50'
p48
sS'_fieldGoals'
p49
S'67'
p50
sS'_turnOvers'
p51
g3
sS'_twoPointsPercentage'
p52
S'.344'
p53
sS'_minutesPlayed'
p54
g3
sS'_gamesStarted'
p55
g3
sba(isrc.gp1.models.Totals
Totals
p56
(dp57
g8
g3
sg9
g3
sg10
S'.750'
p58
sg12
S'1'
p59
sg14
g3
sg15
g3
sg16
S'7'
p60
sg18
g3
sg19
S'.250'
p61
sg21
S'.750'
p62
sg23
S'NBA'
p63
sg25
g3
sg26
S'4'
p64
sg28
S'3'
p65
sg30
g64
sg32
g3
sg33
S'28'
p66
sg35
S'BOS'
p67
sg37
S'2'
p68
sg39
g3
sg40
g65
sg42
g59
sg44
g64
sg46
g3
sg47
S'1949-50'
p69
sg49
g65
sg51
g3
sg52
S'.750'
p70
sg54
g3
sg55
g3
sba(isrc.gp1.models.Totals
Totals
p71
(dp72
g8
g3
sg9
g3
sg10
S'.335'
p73
sg12
S'36'
p74
sg14
g3
sg15
g3
sg16
S'169'
p75
sg18
g3
sg19
S'.683'
p76
sg21
S'.335'
p77
sg23
S'NBA'
p78
sg25
g3
sg26
S'191'
p79
sg28
S'103'
p80
sg30
S'60'
p81
sg32
g3
sg33
S'28'
p82
sg35
S'WAT'
p83
sg37
S'30'
p84
sg39
g3
sg40
S'64'
p85
sg42
S'41'
p86
sg44
S'191'
p87
sg46
g3
sg47
S'1949-50'
p88
sg49
S'64'
p89
sg51
g3
sg52
S'.335'
p90
sg54
g3
sg55
g3
sbasS'_college'
p91
S'Creighton University'
p92
sS'_toYear'
p93
S'1950'
p94
sS'_height'
p95
S'6-5'
p96
sS'_active'
p97
I00
sS'_shootingHand'
p98
VRight
p99
sS'_name'
p100
S'Hoot Gibson'
p101
sS'_per100Possessions'
p102
(lp103
sS'_advanced'
p104
(lp105
(isrc.gp1.models.Advanced
Advanced
p106
(dp107
S'_offensiveReboundPercentage'
p108
g3
sS'_turnOverPercentage'
p109
g3
sS'_winSharesPer48Minutes'
p110
g3
sS'_stealPercentage'
p111
g3
sS'_usagePercentage'
p112
g3
sS'_totalReboundsPercentage'
p113
g3
sS'_defensiveBoxPlusMinus'
p114
g3
sg18
g3
sS'_valueOverReplacementPlayer'
p115
g3
sS'_trueShootingPercentage'
p116
S'.394'
p117
sS'_defensiveReboundPercentage'
p118
g3
sS'_freeThrowsAttempRate'
p119
S'.328'
p120
sS'_threePointsAttempRate'
p121
g3
sg23
S'NBA'
p122
sS'_offensiveBoxPlusMinues'
p123
g3
sS'_assistPercentage'
p124
g3
sS'_defensiveWinShares'
p125
S'-0.2'
p126
sg33
S'28'
p127
sg35
S'TOT'
p128
sg37
S'32'
p129
sS'_blockPercentage'
p130
g3
sS'_playerEfficiencyRating'
p131
g3
sS'_offensiveWinShares'
p132
S'0.2'
p133
sg54
g3
sS'_boxPlusMinus'
p134
g3
sg47
S'1949-50'
p135
sS'_winShares'
p136
S'0.0'
p137
sba(isrc.gp1.models.Advanced
Advanced
p138
(dp139
g108
g3
sg109
g3
sg110
g3
sg111
g3
sg112
g3
sg113
g3
sg114
g3
sg18
g3
sg115
g3
sg116
S'.608'
p140
sg118
g3
sg119
S'1.000'
p141
sg121
g3
sg23
S'NBA'
p142
sg123
g3
sg124
g3
sg125
S'0.0'
p143
sg33
S'28'
p144
sg35
S'BOS'
p145
sg37
g68
sg130
g3
sg131
g3
sg132
S'0.1'
p146
sg54
g3
sg134
g3
sg47
S'1949-50'
p147
sg136
S'0.1'
p148
sba(isrc.gp1.models.Advanced
Advanced
p149
(dp150
g108
g3
sg109
g3
sg110
g3
sg111
g3
sg112
g3
sg113
g3
sg114
g3
sg18
g3
sg115
g3
sg116
S'.389'
p151
sg118
g3
sg119
S'.314'
p152
sg121
g3
sg23
S'NBA'
p153
sg123
g3
sg124
g3
sg125
S'-0.2'
p154
sg33
S'28'
p155
sg35
S'WAT'
p156
sg37
S'30'
p157
sg130
g3
sg131
g3
sg132
S'0.1'
p158
sg54
g3
sg134
g3
sg47
S'1949-50'
p159
sg136
S'-0.1'
p160
sbasS'_per36Minutes'
p161
(lp162
(isrc.gp1.models.Per36Minutes
Per36Minutes
p163
(dp164
g8
g3
sg9
g3
sg10
S'.344'
p165
sg12
g3
sg14
g3
sg15
g3
sg16
g3
sg18
g3
sg19
S'.656'
p166
sg23
S'NBA'
p167
sg25
g3
sg26
g3
sg28
g3
sg30
g3
sg32
g3
sg33
S'28'
p168
sg35
S'TOT'
p169
sg37
S'32'
p170
sg39
g3
sg40
g3
sg42
g3
sg44
g3
sg46
g3
sg47
S'1949-50'
p171
sg49
g3
sg51
g3
sg52
S'.344'
p172
sg54
g3
sg55
g3
sba(isrc.gp1.models.Per36Minutes
Per36Minutes
p173
(dp174
g8
g3
sg9
g3
sg10
S'.750'
p175
sg12
g3
sg14
g3
sg15
g3
sg16
g3
sg18
g3
sg19
S'.250'
p176
sg23
S'NBA'
p177
sg25
g3
sg26
g3
sg28
g3
sg30
g3
sg32
g3
sg33
S'28'
p178
sg35
S'BOS'
p179
sg37
g68
sg39
g3
sg40
g3
sg42
g3
sg44
g3
sg46
g3
sg47
S'1949-50'
p180
sg49
g3
sg51
g3
sg52
S'.750'
p181
sg54
g3
sg55
g3
sba(isrc.gp1.models.Per36Minutes
Per36Minutes
p182
(dp183
g8
g3
sg9
g3
sg10
S'.335'
p184
sg12
g3
sg14
g3
sg15
g3
sg16
g3
sg18
g3
sg19
S'.683'
p185
sg23
S'NBA'
p186
sg25
g3
sg26
g3
sg28
g3
sg30
g3
sg32
g3
sg33
S'28'
p187
sg35
S'WAT'
p188
sg37
S'30'
p189
sg39
g3
sg40
g3
sg42
g3
sg44
g3
sg46
g3
sg47
S'1949-50'
p190
sg49
g3
sg51
g3
sg52
S'.335'
p191
sg54
g3
sg55
g3
sbasS'_fromYear'
p192
S'1950'
p193
sS'_url'
p194
S'http://www.basketball-reference.com/players/g/gibsoho01.html'
p195
sS'_perGame'
p196
(isrc.gp1.models.PerGame
PerGame
p197
(dp198
g8
g3
sg9
g3
sg10
S'.335'
p199
sS'_effectiveFieldGalPercentage'
p200
S'.335'
p201
sg12
S'1.2'
p202
sg14
g3
sg15
g3
sg16
S'5.6'
p203
sg18
g3
sg19
S'.683'
p204
sg23
S'NBA'
p205
sg25
g3
sg28
S'3.4'
p206
sS'_fieldGoalsttempted'
p207
S'6.4'
p208
sg30
S'2.0'
p209
sg32
g3
sg33
S'28'
p210
sg35
S'WAT'
p211
sg37
S'30'
p212
sg39
g3
sg40
S'2.1'
p213
sg42
S'1.4'
p214
sg44
S'6.4'
p215
sg46
g3
sg47
S'1949-50'
p216
sg49
S'2.1'
p217
sg51
g3
sg52
S'.335'
p218
sg54
g3
sg55
g3
sbsS'_weight'
p219
S'198'
p220
sS'_dob'
p221
S'5-12-1921'
p222
sS'_salary'
p223
(lp224
sg18
S'F-C'
p225
sb.