(isrc.gp1.models.Player
Player
p0
(dp1
S'_experience'
p2
S'NA'
p3
sS'_totals'
p4
(lp5
(isrc.gp1.models.Totals
Totals
p6
(dp7
S'_offensiveRebounds'
p8
S'12'
p9
sS'_threePointsAttempted'
p10
S'1'
p11
sS'_fieldGoalsPercentage'
p12
S'.404'
p13
sS'_assist'
p14
S'3'
p15
sS'_threePointsPercentage'
p16
S'.000'
p17
sS'_threePoints'
p18
S'0'
p19
sS'_points'
p20
S'54'
p21
sS'_position'
p22
S'PF'
p23
sS'_freeThrowsPercentage'
p24
S'.667'
p25
sS'_effectiveFieldGoalPercentage'
p26
S'.404'
p27
sS'_league'
p28
S'NBA'
p29
sS'_steals'
p30
S'4'
p31
sS'_fieldGoalsAttempted'
p32
S'47'
p33
sS'_personalFouls'
p34
S'28'
p35
sS'_freeThrowsAttempted'
p36
S'24'
p37
sS'_totalRebounds'
p38
S'45'
p39
sS'_age'
p40
S'23'
p41
sS'_team'
p42
S'TOT'
p43
sS'_games'
p44
S'15'
p45
sS'_blocks'
p46
S'5'
p47
sS'_twoPoints'
p48
S'19'
p49
sS'_freeThrows'
p50
S'16'
p51
sS'_twoPointsAttempted'
p52
S'46'
p53
sS'_defensiveRebounds'
p54
S'33'
p55
sS'_season'
p56
S'1990-91'
p57
sS'_fieldGoals'
p58
S'19'
p59
sS'_turnOvers'
p60
S'11'
p61
sS'_twoPointsPercentage'
p62
S'.413'
p63
sS'_minutesPlayed'
p64
S'164'
p65
sS'_gamesStarted'
p66
g19
sba(isrc.gp1.models.Totals
Totals
p67
(dp68
g8
g11
sg10
g19
sg12
S'.667'
p69
sg14
g19
sg16
g3
sg18
g19
sg20
g47
sg22
S'PF'
p70
sg24
S'1.000'
p71
sg26
S'.667'
p72
sg28
S'NBA'
p73
sg30
g19
sg32
g15
sg34
g15
sg36
g11
sg38
S'6'
p74
sg40
S'23'
p75
sg42
S'ATL'
p76
sg44
g31
sg46
g19
sg48
S'2'
p77
sg50
g11
sg52
g15
sg54
g47
sg56
S'1990-91'
p78
sg58
g77
sg60
g77
sg62
S'.667'
p79
sg64
S'20'
p80
sg66
g19
sba(isrc.gp1.models.Totals
Totals
p81
(dp82
g8
S'10'
p83
sg10
g19
sg12
S'.366'
p84
sg14
g15
sg16
g3
sg18
g19
sg20
S'43'
p85
sg22
S'PF'
p86
sg24
S'.619'
p87
sg26
S'.366'
p88
sg28
S'NBA'
p89
sg30
g15
sg32
S'41'
p90
sg34
S'23'
p91
sg36
S'21'
p92
sg38
S'37'
p93
sg40
S'23'
p94
sg42
S'ORL'
p95
sg44
S'8'
p96
sg46
g47
sg48
S'15'
p97
sg50
S'13'
p98
sg52
S'41'
p99
sg54
S'27'
p100
sg56
S'1990-91'
p101
sg58
S'15'
p102
sg60
S'9'
p103
sg62
S'.366'
p104
sg64
S'136'
p105
sg66
g19
sba(isrc.gp1.models.Totals
Totals
p106
(dp107
g8
g11
sg10
g11
sg12
S'.667'
p108
sg14
g19
sg16
S'.000'
p109
sg18
g19
sg20
g74
sg22
S'PF'
p110
sg24
S'1.000'
p111
sg26
S'.667'
p112
sg28
S'NBA'
p113
sg30
g11
sg32
g15
sg34
g77
sg36
g77
sg38
g77
sg40
S'23'
p114
sg42
S'DAL'
p115
sg44
g15
sg46
g19
sg48
g77
sg50
g77
sg52
g77
sg54
g11
sg56
S'1990-91'
p116
sg58
g77
sg60
g19
sg62
S'1.000'
p117
sg64
g96
sg66
g19
sba(isrc.gp1.models.Totals
Totals
p118
(dp119
g8
g3
sg10
g3
sg12
g3
sg14
g3
sg16
g3
sg18
g3
sg20
g3
sg22
g3
sg24
g3
sg26
g3
sg28
g3
sg30
g3
sg32
g3
sg34
g3
sg36
g3
sg38
g3
sg40
S'24'
p120
sg42
S'Did Not Play\xc2\xa0(other pro league\xe2\x80\x94CBA)'
p121
sg44
g3
sg46
g3
sg48
g3
sg50
g3
sg52
g3
sg54
g3
sg56
S'1991-92'
p122
sg58
g3
sg60
g3
sg62
g3
sg64
g3
sg66
g3
sba(isrc.gp1.models.Totals
Totals
p123
(dp124
g8
g11
sg10
g19
sg12
S'.800'
p125
sg14
g19
sg16
g3
sg18
g19
sg20
g96
sg22
S'PF'
p126
sg24
S'.000'
p127
sg26
S'.800'
p128
sg28
S'NBA'
p129
sg30
g19
sg32
g47
sg34
g19
sg36
g77
sg38
g77
sg40
S'25'
p130
sg42
S'ORL'
p131
sg44
g31
sg46
g19
sg48
g31
sg50
g19
sg52
g47
sg54
g11
sg56
S'1992-93'
p132
sg58
g31
sg60
g19
sg62
S'.800'
p133
sg64
S'10'
p134
sg66
g19
sbasS'_college'
p135
S'Stanford University'
p136
sS'_toYear'
p137
S'1993'
p138
sS'_height'
p139
S'6-8'
p140
sS'_active'
p141
I00
sS'_shootingHand'
p142
VRight
p143
sS'_name'
p144
S'Howard Wright'
p145
sS'_per100Possessions'
p146
(lp147
(isrc.gp1.models.Per100Possession
Per100Possession
p148
(dp149
g8
S'3.5'
p150
sg10
S'0.3'
p151
sg12
S'.404'
p152
sS'_offensiveRating'
p153
S'93'
p154
sg14
S'0.9'
p155
sg16
S'.000'
p156
sg18
S'0.0'
p157
sg20
S'15.9'
p158
sg22
S'PF'
p159
sS'_defensiveRating'
p160
S'107'
p161
sg24
S'.667'
p162
sg28
S'NBA'
p163
sg30
S'1.2'
p164
sg32
S'13.9'
p165
sg34
S'8.3'
p166
sg36
S'7.1'
p167
sg38
S'13.3'
p168
sg40
S'23'
p169
sg42
S'TOT'
p170
sg44
S'15'
p171
sg46
S'1.5'
p172
sg48
S'5.6'
p173
sg50
S'4.7'
p174
sg52
S'13.6'
p175
sg54
S'9.7'
p176
sg56
S'1990-91'
p177
sg58
S'5.6'
p178
sg60
S'3.2'
p179
sg62
S'.413'
p180
sg64
S'164'
p181
sg66
g19
sba(isrc.gp1.models.Per100Possession
Per100Possession
p182
(dp183
g8
S'2.4'
p184
sg10
S'0.0'
p185
sg12
S'.667'
p186
sg153
S'93'
p187
sg14
S'0.0'
p188
sg16
g3
sg18
S'0.0'
p189
sg20
S'12.2'
p190
sg22
S'PF'
p191
sg160
S'111'
p192
sg24
S'1.000'
p193
sg28
S'NBA'
p194
sg30
S'0.0'
p195
sg32
S'7.3'
p196
sg34
S'7.3'
p197
sg36
S'2.4'
p198
sg38
S'14.6'
p199
sg40
S'23'
p200
sg42
S'ATL'
p201
sg44
g31
sg46
S'0.0'
p202
sg48
S'4.9'
p203
sg50
S'2.4'
p204
sg52
S'7.3'
p205
sg54
S'12.2'
p206
sg56
S'1990-91'
p207
sg58
S'4.9'
p208
sg60
S'4.9'
p209
sg62
S'.667'
p210
sg64
S'20'
p211
sg66
g19
sba(isrc.gp1.models.Per100Possession
Per100Possession
p212
(dp213
g8
S'3.5'
p214
sg10
S'0.0'
p215
sg12
S'.366'
p216
sg153
S'88'
p217
sg14
S'1.1'
p218
sg16
g3
sg18
S'0.0'
p219
sg20
S'15.3'
p220
sg22
S'PF'
p221
sg160
S'107'
p222
sg24
S'.619'
p223
sg28
S'NBA'
p224
sg30
S'1.1'
p225
sg32
S'14.5'
p226
sg34
S'8.2'
p227
sg36
S'7.5'
p228
sg38
S'13.1'
p229
sg40
S'23'
p230
sg42
S'ORL'
p231
sg44
g96
sg46
S'1.8'
p232
sg48
S'5.3'
p233
sg50
S'4.6'
p234
sg52
S'14.5'
p235
sg54
S'9.6'
p236
sg56
S'1990-91'
p237
sg58
S'5.3'
p238
sg60
S'3.2'
p239
sg62
S'.366'
p240
sg64
S'136'
p241
sg66
g19
sba(isrc.gp1.models.Per100Possession
Per100Possession
p242
(dp243
g8
S'6.4'
p244
sg10
S'6.4'
p245
sg12
S'.667'
p246
sg153
S'167'
p247
sg14
S'0.0'
p248
sg16
S'.000'
p249
sg18
S'0.0'
p250
sg20
S'38.2'
p251
sg22
S'PF'
p252
sg160
S'101'
p253
sg24
S'1.000'
p254
sg28
S'NBA'
p255
sg30
S'6.4'
p256
sg32
S'19.1'
p257
sg34
S'12.7'
p258
sg36
S'12.7'
p259
sg38
S'12.7'
p260
sg40
S'23'
p261
sg42
S'DAL'
p262
sg44
g15
sg46
S'0.0'
p263
sg48
S'12.7'
p264
sg50
S'12.7'
p265
sg52
S'12.7'
p266
sg54
S'6.4'
p267
sg56
S'1990-91'
p268
sg58
S'12.7'
p269
sg60
S'0.0'
p270
sg62
S'1.000'
p271
sg64
g96
sg66
g19
sba(isrc.gp1.models.Per100Possession
Per100Possession
p272
(dp273
g8
S'5.0'
p274
sg10
S'0.0'
p275
sg12
S'.800'
p276
sg153
S'127'
p277
sg14
S'0.0'
p278
sg16
g3
sg18
S'0.0'
p279
sg20
S'39.9'
p280
sg22
S'PF'
p281
sg160
S'112'
p282
sg24
S'.000'
p283
sg28
S'NBA'
p284
sg30
S'0.0'
p285
sg32
S'24.9'
p286
sg34
S'0.0'
p287
sg36
S'10.0'
p288
sg38
S'10.0'
p289
sg40
S'25'
p290
sg42
S'ORL'
p291
sg44
g31
sg46
S'0.0'
p292
sg48
S'19.9'
p293
sg50
S'0.0'
p294
sg52
S'24.9'
p295
sg54
S'5.0'
p296
sg56
S'1992-93'
p297
sg58
S'19.9'
p298
sg60
S'0.0'
p299
sg62
S'.800'
p300
sg64
S'10'
p301
sg66
g19
sbasS'_advanced'
p302
(lp303
(isrc.gp1.models.Advanced
Advanced
p304
(dp305
S'_offensiveReboundPercentage'
p306
S'7.8'
p307
sS'_turnOverPercentage'
p308
S'16.0'
p309
sS'_winSharesPer48Minutes'
p310
S'.023'
p311
sS'_stealPercentage'
p312
S'1.2'
p313
sS'_usagePercentage'
p314
S'17.1'
p315
sS'_totalReboundsPercentage'
p316
S'15.0'
p317
sS'_defensiveBoxPlusMinus'
p318
S'-1.3'
p319
sg22
S'PF'
p320
sS'_valueOverReplacementPlayer'
p321
S'-0.2'
p322
sS'_trueShootingPercentage'
p323
S'.469'
p324
sS'_defensiveReboundPercentage'
p325
S'22.6'
p326
sS'_freeThrowsAttempRate'
p327
S'.511'
p328
sS'_threePointsAttempRate'
p329
S'.021'
p330
sg28
S'NBA'
p331
sS'_offensiveBoxPlusMinues'
p332
S'-5.8'
p333
sS'_assistPercentage'
p334
S'2.5'
p335
sS'_defensiveWinShares'
p336
S'0.2'
p337
sg40
S'23'
p338
sg42
S'TOT'
p339
sg44
S'15'
p340
sS'_blockPercentage'
p341
S'1.8'
p342
sS'_playerEfficiencyRating'
p343
S'8.7'
p344
sS'_offensiveWinShares'
p345
S'-0.1'
p346
sg64
S'164'
p347
sS'_boxPlusMinus'
p348
S'-7.1'
p349
sg56
S'1990-91'
p350
sS'_winShares'
p351
S'0.1'
p352
sba(isrc.gp1.models.Advanced
Advanced
p353
(dp354
g306
S'5.3'
p355
sg308
S'36.8'
p356
sg310
S'.013'
p357
sg312
S'0.0'
p358
sg314
S'11.2'
p359
sg316
S'16.4'
p360
sg318
S'-5.0'
p361
sg22
S'PF'
p362
sg321
S'-0.1'
p363
sg323
S'.727'
p364
sg325
S'28.2'
p365
sg327
S'.333'
p366
sg329
S'.000'
p367
sg28
S'NBA'
p368
sg332
S'-7.5'
p369
sg334
S'0.0'
p370
sg336
S'0.0'
p371
sg40
S'23'
p372
sg42
S'ATL'
p373
sg44
g31
sg341
S'0.0'
p374
sg343
S'6.3'
p375
sg345
S'0.0'
p376
sg64
S'20'
p377
sg348
S'-12.5'
p378
sg56
S'1990-91'
p379
sg351
S'0.0'
p380
sba(isrc.gp1.models.Advanced
Advanced
p381
(dp382
g306
S'7.8'
p383
sg308
S'15.2'
p384
sg310
S'-0.003'
p385
sg312
S'1.1'
p386
sg314
S'17.7'
p387
sg316
S'14.8'
p388
sg318
S'-0.6'
p389
sg22
S'PF'
p390
sg321
S'-0.2'
p391
sg323
S'.428'
p392
sg325
S'22.3'
p393
sg327
S'.512'
p394
sg329
S'.000'
p395
sg28
S'NBA'
p396
sg332
S'-6.5'
p397
sg334
S'3.0'
p398
sg336
S'0.1'
p399
sg40
S'23'
p400
sg42
S'ORL'
p401
sg44
g96
sg341
S'2.2'
p402
sg343
S'7.5'
p403
sg345
S'-0.2'
p404
sg64
S'136'
p405
sg348
S'-7.1'
p406
sg56
S'1990-91'
p407
sg351
S'0.0'
p408
sba(isrc.gp1.models.Advanced
Advanced
p409
(dp410
g306
S'14.3'
p411
sg308
S'0.0'
p412
sg310
S'.478'
p413
sg312
S'6.4'
p414
sg314
S'21.5'
p415
sg316
S'14.3'
p416
sg318
S'-3.7'
p417
sg22
S'PF'
p418
sg321
S'0.0'
p419
sg323
S'.773'
p420
sg325
S'14.2'
p421
sg327
S'.667'
p422
sg329
S'.333'
p423
sg28
S'NBA'
p424
sg332
S'10.0'
p425
sg334
S'0.0'
p426
sg336
S'0.0'
p427
sg40
S'23'
p428
sg42
S'DAL'
p429
sg44
g15
sg341
S'0.0'
p430
sg343
S'34.8'
p431
sg345
S'0.1'
p432
sg64
g96
sg348
S'6.3'
p433
sg56
S'1990-91'
p434
sg351
S'0.1'
p435
sba(isrc.gp1.models.Advanced
Advanced
p436
(dp437
g306
S'12.0'
p438
sg308
S'0.0'
p439
sg310
S'.182'
p440
sg312
S'0.0'
p441
sg314
S'25.3'
p442
sg316
S'11.3'
p443
sg318
S'-8.9'
p444
sg22
S'PF'
p445
sg321
S'0.0'
p446
sg323
S'.680'
p447
sg325
S'10.7'
p448
sg327
S'.400'
p449
sg329
S'.000'
p450
sg28
S'NBA'
p451
sg332
S'3.8'
p452
sg334
S'0.0'
p453
sg336
S'0.0'
p454
sg40
S'25'
p455
sg42
S'ORL'
p456
sg44
g31
sg341
S'0.0'
p457
sg343
S'28.7'
p458
sg345
S'0.0'
p459
sg64
S'10'
p460
sg348
S'-5.1'
p461
sg56
S'1992-93'
p462
sg351
S'0.0'
p463
sbasS'_per36Minutes'
p464
(lp465
(isrc.gp1.models.Per36Minutes
Per36Minutes
p466
(dp467
g8
S'2.6'
p468
sg10
S'0.2'
p469
sg12
S'.404'
p470
sg14
S'0.7'
p471
sg16
S'.000'
p472
sg18
S'0.0'
p473
sg20
S'11.9'
p474
sg22
S'PF'
p475
sg24
S'.667'
p476
sg28
S'NBA'
p477
sg30
S'0.9'
p478
sg32
S'10.3'
p479
sg34
S'6.1'
p480
sg36
S'5.3'
p481
sg38
S'9.9'
p482
sg40
S'23'
p483
sg42
S'TOT'
p484
sg44
S'15'
p485
sg46
S'1.1'
p486
sg48
S'4.2'
p487
sg50
S'3.5'
p488
sg52
S'10.1'
p489
sg54
S'7.2'
p490
sg56
S'1990-91'
p491
sg58
S'4.2'
p492
sg60
S'2.4'
p493
sg62
S'.413'
p494
sg64
S'164'
p495
sg66
g19
sba(isrc.gp1.models.Per36Minutes
Per36Minutes
p496
(dp497
g8
S'1.8'
p498
sg10
S'0.0'
p499
sg12
S'.667'
p500
sg14
S'0.0'
p501
sg16
g3
sg18
S'0.0'
p502
sg20
S'9.0'
p503
sg22
S'PF'
p504
sg24
S'1.000'
p505
sg28
S'NBA'
p506
sg30
S'0.0'
p507
sg32
S'5.4'
p508
sg34
S'5.4'
p509
sg36
S'1.8'
p510
sg38
S'10.8'
p511
sg40
S'23'
p512
sg42
S'ATL'
p513
sg44
g31
sg46
S'0.0'
p514
sg48
S'3.6'
p515
sg50
S'1.8'
p516
sg52
S'5.4'
p517
sg54
S'9.0'
p518
sg56
S'1990-91'
p519
sg58
S'3.6'
p520
sg60
S'3.6'
p521
sg62
S'.667'
p522
sg64
S'20'
p523
sg66
g19
sba(isrc.gp1.models.Per36Minutes
Per36Minutes
p524
(dp525
g8
S'2.6'
p526
sg10
S'0.0'
p527
sg12
S'.366'
p528
sg14
S'0.8'
p529
sg16
g3
sg18
S'0.0'
p530
sg20
S'11.4'
p531
sg22
S'PF'
p532
sg24
S'.619'
p533
sg28
S'NBA'
p534
sg30
S'0.8'
p535
sg32
S'10.9'
p536
sg34
S'6.1'
p537
sg36
S'5.6'
p538
sg38
S'9.8'
p539
sg40
S'23'
p540
sg42
S'ORL'
p541
sg44
g96
sg46
S'1.3'
p542
sg48
S'4.0'
p543
sg50
S'3.4'
p544
sg52
S'10.9'
p545
sg54
S'7.1'
p546
sg56
S'1990-91'
p547
sg58
S'4.0'
p548
sg60
S'2.4'
p549
sg62
S'.366'
p550
sg64
S'136'
p551
sg66
g19
sba(isrc.gp1.models.Per36Minutes
Per36Minutes
p552
(dp553
g8
S'4.5'
p554
sg10
S'4.5'
p555
sg12
S'.667'
p556
sg14
S'0.0'
p557
sg16
S'.000'
p558
sg18
S'0.0'
p559
sg20
S'27.0'
p560
sg22
S'PF'
p561
sg24
S'1.000'
p562
sg28
S'NBA'
p563
sg30
S'4.5'
p564
sg32
S'13.5'
p565
sg34
S'9.0'
p566
sg36
S'9.0'
p567
sg38
S'9.0'
p568
sg40
S'23'
p569
sg42
S'DAL'
p570
sg44
g15
sg46
S'0.0'
p571
sg48
S'9.0'
p572
sg50
S'9.0'
p573
sg52
S'9.0'
p574
sg54
S'4.5'
p575
sg56
S'1990-91'
p576
sg58
S'9.0'
p577
sg60
S'0.0'
p578
sg62
S'1.000'
p579
sg64
g96
sg66
g19
sba(isrc.gp1.models.Per36Minutes
Per36Minutes
p580
(dp581
g8
S'3.6'
p582
sg10
S'0.0'
p583
sg12
S'.800'
p584
sg14
S'0.0'
p585
sg16
g3
sg18
S'0.0'
p586
sg20
S'28.8'
p587
sg22
S'PF'
p588
sg24
S'.000'
p589
sg28
S'NBA'
p590
sg30
S'0.0'
p591
sg32
S'18.0'
p592
sg34
S'0.0'
p593
sg36
S'7.2'
p594
sg38
S'7.2'
p595
sg40
S'25'
p596
sg42
S'ORL'
p597
sg44
g31
sg46
S'0.0'
p598
sg48
S'14.4'
p599
sg50
S'0.0'
p600
sg52
S'18.0'
p601
sg54
S'3.6'
p602
sg56
S'1992-93'
p603
sg58
S'14.4'
p604
sg60
S'0.0'
p605
sg62
S'.800'
p606
sg64
S'10'
p607
sg66
g19
sbasS'_fromYear'
p608
S'1991'
p609
sS'_url'
p610
S'http://www.basketball-reference.com/players/w/wrighho02.html'
p611
sS'_perGame'
p612
(isrc.gp1.models.PerGame
PerGame
p613
(dp614
g8
S'0.3'
p615
sg10
S'0.0'
p616
sg12
S'.800'
p617
sS'_effectiveFieldGalPercentage'
p618
S'.800'
p619
sg14
S'0.0'
p620
sg16
g3
sg18
S'0.0'
p621
sg20
S'2.0'
p622
sg22
S'PF'
p623
sg24
S'.000'
p624
sg28
S'NBA'
p625
sg30
S'0.0'
p626
sg34
S'0.0'
p627
sS'_fieldGoalsttempted'
p628
S'1.3'
p629
sg36
S'0.5'
p630
sg38
S'0.5'
p631
sg40
S'25'
p632
sg42
S'ORL'
p633
sg44
g31
sg46
S'0.0'
p634
sg48
S'1.0'
p635
sg50
S'0.0'
p636
sg52
S'1.3'
p637
sg54
S'0.3'
p638
sg56
S'1992-93'
p639
sg58
S'1.0'
p640
sg60
S'0.0'
p641
sg62
S'.800'
p642
sg64
S'2.5'
p643
sg66
g19
sbsS'_weight'
p644
S'220'
p645
sS'_dob'
p646
S'20-12-1967'
p647
sS'_salary'
p648
(lp649
(isrc.gp1.models.Salary
Salary
p650
(dp651
g42
S'Orlando Magic'
p652
sg28
S'NBA'
p653
sg648
S'$5,000'
p654
sg56
S'1992-93'
p655
sbasg22
S'F'
p656
sb.