(isrc.gp1.models.Player
Player
p0
(dp1
S'_experience'
p2
S'NA'
p3
sS'_totals'
p4
(lp5
(isrc.gp1.models.Totals
Totals
p6
(dp7
S'_offensiveRebounds'
p8
S'184'
p9
sS'_threePointsAttempted'
p10
S'7'
p11
sS'_fieldGoalsPercentage'
p12
S'.489'
p13
sS'_assist'
p14
S'165'
p15
sS'_threePointsPercentage'
p16
S'.000'
p17
sS'_threePoints'
p18
S'0'
p19
sS'_points'
p20
S'1104'
p21
sS'_position'
p22
S'PF'
p23
sS'_freeThrowsPercentage'
p24
S'.664'
p25
sS'_effectiveFieldGoalPercentage'
p26
S'.489'
p27
sS'_league'
p28
S'NBA'
p29
sS'_steals'
p30
S'52'
p31
sS'_fieldGoalsAttempted'
p32
S'931'
p33
sS'_personalFouls'
p34
S'236'
p35
sS'_freeThrowsAttempted'
p36
S'292'
p37
sS'_totalRebounds'
p38
S'545'
p39
sS'_age'
p40
S'21'
p41
sS'_team'
p42
S'WSB'
p43
sS'_games'
p44
S'65'
p45
sS'_blocks'
p46
S'15'
p47
sS'_twoPoints'
p48
S'455'
p49
sS'_freeThrows'
p50
S'194'
p51
sS'_twoPointsAttempted'
p52
S'924'
p53
sS'_defensiveRebounds'
p54
S'361'
p55
sS'_season'
p56
S'1994-95'
p57
sS'_fieldGoals'
p58
S'455'
p59
sS'_turnOvers'
p60
S'166'
p61
sS'_twoPointsPercentage'
p62
S'.492'
p63
sS'_minutesPlayed'
p64
S'2348'
p65
sS'_gamesStarted'
p66
S'52'
p67
sba(isrc.gp1.models.Totals
Totals
p68
(dp69
g8
S'188'
p70
sg10
S'13'
p71
sg12
S'.489'
p72
sg14
S'360'
p73
sg16
S'.308'
p74
sg18
S'4'
p75
sg20
S'1789'
p76
sg22
S'PF'
p77
sg24
S'.749'
p78
sg26
S'.490'
p79
sg28
S'NBA'
p80
sg30
S'67'
p81
sg32
S'1500'
p82
sg34
S'269'
p83
sg36
S'426'
p84
sg38
S'660'
p85
sg40
S'22'
p86
sg42
S'WSB'
p87
sg44
S'81'
p88
sg46
S'39'
p89
sg48
S'729'
p90
sg50
S'319'
p91
sg52
S'1487'
p92
sg54
S'472'
p93
sg56
S'1995-96'
p94
sg58
S'733'
p95
sg60
S'303'
p96
sg62
S'.490'
p97
sg64
S'3294'
p98
sg66
S'81'
p99
sba(isrc.gp1.models.Totals
Totals
p100
(dp101
g8
S'202'
p102
sg10
S'2'
p103
sg12
S'.486'
p104
sg14
S'311'
p105
sg16
S'.000'
p106
sg18
g19
sg20
S'1570'
p107
sg22
S'SF'
p108
sg24
S'.756'
p109
sg26
S'.486'
p110
sg28
S'NBA'
p111
sg30
S'93'
p112
sg32
S'1313'
p113
sg34
S'259'
p114
sg36
S'389'
p115
sg38
S'652'
p116
sg40
S'23'
p117
sg42
S'WSB'
p118
sg44
S'82'
p119
sg46
S'23'
p120
sg48
S'638'
p121
sg50
S'294'
p122
sg52
S'1311'
p123
sg54
S'450'
p124
sg56
S'1996-97'
p125
sg58
S'638'
p126
sg60
S'246'
p127
sg62
S'.487'
p128
sg64
S'3324'
p129
sg66
S'82'
p130
sba(isrc.gp1.models.Totals
Totals
p131
(dp132
g8
S'161'
p133
sg10
g103
sg12
S'.467'
p134
sg14
S'208'
p135
sg16
S'.000'
p136
sg18
g19
sg20
S'1184'
p137
sg22
S'PF'
p138
sg24
S'.721'
p139
sg26
S'.467'
p140
sg28
S'NBA'
p141
sg30
S'82'
p142
sg32
S'991'
p143
sg34
S'225'
p144
sg36
S'358'
p145
sg38
S'449'
p146
sg40
S'24'
p147
sg42
S'WAS'
p148
sg44
S'64'
p149
sg46
S'23'
p150
sg48
S'463'
p151
sg50
S'258'
p152
sg52
S'989'
p153
sg54
S'288'
p154
sg56
S'1997-98'
p155
sg58
S'463'
p156
sg60
S'185'
p157
sg62
S'.468'
p158
sg64
S'2559'
p159
sg66
S'64'
p160
sba(isrc.gp1.models.Totals
Totals
p161
(dp162
g8
S'90'
p163
sg10
S'3'
p164
sg12
S'.474'
p165
sg14
S'107'
p166
sg16
S'.000'
p167
sg18
g19
sg20
S'682'
p168
sg22
S'SF'
p169
sg24
S'.753'
p170
sg26
S'.474'
p171
sg28
S'NBA'
p172
sg30
S'42'
p173
sg32
S'604'
p174
sg34
S'130'
p175
sg36
S'146'
p176
sg38
S'293'
p177
sg40
S'25'
p178
sg42
S'WAS'
p179
sg44
S'36'
p180
sg46
S'14'
p181
sg48
S'286'
p182
sg50
S'110'
p183
sg52
S'601'
p184
sg54
S'203'
p185
sg56
S'1998-99'
p186
sg58
S'286'
p187
sg60
S'95'
p188
sg62
S'.476'
p189
sg64
S'1430'
p190
sg66
S'36'
p191
sba(isrc.gp1.models.Totals
Totals
p192
(dp193
g8
S'132'
p194
sg10
g11
sg12
S'.459'
p195
sg14
S'247'
p196
sg16
S'.000'
p197
sg18
g19
sg20
S'1220'
p198
sg22
S'PF'
p199
sg24
S'.735'
p200
sg26
S'.459'
p201
sg28
S'NBA'
p202
sg30
S'67'
p203
sg32
S'1108'
p204
sg34
S'299'
p205
sg36
S'275'
p206
sg38
S'470'
p207
sg40
S'26'
p208
sg42
S'WAS'
p209
sg44
S'82'
p210
sg46
S'21'
p211
sg48
S'509'
p212
sg50
S'202'
p213
sg52
S'1101'
p214
sg54
S'338'
p215
sg56
S'1999-00'
p216
sg58
S'509'
p217
sg60
S'225'
p218
sg62
S'.462'
p219
sg64
S'2909'
p220
sg66
S'82'
p221
sba(isrc.gp1.models.Totals
Totals
p222
(dp223
g8
S'171'
p224
sg10
g164
sg12
S'.479'
p225
sg14
S'224'
p226
sg16
S'.000'
p227
sg18
g19
sg20
S'1462'
p228
sg22
S'PF'
p229
sg24
S'.773'
p230
sg26
S'.479'
p231
sg28
S'NBA'
p232
sg30
S'75'
p233
sg32
S'1218'
p234
sg34
S'292'
p235
sg36
S'383'
p236
sg38
S'572'
p237
sg40
S'27'
p238
sg42
S'TOT'
p239
sg44
S'81'
p240
sg46
S'37'
p241
sg48
S'583'
p242
sg50
S'296'
p243
sg52
S'1215'
p244
sg54
S'401'
p245
sg56
S'2000-01'
p246
sg58
S'583'
p247
sg60
S'242'
p248
sg62
S'.480'
p249
sg64
S'2974'
p250
sg66
S'81'
p251
sba(isrc.gp1.models.Totals
Totals
p252
(dp253
g8
S'121'
p254
sg10
g19
sg12
S'.474'
p255
sg14
S'154'
p256
sg16
g3
sg18
g19
sg20
S'981'
p257
sg22
S'PF'
p258
sg24
S'.770'
p259
sg26
S'.474'
p260
sg28
S'NBA'
p261
sg30
S'46'
p262
sg32
S'827'
p263
sg34
S'186'
p264
sg36
S'256'
p265
sg38
S'379'
p266
sg40
S'27'
p267
sg42
S'WAS'
p268
sg44
S'54'
p269
sg46
S'21'
p270
sg48
S'392'
p271
sg50
S'197'
p272
sg52
S'827'
p273
sg54
S'258'
p274
sg56
S'2000-01'
p275
sg58
S'392'
p276
sg60
S'169'
p277
sg62
S'.474'
p278
sg64
S'1981'
p279
sg66
S'54'
p280
sba(isrc.gp1.models.Totals
Totals
p281
(dp282
g8
S'50'
p283
sg10
g164
sg12
S'.488'
p284
sg14
S'70'
p285
sg16
S'.000'
p286
sg18
g19
sg20
S'481'
p287
sg22
S'PF'
p288
sg24
S'.780'
p289
sg26
S'.488'
p290
sg28
S'NBA'
p291
sg30
S'29'
p292
sg32
S'391'
p293
sg34
S'106'
p294
sg36
S'127'
p295
sg38
S'193'
p296
sg40
S'27'
p297
sg42
S'DAL'
p298
sg44
S'27'
p299
sg46
S'16'
p300
sg48
S'191'
p301
sg50
S'99'
p302
sg52
S'388'
p303
sg54
S'143'
p304
sg56
S'2000-01'
p305
sg58
S'191'
p306
sg60
S'73'
p307
sg62
S'.492'
p308
sg64
S'993'
p309
sg66
S'27'
p310
sba(isrc.gp1.models.Totals
Totals
p311
(dp312
g8
S'223'
p313
sg10
g103
sg12
S'.460'
p314
sg14
S'169'
p315
sg16
S'.000'
p316
sg18
g19
sg20
S'1185'
p317
sg22
S'PF'
p318
sg24
S'.761'
p319
sg26
S'.460'
p320
sg28
S'NBA'
p321
sg30
S'46'
p322
sg32
S'1005'
p323
sg34
S'265'
p324
sg36
S'343'
p325
sg38
S'612'
p326
sg40
S'28'
p327
sg42
S'TOT'
p328
sg44
S'81'
p329
sg46
S'47'
p330
sg48
S'462'
p331
sg50
S'261'
p332
sg52
S'1003'
p333
sg54
S'389'
p334
sg56
S'2001-02'
p335
sg58
S'462'
p336
sg60
S'152'
p337
sg62
S'.461'
p338
sg64
S'2635'
p339
sg66
S'72'
p340
sba(isrc.gp1.models.Totals
Totals
p341
(dp342
g8
S'138'
p343
sg10
S'1'
p344
sg12
S'.462'
p345
sg14
S'93'
p346
sg16
S'.000'
p347
sg18
g19
sg20
S'684'
p348
sg22
S'PF'
p349
sg24
S'.754'
p350
sg26
S'.462'
p351
sg28
S'NBA'
p352
sg30
S'28'
p353
sg32
S'585'
p354
sg34
S'170'
p355
sg36
S'191'
p356
sg38
S'390'
p357
sg40
S'28'
p358
sg42
S'DAL'
p359
sg44
S'53'
p360
sg46
S'30'
p361
sg48
S'270'
p362
sg50
S'144'
p363
sg52
S'584'
p364
sg54
S'252'
p365
sg56
S'2001-02'
p366
sg58
S'270'
p367
sg60
S'78'
p368
sg62
S'.462'
p369
sg64
S'1659'
p370
sg66
S'44'
p371
sba(isrc.gp1.models.Totals
Totals
p372
(dp373
g8
S'85'
p374
sg10
g344
sg12
S'.457'
p375
sg14
S'76'
p376
sg16
S'.000'
p377
sg18
g19
sg20
S'501'
p378
sg22
S'PF'
p379
sg24
S'.770'
p380
sg26
S'.457'
p381
sg28
S'NBA'
p382
sg30
S'18'
p383
sg32
S'420'
p384
sg34
S'95'
p385
sg36
S'152'
p386
sg38
S'222'
p387
sg40
S'28'
p388
sg42
S'DEN'
p389
sg44
S'28'
p390
sg46
S'17'
p391
sg48
S'192'
p392
sg50
S'117'
p393
sg52
S'419'
p394
sg54
S'137'
p395
sg56
S'2001-02'
p396
sg58
S'192'
p397
sg60
S'74'
p398
sg62
S'.458'
p399
sg64
S'976'
p400
sg66
S'28'
p401
sba(isrc.gp1.models.Totals
Totals
p402
(dp403
g8
S'181'
p404
sg10
g75
sg12
S'.450'
p405
sg14
S'234'
p406
sg16
S'.500'
p407
sg18
g103
sg20
S'1418'
p408
sg22
S'PF'
p409
sg24
S'.803'
p410
sg26
S'.450'
p411
sg28
S'NBA'
p412
sg30
S'77'
p413
sg32
S'1261'
p414
sg34
S'239'
p415
sg36
S'351'
p416
sg38
S'585'
p417
sg40
S'29'
p418
sg42
S'DEN'
p419
sg44
S'77'
p420
sg46
S'27'
p421
sg48
S'565'
p422
sg50
S'282'
p423
sg52
S'1257'
p424
sg54
S'404'
p425
sg56
S'2002-03'
p426
sg58
S'567'
p427
sg60
S'189'
p428
sg62
S'.449'
p429
sg64
S'2730'
p430
sg66
S'77'
p431
sba(isrc.gp1.models.Totals
Totals
p432
(dp433
g8
S'171'
p434
sg10
g344
sg12
S'.453'
p435
sg14
S'158'
p436
sg16
S'.000'
p437
sg18
g19
sg20
S'1376'
p438
sg22
S'PF'
p439
sg24
S'.809'
p440
sg26
S'.453'
p441
sg28
S'NBA'
p442
sg30
S'54'
p443
sg32
S'1169'
p444
sg34
S'284'
p445
sg36
S'393'
p446
sg38
S'570'
p447
sg40
S'30'
p448
sg42
S'ORL'
p449
sg44
S'81'
p450
sg46
S'22'
p451
sg48
S'529'
p452
sg50
S'318'
p453
sg52
S'1168'
p454
sg54
S'399'
p455
sg56
S'2003-04'
p456
sg58
S'529'
p457
sg60
S'178'
p458
sg62
S'.453'
p459
sg64
S'2877'
p460
sg66
S'77'
p461
sba(isrc.gp1.models.Totals
Totals
p462
(dp463
g8
S'126'
p464
sg10
g344
sg12
S'.451'
p465
sg14
S'94'
p466
sg16
S'.000'
p467
sg18
g19
sg20
S'585'
p468
sg22
S'PF'
p469
sg24
S'.843'
p470
sg26
S'.451'
p471
sg28
S'NBA'
p472
sg30
S'32'
p473
sg32
S'541'
p474
sg34
S'143'
p475
sg36
S'115'
p476
sg38
S'346'
p477
sg40
S'31'
p478
sg42
S'HOU'
p479
sg44
S'61'
p480
sg46
S'5'
p481
sg48
S'244'
p482
sg50
S'97'
p483
sg52
S'540'
p484
sg54
S'220'
p485
sg56
S'2004-05'
p486
sg58
S'244'
p487
sg60
S'79'
p488
sg62
S'.452'
p489
sg64
S'1624'
p490
sg66
S'47'
p491
sba(isrc.gp1.models.Totals
Totals
p492
(dp493
g8
S'168'
p494
sg10
g75
sg12
S'.459'
p495
sg14
S'112'
p496
sg16
S'.000'
p497
sg18
g19
sg20
S'942'
p498
sg22
S'PF'
p499
sg24
S'.806'
p500
sg26
S'.459'
p501
sg28
S'NBA'
p502
sg30
S'49'
p503
sg32
S'859'
p504
sg34
S'235'
p505
sg36
S'191'
p506
sg38
S'535'
p507
sg40
S'32'
p508
sg42
S'HOU'
p509
sg44
S'80'
p510
sg46
S'8'
p511
sg48
S'394'
p512
sg50
S'154'
p513
sg52
S'855'
p514
sg54
S'367'
p515
sg56
S'2005-06'
p516
sg58
S'394'
p517
sg60
S'133'
p518
sg62
S'.461'
p519
sg64
S'2537'
p520
sg66
S'80'
p521
sba(isrc.gp1.models.Totals
Totals
p522
(dp523
g8
S'138'
p524
sg10
g19
sg12
S'.465'
p525
sg14
S'131'
p526
sg16
g3
sg18
g19
sg20
S'773'
p527
sg22
S'PF'
p528
sg24
S'.824'
p529
sg26
S'.465'
p530
sg28
S'NBA'
p531
sg30
S'29'
p532
sg32
S'665'
p533
sg34
S'205'
p534
sg36
S'188'
p535
sg38
S'470'
p536
sg40
S'33'
p537
sg42
S'HOU'
p538
sg44
S'80'
p539
sg46
g511
sg48
S'309'
p540
sg50
S'155'
p541
sg52
S'665'
p542
sg54
S'332'
p543
sg56
S'2006-07'
p544
sg58
S'309'
p545
sg60
S'112'
p546
sg62
S'.465'
p547
sg64
S'2123'
p548
sg66
S'38'
p549
sba(isrc.gp1.models.Totals
Totals
p550
(dp551
g8
S'21'
p552
sg10
g19
sg12
S'.359'
p553
sg14
S'17'
p554
sg16
g3
sg18
g19
sg20
S'57'
p555
sg22
S'PF'
p556
sg24
S'.786'
p557
sg26
S'.359'
p558
sg28
S'NBA'
p559
sg30
g481
sg32
S'64'
p560
sg34
S'62'
p561
sg36
S'14'
p562
sg38
S'81'
p563
sg40
S'34'
p564
sg42
S'DAL'
p565
sg44
S'50'
p566
sg46
g103
sg48
S'23'
p567
sg50
S'11'
p568
sg52
S'64'
p569
sg54
S'60'
p570
sg56
S'2007-08'
p571
sg58
S'23'
p572
sg60
S'17'
p573
sg62
S'.359'
p574
sg64
S'353'
p575
sg66
g19
sba(isrc.gp1.models.Totals
Totals
p576
(dp577
g8
S'30'
p578
sg10
g19
sg12
S'.510'
p579
sg14
S'26'
p580
sg16
g3
sg18
g19
sg20
S'173'
p581
sg22
S'SF-PF'
p582
sg24
S'.676'
p583
sg26
S'.510'
p584
sg28
S'NBA'
p585
sg30
g11
sg32
S'147'
p586
sg34
S'71'
p587
sg36
S'34'
p588
sg38
S'76'
p589
sg40
S'35'
p590
sg42
S'TOT'
p591
sg44
S'42'
p592
sg46
S'6'
p593
sg48
S'75'
p594
sg50
S'23'
p595
sg52
S'147'
p596
sg54
S'46'
p597
sg56
S'2008-09'
p598
sg58
S'75'
p599
sg60
S'26'
p600
sg62
S'.510'
p601
sg64
S'472'
p602
sg66
g103
sba(isrc.gp1.models.Totals
Totals
p603
(dp604
g8
g344
sg10
g19
sg12
S'.500'
p605
sg14
g103
sg16
g3
sg18
g19
sg20
g103
sg22
S'PF'
p606
sg24
g3
sg26
S'.500'
p607
sg28
S'NBA'
p608
sg30
g344
sg32
g103
sg34
g75
sg36
g19
sg38
g75
sg40
S'35'
p609
sg42
S'DEN'
p610
sg44
g164
sg46
g344
sg48
g344
sg50
g19
sg52
g103
sg54
g164
sg56
S'2008-09'
p611
sg58
g344
sg60
g19
sg62
S'.500'
p612
sg64
S'22'
p613
sg66
g19
sba(isrc.gp1.models.Totals
Totals
p614
(dp615
g8
S'29'
p616
sg10
g19
sg12
S'.510'
p617
sg14
S'24'
p618
sg16
g3
sg18
g19
sg20
S'171'
p619
sg22
S'SF'
p620
sg24
S'.676'
p621
sg26
S'.510'
p622
sg28
S'NBA'
p623
sg30
g593
sg32
S'145'
p624
sg34
S'67'
p625
sg36
S'34'
p626
sg38
S'72'
p627
sg40
S'35'
p628
sg42
S'CHA'
p629
sg44
S'39'
p630
sg46
g481
sg48
S'74'
p631
sg50
S'23'
p632
sg52
S'145'
p633
sg54
S'43'
p634
sg56
S'2008-09'
p635
sg58
S'74'
p636
sg60
S'26'
p637
sg62
S'.510'
p638
sg64
S'450'
p639
sg66
g103
sba(isrc.gp1.models.Totals
Totals
p640
(dp641
g8
S'108'
p642
sg10
g344
sg12
S'.509'
p643
sg14
S'61'
p644
sg16
S'.000'
p645
sg18
g19
sg20
S'437'
p646
sg22
S'C'
p647
sg24
S'.786'
p648
sg26
S'.509'
p649
sg28
S'NBA'
p650
sg30
S'27'
p651
sg32
S'375'
p652
sg34
S'191'
p653
sg36
S'70'
p654
sg38
S'335'
p655
sg40
S'36'
p656
sg42
S'POR'
p657
sg44
S'73'
p658
sg46
S'10'
p659
sg48
S'191'
p660
sg50
S'55'
p661
sg52
S'374'
p662
sg54
S'227'
p663
sg56
S'2009-10'
p664
sg58
S'191'
p665
sg60
S'72'
p666
sg62
S'.511'
p667
sg64
S'1632'
p668
sg66
S'27'
p669
sba(isrc.gp1.models.Totals
Totals
p670
(dp671
g8
S'36'
p672
sg10
g19
sg12
S'.440'
p673
sg14
S'23'
p674
sg16
g3
sg18
g19
sg20
S'139'
p675
sg22
S'PF'
p676
sg24
S'.829'
p677
sg26
S'.440'
p678
sg28
S'NBA'
p679
sg30
S'10'
p680
sg32
S'125'
p681
sg34
S'61'
p682
sg36
S'35'
p683
sg38
S'122'
p684
sg40
S'37'
p685
sg42
S'MIA'
p686
sg44
S'57'
p687
sg46
g75
sg48
S'55'
p688
sg50
S'29'
p689
sg52
S'125'
p690
sg54
S'86'
p691
sg56
S'2010-11'
p692
sg58
S'55'
p693
sg60
S'25'
p694
sg62
S'.440'
p695
sg64
S'592'
p696
sg66
g19
sba(isrc.gp1.models.Totals
Totals
p697
(dp698
g8
S'18'
p699
sg10
g19
sg12
S'.309'
p700
sg14
S'10'
p701
sg16
g3
sg18
g19
sg20
S'42'
p702
sg22
S'PF'
p703
sg24
S'.800'
p704
sg26
S'.309'
p705
sg28
S'NBA'
p706
sg30
g75
sg32
S'55'
p707
sg34
S'18'
p708
sg36
S'10'
p709
sg38
S'47'
p710
sg40
S'38'
p711
sg42
S'MIA'
p712
sg44
S'28'
p713
sg46
g344
sg48
S'17'
p714
sg50
g511
sg52
S'55'
p715
sg54
S'29'
p716
sg56
S'2011-12'
p717
sg58
S'17'
p718
sg60
S'20'
p719
sg62
S'.309'
p720
sg64
S'190'
p721
sg66
g19
sba(isrc.gp1.models.Totals
Totals
p722
(dp723
g8
g19
sg10
g19
sg12
S'.526'
p724
sg14
g593
sg16
g3
sg18
g19
sg20
S'21'
p725
sg22
S'PF'
p726
sg24
S'1.000'
p727
sg26
S'.526'
p728
sg28
S'NBA'
p729
sg30
g19
sg32
S'19'
p730
sg34
S'9'
p731
sg36
g344
sg38
g511
sg40
S'39'
p732
sg42
S'MIA'
p733
sg44
g11
sg46
g19
sg48
S'10'
p734
sg50
g344
sg52
S'19'
p735
sg54
g511
sg56
S'2012-13'
p736
sg58
S'10'
p737
sg60
g75
sg62
S'.526'
p738
sg64
S'51'
p739
sg66
g103
sbasS'_college'
p740
S'University of Michigan'
p741
sS'_toYear'
p742
S'2013'
p743
sS'_height'
p744
S'6-9'
p745
sS'_active'
p746
I00
sS'_shootingHand'
p747
VRight
p748
sS'_name'
p749
S'Juwan Howard'
p750
sS'_per100Possessions'
p751
(lp752
(isrc.gp1.models.Per100Possession
Per100Possession
p753
(dp754
g8
S'4.0'
p755
sg10
S'0.2'
p756
sg12
S'.489'
p757
sS'_offensiveRating'
p758
S'104'
p759
sg14
S'3.6'
p760
sg16
S'.000'
p761
sg18
S'0.0'
p762
sg20
S'23.9'
p763
sg22
S'PF'
p764
sS'_defensiveRating'
p765
S'112'
p766
sg24
S'.664'
p767
sg28
S'NBA'
p768
sg30
S'1.1'
p769
sg32
S'20.1'
p770
sg34
S'5.1'
p771
sg36
S'6.3'
p772
sg38
S'11.8'
p773
sg40
S'21'
p774
sg42
S'WSB'
p775
sg44
S'65'
p776
sg46
S'0.3'
p777
sg48
S'9.8'
p778
sg50
S'4.2'
p779
sg52
S'20.0'
p780
sg54
S'7.8'
p781
sg56
S'1994-95'
p782
sg58
S'9.8'
p783
sg60
S'3.6'
p784
sg62
S'.492'
p785
sg64
S'2348'
p786
sg66
S'52'
p787
sba(isrc.gp1.models.Per100Possession
Per100Possession
p788
(dp789
g8
S'2.9'
p790
sg10
S'0.2'
p791
sg12
S'.489'
p792
sg758
S'104'
p793
sg14
S'5.6'
p794
sg16
S'.308'
p795
sg18
S'0.1'
p796
sg20
S'27.8'
p797
sg22
S'PF'
p798
sg765
S'108'
p799
sg24
S'.749'
p800
sg28
S'NBA'
p801
sg30
S'1.0'
p802
sg32
S'23.3'
p803
sg34
S'4.2'
p804
sg36
S'6.6'
p805
sg38
S'10.3'
p806
sg40
S'22'
p807
sg42
S'WSB'
p808
sg44
S'81'
p809
sg46
S'0.6'
p810
sg48
S'11.3'
p811
sg50
S'5.0'
p812
sg52
S'23.1'
p813
sg54
S'7.3'
p814
sg56
S'1995-96'
p815
sg58
S'11.4'
p816
sg60
S'4.7'
p817
sg62
S'.490'
p818
sg64
S'3294'
p819
sg66
S'81'
p820
sba(isrc.gp1.models.Per100Possession
Per100Possession
p821
(dp822
g8
S'3.2'
p823
sg10
S'0.0'
p824
sg12
S'.486'
p825
sg758
S'105'
p826
sg14
S'4.9'
p827
sg16
S'.000'
p828
sg18
S'0.0'
p829
sg20
S'24.5'
p830
sg22
S'SF'
p831
sg765
S'106'
p832
sg24
S'.756'
p833
sg28
S'NBA'
p834
sg30
S'1.5'
p835
sg32
S'20.5'
p836
sg34
S'4.0'
p837
sg36
S'6.1'
p838
sg38
S'10.2'
p839
sg40
S'23'
p840
sg42
S'WSB'
p841
sg44
S'82'
p842
sg46
S'0.4'
p843
sg48
S'10.0'
p844
sg50
S'4.6'
p845
sg52
S'20.5'
p846
sg54
S'7.0'
p847
sg56
S'1996-97'
p848
sg58
S'10.0'
p849
sg60
S'3.8'
p850
sg62
S'.487'
p851
sg64
S'3324'
p852
sg66
S'82'
p853
sba(isrc.gp1.models.Per100Possession
Per100Possession
p854
(dp855
g8
S'3.3'
p856
sg10
S'0.0'
p857
sg12
S'.467'
p858
sg758
S'103'
p859
sg14
S'4.2'
p860
sg16
S'.000'
p861
sg18
S'0.0'
p862
sg20
S'24.2'
p863
sg22
S'PF'
p864
sg765
S'106'
p865
sg24
S'.721'
p866
sg28
S'NBA'
p867
sg30
S'1.7'
p868
sg32
S'20.2'
p869
sg34
S'4.6'
p870
sg36
S'7.3'
p871
sg38
S'9.2'
p872
sg40
S'24'
p873
sg42
S'WAS'
p874
sg44
S'64'
p875
sg46
S'0.5'
p876
sg48
S'9.5'
p877
sg50
S'5.3'
p878
sg52
S'20.2'
p879
sg54
S'5.9'
p880
sg56
S'1997-98'
p881
sg58
S'9.5'
p882
sg60
S'3.8'
p883
sg62
S'.468'
p884
sg64
S'2559'
p885
sg66
S'64'
p886
sba(isrc.gp1.models.Per100Possession
Per100Possession
p887
(dp888
g8
S'3.4'
p889
sg10
S'0.1'
p890
sg12
S'.474'
p891
sg758
S'101'
p892
sg14
S'4.0'
p893
sg16
S'.000'
p894
sg18
S'0.0'
p895
sg20
S'25.5'
p896
sg22
S'SF'
p897
sg765
S'103'
p898
sg24
S'.753'
p899
sg28
S'NBA'
p900
sg30
S'1.6'
p901
sg32
S'22.6'
p902
sg34
S'4.9'
p903
sg36
S'5.5'
p904
sg38
S'11.0'
p905
sg40
S'25'
p906
sg42
S'WAS'
p907
sg44
S'36'
p908
sg46
S'0.5'
p909
sg48
S'10.7'
p910
sg50
S'4.1'
p911
sg52
S'22.5'
p912
sg54
S'7.6'
p913
sg56
S'1998-99'
p914
sg58
S'10.7'
p915
sg60
S'3.6'
p916
sg62
S'.476'
p917
sg64
S'1430'
p918
sg66
S'36'
p919
sba(isrc.gp1.models.Per100Possession
Per100Possession
p920
(dp921
g8
S'2.3'
p922
sg10
S'0.1'
p923
sg12
S'.459'
p924
sg758
S'97'
p925
sg14
S'4.4'
p926
sg16
S'.000'
p927
sg18
S'0.0'
p928
sg20
S'21.7'
p929
sg22
S'PF'
p930
sg765
S'109'
p931
sg24
S'.735'
p932
sg28
S'NBA'
p933
sg30
S'1.2'
p934
sg32
S'19.7'
p935
sg34
S'5.3'
p936
sg36
S'4.9'
p937
sg38
S'8.4'
p938
sg40
S'26'
p939
sg42
S'WAS'
p940
sg44
S'82'
p941
sg46
S'0.4'
p942
sg48
S'9.1'
p943
sg50
S'3.6'
p944
sg52
S'19.6'
p945
sg54
S'6.0'
p946
sg56
S'1999-00'
p947
sg58
S'9.1'
p948
sg60
S'4.0'
p949
sg62
S'.462'
p950
sg64
S'2909'
p951
sg66
S'82'
p952
sba(isrc.gp1.models.Per100Possession
Per100Possession
p953
(dp954
g8
S'3.0'
p955
sg10
S'0.1'
p956
sg12
S'.479'
p957
sg758
S'101'
p958
sg14
S'3.9'
p959
sg16
S'.000'
p960
sg18
S'0.0'
p961
sg20
S'25.4'
p962
sg22
S'PF'
p963
sg765
S'107'
p964
sg24
S'.773'
p965
sg28
S'NBA'
p966
sg30
S'1.3'
p967
sg32
S'21.2'
p968
sg34
S'5.1'
p969
sg36
S'6.7'
p970
sg38
S'9.9'
p971
sg40
S'27'
p972
sg42
S'TOT'
p973
sg44
S'81'
p974
sg46
S'0.6'
p975
sg48
S'10.1'
p976
sg50
S'5.1'
p977
sg52
S'21.1'
p978
sg54
S'7.0'
p979
sg56
S'2000-01'
p980
sg58
S'10.1'
p981
sg60
S'4.2'
p982
sg62
S'.480'
p983
sg64
S'2974'
p984
sg66
S'81'
p985
sba(isrc.gp1.models.Per100Possession
Per100Possession
p986
(dp987
g8
S'3.2'
p988
sg10
S'0.0'
p989
sg12
S'.474'
p990
sg758
S'100'
p991
sg14
S'4.0'
p992
sg16
g3
sg18
S'0.0'
p993
sg20
S'25.6'
p994
sg22
S'PF'
p995
sg765
S'109'
p996
sg24
S'.770'
p997
sg28
S'NBA'
p998
sg30
S'1.2'
p999
sg32
S'21.6'
p1000
sg34
S'4.9'
p1001
sg36
S'6.7'
p1002
sg38
S'9.9'
p1003
sg40
S'27'
p1004
sg42
S'WAS'
p1005
sg44
S'54'
p1006
sg46
S'0.5'
p1007
sg48
S'10.2'
p1008
sg50
S'5.2'
p1009
sg52
S'21.6'
p1010
sg54
S'6.7'
p1011
sg56
S'2000-01'
p1012
sg58
S'10.2'
p1013
sg60
S'4.4'
p1014
sg62
S'.474'
p1015
sg64
S'1981'
p1016
sg66
S'54'
p1017
sba(isrc.gp1.models.Per100Possession
Per100Possession
p1018
(dp1019
g8
S'2.6'
p1020
sg10
S'0.2'
p1021
sg12
S'.488'
p1022
sg758
S'102'
p1023
sg14
S'3.6'
p1024
sg16
S'.000'
p1025
sg18
S'0.0'
p1026
sg20
S'24.9'
p1027
sg22
S'PF'
p1028
sg765
S'103'
p1029
sg24
S'.780'
p1030
sg28
S'NBA'
p1031
sg30
S'1.5'
p1032
sg32
S'20.3'
p1033
sg34
S'5.5'
p1034
sg36
S'6.6'
p1035
sg38
S'10.0'
p1036
sg40
S'27'
p1037
sg42
S'DAL'
p1038
sg44
S'27'
p1039
sg46
S'0.8'
p1040
sg48
S'9.9'
p1041
sg50
S'5.1'
p1042
sg52
S'20.1'
p1043
sg54
S'7.4'
p1044
sg56
S'2000-01'
p1045
sg58
S'9.9'
p1046
sg60
S'3.8'
p1047
sg62
S'.492'
p1048
sg64
S'993'
p1049
sg66
S'27'
p1050
sba(isrc.gp1.models.Per100Possession
Per100Possession
p1051
(dp1052
g8
S'4.4'
p1053
sg10
S'0.0'
p1054
sg12
S'.460'
p1055
sg758
S'106'
p1056
sg14
S'3.3'
p1057
sg16
S'.000'
p1058
sg18
S'0.0'
p1059
sg20
S'23.5'
p1060
sg22
S'PF'
p1061
sg765
S'108'
p1062
sg24
S'.761'
p1063
sg28
S'NBA'
p1064
sg30
S'0.9'
p1065
sg32
S'19.9'
p1066
sg34
S'5.3'
p1067
sg36
S'6.8'
p1068
sg38
S'12.1'
p1069
sg40
S'28'
p1070
sg42
S'TOT'
p1071
sg44
S'81'
p1072
sg46
S'0.9'
p1073
sg48
S'9.2'
p1074
sg50
S'5.2'
p1075
sg52
S'19.9'
p1076
sg54
S'7.7'
p1077
sg56
S'2001-02'
p1078
sg58
S'9.2'
p1079
sg60
S'3.0'
p1080
sg62
S'.461'
p1081
sg64
S'2635'
p1082
sg66
S'72'
p1083
sba(isrc.gp1.models.Per100Possession
Per100Possession
p1084
(dp1085
g8
S'4.3'
p1086
sg10
S'0.0'
p1087
sg12
S'.462'
p1088
sg758
S'108'
p1089
sg14
S'2.9'
p1090
sg16
S'.000'
p1091
sg18
S'0.0'
p1092
sg20
S'21.3'
p1093
sg22
S'PF'
p1094
sg765
S'108'
p1095
sg24
S'.754'
p1096
sg28
S'NBA'
p1097
sg30
S'0.9'
p1098
sg32
S'18.2'
p1099
sg34
S'5.3'
p1100
sg36
S'6.0'
p1101
sg38
S'12.2'
p1102
sg40
S'28'
p1103
sg42
S'DAL'
p1104
sg44
S'53'
p1105
sg46
S'0.9'
p1106
sg48
S'8.4'
p1107
sg50
S'4.5'
p1108
sg52
S'18.2'
p1109
sg54
S'7.9'
p1110
sg56
S'2001-02'
p1111
sg58
S'8.4'
p1112
sg60
S'2.4'
p1113
sg62
S'.462'
p1114
sg64
S'1659'
p1115
sg66
S'44'
p1116
sba(isrc.gp1.models.Per100Possession
Per100Possession
p1117
(dp1118
g8
S'4.6'
p1119
sg10
S'0.1'
p1120
sg12
S'.457'
p1121
sg758
S'103'
p1122
sg14
S'4.1'
p1123
sg16
S'.000'
p1124
sg18
S'0.0'
p1125
sg20
S'27.3'
p1126
sg22
S'PF'
p1127
sg765
S'109'
p1128
sg24
S'.770'
p1129
sg28
S'NBA'
p1130
sg30
S'1.0'
p1131
sg32
S'22.9'
p1132
sg34
S'5.2'
p1133
sg36
S'8.3'
p1134
sg38
S'12.1'
p1135
sg40
S'28'
p1136
sg42
S'DEN'
p1137
sg44
S'28'
p1138
sg46
S'0.9'
p1139
sg48
S'10.5'
p1140
sg50
S'6.4'
p1141
sg52
S'22.8'
p1142
sg54
S'7.5'
p1143
sg56
S'2001-02'
p1144
sg58
S'10.5'
p1145
sg60
S'4.0'
p1146
sg62
S'.458'
p1147
sg64
S'976'
p1148
sg66
S'28'
p1149
sba(isrc.gp1.models.Per100Possession
Per100Possession
p1150
(dp1151
g8
S'3.5'
p1152
sg10
S'0.1'
p1153
sg12
S'.450'
p1154
sg758
S'102'
p1155
sg14
S'4.5'
p1156
sg16
S'.500'
p1157
sg18
S'0.0'
p1158
sg20
S'27.4'
p1159
sg22
S'PF'
p1160
sg765
S'102'
p1161
sg24
S'.803'
p1162
sg28
S'NBA'
p1163
sg30
S'1.5'
p1164
sg32
S'24.4'
p1165
sg34
S'4.6'
p1166
sg36
S'6.8'
p1167
sg38
S'11.3'
p1168
sg40
S'29'
p1169
sg42
S'DEN'
p1170
sg44
S'77'
p1171
sg46
S'0.5'
p1172
sg48
S'10.9'
p1173
sg50
S'5.4'
p1174
sg52
S'24.3'
p1175
sg54
S'7.8'
p1176
sg56
S'2002-03'
p1177
sg58
S'11.0'
p1178
sg60
S'3.7'
p1179
sg62
S'.449'
p1180
sg64
S'2730'
p1181
sg66
S'77'
p1182
sba(isrc.gp1.models.Per100Possession
Per100Possession
p1183
(dp1184
g8
S'3.1'
p1185
sg10
S'0.0'
p1186
sg12
S'.453'
p1187
sg758
S'103'
p1188
sg14
S'2.9'
p1189
sg16
S'.000'
p1190
sg18
S'0.0'
p1191
sg20
S'25.3'
p1192
sg22
S'PF'
p1193
sg765
S'111'
p1194
sg24
S'.809'
p1195
sg28
S'NBA'
p1196
sg30
S'1.0'
p1197
sg32
S'21.5'
p1198
sg34
S'5.2'
p1199
sg36
S'7.2'
p1200
sg38
S'10.5'
p1201
sg40
S'30'
p1202
sg42
S'ORL'
p1203
sg44
S'81'
p1204
sg46
S'0.4'
p1205
sg48
S'9.7'
p1206
sg50
S'5.8'
p1207
sg52
S'21.5'
p1208
sg54
S'7.3'
p1209
sg56
S'2003-04'
p1210
sg58
S'9.7'
p1211
sg60
S'3.3'
p1212
sg62
S'.453'
p1213
sg64
S'2877'
p1214
sg66
S'77'
p1215
sba(isrc.gp1.models.Per100Possession
Per100Possession
p1216
(dp1217
g8
S'4.2'
p1218
sg10
S'0.0'
p1219
sg12
S'.451'
p1220
sg758
S'103'
p1221
sg14
S'3.1'
p1222
sg16
S'.000'
p1223
sg18
S'0.0'
p1224
sg20
S'19.5'
p1225
sg22
S'PF'
p1226
sg765
S'104'
p1227
sg24
S'.843'
p1228
sg28
S'NBA'
p1229
sg30
S'1.1'
p1230
sg32
S'18.0'
p1231
sg34
S'4.8'
p1232
sg36
S'3.8'
p1233
sg38
S'11.5'
p1234
sg40
S'31'
p1235
sg42
S'HOU'
p1236
sg44
S'61'
p1237
sg46
S'0.2'
p1238
sg48
S'8.1'
p1239
sg50
S'3.2'
p1240
sg52
S'18.0'
p1241
sg54
S'7.3'
p1242
sg56
S'2004-05'
p1243
sg58
S'8.1'
p1244
sg60
S'2.6'
p1245
sg62
S'.452'
p1246
sg64
S'1624'
p1247
sg66
S'47'
p1248
sba(isrc.gp1.models.Per100Possession
Per100Possession
p1249
(dp1250
g8
S'3.6'
p1251
sg10
S'0.1'
p1252
sg12
S'.459'
p1253
sg758
S'100'
p1254
sg14
S'2.4'
p1255
sg16
S'.000'
p1256
sg18
S'0.0'
p1257
sg20
S'20.2'
p1258
sg22
S'PF'
p1259
sg765
S'105'
p1260
sg24
S'.806'
p1261
sg28
S'NBA'
p1262
sg30
S'1.1'
p1263
sg32
S'18.5'
p1264
sg34
S'5.1'
p1265
sg36
S'4.1'
p1266
sg38
S'11.5'
p1267
sg40
S'32'
p1268
sg42
S'HOU'
p1269
sg44
S'80'
p1270
sg46
S'0.2'
p1271
sg48
S'8.5'
p1272
sg50
S'3.3'
p1273
sg52
S'18.4'
p1274
sg54
S'7.9'
p1275
sg56
S'2005-06'
p1276
sg58
S'8.5'
p1277
sg60
S'2.9'
p1278
sg62
S'.461'
p1279
sg64
S'2537'
p1280
sg66
S'80'
p1281
sba(isrc.gp1.models.Per100Possession
Per100Possession
p1282
(dp1283
g8
S'3.4'
p1284
sg10
S'0.0'
p1285
sg12
S'.465'
p1286
sg758
S'105'
p1287
sg14
S'3.3'
p1288
sg16
g3
sg18
S'0.0'
p1289
sg20
S'19.3'
p1290
sg22
S'PF'
p1291
sg765
S'103'
p1292
sg24
S'.824'
p1293
sg28
S'NBA'
p1294
sg30
S'0.7'
p1295
sg32
S'16.6'
p1296
sg34
S'5.1'
p1297
sg36
S'4.7'
p1298
sg38
S'11.7'
p1299
sg40
S'33'
p1300
sg42
S'HOU'
p1301
sg44
S'80'
p1302
sg46
S'0.2'
p1303
sg48
S'7.7'
p1304
sg50
S'3.9'
p1305
sg52
S'16.6'
p1306
sg54
S'8.3'
p1307
sg56
S'2006-07'
p1308
sg58
S'7.7'
p1309
sg60
S'2.8'
p1310
sg62
S'.465'
p1311
sg64
S'2123'
p1312
sg66
S'38'
p1313
sba(isrc.gp1.models.Per100Possession
Per100Possession
p1314
(dp1315
g8
S'3.2'
p1316
sg10
S'0.0'
p1317
sg12
S'.359'
p1318
sg758
S'88'
p1319
sg14
S'2.6'
p1320
sg16
g3
sg18
S'0.0'
p1321
sg20
S'8.6'
p1322
sg22
S'PF'
p1323
sg765
S'107'
p1324
sg24
S'.786'
p1325
sg28
S'NBA'
p1326
sg30
S'0.8'
p1327
sg32
S'9.7'
p1328
sg34
S'9.4'
p1329
sg36
S'2.1'
p1330
sg38
S'12.2'
p1331
sg40
S'34'
p1332
sg42
S'DAL'
p1333
sg44
S'50'
p1334
sg46
S'0.3'
p1335
sg48
S'3.5'
p1336
sg50
S'1.7'
p1337
sg52
S'9.7'
p1338
sg54
S'9.0'
p1339
sg56
S'2007-08'
p1340
sg58
S'3.5'
p1341
sg60
S'2.6'
p1342
sg62
S'.359'
p1343
sg64
S'353'
p1344
sg66
g19
sba(isrc.gp1.models.Per100Possession
Per100Possession
p1345
(dp1346
g8
S'3.4'
p1347
sg10
S'0.0'
p1348
sg12
S'.510'
p1349
sg758
S'104'
p1350
sg14
S'3.0'
p1351
sg16
g3
sg18
S'0.0'
p1352
sg20
S'19.9'
p1353
sg22
S'SF-PF'
p1354
sg765
S'109'
p1355
sg24
S'.676'
p1356
sg28
S'NBA'
p1357
sg30
S'0.8'
p1358
sg32
S'16.9'
p1359
sg34
S'8.1'
p1360
sg36
S'3.9'
p1361
sg38
S'8.7'
p1362
sg40
S'35'
p1363
sg42
S'TOT'
p1364
sg44
S'42'
p1365
sg46
S'0.7'
p1366
sg48
S'8.6'
p1367
sg50
S'2.6'
p1368
sg52
S'16.9'
p1369
sg54
S'5.3'
p1370
sg56
S'2008-09'
p1371
sg58
S'8.6'
p1372
sg60
S'3.0'
p1373
sg62
S'.510'
p1374
sg64
S'472'
p1375
sg66
g103
sba(isrc.gp1.models.Per100Possession
Per100Possession
p1376
(dp1377
g8
S'2.3'
p1378
sg10
S'0.0'
p1379
sg12
S'.500'
p1380
sg758
S'144'
p1381
sg14
S'4.6'
p1382
sg16
g3
sg18
S'0.0'
p1383
sg20
S'4.6'
p1384
sg22
S'PF'
p1385
sg765
S'104'
p1386
sg24
g3
sg28
S'NBA'
p1387
sg30
S'2.3'
p1388
sg32
S'4.6'
p1389
sg34
S'9.3'
p1390
sg36
S'0.0'
p1391
sg38
S'9.3'
p1392
sg40
S'35'
p1393
sg42
S'DEN'
p1394
sg44
g164
sg46
S'2.3'
p1395
sg48
S'2.3'
p1396
sg50
S'0.0'
p1397
sg52
S'4.6'
p1398
sg54
S'6.9'
p1399
sg56
S'2008-09'
p1400
sg58
S'2.3'
p1401
sg60
S'0.0'
p1402
sg62
S'.500'
p1403
sg64
S'22'
p1404
sg66
g19
sba(isrc.gp1.models.Per100Possession
Per100Possession
p1405
(dp1406
g8
S'3.5'
p1407
sg10
S'0.0'
p1408
sg12
S'.510'
p1409
sg758
S'103'
p1410
sg14
S'2.9'
p1411
sg16
g3
sg18
S'0.0'
p1412
sg20
S'20.7'
p1413
sg22
S'SF'
p1414
sg765
S'109'
p1415
sg24
S'.676'
p1416
sg28
S'NBA'
p1417
sg30
S'0.7'
p1418
sg32
S'17.5'
p1419
sg34
S'8.1'
p1420
sg36
S'4.1'
p1421
sg38
S'8.7'
p1422
sg40
S'35'
p1423
sg42
S'CHA'
p1424
sg44
S'39'
p1425
sg46
S'0.6'
p1426
sg48
S'8.9'
p1427
sg50
S'2.8'
p1428
sg52
S'17.5'
p1429
sg54
S'5.2'
p1430
sg56
S'2008-09'
p1431
sg58
S'8.9'
p1432
sg60
S'3.1'
p1433
sg62
S'.510'
p1434
sg64
S'450'
p1435
sg66
g103
sba(isrc.gp1.models.Per100Possession
Per100Possession
p1436
(dp1437
g8
S'3.6'
p1438
sg10
S'0.0'
p1439
sg12
S'.509'
p1440
sg758
S'107'
p1441
sg14
S'2.0'
p1442
sg16
S'.000'
p1443
sg18
S'0.0'
p1444
sg20
S'14.7'
p1445
sg22
g647
sg765
S'108'
p1446
sg24
S'.786'
p1447
sg28
S'NBA'
p1448
sg30
S'0.9'
p1449
sg32
S'12.6'
p1450
sg34
S'6.4'
p1451
sg36
S'2.3'
p1452
sg38
S'11.2'
p1453
sg40
S'36'
p1454
sg42
S'POR'
p1455
sg44
S'73'
p1456
sg46
S'0.3'
p1457
sg48
S'6.4'
p1458
sg50
S'1.8'
p1459
sg52
S'12.5'
p1460
sg54
S'7.6'
p1461
sg56
S'2009-10'
p1462
sg58
S'6.4'
p1463
sg60
S'2.4'
p1464
sg62
S'.511'
p1465
sg64
S'1632'
p1466
sg66
S'27'
p1467
sba(isrc.gp1.models.Per100Possession
Per100Possession
p1468
(dp1469
g8
S'3.2'
p1470
sg10
S'0.0'
p1471
sg12
S'.440'
p1472
sg758
S'102'
p1473
sg14
S'2.1'
p1474
sg16
g3
sg18
S'0.0'
p1475
sg20
S'12.4'
p1476
sg22
S'PF'
p1477
sg765
S'105'
p1478
sg24
S'.829'
p1479
sg28
S'NBA'
p1480
sg30
S'0.9'
p1481
sg32
S'11.1'
p1482
sg34
S'5.4'
p1483
sg36
S'3.1'
p1484
sg38
S'10.9'
p1485
sg40
S'37'
p1486
sg42
S'MIA'
p1487
sg44
S'57'
p1488
sg46
S'0.4'
p1489
sg48
S'4.9'
p1490
sg50
S'2.6'
p1491
sg52
S'11.1'
p1492
sg54
S'7.7'
p1493
sg56
S'2010-11'
p1494
sg58
S'4.9'
p1495
sg60
S'2.2'
p1496
sg62
S'.440'
p1497
sg64
S'592'
p1498
sg66
g19
sba(isrc.gp1.models.Per100Possession
Per100Possession
p1499
(dp1500
g8
S'5.0'
p1501
sg10
S'0.0'
p1502
sg12
S'.309'
p1503
sg758
S'73'
p1504
sg14
S'2.8'
p1505
sg16
g3
sg18
S'0.0'
p1506
sg20
S'11.6'
p1507
sg22
S'PF'
p1508
sg765
S'102'
p1509
sg24
S'.800'
p1510
sg28
S'NBA'
p1511
sg30
S'1.1'
p1512
sg32
S'15.2'
p1513
sg34
S'5.0'
p1514
sg36
S'2.8'
p1515
sg38
S'13.0'
p1516
sg40
S'38'
p1517
sg42
S'MIA'
p1518
sg44
S'28'
p1519
sg46
S'0.3'
p1520
sg48
S'4.7'
p1521
sg50
S'2.2'
p1522
sg52
S'15.2'
p1523
sg54
S'8.0'
p1524
sg56
S'2011-12'
p1525
sg58
S'4.7'
p1526
sg60
S'5.5'
p1527
sg62
S'.309'
p1528
sg64
S'190'
p1529
sg66
g19
sba(isrc.gp1.models.Per100Possession
Per100Possession
p1530
(dp1531
g8
S'0.0'
p1532
sg10
S'0.0'
p1533
sg12
S'.526'
p1534
sg758
S'98'
p1535
sg14
S'6.2'
p1536
sg16
g3
sg18
S'0.0'
p1537
sg20
S'21.8'
p1538
sg22
S'PF'
p1539
sg765
S'108'
p1540
sg24
S'1.000'
p1541
sg28
S'NBA'
p1542
sg30
S'0.0'
p1543
sg32
S'19.7'
p1544
sg34
S'9.3'
p1545
sg36
S'1.0'
p1546
sg38
S'8.3'
p1547
sg40
S'39'
p1548
sg42
S'MIA'
p1549
sg44
g11
sg46
S'0.0'
p1550
sg48
S'10.4'
p1551
sg50
S'1.0'
p1552
sg52
S'19.7'
p1553
sg54
S'8.3'
p1554
sg56
S'2012-13'
p1555
sg58
S'10.4'
p1556
sg60
S'4.2'
p1557
sg62
S'.526'
p1558
sg64
S'51'
p1559
sg66
g103
sbasS'_advanced'
p1560
(lp1561
(isrc.gp1.models.Advanced
Advanced
p1562
(dp1563
S'_offensiveReboundPercentage'
p1564
S'8.7'
p1565
sS'_turnOverPercentage'
p1566
S'13.5'
p1567
sS'_winSharesPer48Minutes'
p1568
S'.057'
p1569
sS'_stealPercentage'
p1570
S'1.1'
p1571
sS'_usagePercentage'
p1572
S'22.8'
p1573
sS'_totalReboundsPercentage'
p1574
S'13.4'
p1575
sS'_defensiveBoxPlusMinus'
p1576
S'-0.6'
p1577
sg22
S'PF'
p1578
sS'_valueOverReplacementPlayer'
p1579
S'0.3'
p1580
sS'_trueShootingPercentage'
p1581
S'.521'
p1582
sS'_defensiveReboundPercentage'
p1583
S'18.4'
p1584
sS'_freeThrowsAttempRate'
p1585
S'.314'
p1586
sS'_threePointsAttempRate'
p1587
S'.008'
p1588
sg28
S'NBA'
p1589
sS'_offensiveBoxPlusMinues'
p1590
S'-0.9'
p1591
sS'_assistPercentage'
p1592
S'11.6'
p1593
sS'_defensiveWinShares'
p1594
S'1.5'
p1595
sg40
S'21'
p1596
sg42
S'WSB'
p1597
sg44
S'65'
p1598
sS'_blockPercentage'
p1599
S'0.5'
p1600
sS'_playerEfficiencyRating'
p1601
S'15.0'
p1602
sS'_offensiveWinShares'
p1603
S'1.3'
p1604
sg64
S'2348'
p1605
sS'_boxPlusMinus'
p1606
S'-1.5'
p1607
sg56
S'1994-95'
p1608
sS'_winShares'
p1609
S'2.8'
p1610
sba(isrc.gp1.models.Advanced
Advanced
p1611
(dp1612
g1564
S'6.9'
p1613
sg1566
S'15.2'
p1614
sg1568
S'.082'
p1615
sg1570
S'1.0'
p1616
sg1572
S'27.0'
p1617
sg1574
S'11.8'
p1618
sg1576
S'0.2'
p1619
sg22
S'PF'
p1620
sg1579
S'1.8'
p1621
sg1581
S'.530'
p1622
sg1583
S'16.5'
p1623
sg1585
S'.284'
p1624
sg1587
S'.009'
p1625
sg28
S'NBA'
p1626
sg1590
S'0.0'
p1627
sg1592
S'18.7'
p1628
sg1594
S'3.1'
p1629
sg40
S'22'
p1630
sg42
S'WSB'
p1631
sg44
S'81'
p1632
sg1599
S'0.8'
p1633
sg1601
S'17.0'
p1634
sg1603
S'2.5'
p1635
sg64
S'3294'
p1636
sg1606
S'0.2'
p1637
sg56
S'1995-96'
p1638
sg1609
S'5.6'
p1639
sba(isrc.gp1.models.Advanced
Advanced
p1640
(dp1641
g1564
S'7.2'
p1642
sg1566
S'14.2'
p1643
sg1568
S'.101'
p1644
sg1570
S'1.5'
p1645
sg1572
S'23.4'
p1646
sg1574
S'11.5'
p1647
sg1576
S'0.5'
p1648
sg22
S'SF'
p1649
sg1579
S'2.1'
p1650
sg1581
S'.529'
p1651
sg1583
S'15.6'
p1652
sg1585
S'.296'
p1653
sg1587
S'.002'
p1654
sg28
S'NBA'
p1655
sg1590
S'0.0'
p1656
sg1592
S'15.2'
p1657
sg1594
S'3.7'
p1658
sg40
S'23'
p1659
sg42
S'WSB'
p1660
sg44
S'82'
p1661
sg1599
S'0.5'
p1662
sg1601
S'16.1'
p1663
sg1603
S'3.3'
p1664
sg64
S'3324'
p1665
sg1606
S'0.5'
p1666
sg56
S'1996-97'
p1667
sg1609
S'7.0'
p1668
sba(isrc.gp1.models.Advanced
Advanced
p1669
(dp1670
g1564
S'6.9'
p1671
sg1566
S'13.9'
p1672
sg1568
S'.086'
p1673
sg1570
S'1.7'
p1674
sg1572
S'23.2'
p1675
sg1574
S'10.0'
p1676
sg1576
S'0.3'
p1677
sg22
S'PF'
p1678
sg1579
S'1.5'
p1679
sg1581
S'.515'
p1680
sg1583
S'13.2'
p1681
sg1585
S'.361'
p1682
sg1587
S'.002'
p1683
sg28
S'NBA'
p1684
sg1590
S'-0.1'
p1685
sg1592
S'13.6'
p1686
sg1594
S'2.4'
p1687
sg40
S'24'
p1688
sg42
S'WAS'
p1689
sg44
S'64'
p1690
sg1599
S'0.6'
p1691
sg1601
S'15.2'
p1692
sg1603
S'2.1'
p1693
sg64
S'2559'
p1694
sg1606
S'0.2'
p1695
sg56
S'1997-98'
p1696
sg1609
S'4.6'
p1697
sba(isrc.gp1.models.Advanced
Advanced
p1698
(dp1699
g1564
S'7.2'
p1700
sg1566
S'12.4'
p1701
sg1568
S'.093'
p1702
sg1570
S'1.6'
p1703
sg1572
S'24.6'
p1704
sg1574
S'12.0'
p1705
sg1576
S'0.2'
p1706
sg22
S'SF'
p1707
sg1579
S'1.1'
p1708
sg1581
S'.510'
p1709
sg1583
S'16.9'
p1710
sg1585
S'.242'
p1711
sg1587
S'.005'
p1712
sg28
S'NBA'
p1713
sg1590
S'0.8'
p1714
sg1592
S'14.0'
p1715
sg1594
S'1.2'
p1716
sg40
S'25'
p1717
sg42
S'WAS'
p1718
sg44
S'36'
p1719
sg1599
S'0.7'
p1720
sg1601
S'17.1'
p1721
sg1603
S'1.5'
p1722
sg64
S'1430'
p1723
sg1606
S'1.0'
p1724
sg56
S'1998-99'
p1725
sg1609
S'2.8'
p1726
sba(isrc.gp1.models.Advanced
Advanced
p1727
(dp1728
g1564
S'5.2'
p1729
sg1566
S'15.5'
p1730
sg1568
S'.031'
p1731
sg1570
S'1.2'
p1732
sg1572
S'22.2'
p1733
sg1574
S'9.3'
p1734
sg1576
S'-0.4'
p1735
sg22
S'PF'
p1736
sg1579
S'0.4'
p1737
sg1581
S'.496'
p1738
sg1583
S'13.5'
p1739
sg1585
S'.248'
p1740
sg1587
S'.006'
p1741
sg28
S'NBA'
p1742
sg1590
S'-1.1'
p1743
sg1592
S'14.5'
p1744
sg1594
S'1.3'
p1745
sg40
S'26'
p1746
sg42
S'WAS'
p1747
sg44
S'82'
p1748
sg1599
S'0.5'
p1749
sg1601
S'12.3'
p1750
sg1603
S'0.5'
p1751
sg64
S'2909'
p1752
sg1606
S'-1.4'
p1753
sg56
S'1999-00'
p1754
sg1609
S'1.9'
p1755
sba(isrc.gp1.models.Advanced
Advanced
p1756
(dp1757
g1564
S'6.6'
p1758
sg1566
S'14.9'
p1759
sg1568
S'.071'
p1760
sg1570
S'1.3'
p1761
sg1572
S'24.6'
p1762
sg1574
S'11.1'
p1763
sg1576
S'-0.6'
p1764
sg22
S'PF'
p1765
sg1579
S'1.2'
p1766
sg1581
S'.527'
p1767
sg1583
S'15.6'
p1768
sg1585
S'.314'
p1769
sg1587
S'.002'
p1770
sg28
S'NBA'
p1771
sg1590
S'0.2'
p1772
sg1592
S'13.9'
p1773
sg1594
S'1.6'
p1774
sg40
S'27'
p1775
sg42
S'TOT'
p1776
sg44
S'81'
p1777
sg1599
S'0.9'
p1778
sg1601
S'16.0'
p1779
sg1603
S'2.8'
p1780
sg64
S'2974'
p1781
sg1606
S'-0.4'
p1782
sg56
S'2000-01'
p1783
sg1609
S'4.4'
p1784
sba(isrc.gp1.models.Advanced
Advanced
p1785
(dp1786
g1564
S'7.0'
p1787
sg1566
S'15.2'
p1788
sg1568
S'.053'
p1789
sg1570
S'1.2'
p1790
sg1572
S'24.9'
p1791
sg1574
S'11.2'
p1792
sg1576
S'-1.0'
p1793
sg22
S'PF'
p1794
sg1579
S'0.7'
p1795
sg1581
S'.522'
p1796
sg1583
S'15.5'
p1797
sg1585
S'.310'
p1798
sg1587
S'.000'
p1799
sg28
S'NBA'
p1800
sg1590
S'0.3'
p1801
sg1592
S'14.9'
p1802
sg1594
S'0.6'
p1803
sg40
S'27'
p1804
sg42
S'WAS'
p1805
sg44
S'54'
p1806
sg1599
S'0.8'
p1807
sg1601
S'15.8'
p1808
sg1603
S'1.6'
p1809
sg64
S'1981'
p1810
sg1606
S'-0.7'
p1811
sg56
S'2000-01'
p1812
sg1609
S'2.2'
p1813
sba(isrc.gp1.models.Advanced
Advanced
p1814
(dp1815
g1564
S'5.8'
p1816
sg1566
S'14.0'
p1817
sg1568
S'.106'
p1818
sg1570
S'1.5'
p1819
sg1572
S'23.8'
p1820
sg1574
S'10.9'
p1821
sg1576
S'0.3'
p1822
sg22
S'PF'
p1823
sg1579
S'0.6'
p1824
sg1581
S'.538'
p1825
sg1583
S'15.7'
p1826
sg1585
S'.325'
p1827
sg1587
S'.008'
p1828
sg28
S'NBA'
p1829
sg1590
S'0.0'
p1830
sg1592
S'12.0'
p1831
sg1594
S'1.1'
p1832
sg40
S'27'
p1833
sg42
S'DAL'
p1834
sg44
S'27'
p1835
sg1599
S'1.1'
p1836
sg1601
S'16.6'
p1837
sg1603
S'1.1'
p1838
sg64
S'993'
p1839
sg1606
S'0.2'
p1840
sg56
S'2000-01'
p1841
sg1609
S'2.2'
p1842
sba(isrc.gp1.models.Advanced
Advanced
p1843
(dp1844
g1564
S'9.4'
p1845
sg1566
S'11.6'
p1846
sg1568
S'.090'
p1847
sg1570
S'0.9'
p1848
sg1572
S'22.3'
p1849
sg1574
S'13.0'
p1850
sg1576
S'-0.5'
p1851
sg22
S'PF'
p1852
sg1579
S'0.9'
p1853
sg1581
S'.513'
p1854
sg1583
S'16.7'
p1855
sg1585
S'.341'
p1856
sg1587
S'.002'
p1857
sg28
S'NBA'
p1858
sg1590
S'-0.1'
p1859
sg1592
S'10.8'
p1860
sg1594
S'1.5'
p1861
sg40
S'28'
p1862
sg42
S'TOT'
p1863
sg44
S'81'
p1864
sg1599
S'1.3'
p1865
sg1601
S'15.8'
p1866
sg1603
S'3.5'
p1867
sg64
S'2635'
p1868
sg1606
S'-0.6'
p1869
sg56
S'2001-02'
p1870
sg1609
S'4.9'
p1871
sba(isrc.gp1.models.Advanced
Advanced
p1872
(dp1873
g1564
S'9.4'
p1874
sg1566
S'10.4'
p1875
sg1568
S'.097'
p1876
sg1570
S'0.9'
p1877
sg1572
S'20.3'
p1878
sg1574
S'13.1'
p1879
sg1576
S'-0.4'
p1880
sg22
S'PF'
p1881
sg1579
S'0.5'
p1882
sg1581
S'.511'
p1883
sg1583
S'16.6'
p1884
sg1585
S'.326'
p1885
sg1587
S'.002'
p1886
sg28
S'NBA'
p1887
sg1590
S'-0.3'
p1888
sg1592
S'8.7'
p1889
sg1594
S'1.0'
p1890
sg40
S'28'
p1891
sg42
S'DAL'
p1892
sg44
S'53'
p1893
sg1599
S'1.3'
p1894
sg1601
S'15.1'
p1895
sg1603
S'2.4'
p1896
sg64
S'1659'
p1897
sg1606
S'-0.7'
p1898
sg56
S'2001-02'
p1899
sg1609
S'3.4'
p1900
sba(isrc.gp1.models.Advanced
Advanced
p1901
(dp1902
g1564
S'9.5'
p1903
sg1566
S'13.2'
p1904
sg1568
S'.078'
p1905
sg1570
S'1.0'
p1906
sg1572
S'25.7'
p1907
sg1574
S'13.0'
p1908
sg1576
S'-0.7'
p1909
sg22
S'PF'
p1910
sg1579
S'0.4'
p1911
sg1581
S'.515'
p1912
sg1583
S'16.8'
p1913
sg1585
S'.362'
p1914
sg1587
S'.002'
p1915
sg28
S'NBA'
p1916
sg1590
S'0.3'
p1917
sg1592
S'14.4'
p1918
sg1594
S'0.5'
p1919
sg40
S'28'
p1920
sg42
S'DEN'
p1921
sg44
S'28'
p1922
sg1599
S'1.3'
p1923
sg1601
S'17.1'
p1924
sg1603
S'1.1'
p1925
sg64
S'976'
p1926
sg1606
S'-0.4'
p1927
sg56
S'2001-02'
p1928
sg1609
S'1.6'
p1929
sba(isrc.gp1.models.Advanced
Advanced
p1930
(dp1931
g1564
S'7.4'
p1932
sg1566
S'11.8'
p1933
sg1568
S'.106'
p1934
sg1570
S'1.5'
p1935
sg1572
S'26.1'
p1936
sg1574
S'12.5'
p1937
sg1576
S'0.5'
p1938
sg22
S'PF'
p1939
sg1579
S'2.2'
p1940
sg1581
S'.501'
p1941
sg1583
S'18.1'
p1942
sg1585
S'.278'
p1943
sg1587
S'.003'
p1944
sg28
S'NBA'
p1945
sg1590
S'0.7'
p1946
sg1592
S'18.1'
p1947
sg1594
S'3.4'
p1948
sg40
S'29'
p1949
sg42
S'DEN'
p1950
sg44
S'77'
p1951
sg1599
S'0.8'
p1952
sg1601
S'17.2'
p1953
sg1603
S'2.7'
p1954
sg64
S'2730'
p1955
sg1606
S'1.2'
p1956
sg56
S'2002-03'
p1957
sg1609
S'6.0'
p1958
sba(isrc.gp1.models.Advanced
Advanced
p1959
(dp1960
g1564
S'6.6'
p1961
sg1566
S'11.7'
p1962
sg1568
S'.059'
p1963
sg1570
S'1.0'
p1964
sg1572
S'23.9'
p1965
sg1574
S'11.2'
p1966
sg1576
S'-2.4'
p1967
sg22
S'PF'
p1968
sg1579
S'-0.6'
p1969
sg1581
S'.513'
p1970
sg1583
S'16.1'
p1971
sg1585
S'.336'
p1972
sg1587
S'.001'
p1973
sg28
S'NBA'
p1974
sg1590
S'-0.4'
p1975
sg1592
S'10.0'
p1976
sg1594
S'0.0'
p1977
sg40
S'30'
p1978
sg42
S'ORL'
p1979
sg44
S'81'
p1980
sg1599
S'0.6'
p1981
sg1601
S'15.6'
p1982
sg1603
S'3.6'
p1983
sg64
S'2877'
p1984
sg1606
S'-2.8'
p1985
sg56
S'2003-04'
p1986
sg1609
S'3.6'
p1987
sba(isrc.gp1.models.Advanced
Advanced
p1988
(dp1989
g1564
S'9.3'
p1990
sg1566
S'11.8'
p1991
sg1568
S'.094'
p1992
sg1570
S'1.1'
p1993
sg1572
S'19.5'
p1994
sg1574
S'12.4'
p1995
sg1576
S'0.6'
p1996
sg22
S'PF'
p1997
sg1579
S'0.3'
p1998
sg1581
S'.494'
p1999
sg1583
S'15.4'
p2000
sg1585
S'.213'
p2001
sg1587
S'.002'
p2002
sg28
S'NBA'
p2003
sg1590
S'-1.8'
p2004
sg1592
S'10.2'
p2005
sg1594
S'2.2'
p2006
sg40
S'31'
p2007
sg42
S'HOU'
p2008
sg44
S'61'
p2009
sg1599
S'0.2'
p2010
sg1601
S'13.0'
p2011
sg1603
S'1.0'
p2012
sg64
S'1624'
p2013
sg1606
S'-1.2'
p2014
sg56
S'2004-05'
p2015
sg1609
S'3.2'
p2016
sba(isrc.gp1.models.Advanced
Advanced
p2017
(dp2018
g1564
S'7.9'
p2019
sg1566
S'12.4'
p2020
sg1568
S'.069'
p2021
sg1570
S'1.1'
p2022
sg1572
S'20.2'
p2023
sg1574
S'12.4'
p2024
sg1576
S'0.3'
p2025
sg22
S'PF'
p2026
sg1579
S'-0.2'
p2027
sg1581
S'.499'
p2028
sg1583
S'16.7'
p2029
sg1585
S'.222'
p2030
sg1587
S'.005'
p2031
sg28
S'NBA'
p2032
sg1590
S'-2.6'
p2033
sg1592
S'8.4'
p2034
sg1594
S'3.0'
p2035
sg40
S'32'
p2036
sg42
S'HOU'
p2037
sg44
S'80'
p2038
sg1599
S'0.3'
p2039
sg1601
S'12.5'
p2040
sg1603
S'0.6'
p2041
sg64
S'2537'
p2042
sg1606
S'-2.3'
p2043
sg56
S'2005-06'
p2044
sg1609
S'3.7'
p2045
sba(isrc.gp1.models.Advanced
Advanced
p2046
(dp2047
g1564
S'7.5'
p2048
sg1566
S'13.0'
p2049
sg1568
S'.110'
p2050
sg1570
S'0.7'
p2051
sg1572
S'18.9'
p2052
sg1574
S'12.7'
p2053
sg1576
S'0.9'
p2054
sg22
S'PF'
p2055
sg1579
S'0.1'
p2056
sg1581
S'.517'
p2057
sg1583
S'17.9'
p2058
sg1585
S'.283'
p2059
sg1587
S'.000'
p2060
sg28
S'NBA'
p2061
sg1590
S'-2.7'
p2062
sg1592
S'10.5'
p2063
sg1594
S'3.2'
p2064
sg40
S'33'
p2065
sg42
S'HOU'
p2066
sg44
S'80'
p2067
sg1599
S'0.3'
p2068
sg1601
S'12.8'
p2069
sg1603
S'1.7'
p2070
sg64
S'2123'
p2071
sg1606
S'-1.8'
p2072
sg56
S'2006-07'
p2073
sg1609
S'4.9'
p2074
sba(isrc.gp1.models.Advanced
Advanced
p2075
(dp2076
g1564
S'7.1'
p2077
sg1566
S'19.5'
p2078
sg1568
S'.016'
p2079
sg1570
S'0.8'
p2080
sg1572
S'11.5'
p2081
sg1574
S'13.3'
p2082
sg1576
S'0.5'
p2083
sg22
S'PF'
p2084
sg1579
S'-0.3'
p2085
sg1581
S'.406'
p2086
sg1583
S'19.0'
p2087
sg1585
S'.219'
p2088
sg1587
S'.000'
p2089
sg28
S'NBA'
p2090
sg1590
S'-5.4'
p2091
sg1592
S'6.9'
p2092
sg1594
S'0.4'
p2093
sg40
S'34'
p2094
sg42
S'DAL'
p2095
sg44
S'50'
p2096
sg1599
S'0.4'
p2097
sg1601
S'4.1'
p2098
sg1603
S'-0.3'
p2099
sg64
S'353'
p2100
sg1606
S'-4.9'
p2101
sg56
S'2007-08'
p2102
sg1609
S'0.1'
p2103
sba(isrc.gp1.models.Advanced
Advanced
p2104
(dp2105
g1564
S'7.9'
p2106
sg1566
S'13.8'
p2107
sg1568
S'.067'
p2108
sg1570
S'0.8'
p2109
sg1572
S'18.8'
p2110
sg1574
S'9.9'
p2111
sg1576
S'-1.0'
p2112
sg22
S'SF-PF'
p2113
sg1579
S'-0.2'
p2114
sg1581
S'.534'
p2115
sg1583
S'11.9'
p2116
sg1585
S'.231'
p2117
sg1587
S'.000'
p2118
sg28
S'NBA'
p2119
sg1590
S'-2.9'
p2120
sg1592
S'9.7'
p2121
sg1594
S'0.4'
p2122
sg40
S'35'
p2123
sg42
S'TOT'
p2124
sg44
S'42'
p2125
sg1599
S'1.0'
p2126
sg1601
S'10.9'
p2127
sg1603
S'0.2'
p2128
sg64
S'472'
p2129
sg1606
S'-3.9'
p2130
sg56
S'2008-09'
p2131
sg1609
S'0.7'
p2132
sba(isrc.gp1.models.Advanced
Advanced
p2133
(dp2134
g1564
S'5.4'
p2135
sg1566
S'0.0'
p2136
sg1568
S'.141'
p2137
sg1570
S'2.3'
p2138
sg1572
S'4.0'
p2139
sg1574
S'10.6'
p2140
sg1576
S'3.7'
p2141
sg22
S'PF'
p2142
sg1579
S'0.0'
p2143
sg1581
S'.500'
p2144
sg1583
S'15.4'
p2145
sg1585
S'.000'
p2146
sg1587
S'.000'
p2147
sg28
S'NBA'
p2148
sg1590
S'-1.9'
p2149
sg1592
S'12.5'
p2150
sg1594
S'0.0'
p2151
sg40
S'35'
p2152
sg42
S'DEN'
p2153
sg44
g164
sg1599
S'3.5'
p2154
sg1601
S'9.6'
p2155
sg1603
S'0.0'
p2156
sg64
S'22'
p2157
sg1606
S'1.8'
p2158
sg56
S'2008-09'
p2159
sg1609
S'0.1'
p2160
sba(isrc.gp1.models.Advanced
Advanced
p2161
(dp2162
g1564
S'8.0'
p2163
sg1566
S'14.0'
p2164
sg1568
S'.064'
p2165
sg1570
S'0.7'
p2166
sg1572
S'19.5'
p2167
sg1574
S'9.9'
p2168
sg1576
S'-1.2'
p2169
sg22
S'SF'
p2170
sg1579
S'-0.2'
p2171
sg1581
S'.535'
p2172
sg1583
S'11.7'
p2173
sg1585
S'.234'
p2174
sg1587
S'.000'
p2175
sg28
S'NBA'
p2176
sg1590
S'-2.9'
p2177
sg1592
S'9.6'
p2178
sg1594
S'0.4'
p2179
sg40
S'35'
p2180
sg42
S'CHA'
p2181
sg44
S'39'
p2182
sg1599
S'0.9'
p2183
sg1601
S'10.9'
p2184
sg1603
S'0.2'
p2185
sg64
S'450'
p2186
sg1606
S'-4.2'
p2187
sg56
S'2008-09'
p2188
sg1609
S'0.6'
p2189
sba(isrc.gp1.models.Advanced
Advanced
p2190
(dp2191
g1564
S'8.1'
p2192
sg1566
S'15.1'
p2193
sg1568
S'.077'
p2194
sg1570
S'0.9'
p2195
sg1572
S'13.9'
p2196
sg1574
S'12.7'
p2197
sg1576
S'0.3'
p2198
sg22
g647
sg1579
S'0.1'
p2199
sg1581
S'.538'
p2200
sg1583
S'17.3'
p2201
sg1585
S'.187'
p2202
sg1587
S'.003'
p2203
sg28
S'NBA'
p2204
sg1590
S'-2.1'
p2205
sg1592
S'5.9'
p2206
sg1594
S'1.6'
p2207
sg40
S'36'
p2208
sg42
S'POR'
p2209
sg44
S'73'
p2210
sg1599
S'0.5'
p2211
sg1601
S'10.0'
p2212
sg1603
S'1.1'
p2213
sg64
S'1632'
p2214
sg1606
S'-1.7'
p2215
sg56
S'2009-10'
p2216
sg1609
S'2.6'
p2217
sba(isrc.gp1.models.Advanced
Advanced
p2218
(dp2219
g1564
S'7.7'
p2220
sg1566
S'15.1'
p2221
sg1568
S'.074'
p2222
sg1570
S'0.9'
p2223
sg1572
S'13.1'
p2224
sg1574
S'12.2'
p2225
sg1576
S'-0.3'
p2226
sg22
S'PF'
p2227
sg1579
S'-0.3'
p2228
sg1581
S'.495'
p2229
sg1583
S'16.3'
p2230
sg1585
S'.280'
p2231
sg1587
S'.000'
p2232
sg28
S'NBA'
p2233
sg1590
S'-3.8'
p2234
sg1592
S'5.8'
p2235
sg1594
S'0.8'
p2236
sg40
S'37'
p2237
sg42
S'MIA'
p2238
sg44
S'57'
p2239
sg1599
S'0.5'
p2240
sg1601
S'8.4'
p2241
sg1603
S'0.2'
p2242
sg64
S'592'
p2243
sg1606
S'-4.1'
p2244
sg56
S'2010-11'
p2245
sg1609
S'0.9'
p2246
sba(isrc.gp1.models.Advanced
Advanced
p2247
(dp2248
g1564
S'11.8'
p2249
sg1566
S'25.2'
p2250
sg1568
S'-0.076'
p2251
sg1570
S'1.1'
p2252
sg1572
S'19.4'
p2253
sg1574
S'14.8'
p2254
sg1576
S'-0.8'
p2255
sg22
S'PF'
p2256
sg1579
S'-0.3'
p2257
sg1581
S'.354'
p2258
sg1583
S'17.6'
p2259
sg1585
S'.182'
p2260
sg1587
S'.000'
p2261
sg28
S'NBA'
p2262
sg1590
S'-8.1'
p2263
sg1592
S'7.8'
p2264
sg1594
S'0.3'
p2265
sg40
S'38'
p2266
sg42
S'MIA'
p2267
sg44
S'28'
p2268
sg1599
S'0.4'
p2269
sg1601
S'3.6'
p2270
sg1603
S'-0.6'
p2271
sg64
S'190'
p2272
sg1606
S'-8.9'
p2273
sg56
S'2011-12'
p2274
sg1609
S'-0.3'
p2275
sba(isrc.gp1.models.Advanced
Advanced
p2276
(dp2277
g1564
S'0.0'
p2278
sg1566
S'17.1'
p2279
sg1568
S'.039'
p2280
sg1570
S'0.0'
p2281
sg1572
S'22.0'
p2282
sg1574
S'9.7'
p2283
sg1576
S'-3.0'
p2284
sg22
S'PF'
p2285
sg1579
S'-0.1'
p2286
sg1581
S'.540'
p2287
sg1583
S'18.3'
p2288
sg1585
S'.053'
p2289
sg1587
S'.000'
p2290
sg28
S'NBA'
p2291
sg1590
S'-4.7'
p2292
sg1592
S'19.8'
p2293
sg1594
S'0.0'
p2294
sg40
S'39'
p2295
sg42
S'MIA'
p2296
sg44
g11
sg1599
S'0.0'
p2297
sg1601
S'9.9'
p2298
sg1603
S'0.0'
p2299
sg64
S'51'
p2300
sg1606
S'-7.7'
p2301
sg56
S'2012-13'
p2302
sg1609
S'0.0'
p2303
sbasS'_per36Minutes'
p2304
(lp2305
(isrc.gp1.models.Per36Minutes
Per36Minutes
p2306
(dp2307
g8
S'2.8'
p2308
sg10
S'0.1'
p2309
sg12
S'.489'
p2310
sg14
S'2.5'
p2311
sg16
S'.000'
p2312
sg18
S'0.0'
p2313
sg20
S'16.9'
p2314
sg22
S'PF'
p2315
sg24
S'.664'
p2316
sg28
S'NBA'
p2317
sg30
S'0.8'
p2318
sg32
S'14.3'
p2319
sg34
S'3.6'
p2320
sg36
S'4.5'
p2321
sg38
S'8.4'
p2322
sg40
S'21'
p2323
sg42
S'WSB'
p2324
sg44
S'65'
p2325
sg46
S'0.2'
p2326
sg48
S'7.0'
p2327
sg50
S'3.0'
p2328
sg52
S'14.2'
p2329
sg54
S'5.5'
p2330
sg56
S'1994-95'
p2331
sg58
S'7.0'
p2332
sg60
S'2.5'
p2333
sg62
S'.492'
p2334
sg64
S'2348'
p2335
sg66
S'52'
p2336
sba(isrc.gp1.models.Per36Minutes
Per36Minutes
p2337
(dp2338
g8
S'2.1'
p2339
sg10
S'0.1'
p2340
sg12
S'.489'
p2341
sg14
S'3.9'
p2342
sg16
S'.308'
p2343
sg18
S'0.0'
p2344
sg20
S'19.6'
p2345
sg22
S'PF'
p2346
sg24
S'.749'
p2347
sg28
S'NBA'
p2348
sg30
S'0.7'
p2349
sg32
S'16.4'
p2350
sg34
S'2.9'
p2351
sg36
S'4.7'
p2352
sg38
S'7.2'
p2353
sg40
S'22'
p2354
sg42
S'WSB'
p2355
sg44
S'81'
p2356
sg46
S'0.4'
p2357
sg48
S'8.0'
p2358
sg50
S'3.5'
p2359
sg52
S'16.3'
p2360
sg54
S'5.2'
p2361
sg56
S'1995-96'
p2362
sg58
S'8.0'
p2363
sg60
S'3.3'
p2364
sg62
S'.490'
p2365
sg64
S'3294'
p2366
sg66
S'81'
p2367
sba(isrc.gp1.models.Per36Minutes
Per36Minutes
p2368
(dp2369
g8
S'2.2'
p2370
sg10
S'0.0'
p2371
sg12
S'.486'
p2372
sg14
S'3.4'
p2373
sg16
S'.000'
p2374
sg18
S'0.0'
p2375
sg20
S'17.0'
p2376
sg22
S'SF'
p2377
sg24
S'.756'
p2378
sg28
S'NBA'
p2379
sg30
S'1.0'
p2380
sg32
S'14.2'
p2381
sg34
S'2.8'
p2382
sg36
S'4.2'
p2383
sg38
S'7.1'
p2384
sg40
S'23'
p2385
sg42
S'WSB'
p2386
sg44
S'82'
p2387
sg46
S'0.2'
p2388
sg48
S'6.9'
p2389
sg50
S'3.2'
p2390
sg52
S'14.2'
p2391
sg54
S'4.9'
p2392
sg56
S'1996-97'
p2393
sg58
S'6.9'
p2394
sg60
S'2.7'
p2395
sg62
S'.487'
p2396
sg64
S'3324'
p2397
sg66
S'82'
p2398
sba(isrc.gp1.models.Per36Minutes
Per36Minutes
p2399
(dp2400
g8
S'2.3'
p2401
sg10
S'0.0'
p2402
sg12
S'.467'
p2403
sg14
S'2.9'
p2404
sg16
S'.000'
p2405
sg18
S'0.0'
p2406
sg20
S'16.7'
p2407
sg22
S'PF'
p2408
sg24
S'.721'
p2409
sg28
S'NBA'
p2410
sg30
S'1.2'
p2411
sg32
S'13.9'
p2412
sg34
S'3.2'
p2413
sg36
S'5.0'
p2414
sg38
S'6.3'
p2415
sg40
S'24'
p2416
sg42
S'WAS'
p2417
sg44
S'64'
p2418
sg46
S'0.3'
p2419
sg48
S'6.5'
p2420
sg50
S'3.6'
p2421
sg52
S'13.9'
p2422
sg54
S'4.1'
p2423
sg56
S'1997-98'
p2424
sg58
S'6.5'
p2425
sg60
S'2.6'
p2426
sg62
S'.468'
p2427
sg64
S'2559'
p2428
sg66
S'64'
p2429
sba(isrc.gp1.models.Per36Minutes
Per36Minutes
p2430
(dp2431
g8
S'2.3'
p2432
sg10
S'0.1'
p2433
sg12
S'.474'
p2434
sg14
S'2.7'
p2435
sg16
S'.000'
p2436
sg18
S'0.0'
p2437
sg20
S'17.2'
p2438
sg22
S'SF'
p2439
sg24
S'.753'
p2440
sg28
S'NBA'
p2441
sg30
S'1.1'
p2442
sg32
S'15.2'
p2443
sg34
S'3.3'
p2444
sg36
S'3.7'
p2445
sg38
S'7.4'
p2446
sg40
S'25'
p2447
sg42
S'WAS'
p2448
sg44
S'36'
p2449
sg46
S'0.4'
p2450
sg48
S'7.2'
p2451
sg50
S'2.8'
p2452
sg52
S'15.1'
p2453
sg54
S'5.1'
p2454
sg56
S'1998-99'
p2455
sg58
S'7.2'
p2456
sg60
S'2.4'
p2457
sg62
S'.476'
p2458
sg64
S'1430'
p2459
sg66
S'36'
p2460
sba(isrc.gp1.models.Per36Minutes
Per36Minutes
p2461
(dp2462
g8
S'1.6'
p2463
sg10
S'0.1'
p2464
sg12
S'.459'
p2465
sg14
S'3.1'
p2466
sg16
S'.000'
p2467
sg18
S'0.0'
p2468
sg20
S'15.1'
p2469
sg22
S'PF'
p2470
sg24
S'.735'
p2471
sg28
S'NBA'
p2472
sg30
S'0.8'
p2473
sg32
S'13.7'
p2474
sg34
S'3.7'
p2475
sg36
S'3.4'
p2476
sg38
S'5.8'
p2477
sg40
S'26'
p2478
sg42
S'WAS'
p2479
sg44
S'82'
p2480
sg46
S'0.3'
p2481
sg48
S'6.3'
p2482
sg50
S'2.5'
p2483
sg52
S'13.6'
p2484
sg54
S'4.2'
p2485
sg56
S'1999-00'
p2486
sg58
S'6.3'
p2487
sg60
S'2.8'
p2488
sg62
S'.462'
p2489
sg64
S'2909'
p2490
sg66
S'82'
p2491
sba(isrc.gp1.models.Per36Minutes
Per36Minutes
p2492
(dp2493
g8
S'2.1'
p2494
sg10
S'0.0'
p2495
sg12
S'.479'
p2496
sg14
S'2.7'
p2497
sg16
S'.000'
p2498
sg18
S'0.0'
p2499
sg20
S'17.7'
p2500
sg22
S'PF'
p2501
sg24
S'.773'
p2502
sg28
S'NBA'
p2503
sg30
S'0.9'
p2504
sg32
S'14.7'
p2505
sg34
S'3.5'
p2506
sg36
S'4.6'
p2507
sg38
S'6.9'
p2508
sg40
S'27'
p2509
sg42
S'TOT'
p2510
sg44
S'81'
p2511
sg46
S'0.4'
p2512
sg48
S'7.1'
p2513
sg50
S'3.6'
p2514
sg52
S'14.7'
p2515
sg54
S'4.9'
p2516
sg56
S'2000-01'
p2517
sg58
S'7.1'
p2518
sg60
S'2.9'
p2519
sg62
S'.480'
p2520
sg64
S'2974'
p2521
sg66
S'81'
p2522
sba(isrc.gp1.models.Per36Minutes
Per36Minutes
p2523
(dp2524
g8
S'2.2'
p2525
sg10
S'0.0'
p2526
sg12
S'.474'
p2527
sg14
S'2.8'
p2528
sg16
g3
sg18
S'0.0'
p2529
sg20
S'17.8'
p2530
sg22
S'PF'
p2531
sg24
S'.770'
p2532
sg28
S'NBA'
p2533
sg30
S'0.8'
p2534
sg32
S'15.0'
p2535
sg34
S'3.4'
p2536
sg36
S'4.7'
p2537
sg38
S'6.9'
p2538
sg40
S'27'
p2539
sg42
S'WAS'
p2540
sg44
S'54'
p2541
sg46
S'0.4'
p2542
sg48
S'7.1'
p2543
sg50
S'3.6'
p2544
sg52
S'15.0'
p2545
sg54
S'4.7'
p2546
sg56
S'2000-01'
p2547
sg58
S'7.1'
p2548
sg60
S'3.1'
p2549
sg62
S'.474'
p2550
sg64
S'1981'
p2551
sg66
S'54'
p2552
sba(isrc.gp1.models.Per36Minutes
Per36Minutes
p2553
(dp2554
g8
S'1.8'
p2555
sg10
S'0.1'
p2556
sg12
S'.488'
p2557
sg14
S'2.5'
p2558
sg16
S'.000'
p2559
sg18
S'0.0'
p2560
sg20
S'17.4'
p2561
sg22
S'PF'
p2562
sg24
S'.780'
p2563
sg28
S'NBA'
p2564
sg30
S'1.1'
p2565
sg32
S'14.2'
p2566
sg34
S'3.8'
p2567
sg36
S'4.6'
p2568
sg38
S'7.0'
p2569
sg40
S'27'
p2570
sg42
S'DAL'
p2571
sg44
S'27'
p2572
sg46
S'0.6'
p2573
sg48
S'6.9'
p2574
sg50
S'3.6'
p2575
sg52
S'14.1'
p2576
sg54
S'5.2'
p2577
sg56
S'2000-01'
p2578
sg58
S'6.9'
p2579
sg60
S'2.6'
p2580
sg62
S'.492'
p2581
sg64
S'993'
p2582
sg66
S'27'
p2583
sba(isrc.gp1.models.Per36Minutes
Per36Minutes
p2584
(dp2585
g8
S'3.0'
p2586
sg10
S'0.0'
p2587
sg12
S'.460'
p2588
sg14
S'2.3'
p2589
sg16
S'.000'
p2590
sg18
S'0.0'
p2591
sg20
S'16.2'
p2592
sg22
S'PF'
p2593
sg24
S'.761'
p2594
sg28
S'NBA'
p2595
sg30
S'0.6'
p2596
sg32
S'13.7'
p2597
sg34
S'3.6'
p2598
sg36
S'4.7'
p2599
sg38
S'8.4'
p2600
sg40
S'28'
p2601
sg42
S'TOT'
p2602
sg44
S'81'
p2603
sg46
S'0.6'
p2604
sg48
S'6.3'
p2605
sg50
S'3.6'
p2606
sg52
S'13.7'
p2607
sg54
S'5.3'
p2608
sg56
S'2001-02'
p2609
sg58
S'6.3'
p2610
sg60
S'2.1'
p2611
sg62
S'.461'
p2612
sg64
S'2635'
p2613
sg66
S'72'
p2614
sba(isrc.gp1.models.Per36Minutes
Per36Minutes
p2615
(dp2616
g8
S'3.0'
p2617
sg10
S'0.0'
p2618
sg12
S'.462'
p2619
sg14
S'2.0'
p2620
sg16
S'.000'
p2621
sg18
S'0.0'
p2622
sg20
S'14.8'
p2623
sg22
S'PF'
p2624
sg24
S'.754'
p2625
sg28
S'NBA'
p2626
sg30
S'0.6'
p2627
sg32
S'12.7'
p2628
sg34
S'3.7'
p2629
sg36
S'4.1'
p2630
sg38
S'8.5'
p2631
sg40
S'28'
p2632
sg42
S'DAL'
p2633
sg44
S'53'
p2634
sg46
S'0.7'
p2635
sg48
S'5.9'
p2636
sg50
S'3.1'
p2637
sg52
S'12.7'
p2638
sg54
S'5.5'
p2639
sg56
S'2001-02'
p2640
sg58
S'5.9'
p2641
sg60
S'1.7'
p2642
sg62
S'.462'
p2643
sg64
S'1659'
p2644
sg66
S'44'
p2645
sba(isrc.gp1.models.Per36Minutes
Per36Minutes
p2646
(dp2647
g8
S'3.1'
p2648
sg10
S'0.0'
p2649
sg12
S'.457'
p2650
sg14
S'2.8'
p2651
sg16
S'.000'
p2652
sg18
S'0.0'
p2653
sg20
S'18.5'
p2654
sg22
S'PF'
p2655
sg24
S'.770'
p2656
sg28
S'NBA'
p2657
sg30
S'0.7'
p2658
sg32
S'15.5'
p2659
sg34
S'3.5'
p2660
sg36
S'5.6'
p2661
sg38
S'8.2'
p2662
sg40
S'28'
p2663
sg42
S'DEN'
p2664
sg44
S'28'
p2665
sg46
S'0.6'
p2666
sg48
S'7.1'
p2667
sg50
S'4.3'
p2668
sg52
S'15.5'
p2669
sg54
S'5.1'
p2670
sg56
S'2001-02'
p2671
sg58
S'7.1'
p2672
sg60
S'2.7'
p2673
sg62
S'.458'
p2674
sg64
S'976'
p2675
sg66
S'28'
p2676
sba(isrc.gp1.models.Per36Minutes
Per36Minutes
p2677
(dp2678
g8
S'2.4'
p2679
sg10
S'0.1'
p2680
sg12
S'.450'
p2681
sg14
S'3.1'
p2682
sg16
S'.500'
p2683
sg18
S'0.0'
p2684
sg20
S'18.7'
p2685
sg22
S'PF'
p2686
sg24
S'.803'
p2687
sg28
S'NBA'
p2688
sg30
S'1.0'
p2689
sg32
S'16.6'
p2690
sg34
S'3.2'
p2691
sg36
S'4.6'
p2692
sg38
S'7.7'
p2693
sg40
S'29'
p2694
sg42
S'DEN'
p2695
sg44
S'77'
p2696
sg46
S'0.4'
p2697
sg48
S'7.5'
p2698
sg50
S'3.7'
p2699
sg52
S'16.6'
p2700
sg54
S'5.3'
p2701
sg56
S'2002-03'
p2702
sg58
S'7.5'
p2703
sg60
S'2.5'
p2704
sg62
S'.449'
p2705
sg64
S'2730'
p2706
sg66
S'77'
p2707
sba(isrc.gp1.models.Per36Minutes
Per36Minutes
p2708
(dp2709
g8
S'2.1'
p2710
sg10
S'0.0'
p2711
sg12
S'.453'
p2712
sg14
S'2.0'
p2713
sg16
S'.000'
p2714
sg18
S'0.0'
p2715
sg20
S'17.2'
p2716
sg22
S'PF'
p2717
sg24
S'.809'
p2718
sg28
S'NBA'
p2719
sg30
S'0.7'
p2720
sg32
S'14.6'
p2721
sg34
S'3.6'
p2722
sg36
S'4.9'
p2723
sg38
S'7.1'
p2724
sg40
S'30'
p2725
sg42
S'ORL'
p2726
sg44
S'81'
p2727
sg46
S'0.3'
p2728
sg48
S'6.6'
p2729
sg50
S'4.0'
p2730
sg52
S'14.6'
p2731
sg54
S'5.0'
p2732
sg56
S'2003-04'
p2733
sg58
S'6.6'
p2734
sg60
S'2.2'
p2735
sg62
S'.453'
p2736
sg64
S'2877'
p2737
sg66
S'77'
p2738
sba(isrc.gp1.models.Per36Minutes
Per36Minutes
p2739
(dp2740
g8
S'2.8'
p2741
sg10
S'0.0'
p2742
sg12
S'.451'
p2743
sg14
S'2.1'
p2744
sg16
S'.000'
p2745
sg18
S'0.0'
p2746
sg20
S'13.0'
p2747
sg22
S'PF'
p2748
sg24
S'.843'
p2749
sg28
S'NBA'
p2750
sg30
S'0.7'
p2751
sg32
S'12.0'
p2752
sg34
S'3.2'
p2753
sg36
S'2.5'
p2754
sg38
S'7.7'
p2755
sg40
S'31'
p2756
sg42
S'HOU'
p2757
sg44
S'61'
p2758
sg46
S'0.1'
p2759
sg48
S'5.4'
p2760
sg50
S'2.2'
p2761
sg52
S'12.0'
p2762
sg54
S'4.9'
p2763
sg56
S'2004-05'
p2764
sg58
S'5.4'
p2765
sg60
S'1.8'
p2766
sg62
S'.452'
p2767
sg64
S'1624'
p2768
sg66
S'47'
p2769
sba(isrc.gp1.models.Per36Minutes
Per36Minutes
p2770
(dp2771
g8
S'2.4'
p2772
sg10
S'0.1'
p2773
sg12
S'.459'
p2774
sg14
S'1.6'
p2775
sg16
S'.000'
p2776
sg18
S'0.0'
p2777
sg20
S'13.4'
p2778
sg22
S'PF'
p2779
sg24
S'.806'
p2780
sg28
S'NBA'
p2781
sg30
S'0.7'
p2782
sg32
S'12.2'
p2783
sg34
S'3.3'
p2784
sg36
S'2.7'
p2785
sg38
S'7.6'
p2786
sg40
S'32'
p2787
sg42
S'HOU'
p2788
sg44
S'80'
p2789
sg46
S'0.1'
p2790
sg48
S'5.6'
p2791
sg50
S'2.2'
p2792
sg52
S'12.1'
p2793
sg54
S'5.2'
p2794
sg56
S'2005-06'
p2795
sg58
S'5.6'
p2796
sg60
S'1.9'
p2797
sg62
S'.461'
p2798
sg64
S'2537'
p2799
sg66
S'80'
p2800
sba(isrc.gp1.models.Per36Minutes
Per36Minutes
p2801
(dp2802
g8
S'2.3'
p2803
sg10
S'0.0'
p2804
sg12
S'.465'
p2805
sg14
S'2.2'
p2806
sg16
g3
sg18
S'0.0'
p2807
sg20
S'13.1'
p2808
sg22
S'PF'
p2809
sg24
S'.824'
p2810
sg28
S'NBA'
p2811
sg30
S'0.5'
p2812
sg32
S'11.3'
p2813
sg34
S'3.5'
p2814
sg36
S'3.2'
p2815
sg38
S'8.0'
p2816
sg40
S'33'
p2817
sg42
S'HOU'
p2818
sg44
S'80'
p2819
sg46
S'0.1'
p2820
sg48
S'5.2'
p2821
sg50
S'2.6'
p2822
sg52
S'11.3'
p2823
sg54
S'5.6'
p2824
sg56
S'2006-07'
p2825
sg58
S'5.2'
p2826
sg60
S'1.9'
p2827
sg62
S'.465'
p2828
sg64
S'2123'
p2829
sg66
S'38'
p2830
sba(isrc.gp1.models.Per36Minutes
Per36Minutes
p2831
(dp2832
g8
S'2.1'
p2833
sg10
S'0.0'
p2834
sg12
S'.359'
p2835
sg14
S'1.7'
p2836
sg16
g3
sg18
S'0.0'
p2837
sg20
S'5.8'
p2838
sg22
S'PF'
p2839
sg24
S'.786'
p2840
sg28
S'NBA'
p2841
sg30
S'0.5'
p2842
sg32
S'6.5'
p2843
sg34
S'6.3'
p2844
sg36
S'1.4'
p2845
sg38
S'8.3'
p2846
sg40
S'34'
p2847
sg42
S'DAL'
p2848
sg44
S'50'
p2849
sg46
S'0.2'
p2850
sg48
S'2.3'
p2851
sg50
S'1.1'
p2852
sg52
S'6.5'
p2853
sg54
S'6.1'
p2854
sg56
S'2007-08'
p2855
sg58
S'2.3'
p2856
sg60
S'1.7'
p2857
sg62
S'.359'
p2858
sg64
S'353'
p2859
sg66
g19
sba(isrc.gp1.models.Per36Minutes
Per36Minutes
p2860
(dp2861
g8
S'2.3'
p2862
sg10
S'0.0'
p2863
sg12
S'.510'
p2864
sg14
S'2.0'
p2865
sg16
g3
sg18
S'0.0'
p2866
sg20
S'13.2'
p2867
sg22
S'SF-PF'
p2868
sg24
S'.676'
p2869
sg28
S'NBA'
p2870
sg30
S'0.5'
p2871
sg32
S'11.2'
p2872
sg34
S'5.4'
p2873
sg36
S'2.6'
p2874
sg38
S'5.8'
p2875
sg40
S'35'
p2876
sg42
S'TOT'
p2877
sg44
S'42'
p2878
sg46
S'0.5'
p2879
sg48
S'5.7'
p2880
sg50
S'1.8'
p2881
sg52
S'11.2'
p2882
sg54
S'3.5'
p2883
sg56
S'2008-09'
p2884
sg58
S'5.7'
p2885
sg60
S'2.0'
p2886
sg62
S'.510'
p2887
sg64
S'472'
p2888
sg66
g103
sba(isrc.gp1.models.Per36Minutes
Per36Minutes
p2889
(dp2890
g8
S'1.6'
p2891
sg10
S'0.0'
p2892
sg12
S'.500'
p2893
sg14
S'3.3'
p2894
sg16
g3
sg18
S'0.0'
p2895
sg20
S'3.3'
p2896
sg22
S'PF'
p2897
sg24
g3
sg28
S'NBA'
p2898
sg30
S'1.6'
p2899
sg32
S'3.3'
p2900
sg34
S'6.5'
p2901
sg36
S'0.0'
p2902
sg38
S'6.5'
p2903
sg40
S'35'
p2904
sg42
S'DEN'
p2905
sg44
g164
sg46
S'1.6'
p2906
sg48
S'1.6'
p2907
sg50
S'0.0'
p2908
sg52
S'3.3'
p2909
sg54
S'4.9'
p2910
sg56
S'2008-09'
p2911
sg58
S'1.6'
p2912
sg60
S'0.0'
p2913
sg62
S'.500'
p2914
sg64
S'22'
p2915
sg66
g19
sba(isrc.gp1.models.Per36Minutes
Per36Minutes
p2916
(dp2917
g8
S'2.3'
p2918
sg10
S'0.0'
p2919
sg12
S'.510'
p2920
sg14
S'1.9'
p2921
sg16
g3
sg18
S'0.0'
p2922
sg20
S'13.7'
p2923
sg22
S'SF'
p2924
sg24
S'.676'
p2925
sg28
S'NBA'
p2926
sg30
S'0.5'
p2927
sg32
S'11.6'
p2928
sg34
S'5.4'
p2929
sg36
S'2.7'
p2930
sg38
S'5.8'
p2931
sg40
S'35'
p2932
sg42
S'CHA'
p2933
sg44
S'39'
p2934
sg46
S'0.4'
p2935
sg48
S'5.9'
p2936
sg50
S'1.8'
p2937
sg52
S'11.6'
p2938
sg54
S'3.4'
p2939
sg56
S'2008-09'
p2940
sg58
S'5.9'
p2941
sg60
S'2.1'
p2942
sg62
S'.510'
p2943
sg64
S'450'
p2944
sg66
g103
sba(isrc.gp1.models.Per36Minutes
Per36Minutes
p2945
(dp2946
g8
S'2.4'
p2947
sg10
S'0.0'
p2948
sg12
S'.509'
p2949
sg14
S'1.3'
p2950
sg16
S'.000'
p2951
sg18
S'0.0'
p2952
sg20
S'9.6'
p2953
sg22
g647
sg24
S'.786'
p2954
sg28
S'NBA'
p2955
sg30
S'0.6'
p2956
sg32
S'8.3'
p2957
sg34
S'4.2'
p2958
sg36
S'1.5'
p2959
sg38
S'7.4'
p2960
sg40
S'36'
p2961
sg42
S'POR'
p2962
sg44
S'73'
p2963
sg46
S'0.2'
p2964
sg48
S'4.2'
p2965
sg50
S'1.2'
p2966
sg52
S'8.2'
p2967
sg54
S'5.0'
p2968
sg56
S'2009-10'
p2969
sg58
S'4.2'
p2970
sg60
S'1.6'
p2971
sg62
S'.511'
p2972
sg64
S'1632'
p2973
sg66
S'27'
p2974
sba(isrc.gp1.models.Per36Minutes
Per36Minutes
p2975
(dp2976
g8
S'2.2'
p2977
sg10
S'0.0'
p2978
sg12
S'.440'
p2979
sg14
S'1.4'
p2980
sg16
g3
sg18
S'0.0'
p2981
sg20
S'8.5'
p2982
sg22
S'PF'
p2983
sg24
S'.829'
p2984
sg28
S'NBA'
p2985
sg30
S'0.6'
p2986
sg32
S'7.6'
p2987
sg34
S'3.7'
p2988
sg36
S'2.1'
p2989
sg38
S'7.4'
p2990
sg40
S'37'
p2991
sg42
S'MIA'
p2992
sg44
S'57'
p2993
sg46
S'0.2'
p2994
sg48
S'3.3'
p2995
sg50
S'1.8'
p2996
sg52
S'7.6'
p2997
sg54
S'5.2'
p2998
sg56
S'2010-11'
p2999
sg58
S'3.3'
p3000
sg60
S'1.5'
p3001
sg62
S'.440'
p3002
sg64
S'592'
p3003
sg66
g19
sba(isrc.gp1.models.Per36Minutes
Per36Minutes
p3004
(dp3005
g8
S'3.4'
p3006
sg10
S'0.0'
p3007
sg12
S'.309'
p3008
sg14
S'1.9'
p3009
sg16
g3
sg18
S'0.0'
p3010
sg20
S'8.0'
p3011
sg22
S'PF'
p3012
sg24
S'.800'
p3013
sg28
S'NBA'
p3014
sg30
S'0.8'
p3015
sg32
S'10.4'
p3016
sg34
S'3.4'
p3017
sg36
S'1.9'
p3018
sg38
S'8.9'
p3019
sg40
S'38'
p3020
sg42
S'MIA'
p3021
sg44
S'28'
p3022
sg46
S'0.2'
p3023
sg48
S'3.2'
p3024
sg50
S'1.5'
p3025
sg52
S'10.4'
p3026
sg54
S'5.5'
p3027
sg56
S'2011-12'
p3028
sg58
S'3.2'
p3029
sg60
S'3.8'
p3030
sg62
S'.309'
p3031
sg64
S'190'
p3032
sg66
g19
sba(isrc.gp1.models.Per36Minutes
Per36Minutes
p3033
(dp3034
g8
S'0.0'
p3035
sg10
S'0.0'
p3036
sg12
S'.526'
p3037
sg14
S'4.2'
p3038
sg16
g3
sg18
S'0.0'
p3039
sg20
S'14.8'
p3040
sg22
S'PF'
p3041
sg24
S'1.000'
p3042
sg28
S'NBA'
p3043
sg30
S'0.0'
p3044
sg32
S'13.4'
p3045
sg34
S'6.4'
p3046
sg36
S'0.7'
p3047
sg38
S'5.6'
p3048
sg40
S'39'
p3049
sg42
S'MIA'
p3050
sg44
g11
sg46
S'0.0'
p3051
sg48
S'7.1'
p3052
sg50
S'0.7'
p3053
sg52
S'13.4'
p3054
sg54
S'5.6'
p3055
sg56
S'2012-13'
p3056
sg58
S'7.1'
p3057
sg60
S'2.8'
p3058
sg62
S'.526'
p3059
sg64
S'51'
p3060
sg66
g103
sbasS'_fromYear'
p3061
S'1995'
p3062
sS'_url'
p3063
S'http://www.basketball-reference.com/players/h/howarju01.html'
p3064
sS'_perGame'
p3065
(isrc.gp1.models.PerGame
PerGame
p3066
(dp3067
g8
S'0.0'
p3068
sg10
S'0.0'
p3069
sg12
S'.526'
p3070
sS'_effectiveFieldGalPercentage'
p3071
S'.526'
p3072
sg14
S'0.9'
p3073
sg16
g3
sg18
S'0.0'
p3074
sg20
S'3.0'
p3075
sg22
S'PF'
p3076
sg24
S'1.000'
p3077
sg28
S'NBA'
p3078
sg30
S'0.0'
p3079
sg34
S'1.3'
p3080
sS'_fieldGoalsttempted'
p3081
S'2.7'
p3082
sg36
S'0.1'
p3083
sg38
S'1.1'
p3084
sg40
S'39'
p3085
sg42
S'MIA'
p3086
sg44
g11
sg46
S'0.0'
p3087
sg48
S'1.4'
p3088
sg50
S'0.1'
p3089
sg52
S'2.7'
p3090
sg54
S'1.1'
p3091
sg56
S'2012-13'
p3092
sg58
S'1.4'
p3093
sg60
S'0.6'
p3094
sg62
S'.526'
p3095
sg64
S'7.3'
p3096
sg66
g103
sbsS'_weight'
p3097
S'240'
p3098
sS'_dob'
p3099
S'7-2-1973'
p3100
sS'_salary'
p3101
(lp3102
(isrc.gp1.models.Salary
Salary
p3103
(dp3104
g42
S'Washington Bullets'
p3105
sg28
S'NBA'
p3106
sg3101
S'$1,309,000'
p3107
sg56
S'1994-95'
p3108
sba(isrc.gp1.models.Salary
Salary
p3109
(dp3110
g42
S'Washington Bullets'
p3111
sg28
S'NBA'
p3112
sg3101
S'$1,702,000'
p3113
sg56
S'1995-96'
p3114
sba(isrc.gp1.models.Salary
Salary
p3115
(dp3116
g42
S'Washington Bullets'
p3117
sg28
S'NBA'
p3118
sg3101
S'$9,750,000'
p3119
sg56
S'1996-97'
p3120
sba(isrc.gp1.models.Salary
Salary
p3121
(dp3122
g42
S'Washington Wizards'
p3123
sg28
S'NBA'
p3124
sg3101
S'$11,250,000'
p3125
sg56
S'1997-98'
p3126
sba(isrc.gp1.models.Salary
Salary
p3127
(dp3128
g42
S'Washington Wizards'
p3129
sg28
S'NBA'
p3130
sg3101
S'$13,125,000'
p3131
sg56
S'1998-99'
p3132
sba(isrc.gp1.models.Salary
Salary
p3133
(dp3134
g42
S'Washington Wizards'
p3135
sg28
S'NBA'
p3136
sg3101
S'$15,000,000'
p3137
sg56
S'1999-00'
p3138
sba(isrc.gp1.models.Salary
Salary
p3139
(dp3140
g42
S'Washington Wizards'
p3141
sg28
S'NBA'
p3142
sg3101
S'$16,875,000'
p3143
sg56
S'2000-01'
p3144
sba(isrc.gp1.models.Salary
Salary
p3145
(dp3146
g42
S'Dallas Mavericks'
p3147
sg28
S'NBA'
p3148
sg3101
S'$18,750,000'
p3149
sg56
S'2001-02'
p3150
sba(isrc.gp1.models.Salary
Salary
p3151
(dp3152
g42
S'Denver Nuggets'
p3153
sg28
S'NBA'
p3154
sg3101
S'$20,625,000'
p3155
sg56
S'2002-03'
p3156
sba(isrc.gp1.models.Salary
Salary
p3157
(dp3158
g42
S'Orlando Magic'
p3159
sg28
S'NBA'
p3160
sg3101
S'$4,917,000'
p3161
sg56
S'2003-04'
p3162
sba(isrc.gp1.models.Salary
Salary
p3163
(dp3164
g42
S'Houston Rockets'
p3165
sg28
S'NBA'
p3166
sg3101
S'$5,408,700'
p3167
sg56
S'2004-05'
p3168
sba(isrc.gp1.models.Salary
Salary
p3169
(dp3170
g42
S'Houston Rockets'
p3171
sg28
S'NBA'
p3172
sg3101
S'$5,900,400'
p3173
sg56
S'2005-06'
p3174
sba(isrc.gp1.models.Salary
Salary
p3175
(dp3176
g42
S'Houston Rockets'
p3177
sg28
S'NBA'
p3178
sg3101
S'$6,392,100'
p3179
sg56
S'2006-07'
p3180
sba(isrc.gp1.models.Salary
Salary
p3181
(dp3182
g42
S'Minnesota Timberwolves'
p3183
sg28
S'NBA'
p3184
sg3101
S'$6,883,800'
p3185
sg56
S'2007-08'
p3186
sba(isrc.gp1.models.Salary
Salary
p3187
(dp3188
g42
S'Dallas Mavericks'
p3189
sg28
S'NBA'
p3190
sg3101
S'$1,211,197'
p3191
sg56
S'2007-08'
p3192
sba(isrc.gp1.models.Salary
Salary
p3193
(dp3194
g42
S'Minnesota Timberwolves'
p3195
sg28
S'NBA'
p3196
sg3101
S'$7,375,500'
p3197
sg56
S'2008-09'
p3198
sba(isrc.gp1.models.Salary
Salary
p3199
(dp3200
g42
S'Charlotte Bobcats'
p3201
sg28
S'NBA'
p3202
sg3101
S'$928,143'
p3203
sg56
S'2008-09'
p3204
sba(isrc.gp1.models.Salary
Salary
p3205
(dp3206
g42
S'Denver Nuggets'
p3207
sg28
S'NBA'
p3208
sg3101
S'$51,976'
p3209
sg56
S'2008-09'
p3210
sba(isrc.gp1.models.Salary
Salary
p3211
(dp3212
g42
S'Portland Trail Blazers'
p3213
sg28
S'NBA'
p3214
sg3101
S'$1,306,455'
p3215
sg56
S'2009-10'
p3216
sba(isrc.gp1.models.Salary
Salary
p3217
(dp3218
g42
S'Miami Heat'
p3219
sg28
S'NBA'
p3220
sg3101
S'$1,352,181'
p3221
sg56
S'2010-11'
p3222
sba(isrc.gp1.models.Salary
Salary
p3223
(dp3224
g42
S'Miami Heat'
p3225
sg28
S'NBA'
p3226
sg3101
S'$1,352,181'
p3227
sg56
S'2011-12'
p3228
sbasg22
S'F'
p3229
sb.