(isrc.gp1.models.Player
Player
p0
(dp1
S'_experience'
p2
S'NA'
p3
sS'_totals'
p4
(lp5
(isrc.gp1.models.Totals
Totals
p6
(dp7
S'_offensiveRebounds'
p8
g3
sS'_threePointsAttempted'
p9
S'.425'
p10
sS'_fieldGoalsPercentage'
p11
S'65'
p12
sS'_assist'
p13
g3
sS'_threePointsPercentage'
p14
S'.425'
p15
sS'_threePoints'
p16
S'153'
p17
sS'_points'
p18
g3
sS'_position'
p19
S'SF'
p20
sS'_freeThrowsPercentage'
p21
S'144'
p22
sS'_effectiveFieldGoalPercentage'
p23
S'69'
p24
sS'_league'
p25
S'NBA'
p26
sS'_steals'
p27
g3
sS'_fieldGoalsAttempted'
p28
S'.425'
p29
sS'_personalFouls'
p30
g3
sS'_freeThrowsAttempted'
p31
S'35'
p32
sS'_totalRebounds'
p33
g3
sS'_age'
p34
S'22'
p35
sS'_team'
p36
S'SFW'
p37
sS'_games'
p38
S'20'
p39
sS'_blocks'
p40
g3
sS'_twoPoints'
p41
S'14'
p42
sS'_freeThrows'
p43
S'21'
p44
sS'_twoPointsAttempted'
p45
S'23'
p46
sS'_defensiveRebounds'
p47
g3
sS'_season'
p48
S'1962-63'
p49
sS'_fieldGoals'
p50
S'153'
p51
sS'_turnOvers'
p52
g3
sS'_twoPointsPercentage'
p53
S'.609'
p54
sS'_minutesPlayed'
p55
S'65'
p56
sS'_gamesStarted'
p57
S'364'
p58
sbasS'_college'
p59
S'University of Texas-Pan American'
p60
sS'_toYear'
p61
S'1963'
p62
sS'_height'
p63
S'6-5'
p64
sS'_active'
p65
I00
sS'_shootingHand'
p66
VRight
p67
sS'_name'
p68
S'Howie Montgomery'
p69
sS'_per100Possessions'
p70
(lp71
sS'_advanced'
p72
(lp73
(isrc.gp1.models.Advanced
Advanced
p74
(dp75
S'_offensiveReboundPercentage'
p76
S'0.3'
p77
sS'_turnOverPercentage'
p78
g3
sS'_winSharesPer48Minutes'
p79
g3
sS'_stealPercentage'
p80
g3
sS'_usagePercentage'
p81
g3
sS'_totalReboundsPercentage'
p82
S'.018'
p83
sS'_defensiveBoxPlusMinus'
p84
g3
sg19
S'SF'
p85
sS'_valueOverReplacementPlayer'
p86
g3
sS'_trueShootingPercentage'
p87
S'.441'
p88
sS'_defensiveReboundPercentage'
p89
S'0.1'
p90
sS'_freeThrowsAttempRate'
p91
S'-0.1'
p92
sS'_threePointsAttempRate'
p93
S'.150'
p94
sg25
S'NBA'
p95
sS'_offensiveBoxPlusMinues'
p96
g3
sS'_assistPercentage'
p97
g3
sS'_defensiveWinShares'
p98
g3
sg34
S'22'
p99
sg36
S'SFW'
p100
sg38
S'20'
p101
sS'_blockPercentage'
p102
g3
sS'_playerEfficiencyRating'
p103
S'9.9'
p104
sS'_offensiveWinShares'
p105
g3
sg55
S'364'
p106
sS'_boxPlusMinus'
p107
g3
sg48
S'1962-63'
p108
sS'_winShares'
p109
g3
sbasS'_per36Minutes'
p110
(lp111
(isrc.gp1.models.Per36Minutes
Per36Minutes
p112
(dp113
g8
g3
sg9
S'.425'
p114
sg11
S'6.4'
p115
sg13
g3
sg14
S'1.4'
p116
sg16
S'15.1'
p117
sg18
g3
sg19
S'SF'
p118
sg21
S'14.2'
p119
sg25
S'NBA'
p120
sg27
g3
sg28
S'.425'
p121
sg30
g3
sg31
S'3.5'
p122
sg33
g3
sg34
S'22'
p123
sg36
S'SFW'
p124
sg38
S'20'
p125
sg40
g3
sg41
S'2.3'
p126
sg43
S'2.1'
p127
sg45
S'.609'
p128
sg47
g3
sg48
S'1962-63'
p129
sg50
S'15.1'
p130
sg52
g3
sg53
S'6.8'
p131
sg55
S'6.4'
p132
sg57
S'364'
p133
sbasS'_fromYear'
p134
S'1963'
p135
sS'_url'
p136
S'http://www.basketball-reference.com/players/m/montgho01.html'
p137
sS'_perGame'
p138
(isrc.gp1.models.PerGame
PerGame
p139
(dp140
g8
g3
sg9
S'.425'
p141
sg11
S'3.3'
p142
sS'_effectiveFieldGalPercentage'
p143
S'3.5'
p144
sg13
g3
sg14
S'.425'
p145
sg16
S'7.7'
p146
sg18
g3
sg19
S'SF'
p147
sg21
S'7.2'
p148
sg25
S'NBA'
p149
sg27
g3
sg30
g3
sS'_fieldGoalsttempted'
p150
S'.425'
p151
sg31
S'1.8'
p152
sg33
g3
sg34
S'22'
p153
sg36
S'SFW'
p154
sg38
S'20'
p155
sg40
g3
sg41
S'0.7'
p156
sg43
S'1.1'
p157
sg45
S'1.2'
p158
sg47
g3
sg48
S'1962-63'
p159
sg50
S'7.7'
p160
sg52
g3
sg53
S'.609'
p161
sg55
S'3.3'
p162
sg57
S'18.2'
p163
sbsS'_weight'
p164
S'220'
p165
sS'_dob'
p166
S'22-8-1940'
p167
sS'_salary'
p168
(lp169
sg19
S'F'
p170
sb.