(isrc.gp1.models.Player
Player
p0
(dp1
S'_experience'
p2
S'NA'
p3
sS'_totals'
p4
(lp5
(isrc.gp1.models.Totals
Totals
p6
(dp7
S'_offensiveRebounds'
p8
g3
sS'_threePointsAttempted'
p9
g3
sS'_fieldGoalsPercentage'
p10
S'.467'
p11
sS'_assist'
p12
S'95'
p13
sS'_threePointsPercentage'
p14
g3
sS'_threePoints'
p15
g3
sS'_points'
p16
S'1471'
p17
sS'_position'
p18
S'SF'
p19
sS'_freeThrowsPercentage'
p20
S'.706'
p21
sS'_effectiveFieldGoalPercentage'
p22
S'.467'
p23
sS'_league'
p24
S'NBA'
p25
sS'_steals'
p26
g3
sS'_fieldGoalsAttempted'
p27
S'1328'
p28
sS'_personalFouls'
p29
S'277'
p30
sS'_freeThrowsAttempted'
p31
S'327'
p32
sS'_totalRebounds'
p33
S'435'
p34
sS'_age'
p35
S'22'
p36
sS'_team'
p37
S'STL'
p38
sS'_games'
p39
S'80'
p40
sS'_blocks'
p41
g3
sS'_twoPoints'
p42
S'620'
p43
sS'_freeThrows'
p44
S'231'
p45
sS'_twoPointsAttempted'
p46
S'1328'
p47
sS'_defensiveRebounds'
p48
g3
sS'_season'
p49
S'1966-67'
p50
sS'_fieldGoals'
p51
S'620'
p52
sS'_turnOvers'
p53
g3
sS'_twoPointsPercentage'
p54
S'.467'
p55
sS'_minutesPlayed'
p56
S'2446'
p57
sS'_gamesStarted'
p58
g3
sba(isrc.gp1.models.Totals
Totals
p59
(dp60
g8
g3
sg9
g3
sg10
S'.454'
p61
sg12
S'65'
p62
sg14
g3
sg15
g3
sg16
S'574'
p63
sg18
S'SG'
p64
sg20
S'.732'
p65
sg22
S'.454'
p66
sg24
S'NBA'
p67
sg26
g3
sg27
S'500'
p68
sg29
S'113'
p69
sg31
S'164'
p70
sg33
S'193'
p71
sg35
S'23'
p72
sg37
S'STL'
p73
sg39
S'46'
p74
sg41
g3
sg42
S'227'
p75
sg44
S'120'
p76
sg46
S'500'
p77
sg48
g3
sg49
S'1967-68'
p78
sg51
S'227'
p79
sg53
g3
sg54
S'.454'
p80
sg56
S'966'
p81
sg58
g3
sba(isrc.gp1.models.Totals
Totals
p82
(dp83
g8
g3
sg9
g3
sg10
S'.492'
p84
sg12
S'216'
p85
sg14
g3
sg15
g3
sg16
S'1770'
p86
sg18
S'SF'
p87
sg20
S'.777'
p88
sg22
S'.492'
p89
sg24
S'NBA'
p90
sg26
g3
sg27
S'1455'
p91
sg29
S'248'
p92
sg31
S'435'
p93
sg33
S'533'
p94
sg35
S'24'
p95
sg37
S'ATL'
p96
sg39
S'81'
p97
sg41
g3
sg42
S'716'
p98
sg44
S'338'
p99
sg46
S'1455'
p100
sg48
g3
sg49
S'1968-69'
p101
sg51
S'716'
p102
sg53
g3
sg54
S'.492'
p103
sg56
S'2869'
p104
sg58
g3
sba(isrc.gp1.models.Totals
Totals
p105
(dp106
g8
g3
sg9
g3
sg10
S'.531'
p107
sg12
S'276'
p108
sg14
g3
sg15
g3
sg16
S'2031'
p109
sg18
S'SF'
p110
sg20
S'.824'
p111
sg22
S'.531'
p112
sg24
S'NBA'
p113
sg26
g3
sg27
S'1564'
p114
sg29
S'225'
p115
sg31
S'450'
p116
sg33
S'373'
p117
sg35
S'25'
p118
sg37
S'ATL'
p119
sg39
S'80'
p120
sg41
g3
sg42
S'830'
p121
sg44
S'371'
p122
sg46
S'1564'
p123
sg48
g3
sg49
S'1969-70'
p124
sg51
S'830'
p125
sg53
g3
sg54
S'.531'
p126
sg56
S'3091'
p127
sg58
g3
sba(isrc.gp1.models.Totals
Totals
p128
(dp129
g8
g3
sg9
g3
sg10
S'.484'
p130
sg12
S'257'
p131
sg14
g3
sg15
g3
sg16
S'2039'
p132
sg18
S'SF'
p133
sg20
S'.759'
p134
sg22
S'.484'
p135
sg24
S'NBA'
p136
sg26
g3
sg27
S'1713'
p137
sg29
S'186'
p138
sg31
S'502'
p139
sg33
S'386'
p140
sg35
S'26'
p141
sg37
S'ATL'
p142
sg39
S'76'
p143
sg41
g3
sg42
S'829'
p144
sg44
S'381'
p145
sg46
S'1713'
p146
sg48
g3
sg49
S'1970-71'
p147
sg51
S'829'
p148
sg53
g3
sg54
S'.484'
p149
sg56
S'3113'
p150
sg58
g3
sba(isrc.gp1.models.Totals
Totals
p151
(dp152
g8
g3
sg9
g3
sg10
S'.503'
p153
sg12
S'309'
p154
sg14
g3
sg15
g3
sg16
S'1899'
p155
sg18
S'SG'
p156
sg20
S'.812'
p157
sg22
S'.503'
p158
sg24
S'NBA'
p159
sg26
g3
sg27
S'1540'
p160
sg29
S'225'
p161
sg31
S'430'
p162
sg33
S'385'
p163
sg35
S'27'
p164
sg37
S'ATL'
p165
sg39
S'77'
p166
sg41
g3
sg42
S'775'
p167
sg44
S'349'
p168
sg46
S'1540'
p169
sg48
g3
sg49
S'1971-72'
p170
sg51
S'775'
p171
sg53
g3
sg54
S'.503'
p172
sg56
S'3042'
p173
sg58
g3
sba(isrc.gp1.models.Totals
Totals
p174
(dp175
g8
g3
sg9
g3
sg10
S'.477'
p176
sg12
S'258'
p177
sg14
g3
sg15
g3
sg16
S'2029'
p178
sg18
S'SF'
p179
sg20
S'.825'
p180
sg22
S'.477'
p181
sg24
S'NBA'
p182
sg26
g3
sg27
S'1710'
p183
sg29
S'197'
p184
sg31
S'481'
p185
sg33
S'467'
p186
sg35
S'28'
p187
sg37
S'ATL'
p188
sg39
S'75'
p189
sg41
g3
sg42
S'816'
p190
sg44
S'397'
p191
sg46
S'1710'
p192
sg48
g3
sg49
S'1972-73'
p193
sg51
S'816'
p194
sg53
g3
sg54
S'.477'
p195
sg56
S'3027'
p196
sg58
g3
sba(isrc.gp1.models.Totals
Totals
p197
(dp198
g8
S'126'
p199
sg9
g3
sg10
S'.500'
p200
sg12
S'213'
p201
sg14
g3
sg15
g3
sg16
S'1651'
p202
sg18
S'SF'
p203
sg20
S'.836'
p204
sg22
S'.500'
p205
sg24
S'NBA'
p206
sg26
S'160'
p207
sg27
S'1356'
p208
sg29
S'205'
p209
sg31
S'353'
p210
sg33
S'350'
p211
sg35
S'29'
p212
sg37
S'ATL'
p213
sg39
S'65'
p214
sg41
S'29'
p215
sg42
S'678'
p216
sg44
S'295'
p217
sg46
S'1356'
p218
sg48
S'224'
p219
sg49
S'1973-74'
p220
sg51
S'678'
p221
sg53
g3
sg54
S'.500'
p222
sg56
S'2588'
p223
sg58
g3
sba(isrc.gp1.models.Totals
Totals
p224
(dp225
g8
S'14'
p226
sg9
g3
sg10
S'.431'
p227
sg12
S'40'
p228
sg14
g3
sg15
g3
sg16
S'242'
p229
sg18
S'SG'
p230
sg20
S'.842'
p231
sg22
S'.431'
p232
sg24
S'NBA'
p233
sg26
S'13'
p234
sg27
S'225'
p235
sg29
S'33'
p236
sg31
S'57'
p237
sg33
S'47'
p238
sg35
S'30'
p239
sg37
S'ATL'
p240
sg39
S'11'
p241
sg41
S'2'
p242
sg42
S'97'
p243
sg44
S'48'
p244
sg46
S'225'
p245
sg48
S'33'
p246
sg49
S'1974-75'
p247
sg51
S'97'
p248
sg53
g3
sg54
S'.431'
p249
sg56
S'380'
p250
sg58
g3
sba(isrc.gp1.models.Totals
Totals
p251
(dp252
g8
S'104'
p253
sg9
g3
sg10
S'.472'
p254
sg12
S'214'
p255
sg14
g3
sg15
g3
sg16
S'1375'
p256
sg18
S'SG'
p257
sg20
S'.814'
p258
sg22
S'.472'
p259
sg24
S'NBA'
p260
sg26
S'124'
p261
sg27
S'1205'
p262
sg29
S'241'
p263
sg31
S'291'
p264
sg33
S'300'
p265
sg35
S'31'
p266
sg37
S'ATL'
p267
sg39
S'81'
p268
sg41
S'17'
p269
sg42
S'569'
p270
sg44
S'237'
p271
sg46
S'1205'
p272
sg48
S'196'
p273
sg49
S'1975-76'
p274
sg51
S'569'
p275
sg53
g3
sg54
S'.472'
p276
sg56
S'2558'
p277
sg58
g3
sba(isrc.gp1.models.Totals
Totals
p278
(dp279
g8
S'48'
p280
sg9
g3
sg10
S'.456'
p281
sg12
S'155'
p282
sg14
g3
sg15
g3
sg16
S'968'
p283
sg18
S'SG'
p284
sg20
S'.840'
p285
sg22
S'.456'
p286
sg24
S'NBA'
p287
sg26
S'67'
p288
sg27
S'905'
p289
sg29
S'160'
p290
sg31
S'169'
p291
sg33
S'129'
p292
sg35
S'32'
p293
sg37
S'ATL'
p294
sg39
S'58'
p295
sg41
S'19'
p296
sg42
S'413'
p297
sg44
S'142'
p298
sg46
S'905'
p299
sg48
S'81'
p300
sg49
S'1976-77'
p301
sg51
S'413'
p302
sg53
g3
sg54
S'.456'
p303
sg56
S'1745'
p304
sg58
g3
sba(isrc.gp1.models.Totals
Totals
p305
(dp306
g8
S'80'
p307
sg9
g3
sg10
S'.497'
p308
sg12
S'193'
p309
sg14
g3
sg15
g3
sg16
S'1123'
p310
sg18
S'SG'
p311
sg20
S'.774'
p312
sg22
S'.497'
p313
sg24
S'NBA'
p314
sg26
S'94'
p315
sg27
S'992'
p316
sg29
S'196'
p317
sg31
S'177'
p318
sg33
S'188'
p319
sg35
S'33'
p320
sg37
S'LAL'
p321
sg39
S'82'
p322
sg41
S'14'
p323
sg42
S'493'
p324
sg44
S'137'
p325
sg46
S'992'
p326
sg48
S'108'
p327
sg49
S'1977-78'
p328
sg51
S'493'
p329
sg53
S'150'
p330
sg54
S'.497'
p331
sg56
S'2283'
p332
sg58
g3
sba(isrc.gp1.models.Totals
Totals
p333
(dp334
g8
S'64'
p335
sg9
g3
sg10
S'.517'
p336
sg12
S'141'
p337
sg14
g3
sg15
g3
sg16
S'768'
p338
sg18
S'SG'
p339
sg20
S'.887'
p340
sg22
S'.517'
p341
sg24
S'NBA'
p342
sg26
S'58'
p343
sg27
S'636'
p344
sg29
S'133'
p345
sg31
S'124'
p346
sg33
S'140'
p347
sg35
S'34'
p348
sg37
S'LAL'
p349
sg39
S'78'
p350
sg41
S'17'
p351
sg42
S'329'
p352
sg44
S'110'
p353
sg46
S'636'
p354
sg48
S'76'
p355
sg49
S'1978-79'
p356
sg51
S'329'
p357
sg53
S'99'
p358
sg54
S'.517'
p359
sg56
S'1686'
p360
sg58
g3
sbasS'_college'
p361
S'University of Minnesota'
p362
sS'_toYear'
p363
S'1979'
p364
sS'_height'
p365
S'6-5'
p366
sS'_active'
p367
I00
sS'_shootingHand'
p368
VRight
p369
sS'_name'
p370
S'Lou Hudson'
p371
sS'_per100Possessions'
p372
(lp373
(isrc.gp1.models.Per100Possession
Per100Possession
p374
(dp375
g8
S'2.1'
p376
sg9
g3
sg10
S'.500'
p377
sS'_offensiveRating'
p378
g3
sg12
S'3.6'
p379
sg14
g3
sg15
g3
sg16
S'27.6'
p380
sg18
S'SF'
p381
sS'_defensiveRating'
p382
S'99'
p383
sg20
S'.836'
p384
sg24
S'NBA'
p385
sg26
S'2.7'
p386
sg27
S'22.7'
p387
sg29
S'3.4'
p388
sg31
S'5.9'
p389
sg33
S'5.9'
p390
sg35
S'29'
p391
sg37
S'ATL'
p392
sg39
S'65'
p393
sg41
S'0.5'
p394
sg42
S'11.3'
p395
sg44
S'4.9'
p396
sg46
S'22.7'
p397
sg48
S'3.7'
p398
sg49
S'1973-74'
p399
sg51
S'11.3'
p400
sg53
g3
sg54
S'.500'
p401
sg56
S'2588'
p402
sg58
g3
sba(isrc.gp1.models.Per100Possession
Per100Possession
p403
(dp404
g8
S'1.7'
p405
sg9
g3
sg10
S'.431'
p406
sg378
g3
sg12
S'4.8'
p407
sg14
g3
sg15
g3
sg16
S'28.8'
p408
sg18
S'SG'
p409
sg382
S'102'
p410
sg20
S'.842'
p411
sg24
S'NBA'
p412
sg26
S'1.5'
p413
sg27
S'26.7'
p414
sg29
S'3.9'
p415
sg31
S'6.8'
p416
sg33
S'5.6'
p417
sg35
S'30'
p418
sg37
S'ATL'
p419
sg39
S'11'
p420
sg41
S'0.2'
p421
sg42
S'11.5'
p422
sg44
S'5.7'
p423
sg46
S'26.7'
p424
sg48
S'3.9'
p425
sg49
S'1974-75'
p426
sg51
S'11.5'
p427
sg53
g3
sg54
S'.431'
p428
sg56
S'380'
p429
sg58
g3
sba(isrc.gp1.models.Per100Possession
Per100Possession
p430
(dp431
g8
S'1.9'
p432
sg9
g3
sg10
S'.472'
p433
sg378
g3
sg12
S'3.9'
p434
sg14
g3
sg15
g3
sg16
S'24.9'
p435
sg18
S'SG'
p436
sg382
S'102'
p437
sg20
S'.814'
p438
sg24
S'NBA'
p439
sg26
S'2.2'
p440
sg27
S'21.8'
p441
sg29
S'4.4'
p442
sg31
S'5.3'
p443
sg33
S'5.4'
p444
sg35
S'31'
p445
sg37
S'ATL'
p446
sg39
S'81'
p447
sg41
S'0.3'
p448
sg42
S'10.3'
p449
sg44
S'4.3'
p450
sg46
S'21.8'
p451
sg48
S'3.6'
p452
sg49
S'1975-76'
p453
sg51
S'10.3'
p454
sg53
g3
sg54
S'.472'
p455
sg56
S'2558'
p456
sg58
g3
sba(isrc.gp1.models.Per100Possession
Per100Possession
p457
(dp458
g8
S'1.3'
p459
sg9
g3
sg10
S'.456'
p460
sg378
g3
sg12
S'4.1'
p461
sg14
g3
sg15
g3
sg16
S'25.5'
p462
sg18
S'SG'
p463
sg382
S'104'
p464
sg20
S'.840'
p465
sg24
S'NBA'
p466
sg26
S'1.8'
p467
sg27
S'23.8'
p468
sg29
S'4.2'
p469
sg31
S'4.4'
p470
sg33
S'3.4'
p471
sg35
S'32'
p472
sg37
S'ATL'
p473
sg39
S'58'
p474
sg41
S'0.5'
p475
sg42
S'10.9'
p476
sg44
S'3.7'
p477
sg46
S'23.8'
p478
sg48
S'2.1'
p479
sg49
S'1976-77'
p480
sg51
S'10.9'
p481
sg53
g3
sg54
S'.456'
p482
sg56
S'1745'
p483
sg58
g3
sba(isrc.gp1.models.Per100Possession
Per100Possession
p484
(dp485
g8
S'1.6'
p486
sg9
g3
sg10
S'.497'
p487
sg378
S'103'
p488
sg12
S'3.8'
p489
sg14
g3
sg15
g3
sg16
S'22.3'
p490
sg18
S'SG'
p491
sg382
S'104'
p492
sg20
S'.774'
p493
sg24
S'NBA'
p494
sg26
S'1.9'
p495
sg27
S'19.7'
p496
sg29
S'3.9'
p497
sg31
S'3.5'
p498
sg33
S'3.7'
p499
sg35
S'33'
p500
sg37
S'LAL'
p501
sg39
S'82'
p502
sg41
S'0.3'
p503
sg42
S'9.8'
p504
sg44
S'2.7'
p505
sg46
S'19.7'
p506
sg48
S'2.1'
p507
sg49
S'1977-78'
p508
sg51
S'9.8'
p509
sg53
S'3.0'
p510
sg54
S'.497'
p511
sg56
S'2283'
p512
sg58
g3
sba(isrc.gp1.models.Per100Possession
Per100Possession
p513
(dp514
g8
S'1.7'
p515
sg9
g3
sg10
S'.517'
p516
sg378
S'108'
p517
sg12
S'3.8'
p518
sg14
g3
sg15
g3
sg16
S'20.6'
p519
sg18
S'SG'
p520
sg382
S'107'
p521
sg20
S'.887'
p522
sg24
S'NBA'
p523
sg26
S'1.6'
p524
sg27
S'17.1'
p525
sg29
S'3.6'
p526
sg31
S'3.3'
p527
sg33
S'3.8'
p528
sg35
S'34'
p529
sg37
S'LAL'
p530
sg39
S'78'
p531
sg41
S'0.5'
p532
sg42
S'8.8'
p533
sg44
S'3.0'
p534
sg46
S'17.1'
p535
sg48
S'2.0'
p536
sg49
S'1978-79'
p537
sg51
S'8.8'
p538
sg53
S'2.7'
p539
sg54
S'.517'
p540
sg56
S'1686'
p541
sg58
g3
sbasS'_advanced'
p542
(lp543
(isrc.gp1.models.Advanced
Advanced
p544
(dp545
S'_offensiveReboundPercentage'
p546
g3
sS'_turnOverPercentage'
p547
g3
sS'_winSharesPer48Minutes'
p548
S'.097'
p549
sS'_stealPercentage'
p550
g3
sS'_usagePercentage'
p551
g3
sS'_totalReboundsPercentage'
p552
g3
sS'_defensiveBoxPlusMinus'
p553
g3
sg18
S'SF'
p554
sS'_valueOverReplacementPlayer'
p555
g3
sS'_trueShootingPercentage'
p556
S'.500'
p557
sS'_defensiveReboundPercentage'
p558
g3
sS'_freeThrowsAttempRate'
p559
S'.246'
p560
sS'_threePointsAttempRate'
p561
g3
sg24
S'NBA'
p562
sS'_offensiveBoxPlusMinues'
p563
g3
sS'_assistPercentage'
p564
S'5.9'
p565
sS'_defensiveWinShares'
p566
S'1.5'
p567
sg35
S'22'
p568
sg37
S'STL'
p569
sg39
S'80'
p570
sS'_blockPercentage'
p571
g3
sS'_playerEfficiencyRating'
p572
S'15.3'
p573
sS'_offensiveWinShares'
p574
S'3.4'
p575
sg56
S'2446'
p576
sS'_boxPlusMinus'
p577
g3
sg49
S'1966-67'
p578
sS'_winShares'
p579
S'4.9'
p580
sba(isrc.gp1.models.Advanced
Advanced
p581
(dp582
g546
g3
sg547
g3
sg548
S'.110'
p583
sg550
g3
sg551
g3
sg552
g3
sg553
g3
sg18
S'SG'
p584
sg555
g3
sg556
S'.502'
p585
sg558
g3
sg559
S'.328'
p586
sg561
g3
sg24
S'NBA'
p587
sg563
g3
sg564
S'10.4'
p588
sg566
S'0.9'
p589
sg35
S'23'
p590
sg37
S'STL'
p591
sg39
S'46'
p592
sg571
g3
sg572
S'16.1'
p593
sg574
S'1.3'
p594
sg56
S'966'
p595
sg577
g3
sg49
S'1967-68'
p596
sg579
S'2.2'
p597
sba(isrc.gp1.models.Advanced
Advanced
p598
(dp599
g546
g3
sg547
g3
sg548
S'.168'
p600
sg550
g3
sg551
g3
sg552
g3
sg553
g3
sg18
S'SF'
p601
sg555
g3
sg556
S'.538'
p602
sg558
g3
sg559
S'.299'
p603
sg561
g3
sg24
S'NBA'
p604
sg563
g3
sg564
S'11.3'
p605
sg566
S'2.3'
p606
sg35
S'24'
p607
sg37
S'ATL'
p608
sg39
S'81'
p609
sg571
g3
sg572
S'18.7'
p610
sg574
S'7.8'
p611
sg56
S'2869'
p612
sg577
g3
sg49
S'1968-69'
p613
sg579
S'10.1'
p614
sba(isrc.gp1.models.Advanced
Advanced
p615
(dp616
g546
g3
sg547
g3
sg548
S'.172'
p617
sg550
g3
sg551
g3
sg552
g3
sg553
g3
sg18
S'SF'
p618
sg555
g3
sg556
S'.576'
p619
sg558
g3
sg559
S'.288'
p620
sg561
g3
sg24
S'NBA'
p621
sg563
g3
sg564
S'12.8'
p622
sg566
S'1.3'
p623
sg35
S'25'
p624
sg37
S'ATL'
p625
sg39
S'80'
p626
sg571
g3
sg572
S'19.0'
p627
sg574
S'9.8'
p628
sg56
S'3091'
p629
sg577
g3
sg49
S'1969-70'
p630
sg579
S'11.1'
p631
sba(isrc.gp1.models.Advanced
Advanced
p632
(dp633
g546
g3
sg547
g3
sg548
S'.122'
p634
sg550
g3
sg551
g3
sg552
S'5.6'
p635
sg553
g3
sg18
S'SF'
p636
sg555
g3
sg556
S'.527'
p637
sg558
g3
sg559
S'.293'
p638
sg561
g3
sg24
S'NBA'
p639
sg563
g3
sg564
S'12.7'
p640
sg566
S'1.0'
p641
sg35
S'26'
p642
sg37
S'ATL'
p643
sg39
S'76'
p644
sg571
g3
sg572
S'18.2'
p645
sg574
S'6.9'
p646
sg56
S'3113'
p647
sg577
g3
sg49
S'1970-71'
p648
sg579
S'7.9'
p649
sba(isrc.gp1.models.Advanced
Advanced
p650
(dp651
g546
g3
sg547
g3
sg548
S'.154'
p652
sg550
g3
sg551
g3
sg552
S'6.2'
p653
sg553
g3
sg18
S'SG'
p654
sg555
g3
sg556
S'.549'
p655
sg558
g3
sg559
S'.279'
p656
sg561
g3
sg24
S'NBA'
p657
sg563
g3
sg564
S'16.2'
p658
sg566
S'1.5'
p659
sg35
S'27'
p660
sg37
S'ATL'
p661
sg39
S'77'
p662
sg571
g3
sg572
S'19.1'
p663
sg574
S'8.2'
p664
sg56
S'3042'
p665
sg577
g3
sg49
S'1971-72'
p666
sg579
S'9.7'
p667
sba(isrc.gp1.models.Advanced
Advanced
p668
(dp669
g546
g3
sg547
g3
sg548
S'.148'
p670
sg550
g3
sg551
g3
sg552
S'7.4'
p671
sg553
g3
sg18
S'SF'
p672
sg555
g3
sg556
S'.528'
p673
sg558
g3
sg559
S'.281'
p674
sg561
g3
sg24
S'NBA'
p675
sg563
g3
sg564
S'12.8'
p676
sg566
S'2.1'
p677
sg35
S'28'
p678
sg37
S'ATL'
p679
sg39
S'75'
p680
sg571
g3
sg572
S'19.0'
p681
sg574
S'7.2'
p682
sg56
S'3027'
p683
sg577
g3
sg49
S'1972-73'
p684
sg579
S'9.3'
p685
sba(isrc.gp1.models.Advanced
Advanced
p686
(dp687
g546
S'4.8'
p688
sg547
g3
sg548
S'.164'
p689
sg550
S'2.7'
p690
sg551
g3
sg552
S'6.8'
p691
sg553
S'-0.4'
p692
sg18
S'SF'
p693
sg555
S'3.2'
p694
sg556
S'.546'
p695
sg558
S'8.9'
p696
sg559
S'.260'
p697
sg561
g3
sg24
S'NBA'
p698
sg563
S'3.2'
p699
sg564
S'12.7'
p700
sg566
S'2.4'
p701
sg35
S'29'
p702
sg37
S'ATL'
p703
sg39
S'65'
p704
sg571
S'0.6'
p705
sg572
S'19.5'
p706
sg574
S'6.5'
p707
sg56
S'2588'
p708
sg577
S'2.9'
p709
sg49
S'1973-74'
p710
sg579
S'8.8'
p711
sba(isrc.gp1.models.Advanced
Advanced
p712
(dp713
g546
S'3.4'
p714
sg547
g3
sg548
S'.100'
p715
sg550
S'1.5'
p716
sg551
g3
sg552
S'6.0'
p717
sg553
S'-2.3'
p718
sg18
S'SG'
p719
sg555
S'0.1'
p720
sg556
S'.484'
p721
sg558
S'9.0'
p722
sg559
S'.253'
p723
sg561
g3
sg24
S'NBA'
p724
sg563
S'1.9'
p725
sg564
S'17.3'
p726
sg566
S'0.2'
p727
sg35
S'30'
p728
sg37
S'ATL'
p729
sg39
S'11'
p730
sg571
S'0.3'
p731
sg572
S'17.4'
p732
sg574
S'0.6'
p733
sg56
S'380'
p734
sg577
S'-0.4'
p735
sg49
S'1974-75'
p736
sg579
S'0.8'
p737
sba(isrc.gp1.models.Advanced
Advanced
p738
(dp739
g546
S'4.1'
p740
sg547
g3
sg548
S'.111'
p741
sg550
S'2.2'
p742
sg551
g3
sg552
S'6.0'
p743
sg553
S'-1.2'
p744
sg18
S'SG'
p745
sg555
S'1.7'
p746
sg556
S'.516'
p747
sg558
S'8.1'
p748
sg559
S'.241'
p749
sg561
g3
sg24
S'NBA'
p750
sg563
S'1.8'
p751
sg564
S'13.7'
p752
sg566
S'1.3'
p753
sg35
S'31'
p754
sg37
S'ATL'
p755
sg39
S'81'
p756
sg571
S'0.4'
p757
sg572
S'16.8'
p758
sg574
S'4.6'
p759
sg56
S'2558'
p760
sg577
S'0.6'
p761
sg49
S'1975-76'
p762
sg579
S'5.9'
p763
sba(isrc.gp1.models.Advanced
Advanced
p764
(dp765
g546
S'2.9'
p766
sg547
g3
sg548
S'.074'
p767
sg550
S'1.8'
p768
sg551
g3
sg552
S'3.9'
p769
sg553
S'-1.8'
p770
sg18
S'SG'
p771
sg555
S'0.1'
p772
sg556
S'.494'
p773
sg558
S'5.0'
p774
sg559
S'.187'
p775
sg561
g3
sg24
S'NBA'
p776
sg563
S'0.0'
p777
sg564
S'14.9'
p778
sg566
S'0.8'
p779
sg35
S'32'
p780
sg37
S'ATL'
p781
sg39
S'58'
p782
sg571
S'0.6'
p783
sg572
S'14.7'
p784
sg574
S'1.9'
p785
sg56
S'1745'
p786
sg577
S'-1.8'
p787
sg49
S'1976-77'
p788
sg579
S'2.7'
p789
sba(isrc.gp1.models.Advanced
Advanced
p790
(dp791
g546
S'3.7'
p792
sg547
S'12.3'
p793
sg548
S'.088'
p794
sg550
S'1.9'
p795
sg551
S'20.9'
p796
sg552
S'4.2'
p797
sg553
S'-1.5'
p798
sg18
S'SG'
p799
sg555
S'0.6'
p800
sg556
S'.525'
p801
sg558
S'4.7'
p802
sg559
S'.178'
p803
sg561
g3
sg24
S'NBA'
p804
sg563
S'0.5'
p805
sg564
S'11.6'
p806
sg566
S'1.3'
p807
sg35
S'33'
p808
sg37
S'LAL'
p809
sg39
S'82'
p810
sg571
S'0.3'
p811
sg572
S'14.2'
p812
sg574
S'2.8'
p813
sg56
S'2283'
p814
sg577
S'-1.0'
p815
sg49
S'1977-78'
p816
sg579
S'4.2'
p817
sba(isrc.gp1.models.Advanced
Advanced
p818
(dp819
g546
S'4.4'
p820
sg547
S'12.5'
p821
sg548
S'.095'
p822
sg550
S'1.6'
p823
sg551
S'18.7'
p824
sg552
S'4.5'
p825
sg553
S'-1.6'
p826
sg18
S'SG'
p827
sg555
S'0.2'
p828
sg556
S'.556'
p829
sg558
S'4.6'
p830
sg559
S'.195'
p831
sg561
g3
sg24
S'NBA'
p832
sg563
S'0.1'
p833
sg564
S'10.8'
p834
sg566
S'1.1'
p835
sg35
S'34'
p836
sg37
S'LAL'
p837
sg39
S'78'
p838
sg571
S'0.5'
p839
sg572
S'13.7'
p840
sg574
S'2.3'
p841
sg56
S'1686'
p842
sg577
S'-1.5'
p843
sg49
S'1978-79'
p844
sg579
S'3.3'
p845
sbasS'_per36Minutes'
p846
(lp847
(isrc.gp1.models.Per36Minutes
Per36Minutes
p848
(dp849
g8
g3
sg9
g3
sg10
S'.467'
p850
sg12
S'1.4'
p851
sg14
g3
sg15
g3
sg16
S'21.7'
p852
sg18
S'SF'
p853
sg20
S'.706'
p854
sg24
S'NBA'
p855
sg26
g3
sg27
S'19.5'
p856
sg29
S'4.1'
p857
sg31
S'4.8'
p858
sg33
S'6.4'
p859
sg35
S'22'
p860
sg37
S'STL'
p861
sg39
S'80'
p862
sg41
g3
sg42
S'9.1'
p863
sg44
S'3.4'
p864
sg46
S'19.5'
p865
sg48
g3
sg49
S'1966-67'
p866
sg51
S'9.1'
p867
sg53
g3
sg54
S'.467'
p868
sg56
S'2446'
p869
sg58
g3
sba(isrc.gp1.models.Per36Minutes
Per36Minutes
p870
(dp871
g8
g3
sg9
g3
sg10
S'.454'
p872
sg12
S'2.4'
p873
sg14
g3
sg15
g3
sg16
S'21.4'
p874
sg18
S'SG'
p875
sg20
S'.732'
p876
sg24
S'NBA'
p877
sg26
g3
sg27
S'18.6'
p878
sg29
S'4.2'
p879
sg31
S'6.1'
p880
sg33
S'7.2'
p881
sg35
S'23'
p882
sg37
S'STL'
p883
sg39
S'46'
p884
sg41
g3
sg42
S'8.5'
p885
sg44
S'4.5'
p886
sg46
S'18.6'
p887
sg48
g3
sg49
S'1967-68'
p888
sg51
S'8.5'
p889
sg53
g3
sg54
S'.454'
p890
sg56
S'966'
p891
sg58
g3
sba(isrc.gp1.models.Per36Minutes
Per36Minutes
p892
(dp893
g8
g3
sg9
g3
sg10
S'.492'
p894
sg12
S'2.7'
p895
sg14
g3
sg15
g3
sg16
S'22.2'
p896
sg18
S'SF'
p897
sg20
S'.777'
p898
sg24
S'NBA'
p899
sg26
g3
sg27
S'18.3'
p900
sg29
S'3.1'
p901
sg31
S'5.5'
p902
sg33
S'6.7'
p903
sg35
S'24'
p904
sg37
S'ATL'
p905
sg39
S'81'
p906
sg41
g3
sg42
S'9.0'
p907
sg44
S'4.2'
p908
sg46
S'18.3'
p909
sg48
g3
sg49
S'1968-69'
p910
sg51
S'9.0'
p911
sg53
g3
sg54
S'.492'
p912
sg56
S'2869'
p913
sg58
g3
sba(isrc.gp1.models.Per36Minutes
Per36Minutes
p914
(dp915
g8
g3
sg9
g3
sg10
S'.531'
p916
sg12
S'3.2'
p917
sg14
g3
sg15
g3
sg16
S'23.7'
p918
sg18
S'SF'
p919
sg20
S'.824'
p920
sg24
S'NBA'
p921
sg26
g3
sg27
S'18.2'
p922
sg29
S'2.6'
p923
sg31
S'5.2'
p924
sg33
S'4.3'
p925
sg35
S'25'
p926
sg37
S'ATL'
p927
sg39
S'80'
p928
sg41
g3
sg42
S'9.7'
p929
sg44
S'4.3'
p930
sg46
S'18.2'
p931
sg48
g3
sg49
S'1969-70'
p932
sg51
S'9.7'
p933
sg53
g3
sg54
S'.531'
p934
sg56
S'3091'
p935
sg58
g3
sba(isrc.gp1.models.Per36Minutes
Per36Minutes
p936
(dp937
g8
g3
sg9
g3
sg10
S'.484'
p938
sg12
S'3.0'
p939
sg14
g3
sg15
g3
sg16
S'23.6'
p940
sg18
S'SF'
p941
sg20
S'.759'
p942
sg24
S'NBA'
p943
sg26
g3
sg27
S'19.8'
p944
sg29
S'2.2'
p945
sg31
S'5.8'
p946
sg33
S'4.5'
p947
sg35
S'26'
p948
sg37
S'ATL'
p949
sg39
S'76'
p950
sg41
g3
sg42
S'9.6'
p951
sg44
S'4.4'
p952
sg46
S'19.8'
p953
sg48
g3
sg49
S'1970-71'
p954
sg51
S'9.6'
p955
sg53
g3
sg54
S'.484'
p956
sg56
S'3113'
p957
sg58
g3
sba(isrc.gp1.models.Per36Minutes
Per36Minutes
p958
(dp959
g8
g3
sg9
g3
sg10
S'.503'
p960
sg12
S'3.7'
p961
sg14
g3
sg15
g3
sg16
S'22.5'
p962
sg18
S'SG'
p963
sg20
S'.812'
p964
sg24
S'NBA'
p965
sg26
g3
sg27
S'18.2'
p966
sg29
S'2.7'
p967
sg31
S'5.1'
p968
sg33
S'4.6'
p969
sg35
S'27'
p970
sg37
S'ATL'
p971
sg39
S'77'
p972
sg41
g3
sg42
S'9.2'
p973
sg44
S'4.1'
p974
sg46
S'18.2'
p975
sg48
g3
sg49
S'1971-72'
p976
sg51
S'9.2'
p977
sg53
g3
sg54
S'.503'
p978
sg56
S'3042'
p979
sg58
g3
sba(isrc.gp1.models.Per36Minutes
Per36Minutes
p980
(dp981
g8
g3
sg9
g3
sg10
S'.477'
p982
sg12
S'3.1'
p983
sg14
g3
sg15
g3
sg16
S'24.1'
p984
sg18
S'SF'
p985
sg20
S'.825'
p986
sg24
S'NBA'
p987
sg26
g3
sg27
S'20.3'
p988
sg29
S'2.3'
p989
sg31
S'5.7'
p990
sg33
S'5.6'
p991
sg35
S'28'
p992
sg37
S'ATL'
p993
sg39
S'75'
p994
sg41
g3
sg42
S'9.7'
p995
sg44
S'4.7'
p996
sg46
S'20.3'
p997
sg48
g3
sg49
S'1972-73'
p998
sg51
S'9.7'
p999
sg53
g3
sg54
S'.477'
p1000
sg56
S'3027'
p1001
sg58
g3
sba(isrc.gp1.models.Per36Minutes
Per36Minutes
p1002
(dp1003
g8
S'1.8'
p1004
sg9
g3
sg10
S'.500'
p1005
sg12
S'3.0'
p1006
sg14
g3
sg15
g3
sg16
S'23.0'
p1007
sg18
S'SF'
p1008
sg20
S'.836'
p1009
sg24
S'NBA'
p1010
sg26
S'2.2'
p1011
sg27
S'18.9'
p1012
sg29
S'2.9'
p1013
sg31
S'4.9'
p1014
sg33
S'4.9'
p1015
sg35
S'29'
p1016
sg37
S'ATL'
p1017
sg39
S'65'
p1018
sg41
S'0.4'
p1019
sg42
S'9.4'
p1020
sg44
S'4.1'
p1021
sg46
S'18.9'
p1022
sg48
S'3.1'
p1023
sg49
S'1973-74'
p1024
sg51
S'9.4'
p1025
sg53
g3
sg54
S'.500'
p1026
sg56
S'2588'
p1027
sg58
g3
sba(isrc.gp1.models.Per36Minutes
Per36Minutes
p1028
(dp1029
g8
S'1.3'
p1030
sg9
g3
sg10
S'.431'
p1031
sg12
S'3.8'
p1032
sg14
g3
sg15
g3
sg16
S'22.9'
p1033
sg18
S'SG'
p1034
sg20
S'.842'
p1035
sg24
S'NBA'
p1036
sg26
S'1.2'
p1037
sg27
S'21.3'
p1038
sg29
S'3.1'
p1039
sg31
S'5.4'
p1040
sg33
S'4.5'
p1041
sg35
S'30'
p1042
sg37
S'ATL'
p1043
sg39
S'11'
p1044
sg41
S'0.2'
p1045
sg42
S'9.2'
p1046
sg44
S'4.5'
p1047
sg46
S'21.3'
p1048
sg48
S'3.1'
p1049
sg49
S'1974-75'
p1050
sg51
S'9.2'
p1051
sg53
g3
sg54
S'.431'
p1052
sg56
S'380'
p1053
sg58
g3
sba(isrc.gp1.models.Per36Minutes
Per36Minutes
p1054
(dp1055
g8
S'1.5'
p1056
sg9
g3
sg10
S'.472'
p1057
sg12
S'3.0'
p1058
sg14
g3
sg15
g3
sg16
S'19.4'
p1059
sg18
S'SG'
p1060
sg20
S'.814'
p1061
sg24
S'NBA'
p1062
sg26
S'1.7'
p1063
sg27
S'17.0'
p1064
sg29
S'3.4'
p1065
sg31
S'4.1'
p1066
sg33
S'4.2'
p1067
sg35
S'31'
p1068
sg37
S'ATL'
p1069
sg39
S'81'
p1070
sg41
S'0.2'
p1071
sg42
S'8.0'
p1072
sg44
S'3.3'
p1073
sg46
S'17.0'
p1074
sg48
S'2.8'
p1075
sg49
S'1975-76'
p1076
sg51
S'8.0'
p1077
sg53
g3
sg54
S'.472'
p1078
sg56
S'2558'
p1079
sg58
g3
sba(isrc.gp1.models.Per36Minutes
Per36Minutes
p1080
(dp1081
g8
S'1.0'
p1082
sg9
g3
sg10
S'.456'
p1083
sg12
S'3.2'
p1084
sg14
g3
sg15
g3
sg16
S'20.0'
p1085
sg18
S'SG'
p1086
sg20
S'.840'
p1087
sg24
S'NBA'
p1088
sg26
S'1.4'
p1089
sg27
S'18.7'
p1090
sg29
S'3.3'
p1091
sg31
S'3.5'
p1092
sg33
S'2.7'
p1093
sg35
S'32'
p1094
sg37
S'ATL'
p1095
sg39
S'58'
p1096
sg41
S'0.4'
p1097
sg42
S'8.5'
p1098
sg44
S'2.9'
p1099
sg46
S'18.7'
p1100
sg48
S'1.7'
p1101
sg49
S'1976-77'
p1102
sg51
S'8.5'
p1103
sg53
g3
sg54
S'.456'
p1104
sg56
S'1745'
p1105
sg58
g3
sba(isrc.gp1.models.Per36Minutes
Per36Minutes
p1106
(dp1107
g8
S'1.3'
p1108
sg9
g3
sg10
S'.497'
p1109
sg12
S'3.0'
p1110
sg14
g3
sg15
g3
sg16
S'17.7'
p1111
sg18
S'SG'
p1112
sg20
S'.774'
p1113
sg24
S'NBA'
p1114
sg26
S'1.5'
p1115
sg27
S'15.6'
p1116
sg29
S'3.1'
p1117
sg31
S'2.8'
p1118
sg33
S'3.0'
p1119
sg35
S'33'
p1120
sg37
S'LAL'
p1121
sg39
S'82'
p1122
sg41
S'0.2'
p1123
sg42
S'7.8'
p1124
sg44
S'2.2'
p1125
sg46
S'15.6'
p1126
sg48
S'1.7'
p1127
sg49
S'1977-78'
p1128
sg51
S'7.8'
p1129
sg53
S'2.4'
p1130
sg54
S'.497'
p1131
sg56
S'2283'
p1132
sg58
g3
sba(isrc.gp1.models.Per36Minutes
Per36Minutes
p1133
(dp1134
g8
S'1.4'
p1135
sg9
g3
sg10
S'.517'
p1136
sg12
S'3.0'
p1137
sg14
g3
sg15
g3
sg16
S'16.4'
p1138
sg18
S'SG'
p1139
sg20
S'.887'
p1140
sg24
S'NBA'
p1141
sg26
S'1.2'
p1142
sg27
S'13.6'
p1143
sg29
S'2.8'
p1144
sg31
S'2.6'
p1145
sg33
S'3.0'
p1146
sg35
S'34'
p1147
sg37
S'LAL'
p1148
sg39
S'78'
p1149
sg41
S'0.4'
p1150
sg42
S'7.0'
p1151
sg44
S'2.3'
p1152
sg46
S'13.6'
p1153
sg48
S'1.6'
p1154
sg49
S'1978-79'
p1155
sg51
S'7.0'
p1156
sg53
S'2.1'
p1157
sg54
S'.517'
p1158
sg56
S'1686'
p1159
sg58
g3
sbasS'_fromYear'
p1160
S'1967'
p1161
sS'_url'
p1162
S'http://www.basketball-reference.com/players/h/hudsolo01.html'
p1163
sS'_perGame'
p1164
(isrc.gp1.models.PerGame
PerGame
p1165
(dp1166
g8
S'0.8'
p1167
sg9
g3
sg10
S'.517'
p1168
sS'_effectiveFieldGalPercentage'
p1169
S'.517'
p1170
sg12
S'1.8'
p1171
sg14
g3
sg15
g3
sg16
S'9.8'
p1172
sg18
S'SG'
p1173
sg20
S'.887'
p1174
sg24
S'NBA'
p1175
sg26
S'0.7'
p1176
sg29
S'1.7'
p1177
sS'_fieldGoalsttempted'
p1178
S'8.2'
p1179
sg31
S'1.6'
p1180
sg33
S'1.8'
p1181
sg35
S'34'
p1182
sg37
S'LAL'
p1183
sg39
S'78'
p1184
sg41
S'0.2'
p1185
sg42
S'4.2'
p1186
sg44
S'1.4'
p1187
sg46
S'8.2'
p1188
sg48
S'1.0'
p1189
sg49
S'1978-79'
p1190
sg51
S'4.2'
p1191
sg53
S'1.3'
p1192
sg54
S'.517'
p1193
sg56
S'21.6'
p1194
sg58
g3
sbsS'_weight'
p1195
S'210'
p1196
sS'_dob'
p1197
S'11-7-1944'
p1198
sS'_salary'
p1199
(lp1200
sg18
S'F-G'
p1201
sb.