(isrc.gp1.models.Player
Player
p0
(dp1
S'_experience'
p2
S'NA'
p3
sS'_totals'
p4
(lp5
(isrc.gp1.models.Totals
Totals
p6
(dp7
S'_offensiveRebounds'
p8
S'83'
p9
sS'_threePointsAttempted'
p10
S'52'
p11
sS'_fieldGoalsPercentage'
p12
S'.411'
p13
sS'_assist'
p14
S'77'
p15
sS'_threePointsPercentage'
p16
S'.154'
p17
sS'_threePoints'
p18
S'8'
p19
sS'_points'
p20
S'455'
p21
sS'_position'
p22
S'PG'
p23
sS'_freeThrowsPercentage'
p24
S'.709'
p25
sS'_effectiveFieldGoalPercentage'
p26
S'.420'
p27
sS'_league'
p28
S'NBA'
p29
sS'_steals'
p30
S'44'
p31
sS'_fieldGoalsAttempted'
p32
S'414'
p33
sS'_personalFouls'
p34
S'97'
p35
sS'_freeThrowsAttempted'
p36
S'151'
p37
sS'_totalRebounds'
p38
S'189'
p39
sS'_age'
p40
S'20'
p41
sS'_team'
p42
S'PHI'
p43
sS'_games'
p44
S'50'
p45
sS'_blocks'
p46
S'14'
p47
sS'_twoPoints'
p48
S'162'
p49
sS'_freeThrows'
p50
S'107'
p51
sS'_twoPointsAttempted'
p52
S'362'
p53
sS'_defensiveRebounds'
p54
S'106'
p55
sS'_season'
p56
S'1998-99'
p57
sS'_fieldGoals'
p58
S'170'
p59
sS'_turnOvers'
p60
S'68'
p61
sS'_twoPointsPercentage'
p62
S'.448'
p63
sS'_minutesPlayed'
p64
S'988'
p65
sS'_gamesStarted'
p66
S'1'
p67
sba(isrc.gp1.models.Totals
Totals
p68
(dp69
g8
S'113'
p70
sg10
S'125'
p71
sg12
S'.400'
p72
sg14
S'205'
p73
sg16
S'.232'
p74
sg18
S'29'
p75
sg20
S'1226'
p76
sg22
S'SG'
p77
sg24
S'.740'
p78
sg26
S'.413'
p79
sg28
S'NBA'
p80
sg30
S'115'
p81
sg32
S'1147'
p82
sg34
S'191'
p83
sg36
S'377'
p84
sg38
S'349'
p85
sg40
S'21'
p86
sg42
S'TOT'
p87
sg44
S'82'
p88
sg46
S'28'
p89
sg48
S'430'
p90
sg50
S'279'
p91
sg52
S'1022'
p92
sg54
S'236'
p93
sg56
S'1999-00'
p94
sg58
S'459'
p95
sg60
S'195'
p96
sg62
S'.421'
p97
sg64
S'2324'
p98
sg66
S'37'
p99
sba(isrc.gp1.models.Totals
Totals
p100
(dp101
g8
S'52'
p102
sg10
S'51'
p103
sg12
S'.416'
p104
sg14
S'75'
p105
sg16
S'.216'
p106
sg18
S'11'
p107
sg20
S'501'
p108
sg22
S'SG'
p109
sg24
S'.746'
p110
sg26
S'.428'
p111
sg28
S'NBA'
p112
sg30
S'54'
p113
sg32
S'461'
p114
sg34
S'94'
p115
sg36
S'142'
p116
sg38
S'159'
p117
sg40
S'21'
p118
sg42
S'PHI'
p119
sg44
S'50'
p120
sg46
S'12'
p121
sg48
S'181'
p122
sg50
S'106'
p123
sg52
S'410'
p124
sg54
S'107'
p125
sg56
S'1999-00'
p126
sg58
S'192'
p127
sg60
S'95'
p128
sg62
S'.441'
p129
sg64
S'1018'
p130
sg66
S'5'
p131
sba(isrc.gp1.models.Totals
Totals
p132
(dp133
g8
S'61'
p134
sg10
S'74'
p135
sg12
S'.389'
p136
sg14
S'130'
p137
sg16
S'.243'
p138
sg18
S'18'
p139
sg20
S'725'
p140
sg22
S'SG'
p141
sg24
S'.736'
p142
sg26
S'.402'
p143
sg28
S'NBA'
p144
sg30
S'61'
p145
sg32
S'686'
p146
sg34
S'97'
p147
sg36
S'235'
p148
sg38
S'190'
p149
sg40
S'21'
p150
sg42
S'GSW'
p151
sg44
S'32'
p152
sg46
S'16'
p153
sg48
S'249'
p154
sg50
S'173'
p155
sg52
S'612'
p156
sg54
S'129'
p157
sg56
S'1999-00'
p158
sg58
S'267'
p159
sg60
S'100'
p160
sg62
S'.407'
p161
sg64
S'1306'
p162
sg66
S'32'
p163
sba(isrc.gp1.models.Totals
Totals
p164
(dp165
g8
S'76'
p166
sg10
S'75'
p167
sg12
S'.383'
p168
sg14
S'223'
p169
sg16
S'.187'
p170
sg18
S'14'
p171
sg20
S'823'
p172
sg22
S'SG'
p173
sg24
S'.766'
p174
sg26
S'.391'
p175
sg28
S'NBA'
p176
sg30
S'96'
p177
sg32
S'805'
p178
sg34
S'147'
p179
sg36
S'252'
p180
sg38
S'276'
p181
sg40
S'22'
p182
sg42
S'GSW'
p183
sg44
S'50'
p184
sg46
S'29'
p185
sg48
S'294'
p186
sg50
S'193'
p187
sg52
S'730'
p188
sg54
S'200'
p189
sg56
S'2000-01'
p190
sg58
S'308'
p191
sg60
S'152'
p192
sg62
S'.403'
p193
sg64
S'1846'
p194
sg66
S'45'
p195
sba(isrc.gp1.models.Totals
Totals
p196
(dp197
g8
S'83'
p198
sg10
S'93'
p199
sg12
S'.423'
p200
sg14
S'316'
p201
sg16
S'.194'
p202
sg18
S'18'
p203
sg20
S'895'
p204
sg22
S'SG'
p205
sg24
S'.737'
p206
sg26
S'.435'
p207
sg28
S'NBA'
p208
sg30
S'113'
p209
sg32
S'810'
p210
sg34
S'150'
p211
sg36
S'259'
p212
sg38
S'245'
p213
sg40
S'23'
p214
sg42
S'GSW'
p215
sg44
S'73'
p216
sg46
S'23'
p217
sg48
S'325'
p218
sg50
S'191'
p219
sg52
S'717'
p220
sg54
S'162'
p221
sg56
S'2001-02'
p222
sg58
S'343'
p223
sg60
S'171'
p224
sg62
S'.453'
p225
sg64
S'2049'
p226
sg66
S'56'
p227
sba(isrc.gp1.models.Totals
Totals
p228
(dp229
g8
S'67'
p230
sg10
S'79'
p231
sg12
S'.467'
p232
sg14
S'205'
p233
sg16
S'.367'
p234
sg18
S'29'
p235
sg20
S'857'
p236
sg22
S'PG'
p237
sg24
S'.731'
p238
sg26
S'.487'
p239
sg28
S'NBA'
p240
sg30
S'86'
p241
sg32
S'741'
p242
sg34
S'149'
p243
sg36
S'186'
p244
sg38
S'308'
p245
sg40
S'24'
p246
sg42
S'WAS'
p247
sg44
S'67'
p248
sg46
S'24'
p249
sg48
S'317'
p250
sg50
S'136'
p251
sg52
S'662'
p252
sg54
S'241'
p253
sg56
S'2002-03'
p254
sg58
S'346'
p255
sg60
S'136'
p256
sg62
S'.479'
p257
sg64
S'2137'
p258
sg66
S'56'
p259
sba(isrc.gp1.models.Totals
Totals
p260
(dp261
g8
S'96'
p262
sg10
S'232'
p263
sg12
S'.397'
p264
sg14
S'148'
p265
sg16
S'.341'
p266
sg18
S'79'
p267
sg20
S'1148'
p268
sg22
S'SG'
p269
sg24
S'.797'
p270
sg26
S'.437'
p271
sg28
S'NBA'
p272
sg30
S'95'
p273
sg32
S'1009'
p274
sg34
S'147'
p275
sg36
S'335'
p276
sg38
S'326'
p277
sg40
S'25'
p278
sg42
S'WAS'
p279
sg44
S'61'
p280
sg46
S'26'
p281
sg48
S'322'
p282
sg50
S'267'
p283
sg52
S'777'
p284
sg54
S'230'
p285
sg56
S'2003-04'
p286
sg58
S'401'
p287
sg60
S'152'
p288
sg62
S'.414'
p289
sg64
S'2061'
p290
sg66
S'61'
p291
sba(isrc.gp1.models.Totals
Totals
p292
(dp293
g8
S'74'
p294
sg10
S'209'
p295
sg12
S'.430'
p296
sg14
S'285'
p297
sg16
S'.282'
p298
sg18
S'59'
p299
sg20
S'1345'
p300
sg22
S'SG'
p301
sg24
S'.777'
p302
sg26
S'.457'
p303
sg28
S'NBA'
p304
sg30
S'176'
p305
sg32
S'1086'
p306
sg34
S'168'
p307
sg36
S'453'
p308
sg38
S'382'
p309
sg40
S'26'
p310
sg42
S'WAS'
p311
sg44
S'61'
p312
sg46
S'18'
p313
sg48
S'408'
p314
sg50
S'352'
p315
sg52
S'877'
p316
sg54
S'308'
p317
sg56
S'2004-05'
p318
sg58
S'467'
p319
sg60
S'153'
p320
sg62
S'.465'
p321
sg64
S'2358'
p322
sg66
S'61'
p323
sba(isrc.gp1.models.Totals
Totals
p324
(dp325
g8
S'26'
p326
sg10
S'76'
p327
sg12
S'.409'
p328
sg14
S'131'
p329
sg16
S'.368'
p330
sg18
S'28'
p331
sg20
S'558'
p332
sg22
S'SG'
p333
sg24
S'.756'
p334
sg26
S'.439'
p335
sg28
S'NBA'
p336
sg30
S'53'
p337
sg32
S'469'
p338
sg34
S'117'
p339
sg36
S'193'
p340
sg38
S'161'
p341
sg40
S'27'
p342
sg42
S'CLE'
p343
sg44
S'36'
p344
sg46
S'21'
p345
sg48
S'164'
p346
sg50
S'146'
p347
sg52
S'393'
p348
sg54
S'135'
p349
sg56
S'2005-06'
p350
sg58
S'192'
p351
sg60
S'99'
p352
sg62
S'.417'
p353
sg64
S'1281'
p354
sg66
S'31'
p355
sba(isrc.gp1.models.Totals
Totals
p356
(dp357
g8
S'41'
p358
sg10
S'222'
p359
sg12
S'.400'
p360
sg14
S'256'
p361
sg16
S'.333'
p362
sg18
S'74'
p363
sg20
S'1045'
p364
sg22
S'SG'
p365
sg24
S'.676'
p366
sg26
S'.439'
p367
sg28
S'NBA'
p368
sg30
S'89'
p369
sg32
S'953'
p370
sg34
S'164'
p371
sg36
S'309'
p372
sg38
S'267'
p373
sg40
S'28'
p374
sg42
S'CLE'
p375
sg44
S'70'
p376
sg46
S'26'
p377
sg48
S'307'
p378
sg50
S'209'
p379
sg52
S'731'
p380
sg54
S'226'
p381
sg56
S'2006-07'
p382
sg58
S'381'
p383
sg60
S'154'
p384
sg62
S'.420'
p385
sg64
S'2596'
p386
sg66
S'68'
p387
sba(isrc.gp1.models.Totals
Totals
p388
(dp389
g8
S'39'
p390
sg10
S'194'
p391
sg12
S'.381'
p392
sg14
S'181'
p393
sg16
S'.345'
p394
sg18
S'67'
p395
sg20
S'827'
p396
sg22
S'PG-SG'
p397
sg24
S'.798'
p398
sg26
S'.423'
p399
sg28
S'NBA'
p400
sg30
S'99'
p401
sg32
S'801'
p402
sg34
S'139'
p403
sg36
S'188'
p404
sg38
S'230'
p405
sg40
S'29'
p406
sg42
S'TOT'
p407
sg44
S'68'
p408
sg46
S'17'
p409
sg48
S'238'
p410
sg50
S'150'
p411
sg52
S'607'
p412
sg54
S'191'
p413
sg56
S'2007-08'
p414
sg58
S'305'
p415
sg60
S'116'
p416
sg62
S'.392'
p417
sg64
S'2020'
p418
sg66
S'57'
p419
sba(isrc.gp1.models.Totals
Totals
p420
(dp421
g8
S'27'
p422
sg10
S'126'
p423
sg12
S'.377'
p424
sg14
S'94'
p425
sg16
S'.341'
p426
sg18
S'43'
p427
sg20
S'491'
p428
sg22
S'PG'
p429
sg24
S'.815'
p430
sg26
S'.422'
p431
sg28
S'NBA'
p432
sg30
S'60'
p433
sg32
S'478'
p434
sg34
S'91'
p435
sg36
S'108'
p436
sg38
S'143'
p437
sg40
S'29'
p438
sg42
S'CLE'
p439
sg44
S'40'
p440
sg46
S'11'
p441
sg48
S'137'
p442
sg50
S'88'
p443
sg52
S'352'
p444
sg54
S'116'
p445
sg56
S'2007-08'
p446
sg58
S'180'
p447
sg60
S'72'
p448
sg62
S'.389'
p449
sg64
S'1210'
p450
sg66
S'32'
p451
sba(isrc.gp1.models.Totals
Totals
p452
(dp453
g8
S'12'
p454
sg10
S'68'
p455
sg12
S'.387'
p456
sg14
S'87'
p457
sg16
S'.353'
p458
sg18
S'24'
p459
sg20
S'336'
p460
sg22
S'SG'
p461
sg24
S'.775'
p462
sg26
S'.424'
p463
sg28
S'NBA'
p464
sg30
S'39'
p465
sg32
S'323'
p466
sg34
S'48'
p467
sg36
S'80'
p468
sg38
S'87'
p469
sg40
S'29'
p470
sg42
S'CHI'
p471
sg44
S'28'
p472
sg46
S'6'
p473
sg48
S'101'
p474
sg50
S'62'
p475
sg52
S'255'
p476
sg54
S'75'
p477
sg56
S'2007-08'
p478
sg58
S'125'
p479
sg60
S'44'
p480
sg62
S'.396'
p481
sg64
S'810'
p482
sg66
S'25'
p483
sba(isrc.gp1.models.Totals
Totals
p484
(dp485
g8
S'16'
p486
sg10
S'193'
p487
sg12
S'.402'
p488
sg14
S'119'
p489
sg16
S'.389'
p490
sg18
S'75'
p491
sg20
S'640'
p492
sg22
S'SF-SG'
p493
sg24
S'.807'
p494
sg26
S'.469'
p495
sg28
S'NBA'
p496
sg30
S'72'
p497
sg32
S'557'
p498
sg34
S'96'
p499
sg36
S'145'
p500
sg38
S'159'
p501
sg40
S'30'
p502
sg42
S'TOT'
p503
sg44
S'55'
p504
sg46
S'14'
p505
sg48
S'149'
p506
sg50
S'117'
p507
sg52
S'364'
p508
sg54
S'143'
p509
sg56
S'2008-09'
p510
sg58
S'224'
p511
sg60
S'71'
p512
sg62
S'.409'
p513
sg64
S'1479'
p514
sg66
S'20'
p515
sba(isrc.gp1.models.Totals
Totals
p516
(dp517
g8
g473
sg10
S'102'
p518
sg12
S'.412'
p519
sg14
S'59'
p520
sg16
S'.392'
p521
sg18
S'40'
p522
sg20
S'361'
p523
sg22
S'SF'
p524
sg24
S'.817'
p525
sg26
S'.477'
p526
sg28
S'NBA'
p527
sg30
S'36'
p528
sg32
S'308'
p529
sg34
S'51'
p530
sg36
S'82'
p531
sg38
S'94'
p532
sg40
S'30'
p533
sg42
S'CHI'
p534
sg44
S'30'
p535
sg46
S'9'
p536
sg48
S'87'
p537
sg50
S'67'
p538
sg52
S'206'
p539
sg54
S'88'
p540
sg56
S'2008-09'
p541
sg58
S'127'
p542
sg60
S'36'
p543
sg62
S'.422'
p544
sg64
S'792'
p545
sg66
g473
sba(isrc.gp1.models.Totals
Totals
p546
(dp547
g8
S'10'
p548
sg10
S'91'
p549
sg12
S'.390'
p550
sg14
S'60'
p551
sg16
S'.385'
p552
sg18
S'35'
p553
sg20
S'279'
p554
sg22
S'SG'
p555
sg24
S'.794'
p556
sg26
S'.460'
p557
sg28
S'NBA'
p558
sg30
S'36'
p559
sg32
S'249'
p560
sg34
S'45'
p561
sg36
S'63'
p562
sg38
S'65'
p563
sg40
S'30'
p564
sg42
S'NYK'
p565
sg44
S'25'
p566
sg46
g131
sg48
S'62'
p567
sg50
S'50'
p568
sg52
S'158'
p569
sg54
S'55'
p570
sg56
S'2008-09'
p571
sg58
S'97'
p572
sg60
S'35'
p573
sg62
S'.392'
p574
sg64
S'687'
p575
sg66
S'14'
p576
sba(isrc.gp1.models.Totals
Totals
p577
(dp578
g8
S'23'
p579
sg10
S'139'
p580
sg12
S'.355'
p581
sg14
S'137'
p582
sg16
S'.309'
p583
sg18
S'43'
p584
sg20
S'411'
p585
sg22
S'SG'
p586
sg24
S'.832'
p587
sg26
S'.411'
p588
sg28
S'NBA'
p589
sg30
S'52'
p590
sg32
S'386'
p591
sg34
S'70'
p592
sg36
S'113'
p593
sg38
S'142'
p594
sg40
S'31'
p595
sg42
S'TOT'
p596
sg44
S'45'
p597
sg46
S'15'
p598
sg48
S'94'
p599
sg50
S'94'
p600
sg52
S'247'
p601
sg54
S'119'
p602
sg56
S'2009-10'
p603
sg58
S'137'
p604
sg60
S'75'
p605
sg62
S'.381'
p606
sg64
S'1115'
p607
sg66
S'16'
p608
sba(isrc.gp1.models.Totals
Totals
p609
(dp610
g8
S'16'
p611
sg10
S'97'
p612
sg12
S'.366'
p613
sg14
S'109'
p614
sg16
S'.289'
p615
sg18
S'28'
p616
sg20
S'297'
p617
sg22
S'SG'
p618
sg24
S'.823'
p619
sg26
S'.416'
p620
sg28
S'NBA'
p621
sg30
S'40'
p622
sg32
S'279'
p623
sg34
S'53'
p624
sg36
S'79'
p625
sg38
S'110'
p626
sg40
S'31'
p627
sg42
S'NYK'
p628
sg44
S'31'
p629
sg46
S'11'
p630
sg48
S'74'
p631
sg50
S'65'
p632
sg52
S'182'
p633
sg54
S'94'
p634
sg56
S'2009-10'
p635
sg58
S'102'
p636
sg60
S'56'
p637
sg62
S'.407'
p638
sg64
S'820'
p639
sg66
S'14'
p640
sba(isrc.gp1.models.Totals
Totals
p641
(dp642
g8
S'7'
p643
sg10
S'42'
p644
sg12
S'.327'
p645
sg14
S'28'
p646
sg16
S'.357'
p647
sg18
S'15'
p648
sg20
S'114'
p649
sg22
S'SG'
p650
sg24
S'.853'
p651
sg26
S'.397'
p652
sg28
S'NBA'
p653
sg30
S'12'
p654
sg32
S'107'
p655
sg34
S'17'
p656
sg36
S'34'
p657
sg38
S'32'
p658
sg40
S'31'
p659
sg42
S'CHA'
p660
sg44
S'14'
p661
sg46
S'4'
p662
sg48
S'20'
p663
sg50
S'29'
p664
sg52
S'65'
p665
sg54
S'25'
p666
sg56
S'2009-10'
p667
sg58
S'35'
p668
sg60
S'19'
p669
sg62
S'.308'
p670
sg64
S'295'
p671
sg66
S'2'
p672
sba(isrc.gp1.models.Totals
Totals
p673
(dp674
g8
g3
sg10
g3
sg12
g3
sg14
g3
sg16
g3
sg18
g3
sg20
g3
sg22
g3
sg24
g3
sg26
g3
sg28
g3
sg30
g3
sg32
g3
sg34
g3
sg36
g3
sg38
g3
sg40
S'32'
p675
sg42
S'Did Not Play'
p676
sg44
g3
sg46
g3
sg48
g3
sg50
g3
sg52
g3
sg54
g3
sg56
S'2010-11'
p677
sg58
g3
sg60
g3
sg62
g3
sg64
g3
sg66
g3
sba(isrc.gp1.models.Totals
Totals
p678
(dp679
g8
g67
sg10
g643
sg12
S'.227'
p680
sg14
g643
sg16
S'.143'
p681
sg18
g67
sg20
S'12'
p682
sg22
S'PG'
p683
sg24
S'.500'
p684
sg26
S'.250'
p685
sg28
S'NBA'
p686
sg30
g672
sg32
S'22'
p687
sg34
S'10'
p688
sg36
g672
sg38
g131
sg40
S'33'
p689
sg42
S'ORL'
p690
sg44
g536
sg46
S'0'
p691
sg48
g662
sg50
g67
sg52
S'15'
p692
sg54
g662
sg56
S'2011-12'
p693
sg58
g131
sg60
S'12'
p694
sg62
S'.267'
p695
sg64
S'114'
p696
sg66
g691
sbasS'_college'
p697
S'Saint Louis University'
p698
sS'_toYear'
p699
S'2012'
p700
sS'_height'
p701
S'6-5'
p702
sS'_active'
p703
I00
sS'_shootingHand'
p704
VRight
p705
sS'_name'
p706
S'Larry Hughes'
p707
sS'_per100Possessions'
p708
(lp709
(isrc.gp1.models.Per100Possession
Per100Possession
p710
(dp711
g8
S'4.6'
p712
sg10
S'2.9'
p713
sg12
S'.411'
p714
sS'_offensiveRating'
p715
S'100'
p716
sg14
S'4.2'
p717
sg16
S'.154'
p718
sg18
S'0.4'
p719
sg20
S'24.9'
p720
sg22
S'PG'
p721
sS'_defensiveRating'
p722
S'99'
p723
sg24
S'.709'
p724
sg28
S'NBA'
p725
sg30
S'2.4'
p726
sg32
S'22.7'
p727
sg34
S'5.3'
p728
sg36
S'8.3'
p729
sg38
S'10.4'
p730
sg40
S'20'
p731
sg42
S'PHI'
p732
sg44
S'50'
p733
sg46
S'0.8'
p734
sg48
S'8.9'
p735
sg50
S'5.9'
p736
sg52
S'19.8'
p737
sg54
S'5.8'
p738
sg56
S'1998-99'
p739
sg58
S'9.3'
p740
sg60
S'3.7'
p741
sg62
S'.448'
p742
sg64
S'988'
p743
sg66
g67
sba(isrc.gp1.models.Per100Possession
Per100Possession
p744
(dp745
g8
S'2.5'
p746
sg10
S'2.7'
p747
sg12
S'.400'
p748
sg715
S'95'
p749
sg14
S'4.5'
p750
sg16
S'.232'
p751
sg18
S'0.6'
p752
sg20
S'26.9'
p753
sg22
S'SG'
p754
sg722
S'105'
p755
sg24
S'.740'
p756
sg28
S'NBA'
p757
sg30
S'2.5'
p758
sg32
S'25.1'
p759
sg34
S'4.2'
p760
sg36
S'8.3'
p761
sg38
S'7.7'
p762
sg40
S'21'
p763
sg42
S'TOT'
p764
sg44
S'82'
p765
sg46
S'0.6'
p766
sg48
S'9.4'
p767
sg50
S'6.1'
p768
sg52
S'22.4'
p769
sg54
S'5.2'
p770
sg56
S'1999-00'
p771
sg58
S'10.1'
p772
sg60
S'4.3'
p773
sg62
S'.421'
p774
sg64
S'2324'
p775
sg66
S'37'
p776
sba(isrc.gp1.models.Per100Possession
Per100Possession
p777
(dp778
g8
S'2.6'
p779
sg10
S'2.6'
p780
sg12
S'.416'
p781
sg715
S'93'
p782
sg14
S'3.8'
p783
sg16
S'.216'
p784
sg18
S'0.6'
p785
sg20
S'25.5'
p786
sg22
S'SG'
p787
sg722
S'100'
p788
sg24
S'.746'
p789
sg28
S'NBA'
p790
sg30
S'2.7'
p791
sg32
S'23.5'
p792
sg34
S'4.8'
p793
sg36
S'7.2'
p794
sg38
S'8.1'
p795
sg40
S'21'
p796
sg42
S'PHI'
p797
sg44
S'50'
p798
sg46
S'0.6'
p799
sg48
S'9.2'
p800
sg50
S'5.4'
p801
sg52
S'20.9'
p802
sg54
S'5.4'
p803
sg56
S'1999-00'
p804
sg58
S'9.8'
p805
sg60
S'4.8'
p806
sg62
S'.441'
p807
sg64
S'1018'
p808
sg66
g131
sba(isrc.gp1.models.Per100Possession
Per100Possession
p809
(dp810
g8
S'2.3'
p811
sg10
S'2.9'
p812
sg12
S'.389'
p813
sg715
S'96'
p814
sg14
S'5.0'
p815
sg16
S'.243'
p816
sg18
S'0.7'
p817
sg20
S'27.9'
p818
sg22
S'SG'
p819
sg722
S'109'
p820
sg24
S'.736'
p821
sg28
S'NBA'
p822
sg30
S'2.3'
p823
sg32
S'26.4'
p824
sg34
S'3.7'
p825
sg36
S'9.1'
p826
sg38
S'7.3'
p827
sg40
S'21'
p828
sg42
S'GSW'
p829
sg44
S'32'
p830
sg46
S'0.6'
p831
sg48
S'9.6'
p832
sg50
S'6.7'
p833
sg52
S'23.6'
p834
sg54
S'5.0'
p835
sg56
S'1999-00'
p836
sg58
S'10.3'
p837
sg60
S'3.9'
p838
sg62
S'.407'
p839
sg64
S'1306'
p840
sg66
S'32'
p841
sba(isrc.gp1.models.Per100Possession
Per100Possession
p842
(dp843
g8
S'2.1'
p844
sg10
S'2.1'
p845
sg12
S'.383'
p846
sg715
S'93'
p847
sg14
S'6.2'
p848
sg16
S'.187'
p849
sg18
S'0.4'
p850
sg20
S'22.7'
p851
sg22
S'SG'
p852
sg722
S'107'
p853
sg24
S'.766'
p854
sg28
S'NBA'
p855
sg30
S'2.7'
p856
sg32
S'22.2'
p857
sg34
S'4.1'
p858
sg36
S'7.0'
p859
sg38
S'7.6'
p860
sg40
S'22'
p861
sg42
S'GSW'
p862
sg44
S'50'
p863
sg46
S'0.8'
p864
sg48
S'8.1'
p865
sg50
S'5.3'
p866
sg52
S'20.2'
p867
sg54
S'5.5'
p868
sg56
S'2000-01'
p869
sg58
S'8.5'
p870
sg60
S'4.2'
p871
sg62
S'.403'
p872
sg64
S'1846'
p873
sg66
S'45'
p874
sba(isrc.gp1.models.Per100Possession
Per100Possession
p875
(dp876
g8
S'2.1'
p877
sg10
S'2.3'
p878
sg12
S'.423'
p879
sg715
S'101'
p880
sg14
S'7.8'
p881
sg16
S'.194'
p882
sg18
S'0.4'
p883
sg20
S'22.2'
p884
sg22
S'SG'
p885
sg722
S'109'
p886
sg24
S'.737'
p887
sg28
S'NBA'
p888
sg30
S'2.8'
p889
sg32
S'20.1'
p890
sg34
S'3.7'
p891
sg36
S'6.4'
p892
sg38
S'6.1'
p893
sg40
S'23'
p894
sg42
S'GSW'
p895
sg44
S'73'
p896
sg46
S'0.6'
p897
sg48
S'8.1'
p898
sg50
S'4.7'
p899
sg52
S'17.8'
p900
sg54
S'4.0'
p901
sg56
S'2001-02'
p902
sg58
S'8.5'
p903
sg60
S'4.2'
p904
sg62
S'.453'
p905
sg64
S'2049'
p906
sg66
S'56'
p907
sba(isrc.gp1.models.Per100Possession
Per100Possession
p908
(dp909
g8
S'1.7'
p910
sg10
S'2.0'
p911
sg12
S'.467'
p912
sg715
S'101'
p913
sg14
S'5.2'
p914
sg16
S'.367'
p915
sg18
S'0.7'
p916
sg20
S'21.8'
p917
sg22
S'PG'
p918
sg722
S'104'
p919
sg24
S'.731'
p920
sg28
S'NBA'
p921
sg30
S'2.2'
p922
sg32
S'18.9'
p923
sg34
S'3.8'
p924
sg36
S'4.7'
p925
sg38
S'7.8'
p926
sg40
S'24'
p927
sg42
S'WAS'
p928
sg44
S'67'
p929
sg46
S'0.6'
p930
sg48
S'8.1'
p931
sg50
S'3.5'
p932
sg52
S'16.9'
p933
sg54
S'6.1'
p934
sg56
S'2002-03'
p935
sg58
S'8.8'
p936
sg60
S'3.5'
p937
sg62
S'.479'
p938
sg64
S'2137'
p939
sg66
S'56'
p940
sba(isrc.gp1.models.Per100Possession
Per100Possession
p941
(dp942
g8
S'2.4'
p943
sg10
S'5.9'
p944
sg12
S'.397'
p945
sg715
S'101'
p946
sg14
S'3.7'
p947
sg16
S'.341'
p948
sg18
S'2.0'
p949
sg20
S'29.0'
p950
sg22
S'SG'
p951
sg722
S'105'
p952
sg24
S'.797'
p953
sg28
S'NBA'
p954
sg30
S'2.4'
p955
sg32
S'25.5'
p956
sg34
S'3.7'
p957
sg36
S'8.5'
p958
sg38
S'8.2'
p959
sg40
S'25'
p960
sg42
S'WAS'
p961
sg44
S'61'
p962
sg46
S'0.7'
p963
sg48
S'8.1'
p964
sg50
S'6.7'
p965
sg52
S'19.6'
p966
sg54
S'5.8'
p967
sg56
S'2003-04'
p968
sg58
S'10.1'
p969
sg60
S'3.8'
p970
sg62
S'.414'
p971
sg64
S'2061'
p972
sg66
S'61'
p973
sba(isrc.gp1.models.Per100Possession
Per100Possession
p974
(dp975
g8
S'1.6'
p976
sg10
S'4.6'
p977
sg12
S'.430'
p978
sg715
S'110'
p979
sg14
S'6.2'
p980
sg16
S'.282'
p981
sg18
S'1.3'
p982
sg20
S'29.3'
p983
sg22
S'SG'
p984
sg722
S'104'
p985
sg24
S'.777'
p986
sg28
S'NBA'
p987
sg30
S'3.8'
p988
sg32
S'23.7'
p989
sg34
S'3.7'
p990
sg36
S'9.9'
p991
sg38
S'8.3'
p992
sg40
S'26'
p993
sg42
S'WAS'
p994
sg44
S'61'
p995
sg46
S'0.4'
p996
sg48
S'8.9'
p997
sg50
S'7.7'
p998
sg52
S'19.1'
p999
sg54
S'6.7'
p1000
sg56
S'2004-05'
p1001
sg58
S'10.2'
p1002
sg60
S'3.3'
p1003
sg62
S'.465'
p1004
sg64
S'2358'
p1005
sg66
S'61'
p1006
sba(isrc.gp1.models.Per100Possession
Per100Possession
p1007
(dp1008
g8
S'1.1'
p1009
sg10
S'3.2'
p1010
sg12
S'.409'
p1011
sg715
S'99'
p1012
sg14
S'5.5'
p1013
sg16
S'.368'
p1014
sg18
S'1.2'
p1015
sg20
S'23.3'
p1016
sg22
S'SG'
p1017
sg722
S'105'
p1018
sg24
S'.756'
p1019
sg28
S'NBA'
p1020
sg30
S'2.2'
p1021
sg32
S'19.6'
p1022
sg34
S'4.9'
p1023
sg36
S'8.1'
p1024
sg38
S'6.7'
p1025
sg40
S'27'
p1026
sg42
S'CLE'
p1027
sg44
S'36'
p1028
sg46
S'0.9'
p1029
sg48
S'6.8'
p1030
sg50
S'6.1'
p1031
sg52
S'16.4'
p1032
sg54
S'5.6'
p1033
sg56
S'2005-06'
p1034
sg58
S'8.0'
p1035
sg60
S'4.1'
p1036
sg62
S'.417'
p1037
sg64
S'1281'
p1038
sg66
S'31'
p1039
sba(isrc.gp1.models.Per100Possession
Per100Possession
p1040
(dp1041
g8
S'0.8'
p1042
sg10
S'4.5'
p1043
sg12
S'.400'
p1044
sg715
S'98'
p1045
sg14
S'5.2'
p1046
sg16
S'.333'
p1047
sg18
S'1.5'
p1048
sg20
S'21.3'
p1049
sg22
S'SG'
p1050
sg722
S'103'
p1051
sg24
S'.676'
p1052
sg28
S'NBA'
p1053
sg30
S'1.8'
p1054
sg32
S'19.4'
p1055
sg34
S'3.3'
p1056
sg36
S'6.3'
p1057
sg38
S'5.4'
p1058
sg40
S'28'
p1059
sg42
S'CLE'
p1060
sg44
S'70'
p1061
sg46
S'0.5'
p1062
sg48
S'6.3'
p1063
sg50
S'4.3'
p1064
sg52
S'14.9'
p1065
sg54
S'4.6'
p1066
sg56
S'2006-07'
p1067
sg58
S'7.8'
p1068
sg60
S'3.1'
p1069
sg62
S'.420'
p1070
sg64
S'2596'
p1071
sg66
S'68'
p1072
sba(isrc.gp1.models.Per100Possession
Per100Possession
p1073
(dp1074
g8
S'1.0'
p1075
sg10
S'5.0'
p1076
sg12
S'.381'
p1077
sg715
S'97'
p1078
sg14
S'4.7'
p1079
sg16
S'.345'
p1080
sg18
S'1.7'
p1081
sg20
S'21.5'
p1082
sg22
S'PG-SG'
p1083
sg722
S'107'
p1084
sg24
S'.798'
p1085
sg28
S'NBA'
p1086
sg30
S'2.6'
p1087
sg32
S'20.8'
p1088
sg34
S'3.6'
p1089
sg36
S'4.9'
p1090
sg38
S'6.0'
p1091
sg40
S'29'
p1092
sg42
S'TOT'
p1093
sg44
S'68'
p1094
sg46
S'0.4'
p1095
sg48
S'6.2'
p1096
sg50
S'3.9'
p1097
sg52
S'15.8'
p1098
sg54
S'5.0'
p1099
sg56
S'2007-08'
p1100
sg58
S'7.9'
p1101
sg60
S'3.0'
p1102
sg62
S'.392'
p1103
sg64
S'2020'
p1104
sg66
S'57'
p1105
sba(isrc.gp1.models.Per100Possession
Per100Possession
p1106
(dp1107
g8
S'1.2'
p1108
sg10
S'5.5'
p1109
sg12
S'.377'
p1110
sg715
S'96'
p1111
sg14
S'4.1'
p1112
sg16
S'.341'
p1113
sg18
S'1.9'
p1114
sg20
S'21.6'
p1115
sg22
S'PG'
p1116
sg722
S'106'
p1117
sg24
S'.815'
p1118
sg28
S'NBA'
p1119
sg30
S'2.6'
p1120
sg32
S'21.0'
p1121
sg34
S'4.0'
p1122
sg36
S'4.8'
p1123
sg38
S'6.3'
p1124
sg40
S'29'
p1125
sg42
S'CLE'
p1126
sg44
S'40'
p1127
sg46
S'0.5'
p1128
sg48
S'6.0'
p1129
sg50
S'3.9'
p1130
sg52
S'15.5'
p1131
sg54
S'5.1'
p1132
sg56
S'2007-08'
p1133
sg58
S'7.9'
p1134
sg60
S'3.2'
p1135
sg62
S'.389'
p1136
sg64
S'1210'
p1137
sg66
S'32'
p1138
sba(isrc.gp1.models.Per100Possession
Per100Possession
p1139
(dp1140
g8
S'0.8'
p1141
sg10
S'4.3'
p1142
sg12
S'.387'
p1143
sg715
S'98'
p1144
sg14
S'5.5'
p1145
sg16
S'.353'
p1146
sg18
S'1.5'
p1147
sg20
S'21.4'
p1148
sg22
S'SG'
p1149
sg722
S'108'
p1150
sg24
S'.775'
p1151
sg28
S'NBA'
p1152
sg30
S'2.5'
p1153
sg32
S'20.6'
p1154
sg34
S'3.1'
p1155
sg36
S'5.1'
p1156
sg38
S'5.5'
p1157
sg40
S'29'
p1158
sg42
S'CHI'
p1159
sg44
S'28'
p1160
sg46
S'0.4'
p1161
sg48
S'6.4'
p1162
sg50
S'3.9'
p1163
sg52
S'16.2'
p1164
sg54
S'4.8'
p1165
sg56
S'2007-08'
p1166
sg58
S'8.0'
p1167
sg60
S'2.8'
p1168
sg62
S'.396'
p1169
sg64
S'810'
p1170
sg66
S'25'
p1171
sba(isrc.gp1.models.Per100Possession
Per100Possession
p1172
(dp1173
g8
S'0.5'
p1174
sg10
S'6.6'
p1175
sg12
S'.402'
p1176
sg715
S'104'
p1177
sg14
S'4.1'
p1178
sg16
S'.389'
p1179
sg18
S'2.6'
p1180
sg20
S'21.9'
p1181
sg22
S'SF-SG'
p1182
sg722
S'109'
p1183
sg24
S'.807'
p1184
sg28
S'NBA'
p1185
sg30
S'2.5'
p1186
sg32
S'19.1'
p1187
sg34
S'3.3'
p1188
sg36
S'5.0'
p1189
sg38
S'5.4'
p1190
sg40
S'30'
p1191
sg42
S'TOT'
p1192
sg44
S'55'
p1193
sg46
S'0.5'
p1194
sg48
S'5.1'
p1195
sg50
S'4.0'
p1196
sg52
S'12.5'
p1197
sg54
S'4.9'
p1198
sg56
S'2008-09'
p1199
sg58
S'7.7'
p1200
sg60
S'2.4'
p1201
sg62
S'.409'
p1202
sg64
S'1479'
p1203
sg66
S'20'
p1204
sba(isrc.gp1.models.Per100Possession
Per100Possession
p1205
(dp1206
g8
S'0.4'
p1207
sg10
S'6.6'
p1208
sg12
S'.412'
p1209
sg715
S'106'
p1210
sg14
S'3.8'
p1211
sg16
S'.392'
p1212
sg18
S'2.6'
p1213
sg20
S'23.5'
p1214
sg22
S'SF'
p1215
sg722
S'108'
p1216
sg24
S'.817'
p1217
sg28
S'NBA'
p1218
sg30
S'2.3'
p1219
sg32
S'20.1'
p1220
sg34
S'3.3'
p1221
sg36
S'5.3'
p1222
sg38
S'6.1'
p1223
sg40
S'30'
p1224
sg42
S'CHI'
p1225
sg44
S'30'
p1226
sg46
S'0.6'
p1227
sg48
S'5.7'
p1228
sg50
S'4.4'
p1229
sg52
S'13.4'
p1230
sg54
S'5.7'
p1231
sg56
S'2008-09'
p1232
sg58
S'8.3'
p1233
sg60
S'2.3'
p1234
sg62
S'.422'
p1235
sg64
S'792'
p1236
sg66
g473
sba(isrc.gp1.models.Per100Possession
Per100Possession
p1237
(dp1238
g8
S'0.7'
p1239
sg10
S'6.6'
p1240
sg12
S'.390'
p1241
sg715
S'102'
p1242
sg14
S'4.3'
p1243
sg16
S'.385'
p1244
sg18
S'2.5'
p1245
sg20
S'20.2'
p1246
sg22
S'SG'
p1247
sg722
S'110'
p1248
sg24
S'.794'
p1249
sg28
S'NBA'
p1250
sg30
S'2.6'
p1251
sg32
S'18.0'
p1252
sg34
S'3.3'
p1253
sg36
S'4.6'
p1254
sg38
S'4.7'
p1255
sg40
S'30'
p1256
sg42
S'NYK'
p1257
sg44
S'25'
p1258
sg46
S'0.4'
p1259
sg48
S'4.5'
p1260
sg50
S'3.6'
p1261
sg52
S'11.4'
p1262
sg54
S'4.0'
p1263
sg56
S'2008-09'
p1264
sg58
S'7.0'
p1265
sg60
S'2.5'
p1266
sg62
S'.392'
p1267
sg64
S'687'
p1268
sg66
S'14'
p1269
sba(isrc.gp1.models.Per100Possession
Per100Possession
p1270
(dp1271
g8
S'1.1'
p1272
sg10
S'6.4'
p1273
sg12
S'.355'
p1274
sg715
S'97'
p1275
sg14
S'6.3'
p1276
sg16
S'.309'
p1277
sg18
S'2.0'
p1278
sg20
S'19.0'
p1279
sg22
S'SG'
p1280
sg722
S'108'
p1281
sg24
S'.832'
p1282
sg28
S'NBA'
p1283
sg30
S'2.4'
p1284
sg32
S'17.9'
p1285
sg34
S'3.2'
p1286
sg36
S'5.2'
p1287
sg38
S'6.6'
p1288
sg40
S'31'
p1289
sg42
S'TOT'
p1290
sg44
S'45'
p1291
sg46
S'0.7'
p1292
sg48
S'4.4'
p1293
sg50
S'4.4'
p1294
sg52
S'11.4'
p1295
sg54
S'5.5'
p1296
sg56
S'2009-10'
p1297
sg58
S'6.3'
p1298
sg60
S'3.5'
p1299
sg62
S'.381'
p1300
sg64
S'1115'
p1301
sg66
S'16'
p1302
sba(isrc.gp1.models.Per100Possession
Per100Possession
p1303
(dp1304
g8
S'1.0'
p1305
sg10
S'6.0'
p1306
sg12
S'.366'
p1307
sg715
S'97'
p1308
sg14
S'6.8'
p1309
sg16
S'.289'
p1310
sg18
S'1.7'
p1311
sg20
S'18.5'
p1312
sg22
S'SG'
p1313
sg722
S'110'
p1314
sg24
S'.823'
p1315
sg28
S'NBA'
p1316
sg30
S'2.5'
p1317
sg32
S'17.4'
p1318
sg34
S'3.3'
p1319
sg36
S'4.9'
p1320
sg38
S'6.9'
p1321
sg40
S'31'
p1322
sg42
S'NYK'
p1323
sg44
S'31'
p1324
sg46
S'0.7'
p1325
sg48
S'4.6'
p1326
sg50
S'4.0'
p1327
sg52
S'11.3'
p1328
sg54
S'5.9'
p1329
sg56
S'2009-10'
p1330
sg58
S'6.4'
p1331
sg60
S'3.5'
p1332
sg62
S'.407'
p1333
sg64
S'820'
p1334
sg66
S'14'
p1335
sba(isrc.gp1.models.Per100Possession
Per100Possession
p1336
(dp1337
g8
S'1.3'
p1338
sg10
S'7.6'
p1339
sg12
S'.327'
p1340
sg715
S'96'
p1341
sg14
S'5.0'
p1342
sg16
S'.357'
p1343
sg18
S'2.7'
p1344
sg20
S'20.5'
p1345
sg22
S'SG'
p1346
sg722
S'104'
p1347
sg24
S'.853'
p1348
sg28
S'NBA'
p1349
sg30
S'2.2'
p1350
sg32
S'19.3'
p1351
sg34
S'3.1'
p1352
sg36
S'6.1'
p1353
sg38
S'5.8'
p1354
sg40
S'31'
p1355
sg42
S'CHA'
p1356
sg44
S'14'
p1357
sg46
S'0.7'
p1358
sg48
S'3.6'
p1359
sg50
S'5.2'
p1360
sg52
S'11.7'
p1361
sg54
S'4.5'
p1362
sg56
S'2009-10'
p1363
sg58
S'6.3'
p1364
sg60
S'3.4'
p1365
sg62
S'.308'
p1366
sg64
S'295'
p1367
sg66
g672
sba(isrc.gp1.models.Per100Possession
Per100Possession
p1368
(dp1369
g8
S'0.5'
p1370
sg10
S'3.3'
p1371
sg12
S'.227'
p1372
sg715
S'48'
p1373
sg14
S'3.3'
p1374
sg16
S'.143'
p1375
sg18
S'0.5'
p1376
sg20
S'5.7'
p1377
sg22
S'PG'
p1378
sg722
S'110'
p1379
sg24
S'.500'
p1380
sg28
S'NBA'
p1381
sg30
S'0.9'
p1382
sg32
S'10.4'
p1383
sg34
S'4.7'
p1384
sg36
S'0.9'
p1385
sg38
S'2.4'
p1386
sg40
S'33'
p1387
sg42
S'ORL'
p1388
sg44
g536
sg46
S'0.0'
p1389
sg48
S'1.9'
p1390
sg50
S'0.5'
p1391
sg52
S'7.1'
p1392
sg54
S'1.9'
p1393
sg56
S'2011-12'
p1394
sg58
S'2.4'
p1395
sg60
S'5.7'
p1396
sg62
S'.267'
p1397
sg64
S'114'
p1398
sg66
g691
sbasS'_advanced'
p1399
(lp1400
(isrc.gp1.models.Advanced
Advanced
p1401
(dp1402
S'_offensiveReboundPercentage'
p1403
S'9.6'
p1404
sS'_turnOverPercentage'
p1405
S'12.4'
p1406
sS'_winSharesPer48Minutes'
p1407
S'.117'
p1408
sS'_stealPercentage'
p1409
S'2.4'
p1410
sS'_usagePercentage'
p1411
S'25.2'
p1412
sS'_totalReboundsPercentage'
p1413
S'11.1'
p1414
sS'_defensiveBoxPlusMinus'
p1415
S'-0.1'
p1416
sg22
S'PG'
p1417
sS'_valueOverReplacementPlayer'
p1418
S'0.6'
p1419
sS'_trueShootingPercentage'
p1420
S'.474'
p1421
sS'_defensiveReboundPercentage'
p1422
S'12.7'
p1423
sS'_freeThrowsAttempRate'
p1424
S'.365'
p1425
sS'_threePointsAttempRate'
p1426
S'.126'
p1427
sg28
S'NBA'
p1428
sS'_offensiveBoxPlusMinues'
p1429
S'0.5'
p1430
sS'_assistPercentage'
p1431
S'15.3'
p1432
sS'_defensiveWinShares'
p1433
S'1.5'
p1434
sg40
S'20'
p1435
sg42
S'PHI'
p1436
sg44
S'50'
p1437
sS'_blockPercentage'
p1438
S'1.1'
p1439
sS'_playerEfficiencyRating'
p1440
S'16.7'
p1441
sS'_offensiveWinShares'
p1442
S'0.9'
p1443
sg64
S'988'
p1444
sS'_boxPlusMinus'
p1445
S'0.4'
p1446
sg56
S'1998-99'
p1447
sS'_winShares'
p1448
S'2.4'
p1449
sba(isrc.gp1.models.Advanced
Advanced
p1450
(dp1451
g1403
S'5.0'
p1452
sg1405
S'12.9'
p1453
sg1407
S'.036'
p1454
sg1409
S'2.5'
p1455
sg1411
S'27.8'
p1456
sg1413
S'8.1'
p1457
sg1415
S'-0.5'
p1458
sg22
S'SG'
p1459
sg1418
S'0.4'
p1460
sg1420
S'.467'
p1461
sg1422
S'11.4'
p1462
sg1424
S'.329'
p1463
sg1426
S'.109'
p1464
sg28
S'NBA'
p1465
sg1429
S'-0.8'
p1466
sg1431
S'15.8'
p1467
sg1433
S'2.2'
p1468
sg40
S'21'
p1469
sg42
S'TOT'
p1470
sg44
S'82'
p1471
sg1438
S'0.9'
p1472
sg1440
S'14.7'
p1473
sg1442
S'-0.5'
p1474
sg64
S'2324'
p1475
sg1445
S'-1.4'
p1476
sg56
S'1999-00'
p1477
sg1448
S'1.7'
p1478
sba(isrc.gp1.models.Advanced
Advanced
p1479
(dp1480
g1403
S'5.6'
p1481
sg1405
S'15.4'
p1482
sg1407
S'.050'
p1483
sg1409
S'2.7'
p1484
sg1411
S'26.7'
p1485
sg1413
S'8.6'
p1486
sg1415
S'0.3'
p1487
sg22
S'SG'
p1488
sg1418
S'0.1'
p1489
sg1420
S'.479'
p1490
sg1422
S'11.8'
p1491
sg1424
S'.308'
p1492
sg1426
S'.111'
p1493
sg28
S'NBA'
p1494
sg1429
S'-2.0'
p1495
sg1431
S'13.0'
p1496
sg1433
S'1.6'
p1497
sg40
S'21'
p1498
sg42
S'PHI'
p1499
sg44
S'50'
p1500
sg1438
S'0.9'
p1501
sg1440
S'13.9'
p1502
sg1442
S'-0.5'
p1503
sg64
S'1018'
p1504
sg1445
S'-1.7'
p1505
sg56
S'1999-00'
p1506
sg1448
S'1.1'
p1507
sba(isrc.gp1.models.Advanced
Advanced
p1508
(dp1509
g1403
S'4.6'
p1510
sg1405
S'11.2'
p1511
sg1407
S'.025'
p1512
sg1409
S'2.3'
p1513
sg1411
S'28.7'
p1514
sg1413
S'7.6'
p1515
sg1415
S'-1.2'
p1516
sg22
S'SG'
p1517
sg1418
S'0.3'
p1518
sg1420
S'.459'
p1519
sg1422
S'11.1'
p1520
sg1424
S'.343'
p1521
sg1426
S'.108'
p1522
sg28
S'NBA'
p1523
sg1429
S'0.0'
p1524
sg1431
S'18.0'
p1525
sg1433
S'0.6'
p1526
sg40
S'21'
p1527
sg42
S'GSW'
p1528
sg44
S'32'
p1529
sg1438
S'0.9'
p1530
sg1440
S'15.4'
p1531
sg1442
S'0.1'
p1532
sg64
S'1306'
p1533
sg1445
S'-1.1'
p1534
sg56
S'1999-00'
p1535
sg1448
S'0.7'
p1536
sba(isrc.gp1.models.Advanced
Advanced
p1537
(dp1538
g1403
S'4.0'
p1539
sg1405
S'14.2'
p1540
sg1407
S'.017'
p1541
sg1409
S'2.7'
p1542
sg1411
S'24.4'
p1543
sg1413
S'7.9'
p1544
sg1415
S'0.0'
p1545
sg22
S'SG'
p1546
sg1418
S'0.5'
p1547
sg1420
S'.449'
p1548
sg1422
S'12.5'
p1549
sg1424
S'.313'
p1550
sg1426
S'.093'
p1551
sg28
S'NBA'
p1552
sg1429
S'-0.9'
p1553
sg1431
S'21.0'
p1554
sg1433
S'1.1'
p1555
sg40
S'22'
p1556
sg42
S'GSW'
p1557
sg44
S'50'
p1558
sg1438
S'1.1'
p1559
sg1440
S'13.9'
p1560
sg1442
S'-0.4'
p1561
sg64
S'1846'
p1562
sg1445
S'-0.9'
p1563
sg56
S'2000-01'
p1564
sg1448
S'0.6'
p1565
sba(isrc.gp1.models.Advanced
Advanced
p1566
(dp1567
g1403
S'4.2'
p1568
sg1405
S'15.6'
p1569
sg1407
S'.057'
p1570
sg1409
S'2.8'
p1571
sg1411
S'22.5'
p1572
sg1413
S'6.4'
p1573
sg1415
S'-0.9'
p1574
sg22
S'SG'
p1575
sg1418
S'0.8'
p1576
sg1420
S'.484'
p1577
sg1422
S'8.7'
p1578
sg1424
S'.320'
p1579
sg1426
S'.115'
p1580
sg28
S'NBA'
p1581
sg1429
S'0.5'
p1582
sg1431
S'26.1'
p1583
sg1433
S'1.1'
p1584
sg40
S'23'
p1585
sg42
S'GSW'
p1586
sg44
S'73'
p1587
sg1438
S'0.8'
p1588
sg1440
S'15.4'
p1589
sg1442
S'1.4'
p1590
sg64
S'2049'
p1591
sg1445
S'-0.4'
p1592
sg56
S'2001-02'
p1593
sg1448
S'2.4'
p1594
sba(isrc.gp1.models.Advanced
Advanced
p1595
(dp1596
g1403
S'3.7'
p1597
sg1405
S'14.2'
p1598
sg1407
S'.082'
p1599
sg1409
S'2.2'
p1600
sg1411
S'21.2'
p1601
sg1413
S'8.5'
p1602
sg1415
S'0.2'
p1603
sg22
S'PG'
p1604
sg1418
S'1.3'
p1605
sg1420
S'.521'
p1606
sg1422
S'13.4'
p1607
sg1424
S'.251'
p1608
sg1426
S'.107'
p1609
sg28
S'NBA'
p1610
sg1429
S'0.2'
p1611
sg1431
S'17.5'
p1612
sg1433
S'2.1'
p1613
sg40
S'24'
p1614
sg42
S'WAS'
p1615
sg44
S'67'
p1616
sg1438
S'0.8'
p1617
sg1440
S'15.5'
p1618
sg1442
S'1.6'
p1619
sg64
S'2137'
p1620
sg1445
S'0.4'
p1621
sg56
S'2002-03'
p1622
sg1448
S'3.7'
p1623
sba(isrc.gp1.models.Advanced
Advanced
p1624
(dp1625
g1403
S'5.1'
p1626
sg1405
S'11.6'
p1627
sg1407
S'.088'
p1628
sg1409
S'2.4'
p1629
sg1411
S'28.1'
p1630
sg1413
S'8.9'
p1631
sg1415
S'-1.3'
p1632
sg22
S'SG'
p1633
sg1418
S'1.0'
p1634
sg1420
S'.496'
p1635
sg1422
S'12.9'
p1636
sg1424
S'.332'
p1637
sg1426
S'.230'
p1638
sg28
S'NBA'
p1639
sg1429
S'1.2'
p1640
sg1431
S'14.3'
p1641
sg1433
S'1.6'
p1642
sg40
S'25'
p1643
sg42
S'WAS'
p1644
sg44
S'61'
p1645
sg1438
S'0.9'
p1646
sg1440
S'17.6'
p1647
sg1442
S'2.1'
p1648
sg64
S'2061'
p1649
sg1445
S'-0.1'
p1650
sg56
S'2003-04'
p1651
sg1448
S'3.8'
p1652
sba(isrc.gp1.models.Advanced
Advanced
p1653
(dp1654
g1403
S'3.4'
p1655
sg1405
S'10.6'
p1656
sg1407
S'.157'
p1657
sg1409
S'3.8'
p1658
sg1411
S'26.6'
p1659
sg1413
S'9.1'
p1660
sg1415
S'1.0'
p1661
sg22
S'SG'
p1662
sg1418
S'3.6'
p1663
sg1420
S'.523'
p1664
sg1422
S'15.2'
p1665
sg1424
S'.417'
p1666
sg1426
S'.192'
p1667
sg28
S'NBA'
p1668
sg1429
S'3.1'
p1669
sg1431
S'21.9'
p1670
sg1433
S'3.1'
p1671
sg40
S'26'
p1672
sg42
S'WAS'
p1673
sg44
S'61'
p1674
sg1438
S'0.6'
p1675
sg1440
S'21.6'
p1676
sg1442
S'4.6'
p1677
sg64
S'2358'
p1678
sg1445
S'4.1'
p1679
sg56
S'2004-05'
p1680
sg1448
S'7.7'
p1681
sba(isrc.gp1.models.Advanced
Advanced
p1682
(dp1683
g1403
S'2.4'
p1684
sg1405
S'15.2'
p1685
sg1407
S'.067'
p1686
sg1409
S'2.2'
p1687
sg1411
S'23.6'
p1688
sg1413
S'7.4'
p1689
sg1415
S'0.8'
p1690
sg22
S'SG'
p1691
sg1418
S'0.6'
p1692
sg1420
S'.504'
p1693
sg1422
S'12.6'
p1694
sg1424
S'.412'
p1695
sg1426
S'.162'
p1696
sg28
S'NBA'
p1697
sg1429
S'-1.1'
p1698
sg1431
S'17.5'
p1699
sg1433
S'1.5'
p1700
sg40
S'27'
p1701
sg42
S'CLE'
p1702
sg44
S'36'
p1703
sg1438
S'1.3'
p1704
sg1440
S'14.0'
p1705
sg1442
S'0.3'
p1706
sg64
S'1281'
p1707
sg1445
S'-0.3'
p1708
sg56
S'2005-06'
p1709
sg1448
S'1.8'
p1710
sba(isrc.gp1.models.Advanced
Advanced
p1711
(dp1712
g1403
S'1.8'
p1713
sg1405
S'12.4'
p1714
sg1407
S'.073'
p1715
sg1409
S'1.8'
p1716
sg1411
S'21.7'
p1717
sg1413
S'6.0'
p1718
sg1415
S'0.8'
p1719
sg22
S'SG'
p1720
sg1418
S'1.0'
p1721
sg1420
S'.480'
p1722
sg1422
S'10.4'
p1723
sg1424
S'.324'
p1724
sg1426
S'.233'
p1725
sg28
S'NBA'
p1726
sg1429
S'-1.3'
p1727
sg1431
S'16.4'
p1728
sg1433
S'3.8'
p1729
sg40
S'28'
p1730
sg42
S'CLE'
p1731
sg44
S'70'
p1732
sg1438
S'0.8'
p1733
sg1440
S'12.1'
p1734
sg1442
S'0.1'
p1735
sg64
S'2596'
p1736
sg1445
S'-0.5'
p1737
sg56
S'2006-07'
p1738
sg1448
S'3.9'
p1739
sba(isrc.gp1.models.Advanced
Advanced
p1740
(dp1741
g1403
S'2.1'
p1742
sg1405
S'11.6'
p1743
sg1407
S'.042'
p1744
sg1409
S'2.6'
p1745
sg1411
S'22.2'
p1746
sg1413
S'6.5'
p1747
sg1415
S'-0.2'
p1748
sg22
S'PG-SG'
p1749
sg1418
S'-0.1'
p1750
sg1420
S'.468'
p1751
sg1422
S'11.1'
p1752
sg1424
S'.235'
p1753
sg1426
S'.242'
p1754
sg28
S'NBA'
p1755
sg1429
S'-1.9'
p1756
sg1431
S'15.1'
p1757
sg1433
S'2.3'
p1758
sg40
S'29'
p1759
sg42
S'TOT'
p1760
sg44
S'68'
p1761
sg1438
S'0.7'
p1762
sg1440
S'11.9'
p1763
sg1442
S'-0.5'
p1764
sg64
S'2020'
p1765
sg1445
S'-2.1'
p1766
sg56
S'2007-08'
p1767
sg1448
S'1.8'
p1768
sba(isrc.gp1.models.Advanced
Advanced
p1769
(dp1770
g1403
S'2.5'
p1771
sg1405
S'12.0'
p1772
sg1407
S'.042'
p1773
sg1409
S'2.6'
p1774
sg1411
S'22.4'
p1775
sg1413
S'6.7'
p1776
sg1415
S'-0.1'
p1777
sg22
S'PG'
p1778
sg1418
S'-0.1'
p1779
sg1420
S'.467'
p1780
sg1422
S'11.3'
p1781
sg1424
S'.226'
p1782
sg1426
S'.264'
p1783
sg28
S'NBA'
p1784
sg1429
S'-2.2'
p1785
sg1431
S'13.1'
p1786
sg1433
S'1.5'
p1787
sg40
S'29'
p1788
sg42
S'CLE'
p1789
sg44
S'40'
p1790
sg1438
S'0.7'
p1791
sg1440
S'11.6'
p1792
sg1442
S'-0.4'
p1793
sg64
S'1210'
p1794
sg1445
S'-2.3'
p1795
sg56
S'2007-08'
p1796
sg1448
S'1.1'
p1797
sba(isrc.gp1.models.Advanced
Advanced
p1798
(dp1799
g1403
S'1.6'
p1800
sg1405
S'10.9'
p1801
sg1407
S'.043'
p1802
sg1409
S'2.5'
p1803
sg1411
S'22.0'
p1804
sg1413
S'6.1'
p1805
sg1415
S'-0.3'
p1806
sg22
S'SG'
p1807
sg1418
S'0.0'
p1808
sg1420
S'.469'
p1809
sg1422
S'10.8'
p1810
sg1424
S'.248'
p1811
sg1426
S'.211'
p1812
sg28
S'NBA'
p1813
sg1429
S'-1.5'
p1814
sg1431
S'17.9'
p1815
sg1433
S'0.8'
p1816
sg40
S'29'
p1817
sg42
S'CHI'
p1818
sg44
S'28'
p1819
sg1438
S'0.6'
p1820
sg1440
S'12.4'
p1821
sg1442
S'-0.1'
p1822
sg64
S'810'
p1823
sg1445
S'-1.9'
p1824
sg56
S'2007-08'
p1825
sg1448
S'0.7'
p1826
sba(isrc.gp1.models.Advanced
Advanced
p1827
(dp1828
g1403
S'1.2'
p1829
sg1405
S'10.3'
p1830
sg1407
S'.070'
p1831
sg1409
S'2.5'
p1832
sg1411
S'20.6'
p1833
sg1413
S'6.0'
p1834
sg1415
S'-0.6'
p1835
sg22
S'SF-SG'
p1836
sg1418
S'0.3'
p1837
sg1420
S'.515'
p1838
sg1422
S'11.0'
p1839
sg1424
S'.260'
p1840
sg1426
S'.346'
p1841
sg28
S'NBA'
p1842
sg1429
S'-0.5'
p1843
sg1431
S'12.6'
p1844
sg1433
S'1.3'
p1845
sg40
S'30'
p1846
sg42
S'TOT'
p1847
sg44
S'55'
p1848
sg1438
S'0.7'
p1849
sg1440
S'13.4'
p1850
sg1442
S'0.8'
p1851
sg64
S'1479'
p1852
sg1445
S'-1.1'
p1853
sg56
S'2008-09'
p1854
sg1448
S'2.1'
p1855
sba(isrc.gp1.models.Advanced
Advanced
p1856
(dp1857
g1403
S'0.9'
p1858
sg1405
S'9.5'
p1859
sg1407
S'.088'
p1860
sg1409
S'2.3'
p1861
sg1411
S'21.4'
p1862
sg1413
S'6.8'
p1863
sg1415
S'-0.8'
p1864
sg22
S'SF'
p1865
sg1418
S'0.2'
p1866
sg1420
S'.525'
p1867
sg1422
S'12.7'
p1868
sg1424
S'.266'
p1869
sg1426
S'.331'
p1870
sg28
S'NBA'
p1871
sg1429
S'-0.1'
p1872
sg1431
S'11.9'
p1873
sg1433
S'0.8'
p1874
sg40
S'30'
p1875
sg42
S'CHI'
p1876
sg44
S'30'
p1877
sg1438
S'0.8'
p1878
sg1440
S'14.4'
p1879
sg1442
S'0.6'
p1880
sg64
S'792'
p1881
sg1445
S'-0.9'
p1882
sg56
S'2008-09'
p1883
sg1448
S'1.4'
p1884
sba(isrc.gp1.models.Advanced
Advanced
p1885
(dp1886
g1403
S'1.5'
p1887
sg1405
S'11.2'
p1888
sg1407
S'.049'
p1889
sg1409
S'2.6'
p1890
sg1411
S'19.7'
p1891
sg1413
S'5.2'
p1892
sg1415
S'-0.4'
p1893
sg22
S'SG'
p1894
sg1418
S'0.1'
p1895
sg1420
S'.504'
p1896
sg1422
S'9.1'
p1897
sg1424
S'.253'
p1898
sg1426
S'.365'
p1899
sg28
S'NBA'
p1900
sg1429
S'-1.1'
p1901
sg1431
S'13.3'
p1902
sg1433
S'0.5'
p1903
sg40
S'30'
p1904
sg42
S'NYK'
p1905
sg44
S'25'
p1906
sg1438
S'0.5'
p1907
sg1440
S'12.3'
p1908
sg1442
S'0.2'
p1909
sg64
S'687'
p1910
sg1445
S'-1.4'
p1911
sg56
S'2008-09'
p1912
sg1448
S'0.7'
p1913
sba(isrc.gp1.models.Advanced
Advanced
p1914
(dp1915
g1403
S'2.4'
p1916
sg1405
S'14.7'
p1917
sg1407
S'.030'
p1918
sg1409
S'2.4'
p1919
sg1411
S'20.9'
p1920
sg1413
S'7.3'
p1921
sg1415
S'-0.2'
p1922
sg22
S'SG'
p1923
sg1418
S'-0.1'
p1924
sg1420
S'.472'
p1925
sg1422
S'12.4'
p1926
sg1424
S'.293'
p1927
sg1426
S'.360'
p1928
sg28
S'NBA'
p1929
sg1429
S'-2.0'
p1930
sg1431
S'18.9'
p1931
sg1433
S'1.0'
p1932
sg40
S'31'
p1933
sg42
S'TOT'
p1934
sg44
S'45'
p1935
sg1438
S'1.0'
p1936
sg1440
S'12.0'
p1937
sg1442
S'-0.3'
p1938
sg64
S'1115'
p1939
sg1445
S'-2.2'
p1940
sg56
S'2009-10'
p1941
sg1448
S'0.7'
p1942
sba(isrc.gp1.models.Advanced
Advanced
p1943
(dp1944
g1403
S'2.2'
p1945
sg1405
S'15.1'
p1946
sg1407
S'.023'
p1947
sg1409
S'2.5'
p1948
sg1411
S'20.4'
p1949
sg1413
S'7.6'
p1950
sg1415
S'-0.2'
p1951
sg22
S'SG'
p1952
sg1418
S'0.0'
p1953
sg1420
S'.473'
p1954
sg1422
S'13.3'
p1955
sg1424
S'.283'
p1956
sg1426
S'.348'
p1957
sg28
S'NBA'
p1958
sg1429
S'-2.0'
p1959
sg1431
S'20.1'
p1960
sg1433
S'0.6'
p1961
sg40
S'31'
p1962
sg42
S'NYK'
p1963
sg44
S'31'
p1964
sg1438
S'1.0'
p1965
sg1440
S'12.3'
p1966
sg1442
S'-0.2'
p1967
sg64
S'820'
p1968
sg1445
S'-2.2'
p1969
sg56
S'2009-10'
p1970
sg1448
S'0.4'
p1971
sba(isrc.gp1.models.Advanced
Advanced
p1972
(dp1973
g1403
S'2.9'
p1974
sg1405
S'13.5'
p1975
sg1407
S'.051'
p1976
sg1409
S'2.2'
p1977
sg1411
S'22.2'
p1978
sg1413
S'6.5'
p1979
sg1415
S'-0.2'
p1980
sg22
S'SG'
p1981
sg1418
S'0.0'
p1982
sg1420
S'.467'
p1983
sg1422
S'10.0'
p1984
sg1424
S'.318'
p1985
sg1426
S'.393'
p1986
sg28
S'NBA'
p1987
sg1429
S'-2.1'
p1988
sg1431
S'15.8'
p1989
sg1433
S'0.4'
p1990
sg40
S'31'
p1991
sg42
S'CHA'
p1992
sg44
S'14'
p1993
sg1438
S'1.1'
p1994
sg1440
S'11.1'
p1995
sg1442
S'-0.1'
p1996
sg64
S'295'
p1997
sg1445
S'-2.3'
p1998
sg56
S'2009-10'
p1999
sg1448
S'0.3'
p2000
sba(isrc.gp1.models.Advanced
Advanced
p2001
(dp2002
g1403
S'1.0'
p2003
sg1405
S'34.4'
p2004
sg1407
S'-0.193'
p2005
sg1409
S'0.9'
p2006
sg1411
S'14.3'
p2007
sg1413
S'2.5'
p2008
sg1415
S'-1.2'
p2009
sg22
S'PG'
p2010
sg1418
S'-0.3'
p2011
sg1420
S'.262'
p2012
sg1422
S'4.1'
p2013
sg1424
S'.091'
p2014
sg1426
S'.318'
p2015
sg28
S'NBA'
p2016
sg1429
S'-10.2'
p2017
sg1431
S'9.2'
p2018
sg1433
S'0.0'
p2019
sg40
S'33'
p2020
sg42
S'ORL'
p2021
sg44
g536
sg1438
S'0.0'
p2022
sg1440
S'-4.8'
p2023
sg1442
S'-0.5'
p2024
sg64
S'114'
p2025
sg1445
S'-11.4'
p2026
sg56
S'2011-12'
p2027
sg1448
S'-0.5'
p2028
sbasS'_per36Minutes'
p2029
(lp2030
(isrc.gp1.models.Per36Minutes
Per36Minutes
p2031
(dp2032
g8
S'3.0'
p2033
sg10
S'1.9'
p2034
sg12
S'.411'
p2035
sg14
S'2.8'
p2036
sg16
S'.154'
p2037
sg18
S'0.3'
p2038
sg20
S'16.6'
p2039
sg22
S'PG'
p2040
sg24
S'.709'
p2041
sg28
S'NBA'
p2042
sg30
S'1.6'
p2043
sg32
S'15.1'
p2044
sg34
S'3.5'
p2045
sg36
S'5.5'
p2046
sg38
S'6.9'
p2047
sg40
S'20'
p2048
sg42
S'PHI'
p2049
sg44
S'50'
p2050
sg46
S'0.5'
p2051
sg48
S'5.9'
p2052
sg50
S'3.9'
p2053
sg52
S'13.2'
p2054
sg54
S'3.9'
p2055
sg56
S'1998-99'
p2056
sg58
S'6.2'
p2057
sg60
S'2.5'
p2058
sg62
S'.448'
p2059
sg64
S'988'
p2060
sg66
g67
sba(isrc.gp1.models.Per36Minutes
Per36Minutes
p2061
(dp2062
g8
S'1.8'
p2063
sg10
S'1.9'
p2064
sg12
S'.400'
p2065
sg14
S'3.2'
p2066
sg16
S'.232'
p2067
sg18
S'0.4'
p2068
sg20
S'19.0'
p2069
sg22
S'SG'
p2070
sg24
S'.740'
p2071
sg28
S'NBA'
p2072
sg30
S'1.8'
p2073
sg32
S'17.8'
p2074
sg34
S'3.0'
p2075
sg36
S'5.8'
p2076
sg38
S'5.4'
p2077
sg40
S'21'
p2078
sg42
S'TOT'
p2079
sg44
S'82'
p2080
sg46
S'0.4'
p2081
sg48
S'6.7'
p2082
sg50
S'4.3'
p2083
sg52
S'15.8'
p2084
sg54
S'3.7'
p2085
sg56
S'1999-00'
p2086
sg58
S'7.1'
p2087
sg60
S'3.0'
p2088
sg62
S'.421'
p2089
sg64
S'2324'
p2090
sg66
S'37'
p2091
sba(isrc.gp1.models.Per36Minutes
Per36Minutes
p2092
(dp2093
g8
S'1.8'
p2094
sg10
S'1.8'
p2095
sg12
S'.416'
p2096
sg14
S'2.7'
p2097
sg16
S'.216'
p2098
sg18
S'0.4'
p2099
sg20
S'17.7'
p2100
sg22
S'SG'
p2101
sg24
S'.746'
p2102
sg28
S'NBA'
p2103
sg30
S'1.9'
p2104
sg32
S'16.3'
p2105
sg34
S'3.3'
p2106
sg36
S'5.0'
p2107
sg38
S'5.6'
p2108
sg40
S'21'
p2109
sg42
S'PHI'
p2110
sg44
S'50'
p2111
sg46
S'0.4'
p2112
sg48
S'6.4'
p2113
sg50
S'3.7'
p2114
sg52
S'14.5'
p2115
sg54
S'3.8'
p2116
sg56
S'1999-00'
p2117
sg58
S'6.8'
p2118
sg60
S'3.4'
p2119
sg62
S'.441'
p2120
sg64
S'1018'
p2121
sg66
g131
sba(isrc.gp1.models.Per36Minutes
Per36Minutes
p2122
(dp2123
g8
S'1.7'
p2124
sg10
S'2.0'
p2125
sg12
S'.389'
p2126
sg14
S'3.6'
p2127
sg16
S'.243'
p2128
sg18
S'0.5'
p2129
sg20
S'20.0'
p2130
sg22
S'SG'
p2131
sg24
S'.736'
p2132
sg28
S'NBA'
p2133
sg30
S'1.7'
p2134
sg32
S'18.9'
p2135
sg34
S'2.7'
p2136
sg36
S'6.5'
p2137
sg38
S'5.2'
p2138
sg40
S'21'
p2139
sg42
S'GSW'
p2140
sg44
S'32'
p2141
sg46
S'0.4'
p2142
sg48
S'6.9'
p2143
sg50
S'4.8'
p2144
sg52
S'16.9'
p2145
sg54
S'3.6'
p2146
sg56
S'1999-00'
p2147
sg58
S'7.4'
p2148
sg60
S'2.8'
p2149
sg62
S'.407'
p2150
sg64
S'1306'
p2151
sg66
S'32'
p2152
sba(isrc.gp1.models.Per36Minutes
Per36Minutes
p2153
(dp2154
g8
S'1.5'
p2155
sg10
S'1.5'
p2156
sg12
S'.383'
p2157
sg14
S'4.3'
p2158
sg16
S'.187'
p2159
sg18
S'0.3'
p2160
sg20
S'16.0'
p2161
sg22
S'SG'
p2162
sg24
S'.766'
p2163
sg28
S'NBA'
p2164
sg30
S'1.9'
p2165
sg32
S'15.7'
p2166
sg34
S'2.9'
p2167
sg36
S'4.9'
p2168
sg38
S'5.4'
p2169
sg40
S'22'
p2170
sg42
S'GSW'
p2171
sg44
S'50'
p2172
sg46
S'0.6'
p2173
sg48
S'5.7'
p2174
sg50
S'3.8'
p2175
sg52
S'14.2'
p2176
sg54
S'3.9'
p2177
sg56
S'2000-01'
p2178
sg58
S'6.0'
p2179
sg60
S'3.0'
p2180
sg62
S'.403'
p2181
sg64
S'1846'
p2182
sg66
S'45'
p2183
sba(isrc.gp1.models.Per36Minutes
Per36Minutes
p2184
(dp2185
g8
S'1.5'
p2186
sg10
S'1.6'
p2187
sg12
S'.423'
p2188
sg14
S'5.6'
p2189
sg16
S'.194'
p2190
sg18
S'0.3'
p2191
sg20
S'15.7'
p2192
sg22
S'SG'
p2193
sg24
S'.737'
p2194
sg28
S'NBA'
p2195
sg30
S'2.0'
p2196
sg32
S'14.2'
p2197
sg34
S'2.6'
p2198
sg36
S'4.6'
p2199
sg38
S'4.3'
p2200
sg40
S'23'
p2201
sg42
S'GSW'
p2202
sg44
S'73'
p2203
sg46
S'0.4'
p2204
sg48
S'5.7'
p2205
sg50
S'3.4'
p2206
sg52
S'12.6'
p2207
sg54
S'2.8'
p2208
sg56
S'2001-02'
p2209
sg58
S'6.0'
p2210
sg60
S'3.0'
p2211
sg62
S'.453'
p2212
sg64
S'2049'
p2213
sg66
S'56'
p2214
sba(isrc.gp1.models.Per36Minutes
Per36Minutes
p2215
(dp2216
g8
S'1.1'
p2217
sg10
S'1.3'
p2218
sg12
S'.467'
p2219
sg14
S'3.5'
p2220
sg16
S'.367'
p2221
sg18
S'0.5'
p2222
sg20
S'14.4'
p2223
sg22
S'PG'
p2224
sg24
S'.731'
p2225
sg28
S'NBA'
p2226
sg30
S'1.4'
p2227
sg32
S'12.5'
p2228
sg34
S'2.5'
p2229
sg36
S'3.1'
p2230
sg38
S'5.2'
p2231
sg40
S'24'
p2232
sg42
S'WAS'
p2233
sg44
S'67'
p2234
sg46
S'0.4'
p2235
sg48
S'5.3'
p2236
sg50
S'2.3'
p2237
sg52
S'11.2'
p2238
sg54
S'4.1'
p2239
sg56
S'2002-03'
p2240
sg58
S'5.8'
p2241
sg60
S'2.3'
p2242
sg62
S'.479'
p2243
sg64
S'2137'
p2244
sg66
S'56'
p2245
sba(isrc.gp1.models.Per36Minutes
Per36Minutes
p2246
(dp2247
g8
S'1.7'
p2248
sg10
S'4.1'
p2249
sg12
S'.397'
p2250
sg14
S'2.6'
p2251
sg16
S'.341'
p2252
sg18
S'1.4'
p2253
sg20
S'20.1'
p2254
sg22
S'SG'
p2255
sg24
S'.797'
p2256
sg28
S'NBA'
p2257
sg30
S'1.7'
p2258
sg32
S'17.6'
p2259
sg34
S'2.6'
p2260
sg36
S'5.9'
p2261
sg38
S'5.7'
p2262
sg40
S'25'
p2263
sg42
S'WAS'
p2264
sg44
S'61'
p2265
sg46
S'0.5'
p2266
sg48
S'5.6'
p2267
sg50
S'4.7'
p2268
sg52
S'13.6'
p2269
sg54
S'4.0'
p2270
sg56
S'2003-04'
p2271
sg58
S'7.0'
p2272
sg60
S'2.7'
p2273
sg62
S'.414'
p2274
sg64
S'2061'
p2275
sg66
S'61'
p2276
sba(isrc.gp1.models.Per36Minutes
Per36Minutes
p2277
(dp2278
g8
S'1.1'
p2279
sg10
S'3.2'
p2280
sg12
S'.430'
p2281
sg14
S'4.4'
p2282
sg16
S'.282'
p2283
sg18
S'0.9'
p2284
sg20
S'20.5'
p2285
sg22
S'SG'
p2286
sg24
S'.777'
p2287
sg28
S'NBA'
p2288
sg30
S'2.7'
p2289
sg32
S'16.6'
p2290
sg34
S'2.6'
p2291
sg36
S'6.9'
p2292
sg38
S'5.8'
p2293
sg40
S'26'
p2294
sg42
S'WAS'
p2295
sg44
S'61'
p2296
sg46
S'0.3'
p2297
sg48
S'6.2'
p2298
sg50
S'5.4'
p2299
sg52
S'13.4'
p2300
sg54
S'4.7'
p2301
sg56
S'2004-05'
p2302
sg58
S'7.1'
p2303
sg60
S'2.3'
p2304
sg62
S'.465'
p2305
sg64
S'2358'
p2306
sg66
S'61'
p2307
sba(isrc.gp1.models.Per36Minutes
Per36Minutes
p2308
(dp2309
g8
S'0.7'
p2310
sg10
S'2.1'
p2311
sg12
S'.409'
p2312
sg14
S'3.7'
p2313
sg16
S'.368'
p2314
sg18
S'0.8'
p2315
sg20
S'15.7'
p2316
sg22
S'SG'
p2317
sg24
S'.756'
p2318
sg28
S'NBA'
p2319
sg30
S'1.5'
p2320
sg32
S'13.2'
p2321
sg34
S'3.3'
p2322
sg36
S'5.4'
p2323
sg38
S'4.5'
p2324
sg40
S'27'
p2325
sg42
S'CLE'
p2326
sg44
S'36'
p2327
sg46
S'0.6'
p2328
sg48
S'4.6'
p2329
sg50
S'4.1'
p2330
sg52
S'11.0'
p2331
sg54
S'3.8'
p2332
sg56
S'2005-06'
p2333
sg58
S'5.4'
p2334
sg60
S'2.8'
p2335
sg62
S'.417'
p2336
sg64
S'1281'
p2337
sg66
S'31'
p2338
sba(isrc.gp1.models.Per36Minutes
Per36Minutes
p2339
(dp2340
g8
S'0.6'
p2341
sg10
S'3.1'
p2342
sg12
S'.400'
p2343
sg14
S'3.6'
p2344
sg16
S'.333'
p2345
sg18
S'1.0'
p2346
sg20
S'14.5'
p2347
sg22
S'SG'
p2348
sg24
S'.676'
p2349
sg28
S'NBA'
p2350
sg30
S'1.2'
p2351
sg32
S'13.2'
p2352
sg34
S'2.3'
p2353
sg36
S'4.3'
p2354
sg38
S'3.7'
p2355
sg40
S'28'
p2356
sg42
S'CLE'
p2357
sg44
S'70'
p2358
sg46
S'0.4'
p2359
sg48
S'4.3'
p2360
sg50
S'2.9'
p2361
sg52
S'10.1'
p2362
sg54
S'3.1'
p2363
sg56
S'2006-07'
p2364
sg58
S'5.3'
p2365
sg60
S'2.1'
p2366
sg62
S'.420'
p2367
sg64
S'2596'
p2368
sg66
S'68'
p2369
sba(isrc.gp1.models.Per36Minutes
Per36Minutes
p2370
(dp2371
g8
S'0.7'
p2372
sg10
S'3.5'
p2373
sg12
S'.381'
p2374
sg14
S'3.2'
p2375
sg16
S'.345'
p2376
sg18
S'1.2'
p2377
sg20
S'14.7'
p2378
sg22
S'PG-SG'
p2379
sg24
S'.798'
p2380
sg28
S'NBA'
p2381
sg30
S'1.8'
p2382
sg32
S'14.3'
p2383
sg34
S'2.5'
p2384
sg36
S'3.4'
p2385
sg38
S'4.1'
p2386
sg40
S'29'
p2387
sg42
S'TOT'
p2388
sg44
S'68'
p2389
sg46
S'0.3'
p2390
sg48
S'4.2'
p2391
sg50
S'2.7'
p2392
sg52
S'10.8'
p2393
sg54
S'3.4'
p2394
sg56
S'2007-08'
p2395
sg58
S'5.4'
p2396
sg60
S'2.1'
p2397
sg62
S'.392'
p2398
sg64
S'2020'
p2399
sg66
S'57'
p2400
sba(isrc.gp1.models.Per36Minutes
Per36Minutes
p2401
(dp2402
g8
S'0.8'
p2403
sg10
S'3.7'
p2404
sg12
S'.377'
p2405
sg14
S'2.8'
p2406
sg16
S'.341'
p2407
sg18
S'1.3'
p2408
sg20
S'14.6'
p2409
sg22
S'PG'
p2410
sg24
S'.815'
p2411
sg28
S'NBA'
p2412
sg30
S'1.8'
p2413
sg32
S'14.2'
p2414
sg34
S'2.7'
p2415
sg36
S'3.2'
p2416
sg38
S'4.3'
p2417
sg40
S'29'
p2418
sg42
S'CLE'
p2419
sg44
S'40'
p2420
sg46
S'0.3'
p2421
sg48
S'4.1'
p2422
sg50
S'2.6'
p2423
sg52
S'10.5'
p2424
sg54
S'3.5'
p2425
sg56
S'2007-08'
p2426
sg58
S'5.4'
p2427
sg60
S'2.1'
p2428
sg62
S'.389'
p2429
sg64
S'1210'
p2430
sg66
S'32'
p2431
sba(isrc.gp1.models.Per36Minutes
Per36Minutes
p2432
(dp2433
g8
S'0.5'
p2434
sg10
S'3.0'
p2435
sg12
S'.387'
p2436
sg14
S'3.9'
p2437
sg16
S'.353'
p2438
sg18
S'1.1'
p2439
sg20
S'14.9'
p2440
sg22
S'SG'
p2441
sg24
S'.775'
p2442
sg28
S'NBA'
p2443
sg30
S'1.7'
p2444
sg32
S'14.4'
p2445
sg34
S'2.1'
p2446
sg36
S'3.6'
p2447
sg38
S'3.9'
p2448
sg40
S'29'
p2449
sg42
S'CHI'
p2450
sg44
S'28'
p2451
sg46
S'0.3'
p2452
sg48
S'4.5'
p2453
sg50
S'2.8'
p2454
sg52
S'11.3'
p2455
sg54
S'3.3'
p2456
sg56
S'2007-08'
p2457
sg58
S'5.6'
p2458
sg60
S'2.0'
p2459
sg62
S'.396'
p2460
sg64
S'810'
p2461
sg66
S'25'
p2462
sba(isrc.gp1.models.Per36Minutes
Per36Minutes
p2463
(dp2464
g8
S'0.4'
p2465
sg10
S'4.7'
p2466
sg12
S'.402'
p2467
sg14
S'2.9'
p2468
sg16
S'.389'
p2469
sg18
S'1.8'
p2470
sg20
S'15.6'
p2471
sg22
S'SF-SG'
p2472
sg24
S'.807'
p2473
sg28
S'NBA'
p2474
sg30
S'1.8'
p2475
sg32
S'13.6'
p2476
sg34
S'2.3'
p2477
sg36
S'3.5'
p2478
sg38
S'3.9'
p2479
sg40
S'30'
p2480
sg42
S'TOT'
p2481
sg44
S'55'
p2482
sg46
S'0.3'
p2483
sg48
S'3.6'
p2484
sg50
S'2.8'
p2485
sg52
S'8.9'
p2486
sg54
S'3.5'
p2487
sg56
S'2008-09'
p2488
sg58
S'5.5'
p2489
sg60
S'1.7'
p2490
sg62
S'.409'
p2491
sg64
S'1479'
p2492
sg66
S'20'
p2493
sba(isrc.gp1.models.Per36Minutes
Per36Minutes
p2494
(dp2495
g8
S'0.3'
p2496
sg10
S'4.6'
p2497
sg12
S'.412'
p2498
sg14
S'2.7'
p2499
sg16
S'.392'
p2500
sg18
S'1.8'
p2501
sg20
S'16.4'
p2502
sg22
S'SF'
p2503
sg24
S'.817'
p2504
sg28
S'NBA'
p2505
sg30
S'1.6'
p2506
sg32
S'14.0'
p2507
sg34
S'2.3'
p2508
sg36
S'3.7'
p2509
sg38
S'4.3'
p2510
sg40
S'30'
p2511
sg42
S'CHI'
p2512
sg44
S'30'
p2513
sg46
S'0.4'
p2514
sg48
S'4.0'
p2515
sg50
S'3.0'
p2516
sg52
S'9.4'
p2517
sg54
S'4.0'
p2518
sg56
S'2008-09'
p2519
sg58
S'5.8'
p2520
sg60
S'1.6'
p2521
sg62
S'.422'
p2522
sg64
S'792'
p2523
sg66
g473
sba(isrc.gp1.models.Per36Minutes
Per36Minutes
p2524
(dp2525
g8
S'0.5'
p2526
sg10
S'4.8'
p2527
sg12
S'.390'
p2528
sg14
S'3.1'
p2529
sg16
S'.385'
p2530
sg18
S'1.8'
p2531
sg20
S'14.6'
p2532
sg22
S'SG'
p2533
sg24
S'.794'
p2534
sg28
S'NBA'
p2535
sg30
S'1.9'
p2536
sg32
S'13.0'
p2537
sg34
S'2.4'
p2538
sg36
S'3.3'
p2539
sg38
S'3.4'
p2540
sg40
S'30'
p2541
sg42
S'NYK'
p2542
sg44
S'25'
p2543
sg46
S'0.3'
p2544
sg48
S'3.2'
p2545
sg50
S'2.6'
p2546
sg52
S'8.3'
p2547
sg54
S'2.9'
p2548
sg56
S'2008-09'
p2549
sg58
S'5.1'
p2550
sg60
S'1.8'
p2551
sg62
S'.392'
p2552
sg64
S'687'
p2553
sg66
S'14'
p2554
sba(isrc.gp1.models.Per36Minutes
Per36Minutes
p2555
(dp2556
g8
S'0.7'
p2557
sg10
S'4.5'
p2558
sg12
S'.355'
p2559
sg14
S'4.4'
p2560
sg16
S'.309'
p2561
sg18
S'1.4'
p2562
sg20
S'13.3'
p2563
sg22
S'SG'
p2564
sg24
S'.832'
p2565
sg28
S'NBA'
p2566
sg30
S'1.7'
p2567
sg32
S'12.5'
p2568
sg34
S'2.3'
p2569
sg36
S'3.6'
p2570
sg38
S'4.6'
p2571
sg40
S'31'
p2572
sg42
S'TOT'
p2573
sg44
S'45'
p2574
sg46
S'0.5'
p2575
sg48
S'3.0'
p2576
sg50
S'3.0'
p2577
sg52
S'8.0'
p2578
sg54
S'3.8'
p2579
sg56
S'2009-10'
p2580
sg58
S'4.4'
p2581
sg60
S'2.4'
p2582
sg62
S'.381'
p2583
sg64
S'1115'
p2584
sg66
S'16'
p2585
sba(isrc.gp1.models.Per36Minutes
Per36Minutes
p2586
(dp2587
g8
S'0.7'
p2588
sg10
S'4.3'
p2589
sg12
S'.366'
p2590
sg14
S'4.8'
p2591
sg16
S'.289'
p2592
sg18
S'1.2'
p2593
sg20
S'13.0'
p2594
sg22
S'SG'
p2595
sg24
S'.823'
p2596
sg28
S'NBA'
p2597
sg30
S'1.8'
p2598
sg32
S'12.2'
p2599
sg34
S'2.3'
p2600
sg36
S'3.5'
p2601
sg38
S'4.8'
p2602
sg40
S'31'
p2603
sg42
S'NYK'
p2604
sg44
S'31'
p2605
sg46
S'0.5'
p2606
sg48
S'3.2'
p2607
sg50
S'2.9'
p2608
sg52
S'8.0'
p2609
sg54
S'4.1'
p2610
sg56
S'2009-10'
p2611
sg58
S'4.5'
p2612
sg60
S'2.5'
p2613
sg62
S'.407'
p2614
sg64
S'820'
p2615
sg66
S'14'
p2616
sba(isrc.gp1.models.Per36Minutes
Per36Minutes
p2617
(dp2618
g8
S'0.9'
p2619
sg10
S'5.1'
p2620
sg12
S'.327'
p2621
sg14
S'3.4'
p2622
sg16
S'.357'
p2623
sg18
S'1.8'
p2624
sg20
S'13.9'
p2625
sg22
S'SG'
p2626
sg24
S'.853'
p2627
sg28
S'NBA'
p2628
sg30
S'1.5'
p2629
sg32
S'13.1'
p2630
sg34
S'2.1'
p2631
sg36
S'4.1'
p2632
sg38
S'3.9'
p2633
sg40
S'31'
p2634
sg42
S'CHA'
p2635
sg44
S'14'
p2636
sg46
S'0.5'
p2637
sg48
S'2.4'
p2638
sg50
S'3.5'
p2639
sg52
S'7.9'
p2640
sg54
S'3.1'
p2641
sg56
S'2009-10'
p2642
sg58
S'4.3'
p2643
sg60
S'2.3'
p2644
sg62
S'.308'
p2645
sg64
S'295'
p2646
sg66
g672
sba(isrc.gp1.models.Per36Minutes
Per36Minutes
p2647
(dp2648
g8
S'0.3'
p2649
sg10
S'2.2'
p2650
sg12
S'.227'
p2651
sg14
S'2.2'
p2652
sg16
S'.143'
p2653
sg18
S'0.3'
p2654
sg20
S'3.8'
p2655
sg22
S'PG'
p2656
sg24
S'.500'
p2657
sg28
S'NBA'
p2658
sg30
S'0.6'
p2659
sg32
S'6.9'
p2660
sg34
S'3.2'
p2661
sg36
S'0.6'
p2662
sg38
S'1.6'
p2663
sg40
S'33'
p2664
sg42
S'ORL'
p2665
sg44
g536
sg46
S'0.0'
p2666
sg48
S'1.3'
p2667
sg50
S'0.3'
p2668
sg52
S'4.7'
p2669
sg54
S'1.3'
p2670
sg56
S'2011-12'
p2671
sg58
S'1.6'
p2672
sg60
S'3.8'
p2673
sg62
S'.267'
p2674
sg64
S'114'
p2675
sg66
g691
sbasS'_fromYear'
p2676
S'1999'
p2677
sS'_url'
p2678
S'http://www.basketball-reference.com/players/h/hughela01.html'
p2679
sS'_perGame'
p2680
(isrc.gp1.models.PerGame
PerGame
p2681
(dp2682
g8
S'0.1'
p2683
sg10
S'0.8'
p2684
sg12
S'.227'
p2685
sS'_effectiveFieldGalPercentage'
p2686
S'.250'
p2687
sg14
S'0.8'
p2688
sg16
S'.143'
p2689
sg18
S'0.1'
p2690
sg20
S'1.3'
p2691
sg22
S'PG'
p2692
sg24
S'.500'
p2693
sg28
S'NBA'
p2694
sg30
S'0.2'
p2695
sg34
S'1.1'
p2696
sS'_fieldGoalsttempted'
p2697
S'2.4'
p2698
sg36
S'0.2'
p2699
sg38
S'0.6'
p2700
sg40
S'33'
p2701
sg42
S'ORL'
p2702
sg44
g536
sg46
S'0.0'
p2703
sg48
S'0.4'
p2704
sg50
S'0.1'
p2705
sg52
S'1.7'
p2706
sg54
S'0.4'
p2707
sg56
S'2011-12'
p2708
sg58
S'0.6'
p2709
sg60
S'1.3'
p2710
sg62
S'.267'
p2711
sg64
S'12.7'
p2712
sg66
g691
sbsS'_weight'
p2713
S'184'
p2714
sS'_dob'
p2715
S'23-1-1979'
p2716
sS'_salary'
p2717
(lp2718
(isrc.gp1.models.Salary
Salary
p2719
(dp2720
g42
S'Philadelphia 76ers'
p2721
sg28
S'NBA'
p2722
sg2717
S'$1,330,000'
p2723
sg56
S'1998-99'
p2724
sba(isrc.gp1.models.Salary
Salary
p2725
(dp2726
g42
S'Golden State Warriors'
p2727
sg28
S'NBA'
p2728
sg2717
S'$1,722,240'
p2729
sg56
S'1999-00'
p2730
sba(isrc.gp1.models.Salary
Salary
p2731
(dp2732
g42
S'Golden State Warriors'
p2733
sg28
S'NBA'
p2734
sg2717
S'$1,842,480'
p2735
sg56
S'2000-01'
p2736
sba(isrc.gp1.models.Salary
Salary
p2737
(dp2738
g42
S'Golden State Warriors'
p2739
sg28
S'NBA'
p2740
sg2717
S'$2,343,635'
p2741
sg56
S'2001-02'
p2742
sba(isrc.gp1.models.Salary
Salary
p2743
(dp2744
g42
S'Washington Wizards'
p2745
sg28
S'NBA'
p2746
sg2717
S'$4,546,000'
p2747
sg56
S'2002-03'
p2748
sba(isrc.gp1.models.Salary
Salary
p2749
(dp2750
g42
S'Washington Wizards'
p2751
sg28
S'NBA'
p2752
sg2717
S'$5,000,600'
p2753
sg56
S'2003-04'
p2754
sba(isrc.gp1.models.Salary
Salary
p2755
(dp2756
g42
S'Washington Wizards'
p2757
sg28
S'NBA'
p2758
sg2717
S'$5,455,200'
p2759
sg56
S'2004-05'
p2760
sba(isrc.gp1.models.Salary
Salary
p2761
(dp2762
g42
S'Cleveland Cavaliers'
p2763
sg28
S'NBA'
p2764
sg2717
S'$10,344,900'
p2765
sg56
S'2005-06'
p2766
sba(isrc.gp1.models.Salary
Salary
p2767
(dp2768
g42
S'Cleveland Cavaliers'
p2769
sg28
S'NBA'
p2770
sg2717
S'$13,363,012'
p2771
sg56
S'2006-07'
p2772
sba(isrc.gp1.models.Salary
Salary
p2773
(dp2774
g42
S'Chicago Bulls'
p2775
sg28
S'NBA'
p2776
sg2717
S'$12,000,084'
p2777
sg56
S'2007-08'
p2778
sba(isrc.gp1.models.Salary
Salary
p2779
(dp2780
g42
S'New York Knicks'
p2781
sg28
S'NBA'
p2782
sg2717
S'$12,827,676'
p2783
sg56
S'2008-09'
p2784
sba(isrc.gp1.models.Salary
Salary
p2785
(dp2786
g42
S'Sacramento Kings'
p2787
sg28
S'NBA'
p2788
sg2717
S'$13,655,268'
p2789
sg56
S'2009-10'
p2790
sba(isrc.gp1.models.Salary
Salary
p2791
(dp2792
g42
S'Orlando Magic'
p2793
sg28
S'NBA'
p2794
sg2717
S'$414,443'
p2795
sg56
S'2011-12'
p2796
sbasg22
S'G'
p2797
sb.