(isrc.gp1.models.Player
Player
p0
(dp1
S'_experience'
p2
S'NA'
p3
sS'_totals'
p4
(lp5
(isrc.gp1.models.Totals
Totals
p6
(dp7
S'_offensiveRebounds'
p8
S'32'
p9
sS'_threePointsAttempted'
p10
S'20'
p11
sS'_fieldGoalsPercentage'
p12
S'.446'
p13
sS'_assist'
p14
S'350'
p15
sS'_threePointsPercentage'
p16
S'.200'
p17
sS'_threePoints'
p18
S'4'
p19
sS'_points'
p20
S'703'
p21
sS'_position'
p22
S'SG'
p23
sS'_freeThrowsPercentage'
p24
S'.829'
p25
sS'_effectiveFieldGoalPercentage'
p26
S'.449'
p27
sS'_league'
p28
S'NBA'
p29
sS'_steals'
p30
S'107'
p31
sS'_fieldGoalsAttempted'
p32
S'626'
p33
sS'_personalFouls'
p34
S'209'
p35
sS'_freeThrowsAttempted'
p36
S'170'
p37
sS'_totalRebounds'
p38
S'164'
p39
sS'_age'
p40
S'22'
p41
sS'_team'
p42
S'PHO'
p43
sS'_games'
p44
S'80'
p45
sS'_blocks'
p46
S'8'
p47
sS'_twoPoints'
p48
S'275'
p49
sS'_freeThrows'
p50
S'141'
p51
sS'_twoPointsAttempted'
p52
S'606'
p53
sS'_defensiveRebounds'
p54
S'132'
p55
sS'_season'
p56
S'1984-85'
p57
sS'_fieldGoals'
p58
S'279'
p59
sS'_turnOvers'
p60
S'167'
p61
sS'_twoPointsPercentage'
p62
S'.454'
p63
sS'_minutesPlayed'
p64
S'2062'
p65
sS'_gamesStarted'
p66
S'39'
p67
sba(isrc.gp1.models.Totals
Totals
p68
(dp69
g8
S'56'
p70
sg10
S'29'
p71
sg12
S'.479'
p72
sg14
S'526'
p73
sg16
S'.138'
p74
sg18
g19
sg20
S'905'
p75
sg22
S'PG'
p76
sg24
S'.767'
p77
sg26
S'.482'
p78
sg28
S'NBA'
p79
sg30
S'132'
p80
sg32
S'735'
p81
sg34
S'222'
p82
sg36
S'257'
p83
sg38
S'260'
p84
sg40
S'23'
p85
sg42
S'PHO'
p86
sg44
S'82'
p87
sg46
S'9'
p88
sg48
S'348'
p89
sg50
S'197'
p90
sg52
S'706'
p91
sg54
S'204'
p92
sg56
S'1985-86'
p93
sg58
S'352'
p94
sg60
S'190'
p95
sg62
S'.493'
p96
sg64
S'2733'
p97
sg66
S'82'
p98
sba(isrc.gp1.models.Totals
Totals
p99
(dp100
g8
S'62'
p101
sg10
S'27'
p102
sg12
S'.477'
p103
sg14
S'632'
p104
sg16
S'.185'
p105
sg18
S'5'
p106
sg20
S'923'
p107
sg22
S'PG'
p108
sg24
S'.769'
p109
sg26
S'.480'
p110
sg28
S'NBA'
p111
sg30
S'112'
p112
sg32
S'753'
p113
sg34
S'239'
p114
sg36
S'260'
p115
sg38
S'260'
p116
sg40
S'24'
p117
sg42
S'PHO'
p118
sg44
S'82'
p119
sg46
g88
sg48
S'354'
p120
sg50
S'200'
p121
sg52
S'726'
p122
sg54
S'198'
p123
sg56
S'1986-87'
p124
sg58
S'359'
p125
sg60
S'195'
p126
sg62
S'.488'
p127
sg64
S'2579'
p128
sg66
S'82'
p129
sba(isrc.gp1.models.Totals
Totals
p130
(dp131
g8
S'49'
p132
sg10
S'18'
p133
sg12
S'.528'
p134
sg14
S'395'
p135
sg16
S'.167'
p136
sg18
S'3'
p137
sg20
S'683'
p138
sg22
S'PG'
p139
sg24
S'.732'
p140
sg26
S'.531'
p141
sg28
S'NBA'
p142
sg30
S'81'
p143
sg32
S'538'
p144
sg34
S'177'
p145
sg36
S'153'
p146
sg38
S'174'
p147
sg40
S'25'
p148
sg42
S'TOT'
p149
sg44
S'68'
p150
sg46
g106
sg48
S'281'
p151
sg50
S'112'
p152
sg52
S'520'
p153
sg54
S'125'
p154
sg56
S'1987-88'
p155
sg58
S'284'
p156
sg60
S'127'
p157
sg62
S'.540'
p158
sg64
S'1809'
p159
sg66
S'33'
p160
sba(isrc.gp1.models.Totals
Totals
p161
(dp162
g8
S'44'
p163
sg10
S'16'
p164
sg12
S'.545'
p165
sg14
S'354'
p166
sg16
S'.188'
p167
sg18
g137
sg20
S'634'
p168
sg22
S'PG'
p169
sg24
S'.741'
p170
sg26
S'.549'
p171
sg28
S'NBA'
p172
sg30
S'61'
p173
sg32
S'484'
p174
sg34
S'154'
p175
sg36
S'139'
p176
sg38
S'151'
p177
sg40
S'25'
p178
sg42
S'PHO'
p179
sg44
S'50'
p180
sg46
g19
sg48
S'261'
p181
sg50
S'103'
p182
sg52
S'468'
p183
sg54
S'107'
p184
sg56
S'1987-88'
p185
sg58
S'264'
p186
sg60
S'108'
p187
sg62
S'.558'
p188
sg64
S'1557'
p189
sg66
S'33'
p190
sba(isrc.gp1.models.Totals
Totals
p191
(dp192
g8
g106
sg10
S'2'
p193
sg12
S'.370'
p194
sg14
S'41'
p195
sg16
S'.000'
p196
sg18
S'0'
p197
sg20
S'49'
p198
sg22
S'PG'
p199
sg24
S'.643'
p200
sg26
S'.370'
p201
sg28
S'NBA'
p202
sg30
S'20'
p203
sg32
S'54'
p204
sg34
S'23'
p205
sg36
S'14'
p206
sg38
S'23'
p207
sg40
S'25'
p208
sg42
S'MIL'
p209
sg44
S'18'
p210
sg46
S'1'
p211
sg48
S'20'
p212
sg50
g88
sg52
S'52'
p213
sg54
S'18'
p214
sg56
S'1987-88'
p215
sg58
S'20'
p216
sg60
S'19'
p217
sg62
S'.385'
p218
sg64
S'252'
p219
sg66
g197
sba(isrc.gp1.models.Totals
Totals
p220
(dp221
g8
S'70'
p222
sg10
S'94'
p223
sg12
S'.483'
p224
sg14
S'405'
p225
sg16
S'.266'
p226
sg18
S'25'
p227
sg20
S'844'
p228
sg22
S'PG'
p229
sg24
S'.816'
p230
sg26
S'.501'
p231
sg28
S'NBA'
p232
sg30
S'142'
p233
sg32
S'714'
p234
sg34
S'187'
p235
sg36
S'158'
p236
sg38
S'189'
p237
sg40
S'26'
p238
sg42
S'MIL'
p239
sg44
S'73'
p240
sg46
g106
sg48
S'320'
p241
sg50
S'129'
p242
sg52
S'620'
p243
sg54
S'119'
p244
sg56
S'1988-89'
p245
sg58
S'345'
p246
sg60
S'160'
p247
sg62
S'.516'
p248
sg64
S'2220'
p249
sg66
S'50'
p250
sba(isrc.gp1.models.Totals
Totals
p251
(dp252
g8
S'80'
p253
sg10
S'70'
p254
sg12
S'.494'
p255
sg14
S'472'
p256
sg16
S'.300'
p257
sg18
S'21'
p258
sg20
S'1237'
p259
sg22
S'PG'
p260
sg24
S'.786'
p261
sg26
S'.504'
p262
sg28
S'NBA'
p263
sg30
S'156'
p264
sg32
S'1005'
p265
sg34
S'253'
p266
sg36
S'285'
p267
sg38
S'269'
p268
sg40
S'27'
p269
sg42
S'MIL'
p270
sg44
S'81'
p271
sg46
S'11'
p272
sg48
S'475'
p273
sg50
S'224'
p274
sg52
S'935'
p275
sg54
S'189'
p276
sg56
S'1989-90'
p277
sg58
S'496'
p278
sg60
S'151'
p279
sg62
S'.508'
p280
sg64
S'2818'
p281
sg66
S'81'
p282
sba(isrc.gp1.models.Totals
Totals
p283
(dp284
g8
S'57'
p285
sg10
S'161'
p286
sg12
S'.502'
p287
sg14
S'538'
p288
sg16
S'.373'
p289
sg18
S'60'
p290
sg20
S'1215'
p291
sg22
S'PG'
p292
sg24
S'.799'
p293
sg26
S'.533'
p294
sg28
S'NBA'
p295
sg30
S'129'
p296
sg32
S'960'
p297
sg34
S'237'
p298
sg36
S'239'
p299
sg38
S'220'
p300
sg40
S'28'
p301
sg42
S'MIL'
p302
sg44
S'80'
p303
sg46
S'7'
p304
sg48
S'422'
p305
sg50
S'191'
p306
sg52
S'799'
p307
sg54
S'163'
p308
sg56
S'1990-91'
p309
sg58
S'482'
p310
sg60
S'151'
p311
sg62
S'.528'
p312
sg64
S'2726'
p313
sg66
S'80'
p314
sba(isrc.gp1.models.Totals
Totals
p315
(dp316
g8
S'44'
p317
sg10
S'144'
p318
sg12
S'.469'
p319
sg14
S'466'
p320
sg16
S'.292'
p321
sg18
S'42'
p322
sg20
S'991'
p323
sg22
S'PG'
p324
sg24
S'.783'
p325
sg26
S'.496'
p326
sg28
S'NBA'
p327
sg30
S'119'
p328
sg32
S'803'
p329
sg34
S'210'
p330
sg36
S'249'
p331
sg38
S'184'
p332
sg40
S'29'
p333
sg42
S'MIL'
p334
sg44
S'71'
p335
sg46
S'13'
p336
sg48
S'335'
p337
sg50
S'195'
p338
sg52
S'659'
p339
sg54
S'140'
p340
sg56
S'1991-92'
p341
sg58
S'377'
p342
sg60
S'148'
p343
sg62
S'.508'
p344
sg64
S'2261'
p345
sg66
S'71'
p346
sba(isrc.gp1.models.Totals
Totals
p347
(dp348
g8
S'40'
p349
sg10
S'75'
p350
sg12
S'.436'
p351
sg14
S'317'
p352
sg16
S'.200'
p353
sg18
S'15'
p354
sg20
S'690'
p355
sg22
S'SG'
p356
sg24
S'.777'
p357
sg26
S'.447'
p358
sg28
S'NBA'
p359
sg30
S'101'
p360
sg32
S'659'
p361
sg34
S'236'
p362
sg36
S'130'
p363
sg38
S'143'
p364
sg40
S'30'
p365
sg42
S'UTA'
p366
sg44
S'78'
p367
sg46
S'11'
p368
sg48
S'272'
p369
sg50
S'101'
p370
sg52
S'584'
p371
sg54
S'103'
p372
sg56
S'1992-93'
p373
sg58
S'287'
p374
sg60
S'132'
p375
sg62
S'.466'
p376
sg64
S'2034'
p377
sg66
S'20'
p378
sba(isrc.gp1.models.Totals
Totals
p379
(dp380
g8
S'35'
p381
sg10
S'96'
p382
sg12
S'.436'
p383
sg14
S'219'
p384
sg16
S'.396'
p385
sg18
S'38'
p386
sg20
S'561'
p387
sg22
S'SG'
p388
sg24
S'.750'
p389
sg26
S'.471'
p390
sg28
S'NBA'
p391
sg30
S'65'
p392
sg32
S'535'
p393
sg34
S'168'
p394
sg36
S'76'
p395
sg38
S'127'
p396
sg40
S'31'
p397
sg42
S'UTA'
p398
sg44
S'75'
p399
sg46
S'11'
p400
sg48
S'195'
p401
sg50
S'57'
p402
sg52
S'439'
p403
sg54
S'92'
p404
sg56
S'1993-94'
p405
sg58
S'233'
p406
sg60
S'95'
p407
sg62
S'.444'
p408
sg64
S'1619'
p409
sg66
S'19'
p410
sba(isrc.gp1.models.Totals
Totals
p411
(dp412
g8
g19
sg10
g19
sg12
S'.235'
p413
sg14
S'19'
p414
sg16
S'.500'
p415
sg18
g193
sg20
S'20'
p416
sg22
S'SG-PG'
p417
sg24
S'.500'
p418
sg26
S'.265'
p419
sg28
S'NBA'
p420
sg30
g88
sg32
S'34'
p421
sg34
S'35'
p422
sg36
g19
sg38
S'13'
p423
sg40
S'32'
p424
sg42
S'TOT'
p425
sg44
S'18'
p426
sg46
g197
sg48
S'6'
p427
sg50
g193
sg52
S'30'
p428
sg54
g88
sg56
S'1994-95'
p429
sg58
g47
sg60
S'17'
p430
sg62
S'.200'
p431
sg64
S'201'
p432
sg66
g197
sba(isrc.gp1.models.Totals
Totals
p433
(dp434
g8
g193
sg10
g137
sg12
S'.160'
p435
sg14
g88
sg16
S'.667'
p436
sg18
g193
sg20
S'10'
p437
sg22
S'SG'
p438
sg24
g3
sg26
S'.200'
p439
sg28
S'NBA'
p440
sg30
g304
sg32
S'25'
p441
sg34
S'25'
p442
sg36
g197
sg38
S'10'
p443
sg40
S'32'
p444
sg42
S'UTA'
p445
sg44
S'12'
p446
sg46
g197
sg48
g193
sg50
g197
sg52
S'22'
p447
sg54
g47
sg56
S'1994-95'
p448
sg58
g19
sg60
S'12'
p449
sg62
S'.091'
p450
sg64
S'149'
p451
sg66
g197
sba(isrc.gp1.models.Totals
Totals
p452
(dp453
g8
g193
sg10
g211
sg12
S'.444'
p454
sg14
S'10'
p455
sg16
S'.000'
p456
sg18
g197
sg20
S'10'
p457
sg22
S'PG'
p458
sg24
S'.500'
p459
sg26
S'.444'
p460
sg28
S'NBA'
p461
sg30
g193
sg32
g88
sg34
S'10'
p462
sg36
g19
sg38
g137
sg40
S'32'
p463
sg42
S'BOS'
p464
sg44
g427
sg46
g197
sg48
g19
sg50
g193
sg52
g47
sg54
g211
sg56
S'1994-95'
p465
sg58
g19
sg60
g106
sg62
S'.500'
p466
sg64
S'52'
p467
sg66
g197
sbasS'_college'
p468
S'University of Colorado'
p469
sS'_toYear'
p470
S'1995'
p471
sS'_height'
p472
S'6-3'
p473
sS'_active'
p474
I00
sS'_shootingHand'
p475
VRight
p476
sS'_name'
p477
S'Jay Humphries'
p478
sS'_per100Possessions'
p479
(lp480
(isrc.gp1.models.Per100Possession
Per100Possession
p481
(dp482
g8
S'0.7'
p483
sg10
S'0.5'
p484
sg12
S'.446'
p485
sS'_offensiveRating'
p486
S'98'
p487
sg14
S'7.9'
p488
sg16
S'.200'
p489
sg18
S'0.1'
p490
sg20
S'16.0'
p491
sg22
S'SG'
p492
sS'_defensiveRating'
p493
S'108'
p494
sg24
S'.829'
p495
sg28
S'NBA'
p496
sg30
S'2.4'
p497
sg32
S'14.2'
p498
sg34
S'4.7'
p499
sg36
S'3.9'
p500
sg38
S'3.7'
p501
sg40
S'22'
p502
sg42
S'PHO'
p503
sg44
S'80'
p504
sg46
S'0.2'
p505
sg48
S'6.2'
p506
sg50
S'3.2'
p507
sg52
S'13.8'
p508
sg54
S'3.0'
p509
sg56
S'1984-85'
p510
sg58
S'6.3'
p511
sg60
S'3.8'
p512
sg62
S'.454'
p513
sg64
S'2062'
p514
sg66
S'39'
p515
sba(isrc.gp1.models.Per100Possession
Per100Possession
p516
(dp517
g8
S'0.9'
p518
sg10
S'0.5'
p519
sg12
S'.479'
p520
sg486
S'108'
p521
sg14
S'8.8'
p522
sg16
S'.138'
p523
sg18
S'0.1'
p524
sg20
S'15.2'
p525
sg22
S'PG'
p526
sg493
S'109'
p527
sg24
S'.767'
p528
sg28
S'NBA'
p529
sg30
S'2.2'
p530
sg32
S'12.3'
p531
sg34
S'3.7'
p532
sg36
S'4.3'
p533
sg38
S'4.4'
p534
sg40
S'23'
p535
sg42
S'PHO'
p536
sg44
S'82'
p537
sg46
S'0.2'
p538
sg48
S'5.8'
p539
sg50
S'3.3'
p540
sg52
S'11.8'
p541
sg54
S'3.4'
p542
sg56
S'1985-86'
p543
sg58
S'5.9'
p544
sg60
S'3.2'
p545
sg62
S'.493'
p546
sg64
S'2733'
p547
sg66
S'82'
p548
sba(isrc.gp1.models.Per100Possession
Per100Possession
p549
(dp550
g8
S'1.1'
p551
sg10
S'0.5'
p552
sg12
S'.477'
p553
sg486
S'110'
p554
sg14
S'11.5'
p555
sg16
S'.185'
p556
sg18
S'0.1'
p557
sg20
S'16.8'
p558
sg22
S'PG'
p559
sg493
S'112'
p560
sg24
S'.769'
p561
sg28
S'NBA'
p562
sg30
S'2.0'
p563
sg32
S'13.7'
p564
sg34
S'4.4'
p565
sg36
S'4.7'
p566
sg38
S'4.7'
p567
sg40
S'24'
p568
sg42
S'PHO'
p569
sg44
S'82'
p570
sg46
S'0.2'
p571
sg48
S'6.5'
p572
sg50
S'3.6'
p573
sg52
S'13.2'
p574
sg54
S'3.6'
p575
sg56
S'1986-87'
p576
sg58
S'6.6'
p577
sg60
S'3.6'
p578
sg62
S'.488'
p579
sg64
S'2579'
p580
sg66
S'82'
p581
sba(isrc.gp1.models.Per100Possession
Per100Possession
p582
(dp583
g8
S'1.3'
p584
sg10
S'0.5'
p585
sg12
S'.528'
p586
sg486
S'113'
p587
sg14
S'10.4'
p588
sg16
S'.167'
p589
sg18
S'0.1'
p590
sg20
S'18.0'
p591
sg22
S'PG'
p592
sg493
S'112'
p593
sg24
S'.732'
p594
sg28
S'NBA'
p595
sg30
S'2.1'
p596
sg32
S'14.2'
p597
sg34
S'4.7'
p598
sg36
S'4.0'
p599
sg38
S'4.6'
p600
sg40
S'25'
p601
sg42
S'TOT'
p602
sg44
S'68'
p603
sg46
S'0.1'
p604
sg48
S'7.4'
p605
sg50
S'3.0'
p606
sg52
S'13.7'
p607
sg54
S'3.3'
p608
sg56
S'1987-88'
p609
sg58
S'7.5'
p610
sg60
S'3.3'
p611
sg62
S'.540'
p612
sg64
S'1809'
p613
sg66
S'33'
p614
sba(isrc.gp1.models.Per100Possession
Per100Possession
p615
(dp616
g8
S'1.3'
p617
sg10
S'0.5'
p618
sg12
S'.545'
p619
sg486
S'116'
p620
sg14
S'10.8'
p621
sg16
S'.188'
p622
sg18
S'0.1'
p623
sg20
S'19.3'
p624
sg22
S'PG'
p625
sg493
S'113'
p626
sg24
S'.741'
p627
sg28
S'NBA'
p628
sg30
S'1.9'
p629
sg32
S'14.7'
p630
sg34
S'4.7'
p631
sg36
S'4.2'
p632
sg38
S'4.6'
p633
sg40
S'25'
p634
sg42
S'PHO'
p635
sg44
S'50'
p636
sg46
S'0.1'
p637
sg48
S'7.9'
p638
sg50
S'3.1'
p639
sg52
S'14.3'
p640
sg54
S'3.3'
p641
sg56
S'1987-88'
p642
sg58
S'8.0'
p643
sg60
S'3.3'
p644
sg62
S'.558'
p645
sg64
S'1557'
p646
sg66
S'33'
p647
sba(isrc.gp1.models.Per100Possession
Per100Possession
p648
(dp649
g8
S'1.0'
p650
sg10
S'0.4'
p651
sg12
S'.370'
p652
sg486
S'86'
p653
sg14
S'8.0'
p654
sg16
S'.000'
p655
sg18
S'0.0'
p656
sg20
S'9.6'
p657
sg22
S'PG'
p658
sg493
S'105'
p659
sg24
S'.643'
p660
sg28
S'NBA'
p661
sg30
S'3.9'
p662
sg32
S'10.5'
p663
sg34
S'4.5'
p664
sg36
S'2.7'
p665
sg38
S'4.5'
p666
sg40
S'25'
p667
sg42
S'MIL'
p668
sg44
S'18'
p669
sg46
S'0.2'
p670
sg48
S'3.9'
p671
sg50
S'1.8'
p672
sg52
S'10.2'
p673
sg54
S'3.5'
p674
sg56
S'1987-88'
p675
sg58
S'3.9'
p676
sg60
S'3.7'
p677
sg62
S'.385'
p678
sg64
S'252'
p679
sg66
g197
sba(isrc.gp1.models.Per100Possession
Per100Possession
p680
(dp681
g8
S'1.5'
p682
sg10
S'2.1'
p683
sg12
S'.483'
p684
sg486
S'109'
p685
sg14
S'8.9'
p686
sg16
S'.266'
p687
sg18
S'0.5'
p688
sg20
S'18.5'
p689
sg22
S'PG'
p690
sg493
S'107'
p691
sg24
S'.816'
p692
sg28
S'NBA'
p693
sg30
S'3.1'
p694
sg32
S'15.7'
p695
sg34
S'4.1'
p696
sg36
S'3.5'
p697
sg38
S'4.1'
p698
sg40
S'26'
p699
sg42
S'MIL'
p700
sg44
S'73'
p701
sg46
S'0.1'
p702
sg48
S'7.0'
p703
sg50
S'2.8'
p704
sg52
S'13.6'
p705
sg54
S'2.6'
p706
sg56
S'1988-89'
p707
sg58
S'7.6'
p708
sg60
S'3.5'
p709
sg62
S'.516'
p710
sg64
S'2220'
p711
sg66
S'50'
p712
sba(isrc.gp1.models.Per100Possession
Per100Possession
p713
(dp714
g8
S'1.4'
p715
sg10
S'1.2'
p716
sg12
S'.494'
p717
sg486
S'115'
p718
sg14
S'8.2'
p719
sg16
S'.300'
p720
sg18
S'0.4'
p721
sg20
S'21.5'
p722
sg22
S'PG'
p723
sg493
S'109'
p724
sg24
S'.786'
p725
sg28
S'NBA'
p726
sg30
S'2.7'
p727
sg32
S'17.5'
p728
sg34
S'4.4'
p729
sg36
S'5.0'
p730
sg38
S'4.7'
p731
sg40
S'27'
p732
sg42
S'MIL'
p733
sg44
S'81'
p734
sg46
S'0.2'
p735
sg48
S'8.3'
p736
sg50
S'3.9'
p737
sg52
S'16.2'
p738
sg54
S'3.3'
p739
sg56
S'1989-90'
p740
sg58
S'8.6'
p741
sg60
S'2.6'
p742
sg62
S'.508'
p743
sg64
S'2818'
p744
sg66
S'81'
p745
sba(isrc.gp1.models.Per100Possession
Per100Possession
p746
(dp747
g8
S'1.0'
p748
sg10
S'2.9'
p749
sg12
S'.502'
p750
sg486
S'119'
p751
sg14
S'9.9'
p752
sg16
S'.373'
p753
sg18
S'1.1'
p754
sg20
S'22.3'
p755
sg22
S'PG'
p756
sg493
S'109'
p757
sg24
S'.799'
p758
sg28
S'NBA'
p759
sg30
S'2.4'
p760
sg32
S'17.6'
p761
sg34
S'4.3'
p762
sg36
S'4.4'
p763
sg38
S'4.0'
p764
sg40
S'28'
p765
sg42
S'MIL'
p766
sg44
S'80'
p767
sg46
S'0.1'
p768
sg48
S'7.7'
p769
sg50
S'3.5'
p770
sg52
S'14.6'
p771
sg54
S'3.0'
p772
sg56
S'1990-91'
p773
sg58
S'8.8'
p774
sg60
S'2.8'
p775
sg62
S'.528'
p776
sg64
S'2726'
p777
sg66
S'80'
p778
sba(isrc.gp1.models.Per100Possession
Per100Possession
p779
(dp780
g8
S'1.0'
p781
sg10
S'3.2'
p782
sg12
S'.469'
p783
sg486
S'115'
p784
sg14
S'10.4'
p785
sg16
S'.292'
p786
sg18
S'0.9'
p787
sg20
S'22.0'
p788
sg22
S'PG'
p789
sg493
S'112'
p790
sg24
S'.783'
p791
sg28
S'NBA'
p792
sg30
S'2.6'
p793
sg32
S'17.8'
p794
sg34
S'4.7'
p795
sg36
S'5.5'
p796
sg38
S'4.1'
p797
sg40
S'29'
p798
sg42
S'MIL'
p799
sg44
S'71'
p800
sg46
S'0.3'
p801
sg48
S'7.4'
p802
sg50
S'4.3'
p803
sg52
S'14.6'
p804
sg54
S'3.1'
p805
sg56
S'1991-92'
p806
sg58
S'8.4'
p807
sg60
S'3.3'
p808
sg62
S'.508'
p809
sg64
S'2261'
p810
sg66
S'71'
p811
sba(isrc.gp1.models.Per100Possession
Per100Possession
p812
(dp813
g8
S'1.0'
p814
sg10
S'1.8'
p815
sg12
S'.436'
p816
sg486
S'99'
p817
sg14
S'7.7'
p818
sg16
S'.200'
p819
sg18
S'0.4'
p820
sg20
S'16.9'
p821
sg22
S'SG'
p822
sg493
S'109'
p823
sg24
S'.777'
p824
sg28
S'NBA'
p825
sg30
S'2.5'
p826
sg32
S'16.1'
p827
sg34
S'5.8'
p828
sg36
S'3.2'
p829
sg38
S'3.5'
p830
sg40
S'30'
p831
sg42
S'UTA'
p832
sg44
S'78'
p833
sg46
S'0.3'
p834
sg48
S'6.6'
p835
sg50
S'2.5'
p836
sg52
S'14.3'
p837
sg54
S'2.5'
p838
sg56
S'1992-93'
p839
sg58
S'7.0'
p840
sg60
S'3.2'
p841
sg62
S'.466'
p842
sg64
S'2034'
p843
sg66
S'20'
p844
sba(isrc.gp1.models.Per100Possession
Per100Possession
p845
(dp846
g8
S'1.1'
p847
sg10
S'3.1'
p848
sg12
S'.436'
p849
sg486
S'101'
p850
sg14
S'7.0'
p851
sg16
S'.396'
p852
sg18
S'1.2'
p853
sg20
S'17.9'
p854
sg22
S'SG'
p855
sg493
S'107'
p856
sg24
S'.750'
p857
sg28
S'NBA'
p858
sg30
S'2.1'
p859
sg32
S'17.0'
p860
sg34
S'5.3'
p861
sg36
S'2.4'
p862
sg38
S'4.0'
p863
sg40
S'31'
p864
sg42
S'UTA'
p865
sg44
S'75'
p866
sg46
S'0.4'
p867
sg48
S'6.2'
p868
sg50
S'1.8'
p869
sg52
S'14.0'
p870
sg54
S'2.9'
p871
sg56
S'1993-94'
p872
sg58
S'7.4'
p873
sg60
S'3.0'
p874
sg62
S'.444'
p875
sg64
S'1619'
p876
sg66
S'19'
p877
sba(isrc.gp1.models.Per100Possession
Per100Possession
p878
(dp879
g8
S'1.0'
p880
sg10
S'1.0'
p881
sg12
S'.235'
p882
sg486
S'60'
p883
sg14
S'4.9'
p884
sg16
S'.500'
p885
sg18
S'0.5'
p886
sg20
S'5.1'
p887
sg22
S'SG-PG'
p888
sg493
S'110'
p889
sg24
S'.500'
p890
sg28
S'NBA'
p891
sg30
S'2.3'
p892
sg32
S'8.7'
p893
sg34
S'9.0'
p894
sg36
S'1.0'
p895
sg38
S'3.3'
p896
sg40
S'32'
p897
sg42
S'TOT'
p898
sg44
S'18'
p899
sg46
S'0.0'
p900
sg48
S'1.5'
p901
sg50
S'0.5'
p902
sg52
S'7.7'
p903
sg54
S'2.3'
p904
sg56
S'1994-95'
p905
sg58
S'2.1'
p906
sg60
S'4.4'
p907
sg62
S'.200'
p908
sg64
S'201'
p909
sg66
g197
sba(isrc.gp1.models.Per100Possession
Per100Possession
p910
(dp911
g8
S'0.7'
p912
sg10
S'1.0'
p913
sg12
S'.160'
p914
sg486
S'45'
p915
sg14
S'3.1'
p916
sg16
S'.667'
p917
sg18
S'0.7'
p918
sg20
S'3.5'
p919
sg22
S'SG'
p920
sg493
S'108'
p921
sg24
g3
sg28
S'NBA'
p922
sg30
S'2.4'
p923
sg32
S'8.7'
p924
sg34
S'8.7'
p925
sg36
S'0.0'
p926
sg38
S'3.5'
p927
sg40
S'32'
p928
sg42
S'UTA'
p929
sg44
S'12'
p930
sg46
S'0.0'
p931
sg48
S'0.7'
p932
sg50
S'0.0'
p933
sg52
S'7.7'
p934
sg54
S'2.8'
p935
sg56
S'1994-95'
p936
sg58
S'1.4'
p937
sg60
S'4.2'
p938
sg62
S'.091'
p939
sg64
S'149'
p940
sg66
g197
sba(isrc.gp1.models.Per100Possession
Per100Possession
p941
(dp942
g8
S'2.0'
p943
sg10
S'1.0'
p944
sg12
S'.444'
p945
sg486
S'91'
p946
sg14
S'9.8'
p947
sg16
S'.000'
p948
sg18
S'0.0'
p949
sg20
S'9.8'
p950
sg22
S'PG'
p951
sg493
S'114'
p952
sg24
S'.500'
p953
sg28
S'NBA'
p954
sg30
S'2.0'
p955
sg32
S'8.8'
p956
sg34
S'9.8'
p957
sg36
S'3.9'
p958
sg38
S'2.9'
p959
sg40
S'32'
p960
sg42
S'BOS'
p961
sg44
g427
sg46
S'0.0'
p962
sg48
S'3.9'
p963
sg50
S'2.0'
p964
sg52
S'7.9'
p965
sg54
S'1.0'
p966
sg56
S'1994-95'
p967
sg58
S'3.9'
p968
sg60
S'4.9'
p969
sg62
S'.500'
p970
sg64
S'52'
p971
sg66
g197
sbasS'_advanced'
p972
(lp973
(isrc.gp1.models.Advanced
Advanced
p974
(dp975
S'_offensiveReboundPercentage'
p976
S'1.8'
p977
sS'_turnOverPercentage'
p978
S'19.2'
p979
sS'_winSharesPer48Minutes'
p980
S'.044'
p981
sS'_stealPercentage'
p982
S'2.4'
p983
sS'_usagePercentage'
p984
S'17.1'
p985
sS'_totalReboundsPercentage'
p986
S'4.5'
p987
sS'_defensiveBoxPlusMinus'
p988
S'-0.2'
p989
sg22
S'SG'
p990
sS'_valueOverReplacementPlayer'
p991
S'-0.4'
p992
sS'_trueShootingPercentage'
p993
S'.502'
p994
sS'_defensiveReboundPercentage'
p995
S'7.1'
p996
sS'_freeThrowsAttempRate'
p997
S'.272'
p998
sS'_threePointsAttempRate'
p999
S'.032'
p1000
sg28
S'NBA'
p1001
sS'_offensiveBoxPlusMinues'
p1002
S'-2.5'
p1003
sS'_assistPercentage'
p1004
S'22.6'
p1005
sS'_defensiveWinShares'
p1006
S'2.2'
p1007
sg40
S'22'
p1008
sg42
S'PHO'
p1009
sg44
S'80'
p1010
sS'_blockPercentage'
p1011
S'0.2'
p1012
sS'_playerEfficiencyRating'
p1013
S'10.6'
p1014
sS'_offensiveWinShares'
p1015
S'-0.2'
p1016
sg64
S'2062'
p1017
sS'_boxPlusMinus'
p1018
S'-2.7'
p1019
sg56
S'1984-85'
p1020
sS'_winShares'
p1021
S'1.9'
p1022
sba(isrc.gp1.models.Advanced
Advanced
p1023
(dp1024
g976
S'2.5'
p1025
sg978
S'18.3'
p1026
sg980
S'.084'
p1027
sg982
S'2.2'
p1028
sg984
S'15.1'
p1029
sg986
S'5.5'
p1030
sg988
S'-0.1'
p1031
sg22
S'PG'
p1032
sg991
S'0.9'
p1033
sg993
S'.534'
p1034
sg995
S'8.2'
p1035
sg997
S'.350'
p1036
sg999
S'.039'
p1037
sg28
S'NBA'
p1038
sg1002
S'-0.6'
p1039
sg1004
S'25.3'
p1040
sg1006
S'2.4'
p1041
sg40
S'23'
p1042
sg42
S'PHO'
p1043
sg44
S'82'
p1044
sg1011
S'0.2'
p1045
sg1013
S'12.6'
p1046
sg1015
S'2.4'
p1047
sg64
S'2733'
p1048
sg1018
S'-0.6'
p1049
sg56
S'1985-86'
p1050
sg1021
S'4.8'
p1051
sba(isrc.gp1.models.Advanced
Advanced
p1052
(dp1053
g976
S'2.8'
p1054
sg978
S'18.4'
p1055
sg980
S'.084'
p1056
sg982
S'2.0'
p1057
sg984
S'16.7'
p1058
sg986
S'5.7'
p1059
sg988
S'-1.1'
p1060
sg22
S'PG'
p1061
sg991
S'0.6'
p1062
sg993
S'.532'
p1063
sg995
S'8.5'
p1064
sg997
S'.345'
p1065
sg999
S'.036'
p1066
sg28
S'NBA'
p1067
sg1002
S'0.1'
p1068
sg1004
S'32.2'
p1069
sg1006
S'1.6'
p1070
sg40
S'24'
p1071
sg42
S'PHO'
p1072
sg44
S'82'
p1073
sg1011
S'0.2'
p1074
sg1013
S'14.2'
p1075
sg1015
S'2.9'
p1076
sg64
S'2579'
p1077
sg1018
S'-1.0'
p1078
sg56
S'1986-87'
p1079
sg1021
S'4.5'
p1080
sba(isrc.gp1.models.Advanced
Advanced
p1081
(dp1082
g976
S'3.0'
p1083
sg978
S'17.3'
p1084
sg980
S'.093'
p1085
sg982
S'2.1'
p1086
sg984
S'16.6'
p1087
sg986
S'5.4'
p1088
sg988
S'-1.2'
p1089
sg22
S'PG'
p1090
sg991
S'0.7'
p1091
sg993
S'.564'
p1092
sg995
S'7.8'
p1093
sg997
S'.284'
p1094
sg999
S'.033'
p1095
sg28
S'NBA'
p1096
sg1002
S'0.7'
p1097
sg1004
S'29.7'
p1098
sg1006
S'1.0'
p1099
sg40
S'25'
p1100
sg42
S'TOT'
p1101
sg44
S'68'
p1102
sg1011
S'0.2'
p1103
sg1013
S'14.8'
p1104
sg1015
S'2.5'
p1105
sg64
S'1809'
p1106
sg1018
S'-0.5'
p1107
sg56
S'1987-88'
p1108
sg1021
S'3.5'
p1109
sba(isrc.gp1.models.Advanced
Advanced
p1110
(dp1111
g976
S'3.2'
p1112
sg978
S'16.5'
p1113
sg980
S'.107'
p1114
sg982
S'1.9'
p1115
sg984
S'17.1'
p1116
sg986
S'5.5'
p1117
sg988
S'-1.6'
p1118
sg22
S'PG'
p1119
sg991
S'0.8'
p1120
sg993
S'.581'
p1121
sg995
S'7.8'
p1122
sg997
S'.287'
p1123
sg999
S'.033'
p1124
sg28
S'NBA'
p1125
sg1002
S'1.6'
p1126
sg1004
S'31.1'
p1127
sg1006
S'0.6'
p1128
sg40
S'25'
p1129
sg42
S'PHO'
p1130
sg44
S'50'
p1131
sg1011
S'0.1'
p1132
sg1013
S'15.8'
p1133
sg1015
S'2.8'
p1134
sg64
S'1557'
p1135
sg1018
S'0.0'
p1136
sg56
S'1987-88'
p1137
sg1021
S'3.5'
p1138
sba(isrc.gp1.models.Advanced
Advanced
p1139
(dp1140
g976
S'2.2'
p1141
sg978
S'24.0'
p1142
sg980
S'.007'
p1143
sg982
S'3.9'
p1144
sg984
S'13.2'
p1145
sg986
S'5.1'
p1146
sg988
S'1.4'
p1147
sg22
S'PG'
p1148
sg991
S'-0.1'
p1149
sg993
S'.407'
p1150
sg995
S'8.1'
p1151
sg997
S'.259'
p1152
sg999
S'.037'
p1153
sg28
S'NBA'
p1154
sg1002
S'-4.6'
p1155
sg1004
S'21.1'
p1156
sg1006
S'0.3'
p1157
sg40
S'25'
p1158
sg42
S'MIL'
p1159
sg44
S'18'
p1160
sg1011
S'0.2'
p1161
sg1013
S'8.2'
p1162
sg1015
S'-0.3'
p1163
sg64
S'252'
p1164
sg1018
S'-3.2'
p1165
sg56
S'1987-88'
p1166
sg1021
S'0.0'
p1167
sba(isrc.gp1.models.Advanced
Advanced
p1168
(dp1169
g976
S'3.6'
p1170
sg978
S'17.0'
p1171
sg980
S'.105'
p1172
sg982
S'3.1'
p1173
sg984
S'17.6'
p1174
sg986
S'4.9'
p1175
sg988
S'0.2'
p1176
sg22
S'PG'
p1177
sg991
S'1.9'
p1178
sg993
S'.539'
p1179
sg995
S'6.3'
p1180
sg997
S'.221'
p1181
sg999
S'.132'
p1182
sg28
S'NBA'
p1183
sg1002
S'1.2'
p1184
sg1004
S'25.9'
p1185
sg1006
S'2.5'
p1186
sg40
S'26'
p1187
sg42
S'MIL'
p1188
sg44
S'73'
p1189
sg1011
S'0.1'
p1190
sg1013
S'14.6'
p1191
sg1015
S'2.4'
p1192
sg64
S'2220'
p1193
sg1018
S'1.3'
p1194
sg56
S'1988-89'
p1195
sg1021
S'4.9'
p1196
sba(isrc.gp1.models.Advanced
Advanced
p1197
(dp1198
g976
S'3.2'
p1199
sg978
S'11.8'
p1200
sg980
S'.130'
p1201
sg982
S'2.7'
p1202
sg984
S'19.1'
p1203
sg986
S'5.5'
p1204
sg988
S'-0.1'
p1205
sg22
S'PG'
p1206
sg991
S'2.5'
p1207
sg993
S'.547'
p1208
sg995
S'7.8'
p1209
sg997
S'.284'
p1210
sg999
S'.070'
p1211
sg28
S'NBA'
p1212
sg1002
S'1.7'
p1213
sg1004
S'24.8'
p1214
sg1006
S'2.6'
p1215
sg40
S'27'
p1216
sg42
S'MIL'
p1217
sg44
S'81'
p1218
sg1011
S'0.2'
p1219
sg1013
S'16.4'
p1220
sg1015
S'5.0'
p1221
sg64
S'2818'
p1222
sg1018
S'1.5'
p1223
sg56
S'1989-90'
p1224
sg1021
S'7.6'
p1225
sba(isrc.gp1.models.Advanced
Advanced
p1226
(dp1227
g976
S'2.4'
p1228
sg978
S'12.4'
p1229
sg980
S'.152'
p1230
sg982
S'2.4'
p1231
sg984
S'19.1'
p1232
sg986
S'4.8'
p1233
sg988
S'-1.1'
p1234
sg22
S'PG'
p1235
sg991
S'2.7'
p1236
sg993
S'.570'
p1237
sg995
S'7.3'
p1238
sg997
S'.249'
p1239
sg999
S'.168'
p1240
sg28
S'NBA'
p1241
sg1002
S'3.0'
p1242
sg1004
S'29.7'
p1243
sg1006
S'2.3'
p1244
sg40
S'28'
p1245
sg42
S'MIL'
p1246
sg44
S'80'
p1247
sg1011
S'0.2'
p1248
sg1013
S'17.4'
p1249
sg1015
S'6.3'
p1250
sg64
S'2726'
p1251
sg1018
S'2.0'
p1252
sg56
S'1990-91'
p1253
sg1021
S'8.6'
p1254
sba(isrc.gp1.models.Advanced
Advanced
p1255
(dp1256
g976
S'2.1'
p1257
sg978
S'14.0'
p1258
sg980
S'.123'
p1259
sg982
S'2.6'
p1260
sg984
S'19.6'
p1261
sg986
S'4.7'
p1262
sg988
S'-1.4'
p1263
sg22
S'PG'
p1264
sg991
S'1.5'
p1265
sg993
S'.543'
p1266
sg995
S'7.4'
p1267
sg997
S'.310'
p1268
sg999
S'.179'
p1269
sg28
S'NBA'
p1270
sg1002
S'2.1'
p1271
sg1004
S'30.8'
p1272
sg1006
S'1.4'
p1273
sg40
S'29'
p1274
sg42
S'MIL'
p1275
sg44
S'71'
p1276
sg1011
S'0.4'
p1277
sg1013
S'16.5'
p1278
sg1015
S'4.4'
p1279
sg64
S'2261'
p1280
sg1018
S'0.7'
p1281
sg56
S'1991-92'
p1282
sg1021
S'5.8'
p1283
sba(isrc.gp1.models.Advanced
Advanced
p1284
(dp1285
g976
S'2.3'
p1286
sg978
S'15.6'
p1287
sg980
S'.043'
p1288
sg982
S'2.5'
p1289
sg984
S'17.9'
p1290
sg986
S'4.0'
p1291
sg988
S'-0.4'
p1292
sg22
S'SG'
p1293
sg991
S'0.0'
p1294
sg993
S'.482'
p1295
sg995
S'5.6'
p1296
sg997
S'.197'
p1297
sg999
S'.114'
p1298
sg28
S'NBA'
p1299
sg1002
S'-1.5'
p1300
sg1004
S'22.2'
p1301
sg1006
S'1.8'
p1302
sg40
S'30'
p1303
sg42
S'UTA'
p1304
sg44
S'78'
p1305
sg1011
S'0.3'
p1306
sg1013
S'10.5'
p1307
sg1015
S'0.0'
p1308
sg64
S'2034'
p1309
sg1018
S'-1.9'
p1310
sg56
S'1992-93'
p1311
sg1021
S'1.8'
p1312
sba(isrc.gp1.models.Advanced
Advanced
p1313
(dp1314
g976
S'2.5'
p1315
sg978
S'14.3'
p1316
sg980
S'.061'
p1317
sg982
S'2.1'
p1318
sg984
S'18.1'
p1319
sg986
S'4.5'
p1320
sg988
S'-0.4'
p1321
sg22
S'SG'
p1322
sg991
S'0.2'
p1323
sg993
S'.493'
p1324
sg995
S'6.5'
p1325
sg997
S'.142'
p1326
sg999
S'.179'
p1327
sg28
S'NBA'
p1328
sg1002
S'-1.0'
p1329
sg1004
S'20.4'
p1330
sg1006
S'1.6'
p1331
sg40
S'31'
p1332
sg42
S'UTA'
p1333
sg44
S'75'
p1334
sg1011
S'0.5'
p1335
sg1013
S'10.9'
p1336
sg1015
S'0.5'
p1337
sg64
S'1619'
p1338
sg1018
S'-1.4'
p1339
sg56
S'1993-94'
p1340
sg1021
S'2.0'
p1341
sba(isrc.gp1.models.Advanced
Advanced
p1342
(dp1343
g976
S'2.4'
p1344
sg978
S'32.2'
p1345
sg980
S'-0.100'
p1346
sg982
S'2.3'
p1347
sg984
S'11.7'
p1348
sg986
S'4.0'
p1349
sg988
S'0.4'
p1350
sg22
S'SG-PG'
p1351
sg991
S'-0.2'
p1352
sg993
S'.280'
p1353
sg995
S'5.3'
p1354
sg997
S'.118'
p1355
sg999
S'.118'
p1356
sg28
S'NBA'
p1357
sg1002
S'-7.2'
p1358
sg1004
S'12.5'
p1359
sg1006
S'0.2'
p1360
sg40
S'32'
p1361
sg42
S'TOT'
p1362
sg44
S'18'
p1363
sg1011
S'0.0'
p1364
sg1013
S'-0.9'
p1365
sg1015
S'-0.6'
p1366
sg64
S'201'
p1367
sg1018
S'-6.8'
p1368
sg56
S'1994-95'
p1369
sg1021
S'-0.4'
p1370
sba(isrc.gp1.models.Advanced
Advanced
p1371
(dp1372
g976
S'1.8'
p1373
sg978
S'32.4'
p1374
sg980
S'-0.128'
p1375
sg982
S'2.4'
p1376
sg984
S'11.3'
p1377
sg986
S'4.2'
p1378
sg988
S'1.5'
p1379
sg22
S'SG'
p1380
sg991
S'-0.2'
p1381
sg993
S'.200'
p1382
sg995
S'6.4'
p1383
sg997
S'.000'
p1384
sg999
S'.120'
p1385
sg28
S'NBA'
p1386
sg1002
S'-8.2'
p1387
sg1004
S'7.6'
p1388
sg1006
S'0.2'
p1389
sg40
S'32'
p1390
sg42
S'UTA'
p1391
sg44
S'12'
p1392
sg1011
S'0.0'
p1393
sg1013
S'-3.2'
p1394
sg1015
S'-0.6'
p1395
sg64
S'149'
p1396
sg1018
S'-6.7'
p1397
sg56
S'1994-95'
p1398
sg1021
S'-0.4'
p1399
sba(isrc.gp1.models.Advanced
Advanced
p1400
(dp1401
g976
S'4.4'
p1402
sg978
S'31.7'
p1403
sg980
S'-0.019'
p1404
sg982
S'2.0'
p1405
sg984
S'13.1'
p1406
sg986
S'3.3'
p1407
sg988
S'-2.8'
p1408
sg22
S'PG'
p1409
sg991
S'-0.1'
p1410
sg993
S'.465'
p1411
sg995
S'2.3'
p1412
sg997
S'.444'
p1413
sg999
S'.111'
p1414
sg28
S'NBA'
p1415
sg1002
S'-4.2'
p1416
sg1004
S'26.5'
p1417
sg1006
S'0.0'
p1418
sg40
S'32'
p1419
sg42
S'BOS'
p1420
sg44
g427
sg1011
S'0.0'
p1421
sg1013
S'5.8'
p1422
sg1015
S'0.0'
p1423
sg64
S'52'
p1424
sg1018
S'-7.1'
p1425
sg56
S'1994-95'
p1426
sg1021
S'0.0'
p1427
sbasS'_per36Minutes'
p1428
(lp1429
(isrc.gp1.models.Per36Minutes
Per36Minutes
p1430
(dp1431
g8
S'0.6'
p1432
sg10
S'0.3'
p1433
sg12
S'.446'
p1434
sg14
S'6.1'
p1435
sg16
S'.200'
p1436
sg18
S'0.1'
p1437
sg20
S'12.3'
p1438
sg22
S'SG'
p1439
sg24
S'.829'
p1440
sg28
S'NBA'
p1441
sg30
S'1.9'
p1442
sg32
S'10.9'
p1443
sg34
S'3.6'
p1444
sg36
S'3.0'
p1445
sg38
S'2.9'
p1446
sg40
S'22'
p1447
sg42
S'PHO'
p1448
sg44
S'80'
p1449
sg46
S'0.1'
p1450
sg48
S'4.8'
p1451
sg50
S'2.5'
p1452
sg52
S'10.6'
p1453
sg54
S'2.3'
p1454
sg56
S'1984-85'
p1455
sg58
S'4.9'
p1456
sg60
S'2.9'
p1457
sg62
S'.454'
p1458
sg64
S'2062'
p1459
sg66
S'39'
p1460
sba(isrc.gp1.models.Per36Minutes
Per36Minutes
p1461
(dp1462
g8
S'0.7'
p1463
sg10
S'0.4'
p1464
sg12
S'.479'
p1465
sg14
S'6.9'
p1466
sg16
S'.138'
p1467
sg18
S'0.1'
p1468
sg20
S'11.9'
p1469
sg22
S'PG'
p1470
sg24
S'.767'
p1471
sg28
S'NBA'
p1472
sg30
S'1.7'
p1473
sg32
S'9.7'
p1474
sg34
S'2.9'
p1475
sg36
S'3.4'
p1476
sg38
S'3.4'
p1477
sg40
S'23'
p1478
sg42
S'PHO'
p1479
sg44
S'82'
p1480
sg46
S'0.1'
p1481
sg48
S'4.6'
p1482
sg50
S'2.6'
p1483
sg52
S'9.3'
p1484
sg54
S'2.7'
p1485
sg56
S'1985-86'
p1486
sg58
S'4.6'
p1487
sg60
S'2.5'
p1488
sg62
S'.493'
p1489
sg64
S'2733'
p1490
sg66
S'82'
p1491
sba(isrc.gp1.models.Per36Minutes
Per36Minutes
p1492
(dp1493
g8
S'0.9'
p1494
sg10
S'0.4'
p1495
sg12
S'.477'
p1496
sg14
S'8.8'
p1497
sg16
S'.185'
p1498
sg18
S'0.1'
p1499
sg20
S'12.9'
p1500
sg22
S'PG'
p1501
sg24
S'.769'
p1502
sg28
S'NBA'
p1503
sg30
S'1.6'
p1504
sg32
S'10.5'
p1505
sg34
S'3.3'
p1506
sg36
S'3.6'
p1507
sg38
S'3.6'
p1508
sg40
S'24'
p1509
sg42
S'PHO'
p1510
sg44
S'82'
p1511
sg46
S'0.1'
p1512
sg48
S'4.9'
p1513
sg50
S'2.8'
p1514
sg52
S'10.1'
p1515
sg54
S'2.8'
p1516
sg56
S'1986-87'
p1517
sg58
S'5.0'
p1518
sg60
S'2.7'
p1519
sg62
S'.488'
p1520
sg64
S'2579'
p1521
sg66
S'82'
p1522
sba(isrc.gp1.models.Per36Minutes
Per36Minutes
p1523
(dp1524
g8
S'1.0'
p1525
sg10
S'0.4'
p1526
sg12
S'.528'
p1527
sg14
S'7.9'
p1528
sg16
S'.167'
p1529
sg18
S'0.1'
p1530
sg20
S'13.6'
p1531
sg22
S'PG'
p1532
sg24
S'.732'
p1533
sg28
S'NBA'
p1534
sg30
S'1.6'
p1535
sg32
S'10.7'
p1536
sg34
S'3.5'
p1537
sg36
S'3.0'
p1538
sg38
S'3.5'
p1539
sg40
S'25'
p1540
sg42
S'TOT'
p1541
sg44
S'68'
p1542
sg46
S'0.1'
p1543
sg48
S'5.6'
p1544
sg50
S'2.2'
p1545
sg52
S'10.3'
p1546
sg54
S'2.5'
p1547
sg56
S'1987-88'
p1548
sg58
S'5.7'
p1549
sg60
S'2.5'
p1550
sg62
S'.540'
p1551
sg64
S'1809'
p1552
sg66
S'33'
p1553
sba(isrc.gp1.models.Per36Minutes
Per36Minutes
p1554
(dp1555
g8
S'1.0'
p1556
sg10
S'0.4'
p1557
sg12
S'.545'
p1558
sg14
S'8.2'
p1559
sg16
S'.188'
p1560
sg18
S'0.1'
p1561
sg20
S'14.7'
p1562
sg22
S'PG'
p1563
sg24
S'.741'
p1564
sg28
S'NBA'
p1565
sg30
S'1.4'
p1566
sg32
S'11.2'
p1567
sg34
S'3.6'
p1568
sg36
S'3.2'
p1569
sg38
S'3.5'
p1570
sg40
S'25'
p1571
sg42
S'PHO'
p1572
sg44
S'50'
p1573
sg46
S'0.1'
p1574
sg48
S'6.0'
p1575
sg50
S'2.4'
p1576
sg52
S'10.8'
p1577
sg54
S'2.5'
p1578
sg56
S'1987-88'
p1579
sg58
S'6.1'
p1580
sg60
S'2.5'
p1581
sg62
S'.558'
p1582
sg64
S'1557'
p1583
sg66
S'33'
p1584
sba(isrc.gp1.models.Per36Minutes
Per36Minutes
p1585
(dp1586
g8
S'0.7'
p1587
sg10
S'0.3'
p1588
sg12
S'.370'
p1589
sg14
S'5.9'
p1590
sg16
S'.000'
p1591
sg18
S'0.0'
p1592
sg20
S'7.0'
p1593
sg22
S'PG'
p1594
sg24
S'.643'
p1595
sg28
S'NBA'
p1596
sg30
S'2.9'
p1597
sg32
S'7.7'
p1598
sg34
S'3.3'
p1599
sg36
S'2.0'
p1600
sg38
S'3.3'
p1601
sg40
S'25'
p1602
sg42
S'MIL'
p1603
sg44
S'18'
p1604
sg46
S'0.1'
p1605
sg48
S'2.9'
p1606
sg50
S'1.3'
p1607
sg52
S'7.4'
p1608
sg54
S'2.6'
p1609
sg56
S'1987-88'
p1610
sg58
S'2.9'
p1611
sg60
S'2.7'
p1612
sg62
S'.385'
p1613
sg64
S'252'
p1614
sg66
g197
sba(isrc.gp1.models.Per36Minutes
Per36Minutes
p1615
(dp1616
g8
S'1.1'
p1617
sg10
S'1.5'
p1618
sg12
S'.483'
p1619
sg14
S'6.6'
p1620
sg16
S'.266'
p1621
sg18
S'0.4'
p1622
sg20
S'13.7'
p1623
sg22
S'PG'
p1624
sg24
S'.816'
p1625
sg28
S'NBA'
p1626
sg30
S'2.3'
p1627
sg32
S'11.6'
p1628
sg34
S'3.0'
p1629
sg36
S'2.6'
p1630
sg38
S'3.1'
p1631
sg40
S'26'
p1632
sg42
S'MIL'
p1633
sg44
S'73'
p1634
sg46
S'0.1'
p1635
sg48
S'5.2'
p1636
sg50
S'2.1'
p1637
sg52
S'10.1'
p1638
sg54
S'1.9'
p1639
sg56
S'1988-89'
p1640
sg58
S'5.6'
p1641
sg60
S'2.6'
p1642
sg62
S'.516'
p1643
sg64
S'2220'
p1644
sg66
S'50'
p1645
sba(isrc.gp1.models.Per36Minutes
Per36Minutes
p1646
(dp1647
g8
S'1.0'
p1648
sg10
S'0.9'
p1649
sg12
S'.494'
p1650
sg14
S'6.0'
p1651
sg16
S'.300'
p1652
sg18
S'0.3'
p1653
sg20
S'15.8'
p1654
sg22
S'PG'
p1655
sg24
S'.786'
p1656
sg28
S'NBA'
p1657
sg30
S'2.0'
p1658
sg32
S'12.8'
p1659
sg34
S'3.2'
p1660
sg36
S'3.6'
p1661
sg38
S'3.4'
p1662
sg40
S'27'
p1663
sg42
S'MIL'
p1664
sg44
S'81'
p1665
sg46
S'0.1'
p1666
sg48
S'6.1'
p1667
sg50
S'2.9'
p1668
sg52
S'11.9'
p1669
sg54
S'2.4'
p1670
sg56
S'1989-90'
p1671
sg58
S'6.3'
p1672
sg60
S'1.9'
p1673
sg62
S'.508'
p1674
sg64
S'2818'
p1675
sg66
S'81'
p1676
sba(isrc.gp1.models.Per36Minutes
Per36Minutes
p1677
(dp1678
g8
S'0.8'
p1679
sg10
S'2.1'
p1680
sg12
S'.502'
p1681
sg14
S'7.1'
p1682
sg16
S'.373'
p1683
sg18
S'0.8'
p1684
sg20
S'16.0'
p1685
sg22
S'PG'
p1686
sg24
S'.799'
p1687
sg28
S'NBA'
p1688
sg30
S'1.7'
p1689
sg32
S'12.7'
p1690
sg34
S'3.1'
p1691
sg36
S'3.2'
p1692
sg38
S'2.9'
p1693
sg40
S'28'
p1694
sg42
S'MIL'
p1695
sg44
S'80'
p1696
sg46
S'0.1'
p1697
sg48
S'5.6'
p1698
sg50
S'2.5'
p1699
sg52
S'10.6'
p1700
sg54
S'2.2'
p1701
sg56
S'1990-91'
p1702
sg58
S'6.4'
p1703
sg60
S'2.0'
p1704
sg62
S'.528'
p1705
sg64
S'2726'
p1706
sg66
S'80'
p1707
sba(isrc.gp1.models.Per36Minutes
Per36Minutes
p1708
(dp1709
g8
S'0.7'
p1710
sg10
S'2.3'
p1711
sg12
S'.469'
p1712
sg14
S'7.4'
p1713
sg16
S'.292'
p1714
sg18
S'0.7'
p1715
sg20
S'15.8'
p1716
sg22
S'PG'
p1717
sg24
S'.783'
p1718
sg28
S'NBA'
p1719
sg30
S'1.9'
p1720
sg32
S'12.8'
p1721
sg34
S'3.3'
p1722
sg36
S'4.0'
p1723
sg38
S'2.9'
p1724
sg40
S'29'
p1725
sg42
S'MIL'
p1726
sg44
S'71'
p1727
sg46
S'0.2'
p1728
sg48
S'5.3'
p1729
sg50
S'3.1'
p1730
sg52
S'10.5'
p1731
sg54
S'2.2'
p1732
sg56
S'1991-92'
p1733
sg58
S'6.0'
p1734
sg60
S'2.4'
p1735
sg62
S'.508'
p1736
sg64
S'2261'
p1737
sg66
S'71'
p1738
sba(isrc.gp1.models.Per36Minutes
Per36Minutes
p1739
(dp1740
g8
S'0.7'
p1741
sg10
S'1.3'
p1742
sg12
S'.436'
p1743
sg14
S'5.6'
p1744
sg16
S'.200'
p1745
sg18
S'0.3'
p1746
sg20
S'12.2'
p1747
sg22
S'SG'
p1748
sg24
S'.777'
p1749
sg28
S'NBA'
p1750
sg30
S'1.8'
p1751
sg32
S'11.7'
p1752
sg34
S'4.2'
p1753
sg36
S'2.3'
p1754
sg38
S'2.5'
p1755
sg40
S'30'
p1756
sg42
S'UTA'
p1757
sg44
S'78'
p1758
sg46
S'0.2'
p1759
sg48
S'4.8'
p1760
sg50
S'1.8'
p1761
sg52
S'10.3'
p1762
sg54
S'1.8'
p1763
sg56
S'1992-93'
p1764
sg58
S'5.1'
p1765
sg60
S'2.3'
p1766
sg62
S'.466'
p1767
sg64
S'2034'
p1768
sg66
S'20'
p1769
sba(isrc.gp1.models.Per36Minutes
Per36Minutes
p1770
(dp1771
g8
S'0.8'
p1772
sg10
S'2.1'
p1773
sg12
S'.436'
p1774
sg14
S'4.9'
p1775
sg16
S'.396'
p1776
sg18
S'0.8'
p1777
sg20
S'12.5'
p1778
sg22
S'SG'
p1779
sg24
S'.750'
p1780
sg28
S'NBA'
p1781
sg30
S'1.4'
p1782
sg32
S'11.9'
p1783
sg34
S'3.7'
p1784
sg36
S'1.7'
p1785
sg38
S'2.8'
p1786
sg40
S'31'
p1787
sg42
S'UTA'
p1788
sg44
S'75'
p1789
sg46
S'0.2'
p1790
sg48
S'4.3'
p1791
sg50
S'1.3'
p1792
sg52
S'9.8'
p1793
sg54
S'2.0'
p1794
sg56
S'1993-94'
p1795
sg58
S'5.2'
p1796
sg60
S'2.1'
p1797
sg62
S'.444'
p1798
sg64
S'1619'
p1799
sg66
S'19'
p1800
sba(isrc.gp1.models.Per36Minutes
Per36Minutes
p1801
(dp1802
g8
S'0.7'
p1803
sg10
S'0.7'
p1804
sg12
S'.235'
p1805
sg14
S'3.4'
p1806
sg16
S'.500'
p1807
sg18
S'0.4'
p1808
sg20
S'3.6'
p1809
sg22
S'SG-PG'
p1810
sg24
S'.500'
p1811
sg28
S'NBA'
p1812
sg30
S'1.6'
p1813
sg32
S'6.1'
p1814
sg34
S'6.3'
p1815
sg36
S'0.7'
p1816
sg38
S'2.3'
p1817
sg40
S'32'
p1818
sg42
S'TOT'
p1819
sg44
S'18'
p1820
sg46
S'0.0'
p1821
sg48
S'1.1'
p1822
sg50
S'0.4'
p1823
sg52
S'5.4'
p1824
sg54
S'1.6'
p1825
sg56
S'1994-95'
p1826
sg58
S'1.4'
p1827
sg60
S'3.0'
p1828
sg62
S'.200'
p1829
sg64
S'201'
p1830
sg66
g197
sba(isrc.gp1.models.Per36Minutes
Per36Minutes
p1831
(dp1832
g8
S'0.5'
p1833
sg10
S'0.7'
p1834
sg12
S'.160'
p1835
sg14
S'2.2'
p1836
sg16
S'.667'
p1837
sg18
S'0.5'
p1838
sg20
S'2.4'
p1839
sg22
S'SG'
p1840
sg24
g3
sg28
S'NBA'
p1841
sg30
S'1.7'
p1842
sg32
S'6.0'
p1843
sg34
S'6.0'
p1844
sg36
S'0.0'
p1845
sg38
S'2.4'
p1846
sg40
S'32'
p1847
sg42
S'UTA'
p1848
sg44
S'12'
p1849
sg46
S'0.0'
p1850
sg48
S'0.5'
p1851
sg50
S'0.0'
p1852
sg52
S'5.3'
p1853
sg54
S'1.9'
p1854
sg56
S'1994-95'
p1855
sg58
S'1.0'
p1856
sg60
S'2.9'
p1857
sg62
S'.091'
p1858
sg64
S'149'
p1859
sg66
g197
sba(isrc.gp1.models.Per36Minutes
Per36Minutes
p1860
(dp1861
g8
S'1.4'
p1862
sg10
S'0.7'
p1863
sg12
S'.444'
p1864
sg14
S'6.9'
p1865
sg16
S'.000'
p1866
sg18
S'0.0'
p1867
sg20
S'6.9'
p1868
sg22
S'PG'
p1869
sg24
S'.500'
p1870
sg28
S'NBA'
p1871
sg30
S'1.4'
p1872
sg32
S'6.2'
p1873
sg34
S'6.9'
p1874
sg36
S'2.8'
p1875
sg38
S'2.1'
p1876
sg40
S'32'
p1877
sg42
S'BOS'
p1878
sg44
g427
sg46
S'0.0'
p1879
sg48
S'2.8'
p1880
sg50
S'1.4'
p1881
sg52
S'5.5'
p1882
sg54
S'0.7'
p1883
sg56
S'1994-95'
p1884
sg58
S'2.8'
p1885
sg60
S'3.5'
p1886
sg62
S'.500'
p1887
sg64
S'52'
p1888
sg66
g197
sbasS'_fromYear'
p1889
S'1985'
p1890
sS'_url'
p1891
S'http://www.basketball-reference.com/players/h/humphja01.html'
p1892
sS'_perGame'
p1893
(isrc.gp1.models.PerGame
PerGame
p1894
(dp1895
g8
S'0.3'
p1896
sg10
S'0.2'
p1897
sg12
S'.444'
p1898
sS'_effectiveFieldGalPercentage'
p1899
S'.444'
p1900
sg14
S'1.7'
p1901
sg16
S'.000'
p1902
sg18
S'0.0'
p1903
sg20
S'1.7'
p1904
sg22
S'PG'
p1905
sg24
S'.500'
p1906
sg28
S'NBA'
p1907
sg30
S'0.3'
p1908
sg34
S'1.7'
p1909
sS'_fieldGoalsttempted'
p1910
S'1.5'
p1911
sg36
S'0.7'
p1912
sg38
S'0.5'
p1913
sg40
S'32'
p1914
sg42
S'BOS'
p1915
sg44
g427
sg46
S'0.0'
p1916
sg48
S'0.7'
p1917
sg50
S'0.3'
p1918
sg52
S'1.3'
p1919
sg54
S'0.2'
p1920
sg56
S'1994-95'
p1921
sg58
S'0.7'
p1922
sg60
S'0.8'
p1923
sg62
S'.500'
p1924
sg64
S'8.7'
p1925
sg66
g197
sbsS'_weight'
p1926
S'185'
p1927
sS'_dob'
p1928
S'17-10-1962'
p1929
sS'_salary'
p1930
(lp1931
(isrc.gp1.models.Salary
Salary
p1932
(dp1933
g42
S'Phoenix Suns'
p1934
sg28
S'NBA'
p1935
sg1930
S'$222,500'
p1936
sg56
S'1985-86'
p1937
sba(isrc.gp1.models.Salary
Salary
p1938
(dp1939
g42
S'Milwaukee Bucks'
p1940
sg28
S'NBA'
p1941
sg1930
S'$290,000'
p1942
sg56
S'1987-88'
p1943
sba(isrc.gp1.models.Salary
Salary
p1944
(dp1945
g42
S'Milwaukee Bucks'
p1946
sg28
S'NBA'
p1947
sg1930
S'$410,000'
p1948
sg56
S'1988-89'
p1949
sba(isrc.gp1.models.Salary
Salary
p1950
(dp1951
g42
S'Milwaukee Bucks'
p1952
sg28
S'NBA'
p1953
sg1930
S'$650,000'
p1954
sg56
S'1990-91'
p1955
sba(isrc.gp1.models.Salary
Salary
p1956
(dp1957
g42
S'Milwaukee Bucks'
p1958
sg28
S'NBA'
p1959
sg1930
S'$760,000'
p1960
sg56
S'1991-92'
p1961
sba(isrc.gp1.models.Salary
Salary
p1962
(dp1963
g42
S'Utah Jazz'
p1964
sg28
S'NBA'
p1965
sg1930
S'$1,800,000'
p1966
sg56
S'1992-93'
p1967
sba(isrc.gp1.models.Salary
Salary
p1968
(dp1969
g42
S'Utah Jazz'
p1970
sg28
S'NBA'
p1971
sg1930
S'$1,800,000'
p1972
sg56
S'1993-94'
p1973
sba(isrc.gp1.models.Salary
Salary
p1974
(dp1975
g42
S'Utah Jazz'
p1976
sg28
S'NBA'
p1977
sg1930
S'$1,900,000'
p1978
sg56
S'1994-95'
p1979
sbasg22
S'G'
p1980
sb.