(isrc.gp1.models.Player
Player
p0
(dp1
S'_experience'
p2
S'NA'
p3
sS'_totals'
p4
(lp5
(isrc.gp1.models.Totals
Totals
p6
(dp7
S'_offensiveRebounds'
p8
S'6'
p9
sS'_threePointsAttempted'
p10
S'0'
p11
sS'_fieldGoalsPercentage'
p12
S'.456'
p13
sS'_assist'
p14
S'3'
p15
sS'_threePointsPercentage'
p16
S'26'
p17
sS'_threePoints'
p18
g11
sS'_points'
p19
g3
sS'_position'
p20
S'SF'
p21
sS'_freeThrowsPercentage'
p22
g9
sS'_effectiveFieldGoalPercentage'
p23
g15
sS'_league'
p24
S'NBA'
p25
sS'_steals'
p26
S'1'
p27
sS'_fieldGoalsAttempted'
p28
S'57'
p29
sS'_personalFouls'
p30
S'55'
p31
sS'_freeThrowsAttempted'
p32
S'.750'
p33
sS'_totalRebounds'
p34
S'4'
p35
sS'_age'
p36
S'23'
p37
sS'_team'
p38
S'DET'
p39
sS'_games'
p40
S'25'
p41
sS'_blocks'
p42
S'8'
p43
sS'_twoPoints'
p44
S'57'
p45
sS'_freeThrows'
p46
g35
sS'_twoPointsAttempted'
p47
S'.456'
p48
sS'_defensiveRebounds'
p49
S'12'
p50
sS'_season'
p51
S'1992-93'
p52
sS'_fieldGoals'
p53
S'26'
p54
sS'_turnOvers'
p55
S'14'
p56
sS'_twoPointsPercentage'
p57
S'.456'
p58
sS'_minutesPlayed'
p59
S'102'
p60
sS'_gamesStarted'
p61
g11
sbasS'_college'
p62
S'University of Arkansas'
p63
sS'_toYear'
p64
S'1993'
p65
sS'_height'
p66
S'6-8'
p67
sS'_active'
p68
I00
sS'_shootingHand'
p69
VRight
p70
sS'_name'
p71
S'Isaiah Morris'
p72
sS'_per100Possessions'
p73
(lp74
(isrc.gp1.models.Per100Possession
Per100Possession
p75
(dp76
g8
S'3.0'
p77
sg10
S'0.0'
p78
sg12
S'.456'
p79
sS'_offensiveRating'
p80
S'111'
p81
sg14
S'1.5'
p82
sg16
S'13.1'
p83
sg18
S'0.0'
p84
sg19
S'92'
p85
sg20
S'SF'
p86
sS'_defensiveRating'
p87
g3
sg22
S'3.0'
p88
sg24
S'NBA'
p89
sg26
S'0.5'
p90
sg28
S'28.8'
p91
sg30
S'27.8'
p92
sg32
S'.750'
p93
sg34
S'2.0'
p94
sg36
S'23'
p95
sg38
S'DET'
p96
sg40
S'25'
p97
sg42
S'4.0'
p98
sg44
S'28.8'
p99
sg46
S'2.0'
p100
sg47
S'.456'
p101
sg49
S'6.1'
p102
sg51
S'1992-93'
p103
sg53
S'13.1'
p104
sg55
S'7.1'
p105
sg57
S'1.5'
p106
sg59
S'102'
p107
sg61
g11
sbasS'_advanced'
p108
(lp109
(isrc.gp1.models.Advanced
Advanced
p110
(dp111
S'_offensiveReboundPercentage'
p112
S'6.2'
p113
sS'_turnOverPercentage'
p114
S'12.0'
p115
sS'_winSharesPer48Minutes'
p116
S'-0.022'
p117
sS'_stealPercentage'
p118
S'1.5'
p119
sS'_usagePercentage'
p120
S'28.1'
p121
sS'_totalReboundsPercentage'
p122
S'6.5'
p123
sS'_defensiveBoxPlusMinus'
p124
S'-3.2'
p125
sg20
S'SF'
p126
sS'_valueOverReplacementPlayer'
p127
S'-0.2'
p128
sS'_trueShootingPercentage'
p129
S'.468'
p130
sS'_defensiveReboundPercentage'
p131
S'6.8'
p132
sS'_freeThrowsAttempRate'
p133
S'.070'
p134
sS'_threePointsAttempRate'
p135
S'.000'
p136
sg24
S'NBA'
p137
sS'_offensiveBoxPlusMinues'
p138
S'-4.7'
p139
sS'_assistPercentage'
p140
S'6.9'
p141
sS'_defensiveWinShares'
p142
S'0.1'
p143
sg36
S'23'
p144
sg38
S'DET'
p145
sg40
S'25'
p146
sS'_blockPercentage'
p147
S'0.6'
p148
sS'_playerEfficiencyRating'
p149
S'10.6'
p150
sS'_offensiveWinShares'
p151
S'-0.1'
p152
sg59
S'102'
p153
sS'_boxPlusMinus'
p154
S'-7.9'
p155
sg51
S'1992-93'
p156
sS'_winShares'
p157
S'0.0'
p158
sbasS'_per36Minutes'
p159
(lp160
(isrc.gp1.models.Per36Minutes
Per36Minutes
p161
(dp162
g8
S'2.1'
p163
sg10
S'0.0'
p164
sg12
S'.456'
p165
sg14
S'1.1'
p166
sg16
S'9.2'
p167
sg18
S'0.0'
p168
sg19
g3
sg20
S'SF'
p169
sg22
S'2.1'
p170
sg24
S'NBA'
p171
sg26
S'0.4'
p172
sg28
S'20.1'
p173
sg30
S'19.4'
p174
sg32
S'.750'
p175
sg34
S'1.4'
p176
sg36
S'23'
p177
sg38
S'DET'
p178
sg40
S'25'
p179
sg42
S'2.8'
p180
sg44
S'20.1'
p181
sg46
S'1.4'
p182
sg47
S'.456'
p183
sg49
S'4.2'
p184
sg51
S'1992-93'
p185
sg53
S'9.2'
p186
sg55
S'4.9'
p187
sg57
S'1.1'
p188
sg59
S'102'
p189
sg61
g11
sbasS'_fromYear'
p190
S'1993'
p191
sS'_url'
p192
S'http://www.basketball-reference.com/players/m/morriis01.html'
p193
sS'_perGame'
p194
(isrc.gp1.models.PerGame
PerGame
p195
(dp196
g8
S'0.2'
p197
sg10
S'0.0'
p198
sg12
S'.456'
p199
sS'_effectiveFieldGalPercentage'
p200
S'0.1'
p201
sg14
S'0.1'
p202
sg16
S'1.0'
p203
sg18
S'0.0'
p204
sg19
g3
sg20
S'SF'
p205
sg22
S'0.2'
p206
sg24
S'NBA'
p207
sg26
S'0.0'
p208
sg30
S'2.2'
p209
sS'_fieldGoalsttempted'
p210
S'2.3'
p211
sg32
S'.750'
p212
sg34
S'0.2'
p213
sg36
S'23'
p214
sg38
S'DET'
p215
sg40
S'25'
p216
sg42
S'0.3'
p217
sg44
S'2.3'
p218
sg46
S'0.2'
p219
sg47
S'.456'
p220
sg49
S'0.5'
p221
sg51
S'1992-93'
p222
sg53
S'1.0'
p223
sg55
S'0.6'
p224
sg57
S'.456'
p225
sg59
S'4.1'
p226
sg61
g11
sbsS'_weight'
p227
S'229'
p228
sS'_dob'
p229
S'2-4-1969'
p230
sS'_salary'
p231
(lp232
(isrc.gp1.models.Salary
Salary
p233
(dp234
g38
S'Detroit Pistons'
p235
sg24
S'NBA'
p236
sg231
S'$140,000'
p237
sg51
S'1992-93'
p238
sbasg20
S'F'
p239
sb.