(isrc.gp1.models.Player
Player
p0
(dp1
S'_experience'
p2
S'NA'
p3
sS'_totals'
p4
(lp5
(isrc.gp1.models.Totals
Totals
p6
(dp7
S'_offensiveRebounds'
p8
g3
sS'_threePointsAttempted'
p9
S'.356'
p10
sS'_fieldGoalsPercentage'
p11
S'63'
p12
sS'_assist'
p13
g3
sS'_threePointsPercentage'
p14
S'.356'
p15
sS'_threePoints'
p16
S'177'
p17
sS'_points'
p18
g3
sS'_position'
p19
S'SG'
p20
sS'_freeThrowsPercentage'
p21
S'167'
p22
sS'_effectiveFieldGoalPercentage'
p23
S'47'
p24
sS'_league'
p25
S'NBA'
p26
sS'_steals'
p27
g3
sS'_fieldGoalsAttempted'
p28
S'.356'
p29
sS'_personalFouls'
p30
g3
sS'_freeThrowsAttempted'
p31
S'32'
p32
sS'_totalRebounds'
p33
g3
sS'_age'
p34
S'23'
p35
sS'_team'
p36
S'DET'
p37
sS'_games'
p38
S'48'
p39
sS'_blocks'
p40
g3
sS'_twoPoints'
p41
S'41'
p42
sS'_freeThrows'
p43
S'41'
p44
sS'_twoPointsAttempted'
p45
S'56'
p46
sS'_defensiveRebounds'
p47
g3
sS'_season'
p48
S'1971-72'
p49
sS'_fieldGoals'
p50
S'177'
p51
sS'_turnOvers'
p52
g3
sS'_twoPointsPercentage'
p53
S'.732'
p54
sS'_minutesPlayed'
p55
S'63'
p56
sS'_gamesStarted'
p57
S'322'
p58
sba(isrc.gp1.models.Totals
Totals
p59
(dp60
g8
S'21'
p61
sg9
S'.375'
p62
sg11
S'3'
p63
sg13
S'41'
p64
sg14
S'65'
p65
sg16
S'8'
p66
sg18
g3
sg19
S'SG'
p67
sg21
S'18'
p68
sg23
S'51'
p69
sg25
S'ABA'
p70
sg27
S'46'
p71
sg28
S'.428'
p72
sg30
g3
sg31
S'.797'
p73
sg33
S'72'
p74
sg34
S'24'
p75
sg36
S'MMT'
p76
sg38
S'30'
p77
sg40
S'190'
p78
sg41
S'151'
p79
sg43
S'64'
p80
sg45
S'.430'
p81
sg47
S'39'
p82
sg48
S'1972-73'
p83
sg50
S'159'
p84
sg52
g3
sg53
S'.437'
p85
sg55
S'68'
p86
sg57
S'386'
p87
sbasS'_college'
p88
S'University of Baltimore'
p89
sS'_toYear'
p90
S'1973'
p91
sS'_height'
p92
S'6-2'
p93
sS'_active'
p94
I00
sS'_shootingHand'
p95
VRight
p96
sS'_name'
p97
S'Isaiah Wilson'
p98
sS'_per100Possessions'
p99
(lp100
sS'_advanced'
p101
(lp102
(isrc.gp1.models.Advanced
Advanced
p103
(dp104
S'_offensiveReboundPercentage'
p105
S'18.6'
p106
sS'_turnOverPercentage'
p107
g3
sS'_winSharesPer48Minutes'
p108
g3
sS'_stealPercentage'
p109
S'-0.074'
p110
sS'_usagePercentage'
p111
g3
sS'_totalReboundsPercentage'
p112
S'0.1'
p113
sS'_defensiveBoxPlusMinus'
p114
g3
sg19
S'SG'
p115
sS'_valueOverReplacementPlayer'
p116
g3
sS'_trueShootingPercentage'
p117
S'.414'
p118
sS'_defensiveReboundPercentage'
p119
S'-0.5'
p120
sS'_freeThrowsAttempRate'
p121
S'6.9'
p122
sS'_threePointsAttempRate'
p123
S'.316'
p124
sg25
S'NBA'
p125
sS'_offensiveBoxPlusMinues'
p126
g3
sS'_assistPercentage'
p127
S'-0.5'
p128
sS'_defensiveWinShares'
p129
g3
sg34
S'23'
p130
sg36
S'DET'
p131
sg38
S'48'
p132
sS'_blockPercentage'
p133
g3
sS'_playerEfficiencyRating'
p134
S'12.6'
p135
sS'_offensiveWinShares'
p136
g3
sg55
S'322'
p137
sS'_boxPlusMinus'
p138
g3
sg48
S'1971-72'
p139
sS'_winShares'
p140
g3
sba(isrc.gp1.models.Advanced
Advanced
p141
(dp142
g105
S'4.4'
p143
sg107
S'0.3'
p144
sg108
g3
sg109
S'18.0'
p145
sg111
S'0.1'
p146
sg112
S'4.9'
p147
sg114
g3
sg19
S'SG'
p148
sg116
g3
sg117
S'.508'
p149
sg119
S'5.4'
p150
sg121
S'.403'
p151
sg123
S'.050'
p152
sg25
S'ABA'
p153
sg126
g3
sg127
S'26.1'
p154
sg129
S'.050'
p155
sg34
S'24'
p156
sg36
S'MMT'
p157
sg38
S'30'
p158
sg133
S'22.9'
p159
sg134
S'13.9'
p160
sg136
S'0.4'
p161
sg55
S'386'
p162
sg138
g3
sg48
S'1972-73'
p163
sg140
g3
sbasS'_per36Minutes'
p164
(lp165
(isrc.gp1.models.Per36Minutes
Per36Minutes
p166
(dp167
g8
g3
sg9
S'.356'
p168
sg11
S'7.0'
p169
sg13
g3
sg14
S'4.6'
p170
sg16
S'19.8'
p171
sg18
g3
sg19
S'SG'
p172
sg21
S'18.7'
p173
sg25
S'NBA'
p174
sg27
g3
sg28
S'.356'
p175
sg30
g3
sg31
S'3.6'
p176
sg33
g3
sg34
S'23'
p177
sg36
S'DET'
p178
sg38
S'48'
p179
sg40
g3
sg41
S'6.3'
p180
sg43
S'4.6'
p181
sg45
S'.732'
p182
sg47
g3
sg48
S'1971-72'
p183
sg50
S'19.8'
p184
sg52
g3
sg53
S'5.3'
p185
sg55
S'7.0'
p186
sg57
S'322'
p187
sba(isrc.gp1.models.Per36Minutes
Per36Minutes
p188
(dp189
g8
S'2.0'
p190
sg9
S'.375'
p191
sg11
S'0.3'
p192
sg13
S'3.8'
p193
sg14
S'6.1'
p194
sg16
S'0.7'
p195
sg18
g3
sg19
S'SG'
p196
sg21
S'1.7'
p197
sg25
S'ABA'
p198
sg27
S'4.3'
p199
sg28
S'.428'
p200
sg30
g3
sg31
S'.797'
p201
sg33
S'6.7'
p202
sg34
S'24'
p203
sg36
S'MMT'
p204
sg38
S'30'
p205
sg40
S'17.7'
p206
sg41
S'14.1'
p207
sg43
S'6.0'
p208
sg45
S'.430'
p209
sg47
S'3.6'
p210
sg48
S'1972-73'
p211
sg50
S'14.8'
p212
sg52
g3
sg53
S'4.8'
p213
sg55
S'6.3'
p214
sg57
S'386'
p215
sbasS'_fromYear'
p216
S'1972'
p217
sS'_url'
p218
S'http://www.basketball-reference.com/players/w/wilsois01.html'
p219
sS'_perGame'
p220
(isrc.gp1.models.PerGame
PerGame
p221
(dp222
g8
S'0.7'
p223
sg9
S'.375'
p224
sg11
S'0.1'
p225
sS'_effectiveFieldGalPercentage'
p226
S'1.7'
p227
sg13
S'1.4'
p228
sg14
S'2.2'
p229
sg16
S'0.3'
p230
sg18
g3
sg19
S'SG'
p231
sg21
S'0.6'
p232
sg25
S'ABA'
p233
sg27
S'1.5'
p234
sg30
g3
sS'_fieldGoalsttempted'
p235
S'.428'
p236
sg31
S'.797'
p237
sg33
S'2.4'
p238
sg34
S'24'
p239
sg36
S'MMT'
p240
sg38
S'30'
p241
sg40
S'6.3'
p242
sg41
S'5.0'
p243
sg43
S'2.1'
p244
sg45
S'.430'
p245
sg47
S'1.3'
p246
sg48
S'1972-73'
p247
sg50
S'5.3'
p248
sg52
g3
sg53
S'.437'
p249
sg55
S'2.3'
p250
sg57
S'12.9'
p251
sbsS'_weight'
p252
S'175'
p253
sS'_dob'
p254
S'31-5-1948'
p255
sS'_salary'
p256
(lp257
sg19
S'G'
p258
sb.