(isrc.gp1.models.Player
Player
p0
(dp1
S'_experience'
p2
VRookie
p3
sS'_totals'
p4
(lp5
(isrc.gp1.models.Totals
Totals
p6
(dp7
S'_offensiveRebounds'
p8
S'0'
p9
sS'_threePointsAttempted'
p10
g9
sS'_fieldGoalsPercentage'
p11
S'.000'
p12
sS'_assist'
p13
g9
sS'_threePointsPercentage'
p14
S'NA'
p15
sS'_threePoints'
p16
g9
sS'_points'
p17
g9
sS'_position'
p18
S'SF'
p19
sS'_freeThrowsPercentage'
p20
g15
sS'_effectiveFieldGoalPercentage'
p21
S'.000'
p22
sS'_league'
p23
S'NBA'
p24
sS'_steals'
p25
S'1'
p26
sS'_fieldGoalsAttempted'
p27
g26
sS'_personalFouls'
p28
g26
sS'_freeThrowsAttempted'
p29
g9
sS'_totalRebounds'
p30
g26
sS'_age'
p31
S'23'
p32
sS'_team'
p33
S'UTA'
p34
sS'_games'
p35
S'2'
p36
sS'_blocks'
p37
g9
sS'_twoPoints'
p38
g9
sS'_freeThrows'
p39
g9
sS'_twoPointsAttempted'
p40
g26
sS'_defensiveRebounds'
p41
g26
sS'_season'
p42
S'2015-16'
p43
sS'_fieldGoals'
p44
g9
sS'_turnOvers'
p45
g9
sS'_twoPointsPercentage'
p46
S'.000'
p47
sS'_minutesPlayed'
p48
S'6'
p49
sS'_gamesStarted'
p50
g9
sbasS'_college'
p51
S'San Diego State University'
p52
sS'_toYear'
p53
S'2016'
p54
sS'_height'
p55
S'6-7'
p56
sS'_active'
p57
I01
sS'_shootingHand'
p58
VRight
p59
sS'_name'
p60
S"J.J. O'Brien"
p61
sS'_per100Possessions'
p62
(lp63
(isrc.gp1.models.Per100Possession
Per100Possession
p64
(dp65
g8
S'0.0'
p66
sg10
S'0.0'
p67
sg11
S'.000'
p68
sS'_offensiveRating'
p69
g9
sg13
S'0.0'
p70
sg14
g15
sg16
S'0.0'
p71
sg17
S'0.0'
p72
sg18
S'SF'
p73
sS'_defensiveRating'
p74
S'89'
p75
sg20
g15
sg23
S'NBA'
p76
sg25
S'8.8'
p77
sg27
S'8.8'
p78
sg28
S'8.8'
p79
sg29
S'0.0'
p80
sg30
S'8.8'
p81
sg31
S'23'
p82
sg33
S'UTA'
p83
sg35
g36
sg37
S'0.0'
p84
sg38
S'0.0'
p85
sg39
S'0.0'
p86
sg40
S'8.8'
p87
sg41
S'8.8'
p88
sg42
S'2015-16'
p89
sg44
S'0.0'
p90
sg45
S'0.0'
p91
sg46
S'.000'
p92
sg48
g49
sg50
g9
sbasS'_advanced'
p93
(lp94
(isrc.gp1.models.Advanced
Advanced
p95
(dp96
S'_offensiveReboundPercentage'
p97
S'0.0'
p98
sS'_turnOverPercentage'
p99
S'0.0'
p100
sS'_winSharesPer48Minutes'
p101
S'-0.034'
p102
sS'_stealPercentage'
p103
S'8.8'
p104
sS'_usagePercentage'
p105
S'7.7'
p106
sS'_totalReboundsPercentage'
p107
S'9.8'
p108
sS'_defensiveBoxPlusMinus'
p109
S'5.2'
p110
sg18
S'SF'
p111
sS'_valueOverReplacementPlayer'
p112
S'0.0'
p113
sS'_trueShootingPercentage'
p114
S'.000'
p115
sS'_defensiveReboundPercentage'
p116
S'19.7'
p117
sS'_freeThrowsAttempRate'
p118
S'.000'
p119
sS'_threePointsAttempRate'
p120
S'.000'
p121
sg23
S'NBA'
p122
sS'_offensiveBoxPlusMinues'
p123
S'-9.9'
p124
sS'_assistPercentage'
p125
S'0.0'
p126
sS'_defensiveWinShares'
p127
S'0.0'
p128
sg31
S'23'
p129
sg33
S'UTA'
p130
sg35
g36
sS'_blockPercentage'
p131
S'0.0'
p132
sS'_playerEfficiencyRating'
p133
S'1.3'
p134
sS'_offensiveWinShares'
p135
S'0.0'
p136
sg48
g49
sS'_boxPlusMinus'
p137
S'-4.8'
p138
sg42
S'2015-16'
p139
sS'_winShares'
p140
S'0.0'
p141
sbasS'_per36Minutes'
p142
(lp143
(isrc.gp1.models.Per36Minutes
Per36Minutes
p144
(dp145
g8
S'0.0'
p146
sg10
S'0.0'
p147
sg11
S'.000'
p148
sg13
S'0.0'
p149
sg14
g15
sg16
S'0.0'
p150
sg17
S'0.0'
p151
sg18
S'SF'
p152
sg20
g15
sg23
S'NBA'
p153
sg25
S'6.0'
p154
sg27
S'6.0'
p155
sg28
S'6.0'
p156
sg29
S'0.0'
p157
sg30
S'6.0'
p158
sg31
S'23'
p159
sg33
S'UTA'
p160
sg35
g36
sg37
S'0.0'
p161
sg38
S'0.0'
p162
sg39
S'0.0'
p163
sg40
S'6.0'
p164
sg41
S'6.0'
p165
sg42
S'2015-16'
p166
sg44
S'0.0'
p167
sg45
S'0.0'
p168
sg46
S'.000'
p169
sg48
g49
sg50
g9
sbasS'_fromYear'
p170
S'2016'
p171
sS'_url'
p172
S'http://www.basketball-reference.com/players/o/obriejj01.html'
p173
sS'_perGame'
p174
(isrc.gp1.models.PerGame
PerGame
p175
(dp176
g8
S'0.0'
p177
sg10
S'0.0'
p178
sg11
S'.000'
p179
sS'_effectiveFieldGalPercentage'
p180
S'.000'
p181
sg13
S'0.0'
p182
sg14
g15
sg16
S'0.0'
p183
sg17
S'0.0'
p184
sg18
S'SF'
p185
sg20
g15
sg23
S'NBA'
p186
sg25
S'0.5'
p187
sg28
S'0.5'
p188
sS'_fieldGoalsttempted'
p189
S'0.5'
p190
sg29
S'0.0'
p191
sg30
S'0.5'
p192
sg31
S'23'
p193
sg33
S'UTA'
p194
sg35
g36
sg37
S'0.0'
p195
sg38
S'0.0'
p196
sg39
S'0.0'
p197
sg40
S'0.5'
p198
sg41
S'0.5'
p199
sg42
S'2015-16'
p200
sg44
S'0.0'
p201
sg45
S'0.0'
p202
sg46
S'.000'
p203
sg48
S'3.0'
p204
sg50
g9
sbsS'_weight'
p205
S'228'
p206
sS'_dob'
p207
S'8-4-1992'
p208
sS'_salary'
p209
(lp210
sg18
S'F'
p211
sb.