(isrc.gp1.models.Player
Player
p0
(dp1
S'_experience'
p2
S'NA'
p3
sS'_totals'
p4
(lp5
(isrc.gp1.models.Totals
Totals
p6
(dp7
S'_offensiveRebounds'
p8
g3
sS'_threePointsAttempted'
p9
S'.392'
p10
sS'_fieldGoalsPercentage'
p11
S'51'
p12
sS'_assist'
p13
g3
sS'_threePointsPercentage'
p14
S'13'
p15
sS'_threePoints'
p16
S'.392'
p17
sS'_points'
p18
g3
sS'_position'
p19
S'11'
p20
sS'_freeThrowsPercentage'
p21
g3
sS'_effectiveFieldGoalPercentage'
p22
S'5'
p23
sS'_league'
p24
S'NBA'
p25
sS'_steals'
p26
g3
sS'_fieldGoalsAttempted'
p27
S'20'
p28
sS'_personalFouls'
p29
g3
sS'_freeThrowsAttempted'
p30
S'53'
p31
sS'_totalRebounds'
p32
g3
sS'_age'
p33
S'23'
p34
sS'_team'
p35
S'TOT'
p36
sS'_games'
p37
S'83'
p38
sS'_blocks'
p39
g3
sS'_twoPoints'
p40
S'15'
p41
sS'_freeThrows'
p42
S'8'
p43
sS'_twoPointsAttempted'
p44
S'.867'
p45
sS'_defensiveRebounds'
p46
g3
sS'_season'
p47
S'1962-63'
p48
sS'_fieldGoals'
p49
S'.392'
p50
sS'_turnOvers'
p51
g3
sS'_twoPointsPercentage'
p52
S'16'
p53
sS'_minutesPlayed'
p54
S'51'
p55
sS'_gamesStarted'
p56
S'20'
p57
sba(isrc.gp1.models.Totals
Totals
p58
(dp59
g8
g3
sg9
S'.500'
p60
sg11
S'26'
p61
sg13
g3
sg14
S'6'
p62
sg16
S'.500'
p63
sg18
g3
sg19
g23
sg21
g3
sg22
S'0'
p64
sg24
S'NBA'
p65
sg26
g3
sg27
S'13'
p66
sg29
g3
sg30
S'32'
p67
sg32
g3
sg33
S'23'
p68
sg35
S'BOS'
p69
sg37
S'46'
p70
sg39
g3
sg40
g43
sg42
S'3'
p71
sg44
S'.750'
p72
sg46
g3
sg47
S'1962-63'
p73
sg49
S'.500'
p74
sg51
g3
sg52
S'7'
p75
sg54
S'26'
p76
sg56
S'13'
p77
sba(isrc.gp1.models.Totals
Totals
p78
(dp79
g8
g3
sg9
S'.280'
p80
sg11
S'25'
p81
sg13
g3
sg14
g75
sg16
S'.280'
p82
sg18
g3
sg19
g62
sg21
g3
sg22
g23
sg24
S'NBA'
p83
sg26
g3
sg27
g75
sg29
g3
sg30
S'21'
p84
sg32
g3
sg33
S'23'
p85
sg35
S'NYK'
p86
sg37
S'37'
p87
sg39
g3
sg40
g75
sg42
g23
sg44
S'1.000'
p88
sg46
g3
sg47
S'1962-63'
p89
sg49
S'.280'
p90
sg51
g3
sg52
S'9'
p91
sg54
S'25'
p92
sg56
g75
sbasS'_college'
p93
S'College of the Holy Cross'
p94
sS'_toYear'
p95
S'1963'
p96
sS'_height'
p97
S'6-3'
p98
sS'_active'
p99
I00
sS'_shootingHand'
p100
VRight
p101
sS'_name'
p102
S'Jack Foley'
p103
sS'_per100Possessions'
p104
(lp105
sS'_advanced'
p106
(lp107
(isrc.gp1.models.Advanced
Advanced
p108
(dp109
S'_offensiveReboundPercentage'
p110
S'0.1'
p111
sS'_turnOverPercentage'
p112
g3
sS'_winSharesPer48Minutes'
p113
g3
sS'_stealPercentage'
p114
g3
sS'_usagePercentage'
p115
g3
sS'_totalReboundsPercentage'
p116
g3
sS'_defensiveBoxPlusMinus'
p117
g3
sg19
S'11'
p118
sS'_valueOverReplacementPlayer'
p119
g3
sS'_trueShootingPercentage'
p120
S'.294'
p121
sS'_defensiveReboundPercentage'
p122
S'.057'
p123
sS'_freeThrowsAttempRate'
p124
S'0.1'
p125
sS'_threePointsAttempRate'
p126
S'0.0'
p127
sg24
S'NBA'
p128
sS'_offensiveBoxPlusMinues'
p129
g3
sS'_assistPercentage'
p130
g3
sS'_defensiveWinShares'
p131
g3
sg33
S'23'
p132
sg35
S'TOT'
p133
sg37
S'83'
p134
sS'_blockPercentage'
p135
g3
sS'_playerEfficiencyRating'
p136
S'.460'
p137
sS'_offensiveWinShares'
p138
g3
sg54
S'15.6'
p139
sS'_boxPlusMinus'
p140
g3
sg47
S'1962-63'
p141
sS'_winShares'
p142
g3
sba(isrc.gp1.models.Advanced
Advanced
p143
(dp144
g110
S'0.2'
p145
sg112
g3
sg113
g3
sg114
g3
sg115
g3
sg116
g3
sg117
g3
sg19
g23
sg119
g3
sg120
S'.308'
p146
sg122
S'.202'
p147
sg124
S'0.1'
p148
sg126
S'0.1'
p149
sg24
S'NBA'
p150
sg129
g3
sg130
g3
sg131
g3
sg33
S'23'
p151
sg35
S'BOS'
p152
sg37
S'46'
p153
sg135
g3
sg136
S'.542'
p154
sg138
g3
sg54
S'17.9'
p155
sg140
g3
sg47
S'1962-63'
p156
sg142
g3
sba(isrc.gp1.models.Advanced
Advanced
p157
(dp158
g110
S'-0.1'
p159
sg112
g3
sg113
g3
sg114
g3
sg115
g3
sg116
g3
sg117
g3
sg19
g62
sg119
g3
sg120
S'.280'
p160
sg122
S'-0.123'
p161
sg124
S'0.0'
p162
sg126
S'-0.1'
p163
sg24
S'NBA'
p164
sg129
g3
sg130
g3
sg131
g3
sg33
S'23'
p165
sg35
S'NYK'
p166
sg37
S'37'
p167
sg135
g3
sg136
S'.374'
p168
sg138
g3
sg54
S'12.7'
p169
sg140
g3
sg47
S'1962-63'
p170
sg142
g3
sbasS'_per36Minutes'
p171
(lp172
(isrc.gp1.models.Per36Minutes
Per36Minutes
p173
(dp174
g8
g3
sg9
S'5.6'
p175
sg11
S'22.1'
p176
sg13
g3
sg14
S'6.5'
p177
sg16
S'.392'
p178
sg18
g3
sg19
S'11'
p179
sg21
g3
sg24
S'NBA'
p180
sg26
g3
sg27
S'8.7'
p181
sg29
g3
sg30
S'23.0'
p182
sg32
g3
sg33
S'23'
p183
sg35
S'TOT'
p184
sg37
S'83'
p185
sg39
g3
sg40
S'.867'
p186
sg42
S'3.5'
p187
sg44
S'6.9'
p188
sg46
g3
sg47
S'1962-63'
p189
sg49
S'.392'
p190
sg51
g3
sg52
S'2.2'
p191
sg54
S'22.1'
p192
sg56
S'8.7'
p193
sba(isrc.gp1.models.Per36Minutes
Per36Minutes
p194
(dp195
g8
g3
sg9
S'4.7'
p196
sg11
S'20.3'
p197
sg13
g3
sg14
S'6.3'
p198
sg16
S'.500'
p199
sg18
g3
sg19
g23
sg21
g3
sg24
S'NBA'
p200
sg26
g3
sg27
S'10.2'
p201
sg29
g3
sg30
S'25.0'
p202
sg32
g3
sg33
S'23'
p203
sg35
S'BOS'
p204
sg37
S'46'
p205
sg39
g3
sg40
S'.750'
p206
sg42
S'2.3'
p207
sg44
S'5.5'
p208
sg46
g3
sg47
S'1962-63'
p209
sg49
S'.500'
p210
sg51
g3
sg52
S'0.0'
p211
sg54
S'20.3'
p212
sg56
S'10.2'
p213
sba(isrc.gp1.models.Per36Minutes
Per36Minutes
p214
(dp215
g8
g3
sg9
S'6.8'
p216
sg11
S'24.3'
p217
sg13
g3
sg14
S'6.8'
p218
sg16
S'.280'
p219
sg18
g3
sg19
g62
sg21
g3
sg24
S'NBA'
p220
sg26
g3
sg27
S'6.8'
p221
sg29
g3
sg30
S'20.4'
p222
sg32
g3
sg33
S'23'
p223
sg35
S'NYK'
p224
sg37
S'37'
p225
sg39
g3
sg40
S'1.000'
p226
sg42
S'4.9'
p227
sg44
S'8.8'
p228
sg46
g3
sg47
S'1962-63'
p229
sg49
S'.280'
p230
sg51
g3
sg52
S'4.9'
p231
sg54
S'24.3'
p232
sg56
S'6.8'
p233
sbasS'_fromYear'
p234
S'1963'
p235
sS'_url'
p236
S'http://www.basketball-reference.com/players/f/foleyja01.html'
p237
sS'_perGame'
p238
(isrc.gp1.models.PerGame
PerGame
p239
(dp240
g8
g3
sg9
S'.280'
p241
sg11
S'4.2'
p242
sS'_effectiveFieldGalPercentage'
p243
S'0.8'
p244
sg13
g3
sg14
S'1.2'
p245
sg16
S'.280'
p246
sg18
g3
sg19
g62
sg21
g3
sg24
S'NBA'
p247
sg26
g3
sg29
g3
sS'_fieldGoalsttempted'
p248
S'1.2'
p249
sg30
S'3.5'
p250
sg32
g3
sg33
S'23'
p251
sg35
S'NYK'
p252
sg37
S'6.2'
p253
sg39
g3
sg40
S'1.2'
p254
sg42
S'0.8'
p255
sg44
S'1.000'
p256
sg46
g3
sg47
S'1962-63'
p257
sg49
S'.280'
p258
sg51
g3
sg52
S'1.5'
p259
sg54
S'4.2'
p260
sg56
S'1.2'
p261
sbsS'_weight'
p262
S'170'
p263
sS'_dob'
p264
S'19-4-1939'
p265
sS'_salary'
p266
(lp267
sg19
S'F'
p268
sb.