(isrc.gp1.models.Player
Player
p0
(dp1
S'_experience'
p2
V1 year
p3
sS'_totals'
p4
(lp5
(isrc.gp1.models.Totals
Totals
p6
(dp7
S'_offensiveRebounds'
p8
S'10'
p9
sS'_threePointsAttempted'
p10
S'0'
p11
sS'_fieldGoalsPercentage'
p12
S'.409'
p13
sS'_assist'
p14
S'1'
p15
sS'_threePointsPercentage'
p16
S'NA'
p17
sS'_threePoints'
p18
g11
sS'_points'
p19
S'27'
p20
sS'_position'
p21
S'PF'
p22
sS'_freeThrowsPercentage'
p23
S'.429'
p24
sS'_effectiveFieldGoalPercentage'
p25
S'.409'
p26
sS'_league'
p27
S'NBA'
p28
sS'_steals'
p29
S'6'
p30
sS'_fieldGoalsAttempted'
p31
S'22'
p32
sS'_personalFouls'
p33
S'23'
p34
sS'_freeThrowsAttempted'
p35
S'21'
p36
sS'_totalRebounds'
p37
S'25'
p38
sS'_age'
p39
S'23'
p40
sS'_team'
p41
S'UTA'
p42
sS'_games'
p43
S'16'
p44
sS'_blocks'
p45
S'3'
p46
sS'_twoPoints'
p47
S'9'
p48
sS'_freeThrows'
p49
g48
sS'_twoPointsAttempted'
p50
S'22'
p51
sS'_defensiveRebounds'
p52
S'15'
p53
sS'_season'
p54
S'2014-15'
p55
sS'_fieldGoals'
p56
g48
sS'_turnOvers'
p57
g46
sS'_twoPointsPercentage'
p58
S'.409'
p59
sS'_minutesPlayed'
p60
S'87'
p61
sS'_gamesStarted'
p62
g11
sbasS'_college'
p63
S'University of Notre Dame'
p64
sS'_toYear'
p65
S'2015'
p66
sS'_height'
p67
S'6-9'
p68
sS'_active'
p69
I01
sS'_shootingHand'
p70
VRight
p71
sS'_name'
p72
S'Jack Cooley'
p73
sS'_per100Possessions'
p74
(lp75
(isrc.gp1.models.Per100Possession
Per100Possession
p76
(dp77
g8
S'6.1'
p78
sg10
S'0.0'
p79
sg12
S'.409'
p80
sS'_offensiveRating'
p81
S'97'
p82
sg14
S'0.6'
p83
sg16
g17
sg18
S'0.0'
p84
sg19
S'16.5'
p85
sg21
S'PF'
p86
sS'_defensiveRating'
p87
S'98'
p88
sg23
S'.429'
p89
sg27
S'NBA'
p90
sg29
S'3.7'
p91
sg31
S'13.4'
p92
sg33
S'14.0'
p93
sg35
S'12.8'
p94
sg37
S'15.3'
p95
sg39
S'23'
p96
sg41
S'UTA'
p97
sg43
S'16'
p98
sg45
S'1.8'
p99
sg47
S'5.5'
p100
sg49
S'5.5'
p101
sg50
S'13.4'
p102
sg52
S'9.2'
p103
sg54
S'2014-15'
p104
sg56
S'5.5'
p105
sg57
S'1.8'
p106
sg58
S'.409'
p107
sg60
S'87'
p108
sg62
g11
sbasS'_advanced'
p109
(lp110
(isrc.gp1.models.Advanced
Advanced
p111
(dp112
S'_offensiveReboundPercentage'
p113
S'13.3'
p114
sS'_turnOverPercentage'
p115
S'8.8'
p116
sS'_winSharesPer48Minutes'
p117
S'.092'
p118
sS'_stealPercentage'
p119
S'3.7'
p120
sS'_usagePercentage'
p121
S'18.0'
p122
sS'_totalReboundsPercentage'
p123
S'16.6'
p124
sS'_defensiveBoxPlusMinus'
p125
S'0.4'
p126
sg21
S'PF'
p127
sS'_valueOverReplacementPlayer'
p128
S'0.0'
p129
sS'_trueShootingPercentage'
p130
S'.432'
p131
sS'_defensiveReboundPercentage'
p132
S'19.8'
p133
sS'_freeThrowsAttempRate'
p134
S'.955'
p135
sS'_threePointsAttempRate'
p136
S'.000'
p137
sg27
S'NBA'
p138
sS'_offensiveBoxPlusMinues'
p139
S'-4.4'
p140
sS'_assistPercentage'
p141
S'1.8'
p142
sS'_defensiveWinShares'
p143
S'0.2'
p144
sg39
S'23'
p145
sg41
S'UTA'
p146
sg43
S'16'
p147
sS'_blockPercentage'
p148
S'2.8'
p149
sS'_playerEfficiencyRating'
p150
S'11.4'
p151
sS'_offensiveWinShares'
p152
S'0.0'
p153
sg60
S'87'
p154
sS'_boxPlusMinus'
p155
S'-4.0'
p156
sg54
S'2014-15'
p157
sS'_winShares'
p158
S'0.2'
p159
sbasS'_per36Minutes'
p160
(lp161
(isrc.gp1.models.Per36Minutes
Per36Minutes
p162
(dp163
g8
S'4.1'
p164
sg10
S'0.0'
p165
sg12
S'.409'
p166
sg14
S'0.4'
p167
sg16
g17
sg18
S'0.0'
p168
sg19
S'11.2'
p169
sg21
S'PF'
p170
sg23
S'.429'
p171
sg27
S'NBA'
p172
sg29
S'2.5'
p173
sg31
S'9.1'
p174
sg33
S'9.5'
p175
sg35
S'8.7'
p176
sg37
S'10.3'
p177
sg39
S'23'
p178
sg41
S'UTA'
p179
sg43
S'16'
p180
sg45
S'1.2'
p181
sg47
S'3.7'
p182
sg49
S'3.7'
p183
sg50
S'9.1'
p184
sg52
S'6.2'
p185
sg54
S'2014-15'
p186
sg56
S'3.7'
p187
sg57
S'1.2'
p188
sg58
S'.409'
p189
sg60
S'87'
p190
sg62
g11
sbasS'_fromYear'
p191
S'2015'
p192
sS'_url'
p193
S'http://www.basketball-reference.com/players/c/cooleja01.html'
p194
sS'_perGame'
p195
(isrc.gp1.models.PerGame
PerGame
p196
(dp197
g8
S'0.6'
p198
sg10
S'0.0'
p199
sg12
S'.409'
p200
sS'_effectiveFieldGalPercentage'
p201
S'.409'
p202
sg14
S'0.1'
p203
sg16
g17
sg18
S'0.0'
p204
sg19
S'1.7'
p205
sg21
S'PF'
p206
sg23
S'.429'
p207
sg27
S'NBA'
p208
sg29
S'0.4'
p209
sg33
S'1.4'
p210
sS'_fieldGoalsttempted'
p211
S'1.4'
p212
sg35
S'1.3'
p213
sg37
S'1.6'
p214
sg39
S'23'
p215
sg41
S'UTA'
p216
sg43
S'16'
p217
sg45
S'0.2'
p218
sg47
S'0.6'
p219
sg49
S'0.6'
p220
sg50
S'1.4'
p221
sg52
S'0.9'
p222
sg54
S'2014-15'
p223
sg56
S'0.6'
p224
sg57
S'0.2'
p225
sg58
S'.409'
p226
sg60
S'5.4'
p227
sg62
g11
sbsS'_weight'
p228
S'260'
p229
sS'_dob'
p230
S'4-4-1991'
p231
sS'_salary'
p232
(lp233
(isrc.gp1.models.Salary
Salary
p234
(dp235
g41
S'Utah Jazz'
p236
sg27
S'NBA'
p237
sg232
S'$187,357'
p238
sg54
S'2014-15'
p239
sbasg21
S'F'
p240
sb.