(isrc.gp1.models.Player
Player
p0
(dp1
S'_experience'
p2
V3
p3
sS'_totals'
p4
(lp5
(isrc.gp1.models.Totals
Totals
p6
(dp7
S'_offensiveRebounds'
p8
S'35'
p9
sS'_threePointsAttempted'
p10
S'192'
p11
sS'_fieldGoalsPercentage'
p12
S'.384'
p13
sS'_assist'
p14
S'94'
p15
sS'_threePointsPercentage'
p16
S'.328'
p17
sS'_threePoints'
p18
S'63'
p19
sS'_points'
p20
S'392'
p21
sS'_position'
p22
S'SF'
p23
sS'_freeThrowsPercentage'
p24
S'.644'
p25
sS'_effectiveFieldGoalPercentage'
p26
S'.470'
p27
sS'_league'
p28
S'NBA'
p29
sS'_steals'
p30
S'63'
p31
sS'_fieldGoalsAttempted'
p32
S'367'
p33
sS'_personalFouls'
p34
S'128'
p35
sS'_freeThrowsAttempted'
p36
S'73'
p37
sS'_totalRebounds'
p38
S'187'
p39
sS'_age'
p40
S'22'
p41
sS'_team'
p42
S'DAL'
p43
sS'_games'
p44
S'78'
p45
sS'_blocks'
p46
S'17'
p47
sS'_twoPoints'
p48
S'78'
p49
sS'_freeThrows'
p50
S'47'
p51
sS'_twoPointsAttempted'
p52
S'175'
p53
sS'_defensiveRebounds'
p54
S'152'
p55
sS'_season'
p56
S'2012-13'
p57
sS'_fieldGoals'
p58
S'141'
p59
sS'_turnOvers'
p60
S'49'
p61
sS'_twoPointsPercentage'
p62
S'.446'
p63
sS'_minutesPlayed'
p64
S'1353'
p65
sS'_gamesStarted'
p66
S'16'
p67
sba(isrc.gp1.models.Totals
Totals
p68
(dp69
g8
S'46'
p70
sg10
S'151'
p71
sg12
S'.439'
p72
sg14
S'60'
p73
sg16
S'.331'
p74
sg18
S'50'
p75
sg20
S'356'
p76
sg22
S'SF'
p77
sg24
S'.754'
p78
sg26
S'.524'
p79
sg28
S'NBA'
p80
sg30
S'59'
p81
sg32
S'296'
p82
sg34
S'100'
p83
sg36
S'61'
p84
sg38
S'194'
p85
sg40
S'23'
p86
sg42
S'DAL'
p87
sg44
S'78'
p88
sg46
S'21'
p89
sg48
S'80'
p90
sg50
S'46'
p91
sg52
S'145'
p92
sg54
S'148'
p93
sg56
S'2013-14'
p94
sg58
S'130'
p95
sg60
S'41'
p96
sg62
S'.552'
p97
sg64
S'1254'
p98
sg66
S'8'
p99
sba(isrc.gp1.models.Totals
Totals
p100
(dp101
g8
S'72'
p102
sg10
S'208'
p103
sg12
S'.420'
p104
sg14
S'94'
p105
sg16
S'.293'
p106
sg18
S'61'
p107
sg20
S'628'
p108
sg22
S'SF'
p109
sg24
S'.773'
p110
sg26
S'.476'
p111
sg28
S'NBA'
p112
sg30
S'72'
p113
sg32
S'545'
p114
sg34
S'137'
p115
sg36
S'141'
p116
sg38
S'293'
p117
sg40
S'24'
p118
sg42
S'TOT'
p119
sg44
S'82'
p120
sg46
S'25'
p121
sg48
S'168'
p122
sg50
S'109'
p123
sg52
S'337'
p124
sg54
S'221'
p125
sg56
S'2014-15'
p126
sg58
S'229'
p127
sg60
S'49'
p128
sg62
S'.499'
p129
sg64
S'1647'
p130
sg66
S'17'
p131
sba(isrc.gp1.models.Totals
Totals
p132
(dp133
g8
S'12'
p134
sg10
S'38'
p135
sg12
S'.434'
p136
sg14
S'12'
p137
sg16
S'.342'
p138
sg18
S'13'
p139
sg20
S'89'
p140
sg22
S'SF'
p141
sg24
S'.909'
p142
sg26
S'.520'
p143
sg28
S'NBA'
p144
sg30
S'15'
p145
sg32
S'76'
p146
sg34
S'26'
p147
sg36
S'11'
p148
sg38
S'29'
p149
sg40
S'24'
p150
sg42
S'DAL'
p151
sg44
S'25'
p152
sg46
S'5'
p153
sg48
S'20'
p154
sg50
S'10'
p155
sg52
S'38'
p156
sg54
S'17'
p157
sg56
S'2014-15'
p158
sg58
S'33'
p159
sg60
S'10'
p160
sg62
S'.526'
p161
sg64
S'265'
p162
sg66
S'0'
p163
sba(isrc.gp1.models.Totals
Totals
p164
(dp165
g8
S'60'
p166
sg10
S'170'
p167
sg12
S'.418'
p168
sg14
S'82'
p169
sg16
S'.282'
p170
sg18
S'48'
p171
sg20
S'539'
p172
sg22
S'SF'
p173
sg24
S'.762'
p174
sg26
S'.469'
p175
sg28
S'NBA'
p176
sg30
S'57'
p177
sg32
S'469'
p178
sg34
S'111'
p179
sg36
S'130'
p180
sg38
S'264'
p181
sg40
S'24'
p182
sg42
S'BOS'
p183
sg44
S'57'
p184
sg46
S'20'
p185
sg48
S'148'
p186
sg50
S'99'
p187
sg52
S'299'
p188
sg54
S'204'
p189
sg56
S'2014-15'
p190
sg58
S'196'
p191
sg60
S'39'
p192
sg62
S'.495'
p193
sg64
S'1382'
p194
sg66
S'17'
p195
sba(isrc.gp1.models.Totals
Totals
p196
(dp197
g8
S'51'
p198
sg10
S'251'
p199
sg12
S'.445'
p200
sg14
S'94'
p201
sg16
S'.351'
p202
sg18
S'88'
p203
sg20
S'730'
p204
sg22
S'SF'
p205
sg24
S'.822'
p206
sg26
S'.522'
p207
sg28
S'NBA'
p208
sg30
S'92'
p209
sg32
S'571'
p210
sg34
S'136'
p211
sg36
S'163'
p212
sg38
S'265'
p213
sg40
S'25'
p214
sg42
S'BOS'
p215
sg44
S'52'
p216
sg46
S'27'
p217
sg48
S'166'
p218
sg50
S'134'
p219
sg52
S'320'
p220
sg54
S'214'
p221
sg56
S'2015-16'
p222
sg58
S'254'
p223
sg60
S'63'
p224
sg62
S'.519'
p225
sg64
S'1666'
p226
sg66
S'52'
p227
sbasS'_college'
p228
S'Marquette University'
p229
sS'_toYear'
p230
S'2016'
p231
sS'_height'
p232
S'6-6'
p233
sS'_active'
p234
I01
sS'_shootingHand'
p235
VRight
p236
sS'_name'
p237
S'Jae Crowder'
p238
sS'_per100Possessions'
p239
(lp240
(isrc.gp1.models.Per100Possession
Per100Possession
p241
(dp242
g8
S'1.3'
p243
sg10
S'7.2'
p244
sg12
S'.384'
p245
sS'_offensiveRating'
p246
S'99'
p247
sg14
S'3.5'
p248
sg16
S'.328'
p249
sg18
S'2.4'
p250
sg20
S'14.8'
p251
sg22
S'SF'
p252
sS'_defensiveRating'
p253
S'106'
p254
sg24
S'.644'
p255
sg28
S'NBA'
p256
sg30
S'2.4'
p257
sg32
S'13.8'
p258
sg34
S'4.8'
p259
sg36
S'2.8'
p260
sg38
S'7.1'
p261
sg40
S'22'
p262
sg42
S'DAL'
p263
sg44
S'78'
p264
sg46
S'0.6'
p265
sg48
S'2.9'
p266
sg50
S'1.8'
p267
sg52
S'6.6'
p268
sg54
S'5.7'
p269
sg56
S'2012-13'
p270
sg58
S'5.3'
p271
sg60
S'1.8'
p272
sg62
S'.446'
p273
sg64
S'1353'
p274
sg66
S'16'
p275
sba(isrc.gp1.models.Per100Possession
Per100Possession
p276
(dp277
g8
S'1.9'
p278
sg10
S'6.2'
p279
sg12
S'.439'
p280
sg246
S'110'
p281
sg14
S'2.5'
p282
sg16
S'.331'
p283
sg18
S'2.0'
p284
sg20
S'14.6'
p285
sg22
S'SF'
p286
sg253
S'108'
p287
sg24
S'.754'
p288
sg28
S'NBA'
p289
sg30
S'2.4'
p290
sg32
S'12.1'
p291
sg34
S'4.1'
p292
sg36
S'2.5'
p293
sg38
S'7.9'
p294
sg40
S'23'
p295
sg42
S'DAL'
p296
sg44
S'78'
p297
sg46
S'0.9'
p298
sg48
S'3.3'
p299
sg50
S'1.9'
p300
sg52
S'5.9'
p301
sg54
S'6.1'
p302
sg56
S'2013-14'
p303
sg58
S'5.3'
p304
sg60
S'1.7'
p305
sg62
S'.552'
p306
sg64
S'1254'
p307
sg66
g99
sba(isrc.gp1.models.Per100Possession
Per100Possession
p308
(dp309
g8
S'2.2'
p310
sg10
S'6.3'
p311
sg12
S'.420'
p312
sg246
S'108'
p313
sg14
S'2.9'
p314
sg16
S'.293'
p315
sg18
S'1.9'
p316
sg20
S'19.1'
p317
sg22
S'SF'
p318
sg253
S'104'
p319
sg24
S'.773'
p320
sg28
S'NBA'
p321
sg30
S'2.2'
p322
sg32
S'16.6'
p323
sg34
S'4.2'
p324
sg36
S'4.3'
p325
sg38
S'8.9'
p326
sg40
S'24'
p327
sg42
S'TOT'
p328
sg44
S'82'
p329
sg46
S'0.8'
p330
sg48
S'5.1'
p331
sg50
S'3.3'
p332
sg52
S'10.3'
p333
sg54
S'6.7'
p334
sg56
S'2014-15'
p335
sg58
S'7.0'
p336
sg60
S'1.5'
p337
sg62
S'.499'
p338
sg64
S'1647'
p339
sg66
S'17'
p340
sba(isrc.gp1.models.Per100Possession
Per100Possession
p341
(dp342
g8
S'2.3'
p343
sg10
S'7.2'
p344
sg12
S'.434'
p345
sg246
S'109'
p346
sg14
S'2.3'
p347
sg16
S'.342'
p348
sg18
S'2.5'
p349
sg20
S'16.9'
p350
sg22
S'SF'
p351
sg253
S'106'
p352
sg24
S'.909'
p353
sg28
S'NBA'
p354
sg30
S'2.9'
p355
sg32
S'14.5'
p356
sg34
S'4.9'
p357
sg36
S'2.1'
p358
sg38
S'5.5'
p359
sg40
S'24'
p360
sg42
S'DAL'
p361
sg44
S'25'
p362
sg46
S'1.0'
p363
sg48
S'3.8'
p364
sg50
S'1.9'
p365
sg52
S'7.2'
p366
sg54
S'3.2'
p367
sg56
S'2014-15'
p368
sg58
S'6.3'
p369
sg60
S'1.9'
p370
sg62
S'.526'
p371
sg64
S'265'
p372
sg66
g163
sba(isrc.gp1.models.Per100Possession
Per100Possession
p373
(dp374
g8
S'2.2'
p375
sg10
S'6.2'
p376
sg12
S'.418'
p377
sg246
S'108'
p378
sg14
S'3.0'
p379
sg16
S'.282'
p380
sg18
S'1.7'
p381
sg20
S'19.5'
p382
sg22
S'SF'
p383
sg253
S'104'
p384
sg24
S'.762'
p385
sg28
S'NBA'
p386
sg30
S'2.1'
p387
sg32
S'17.0'
p388
sg34
S'4.0'
p389
sg36
S'4.7'
p390
sg38
S'9.6'
p391
sg40
S'24'
p392
sg42
S'BOS'
p393
sg44
S'57'
p394
sg46
S'0.7'
p395
sg48
S'5.4'
p396
sg50
S'3.6'
p397
sg52
S'10.8'
p398
sg54
S'7.4'
p399
sg56
S'2014-15'
p400
sg58
S'7.1'
p401
sg60
S'1.4'
p402
sg62
S'.495'
p403
sg64
S'1382'
p404
sg66
S'17'
p405
sba(isrc.gp1.models.Per100Possession
Per100Possession
p406
(dp407
g8
S'1.5'
p408
sg10
S'7.3'
p409
sg12
S'.445'
p410
sg246
S'113'
p411
sg14
S'2.8'
p412
sg16
S'.351'
p413
sg18
S'2.6'
p414
sg20
S'21.4'
p415
sg22
S'SF'
p416
sg253
S'100'
p417
sg24
S'.822'
p418
sg28
S'NBA'
p419
sg30
S'2.7'
p420
sg32
S'16.7'
p421
sg34
S'4.0'
p422
sg36
S'4.8'
p423
sg38
S'7.8'
p424
sg40
S'25'
p425
sg42
S'BOS'
p426
sg44
S'52'
p427
sg46
S'0.8'
p428
sg48
S'4.9'
p429
sg50
S'3.9'
p430
sg52
S'9.4'
p431
sg54
S'6.3'
p432
sg56
S'2015-16'
p433
sg58
S'7.4'
p434
sg60
S'1.8'
p435
sg62
S'.519'
p436
sg64
S'1666'
p437
sg66
S'52'
p438
sbasS'_advanced'
p439
(lp440
(isrc.gp1.models.Advanced
Advanced
p441
(dp442
S'_offensiveReboundPercentage'
p443
S'2.9'
p444
sS'_turnOverPercentage'
p445
S'10.9'
p446
sS'_winSharesPer48Minutes'
p447
S'.055'
p448
sS'_stealPercentage'
p449
S'2.4'
p450
sS'_usagePercentage'
p451
S'15.1'
p452
sS'_totalReboundsPercentage'
p453
S'7.7'
p454
sS'_defensiveBoxPlusMinus'
p455
S'0.4'
p456
sg22
S'SF'
p457
sS'_valueOverReplacementPlayer'
p458
S'0.5'
p459
sS'_trueShootingPercentage'
p460
S'.491'
p461
sS'_defensiveReboundPercentage'
p462
S'12.3'
p463
sS'_freeThrowsAttempRate'
p464
S'.199'
p465
sS'_threePointsAttempRate'
p466
S'.523'
p467
sg28
S'NBA'
p468
sS'_offensiveBoxPlusMinues'
p469
S'-0.9'
p470
sS'_assistPercentage'
p471
S'10.0'
p472
sS'_defensiveWinShares'
p473
S'1.3'
p474
sg40
S'22'
p475
sg42
S'DAL'
p476
sg44
S'78'
p477
sS'_blockPercentage'
p478
S'1.0'
p479
sS'_playerEfficiencyRating'
p480
S'10.2'
p481
sS'_offensiveWinShares'
p482
S'0.2'
p483
sg64
S'1353'
p484
sS'_boxPlusMinus'
p485
S'-0.5'
p486
sg56
S'2012-13'
p487
sS'_winShares'
p488
S'1.5'
p489
sba(isrc.gp1.models.Advanced
Advanced
p490
(dp491
g443
S'4.3'
p492
sg445
S'11.3'
p493
sg447
S'.089'
p494
sg449
S'2.4'
p495
sg451
S'13.2'
p496
sg453
S'8.9'
p497
sg455
S'0.6'
p498
sg22
S'SF'
p499
sg458
S'0.8'
p500
sg460
S'.551'
p501
sg462
S'13.5'
p502
sg464
S'.206'
p503
sg466
S'.510'
p504
sg28
S'NBA'
p505
sg469
S'0.0'
p506
sg471
S'6.7'
p507
sg473
S'1.1'
p508
sg40
S'23'
p509
sg42
S'DAL'
p510
sg44
S'78'
p511
sg478
S'1.4'
p512
sg480
S'11.9'
p513
sg482
S'1.2'
p514
sg64
S'1254'
p515
sg485
S'0.6'
p516
sg56
S'2013-14'
p517
sg488
S'2.3'
p518
sba(isrc.gp1.models.Advanced
Advanced
p519
(dp520
g443
S'4.7'
p521
sg445
S'7.5'
p522
sg447
S'.113'
p523
sg449
S'2.2'
p524
sg451
S'17.5'
p525
sg453
S'9.7'
p526
sg455
S'0.6'
p527
sg22
S'SF'
p528
sg458
S'1.1'
p529
sg460
S'.517'
p530
sg462
S'14.9'
p531
sg464
S'.259'
p532
sg466
S'.382'
p533
sg28
S'NBA'
p534
sg469
S'-0.1'
p535
sg471
S'8.6'
p536
sg473
S'2.0'
p537
sg40
S'24'
p538
sg42
S'TOT'
p539
sg44
S'82'
p540
sg478
S'1.2'
p541
sg480
S'13.9'
p542
sg482
S'1.9'
p543
sg64
S'1647'
p544
sg485
S'0.6'
p545
sg56
S'2014-15'
p546
sg488
S'3.9'
p547
sba(isrc.gp1.models.Advanced
Advanced
p548
(dp549
g443
S'5.0'
p550
sg445
S'11.0'
p551
sg447
S'.098'
p552
sg449
S'2.9'
p553
sg451
S'15.3'
p554
sg453
S'6.0'
p555
sg455
S'0.5'
p556
sg22
S'SF'
p557
sg458
S'0.2'
p558
sg460
S'.550'
p559
sg462
S'7.1'
p560
sg464
S'.145'
p561
sg466
S'.500'
p562
sg28
S'NBA'
p563
sg469
S'0.6'
p564
sg471
S'6.5'
p565
sg473
S'0.3'
p566
sg40
S'24'
p567
sg42
S'DAL'
p568
sg44
S'25'
p569
sg478
S'1.5'
p570
sg480
S'12.7'
p571
sg482
S'0.3'
p572
sg64
S'265'
p573
sg485
S'1.1'
p574
sg56
S'2014-15'
p575
sg488
S'0.5'
p576
sba(isrc.gp1.models.Advanced
Advanced
p577
(dp578
g443
S'4.7'
p579
sg445
S'6.9'
p580
sg447
S'.116'
p581
sg449
S'2.1'
p582
sg451
S'17.9'
p583
sg453
S'10.5'
p584
sg455
S'0.7'
p585
sg22
S'SF'
p586
sg458
S'0.9'
p587
sg460
S'.512'
p588
sg462
S'16.4'
p589
sg464
S'.277'
p590
sg466
S'.362'
p591
sg28
S'NBA'
p592
sg469
S'-0.2'
p593
sg471
S'9.0'
p594
sg473
S'1.8'
p595
sg40
S'24'
p596
sg42
S'BOS'
p597
sg44
S'57'
p598
sg478
S'1.1'
p599
sg480
S'14.1'
p600
sg482
S'1.6'
p601
sg64
S'1382'
p602
sg485
S'0.5'
p603
sg56
S'2014-15'
p604
sg488
S'3.3'
p605
sba(isrc.gp1.models.Advanced
Advanced
p606
(dp607
g443
S'3.2'
p608
sg445
S'8.9'
p609
sg447
S'.158'
p610
sg449
S'2.7'
p611
sg451
S'18.0'
p612
sg453
S'8.4'
p613
sg455
S'1.6'
p614
sg22
S'SF'
p615
sg458
S'2.1'
p616
sg460
S'.568'
p617
sg462
S'13.8'
p618
sg464
S'.285'
p619
sg466
S'.440'
p620
sg28
S'NBA'
p621
sg469
S'1.5'
p622
sg471
S'8.6'
p623
sg473
S'2.8'
p624
sg40
S'25'
p625
sg42
S'BOS'
p626
sg44
S'52'
p627
sg478
S'1.3'
p628
sg480
S'15.8'
p629
sg482
S'2.7'
p630
sg64
S'1666'
p631
sg485
S'3.1'
p632
sg56
S'2015-16'
p633
sg488
S'5.5'
p634
sbasS'_per36Minutes'
p635
(lp636
(isrc.gp1.models.Per36Minutes
Per36Minutes
p637
(dp638
g8
S'0.9'
p639
sg10
S'5.1'
p640
sg12
S'.384'
p641
sg14
S'2.5'
p642
sg16
S'.328'
p643
sg18
S'1.7'
p644
sg20
S'10.4'
p645
sg22
S'SF'
p646
sg24
S'.644'
p647
sg28
S'NBA'
p648
sg30
S'1.7'
p649
sg32
S'9.8'
p650
sg34
S'3.4'
p651
sg36
S'1.9'
p652
sg38
S'5.0'
p653
sg40
S'22'
p654
sg42
S'DAL'
p655
sg44
S'78'
p656
sg46
S'0.5'
p657
sg48
S'2.1'
p658
sg50
S'1.3'
p659
sg52
S'4.7'
p660
sg54
S'4.0'
p661
sg56
S'2012-13'
p662
sg58
S'3.8'
p663
sg60
S'1.3'
p664
sg62
S'.446'
p665
sg64
S'1353'
p666
sg66
S'16'
p667
sba(isrc.gp1.models.Per36Minutes
Per36Minutes
p668
(dp669
g8
S'1.3'
p670
sg10
S'4.3'
p671
sg12
S'.439'
p672
sg14
S'1.7'
p673
sg16
S'.331'
p674
sg18
S'1.4'
p675
sg20
S'10.2'
p676
sg22
S'SF'
p677
sg24
S'.754'
p678
sg28
S'NBA'
p679
sg30
S'1.7'
p680
sg32
S'8.5'
p681
sg34
S'2.9'
p682
sg36
S'1.8'
p683
sg38
S'5.6'
p684
sg40
S'23'
p685
sg42
S'DAL'
p686
sg44
S'78'
p687
sg46
S'0.6'
p688
sg48
S'2.3'
p689
sg50
S'1.3'
p690
sg52
S'4.2'
p691
sg54
S'4.2'
p692
sg56
S'2013-14'
p693
sg58
S'3.7'
p694
sg60
S'1.2'
p695
sg62
S'.552'
p696
sg64
S'1254'
p697
sg66
g99
sba(isrc.gp1.models.Per36Minutes
Per36Minutes
p698
(dp699
g8
S'1.6'
p700
sg10
S'4.5'
p701
sg12
S'.420'
p702
sg14
S'2.1'
p703
sg16
S'.293'
p704
sg18
S'1.3'
p705
sg20
S'13.7'
p706
sg22
S'SF'
p707
sg24
S'.773'
p708
sg28
S'NBA'
p709
sg30
S'1.6'
p710
sg32
S'11.9'
p711
sg34
S'3.0'
p712
sg36
S'3.1'
p713
sg38
S'6.4'
p714
sg40
S'24'
p715
sg42
S'TOT'
p716
sg44
S'82'
p717
sg46
S'0.5'
p718
sg48
S'3.7'
p719
sg50
S'2.4'
p720
sg52
S'7.4'
p721
sg54
S'4.8'
p722
sg56
S'2014-15'
p723
sg58
S'5.0'
p724
sg60
S'1.1'
p725
sg62
S'.499'
p726
sg64
S'1647'
p727
sg66
S'17'
p728
sba(isrc.gp1.models.Per36Minutes
Per36Minutes
p729
(dp730
g8
S'1.6'
p731
sg10
S'5.2'
p732
sg12
S'.434'
p733
sg14
S'1.6'
p734
sg16
S'.342'
p735
sg18
S'1.8'
p736
sg20
S'12.1'
p737
sg22
S'SF'
p738
sg24
S'.909'
p739
sg28
S'NBA'
p740
sg30
S'2.0'
p741
sg32
S'10.3'
p742
sg34
S'3.5'
p743
sg36
S'1.5'
p744
sg38
S'3.9'
p745
sg40
S'24'
p746
sg42
S'DAL'
p747
sg44
S'25'
p748
sg46
S'0.7'
p749
sg48
S'2.7'
p750
sg50
S'1.4'
p751
sg52
S'5.2'
p752
sg54
S'2.3'
p753
sg56
S'2014-15'
p754
sg58
S'4.5'
p755
sg60
S'1.4'
p756
sg62
S'.526'
p757
sg64
S'265'
p758
sg66
g163
sba(isrc.gp1.models.Per36Minutes
Per36Minutes
p759
(dp760
g8
S'1.6'
p761
sg10
S'4.4'
p762
sg12
S'.418'
p763
sg14
S'2.1'
p764
sg16
S'.282'
p765
sg18
S'1.3'
p766
sg20
S'14.0'
p767
sg22
S'SF'
p768
sg24
S'.762'
p769
sg28
S'NBA'
p770
sg30
S'1.5'
p771
sg32
S'12.2'
p772
sg34
S'2.9'
p773
sg36
S'3.4'
p774
sg38
S'6.9'
p775
sg40
S'24'
p776
sg42
S'BOS'
p777
sg44
S'57'
p778
sg46
S'0.5'
p779
sg48
S'3.9'
p780
sg50
S'2.6'
p781
sg52
S'7.8'
p782
sg54
S'5.3'
p783
sg56
S'2014-15'
p784
sg58
S'5.1'
p785
sg60
S'1.0'
p786
sg62
S'.495'
p787
sg64
S'1382'
p788
sg66
S'17'
p789
sba(isrc.gp1.models.Per36Minutes
Per36Minutes
p790
(dp791
g8
S'1.1'
p792
sg10
S'5.4'
p793
sg12
S'.445'
p794
sg14
S'2.0'
p795
sg16
S'.351'
p796
sg18
S'1.9'
p797
sg20
S'15.8'
p798
sg22
S'SF'
p799
sg24
S'.822'
p800
sg28
S'NBA'
p801
sg30
S'2.0'
p802
sg32
S'12.3'
p803
sg34
S'2.9'
p804
sg36
S'3.5'
p805
sg38
S'5.7'
p806
sg40
S'25'
p807
sg42
S'BOS'
p808
sg44
S'52'
p809
sg46
S'0.6'
p810
sg48
S'3.6'
p811
sg50
S'2.9'
p812
sg52
S'6.9'
p813
sg54
S'4.6'
p814
sg56
S'2015-16'
p815
sg58
S'5.5'
p816
sg60
S'1.4'
p817
sg62
S'.519'
p818
sg64
S'1666'
p819
sg66
S'52'
p820
sbasS'_fromYear'
p821
S'2013'
p822
sS'_url'
p823
S'http://www.basketball-reference.com/players/c/crowdja01.html'
p824
sS'_perGame'
p825
(isrc.gp1.models.PerGame
PerGame
p826
(dp827
g8
S'1.0'
p828
sg10
S'4.8'
p829
sg12
S'.445'
p830
sS'_effectiveFieldGalPercentage'
p831
S'.522'
p832
sg14
S'1.8'
p833
sg16
S'.351'
p834
sg18
S'1.7'
p835
sg20
S'14.0'
p836
sg22
S'SF'
p837
sg24
S'.822'
p838
sg28
S'NBA'
p839
sg30
S'1.8'
p840
sg34
S'2.6'
p841
sS'_fieldGoalsttempted'
p842
S'11.0'
p843
sg36
S'3.1'
p844
sg38
S'5.1'
p845
sg40
S'25'
p846
sg42
S'BOS'
p847
sg44
S'52'
p848
sg46
S'0.5'
p849
sg48
S'3.2'
p850
sg50
S'2.6'
p851
sg52
S'6.2'
p852
sg54
S'4.1'
p853
sg56
S'2015-16'
p854
sg58
S'4.9'
p855
sg60
S'1.2'
p856
sg62
S'.519'
p857
sg64
S'32.0'
p858
sg66
S'52'
p859
sbsS'_weight'
p860
S'235'
p861
sS'_dob'
p862
S'6-7-1990'
p863
sS'_salary'
p864
(lp865
(isrc.gp1.models.Salary
Salary
p866
(dp867
g42
S'Dallas Mavericks'
p868
sg28
S'NBA'
p869
sg864
S'$600,491'
p870
sg56
S'2012-13'
p871
sba(isrc.gp1.models.Salary
Salary
p872
(dp873
g42
S'Dallas Mavericks'
p874
sg28
S'NBA'
p875
sg864
S'$788,872'
p876
sg56
S'2013-14'
p877
sba(isrc.gp1.models.Salary
Salary
p878
(dp879
g42
S'Boston Celtics'
p880
sg28
S'NBA'
p881
sg864
S'$915,243'
p882
sg56
S'2014-15'
p883
sbasg22
S'F'
p884
sb.