(isrc.gp1.models.Player
Player
p0
(dp1
S'_experience'
p2
VRookie
p3
sS'_totals'
p4
(lp5
(isrc.gp1.models.Totals
Totals
p6
(dp7
S'_offensiveRebounds'
p8
S'100'
p9
sS'_threePointsAttempted'
p10
S'3'
p11
sS'_fieldGoalsPercentage'
p12
S'.491'
p13
sS'_assist'
p14
S'52'
p15
sS'_threePointsPercentage'
p16
S'.000'
p17
sS'_threePoints'
p18
S'0'
p19
sS'_points'
p20
S'744'
p21
sS'_position'
p22
S'C'
p23
sS'_freeThrowsPercentage'
p24
S'.671'
p25
sS'_effectiveFieldGoalPercentage'
p26
S'.491'
p27
sS'_league'
p28
S'NBA'
p29
sS'_steals'
p30
S'19'
p31
sS'_fieldGoalsAttempted'
p32
S'647'
p33
sS'_personalFouls'
p34
S'110'
p35
sS'_freeThrowsAttempted'
p36
S'161'
p37
sS'_totalRebounds'
p38
S'311'
p39
sS'_age'
p40
S'20'
p41
sS'_team'
p42
S'PHI'
p43
sS'_games'
p44
S'44'
p45
sS'_blocks'
p46
S'48'
p47
sS'_twoPoints'
p48
S'318'
p49
sS'_freeThrows'
p50
S'108'
p51
sS'_twoPointsAttempted'
p52
S'644'
p53
sS'_defensiveRebounds'
p54
S'211'
p55
sS'_season'
p56
S'2015-16'
p57
sS'_fieldGoals'
p58
S'318'
p59
sS'_turnOvers'
p60
S'100'
p61
sS'_twoPointsPercentage'
p62
S'.494'
p63
sS'_minutesPlayed'
p64
S'1330'
p65
sS'_gamesStarted'
p66
S'39'
p67
sbasS'_college'
p68
S'Duke University'
p69
sS'_toYear'
p70
S'2016'
p71
sS'_height'
p72
S'6-11'
p73
sS'_active'
p74
I01
sS'_shootingHand'
p75
VRight
p76
sS'_name'
p77
S'Jahlil Okafor'
p78
sS'_per100Possessions'
p79
(lp80
(isrc.gp1.models.Per100Possession
Per100Possession
p81
(dp82
g8
S'3.7'
p83
sg10
S'0.1'
p84
sg12
S'.491'
p85
sS'_offensiveRating'
p86
S'97'
p87
sg14
S'1.9'
p88
sg16
S'.000'
p89
sg18
S'0.0'
p90
sg20
S'27.5'
p91
sg22
g23
sS'_defensiveRating'
p92
S'108'
p93
sg24
S'.671'
p94
sg28
S'NBA'
p95
sg30
S'0.7'
p96
sg32
S'23.9'
p97
sg34
S'4.1'
p98
sg36
S'5.9'
p99
sg38
S'11.5'
p100
sg40
S'20'
p101
sg42
S'PHI'
p102
sg44
S'44'
p103
sg46
S'1.8'
p104
sg48
S'11.7'
p105
sg50
S'4.0'
p106
sg52
S'23.8'
p107
sg54
S'7.8'
p108
sg56
S'2015-16'
p109
sg58
S'11.7'
p110
sg60
S'3.7'
p111
sg62
S'.494'
p112
sg64
S'1330'
p113
sg66
S'39'
p114
sbasS'_advanced'
p115
(lp116
(isrc.gp1.models.Advanced
Advanced
p117
(dp118
S'_offensiveReboundPercentage'
p119
S'8.1'
p120
sS'_turnOverPercentage'
p121
S'12.2'
p122
sS'_winSharesPer48Minutes'
p123
S'.036'
p124
sS'_stealPercentage'
p125
S'0.7'
p126
sS'_usagePercentage'
p127
S'27.0'
p128
sS'_totalReboundsPercentage'
p129
S'12.9'
p130
sS'_defensiveBoxPlusMinus'
p131
S'-1.5'
p132
sg22
g23
sS'_valueOverReplacementPlayer'
p133
S'-0.8'
p134
sS'_trueShootingPercentage'
p135
S'.518'
p136
sS'_defensiveReboundPercentage'
p137
S'17.8'
p138
sS'_freeThrowsAttempRate'
p139
S'.249'
p140
sS'_threePointsAttempRate'
p141
S'.005'
p142
sg28
S'NBA'
p143
sS'_offensiveBoxPlusMinues'
p144
S'-2.9'
p145
sS'_assistPercentage'
p146
S'7.8'
p147
sS'_defensiveWinShares'
p148
S'0.9'
p149
sg40
S'20'
p150
sg42
S'PHI'
p151
sg44
S'44'
p152
sS'_blockPercentage'
p153
S'2.7'
p154
sS'_playerEfficiencyRating'
p155
S'16.3'
p156
sS'_offensiveWinShares'
p157
S'0.1'
p158
sg64
S'1330'
p159
sS'_boxPlusMinus'
p160
S'-4.4'
p161
sg56
S'2015-16'
p162
sS'_winShares'
p163
S'1.0'
p164
sbasS'_per36Minutes'
p165
(lp166
(isrc.gp1.models.Per36Minutes
Per36Minutes
p167
(dp168
g8
S'2.7'
p169
sg10
S'0.1'
p170
sg12
S'.491'
p171
sg14
S'1.4'
p172
sg16
S'.000'
p173
sg18
S'0.0'
p174
sg20
S'20.1'
p175
sg22
g23
sg24
S'.671'
p176
sg28
S'NBA'
p177
sg30
S'0.5'
p178
sg32
S'17.5'
p179
sg34
S'3.0'
p180
sg36
S'4.4'
p181
sg38
S'8.4'
p182
sg40
S'20'
p183
sg42
S'PHI'
p184
sg44
S'44'
p185
sg46
S'1.3'
p186
sg48
S'8.6'
p187
sg50
S'2.9'
p188
sg52
S'17.4'
p189
sg54
S'5.7'
p190
sg56
S'2015-16'
p191
sg58
S'8.6'
p192
sg60
S'2.7'
p193
sg62
S'.494'
p194
sg64
S'1330'
p195
sg66
S'39'
p196
sbasS'_fromYear'
p197
S'2016'
p198
sS'_url'
p199
S'http://www.basketball-reference.com/players/o/okafoja01.html'
p200
sS'_perGame'
p201
(isrc.gp1.models.PerGame
PerGame
p202
(dp203
g8
S'2.3'
p204
sg10
S'0.1'
p205
sg12
S'.491'
p206
sS'_effectiveFieldGalPercentage'
p207
S'.491'
p208
sg14
S'1.2'
p209
sg16
S'.000'
p210
sg18
S'0.0'
p211
sg20
S'16.9'
p212
sg22
g23
sg24
S'.671'
p213
sg28
S'NBA'
p214
sg30
S'0.4'
p215
sg34
S'2.5'
p216
sS'_fieldGoalsttempted'
p217
S'14.7'
p218
sg36
S'3.7'
p219
sg38
S'7.1'
p220
sg40
S'20'
p221
sg42
S'PHI'
p222
sg44
S'44'
p223
sg46
S'1.1'
p224
sg48
S'7.2'
p225
sg50
S'2.5'
p226
sg52
S'14.6'
p227
sg54
S'4.8'
p228
sg56
S'2015-16'
p229
sg58
S'7.2'
p230
sg60
S'2.3'
p231
sg62
S'.494'
p232
sg64
S'30.2'
p233
sg66
S'39'
p234
sbsS'_weight'
p235
S'275'
p236
sS'_dob'
p237
S'15-12-1995'
p238
sS'_salary'
p239
(lp240
sg22
g23
sb.