(isrc.gp1.models.Player
Player
p0
(dp1
S'_experience'
p2
S'NA'
p3
sS'_totals'
p4
(lp5
(isrc.gp1.models.Totals
Totals
p6
(dp7
S'_offensiveRebounds'
p8
S'9'
p9
sS'_threePointsAttempted'
p10
S'0'
p11
sS'_fieldGoalsPercentage'
p12
S'.615'
p13
sS'_assist'
p14
S'4'
p15
sS'_threePointsPercentage'
p16
S'8'
p17
sS'_threePoints'
p18
g11
sS'_points'
p19
g3
sS'_position'
p20
S'PG'
p21
sS'_freeThrowsPercentage'
p22
S'2'
p23
sS'_effectiveFieldGoalPercentage'
p24
g23
sS'_league'
p25
S'NBA'
p26
sS'_steals'
p27
g11
sS'_fieldGoalsAttempted'
p28
S'13'
p29
sS'_personalFouls'
p30
S'18'
p31
sS'_freeThrowsAttempted'
p32
S'.667'
p33
sS'_totalRebounds'
p34
S'11'
p35
sS'_age'
p36
S'26'
p37
sS'_team'
p38
S'TOT'
p39
sS'_games'
p40
S'13'
p41
sS'_blocks'
p42
S'5'
p43
sS'_twoPoints'
p44
S'13'
p45
sS'_freeThrows'
p46
S'3'
p47
sS'_twoPointsAttempted'
p48
S'.615'
p49
sS'_defensiveRebounds'
p50
S'11'
p51
sS'_season'
p52
S'1994-95'
p53
sS'_fieldGoals'
p54
g17
sS'_turnOvers'
p55
g17
sS'_twoPointsPercentage'
p56
S'.615'
p57
sS'_minutesPlayed'
p58
S'80'
p59
sS'_gamesStarted'
p60
g11
sba(isrc.gp1.models.Totals
Totals
p61
(dp62
g8
g47
sg10
g11
sg12
S'.667'
p63
sg14
g11
sg16
g23
sg18
g11
sg19
g3
sg20
S'PG'
p64
sg22
g47
sg24
g11
sg25
S'NBA'
p65
sg27
g23
sg28
g47
sg30
g3
sg32
g11
sg34
S'1'
p66
sg36
S'26'
p67
sg38
S'CHH'
p68
sg40
g15
sg42
g66
sg44
g47
sg46
g11
sg48
S'.667'
p69
sg50
g43
sg52
S'1994-95'
p70
sg54
g23
sg55
g15
sg56
S'.667'
p71
sg58
S'19'
p72
sg60
g11
sba(isrc.gp1.models.Totals
Totals
p73
(dp74
g8
S'6'
p75
sg10
g11
sg12
S'.600'
p76
sg14
g47
sg16
g75
sg18
g11
sg19
g3
sg20
S'PG'
p77
sg22
g23
sg24
g23
sg25
S'NBA'
p78
sg27
g11
sg28
S'10'
p79
sg30
S'14'
p80
sg32
S'.667'
p81
sg34
g75
sg36
S'26'
p82
sg38
S'BOS'
p83
sg40
g9
sg42
g47
sg44
S'10'
p84
sg46
g47
sg48
S'.600'
p85
sg50
g17
sg52
S'1994-95'
p86
sg54
g75
sg55
S'7'
p87
sg56
S'.600'
p88
sg58
S'61'
p89
sg60
g11
sbasS'_college'
p90
S'Dartmouth College'
p91
sS'_toYear'
p92
S'1995'
p93
sS'_height'
p94
S'6-0'
p95
sS'_active'
p96
I00
sS'_shootingHand'
p97
VRight
p98
sS'_name'
p99
S'James Blackwell'
p100
sS'_per100Possessions'
p101
(lp102
(isrc.gp1.models.Per100Possession
Per100Possession
p103
(dp104
g8
S'5.8'
p105
sg10
S'0.0'
p106
sg12
S'.615'
p107
sS'_offensiveRating'
p108
S'109'
p109
sg14
S'2.6'
p110
sg16
S'5.1'
p111
sg18
S'0.0'
p112
sg19
S'112'
p113
sg20
S'PG'
p114
sS'_defensiveRating'
p115
g3
sg22
S'1.3'
p116
sg25
S'NBA'
p117
sg27
S'0.0'
p118
sg28
S'8.4'
p119
sg30
S'11.6'
p120
sg32
S'.667'
p121
sg34
S'7.1'
p122
sg36
S'26'
p123
sg38
S'TOT'
p124
sg40
S'13'
p125
sg42
S'3.2'
p126
sg44
S'8.4'
p127
sg46
S'1.9'
p128
sg48
S'.615'
p129
sg50
S'7.1'
p130
sg52
S'1994-95'
p131
sg54
S'5.1'
p132
sg55
S'5.1'
p133
sg56
S'1.3'
p134
sg58
S'80'
p135
sg60
g11
sba(isrc.gp1.models.Per100Possession
Per100Possession
p136
(dp137
g8
S'8.3'
p138
sg10
S'0.0'
p139
sg12
S'.667'
p140
sg108
g3
sg14
S'0.0'
p141
sg16
S'5.5'
p142
sg18
S'0.0'
p143
sg19
S'103'
p144
sg20
S'PG'
p145
sg115
g3
sg22
S'8.3'
p146
sg25
S'NBA'
p147
sg27
S'5.5'
p148
sg28
S'8.3'
p149
sg30
S'106'
p150
sg32
S'0.0'
p151
sg34
S'2.8'
p152
sg36
S'26'
p153
sg38
S'CHH'
p154
sg40
g15
sg42
S'2.8'
p155
sg44
S'8.3'
p156
sg46
S'0.0'
p157
sg48
S'.667'
p158
sg50
S'13.9'
p159
sg52
S'1994-95'
p160
sg54
S'5.5'
p161
sg55
S'11.1'
p162
sg56
S'0.0'
p163
sg58
S'19'
p164
sg60
g11
sba(isrc.gp1.models.Per100Possession
Per100Possession
p165
(dp166
g8
S'5.0'
p167
sg10
S'0.0'
p168
sg12
S'.600'
p169
sg108
S'110'
p170
sg14
S'2.5'
p171
sg16
S'5.0'
p172
sg18
S'0.0'
p173
sg19
S'115'
p174
sg20
S'PG'
p175
sg115
g3
sg22
S'1.7'
p176
sg25
S'NBA'
p177
sg27
S'0.0'
p178
sg28
S'8.4'
p179
sg30
S'11.7'
p180
sg32
S'.667'
p181
sg34
S'5.0'
p182
sg36
S'26'
p183
sg38
S'BOS'
p184
sg40
g9
sg42
S'2.5'
p185
sg44
S'8.4'
p186
sg46
S'2.5'
p187
sg48
S'.600'
p188
sg50
S'6.7'
p189
sg52
S'1994-95'
p190
sg54
S'5.0'
p191
sg55
S'5.9'
p192
sg56
S'1.7'
p193
sg58
S'61'
p194
sg60
g11
sbasS'_advanced'
p195
(lp196
(isrc.gp1.models.Advanced
Advanced
p197
(dp198
S'_offensiveReboundPercentage'
p199
S'2.8'
p200
sS'_turnOverPercentage'
p201
S'25.9'
p202
sS'_winSharesPer48Minutes'
p203
S'.091'
p204
sS'_stealPercentage'
p205
S'2.6'
p206
sS'_usagePercentage'
p207
S'10.6'
p208
sS'_totalReboundsPercentage'
p209
S'8.0'
p210
sS'_defensiveBoxPlusMinus'
p211
S'0.2'
p212
sg20
S'PG'
p213
sS'_valueOverReplacementPlayer'
p214
S'0.0'
p215
sS'_trueShootingPercentage'
p216
S'.628'
p217
sS'_defensiveReboundPercentage'
p218
S'13.0'
p219
sS'_freeThrowsAttempRate'
p220
S'.231'
p221
sS'_threePointsAttempRate'
p222
S'.000'
p223
sg25
S'NBA'
p224
sS'_offensiveBoxPlusMinues'
p225
S'-2.1'
p226
sS'_assistPercentage'
p227
S'20.0'
p228
sS'_defensiveWinShares'
p229
S'0.1'
p230
sg36
S'26'
p231
sg38
S'TOT'
p232
sg40
S'13'
p233
sS'_blockPercentage'
p234
S'0.0'
p235
sS'_playerEfficiencyRating'
p236
S'11.6'
p237
sS'_offensiveWinShares'
p238
S'0.1'
p239
sg58
S'80'
p240
sS'_boxPlusMinus'
p241
S'-1.9'
p242
sg52
S'1994-95'
p243
sS'_winShares'
p244
S'0.2'
p245
sba(isrc.gp1.models.Advanced
Advanced
p246
(dp247
g199
S'0.0'
p248
sg201
S'40.0'
p249
sg203
S'.104'
p250
sg205
S'2.8'
p251
sg207
S'12.2'
p252
sg209
S'9.3'
p253
sg211
S'-0.2'
p254
sg20
S'PG'
p255
sg214
S'0.0'
p256
sg216
S'.667'
p257
sg218
S'17.9'
p258
sg220
S'.000'
p259
sg222
S'.000'
p260
sg25
S'NBA'
p261
sg225
S'-3.8'
p262
sg227
S'39.6'
p263
sg229
S'0.0'
p264
sg36
S'26'
p265
sg38
S'CHH'
p266
sg40
g15
sg234
S'0.0'
p267
sg236
S'14.2'
p268
sg238
S'0.0'
p269
sg58
S'19'
p270
sg241
S'-4.0'
p271
sg52
S'1994-95'
p272
sg244
S'0.0'
p273
sba(isrc.gp1.models.Advanced
Advanced
p274
(dp275
g199
S'3.7'
p276
sg201
S'20.9'
p277
sg203
S'.087'
p278
sg205
S'2.5'
p279
sg207
S'10.2'
p280
sg209
S'7.6'
p281
sg211
S'0.3'
p282
sg20
S'PG'
p283
sg214
S'0.0'
p284
sg216
S'.618'
p285
sg218
S'11.5'
p286
sg220
S'.300'
p287
sg222
S'.000'
p288
sg25
S'NBA'
p289
sg225
S'-1.6'
p290
sg227
S'14.0'
p291
sg229
S'0.0'
p292
sg36
S'26'
p293
sg38
S'BOS'
p294
sg40
g9
sg234
S'0.0'
p295
sg236
S'10.8'
p296
sg238
S'0.1'
p297
sg58
S'61'
p298
sg241
S'-1.3'
p299
sg52
S'1994-95'
p300
sg244
S'0.1'
p301
sbasS'_per36Minutes'
p302
(lp303
(isrc.gp1.models.Per36Minutes
Per36Minutes
p304
(dp305
g8
S'4.1'
p306
sg10
S'0.0'
p307
sg12
S'.615'
p308
sg14
S'1.8'
p309
sg16
S'3.6'
p310
sg18
S'0.0'
p311
sg19
g3
sg20
S'PG'
p312
sg22
S'0.9'
p313
sg25
S'NBA'
p314
sg27
S'0.0'
p315
sg28
S'5.9'
p316
sg30
S'8.1'
p317
sg32
S'.667'
p318
sg34
S'5.0'
p319
sg36
S'26'
p320
sg38
S'TOT'
p321
sg40
S'13'
p322
sg42
S'2.3'
p323
sg44
S'5.9'
p324
sg46
S'1.4'
p325
sg48
S'.615'
p326
sg50
S'5.0'
p327
sg52
S'1994-95'
p328
sg54
S'3.6'
p329
sg55
S'3.6'
p330
sg56
S'0.9'
p331
sg58
S'80'
p332
sg60
g11
sba(isrc.gp1.models.Per36Minutes
Per36Minutes
p333
(dp334
g8
S'5.7'
p335
sg10
S'0.0'
p336
sg12
S'.667'
p337
sg14
S'0.0'
p338
sg16
S'3.8'
p339
sg18
S'0.0'
p340
sg19
g3
sg20
S'PG'
p341
sg22
S'5.7'
p342
sg25
S'NBA'
p343
sg27
S'3.8'
p344
sg28
S'5.7'
p345
sg30
g3
sg32
S'0.0'
p346
sg34
S'1.9'
p347
sg36
S'26'
p348
sg38
S'CHH'
p349
sg40
g15
sg42
S'1.9'
p350
sg44
S'5.7'
p351
sg46
S'0.0'
p352
sg48
S'.667'
p353
sg50
S'9.5'
p354
sg52
S'1994-95'
p355
sg54
S'3.8'
p356
sg55
S'7.6'
p357
sg56
S'0.0'
p358
sg58
S'19'
p359
sg60
g11
sba(isrc.gp1.models.Per36Minutes
Per36Minutes
p360
(dp361
g8
S'3.5'
p362
sg10
S'0.0'
p363
sg12
S'.600'
p364
sg14
S'1.8'
p365
sg16
S'3.5'
p366
sg18
S'0.0'
p367
sg19
g3
sg20
S'PG'
p368
sg22
S'1.2'
p369
sg25
S'NBA'
p370
sg27
S'0.0'
p371
sg28
S'5.9'
p372
sg30
S'8.3'
p373
sg32
S'.667'
p374
sg34
S'3.5'
p375
sg36
S'26'
p376
sg38
S'BOS'
p377
sg40
g9
sg42
S'1.8'
p378
sg44
S'5.9'
p379
sg46
S'1.8'
p380
sg48
S'.600'
p381
sg50
S'4.7'
p382
sg52
S'1994-95'
p383
sg54
S'3.5'
p384
sg55
S'4.1'
p385
sg56
S'1.2'
p386
sg58
S'61'
p387
sg60
g11
sbasS'_fromYear'
p388
S'1995'
p389
sS'_url'
p390
S'http://www.basketball-reference.com/players/b/blackja01.html'
p391
sS'_perGame'
p392
(isrc.gp1.models.PerGame
PerGame
p393
(dp394
g8
S'0.7'
p395
sg10
S'0.0'
p396
sg12
S'.600'
p397
sS'_effectiveFieldGalPercentage'
p398
S'0.2'
p399
sg14
S'0.3'
p400
sg16
S'0.7'
p401
sg18
S'0.0'
p402
sg19
g3
sg20
S'PG'
p403
sg22
S'0.2'
p404
sg25
S'NBA'
p405
sg27
S'0.0'
p406
sg30
S'1.6'
p407
sS'_fieldGoalsttempted'
p408
S'1.1'
p409
sg32
S'.667'
p410
sg34
S'0.7'
p411
sg36
S'26'
p412
sg38
S'BOS'
p413
sg40
g9
sg42
S'0.3'
p414
sg44
S'1.1'
p415
sg46
S'0.3'
p416
sg48
S'.600'
p417
sg50
S'0.9'
p418
sg52
S'1994-95'
p419
sg54
S'0.7'
p420
sg55
S'0.8'
p421
sg56
S'.600'
p422
sg58
S'6.8'
p423
sg60
g11
sbsS'_weight'
p424
S'190'
p425
sS'_dob'
p426
S'25-2-1968'
p427
sS'_salary'
p428
(lp429
sg20
S'G'
p430
sb.