(isrc.gp1.models.Player
Player
p0
(dp1
S'_experience'
p2
S'NA'
p3
sS'_totals'
p4
(lp5
(isrc.gp1.models.Totals
Totals
p6
(dp7
S'_offensiveRebounds'
p8
S'6'
p9
sS'_threePointsAttempted'
p10
S'0'
p11
sS'_fieldGoalsPercentage'
p12
S'.375'
p13
sS'_assist'
p14
S'1'
p15
sS'_threePointsPercentage'
p16
g3
sS'_threePoints'
p17
g11
sS'_points'
p18
S'24'
p19
sS'_position'
p20
S'C'
p21
sS'_freeThrowsPercentage'
p22
S'.500'
p23
sS'_effectiveFieldGoalPercentage'
p24
S'.375'
p25
sS'_league'
p26
S'NBA'
p27
sS'_steals'
p28
S'2'
p29
sS'_fieldGoalsAttempted'
p30
S'24'
p31
sS'_personalFouls'
p32
S'11'
p33
sS'_freeThrowsAttempted'
p34
S'12'
p35
sS'_totalRebounds'
p36
S'17'
p37
sS'_age'
p38
S'23'
p39
sS'_team'
p40
S'SAC'
p41
sS'_games'
p42
S'16'
p43
sS'_blocks'
p44
g9
sS'_twoPoints'
p45
S'9'
p46
sS'_freeThrows'
p47
g9
sS'_twoPointsAttempted'
p48
S'24'
p49
sS'_defensiveRebounds'
p50
S'11'
p51
sS'_season'
p52
S'1998-99'
p53
sS'_fieldGoals'
p54
g46
sS'_turnOvers'
p55
g46
sS'_twoPointsPercentage'
p56
S'.375'
p57
sS'_minutesPlayed'
p58
S'42'
p59
sS'_gamesStarted'
p60
g11
sba(isrc.gp1.models.Totals
Totals
p61
(dp62
g8
g3
sg10
g3
sg12
g3
sg14
g3
sg16
g3
sg17
g3
sg18
g3
sg20
g3
sg22
g3
sg24
g3
sg26
g3
sg28
g3
sg30
g3
sg32
g3
sg34
g3
sg36
g3
sg38
S'24'
p63
sg40
S'Did Not Play\xc2\xa0(injury\xe2\x80\x94knee)'
p64
sg42
g3
sg44
g3
sg45
g3
sg47
g3
sg48
g3
sg50
g3
sg52
S'1999-00'
p65
sg54
g3
sg55
g3
sg56
g3
sg58
g3
sg60
g3
sba(isrc.gp1.models.Totals
Totals
p66
(dp67
g8
g3
sg10
g3
sg12
g3
sg14
g3
sg16
g3
sg17
g3
sg18
g3
sg20
g3
sg22
g3
sg24
g3
sg26
g3
sg28
g3
sg30
g3
sg32
g3
sg34
g3
sg36
g3
sg38
S'25'
p68
sg40
S'Did Not Play\xc2\xa0(other pro league\xe2\x80\x94Yugoslavia)'
p69
sg42
g3
sg44
g3
sg45
g3
sg47
g3
sg48
g3
sg50
g3
sg52
S'2000-01'
p70
sg54
g3
sg55
g3
sg56
g3
sg58
g3
sg60
g3
sba(isrc.gp1.models.Totals
Totals
p71
(dp72
g8
S'89'
p73
sg10
g11
sg12
S'.491'
p74
sg14
S'24'
p75
sg16
g3
sg17
g11
sg18
S'298'
p76
sg20
g21
sg22
S'.500'
p77
sg24
S'.491'
p78
sg26
S'NBA'
p79
sg28
S'25'
p80
sg30
S'273'
p81
sg32
S'174'
p82
sg34
S'60'
p83
sg36
S'232'
p84
sg38
S'26'
p85
sg40
S'SEA'
p86
sg42
S'56'
p87
sg44
S'86'
p88
sg45
S'134'
p89
sg47
S'30'
p90
sg48
S'273'
p91
sg50
S'143'
p92
sg52
S'2001-02'
p93
sg54
S'134'
p94
sg55
S'74'
p95
sg56
S'.491'
p96
sg58
S'949'
p97
sg60
S'40'
p98
sba(isrc.gp1.models.Totals
Totals
p99
(dp100
g8
S'78'
p101
sg10
g11
sg12
S'.478'
p102
sg14
S'27'
p103
sg16
g3
sg17
g11
sg18
S'276'
p104
sg20
g21
sg22
S'.587'
p105
sg24
S'.478'
p106
sg26
S'NBA'
p107
sg28
S'12'
p108
sg30
S'232'
p109
sg32
S'166'
p110
sg34
S'92'
p111
sg36
S'216'
p112
sg38
S'27'
p113
sg40
S'SEA'
p114
sg42
S'51'
p115
sg44
S'82'
p116
sg45
S'111'
p117
sg47
S'54'
p118
sg48
S'232'
p119
sg50
S'138'
p120
sg52
S'2002-03'
p121
sg54
S'111'
p122
sg55
S'75'
p123
sg56
S'.478'
p124
sg58
S'766'
p125
sg60
S'16'
p126
sba(isrc.gp1.models.Totals
Totals
p127
(dp128
g8
S'78'
p129
sg10
g11
sg12
S'.498'
p130
sg14
S'32'
p131
sg16
g3
sg17
g11
sg18
S'324'
p132
sg20
g21
sg22
S'.660'
p133
sg24
S'.498'
p134
sg26
S'NBA'
p135
sg28
S'20'
p136
sg30
S'259'
p137
sg32
S'180'
p138
sg34
S'100'
p139
sg36
S'230'
p140
sg38
S'28'
p141
sg40
S'SEA'
p142
sg42
S'65'
p143
sg44
S'60'
p144
sg45
S'129'
p145
sg47
S'66'
p146
sg48
S'259'
p147
sg50
S'152'
p148
sg52
S'2003-04'
p149
sg54
S'129'
p150
sg55
S'82'
p151
sg56
S'.498'
p152
sg58
S'990'
p153
sg60
S'24'
p154
sba(isrc.gp1.models.Totals
Totals
p155
(dp156
g8
S'81'
p157
sg10
g29
sg12
S'.509'
p158
sg14
S'19'
p159
sg16
S'.000'
p160
sg17
g11
sg18
S'395'
p161
sg20
g21
sg22
S'.723'
p162
sg24
S'.509'
p163
sg26
S'NBA'
p164
sg28
S'23'
p165
sg30
S'342'
p166
sg32
S'279'
p167
sg34
S'65'
p168
sg36
S'241'
p169
sg38
S'29'
p170
sg40
S'SEA'
p171
sg42
S'80'
p172
sg44
S'111'
p173
sg45
S'174'
p174
sg47
S'47'
p175
sg48
S'340'
p176
sg50
S'160'
p177
sg52
S'2004-05'
p178
sg54
S'174'
p179
sg55
S'88'
p180
sg56
S'.512'
p181
sg58
S'1330'
p182
sg60
S'80'
p183
sba(isrc.gp1.models.Totals
Totals
p184
(dp185
g8
S'39'
p186
sg10
g11
sg12
S'.463'
p187
sg14
S'12'
p188
sg16
g3
sg17
g11
sg18
S'137'
p189
sg20
g21
sg22
S'.625'
p190
sg24
S'.463'
p191
sg26
S'NBA'
p192
sg28
S'3'
p193
sg30
S'121'
p194
sg32
S'104'
p195
sg34
S'40'
p196
sg36
S'91'
p197
sg38
S'30'
p198
sg40
S'NYK'
p199
sg42
S'45'
p200
sg44
S'23'
p201
sg45
S'56'
p202
sg47
S'25'
p203
sg48
S'121'
p204
sg50
S'52'
p205
sg52
S'2005-06'
p206
sg54
S'56'
p207
sg55
S'51'
p208
sg56
S'.463'
p209
sg58
S'406'
p210
sg60
g46
sba(isrc.gp1.models.Totals
Totals
p211
(dp212
g8
S'21'
p213
sg10
g11
sg12
S'.418'
p214
sg14
g193
sg16
g3
sg17
g11
sg18
S'76'
p215
sg20
g21
sg22
S'.556'
p216
sg24
S'.418'
p217
sg26
S'NBA'
p218
sg28
g9
sg30
S'79'
p219
sg32
S'73'
p220
sg34
S'18'
p221
sg36
S'66'
p222
sg38
S'31'
p223
sg40
S'NYK'
p224
sg42
S'41'
p225
sg44
S'15'
p226
sg45
S'33'
p227
sg47
S'10'
p228
sg48
S'79'
p229
sg50
S'45'
p230
sg52
S'2006-07'
p231
sg54
S'33'
p232
sg55
S'23'
p233
sg56
S'.418'
p234
sg58
S'273'
p235
sg60
S'11'
p236
sba(isrc.gp1.models.Totals
Totals
p237
(dp238
g8
g11
sg10
g11
sg12
S'1.000'
p239
sg14
g11
sg16
g3
sg17
g11
sg18
S'4'
p240
sg20
g21
sg22
S'1.000'
p241
sg24
S'1.000'
p242
sg26
S'NBA'
p243
sg28
g11
sg30
g15
sg32
g11
sg34
g29
sg36
g193
sg38
S'32'
p244
sg40
S'NYK'
p245
sg42
g29
sg44
g11
sg45
g15
sg47
g29
sg48
g15
sg50
g193
sg52
S'2007-08'
p246
sg54
g15
sg55
g11
sg56
S'1.000'
p247
sg58
S'5'
p248
sg60
g11
sba(isrc.gp1.models.Totals
Totals
p249
(dp250
g8
g15
sg10
g11
sg12
S'.375'
p251
sg14
g11
sg16
g3
sg17
g11
sg18
g9
sg20
g21
sg22
g3
sg24
S'.375'
p252
sg26
S'NBA'
p253
sg28
g15
sg30
S'8'
p254
sg32
g29
sg34
g11
sg36
g193
sg38
S'33'
p255
sg40
S'NYK'
p256
sg42
g29
sg44
g15
sg45
g193
sg47
g11
sg48
g254
sg50
g29
sg52
S'2008-09'
p257
sg54
g193
sg55
g15
sg56
S'.375'
p258
sg58
S'10'
p259
sg60
g11
sbasS'_college'
p260
S'Florida Agricultural and Mechanical University'
p261
sS'_toYear'
p262
S'2009'
p263
sS'_height'
p264
S'7-0'
p265
sS'_active'
p266
I00
sS'_shootingHand'
p267
VRight
p268
sS'_name'
p269
S'Jerome James'
p270
sS'_per100Possessions'
p271
(lp272
(isrc.gp1.models.Per100Possession
Per100Possession
p273
(dp274
g8
S'7.1'
p275
sg10
S'0.0'
p276
sg12
S'.375'
p277
sS'_offensiveRating'
p278
S'72'
p279
sg14
S'1.2'
p280
sg16
g3
sg17
S'0.0'
p281
sg18
S'28.6'
p282
sg20
g21
sS'_defensiveRating'
p283
S'91'
p284
sg22
S'.500'
p285
sg26
S'NBA'
p286
sg28
S'2.4'
p287
sg30
S'28.6'
p288
sg32
S'13.1'
p289
sg34
S'14.3'
p290
sg36
S'20.2'
p291
sg38
S'23'
p292
sg40
S'SAC'
p293
sg42
S'16'
p294
sg44
S'7.1'
p295
sg45
S'10.7'
p296
sg47
S'7.1'
p297
sg48
S'28.6'
p298
sg50
S'13.1'
p299
sg52
S'1998-99'
p300
sg54
S'10.7'
p301
sg55
S'10.7'
p302
sg56
S'.375'
p303
sg58
S'42'
p304
sg60
g11
sba(isrc.gp1.models.Per100Possession
Per100Possession
p305
(dp306
g8
S'5.1'
p307
sg10
S'0.0'
p308
sg12
S'.491'
p309
sg278
S'92'
p310
sg14
S'1.4'
p311
sg16
g3
sg17
S'0.0'
p312
sg18
S'16.9'
p313
sg20
g21
sg283
S'102'
p314
sg22
S'.500'
p315
sg26
S'NBA'
p316
sg28
S'1.4'
p317
sg30
S'15.5'
p318
sg32
S'9.9'
p319
sg34
S'3.4'
p320
sg36
S'13.2'
p321
sg38
S'26'
p322
sg40
S'SEA'
p323
sg42
S'56'
p324
sg44
S'4.9'
p325
sg45
S'7.6'
p326
sg47
S'1.7'
p327
sg48
S'15.5'
p328
sg50
S'8.1'
p329
sg52
S'2001-02'
p330
sg54
S'7.6'
p331
sg55
S'4.2'
p332
sg56
S'.491'
p333
sg58
S'949'
p334
sg60
S'40'
p335
sba(isrc.gp1.models.Per100Possession
Per100Possession
p336
(dp337
g8
S'5.6'
p338
sg10
S'0.0'
p339
sg12
S'.478'
p340
sg278
S'91'
p341
sg14
S'1.9'
p342
sg16
g3
sg17
S'0.0'
p343
sg18
S'19.6'
p344
sg20
g21
sg283
S'98'
p345
sg22
S'.587'
p346
sg26
S'NBA'
p347
sg28
S'0.9'
p348
sg30
S'16.5'
p349
sg32
S'11.8'
p350
sg34
S'6.5'
p351
sg36
S'15.4'
p352
sg38
S'27'
p353
sg40
S'SEA'
p354
sg42
S'51'
p355
sg44
S'5.8'
p356
sg45
S'7.9'
p357
sg47
S'3.8'
p358
sg48
S'16.5'
p359
sg50
S'9.8'
p360
sg52
S'2002-03'
p361
sg54
S'7.9'
p362
sg55
S'5.3'
p363
sg56
S'.478'
p364
sg58
S'766'
p365
sg60
S'16'
p366
sba(isrc.gp1.models.Per100Possession
Per100Possession
p367
(dp368
g8
S'4.2'
p369
sg10
S'0.0'
p370
sg12
S'.498'
p371
sg278
S'96'
p372
sg14
S'1.7'
p373
sg16
g3
sg17
S'0.0'
p374
sg18
S'17.5'
p375
sg20
g21
sg283
S'106'
p376
sg22
S'.660'
p377
sg26
S'NBA'
p378
sg28
S'1.1'
p379
sg30
S'14.0'
p380
sg32
S'9.7'
p381
sg34
S'5.4'
p382
sg36
S'12.4'
p383
sg38
S'28'
p384
sg40
S'SEA'
p385
sg42
S'65'
p386
sg44
S'3.2'
p387
sg45
S'7.0'
p388
sg47
S'3.6'
p389
sg48
S'14.0'
p390
sg50
S'8.2'
p391
sg52
S'2003-04'
p392
sg54
S'7.0'
p393
sg55
S'4.4'
p394
sg56
S'.498'
p395
sg58
S'990'
p396
sg60
S'24'
p397
sba(isrc.gp1.models.Per100Possession
Per100Possession
p398
(dp399
g8
S'3.3'
p400
sg10
S'0.1'
p401
sg12
S'.509'
p402
sg278
S'97'
p403
sg14
S'0.8'
p404
sg16
S'.000'
p405
sg17
S'0.0'
p406
sg18
S'16.2'
p407
sg20
g21
sg283
S'107'
p408
sg22
S'.723'
p409
sg26
S'NBA'
p410
sg28
S'0.9'
p411
sg30
S'14.0'
p412
sg32
S'11.5'
p413
sg34
S'2.7'
p414
sg36
S'9.9'
p415
sg38
S'29'
p416
sg40
S'SEA'
p417
sg42
S'80'
p418
sg44
S'4.6'
p419
sg45
S'7.1'
p420
sg47
S'1.9'
p421
sg48
S'14.0'
p422
sg50
S'6.6'
p423
sg52
S'2004-05'
p424
sg54
S'7.1'
p425
sg55
S'3.6'
p426
sg56
S'.512'
p427
sg58
S'1330'
p428
sg60
S'80'
p429
sba(isrc.gp1.models.Per100Possession
Per100Possession
p430
(dp431
g8
S'5.1'
p432
sg10
S'0.0'
p433
sg12
S'.463'
p434
sg278
S'84'
p435
sg14
S'1.6'
p436
sg16
g3
sg17
S'0.0'
p437
sg18
S'17.8'
p438
sg20
g21
sg283
S'110'
p439
sg22
S'.625'
p440
sg26
S'NBA'
p441
sg28
S'0.4'
p442
sg30
S'15.8'
p443
sg32
S'13.5'
p444
sg34
S'5.2'
p445
sg36
S'11.9'
p446
sg38
S'30'
p447
sg40
S'NYK'
p448
sg42
S'45'
p449
sg44
S'3.0'
p450
sg45
S'7.3'
p451
sg47
S'3.3'
p452
sg48
S'15.8'
p453
sg50
S'6.8'
p454
sg52
S'2005-06'
p455
sg54
S'7.3'
p456
sg55
S'6.6'
p457
sg56
S'.463'
p458
sg58
S'406'
p459
sg60
g46
sba(isrc.gp1.models.Per100Possession
Per100Possession
p460
(dp461
g8
S'4.1'
p462
sg10
S'0.0'
p463
sg12
S'.418'
p464
sg278
S'81'
p465
sg14
S'0.6'
p466
sg16
g3
sg17
S'0.0'
p467
sg18
S'14.7'
p468
sg20
g21
sg283
S'105'
p469
sg22
S'.556'
p470
sg26
S'NBA'
p471
sg28
S'1.2'
p472
sg30
S'15.3'
p473
sg32
S'14.1'
p474
sg34
S'3.5'
p475
sg36
S'12.8'
p476
sg38
S'31'
p477
sg40
S'NYK'
p478
sg42
S'41'
p479
sg44
S'2.9'
p480
sg45
S'6.4'
p481
sg47
S'1.9'
p482
sg48
S'15.3'
p483
sg50
S'8.7'
p484
sg52
S'2006-07'
p485
sg54
S'6.4'
p486
sg55
S'4.5'
p487
sg56
S'.418'
p488
sg58
S'273'
p489
sg60
S'11'
p490
sba(isrc.gp1.models.Per100Possession
Per100Possession
p491
(dp492
g8
S'0.0'
p493
sg10
S'0.0'
p494
sg12
S'1.000'
p495
sg278
S'228'
p496
sg14
S'0.0'
p497
sg16
g3
sg17
S'0.0'
p498
sg18
S'41.9'
p499
sg20
g21
sg283
S'100'
p500
sg22
S'1.000'
p501
sg26
S'NBA'
p502
sg28
S'0.0'
p503
sg30
S'10.5'
p504
sg32
S'0.0'
p505
sg34
S'21.0'
p506
sg36
S'31.4'
p507
sg38
S'32'
p508
sg40
S'NYK'
p509
sg42
g29
sg44
S'0.0'
p510
sg45
S'10.5'
p511
sg47
S'21.0'
p512
sg48
S'10.5'
p513
sg50
S'31.4'
p514
sg52
S'2007-08'
p515
sg54
S'10.5'
p516
sg55
S'0.0'
p517
sg56
S'1.000'
p518
sg58
g248
sg60
g11
sba(isrc.gp1.models.Per100Possession
Per100Possession
p519
(dp520
g8
S'5.0'
p521
sg10
S'0.0'
p522
sg12
S'.375'
p523
sg278
S'73'
p524
sg14
S'0.0'
p525
sg16
g3
sg17
S'0.0'
p526
sg18
S'29.8'
p527
sg20
g21
sg283
S'96'
p528
sg22
g3
sg26
S'NBA'
p529
sg28
S'5.0'
p530
sg30
S'39.7'
p531
sg32
S'9.9'
p532
sg34
S'0.0'
p533
sg36
S'14.9'
p534
sg38
S'33'
p535
sg40
S'NYK'
p536
sg42
g29
sg44
S'5.0'
p537
sg45
S'14.9'
p538
sg47
S'0.0'
p539
sg48
S'39.7'
p540
sg50
S'9.9'
p541
sg52
S'2008-09'
p542
sg54
S'14.9'
p543
sg55
S'5.0'
p544
sg56
S'.375'
p545
sg58
S'10'
p546
sg60
g11
sbasS'_advanced'
p547
(lp548
(isrc.gp1.models.Advanced
Advanced
p549
(dp550
S'_offensiveReboundPercentage'
p551
S'15.1'
p552
sS'_turnOverPercentage'
p553
S'23.5'
p554
sS'_winSharesPer48Minutes'
p555
S'-0.137'
p556
sS'_stealPercentage'
p557
S'2.4'
p558
sS'_usagePercentage'
p559
S'38.9'
p560
sS'_totalReboundsPercentage'
p561
S'21.3'
p562
sS'_defensiveBoxPlusMinus'
p563
S'0.3'
p564
sg20
g21
sS'_valueOverReplacementPlayer'
p565
S'-0.1'
p566
sS'_trueShootingPercentage'
p567
S'.410'
p568
sS'_defensiveReboundPercentage'
p569
S'27.5'
p570
sS'_freeThrowsAttempRate'
p571
S'.500'
p572
sS'_threePointsAttempRate'
p573
S'.000'
p574
sg26
S'NBA'
p575
sS'_offensiveBoxPlusMinues'
p576
S'-12.5'
p577
sS'_assistPercentage'
p578
S'4.2'
p579
sS'_defensiveWinShares'
p580
S'0.1'
p581
sg38
S'23'
p582
sg40
S'SAC'
p583
sg42
S'16'
p584
sS'_blockPercentage'
p585
S'9.1'
p586
sS'_playerEfficiencyRating'
p587
S'11.5'
p588
sS'_offensiveWinShares'
p589
S'-0.2'
p590
sg58
S'42'
p591
sS'_boxPlusMinus'
p592
S'-12.2'
p593
sg52
S'1998-99'
p594
sS'_winShares'
p595
S'-0.1'
p596
sba(isrc.gp1.models.Advanced
Advanced
p597
(dp598
g551
S'11.3'
p599
sg553
S'19.8'
p600
sg555
S'.045'
p601
sg557
S'1.4'
p602
sg559
S'18.3'
p603
sg561
S'14.4'
p604
sg563
S'2.1'
p605
sg20
g21
sg565
S'-0.1'
p606
sg567
S'.498'
p607
sg569
S'17.5'
p608
sg571
S'.220'
p609
sg573
S'.000'
p610
sg26
S'NBA'
p611
sg576
S'-4.4'
p612
sg578
S'3.9'
p613
sg580
S'1.3'
p614
sg38
S'26'
p615
sg40
S'SEA'
p616
sg42
S'56'
p617
sg585
S'6.9'
p618
sg587
S'11.9'
p619
sg589
S'-0.4'
p620
sg58
S'949'
p621
sg592
S'-2.2'
p622
sg52
S'2001-02'
p623
sg595
S'0.9'
p624
sba(isrc.gp1.models.Advanced
Advanced
p625
(dp626
g551
S'11.8'
p627
sg553
S'21.6'
p628
sg555
S'.052'
p629
sg557
S'0.9'
p630
sg559
S'21.3'
p631
sg561
S'16.6'
p632
sg563
S'3.0'
p633
sg20
g21
sg565
S'0.0'
p634
sg567
S'.506'
p635
sg569
S'21.5'
p636
sg571
S'.397'
p637
sg573
S'.000'
p638
sg26
S'NBA'
p639
sg576
S'-5.2'
p640
sg578
S'6.1'
p641
sg580
S'1.3'
p642
sg38
S'27'
p643
sg40
S'SEA'
p644
sg42
S'51'
p645
sg585
S'8.4'
p646
sg587
S'13.1'
p647
sg589
S'-0.5'
p648
sg58
S'766'
p649
sg592
S'-2.1'
p650
sg52
S'2002-03'
p651
sg595
S'0.8'
p652
sba(isrc.gp1.models.Advanced
Advanced
p653
(dp654
g551
S'9.4'
p655
sg553
S'21.3'
p656
sg555
S'.036'
p657
sg557
S'1.1'
p658
sg559
S'18.0'
p659
sg561
S'13.7'
p660
sg563
S'0.5'
p661
sg20
g21
sg565
S'-0.3'
p662
sg567
S'.535'
p663
sg569
S'18.0'
p664
sg571
S'.386'
p665
sg573
S'.000'
p666
sg26
S'NBA'
p667
sg576
S'-3.7'
p668
sg578
S'5.3'
p669
sg580
S'0.6'
p670
sg38
S'28'
p671
sg40
S'SEA'
p672
sg42
S'65'
p673
sg585
S'4.6'
p674
sg587
S'11.3'
p675
sg589
S'0.1'
p676
sg58
S'990'
p677
sg592
S'-3.2'
p678
sg52
S'2003-04'
p679
sg595
S'0.7'
p680
sba(isrc.gp1.models.Advanced
Advanced
p681
(dp682
g551
S'7.5'
p683
sg553
S'19.2'
p684
sg555
S'.044'
p685
sg557
S'0.9'
p686
sg559
S'15.9'
p687
sg561
S'11.1'
p688
sg563
S'1.9'
p689
sg20
g21
sg565
S'0.1'
p690
sg567
S'.533'
p691
sg569
S'14.7'
p692
sg571
S'.190'
p693
sg573
S'.006'
p694
sg26
S'NBA'
p695
sg576
S'-3.7'
p696
sg578
S'2.4'
p697
sg580
S'1.3'
p698
sg38
S'29'
p699
sg40
S'SEA'
p700
sg42
S'80'
p701
sg585
S'6.5'
p702
sg587
S'10.0'
p703
sg589
S'0.0'
p704
sg58
S'1330'
p705
sg592
S'-1.8'
p706
sg52
S'2004-05'
p707
sg595
S'1.2'
p708
sba(isrc.gp1.models.Advanced
Advanced
p709
(dp710
g551
S'11.6'
p711
sg553
S'26.9'
p712
sg555
S'-0.062'
p713
sg557
S'0.4'
p714
sg559
S'21.2'
p715
sg561
S'13.6'
p716
sg563
S'-0.5'
p717
sg20
g21
sg565
S'-0.5'
p718
sg567
S'.494'
p719
sg569
S'15.7'
p720
sg571
S'.331'
p721
sg573
S'.000'
p722
sg26
S'NBA'
p723
sg576
S'-6.0'
p724
sg578
S'5.2'
p725
sg580
S'0.2'
p726
sg38
S'30'
p727
sg40
S'NYK'
p728
sg42
S'45'
p729
sg585
S'4.6'
p730
sg587
S'6.3'
p731
sg589
S'-0.7'
p732
sg58
S'406'
p733
sg592
S'-6.5'
p734
sg52
S'2005-06'
p735
sg595
S'-0.5'
p736
sba(isrc.gp1.models.Advanced
Advanced
p737
(dp738
g551
S'9.2'
p739
sg553
S'20.9'
p740
sg555
S'-0.031'
p741
sg557
S'1.2'
p742
sg559
S'18.3'
p743
sg561
S'14.4'
p744
sg563
S'-0.4'
p745
sg20
g21
sg565
S'-0.4'
p746
sg567
S'.437'
p747
sg569
S'19.4'
p748
sg571
S'.228'
p749
sg573
S'.000'
p750
sg26
S'NBA'
p751
sg576
S'-7.8'
p752
sg578
S'1.8'
p753
sg580
S'0.3'
p754
sg38
S'31'
p755
sg40
S'NYK'
p756
sg42
S'41'
p757
sg585
S'4.4'
p758
sg587
S'5.1'
p759
sg589
S'-0.5'
p760
sg58
S'273'
p761
sg592
S'-8.3'
p762
sg52
S'2006-07'
p763
sg595
S'-0.2'
p764
sba(isrc.gp1.models.Advanced
Advanced
p765
(dp766
g551
S'0.0'
p767
sg553
S'0.0'
p768
sg555
S'.613'
p769
sg557
S'0.0'
p770
sg559
S'16.9'
p771
sg561
S'34.2'
p772
sg563
S'-9.5'
p773
sg20
g21
sg565
S'0.0'
p774
sg567
S'1.064'
p775
sg569
S'70.6'
p776
sg571
S'2.000'
p777
sg573
S'.000'
p778
sg26
S'NBA'
p779
sg576
S'1.9'
p780
sg578
S'0.0'
p781
sg580
S'0.0'
p782
sg38
S'32'
p783
sg40
S'NYK'
p784
sg42
g29
sg585
S'0.0'
p785
sg587
S'45.3'
p786
sg589
S'0.1'
p787
sg58
g248
sg592
S'-7.6'
p788
sg52
S'2007-08'
p789
sg595
S'0.1'
p790
sba(isrc.gp1.models.Advanced
Advanced
p791
(dp792
g551
S'10.6'
p793
sg553
S'11.1'
p794
sg555
S'-0.162'
p795
sg557
S'5.0'
p796
sg559
S'39.2'
p797
sg561
S'16.4'
p798
sg563
S'-3.1'
p799
sg20
g21
sg565
S'0.0'
p800
sg567
S'.375'
p801
sg569
S'22.6'
p802
sg571
S'.000'
p803
sg573
S'.000'
p804
sg26
S'NBA'
p805
sg576
S'-14.3'
p806
sg578
S'0.0'
p807
sg580
S'0.0'
p808
sg38
S'33'
p809
sg40
S'NYK'
p810
sg42
g29
sg585
S'7.3'
p811
sg587
S'12.5'
p812
sg589
S'-0.1'
p813
sg58
S'10'
p814
sg592
S'-17.4'
p815
sg52
S'2008-09'
p816
sg595
S'0.0'
p817
sbasS'_per36Minutes'
p818
(lp819
(isrc.gp1.models.Per36Minutes
Per36Minutes
p820
(dp821
g8
S'5.1'
p822
sg10
S'0.0'
p823
sg12
S'.375'
p824
sg14
S'0.9'
p825
sg16
g3
sg17
S'0.0'
p826
sg18
S'20.6'
p827
sg20
g21
sg22
S'.500'
p828
sg26
S'NBA'
p829
sg28
S'1.7'
p830
sg30
S'20.6'
p831
sg32
S'9.4'
p832
sg34
S'10.3'
p833
sg36
S'14.6'
p834
sg38
S'23'
p835
sg40
S'SAC'
p836
sg42
S'16'
p837
sg44
S'5.1'
p838
sg45
S'7.7'
p839
sg47
S'5.1'
p840
sg48
S'20.6'
p841
sg50
S'9.4'
p842
sg52
S'1998-99'
p843
sg54
S'7.7'
p844
sg55
S'7.7'
p845
sg56
S'.375'
p846
sg58
S'42'
p847
sg60
g11
sba(isrc.gp1.models.Per36Minutes
Per36Minutes
p848
(dp849
g8
S'3.4'
p850
sg10
S'0.0'
p851
sg12
S'.491'
p852
sg14
S'0.9'
p853
sg16
g3
sg17
S'0.0'
p854
sg18
S'11.3'
p855
sg20
g21
sg22
S'.500'
p856
sg26
S'NBA'
p857
sg28
S'0.9'
p858
sg30
S'10.4'
p859
sg32
S'6.6'
p860
sg34
S'2.3'
p861
sg36
S'8.8'
p862
sg38
S'26'
p863
sg40
S'SEA'
p864
sg42
S'56'
p865
sg44
S'3.3'
p866
sg45
S'5.1'
p867
sg47
S'1.1'
p868
sg48
S'10.4'
p869
sg50
S'5.4'
p870
sg52
S'2001-02'
p871
sg54
S'5.1'
p872
sg55
S'2.8'
p873
sg56
S'.491'
p874
sg58
S'949'
p875
sg60
S'40'
p876
sba(isrc.gp1.models.Per36Minutes
Per36Minutes
p877
(dp878
g8
S'3.7'
p879
sg10
S'0.0'
p880
sg12
S'.478'
p881
sg14
S'1.3'
p882
sg16
g3
sg17
S'0.0'
p883
sg18
S'13.0'
p884
sg20
g21
sg22
S'.587'
p885
sg26
S'NBA'
p886
sg28
S'0.6'
p887
sg30
S'10.9'
p888
sg32
S'7.8'
p889
sg34
S'4.3'
p890
sg36
S'10.2'
p891
sg38
S'27'
p892
sg40
S'SEA'
p893
sg42
S'51'
p894
sg44
S'3.9'
p895
sg45
S'5.2'
p896
sg47
S'2.5'
p897
sg48
S'10.9'
p898
sg50
S'6.5'
p899
sg52
S'2002-03'
p900
sg54
S'5.2'
p901
sg55
S'3.5'
p902
sg56
S'.478'
p903
sg58
S'766'
p904
sg60
S'16'
p905
sba(isrc.gp1.models.Per36Minutes
Per36Minutes
p906
(dp907
g8
S'2.8'
p908
sg10
S'0.0'
p909
sg12
S'.498'
p910
sg14
S'1.2'
p911
sg16
g3
sg17
S'0.0'
p912
sg18
S'11.8'
p913
sg20
g21
sg22
S'.660'
p914
sg26
S'NBA'
p915
sg28
S'0.7'
p916
sg30
S'9.4'
p917
sg32
S'6.5'
p918
sg34
S'3.6'
p919
sg36
S'8.4'
p920
sg38
S'28'
p921
sg40
S'SEA'
p922
sg42
S'65'
p923
sg44
S'2.2'
p924
sg45
S'4.7'
p925
sg47
S'2.4'
p926
sg48
S'9.4'
p927
sg50
S'5.5'
p928
sg52
S'2003-04'
p929
sg54
S'4.7'
p930
sg55
S'3.0'
p931
sg56
S'.498'
p932
sg58
S'990'
p933
sg60
S'24'
p934
sba(isrc.gp1.models.Per36Minutes
Per36Minutes
p935
(dp936
g8
S'2.2'
p937
sg10
S'0.1'
p938
sg12
S'.509'
p939
sg14
S'0.5'
p940
sg16
S'.000'
p941
sg17
S'0.0'
p942
sg18
S'10.7'
p943
sg20
g21
sg22
S'.723'
p944
sg26
S'NBA'
p945
sg28
S'0.6'
p946
sg30
S'9.3'
p947
sg32
S'7.6'
p948
sg34
S'1.8'
p949
sg36
S'6.5'
p950
sg38
S'29'
p951
sg40
S'SEA'
p952
sg42
S'80'
p953
sg44
S'3.0'
p954
sg45
S'4.7'
p955
sg47
S'1.3'
p956
sg48
S'9.2'
p957
sg50
S'4.3'
p958
sg52
S'2004-05'
p959
sg54
S'4.7'
p960
sg55
S'2.4'
p961
sg56
S'.512'
p962
sg58
S'1330'
p963
sg60
S'80'
p964
sba(isrc.gp1.models.Per36Minutes
Per36Minutes
p965
(dp966
g8
S'3.5'
p967
sg10
S'0.0'
p968
sg12
S'.463'
p969
sg14
S'1.1'
p970
sg16
g3
sg17
S'0.0'
p971
sg18
S'12.1'
p972
sg20
g21
sg22
S'.625'
p973
sg26
S'NBA'
p974
sg28
S'0.3'
p975
sg30
S'10.7'
p976
sg32
S'9.2'
p977
sg34
S'3.5'
p978
sg36
S'8.1'
p979
sg38
S'30'
p980
sg40
S'NYK'
p981
sg42
S'45'
p982
sg44
S'2.0'
p983
sg45
S'5.0'
p984
sg47
S'2.2'
p985
sg48
S'10.7'
p986
sg50
S'4.6'
p987
sg52
S'2005-06'
p988
sg54
S'5.0'
p989
sg55
S'4.5'
p990
sg56
S'.463'
p991
sg58
S'406'
p992
sg60
g46
sba(isrc.gp1.models.Per36Minutes
Per36Minutes
p993
(dp994
g8
S'2.8'
p995
sg10
S'0.0'
p996
sg12
S'.418'
p997
sg14
S'0.4'
p998
sg16
g3
sg17
S'0.0'
p999
sg18
S'10.0'
p1000
sg20
g21
sg22
S'.556'
p1001
sg26
S'NBA'
p1002
sg28
S'0.8'
p1003
sg30
S'10.4'
p1004
sg32
S'9.6'
p1005
sg34
S'2.4'
p1006
sg36
S'8.7'
p1007
sg38
S'31'
p1008
sg40
S'NYK'
p1009
sg42
S'41'
p1010
sg44
S'2.0'
p1011
sg45
S'4.4'
p1012
sg47
S'1.3'
p1013
sg48
S'10.4'
p1014
sg50
S'5.9'
p1015
sg52
S'2006-07'
p1016
sg54
S'4.4'
p1017
sg55
S'3.0'
p1018
sg56
S'.418'
p1019
sg58
S'273'
p1020
sg60
S'11'
p1021
sba(isrc.gp1.models.Per36Minutes
Per36Minutes
p1022
(dp1023
g8
S'0.0'
p1024
sg10
S'0.0'
p1025
sg12
S'1.000'
p1026
sg14
S'0.0'
p1027
sg16
g3
sg17
S'0.0'
p1028
sg18
S'28.8'
p1029
sg20
g21
sg22
S'1.000'
p1030
sg26
S'NBA'
p1031
sg28
S'0.0'
p1032
sg30
S'7.2'
p1033
sg32
S'0.0'
p1034
sg34
S'14.4'
p1035
sg36
S'21.6'
p1036
sg38
S'32'
p1037
sg40
S'NYK'
p1038
sg42
g29
sg44
S'0.0'
p1039
sg45
S'7.2'
p1040
sg47
S'14.4'
p1041
sg48
S'7.2'
p1042
sg50
S'21.6'
p1043
sg52
S'2007-08'
p1044
sg54
S'7.2'
p1045
sg55
S'0.0'
p1046
sg56
S'1.000'
p1047
sg58
g248
sg60
g11
sba(isrc.gp1.models.Per36Minutes
Per36Minutes
p1048
(dp1049
g8
S'3.6'
p1050
sg10
S'0.0'
p1051
sg12
S'.375'
p1052
sg14
S'0.0'
p1053
sg16
g3
sg17
S'0.0'
p1054
sg18
S'21.6'
p1055
sg20
g21
sg22
g3
sg26
S'NBA'
p1056
sg28
S'3.6'
p1057
sg30
S'28.8'
p1058
sg32
S'7.2'
p1059
sg34
S'0.0'
p1060
sg36
S'10.8'
p1061
sg38
S'33'
p1062
sg40
S'NYK'
p1063
sg42
g29
sg44
S'3.6'
p1064
sg45
S'10.8'
p1065
sg47
S'0.0'
p1066
sg48
S'28.8'
p1067
sg50
S'7.2'
p1068
sg52
S'2008-09'
p1069
sg54
S'10.8'
p1070
sg55
S'3.6'
p1071
sg56
S'.375'
p1072
sg58
S'10'
p1073
sg60
g11
sbasS'_fromYear'
p1074
S'1999'
p1075
sS'_url'
p1076
S'http://www.basketball-reference.com/players/j/jamesje01.html'
p1077
sS'_perGame'
p1078
(isrc.gp1.models.PerGame
PerGame
p1079
(dp1080
g8
S'0.5'
p1081
sg10
S'0.0'
p1082
sg12
S'.375'
p1083
sS'_effectiveFieldGalPercentage'
p1084
S'.375'
p1085
sg14
S'0.0'
p1086
sg16
g3
sg17
S'0.0'
p1087
sg18
S'3.0'
p1088
sg20
g21
sg22
g3
sg26
S'NBA'
p1089
sg28
S'0.5'
p1090
sg32
S'1.0'
p1091
sS'_fieldGoalsttempted'
p1092
S'4.0'
p1093
sg34
S'0.0'
p1094
sg36
S'1.5'
p1095
sg38
S'33'
p1096
sg40
S'NYK'
p1097
sg42
g29
sg44
S'0.5'
p1098
sg45
S'1.5'
p1099
sg47
S'0.0'
p1100
sg48
S'4.0'
p1101
sg50
S'1.0'
p1102
sg52
S'2008-09'
p1103
sg54
S'1.5'
p1104
sg55
S'0.5'
p1105
sg56
S'.375'
p1106
sg58
S'5.0'
p1107
sg60
g11
sbsS'_weight'
p1108
S'300'
p1109
sS'_dob'
p1110
S'17-11-1975'
p1111
sS'_salary'
p1112
(lp1113
(isrc.gp1.models.Salary
Salary
p1114
(dp1115
g40
S'Sacramento Kings'
p1116
sg26
S'NBA'
p1117
sg1112
S'$287,500'
p1118
sg52
S'1998-99'
p1119
sba(isrc.gp1.models.Salary
Salary
p1120
(dp1121
g40
S'Seattle SuperSonics'
p1122
sg26
S'NBA'
p1123
sg1112
S'$465,850'
p1124
sg52
S'2001-02'
p1125
sba(isrc.gp1.models.Salary
Salary
p1126
(dp1127
g40
S'Seattle SuperSonics'
p1128
sg26
S'NBA'
p1129
sg1112
S'$4,546,000'
p1130
sg52
S'2002-03'
p1131
sba(isrc.gp1.models.Salary
Salary
p1132
(dp1133
g40
S'Seattle SuperSonics'
p1134
sg26
S'NBA'
p1135
sg1112
S'$5,000,600'
p1136
sg52
S'2003-04'
p1137
sba(isrc.gp1.models.Salary
Salary
p1138
(dp1139
g40
S'Seattle SuperSonics'
p1140
sg26
S'NBA'
p1141
sg1112
S'$5,455,200'
p1142
sg52
S'2004-05'
p1143
sba(isrc.gp1.models.Salary
Salary
p1144
(dp1145
g40
S'New York Knicks'
p1146
sg26
S'NBA'
p1147
sg1112
S'$5,000,000'
p1148
sg52
S'2005-06'
p1149
sba(isrc.gp1.models.Salary
Salary
p1150
(dp1151
g40
S'New York Knicks'
p1152
sg26
S'NBA'
p1153
sg1112
S'$5,400,000'
p1154
sg52
S'2006-07'
p1155
sba(isrc.gp1.models.Salary
Salary
p1156
(dp1157
g40
S'New York Knicks'
p1158
sg26
S'NBA'
p1159
sg1112
S'$5,800,000'
p1160
sg52
S'2007-08'
p1161
sba(isrc.gp1.models.Salary
Salary
p1162
(dp1163
g40
S'Chicago Bulls'
p1164
sg26
S'NBA'
p1165
sg1112
S'$6,200,000'
p1166
sg52
S'2008-09'
p1167
sba(isrc.gp1.models.Salary
Salary
p1168
(dp1169
g40
S'Chicago Bulls'
p1170
sg26
S'NBA'
p1171
sg1112
S'$6,600,000'
p1172
sg52
S'2009-10'
p1173
sbasg20
g21
sb.