(isrc.gp1.models.Player
Player
p0
(dp1
S'_experience'
p2
V1 year
p3
sS'_totals'
p4
(lp5
(isrc.gp1.models.Totals
Totals
p6
(dp7
S'_offensiveRebounds'
p8
S'0'
p9
sS'_threePointsAttempted'
p10
S'6'
p11
sS'_fieldGoalsPercentage'
p12
S'.333'
p13
sS'_assist'
p14
g9
sS'_threePointsPercentage'
p15
S'.500'
p16
sS'_threePoints'
p17
S'3'
p18
sS'_points'
p19
S'14'
p20
sS'_position'
p21
S'SF'
p22
sS'_freeThrowsPercentage'
p23
S'.500'
p24
sS'_effectiveFieldGoalPercentage'
p25
S'.433'
p26
sS'_league'
p27
S'NBA'
p28
sS'_steals'
p29
S'1'
p30
sS'_fieldGoalsAttempted'
p31
S'15'
p32
sS'_personalFouls'
p33
g18
sS'_freeThrowsAttempted'
p34
S'2'
p35
sS'_totalRebounds'
p36
S'8'
p37
sS'_age'
p38
S'23'
p39
sS'_team'
p40
S'TOT'
p41
sS'_games'
p42
S'4'
p43
sS'_blocks'
p44
g35
sS'_twoPoints'
p45
g35
sS'_freeThrows'
p46
g30
sS'_twoPointsAttempted'
p47
S'9'
p48
sS'_defensiveRebounds'
p49
g37
sS'_season'
p50
S'2013-14'
p51
sS'_fieldGoals'
p52
S'5'
p53
sS'_turnOvers'
p54
g30
sS'_twoPointsPercentage'
p55
S'.222'
p56
sS'_minutesPlayed'
p57
S'30'
p58
sS'_gamesStarted'
p59
g9
sba(isrc.gp1.models.Totals
Totals
p60
(dp61
g8
g9
sg10
g30
sg12
S'.000'
p62
sg14
g9
sg15
S'.000'
p63
sg17
g9
sg19
g9
sg21
S'SF'
p64
sg23
S'NA'
p65
sg25
S'.000'
p66
sg27
S'NBA'
p67
sg29
g9
sg31
g18
sg33
g9
sg34
g9
sg36
g9
sg38
S'23'
p68
sg40
S'CHA'
p69
sg42
g30
sg44
g9
sg45
g9
sg46
g9
sg47
g35
sg49
g9
sg50
S'2013-14'
p70
sg52
g9
sg54
g9
sg55
S'.000'
p71
sg57
g18
sg59
g9
sba(isrc.gp1.models.Totals
Totals
p72
(dp73
g8
g9
sg10
g53
sg12
S'.417'
p74
sg14
g9
sg15
S'.600'
p75
sg17
g18
sg19
S'14'
p76
sg21
g65
sg23
S'.500'
p77
sg25
S'.542'
p78
sg27
S'NBA'
p79
sg29
g30
sg31
S'12'
p80
sg33
g18
sg34
g35
sg36
g37
sg38
S'23'
p81
sg40
S'NOP'
p82
sg42
g18
sg44
g35
sg45
g35
sg46
g30
sg47
S'7'
p83
sg49
g37
sg50
S'2013-14'
p84
sg52
g53
sg54
g30
sg55
S'.286'
p85
sg57
S'27'
p86
sg59
g9
sbasS'_college'
p87
S'Syracuse University'
p88
sS'_toYear'
p89
S'2014'
p90
sS'_height'
p91
S'6-8'
p92
sS'_active'
p93
I01
sS'_shootingHand'
p94
VRight
p95
sS'_name'
p96
S'James Southerland'
p97
sS'_per100Possessions'
p98
(lp99
(isrc.gp1.models.Per100Possession
Per100Possession
p100
(dp101
g8
S'0.0'
p102
sg10
S'10.4'
p103
sg12
S'.333'
p104
sS'_offensiveRating'
p105
S'83'
p106
sg14
S'0.0'
p107
sg15
S'.500'
p108
sg17
S'5.2'
p109
sg19
S'24.3'
p110
sg21
S'SF'
p111
sS'_defensiveRating'
p112
S'102'
p113
sg23
S'.500'
p114
sg27
S'NBA'
p115
sg29
S'1.7'
p116
sg31
S'26.0'
p117
sg33
S'5.2'
p118
sg34
S'3.5'
p119
sg36
S'13.9'
p120
sg38
S'23'
p121
sg40
S'TOT'
p122
sg42
g43
sg44
S'3.5'
p123
sg45
S'3.5'
p124
sg46
S'1.7'
p125
sg47
S'15.6'
p126
sg49
S'13.9'
p127
sg50
S'2013-14'
p128
sg52
S'8.7'
p129
sg54
S'1.7'
p130
sg55
S'.222'
p131
sg57
S'30'
p132
sg59
g9
sba(isrc.gp1.models.Per100Possession
Per100Possession
p133
(dp134
g8
S'0.0'
p135
sg10
S'17.3'
p136
sg12
S'.000'
p137
sg105
g9
sg14
S'0.0'
p138
sg15
S'.000'
p139
sg17
S'0.0'
p140
sg19
S'0.0'
p141
sg21
S'SF'
p142
sg112
S'113'
p143
sg23
g65
sg27
S'NBA'
p144
sg29
S'0.0'
p145
sg31
S'51.9'
p146
sg33
S'0.0'
p147
sg34
S'0.0'
p148
sg36
S'0.0'
p149
sg38
S'23'
p150
sg40
S'CHA'
p151
sg42
g30
sg44
S'0.0'
p152
sg45
S'0.0'
p153
sg46
S'0.0'
p154
sg47
S'34.6'
p155
sg49
S'0.0'
p156
sg50
S'2013-14'
p157
sg52
S'0.0'
p158
sg54
S'0.0'
p159
sg55
S'.000'
p160
sg57
g18
sg59
g9
sba(isrc.gp1.models.Per100Possession
Per100Possession
p161
(dp162
g8
S'0.0'
p163
sg10
S'9.6'
p164
sg12
S'.417'
p165
sg105
S'101'
p166
sg14
S'0.0'
p167
sg15
S'.600'
p168
sg17
S'5.8'
p169
sg19
S'27.0'
p170
sg21
g65
sg112
S'101'
p171
sg23
S'.500'
p172
sg27
S'NBA'
p173
sg29
S'1.9'
p174
sg31
S'23.1'
p175
sg33
S'5.8'
p176
sg34
S'3.9'
p177
sg36
S'15.4'
p178
sg38
S'23'
p179
sg40
S'NOP'
p180
sg42
g18
sg44
S'3.9'
p181
sg45
S'3.9'
p182
sg46
S'1.9'
p183
sg47
S'13.5'
p184
sg49
S'15.4'
p185
sg50
S'2013-14'
p186
sg52
S'9.6'
p187
sg54
S'1.9'
p188
sg55
S'.286'
p189
sg57
S'27'
p190
sg59
g9
sbasS'_advanced'
p191
(lp192
(isrc.gp1.models.Advanced
Advanced
p193
(dp194
S'_offensiveReboundPercentage'
p195
S'0.0'
p196
sS'_turnOverPercentage'
p197
S'5.9'
p198
sS'_winSharesPer48Minutes'
p199
S'-0.023'
p200
sS'_stealPercentage'
p201
S'1.7'
p202
sS'_usagePercentage'
p203
S'25.6'
p204
sS'_totalReboundsPercentage'
p205
S'15.5'
p206
sS'_defensiveBoxPlusMinus'
p207
S'-5.2'
p208
sg21
S'SF'
p209
sS'_valueOverReplacementPlayer'
p210
S'-0.1'
p211
sS'_trueShootingPercentage'
p212
S'.441'
p213
sS'_defensiveReboundPercentage'
p214
S'31.5'
p215
sS'_freeThrowsAttempRate'
p216
S'.133'
p217
sS'_threePointsAttempRate'
p218
S'.400'
p219
sg27
S'NBA'
p220
sS'_offensiveBoxPlusMinues'
p221
S'-8.1'
p222
sS'_assistPercentage'
p223
S'0.0'
p224
sS'_defensiveWinShares'
p225
S'0.0'
p226
sg38
S'23'
p227
sg40
S'TOT'
p228
sg42
g43
sS'_blockPercentage'
p229
S'5.6'
p230
sS'_playerEfficiencyRating'
p231
S'11.8'
p232
sS'_offensiveWinShares'
p233
S'-0.1'
p234
sg57
S'30'
p235
sS'_boxPlusMinus'
p236
S'-13.3'
p237
sg50
S'2013-14'
p238
sS'_winShares'
p239
S'0.0'
p240
sba(isrc.gp1.models.Advanced
Advanced
p241
(dp242
g195
S'0.0'
p243
sg197
S'0.0'
p244
sg199
S'-1.119'
p245
sg201
S'0.0'
p246
sg203
S'46.2'
p247
sg205
S'0.0'
p248
sg207
S'-13.3'
p249
sg21
S'SF'
p250
sg210
S'0.0'
p251
sg212
S'.000'
p252
sg214
S'0.0'
p253
sg216
S'.000'
p254
sg218
S'.333'
p255
sg27
S'NBA'
p256
sg221
S'-33.1'
p257
sg223
S'0.0'
p258
sg225
S'0.0'
p259
sg38
S'23'
p260
sg40
S'CHA'
p261
sg42
g30
sg229
S'0.0'
p262
sg231
S'-40.6'
p263
sg233
S'-0.1'
p264
sg57
g18
sg236
S'-46.4'
p265
sg50
S'2013-14'
p266
sg239
S'-0.1'
p267
sba(isrc.gp1.models.Advanced
Advanced
p268
(dp269
g195
S'0.0'
p270
sg197
S'7.2'
p271
sg199
S'.098'
p272
sg201
S'1.9'
p273
sg203
S'23.4'
p274
sg205
S'17.2'
p275
sg207
S'-4.3'
p276
sg21
g65
sg210
S'-0.1'
p277
sg212
S'.543'
p278
sg214
S'34.9'
p279
sg216
S'.167'
p280
sg218
S'.417'
p281
sg27
S'NBA'
p282
sg221
S'-5.3'
p283
sg223
S'0.0'
p284
sg225
S'0.0'
p285
sg38
S'23'
p286
sg40
S'NOP'
p287
sg42
g18
sg229
S'6.2'
p288
sg231
S'17.7'
p289
sg233
S'0.0'
p290
sg57
S'27'
p291
sg236
S'-9.6'
p292
sg50
S'2013-14'
p293
sg239
S'0.1'
p294
sbasS'_per36Minutes'
p295
(lp296
(isrc.gp1.models.Per36Minutes
Per36Minutes
p297
(dp298
g8
S'0.0'
p299
sg10
S'7.2'
p300
sg12
S'.333'
p301
sg14
S'0.0'
p302
sg15
S'.500'
p303
sg17
S'3.6'
p304
sg19
S'16.8'
p305
sg21
S'SF'
p306
sg23
S'.500'
p307
sg27
S'NBA'
p308
sg29
S'1.2'
p309
sg31
S'18.0'
p310
sg33
S'3.6'
p311
sg34
S'2.4'
p312
sg36
S'9.6'
p313
sg38
S'23'
p314
sg40
S'TOT'
p315
sg42
g43
sg44
S'2.4'
p316
sg45
S'2.4'
p317
sg46
S'1.2'
p318
sg47
S'10.8'
p319
sg49
S'9.6'
p320
sg50
S'2013-14'
p321
sg52
S'6.0'
p322
sg54
S'1.2'
p323
sg55
S'.222'
p324
sg57
S'30'
p325
sg59
g9
sba(isrc.gp1.models.Per36Minutes
Per36Minutes
p326
(dp327
g8
S'0.0'
p328
sg10
S'12.0'
p329
sg12
S'.000'
p330
sg14
S'0.0'
p331
sg15
S'.000'
p332
sg17
S'0.0'
p333
sg19
S'0.0'
p334
sg21
S'SF'
p335
sg23
g65
sg27
S'NBA'
p336
sg29
S'0.0'
p337
sg31
S'36.0'
p338
sg33
S'0.0'
p339
sg34
S'0.0'
p340
sg36
S'0.0'
p341
sg38
S'23'
p342
sg40
S'CHA'
p343
sg42
g30
sg44
S'0.0'
p344
sg45
S'0.0'
p345
sg46
S'0.0'
p346
sg47
S'24.0'
p347
sg49
S'0.0'
p348
sg50
S'2013-14'
p349
sg52
S'0.0'
p350
sg54
S'0.0'
p351
sg55
S'.000'
p352
sg57
g18
sg59
g9
sba(isrc.gp1.models.Per36Minutes
Per36Minutes
p353
(dp354
g8
S'0.0'
p355
sg10
S'6.7'
p356
sg12
S'.417'
p357
sg14
S'0.0'
p358
sg15
S'.600'
p359
sg17
S'4.0'
p360
sg19
S'18.7'
p361
sg21
g65
sg23
S'.500'
p362
sg27
S'NBA'
p363
sg29
S'1.3'
p364
sg31
S'16.0'
p365
sg33
S'4.0'
p366
sg34
S'2.7'
p367
sg36
S'10.7'
p368
sg38
S'23'
p369
sg40
S'NOP'
p370
sg42
g18
sg44
S'2.7'
p371
sg45
S'2.7'
p372
sg46
S'1.3'
p373
sg47
S'9.3'
p374
sg49
S'10.7'
p375
sg50
S'2013-14'
p376
sg52
S'6.7'
p377
sg54
S'1.3'
p378
sg55
S'.286'
p379
sg57
S'27'
p380
sg59
g9
sbasS'_fromYear'
p381
S'2014'
p382
sS'_url'
p383
S'http://www.basketball-reference.com/players/s/southja01.html'
p384
sS'_perGame'
p385
(isrc.gp1.models.PerGame
PerGame
p386
(dp387
g8
S'0.0'
p388
sg10
S'1.7'
p389
sg12
S'.417'
p390
sS'_effectiveFieldGalPercentage'
p391
S'.542'
p392
sg14
S'0.0'
p393
sg15
S'.600'
p394
sg17
S'1.0'
p395
sg19
S'4.7'
p396
sg21
g65
sg23
S'.500'
p397
sg27
S'NBA'
p398
sg29
S'0.3'
p399
sg33
S'1.0'
p400
sS'_fieldGoalsttempted'
p401
S'4.0'
p402
sg34
S'0.7'
p403
sg36
S'2.7'
p404
sg38
S'23'
p405
sg40
S'NOP'
p406
sg42
g18
sg44
S'0.7'
p407
sg45
S'0.7'
p408
sg46
S'0.3'
p409
sg47
S'2.3'
p410
sg49
S'2.7'
p411
sg50
S'2013-14'
p412
sg52
S'1.7'
p413
sg54
S'0.3'
p414
sg55
S'.286'
p415
sg57
S'9.0'
p416
sg59
g9
sbsS'_weight'
p417
S'215'
p418
sS'_dob'
p419
S'28-4-1990'
p420
sS'_salary'
p421
(lp422
sg21
S'F'
p423
sb.