(isrc.gp1.models.Player
Player
p0
(dp1
S'_experience'
p2
V10
p3
sS'_totals'
p4
(lp5
(isrc.gp1.models.Totals
Totals
p6
(dp7
S'_offensiveRebounds'
p8
S'12'
p9
sS'_threePointsAttempted'
p10
S'0'
p11
sS'_fieldGoalsPercentage'
p12
S'.426'
p13
sS'_assist'
p14
S'3'
p15
sS'_threePointsPercentage'
p16
S'NA'
p17
sS'_threePoints'
p18
g11
sS'_points'
p19
S'60'
p20
sS'_position'
p21
S'PF'
p22
sS'_freeThrowsPercentage'
p23
S'.333'
p24
sS'_effectiveFieldGoalPercentage'
p25
S'.426'
p26
sS'_league'
p27
S'NBA'
p28
sS'_steals'
p29
S'4'
p30
sS'_fieldGoalsAttempted'
p31
S'54'
p32
sS'_personalFouls'
p33
S'14'
p34
sS'_freeThrowsAttempted'
p35
S'42'
p36
sS'_totalRebounds'
p37
S'28'
p38
sS'_age'
p39
S'22'
p40
sS'_team'
p41
S'DET'
p42
sS'_games'
p43
S'26'
p44
sS'_blocks'
p45
S'5'
p46
sS'_twoPoints'
p47
S'23'
p48
sS'_freeThrows'
p49
S'14'
p50
sS'_twoPointsAttempted'
p51
S'54'
p52
sS'_defensiveRebounds'
p53
S'16'
p54
sS'_season'
p55
S'2005-06'
p56
sS'_fieldGoals'
p57
S'23'
p58
sS'_turnOvers'
p59
S'11'
p60
sS'_twoPointsPercentage'
p61
S'.426'
p62
sS'_minutesPlayed'
p63
S'159'
p64
sS'_gamesStarted'
p65
g11
sba(isrc.gp1.models.Totals
Totals
p66
(dp67
g8
S'88'
p68
sg10
g11
sg12
S'.500'
p69
sg14
S'14'
p70
sg16
g17
sg18
g11
sg19
S'334'
p71
sg21
S'C'
p72
sg23
S'.526'
p73
sg25
S'.500'
p74
sg27
S'NBA'
p75
sg29
S'30'
p76
sg31
S'262'
p77
sg33
S'110'
p78
sg35
S'137'
p79
sg37
S'186'
p80
sg39
S'23'
p81
sg41
S'DET'
p82
sg43
S'67'
p83
sg45
S'60'
p84
sg47
S'131'
p85
sg49
S'72'
p86
sg51
S'262'
p87
sg53
S'98'
p88
sg55
S'2006-07'
p89
sg57
S'131'
p90
sg59
S'53'
p91
sg61
S'.500'
p92
sg63
S'943'
p93
sg65
S'8'
p94
sba(isrc.gp1.models.Totals
Totals
p95
(dp96
g8
S'177'
p97
sg10
S'1'
p98
sg12
S'.538'
p99
sg14
S'46'
p100
sg16
S'.000'
p101
sg18
g11
sg19
S'651'
p102
sg21
g72
sg23
S'.633'
p103
sg25
S'.538'
p104
sg27
S'NBA'
p105
sg29
S'21'
p106
sg31
S'446'
p107
sg33
S'183'
p108
sg35
S'270'
p109
sg37
S'433'
p110
sg39
S'24'
p111
sg41
S'DET'
p112
sg43
S'82'
p113
sg45
S'94'
p114
sg47
S'240'
p115
sg49
S'171'
p116
sg51
S'445'
p117
sg53
S'256'
p118
sg55
S'2007-08'
p119
sg57
S'240'
p120
sg59
S'71'
p121
sg61
S'.539'
p122
sg63
S'1768'
p123
sg65
S'7'
p124
sba(isrc.gp1.models.Totals
Totals
p125
(dp126
g8
S'169'
p127
sg10
g98
sg12
S'.575'
p128
sg14
S'24'
p129
sg16
S'.000'
p130
sg18
g11
sg19
S'452'
p131
sg21
g72
sg23
S'.532'
p132
sg25
S'.575'
p133
sg27
S'NBA'
p134
sg29
S'25'
p135
sg31
S'320'
p136
sg33
S'157'
p137
sg35
S'158'
p138
sg37
S'324'
p139
sg39
S'25'
p140
sg41
S'DET'
p141
sg43
S'78'
p142
sg45
S'63'
p143
sg47
S'184'
p144
sg49
S'84'
p145
sg51
S'319'
p146
sg53
S'155'
p147
sg55
S'2008-09'
p148
sg57
S'184'
p149
sg59
S'45'
p150
sg61
S'.577'
p151
sg63
S'1408'
p152
sg65
g30
sba(isrc.gp1.models.Totals
Totals
p153
(dp154
g8
S'161'
p155
sg10
g98
sg12
S'.511'
p156
sg14
S'39'
p157
sg16
S'.000'
p158
sg18
g11
sg19
S'513'
p159
sg21
g72
sg23
S'.574'
p160
sg25
S'.511'
p161
sg27
S'NBA'
p162
sg29
S'36'
p163
sg31
S'415'
p164
sg33
S'175'
p165
sg35
S'155'
p166
sg37
S'401'
p167
sg39
S'26'
p168
sg41
S'DET'
p169
sg43
S'76'
p170
sg45
S'38'
p171
sg47
S'212'
p172
sg49
S'89'
p173
sg51
S'414'
p174
sg53
S'240'
p175
sg55
S'2009-10'
p176
sg57
S'212'
p177
sg59
S'68'
p178
sg61
S'.512'
p179
sg63
S'1550'
p180
sg65
S'29'
p181
sba(isrc.gp1.models.Totals
Totals
p182
(dp183
g8
S'66'
p184
sg10
g11
sg12
S'.492'
p185
sg14
S'17'
p186
sg16
g17
sg18
g11
sg19
S'237'
p187
sg21
S'PF'
p188
sg23
S'.515'
p189
sg25
S'.492'
p190
sg27
S'NBA'
p191
sg29
S'24'
p192
sg31
S'189'
p193
sg33
S'92'
p194
sg35
S'99'
p195
sg37
S'173'
p196
sg39
S'27'
p197
sg41
S'DET'
p198
sg43
S'57'
p199
sg45
S'21'
p200
sg47
S'93'
p201
sg49
S'51'
p202
sg51
S'189'
p203
sg53
S'107'
p204
sg55
S'2010-11'
p205
sg57
S'93'
p206
sg59
S'44'
p207
sg61
S'.492'
p208
sg63
S'930'
p209
sg65
S'14'
p210
sba(isrc.gp1.models.Totals
Totals
p211
(dp212
g8
S'126'
p213
sg10
S'2'
p214
sg12
S'.478'
p215
sg14
S'41'
p216
sg16
S'.000'
p217
sg18
g11
sg19
S'424'
p218
sg21
S'PF'
p219
sg23
S'.547'
p220
sg25
S'.478'
p221
sg27
S'NBA'
p222
sg29
S'32'
p223
sg31
S'383'
p224
sg33
S'151'
p225
sg35
S'106'
p226
sg37
S'333'
p227
sg39
S'28'
p228
sg41
S'DET'
p229
sg43
S'65'
p230
sg45
S'50'
p231
sg47
S'183'
p232
sg49
S'58'
p233
sg51
S'381'
p234
sg53
S'207'
p235
sg55
S'2011-12'
p236
sg57
S'183'
p237
sg59
S'71'
p238
sg61
S'.480'
p239
sg63
S'1466'
p240
sg65
S'42'
p241
sba(isrc.gp1.models.Totals
Totals
p242
(dp243
g8
S'135'
p244
sg10
g11
sg12
S'.446'
p245
sg14
S'54'
p246
sg16
g17
sg18
g11
sg19
S'498'
p247
sg21
S'PF'
p248
sg23
S'.621'
p249
sg25
S'.446'
p250
sg27
S'NBA'
p251
sg29
S'32'
p252
sg31
S'457'
p253
sg33
S'172'
p254
sg35
S'145'
p255
sg37
S'409'
p256
sg39
S'29'
p257
sg41
S'DET'
p258
sg43
S'72'
p259
sg45
S'95'
p260
sg47
S'204'
p261
sg49
S'90'
p262
sg51
S'457'
p263
sg53
S'274'
p264
sg55
S'2012-13'
p265
sg57
S'204'
p266
sg59
S'81'
p267
sg61
S'.446'
p268
sg63
S'1789'
p269
sg65
S'71'
p270
sba(isrc.gp1.models.Totals
Totals
p271
(dp272
g8
S'28'
p273
sg10
g11
sg12
S'.448'
p274
sg14
S'9'
p275
sg16
g17
sg18
g11
sg19
S'109'
p276
sg21
S'PF'
p277
sg23
S'.484'
p278
sg25
S'.448'
p279
sg27
S'NBA'
p280
sg29
g94
sg31
S'105'
p281
sg33
S'47'
p282
sg35
S'31'
p283
sg37
S'86'
p284
sg39
S'30'
p285
sg41
S'ORL'
p286
sg43
S'34'
p287
sg45
S'20'
p288
sg47
S'47'
p289
sg49
S'15'
p290
sg51
S'105'
p291
sg53
S'58'
p292
sg55
S'2013-14'
p293
sg57
S'47'
p294
sg59
S'14'
p295
sg61
S'.448'
p296
sg63
S'488'
p297
sg65
S'13'
p298
sba(isrc.gp1.models.Totals
Totals
p299
(dp300
g8
S'86'
p301
sg10
g11
sg12
S'.422'
p302
sg14
S'19'
p303
sg16
g17
sg18
g11
sg19
S'203'
p304
sg21
S'PF'
p305
sg23
S'.577'
p306
sg25
S'.422'
p307
sg27
S'NBA'
p308
sg29
S'18'
p309
sg31
S'192'
p310
sg33
S'96'
p311
sg35
S'71'
p312
sg37
S'203'
p313
sg39
S'31'
p314
sg41
S'CHO'
p315
sg43
S'61'
p316
sg45
S'44'
p317
sg47
S'81'
p318
sg49
S'41'
p319
sg51
S'192'
p320
sg53
S'117'
p321
sg55
S'2014-15'
p322
sg57
S'81'
p323
sg59
S'29'
p324
sg61
S'.422'
p325
sg63
S'878'
p326
sg65
g11
sbasS'_college'
p327
S'University of Cincinnati'
p328
sS'_toYear'
p329
S'2015'
p330
sS'_height'
p331
S'6-7'
p332
sS'_active'
p333
I01
sS'_shootingHand'
p334
VRight
p335
sS'_name'
p336
S'Jason Maxiell'
p337
sS'_per100Possessions'
p338
(lp339
(isrc.gp1.models.Per100Possession
Per100Possession
p340
(dp341
g8
S'4.2'
p342
sg10
S'0.0'
p343
sg12
S'.426'
p344
sS'_offensiveRating'
p345
S'82'
p346
sg14
S'1.0'
p347
sg16
g17
sg18
S'0.0'
p348
sg19
S'20.9'
p349
sg21
S'PF'
p350
sS'_defensiveRating'
p351
S'104'
p352
sg23
S'.333'
p353
sg27
S'NBA'
p354
sg29
S'1.4'
p355
sg31
S'18.8'
p356
sg33
S'4.9'
p357
sg35
S'14.6'
p358
sg37
S'9.7'
p359
sg39
S'22'
p360
sg41
S'DET'
p361
sg43
S'26'
p362
sg45
S'1.7'
p363
sg47
S'8.0'
p364
sg49
S'4.9'
p365
sg51
S'18.8'
p366
sg53
S'5.6'
p367
sg55
S'2005-06'
p368
sg57
S'8.0'
p369
sg59
S'3.8'
p370
sg61
S'.426'
p371
sg63
S'159'
p372
sg65
g11
sba(isrc.gp1.models.Per100Possession
Per100Possession
p373
(dp374
g8
S'5.1'
p375
sg10
S'0.0'
p376
sg12
S'.500'
p377
sg345
S'101'
p378
sg14
S'0.8'
p379
sg16
g17
sg18
S'0.0'
p380
sg19
S'19.5'
p381
sg21
g72
sg351
S'102'
p382
sg23
S'.526'
p383
sg27
S'NBA'
p384
sg29
S'1.7'
p385
sg31
S'15.3'
p386
sg33
S'6.4'
p387
sg35
S'8.0'
p388
sg37
S'10.8'
p389
sg39
S'23'
p390
sg41
S'DET'
p391
sg43
S'67'
p392
sg45
S'3.5'
p393
sg47
S'7.6'
p394
sg49
S'4.2'
p395
sg51
S'15.3'
p396
sg53
S'5.7'
p397
sg55
S'2006-07'
p398
sg57
S'7.6'
p399
sg59
S'3.1'
p400
sg61
S'.500'
p401
sg63
S'943'
p402
sg65
g94
sba(isrc.gp1.models.Per100Possession
Per100Possession
p403
(dp404
g8
S'5.5'
p405
sg10
S'0.0'
p406
sg12
S'.538'
p407
sg345
S'117'
p408
sg14
S'1.4'
p409
sg16
S'.000'
p410
sg18
S'0.0'
p411
sg19
S'20.2'
p412
sg21
g72
sg351
S'103'
p413
sg23
S'.633'
p414
sg27
S'NBA'
p415
sg29
S'0.7'
p416
sg31
S'13.9'
p417
sg33
S'5.7'
p418
sg35
S'8.4'
p419
sg37
S'13.5'
p420
sg39
S'24'
p421
sg41
S'DET'
p422
sg43
S'82'
p423
sg45
S'2.9'
p424
sg47
S'7.5'
p425
sg49
S'5.3'
p426
sg51
S'13.8'
p427
sg53
S'8.0'
p428
sg55
S'2007-08'
p429
sg57
S'7.5'
p430
sg59
S'2.2'
p431
sg61
S'.539'
p432
sg63
S'1768'
p433
sg65
g124
sba(isrc.gp1.models.Per100Possession
Per100Possession
p434
(dp435
g8
S'6.6'
p436
sg10
S'0.0'
p437
sg12
S'.575'
p438
sg345
S'120'
p439
sg14
S'0.9'
p440
sg16
S'.000'
p441
sg18
S'0.0'
p442
sg19
S'17.8'
p443
sg21
g72
sg351
S'108'
p444
sg23
S'.532'
p445
sg27
S'NBA'
p446
sg29
S'1.0'
p447
sg31
S'12.6'
p448
sg33
S'6.2'
p449
sg35
S'6.2'
p450
sg37
S'12.7'
p451
sg39
S'25'
p452
sg41
S'DET'
p453
sg43
S'78'
p454
sg45
S'2.5'
p455
sg47
S'7.2'
p456
sg49
S'3.3'
p457
sg51
S'12.5'
p458
sg53
S'6.1'
p459
sg55
S'2008-09'
p460
sg57
S'7.2'
p461
sg59
S'1.8'
p462
sg61
S'.577'
p463
sg63
S'1408'
p464
sg65
g30
sba(isrc.gp1.models.Per100Possession
Per100Possession
p465
(dp466
g8
S'5.6'
p467
sg10
S'0.0'
p468
sg12
S'.511'
p469
sg345
S'109'
p470
sg14
S'1.4'
p471
sg16
S'.000'
p472
sg18
S'0.0'
p473
sg19
S'17.9'
p474
sg21
g72
sg351
S'110'
p475
sg23
S'.574'
p476
sg27
S'NBA'
p477
sg29
S'1.3'
p478
sg31
S'14.5'
p479
sg33
S'6.1'
p480
sg35
S'5.4'
p481
sg37
S'14.0'
p482
sg39
S'26'
p483
sg41
S'DET'
p484
sg43
S'76'
p485
sg45
S'1.3'
p486
sg47
S'7.4'
p487
sg49
S'3.1'
p488
sg51
S'14.5'
p489
sg53
S'8.4'
p490
sg55
S'2009-10'
p491
sg57
S'7.4'
p492
sg59
S'2.4'
p493
sg61
S'.512'
p494
sg63
S'1550'
p495
sg65
S'29'
p496
sba(isrc.gp1.models.Per100Possession
Per100Possession
p497
(dp498
g8
S'3.8'
p499
sg10
S'0.0'
p500
sg12
S'.492'
p501
sg345
S'99'
p502
sg14
S'1.0'
p503
sg16
g17
sg18
S'0.0'
p504
sg19
S'13.7'
p505
sg21
S'PF'
p506
sg351
S'112'
p507
sg23
S'.515'
p508
sg27
S'NBA'
p509
sg29
S'1.4'
p510
sg31
S'10.9'
p511
sg33
S'5.3'
p512
sg35
S'5.7'
p513
sg37
S'10.0'
p514
sg39
S'27'
p515
sg41
S'DET'
p516
sg43
S'57'
p517
sg45
S'1.2'
p518
sg47
S'5.4'
p519
sg49
S'3.0'
p520
sg51
S'10.9'
p521
sg53
S'6.2'
p522
sg55
S'2010-11'
p523
sg57
S'5.4'
p524
sg59
S'2.5'
p525
sg61
S'.492'
p526
sg63
S'930'
p527
sg65
S'14'
p528
sba(isrc.gp1.models.Per100Possession
Per100Possession
p529
(dp530
g8
S'4.6'
p531
sg10
S'0.1'
p532
sg12
S'.478'
p533
sg345
S'99'
p534
sg14
S'1.5'
p535
sg16
S'.000'
p536
sg18
S'0.0'
p537
sg19
S'15.6'
p538
sg21
S'PF'
p539
sg351
S'106'
p540
sg23
S'.547'
p541
sg27
S'NBA'
p542
sg29
S'1.2'
p543
sg31
S'14.1'
p544
sg33
S'5.5'
p545
sg35
S'3.9'
p546
sg37
S'12.2'
p547
sg39
S'28'
p548
sg41
S'DET'
p549
sg43
S'65'
p550
sg45
S'1.8'
p551
sg47
S'6.7'
p552
sg49
S'2.1'
p553
sg51
S'14.0'
p554
sg53
S'7.6'
p555
sg55
S'2011-12'
p556
sg57
S'6.7'
p557
sg59
S'2.6'
p558
sg61
S'.480'
p559
sg63
S'1466'
p560
sg65
S'42'
p561
sba(isrc.gp1.models.Per100Possession
Per100Possession
p562
(dp563
g8
S'4.0'
p564
sg10
S'0.0'
p565
sg12
S'.446'
p566
sg345
S'98'
p567
sg14
S'1.6'
p568
sg16
g17
sg18
S'0.0'
p569
sg19
S'14.7'
p570
sg21
S'PF'
p571
sg351
S'107'
p572
sg23
S'.621'
p573
sg27
S'NBA'
p574
sg29
S'0.9'
p575
sg31
S'13.5'
p576
sg33
S'5.1'
p577
sg35
S'4.3'
p578
sg37
S'12.1'
p579
sg39
S'29'
p580
sg41
S'DET'
p581
sg43
S'72'
p582
sg45
S'2.8'
p583
sg47
S'6.0'
p584
sg49
S'2.7'
p585
sg51
S'13.5'
p586
sg53
S'8.1'
p587
sg55
S'2012-13'
p588
sg57
S'6.0'
p589
sg59
S'2.4'
p590
sg61
S'.446'
p591
sg63
S'1789'
p592
sg65
S'71'
p593
sba(isrc.gp1.models.Per100Possession
Per100Possession
p594
(dp595
g8
S'2.9'
p596
sg10
S'0.0'
p597
sg12
S'.448'
p598
sg345
S'95'
p599
sg14
S'0.9'
p600
sg16
g17
sg18
S'0.0'
p601
sg19
S'11.4'
p602
sg21
S'PF'
p603
sg351
S'108'
p604
sg23
S'.484'
p605
sg27
S'NBA'
p606
sg29
S'0.8'
p607
sg31
S'11.0'
p608
sg33
S'4.9'
p609
sg35
S'3.3'
p610
sg37
S'9.0'
p611
sg39
S'30'
p612
sg41
S'ORL'
p613
sg43
S'34'
p614
sg45
S'2.1'
p615
sg47
S'4.9'
p616
sg49
S'1.6'
p617
sg51
S'11.0'
p618
sg53
S'6.1'
p619
sg55
S'2013-14'
p620
sg57
S'4.9'
p621
sg59
S'1.5'
p622
sg61
S'.448'
p623
sg63
S'488'
p624
sg65
S'13'
p625
sba(isrc.gp1.models.Per100Possession
Per100Possession
p626
(dp627
g8
S'5.1'
p628
sg10
S'0.0'
p629
sg12
S'.422'
p630
sg345
S'99'
p631
sg14
S'1.1'
p632
sg16
g17
sg18
S'0.0'
p633
sg19
S'11.9'
p634
sg21
S'PF'
p635
sg351
S'103'
p636
sg23
S'.577'
p637
sg27
S'NBA'
p638
sg29
S'1.1'
p639
sg31
S'11.3'
p640
sg33
S'5.6'
p641
sg35
S'4.2'
p642
sg37
S'11.9'
p643
sg39
S'31'
p644
sg41
S'CHO'
p645
sg43
S'61'
p646
sg45
S'2.6'
p647
sg47
S'4.8'
p648
sg49
S'2.4'
p649
sg51
S'11.3'
p650
sg53
S'6.9'
p651
sg55
S'2014-15'
p652
sg57
S'4.8'
p653
sg59
S'1.7'
p654
sg61
S'.422'
p655
sg63
S'878'
p656
sg65
g11
sbasS'_advanced'
p657
(lp658
(isrc.gp1.models.Advanced
Advanced
p659
(dp660
S'_offensiveReboundPercentage'
p661
S'8.9'
p662
sS'_turnOverPercentage'
p663
S'13.2'
p664
sS'_winSharesPer48Minutes'
p665
S'-0.054'
p666
sS'_stealPercentage'
p667
S'1.4'
p668
sS'_usagePercentage'
p669
S'24.9'
p670
sS'_totalReboundsPercentage'
p671
S'10.5'
p672
sS'_defensiveBoxPlusMinus'
p673
S'-2.1'
p674
sg21
S'PF'
p675
sS'_valueOverReplacementPlayer'
p676
S'-0.3'
p677
sS'_trueShootingPercentage'
p678
S'.414'
p679
sS'_defensiveReboundPercentage'
p680
S'12.1'
p681
sS'_freeThrowsAttempRate'
p682
S'.778'
p683
sS'_threePointsAttempRate'
p684
S'.000'
p685
sg27
S'NBA'
p686
sS'_offensiveBoxPlusMinues'
p687
S'-7.7'
p688
sS'_assistPercentage'
p689
S'3.1'
p690
sS'_defensiveWinShares'
p691
S'0.2'
p692
sg39
S'22'
p693
sg41
S'DET'
p694
sg43
S'26'
p695
sS'_blockPercentage'
p696
S'2.3'
p697
sS'_playerEfficiencyRating'
p698
S'8.0'
p699
sS'_offensiveWinShares'
p700
S'-0.4'
p701
sg63
S'159'
p702
sS'_boxPlusMinus'
p703
S'-9.8'
p704
sg55
S'2005-06'
p705
sS'_winShares'
p706
S'-0.2'
p707
sba(isrc.gp1.models.Advanced
Advanced
p708
(dp709
g661
S'11.1'
p710
sg663
S'14.1'
p711
sg665
S'.091'
p712
sg667
S'1.7'
p713
sg669
S'18.9'
p714
sg671
S'11.7'
p715
sg673
S'1.0'
p716
sg21
g72
sg676
S'0.0'
p717
sg678
S'.518'
p718
sg680
S'12.3'
p719
sg682
S'.523'
p720
sg684
S'.000'
p721
sg27
S'NBA'
p722
sg687
S'-3.0'
p723
sg689
S'2.5'
p724
sg691
S'1.5'
p725
sg39
S'23'
p726
sg41
S'DET'
p727
sg43
S'67'
p728
sg696
S'4.9'
p729
sg698
S'14.4'
p730
sg700
S'0.3'
p731
sg63
S'943'
p732
sg703
S'-2.0'
p733
sg55
S'2006-07'
p734
sg706
S'1.8'
p735
sba(isrc.gp1.models.Advanced
Advanced
p736
(dp737
g661
S'11.9'
p738
sg663
S'11.2'
p739
sg665
S'.171'
p740
sg667
S'0.7'
p741
sg669
S'17.0'
p742
sg671
S'14.6'
p743
sg673
S'1.5'
p744
sg21
g72
sg676
S'1.4'
p745
sg678
S'.576'
p746
sg680
S'17.4'
p747
sg682
S'.605'
p748
sg684
S'.002'
p749
sg27
S'NBA'
p750
sg687
S'-0.5'
p751
sg689
S'4.2'
p752
sg691
S'2.9'
p753
sg39
S'24'
p754
sg41
S'DET'
p755
sg43
S'82'
p756
sg696
S'4.2'
p757
sg698
S'16.7'
p758
sg700
S'3.4'
p759
sg63
S'1768'
p760
sg703
S'1.0'
p761
sg55
S'2007-08'
p762
sg706
S'6.3'
p763
sba(isrc.gp1.models.Advanced
Advanced
p764
(dp765
g661
S'14.0'
p766
sg663
S'10.4'
p767
sg665
S'.141'
p768
sg667
S'1.0'
p769
sg669
S'14.7'
p770
sg671
S'13.7'
p771
sg673
S'0.4'
p772
sg21
g72
sg676
S'0.7'
p773
sg678
S'.580'
p774
sg680
S'13.2'
p775
sg682
S'.494'
p776
sg684
S'.003'
p777
sg27
S'NBA'
p778
sg687
S'-0.3'
p779
sg689
S'2.8'
p780
sg691
S'1.5'
p781
sg39
S'25'
p782
sg41
S'DET'
p783
sg43
S'78'
p784
sg696
S'3.5'
p785
sg698
S'15.8'
p786
sg700
S'2.6'
p787
sg63
S'1408'
p788
sg703
S'0.1'
p789
sg55
S'2008-09'
p790
sg706
S'4.1'
p791
sba(isrc.gp1.models.Advanced
Advanced
p792
(dp793
g661
S'11.8'
p794
sg663
S'12.3'
p795
sg665
S'.081'
p796
sg667
S'1.3'
p797
sg669
S'16.4'
p798
sg671
S'15.7'
p799
sg673
S'-0.6'
p800
sg21
g72
sg676
S'-0.2'
p801
sg678
S'.531'
p802
sg680
S'20.0'
p803
sg682
S'.373'
p804
sg684
S'.002'
p805
sg27
S'NBA'
p806
sg687
S'-1.8'
p807
sg689
S'4.1'
p808
sg691
S'1.1'
p809
sg39
S'26'
p810
sg41
S'DET'
p811
sg43
S'76'
p812
sg696
S'2.1'
p813
sg698
S'14.0'
p814
sg700
S'1.5'
p815
sg63
S'1550'
p816
sg703
S'-2.4'
p817
sg55
S'2009-10'
p818
sg706
S'2.6'
p819
sba(isrc.gp1.models.Advanced
Advanced
p820
(dp821
g661
S'8.3'
p822
sg663
S'15.9'
p823
sg665
S'.024'
p824
sg667
S'1.4'
p825
sg669
S'13.9'
p826
sg671
S'11.4'
p827
sg673
S'-0.9'
p828
sg21
S'PF'
p829
sg676
S'-0.6'
p830
sg678
S'.510'
p831
sg680
S'14.7'
p832
sg682
S'.524'
p833
sg684
S'.000'
p834
sg27
S'NBA'
p835
sg687
S'-3.6'
p836
sg689
S'2.7'
p837
sg691
S'0.4'
p838
sg39
S'27'
p839
sg41
S'DET'
p840
sg43
S'57'
p841
sg696
S'1.8'
p842
sg698
S'9.4'
p843
sg700
S'0.0'
p844
sg63
S'930'
p845
sg703
S'-4.5'
p846
sg55
S'2010-11'
p847
sg706
S'0.5'
p848
sba(isrc.gp1.models.Advanced
Advanced
p849
(dp850
g661
S'9.9'
p851
sg663
S'14.2'
p852
sg665
S'.057'
p853
sg667
S'1.2'
p854
sg669
S'15.8'
p855
sg671
S'13.6'
p856
sg673
S'0.2'
p857
sg21
S'PF'
p858
sg676
S'-0.2'
p859
sg678
S'.493'
p860
sg680
S'17.4'
p861
sg682
S'.277'
p862
sg684
S'.005'
p863
sg27
S'NBA'
p864
sg687
S'-2.7'
p865
sg689
S'4.7'
p866
sg691
S'1.3'
p867
sg39
S'28'
p868
sg41
S'DET'
p869
sg43
S'65'
p870
sg696
S'2.7'
p871
sg698
S'11.7'
p872
sg700
S'0.4'
p873
sg63
S'1466'
p874
sg703
S'-2.5'
p875
sg55
S'2011-12'
p876
sg706
S'1.7'
p877
sba(isrc.gp1.models.Advanced
Advanced
p878
(dp879
g661
S'8.5'
p880
sg663
S'13.5'
p881
sg665
S'.047'
p882
sg667
S'0.9'
p883
sg669
S'15.3'
p884
sg671
S'13.2'
p885
sg673
S'1.1'
p886
sg21
S'PF'
p887
sg676
S'-0.3'
p888
sg678
S'.478'
p889
sg680
S'18.0'
p890
sg682
S'.317'
p891
sg684
S'.000'
p892
sg27
S'NBA'
p893
sg687
S'-3.7'
p894
sg689
S'4.7'
p895
sg691
S'1.7'
p896
sg39
S'29'
p897
sg41
S'DET'
p898
sg43
S'72'
p899
sg696
S'4.2'
p900
sg698
S'11.3'
p901
sg700
S'0.1'
p902
sg63
S'1789'
p903
sg703
S'-2.6'
p904
sg55
S'2012-13'
p905
sg706
S'1.8'
p906
sba(isrc.gp1.models.Advanced
Advanced
p907
(dp908
g661
S'6.5'
p909
sg663
S'10.6'
p910
sg665
S'.029'
p911
sg667
S'0.8'
p912
sg669
S'12.4'
p913
sg671
S'10.0'
p914
sg673
S'0.3'
p915
sg21
S'PF'
p916
sg676
S'-0.4'
p917
sg678
S'.459'
p918
sg680
S'13.5'
p919
sg682
S'.295'
p920
sg684
S'.000'
p921
sg27
S'NBA'
p922
sg687
S'-5.3'
p923
sg689
S'2.8'
p924
sg691
S'0.4'
p925
sg39
S'30'
p926
sg41
S'ORL'
p927
sg43
S'34'
p928
sg696
S'3.2'
p929
sg698
S'8.1'
p930
sg700
S'-0.1'
p931
sg63
S'488'
p932
sg703
S'-5.0'
p933
sg55
S'2013-14'
p934
sg706
S'0.3'
p935
sba(isrc.gp1.models.Advanced
Advanced
p936
(dp937
g661
S'10.5'
p938
sg663
S'11.5'
p939
sg665
S'.074'
p940
sg667
S'1.1'
p941
sg669
S'13.1'
p942
sg671
S'12.7'
p943
sg673
S'1.9'
p944
sg21
S'PF'
p945
sg676
S'-0.1'
p946
sg678
S'.455'
p947
sg680
S'15.1'
p948
sg682
S'.370'
p949
sg684
S'.000'
p950
sg27
S'NBA'
p951
sg687
S'-4.5'
p952
sg689
S'3.4'
p953
sg691
S'1.2'
p954
sg39
S'31'
p955
sg41
S'CHO'
p956
sg43
S'61'
p957
sg696
S'4.0'
p958
sg698
S'10.4'
p959
sg700
S'0.1'
p960
sg63
S'878'
p961
sg703
S'-2.6'
p962
sg55
S'2014-15'
p963
sg706
S'1.4'
p964
sbasS'_per36Minutes'
p965
(lp966
(isrc.gp1.models.Per36Minutes
Per36Minutes
p967
(dp968
g8
S'2.7'
p969
sg10
S'0.0'
p970
sg12
S'.426'
p971
sg14
S'0.7'
p972
sg16
g17
sg18
S'0.0'
p973
sg19
S'13.6'
p974
sg21
S'PF'
p975
sg23
S'.333'
p976
sg27
S'NBA'
p977
sg29
S'0.9'
p978
sg31
S'12.2'
p979
sg33
S'3.2'
p980
sg35
S'9.5'
p981
sg37
S'6.3'
p982
sg39
S'22'
p983
sg41
S'DET'
p984
sg43
S'26'
p985
sg45
S'1.1'
p986
sg47
S'5.2'
p987
sg49
S'3.2'
p988
sg51
S'12.2'
p989
sg53
S'3.6'
p990
sg55
S'2005-06'
p991
sg57
S'5.2'
p992
sg59
S'2.5'
p993
sg61
S'.426'
p994
sg63
S'159'
p995
sg65
g11
sba(isrc.gp1.models.Per36Minutes
Per36Minutes
p996
(dp997
g8
S'3.4'
p998
sg10
S'0.0'
p999
sg12
S'.500'
p1000
sg14
S'0.5'
p1001
sg16
g17
sg18
S'0.0'
p1002
sg19
S'12.8'
p1003
sg21
g72
sg23
S'.526'
p1004
sg27
S'NBA'
p1005
sg29
S'1.1'
p1006
sg31
S'10.0'
p1007
sg33
S'4.2'
p1008
sg35
S'5.2'
p1009
sg37
S'7.1'
p1010
sg39
S'23'
p1011
sg41
S'DET'
p1012
sg43
S'67'
p1013
sg45
S'2.3'
p1014
sg47
S'5.0'
p1015
sg49
S'2.7'
p1016
sg51
S'10.0'
p1017
sg53
S'3.7'
p1018
sg55
S'2006-07'
p1019
sg57
S'5.0'
p1020
sg59
S'2.0'
p1021
sg61
S'.500'
p1022
sg63
S'943'
p1023
sg65
g94
sba(isrc.gp1.models.Per36Minutes
Per36Minutes
p1024
(dp1025
g8
S'3.6'
p1026
sg10
S'0.0'
p1027
sg12
S'.538'
p1028
sg14
S'0.9'
p1029
sg16
S'.000'
p1030
sg18
S'0.0'
p1031
sg19
S'13.3'
p1032
sg21
g72
sg23
S'.633'
p1033
sg27
S'NBA'
p1034
sg29
S'0.4'
p1035
sg31
S'9.1'
p1036
sg33
S'3.7'
p1037
sg35
S'5.5'
p1038
sg37
S'8.8'
p1039
sg39
S'24'
p1040
sg41
S'DET'
p1041
sg43
S'82'
p1042
sg45
S'1.9'
p1043
sg47
S'4.9'
p1044
sg49
S'3.5'
p1045
sg51
S'9.1'
p1046
sg53
S'5.2'
p1047
sg55
S'2007-08'
p1048
sg57
S'4.9'
p1049
sg59
S'1.4'
p1050
sg61
S'.539'
p1051
sg63
S'1768'
p1052
sg65
g124
sba(isrc.gp1.models.Per36Minutes
Per36Minutes
p1053
(dp1054
g8
S'4.3'
p1055
sg10
S'0.0'
p1056
sg12
S'.575'
p1057
sg14
S'0.6'
p1058
sg16
S'.000'
p1059
sg18
S'0.0'
p1060
sg19
S'11.6'
p1061
sg21
g72
sg23
S'.532'
p1062
sg27
S'NBA'
p1063
sg29
S'0.6'
p1064
sg31
S'8.2'
p1065
sg33
S'4.0'
p1066
sg35
S'4.0'
p1067
sg37
S'8.3'
p1068
sg39
S'25'
p1069
sg41
S'DET'
p1070
sg43
S'78'
p1071
sg45
S'1.6'
p1072
sg47
S'4.7'
p1073
sg49
S'2.1'
p1074
sg51
S'8.2'
p1075
sg53
S'4.0'
p1076
sg55
S'2008-09'
p1077
sg57
S'4.7'
p1078
sg59
S'1.2'
p1079
sg61
S'.577'
p1080
sg63
S'1408'
p1081
sg65
g30
sba(isrc.gp1.models.Per36Minutes
Per36Minutes
p1082
(dp1083
g8
S'3.7'
p1084
sg10
S'0.0'
p1085
sg12
S'.511'
p1086
sg14
S'0.9'
p1087
sg16
S'.000'
p1088
sg18
S'0.0'
p1089
sg19
S'11.9'
p1090
sg21
g72
sg23
S'.574'
p1091
sg27
S'NBA'
p1092
sg29
S'0.8'
p1093
sg31
S'9.6'
p1094
sg33
S'4.1'
p1095
sg35
S'3.6'
p1096
sg37
S'9.3'
p1097
sg39
S'26'
p1098
sg41
S'DET'
p1099
sg43
S'76'
p1100
sg45
S'0.9'
p1101
sg47
S'4.9'
p1102
sg49
S'2.1'
p1103
sg51
S'9.6'
p1104
sg53
S'5.6'
p1105
sg55
S'2009-10'
p1106
sg57
S'4.9'
p1107
sg59
S'1.6'
p1108
sg61
S'.512'
p1109
sg63
S'1550'
p1110
sg65
S'29'
p1111
sba(isrc.gp1.models.Per36Minutes
Per36Minutes
p1112
(dp1113
g8
S'2.6'
p1114
sg10
S'0.0'
p1115
sg12
S'.492'
p1116
sg14
S'0.7'
p1117
sg16
g17
sg18
S'0.0'
p1118
sg19
S'9.2'
p1119
sg21
S'PF'
p1120
sg23
S'.515'
p1121
sg27
S'NBA'
p1122
sg29
S'0.9'
p1123
sg31
S'7.3'
p1124
sg33
S'3.6'
p1125
sg35
S'3.8'
p1126
sg37
S'6.7'
p1127
sg39
S'27'
p1128
sg41
S'DET'
p1129
sg43
S'57'
p1130
sg45
S'0.8'
p1131
sg47
S'3.6'
p1132
sg49
S'2.0'
p1133
sg51
S'7.3'
p1134
sg53
S'4.1'
p1135
sg55
S'2010-11'
p1136
sg57
S'3.6'
p1137
sg59
S'1.7'
p1138
sg61
S'.492'
p1139
sg63
S'930'
p1140
sg65
S'14'
p1141
sba(isrc.gp1.models.Per36Minutes
Per36Minutes
p1142
(dp1143
g8
S'3.1'
p1144
sg10
S'0.0'
p1145
sg12
S'.478'
p1146
sg14
S'1.0'
p1147
sg16
S'.000'
p1148
sg18
S'0.0'
p1149
sg19
S'10.4'
p1150
sg21
S'PF'
p1151
sg23
S'.547'
p1152
sg27
S'NBA'
p1153
sg29
S'0.8'
p1154
sg31
S'9.4'
p1155
sg33
S'3.7'
p1156
sg35
S'2.6'
p1157
sg37
S'8.2'
p1158
sg39
S'28'
p1159
sg41
S'DET'
p1160
sg43
S'65'
p1161
sg45
S'1.2'
p1162
sg47
S'4.5'
p1163
sg49
S'1.4'
p1164
sg51
S'9.4'
p1165
sg53
S'5.1'
p1166
sg55
S'2011-12'
p1167
sg57
S'4.5'
p1168
sg59
S'1.7'
p1169
sg61
S'.480'
p1170
sg63
S'1466'
p1171
sg65
S'42'
p1172
sba(isrc.gp1.models.Per36Minutes
Per36Minutes
p1173
(dp1174
g8
S'2.7'
p1175
sg10
S'0.0'
p1176
sg12
S'.446'
p1177
sg14
S'1.1'
p1178
sg16
g17
sg18
S'0.0'
p1179
sg19
S'10.0'
p1180
sg21
S'PF'
p1181
sg23
S'.621'
p1182
sg27
S'NBA'
p1183
sg29
S'0.6'
p1184
sg31
S'9.2'
p1185
sg33
S'3.5'
p1186
sg35
S'2.9'
p1187
sg37
S'8.2'
p1188
sg39
S'29'
p1189
sg41
S'DET'
p1190
sg43
S'72'
p1191
sg45
S'1.9'
p1192
sg47
S'4.1'
p1193
sg49
S'1.8'
p1194
sg51
S'9.2'
p1195
sg53
S'5.5'
p1196
sg55
S'2012-13'
p1197
sg57
S'4.1'
p1198
sg59
S'1.6'
p1199
sg61
S'.446'
p1200
sg63
S'1789'
p1201
sg65
S'71'
p1202
sba(isrc.gp1.models.Per36Minutes
Per36Minutes
p1203
(dp1204
g8
S'2.1'
p1205
sg10
S'0.0'
p1206
sg12
S'.448'
p1207
sg14
S'0.7'
p1208
sg16
g17
sg18
S'0.0'
p1209
sg19
S'8.0'
p1210
sg21
S'PF'
p1211
sg23
S'.484'
p1212
sg27
S'NBA'
p1213
sg29
S'0.6'
p1214
sg31
S'7.7'
p1215
sg33
S'3.5'
p1216
sg35
S'2.3'
p1217
sg37
S'6.3'
p1218
sg39
S'30'
p1219
sg41
S'ORL'
p1220
sg43
S'34'
p1221
sg45
S'1.5'
p1222
sg47
S'3.5'
p1223
sg49
S'1.1'
p1224
sg51
S'7.7'
p1225
sg53
S'4.3'
p1226
sg55
S'2013-14'
p1227
sg57
S'3.5'
p1228
sg59
S'1.0'
p1229
sg61
S'.448'
p1230
sg63
S'488'
p1231
sg65
S'13'
p1232
sba(isrc.gp1.models.Per36Minutes
Per36Minutes
p1233
(dp1234
g8
S'3.5'
p1235
sg10
S'0.0'
p1236
sg12
S'.422'
p1237
sg14
S'0.8'
p1238
sg16
g17
sg18
S'0.0'
p1239
sg19
S'8.3'
p1240
sg21
S'PF'
p1241
sg23
S'.577'
p1242
sg27
S'NBA'
p1243
sg29
S'0.7'
p1244
sg31
S'7.9'
p1245
sg33
S'3.9'
p1246
sg35
S'2.9'
p1247
sg37
S'8.3'
p1248
sg39
S'31'
p1249
sg41
S'CHO'
p1250
sg43
S'61'
p1251
sg45
S'1.8'
p1252
sg47
S'3.3'
p1253
sg49
S'1.7'
p1254
sg51
S'7.9'
p1255
sg53
S'4.8'
p1256
sg55
S'2014-15'
p1257
sg57
S'3.3'
p1258
sg59
S'1.2'
p1259
sg61
S'.422'
p1260
sg63
S'878'
p1261
sg65
g11
sbasS'_fromYear'
p1262
S'2006'
p1263
sS'_url'
p1264
S'http://www.basketball-reference.com/players/m/maxieja01.html'
p1265
sS'_perGame'
p1266
(isrc.gp1.models.PerGame
PerGame
p1267
(dp1268
g8
S'1.4'
p1269
sg10
S'0.0'
p1270
sg12
S'.422'
p1271
sS'_effectiveFieldGalPercentage'
p1272
S'.422'
p1273
sg14
S'0.3'
p1274
sg16
g17
sg18
S'0.0'
p1275
sg19
S'3.3'
p1276
sg21
S'PF'
p1277
sg23
S'.577'
p1278
sg27
S'NBA'
p1279
sg29
S'0.3'
p1280
sg33
S'1.6'
p1281
sS'_fieldGoalsttempted'
p1282
S'3.1'
p1283
sg35
S'1.2'
p1284
sg37
S'3.3'
p1285
sg39
S'31'
p1286
sg41
S'CHO'
p1287
sg43
S'61'
p1288
sg45
S'0.7'
p1289
sg47
S'1.3'
p1290
sg49
S'0.7'
p1291
sg51
S'3.1'
p1292
sg53
S'1.9'
p1293
sg55
S'2014-15'
p1294
sg57
S'1.3'
p1295
sg59
S'0.5'
p1296
sg61
S'.422'
p1297
sg63
S'14.4'
p1298
sg65
g11
sbsS'_weight'
p1299
S'260'
p1300
sS'_dob'
p1301
S'18-2-1983'
p1302
sS'_salary'
p1303
(lp1304
(isrc.gp1.models.Salary
Salary
p1305
(dp1306
g41
S'Detroit Pistons'
p1307
sg27
S'NBA'
p1308
sg1303
S'$905,640'
p1309
sg55
S'2005-06'
p1310
sba(isrc.gp1.models.Salary
Salary
p1311
(dp1312
g41
S'Detroit Pistons'
p1313
sg27
S'NBA'
p1314
sg1303
S'$973,440'
p1315
sg55
S'2006-07'
p1316
sba(isrc.gp1.models.Salary
Salary
p1317
(dp1318
g41
S'Detroit Pistons'
p1319
sg27
S'NBA'
p1320
sg1303
S'$1,041,360'
p1321
sg55
S'2007-08'
p1322
sba(isrc.gp1.models.Salary
Salary
p1323
(dp1324
g41
S'Detroit Pistons'
p1325
sg27
S'NBA'
p1326
sg1303
S'$1,877,572'
p1327
sg55
S'2008-09'
p1328
sba(isrc.gp1.models.Salary
Salary
p1329
(dp1330
g41
S'Detroit Pistons'
p1331
sg27
S'NBA'
p1332
sg1303
S'$5,000,000'
p1333
sg55
S'2009-10'
p1334
sba(isrc.gp1.models.Salary
Salary
p1335
(dp1336
g41
S'Detroit Pistons'
p1337
sg27
S'NBA'
p1338
sg1303
S'$5,000,000'
p1339
sg55
S'2010-11'
p1340
sba(isrc.gp1.models.Salary
Salary
p1341
(dp1342
g41
S'Detroit Pistons'
p1343
sg27
S'NBA'
p1344
sg1303
S'$5,000,000'
p1345
sg55
S'2011-12'
p1346
sba(isrc.gp1.models.Salary
Salary
p1347
(dp1348
g41
S'Detroit Pistons'
p1349
sg27
S'NBA'
p1350
sg1303
S'$5,000,000'
p1351
sg55
S'2012-13'
p1352
sba(isrc.gp1.models.Salary
Salary
p1353
(dp1354
g41
S'Orlando Magic'
p1355
sg27
S'NBA'
p1356
sg1303
S'$2,500,000'
p1357
sg55
S'2013-14'
p1358
sba(isrc.gp1.models.Salary
Salary
p1359
(dp1360
g41
S'Charlotte Hornets'
p1361
sg27
S'NBA'
p1362
sg1303
S'$1,316,809'
p1363
sg55
S'2014-15'
p1364
sbasg21
S'F'
p1365
sb.