(isrc.gp1.models.Player
Player
p0
(dp1
S'_experience'
p2
S'NA'
p3
sS'_totals'
p4
(lp5
(isrc.gp1.models.Totals
Totals
p6
(dp7
S'_offensiveRebounds'
p8
S'112'
p9
sS'_threePointsAttempted'
p10
S'.417'
p11
sS'_fieldGoalsPercentage'
p12
S'5'
p13
sS'_assist'
p14
S'63'
p15
sS'_threePointsPercentage'
p16
S'123'
p17
sS'_threePoints'
p18
S'12'
p19
sS'_points'
p20
g3
sS'_position'
p21
S'SF'
p22
sS'_freeThrowsPercentage'
p23
S'61'
p24
sS'_effectiveFieldGoalPercentage'
p25
S'82'
p26
sS'_league'
p27
S'ABA'
p28
sS'_steals'
p29
S'127'
p30
sS'_fieldGoalsAttempted'
p31
S'.378'
p32
sS'_personalFouls'
p33
g3
sS'_freeThrowsAttempted'
p34
S'.646'
p35
sS'_totalRebounds'
p36
S'43'
p37
sS'_age'
p38
S'21'
p39
sS'_team'
p40
S'NOB'
p41
sS'_games'
p42
S'66'
p43
sS'_blocks'
p44
S'343'
p45
sS'_twoPoints'
p46
S'327'
p47
sS'_freeThrows'
p48
S'127'
p49
sS'_twoPointsAttempted'
p50
S'.376'
p51
sS'_defensiveRebounds'
p52
S'173'
p53
sS'_season'
p54
S'1968-69'
p55
sS'_fieldGoals'
p56
S'339'
p57
sS'_turnOvers'
p58
g3
sS'_twoPointsPercentage'
p59
S'.385'
p60
sS'_minutesPlayed'
p61
S'128'
p62
sS'_gamesStarted'
p63
S'756'
p64
sba(isrc.gp1.models.Totals
Totals
p65
(dp66
g8
S'12'
p67
sg10
S'.500'
p68
sg12
S'1'
p69
sg14
S'4'
p70
sg16
S'7'
p71
sg18
S'2'
p72
sg20
g3
sg21
S'SF'
p73
sg23
g72
sg25
S'6'
p74
sg27
S'ABA'
p75
sg29
g74
sg31
S'.381'
p76
sg33
g3
sg34
S'.750'
p77
sg36
g72
sg38
S'22'
p78
sg40
S'NOB'
p79
sg42
g70
sg44
S'23'
p80
sg46
S'19'
p81
sg48
S'8'
p82
sg50
S'.368'
p83
sg52
S'14'
p84
sg54
S'1969-70'
p85
sg56
S'21'
p86
sg58
g3
sg59
S'.405'
p87
sg61
g82
sg63
S'59'
p88
sbasS'_college'
p89
S'Southern University and A&M College'
p90
sS'_toYear'
p91
S'1970'
p92
sS'_height'
p93
S'6-6'
p94
sS'_active'
p95
I00
sS'_shootingHand'
p96
VRight
p97
sS'_name'
p98
S'Jasper Wilson'
p99
sS'_per100Possessions'
p100
(lp101
sS'_advanced'
p102
(lp103
(isrc.gp1.models.Advanced
Advanced
p104
(dp105
S'_offensiveReboundPercentage'
p106
S'10.0'
p107
sS'_turnOverPercentage'
p108
S'0.3'
p109
sS'_winSharesPer48Minutes'
p110
g3
sS'_stealPercentage'
p111
S'-0.6'
p112
sS'_usagePercentage'
p113
S'.019'
p114
sS'_totalReboundsPercentage'
p115
S'13.8'
p116
sS'_defensiveBoxPlusMinus'
p117
g3
sg21
S'SF'
p118
sS'_valueOverReplacementPlayer'
p119
g3
sS'_trueShootingPercentage'
p120
S'.434'
p121
sS'_defensiveReboundPercentage'
p122
S'7.8'
p123
sS'_freeThrowsAttempRate'
p124
S'.375'
p125
sS'_threePointsAttempRate'
p126
S'.035'
p127
sg27
S'ABA'
p128
sS'_offensiveBoxPlusMinues'
p129
g3
sS'_assistPercentage'
p130
S'22.1'
p131
sS'_defensiveWinShares'
p132
g3
sg38
S'21'
p133
sg40
S'NOB'
p134
sg42
S'66'
p135
sS'_blockPercentage'
p136
S'0.9'
p137
sS'_playerEfficiencyRating'
p138
S'9.8'
p139
sS'_offensiveWinShares'
p140
g3
sg61
S'756'
p141
sS'_boxPlusMinus'
p142
g3
sg54
S'1968-69'
p143
sS'_winShares'
p144
g3
sba(isrc.gp1.models.Advanced
Advanced
p145
(dp146
g106
S'10.8'
p147
sg108
S'0.1'
p148
sg110
g3
sg111
S'0.0'
p149
sg113
S'.059'
p150
sg115
S'14.0'
p151
sg117
g3
sg21
S'SF'
p152
sg119
g3
sg120
S'.469'
p153
sg122
S'4.8'
p154
sg124
S'.381'
p155
sg126
S'.095'
p156
sg27
S'ABA'
p157
sg129
g3
sg130
S'18.6'
p158
sg132
g3
sg38
S'22'
p159
sg40
S'NOB'
p160
sg42
g70
sg136
S'0.1'
p161
sg138
S'10.8'
p162
sg140
g3
sg61
S'59'
p163
sg142
g3
sg54
S'1969-70'
p164
sg144
g3
sbasS'_per36Minutes'
p165
(lp166
(isrc.gp1.models.Per36Minutes
Per36Minutes
p167
(dp168
g8
S'5.3'
p169
sg10
S'.417'
p170
sg12
S'0.2'
p171
sg14
S'3.0'
p172
sg16
S'5.9'
p173
sg18
S'0.6'
p174
sg20
g3
sg21
S'SF'
p175
sg23
S'2.9'
p176
sg27
S'ABA'
p177
sg29
S'6.0'
p178
sg31
S'.378'
p179
sg33
g3
sg34
S'.646'
p180
sg36
S'2.0'
p181
sg38
S'21'
p182
sg40
S'NOB'
p183
sg42
S'66'
p184
sg44
S'16.3'
p185
sg46
S'15.6'
p186
sg48
S'6.0'
p187
sg50
S'.376'
p188
sg52
S'8.2'
p189
sg54
S'1968-69'
p190
sg56
S'16.1'
p191
sg58
g3
sg59
S'3.9'
p192
sg61
S'6.1'
p193
sg63
S'756'
p194
sba(isrc.gp1.models.Per36Minutes
Per36Minutes
p195
(dp196
g8
S'7.3'
p197
sg10
S'.500'
p198
sg12
S'0.6'
p199
sg14
S'2.4'
p200
sg16
S'4.3'
p201
sg18
S'1.2'
p202
sg20
g3
sg21
S'SF'
p203
sg23
S'1.2'
p204
sg27
S'ABA'
p205
sg29
S'3.7'
p206
sg31
S'.381'
p207
sg33
g3
sg34
S'.750'
p208
sg36
S'1.2'
p209
sg38
S'22'
p210
sg40
S'NOB'
p211
sg42
g70
sg44
S'14.0'
p212
sg46
S'11.6'
p213
sg48
S'4.9'
p214
sg50
S'.368'
p215
sg52
S'8.5'
p216
sg54
S'1969-70'
p217
sg56
S'12.8'
p218
sg58
g3
sg59
S'3.7'
p219
sg61
S'4.9'
p220
sg63
S'59'
p221
sbasS'_fromYear'
p222
S'1969'
p223
sS'_url'
p224
S'http://www.basketball-reference.com/players/w/wilsoja01.html'
p225
sS'_perGame'
p226
(isrc.gp1.models.PerGame
PerGame
p227
(dp228
g8
S'3.0'
p229
sg10
S'.500'
p230
sg12
S'0.3'
p231
sS'_effectiveFieldGalPercentage'
p232
S'1.5'
p233
sg14
S'1.0'
p234
sg16
S'1.8'
p235
sg18
S'0.5'
p236
sg20
g3
sg21
S'SF'
p237
sg23
S'0.5'
p238
sg27
S'ABA'
p239
sg29
S'1.5'
p240
sg33
g3
sS'_fieldGoalsttempted'
p241
S'.381'
p242
sg34
S'.750'
p243
sg36
S'0.5'
p244
sg38
S'22'
p245
sg40
S'NOB'
p246
sg42
g70
sg44
S'5.8'
p247
sg46
S'4.8'
p248
sg48
S'2.0'
p249
sg50
S'.368'
p250
sg52
S'3.5'
p251
sg54
S'1969-70'
p252
sg56
S'5.3'
p253
sg58
g3
sg59
S'.405'
p254
sg61
S'2.0'
p255
sg63
S'14.8'
p256
sbsS'_weight'
p257
S'200'
p258
sS'_dob'
p259
S'12-7-1947'
p260
sS'_salary'
p261
(lp262
sg21
S'F'
p263
sb.