(isrc.gp1.models.Player
Player
p0
(dp1
S'_experience'
p2
V11
p3
sS'_totals'
p4
(lp5
(isrc.gp1.models.Totals
Totals
p6
(dp7
S'_offensiveRebounds'
p8
S'119'
p9
sS'_threePointsAttempted'
p10
S'3'
p11
sS'_fieldGoalsPercentage'
p12
S'.528'
p13
sS'_assist'
p14
S'24'
p15
sS'_threePointsPercentage'
p16
S'.000'
p17
sS'_threePoints'
p18
S'0'
p19
sS'_points'
p20
S'475'
p21
sS'_position'
p22
S'PF'
p23
sS'_freeThrowsPercentage'
p24
S'.630'
p25
sS'_effectiveFieldGoalPercentage'
p26
S'.528'
p27
sS'_league'
p28
S'NBA'
p29
sS'_steals'
p30
S'22'
p31
sS'_fieldGoalsAttempted'
p32
S'369'
p33
sS'_personalFouls'
p34
S'195'
p35
sS'_freeThrowsAttempted'
p36
S'135'
p37
sS'_totalRebounds'
p38
S'312'
p39
sS'_age'
p40
S'20'
p41
sS'_team'
p42
S'BOS'
p43
sS'_games'
p44
S'71'
p45
sS'_blocks'
p46
S'55'
p47
sS'_twoPoints'
p48
S'195'
p49
sS'_freeThrows'
p50
S'85'
p51
sS'_twoPointsAttempted'
p52
S'366'
p53
sS'_defensiveRebounds'
p54
S'193'
p55
sS'_season'
p56
S'2004-05'
p57
sS'_fieldGoals'
p58
S'195'
p59
sS'_turnOvers'
p60
S'66'
p61
sS'_twoPointsPercentage'
p62
S'.533'
p63
sS'_minutesPlayed'
p64
S'1051'
p65
sS'_gamesStarted'
p66
S'1'
p67
sba(isrc.gp1.models.Totals
Totals
p68
(dp69
g8
S'97'
p70
sg10
S'4'
p71
sg12
S'.499'
p72
sg14
S'30'
p73
sg16
S'.000'
p74
sg18
g19
sg20
S'464'
p75
sg22
S'PF'
p76
sg24
S'.642'
p77
sg26
S'.499'
p78
sg28
S'NBA'
p79
sg30
S'30'
p80
sg32
S'379'
p81
sg34
S'166'
p82
sg36
S'134'
p83
sg38
S'299'
p84
sg40
S'21'
p85
sg42
S'BOS'
p86
sg44
S'59'
p87
sg46
S'46'
p88
sg48
S'189'
p89
sg50
S'86'
p90
sg52
S'375'
p91
sg54
S'202'
p92
sg56
S'2005-06'
p93
sg58
S'189'
p94
sg60
S'62'
p95
sg62
S'.504'
p96
sg64
S'1062'
p97
sg66
S'7'
p98
sba(isrc.gp1.models.Totals
Totals
p99
(dp100
g8
S'237'
p101
sg10
g67
sg12
S'.514'
p102
sg14
S'88'
p103
sg16
S'.000'
p104
sg18
g19
sg20
S'1107'
p105
sg22
S'C'
p106
sg24
S'.681'
p107
sg26
S'.514'
p108
sg28
S'NBA'
p109
sg30
S'48'
p110
sg32
S'882'
p111
sg34
S'232'
p112
sg36
S'295'
p113
sg38
S'756'
p114
sg40
S'22'
p115
sg42
S'BOS'
p116
sg44
S'69'
p117
sg46
S'106'
p118
sg48
S'453'
p119
sg50
S'201'
p120
sg52
S'881'
p121
sg54
S'519'
p122
sg56
S'2006-07'
p123
sg58
S'453'
p124
sg60
S'136'
p125
sg62
S'.514'
p126
sg64
S'2319'
p127
sg66
S'60'
p128
sba(isrc.gp1.models.Totals
Totals
p129
(dp130
g8
S'308'
p131
sg10
S'5'
p132
sg12
S'.500'
p133
sg14
S'117'
p134
sg16
S'.000'
p135
sg18
g19
sg20
S'1726'
p136
sg22
g106
sg24
S'.721'
p137
sg26
S'.500'
p138
sg28
S'NBA'
p139
sg30
S'74'
p140
sg32
S'1441'
p141
sg34
S'222'
p142
sg36
S'394'
p143
sg38
S'911'
p144
sg40
S'23'
p145
sg42
S'MIN'
p146
sg44
S'82'
p147
sg46
S'119'
p148
sg48
S'721'
p149
sg50
S'284'
p150
sg52
S'1436'
p151
sg54
S'603'
p152
sg56
S'2007-08'
p153
sg58
S'721'
p154
sg60
S'167'
p155
sg62
S'.502'
p156
sg64
S'2919'
p157
sg66
S'82'
p158
sba(isrc.gp1.models.Totals
Totals
p159
(dp160
g8
S'172'
p161
sg10
g71
sg12
S'.497'
p162
sg14
S'79'
p163
sg16
S'.000'
p164
sg18
g19
sg20
S'1156'
p165
sg22
g106
sg24
S'.738'
p166
sg26
S'.497'
p167
sg28
S'NBA'
p168
sg30
S'39'
p169
sg32
S'975'
p170
sg34
S'141'
p171
sg36
S'252'
p172
sg38
S'548'
p173
sg40
S'24'
p174
sg42
S'MIN'
p175
sg44
S'50'
p176
sg46
S'83'
p177
sg48
S'485'
p178
sg50
S'186'
p179
sg52
S'971'
p180
sg54
S'376'
p181
sg56
S'2008-09'
p182
sg58
S'485'
p183
sg60
S'92'
p184
sg62
S'.499'
p185
sg64
S'1836'
p186
sg66
S'50'
p187
sba(isrc.gp1.models.Totals
Totals
p188
(dp189
g8
S'180'
p190
sg10
g71
sg12
S'.498'
p191
sg14
S'137'
p192
sg16
S'.000'
p193
sg18
g19
sg20
S'1301'
p194
sg22
g106
sg24
S'.680'
p195
sg26
S'.498'
p196
sg28
S'NBA'
p197
sg30
S'63'
p198
sg32
S'1125'
p199
sg34
S'205'
p200
sg36
S'266'
p201
sg38
S'703'
p202
sg40
S'25'
p203
sg42
S'MIN'
p204
sg44
S'76'
p205
sg46
S'98'
p206
sg48
S'560'
p207
sg50
S'181'
p208
sg52
S'1121'
p209
sg54
S'523'
p210
sg56
S'2009-10'
p211
sg58
S'560'
p212
sg60
S'136'
p213
sg62
S'.500'
p214
sg64
S'2463'
p215
sg66
S'76'
p216
sba(isrc.gp1.models.Totals
Totals
p217
(dp218
g8
S'235'
p219
sg10
g19
sg12
S'.496'
p220
sg14
S'149'
p221
sg16
S'NA'
p222
sg18
g19
sg20
S'1528'
p223
sg22
g106
sg24
S'.761'
p224
sg26
S'.496'
p225
sg28
S'NBA'
p226
sg30
S'46'
p227
sg32
S'1319'
p228
sg34
S'238'
p229
sg36
S'289'
p230
sg38
S'794'
p231
sg40
S'26'
p232
sg42
S'UTA'
p233
sg44
S'82'
p234
sg46
S'153'
p235
sg48
S'654'
p236
sg50
S'220'
p237
sg52
S'1319'
p238
sg54
S'559'
p239
sg56
S'2010-11'
p240
sg58
S'654'
p241
sg60
S'105'
p242
sg62
S'.496'
p243
sg64
S'2940'
p244
sg66
S'82'
p245
sba(isrc.gp1.models.Totals
Totals
p246
(dp247
g8
S'133'
p248
sg10
g71
sg12
S'.492'
p249
sg14
S'134'
p250
sg16
S'.250'
p251
sg18
g67
sg20
S'1170'
p252
sg22
g106
sg24
S'.774'
p253
sg26
S'.493'
p254
sg28
S'NBA'
p255
sg30
S'47'
p256
sg32
S'1048'
p257
sg34
S'155'
p258
sg36
S'177'
p259
sg38
S'585'
p260
sg40
S'27'
p261
sg42
S'UTA'
p262
sg44
S'61'
p263
sg46
S'101'
p264
sg48
S'515'
p265
sg50
S'137'
p266
sg52
S'1044'
p267
sg54
S'452'
p268
sg56
S'2011-12'
p269
sg58
S'516'
p270
sg60
S'62'
p271
sg62
S'.493'
p272
sg64
S'2075'
p273
sg66
S'61'
p274
sba(isrc.gp1.models.Totals
Totals
p275
(dp276
g8
S'156'
p277
sg10
S'17'
p278
sg12
S'.494'
p279
sg14
S'164'
p280
sg16
S'.118'
p281
sg18
S'2'
p282
sg20
S'1391'
p283
sg22
g106
sg24
S'.770'
p284
sg26
S'.495'
p285
sg28
S'NBA'
p286
sg30
S'80'
p287
sg32
S'1236'
p288
sg34
S'170'
p289
sg36
S'217'
p290
sg38
S'720'
p291
sg40
S'28'
p292
sg42
S'UTA'
p293
sg44
S'78'
p294
sg46
S'89'
p295
sg48
S'609'
p296
sg50
S'167'
p297
sg52
S'1219'
p298
sg54
S'564'
p299
sg56
S'2012-13'
p300
sg58
S'611'
p301
sg60
S'105'
p302
sg62
S'.500'
p303
sg64
S'2578'
p304
sg66
S'78'
p305
sba(isrc.gp1.models.Totals
Totals
p306
(dp307
g8
S'156'
p308
sg10
S'15'
p309
sg12
S'.509'
p310
sg14
S'155'
p311
sg16
S'.200'
p312
sg18
g11
sg20
S'1594'
p313
sg22
g106
sg24
S'.690'
p314
sg26
S'.510'
p315
sg28
S'NBA'
p316
sg30
S'67'
p317
sg32
S'1376'
p318
sg34
S'176'
p319
sg36
S'277'
p320
sg38
S'792'
p321
sg40
S'29'
p322
sg42
S'CHA'
p323
sg44
S'73'
p324
sg46
S'79'
p325
sg48
S'697'
p326
sg50
S'191'
p327
sg52
S'1361'
p328
sg54
S'636'
p329
sg56
S'2013-14'
p330
sg58
S'700'
p331
sg60
S'124'
p332
sg62
S'.512'
p333
sg64
S'2553'
p334
sg66
S'73'
p335
sba(isrc.gp1.models.Totals
Totals
p336
(dp337
g8
S'99'
p338
sg10
g132
sg12
S'.481'
p339
sg14
S'113'
p340
sg16
S'.400'
p341
sg18
g282
sg20
S'1082'
p342
sg22
g106
sg24
S'.655'
p343
sg26
S'.482'
p344
sg28
S'NBA'
p345
sg30
S'47'
p346
sg32
S'1010'
p347
sg34
S'139'
p348
sg36
S'165'
p349
sg38
S'548'
p350
sg40
S'30'
p351
sg42
S'CHO'
p352
sg44
S'65'
p353
sg46
S'84'
p354
sg48
S'484'
p355
sg50
S'108'
p356
sg52
S'1005'
p357
sg54
S'449'
p358
sg56
S'2014-15'
p359
sg58
S'486'
p360
sg60
S'68'
p361
sg62
S'.482'
p362
sg64
S'1992'
p363
sg66
S'61'
p364
sba(isrc.gp1.models.Totals
Totals
p365
(dp366
g8
S'23'
p367
sg10
g19
sg12
S'.482'
p368
sg14
S'30'
p369
sg16
g222
sg18
g19
sg20
S'238'
p370
sg22
g106
sg24
S'.571'
p371
sg26
S'.482'
p372
sg28
S'NBA'
p373
sg30
S'14'
p374
sg32
S'222'
p375
sg34
S'46'
p376
sg36
S'42'
p377
sg38
S'116'
p378
sg40
S'31'
p379
sg42
S'CHO'
p380
sg44
S'19'
p381
sg46
S'20'
p382
sg48
S'107'
p383
sg50
S'24'
p384
sg52
S'222'
p385
sg54
S'93'
p386
sg56
S'2015-16'
p387
sg58
S'107'
p388
sg60
S'14'
p389
sg62
S'.482'
p390
sg64
S'478'
p391
sg66
S'17'
p392
sbasS'_college'
p393
S'NA'
p394
sS'_toYear'
p395
S'2016'
p396
sS'_height'
p397
S'6-10'
p398
sS'_active'
p399
I01
sS'_shootingHand'
p400
VRight
p401
sS'_name'
p402
S'Al Jefferson'
p403
sS'_per100Possessions'
p404
(lp405
(isrc.gp1.models.Per100Possession
Per100Possession
p406
(dp407
g8
S'5.8'
p408
sg10
S'0.1'
p409
sg12
S'.528'
p410
sS'_offensiveRating'
p411
S'108'
p412
sg14
S'1.2'
p413
sg16
S'.000'
p414
sg18
S'0.0'
p415
sg20
S'23.3'
p416
sg22
S'PF'
p417
sS'_defensiveRating'
p418
S'104'
p419
sg24
S'.630'
p420
sg28
S'NBA'
p421
sg30
S'1.1'
p422
sg32
S'18.1'
p423
sg34
S'9.5'
p424
sg36
S'6.6'
p425
sg38
S'15.3'
p426
sg40
S'20'
p427
sg42
S'BOS'
p428
sg44
S'71'
p429
sg46
S'2.7'
p430
sg48
S'9.5'
p431
sg50
S'4.2'
p432
sg52
S'17.9'
p433
sg54
S'9.4'
p434
sg56
S'2004-05'
p435
sg58
S'9.5'
p436
sg60
S'3.2'
p437
sg62
S'.533'
p438
sg64
S'1051'
p439
sg66
g67
sba(isrc.gp1.models.Per100Possession
Per100Possession
p440
(dp441
g8
S'4.8'
p442
sg10
S'0.2'
p443
sg12
S'.499'
p444
sg411
S'104'
p445
sg14
S'1.5'
p446
sg16
S'.000'
p447
sg18
S'0.0'
p448
sg20
S'22.8'
p449
sg22
S'PF'
p450
sg418
S'103'
p451
sg24
S'.642'
p452
sg28
S'NBA'
p453
sg30
S'1.5'
p454
sg32
S'18.6'
p455
sg34
S'8.1'
p456
sg36
S'6.6'
p457
sg38
S'14.7'
p458
sg40
S'21'
p459
sg42
S'BOS'
p460
sg44
S'59'
p461
sg46
S'2.3'
p462
sg48
S'9.3'
p463
sg50
S'4.2'
p464
sg52
S'18.4'
p465
sg54
S'9.9'
p466
sg56
S'2005-06'
p467
sg58
S'9.3'
p468
sg60
S'3.0'
p469
sg62
S'.504'
p470
sg64
S'1062'
p471
sg66
g98
sba(isrc.gp1.models.Per100Possession
Per100Possession
p472
(dp473
g8
S'5.3'
p474
sg10
S'0.0'
p475
sg12
S'.514'
p476
sg411
S'109'
p477
sg14
S'2.0'
p478
sg16
S'.000'
p479
sg18
S'0.0'
p480
sg20
S'24.9'
p481
sg22
g106
sg418
S'103'
p482
sg24
S'.681'
p483
sg28
S'NBA'
p484
sg30
S'1.1'
p485
sg32
S'19.8'
p486
sg34
S'5.2'
p487
sg36
S'6.6'
p488
sg38
S'17.0'
p489
sg40
S'22'
p490
sg42
S'BOS'
p491
sg44
S'69'
p492
sg46
S'2.4'
p493
sg48
S'10.2'
p494
sg50
S'4.5'
p495
sg52
S'19.8'
p496
sg54
S'11.7'
p497
sg56
S'2006-07'
p498
sg58
S'10.2'
p499
sg60
S'3.1'
p500
sg62
S'.514'
p501
sg64
S'2319'
p502
sg66
S'60'
p503
sba(isrc.gp1.models.Per100Possession
Per100Possession
p504
(dp505
g8
S'5.5'
p506
sg10
S'0.1'
p507
sg12
S'.500'
p508
sg411
S'109'
p509
sg14
S'2.1'
p510
sg16
S'.000'
p511
sg18
S'0.0'
p512
sg20
S'30.9'
p513
sg22
g106
sg418
S'108'
p514
sg24
S'.721'
p515
sg28
S'NBA'
p516
sg30
S'1.3'
p517
sg32
S'25.8'
p518
sg34
S'4.0'
p519
sg36
S'7.1'
p520
sg38
S'16.3'
p521
sg40
S'23'
p522
sg42
S'MIN'
p523
sg44
S'82'
p524
sg46
S'2.1'
p525
sg48
S'12.9'
p526
sg50
S'5.1'
p527
sg52
S'25.7'
p528
sg54
S'10.8'
p529
sg56
S'2007-08'
p530
sg58
S'12.9'
p531
sg60
S'3.0'
p532
sg62
S'.502'
p533
sg64
S'2919'
p534
sg66
S'82'
p535
sba(isrc.gp1.models.Per100Possession
Per100Possession
p536
(dp537
g8
S'4.9'
p538
sg10
S'0.1'
p539
sg12
S'.497'
p540
sg411
S'109'
p541
sg14
S'2.3'
p542
sg16
S'.000'
p543
sg18
S'0.0'
p544
sg20
S'33.0'
p545
sg22
g106
sg418
S'108'
p546
sg24
S'.738'
p547
sg28
S'NBA'
p548
sg30
S'1.1'
p549
sg32
S'27.8'
p550
sg34
S'4.0'
p551
sg36
S'7.2'
p552
sg38
S'15.6'
p553
sg40
S'24'
p554
sg42
S'MIN'
p555
sg44
S'50'
p556
sg46
S'2.4'
p557
sg48
S'13.8'
p558
sg50
S'5.3'
p559
sg52
S'27.7'
p560
sg54
S'10.7'
p561
sg56
S'2008-09'
p562
sg58
S'13.8'
p563
sg60
S'2.6'
p564
sg62
S'.499'
p565
sg64
S'1836'
p566
sg66
S'50'
p567
sba(isrc.gp1.models.Per100Possession
Per100Possession
p568
(dp569
g8
S'3.7'
p570
sg10
S'0.1'
p571
sg12
S'.498'
p572
sg411
S'106'
p573
sg14
S'2.8'
p574
sg16
S'.000'
p575
sg18
S'0.0'
p576
sg20
S'26.4'
p577
sg22
g106
sg418
S'108'
p578
sg24
S'.680'
p579
sg28
S'NBA'
p580
sg30
S'1.3'
p581
sg32
S'22.8'
p582
sg34
S'4.2'
p583
sg36
S'5.4'
p584
sg38
S'14.3'
p585
sg40
S'25'
p586
sg42
S'MIN'
p587
sg44
S'76'
p588
sg46
S'2.0'
p589
sg48
S'11.4'
p590
sg50
S'3.7'
p591
sg52
S'22.7'
p592
sg54
S'10.6'
p593
sg56
S'2009-10'
p594
sg58
S'11.4'
p595
sg60
S'2.8'
p596
sg62
S'.500'
p597
sg64
S'2463'
p598
sg66
S'76'
p599
sba(isrc.gp1.models.Per100Possession
Per100Possession
p600
(dp601
g8
S'4.2'
p602
sg10
S'0.0'
p603
sg12
S'.496'
p604
sg411
S'111'
p605
sg14
S'2.7'
p606
sg16
g222
sg18
S'0.0'
p607
sg20
S'27.4'
p608
sg22
g106
sg418
S'108'
p609
sg24
S'.761'
p610
sg28
S'NBA'
p611
sg30
S'0.8'
p612
sg32
S'23.7'
p613
sg34
S'4.3'
p614
sg36
S'5.2'
p615
sg38
S'14.2'
p616
sg40
S'26'
p617
sg42
S'UTA'
p618
sg44
S'82'
p619
sg46
S'2.7'
p620
sg48
S'11.7'
p621
sg50
S'3.9'
p622
sg52
S'23.7'
p623
sg54
S'10.0'
p624
sg56
S'2010-11'
p625
sg58
S'11.7'
p626
sg60
S'1.9'
p627
sg62
S'.496'
p628
sg64
S'2940'
p629
sg66
S'82'
p630
sba(isrc.gp1.models.Per100Possession
Per100Possession
p631
(dp632
g8
S'3.4'
p633
sg10
S'0.1'
p634
sg12
S'.492'
p635
sg411
S'112'
p636
sg14
S'3.4'
p637
sg16
S'.250'
p638
sg18
S'0.0'
p639
sg20
S'29.6'
p640
sg22
g106
sg418
S'103'
p641
sg24
S'.774'
p642
sg28
S'NBA'
p643
sg30
S'1.2'
p644
sg32
S'26.5'
p645
sg34
S'3.9'
p646
sg36
S'4.5'
p647
sg38
S'14.8'
p648
sg40
S'27'
p649
sg42
S'UTA'
p650
sg44
S'61'
p651
sg46
S'2.6'
p652
sg48
S'13.0'
p653
sg50
S'3.5'
p654
sg52
S'26.4'
p655
sg54
S'11.4'
p656
sg56
S'2011-12'
p657
sg58
S'13.1'
p658
sg60
S'1.6'
p659
sg62
S'.493'
p660
sg64
S'2075'
p661
sg66
S'61'
p662
sba(isrc.gp1.models.Per100Possession
Per100Possession
p663
(dp664
g8
S'3.2'
p665
sg10
S'0.3'
p666
sg12
S'.494'
p667
sg411
S'109'
p668
sg14
S'3.4'
p669
sg16
S'.118'
p670
sg18
S'0.0'
p671
sg20
S'28.5'
p672
sg22
g106
sg418
S'104'
p673
sg24
S'.770'
p674
sg28
S'NBA'
p675
sg30
S'1.6'
p676
sg32
S'25.3'
p677
sg34
S'3.5'
p678
sg36
S'4.4'
p679
sg38
S'14.7'
p680
sg40
S'28'
p681
sg42
S'UTA'
p682
sg44
S'78'
p683
sg46
S'1.8'
p684
sg48
S'12.5'
p685
sg50
S'3.4'
p686
sg52
S'25.0'
p687
sg54
S'11.5'
p688
sg56
S'2012-13'
p689
sg58
S'12.5'
p690
sg60
S'2.2'
p691
sg62
S'.500'
p692
sg64
S'2578'
p693
sg66
S'78'
p694
sba(isrc.gp1.models.Per100Possession
Per100Possession
p695
(dp696
g8
S'3.2'
p697
sg10
S'0.3'
p698
sg12
S'.509'
p699
sg411
S'105'
p700
sg14
S'3.2'
p701
sg16
S'.200'
p702
sg18
S'0.1'
p703
sg20
S'32.4'
p704
sg22
g106
sg418
S'100'
p705
sg24
S'.690'
p706
sg28
S'NBA'
p707
sg30
S'1.4'
p708
sg32
S'28.0'
p709
sg34
S'3.6'
p710
sg36
S'5.6'
p711
sg38
S'16.1'
p712
sg40
S'29'
p713
sg42
S'CHA'
p714
sg44
S'73'
p715
sg46
S'1.6'
p716
sg48
S'14.2'
p717
sg50
S'3.9'
p718
sg52
S'27.7'
p719
sg54
S'12.9'
p720
sg56
S'2013-14'
p721
sg58
S'14.2'
p722
sg60
S'2.5'
p723
sg62
S'.512'
p724
sg64
S'2553'
p725
sg66
S'73'
p726
sba(isrc.gp1.models.Per100Possession
Per100Possession
p727
(dp728
g8
S'2.6'
p729
sg10
S'0.1'
p730
sg12
S'.481'
p731
sg411
S'101'
p732
sg14
S'2.9'
p733
sg16
S'.400'
p734
sg18
S'0.1'
p735
sg20
S'28.0'
p736
sg22
g106
sg418
S'100'
p737
sg24
S'.655'
p738
sg28
S'NBA'
p739
sg30
S'1.2'
p740
sg32
S'26.2'
p741
sg34
S'3.6'
p742
sg36
S'4.3'
p743
sg38
S'14.2'
p744
sg40
S'30'
p745
sg42
S'CHO'
p746
sg44
S'65'
p747
sg46
S'2.2'
p748
sg48
S'12.5'
p749
sg50
S'2.8'
p750
sg52
S'26.1'
p751
sg54
S'11.6'
p752
sg56
S'2014-15'
p753
sg58
S'12.6'
p754
sg60
S'1.8'
p755
sg62
S'.482'
p756
sg64
S'1992'
p757
sg66
S'61'
p758
sba(isrc.gp1.models.Per100Possession
Per100Possession
p759
(dp760
g8
S'2.4'
p761
sg10
S'0.0'
p762
sg12
S'.482'
p763
sg411
S'102'
p764
sg14
S'3.2'
p765
sg16
g222
sg18
S'0.0'
p766
sg20
S'25.0'
p767
sg22
g106
sg418
S'102'
p768
sg24
S'.571'
p769
sg28
S'NBA'
p770
sg30
S'1.5'
p771
sg32
S'23.4'
p772
sg34
S'4.8'
p773
sg36
S'4.4'
p774
sg38
S'12.2'
p775
sg40
S'31'
p776
sg42
S'CHO'
p777
sg44
S'19'
p778
sg46
S'2.1'
p779
sg48
S'11.3'
p780
sg50
S'2.5'
p781
sg52
S'23.4'
p782
sg54
S'9.8'
p783
sg56
S'2015-16'
p784
sg58
S'11.3'
p785
sg60
S'1.5'
p786
sg62
S'.482'
p787
sg64
S'478'
p788
sg66
S'17'
p789
sbasS'_advanced'
p790
(lp791
(isrc.gp1.models.Advanced
Advanced
p792
(dp793
S'_offensiveReboundPercentage'
p794
S'13.5'
p795
sS'_turnOverPercentage'
p796
S'13.3'
p797
sS'_winSharesPer48Minutes'
p798
S'.123'
p799
sS'_stealPercentage'
p800
S'1.1'
p801
sS'_usagePercentage'
p802
S'21.2'
p803
sS'_totalReboundsPercentage'
p804
S'17.3'
p805
sS'_defensiveBoxPlusMinus'
p806
S'-0.9'
p807
sg22
S'PF'
p808
sS'_valueOverReplacementPlayer'
p809
S'-0.2'
p810
sS'_trueShootingPercentage'
p811
S'.554'
p812
sS'_defensiveReboundPercentage'
p813
S'21.0'
p814
sS'_freeThrowsAttempRate'
p815
S'.366'
p816
sS'_threePointsAttempRate'
p817
S'.008'
p818
sg28
S'NBA'
p819
sS'_offensiveBoxPlusMinues'
p820
S'-1.7'
p821
sS'_assistPercentage'
p822
S'3.9'
p823
sS'_defensiveWinShares'
p824
S'1.4'
p825
sg40
S'20'
p826
sg42
S'BOS'
p827
sg44
S'71'
p828
sS'_blockPercentage'
p829
S'3.9'
p830
sS'_playerEfficiencyRating'
p831
S'16.6'
p832
sS'_offensiveWinShares'
p833
S'1.3'
p834
sg64
S'1051'
p835
sS'_boxPlusMinus'
p836
S'-2.7'
p837
sg56
S'2004-05'
p838
sS'_winShares'
p839
S'2.7'
p840
sba(isrc.gp1.models.Advanced
Advanced
p841
(dp842
g794
S'11.4'
p843
sg796
S'12.4'
p844
sg798
S'.105'
p845
sg800
S'1.5'
p846
sg802
S'21.6'
p847
sg804
S'17.2'
p848
sg806
S'-0.4'
p849
sg22
S'PF'
p850
sg809
S'-0.3'
p851
sg811
S'.530'
p852
sg813
S'22.6'
p853
sg815
S'.354'
p854
sg817
S'.011'
p855
sg28
S'NBA'
p856
sg820
S'-2.6'
p857
sg822
S'5.0'
p858
sg824
S'1.5'
p859
sg40
S'21'
p860
sg42
S'BOS'
p861
sg44
S'59'
p862
sg829
S'3.3'
p863
sg831
S'16.2'
p864
sg833
S'0.9'
p865
sg64
S'1062'
p866
sg836
S'-3.1'
p867
sg56
S'2005-06'
p868
sg839
S'2.3'
p869
sba(isrc.gp1.models.Advanced
Advanced
p870
(dp871
g794
S'12.0'
p872
sg796
S'11.8'
p873
sg798
S'.137'
p874
sg800
S'1.1'
p875
sg802
S'22.4'
p876
sg804
S'19.5'
p877
sg806
S'1.0'
p878
sg22
g106
sg809
S'1.5'
p879
sg811
S'.547'
p880
sg813
S'27.4'
p881
sg815
S'.334'
p882
sg817
S'.001'
p883
sg28
S'NBA'
p884
sg820
S'-0.5'
p885
sg822
S'7.2'
p886
sg824
S'3.3'
p887
sg40
S'22'
p888
sg42
S'BOS'
p889
sg44
S'69'
p890
sg829
S'3.5'
p891
sg831
S'19.8'
p892
sg833
S'3.3'
p893
sg64
S'2319'
p894
sg836
S'0.6'
p895
sg56
S'2006-07'
p896
sg839
S'6.6'
p897
sba(isrc.gp1.models.Advanced
Advanced
p898
(dp899
g794
S'11.9'
p900
sg796
S'9.4'
p901
sg798
S'.127'
p902
sg800
S'1.3'
p903
sg802
S'27.5'
p904
sg804
S'18.1'
p905
sg806
S'-0.3'
p906
sg22
g106
sg809
S'1.7'
p907
sg811
S'.535'
p908
sg813
S'24.7'
p909
sg815
S'.273'
p910
sg817
S'.003'
p911
sg28
S'NBA'
p912
sg820
S'0.6'
p913
sg822
S'7.5'
p914
sg824
S'2.9'
p915
sg40
S'23'
p916
sg42
S'MIN'
p917
sg44
S'82'
p918
sg829
S'3.2'
p919
sg831
S'22.7'
p920
sg833
S'4.8'
p921
sg64
S'2919'
p922
sg836
S'0.3'
p923
sg56
S'2007-08'
p924
sg839
S'7.7'
p925
sba(isrc.gp1.models.Advanced
Advanced
p926
(dp927
g794
S'10.6'
p928
sg796
S'7.8'
p929
sg798
S'.128'
p930
sg800
S'1.1'
p931
sg802
S'28.9'
p932
sg804
S'17.5'
p933
sg806
S'0.1'
p934
sg22
g106
sg809
S'1.2'
p935
sg811
S'.532'
p936
sg813
S'24.9'
p937
sg815
S'.258'
p938
sg817
S'.004'
p939
sg28
S'NBA'
p940
sg820
S'0.6'
p941
sg822
S'8.8'
p942
sg824
S'2.0'
p943
sg40
S'24'
p944
sg42
S'MIN'
p945
sg44
S'50'
p946
sg829
S'3.5'
p947
sg831
S'23.1'
p948
sg833
S'2.9'
p949
sg64
S'1836'
p950
sg836
S'0.7'
p951
sg56
S'2008-09'
p952
sg839
S'4.9'
p953
sba(isrc.gp1.models.Advanced
Advanced
p954
(dp955
g794
S'8.0'
p956
sg796
S'9.9'
p957
sg798
S'.090'
p958
sg800
S'1.3'
p959
sg802
S'24.3'
p960
sg804
S'16.0'
p961
sg806
S'0.5'
p962
sg22
g106
sg809
S'1.0'
p963
sg811
S'.524'
p964
sg813
S'24.2'
p965
sg815
S'.236'
p966
sg817
S'.004'
p967
sg28
S'NBA'
p968
sg820
S'-0.9'
p969
sg822
S'10.0'
p970
sg824
S'2.3'
p971
sg40
S'25'
p972
sg42
S'MIN'
p973
sg44
S'76'
p974
sg829
S'3.0'
p975
sg831
S'19.0'
p976
sg833
S'2.3'
p977
sg64
S'2463'
p978
sg836
S'-0.4'
p979
sg56
S'2009-10'
p980
sg839
S'4.6'
p981
sba(isrc.gp1.models.Advanced
Advanced
p982
(dp983
g794
S'9.6'
p984
sg796
S'6.8'
p985
sg798
S'.128'
p986
sg800
S'0.8'
p987
sg802
S'24.2'
p988
sg804
S'16.3'
p989
sg806
S'0.1'
p990
sg22
g106
sg809
S'1.5'
p991
sg811
S'.528'
p992
sg813
S'23.2'
p993
sg815
S'.219'
p994
sg817
S'.000'
p995
sg28
S'NBA'
p996
sg820
S'0.0'
p997
sg822
S'9.2'
p998
sg824
S'2.7'
p999
sg40
S'26'
p1000
sg42
S'UTA'
p1001
sg44
S'82'
p1002
sg829
S'4.2'
p1003
sg831
S'20.1'
p1004
sg833
S'5.1'
p1005
sg64
S'2940'
p1006
sg836
S'0.1'
p1007
sg56
S'2010-11'
p1008
sg839
S'7.8'
p1009
sba(isrc.gp1.models.Advanced
Advanced
p1010
(dp1011
g794
S'7.3'
p1012
sg796
S'5.2'
p1013
sg798
S'.173'
p1014
sg800
S'1.2'
p1015
sg802
S'25.7'
p1016
sg804
S'16.2'
p1017
sg806
S'1.3'
p1018
sg22
g106
sg809
S'2.6'
p1019
sg811
S'.520'
p1020
sg813
S'25.3'
p1021
sg815
S'.169'
p1022
sg817
S'.004'
p1023
sg28
S'NBA'
p1024
sg820
S'1.7'
p1025
sg822
S'12.1'
p1026
sg824
S'2.5'
p1027
sg40
S'27'
p1028
sg42
S'UTA'
p1029
sg44
S'61'
p1030
sg829
S'3.9'
p1031
sg831
S'22.8'
p1032
sg833
S'4.9'
p1033
sg64
S'2075'
p1034
sg836
S'3.0'
p1035
sg56
S'2011-12'
p1036
sg839
S'7.5'
p1037
sba(isrc.gp1.models.Advanced
Advanced
p1038
(dp1039
g794
S'7.0'
p1040
sg796
S'7.3'
p1041
sg798
S'.143'
p1042
sg800
S'1.6'
p1043
sg802
S'25.3'
p1044
sg804
S'16.3'
p1045
sg806
S'1.0'
p1046
sg22
g106
sg809
S'2.2'
p1047
sg811
S'.522'
p1048
sg813
S'25.9'
p1049
sg815
S'.176'
p1050
sg817
S'.014'
p1051
sg28
S'NBA'
p1052
sg820
S'0.5'
p1053
sg822
S'12.0'
p1054
sg824
S'3.3'
p1055
sg40
S'28'
p1056
sg42
S'UTA'
p1057
sg44
S'78'
p1058
sg829
S'2.7'
p1059
sg831
S'20.9'
p1060
sg833
S'4.3'
p1061
sg64
S'2578'
p1062
sg836
S'1.5'
p1063
sg56
S'2012-13'
p1064
sg839
S'7.7'
p1065
sba(isrc.gp1.models.Advanced
Advanced
p1066
(dp1067
g794
S'6.9'
p1068
sg796
S'7.6'
p1069
sg798
S'.146'
p1070
sg800
S'1.4'
p1071
sg802
S'29.3'
p1072
sg804
S'17.5'
p1073
sg806
S'1.5'
p1074
sg22
g106
sg809
S'2.5'
p1075
sg811
S'.532'
p1076
sg813
S'28.3'
p1077
sg815
S'.201'
p1078
sg817
S'.011'
p1079
sg28
S'NBA'
p1080
sg820
S'0.3'
p1081
sg822
S'12.8'
p1082
sg824
S'4.7'
p1083
sg40
S'29'
p1084
sg42
S'CHA'
p1085
sg44
S'73'
p1086
sg829
S'2.4'
p1087
sg831
S'22.7'
p1088
sg833
S'3.1'
p1089
sg64
S'2553'
p1090
sg836
S'1.8'
p1091
sg56
S'2013-14'
p1092
sg839
S'7.8'
p1093
sba(isrc.gp1.models.Advanced
Advanced
p1094
(dp1095
g794
S'5.3'
p1096
sg796
S'5.9'
p1097
sg798
S'.113'
p1098
sg800
S'1.2'
p1099
sg802
S'26.3'
p1100
sg804
S'15.1'
p1101
sg806
S'1.6'
p1102
sg22
g106
sg809
S'1.1'
p1103
sg811
S'.500'
p1104
sg813
S'25.5'
p1105
sg815
S'.163'
p1106
sg817
S'.005'
p1107
sg28
S'NBA'
p1108
sg820
S'-1.3'
p1109
sg822
S'11.6'
p1110
sg824
S'3.4'
p1111
sg40
S'30'
p1112
sg42
S'CHO'
p1113
sg44
S'65'
p1114
sg829
S'3.3'
p1115
sg831
S'19.7'
p1116
sg833
S'1.3'
p1117
sg64
S'1992'
p1118
sg836
S'0.2'
p1119
sg56
S'2014-15'
p1120
sg839
S'4.7'
p1121
sba(isrc.gp1.models.Advanced
Advanced
p1122
(dp1123
g794
S'5.1'
p1124
sg796
S'5.5'
p1125
sg798
S'.102'
p1126
sg800
S'1.5'
p1127
sg802
S'24.0'
p1128
sg804
S'13.3'
p1129
sg806
S'1.3'
p1130
sg22
g106
sg809
S'0.1'
p1131
sg811
S'.495'
p1132
sg813
S'21.9'
p1133
sg815
S'.189'
p1134
sg817
S'.000'
p1135
sg28
S'NBA'
p1136
sg820
S'-2.3'
p1137
sg822
S'12.1'
p1138
sg824
S'0.7'
p1139
sg40
S'31'
p1140
sg42
S'CHO'
p1141
sg44
S'19'
p1142
sg829
S'3.4'
p1143
sg831
S'17.6'
p1144
sg833
S'0.3'
p1145
sg64
S'478'
p1146
sg836
S'-1.1'
p1147
sg56
S'2015-16'
p1148
sg839
S'1.0'
p1149
sbasS'_per36Minutes'
p1150
(lp1151
(isrc.gp1.models.Per36Minutes
Per36Minutes
p1152
(dp1153
g8
S'4.1'
p1154
sg10
S'0.1'
p1155
sg12
S'.528'
p1156
sg14
S'0.8'
p1157
sg16
S'.000'
p1158
sg18
S'0.0'
p1159
sg20
S'16.3'
p1160
sg22
S'PF'
p1161
sg24
S'.630'
p1162
sg28
S'NBA'
p1163
sg30
S'0.8'
p1164
sg32
S'12.6'
p1165
sg34
S'6.7'
p1166
sg36
S'4.6'
p1167
sg38
S'10.7'
p1168
sg40
S'20'
p1169
sg42
S'BOS'
p1170
sg44
S'71'
p1171
sg46
S'1.9'
p1172
sg48
S'6.7'
p1173
sg50
S'2.9'
p1174
sg52
S'12.5'
p1175
sg54
S'6.6'
p1176
sg56
S'2004-05'
p1177
sg58
S'6.7'
p1178
sg60
S'2.3'
p1179
sg62
S'.533'
p1180
sg64
S'1051'
p1181
sg66
g67
sba(isrc.gp1.models.Per36Minutes
Per36Minutes
p1182
(dp1183
g8
S'3.3'
p1184
sg10
S'0.1'
p1185
sg12
S'.499'
p1186
sg14
S'1.0'
p1187
sg16
S'.000'
p1188
sg18
S'0.0'
p1189
sg20
S'15.7'
p1190
sg22
S'PF'
p1191
sg24
S'.642'
p1192
sg28
S'NBA'
p1193
sg30
S'1.0'
p1194
sg32
S'12.8'
p1195
sg34
S'5.6'
p1196
sg36
S'4.5'
p1197
sg38
S'10.1'
p1198
sg40
S'21'
p1199
sg42
S'BOS'
p1200
sg44
S'59'
p1201
sg46
S'1.6'
p1202
sg48
S'6.4'
p1203
sg50
S'2.9'
p1204
sg52
S'12.7'
p1205
sg54
S'6.8'
p1206
sg56
S'2005-06'
p1207
sg58
S'6.4'
p1208
sg60
S'2.1'
p1209
sg62
S'.504'
p1210
sg64
S'1062'
p1211
sg66
g98
sba(isrc.gp1.models.Per36Minutes
Per36Minutes
p1212
(dp1213
g8
S'3.7'
p1214
sg10
S'0.0'
p1215
sg12
S'.514'
p1216
sg14
S'1.4'
p1217
sg16
S'.000'
p1218
sg18
S'0.0'
p1219
sg20
S'17.2'
p1220
sg22
g106
sg24
S'.681'
p1221
sg28
S'NBA'
p1222
sg30
S'0.7'
p1223
sg32
S'13.7'
p1224
sg34
S'3.6'
p1225
sg36
S'4.6'
p1226
sg38
S'11.7'
p1227
sg40
S'22'
p1228
sg42
S'BOS'
p1229
sg44
S'69'
p1230
sg46
S'1.6'
p1231
sg48
S'7.0'
p1232
sg50
S'3.1'
p1233
sg52
S'13.7'
p1234
sg54
S'8.1'
p1235
sg56
S'2006-07'
p1236
sg58
S'7.0'
p1237
sg60
S'2.1'
p1238
sg62
S'.514'
p1239
sg64
S'2319'
p1240
sg66
S'60'
p1241
sba(isrc.gp1.models.Per36Minutes
Per36Minutes
p1242
(dp1243
g8
S'3.8'
p1244
sg10
S'0.1'
p1245
sg12
S'.500'
p1246
sg14
S'1.4'
p1247
sg16
S'.000'
p1248
sg18
S'0.0'
p1249
sg20
S'21.3'
p1250
sg22
g106
sg24
S'.721'
p1251
sg28
S'NBA'
p1252
sg30
S'0.9'
p1253
sg32
S'17.8'
p1254
sg34
S'2.7'
p1255
sg36
S'4.9'
p1256
sg38
S'11.2'
p1257
sg40
S'23'
p1258
sg42
S'MIN'
p1259
sg44
S'82'
p1260
sg46
S'1.5'
p1261
sg48
S'8.9'
p1262
sg50
S'3.5'
p1263
sg52
S'17.7'
p1264
sg54
S'7.4'
p1265
sg56
S'2007-08'
p1266
sg58
S'8.9'
p1267
sg60
S'2.1'
p1268
sg62
S'.502'
p1269
sg64
S'2919'
p1270
sg66
S'82'
p1271
sba(isrc.gp1.models.Per36Minutes
Per36Minutes
p1272
(dp1273
g8
S'3.4'
p1274
sg10
S'0.1'
p1275
sg12
S'.497'
p1276
sg14
S'1.5'
p1277
sg16
S'.000'
p1278
sg18
S'0.0'
p1279
sg20
S'22.7'
p1280
sg22
g106
sg24
S'.738'
p1281
sg28
S'NBA'
p1282
sg30
S'0.8'
p1283
sg32
S'19.1'
p1284
sg34
S'2.8'
p1285
sg36
S'4.9'
p1286
sg38
S'10.7'
p1287
sg40
S'24'
p1288
sg42
S'MIN'
p1289
sg44
S'50'
p1290
sg46
S'1.6'
p1291
sg48
S'9.5'
p1292
sg50
S'3.6'
p1293
sg52
S'19.0'
p1294
sg54
S'7.4'
p1295
sg56
S'2008-09'
p1296
sg58
S'9.5'
p1297
sg60
S'1.8'
p1298
sg62
S'.499'
p1299
sg64
S'1836'
p1300
sg66
S'50'
p1301
sba(isrc.gp1.models.Per36Minutes
Per36Minutes
p1302
(dp1303
g8
S'2.6'
p1304
sg10
S'0.1'
p1305
sg12
S'.498'
p1306
sg14
S'2.0'
p1307
sg16
S'.000'
p1308
sg18
S'0.0'
p1309
sg20
S'19.0'
p1310
sg22
g106
sg24
S'.680'
p1311
sg28
S'NBA'
p1312
sg30
S'0.9'
p1313
sg32
S'16.4'
p1314
sg34
S'3.0'
p1315
sg36
S'3.9'
p1316
sg38
S'10.3'
p1317
sg40
S'25'
p1318
sg42
S'MIN'
p1319
sg44
S'76'
p1320
sg46
S'1.4'
p1321
sg48
S'8.2'
p1322
sg50
S'2.6'
p1323
sg52
S'16.4'
p1324
sg54
S'7.6'
p1325
sg56
S'2009-10'
p1326
sg58
S'8.2'
p1327
sg60
S'2.0'
p1328
sg62
S'.500'
p1329
sg64
S'2463'
p1330
sg66
S'76'
p1331
sba(isrc.gp1.models.Per36Minutes
Per36Minutes
p1332
(dp1333
g8
S'2.9'
p1334
sg10
S'0.0'
p1335
sg12
S'.496'
p1336
sg14
S'1.8'
p1337
sg16
g222
sg18
S'0.0'
p1338
sg20
S'18.7'
p1339
sg22
g106
sg24
S'.761'
p1340
sg28
S'NBA'
p1341
sg30
S'0.6'
p1342
sg32
S'16.2'
p1343
sg34
S'2.9'
p1344
sg36
S'3.5'
p1345
sg38
S'9.7'
p1346
sg40
S'26'
p1347
sg42
S'UTA'
p1348
sg44
S'82'
p1349
sg46
S'1.9'
p1350
sg48
S'8.0'
p1351
sg50
S'2.7'
p1352
sg52
S'16.2'
p1353
sg54
S'6.8'
p1354
sg56
S'2010-11'
p1355
sg58
S'8.0'
p1356
sg60
S'1.3'
p1357
sg62
S'.496'
p1358
sg64
S'2940'
p1359
sg66
S'82'
p1360
sba(isrc.gp1.models.Per36Minutes
Per36Minutes
p1361
(dp1362
g8
S'2.3'
p1363
sg10
S'0.1'
p1364
sg12
S'.492'
p1365
sg14
S'2.3'
p1366
sg16
S'.250'
p1367
sg18
S'0.0'
p1368
sg20
S'20.3'
p1369
sg22
g106
sg24
S'.774'
p1370
sg28
S'NBA'
p1371
sg30
S'0.8'
p1372
sg32
S'18.2'
p1373
sg34
S'2.7'
p1374
sg36
S'3.1'
p1375
sg38
S'10.1'
p1376
sg40
S'27'
p1377
sg42
S'UTA'
p1378
sg44
S'61'
p1379
sg46
S'1.8'
p1380
sg48
S'8.9'
p1381
sg50
S'2.4'
p1382
sg52
S'18.1'
p1383
sg54
S'7.8'
p1384
sg56
S'2011-12'
p1385
sg58
S'9.0'
p1386
sg60
S'1.1'
p1387
sg62
S'.493'
p1388
sg64
S'2075'
p1389
sg66
S'61'
p1390
sba(isrc.gp1.models.Per36Minutes
Per36Minutes
p1391
(dp1392
g8
S'2.2'
p1393
sg10
S'0.2'
p1394
sg12
S'.494'
p1395
sg14
S'2.3'
p1396
sg16
S'.118'
p1397
sg18
S'0.0'
p1398
sg20
S'19.4'
p1399
sg22
g106
sg24
S'.770'
p1400
sg28
S'NBA'
p1401
sg30
S'1.1'
p1402
sg32
S'17.3'
p1403
sg34
S'2.4'
p1404
sg36
S'3.0'
p1405
sg38
S'10.1'
p1406
sg40
S'28'
p1407
sg42
S'UTA'
p1408
sg44
S'78'
p1409
sg46
S'1.2'
p1410
sg48
S'8.5'
p1411
sg50
S'2.3'
p1412
sg52
S'17.0'
p1413
sg54
S'7.9'
p1414
sg56
S'2012-13'
p1415
sg58
S'8.5'
p1416
sg60
S'1.5'
p1417
sg62
S'.500'
p1418
sg64
S'2578'
p1419
sg66
S'78'
p1420
sba(isrc.gp1.models.Per36Minutes
Per36Minutes
p1421
(dp1422
g8
S'2.2'
p1423
sg10
S'0.2'
p1424
sg12
S'.509'
p1425
sg14
S'2.2'
p1426
sg16
S'.200'
p1427
sg18
S'0.0'
p1428
sg20
S'22.5'
p1429
sg22
g106
sg24
S'.690'
p1430
sg28
S'NBA'
p1431
sg30
S'0.9'
p1432
sg32
S'19.4'
p1433
sg34
S'2.5'
p1434
sg36
S'3.9'
p1435
sg38
S'11.2'
p1436
sg40
S'29'
p1437
sg42
S'CHA'
p1438
sg44
S'73'
p1439
sg46
S'1.1'
p1440
sg48
S'9.8'
p1441
sg50
S'2.7'
p1442
sg52
S'19.2'
p1443
sg54
S'9.0'
p1444
sg56
S'2013-14'
p1445
sg58
S'9.9'
p1446
sg60
S'1.7'
p1447
sg62
S'.512'
p1448
sg64
S'2553'
p1449
sg66
S'73'
p1450
sba(isrc.gp1.models.Per36Minutes
Per36Minutes
p1451
(dp1452
g8
S'1.8'
p1453
sg10
S'0.1'
p1454
sg12
S'.481'
p1455
sg14
S'2.0'
p1456
sg16
S'.400'
p1457
sg18
S'0.0'
p1458
sg20
S'19.6'
p1459
sg22
g106
sg24
S'.655'
p1460
sg28
S'NBA'
p1461
sg30
S'0.8'
p1462
sg32
S'18.3'
p1463
sg34
S'2.5'
p1464
sg36
S'3.0'
p1465
sg38
S'9.9'
p1466
sg40
S'30'
p1467
sg42
S'CHO'
p1468
sg44
S'65'
p1469
sg46
S'1.5'
p1470
sg48
S'8.7'
p1471
sg50
S'2.0'
p1472
sg52
S'18.2'
p1473
sg54
S'8.1'
p1474
sg56
S'2014-15'
p1475
sg58
S'8.8'
p1476
sg60
S'1.2'
p1477
sg62
S'.482'
p1478
sg64
S'1992'
p1479
sg66
S'61'
p1480
sba(isrc.gp1.models.Per36Minutes
Per36Minutes
p1481
(dp1482
g8
S'1.7'
p1483
sg10
S'0.0'
p1484
sg12
S'.482'
p1485
sg14
S'2.3'
p1486
sg16
g222
sg18
S'0.0'
p1487
sg20
S'17.9'
p1488
sg22
g106
sg24
S'.571'
p1489
sg28
S'NBA'
p1490
sg30
S'1.1'
p1491
sg32
S'16.7'
p1492
sg34
S'3.5'
p1493
sg36
S'3.2'
p1494
sg38
S'8.7'
p1495
sg40
S'31'
p1496
sg42
S'CHO'
p1497
sg44
S'19'
p1498
sg46
S'1.5'
p1499
sg48
S'8.1'
p1500
sg50
S'1.8'
p1501
sg52
S'16.7'
p1502
sg54
S'7.0'
p1503
sg56
S'2015-16'
p1504
sg58
S'8.1'
p1505
sg60
S'1.1'
p1506
sg62
S'.482'
p1507
sg64
S'478'
p1508
sg66
S'17'
p1509
sbasS'_fromYear'
p1510
S'2005'
p1511
sS'_url'
p1512
S'http://www.basketball-reference.com/players/j/jeffeal01.html'
p1513
sS'_perGame'
p1514
(isrc.gp1.models.PerGame
PerGame
p1515
(dp1516
g8
S'1.2'
p1517
sg10
S'0.0'
p1518
sg12
S'.482'
p1519
sS'_effectiveFieldGalPercentage'
p1520
S'.482'
p1521
sg14
S'1.6'
p1522
sg16
g222
sg18
S'0.0'
p1523
sg20
S'12.5'
p1524
sg22
g106
sg24
S'.571'
p1525
sg28
S'NBA'
p1526
sg30
S'0.7'
p1527
sg34
S'2.4'
p1528
sS'_fieldGoalsttempted'
p1529
S'11.7'
p1530
sg36
S'2.2'
p1531
sg38
S'6.1'
p1532
sg40
S'31'
p1533
sg42
S'CHO'
p1534
sg44
S'19'
p1535
sg46
S'1.1'
p1536
sg48
S'5.6'
p1537
sg50
S'1.3'
p1538
sg52
S'11.7'
p1539
sg54
S'4.9'
p1540
sg56
S'2015-16'
p1541
sg58
S'5.6'
p1542
sg60
S'0.7'
p1543
sg62
S'.482'
p1544
sg64
S'25.2'
p1545
sg66
S'17'
p1546
sbsS'_weight'
p1547
S'289'
p1548
sS'_dob'
p1549
S'4-1-1985'
p1550
sS'_salary'
p1551
(lp1552
(isrc.gp1.models.Salary
Salary
p1553
(dp1554
g42
S'Boston Celtics'
p1555
sg28
S'NBA'
p1556
sg1551
S'$1,407,240'
p1557
sg56
S'2004-05'
p1558
sba(isrc.gp1.models.Salary
Salary
p1559
(dp1560
g42
S'Boston Celtics'
p1561
sg28
S'NBA'
p1562
sg1551
S'$1,512,840'
p1563
sg56
S'2005-06'
p1564
sba(isrc.gp1.models.Salary
Salary
p1565
(dp1566
g42
S'Boston Celtics'
p1567
sg28
S'NBA'
p1568
sg1551
S'$1,618,320'
p1569
sg56
S'2006-07'
p1570
sba(isrc.gp1.models.Salary
Salary
p1571
(dp1572
g42
S'Minnesota Timberwolves'
p1573
sg28
S'NBA'
p1574
sg1551
S'$2,480,885'
p1575
sg56
S'2007-08'
p1576
sba(isrc.gp1.models.Salary
Salary
p1577
(dp1578
g42
S'Minnesota Timberwolves'
p1579
sg28
S'NBA'
p1580
sg1551
S'$11,000,000'
p1581
sg56
S'2008-09'
p1582
sba(isrc.gp1.models.Salary
Salary
p1583
(dp1584
g42
S'Minnesota Timberwolves'
p1585
sg28
S'NBA'
p1586
sg1551
S'$12,000,000'
p1587
sg56
S'2009-10'
p1588
sba(isrc.gp1.models.Salary
Salary
p1589
(dp1590
g42
S'Utah Jazz'
p1591
sg28
S'NBA'
p1592
sg1551
S'$13,000,000'
p1593
sg56
S'2010-11'
p1594
sba(isrc.gp1.models.Salary
Salary
p1595
(dp1596
g42
S'Utah Jazz'
p1597
sg28
S'NBA'
p1598
sg1551
S'$14,000,000'
p1599
sg56
S'2011-12'
p1600
sba(isrc.gp1.models.Salary
Salary
p1601
(dp1602
g42
S'Utah Jazz'
p1603
sg28
S'NBA'
p1604
sg1551
S'$15,000,000'
p1605
sg56
S'2012-13'
p1606
sba(isrc.gp1.models.Salary
Salary
p1607
(dp1608
g42
S'Charlotte Bobcats'
p1609
sg28
S'NBA'
p1610
sg1551
S'$13,500,000'
p1611
sg56
S'2013-14'
p1612
sba(isrc.gp1.models.Salary
Salary
p1613
(dp1614
g42
S'Charlotte Hornets'
p1615
sg28
S'NBA'
p1616
sg1551
S'$13,666,667'
p1617
sg56
S'2014-15'
p1618
sbasg22
S'C-F'
p1619
sb.