(isrc.gp1.models.Player
Player
p0
(dp1
S'_experience'
p2
S'NA'
p3
sS'_totals'
p4
(lp5
(isrc.gp1.models.Totals
Totals
p6
(dp7
S'_offensiveRebounds'
p8
S'6'
p9
sS'_threePointsAttempted'
p10
S'0'
p11
sS'_fieldGoalsPercentage'
p12
S'.333'
p13
sS'_assist'
p14
S'1'
p15
sS'_threePointsPercentage'
p16
S'2'
p17
sS'_threePoints'
p18
g11
sS'_points'
p19
g3
sS'_position'
p20
S'C'
p21
sS'_freeThrowsPercentage'
p22
S'5'
p23
sS'_effectiveFieldGoalPercentage'
p24
g11
sS'_league'
p25
S'NBA'
p26
sS'_steals'
p27
g17
sS'_fieldGoalsAttempted'
p28
g9
sS'_personalFouls'
p29
g3
sS'_freeThrowsAttempted'
p30
g15
sS'_totalRebounds'
p31
g11
sS'_age'
p32
S'24'
p33
sS'_team'
p34
S'NOH'
p35
sS'_games'
p36
S'4'
p37
sS'_blocks'
p38
g23
sS'_twoPoints'
p39
g9
sS'_freeThrows'
p40
g11
sS'_twoPointsAttempted'
p41
S'.333'
p42
sS'_defensiveRebounds'
p43
g11
sS'_season'
p44
S'2011-12'
p45
sS'_fieldGoals'
p46
g17
sS'_turnOvers'
p47
g37
sS'_twoPointsPercentage'
p48
S'.333'
p49
sS'_minutesPlayed'
p50
S'39'
p51
sS'_gamesStarted'
p52
g11
sbasS'_college'
p53
S'Cornell University'
p54
sS'_toYear'
p55
S'2012'
p56
sS'_height'
p57
S'7-0'
p58
sS'_active'
p59
I00
sS'_shootingHand'
p60
VRight
p61
sS'_name'
p62
S'Jeff Foote'
p63
sS'_per100Possessions'
p64
(lp65
(isrc.gp1.models.Per100Possession
Per100Possession
p66
(dp67
g8
S'8.4'
p68
sg10
S'0.0'
p69
sg12
S'.333'
p70
sS'_offensiveRating'
p71
g3
sg14
S'1.4'
p72
sg16
S'2.8'
p73
sg18
S'0.0'
p74
sg19
S'108'
p75
sg20
g21
sS'_defensiveRating'
p76
g3
sg22
S'7.0'
p77
sg25
S'NBA'
p78
sg27
S'2.8'
p79
sg28
S'8.4'
p80
sg29
S'58'
p81
sg30
S'1.4'
p82
sg31
S'0.0'
p83
sg32
S'24'
p84
sg34
S'NOH'
p85
sg36
g37
sg38
S'7.0'
p86
sg39
S'8.4'
p87
sg40
S'0.0'
p88
sg41
S'.333'
p89
sg43
S'0.0'
p90
sg44
S'2011-12'
p91
sg46
S'2.8'
p92
sg47
S'5.6'
p93
sg48
S'0.0'
p94
sg50
S'39'
p95
sg52
g11
sbasS'_advanced'
p96
(lp97
(isrc.gp1.models.Advanced
Advanced
p98
(dp99
S'_offensiveReboundPercentage'
p100
S'3.1'
p101
sS'_turnOverPercentage'
p102
S'25.0'
p103
sS'_winSharesPer48Minutes'
p104
S'-0.079'
p105
sS'_stealPercentage'
p106
S'0.0'
p107
sS'_usagePercentage'
p108
S'9.7'
p109
sS'_totalReboundsPercentage'
p110
S'9.2'
p111
sS'_defensiveBoxPlusMinus'
p112
S'-2.0'
p113
sg20
g21
sS'_valueOverReplacementPlayer'
p114
S'-0.1'
p115
sS'_trueShootingPercentage'
p116
S'.333'
p117
sS'_defensiveReboundPercentage'
p118
S'15.0'
p119
sS'_freeThrowsAttempRate'
p120
S'.000'
p121
sS'_threePointsAttempRate'
p122
S'.000'
p123
sg25
S'NBA'
p124
sS'_offensiveBoxPlusMinues'
p125
S'-9.9'
p126
sS'_assistPercentage'
p127
S'0.0'
p128
sS'_defensiveWinShares'
p129
S'0.0'
p130
sg32
S'24'
p131
sg34
S'NOH'
p132
sg36
g37
sS'_blockPercentage'
p133
S'2.1'
p134
sS'_playerEfficiencyRating'
p135
S'-0.9'
p136
sS'_offensiveWinShares'
p137
S'-0.1'
p138
sg50
S'39'
p139
sS'_boxPlusMinus'
p140
S'-12.0'
p141
sg44
S'2011-12'
p142
sS'_winShares'
p143
S'-0.1'
p144
sbasS'_per36Minutes'
p145
(lp146
(isrc.gp1.models.Per36Minutes
Per36Minutes
p147
(dp148
g8
S'5.5'
p149
sg10
S'0.0'
p150
sg12
S'.333'
p151
sg14
S'0.9'
p152
sg16
S'1.8'
p153
sg18
S'0.0'
p154
sg19
g3
sg20
g21
sg22
S'4.6'
p155
sg25
S'NBA'
p156
sg27
S'1.8'
p157
sg28
S'5.5'
p158
sg29
g3
sg30
S'0.9'
p159
sg31
S'0.0'
p160
sg32
S'24'
p161
sg34
S'NOH'
p162
sg36
g37
sg38
S'4.6'
p163
sg39
S'5.5'
p164
sg40
S'0.0'
p165
sg41
S'.333'
p166
sg43
S'0.0'
p167
sg44
S'2011-12'
p168
sg46
S'1.8'
p169
sg47
S'3.7'
p170
sg48
S'0.0'
p171
sg50
S'39'
p172
sg52
g11
sbasS'_fromYear'
p173
S'2012'
p174
sS'_url'
p175
S'http://www.basketball-reference.com/players/f/footeje01.html'
p176
sS'_perGame'
p177
(isrc.gp1.models.PerGame
PerGame
p178
(dp179
g8
S'1.5'
p180
sg10
S'0.0'
p181
sg12
S'.333'
p182
sS'_effectiveFieldGalPercentage'
p183
S'0.0'
p184
sg14
S'0.3'
p185
sg16
S'0.5'
p186
sg18
S'0.0'
p187
sg19
g3
sg20
g21
sg22
S'1.3'
p188
sg25
S'NBA'
p189
sg27
S'0.5'
p190
sg29
g3
sS'_fieldGoalsttempted'
p191
S'1.5'
p192
sg30
S'0.3'
p193
sg31
S'0.0'
p194
sg32
S'24'
p195
sg34
S'NOH'
p196
sg36
g37
sg38
S'1.3'
p197
sg39
S'1.5'
p198
sg40
S'0.0'
p199
sg41
S'.333'
p200
sg43
S'0.0'
p201
sg44
S'2011-12'
p202
sg46
S'0.5'
p203
sg47
S'1.0'
p204
sg48
S'.333'
p205
sg50
S'9.8'
p206
sg52
g11
sbsS'_weight'
p207
S'265'
p208
sS'_dob'
p209
S'14-7-1987'
p210
sS'_salary'
p211
(lp212
(isrc.gp1.models.Salary
Salary
p213
(dp214
g34
S'New Orleans Hornets'
p215
sg25
S'NBA'
p216
sg211
S'$225,341'
p217
sg44
S'2011-12'
p218
sbasg20
g21
sb.