(isrc.gp1.models.Player
Player
p0
(dp1
S'_experience'
p2
S'NA'
p3
sS'_totals'
p4
(lp5
(isrc.gp1.models.Totals
Totals
p6
(dp7
S'_offensiveRebounds'
p8
S'2'
p9
sS'_threePointsAttempted'
p10
S'9'
p11
sS'_fieldGoalsPercentage'
p12
S'.595'
p13
sS'_assist'
p14
S'23'
p15
sS'_threePointsPercentage'
p16
S'.556'
p17
sS'_threePoints'
p18
S'5'
p19
sS'_points'
p20
S'69'
p21
sS'_position'
p22
S'PG'
p23
sS'_freeThrowsPercentage'
p24
S'.778'
p25
sS'_effectiveFieldGoalPercentage'
p26
S'.655'
p27
sS'_league'
p28
S'NBA'
p29
sS'_steals'
p30
S'4'
p31
sS'_fieldGoalsAttempted'
p32
S'42'
p33
sS'_personalFouls'
p34
S'18'
p35
sS'_freeThrowsAttempted'
p36
S'18'
p37
sS'_totalRebounds'
p38
S'11'
p39
sS'_age'
p40
S'24'
p41
sS'_team'
p42
S'GSW'
p43
sS'_games'
p44
S'8'
p45
sS'_blocks'
p46
S'0'
p47
sS'_twoPoints'
p48
S'20'
p49
sS'_freeThrows'
p50
S'14'
p51
sS'_twoPointsAttempted'
p52
S'33'
p53
sS'_defensiveRebounds'
p54
g11
sS'_season'
p55
S'1992-93'
p56
sS'_fieldGoals'
p57
S'25'
p58
sS'_turnOvers'
p59
S'7'
p60
sS'_twoPointsPercentage'
p61
S'.606'
p62
sS'_minutesPlayed'
p63
S'136'
p64
sS'_gamesStarted'
p65
g47
sba(isrc.gp1.models.Totals
Totals
p66
(dp67
g8
S'16'
p68
sg10
S'151'
p69
sg12
S'.404'
p70
sg14
S'218'
p71
sg16
S'.371'
p72
sg18
S'56'
p73
sg20
S'432'
p74
sg22
S'PG'
p75
sg24
S'.833'
p76
sg26
S'.485'
p77
sg28
S'NBA'
p78
sg30
S'65'
p79
sg32
S'342'
p80
sg34
S'62'
p81
sg36
S'120'
p82
sg38
S'89'
p83
sg40
S'25'
p84
sg42
S'GSW'
p85
sg44
S'76'
p86
sg46
g47
sg48
S'82'
p87
sg50
S'100'
p88
sg52
S'191'
p89
sg54
S'73'
p90
sg55
S'1993-94'
p91
sg57
S'138'
p92
sg59
S'74'
p93
sg61
S'.429'
p94
sg63
S'1097'
p95
sg65
g9
sba(isrc.gp1.models.Totals
Totals
p96
(dp97
g8
S'26'
p98
sg10
S'204'
p99
sg12
S'.447'
p100
sg14
S'373'
p101
sg16
S'.368'
p102
sg18
S'75'
p103
sg20
S'589'
p104
sg22
S'PG'
p105
sg24
S'.876'
p106
sg26
S'.535'
p107
sg28
S'NBA'
p108
sg30
S'95'
p109
sg32
S'425'
p110
sg34
S'133'
p111
sg36
S'153'
p112
sg38
S'148'
p113
sg40
S'26'
p114
sg42
S'GSW'
p115
sg44
S'80'
p116
sg46
g9
sg48
S'115'
p117
sg50
S'134'
p118
sg52
S'221'
p119
sg54
S'122'
p120
sg55
S'1994-95'
p121
sg57
S'190'
p122
sg59
S'120'
p123
sg61
S'.520'
p124
sg63
S'1722'
p125
sg65
S'24'
p126
sbasS'_college'
p127
S'East Tennessee State University'
p128
sS'_toYear'
p129
S'1995'
p130
sS'_height'
p131
S'5-7'
p132
sS'_active'
p133
I00
sS'_shootingHand'
p134
VRight
p135
sS'_name'
p136
S'Keith Jennings'
p137
sS'_per100Possessions'
p138
(lp139
(isrc.gp1.models.Per100Possession
Per100Possession
p140
(dp141
g8
S'0.7'
p142
sg10
S'3.2'
p143
sg12
S'.595'
p144
sS'_offensiveRating'
p145
S'136'
p146
sg14
S'8.2'
p147
sg16
S'.556'
p148
sg18
S'1.8'
p149
sg20
S'24.5'
p150
sg22
S'PG'
p151
sS'_defensiveRating'
p152
S'113'
p153
sg24
S'.778'
p154
sg28
S'NBA'
p155
sg30
S'1.4'
p156
sg32
S'14.9'
p157
sg34
S'6.4'
p158
sg36
S'6.4'
p159
sg38
S'3.9'
p160
sg40
S'24'
p161
sg42
S'GSW'
p162
sg44
g45
sg46
S'0.0'
p163
sg48
S'7.1'
p164
sg50
S'5.0'
p165
sg52
S'11.7'
p166
sg54
S'3.2'
p167
sg55
S'1992-93'
p168
sg57
S'8.9'
p169
sg59
S'2.5'
p170
sg61
S'.606'
p171
sg63
S'136'
p172
sg65
g47
sba(isrc.gp1.models.Per100Possession
Per100Possession
p173
(dp174
g8
S'0.7'
p175
sg10
S'6.7'
p176
sg12
S'.404'
p177
sg145
S'114'
p178
sg14
S'9.6'
p179
sg16
S'.371'
p180
sg18
S'2.5'
p181
sg20
S'19.1'
p182
sg22
S'PG'
p183
sg152
S'108'
p184
sg24
S'.833'
p185
sg28
S'NBA'
p186
sg30
S'2.9'
p187
sg32
S'15.1'
p188
sg34
S'2.7'
p189
sg36
S'5.3'
p190
sg38
S'3.9'
p191
sg40
S'25'
p192
sg42
S'GSW'
p193
sg44
S'76'
p194
sg46
S'0.0'
p195
sg48
S'3.6'
p196
sg50
S'4.4'
p197
sg52
S'8.4'
p198
sg54
S'3.2'
p199
sg55
S'1993-94'
p200
sg57
S'6.1'
p201
sg59
S'3.3'
p202
sg61
S'.429'
p203
sg63
S'1097'
p204
sg65
g9
sba(isrc.gp1.models.Per100Possession
Per100Possession
p205
(dp206
g8
S'0.7'
p207
sg10
S'5.8'
p208
sg12
S'.447'
p209
sg145
S'119'
p210
sg14
S'10.6'
p211
sg16
S'.368'
p212
sg18
S'2.1'
p213
sg20
S'16.8'
p214
sg22
S'PG'
p215
sg152
S'113'
p216
sg24
S'.876'
p217
sg28
S'NBA'
p218
sg30
S'2.7'
p219
sg32
S'12.1'
p220
sg34
S'3.8'
p221
sg36
S'4.4'
p222
sg38
S'4.2'
p223
sg40
S'26'
p224
sg42
S'GSW'
p225
sg44
S'80'
p226
sg46
S'0.1'
p227
sg48
S'3.3'
p228
sg50
S'3.8'
p229
sg52
S'6.3'
p230
sg54
S'3.5'
p231
sg55
S'1994-95'
p232
sg57
S'5.4'
p233
sg59
S'3.4'
p234
sg61
S'.520'
p235
sg63
S'1722'
p236
sg65
S'24'
p237
sbasS'_advanced'
p238
(lp239
(isrc.gp1.models.Advanced
Advanced
p240
(dp241
S'_offensiveReboundPercentage'
p242
S'1.6'
p243
sS'_turnOverPercentage'
p244
S'12.3'
p245
sS'_winSharesPer48Minutes'
p246
S'.205'
p247
sS'_stealPercentage'
p248
S'1.4'
p249
sS'_usagePercentage'
p250
S'17.1'
p251
sS'_totalReboundsPercentage'
p252
S'4.5'
p253
sS'_defensiveBoxPlusMinus'
p254
S'-3.4'
p255
sg22
S'PG'
p256
sS'_valueOverReplacementPlayer'
p257
S'0.1'
p258
sS'_trueShootingPercentage'
p259
S'.691'
p260
sS'_defensiveReboundPercentage'
p261
S'7.4'
p262
sS'_freeThrowsAttempRate'
p263
S'.429'
p264
sS'_threePointsAttempRate'
p265
S'.214'
p266
sg28
S'NBA'
p267
sS'_offensiveBoxPlusMinues'
p268
S'3.2'
p269
sS'_assistPercentage'
p270
S'24.6'
p271
sS'_defensiveWinShares'
p272
S'0.1'
p273
sg40
S'24'
p274
sg42
S'GSW'
p275
sg44
g45
sS'_blockPercentage'
p276
S'0.0'
p277
sS'_playerEfficiencyRating'
p278
S'18.5'
p279
sS'_offensiveWinShares'
p280
S'0.5'
p281
sg63
S'136'
p282
sS'_boxPlusMinus'
p283
S'-0.2'
p284
sg55
S'1992-93'
p285
sS'_winShares'
p286
S'0.6'
p287
sba(isrc.gp1.models.Advanced
Advanced
p288
(dp289
g242
S'1.6'
p290
sg244
S'15.8'
p291
sg246
S'.126'
p292
sg248
S'2.9'
p293
sg250
S'17.6'
p294
sg252
S'4.4'
p295
sg254
S'-2.3'
p296
sg22
S'PG'
p297
sg257
S'0.2'
p298
sg259
S'.547'
p299
sg261
S'7.1'
p300
sg263
S'.351'
p301
sg265
S'.442'
p302
sg28
S'NBA'
p303
sg268
S'1.0'
p304
sg270
S'26.1'
p305
sg272
S'0.9'
p306
sg40
S'25'
p307
sg42
S'GSW'
p308
sg44
S'76'
p309
sg276
S'0.0'
p310
sg278
S'15.5'
p311
sg280
S'2.0'
p312
sg63
S'1097'
p313
sg283
S'-1.3'
p314
sg55
S'1993-94'
p315
sg286
S'2.9'
p316
sba(isrc.gp1.models.Advanced
Advanced
p317
(dp318
g242
S'1.7'
p319
sg244
S'19.6'
p320
sg246
S'.117'
p321
sg248
S'2.7'
p322
sg250
S'15.0'
p323
sg252
S'4.8'
p324
sg254
S'-1.8'
p325
sg22
S'PG'
p326
sg257
S'0.6'
p327
sg259
S'.598'
p328
sg261
S'7.9'
p329
sg263
S'.360'
p330
sg265
S'.480'
p331
sg28
S'NBA'
p332
sg268
S'1.2'
p333
sg270
S'31.0'
p334
sg272
S'0.9'
p335
sg40
S'26'
p336
sg42
S'GSW'
p337
sg44
S'80'
p338
sg276
S'0.1'
p339
sg278
S'15.3'
p340
sg280
S'3.3'
p341
sg63
S'1722'
p342
sg283
S'-0.6'
p343
sg55
S'1994-95'
p344
sg286
S'4.2'
p345
sbasS'_per36Minutes'
p346
(lp347
(isrc.gp1.models.Per36Minutes
Per36Minutes
p348
(dp349
g8
S'0.5'
p350
sg10
S'2.4'
p351
sg12
S'.595'
p352
sg14
S'6.1'
p353
sg16
S'.556'
p354
sg18
S'1.3'
p355
sg20
S'18.3'
p356
sg22
S'PG'
p357
sg24
S'.778'
p358
sg28
S'NBA'
p359
sg30
S'1.1'
p360
sg32
S'11.1'
p361
sg34
S'4.8'
p362
sg36
S'4.8'
p363
sg38
S'2.9'
p364
sg40
S'24'
p365
sg42
S'GSW'
p366
sg44
g45
sg46
S'0.0'
p367
sg48
S'5.3'
p368
sg50
S'3.7'
p369
sg52
S'8.7'
p370
sg54
S'2.4'
p371
sg55
S'1992-93'
p372
sg57
S'6.6'
p373
sg59
S'1.9'
p374
sg61
S'.606'
p375
sg63
S'136'
p376
sg65
g47
sba(isrc.gp1.models.Per36Minutes
Per36Minutes
p377
(dp378
g8
S'0.5'
p379
sg10
S'5.0'
p380
sg12
S'.404'
p381
sg14
S'7.2'
p382
sg16
S'.371'
p383
sg18
S'1.8'
p384
sg20
S'14.2'
p385
sg22
S'PG'
p386
sg24
S'.833'
p387
sg28
S'NBA'
p388
sg30
S'2.1'
p389
sg32
S'11.2'
p390
sg34
S'2.0'
p391
sg36
S'3.9'
p392
sg38
S'2.9'
p393
sg40
S'25'
p394
sg42
S'GSW'
p395
sg44
S'76'
p396
sg46
S'0.0'
p397
sg48
S'2.7'
p398
sg50
S'3.3'
p399
sg52
S'6.3'
p400
sg54
S'2.4'
p401
sg55
S'1993-94'
p402
sg57
S'4.5'
p403
sg59
S'2.4'
p404
sg61
S'.429'
p405
sg63
S'1097'
p406
sg65
g9
sba(isrc.gp1.models.Per36Minutes
Per36Minutes
p407
(dp408
g8
S'0.5'
p409
sg10
S'4.3'
p410
sg12
S'.447'
p411
sg14
S'7.8'
p412
sg16
S'.368'
p413
sg18
S'1.6'
p414
sg20
S'12.3'
p415
sg22
S'PG'
p416
sg24
S'.876'
p417
sg28
S'NBA'
p418
sg30
S'2.0'
p419
sg32
S'8.9'
p420
sg34
S'2.8'
p421
sg36
S'3.2'
p422
sg38
S'3.1'
p423
sg40
S'26'
p424
sg42
S'GSW'
p425
sg44
S'80'
p426
sg46
S'0.0'
p427
sg48
S'2.4'
p428
sg50
S'2.8'
p429
sg52
S'4.6'
p430
sg54
S'2.6'
p431
sg55
S'1994-95'
p432
sg57
S'4.0'
p433
sg59
S'2.5'
p434
sg61
S'.520'
p435
sg63
S'1722'
p436
sg65
S'24'
p437
sbasS'_fromYear'
p438
S'1993'
p439
sS'_url'
p440
S'http://www.basketball-reference.com/players/j/jennike01.html'
p441
sS'_perGame'
p442
(isrc.gp1.models.PerGame
PerGame
p443
(dp444
g8
S'0.3'
p445
sg10
S'2.6'
p446
sg12
S'.447'
p447
sS'_effectiveFieldGalPercentage'
p448
S'.535'
p449
sg14
S'4.7'
p450
sg16
S'.368'
p451
sg18
S'0.9'
p452
sg20
S'7.4'
p453
sg22
S'PG'
p454
sg24
S'.876'
p455
sg28
S'NBA'
p456
sg30
S'1.2'
p457
sg34
S'1.7'
p458
sS'_fieldGoalsttempted'
p459
S'5.3'
p460
sg36
S'1.9'
p461
sg38
S'1.9'
p462
sg40
S'26'
p463
sg42
S'GSW'
p464
sg44
S'80'
p465
sg46
S'0.0'
p466
sg48
S'1.4'
p467
sg50
S'1.7'
p468
sg52
S'2.8'
p469
sg54
S'1.5'
p470
sg55
S'1994-95'
p471
sg57
S'2.4'
p472
sg59
S'1.5'
p473
sg61
S'.520'
p474
sg63
S'21.5'
p475
sg65
S'24'
p476
sbsS'_weight'
p477
S'160'
p478
sS'_dob'
p479
S'2-11-1968'
p480
sS'_salary'
p481
(lp482
(isrc.gp1.models.Salary
Salary
p483
(dp484
g42
S'Golden State Warriors'
p485
sg28
S'NBA'
p486
sg481
S'$140,000'
p487
sg55
S'1992-93'
p488
sba(isrc.gp1.models.Salary
Salary
p489
(dp490
g42
S'Golden State Warriors'
p491
sg28
S'NBA'
p492
sg481
S'$250,000'
p493
sg55
S'1993-94'
p494
sba(isrc.gp1.models.Salary
Salary
p495
(dp496
g42
S'Golden State Warriors'
p497
sg28
S'NBA'
p498
sg481
S'$350,000'
p499
sg55
S'1994-95'
p500
sba(isrc.gp1.models.Salary
Salary
p501
(dp502
g42
S'Denver Nuggets'
p503
sg28
S'NBA'
p504
sg481
S'$247,500'
p505
sg55
S'1996-97'
p506
sbasg22
S'G'
p507
sb.