(isrc.gp1.models.Player
Player
p0
(dp1
S'_experience'
p2
S'NA'
p3
sS'_totals'
p4
(lp5
(isrc.gp1.models.Totals
Totals
p6
(dp7
S'_offensiveRebounds'
p8
S'1'
p9
sS'_threePointsAttempted'
p10
S'0'
p11
sS'_fieldGoalsPercentage'
p12
S'.333'
p13
sS'_assist'
p14
g11
sS'_threePointsPercentage'
p15
g9
sS'_threePoints'
p16
g11
sS'_points'
p17
g3
sS'_position'
p18
S'PF'
p19
sS'_freeThrowsPercentage'
p20
g9
sS'_effectiveFieldGoalPercentage'
p21
g11
sS'_league'
p22
S'NBA'
p23
sS'_steals'
p24
g11
sS'_fieldGoalsAttempted'
p25
S'3'
p26
sS'_personalFouls'
p27
g3
sS'_freeThrowsAttempted'
p28
g11
sS'_totalRebounds'
p29
g11
sS'_age'
p30
S'23'
p31
sS'_team'
p32
S'MIA'
p33
sS'_games'
p34
S'2'
p35
sS'_blocks'
p36
g11
sS'_twoPoints'
p37
g26
sS'_freeThrows'
p38
g11
sS'_twoPointsAttempted'
p39
S'.333'
p40
sS'_defensiveRebounds'
p41
g11
sS'_season'
p42
S'2003-04'
p43
sS'_fieldGoals'
p44
g9
sS'_turnOvers'
p45
g35
sS'_twoPointsPercentage'
p46
S'.333'
p47
sS'_minutesPlayed'
p48
S'5'
p49
sS'_gamesStarted'
p50
g11
sbasS'_college'
p51
S'University of North Dakota'
p52
sS'_toYear'
p53
S'2004'
p54
sS'_height'
p55
S'6-10'
p56
sS'_active'
p57
I00
sS'_shootingHand'
p58
VRight
p59
sS'_name'
p60
S'Jerome Beasley'
p61
sS'_per100Possessions'
p62
(lp63
(isrc.gp1.models.Per100Possession
Per100Possession
p64
(dp65
g8
S'10.9'
p66
sg10
S'0.0'
p67
sg12
S'.333'
p68
sS'_offensiveRating'
p69
g3
sg14
S'0.0'
p70
sg15
S'10.9'
p71
sg16
S'0.0'
p72
sg17
S'104'
p73
sg18
S'PF'
p74
sS'_defensiveRating'
p75
g3
sg20
S'10.9'
p76
sg22
S'NBA'
p77
sg24
S'0.0'
p78
sg25
S'32.7'
p79
sg27
S'72'
p80
sg28
S'0.0'
p81
sg29
S'0.0'
p82
sg30
S'23'
p83
sg32
S'MIA'
p84
sg34
g35
sg36
S'0.0'
p85
sg37
S'32.7'
p86
sg38
S'0.0'
p87
sg39
S'.333'
p88
sg41
S'0.0'
p89
sg42
S'2003-04'
p90
sg44
S'10.9'
p91
sg45
S'21.8'
p92
sg46
S'0.0'
p93
sg48
g49
sg50
g11
sbasS'_advanced'
p94
(lp95
(isrc.gp1.models.Advanced
Advanced
p96
(dp97
S'_offensiveReboundPercentage'
p98
S'0.0'
p99
sS'_turnOverPercentage'
p100
S'0.0'
p101
sS'_winSharesPer48Minutes'
p102
S'-0.117'
p103
sS'_stealPercentage'
p104
S'0.0'
p105
sS'_usagePercentage'
p106
S'28.2'
p107
sS'_totalReboundsPercentage'
p108
S'11.7'
p109
sS'_defensiveBoxPlusMinus'
p110
S'-9.3'
p111
sg18
S'PF'
p112
sS'_valueOverReplacementPlayer'
p113
S'0.0'
p114
sS'_trueShootingPercentage'
p115
S'.333'
p116
sS'_defensiveReboundPercentage'
p117
S'23.6'
p118
sS'_freeThrowsAttempRate'
p119
S'.000'
p120
sS'_threePointsAttempRate'
p121
S'.000'
p122
sg22
S'NBA'
p123
sS'_offensiveBoxPlusMinues'
p124
S'-13.2'
p125
sS'_assistPercentage'
p126
S'0.0'
p127
sS'_defensiveWinShares'
p128
S'0.0'
p129
sg30
S'23'
p130
sg32
S'MIA'
p131
sg34
g35
sS'_blockPercentage'
p132
S'0.0'
p133
sS'_playerEfficiencyRating'
p134
S'5.9'
p135
sS'_offensiveWinShares'
p136
S'0.0'
p137
sg48
g49
sS'_boxPlusMinus'
p138
S'-22.4'
p139
sg42
S'2003-04'
p140
sS'_winShares'
p141
S'0.0'
p142
sbasS'_per36Minutes'
p143
(lp144
(isrc.gp1.models.Per36Minutes
Per36Minutes
p145
(dp146
g8
S'7.2'
p147
sg10
S'0.0'
p148
sg12
S'.333'
p149
sg14
S'0.0'
p150
sg15
S'7.2'
p151
sg16
S'0.0'
p152
sg17
g3
sg18
S'PF'
p153
sg20
S'7.2'
p154
sg22
S'NBA'
p155
sg24
S'0.0'
p156
sg25
S'21.6'
p157
sg27
g3
sg28
S'0.0'
p158
sg29
S'0.0'
p159
sg30
S'23'
p160
sg32
S'MIA'
p161
sg34
g35
sg36
S'0.0'
p162
sg37
S'21.6'
p163
sg38
S'0.0'
p164
sg39
S'.333'
p165
sg41
S'0.0'
p166
sg42
S'2003-04'
p167
sg44
S'7.2'
p168
sg45
S'14.4'
p169
sg46
S'0.0'
p170
sg48
g49
sg50
g11
sbasS'_fromYear'
p171
S'2004'
p172
sS'_url'
p173
S'http://www.basketball-reference.com/players/b/beaslje01.html'
p174
sS'_perGame'
p175
(isrc.gp1.models.PerGame
PerGame
p176
(dp177
g8
S'0.5'
p178
sg10
S'0.0'
p179
sg12
S'.333'
p180
sS'_effectiveFieldGalPercentage'
p181
S'0.0'
p182
sg14
S'0.0'
p183
sg15
S'0.5'
p184
sg16
S'0.0'
p185
sg17
g3
sg18
S'PF'
p186
sg20
S'0.5'
p187
sg22
S'NBA'
p188
sg24
S'0.0'
p189
sg27
g3
sS'_fieldGoalsttempted'
p190
S'1.5'
p191
sg28
S'0.0'
p192
sg29
S'0.0'
p193
sg30
S'23'
p194
sg32
S'MIA'
p195
sg34
g35
sg36
S'0.0'
p196
sg37
S'1.5'
p197
sg38
S'0.0'
p198
sg39
S'.333'
p199
sg41
S'0.0'
p200
sg42
S'2003-04'
p201
sg44
S'0.5'
p202
sg45
S'1.0'
p203
sg46
S'.333'
p204
sg48
S'2.5'
p205
sg50
g11
sbsS'_weight'
p206
S'237'
p207
sS'_dob'
p208
S'17-5-1980'
p209
sS'_salary'
p210
(lp211
(isrc.gp1.models.Salary
Salary
p212
(dp213
g32
S'Miami Heat'
p214
sg22
S'NBA'
p215
sg210
S'$366,931'
p216
sg42
S'2003-04'
p217
sba(isrc.gp1.models.Salary
Salary
p218
(dp219
g32
S'Miami Heat'
p220
sg22
S'NBA'
p221
sg210
S'$620,046'
p222
sg42
S'2004-05'
p223
sbasg18
S'F'
p224
sb.