(isrc.gp1.models.Player
Player
p0
(dp1
S'_experience'
p2
S'NA'
p3
sS'_totals'
p4
(lp5
(isrc.gp1.models.Totals
Totals
p6
(dp7
S'_offensiveRebounds'
p8
g3
sS'_threePointsAttempted'
p9
S'.415'
p10
sS'_fieldGoalsPercentage'
p11
S'120'
p12
sS'_assist'
p13
g3
sS'_threePointsPercentage'
p14
S'.415'
p15
sS'_threePoints'
p16
S'289'
p17
sS'_points'
p18
g3
sS'_position'
p19
S'SG'
p20
sS'_freeThrowsPercentage'
p21
S'338'
p22
sS'_effectiveFieldGoalPercentage'
p23
S'230'
p24
sS'_league'
p25
S'NBA'
p26
sS'_steals'
p27
g3
sS'_fieldGoalsAttempted'
p28
S'.415'
p29
sS'_personalFouls'
p30
g3
sS'_freeThrowsAttempted'
p31
S'176'
p32
sS'_totalRebounds'
p33
g3
sS'_age'
p34
S'23'
p35
sS'_team'
p36
S'BAL'
p37
sS'_games'
p38
S'59'
p39
sS'_blocks'
p40
g3
sS'_twoPoints'
p41
S'98'
p42
sS'_freeThrows'
p43
S'110'
p44
sS'_twoPointsAttempted'
p45
S'139'
p46
sS'_defensiveRebounds'
p47
g3
sS'_season'
p48
S'1965-66'
p49
sS'_fieldGoals'
p50
S'289'
p51
sS'_turnOvers'
p52
g3
sS'_twoPointsPercentage'
p53
S'.705'
p54
sS'_minutesPlayed'
p55
S'120'
p56
sS'_gamesStarted'
p57
S'952'
p58
sba(isrc.gp1.models.Totals
Totals
p59
(dp60
g8
g3
sg9
S'.432'
p61
sg11
S'525'
p62
sg13
g3
sg14
S'.432'
p63
sg16
S'1214'
p64
sg18
g3
sg19
S'SG'
p65
sg21
S'1390'
p66
sg23
S'726'
p67
sg25
S'NBA'
p68
sg27
g3
sg28
S'.432'
p69
sg30
g3
sg31
S'293'
p70
sg33
g3
sg34
S'24'
p71
sg36
S'CHI'
p72
sg38
S'80'
p73
sg40
g3
sg41
S'340'
p74
sg43
S'170'
p75
sg45
S'427'
p76
sg47
g3
sg48
S'1966-67'
p77
sg50
S'1214'
p78
sg52
g3
sg53
S'.796'
p79
sg55
S'525'
p80
sg57
S'2942'
p81
sba(isrc.gp1.models.Totals
Totals
p82
(dp83
g8
g3
sg9
S'.385'
p84
sg11
S'369'
p85
sg13
g3
sg14
S'.385'
p86
sg16
S'959'
p87
sg18
g3
sg19
S'SG'
p88
sg21
S'1027'
p89
sg23
S'591'
p90
sg25
S'NBA'
p91
sg27
g3
sg28
S'.385'
p92
sg30
g3
sg31
S'291'
p93
sg33
g3
sg34
S'25'
p94
sg36
S'CHI'
p95
sg38
S'77'
p96
sg40
g3
sg41
S'289'
p97
sg43
S'229'
p98
sg45
S'386'
p99
sg47
g3
sg48
S'1967-68'
p100
sg50
S'959'
p101
sg52
g3
sg53
S'.749'
p102
sg55
S'369'
p103
sg57
S'2454'
p104
sba(isrc.gp1.models.Totals
Totals
p105
(dp106
g8
g3
sg9
S'.417'
p107
sg11
S'488'
p108
sg13
g3
sg14
S'.417'
p109
sg16
S'1170'
p110
sg18
g3
sg19
S'SG'
p111
sg21
S'1309'
p112
sg23
S'619'
p113
sg25
S'NBA'
p114
sg27
g3
sg28
S'.417'
p115
sg30
g3
sg31
S'313'
p116
sg33
g3
sg34
S'26'
p117
sg36
S'CHI'
p118
sg38
S'78'
p119
sg40
g3
sg41
S'333'
p120
sg43
S'276'
p121
sg45
S'447'
p122
sg47
g3
sg48
S'1968-69'
p123
sg50
S'1170'
p124
sg52
g3
sg53
S'.745'
p125
sg55
S'488'
p126
sg57
S'2939'
p127
sba(isrc.gp1.models.Totals
Totals
p128
(dp129
g8
g3
sg9
S'.421'
p130
sg11
S'310'
p131
sg13
g3
sg14
S'.421'
p132
sg16
S'737'
p133
sg18
g3
sg19
S'SF'
p134
sg21
S'827'
p135
sg23
S'372'
p136
sg25
S'NBA'
p137
sg27
g3
sg28
S'.421'
p138
sg30
g3
sg31
S'179'
p139
sg33
g3
sg34
S'27'
p140
sg36
S'CHI'
p141
sg38
S'53'
p142
sg40
g3
sg41
S'207'
p143
sg43
S'165'
p144
sg45
S'318'
p145
sg47
g3
sg48
S'1969-70'
p146
sg50
S'737'
p147
sg52
g3
sg53
S'.651'
p148
sg55
S'310'
p149
sg57
S'1822'
p150
sba(isrc.gp1.models.Totals
Totals
p151
(dp152
g8
g3
sg9
S'.441'
p153
sg11
S'592'
p154
sg13
g3
sg14
S'.441'
p155
sg16
S'1342'
p156
sg18
g3
sg19
S'SG'
p157
sg21
S'1462'
p158
sg23
S'701'
p159
sg25
S'NBA'
p160
sg27
g3
sg28
S'.441'
p161
sg30
g3
sg31
S'289'
p162
sg33
g3
sg34
S'28'
p163
sg36
S'CHI'
p164
sg38
S'80'
p165
sg40
g3
sg41
S'278'
p166
sg43
S'281'
p167
sg45
S'389'
p168
sg47
g3
sg48
S'1970-71'
p169
sg50
S'1342'
p170
sg52
g3
sg53
S'.715'
p171
sg55
S'592'
p172
sg57
S'3140'
p173
sba(isrc.gp1.models.Totals
Totals
p174
(dp175
g8
g3
sg9
S'.444'
p176
sg11
S'535'
p177
sg13
g3
sg14
S'.444'
p178
sg16
S'1206'
p179
sg18
g3
sg19
S'SG'
p180
sg21
S'1328'
p181
sg23
S'691'
p182
sg25
S'NBA'
p183
sg27
g3
sg28
S'.444'
p184
sg30
g3
sg31
S'309'
p185
sg33
g3
sg34
S'29'
p186
sg36
S'CHI'
p187
sg38
S'82'
p188
sg40
g3
sg41
S'258'
p189
sg43
S'211'
p190
sg45
S'391'
p191
sg47
g3
sg48
S'1971-72'
p192
sg50
S'1206'
p193
sg52
g3
sg53
S'.660'
p194
sg55
S'535'
p195
sg57
S'3035'
p196
sba(isrc.gp1.models.Totals
Totals
p197
(dp198
g8
g3
sg9
S'.411'
p199
sg11
S'301'
p200
sg13
g3
sg14
S'.411'
p201
sg16
S'733'
p202
sg18
g3
sg19
S'SG'
p203
sg21
S'696'
p204
sg23
S'475'
p205
sg25
S'NBA'
p206
sg27
g3
sg28
S'.411'
p207
sg30
g3
sg31
S'235'
p208
sg33
g3
sg34
S'30'
p209
sg36
S'CHI'
p210
sg38
S'69'
p211
sg40
g3
sg41
S'94'
p212
sg43
S'151'
p213
sg45
S'133'
p214
sg47
g3
sg48
S'1972-73'
p215
sg50
S'733'
p216
sg52
g3
sg53
S'.707'
p217
sg55
S'301'
p218
sg57
S'2412'
p219
sba(isrc.gp1.models.Totals
Totals
p220
(dp221
g8
S'183'
p222
sg9
S'.447'
p223
sg11
S'412'
p224
sg13
S'1018'
p225
sg14
S'.447'
p226
sg16
S'921'
p227
sg18
g3
sg19
S'SG'
p228
sg21
S'149'
p229
sg23
S'150'
p230
sg25
S'NBA'
p231
sg27
g3
sg28
S'.447'
p232
sg30
g3
sg31
S'556'
p233
sg33
S'273'
p234
sg34
S'31'
p235
sg36
S'CHI'
p236
sg38
S'77'
p237
sg40
g3
sg41
S'194'
p238
sg43
S'406'
p239
sg45
S'273'
p240
sg47
S'10'
p241
sg48
S'1973-74'
p242
sg50
S'921'
p243
sg52
g3
sg53
S'.711'
p244
sg55
S'412'
p245
sg57
S'2860'
p246
sba(isrc.gp1.models.Totals
Totals
p247
(dp248
g8
S'171'
p249
sg9
S'.439'
p250
sg11
S'380'
p251
sg13
S'953'
p252
sg14
S'.439'
p253
sg16
S'865'
p254
sg18
g3
sg19
S'SG'
p255
sg21
S'161'
p256
sg23
S'177'
p257
sg25
S'NBA'
p258
sg27
g3
sg28
S'.439'
p259
sg30
g3
sg31
S'538'
p260
sg33
S'265'
p261
sg34
S'32'
p262
sg36
S'CHI'
p263
sg38
S'78'
p264
sg40
g3
sg41
S'193'
p265
sg43
S'361'
p266
sg45
S'258'
p267
sg47
S'17'
p268
sg48
S'1974-75'
p269
sg50
S'865'
p270
sg52
g3
sg53
S'.748'
p271
sg55
S'380'
p272
sg57
S'2577'
p273
sba(isrc.gp1.models.Totals
Totals
p274
(dp275
g8
S'27'
p276
sg9
S'.400'
p277
sg11
S'84'
p278
sg13
S'223'
p279
sg14
S'.400'
p280
sg16
S'210'
p281
sg18
g3
sg19
S'SG'
p282
sg21
S'22'
p283
sg23
S'40'
p284
sg25
S'NBA'
p285
sg27
g3
sg28
S'.400'
p286
sg30
g3
sg31
S'116'
p287
sg33
S'77'
p288
sg34
S'33'
p289
sg36
S'CHI'
p290
sg38
S'22'
p291
sg40
g3
sg41
S'55'
p292
sg43
S'76'
p293
sg45
S'78'
p294
sg47
S'5'
p295
sg48
S'1975-76'
p296
sg50
S'210'
p297
sg52
g3
sg53
S'.705'
p298
sg55
S'84'
p299
sg57
S'617'
p300
sbasS'_college'
p301
S'University of Evansville'
p302
sS'_toYear'
p303
S'1976'
p304
sS'_height'
p305
S'6-5'
p306
sS'_active'
p307
I00
sS'_shootingHand'
p308
VRight
p309
sS'_name'
p310
S'Jerry Sloan'
p311
sS'_per100Possessions'
p312
(lp313
(isrc.gp1.models.Per100Possession
Per100Possession
p314
(dp315
g8
S'2.9'
p316
sg9
S'.447'
p317
sg11
S'6.6'
p318
sS'_offensiveRating'
p319
g3
sg13
S'16.3'
p320
sg14
S'3.1'
p321
sg16
S'14.7'
p322
sg18
g3
sg19
S'SG'
p323
sS'_defensiveRating'
p324
g3
sg21
S'2.4'
p325
sg25
S'NBA'
p326
sg27
S'92'
p327
sg28
S'.447'
p328
sg30
g3
sg31
S'8.9'
p329
sg33
S'4.4'
p330
sg34
S'31'
p331
sg36
S'CHI'
p332
sg38
S'77'
p333
sg40
g3
sg41
S'4.4'
p334
sg43
S'6.5'
p335
sg45
S'.711'
p336
sg47
S'0.2'
p337
sg48
S'1973-74'
p338
sg50
S'14.7'
p339
sg52
g3
sg53
S'2.4'
p340
sg55
S'6.6'
p341
sg57
S'2860'
p342
sba(isrc.gp1.models.Per100Possession
Per100Possession
p343
(dp344
g8
S'3.2'
p345
sg9
S'.439'
p346
sg11
S'7.1'
p347
sg319
g3
sg13
S'17.8'
p348
sg14
S'3.6'
p349
sg16
S'16.2'
p350
sg18
g3
sg19
S'SG'
p351
sg324
g3
sg21
S'3.0'
p352
sg25
S'NBA'
p353
sg27
S'92'
p354
sg28
S'.439'
p355
sg30
g3
sg31
S'10.1'
p356
sg33
S'5.0'
p357
sg34
S'32'
p358
sg36
S'CHI'
p359
sg38
S'78'
p360
sg40
g3
sg41
S'4.8'
p361
sg43
S'6.7'
p362
sg45
S'.748'
p363
sg47
S'0.3'
p364
sg48
S'1974-75'
p365
sg50
S'16.2'
p366
sg52
g3
sg53
S'3.3'
p367
sg55
S'7.1'
p368
sg57
S'2577'
p369
sba(isrc.gp1.models.Per100Possession
Per100Possession
p370
(dp371
g8
S'2.1'
p372
sg9
S'.400'
p373
sg11
S'6.5'
p374
sg319
g3
sg13
S'17.3'
p375
sg14
S'4.3'
p376
sg16
S'16.3'
p377
sg18
g3
sg19
S'SG'
p378
sg324
g3
sg21
S'1.7'
p379
sg25
S'NBA'
p380
sg27
S'97'
p381
sg28
S'.400'
p382
sg30
g3
sg31
S'9.0'
p383
sg33
S'6.0'
p384
sg34
S'33'
p385
sg36
S'CHI'
p386
sg38
S'22'
p387
sg40
g3
sg41
S'6.1'
p388
sg43
S'5.9'
p389
sg45
S'.705'
p390
sg47
S'0.4'
p391
sg48
S'1975-76'
p392
sg50
S'16.3'
p393
sg52
g3
sg53
S'3.1'
p394
sg55
S'6.5'
p395
sg57
S'617'
p396
sbasS'_advanced'
p397
(lp398
(isrc.gp1.models.Advanced
Advanced
p399
(dp400
S'_offensiveReboundPercentage'
p401
S'0.7'
p402
sS'_turnOverPercentage'
p403
g3
sS'_winSharesPer48Minutes'
p404
g3
sS'_stealPercentage'
p405
g3
sS'_usagePercentage'
p406
g3
sS'_totalReboundsPercentage'
p407
S'1.4'
p408
sS'_defensiveBoxPlusMinus'
p409
g3
sg19
S'SG'
p410
sS'_valueOverReplacementPlayer'
p411
g3
sS'_trueShootingPercentage'
p412
S'.483'
p413
sS'_defensiveReboundPercentage'
p414
S'0.7'
p415
sS'_freeThrowsAttempRate'
p416
S'14.3'
p417
sS'_threePointsAttempRate'
p418
S'.481'
p419
sg25
S'NBA'
p420
sS'_offensiveBoxPlusMinues'
p421
g3
sS'_assistPercentage'
p422
S'.072'
p423
sS'_defensiveWinShares'
p424
g3
sg34
S'23'
p425
sg36
S'BAL'
p426
sg38
S'59'
p427
sS'_blockPercentage'
p428
g3
sS'_playerEfficiencyRating'
p429
S'11.1'
p430
sS'_offensiveWinShares'
p431
g3
sg55
S'952'
p432
sS'_boxPlusMinus'
p433
g3
sg48
S'1965-66'
p434
sS'_winShares'
p435
g3
sba(isrc.gp1.models.Advanced
Advanced
p436
(dp437
g401
S'3.1'
p438
sg403
g3
sg404
g3
sg405
g3
sg406
g3
sg407
S'6.5'
p439
sg409
g3
sg19
S'SG'
p440
sg411
g3
sg412
S'.496'
p441
sg414
S'3.4'
p442
sg416
S'7.8'
p443
sg418
S'.352'
p444
sg25
S'NBA'
p445
sg421
g3
sg422
S'.106'
p446
sg424
g3
sg34
S'24'
p447
sg36
S'CHI'
p448
sg38
S'80'
p449
sg428
g3
sg429
S'14.2'
p450
sg431
g3
sg55
S'2942'
p451
sg433
g3
sg48
S'1966-67'
p452
sg435
g3
sba(isrc.gp1.models.Advanced
Advanced
p453
(dp454
g401
S'-0.1'
p455
sg403
g3
sg404
g3
sg405
g3
sg406
g3
sg407
S'2.6'
p456
sg409
g3
sg19
S'SG'
p457
sg411
g3
sg412
S'.455'
p458
sg414
S'2.7'
p459
sg416
S'12.8'
p460
sg418
S'.403'
p461
sg25
S'NBA'
p462
sg421
g3
sg422
S'.051'
p463
sg424
g3
sg34
S'25'
p464
sg36
S'CHI'
p465
sg38
S'77'
p466
sg428
g3
sg429
S'13.2'
p467
sg431
g3
sg55
S'2454'
p468
sg433
g3
sg48
S'1967-68'
p469
sg435
g3
sba(isrc.gp1.models.Advanced
Advanced
p470
(dp471
g401
S'2.3'
p472
sg403
g3
sg404
g3
sg405
g3
sg406
g3
sg407
S'6.4'
p473
sg409
g3
sg19
S'SG'
p474
sg411
g3
sg412
S'.479'
p475
sg414
S'4.1'
p476
sg416
S'13.7'
p477
sg418
S'.382'
p478
sg25
S'NBA'
p479
sg421
g3
sg422
S'.104'
p480
sg424
g3
sg34
S'26'
p481
sg36
S'CHI'
p482
sg38
S'78'
p483
sg428
g3
sg429
S'14.9'
p484
sg431
g3
sg55
S'2939'
p485
sg433
g3
sg48
S'1968-69'
p486
sg435
g3
sba(isrc.gp1.models.Advanced
Advanced
p487
(dp488
g401
S'0.1'
p489
sg403
g3
sg404
g3
sg405
g3
sg406
g3
sg407
S'1.9'
p490
sg409
g3
sg19
S'SF'
p491
sg411
g3
sg412
S'.472'
p492
sg414
S'1.8'
p493
sg416
S'12.3'
p494
sg418
S'.431'
p495
sg25
S'NBA'
p496
sg421
g3
sg422
S'.050'
p497
sg424
g3
sg34
S'27'
p498
sg36
S'CHI'
p499
sg38
S'53'
p500
sg428
g3
sg429
S'12.6'
p501
sg431
g3
sg55
S'1822'
p502
sg433
g3
sg48
S'1969-70'
p503
sg435
g3
sba(isrc.gp1.models.Advanced
Advanced
p504
(dp505
g401
S'13.0'
p506
sg403
g3
sg404
g3
sg405
S'.092'
p507
sg406
g3
sg407
S'4.1'
p508
sg409
g3
sg19
S'SG'
p509
sg411
g3
sg412
S'.483'
p510
sg414
S'1.9'
p511
sg416
S'10.6'
p512
sg418
S'.290'
p513
sg25
S'NBA'
p514
sg421
g3
sg422
S'6.0'
p515
sg424
g3
sg34
S'28'
p516
sg36
S'CHI'
p517
sg38
S'80'
p518
sg428
g3
sg429
S'14.6'
p519
sg431
g3
sg55
S'3140'
p520
sg433
g3
sg48
S'1970-71'
p521
sg435
g3
sba(isrc.gp1.models.Advanced
Advanced
p522
(dp523
g401
S'9.7'
p524
sg403
g3
sg404
g3
sg405
S'.114'
p525
sg406
g3
sg407
S'5.9'
p526
sg409
g3
sg19
S'SG'
p527
sg411
g3
sg412
S'.482'
p528
sg414
S'1.3'
p529
sg416
S'10.9'
p530
sg418
S'.324'
p531
sg25
S'NBA'
p532
sg421
g3
sg422
S'7.2'
p533
sg424
g3
sg34
S'29'
p534
sg36
S'CHI'
p535
sg38
S'82'
p536
sg428
g3
sg429
S'13.4'
p537
sg431
g3
sg55
S'3035'
p538
sg433
g3
sg48
S'1971-72'
p539
sg435
g3
sba(isrc.gp1.models.Advanced
Advanced
p540
(dp541
g401
S'8.3'
p542
sg403
g3
sg404
g3
sg405
S'.058'
p543
sg406
g3
sg407
S'3.9'
p544
sg409
g3
sg19
S'SG'
p545
sg411
g3
sg412
S'.440'
p546
sg414
S'-0.9'
p547
sg416
S'9.9'
p548
sg418
S'.181'
p549
sg25
S'NBA'
p550
sg421
g3
sg422
S'2.9'
p551
sg424
g3
sg34
S'30'
p552
sg36
S'CHI'
p553
sg38
S'69'
p554
sg428
g3
sg429
S'9.3'
p555
sg431
g3
sg55
S'2412'
p556
sg433
g3
sg48
S'1972-73'
p557
sg435
g3
sba(isrc.gp1.models.Advanced
Advanced
p558
(dp559
g401
S'15.0'
p560
sg403
S'5.2'
p561
sg404
S'1.4'
p562
sg405
S'0.2'
p563
sg406
S'6.8'
p564
sg407
S'7.6'
p565
sg409
g3
sg19
S'SG'
p566
sg411
g3
sg412
S'.489'
p567
sg414
S'10.1'
p568
sg416
S'5.4'
p569
sg418
S'.296'
p570
sg25
S'NBA'
p571
sg421
S'2.5'
p572
sg422
S'2.9'
p573
sg424
S'-1.3'
p574
sg34
S'31'
p575
sg36
S'CHI'
p576
sg38
S'77'
p577
sg428
S'1.5'
p578
sg429
S'12.6'
p579
sg431
S'.114'
p580
sg55
S'2860'
p581
sg433
g3
sg48
S'1973-74'
p582
sg435
S'2.7'
p583
sba(isrc.gp1.models.Advanced
Advanced
p584
(dp585
g401
S'14.7'
p586
sg403
S'4.7'
p587
sg404
S'2.1'
p588
sg405
S'0.4'
p589
sg406
S'7.0'
p590
sg407
S'9.6'
p591
sg409
g3
sg19
S'SG'
p592
sg411
g3
sg412
S'.487'
p593
sg414
S'11.0'
p594
sg416
S'7.3'
p595
sg418
S'.298'
p596
sg25
S'NBA'
p597
sg421
S'2.7'
p598
sg422
S'3.2'
p599
sg424
S'-0.2'
p600
sg34
S'32'
p601
sg36
S'CHI'
p602
sg38
S'78'
p603
sg428
S'2.2'
p604
sg429
S'14.4'
p605
sg431
S'.130'
p606
sg55
S'2577'
p607
sg433
g3
sg48
S'1974-75'
p608
sg435
S'2.3'
p609
sba(isrc.gp1.models.Advanced
Advanced
p610
(dp611
g401
S'13.3'
p612
sg403
S'0.7'
p613
sg404
S'-2.5'
p614
sg405
S'0.5'
p615
sg406
S'0.9'
p616
sg407
S'5.5'
p617
sg409
g3
sg19
S'SG'
p618
sg411
g3
sg412
S'.456'
p619
sg414
S'9.5'
p620
sg416
S'6.1'
p621
sg418
S'.371'
p622
sg25
S'NBA'
p623
sg421
S'-0.1'
p624
sg422
S'2.1'
p625
sg424
S'-2.6'
p626
sg34
S'33'
p627
sg36
S'CHI'
p628
sg38
S'22'
p629
sg428
S'0.2'
p630
sg429
S'11.2'
p631
sg431
S'.068'
p632
sg55
S'617'
p633
sg433
g3
sg48
S'1975-76'
p634
sg435
S'0.1'
p635
sbasS'_per36Minutes'
p636
(lp637
(isrc.gp1.models.Per36Minutes
Per36Minutes
p638
(dp639
g8
g3
sg9
S'.415'
p640
sg11
S'4.5'
p641
sg13
g3
sg14
S'3.7'
p642
sg16
S'10.9'
p643
sg18
g3
sg19
S'SG'
p644
sg21
S'12.8'
p645
sg25
S'NBA'
p646
sg27
g3
sg28
S'.415'
p647
sg30
g3
sg31
S'6.7'
p648
sg33
g3
sg34
S'23'
p649
sg36
S'BAL'
p650
sg38
S'59'
p651
sg40
g3
sg41
S'5.3'
p652
sg43
S'4.2'
p653
sg45
S'.705'
p654
sg47
g3
sg48
S'1965-66'
p655
sg50
S'10.9'
p656
sg52
g3
sg53
S'8.7'
p657
sg55
S'4.5'
p658
sg57
S'952'
p659
sba(isrc.gp1.models.Per36Minutes
Per36Minutes
p660
(dp661
g8
g3
sg9
S'.432'
p662
sg11
S'6.4'
p663
sg13
g3
sg14
S'4.2'
p664
sg16
S'14.9'
p665
sg18
g3
sg19
S'SG'
p666
sg21
S'17.0'
p667
sg25
S'NBA'
p668
sg27
g3
sg28
S'.432'
p669
sg30
g3
sg31
S'3.6'
p670
sg33
g3
sg34
S'24'
p671
sg36
S'CHI'
p672
sg38
S'80'
p673
sg40
g3
sg41
S'5.2'
p674
sg43
S'2.1'
p675
sg45
S'.796'
p676
sg47
g3
sg48
S'1966-67'
p677
sg50
S'14.9'
p678
sg52
g3
sg53
S'8.9'
p679
sg55
S'6.4'
p680
sg57
S'2942'
p681
sba(isrc.gp1.models.Per36Minutes
Per36Minutes
p682
(dp683
g8
g3
sg9
S'.385'
p684
sg11
S'5.4'
p685
sg13
g3
sg14
S'4.2'
p686
sg16
S'14.1'
p687
sg18
g3
sg19
S'SG'
p688
sg21
S'15.1'
p689
sg25
S'NBA'
p690
sg27
g3
sg28
S'.385'
p691
sg30
g3
sg31
S'4.3'
p692
sg33
g3
sg34
S'25'
p693
sg36
S'CHI'
p694
sg38
S'77'
p695
sg40
g3
sg41
S'5.7'
p696
sg43
S'3.4'
p697
sg45
S'.749'
p698
sg47
g3
sg48
S'1967-68'
p699
sg50
S'14.1'
p700
sg52
g3
sg53
S'8.7'
p701
sg55
S'5.4'
p702
sg57
S'2454'
p703
sba(isrc.gp1.models.Per36Minutes
Per36Minutes
p704
(dp705
g8
g3
sg9
S'.417'
p706
sg11
S'6.0'
p707
sg13
g3
sg14
S'4.1'
p708
sg16
S'14.3'
p709
sg18
g3
sg19
S'SG'
p710
sg21
S'16.0'
p711
sg25
S'NBA'
p712
sg27
g3
sg28
S'.417'
p713
sg30
g3
sg31
S'3.8'
p714
sg33
g3
sg34
S'26'
p715
sg36
S'CHI'
p716
sg38
S'78'
p717
sg40
g3
sg41
S'5.5'
p718
sg43
S'3.4'
p719
sg45
S'.745'
p720
sg47
g3
sg48
S'1968-69'
p721
sg50
S'14.3'
p722
sg52
g3
sg53
S'7.6'
p723
sg55
S'6.0'
p724
sg57
S'2939'
p725
sba(isrc.gp1.models.Per36Minutes
Per36Minutes
p726
(dp727
g8
g3
sg9
S'.421'
p728
sg11
S'6.1'
p729
sg13
g3
sg14
S'4.1'
p730
sg16
S'14.6'
p731
sg18
g3
sg19
S'SF'
p732
sg21
S'16.3'
p733
sg25
S'NBA'
p734
sg27
g3
sg28
S'.421'
p735
sg30
g3
sg31
S'3.5'
p736
sg33
g3
sg34
S'27'
p737
sg36
S'CHI'
p738
sg38
S'53'
p739
sg40
g3
sg41
S'6.3'
p740
sg43
S'3.3'
p741
sg45
S'.651'
p742
sg47
g3
sg48
S'1969-70'
p743
sg50
S'14.6'
p744
sg52
g3
sg53
S'7.4'
p745
sg55
S'6.1'
p746
sg57
S'1822'
p747
sba(isrc.gp1.models.Per36Minutes
Per36Minutes
p748
(dp749
g8
g3
sg9
S'.441'
p750
sg11
S'6.8'
p751
sg13
g3
sg14
S'3.2'
p752
sg16
S'15.4'
p753
sg18
g3
sg19
S'SG'
p754
sg21
S'16.8'
p755
sg25
S'NBA'
p756
sg27
g3
sg28
S'.441'
p757
sg30
g3
sg31
S'3.3'
p758
sg33
g3
sg34
S'28'
p759
sg36
S'CHI'
p760
sg38
S'80'
p761
sg40
g3
sg41
S'4.5'
p762
sg43
S'3.2'
p763
sg45
S'.715'
p764
sg47
g3
sg48
S'1970-71'
p765
sg50
S'15.4'
p766
sg52
g3
sg53
S'8.0'
p767
sg55
S'6.8'
p768
sg57
S'3140'
p769
sba(isrc.gp1.models.Per36Minutes
Per36Minutes
p770
(dp771
g8
g3
sg9
S'.444'
p772
sg11
S'6.3'
p773
sg13
g3
sg14
S'3.1'
p774
sg16
S'14.3'
p775
sg18
g3
sg19
S'SG'
p776
sg21
S'15.8'
p777
sg25
S'NBA'
p778
sg27
g3
sg28
S'.444'
p779
sg30
g3
sg31
S'3.7'
p780
sg33
g3
sg34
S'29'
p781
sg36
S'CHI'
p782
sg38
S'82'
p783
sg40
g3
sg41
S'4.6'
p784
sg43
S'2.5'
p785
sg45
S'.660'
p786
sg47
g3
sg48
S'1971-72'
p787
sg50
S'14.3'
p788
sg52
g3
sg53
S'8.2'
p789
sg55
S'6.3'
p790
sg57
S'3035'
p791
sba(isrc.gp1.models.Per36Minutes
Per36Minutes
p792
(dp793
g8
g3
sg9
S'.411'
p794
sg11
S'4.5'
p795
sg13
g3
sg14
S'1.4'
p796
sg16
S'10.9'
p797
sg18
g3
sg19
S'SG'
p798
sg21
S'10.4'
p799
sg25
S'NBA'
p800
sg27
g3
sg28
S'.411'
p801
sg30
g3
sg31
S'3.5'
p802
sg33
g3
sg34
S'30'
p803
sg36
S'CHI'
p804
sg38
S'69'
p805
sg40
g3
sg41
S'2.0'
p806
sg43
S'2.3'
p807
sg45
S'.707'
p808
sg47
g3
sg48
S'1972-73'
p809
sg50
S'10.9'
p810
sg52
g3
sg53
S'7.1'
p811
sg55
S'4.5'
p812
sg57
S'2412'
p813
sba(isrc.gp1.models.Per36Minutes
Per36Minutes
p814
(dp815
g8
S'2.3'
p816
sg9
S'.447'
p817
sg11
S'5.2'
p818
sg13
S'12.8'
p819
sg14
S'2.4'
p820
sg16
S'11.6'
p821
sg18
g3
sg19
S'SG'
p822
sg21
S'1.9'
p823
sg25
S'NBA'
p824
sg27
g3
sg28
S'.447'
p825
sg30
g3
sg31
S'7.0'
p826
sg33
S'3.4'
p827
sg34
S'31'
p828
sg36
S'CHI'
p829
sg38
S'77'
p830
sg40
g3
sg41
S'3.4'
p831
sg43
S'5.1'
p832
sg45
S'.711'
p833
sg47
S'0.1'
p834
sg48
S'1973-74'
p835
sg50
S'11.6'
p836
sg52
g3
sg53
S'1.9'
p837
sg55
S'5.2'
p838
sg57
S'2860'
p839
sba(isrc.gp1.models.Per36Minutes
Per36Minutes
p840
(dp841
g8
S'2.4'
p842
sg9
S'.439'
p843
sg11
S'5.3'
p844
sg13
S'13.3'
p845
sg14
S'2.7'
p846
sg16
S'12.1'
p847
sg18
g3
sg19
S'SG'
p848
sg21
S'2.2'
p849
sg25
S'NBA'
p850
sg27
g3
sg28
S'.439'
p851
sg30
g3
sg31
S'7.5'
p852
sg33
S'3.7'
p853
sg34
S'32'
p854
sg36
S'CHI'
p855
sg38
S'78'
p856
sg40
g3
sg41
S'3.6'
p857
sg43
S'5.0'
p858
sg45
S'.748'
p859
sg47
S'0.2'
p860
sg48
S'1974-75'
p861
sg50
S'12.1'
p862
sg52
g3
sg53
S'2.5'
p863
sg55
S'5.3'
p864
sg57
S'2577'
p865
sba(isrc.gp1.models.Per36Minutes
Per36Minutes
p866
(dp867
g8
S'1.6'
p868
sg9
S'.400'
p869
sg11
S'4.9'
p870
sg13
S'13.0'
p871
sg14
S'3.2'
p872
sg16
S'12.3'
p873
sg18
g3
sg19
S'SG'
p874
sg21
S'1.3'
p875
sg25
S'NBA'
p876
sg27
g3
sg28
S'.400'
p877
sg30
g3
sg31
S'6.8'
p878
sg33
S'4.5'
p879
sg34
S'33'
p880
sg36
S'CHI'
p881
sg38
S'22'
p882
sg40
g3
sg41
S'4.6'
p883
sg43
S'4.4'
p884
sg45
S'.705'
p885
sg47
S'0.3'
p886
sg48
S'1975-76'
p887
sg50
S'12.3'
p888
sg52
g3
sg53
S'2.3'
p889
sg55
S'4.9'
p890
sg57
S'617'
p891
sbasS'_fromYear'
p892
S'1966'
p893
sS'_url'
p894
S'http://www.basketball-reference.com/players/s/sloanje01.html'
p895
sS'_perGame'
p896
(isrc.gp1.models.PerGame
PerGame
p897
(dp898
g8
S'1.2'
p899
sg9
S'.400'
p900
sg11
S'3.8'
p901
sS'_effectiveFieldGalPercentage'
p902
S'1.8'
p903
sg13
S'10.1'
p904
sg14
S'.400'
p905
sg16
S'9.5'
p906
sg18
g3
sg19
S'SG'
p907
sg21
S'1.0'
p908
sg25
S'NBA'
p909
sg27
g3
sg30
g3
sS'_fieldGoalsttempted'
p910
S'.400'
p911
sg31
S'5.3'
p912
sg33
S'3.5'
p913
sg34
S'33'
p914
sg36
S'CHI'
p915
sg38
S'22'
p916
sg40
g3
sg41
S'2.5'
p917
sg43
S'3.5'
p918
sg45
S'3.5'
p919
sg47
S'0.2'
p920
sg48
S'1975-76'
p921
sg50
S'9.5'
p922
sg52
g3
sg53
S'.705'
p923
sg55
S'3.8'
p924
sg57
S'28.0'
p925
sbsS'_weight'
p926
S'195'
p927
sS'_dob'
p928
S'28-3-1942'
p929
sS'_salary'
p930
(lp931
sg19
S'G-F'
p932
sb.