(isrc.gp1.models.Player
Player
p0
(dp1
S'_experience'
p2
S'NA'
p3
sS'_totals'
p4
(lp5
(isrc.gp1.models.Totals
Totals
p6
(dp7
S'_offensiveRebounds'
p8
S'2'
p9
sS'_threePointsAttempted'
p10
S'.279'
p11
sS'_fieldGoalsPercentage'
p12
S'12'
p13
sS'_assist'
p14
S'31'
p15
sS'_threePointsPercentage'
p16
S'.279'
p17
sS'_threePoints'
p18
S'43'
p19
sS'_points'
p20
g3
sS'_position'
p21
S'SF'
p22
sS'_freeThrowsPercentage'
p23
S'4'
p24
sS'_effectiveFieldGoalPercentage'
p25
S'13'
p26
sS'_league'
p27
S'NBA'
p28
sS'_steals'
p29
g3
sS'_fieldGoalsAttempted'
p30
S'.279'
p31
sS'_personalFouls'
p32
g3
sS'_freeThrowsAttempted'
p33
S'45'
p34
sS'_totalRebounds'
p35
S'23'
p36
sS'_age'
p37
S'25'
p38
sS'_team'
p39
S'ATL'
p40
sS'_games'
p41
S'32'
p42
sS'_blocks'
p43
g3
sS'_twoPoints'
p44
S'7'
p45
sS'_freeThrows'
p46
S'32'
p47
sS'_twoPointsAttempted'
p48
S'16'
p49
sS'_defensiveRebounds'
p50
S'9'
p51
sS'_season'
p52
S'1975-76'
p53
sS'_fieldGoals'
p54
S'43'
p55
sS'_turnOvers'
p56
g3
sS'_twoPointsPercentage'
p57
S'.438'
p58
sS'_minutesPlayed'
p59
S'12'
p60
sS'_gamesStarted'
p61
S'172'
p62
sbasS'_college'
p63
S'University of Colorado'
p64
sS'_toYear'
p65
S'1976'
p66
sS'_height'
p67
S'6-8'
p68
sS'_active'
p69
I00
sS'_shootingHand'
p70
VRight
p71
sS'_name'
p72
S'Jim Creighton'
p73
sS'_per100Possessions'
p74
(lp75
(isrc.gp1.models.Per100Possession
Per100Possession
p76
(dp77
g8
S'0.5'
p78
sg10
S'.279'
p79
sg12
S'3.2'
p80
sS'_offensiveRating'
p81
g3
sg14
S'8.4'
p82
sg16
S'1.9'
p83
sg18
S'11.6'
p84
sg20
g3
sg21
S'SF'
p85
sS'_defensiveRating'
p86
g3
sg23
S'1.1'
p87
sg27
S'NBA'
p88
sg29
S'100'
p89
sg30
S'.279'
p90
sg32
g3
sg33
S'12.1'
p91
sg35
S'6.2'
p92
sg37
S'25'
p93
sg39
S'ATL'
p94
sg41
S'32'
p95
sg43
g3
sg44
S'4.3'
p96
sg46
S'8.6'
p97
sg48
S'.438'
p98
sg50
S'2.4'
p99
sg52
S'1975-76'
p100
sg54
S'11.6'
p101
sg56
g3
sg57
S'3.5'
p102
sg59
S'3.2'
p103
sg61
S'172'
p104
sbasS'_advanced'
p105
(lp106
(isrc.gp1.models.Advanced
Advanced
p107
(dp108
S'_offensiveReboundPercentage'
p109
S'19.8'
p110
sS'_turnOverPercentage'
p111
S'0.1'
p112
sS'_winSharesPer48Minutes'
p113
S'-9.9'
p114
sS'_stealPercentage'
p115
S'2.8'
p116
sS'_usagePercentage'
p117
S'-0.2'
p118
sS'_totalReboundsPercentage'
p119
S'3.0'
p120
sS'_defensiveBoxPlusMinus'
p121
g3
sg21
S'SF'
p122
sS'_valueOverReplacementPlayer'
p123
g3
sS'_trueShootingPercentage'
p124
S'.310'
p125
sS'_defensiveReboundPercentage'
p126
S'13.5'
p127
sS'_freeThrowsAttempRate'
p128
S'7.6'
p129
sS'_threePointsAttempRate'
p130
S'.372'
p131
sg27
S'NBA'
p132
sS'_offensiveBoxPlusMinues'
p133
S'-0.3'
p134
sS'_assistPercentage'
p135
S'0.5'
p136
sS'_defensiveWinShares'
p137
S'-8.8'
p138
sg37
S'25'
p139
sg39
S'ATL'
p140
sg41
S'32'
p141
sS'_blockPercentage'
p142
S'-0.4'
p143
sS'_playerEfficiencyRating'
p144
S'5.5'
p145
sS'_offensiveWinShares'
p146
S'-0.063'
p147
sg59
S'172'
p148
sS'_boxPlusMinus'
p149
g3
sg52
S'1975-76'
p150
sS'_winShares'
p151
S'-1.1'
p152
sbasS'_per36Minutes'
p153
(lp154
(isrc.gp1.models.Per36Minutes
Per36Minutes
p155
(dp156
g8
S'0.4'
p157
sg10
S'.279'
p158
sg12
S'2.5'
p159
sg14
S'6.5'
p160
sg16
S'1.5'
p161
sg18
S'9.0'
p162
sg20
g3
sg21
S'SF'
p163
sg23
S'0.8'
p164
sg27
S'NBA'
p165
sg29
g3
sg30
S'.279'
p166
sg32
g3
sg33
S'9.4'
p167
sg35
S'4.8'
p168
sg37
S'25'
p169
sg39
S'ATL'
p170
sg41
S'32'
p171
sg43
g3
sg44
S'3.3'
p172
sg46
S'6.7'
p173
sg48
S'.438'
p174
sg50
S'1.9'
p175
sg52
S'1975-76'
p176
sg54
S'9.0'
p177
sg56
g3
sg57
S'2.7'
p178
sg59
S'2.5'
p179
sg61
S'172'
p180
sbasS'_fromYear'
p181
S'1976'
p182
sS'_url'
p183
S'http://www.basketball-reference.com/players/c/creigji01.html'
p184
sS'_perGame'
p185
(isrc.gp1.models.PerGame
PerGame
p186
(dp187
g8
S'0.1'
p188
sg10
S'.279'
p189
sg12
S'0.4'
p190
sS'_effectiveFieldGalPercentage'
p191
S'0.4'
p192
sg14
S'1.0'
p193
sg16
S'.279'
p194
sg18
S'1.3'
p195
sg20
g3
sg21
S'SF'
p196
sg23
S'0.1'
p197
sg27
S'NBA'
p198
sg29
g3
sg32
g3
sS'_fieldGoalsttempted'
p199
S'.279'
p200
sg33
S'1.4'
p201
sg35
S'0.7'
p202
sg37
S'25'
p203
sg39
S'ATL'
p204
sg41
S'32'
p205
sg43
g3
sg44
S'0.2'
p206
sg46
S'1.0'
p207
sg48
S'0.5'
p208
sg50
S'0.3'
p209
sg52
S'1975-76'
p210
sg54
S'1.3'
p211
sg56
g3
sg57
S'.438'
p212
sg59
S'0.4'
p213
sg61
S'5.4'
p214
sbsS'_weight'
p215
S'200'
p216
sS'_dob'
p217
S'18-4-1950'
p218
sS'_salary'
p219
(lp220
sg21
S'F'
p221
sb.