(isrc.gp1.models.Player
Player
p0
(dp1
S'_experience'
p2
S'NA'
p3
sS'_totals'
p4
(lp5
(isrc.gp1.models.Totals
Totals
p6
(dp7
S'_offensiveRebounds'
p8
g3
sS'_threePointsAttempted'
p9
S'.358'
p10
sS'_fieldGoalsPercentage'
p11
S'98'
p12
sS'_assist'
p13
g3
sS'_threePointsPercentage'
p14
S'.358'
p15
sS'_threePoints'
p16
S'274'
p17
sS'_points'
p18
g3
sS'_position'
p19
S'SF'
p20
sS'_freeThrowsPercentage'
p21
S'266'
p22
sS'_effectiveFieldGoalPercentage'
p23
S'173'
p24
sS'_league'
p25
S'NBA'
p26
sS'_steals'
p27
g3
sS'_fieldGoalsAttempted'
p28
S'.358'
p29
sS'_personalFouls'
p30
g3
sS'_freeThrowsAttempted'
p31
S'128'
p32
sS'_totalRebounds'
p33
g3
sS'_age'
p34
S'22'
p35
sS'_team'
p36
S'MNL'
p37
sS'_games'
p38
S'66'
p39
sS'_blocks'
p40
g3
sS'_twoPoints'
p41
S'70'
p42
sS'_freeThrows'
p43
S'74'
p44
sS'_twoPointsAttempted'
p45
S'105'
p46
sS'_defensiveRebounds'
p47
g3
sS'_season'
p48
S'1952-53'
p49
sS'_fieldGoals'
p50
S'274'
p51
sS'_turnOvers'
p52
g3
sS'_twoPointsPercentage'
p53
S'.667'
p54
sS'_minutesPlayed'
p55
S'98'
p56
sS'_gamesStarted'
p57
S'989'
p58
sba(isrc.gp1.models.Totals
Totals
p59
(dp60
g8
g3
sg9
S'.306'
p61
sg11
S'88'
p62
sg13
g3
sg14
S'.306'
p63
sg16
S'288'
p64
sg18
g3
sg19
S'SF'
p65
sg21
S'240'
p66
sg23
S'204'
p67
sg25
S'NBA'
p68
sg27
g3
sg28
S'.306'
p69
sg30
g3
sg31
S'140'
p70
sg33
g3
sg34
S'23'
p71
sg36
S'MNL'
p72
sg38
S'70'
p73
sg40
g3
sg41
S'64'
p74
sg43
S'79'
p75
sg45
S'112'
p76
sg47
g3
sg48
S'1953-54'
p77
sg50
S'288'
p78
sg52
g3
sg53
S'.571'
p79
sg55
S'88'
p80
sg57
S'1155'
p81
sba(isrc.gp1.models.Totals
Totals
p82
(dp83
g8
g3
sg9
S'.324'
p84
sg11
S'107'
p85
sg13
g3
sg14
S'.324'
p86
sg16
S'330'
p87
sg18
g3
sg19
S'SF'
p88
sg21
S'281'
p89
sg23
S'206'
p90
sg25
S'NBA'
p91
sg27
g3
sg28
S'.324'
p92
sg30
g3
sg31
S'107'
p93
sg33
g3
sg34
S'24'
p94
sg36
S'MNL'
p95
sg38
S'62'
p96
sg40
g3
sg41
S'67'
p97
sg43
S'58'
p98
sg45
S'94'
p99
sg47
g3
sg48
S'1954-55'
p100
sg50
S'330'
p101
sg52
g3
sg53
S'.713'
p102
sg55
S'107'
p103
sg57
S'980'
p104
sba(isrc.gp1.models.Totals
Totals
p105
(dp106
g8
g3
sg9
S'.270'
p107
sg11
S'89'
p108
sg13
g3
sg14
S'24'
p109
sg16
S'.270'
p110
sg18
g3
sg19
S'27'
p111
sg21
g3
sg23
S'38'
p112
sg25
S'NBA'
p113
sg27
g3
sg28
S'24'
p114
sg30
g3
sg31
S'72'
p115
sg33
g3
sg34
S'25'
p116
sg36
S'TOT'
p117
sg38
S'352'
p118
sg40
g3
sg41
S'37'
p119
sg43
S'51'
p120
sg45
S'.649'
p121
sg47
g3
sg48
S'1955-56'
p122
sg50
S'.270'
p123
sg52
g3
sg53
S'76'
p124
sg55
S'89'
p125
sg57
S'24'
p126
sba(isrc.gp1.models.Totals
Totals
p127
(dp128
g8
g3
sg9
g3
sg11
g3
sg13
g3
sg14
g3
sg16
g3
sg18
g3
sg19
g3
sg21
g3
sg23
g3
sg25
S'NBA'
p129
sg27
g3
sg28
g3
sg30
g3
sg31
g3
sg33
g3
sg34
S'25'
p130
sg36
S'MNL'
p131
sg38
g3
sg40
g3
sg41
g3
sg43
g3
sg45
g3
sg47
g3
sg48
S'1955-56'
p132
sg50
g3
sg52
g3
sg53
g3
sg55
g3
sg57
g3
sba(isrc.gp1.models.Totals
Totals
p133
(dp134
g8
g3
sg9
g3
sg11
g3
sg13
g3
sg14
g3
sg16
g3
sg18
g3
sg19
g3
sg21
g3
sg23
g3
sg25
S'NBA'
p135
sg27
g3
sg28
g3
sg30
g3
sg31
g3
sg33
g3
sg34
S'25'
p136
sg36
S'FTW'
p137
sg38
g3
sg40
g3
sg41
g3
sg43
g3
sg45
g3
sg47
g3
sg48
S'1955-56'
p138
sg50
g3
sg52
g3
sg53
g3
sg55
g3
sg57
g3
sbasS'_college'
p139
S'University of Cincinnati'
p140
sS'_toYear'
p141
S'1956'
p142
sS'_height'
p143
S'6-3'
p144
sS'_active'
p145
I00
sS'_shootingHand'
p146
VRight
p147
sS'_name'
p148
S'Jim Holstein'
p149
sS'_per100Possessions'
p150
(lp151
sS'_advanced'
p152
(lp153
(isrc.gp1.models.Advanced
Advanced
p154
(dp155
S'_offensiveReboundPercentage'
p156
S'1.6'
p157
sS'_turnOverPercentage'
p158
g3
sS'_winSharesPer48Minutes'
p159
g3
sS'_stealPercentage'
p160
g3
sS'_usagePercentage'
p161
g3
sS'_totalReboundsPercentage'
p162
S'.087'
p163
sS'_defensiveBoxPlusMinus'
p164
g3
sg19
S'SF'
p165
sS'_valueOverReplacementPlayer'
p166
g3
sS'_trueShootingPercentage'
p167
S'.415'
p168
sS'_defensiveReboundPercentage'
p169
S'1.8'
p170
sS'_freeThrowsAttempRate'
p171
S'0.2'
p172
sS'_threePointsAttempRate'
p173
S'.383'
p174
sg25
S'NBA'
p175
sS'_offensiveBoxPlusMinues'
p176
g3
sS'_assistPercentage'
p177
g3
sS'_defensiveWinShares'
p178
g3
sg34
S'22'
p179
sg36
S'MNL'
p180
sg38
S'66'
p181
sS'_blockPercentage'
p182
g3
sS'_playerEfficiencyRating'
p183
S'11.6'
p184
sS'_offensiveWinShares'
p185
g3
sg55
S'989'
p186
sS'_boxPlusMinus'
p187
g3
sg48
S'1952-53'
p188
sS'_winShares'
p189
g3
sba(isrc.gp1.models.Advanced
Advanced
p190
(dp191
g156
S'1.8'
p192
sg158
g3
sg159
g3
sg160
g3
sg161
g3
sg162
S'.024'
p193
sg164
g3
sg19
S'SF'
p194
sg166
g3
sg167
S'.356'
p195
sg169
S'0.6'
p196
sg171
S'-1.3'
p197
sg173
S'.389'
p198
sg25
S'NBA'
p199
sg176
g3
sg177
g3
sg178
g3
sg34
S'23'
p200
sg36
S'MNL'
p201
sg38
S'70'
p202
sg182
g3
sg183
S'7.9'
p203
sg185
g3
sg55
S'1155'
p204
sg187
g3
sg48
S'1953-54'
p205
sg189
g3
sba(isrc.gp1.models.Advanced
Advanced
p206
(dp207
g156
S'1.2'
p208
sg158
g3
sg159
g3
sg160
g3
sg161
g3
sg162
S'.008'
p209
sg164
g3
sg19
S'SF'
p210
sg166
g3
sg167
S'.378'
p211
sg169
S'0.2'
p212
sg171
S'-1.0'
p213
sg173
S'.285'
p214
sg25
S'NBA'
p215
sg176
g3
sg177
g3
sg178
g3
sg34
S'24'
p216
sg36
S'MNL'
p217
sg38
S'62'
p218
sg182
g3
sg183
S'8.7'
p219
sg185
g3
sg55
S'980'
p220
sg187
g3
sg48
S'1954-55'
p221
sg189
g3
sba(isrc.gp1.models.Advanced
Advanced
p222
(dp223
g156
g3
sg158
g3
sg159
g3
sg160
g3
sg161
g3
sg162
g3
sg164
g3
sg19
S'27'
p224
sg166
g3
sg167
g3
sg169
g3
sg171
g3
sg173
g3
sg25
S'NBA'
p225
sg176
g3
sg177
g3
sg178
g3
sg34
S'25'
p226
sg36
S'TOT'
p227
sg38
S'352'
p228
sg182
g3
sg183
S'.416'
p229
sg185
g3
sg55
S'.342'
p230
sg187
g3
sg48
S'1955-56'
p231
sg189
g3
sba(isrc.gp1.models.Advanced
Advanced
p232
(dp233
g156
g3
sg158
g3
sg159
g3
sg160
g3
sg161
g3
sg162
g3
sg164
g3
sg19
g3
sg166
g3
sg167
g3
sg169
g3
sg171
g3
sg173
g3
sg25
S'NBA'
p234
sg176
g3
sg177
g3
sg178
g3
sg34
S'25'
p235
sg36
S'MNL'
p236
sg38
g3
sg182
g3
sg183
g3
sg185
g3
sg55
g3
sg187
g3
sg48
S'1955-56'
p237
sg189
g3
sba(isrc.gp1.models.Advanced
Advanced
p238
(dp239
g156
g3
sg158
g3
sg159
g3
sg160
g3
sg161
g3
sg162
g3
sg164
g3
sg19
g3
sg166
g3
sg167
g3
sg169
g3
sg171
g3
sg173
g3
sg25
S'NBA'
p240
sg176
g3
sg177
g3
sg178
g3
sg34
S'25'
p241
sg36
S'FTW'
p242
sg38
g3
sg182
g3
sg183
g3
sg185
g3
sg55
g3
sg187
g3
sg48
S'1955-56'
p243
sg189
g3
sbasS'_per36Minutes'
p244
(lp245
(isrc.gp1.models.Per36Minutes
Per36Minutes
p246
(dp247
g8
g3
sg9
S'.358'
p248
sg11
S'3.6'
p249
sg13
g3
sg14
S'2.5'
p250
sg16
S'10.0'
p251
sg18
g3
sg19
S'SF'
p252
sg21
S'9.7'
p253
sg25
S'NBA'
p254
sg27
g3
sg28
S'.358'
p255
sg30
g3
sg31
S'4.7'
p256
sg33
g3
sg34
S'22'
p257
sg36
S'MNL'
p258
sg38
S'66'
p259
sg40
g3
sg41
S'3.8'
p260
sg43
S'2.7'
p261
sg45
S'.667'
p262
sg47
g3
sg48
S'1952-53'
p263
sg50
S'10.0'
p264
sg52
g3
sg53
S'6.3'
p265
sg55
S'3.6'
p266
sg57
S'989'
p267
sba(isrc.gp1.models.Per36Minutes
Per36Minutes
p268
(dp269
g8
g3
sg9
S'.306'
p270
sg11
S'2.7'
p271
sg13
g3
sg14
S'2.0'
p272
sg16
S'9.0'
p273
sg18
g3
sg19
S'SF'
p274
sg21
S'7.5'
p275
sg25
S'NBA'
p276
sg27
g3
sg28
S'.306'
p277
sg30
g3
sg31
S'4.4'
p278
sg33
g3
sg34
S'23'
p279
sg36
S'MNL'
p280
sg38
S'70'
p281
sg40
g3
sg41
S'3.5'
p282
sg43
S'2.5'
p283
sg45
S'.571'
p284
sg47
g3
sg48
S'1953-54'
p285
sg50
S'9.0'
p286
sg52
g3
sg53
S'6.4'
p287
sg55
S'2.7'
p288
sg57
S'1155'
p289
sba(isrc.gp1.models.Per36Minutes
Per36Minutes
p290
(dp291
g8
g3
sg9
S'.324'
p292
sg11
S'3.9'
p293
sg13
g3
sg14
S'2.5'
p294
sg16
S'12.1'
p295
sg18
g3
sg19
S'SF'
p296
sg21
S'10.3'
p297
sg25
S'NBA'
p298
sg27
g3
sg28
S'.324'
p299
sg30
g3
sg31
S'3.9'
p300
sg33
g3
sg34
S'24'
p301
sg36
S'MNL'
p302
sg38
S'62'
p303
sg40
g3
sg41
S'3.5'
p304
sg43
S'2.1'
p305
sg45
S'.713'
p306
sg47
g3
sg48
S'1954-55'
p307
sg50
S'12.1'
p308
sg52
g3
sg53
S'7.6'
p309
sg55
S'3.9'
p310
sg57
S'980'
p311
sba(isrc.gp1.models.Per36Minutes
Per36Minutes
p312
(dp313
g8
g3
sg9
S'2.5'
p314
sg11
S'9.1'
p315
sg13
g3
sg14
S'3.8'
p316
sg16
S'.270'
p317
sg18
g3
sg19
S'27'
p318
sg21
g3
sg25
S'NBA'
p319
sg27
g3
sg28
S'2.5'
p320
sg30
g3
sg31
S'7.4'
p321
sg33
g3
sg34
S'25'
p322
sg36
S'TOT'
p323
sg38
S'352'
p324
sg40
g3
sg41
S'.649'
p325
sg43
S'5.2'
p326
sg45
S'7.8'
p327
sg47
g3
sg48
S'1955-56'
p328
sg50
S'.270'
p329
sg52
g3
sg53
S'3.9'
p330
sg55
S'9.1'
p331
sg57
S'2.5'
p332
sba(isrc.gp1.models.Per36Minutes
Per36Minutes
p333
(dp334
g8
g3
sg9
g3
sg11
g3
sg13
g3
sg14
g3
sg16
g3
sg18
g3
sg19
g3
sg21
g3
sg25
S'NBA'
p335
sg27
g3
sg28
g3
sg30
g3
sg31
g3
sg33
g3
sg34
S'25'
p336
sg36
S'MNL'
p337
sg38
g3
sg40
g3
sg41
g3
sg43
g3
sg45
g3
sg47
g3
sg48
S'1955-56'
p338
sg50
g3
sg52
g3
sg53
g3
sg55
g3
sg57
g3
sba(isrc.gp1.models.Per36Minutes
Per36Minutes
p339
(dp340
g8
g3
sg9
g3
sg11
g3
sg13
g3
sg14
g3
sg16
g3
sg18
g3
sg19
g3
sg21
g3
sg25
S'NBA'
p341
sg27
g3
sg28
g3
sg30
g3
sg31
g3
sg33
g3
sg34
S'25'
p342
sg36
S'FTW'
p343
sg38
g3
sg40
g3
sg41
g3
sg43
g3
sg45
g3
sg47
g3
sg48
S'1955-56'
p344
sg50
g3
sg52
g3
sg53
g3
sg55
g3
sg57
g3
sbasS'_fromYear'
p345
S'1953'
p346
sS'_url'
p347
S'http://www.basketball-reference.com/players/h/holstji01.html'
p348
sS'_perGame'
p349
(isrc.gp1.models.PerGame
PerGame
p350
(dp351
g8
g3
sg9
g3
sg11
g3
sS'_effectiveFieldGalPercentage'
p352
g3
sg13
g3
sg14
g3
sg16
g3
sg18
g3
sg19
g3
sg21
g3
sg25
S'NBA'
p353
sg27
g3
sg30
g3
sS'_fieldGoalsttempted'
p354
g3
sg31
g3
sg33
g3
sg34
S'25'
p355
sg36
S'FTW'
p356
sg38
g3
sg40
g3
sg41
g3
sg43
g3
sg45
g3
sg47
g3
sg48
S'1955-56'
p357
sg50
g3
sg52
g3
sg53
g3
sg55
g3
sg57
g3
sbsS'_weight'
p358
S'180'
p359
sS'_dob'
p360
S'24-9-1930'
p361
sS'_salary'
p362
(lp363
sg19
S'F-G'
p364
sb.