(isrc.gp1.models.Player
Player
p0
(dp1
S'_experience'
p2
S'NA'
p3
sS'_totals'
p4
(lp5
(isrc.gp1.models.Totals
Totals
p6
(dp7
S'_offensiveRebounds'
p8
g3
sS'_threePointsAttempted'
p9
g3
sS'_fieldGoalsPercentage'
p10
S'.317'
p11
sS'_assist'
p12
S'24'
p13
sS'_threePointsPercentage'
p14
g3
sS'_threePoints'
p15
g3
sS'_points'
p16
S'312'
p17
sS'_position'
p18
S'C'
p19
sS'_freeThrowsPercentage'
p20
S'.591'
p21
sS'_effectiveFieldGoalPercentage'
p22
S'.317'
p23
sS'_league'
p24
S'NBA'
p25
sS'_steals'
p26
g3
sS'_fieldGoalsAttempted'
p27
S'369'
p28
sS'_personalFouls'
p29
S'139'
p30
sS'_freeThrowsAttempted'
p31
S'132'
p32
sS'_totalRebounds'
p33
S'257'
p34
sS'_age'
p35
S'23'
p36
sS'_team'
p37
S'SYR'
p38
sS'_games'
p39
S'67'
p40
sS'_blocks'
p41
g3
sS'_twoPoints'
p42
S'117'
p43
sS'_freeThrows'
p44
S'78'
p45
sS'_twoPointsAttempted'
p46
S'369'
p47
sS'_defensiveRebounds'
p48
g3
sS'_season'
p49
S'1953-54'
p50
sS'_fieldGoals'
p51
S'117'
p52
sS'_turnOvers'
p53
g3
sS'_twoPointsPercentage'
p54
S'.317'
p55
sS'_minutesPlayed'
p56
S'899'
p57
sS'_gamesStarted'
p58
g3
sba(isrc.gp1.models.Totals
Totals
p59
(dp60
g8
g3
sg9
g3
sg10
S'.203'
p61
sg12
S'9'
p62
sg14
g3
sg15
g3
sg16
S'38'
p63
sg18
g19
sg20
S'.667'
p64
sg22
S'.203'
p65
sg24
S'NBA'
p66
sg26
g3
sg27
S'59'
p67
sg29
S'22'
p68
sg31
S'21'
p69
sg33
S'47'
p70
sg35
S'24'
p71
sg37
S'BLB'
p72
sg39
S'13'
p73
sg41
g3
sg42
S'12'
p74
sg44
S'14'
p75
sg46
S'59'
p76
sg48
g3
sg49
S'1954-55'
p77
sg51
S'12'
p78
sg53
g3
sg54
S'.203'
p79
sg56
S'194'
p80
sg58
g3
sbasS'_college'
p81
S'Wofford College'
p82
sS'_toYear'
p83
S'1955'
p84
sS'_height'
p85
S'6-11'
p86
sS'_active'
p87
I00
sS'_shootingHand'
p88
VRight
p89
sS'_name'
p90
S'Jim Neal'
p91
sS'_per100Possessions'
p92
(lp93
sS'_advanced'
p94
(lp95
(isrc.gp1.models.Advanced
Advanced
p96
(dp97
S'_offensiveReboundPercentage'
p98
g3
sS'_turnOverPercentage'
p99
g3
sS'_winSharesPer48Minutes'
p100
S'.007'
p101
sS'_stealPercentage'
p102
g3
sS'_usagePercentage'
p103
g3
sS'_totalReboundsPercentage'
p104
g3
sS'_defensiveBoxPlusMinus'
p105
g3
sg18
g19
sS'_valueOverReplacementPlayer'
p106
g3
sS'_trueShootingPercentage'
p107
S'.365'
p108
sS'_defensiveReboundPercentage'
p109
g3
sS'_freeThrowsAttempRate'
p110
S'.358'
p111
sS'_threePointsAttempRate'
p112
g3
sg24
S'NBA'
p113
sS'_offensiveBoxPlusMinues'
p114
g3
sS'_assistPercentage'
p115
g3
sS'_defensiveWinShares'
p116
S'1.7'
p117
sg35
S'23'
p118
sg37
S'SYR'
p119
sg39
S'67'
p120
sS'_blockPercentage'
p121
g3
sS'_playerEfficiencyRating'
p122
S'9.9'
p123
sS'_offensiveWinShares'
p124
S'-1.6'
p125
sg56
S'899'
p126
sS'_boxPlusMinus'
p127
g3
sg49
S'1953-54'
p128
sS'_winShares'
p129
S'0.1'
p130
sba(isrc.gp1.models.Advanced
Advanced
p131
(dp132
g98
g3
sg99
g3
sg100
g3
sg102
g3
sg103
g3
sg104
g3
sg105
g3
sg18
g19
sg106
g3
sg107
S'.278'
p133
sg109
g3
sg110
S'.356'
p134
sg112
g3
sg24
S'NBA'
p135
sg114
g3
sg115
g3
sg116
g3
sg35
S'24'
p136
sg37
S'BLB'
p137
sg39
S'13'
p138
sg121
g3
sg122
g3
sg124
g3
sg56
S'194'
p139
sg127
g3
sg49
S'1954-55'
p140
sg129
g3
sbasS'_per36Minutes'
p141
(lp142
(isrc.gp1.models.Per36Minutes
Per36Minutes
p143
(dp144
g8
g3
sg9
g3
sg10
S'.317'
p145
sg12
S'1.0'
p146
sg14
g3
sg15
g3
sg16
S'12.5'
p147
sg18
g19
sg20
S'.591'
p148
sg24
S'NBA'
p149
sg26
g3
sg27
S'14.8'
p150
sg29
S'5.6'
p151
sg31
S'5.3'
p152
sg33
S'10.3'
p153
sg35
S'23'
p154
sg37
S'SYR'
p155
sg39
S'67'
p156
sg41
g3
sg42
S'4.7'
p157
sg44
S'3.1'
p158
sg46
S'14.8'
p159
sg48
g3
sg49
S'1953-54'
p160
sg51
S'4.7'
p161
sg53
g3
sg54
S'.317'
p162
sg56
S'899'
p163
sg58
g3
sba(isrc.gp1.models.Per36Minutes
Per36Minutes
p164
(dp165
g8
g3
sg9
g3
sg10
S'.203'
p166
sg12
S'1.7'
p167
sg14
g3
sg15
g3
sg16
S'7.1'
p168
sg18
g19
sg20
S'.667'
p169
sg24
S'NBA'
p170
sg26
g3
sg27
S'10.9'
p171
sg29
S'4.1'
p172
sg31
S'3.9'
p173
sg33
S'8.7'
p174
sg35
S'24'
p175
sg37
S'BLB'
p176
sg39
S'13'
p177
sg41
g3
sg42
S'2.2'
p178
sg44
S'2.6'
p179
sg46
S'10.9'
p180
sg48
g3
sg49
S'1954-55'
p181
sg51
S'2.2'
p182
sg53
g3
sg54
S'.203'
p183
sg56
S'194'
p184
sg58
g3
sbasS'_fromYear'
p185
S'1954'
p186
sS'_url'
p187
S'http://www.basketball-reference.com/players/n/nealji01.html'
p188
sS'_perGame'
p189
(isrc.gp1.models.PerGame
PerGame
p190
(dp191
g8
g3
sg9
g3
sg10
S'.203'
p192
sS'_effectiveFieldGalPercentage'
p193
S'.203'
p194
sg12
S'0.7'
p195
sg14
g3
sg15
g3
sg16
S'2.9'
p196
sg18
g19
sg20
S'.667'
p197
sg24
S'NBA'
p198
sg26
g3
sg29
S'1.7'
p199
sS'_fieldGoalsttempted'
p200
S'4.5'
p201
sg31
S'1.6'
p202
sg33
S'3.6'
p203
sg35
S'24'
p204
sg37
S'BLB'
p205
sg39
S'13'
p206
sg41
g3
sg42
S'0.9'
p207
sg44
S'1.1'
p208
sg46
S'4.5'
p209
sg48
g3
sg49
S'1954-55'
p210
sg51
S'0.9'
p211
sg53
g3
sg54
S'.203'
p212
sg56
S'14.9'
p213
sg58
g3
sbsS'_weight'
p214
S'235'
p215
sS'_dob'
p216
S'21-5-1930'
p217
sS'_salary'
p218
(lp219
sg18
g19
sb.