(isrc.gp1.models.Player
Player
p0
(dp1
S'_experience'
p2
S'NA'
p3
sS'_totals'
p4
(lp5
(isrc.gp1.models.Totals
Totals
p6
(dp7
S'_offensiveRebounds'
p8
g3
sS'_threePointsAttempted'
p9
g3
sS'_fieldGoalsPercentage'
p10
S'.500'
p11
sS'_assist'
p12
S'3'
p13
sS'_threePointsPercentage'
p14
g3
sS'_threePoints'
p15
g3
sS'_points'
p16
S'21'
p17
sS'_position'
p18
g3
sS'_freeThrowsPercentage'
p19
S'.200'
p20
sS'_effectiveFieldGoalPercentage'
p21
S'.500'
p22
sS'_league'
p23
S'NBA'
p24
sS'_steals'
p25
g3
sS'_fieldGoalsAttempted'
p26
S'20'
p27
sS'_personalFouls'
p28
S'6'
p29
sS'_freeThrowsAttempted'
p30
S'5'
p31
sS'_totalRebounds'
p32
S'11'
p33
sS'_age'
p34
S'22'
p35
sS'_team'
p36
S'PHI'
p37
sS'_games'
p38
g29
sS'_blocks'
p39
g3
sS'_twoPoints'
p40
S'10'
p41
sS'_freeThrows'
p42
S'1'
p43
sS'_twoPointsAttempted'
p44
S'20'
p45
sS'_defensiveRebounds'
p46
g3
sS'_season'
p47
S'1967-68'
p48
sS'_fieldGoals'
p49
S'10'
p50
sS'_turnOvers'
p51
g3
sS'_twoPointsPercentage'
p52
S'.500'
p53
sS'_minutesPlayed'
p54
S'52'
p55
sS'_gamesStarted'
p56
g3
sbasS'_college'
p57
S'Winston-Salem State University'
p58
sS'_toYear'
p59
S'1968'
p60
sS'_height'
p61
S'6-6'
p62
sS'_active'
p63
I00
sS'_shootingHand'
p64
VRight
p65
sS'_name'
p66
S'Jim Reid'
p67
sS'_per100Possessions'
p68
(lp69
sS'_advanced'
p70
(lp71
(isrc.gp1.models.Advanced
Advanced
p72
(dp73
S'_offensiveReboundPercentage'
p74
g3
sS'_turnOverPercentage'
p75
g3
sS'_winSharesPer48Minutes'
p76
S'.078'
p77
sS'_stealPercentage'
p78
g3
sS'_usagePercentage'
p79
g3
sS'_totalReboundsPercentage'
p80
g3
sS'_defensiveBoxPlusMinus'
p81
g3
sg18
g3
sS'_valueOverReplacementPlayer'
p82
g3
sS'_trueShootingPercentage'
p83
S'.473'
p84
sS'_defensiveReboundPercentage'
p85
g3
sS'_freeThrowsAttempRate'
p86
S'.250'
p87
sS'_threePointsAttempRate'
p88
g3
sg23
S'NBA'
p89
sS'_offensiveBoxPlusMinues'
p90
g3
sS'_assistPercentage'
p91
S'7.1'
p92
sS'_defensiveWinShares'
p93
S'0.1'
p94
sg34
S'22'
p95
sg36
S'PHI'
p96
sg38
g29
sS'_blockPercentage'
p97
g3
sS'_playerEfficiencyRating'
p98
S'10.6'
p99
sS'_offensiveWinShares'
p100
S'0.0'
p101
sg54
S'52'
p102
sS'_boxPlusMinus'
p103
g3
sg47
S'1967-68'
p104
sS'_winShares'
p105
S'0.1'
p106
sbasS'_per36Minutes'
p107
(lp108
(isrc.gp1.models.Per36Minutes
Per36Minutes
p109
(dp110
g8
g3
sg9
g3
sg10
S'.500'
p111
sg12
S'2.1'
p112
sg14
g3
sg15
g3
sg16
S'14.5'
p113
sg18
g3
sg19
S'.200'
p114
sg23
S'NBA'
p115
sg25
g3
sg26
S'13.8'
p116
sg28
S'4.2'
p117
sg30
S'3.5'
p118
sg32
S'7.6'
p119
sg34
S'22'
p120
sg36
S'PHI'
p121
sg38
g29
sg39
g3
sg40
S'6.9'
p122
sg42
S'0.7'
p123
sg44
S'13.8'
p124
sg46
g3
sg47
S'1967-68'
p125
sg49
S'6.9'
p126
sg51
g3
sg52
S'.500'
p127
sg54
S'52'
p128
sg56
g3
sbasS'_fromYear'
p129
S'1968'
p130
sS'_url'
p131
S'http://www.basketball-reference.com/players/r/reidji01.html'
p132
sS'_perGame'
p133
(isrc.gp1.models.PerGame
PerGame
p134
(dp135
g8
g3
sg9
g3
sg10
S'.500'
p136
sS'_effectiveFieldGalPercentage'
p137
S'.500'
p138
sg12
S'0.5'
p139
sg14
g3
sg15
g3
sg16
S'3.5'
p140
sg18
g3
sg19
S'.200'
p141
sg23
S'NBA'
p142
sg25
g3
sg28
S'1.0'
p143
sS'_fieldGoalsttempted'
p144
S'3.3'
p145
sg30
S'0.8'
p146
sg32
S'1.8'
p147
sg34
S'22'
p148
sg36
S'PHI'
p149
sg38
g29
sg39
g3
sg40
S'1.7'
p150
sg42
S'0.2'
p151
sg44
S'3.3'
p152
sg46
g3
sg47
S'1967-68'
p153
sg49
S'1.7'
p154
sg51
g3
sg52
S'.500'
p155
sg54
S'8.7'
p156
sg56
g3
sbsS'_weight'
p157
S'210'
p158
sS'_dob'
p159
S'3-8-1945'
p160
sS'_salary'
p161
(lp162
sg18
S'F'
p163
sb.