(isrc.gp1.models.Player
Player
p0
(dp1
S'_experience'
p2
S'NA'
p3
sS'_totals'
p4
(lp5
(isrc.gp1.models.Totals
Totals
p6
(dp7
S'_offensiveRebounds'
p8
g3
sS'_threePointsAttempted'
p9
S'71'
p10
sS'_fieldGoalsPercentage'
p11
S'.314'
p12
sS'_assist'
p13
g3
sS'_threePointsPercentage'
p14
S'130'
p15
sS'_threePoints'
p16
S'.314'
p17
sS'_points'
p18
g3
sS'_position'
p19
S'60'
p20
sS'_freeThrowsPercentage'
p21
g3
sS'_effectiveFieldGoalPercentage'
p22
S'439'
p23
sS'_league'
p24
S'BAA'
p25
sS'_steals'
p26
g3
sS'_fieldGoalsAttempted'
p27
S'586'
p28
sS'_personalFouls'
p29
g3
sS'_freeThrowsAttempted'
p30
g3
sS'_totalRebounds'
p31
g3
sS'_age'
p32
S'24'
p33
sS'_team'
p34
S'CHS'
p35
sS'_games'
p36
S'184'
p37
sS'_blocks'
p38
g3
sS'_twoPoints'
p39
S'.546'
p40
sS'_freeThrows'
p41
g3
sS'_twoPointsAttempted'
p42
S'63'
p43
sS'_defensiveRebounds'
p44
g3
sS'_season'
p45
S'1946-47'
p46
sS'_fieldGoals'
p47
S'184'
p48
sS'_turnOvers'
p49
g3
sS'_twoPointsPercentage'
p50
S'155'
p51
sS'_minutesPlayed'
p52
S'.314'
p53
sS'_gamesStarted'
p54
S'586'
p55
sba(isrc.gp1.models.Totals
Totals
p56
(dp57
g8
g3
sg9
S'73'
p58
sg11
S'.297'
p59
sg13
g3
sg14
S'105'
p60
sg16
S'.297'
p61
sg18
g3
sg19
S'48'
p62
sg21
g3
sg22
S'299'
p63
sg24
S'BAA'
p64
sg26
g3
sg27
S'381'
p65
sg29
g3
sg30
g3
sg31
g3
sg32
S'25'
p66
sg34
S'CHS'
p67
sg36
S'113'
p68
sg38
g3
sg39
S'.695'
p69
sg41
g3
sg42
S'89'
p70
sg44
g3
sg45
S'1947-48'
p71
sg47
S'113'
p72
sg49
g3
sg50
S'105'
p73
sg52
S'.297'
p74
sg54
S'381'
p75
sba(isrc.gp1.models.Totals
Totals
p76
(dp77
g8
g3
sg9
S'151'
p78
sg11
S'.314'
p79
sg13
g3
sg14
S'219'
p80
sg16
S'.314'
p81
sg18
g3
sg19
S'58'
p82
sg21
g3
sg22
S'457'
p83
sg24
S'BAA'
p84
sg26
g3
sg27
S'487'
p85
sg29
g3
sg30
g3
sg31
g3
sg32
S'26'
p86
sg34
S'BOS'
p87
sg36
S'153'
p88
sg38
g3
sg39
S'.689'
p89
sg41
g3
sg42
S'229'
p90
sg44
g3
sg45
S'1948-49'
p91
sg47
S'153'
p92
sg49
g3
sg50
S'195'
p93
sg52
S'.314'
p94
sg54
S'487'
p95
sba(isrc.gp1.models.Totals
Totals
p96
(dp97
g8
g3
sg9
S'142'
p98
sg11
S'.300'
p99
sg13
g3
sg14
S'188'
p100
sg16
S'.300'
p101
sg18
g3
sg19
S'65'
p102
sg21
g3
sg22
S'312'
p103
sg24
S'NBA'
p104
sg26
g3
sg27
S'283'
p105
sg29
g3
sg30
g3
sg31
g3
sg32
S'27'
p106
sg34
S'BOS'
p107
sg36
S'85'
p108
sg38
g3
sg39
S'.755'
p109
sg41
g3
sg42
S'249'
p110
sg44
g3
sg45
S'1949-50'
p111
sg47
S'85'
p112
sg49
g3
sg50
S'154'
p113
sg52
S'.300'
p114
sg54
S'283'
p115
sbasS'_college'
p116
S'University of Southern California'
p117
sS'_toYear'
p118
S'1950'
p119
sS'_height'
p120
S'6-2'
p121
sS'_active'
p122
I00
sS'_shootingHand'
p123
VRight
p124
sS'_name'
p125
S'Jim Seminoff'
p126
sS'_per100Possessions'
p127
(lp128
sS'_advanced'
p129
(lp130
(isrc.gp1.models.Advanced
Advanced
p131
(dp132
S'_offensiveReboundPercentage'
p133
g3
sS'_turnOverPercentage'
p134
g3
sS'_winSharesPer48Minutes'
p135
g3
sS'_stealPercentage'
p136
g3
sS'_usagePercentage'
p137
g3
sS'_totalReboundsPercentage'
p138
g3
sS'_defensiveBoxPlusMinus'
p139
g3
sg19
S'60'
p140
sS'_valueOverReplacementPlayer'
p141
g3
sS'_trueShootingPercentage'
p142
S'2.1'
p143
sS'_defensiveReboundPercentage'
p144
g3
sS'_freeThrowsAttempRate'
p145
g3
sS'_threePointsAttempRate'
p146
S'4.5'
p147
sg24
S'BAA'
p148
sS'_offensiveBoxPlusMinues'
p149
g3
sS'_assistPercentage'
p150
g3
sS'_defensiveWinShares'
p151
g3
sg32
S'24'
p152
sg34
S'CHS'
p153
sg36
S'.341'
p154
sS'_blockPercentage'
p155
g3
sS'_playerEfficiencyRating'
p156
S'2.4'
p157
sS'_offensiveWinShares'
p158
g3
sg52
S'.222'
p159
sS'_boxPlusMinus'
p160
g3
sg45
S'1946-47'
p161
sS'_winShares'
p162
g3
sba(isrc.gp1.models.Advanced
Advanced
p163
(dp164
g133
g3
sg134
g3
sg135
g3
sg136
g3
sg137
g3
sg138
g3
sg139
g3
sg19
S'48'
p165
sg141
g3
sg142
S'1.5'
p166
sg144
g3
sg145
g3
sg146
S'3.4'
p167
sg24
S'BAA'
p168
sg149
g3
sg150
g3
sg151
g3
sg32
S'25'
p169
sg34
S'CHS'
p170
sg36
S'.350'
p171
sg155
g3
sg156
S'1.9'
p172
sg158
g3
sg52
S'.276'
p173
sg160
g3
sg45
S'1947-48'
p174
sg162
g3
sba(isrc.gp1.models.Advanced
Advanced
p175
(dp176
g133
g3
sg134
g3
sg135
g3
sg136
g3
sg137
g3
sg138
g3
sg139
g3
sg19
S'58'
p177
sg141
g3
sg142
S'3.1'
p178
sg144
g3
sg145
g3
sg146
S'5.4'
p179
sg24
S'BAA'
p180
sg149
g3
sg150
g3
sg151
g3
sg32
S'26'
p181
sg34
S'BOS'
p182
sg36
S'.392'
p183
sg155
g3
sg156
S'2.2'
p184
sg158
g3
sg52
S'.450'
p185
sg160
g3
sg45
S'1948-49'
p186
sg162
g3
sba(isrc.gp1.models.Advanced
Advanced
p187
(dp188
g133
g3
sg134
g3
sg135
g3
sg136
g3
sg137
g3
sg138
g3
sg139
g3
sg19
S'65'
p189
sg141
g3
sg142
S'1.4'
p190
sg144
g3
sg145
g3
sg146
S'3.6'
p191
sg24
S'NBA'
p192
sg149
g3
sg150
g3
sg151
g3
sg32
S'27'
p193
sg34
S'BOS'
p194
sg36
S'.427'
p195
sg155
g3
sg156
S'2.3'
p196
sg158
g3
sg52
S'.664'
p197
sg160
g3
sg45
S'1949-50'
p198
sg162
g3
sbasS'_per36Minutes'
p199
(lp200
(isrc.gp1.models.Per36Minutes
Per36Minutes
p201
(dp202
g8
g3
sg9
g3
sg11
g3
sg13
g3
sg14
g3
sg16
g3
sg18
g3
sg19
S'60'
p203
sg21
g3
sg24
S'BAA'
p204
sg26
g3
sg27
g3
sg29
g3
sg30
g3
sg31
g3
sg32
S'24'
p205
sg34
S'CHS'
p206
sg36
S'.314'
p207
sg38
g3
sg39
g3
sg41
g3
sg42
g3
sg44
g3
sg45
S'1946-47'
p208
sg47
g3
sg49
g3
sg50
g3
sg52
S'.546'
p209
sg54
S'.314'
p210
sba(isrc.gp1.models.Per36Minutes
Per36Minutes
p211
(dp212
g8
g3
sg9
g3
sg11
g3
sg13
g3
sg14
g3
sg16
g3
sg18
g3
sg19
S'48'
p213
sg21
g3
sg24
S'BAA'
p214
sg26
g3
sg27
g3
sg29
g3
sg30
g3
sg31
g3
sg32
S'25'
p215
sg34
S'CHS'
p216
sg36
S'.297'
p217
sg38
g3
sg39
g3
sg41
g3
sg42
g3
sg44
g3
sg45
S'1947-48'
p218
sg47
g3
sg49
g3
sg50
g3
sg52
S'.695'
p219
sg54
S'.297'
p220
sba(isrc.gp1.models.Per36Minutes
Per36Minutes
p221
(dp222
g8
g3
sg9
g3
sg11
g3
sg13
g3
sg14
g3
sg16
g3
sg18
g3
sg19
S'58'
p223
sg21
g3
sg24
S'BAA'
p224
sg26
g3
sg27
g3
sg29
g3
sg30
g3
sg31
g3
sg32
S'26'
p225
sg34
S'BOS'
p226
sg36
S'.314'
p227
sg38
g3
sg39
g3
sg41
g3
sg42
g3
sg44
g3
sg45
S'1948-49'
p228
sg47
g3
sg49
g3
sg50
g3
sg52
S'.689'
p229
sg54
S'.314'
p230
sba(isrc.gp1.models.Per36Minutes
Per36Minutes
p231
(dp232
g8
g3
sg9
g3
sg11
g3
sg13
g3
sg14
g3
sg16
g3
sg18
g3
sg19
S'65'
p233
sg21
g3
sg24
S'NBA'
p234
sg26
g3
sg27
g3
sg29
g3
sg30
g3
sg31
g3
sg32
S'27'
p235
sg34
S'BOS'
p236
sg36
S'.300'
p237
sg38
g3
sg39
g3
sg41
g3
sg42
g3
sg44
g3
sg45
S'1949-50'
p238
sg47
g3
sg49
g3
sg50
g3
sg52
S'.755'
p239
sg54
S'.300'
p240
sbasS'_fromYear'
p241
S'1947'
p242
sS'_url'
p243
S'http://www.basketball-reference.com/players/s/seminji01.html'
p244
sS'_perGame'
p245
(isrc.gp1.models.PerGame
PerGame
p246
(dp247
g8
g3
sg9
S'2.2'
p248
sg11
S'.300'
p249
sS'_effectiveFieldGalPercentage'
p250
S'4.8'
p251
sg13
g3
sg14
S'2.9'
p252
sg16
S'.300'
p253
sg18
g3
sg19
S'65'
p254
sg21
g3
sg24
S'NBA'
p255
sg26
g3
sg29
g3
sS'_fieldGoalsttempted'
p256
S'4.4'
p257
sg30
g3
sg31
g3
sg32
S'27'
p258
sg34
S'BOS'
p259
sg36
S'1.3'
p260
sg38
g3
sg39
S'.755'
p261
sg41
g3
sg42
S'3.8'
p262
sg44
g3
sg45
S'1949-50'
p263
sg47
S'1.3'
p264
sg49
g3
sg50
S'2.4'
p265
sg52
S'.300'
p266
sg54
S'4.4'
p267
sbsS'_weight'
p268
S'190'
p269
sS'_dob'
p270
S'1-9-1922'
p271
sS'_salary'
p272
(lp273
sg19
S'G-F'
p274
sb.