(isrc.gp1.models.Player
Player
p0
(dp1
S'_experience'
p2
S'NA'
p3
sS'_totals'
p4
(lp5
(isrc.gp1.models.Totals
Totals
p6
(dp7
S'_offensiveRebounds'
p8
S'27'
p9
sS'_threePointsAttempted'
p10
S'.000'
p11
sS'_fieldGoalsPercentage'
p12
S'0'
p13
sS'_assist'
p14
S'12'
p15
sS'_threePointsPercentage'
p16
S'72'
p17
sS'_threePoints'
p18
S'2'
p19
sS'_points'
p20
g3
sS'_position'
p21
S'SG'
p22
sS'_freeThrowsPercentage'
p23
S'27'
p24
sS'_effectiveFieldGoalPercentage'
p25
S'54'
p26
sS'_league'
p27
S'NBA'
p28
sS'_steals'
p29
S'6'
p30
sS'_fieldGoalsAttempted'
p31
S'.471'
p32
sS'_personalFouls'
p33
S'198'
p34
sS'_freeThrowsAttempted'
p35
S'.831'
p36
sS'_totalRebounds'
p37
S'51'
p38
sS'_age'
p39
S'22'
p40
sS'_team'
p41
S'PHI'
p42
sS'_games'
p43
S'40'
p44
sS'_blocks'
p45
S'57'
p46
sS'_twoPoints'
p47
S'151'
p48
sS'_freeThrows'
p49
S'65'
p50
sS'_twoPointsAttempted'
p51
S'.477'
p52
sS'_defensiveRebounds'
p53
S'54'
p54
sS'_season'
p55
S'1979-80'
p56
sS'_fieldGoals'
p57
S'153'
p58
sS'_turnOvers'
p59
S'58'
p60
sS'_twoPointsPercentage'
p61
S'.471'
p62
sS'_minutesPlayed'
p63
S'72'
p64
sS'_gamesStarted'
p65
S'442'
p66
sba(isrc.gp1.models.Totals
Totals
p67
(dp68
g8
S'155'
p69
sg10
S'.100'
p70
sg12
S'1'
p71
sg14
S'117'
p72
sg16
S'403'
p73
sg18
S'10'
p74
sg20
g3
sg21
S'SF'
p75
sg23
S'142'
p76
sg25
S'375'
p77
sg27
S'NBA'
p78
sg29
S'20'
p79
sg31
S'.467'
p80
sg33
S'1184'
p81
sg35
S'.887'
p82
sg37
S'232'
p83
sg39
S'23'
p84
sg41
S'DAL'
p85
sg43
S'82'
p86
sg45
S'172'
p87
sg47
S'856'
p88
sg49
S'423'
p89
sg51
S'.471'
p90
sg53
S'297'
p91
sg55
S'1980-81'
p92
sg57
S'866'
p93
sg59
S'230'
p94
sg61
S'.467'
p95
sg63
S'404'
p96
sg65
S'2317'
p97
sba(isrc.gp1.models.Totals
Totals
p98
(dp99
g8
S'99'
p100
sg10
S'24'
p101
sg12
S'.479'
p102
sg14
S'206'
p103
sg16
S'.333'
p104
sg18
S'8'
p105
sg20
S'827'
p106
sg21
S'SG'
p107
sg23
S'.853'
p108
sg25
S'.486'
p109
sg27
S'NBA'
p110
sg29
S'86'
p111
sg31
S'564'
p112
sg33
S'140'
p113
sg35
S'327'
p114
sg37
S'210'
p115
sg39
S'24'
p116
sg41
S'DAL'
p117
sg43
S'82'
p118
sg45
S'9'
p119
sg47
S'262'
p120
sg49
S'279'
p121
sg51
S'540'
p122
sg53
S'111'
p123
sg55
S'1981-82'
p124
sg57
S'270'
p125
sg59
S'111'
p126
sg61
S'.485'
p127
sg63
S'1755'
p128
sg65
g71
sba(isrc.gp1.models.Totals
Totals
p129
(dp130
g8
S'27'
p131
sg10
S'10'
p132
sg12
S'.462'
p133
sg14
S'78'
p134
sg16
S'.200'
p135
sg18
g19
sg20
S'272'
p136
sg21
S'SG'
p137
sg23
S'.779'
p138
sg25
S'.467'
p139
sg27
S'NBA'
p140
sg29
S'27'
p141
sg31
S'197'
p142
sg33
S'59'
p143
sg35
S'113'
p144
sg37
S'84'
p145
sg39
S'25'
p146
sg41
S'DAL'
p147
sg43
S'48'
p148
sg45
S'3'
p149
sg47
S'89'
p150
sg49
S'88'
p151
sg51
S'187'
p152
sg53
S'57'
p153
sg55
S'1982-83'
p154
sg57
S'91'
p155
sg59
S'55'
p156
sg61
S'.476'
p157
sg63
S'722'
p158
sg65
S'4'
p159
sba(isrc.gp1.models.Totals
Totals
p160
(dp161
g8
S'5'
p162
sg10
g19
sg12
S'.438'
p163
sg14
g162
sg16
S'.500'
p164
sg18
g71
sg20
S'24'
p165
sg21
S'SG'
p166
sg23
S'.692'
p167
sg25
S'.469'
p168
sg27
S'NBA'
p169
sg29
g30
sg31
S'16'
p170
sg33
g105
sg35
S'13'
p171
sg37
S'7'
p172
sg39
S'26'
p173
sg41
S'DAL'
p174
sg43
g172
sg45
g13
sg47
g30
sg49
g119
sg51
S'14'
p175
sg53
g19
sg55
S'1983-84'
p176
sg57
g172
sg59
g159
sg61
S'.429'
p177
sg63
S'54'
p178
sg65
g13
sbasS'_college'
p179
S'Duke University'
p180
sS'_toYear'
p181
S'1984'
p182
sS'_height'
p183
S'6-5'
p184
sS'_active'
p185
I00
sS'_shootingHand'
p186
VRight
p187
sS'_name'
p188
S'Jim Spanarkel'
p189
sS'_per100Possessions'
p190
(lp191
(isrc.gp1.models.Per100Possession
Per100Possession
p192
(dp193
g8
S'2.8'
p194
sg10
S'.000'
p195
sg12
S'0.0'
p196
sS'_offensiveRating'
p197
S'105'
p198
sg14
S'1.3'
p199
sg16
S'7.6'
p200
sg18
S'0.2'
p201
sg20
S'97'
p202
sg21
S'SG'
p203
sS'_defensiveRating'
p204
g3
sg23
S'2.8'
p205
sg27
S'NBA'
p206
sg29
S'0.6'
p207
sg31
S'.471'
p208
sg33
S'20.9'
p209
sg35
S'.831'
p210
sg37
S'5.4'
p211
sg39
S'22'
p212
sg41
S'PHI'
p213
sg43
S'40'
p214
sg45
S'6.0'
p215
sg47
S'15.9'
p216
sg49
S'6.9'
p217
sg51
S'.477'
p218
sg53
S'5.7'
p219
sg55
S'1979-80'
p220
sg57
S'16.1'
p221
sg59
S'6.1'
p222
sg61
S'5.7'
p223
sg63
S'7.6'
p224
sg65
S'442'
p225
sba(isrc.gp1.models.Per100Possession
Per100Possession
p226
(dp227
g8
S'3.3'
p228
sg10
S'.100'
p229
sg12
S'0.0'
p230
sg197
S'110'
p231
sg14
S'2.5'
p232
sg16
S'8.5'
p233
sg18
S'0.2'
p234
sg20
S'111'
p235
sg21
S'SF'
p236
sg204
g3
sg23
S'3.0'
p237
sg27
S'NBA'
p238
sg29
S'0.4'
p239
sg31
S'.467'
p240
sg33
S'24.9'
p241
sg35
S'.887'
p242
sg37
S'4.9'
p243
sg39
S'23'
p244
sg41
S'DAL'
p245
sg43
S'82'
p246
sg45
S'3.6'
p247
sg47
S'18.0'
p248
sg49
S'8.9'
p249
sg51
S'.471'
p250
sg53
S'6.2'
p251
sg55
S'1980-81'
p252
sg57
S'18.2'
p253
sg59
S'4.8'
p254
sg61
S'7.9'
p255
sg63
S'8.5'
p256
sg65
S'2317'
p257
sba(isrc.gp1.models.Per100Possession
Per100Possession
p258
(dp259
g8
S'2.7'
p260
sg10
S'0.7'
p261
sg12
S'.479'
p262
sg197
S'118'
p263
sg14
S'5.7'
p264
sg16
S'.333'
p265
sg18
S'0.2'
p266
sg20
S'23.0'
p267
sg21
S'SG'
p268
sg204
S'110'
p269
sg23
S'.853'
p270
sg27
S'NBA'
p271
sg29
S'2.4'
p272
sg31
S'15.7'
p273
sg33
S'3.9'
p274
sg35
S'9.1'
p275
sg37
S'5.8'
p276
sg39
S'24'
p277
sg41
S'DAL'
p278
sg43
S'82'
p279
sg45
S'0.2'
p280
sg47
S'7.3'
p281
sg49
S'7.7'
p282
sg51
S'15.0'
p283
sg53
S'3.1'
p284
sg55
S'1981-82'
p285
sg57
S'7.5'
p286
sg59
S'3.1'
p287
sg61
S'.485'
p288
sg63
S'1755'
p289
sg65
g71
sba(isrc.gp1.models.Per100Possession
Per100Possession
p290
(dp291
g8
S'1.7'
p292
sg10
S'0.6'
p293
sg12
S'.462'
p294
sg197
S'106'
p295
sg14
S'5.0'
p296
sg16
S'.200'
p297
sg18
S'0.1'
p298
sg20
S'17.6'
p299
sg21
S'SG'
p300
sg204
S'111'
p301
sg23
S'.779'
p302
sg27
S'NBA'
p303
sg29
S'1.7'
p304
sg31
S'12.7'
p305
sg33
S'3.8'
p306
sg35
S'7.3'
p307
sg37
S'5.4'
p308
sg39
S'25'
p309
sg41
S'DAL'
p310
sg43
S'48'
p311
sg45
S'0.2'
p312
sg47
S'5.8'
p313
sg49
S'5.7'
p314
sg51
S'12.1'
p315
sg53
S'3.7'
p316
sg55
S'1982-83'
p317
sg57
S'5.9'
p318
sg59
S'3.6'
p319
sg61
S'.476'
p320
sg63
S'722'
p321
sg65
g159
sba(isrc.gp1.models.Per100Possession
Per100Possession
p322
(dp323
g8
S'4.5'
p324
sg10
S'1.8'
p325
sg12
S'.438'
p326
sg197
S'112'
p327
sg14
S'4.5'
p328
sg16
S'.500'
p329
sg18
S'0.9'
p330
sg20
S'21.6'
p331
sg21
S'SG'
p332
sg204
S'105'
p333
sg23
S'.692'
p334
sg27
S'NBA'
p335
sg29
S'5.4'
p336
sg31
S'14.4'
p337
sg33
S'7.2'
p338
sg35
S'11.7'
p339
sg37
S'6.3'
p340
sg39
S'26'
p341
sg41
S'DAL'
p342
sg43
g172
sg45
S'0.0'
p343
sg47
S'5.4'
p344
sg49
S'8.1'
p345
sg51
S'12.6'
p346
sg53
S'1.8'
p347
sg55
S'1983-84'
p348
sg57
S'6.3'
p349
sg59
S'3.6'
p350
sg61
S'.429'
p351
sg63
S'54'
p352
sg65
g13
sbasS'_advanced'
p353
(lp354
(isrc.gp1.models.Advanced
Advanced
p355
(dp356
S'_offensiveReboundPercentage'
p357
S'6.9'
p358
sS'_turnOverPercentage'
p359
S'23.9'
p360
sS'_winSharesPer48Minutes'
p361
S'.048'
p362
sS'_stealPercentage'
p363
S'1.3'
p364
sS'_usagePercentage'
p365
S'21.6'
p366
sS'_totalReboundsPercentage'
p367
S'6.5'
p368
sS'_defensiveBoxPlusMinus'
p369
S'-1.6'
p370
sg21
S'SG'
p371
sS'_valueOverReplacementPlayer'
p372
S'-0.2'
p373
sS'_trueShootingPercentage'
p374
S'.545'
p375
sS'_defensiveReboundPercentage'
p376
S'6.1'
p377
sS'_freeThrowsAttempRate'
p378
S'.425'
p379
sS'_threePointsAttempRate'
p380
S'.013'
p381
sg27
S'NBA'
p382
sS'_offensiveBoxPlusMinues'
p383
S'-2.6'
p384
sS'_assistPercentage'
p385
S'15.9'
p386
sS'_defensiveWinShares'
p387
S'0.5'
p388
sg39
S'22'
p389
sg41
S'PHI'
p390
sg43
S'40'
p391
sS'_blockPercentage'
p392
S'0.7'
p393
sS'_playerEfficiencyRating'
p394
S'10.7'
p395
sS'_offensiveWinShares'
p396
S'0.0'
p397
sg63
S'442'
p398
sS'_boxPlusMinus'
p399
S'-4.2'
p400
sg55
S'1979-80'
p401
sS'_winShares'
p402
S'0.4'
p403
sba(isrc.gp1.models.Advanced
Advanced
p404
(dp405
g357
S'6.7'
p406
sg359
S'14.1'
p407
sg361
S'.115'
p408
sg363
S'2.5'
p409
sg365
S'22.1'
p410
sg367
S'7.3'
p411
sg369
S'-0.5'
p412
sg21
S'SF'
p413
sg372
S'2.1'
p414
sg374
S'.563'
p415
sg376
S'7.9'
p416
sg378
S'.488'
p417
sg380
S'.012'
p418
sg27
S'NBA'
p419
sg383
S'2.1'
p420
sg385
S'15.8'
p421
sg387
S'1.1'
p422
sg39
S'23'
p423
sg41
S'DAL'
p424
sg43
S'82'
p425
sg392
S'0.5'
p426
sg394
S'17.3'
p427
sg396
S'4.5'
p428
sg63
S'2317'
p429
sg399
S'1.6'
p430
sg55
S'1980-81'
p431
sg402
S'5.5'
p432
sba(isrc.gp1.models.Advanced
Advanced
p433
(dp434
g357
S'6.2'
p435
sg359
S'13.6'
p436
sg361
S'.142'
p437
sg363
S'2.4'
p438
sg365
S'19.2'
p439
sg367
S'6.8'
p440
sg369
S'-0.7'
p441
sg21
S'SG'
p442
sg372
S'1.5'
p443
sg374
S'.584'
p444
sg376
S'7.5'
p445
sg378
S'.580'
p446
sg380
S'.043'
p447
sg27
S'NBA'
p448
sg383
S'2.1'
p449
sg385
S'16.6'
p450
sg387
S'1.1'
p451
sg39
S'24'
p452
sg41
S'DAL'
p453
sg43
S'82'
p454
sg392
S'0.3'
p455
sg394
S'17.2'
p456
sg396
S'4.1'
p457
sg63
S'1755'
p458
sg399
S'1.4'
p459
sg55
S'1981-82'
p460
sg402
S'5.2'
p461
sba(isrc.gp1.models.Advanced
Advanced
p462
(dp463
g357
S'4.0'
p464
sg359
S'18.2'
p465
sg361
S'.064'
p466
sg363
S'1.7'
p467
sg365
S'16.5'
p468
sg367
S'6.3'
p469
sg369
S'-1.6'
p470
sg21
S'SG'
p471
sg372
S'-0.1'
p472
sg374
S'.551'
p473
sg376
S'8.7'
p474
sg378
S'.574'
p475
sg380
S'.051'
p476
sg27
S'NBA'
p477
sg383
S'-0.8'
p478
sg385
S'13.4'
p479
sg387
S'0.2'
p480
sg39
S'25'
p481
sg41
S'DAL'
p482
sg43
S'48'
p483
sg392
S'0.2'
p484
sg394
S'12.2'
p485
sg396
S'0.8'
p486
sg63
S'722'
p487
sg399
S'-2.4'
p488
sg55
S'1982-83'
p489
sg402
S'1.0'
p490
sba(isrc.gp1.models.Advanced
Advanced
p491
(dp492
g357
S'10.8'
p493
sg359
S'15.6'
p494
sg361
S'.141'
p495
sg363
S'5.4'
p496
sg365
S'19.9'
p497
sg367
S'7.5'
p498
sg369
S'0.8'
p499
sg21
S'SG'
p500
sg372
S'0.1'
p501
sg374
S'.552'
p502
sg376
S'4.3'
p503
sg378
S'.813'
p504
sg380
S'.125'
p505
sg27
S'NBA'
p506
sg383
S'1.8'
p507
sg385
S'11.9'
p508
sg387
S'0.1'
p509
sg39
S'26'
p510
sg41
S'DAL'
p511
sg43
g172
sg392
S'0.0'
p512
sg394
S'16.8'
p513
sg396
S'0.1'
p514
sg63
S'54'
p515
sg399
S'2.6'
p516
sg55
S'1983-84'
p517
sg402
S'0.2'
p518
sbasS'_per36Minutes'
p519
(lp520
(isrc.gp1.models.Per36Minutes
Per36Minutes
p521
(dp522
g8
S'2.2'
p523
sg10
S'.000'
p524
sg12
S'0.0'
p525
sg14
S'1.0'
p526
sg16
S'5.9'
p527
sg18
S'0.2'
p528
sg20
g3
sg21
S'SG'
p529
sg23
S'2.2'
p530
sg27
S'NBA'
p531
sg29
S'0.5'
p532
sg31
S'.471'
p533
sg33
S'16.1'
p534
sg35
S'.831'
p535
sg37
S'4.2'
p536
sg39
S'22'
p537
sg41
S'PHI'
p538
sg43
S'40'
p539
sg45
S'4.6'
p540
sg47
S'12.3'
p541
sg49
S'5.3'
p542
sg51
S'.477'
p543
sg53
S'4.4'
p544
sg55
S'1979-80'
p545
sg57
S'12.5'
p546
sg59
S'4.7'
p547
sg61
S'4.4'
p548
sg63
S'5.9'
p549
sg65
S'442'
p550
sba(isrc.gp1.models.Per36Minutes
Per36Minutes
p551
(dp552
g8
S'2.4'
p553
sg10
S'.100'
p554
sg12
S'0.0'
p555
sg14
S'1.8'
p556
sg16
S'6.3'
p557
sg18
S'0.2'
p558
sg20
g3
sg21
S'SF'
p559
sg23
S'2.2'
p560
sg27
S'NBA'
p561
sg29
S'0.3'
p562
sg31
S'.467'
p563
sg33
S'18.4'
p564
sg35
S'.887'
p565
sg37
S'3.6'
p566
sg39
S'23'
p567
sg41
S'DAL'
p568
sg43
S'82'
p569
sg45
S'2.7'
p570
sg47
S'13.3'
p571
sg49
S'6.6'
p572
sg51
S'.471'
p573
sg53
S'4.6'
p574
sg55
S'1980-81'
p575
sg57
S'13.5'
p576
sg59
S'3.6'
p577
sg61
S'5.8'
p578
sg63
S'6.3'
p579
sg65
S'2317'
p580
sba(isrc.gp1.models.Per36Minutes
Per36Minutes
p581
(dp582
g8
S'2.0'
p583
sg10
S'0.5'
p584
sg12
S'.479'
p585
sg14
S'4.2'
p586
sg16
S'.333'
p587
sg18
S'0.2'
p588
sg20
S'17.0'
p589
sg21
S'SG'
p590
sg23
S'.853'
p591
sg27
S'NBA'
p592
sg29
S'1.8'
p593
sg31
S'11.6'
p594
sg33
S'2.9'
p595
sg35
S'6.7'
p596
sg37
S'4.3'
p597
sg39
S'24'
p598
sg41
S'DAL'
p599
sg43
S'82'
p600
sg45
S'0.2'
p601
sg47
S'5.4'
p602
sg49
S'5.7'
p603
sg51
S'11.1'
p604
sg53
S'2.3'
p605
sg55
S'1981-82'
p606
sg57
S'5.5'
p607
sg59
S'2.3'
p608
sg61
S'.485'
p609
sg63
S'1755'
p610
sg65
g71
sba(isrc.gp1.models.Per36Minutes
Per36Minutes
p611
(dp612
g8
S'1.3'
p613
sg10
S'0.5'
p614
sg12
S'.462'
p615
sg14
S'3.9'
p616
sg16
S'.200'
p617
sg18
S'0.1'
p618
sg20
S'13.6'
p619
sg21
S'SG'
p620
sg23
S'.779'
p621
sg27
S'NBA'
p622
sg29
S'1.3'
p623
sg31
S'9.8'
p624
sg33
S'2.9'
p625
sg35
S'5.6'
p626
sg37
S'4.2'
p627
sg39
S'25'
p628
sg41
S'DAL'
p629
sg43
S'48'
p630
sg45
S'0.1'
p631
sg47
S'4.4'
p632
sg49
S'4.4'
p633
sg51
S'9.3'
p634
sg53
S'2.8'
p635
sg55
S'1982-83'
p636
sg57
S'4.5'
p637
sg59
S'2.7'
p638
sg61
S'.476'
p639
sg63
S'722'
p640
sg65
g159
sba(isrc.gp1.models.Per36Minutes
Per36Minutes
p641
(dp642
g8
S'3.3'
p643
sg10
S'1.3'
p644
sg12
S'.438'
p645
sg14
S'3.3'
p646
sg16
S'.500'
p647
sg18
S'0.7'
p648
sg20
S'16.0'
p649
sg21
S'SG'
p650
sg23
S'.692'
p651
sg27
S'NBA'
p652
sg29
S'4.0'
p653
sg31
S'10.7'
p654
sg33
S'5.3'
p655
sg35
S'8.7'
p656
sg37
S'4.7'
p657
sg39
S'26'
p658
sg41
S'DAL'
p659
sg43
g172
sg45
S'0.0'
p660
sg47
S'4.0'
p661
sg49
S'6.0'
p662
sg51
S'9.3'
p663
sg53
S'1.3'
p664
sg55
S'1983-84'
p665
sg57
S'4.7'
p666
sg59
S'2.7'
p667
sg61
S'.429'
p668
sg63
S'54'
p669
sg65
g13
sbasS'_fromYear'
p670
S'1980'
p671
sS'_url'
p672
S'http://www.basketball-reference.com/players/s/spanaji01.html'
p673
sS'_perGame'
p674
(isrc.gp1.models.PerGame
PerGame
p675
(dp676
g8
S'0.7'
p677
sg10
S'0.3'
p678
sg12
S'.438'
p679
sS'_effectiveFieldGalPercentage'
p680
S'.469'
p681
sg14
S'0.7'
p682
sg16
S'.500'
p683
sg18
S'0.1'
p684
sg20
S'3.4'
p685
sg21
S'SG'
p686
sg23
S'.692'
p687
sg27
S'NBA'
p688
sg29
S'0.9'
p689
sg33
S'1.1'
p690
sS'_fieldGoalsttempted'
p691
S'2.3'
p692
sg35
S'1.9'
p693
sg37
S'1.0'
p694
sg39
S'26'
p695
sg41
S'DAL'
p696
sg43
g172
sg45
S'0.0'
p697
sg47
S'0.9'
p698
sg49
S'1.3'
p699
sg51
S'2.0'
p700
sg53
S'0.3'
p701
sg55
S'1983-84'
p702
sg57
S'1.0'
p703
sg59
S'0.6'
p704
sg61
S'.429'
p705
sg63
S'7.7'
p706
sg65
g13
sbsS'_weight'
p707
S'190'
p708
sS'_dob'
p709
S'28-6-1957'
p710
sS'_salary'
p711
(lp712
sg21
S'G-F'
p713
sb.