(isrc.gp1.models.Player
Player
p0
(dp1
S'_experience'
p2
V8
p3
sS'_totals'
p4
(lp5
(isrc.gp1.models.Totals
Totals
p6
(dp7
S'_offensiveRebounds'
p8
S'174'
p9
sS'_threePointsAttempted'
p10
S'1'
p11
sS'_fieldGoalsPercentage'
p12
S'.482'
p13
sS'_assist'
p14
S'84'
p15
sS'_threePointsPercentage'
p16
S'.000'
p17
sS'_threePoints'
p18
S'0'
p19
sS'_points'
p20
S'488'
p21
sS'_position'
p22
S'C'
p23
sS'_freeThrowsPercentage'
p24
S'.691'
p25
sS'_effectiveFieldGoalPercentage'
p26
S'.482'
p27
sS'_league'
p28
S'NBA'
p29
sS'_steals'
p30
S'68'
p31
sS'_fieldGoalsAttempted'
p32
S'367'
p33
sS'_personalFouls'
p34
S'173'
p35
sS'_freeThrowsAttempted'
p36
S'194'
p37
sS'_totalRebounds'
p38
S'416'
p39
sS'_age'
p40
S'22'
p41
sS'_team'
p42
S'CHI'
p43
sS'_games'
p44
S'74'
p45
sS'_blocks'
p46
S'64'
p47
sS'_twoPoints'
p48
S'177'
p49
sS'_freeThrows'
p50
S'134'
p51
sS'_twoPointsAttempted'
p52
S'366'
p53
sS'_defensiveRebounds'
p54
S'242'
p55
sS'_season'
p56
S'2007-08'
p57
sS'_fieldGoals'
p58
S'177'
p59
sS'_turnOvers'
p60
S'89'
p61
sS'_twoPointsPercentage'
p62
S'.484'
p63
sS'_minutesPlayed'
p64
S'1534'
p65
sS'_gamesStarted'
p66
S'31'
p67
sba(isrc.gp1.models.Totals
Totals
p68
(dp69
g8
S'244'
p70
sg10
g11
sg12
S'.556'
p71
sg14
S'106'
p72
sg16
S'.000'
p73
sg18
g19
sg20
S'537'
p74
sg22
g23
sg24
S'.676'
p75
sg26
S'.556'
p76
sg28
S'NBA'
p77
sg30
S'49'
p78
sg32
S'372'
p79
sg34
S'238'
p80
sg36
S'182'
p81
sg38
S'606'
p82
sg40
S'23'
p83
sg42
S'CHI'
p84
sg44
S'80'
p85
sg46
S'110'
p86
sg48
S'207'
p87
sg50
S'123'
p88
sg52
S'371'
p89
sg54
S'362'
p90
sg56
S'2008-09'
p91
sg58
S'207'
p92
sg60
S'82'
p93
sg62
S'.558'
p94
sg64
S'1938'
p95
sg66
S'55'
p96
sba(isrc.gp1.models.Totals
Totals
p97
(dp98
g8
S'484'
p99
sg10
g19
sg12
S'.504'
p100
sg14
S'32'
p101
sg16
S'262'
p102
sg18
g19
sg20
S'NA'
p103
sg22
g23
sg24
S'220'
p104
sg26
S'163'
p105
sg28
S'NBA'
p106
sg30
S'100'
p107
sg32
S'520'
p108
sg34
S'687'
p109
sg36
S'.744'
p110
sg38
S'132'
p111
sg40
S'24'
p112
sg42
S'CHI'
p113
sg44
S'64'
p114
sg46
S'117'
p115
sg48
S'520'
p116
sg50
S'219'
p117
sg52
S'.504'
p118
sg54
S'704'
p119
sg56
S'2009-10'
p120
sg58
S'262'
p121
sg60
S'198'
p122
sg62
S'.504'
p123
sg64
S'1925'
p124
sg66
S'54'
p125
sba(isrc.gp1.models.Totals
Totals
p126
(dp127
g8
S'182'
p128
sg10
g11
sg12
S'.525'
p129
sg14
S'107'
p130
sg16
S'.000'
p131
sg18
g19
sg20
S'561'
p132
sg22
g23
sg24
S'.739'
p133
sg26
S'.525'
p134
sg28
S'NBA'
p135
sg30
S'48'
p136
sg32
S'402'
p137
sg34
S'156'
p138
sg36
S'188'
p139
sg38
S'498'
p140
sg40
S'25'
p141
sg42
S'CHI'
p142
sg44
S'48'
p143
sg46
S'72'
p144
sg48
S'211'
p145
sg50
S'139'
p146
sg52
S'401'
p147
sg54
S'316'
p148
sg56
S'2010-11'
p149
sg58
S'211'
p150
sg60
S'90'
p151
sg62
S'.526'
p152
sg64
S'1576'
p153
sg66
S'48'
p154
sba(isrc.gp1.models.Totals
Totals
p155
(dp156
g8
S'242'
p157
sg10
g11
sg12
S'.508'
p158
sg14
S'160'
p159
sg16
S'.000'
p160
sg18
g19
sg20
S'652'
p161
sg22
g23
sg24
S'.748'
p162
sg26
S'.508'
p163
sg28
S'NBA'
p164
sg30
S'41'
p165
sg32
S'490'
p166
sg34
S'162'
p167
sg36
S'206'
p168
sg38
S'629'
p169
sg40
S'26'
p170
sg42
S'CHI'
p171
sg44
S'64'
p172
sg46
S'92'
p173
sg48
S'249'
p174
sg50
S'154'
p175
sg52
S'489'
p176
sg54
S'387'
p177
sg56
S'2011-12'
p178
sg58
S'249'
p179
sg60
S'92'
p180
sg62
S'.509'
p181
sg64
S'1945'
p182
sg66
S'64'
p183
sba(isrc.gp1.models.Totals
Totals
p184
(dp185
g8
S'260'
p186
sg10
S'5'
p187
sg12
S'.481'
p188
sg14
S'262'
p189
sg16
S'.000'
p190
sg18
g19
sg20
S'784'
p191
sg22
g23
sg24
S'.751'
p192
sg26
S'.481'
p193
sg28
S'NBA'
p194
sg30
S'78'
p195
sg32
S'630'
p196
sg34
S'185'
p197
sg36
S'237'
p198
sg38
S'733'
p199
sg40
S'27'
p200
sg42
S'CHI'
p201
sg44
S'66'
p202
sg46
S'141'
p203
sg48
S'303'
p204
sg50
S'178'
p205
sg52
S'625'
p206
sg54
S'473'
p207
sg56
S'2012-13'
p208
sg58
S'303'
p209
sg60
S'176'
p210
sg62
S'.485'
p211
sg64
S'2426'
p212
sg66
S'64'
p213
sba(isrc.gp1.models.Totals
Totals
p214
(dp215
g8
S'282'
p216
sg10
S'2'
p217
sg12
S'.475'
p218
sg14
S'431'
p219
sg16
S'.000'
p220
sg18
g19
sg20
S'1007'
p221
sg22
g23
sg24
S'.737'
p222
sg26
S'.475'
p223
sg28
S'NBA'
p224
sg30
S'99'
p225
sg32
S'800'
p226
sg34
S'245'
p227
sg36
S'335'
p228
sg38
S'900'
p229
sg40
S'28'
p230
sg42
S'CHI'
p231
sg44
S'80'
p232
sg46
S'121'
p233
sg48
S'380'
p234
sg50
S'247'
p235
sg52
S'798'
p236
sg54
S'618'
p237
sg56
S'2013-14'
p238
sg58
S'380'
p239
sg60
S'194'
p240
sg62
S'.476'
p241
sg64
S'2820'
p242
sg66
S'80'
p243
sba(isrc.gp1.models.Totals
Totals
p244
(dp245
g8
S'219'
p246
sg10
g217
sg12
S'.445'
p247
sg14
S'312'
p248
sg16
S'.000'
p249
sg18
g19
sg20
S'485'
p250
sg22
g23
sg24
S'.603'
p251
sg26
S'.445'
p252
sg28
S'NBA'
p253
sg30
S'48'
p254
sg32
S'427'
p255
sg34
S'203'
p256
sg36
S'174'
p257
sg38
S'646'
p258
sg40
S'29'
p259
sg42
S'CHI'
p260
sg44
S'67'
p261
sg46
S'74'
p262
sg48
S'190'
p263
sg50
S'105'
p264
sg52
S'425'
p265
sg54
S'427'
p266
sg56
S'2014-15'
p267
sg58
S'190'
p268
sg60
S'123'
p269
sg62
S'.447'
p270
sg64
S'2049'
p271
sg66
S'67'
p272
sba(isrc.gp1.models.Totals
Totals
p273
(dp274
g8
S'87'
p275
sg10
g11
sg12
S'.383'
p276
sg14
S'110'
p277
sg16
S'.000'
p278
sg18
g19
sg20
S'124'
p279
sg22
g23
sg24
S'.489'
p280
sg26
S'.383'
p281
sg28
S'NBA'
p282
sg30
S'18'
p283
sg32
S'133'
p284
sg34
S'77'
p285
sg36
S'45'
p286
sg38
S'255'
p287
sg40
S'30'
p288
sg42
S'CHI'
p289
sg44
S'29'
p290
sg46
S'29'
p291
sg48
S'51'
p292
sg50
S'22'
p293
sg52
S'132'
p294
sg54
S'168'
p295
sg56
S'2015-16'
p296
sg58
S'51'
p297
sg60
S'52'
p298
sg62
S'.386'
p299
sg64
S'635'
p300
sg66
g217
sbasS'_college'
p301
S'University of Florida'
p302
sS'_toYear'
p303
S'2016'
p304
sS'_height'
p305
S'6-11'
p306
sS'_active'
p307
I01
sS'_shootingHand'
p308
VRight
p309
sS'_name'
p310
S'Joakim Noah'
p311
sS'_per100Possessions'
p312
(lp313
(isrc.gp1.models.Per100Possession
Per100Possession
p314
(dp315
g8
S'5.9'
p316
sg10
S'0.0'
p317
sg12
S'.482'
p318
sS'_offensiveRating'
p319
S'109'
p320
sg14
S'2.8'
p321
sg16
S'.000'
p322
sg18
S'0.0'
p323
sg20
S'16.4'
p324
sg22
g23
sS'_defensiveRating'
p325
S'104'
p326
sg24
S'.691'
p327
sg28
S'NBA'
p328
sg30
S'2.3'
p329
sg32
S'12.3'
p330
sg34
S'5.8'
p331
sg36
S'6.5'
p332
sg38
S'14.0'
p333
sg40
S'22'
p334
sg42
S'CHI'
p335
sg44
S'74'
p336
sg46
S'2.2'
p337
sg48
S'6.0'
p338
sg50
S'4.5'
p339
sg52
S'12.3'
p340
sg54
S'8.1'
p341
sg56
S'2007-08'
p342
sg58
S'6.0'
p343
sg60
S'3.0'
p344
sg62
S'.484'
p345
sg64
S'1534'
p346
sg66
S'31'
p347
sba(isrc.gp1.models.Per100Possession
Per100Possession
p348
(dp349
g8
S'6.5'
p350
sg10
S'0.0'
p351
sg12
S'.556'
p352
sg319
S'123'
p353
sg14
S'2.8'
p354
sg16
S'.000'
p355
sg18
S'0.0'
p356
sg20
S'14.3'
p357
sg22
g23
sg325
S'105'
p358
sg24
S'.676'
p359
sg28
S'NBA'
p360
sg30
S'1.3'
p361
sg32
S'9.9'
p362
sg34
S'6.3'
p363
sg36
S'4.8'
p364
sg38
S'16.1'
p365
sg40
S'23'
p366
sg42
S'CHI'
p367
sg44
S'80'
p368
sg46
S'2.9'
p369
sg48
S'5.5'
p370
sg50
S'3.3'
p371
sg52
S'9.9'
p372
sg54
S'9.6'
p373
sg56
S'2008-09'
p374
sg58
S'5.5'
p375
sg60
S'2.2'
p376
sg62
S'.558'
p377
sg64
S'1938'
p378
sg66
S'55'
p379
sba(isrc.gp1.models.Per100Possession
Per100Possession
p380
(dp381
g8
S'13.0'
p382
sg10
S'0.0'
p383
sg12
S'.504'
p384
sg319
S'101'
p385
sg14
S'0.9'
p386
sg16
S'7.0'
p387
sg18
S'0.0'
p388
sg20
S'112'
p389
sg22
g23
sg325
g103
sg24
S'5.9'
p390
sg28
S'NBA'
p391
sg30
S'2.7'
p392
sg32
S'13.9'
p393
sg34
S'18.4'
p394
sg36
S'.744'
p395
sg38
S'3.5'
p396
sg40
S'24'
p397
sg42
S'CHI'
p398
sg44
S'64'
p399
sg46
S'3.1'
p400
sg48
S'13.9'
p401
sg50
S'5.9'
p402
sg52
S'.504'
p403
sg54
S'18.9'
p404
sg56
S'2009-10'
p405
sg58
S'7.0'
p406
sg60
S'5.3'
p407
sg62
S'4.4'
p408
sg64
S'1925'
p409
sg66
S'54'
p410
sba(isrc.gp1.models.Per100Possession
Per100Possession
p411
(dp412
g8
S'6.1'
p413
sg10
S'0.0'
p414
sg12
S'.525'
p415
sg319
S'117'
p416
sg14
S'3.6'
p417
sg16
S'.000'
p418
sg18
S'0.0'
p419
sg20
S'18.9'
p420
sg22
g23
sg325
S'97'
p421
sg24
S'.739'
p422
sg28
S'NBA'
p423
sg30
S'1.6'
p424
sg32
S'13.6'
p425
sg34
S'5.3'
p426
sg36
S'6.3'
p427
sg38
S'16.8'
p428
sg40
S'25'
p429
sg42
S'CHI'
p430
sg44
S'48'
p431
sg46
S'2.4'
p432
sg48
S'7.1'
p433
sg50
S'4.7'
p434
sg52
S'13.5'
p435
sg54
S'10.7'
p436
sg56
S'2010-11'
p437
sg58
S'7.1'
p438
sg60
S'3.0'
p439
sg62
S'.526'
p440
sg64
S'1576'
p441
sg66
S'48'
p442
sba(isrc.gp1.models.Per100Possession
Per100Possession
p443
(dp444
g8
S'6.7'
p445
sg10
S'0.0'
p446
sg12
S'.508'
p447
sg319
S'120'
p448
sg14
S'4.4'
p449
sg16
S'.000'
p450
sg18
S'0.0'
p451
sg20
S'18.1'
p452
sg22
g23
sg325
S'96'
p453
sg24
S'.748'
p454
sg28
S'NBA'
p455
sg30
S'1.1'
p456
sg32
S'13.6'
p457
sg34
S'4.5'
p458
sg36
S'5.7'
p459
sg38
S'17.4'
p460
sg40
S'26'
p461
sg42
S'CHI'
p462
sg44
S'64'
p463
sg46
S'2.5'
p464
sg48
S'6.9'
p465
sg50
S'4.3'
p466
sg52
S'13.5'
p467
sg54
S'10.7'
p468
sg56
S'2011-12'
p469
sg58
S'6.9'
p470
sg60
S'2.5'
p471
sg62
S'.509'
p472
sg64
S'1945'
p473
sg66
S'64'
p474
sba(isrc.gp1.models.Per100Possession
Per100Possession
p475
(dp476
g8
S'5.8'
p477
sg10
S'0.1'
p478
sg12
S'.481'
p479
sg319
S'107'
p480
sg14
S'5.8'
p481
sg16
S'.000'
p482
sg18
S'0.0'
p483
sg20
S'17.4'
p484
sg22
g23
sg325
S'99'
p485
sg24
S'.751'
p486
sg28
S'NBA'
p487
sg30
S'1.7'
p488
sg32
S'14.0'
p489
sg34
S'4.1'
p490
sg36
S'5.2'
p491
sg38
S'16.2'
p492
sg40
S'27'
p493
sg42
S'CHI'
p494
sg44
S'66'
p495
sg46
S'3.1'
p496
sg48
S'6.7'
p497
sg50
S'3.9'
p498
sg52
S'13.8'
p499
sg54
S'10.5'
p500
sg56
S'2012-13'
p501
sg58
S'6.7'
p502
sg60
S'3.9'
p503
sg62
S'.485'
p504
sg64
S'2426'
p505
sg66
S'64'
p506
sba(isrc.gp1.models.Per100Possession
Per100Possession
p507
(dp508
g8
S'5.3'
p509
sg10
S'0.0'
p510
sg12
S'.475'
p511
sg319
S'111'
p512
sg14
S'8.1'
p513
sg16
S'.000'
p514
sg18
S'0.0'
p515
sg20
S'19.0'
p516
sg22
g23
sg325
S'96'
p517
sg24
S'.737'
p518
sg28
S'NBA'
p519
sg30
S'1.9'
p520
sg32
S'15.1'
p521
sg34
S'4.6'
p522
sg36
S'6.3'
p523
sg38
S'17.0'
p524
sg40
S'28'
p525
sg42
S'CHI'
p526
sg44
S'80'
p527
sg46
S'2.3'
p528
sg48
S'7.2'
p529
sg50
S'4.7'
p530
sg52
S'15.1'
p531
sg54
S'11.7'
p532
sg56
S'2013-14'
p533
sg58
S'7.2'
p534
sg60
S'3.7'
p535
sg62
S'.476'
p536
sg64
S'2820'
p537
sg66
S'80'
p538
sba(isrc.gp1.models.Per100Possession
Per100Possession
p539
(dp540
g8
S'5.5'
p541
sg10
S'0.1'
p542
sg12
S'.445'
p543
sg319
S'109'
p544
sg14
S'7.9'
p545
sg16
S'.000'
p546
sg18
S'0.0'
p547
sg20
S'12.2'
p548
sg22
g23
sg325
S'102'
p549
sg24
S'.603'
p550
sg28
S'NBA'
p551
sg30
S'1.2'
p552
sg32
S'10.8'
p553
sg34
S'5.1'
p554
sg36
S'4.4'
p555
sg38
S'16.3'
p556
sg40
S'29'
p557
sg42
S'CHI'
p558
sg44
S'67'
p559
sg46
S'1.9'
p560
sg48
S'4.8'
p561
sg50
S'2.7'
p562
sg52
S'10.7'
p563
sg54
S'10.8'
p564
sg56
S'2014-15'
p565
sg58
S'4.8'
p566
sg60
S'3.1'
p567
sg62
S'.447'
p568
sg64
S'2049'
p569
sg66
S'67'
p570
sba(isrc.gp1.models.Per100Possession
Per100Possession
p571
(dp572
g8
S'6.8'
p573
sg10
S'0.1'
p574
sg12
S'.383'
p575
sg319
S'97'
p576
sg14
S'8.6'
p577
sg16
S'.000'
p578
sg18
S'0.0'
p579
sg20
S'9.7'
p580
sg22
g23
sg325
S'98'
p581
sg24
S'.489'
p582
sg28
S'NBA'
p583
sg30
S'1.4'
p584
sg32
S'10.5'
p585
sg34
S'6.1'
p586
sg36
S'3.5'
p587
sg38
S'20.0'
p588
sg40
S'30'
p589
sg42
S'CHI'
p590
sg44
S'29'
p591
sg46
S'2.3'
p592
sg48
S'4.0'
p593
sg50
S'1.7'
p594
sg52
S'10.4'
p595
sg54
S'13.2'
p596
sg56
S'2015-16'
p597
sg58
S'4.0'
p598
sg60
S'4.1'
p599
sg62
S'.386'
p600
sg64
S'635'
p601
sg66
g217
sbasS'_advanced'
p602
(lp603
(isrc.gp1.models.Advanced
Advanced
p604
(dp605
S'_offensiveReboundPercentage'
p606
S'12.4'
p607
sS'_turnOverPercentage'
p608
S'16.4'
p609
sS'_winSharesPer48Minutes'
p610
S'.120'
p611
sS'_stealPercentage'
p612
S'2.3'
p613
sS'_usagePercentage'
p614
S'15.6'
p615
sS'_totalReboundsPercentage'
p616
S'15.3'
p617
sS'_defensiveBoxPlusMinus'
p618
S'2.8'
p619
sg22
g23
sS'_valueOverReplacementPlayer'
p620
S'1.4'
p621
sS'_trueShootingPercentage'
p622
S'.539'
p623
sS'_defensiveReboundPercentage'
p624
S'18.4'
p625
sS'_freeThrowsAttempRate'
p626
S'.529'
p627
sS'_threePointsAttempRate'
p628
S'.003'
p629
sg28
S'NBA'
p630
sS'_offensiveBoxPlusMinues'
p631
S'-1.2'
p632
sS'_assistPercentage'
p633
S'8.6'
p634
sS'_defensiveWinShares'
p635
S'2.3'
p636
sg40
S'22'
p637
sg42
S'CHI'
p638
sg44
S'74'
p639
sS'_blockPercentage'
p640
S'3.3'
p641
sS'_playerEfficiencyRating'
p642
S'15.5'
p643
sS'_offensiveWinShares'
p644
S'1.5'
p645
sg64
S'1534'
p646
sS'_boxPlusMinus'
p647
S'1.6'
p648
sg56
S'2007-08'
p649
sS'_winShares'
p650
S'3.8'
p651
sba(isrc.gp1.models.Advanced
Advanced
p652
(dp653
g606
S'14.5'
p654
sg608
S'15.4'
p655
sg610
S'.159'
p656
sg612
S'1.3'
p657
sg614
S'12.3'
p658
sg616
S'17.9'
p659
sg618
S'2.8'
p660
sg22
g23
sg620
S'2.6'
p661
sg622
S'.594'
p662
sg624
S'21.3'
p663
sg626
S'.489'
p664
sg628
S'.003'
p665
sg28
S'NBA'
p666
sg631
S'0.5'
p667
sg633
S'8.1'
p668
sg635
S'2.7'
p669
sg40
S'23'
p670
sg42
S'CHI'
p671
sg44
S'80'
p672
sg640
S'4.1'
p673
sg642
S'16.5'
p674
sg644
S'3.8'
p675
sg64
S'1938'
p676
sg647
S'3.4'
p677
sg56
S'2008-09'
p678
sg650
S'6.4'
p679
sba(isrc.gp1.models.Advanced
Advanced
p680
(dp681
g606
S'12.9'
p682
sg608
S'16.0'
p683
sg610
S'.154'
p684
sg612
S'0.9'
p685
sg614
S'17.1'
p686
sg616
S'20.3'
p687
sg618
S'3.3'
p688
sg22
g23
sg620
S'2.2'
p689
sg622
S'.557'
p690
sg624
S'27.6'
p691
sg626
S'.421'
p692
sg628
S'.000'
p693
sg28
S'NBA'
p694
sg631
S'-0.7'
p695
sg633
S'10.8'
p696
sg635
S'3.5'
p697
sg40
S'24'
p698
sg42
S'CHI'
p699
sg44
S'64'
p700
sg640
S'4.0'
p701
sg642
S'17.9'
p702
sg644
S'2.7'
p703
sg64
S'1925'
p704
sg647
S'2.5'
p705
sg56
S'2009-10'
p706
sg650
S'6.2'
p707
sba(isrc.gp1.models.Advanced
Advanced
p708
(dp709
g606
S'13.9'
p710
sg608
S'15.7'
p711
sg610
S'.205'
p712
sg612
S'1.6'
p713
sg614
S'16.8'
p714
sg616
S'18.5'
p715
sg618
S'4.2'
p716
sg22
g23
sg620
S'2.8'
p717
sg622
S'.579'
p718
sg624
S'22.8'
p719
sg626
S'.468'
p720
sg628
S'.002'
p721
sg28
S'NBA'
p722
sg631
S'0.7'
p723
sg633
S'10.7'
p724
sg635
S'3.6'
p725
sg40
S'25'
p726
sg42
S'CHI'
p727
sg44
S'48'
p728
sg640
S'3.5'
p729
sg642
S'18.8'
p730
sg644
S'3.1'
p731
sg64
S'1576'
p732
sg647
S'4.9'
p733
sg56
S'2010-11'
p734
sg650
S'6.7'
p735
sba(isrc.gp1.models.Advanced
Advanced
p736
(dp737
g606
S'14.1'
p738
sg608
S'13.7'
p739
sg610
S'.223'
p740
sg612
S'1.1'
p741
sg614
S'15.8'
p742
sg616
S'18.0'
p743
sg618
S'4.0'
p744
sg22
g23
sg620
S'3.8'
p745
sg622
S'.561'
p746
sg624
S'21.8'
p747
sg626
S'.420'
p748
sg628
S'.002'
p749
sg28
S'NBA'
p750
sg631
S'1.8'
p751
sg633
S'12.7'
p752
sg635
S'4.2'
p753
sg40
S'26'
p754
sg42
S'CHI'
p755
sg44
S'64'
p756
sg640
S'3.4'
p757
sg642
S'19.6'
p758
sg644
S'4.9'
p759
sg64
S'1945'
p760
sg647
S'5.8'
p761
sg56
S'2011-12'
p762
sg650
S'9.0'
p763
sba(isrc.gp1.models.Advanced
Advanced
p764
(dp765
g606
S'12.2'
p766
sg608
S'19.3'
p767
sg610
S'.145'
p768
sg612
S'1.7'
p769
sg614
S'17.2'
p770
sg616
S'17.3'
p771
sg618
S'5.1'
p772
sg22
g23
sg620
S'4.4'
p773
sg622
S'.534'
p774
sg624
S'22.6'
p775
sg626
S'.376'
p776
sg628
S'.008'
p777
sg28
S'NBA'
p778
sg631
S'0.1'
p779
sg633
S'17.6'
p780
sg635
S'4.7'
p781
sg40
S'27'
p782
sg42
S'CHI'
p783
sg44
S'66'
p784
sg640
S'4.4'
p785
sg642
S'18.1'
p786
sg644
S'2.7'
p787
sg64
S'2426'
p788
sg647
S'5.2'
p789
sg56
S'2012-13'
p790
sg650
S'7.3'
p791
sba(isrc.gp1.models.Advanced
Advanced
p792
(dp793
g606
S'11.6'
p794
sg608
S'17.0'
p795
sg610
S'.190'
p796
sg612
S'1.9'
p797
sg614
S'18.7'
p798
sg616
S'18.2'
p799
sg618
S'5.5'
p800
sg22
g23
sg620
S'6.1'
p801
sg622
S'.531'
p802
sg624
S'24.5'
p803
sg626
S'.419'
p804
sg628
S'.003'
p805
sg28
S'NBA'
p806
sg631
S'1.1'
p807
sg633
S'26.4'
p808
sg635
S'6.6'
p809
sg40
S'28'
p810
sg42
S'CHI'
p811
sg44
S'80'
p812
sg640
S'3.3'
p813
sg642
S'20.0'
p814
sg644
S'4.5'
p815
sg64
S'2820'
p816
sg647
S'6.6'
p817
sg56
S'2013-14'
p818
sg650
S'11.2'
p819
sba(isrc.gp1.models.Advanced
Advanced
p820
(dp821
g606
S'11.9'
p822
sg608
S'19.6'
p823
sg610
S'.130'
p824
sg612
S'1.2'
p825
sg614
S'13.7'
p826
sg616
S'17.1'
p827
sg618
S'3.6'
p828
sg22
g23
sg620
S'2.8'
p829
sg622
S'.482'
p830
sg624
S'22.1'
p831
sg626
S'.407'
p832
sg628
S'.005'
p833
sg28
S'NBA'
p834
sg631
S'-0.2'
p835
sg633
S'23.0'
p836
sg635
S'3.1'
p837
sg40
S'29'
p838
sg42
S'CHI'
p839
sg44
S'67'
p840
sg640
S'2.6'
p841
sg642
S'15.3'
p842
sg644
S'2.4'
p843
sg64
S'2049'
p844
sg647
S'3.4'
p845
sg56
S'2014-15'
p846
sg650
S'5.6'
p847
sba(isrc.gp1.models.Advanced
Advanced
p848
(dp849
g606
S'14.6'
p850
sg608
S'25.4'
p851
sg610
S'.093'
p852
sg612
S'1.4'
p853
sg614
S'14.0'
p854
sg616
S'20.6'
p855
sg618
S'4.8'
p856
sg22
g23
sg620
S'0.7'
p857
sg622
S'.406'
p858
sg624
S'26.3'
p859
sg626
S'.338'
p860
sg628
S'.008'
p861
sg28
S'NBA'
p862
sg631
S'-2.1'
p863
sg633
S'24.5'
p864
sg635
S'1.2'
p865
sg40
S'30'
p866
sg42
S'CHI'
p867
sg44
S'29'
p868
sg640
S'3.3'
p869
sg642
S'14.2'
p870
sg644
S'0.0'
p871
sg64
S'635'
p872
sg647
S'2.7'
p873
sg56
S'2015-16'
p874
sg650
S'1.2'
p875
sbasS'_per36Minutes'
p876
(lp877
(isrc.gp1.models.Per36Minutes
Per36Minutes
p878
(dp879
g8
S'4.1'
p880
sg10
S'0.0'
p881
sg12
S'.482'
p882
sg14
S'2.0'
p883
sg16
S'.000'
p884
sg18
S'0.0'
p885
sg20
S'11.5'
p886
sg22
g23
sg24
S'.691'
p887
sg28
S'NBA'
p888
sg30
S'1.6'
p889
sg32
S'8.6'
p890
sg34
S'4.1'
p891
sg36
S'4.6'
p892
sg38
S'9.8'
p893
sg40
S'22'
p894
sg42
S'CHI'
p895
sg44
S'74'
p896
sg46
S'1.5'
p897
sg48
S'4.2'
p898
sg50
S'3.1'
p899
sg52
S'8.6'
p900
sg54
S'5.7'
p901
sg56
S'2007-08'
p902
sg58
S'4.2'
p903
sg60
S'2.1'
p904
sg62
S'.484'
p905
sg64
S'1534'
p906
sg66
S'31'
p907
sba(isrc.gp1.models.Per36Minutes
Per36Minutes
p908
(dp909
g8
S'4.5'
p910
sg10
S'0.0'
p911
sg12
S'.556'
p912
sg14
S'2.0'
p913
sg16
S'.000'
p914
sg18
S'0.0'
p915
sg20
S'10.0'
p916
sg22
g23
sg24
S'.676'
p917
sg28
S'NBA'
p918
sg30
S'0.9'
p919
sg32
S'6.9'
p920
sg34
S'4.4'
p921
sg36
S'3.4'
p922
sg38
S'11.3'
p923
sg40
S'23'
p924
sg42
S'CHI'
p925
sg44
S'80'
p926
sg46
S'2.0'
p927
sg48
S'3.8'
p928
sg50
S'2.3'
p929
sg52
S'6.9'
p930
sg54
S'6.7'
p931
sg56
S'2008-09'
p932
sg58
S'3.8'
p933
sg60
S'1.5'
p934
sg62
S'.558'
p935
sg64
S'1938'
p936
sg66
S'55'
p937
sba(isrc.gp1.models.Per36Minutes
Per36Minutes
p938
(dp939
g8
S'9.1'
p940
sg10
S'0.0'
p941
sg12
S'.504'
p942
sg14
S'0.6'
p943
sg16
S'4.9'
p944
sg18
S'0.0'
p945
sg20
g103
sg22
g23
sg24
S'4.1'
p946
sg28
S'NBA'
p947
sg30
S'1.9'
p948
sg32
S'9.7'
p949
sg34
S'12.8'
p950
sg36
S'.744'
p951
sg38
S'2.5'
p952
sg40
S'24'
p953
sg42
S'CHI'
p954
sg44
S'64'
p955
sg46
S'2.2'
p956
sg48
S'9.7'
p957
sg50
S'4.1'
p958
sg52
S'.504'
p959
sg54
S'13.2'
p960
sg56
S'2009-10'
p961
sg58
S'4.9'
p962
sg60
S'3.7'
p963
sg62
S'3.0'
p964
sg64
S'1925'
p965
sg66
S'54'
p966
sba(isrc.gp1.models.Per36Minutes
Per36Minutes
p967
(dp968
g8
S'4.2'
p969
sg10
S'0.0'
p970
sg12
S'.525'
p971
sg14
S'2.4'
p972
sg16
S'.000'
p973
sg18
S'0.0'
p974
sg20
S'12.8'
p975
sg22
g23
sg24
S'.739'
p976
sg28
S'NBA'
p977
sg30
S'1.1'
p978
sg32
S'9.2'
p979
sg34
S'3.6'
p980
sg36
S'4.3'
p981
sg38
S'11.4'
p982
sg40
S'25'
p983
sg42
S'CHI'
p984
sg44
S'48'
p985
sg46
S'1.6'
p986
sg48
S'4.8'
p987
sg50
S'3.2'
p988
sg52
S'9.2'
p989
sg54
S'7.2'
p990
sg56
S'2010-11'
p991
sg58
S'4.8'
p992
sg60
S'2.1'
p993
sg62
S'.526'
p994
sg64
S'1576'
p995
sg66
S'48'
p996
sba(isrc.gp1.models.Per36Minutes
Per36Minutes
p997
(dp998
g8
S'4.5'
p999
sg10
S'0.0'
p1000
sg12
S'.508'
p1001
sg14
S'3.0'
p1002
sg16
S'.000'
p1003
sg18
S'0.0'
p1004
sg20
S'12.1'
p1005
sg22
g23
sg24
S'.748'
p1006
sg28
S'NBA'
p1007
sg30
S'0.8'
p1008
sg32
S'9.1'
p1009
sg34
S'3.0'
p1010
sg36
S'3.8'
p1011
sg38
S'11.6'
p1012
sg40
S'26'
p1013
sg42
S'CHI'
p1014
sg44
S'64'
p1015
sg46
S'1.7'
p1016
sg48
S'4.6'
p1017
sg50
S'2.9'
p1018
sg52
S'9.1'
p1019
sg54
S'7.2'
p1020
sg56
S'2011-12'
p1021
sg58
S'4.6'
p1022
sg60
S'1.7'
p1023
sg62
S'.509'
p1024
sg64
S'1945'
p1025
sg66
S'64'
p1026
sba(isrc.gp1.models.Per36Minutes
Per36Minutes
p1027
(dp1028
g8
S'3.9'
p1029
sg10
S'0.1'
p1030
sg12
S'.481'
p1031
sg14
S'3.9'
p1032
sg16
S'.000'
p1033
sg18
S'0.0'
p1034
sg20
S'11.6'
p1035
sg22
g23
sg24
S'.751'
p1036
sg28
S'NBA'
p1037
sg30
S'1.2'
p1038
sg32
S'9.3'
p1039
sg34
S'2.7'
p1040
sg36
S'3.5'
p1041
sg38
S'10.9'
p1042
sg40
S'27'
p1043
sg42
S'CHI'
p1044
sg44
S'66'
p1045
sg46
S'2.1'
p1046
sg48
S'4.5'
p1047
sg50
S'2.6'
p1048
sg52
S'9.3'
p1049
sg54
S'7.0'
p1050
sg56
S'2012-13'
p1051
sg58
S'4.5'
p1052
sg60
S'2.6'
p1053
sg62
S'.485'
p1054
sg64
S'2426'
p1055
sg66
S'64'
p1056
sba(isrc.gp1.models.Per36Minutes
Per36Minutes
p1057
(dp1058
g8
S'3.6'
p1059
sg10
S'0.0'
p1060
sg12
S'.475'
p1061
sg14
S'5.5'
p1062
sg16
S'.000'
p1063
sg18
S'0.0'
p1064
sg20
S'12.9'
p1065
sg22
g23
sg24
S'.737'
p1066
sg28
S'NBA'
p1067
sg30
S'1.3'
p1068
sg32
S'10.2'
p1069
sg34
S'3.1'
p1070
sg36
S'4.3'
p1071
sg38
S'11.5'
p1072
sg40
S'28'
p1073
sg42
S'CHI'
p1074
sg44
S'80'
p1075
sg46
S'1.5'
p1076
sg48
S'4.9'
p1077
sg50
S'3.2'
p1078
sg52
S'10.2'
p1079
sg54
S'7.9'
p1080
sg56
S'2013-14'
p1081
sg58
S'4.9'
p1082
sg60
S'2.5'
p1083
sg62
S'.476'
p1084
sg64
S'2820'
p1085
sg66
S'80'
p1086
sba(isrc.gp1.models.Per36Minutes
Per36Minutes
p1087
(dp1088
g8
S'3.8'
p1089
sg10
S'0.0'
p1090
sg12
S'.445'
p1091
sg14
S'5.5'
p1092
sg16
S'.000'
p1093
sg18
S'0.0'
p1094
sg20
S'8.5'
p1095
sg22
g23
sg24
S'.603'
p1096
sg28
S'NBA'
p1097
sg30
S'0.8'
p1098
sg32
S'7.5'
p1099
sg34
S'3.6'
p1100
sg36
S'3.1'
p1101
sg38
S'11.3'
p1102
sg40
S'29'
p1103
sg42
S'CHI'
p1104
sg44
S'67'
p1105
sg46
S'1.3'
p1106
sg48
S'3.3'
p1107
sg50
S'1.8'
p1108
sg52
S'7.5'
p1109
sg54
S'7.5'
p1110
sg56
S'2014-15'
p1111
sg58
S'3.3'
p1112
sg60
S'2.2'
p1113
sg62
S'.447'
p1114
sg64
S'2049'
p1115
sg66
S'67'
p1116
sba(isrc.gp1.models.Per36Minutes
Per36Minutes
p1117
(dp1118
g8
S'4.9'
p1119
sg10
S'0.1'
p1120
sg12
S'.383'
p1121
sg14
S'6.2'
p1122
sg16
S'.000'
p1123
sg18
S'0.0'
p1124
sg20
S'7.0'
p1125
sg22
g23
sg24
S'.489'
p1126
sg28
S'NBA'
p1127
sg30
S'1.0'
p1128
sg32
S'7.5'
p1129
sg34
S'4.4'
p1130
sg36
S'2.6'
p1131
sg38
S'14.5'
p1132
sg40
S'30'
p1133
sg42
S'CHI'
p1134
sg44
S'29'
p1135
sg46
S'1.6'
p1136
sg48
S'2.9'
p1137
sg50
S'1.2'
p1138
sg52
S'7.5'
p1139
sg54
S'9.5'
p1140
sg56
S'2015-16'
p1141
sg58
S'2.9'
p1142
sg60
S'2.9'
p1143
sg62
S'.386'
p1144
sg64
S'635'
p1145
sg66
g217
sbasS'_fromYear'
p1146
S'2008'
p1147
sS'_url'
p1148
S'http://www.basketball-reference.com/players/n/noahjo01.html'
p1149
sS'_perGame'
p1150
(isrc.gp1.models.PerGame
PerGame
p1151
(dp1152
g8
S'3.0'
p1153
sg10
S'0.0'
p1154
sg12
S'.383'
p1155
sS'_effectiveFieldGalPercentage'
p1156
S'.383'
p1157
sg14
S'3.8'
p1158
sg16
S'.000'
p1159
sg18
S'0.0'
p1160
sg20
S'4.3'
p1161
sg22
g23
sg24
S'.489'
p1162
sg28
S'NBA'
p1163
sg30
S'0.6'
p1164
sg34
S'2.7'
p1165
sS'_fieldGoalsttempted'
p1166
S'4.6'
p1167
sg36
S'1.6'
p1168
sg38
S'8.8'
p1169
sg40
S'30'
p1170
sg42
S'CHI'
p1171
sg44
S'29'
p1172
sg46
S'1.0'
p1173
sg48
S'1.8'
p1174
sg50
S'0.8'
p1175
sg52
S'4.6'
p1176
sg54
S'5.8'
p1177
sg56
S'2015-16'
p1178
sg58
S'1.8'
p1179
sg60
S'1.8'
p1180
sg62
S'.386'
p1181
sg64
S'21.9'
p1182
sg66
g217
sbsS'_weight'
p1183
S'232'
p1184
sS'_dob'
p1185
S'25-2-1985'
p1186
sS'_salary'
p1187
(lp1188
(isrc.gp1.models.Salary
Salary
p1189
(dp1190
g42
S'Chicago Bulls'
p1191
sg28
S'NBA'
p1192
sg1187
S'$2,135,400'
p1193
sg56
S'2007-08'
p1194
sba(isrc.gp1.models.Salary
Salary
p1195
(dp1196
g42
S'Chicago Bulls'
p1197
sg28
S'NBA'
p1198
sg1187
S'$2,295,480'
p1199
sg56
S'2008-09'
p1200
sba(isrc.gp1.models.Salary
Salary
p1201
(dp1202
g42
S'Chicago Bulls'
p1203
sg28
S'NBA'
p1204
sg1187
S'$2,455,680'
p1205
sg56
S'2009-10'
p1206
sba(isrc.gp1.models.Salary
Salary
p1207
(dp1208
g42
S'Chicago Bulls'
p1209
sg28
S'NBA'
p1210
sg1187
S'$3,128,536'
p1211
sg56
S'2010-11'
p1212
sba(isrc.gp1.models.Salary
Salary
p1213
(dp1214
g42
S'Chicago Bulls'
p1215
sg28
S'NBA'
p1216
sg1187
S'$12,000,000'
p1217
sg56
S'2011-12'
p1218
sba(isrc.gp1.models.Salary
Salary
p1219
(dp1220
g42
S'Chicago Bulls'
p1221
sg28
S'NBA'
p1222
sg1187
S'$11,300,000'
p1223
sg56
S'2012-13'
p1224
sba(isrc.gp1.models.Salary
Salary
p1225
(dp1226
g42
S'Chicago Bulls'
p1227
sg28
S'NBA'
p1228
sg1187
S'$11,100,000'
p1229
sg56
S'2013-14'
p1230
sba(isrc.gp1.models.Salary
Salary
p1231
(dp1232
g42
S'Chicago Bulls'
p1233
sg28
S'NBA'
p1234
sg1187
S'$12,200,000'
p1235
sg56
S'2014-15'
p1236
sbasg22
g23
sb.