(isrc.gp1.models.Player
Player
p0
(dp1
S'_experience'
p2
S'NA'
p3
sS'_totals'
p4
(lp5
(isrc.gp1.models.Totals
Totals
p6
(dp7
S'_offensiveRebounds'
p8
S'44'
p9
sS'_threePointsAttempted'
p10
S'.422'
p11
sS'_fieldGoalsPercentage'
p12
S'233'
p13
sS'_assist'
p14
S'558'
p15
sS'_threePointsPercentage'
p16
S'.422'
p17
sS'_threePoints'
p18
S'552'
p19
sS'_points'
p20
g3
sS'_position'
p21
S'PF'
p22
sS'_freeThrowsPercentage'
p23
S'61'
p24
sS'_effectiveFieldGoalPercentage'
p25
S'97'
p26
sS'_league'
p27
S'NBA'
p28
sS'_steals'
p29
g3
sS'_fieldGoalsAttempted'
p30
S'.422'
p31
sS'_personalFouls'
p32
g3
sS'_freeThrowsAttempted'
p33
S'278'
p34
sS'_totalRebounds'
p35
S'165'
p36
sS'_age'
p37
S'21'
p38
sS'_team'
p39
S'PHI'
p40
sS'_games'
p41
S'75'
p42
sS'_blocks'
p43
g3
sS'_twoPoints'
p44
S'92'
p45
sS'_freeThrows'
p46
S'181'
p47
sS'_twoPointsAttempted'
p48
S'147'
p49
sS'_defensiveRebounds'
p50
S'23'
p51
sS'_season'
p52
S'1975-76'
p53
sS'_fieldGoals'
p54
S'552'
p55
sS'_turnOvers'
p56
g3
sS'_twoPointsPercentage'
p57
S'.626'
p58
sS'_minutesPlayed'
p59
S'233'
p60
sS'_gamesStarted'
p61
S'1203'
p62
sba(isrc.gp1.models.Totals
Totals
p63
(dp64
g8
S'36'
p65
sg10
S'.446'
p66
sg12
S'107'
p67
sg14
S'267'
p68
sg16
S'.446'
p69
sg18
S'240'
p70
sg20
g3
sg21
S'PF'
p71
sg23
S'48'
p72
sg25
S'45'
p73
sg27
S'NBA'
p74
sg29
g3
sg30
S'.446'
p75
sg32
g3
sg33
S'117'
p76
sg35
S'84'
p77
sg37
S'22'
p78
sg39
S'PHI'
p79
sg41
S'61'
p80
sg43
g3
sg44
S'53'
p81
sg46
S'72'
p82
sg48
S'70'
p83
sg50
S'13'
p84
sg52
S'1976-77'
p85
sg54
S'240'
p86
sg56
g3
sg57
S'.757'
p87
sg59
S'107'
p88
sg61
S'612'
p89
sba(isrc.gp1.models.Totals
Totals
p90
(dp91
g8
S'56'
p92
sg10
S'.436'
p93
sg12
S'190'
p94
sg14
S'185'
p95
sg16
S'.436'
p96
sg18
S'436'
p97
sg20
g3
sg21
S'PF'
p98
sg23
S'129'
p99
sg25
S'103'
p100
sg27
S'NBA'
p101
sg29
S'491'
p102
sg30
S'.436'
p103
sg32
g3
sg33
S'280'
p104
sg35
S'115'
p105
sg37
S'23'
p106
sg39
S'PHI'
p107
sg41
S'81'
p108
sg43
g3
sg44
S'111'
p109
sg46
S'177'
p110
sg48
S'144'
p111
sg50
S'24'
p112
sg52
S'1977-78'
p113
sg54
S'436'
p114
sg56
g3
sg57
S'.771'
p115
sg59
S'190'
p116
sg61
S'1236'
p117
sba(isrc.gp1.models.Totals
Totals
p118
(dp119
g8
S'49'
p120
sg10
S'.429'
p121
sg12
S'205'
p122
sg14
S'171'
p123
sg16
S'.429'
p124
sg18
S'478'
p125
sg20
g3
sg21
S'PF'
p126
sg23
S'103'
p127
sg25
S'96'
p128
sg27
S'NBA'
p129
sg29
S'533'
p130
sg30
S'.429'
p131
sg32
g3
sg33
S'259'
p132
sg35
S'114'
p133
sg37
S'24'
p134
sg39
S'PHI'
p135
sg41
S'70'
p136
sg43
g3
sg44
S'123'
p137
sg46
S'163'
p138
sg48
S'170'
p139
sg50
S'9'
p140
sg52
S'1978-79'
p141
sg54
S'478'
p142
sg56
g3
sg57
S'.724'
p143
sg59
S'205'
p144
sg61
S'1064'
p145
sba(isrc.gp1.models.Totals
Totals
p146
(dp147
g8
S'345'
p148
sg10
S'.147'
p149
sg12
S'5'
p150
sg14
S'102'
p151
sg16
S'289'
p152
sg18
S'34'
p153
sg20
g3
sg21
S'PF'
p154
sg23
S'171'
p155
sg25
S'161'
p156
sg27
S'NBA'
p157
sg29
S'39'
p158
sg30
S'.431'
p159
sg32
S'754'
p160
sg33
S'.742'
p161
sg35
S'144'
p162
sg37
S'25'
p163
sg39
S'SDC'
p164
sg41
S'81'
p165
sg43
S'170'
p166
sg44
S'648'
p167
sg46
S'217'
p168
sg48
S'.446'
p169
sg50
S'516'
p170
sg52
S'1979-80'
p171
sg54
S'682'
p172
sg56
S'258'
p173
sg57
S'.435'
p174
sg59
S'294'
p175
sg61
S'2328'
p176
sba(isrc.gp1.models.Totals
Totals
p177
(dp178
g8
S'294'
p179
sg10
S'.133'
p180
sg12
S'2'
p181
sg14
S'72'
p182
sg16
S'377'
p183
sg18
S'15'
p184
sg20
g3
sg21
S'PF'
p185
sg23
S'146'
p186
sg25
S'193'
p187
sg27
S'NBA'
p188
sg29
S'34'
p189
sg30
S'.479'
p190
sg32
S'953'
p191
sg33
S'.791'
p192
sg35
S'189'
p193
sg37
S'26'
p194
sg39
S'SDC'
p195
sg41
S'82'
p196
sg43
S'176'
p197
sg44
S'776'
p198
sg46
S'244'
p199
sg48
S'.486'
p200
sg50
S'440'
p201
sg52
S'1980-81'
p202
sg54
S'791'
p203
sg56
S'264'
p204
sg57
S'.480'
p205
sg59
S'379'
p206
sg61
S'2359'
p207
sba(isrc.gp1.models.Totals
Totals
p208
(dp209
g8
S'79'
p210
sg10
S'30'
p211
sg12
S'.486'
p212
sg14
S'189'
p213
sg16
S'.267'
p214
sg18
S'8'
p215
sg20
S'884'
p216
sg21
S'SF'
p217
sg23
S'.785'
p218
sg25
S'.492'
p219
sg27
S'NBA'
p220
sg29
S'78'
p221
sg30
S'701'
p222
sg32
S'250'
p223
sg33
S'247'
p224
sg35
S'274'
p225
sg37
S'27'
p226
sg39
S'SDC'
p227
sg41
S'75'
p228
sg43
S'29'
p229
sg44
S'333'
p230
sg46
S'194'
p231
sg48
S'671'
p232
sg50
S'195'
p233
sg52
S'1981-82'
p234
sg54
S'341'
p235
sg56
S'183'
p236
sg57
S'.496'
p237
sg59
S'1988'
p238
sg61
S'49'
p239
sba(isrc.gp1.models.Totals
Totals
p240
(dp241
g8
S'88'
p242
sg10
S'36'
p243
sg12
S'.448'
p244
sg14
S'186'
p245
sg16
S'.222'
p246
sg18
g215
sg20
S'812'
p247
sg21
S'SF'
p248
sg23
S'.703'
p249
sg25
S'.453'
p250
sg27
S'NBA'
p251
sg29
S'82'
p252
sg30
S'768'
p253
sg32
S'258'
p254
sg33
S'165'
p255
sg35
S'277'
p256
sg37
S'28'
p257
sg39
S'HOU'
p258
sg41
S'81'
p259
sg43
S'30'
p260
sg44
S'336'
p261
sg46
S'116'
p262
sg48
S'732'
p263
sg50
S'189'
p264
sg52
S'1982-83'
p265
sg54
S'344'
p266
sg56
S'177'
p267
sg57
S'.459'
p268
sg59
S'2055'
p269
sg61
S'56'
p270
sbasS'_college'
p271
S'La Salle University'
p272
sS'_toYear'
p273
S'1983'
p274
sS'_height'
p275
S'6-9'
p276
sS'_active'
p277
I00
sS'_shootingHand'
p278
VLeft
p279
sS'_name'
p280
S'Joe Bryant'
p281
sS'_per100Possessions'
p282
(lp283
(isrc.gp1.models.Per100Possession
Per100Possession
p284
(dp285
g8
S'1.6'
p286
sg10
S'.422'
p287
sg12
S'8.6'
p288
sS'_offensiveRating'
p289
g3
sg14
S'20.7'
p290
sg16
S'3.4'
p291
sg18
S'20.5'
p292
sg20
g3
sg21
S'PF'
p293
sS'_defensiveRating'
p294
g3
sg23
S'2.3'
p295
sg27
S'NBA'
p296
sg29
S'98'
p297
sg30
S'.422'
p298
sg32
g3
sg33
S'10.3'
p299
sg35
S'6.1'
p300
sg37
S'21'
p301
sg39
S'PHI'
p302
sg41
S'75'
p303
sg43
g3
sg44
S'5.5'
p304
sg46
S'6.7'
p305
sg48
S'.626'
p306
sg50
S'0.9'
p307
sg52
S'1975-76'
p308
sg54
S'20.5'
p309
sg56
g3
sg57
S'3.6'
p310
sg59
S'8.6'
p311
sg61
S'1203'
p312
sba(isrc.gp1.models.Per100Possession
Per100Possession
p313
(dp314
g8
S'2.6'
p315
sg10
S'.446'
p316
sg12
S'7.7'
p317
sg289
g3
sg14
S'19.3'
p318
sg16
S'3.8'
p319
sg18
S'17.4'
p320
sg20
g3
sg21
S'PF'
p321
sg294
g3
sg23
S'3.5'
p322
sg27
S'NBA'
p323
sg29
S'97'
p324
sg30
S'.446'
p325
sg32
g3
sg33
S'8.5'
p326
sg35
S'6.1'
p327
sg37
S'22'
p328
sg39
S'PHI'
p329
sg41
S'61'
p330
sg43
g3
sg44
S'5.1'
p331
sg46
S'5.2'
p332
sg48
S'.757'
p333
sg50
S'0.9'
p334
sg52
S'1976-77'
p335
sg54
S'17.4'
p336
sg56
g3
sg57
S'3.3'
p337
sg59
S'7.7'
p338
sg61
S'612'
p339
sba(isrc.gp1.models.Per100Possession
Per100Possession
p340
(dp341
g8
S'2.0'
p342
sg10
S'.436'
p343
sg12
S'6.8'
p344
sg289
g3
sg14
S'6.6'
p345
sg16
S'4.0'
p346
sg18
S'15.6'
p347
sg20
g3
sg21
S'PF'
p348
sg294
g3
sg23
S'4.6'
p349
sg27
S'NBA'
p350
sg29
S'17.6'
p351
sg30
S'.436'
p352
sg32
g3
sg33
S'10.0'
p353
sg35
S'4.1'
p354
sg37
S'23'
p355
sg39
S'PHI'
p356
sg41
S'81'
p357
sg43
S'98'
p358
sg44
S'5.2'
p359
sg46
S'6.3'
p360
sg48
S'.771'
p361
sg50
S'0.9'
p362
sg52
S'1977-78'
p363
sg54
S'15.6'
p364
sg56
S'100'
p365
sg57
S'3.7'
p366
sg59
S'6.8'
p367
sg61
S'1236'
p368
sba(isrc.gp1.models.Per100Possession
Per100Possession
p369
(dp370
g8
S'2.1'
p371
sg10
S'.429'
p372
sg12
S'8.7'
p373
sg289
g3
sg14
S'7.2'
p374
sg16
S'5.2'
p375
sg18
S'20.2'
p376
sg20
g3
sg21
S'PF'
p377
sg294
g3
sg23
S'4.4'
p378
sg27
S'NBA'
p379
sg29
S'22.5'
p380
sg30
S'.429'
p381
sg32
g3
sg33
S'10.9'
p382
sg35
S'4.8'
p383
sg37
S'24'
p384
sg39
S'PHI'
p385
sg41
S'70'
p386
sg43
S'95'
p387
sg44
S'7.2'
p388
sg46
S'6.9'
p389
sg48
S'.724'
p390
sg50
S'0.4'
p391
sg52
S'1978-79'
p392
sg54
S'20.2'
p393
sg56
S'100'
p394
sg57
S'4.1'
p395
sg59
S'8.7'
p396
sg61
S'1064'
p397
sba(isrc.gp1.models.Per100Possession
Per100Possession
p398
(dp399
g8
S'7.0'
p400
sg10
S'.147'
p401
sg12
S'0.1'
p402
sg289
S'108'
p403
sg14
S'2.1'
p404
sg16
S'5.9'
p405
sg18
S'0.7'
p406
sg20
S'97'
p407
sg21
S'PF'
p408
sg294
g3
sg23
S'3.5'
p409
sg27
S'NBA'
p410
sg29
S'0.8'
p411
sg30
S'.431'
p412
sg32
S'15.3'
p413
sg33
S'.742'
p414
sg35
S'2.9'
p415
sg37
S'25'
p416
sg39
S'SDC'
p417
sg41
S'81'
p418
sg43
S'3.5'
p419
sg44
S'13.2'
p420
sg46
S'4.4'
p421
sg48
S'.446'
p422
sg50
S'10.5'
p423
sg52
S'1979-80'
p424
sg54
S'13.9'
p425
sg56
S'5.2'
p426
sg57
S'3.3'
p427
sg59
S'6.0'
p428
sg61
S'2328'
p429
sba(isrc.gp1.models.Per100Possession
Per100Possession
p430
(dp431
g8
S'6.0'
p432
sg10
S'.133'
p433
sg12
S'0.0'
p434
sg289
S'108'
p435
sg14
S'1.5'
p436
sg16
S'7.7'
p437
sg18
S'0.3'
p438
sg20
S'103'
p439
sg21
S'PF'
p440
sg294
g3
sg23
S'3.0'
p441
sg27
S'NBA'
p442
sg29
S'0.7'
p443
sg30
S'.479'
p444
sg32
S'19.3'
p445
sg33
S'.791'
p446
sg35
S'3.8'
p447
sg37
S'26'
p448
sg39
S'SDC'
p449
sg41
S'82'
p450
sg43
S'3.6'
p451
sg44
S'15.8'
p452
sg46
S'5.0'
p453
sg48
S'.486'
p454
sg50
S'8.9'
p455
sg52
S'1980-81'
p456
sg54
S'16.1'
p457
sg56
S'5.4'
p458
sg57
S'3.9'
p459
sg59
S'7.7'
p460
sg61
S'2359'
p461
sba(isrc.gp1.models.Per100Possession
Per100Possession
p462
(dp463
g8
S'1.9'
p464
sg10
S'0.7'
p465
sg12
S'.486'
p466
sg289
S'103'
p467
sg14
S'4.5'
p468
sg16
S'.267'
p469
sg18
S'0.2'
p470
sg20
S'21.1'
p471
sg21
S'SF'
p472
sg294
S'114'
p473
sg23
S'.785'
p474
sg27
S'NBA'
p475
sg29
S'1.9'
p476
sg30
S'16.7'
p477
sg32
S'6.0'
p478
sg33
S'5.9'
p479
sg35
S'6.5'
p480
sg37
S'27'
p481
sg39
S'SDC'
p482
sg41
S'75'
p483
sg43
S'0.7'
p484
sg44
S'7.9'
p485
sg46
S'4.6'
p486
sg48
S'16.0'
p487
sg50
S'4.6'
p488
sg52
S'1981-82'
p489
sg54
S'8.1'
p490
sg56
S'4.4'
p491
sg57
S'.496'
p492
sg59
S'1988'
p493
sg61
S'49'
p494
sba(isrc.gp1.models.Per100Possession
Per100Possession
p495
(dp496
g8
S'2.0'
p497
sg10
S'0.8'
p498
sg12
S'.448'
p499
sg289
S'92'
p500
sg14
S'4.3'
p501
sg16
S'.222'
p502
sg18
S'0.2'
p503
sg20
S'18.6'
p504
sg21
S'SF'
p505
sg294
S'109'
p506
sg23
S'.703'
p507
sg27
S'NBA'
p508
sg29
S'1.9'
p509
sg30
S'17.6'
p510
sg32
S'5.9'
p511
sg33
S'3.8'
p512
sg35
S'6.3'
p513
sg37
S'28'
p514
sg39
S'HOU'
p515
sg41
S'81'
p516
sg43
S'0.7'
p517
sg44
S'7.7'
p518
sg46
S'2.7'
p519
sg48
S'16.7'
p520
sg50
S'4.3'
p521
sg52
S'1982-83'
p522
sg54
S'7.9'
p523
sg56
S'4.0'
p524
sg57
S'.459'
p525
sg59
S'2055'
p526
sg61
S'56'
p527
sbasS'_advanced'
p528
(lp529
(isrc.gp1.models.Advanced
Advanced
p530
(dp531
S'_offensiveReboundPercentage'
p532
S'14.5'
p533
sS'_turnOverPercentage'
p534
S'1.3'
p535
sS'_winSharesPer48Minutes'
p536
S'-4.3'
p537
sS'_stealPercentage'
p538
S'1.0'
p539
sS'_usagePercentage'
p540
S'1.3'
p541
sS'_totalReboundsPercentage'
p542
S'7.5'
p543
sS'_defensiveBoxPlusMinus'
p544
g3
sg21
S'PF'
p545
sS'_valueOverReplacementPlayer'
p546
g3
sS'_trueShootingPercentage'
p547
S'.452'
p548
sS'_defensiveReboundPercentage'
p549
S'11.2'
p550
sS'_freeThrowsAttempRate'
p551
S'7.8'
p552
sS'_threePointsAttempRate'
p553
S'.266'
p554
sg27
S'NBA'
p555
sS'_offensiveBoxPlusMinues'
p556
S'-0.7'
p557
sS'_assistPercentage'
p558
S'1.6'
p559
sS'_defensiveWinShares'
p560
S'-2.7'
p561
sg37
S'21'
p562
sg39
S'PHI'
p563
sg41
S'75'
p564
sS'_blockPercentage'
p565
S'0.0'
p566
sS'_playerEfficiencyRating'
p567
S'13.3'
p568
sS'_offensiveWinShares'
p569
S'.052'
p570
sg59
S'1203'
p571
sS'_boxPlusMinus'
p572
g3
sg52
S'1975-76'
p573
sS'_winShares'
p574
S'-1.6'
p575
sba(isrc.gp1.models.Advanced
Advanced
p576
(dp577
g532
S'11.2'
p578
sg534
S'0.8'
p579
sg536
S'-1.9'
p580
sg538
S'1.1'
p581
sg540
S'1.2'
p582
sg542
S'11.0'
p583
sg544
g3
sg21
S'PF'
p584
sg546
g3
sg547
S'.493'
p585
sg549
S'9.6'
p586
sg551
S'7.8'
p587
sg553
S'.292'
p588
sg27
S'NBA'
p589
sg556
S'0.0'
p590
sg558
S'2.6'
p591
sg560
S'-1.7'
p592
sg37
S'22'
p593
sg39
S'PHI'
p594
sg41
S'61'
p595
sg565
S'0.3'
p596
sg567
S'14.1'
p597
sg569
S'.093'
p598
sg59
S'612'
p599
sg572
g3
sg52
S'1976-77'
p600
sg574
S'-0.2'
p601
sba(isrc.gp1.models.Advanced
Advanced
p602
(dp603
g532
S'14.0'
p604
sg534
S'18.8'
p605
sg536
S'-0.9'
p606
sg538
S'1.0'
p607
sg540
S'0.8'
p608
sg542
S'13.7'
p609
sg544
S'-0.6'
p610
sg21
S'PF'
p611
sg546
g3
sg547
S'.492'
p612
sg549
S'11.5'
p613
sg551
S'8.8'
p614
sg553
S'.330'
p615
sg27
S'NBA'
p616
sg556
S'0.2'
p617
sg558
S'2.0'
p618
sg560
S'2.2'
p619
sg37
S'23'
p620
sg39
S'PHI'
p621
sg41
S'81'
p622
sg565
S'18.7'
p623
sg567
S'12.6'
p624
sg569
S'1.4'
p625
sg59
S'1236'
p626
sg572
S'0.4'
p627
sg52
S'1977-78'
p628
sg574
S'.086'
p629
sba(isrc.gp1.models.Advanced
Advanced
p630
(dp631
g532
S'15.3'
p632
sg534
S'24.4'
p633
sg536
S'-1.9'
p634
sg538
S'0.4'
p635
sg540
S'-0.1'
p636
sg542
S'13.6'
p637
sg544
S'-2.1'
p638
sg21
S'PF'
p639
sg546
g3
sg547
S'.482'
p640
sg549
S'12.7'
p641
sg551
S'9.8'
p642
sg553
S'.356'
p643
sg27
S'NBA'
p644
sg556
S'-0.2'
p645
sg558
S'2.1'
p646
sg560
S'1.5'
p647
sg37
S'24'
p648
sg39
S'PHI'
p649
sg41
S'70'
p650
sg565
S'17.1'
p651
sg567
S'13.1'
p652
sg569
S'1.6'
p653
sg59
S'1064'
p654
sg572
S'0.0'
p655
sg52
S'1978-79'
p656
sg574
S'.067'
p657
sba(isrc.gp1.models.Advanced
Advanced
p658
(dp659
g532
S'7.7'
p660
sg534
S'17.9'
p661
sg536
S'.038'
p662
sg538
S'2.1'
p663
sg540
S'16.3'
p664
sg542
S'12.0'
p665
sg544
S'0.6'
p666
sg21
S'PF'
p667
sg546
S'0.4'
p668
sg547
S'.485'
p669
sg549
S'16.6'
p670
sg551
S'.318'
p671
sg553
S'.050'
p672
sg27
S'NBA'
p673
sg556
S'-1.9'
p674
sg558
S'8.1'
p675
sg560
S'1.7'
p676
sg37
S'25'
p677
sg39
S'SDC'
p678
sg41
S'81'
p679
sg565
S'0.9'
p680
sg567
S'11.1'
p681
sg569
S'0.1'
p682
sg59
S'2328'
p683
sg572
S'-1.3'
p684
sg52
S'1979-80'
p685
sg574
S'1.8'
p686
sba(isrc.gp1.models.Advanced
Advanced
p687
(dp688
g532
S'6.9'
p689
sg534
S'16.4'
p690
sg536
S'.069'
p691
sg538
S'1.5'
p692
sg540
S'18.6'
p693
sg542
S'10.9'
p694
sg544
S'0.3'
p695
sg21
S'PF'
p696
sg546
S'0.9'
p697
sg547
S'.530'
p698
sg549
S'15.2'
p699
sg551
S'.308'
p700
sg553
S'.019'
p701
sg27
S'NBA'
p702
sg556
S'-0.8'
p703
sg558
S'11.1'
p704
sg560
S'1.7'
p705
sg37
S'26'
p706
sg39
S'SDC'
p707
sg41
S'82'
p708
sg565
S'0.8'
p709
sg567
S'12.8'
p710
sg569
S'1.7'
p711
sg59
S'2359'
p712
sg572
S'-0.5'
p713
sg52
S'1980-81'
p714
sg574
S'3.4'
p715
sba(isrc.gp1.models.Advanced
Advanced
p716
(dp717
g532
S'4.6'
p718
sg534
S'18.4'
p719
sg536
S'.036'
p720
sg538
S'1.9'
p721
sg540
S'20.3'
p722
sg542
S'8.2'
p723
sg544
S'-0.9'
p724
sg21
S'SF'
p725
sg546
S'0.2'
p726
sg547
S'.546'
p727
sg549
S'12.0'
p728
sg551
S'.352'
p729
sg553
S'.043'
p730
sg27
S'NBA'
p731
sg556
S'-0.7'
p732
sg558
S'13.1'
p733
sg560
S'0.5'
p734
sg37
S'27'
p735
sg39
S'SDC'
p736
sg41
S'75'
p737
sg565
S'0.8'
p738
sg567
S'12.8'
p739
sg569
S'1.0'
p740
sg59
S'1988'
p741
sg572
S'-1.7'
p742
sg52
S'1981-82'
p743
sg574
S'1.5'
p744
sba(isrc.gp1.models.Advanced
Advanced
p745
(dp746
g532
S'4.3'
p747
sg534
S'17.4'
p748
sg536
S'-0.001'
p749
sg538
S'1.9'
p750
sg540
S'19.8'
p751
sg542
S'7.2'
p752
sg544
S'-0.4'
p753
sg21
S'SF'
p754
sg546
S'-0.5'
p755
sg547
S'.483'
p756
sg549
S'10.5'
p757
sg551
S'.215'
p758
sg553
S'.047'
p759
sg27
S'NBA'
p760
sg556
S'-2.5'
p761
sg558
S'13.3'
p762
sg560
S'1.1'
p763
sg37
S'28'
p764
sg39
S'HOU'
p765
sg41
S'81'
p766
sg565
S'0.8'
p767
sg567
S'10.4'
p768
sg569
S'-1.2'
p769
sg59
S'2055'
p770
sg572
S'-2.9'
p771
sg52
S'1982-83'
p772
sg574
S'0.0'
p773
sbasS'_per36Minutes'
p774
(lp775
(isrc.gp1.models.Per36Minutes
Per36Minutes
p776
(dp777
g8
S'1.3'
p778
sg10
S'.422'
p779
sg12
S'7.0'
p780
sg14
S'16.7'
p781
sg16
S'2.8'
p782
sg18
S'16.5'
p783
sg20
g3
sg21
S'PF'
p784
sg23
S'1.8'
p785
sg27
S'NBA'
p786
sg29
g3
sg30
S'.422'
p787
sg32
g3
sg33
S'8.3'
p788
sg35
S'4.9'
p789
sg37
S'21'
p790
sg39
S'PHI'
p791
sg41
S'75'
p792
sg43
g3
sg44
S'4.4'
p793
sg46
S'5.4'
p794
sg48
S'.626'
p795
sg50
S'0.7'
p796
sg52
S'1975-76'
p797
sg54
S'16.5'
p798
sg56
g3
sg57
S'2.9'
p799
sg59
S'7.0'
p800
sg61
S'1203'
p801
sba(isrc.gp1.models.Per36Minutes
Per36Minutes
p802
(dp803
g8
S'2.1'
p804
sg10
S'.446'
p805
sg12
S'6.3'
p806
sg14
S'15.7'
p807
sg16
S'3.1'
p808
sg18
S'14.1'
p809
sg20
g3
sg21
S'PF'
p810
sg23
S'2.8'
p811
sg27
S'NBA'
p812
sg29
g3
sg30
S'.446'
p813
sg32
g3
sg33
S'6.9'
p814
sg35
S'4.9'
p815
sg37
S'22'
p816
sg39
S'PHI'
p817
sg41
S'61'
p818
sg43
g3
sg44
S'4.1'
p819
sg46
S'4.2'
p820
sg48
S'.757'
p821
sg50
S'0.8'
p822
sg52
S'1976-77'
p823
sg54
S'14.1'
p824
sg56
g3
sg57
S'2.6'
p825
sg59
S'6.3'
p826
sg61
S'612'
p827
sba(isrc.gp1.models.Per36Minutes
Per36Minutes
p828
(dp829
g8
S'1.6'
p830
sg10
S'.436'
p831
sg12
S'5.5'
p832
sg14
S'5.4'
p833
sg16
S'3.2'
p834
sg18
S'12.7'
p835
sg20
g3
sg21
S'PF'
p836
sg23
S'3.8'
p837
sg27
S'NBA'
p838
sg29
S'14.3'
p839
sg30
S'.436'
p840
sg32
g3
sg33
S'8.2'
p841
sg35
S'3.3'
p842
sg37
S'23'
p843
sg39
S'PHI'
p844
sg41
S'81'
p845
sg43
g3
sg44
S'4.2'
p846
sg46
S'5.2'
p847
sg48
S'.771'
p848
sg50
S'0.7'
p849
sg52
S'1977-78'
p850
sg54
S'12.7'
p851
sg56
g3
sg57
S'3.0'
p852
sg59
S'5.5'
p853
sg61
S'1236'
p854
sba(isrc.gp1.models.Per36Minutes
Per36Minutes
p855
(dp856
g8
S'1.7'
p857
sg10
S'.429'
p858
sg12
S'6.9'
p859
sg14
S'5.8'
p860
sg16
S'4.2'
p861
sg18
S'16.2'
p862
sg20
g3
sg21
S'PF'
p863
sg23
S'3.5'
p864
sg27
S'NBA'
p865
sg29
S'18.0'
p866
sg30
S'.429'
p867
sg32
g3
sg33
S'8.8'
p868
sg35
S'3.9'
p869
sg37
S'24'
p870
sg39
S'PHI'
p871
sg41
S'70'
p872
sg43
g3
sg44
S'5.8'
p873
sg46
S'5.5'
p874
sg48
S'.724'
p875
sg50
S'0.3'
p876
sg52
S'1978-79'
p877
sg54
S'16.2'
p878
sg56
g3
sg57
S'3.2'
p879
sg59
S'6.9'
p880
sg61
S'1064'
p881
sba(isrc.gp1.models.Per36Minutes
Per36Minutes
p882
(dp883
g8
S'5.3'
p884
sg10
S'.147'
p885
sg12
S'0.1'
p886
sg14
S'1.6'
p887
sg16
S'4.5'
p888
sg18
S'0.5'
p889
sg20
g3
sg21
S'PF'
p890
sg23
S'2.6'
p891
sg27
S'NBA'
p892
sg29
S'0.6'
p893
sg30
S'.431'
p894
sg32
S'11.7'
p895
sg33
S'.742'
p896
sg35
S'2.2'
p897
sg37
S'25'
p898
sg39
S'SDC'
p899
sg41
S'81'
p900
sg43
S'2.6'
p901
sg44
S'10.0'
p902
sg46
S'3.4'
p903
sg48
S'.446'
p904
sg50
S'8.0'
p905
sg52
S'1979-80'
p906
sg54
S'10.5'
p907
sg56
S'4.0'
p908
sg57
S'2.5'
p909
sg59
S'4.5'
p910
sg61
S'2328'
p911
sba(isrc.gp1.models.Per36Minutes
Per36Minutes
p912
(dp913
g8
S'4.5'
p914
sg10
S'.133'
p915
sg12
S'0.0'
p916
sg14
S'1.1'
p917
sg16
S'5.8'
p918
sg18
S'0.2'
p919
sg20
g3
sg21
S'PF'
p920
sg23
S'2.2'
p921
sg27
S'NBA'
p922
sg29
S'0.5'
p923
sg30
S'.479'
p924
sg32
S'14.5'
p925
sg33
S'.791'
p926
sg35
S'2.9'
p927
sg37
S'26'
p928
sg39
S'SDC'
p929
sg41
S'82'
p930
sg43
S'2.7'
p931
sg44
S'11.8'
p932
sg46
S'3.7'
p933
sg48
S'.486'
p934
sg50
S'6.7'
p935
sg52
S'1980-81'
p936
sg54
S'12.1'
p937
sg56
S'4.0'
p938
sg57
S'2.9'
p939
sg59
S'5.8'
p940
sg61
S'2359'
p941
sba(isrc.gp1.models.Per36Minutes
Per36Minutes
p942
(dp943
g8
S'1.4'
p944
sg10
S'0.5'
p945
sg12
S'.486'
p946
sg14
S'3.4'
p947
sg16
S'.267'
p948
sg18
S'0.1'
p949
sg20
S'16.0'
p950
sg21
S'SF'
p951
sg23
S'.785'
p952
sg27
S'NBA'
p953
sg29
S'1.4'
p954
sg30
S'12.7'
p955
sg32
S'4.5'
p956
sg33
S'4.5'
p957
sg35
S'5.0'
p958
sg37
S'27'
p959
sg39
S'SDC'
p960
sg41
S'75'
p961
sg43
S'0.5'
p962
sg44
S'6.0'
p963
sg46
S'3.5'
p964
sg48
S'12.2'
p965
sg50
S'3.5'
p966
sg52
S'1981-82'
p967
sg54
S'6.2'
p968
sg56
S'3.3'
p969
sg57
S'.496'
p970
sg59
S'1988'
p971
sg61
S'49'
p972
sba(isrc.gp1.models.Per36Minutes
Per36Minutes
p973
(dp974
g8
S'1.5'
p975
sg10
S'0.6'
p976
sg12
S'.448'
p977
sg14
S'3.3'
p978
sg16
S'.222'
p979
sg18
S'0.1'
p980
sg20
S'14.2'
p981
sg21
S'SF'
p982
sg23
S'.703'
p983
sg27
S'NBA'
p984
sg29
S'1.4'
p985
sg30
S'13.5'
p986
sg32
S'4.5'
p987
sg33
S'2.9'
p988
sg35
S'4.9'
p989
sg37
S'28'
p990
sg39
S'HOU'
p991
sg41
S'81'
p992
sg43
S'0.5'
p993
sg44
S'5.9'
p994
sg46
S'2.0'
p995
sg48
S'12.8'
p996
sg50
S'3.3'
p997
sg52
S'1982-83'
p998
sg54
S'6.0'
p999
sg56
S'3.1'
p1000
sg57
S'.459'
p1001
sg59
S'2055'
p1002
sg61
S'56'
p1003
sbasS'_fromYear'
p1004
S'1976'
p1005
sS'_url'
p1006
S'http://www.basketball-reference.com/players/b/bryanjo01.html'
p1007
sS'_perGame'
p1008
(isrc.gp1.models.PerGame
PerGame
p1009
(dp1010
g8
S'1.1'
p1011
sg10
S'0.4'
p1012
sg12
S'.448'
p1013
sS'_effectiveFieldGalPercentage'
p1014
S'.453'
p1015
sg14
S'2.3'
p1016
sg16
S'.222'
p1017
sg18
S'0.1'
p1018
sg20
S'10.0'
p1019
sg21
S'SF'
p1020
sg23
S'.703'
p1021
sg27
S'NBA'
p1022
sg29
S'1.0'
p1023
sg32
S'3.2'
p1024
sS'_fieldGoalsttempted'
p1025
S'9.5'
p1026
sg33
S'2.0'
p1027
sg35
S'3.4'
p1028
sg37
S'28'
p1029
sg39
S'HOU'
p1030
sg41
S'81'
p1031
sg43
S'0.4'
p1032
sg44
S'4.1'
p1033
sg46
S'1.4'
p1034
sg48
S'9.0'
p1035
sg50
S'2.3'
p1036
sg52
S'1982-83'
p1037
sg54
S'4.2'
p1038
sg56
S'2.2'
p1039
sg57
S'.459'
p1040
sg59
S'25.4'
p1041
sg61
S'56'
p1042
sbsS'_weight'
p1043
S'185'
p1044
sS'_dob'
p1045
S'19-10-1954'
p1046
sS'_salary'
p1047
(lp1048
sg21
S'F-C'
p1049
sb.