(isrc.gp1.models.Player
Player
p0
(dp1
S'_experience'
p2
S'NA'
p3
sS'_totals'
p4
(lp5
(isrc.gp1.models.Totals
Totals
p6
(dp7
S'_offensiveRebounds'
p8
S'120'
p9
sS'_threePointsAttempted'
p10
S'.000'
p11
sS'_fieldGoalsPercentage'
p12
S'0'
p13
sS'_assist'
p14
S'137'
p15
sS'_threePointsPercentage'
p16
S'250'
p17
sS'_threePoints'
p18
S'4'
p19
sS'_points'
p20
g3
sS'_position'
p21
S'SG'
p22
sS'_freeThrowsPercentage'
p23
S'55'
p24
sS'_effectiveFieldGoalPercentage'
p25
S'132'
p26
sS'_league'
p27
S'ABA'
p28
sS'_steals'
p29
S'262'
p30
sS'_fieldGoalsAttempted'
p31
S'.512'
p32
sS'_personalFouls'
p33
g3
sS'_freeThrowsAttempted'
p34
S'.767'
p35
sS'_totalRebounds'
p36
S'138'
p37
sS'_age'
p38
S'23'
p39
sS'_team'
p40
S'NYA'
p41
sS'_games'
p42
S'72'
p43
sS'_blocks'
p44
S'632'
p45
sS'_twoPoints'
p46
S'484'
p47
sS'_freeThrows'
p48
S'172'
p49
sS'_twoPointsAttempted'
p50
S'.517'
p51
sS'_defensiveRebounds'
p52
S'175'
p53
sS'_season'
p54
S'1970-71'
p55
sS'_fieldGoals'
p56
S'488'
p57
sS'_turnOvers'
p58
g3
sS'_twoPointsPercentage'
p59
S'.512'
p60
sS'_minutesPlayed'
p61
S'250'
p62
sS'_gamesStarted'
p63
S'1707'
p64
sba(isrc.gp1.models.Totals
Totals
p65
(dp66
g8
S'33'
p67
sg10
S'.333'
p68
sg12
S'2'
p69
sg14
S'66'
p70
sg16
S'77'
p71
sg18
S'6'
p72
sg20
g3
sg21
S'SG'
p73
sg23
S'16'
p74
sg25
S'34'
p75
sg27
S'ABA'
p76
sg29
S'80'
p77
sg31
S'.393'
p78
sg33
g3
sg34
S'.630'
p79
sg36
S'45'
p80
sg38
S'24'
p81
sg40
S'NYA'
p82
sg42
S'46'
p83
sg44
S'194'
p84
sg46
S'195'
p85
sg48
S'54'
p86
sg50
S'.395'
p87
sg52
S'49'
p88
sg54
S'1971-72'
p89
sg56
S'201'
p90
sg58
g3
sg59
S'.398'
p91
sg61
S'79'
p92
sg63
S'562'
p93
sba(isrc.gp1.models.Totals
Totals
p94
(dp95
g8
g69
sg10
g69
sg12
g13
sg14
g19
sg16
S'5'
p96
sg18
g13
sg20
g3
sg21
S'SG'
p97
sg23
g69
sg25
g13
sg27
S'ABA'
p98
sg29
g3
sg31
S'.400'
p99
sg33
g3
sg34
g13
sg36
S'1'
p100
sg38
S'25'
p101
sg40
S'NYA'
p102
sg42
g100
sg44
g3
sg46
S'.400'
p103
sg48
g69
sg50
S'.400'
p104
sg52
g13
sg54
S'1972-73'
p105
sg56
g96
sg58
g3
sg59
g13
sg61
g69
sg63
S'12'
p106
sbasS'_college'
p107
S"St. John's University"
p108
sS'_toYear'
p109
S'1973'
p110
sS'_height'
p111
S'6-3'
p112
sS'_active'
p113
I00
sS'_shootingHand'
p114
VRight
p115
sS'_name'
p116
S'Joe DePre'
p117
sS'_per100Possessions'
p118
(lp119
sS'_advanced'
p120
(lp121
(isrc.gp1.models.Advanced
Advanced
p122
(dp123
S'_offensiveReboundPercentage'
p124
S'5.0'
p125
sS'_turnOverPercentage'
p126
S'3.4'
p127
sS'_winSharesPer48Minutes'
p128
g3
sS'_stealPercentage'
p129
S'2.7'
p130
sS'_usagePercentage'
p131
S'.095'
p132
sS'_totalReboundsPercentage'
p133
S'19.6'
p134
sS'_defensiveBoxPlusMinus'
p135
g3
sg21
S'SG'
p136
sS'_valueOverReplacementPlayer'
p137
g3
sS'_trueShootingPercentage'
p138
S'.561'
p139
sS'_defensiveReboundPercentage'
p140
S'10.8'
p141
sS'_freeThrowsAttempRate'
p142
S'.352'
p143
sS'_threePointsAttempRate'
p144
S'.008'
p145
sg27
S'ABA'
p146
sS'_offensiveBoxPlusMinues'
p147
g3
sS'_assistPercentage'
p148
S'15.6'
p149
sS'_defensiveWinShares'
p150
g3
sg38
S'23'
p151
sg40
S'NYA'
p152
sg42
S'72'
p153
sS'_blockPercentage'
p154
S'0.7'
p155
sS'_playerEfficiencyRating'
p156
S'9.2'
p157
sS'_offensiveWinShares'
p158
g3
sg61
S'1707'
p159
sS'_boxPlusMinus'
p160
g3
sg54
S'1970-71'
p161
sS'_winShares'
p162
g3
sba(isrc.gp1.models.Advanced
Advanced
p163
(dp164
g124
S'2.8'
p165
sg126
S'-0.6'
p166
sg128
g3
sg129
S'22.7'
p167
sg131
S'0.2'
p168
sg133
S'4.2'
p169
sg135
g3
sg21
S'SG'
p170
sg137
g3
sg138
S'.432'
p171
sg140
S'5.5'
p172
sg142
S'.269'
p173
sg144
S'.030'
p174
sg27
S'ABA'
p175
sg147
g3
sg148
S'10.5'
p176
sg150
S'-0.028'
p177
sg38
S'24'
p178
sg40
S'NYA'
p179
sg42
S'46'
p180
sg154
S'20.2'
p181
sg156
S'2.8'
p182
sg158
S'-0.3'
p183
sg61
S'562'
p184
sg160
g3
sg54
S'1971-72'
p185
sg162
g3
sba(isrc.gp1.models.Advanced
Advanced
p186
(dp187
g124
S'17.5'
p188
sg126
S'0.0'
p189
sg128
g3
sg129
S'0.0'
p190
sg131
S'0.0'
p191
sg133
S'8.5'
p192
sg135
g3
sg21
S'SG'
p193
sg137
g3
sg138
S'.400'
p194
sg140
S'0.0'
p195
sg142
S'.000'
p196
sg144
S'.000'
p197
sg27
S'ABA'
p198
sg147
g3
sg148
S'24.7'
p199
sg150
S'-0.091'
p200
sg38
S'25'
p201
sg40
S'NYA'
p202
sg42
g100
sg154
S'17.1'
p203
sg156
S'15.6'
p204
sg158
S'0.0'
p205
sg61
S'12'
p206
sg160
g3
sg54
S'1972-73'
p207
sg162
g3
sbasS'_per36Minutes'
p208
(lp209
(isrc.gp1.models.Per36Minutes
Per36Minutes
p210
(dp211
g8
S'2.5'
p212
sg10
S'.000'
p213
sg12
S'0.0'
p214
sg14
S'2.9'
p215
sg16
S'5.3'
p216
sg18
S'0.1'
p217
sg20
g3
sg21
S'SG'
p218
sg23
S'1.2'
p219
sg27
S'ABA'
p220
sg29
S'5.5'
p221
sg31
S'.512'
p222
sg33
g3
sg34
S'.767'
p223
sg36
S'2.9'
p224
sg38
S'23'
p225
sg40
S'NYA'
p226
sg42
S'72'
p227
sg44
S'13.3'
p228
sg46
S'10.2'
p229
sg48
S'3.6'
p230
sg50
S'.517'
p231
sg52
S'3.7'
p232
sg54
S'1970-71'
p233
sg56
S'10.3'
p234
sg58
g3
sg59
S'2.8'
p235
sg61
S'5.3'
p236
sg63
S'1707'
p237
sba(isrc.gp1.models.Per36Minutes
Per36Minutes
p238
(dp239
g8
S'2.1'
p240
sg10
S'.333'
p241
sg12
S'0.1'
p242
sg14
S'4.2'
p243
sg16
S'4.9'
p244
sg18
S'0.4'
p245
sg20
g3
sg21
S'SG'
p246
sg23
S'1.0'
p247
sg27
S'ABA'
p248
sg29
S'5.1'
p249
sg31
S'.393'
p250
sg33
g3
sg34
S'.630'
p251
sg36
S'2.9'
p252
sg38
S'24'
p253
sg40
S'NYA'
p254
sg42
S'46'
p255
sg44
S'12.4'
p256
sg46
S'12.5'
p257
sg48
S'3.5'
p258
sg50
S'.395'
p259
sg52
S'3.1'
p260
sg54
S'1971-72'
p261
sg56
S'12.9'
p262
sg58
g3
sg59
S'2.2'
p263
sg61
S'5.1'
p264
sg63
S'562'
p265
sba(isrc.gp1.models.Per36Minutes
Per36Minutes
p266
(dp267
g8
S'6.0'
p268
sg10
S'6.0'
p269
sg12
S'0.0'
p270
sg14
S'12.0'
p271
sg16
S'15.0'
p272
sg18
S'0.0'
p273
sg20
g3
sg21
S'SG'
p274
sg23
S'6.0'
p275
sg27
S'ABA'
p276
sg29
g3
sg31
S'.400'
p277
sg33
g3
sg34
S'0.0'
p278
sg36
S'3.0'
p279
sg38
S'25'
p280
sg40
S'NYA'
p281
sg42
g100
sg44
g3
sg46
S'.400'
p282
sg48
S'6.0'
p283
sg50
S'0.0'
p284
sg52
S'0.0'
p285
sg54
S'1972-73'
p286
sg56
S'15.0'
p287
sg58
g3
sg59
S'0.0'
p288
sg61
S'6.0'
p289
sg63
S'12'
p290
sbasS'_fromYear'
p291
S'1971'
p292
sS'_url'
p293
S'http://www.basketball-reference.com/players/d/deprejo01.html'
p294
sS'_perGame'
p295
(isrc.gp1.models.PerGame
PerGame
p296
(dp297
g8
S'2.0'
p298
sg10
S'2.0'
p299
sg12
S'0.0'
p300
sS'_effectiveFieldGalPercentage'
p301
S'0.0'
p302
sg14
S'4.0'
p303
sg16
S'5.0'
p304
sg18
S'0.0'
p305
sg20
g3
sg21
S'SG'
p306
sg23
S'2.0'
p307
sg27
S'ABA'
p308
sg29
g3
sg33
g3
sS'_fieldGoalsttempted'
p309
S'.400'
p310
sg34
S'0.0'
p311
sg36
S'1.0'
p312
sg38
S'25'
p313
sg40
S'NYA'
p314
sg42
g100
sg44
g3
sg46
S'.400'
p315
sg48
S'2.0'
p316
sg50
S'.400'
p317
sg52
S'0.0'
p318
sg54
S'1972-73'
p319
sg56
S'5.0'
p320
sg58
g3
sg59
S'0.0'
p321
sg61
S'2.0'
p322
sg63
S'12.0'
p323
sbsS'_weight'
p324
S'185'
p325
sS'_dob'
p326
S'19-12-1947'
p327
sS'_salary'
p328
(lp329
sg21
S'G'
p330
sb.