(isrc.gp1.models.Player
Player
p0
(dp1
S'_experience'
p2
S'NA'
p3
sS'_totals'
p4
(lp5
(isrc.gp1.models.Totals
Totals
p6
(dp7
S'_offensiveRebounds'
p8
g3
sS'_threePointsAttempted'
p9
g3
sS'_fieldGoalsPercentage'
p10
S'.408'
p11
sS'_assist'
p12
S'78'
p13
sS'_threePointsPercentage'
p14
g3
sS'_threePoints'
p15
g3
sS'_points'
p16
S'676'
p17
sS'_position'
p18
S'C'
p19
sS'_freeThrowsPercentage'
p20
S'.688'
p21
sS'_effectiveFieldGoalPercentage'
p22
S'.408'
p23
sS'_league'
p24
S'NBA'
p25
sS'_steals'
p26
g3
sS'_fieldGoalsAttempted'
p27
S'613'
p28
sS'_personalFouls'
p29
S'305'
p30
sS'_freeThrowsAttempted'
p31
S'256'
p32
sS'_totalRebounds'
p33
S'820'
p34
sS'_age'
p35
S'25'
p36
sS'_team'
p37
S'DET'
p38
sS'_games'
p39
S'79'
p40
sS'_blocks'
p41
g3
sS'_twoPoints'
p42
S'250'
p43
sS'_freeThrows'
p44
S'176'
p45
sS'_twoPointsAttempted'
p46
S'613'
p47
sS'_defensiveRebounds'
p48
g3
sS'_season'
p49
S'1965-66'
p50
sS'_fieldGoals'
p51
S'250'
p52
sS'_turnOvers'
p53
g3
sS'_twoPointsPercentage'
p54
S'.408'
p55
sS'_minutesPlayed'
p56
S'2180'
p57
sS'_gamesStarted'
p58
g3
sba(isrc.gp1.models.Totals
Totals
p59
(dp60
g8
g3
sg9
g3
sg10
S'.426'
p61
sg12
S'82'
p62
sg14
g3
sg15
g3
sg16
S'750'
p63
sg18
g19
sg20
S'.718'
p64
sg22
S'.426'
p65
sg24
S'NBA'
p66
sg26
g3
sg27
S'660'
p67
sg29
S'344'
p68
sg31
S'262'
p69
sg33
S'791'
p70
sg35
S'26'
p71
sg37
S'DET'
p72
sg39
S'79'
p73
sg41
g3
sg42
S'281'
p74
sg44
S'188'
p75
sg46
S'660'
p76
sg48
g3
sg49
S'1966-67'
p77
sg51
S'281'
p78
sg53
g3
sg54
S'.426'
p79
sg56
S'2156'
p80
sg58
g3
sba(isrc.gp1.models.Totals
Totals
p81
(dp82
g8
g3
sg9
g3
sg10
S'.452'
p83
sg12
S'85'
p84
sg14
g3
sg15
g3
sg16
S'551'
p85
sg18
g19
sg20
S'.647'
p86
sg22
S'.452'
p87
sg24
S'NBA'
p88
sg26
g3
sg27
S'456'
p89
sg29
S'312'
p90
sg31
S'215'
p91
sg33
S'685'
p92
sg35
S'27'
p93
sg37
S'DET'
p94
sg39
S'73'
p95
sg41
g3
sg42
S'206'
p96
sg44
S'139'
p97
sg46
S'456'
p98
sg48
g3
sg49
S'1967-68'
p99
sg51
S'206'
p100
sg53
g3
sg54
S'.452'
p101
sg56
S'2029'
p102
sg58
g3
sbasS'_college'
p103
S'Bradley University'
p104
sS'_toYear'
p105
S'1968'
p106
sS'_height'
p107
S'6-10'
p108
sS'_active'
p109
I00
sS'_shootingHand'
p110
VRight
p111
sS'_name'
p112
S'Joe Strawder'
p113
sS'_per100Possessions'
p114
(lp115
sS'_advanced'
p116
(lp117
(isrc.gp1.models.Advanced
Advanced
p118
(dp119
S'_offensiveReboundPercentage'
p120
g3
sS'_turnOverPercentage'
p121
g3
sS'_winSharesPer48Minutes'
p122
S'.078'
p123
sS'_stealPercentage'
p124
g3
sS'_usagePercentage'
p125
g3
sS'_totalReboundsPercentage'
p126
g3
sS'_defensiveBoxPlusMinus'
p127
g3
sg18
g19
sS'_valueOverReplacementPlayer'
p128
g3
sS'_trueShootingPercentage'
p129
S'.466'
p130
sS'_defensiveReboundPercentage'
p131
g3
sS'_freeThrowsAttempRate'
p132
S'.418'
p133
sS'_threePointsAttempRate'
p134
g3
sg24
S'NBA'
p135
sS'_offensiveBoxPlusMinues'
p136
g3
sS'_assistPercentage'
p137
S'4.5'
p138
sS'_defensiveWinShares'
p139
S'2.9'
p140
sg35
S'25'
p141
sg37
S'DET'
p142
sg39
S'79'
p143
sS'_blockPercentage'
p144
g3
sS'_playerEfficiencyRating'
p145
S'11.6'
p146
sS'_offensiveWinShares'
p147
S'0.7'
p148
sg56
S'2180'
p149
sS'_boxPlusMinus'
p150
g3
sg49
S'1965-66'
p151
sS'_winShares'
p152
S'3.6'
p153
sba(isrc.gp1.models.Advanced
Advanced
p154
(dp155
g120
g3
sg121
g3
sg122
S'.096'
p156
sg124
g3
sg125
g3
sg126
g3
sg127
g3
sg18
g19
sg128
g3
sg129
S'.484'
p157
sg131
g3
sg132
S'.397'
p158
sg134
g3
sg24
S'NBA'
p159
sg136
g3
sg137
S'4.9'
p160
sg139
S'3.1'
p161
sg35
S'26'
p162
sg37
S'DET'
p163
sg39
S'79'
p164
sg144
g3
sg145
S'12.3'
p165
sg147
S'1.2'
p166
sg56
S'2156'
p167
sg150
g3
sg49
S'1966-67'
p168
sg152
S'4.3'
p169
sba(isrc.gp1.models.Advanced
Advanced
p170
(dp171
g120
g3
sg121
g3
sg122
S'.070'
p172
sg124
g3
sg125
g3
sg126
g3
sg127
g3
sg18
g19
sg128
g3
sg129
S'.500'
p173
sg131
g3
sg132
S'.471'
p174
sg134
g3
sg24
S'NBA'
p175
sg136
g3
sg137
S'4.9'
p176
sg139
S'1.7'
p177
sg35
S'27'
p178
sg37
S'DET'
p179
sg39
S'73'
p180
sg144
g3
sg145
S'10.1'
p181
sg147
S'1.2'
p182
sg56
S'2029'
p183
sg150
g3
sg49
S'1967-68'
p184
sg152
S'3.0'
p185
sbasS'_per36Minutes'
p186
(lp187
(isrc.gp1.models.Per36Minutes
Per36Minutes
p188
(dp189
g8
g3
sg9
g3
sg10
S'.408'
p190
sg12
S'1.3'
p191
sg14
g3
sg15
g3
sg16
S'11.2'
p192
sg18
g19
sg20
S'.688'
p193
sg24
S'NBA'
p194
sg26
g3
sg27
S'10.1'
p195
sg29
S'5.0'
p196
sg31
S'4.2'
p197
sg33
S'13.5'
p198
sg35
S'25'
p199
sg37
S'DET'
p200
sg39
S'79'
p201
sg41
g3
sg42
S'4.1'
p202
sg44
S'2.9'
p203
sg46
S'10.1'
p204
sg48
g3
sg49
S'1965-66'
p205
sg51
S'4.1'
p206
sg53
g3
sg54
S'.408'
p207
sg56
S'2180'
p208
sg58
g3
sba(isrc.gp1.models.Per36Minutes
Per36Minutes
p209
(dp210
g8
g3
sg9
g3
sg10
S'.426'
p211
sg12
S'1.4'
p212
sg14
g3
sg15
g3
sg16
S'12.5'
p213
sg18
g19
sg20
S'.718'
p214
sg24
S'NBA'
p215
sg26
g3
sg27
S'11.0'
p216
sg29
S'5.7'
p217
sg31
S'4.4'
p218
sg33
S'13.2'
p219
sg35
S'26'
p220
sg37
S'DET'
p221
sg39
S'79'
p222
sg41
g3
sg42
S'4.7'
p223
sg44
S'3.1'
p224
sg46
S'11.0'
p225
sg48
g3
sg49
S'1966-67'
p226
sg51
S'4.7'
p227
sg53
g3
sg54
S'.426'
p228
sg56
S'2156'
p229
sg58
g3
sba(isrc.gp1.models.Per36Minutes
Per36Minutes
p230
(dp231
g8
g3
sg9
g3
sg10
S'.452'
p232
sg12
S'1.5'
p233
sg14
g3
sg15
g3
sg16
S'9.8'
p234
sg18
g19
sg20
S'.647'
p235
sg24
S'NBA'
p236
sg26
g3
sg27
S'8.1'
p237
sg29
S'5.5'
p238
sg31
S'3.8'
p239
sg33
S'12.2'
p240
sg35
S'27'
p241
sg37
S'DET'
p242
sg39
S'73'
p243
sg41
g3
sg42
S'3.7'
p244
sg44
S'2.5'
p245
sg46
S'8.1'
p246
sg48
g3
sg49
S'1967-68'
p247
sg51
S'3.7'
p248
sg53
g3
sg54
S'.452'
p249
sg56
S'2029'
p250
sg58
g3
sbasS'_fromYear'
p251
S'1966'
p252
sS'_url'
p253
S'http://www.basketball-reference.com/players/s/strawjo01.html'
p254
sS'_perGame'
p255
(isrc.gp1.models.PerGame
PerGame
p256
(dp257
g8
g3
sg9
g3
sg10
S'.452'
p258
sS'_effectiveFieldGalPercentage'
p259
S'.452'
p260
sg12
S'1.2'
p261
sg14
g3
sg15
g3
sg16
S'7.5'
p262
sg18
g19
sg20
S'.647'
p263
sg24
S'NBA'
p264
sg26
g3
sg29
S'4.3'
p265
sS'_fieldGoalsttempted'
p266
S'6.2'
p267
sg31
S'2.9'
p268
sg33
S'9.4'
p269
sg35
S'27'
p270
sg37
S'DET'
p271
sg39
S'73'
p272
sg41
g3
sg42
S'2.8'
p273
sg44
S'1.9'
p274
sg46
S'6.2'
p275
sg48
g3
sg49
S'1967-68'
p276
sg51
S'2.8'
p277
sg53
g3
sg54
S'.452'
p278
sg56
S'27.8'
p279
sg58
g3
sbsS'_weight'
p280
S'235'
p281
sS'_dob'
p282
S'21-9-1940'
p283
sS'_salary'
p284
(lp285
sg18
g19
sb.