(isrc.gp1.models.Player
Player
p0
(dp1
S'_experience'
p2
S'NA'
p3
sS'_totals'
p4
(lp5
(isrc.gp1.models.Totals
Totals
p6
(dp7
S'_offensiveRebounds'
p8
S'57'
p9
sS'_threePointsAttempted'
p10
S'87'
p11
sS'_fieldGoalsPercentage'
p12
S'.478'
p13
sS'_assist'
p14
S'60'
p15
sS'_threePointsPercentage'
p16
S'.333'
p17
sS'_threePoints'
p18
S'29'
p19
sS'_points'
p20
S'533'
p21
sS'_position'
p22
S'SF'
p23
sS'_freeThrowsPercentage'
p24
S'.812'
p25
sS'_effectiveFieldGoalPercentage'
p26
S'.513'
p27
sS'_league'
p28
S'NBA'
p29
sS'_steals'
p30
S'37'
p31
sS'_fieldGoalsAttempted'
p32
S'414'
p33
sS'_personalFouls'
p34
S'228'
p35
sS'_freeThrowsAttempted'
p36
S'133'
p37
sS'_totalRebounds'
p38
S'244'
p39
sS'_age'
p40
S'23'
p41
sS'_team'
p42
S'TOR'
p43
sS'_games'
p44
S'80'
p45
sS'_blocks'
p46
S'13'
p47
sS'_twoPoints'
p48
S'169'
p49
sS'_freeThrows'
p50
S'108'
p51
sS'_twoPointsAttempted'
p52
S'327'
p53
sS'_defensiveRebounds'
p54
S'187'
p55
sS'_season'
p56
S'2005-06'
p57
sS'_fieldGoals'
p58
S'198'
p59
sS'_turnOvers'
p60
S'92'
p61
sS'_twoPointsPercentage'
p62
S'.517'
p63
sS'_minutesPlayed'
p64
S'1581'
p65
sS'_gamesStarted'
p66
S'24'
p67
sba(isrc.gp1.models.Totals
Totals
p68
(dp69
g8
S'55'
p70
sg10
S'31'
p71
sg12
S'.495'
p72
sg14
S'44'
p73
sg16
S'.290'
p74
sg18
S'9'
p75
sg20
S'503'
p76
sg22
S'SF'
p77
sg24
S'.840'
p78
sg26
S'.506'
p79
sg28
S'NBA'
p80
sg30
S'30'
p81
sg32
S'388'
p82
sg34
S'161'
p83
sg36
S'131'
p84
sg38
S'248'
p85
sg40
S'24'
p86
sg42
S'TOR'
p87
sg44
S'79'
p88
sg46
S'4'
p89
sg48
S'183'
p90
sg50
S'110'
p91
sg52
S'357'
p92
sg54
S'193'
p93
sg56
S'2006-07'
p94
sg58
S'192'
p95
sg60
S'49'
p96
sg62
S'.513'
p97
sg64
S'1319'
p98
sg66
S'21'
p99
sba(isrc.gp1.models.Totals
Totals
p100
(dp101
g8
S'18'
p102
sg10
S'3'
p103
sg12
S'.434'
p104
sg14
S'15'
p105
sg16
S'.667'
p106
sg18
S'2'
p107
sg20
S'138'
p108
sg22
S'SF'
p109
sg24
S'.844'
p110
sg26
S'.442'
p111
sg28
S'NBA'
p112
sg30
g103
sg32
S'113'
p113
sg34
S'47'
p114
sg36
S'45'
p115
sg38
S'67'
p116
sg40
S'25'
p117
sg42
S'TOR'
p118
sg44
S'38'
p119
sg46
S'0'
p120
sg48
S'47'
p121
sg50
S'38'
p122
sg52
S'110'
p123
sg54
S'49'
p124
sg56
S'2007-08'
p125
sg58
S'49'
p126
sg60
S'23'
p127
sg62
S'.427'
p128
sg64
S'331'
p129
sg66
g103
sba(isrc.gp1.models.Totals
Totals
p130
(dp131
g8
S'95'
p132
sg10
S'16'
p133
sg12
S'.481'
p134
sg14
S'48'
p135
sg16
S'.188'
p136
sg18
g103
sg20
S'597'
p137
sg22
S'SF'
p138
sg24
S'.825'
p139
sg26
S'.484'
p140
sg28
S'NBA'
p141
sg30
S'35'
p142
sg32
S'480'
p143
sg34
S'191'
p144
sg36
S'160'
p145
sg38
S'292'
p146
sg40
S'26'
p147
sg42
S'TOR'
p148
sg44
S'78'
p149
sg46
S'12'
p150
sg48
S'228'
p151
sg50
S'132'
p152
sg52
S'464'
p153
sg54
S'197'
p154
sg56
S'2008-09'
p155
sg58
S'231'
p156
sg60
S'74'
p157
sg62
S'.491'
p158
sg64
S'1541'
p159
sg66
S'10'
p160
sba(isrc.gp1.models.Totals
Totals
p161
(dp162
g8
S'39'
p163
sg10
S'13'
p164
sg12
S'.520'
p165
sg14
S'22'
p166
sg16
S'.154'
p167
sg18
g107
sg20
S'266'
p168
sg22
S'SF'
p169
sg24
S'.740'
p170
sg26
S'.525'
p171
sg28
S'NBA'
p172
sg30
S'23'
p173
sg32
S'202'
p174
sg34
S'104'
p175
sg36
S'73'
p176
sg38
S'123'
p177
sg40
S'27'
p178
sg42
S'DEN'
p179
sg44
S'63'
p180
sg46
S'7'
p181
sg48
S'103'
p182
sg50
S'54'
p183
sg52
S'189'
p184
sg54
S'84'
p185
sg56
S'2009-10'
p186
sg58
S'105'
p187
sg60
S'43'
p188
sg62
S'.545'
p189
sg64
S'759'
p190
sg66
S'18'
p191
sba(isrc.gp1.models.Totals
Totals
p192
(dp193
g8
S'8'
p194
sg10
S'30'
p195
sg12
S'.458'
p196
sg14
S'18'
p197
sg16
S'.300'
p198
sg18
g75
sg20
S'202'
p199
sg22
S'SF'
p200
sg24
S'.806'
p201
sg26
S'.483'
p202
sg28
S'NBA'
p203
sg30
S'6'
p204
sg32
S'179'
p205
sg34
S'73'
p206
sg36
S'36'
p207
sg38
S'84'
p208
sg40
S'28'
p209
sg42
S'CLE'
p210
sg44
S'39'
p211
sg46
g181
sg48
S'73'
p212
sg50
S'29'
p213
sg52
S'149'
p214
sg54
S'76'
p215
sg56
S'2010-11'
p216
sg58
S'82'
p217
sg60
S'28'
p218
sg62
S'.490'
p219
sg64
S'586'
p220
sg66
g194
sbasS'_college'
p221
S'Oklahoma State University'
p222
sS'_toYear'
p223
S'2011'
p224
sS'_height'
p225
S'6-7'
p226
sS'_active'
p227
I00
sS'_shootingHand'
p228
VRight
p229
sS'_name'
p230
S'Joey Graham'
p231
sS'_per100Possessions'
p232
(lp233
(isrc.gp1.models.Per100Possession
Per100Possession
p234
(dp235
g8
S'1.9'
p236
sg10
S'2.9'
p237
sg12
S'.478'
p238
sS'_offensiveRating'
p239
S'104'
p240
sg14
S'2.0'
p241
sg16
S'.333'
p242
sg18
S'1.0'
p243
sg20
S'17.8'
p244
sg22
S'SF'
p245
sS'_defensiveRating'
p246
S'113'
p247
sg24
S'.812'
p248
sg28
S'NBA'
p249
sg30
S'1.2'
p250
sg32
S'13.8'
p251
sg34
S'7.6'
p252
sg36
S'4.4'
p253
sg38
S'8.1'
p254
sg40
S'23'
p255
sg42
S'TOR'
p256
sg44
S'80'
p257
sg46
S'0.4'
p258
sg48
S'5.6'
p259
sg50
S'3.6'
p260
sg52
S'10.9'
p261
sg54
S'6.2'
p262
sg56
S'2005-06'
p263
sg58
S'6.6'
p264
sg60
S'3.1'
p265
sg62
S'.517'
p266
sg64
S'1581'
p267
sg66
S'24'
p268
sba(isrc.gp1.models.Per100Possession
Per100Possession
p269
(dp270
g8
S'2.2'
p271
sg10
S'1.2'
p272
sg12
S'.495'
p273
sg239
S'110'
p274
sg14
S'1.7'
p275
sg16
S'.290'
p276
sg18
S'0.4'
p277
sg20
S'19.8'
p278
sg22
S'SF'
p279
sg246
S'107'
p280
sg24
S'.840'
p281
sg28
S'NBA'
p282
sg30
S'1.2'
p283
sg32
S'15.3'
p284
sg34
S'6.3'
p285
sg36
S'5.1'
p286
sg38
S'9.7'
p287
sg40
S'24'
p288
sg42
S'TOR'
p289
sg44
S'79'
p290
sg46
S'0.2'
p291
sg48
S'7.2'
p292
sg50
S'4.3'
p293
sg52
S'14.0'
p294
sg54
S'7.6'
p295
sg56
S'2006-07'
p296
sg58
S'7.5'
p297
sg60
S'1.9'
p298
sg62
S'.513'
p299
sg64
S'1319'
p300
sg66
S'21'
p301
sba(isrc.gp1.models.Per100Possession
Per100Possession
p302
(dp303
g8
S'2.9'
p304
sg10
S'0.5'
p305
sg12
S'.434'
p306
sg239
S'99'
p307
sg14
S'2.4'
p308
sg16
S'.667'
p309
sg18
S'0.3'
p310
sg20
S'22.2'
p311
sg22
S'SF'
p312
sg246
S'110'
p313
sg24
S'.844'
p314
sg28
S'NBA'
p315
sg30
S'0.5'
p316
sg32
S'18.2'
p317
sg34
S'7.6'
p318
sg36
S'7.2'
p319
sg38
S'10.8'
p320
sg40
S'25'
p321
sg42
S'TOR'
p322
sg44
S'38'
p323
sg46
S'0.0'
p324
sg48
S'7.6'
p325
sg50
S'6.1'
p326
sg52
S'17.7'
p327
sg54
S'7.9'
p328
sg56
S'2007-08'
p329
sg58
S'7.9'
p330
sg60
S'3.7'
p331
sg62
S'.427'
p332
sg64
S'331'
p333
sg66
g103
sba(isrc.gp1.models.Per100Possession
Per100Possession
p334
(dp335
g8
S'3.2'
p336
sg10
S'0.5'
p337
sg12
S'.481'
p338
sg239
S'106'
p339
sg14
S'1.6'
p340
sg16
S'.188'
p341
sg18
S'0.1'
p342
sg20
S'20.2'
p343
sg22
S'SF'
p344
sg246
S'111'
p345
sg24
S'.825'
p346
sg28
S'NBA'
p347
sg30
S'1.2'
p348
sg32
S'16.3'
p349
sg34
S'6.5'
p350
sg36
S'5.4'
p351
sg38
S'9.9'
p352
sg40
S'26'
p353
sg42
S'TOR'
p354
sg44
S'78'
p355
sg46
S'0.4'
p356
sg48
S'7.7'
p357
sg50
S'4.5'
p358
sg52
S'15.7'
p359
sg54
S'6.7'
p360
sg56
S'2008-09'
p361
sg58
S'7.8'
p362
sg60
S'2.5'
p363
sg62
S'.491'
p364
sg64
S'1541'
p365
sg66
S'10'
p366
sba(isrc.gp1.models.Per100Possession
Per100Possession
p367
(dp368
g8
S'2.6'
p369
sg10
S'0.9'
p370
sg12
S'.520'
p371
sg239
S'106'
p372
sg14
S'1.5'
p373
sg16
S'.154'
p374
sg18
S'0.1'
p375
sg20
S'17.8'
p376
sg22
S'SF'
p377
sg246
S'109'
p378
sg24
S'.740'
p379
sg28
S'NBA'
p380
sg30
S'1.5'
p381
sg32
S'13.5'
p382
sg34
S'6.9'
p383
sg36
S'4.9'
p384
sg38
S'8.2'
p385
sg40
S'27'
p386
sg42
S'DEN'
p387
sg44
S'63'
p388
sg46
S'0.5'
p389
sg48
S'6.9'
p390
sg50
S'3.6'
p391
sg52
S'12.6'
p392
sg54
S'5.6'
p393
sg56
S'2009-10'
p394
sg58
S'7.0'
p395
sg60
S'2.9'
p396
sg62
S'.545'
p397
sg64
S'759'
p398
sg66
S'18'
p399
sba(isrc.gp1.models.Per100Possession
Per100Possession
p400
(dp401
g8
S'0.7'
p402
sg10
S'2.6'
p403
sg12
S'.458'
p404
sg239
S'96'
p405
sg14
S'1.6'
p406
sg16
S'.300'
p407
sg18
S'0.8'
p408
sg20
S'17.8'
p409
sg22
S'SF'
p410
sg246
S'114'
p411
sg24
S'.806'
p412
sg28
S'NBA'
p413
sg30
S'0.5'
p414
sg32
S'15.8'
p415
sg34
S'6.4'
p416
sg36
S'3.2'
p417
sg38
S'7.4'
p418
sg40
S'28'
p419
sg42
S'CLE'
p420
sg44
S'39'
p421
sg46
S'0.6'
p422
sg48
S'6.4'
p423
sg50
S'2.6'
p424
sg52
S'13.1'
p425
sg54
S'6.7'
p426
sg56
S'2010-11'
p427
sg58
S'7.2'
p428
sg60
S'2.5'
p429
sg62
S'.490'
p430
sg64
S'586'
p431
sg66
g194
sbasS'_advanced'
p432
(lp433
(isrc.gp1.models.Advanced
Advanced
p434
(dp435
S'_offensiveReboundPercentage'
p436
S'4.2'
p437
sS'_turnOverPercentage'
p438
S'16.3'
p439
sS'_winSharesPer48Minutes'
p440
S'.038'
p441
sS'_stealPercentage'
p442
S'1.2'
p443
sS'_usagePercentage'
p444
S'16.5'
p445
sS'_totalReboundsPercentage'
p446
S'9.4'
p447
sS'_defensiveBoxPlusMinus'
p448
S'-1.7'
p449
sg22
S'SF'
p450
sS'_valueOverReplacementPlayer'
p451
S'-0.6'
p452
sS'_trueShootingPercentage'
p453
S'.564'
p454
sS'_defensiveReboundPercentage'
p455
S'15.1'
p456
sS'_freeThrowsAttempRate'
p457
S'.321'
p458
sS'_threePointsAttempRate'
p459
S'.210'
p460
sg28
S'NBA'
p461
sS'_offensiveBoxPlusMinues'
p462
S'-1.8'
p463
sS'_assistPercentage'
p464
S'6.0'
p465
sS'_defensiveWinShares'
p466
S'0.3'
p467
sg40
S'23'
p468
sg42
S'TOR'
p469
sg44
S'80'
p470
sS'_blockPercentage'
p471
S'0.6'
p472
sS'_playerEfficiencyRating'
p473
S'10.2'
p474
sS'_offensiveWinShares'
p475
S'1.0'
p476
sg64
S'1581'
p477
sS'_boxPlusMinus'
p478
S'-3.5'
p479
sg56
S'2005-06'
p480
sS'_winShares'
p481
S'1.3'
p482
sba(isrc.gp1.models.Advanced
Advanced
p483
(dp484
g436
S'4.9'
p485
sg438
S'9.9'
p486
sg440
S'.108'
p487
sg442
S'1.2'
p488
sg444
S'17.4'
p489
sg446
S'11.0'
p490
sg448
S'-0.8'
p491
sg22
S'SF'
p492
sg451
S'-0.2'
p493
sg453
S'.564'
p494
sg455
S'17.4'
p495
sg457
S'.338'
p496
sg459
S'.080'
p497
sg28
S'NBA'
p498
sg462
S'-1.8'
p499
sg464
S'5.4'
p500
sg466
S'1.3'
p501
sg40
S'24'
p502
sg42
S'TOR'
p503
sg44
S'79'
p504
sg471
S'0.2'
p505
sg473
S'12.9'
p506
sg475
S'1.7'
p507
sg64
S'1319'
p508
sg478
S'-2.6'
p509
sg56
S'2006-07'
p510
sg481
S'3.0'
p511
sba(isrc.gp1.models.Advanced
Advanced
p512
(dp513
g436
S'6.4'
p514
sg438
S'14.8'
p515
sg440
S'.040'
p516
sg442
S'0.5'
p517
sg444
S'22.2'
p518
sg446
S'12.0'
p519
sg448
S'-2.3'
p520
sg22
S'SF'
p521
sg451
S'-0.4'
p522
sg453
S'.520'
p523
sg455
S'17.7'
p524
sg457
S'.398'
p525
sg459
S'.027'
p526
sg28
S'NBA'
p527
sg462
S'-4.3'
p528
sg464
S'7.0'
p529
sg466
S'0.3'
p530
sg40
S'25'
p531
sg42
S'TOR'
p532
sg44
S'38'
p533
sg471
S'0.0'
p534
sg473
S'10.3'
p535
sg475
S'0.0'
p536
sg64
S'331'
p537
sg478
S'-6.6'
p538
sg56
S'2007-08'
p539
sg481
S'0.3'
p540
sba(isrc.gp1.models.Advanced
Advanced
p541
(dp542
g436
S'7.3'
p543
sg438
S'11.9'
p544
sg440
S'.068'
p545
sg442
S'1.2'
p546
sg444
S'18.7'
p547
sg446
S'11.1'
p548
sg448
S'-1.3'
p549
sg22
S'SF'
p550
sg451
S'-0.6'
p551
sg453
S'.542'
p552
sg455
S'14.9'
p553
sg457
S'.333'
p554
sg459
S'.033'
p555
sg28
S'NBA'
p556
sg462
S'-2.2'
p557
sg464
S'5.0'
p558
sg466
S'1.1'
p559
sg40
S'26'
p560
sg42
S'TOR'
p561
sg44
S'78'
p562
sg471
S'0.6'
p563
sg473
S'11.9'
p564
sg475
S'1.1'
p565
sg64
S'1541'
p566
sg478
S'-3.5'
p567
sg56
S'2008-09'
p568
sg481
S'2.2'
p569
sba(isrc.gp1.models.Advanced
Advanced
p570
(dp571
g436
S'6.0'
p572
sg438
S'15.5'
p573
sg440
S'.072'
p574
sg442
S'1.5'
p575
sg444
S'16.2'
p576
sg446
S'9.3'
p577
sg448
S'-1.1'
p578
sg22
S'SF'
p579
sg451
S'-0.3'
p580
sg453
S'.568'
p581
sg455
S'12.7'
p582
sg457
S'.361'
p583
sg459
S'.064'
p584
sg28
S'NBA'
p585
sg462
S'-2.5'
p586
sg464
S'4.5'
p587
sg466
S'0.6'
p588
sg40
S'27'
p589
sg42
S'DEN'
p590
sg44
S'63'
p591
sg471
S'0.7'
p592
sg473
S'10.6'
p593
sg475
S'0.5'
p594
sg64
S'759'
p595
sg478
S'-3.6'
p596
sg56
S'2009-10'
p597
sg481
S'1.1'
p598
sba(isrc.gp1.models.Advanced
Advanced
p599
(dp600
g436
S'1.5'
p601
sg438
S'12.6'
p602
sg440
S'-0.004'
p603
sg442
S'0.5'
p604
sg444
S'17.2'
p605
sg446
S'8.2'
p606
sg448
S'-2.4'
p607
sg22
S'SF'
p608
sg451
S'-0.8'
p609
sg453
S'.518'
p610
sg455
S'15.3'
p611
sg457
S'.201'
p612
sg459
S'.168'
p613
sg28
S'NBA'
p614
sg462
S'-4.7'
p615
sg464
S'5.2'
p616
sg466
S'0.1'
p617
sg40
S'28'
p618
sg42
S'CLE'
p619
sg44
S'39'
p620
sg471
S'0.9'
p621
sg473
S'7.7'
p622
sg475
S'-0.2'
p623
sg64
S'586'
p624
sg478
S'-7.1'
p625
sg56
S'2010-11'
p626
sg481
S'0.0'
p627
sbasS'_per36Minutes'
p628
(lp629
(isrc.gp1.models.Per36Minutes
Per36Minutes
p630
(dp631
g8
S'1.3'
p632
sg10
S'2.0'
p633
sg12
S'.478'
p634
sg14
S'1.4'
p635
sg16
S'.333'
p636
sg18
S'0.7'
p637
sg20
S'12.1'
p638
sg22
S'SF'
p639
sg24
S'.812'
p640
sg28
S'NBA'
p641
sg30
S'0.8'
p642
sg32
S'9.4'
p643
sg34
S'5.2'
p644
sg36
S'3.0'
p645
sg38
S'5.6'
p646
sg40
S'23'
p647
sg42
S'TOR'
p648
sg44
S'80'
p649
sg46
S'0.3'
p650
sg48
S'3.8'
p651
sg50
S'2.5'
p652
sg52
S'7.4'
p653
sg54
S'4.3'
p654
sg56
S'2005-06'
p655
sg58
S'4.5'
p656
sg60
S'2.1'
p657
sg62
S'.517'
p658
sg64
S'1581'
p659
sg66
S'24'
p660
sba(isrc.gp1.models.Per36Minutes
Per36Minutes
p661
(dp662
g8
S'1.5'
p663
sg10
S'0.8'
p664
sg12
S'.495'
p665
sg14
S'1.2'
p666
sg16
S'.290'
p667
sg18
S'0.2'
p668
sg20
S'13.7'
p669
sg22
S'SF'
p670
sg24
S'.840'
p671
sg28
S'NBA'
p672
sg30
S'0.8'
p673
sg32
S'10.6'
p674
sg34
S'4.4'
p675
sg36
S'3.6'
p676
sg38
S'6.8'
p677
sg40
S'24'
p678
sg42
S'TOR'
p679
sg44
S'79'
p680
sg46
S'0.1'
p681
sg48
S'5.0'
p682
sg50
S'3.0'
p683
sg52
S'9.7'
p684
sg54
S'5.3'
p685
sg56
S'2006-07'
p686
sg58
S'5.2'
p687
sg60
S'1.3'
p688
sg62
S'.513'
p689
sg64
S'1319'
p690
sg66
S'21'
p691
sba(isrc.gp1.models.Per36Minutes
Per36Minutes
p692
(dp693
g8
S'2.0'
p694
sg10
S'0.3'
p695
sg12
S'.434'
p696
sg14
S'1.6'
p697
sg16
S'.667'
p698
sg18
S'0.2'
p699
sg20
S'15.0'
p700
sg22
S'SF'
p701
sg24
S'.844'
p702
sg28
S'NBA'
p703
sg30
S'0.3'
p704
sg32
S'12.3'
p705
sg34
S'5.1'
p706
sg36
S'4.9'
p707
sg38
S'7.3'
p708
sg40
S'25'
p709
sg42
S'TOR'
p710
sg44
S'38'
p711
sg46
S'0.0'
p712
sg48
S'5.1'
p713
sg50
S'4.1'
p714
sg52
S'12.0'
p715
sg54
S'5.3'
p716
sg56
S'2007-08'
p717
sg58
S'5.3'
p718
sg60
S'2.5'
p719
sg62
S'.427'
p720
sg64
S'331'
p721
sg66
g103
sba(isrc.gp1.models.Per36Minutes
Per36Minutes
p722
(dp723
g8
S'2.2'
p724
sg10
S'0.4'
p725
sg12
S'.481'
p726
sg14
S'1.1'
p727
sg16
S'.188'
p728
sg18
S'0.1'
p729
sg20
S'13.9'
p730
sg22
S'SF'
p731
sg24
S'.825'
p732
sg28
S'NBA'
p733
sg30
S'0.8'
p734
sg32
S'11.2'
p735
sg34
S'4.5'
p736
sg36
S'3.7'
p737
sg38
S'6.8'
p738
sg40
S'26'
p739
sg42
S'TOR'
p740
sg44
S'78'
p741
sg46
S'0.3'
p742
sg48
S'5.3'
p743
sg50
S'3.1'
p744
sg52
S'10.8'
p745
sg54
S'4.6'
p746
sg56
S'2008-09'
p747
sg58
S'5.4'
p748
sg60
S'1.7'
p749
sg62
S'.491'
p750
sg64
S'1541'
p751
sg66
S'10'
p752
sba(isrc.gp1.models.Per36Minutes
Per36Minutes
p753
(dp754
g8
S'1.8'
p755
sg10
S'0.6'
p756
sg12
S'.520'
p757
sg14
S'1.0'
p758
sg16
S'.154'
p759
sg18
S'0.1'
p760
sg20
S'12.6'
p761
sg22
S'SF'
p762
sg24
S'.740'
p763
sg28
S'NBA'
p764
sg30
S'1.1'
p765
sg32
S'9.6'
p766
sg34
S'4.9'
p767
sg36
S'3.5'
p768
sg38
S'5.8'
p769
sg40
S'27'
p770
sg42
S'DEN'
p771
sg44
S'63'
p772
sg46
S'0.3'
p773
sg48
S'4.9'
p774
sg50
S'2.6'
p775
sg52
S'9.0'
p776
sg54
S'4.0'
p777
sg56
S'2009-10'
p778
sg58
S'5.0'
p779
sg60
S'2.0'
p780
sg62
S'.545'
p781
sg64
S'759'
p782
sg66
S'18'
p783
sba(isrc.gp1.models.Per36Minutes
Per36Minutes
p784
(dp785
g8
S'0.5'
p786
sg10
S'1.8'
p787
sg12
S'.458'
p788
sg14
S'1.1'
p789
sg16
S'.300'
p790
sg18
S'0.6'
p791
sg20
S'12.4'
p792
sg22
S'SF'
p793
sg24
S'.806'
p794
sg28
S'NBA'
p795
sg30
S'0.4'
p796
sg32
S'11.0'
p797
sg34
S'4.5'
p798
sg36
S'2.2'
p799
sg38
S'5.2'
p800
sg40
S'28'
p801
sg42
S'CLE'
p802
sg44
S'39'
p803
sg46
S'0.4'
p804
sg48
S'4.5'
p805
sg50
S'1.8'
p806
sg52
S'9.2'
p807
sg54
S'4.7'
p808
sg56
S'2010-11'
p809
sg58
S'5.0'
p810
sg60
S'1.7'
p811
sg62
S'.490'
p812
sg64
S'586'
p813
sg66
g194
sbasS'_fromYear'
p814
S'2006'
p815
sS'_url'
p816
S'http://www.basketball-reference.com/players/g/grahajo01.html'
p817
sS'_perGame'
p818
(isrc.gp1.models.PerGame
PerGame
p819
(dp820
g8
S'0.2'
p821
sg10
S'0.8'
p822
sg12
S'.458'
p823
sS'_effectiveFieldGalPercentage'
p824
S'.483'
p825
sg14
S'0.5'
p826
sg16
S'.300'
p827
sg18
S'0.2'
p828
sg20
S'5.2'
p829
sg22
S'SF'
p830
sg24
S'.806'
p831
sg28
S'NBA'
p832
sg30
S'0.2'
p833
sg34
S'1.9'
p834
sS'_fieldGoalsttempted'
p835
S'4.6'
p836
sg36
S'0.9'
p837
sg38
S'2.2'
p838
sg40
S'28'
p839
sg42
S'CLE'
p840
sg44
S'39'
p841
sg46
S'0.2'
p842
sg48
S'1.9'
p843
sg50
S'0.7'
p844
sg52
S'3.8'
p845
sg54
S'1.9'
p846
sg56
S'2010-11'
p847
sg58
S'2.1'
p848
sg60
S'0.7'
p849
sg62
S'.490'
p850
sg64
S'15.0'
p851
sg66
g194
sbsS'_weight'
p852
S'225'
p853
sS'_dob'
p854
S'11-6-1982'
p855
sS'_salary'
p856
(lp857
(isrc.gp1.models.Salary
Salary
p858
(dp859
g42
S'Toronto Raptors'
p860
sg28
S'NBA'
p861
sg856
S'$1,388,400'
p862
sg56
S'2005-06'
p863
sba(isrc.gp1.models.Salary
Salary
p864
(dp865
g42
S'Toronto Raptors'
p866
sg28
S'NBA'
p867
sg856
S'$1,492,440'
p868
sg56
S'2006-07'
p869
sba(isrc.gp1.models.Salary
Salary
p870
(dp871
g42
S'Toronto Raptors'
p872
sg28
S'NBA'
p873
sg856
S'$1,596,600'
p874
sg56
S'2007-08'
p875
sba(isrc.gp1.models.Salary
Salary
p876
(dp877
g42
S'Toronto Raptors'
p878
sg28
S'NBA'
p879
sg856
S'$2,449,184'
p880
sg56
S'2008-09'
p881
sba(isrc.gp1.models.Salary
Salary
p882
(dp883
g42
S'Denver Nuggets'
p884
sg28
S'NBA'
p885
sg856
S'$884,881'
p886
sg56
S'2009-10'
p887
sba(isrc.gp1.models.Salary
Salary
p888
(dp889
g42
S'Cleveland Cavaliers'
p890
sg28
S'NBA'
p891
sg856
S'$992,680'
p892
sg56
S'2010-11'
p893
sbasg22
S'F'
p894
sb.