(isrc.gp1.models.Player
Player
p0
(dp1
S'_experience'
p2
V3
p3
sS'_totals'
p4
(lp5
(isrc.gp1.models.Totals
Totals
p6
(dp7
S'_offensiveRebounds'
p8
S'5'
p9
sS'_threePointsAttempted'
p10
S'18'
p11
sS'_fieldGoalsPercentage'
p12
S'.440'
p13
sS'_assist'
p14
S'2'
p15
sS'_threePointsPercentage'
p16
S'.333'
p17
sS'_threePoints'
p18
S'6'
p19
sS'_points'
p20
S'29'
p21
sS'_position'
p22
S'SF'
p23
sS'_freeThrowsPercentage'
p24
S'.500'
p25
sS'_effectiveFieldGoalPercentage'
p26
S'.560'
p27
sS'_league'
p28
S'NBA'
p29
sS'_steals'
p30
S'4'
p31
sS'_fieldGoalsAttempted'
p32
S'25'
p33
sS'_personalFouls'
p34
g9
sS'_freeThrowsAttempted'
p35
g15
sS'_totalRebounds'
p36
S'11'
p37
sS'_age'
p38
S'22'
p39
sS'_team'
p40
S'MEM'
p41
sS'_games'
p42
S'8'
p43
sS'_blocks'
p44
S'0'
p45
sS'_twoPoints'
p46
g9
sS'_freeThrows'
p47
S'1'
p48
sS'_twoPointsAttempted'
p49
S'7'
p50
sS'_defensiveRebounds'
p51
g19
sS'_season'
p52
S'2012-13'
p53
sS'_fieldGoals'
p54
S'11'
p55
sS'_turnOvers'
p56
S'3'
p57
sS'_twoPointsPercentage'
p58
S'.714'
p59
sS'_minutesPlayed'
p60
S'102'
p61
sS'_gamesStarted'
p62
g45
sba(isrc.gp1.models.Totals
Totals
p63
(dp64
g8
S'31'
p65
sg10
S'127'
p66
sg12
S'.397'
p67
sg14
S'31'
p68
sg16
S'.339'
p69
sg18
S'43'
p70
sg20
S'250'
p71
sg22
S'SF'
p72
sg24
S'.860'
p73
sg26
S'.498'
p74
sg28
S'NBA'
p75
sg30
S'27'
p76
sg32
S'214'
p77
sg34
S'63'
p78
sg35
S'43'
p79
sg36
S'97'
p80
sg38
S'23'
p81
sg40
S'BOS'
p82
sg42
S'40'
p83
sg44
g31
sg46
S'42'
p84
sg47
S'37'
p85
sg49
S'87'
p86
sg51
S'66'
p87
sg52
S'2013-14'
p88
sg54
S'85'
p89
sg56
S'22'
p90
sg58
S'.483'
p91
sg60
S'789'
p92
sg62
g45
sba(isrc.gp1.models.Totals
Totals
p93
(dp94
g8
g43
sg10
S'95'
p95
sg12
S'.403'
p96
sg14
S'15'
p97
sg16
S'.295'
p98
sg18
S'28'
p99
sg20
S'166'
p100
sg22
S'SF'
p101
sg24
S'.875'
p102
sg26
S'.494'
p103
sg28
S'NBA'
p104
sg30
S'26'
p105
sg32
S'154'
p106
sg34
S'44'
p107
sg35
S'16'
p108
sg36
S'55'
p109
sg38
S'24'
p110
sg40
S'TOT'
p111
sg42
S'29'
p112
sg44
g50
sg46
S'34'
p113
sg47
S'14'
p114
sg49
S'59'
p115
sg51
S'47'
p116
sg52
S'2014-15'
p117
sg54
S'62'
p118
sg56
S'15'
p119
sg58
S'.576'
p120
sg60
S'526'
p121
sg62
g15
sba(isrc.gp1.models.Totals
Totals
p122
(dp123
g8
g57
sg10
S'39'
p124
sg12
S'.317'
p125
sg14
g57
sg16
S'.256'
p126
sg18
S'10'
p127
sg20
S'54'
p128
sg22
S'SF'
p129
sg24
S'.750'
p130
sg26
S'.400'
p131
sg28
S'NBA'
p132
sg30
S'9'
p133
sg32
S'60'
p134
sg34
S'19'
p135
sg35
g43
sg36
S'26'
p136
sg38
S'24'
p137
sg40
S'PHI'
p138
sg42
g133
sg44
g9
sg46
g133
sg47
g19
sg49
S'21'
p139
sg51
S'23'
p140
sg52
S'2014-15'
p141
sg54
S'19'
p142
sg56
g133
sg58
S'.429'
p143
sg60
S'187'
p144
sg62
g15
sba(isrc.gp1.models.Totals
Totals
p145
(dp146
g8
g57
sg10
S'38'
p147
sg12
S'.484'
p148
sg14
g50
sg16
S'.342'
p149
sg18
S'13'
p150
sg20
S'81'
p151
sg22
S'SF'
p152
sg24
S'1.000'
p153
sg26
S'.586'
p154
sg28
S'NBA'
p155
sg30
S'12'
p156
sg32
S'64'
p157
sg34
S'18'
p158
sg35
g19
sg36
S'18'
p159
sg38
S'24'
p160
sg40
S'UTA'
p161
sg42
S'12'
p162
sg44
g45
sg46
S'18'
p163
sg47
g19
sg49
S'26'
p164
sg51
S'15'
p165
sg52
S'2014-15'
p166
sg54
S'31'
p167
sg56
g19
sg58
S'.692'
p168
sg60
S'211'
p169
sg62
g45
sba(isrc.gp1.models.Totals
Totals
p170
(dp171
g8
g15
sg10
S'18'
p172
sg12
S'.400'
p173
sg14
g9
sg16
S'.278'
p174
sg18
g9
sg20
S'31'
p175
sg22
S'SF'
p176
sg24
S'1.000'
p177
sg26
S'.483'
p178
sg28
S'NBA'
p179
sg30
g9
sg32
S'30'
p180
sg34
g50
sg35
g15
sg36
S'11'
p181
sg38
S'24'
p182
sg40
S'MIL'
p183
sg42
g43
sg44
g15
sg46
g50
sg47
g15
sg49
S'12'
p184
sg51
g133
sg52
S'2014-15'
p185
sg54
S'12'
p186
sg56
g45
sg58
S'.583'
p187
sg60
S'128'
p188
sg62
g45
sba(isrc.gp1.models.Totals
Totals
p189
(dp190
g8
S'15'
p191
sg10
S'56'
p192
sg12
S'.369'
p193
sg14
S'31'
p194
sg16
S'.286'
p195
sg18
S'16'
p196
sg20
S'121'
p197
sg22
S'SF'
p198
sg24
S'.767'
p199
sg26
S'.441'
p200
sg28
S'NBA'
p201
sg30
S'23'
p202
sg32
S'111'
p203
sg34
S'54'
p204
sg35
S'30'
p205
sg36
S'73'
p206
sg38
S'25'
p207
sg40
S'UTA'
p208
sg42
S'40'
p209
sg44
g50
sg46
S'25'
p210
sg47
S'23'
p211
sg49
S'55'
p212
sg51
S'58'
p213
sg52
S'2015-16'
p214
sg54
S'41'
p215
sg56
S'25'
p216
sg58
S'.455'
p217
sg60
S'458'
p218
sg62
g48
sbasS'_college'
p219
S'University of Dayton'
p220
sS'_toYear'
p221
S'2016'
p222
sS'_height'
p223
S'6-6'
p224
sS'_active'
p225
I01
sS'_shootingHand'
p226
VLeft
p227
sS'_name'
p228
S'Chris Johnson'
p229
sS'_per100Possessions'
p230
(lp231
(isrc.gp1.models.Per100Possession
Per100Possession
p232
(dp233
g8
S'2.7'
p234
sg10
S'9.6'
p235
sg12
S'.440'
p236
sS'_offensiveRating'
p237
S'111'
p238
sg14
S'1.1'
p239
sg16
S'.333'
p240
sg18
S'3.2'
p241
sg20
S'15.4'
p242
sg22
S'SF'
p243
sS'_defensiveRating'
p244
S'104'
p245
sg24
S'.500'
p246
sg28
S'NBA'
p247
sg30
S'2.1'
p248
sg32
S'13.3'
p249
sg34
S'2.7'
p250
sg35
S'1.1'
p251
sg36
S'5.9'
p252
sg38
S'22'
p253
sg40
S'MEM'
p254
sg42
g43
sg44
S'0.0'
p255
sg46
S'2.7'
p256
sg47
S'0.5'
p257
sg49
S'3.7'
p258
sg51
S'3.2'
p259
sg52
S'2012-13'
p260
sg54
S'5.9'
p261
sg56
S'1.6'
p262
sg58
S'.714'
p263
sg60
S'102'
p264
sg62
g45
sba(isrc.gp1.models.Per100Possession
Per100Possession
p265
(dp266
g8
S'2.0'
p267
sg10
S'8.3'
p268
sg12
S'.397'
p269
sg237
S'111'
p270
sg14
S'2.0'
p271
sg16
S'.339'
p272
sg18
S'2.8'
p273
sg20
S'16.3'
p274
sg22
S'SF'
p275
sg244
S'109'
p276
sg24
S'.860'
p277
sg28
S'NBA'
p278
sg30
S'1.8'
p279
sg32
S'14.0'
p280
sg34
S'4.1'
p281
sg35
S'2.8'
p282
sg36
S'6.3'
p283
sg38
S'23'
p284
sg40
S'BOS'
p285
sg42
S'40'
p286
sg44
S'0.3'
p287
sg46
S'2.7'
p288
sg47
S'2.4'
p289
sg49
S'5.7'
p290
sg51
S'4.3'
p291
sg52
S'2013-14'
p292
sg54
S'5.5'
p293
sg56
S'1.4'
p294
sg58
S'.483'
p295
sg60
S'789'
p296
sg62
g45
sba(isrc.gp1.models.Per100Possession
Per100Possession
p297
(dp298
g8
S'0.8'
p299
sg10
S'9.3'
p300
sg12
S'.403'
p301
sg237
S'102'
p302
sg14
S'1.5'
p303
sg16
S'.295'
p304
sg18
S'2.7'
p305
sg20
S'16.3'
p306
sg22
S'SF'
p307
sg244
S'105'
p308
sg24
S'.875'
p309
sg28
S'NBA'
p310
sg30
S'2.5'
p311
sg32
S'15.1'
p312
sg34
S'4.3'
p313
sg35
S'1.6'
p314
sg36
S'5.4'
p315
sg38
S'24'
p316
sg40
S'TOT'
p317
sg42
S'29'
p318
sg44
S'0.7'
p319
sg46
S'3.3'
p320
sg47
S'1.4'
p321
sg49
S'5.8'
p322
sg51
S'4.6'
p323
sg52
S'2014-15'
p324
sg54
S'6.1'
p325
sg56
S'1.5'
p326
sg58
S'.576'
p327
sg60
S'526'
p328
sg62
g15
sba(isrc.gp1.models.Per100Possession
Per100Possession
p329
(dp330
g8
S'0.8'
p331
sg10
S'10.5'
p332
sg12
S'.317'
p333
sg237
S'81'
p334
sg14
S'0.8'
p335
sg16
S'.256'
p336
sg18
S'2.7'
p337
sg20
S'14.5'
p338
sg22
S'SF'
p339
sg244
S'104'
p340
sg24
S'.750'
p341
sg28
S'NBA'
p342
sg30
S'2.4'
p343
sg32
S'16.1'
p344
sg34
S'5.1'
p345
sg35
S'2.1'
p346
sg36
S'7.0'
p347
sg38
S'24'
p348
sg40
S'PHI'
p349
sg42
g133
sg44
S'1.3'
p350
sg46
S'2.4'
p351
sg47
S'1.6'
p352
sg49
S'5.6'
p353
sg51
S'6.2'
p354
sg52
S'2014-15'
p355
sg54
S'5.1'
p356
sg56
S'2.4'
p357
sg58
S'.429'
p358
sg60
S'187'
p359
sg62
g15
sba(isrc.gp1.models.Per100Possession
Per100Possession
p360
(dp361
g8
S'0.8'
p362
sg10
S'9.6'
p363
sg12
S'.484'
p364
sg237
S'119'
p365
sg14
S'1.8'
p366
sg16
S'.342'
p367
sg18
S'3.3'
p368
sg20
S'20.4'
p369
sg22
S'SF'
p370
sg244
S'106'
p371
sg24
S'1.000'
p372
sg28
S'NBA'
p373
sg30
S'3.0'
p374
sg32
S'16.1'
p375
sg34
S'4.5'
p376
sg35
S'1.5'
p377
sg36
S'4.5'
p378
sg38
S'24'
p379
sg40
S'UTA'
p380
sg42
S'12'
p381
sg44
S'0.0'
p382
sg46
S'4.5'
p383
sg47
S'1.5'
p384
sg49
S'6.5'
p385
sg51
S'3.8'
p386
sg52
S'2014-15'
p387
sg54
S'7.8'
p388
sg56
S'1.5'
p389
sg58
S'.692'
p390
sg60
S'211'
p391
sg62
g45
sba(isrc.gp1.models.Per100Possession
Per100Possession
p392
(dp393
g8
S'0.8'
p394
sg10
S'7.2'
p395
sg12
S'.400'
p396
sg237
S'113'
p397
sg14
S'2.0'
p398
sg16
S'.278'
p399
sg18
S'2.0'
p400
sg20
S'12.4'
p401
sg22
S'SF'
p402
sg244
S'105'
p403
sg24
S'1.000'
p404
sg28
S'NBA'
p405
sg30
S'2.0'
p406
sg32
S'12.0'
p407
sg34
S'2.8'
p408
sg35
S'0.8'
p409
sg36
S'4.4'
p410
sg38
S'24'
p411
sg40
S'MIL'
p412
sg42
g43
sg44
S'0.8'
p413
sg46
S'2.8'
p414
sg47
S'0.8'
p415
sg49
S'4.8'
p416
sg51
S'3.6'
p417
sg52
S'2014-15'
p418
sg54
S'4.8'
p419
sg56
S'0.0'
p420
sg58
S'.583'
p421
sg60
S'128'
p422
sg62
g45
sba(isrc.gp1.models.Per100Possession
Per100Possession
p423
(dp424
g8
S'1.7'
p425
sg10
S'6.5'
p426
sg12
S'.369'
p427
sg237
S'97'
p428
sg14
S'3.6'
p429
sg16
S'.286'
p430
sg18
S'1.8'
p431
sg20
S'14.0'
p432
sg22
S'SF'
p433
sg244
S'103'
p434
sg24
S'.767'
p435
sg28
S'NBA'
p436
sg30
S'2.7'
p437
sg32
S'12.8'
p438
sg34
S'6.2'
p439
sg35
S'3.5'
p440
sg36
S'8.4'
p441
sg38
S'25'
p442
sg40
S'UTA'
p443
sg42
S'40'
p444
sg44
S'0.8'
p445
sg46
S'2.9'
p446
sg47
S'2.7'
p447
sg49
S'6.4'
p448
sg51
S'6.7'
p449
sg52
S'2015-16'
p450
sg54
S'4.7'
p451
sg56
S'2.9'
p452
sg58
S'.455'
p453
sg60
S'458'
p454
sg62
g48
sbasS'_advanced'
p455
(lp456
(isrc.gp1.models.Advanced
Advanced
p457
(dp458
S'_offensiveReboundPercentage'
p459
S'5.7'
p460
sS'_turnOverPercentage'
p461
S'10.4'
p462
sS'_winSharesPer48Minutes'
p463
S'.112'
p464
sS'_stealPercentage'
p465
S'2.1'
p466
sS'_usagePercentage'
p467
S'13.1'
p468
sS'_totalReboundsPercentage'
p469
S'6.4'
p470
sS'_defensiveBoxPlusMinus'
p471
S'-0.7'
p472
sg22
S'SF'
p473
sS'_valueOverReplacementPlayer'
p474
S'0.0'
p475
sS'_trueShootingPercentage'
p476
S'.560'
p477
sS'_defensiveReboundPercentage'
p478
S'7.1'
p479
sS'_freeThrowsAttempRate'
p480
S'.080'
p481
sS'_threePointsAttempRate'
p482
S'.720'
p483
sg28
S'NBA'
p484
sS'_offensiveBoxPlusMinues'
p485
S'0.4'
p486
sS'_assistPercentage'
p487
S'3.1'
p488
sS'_defensiveWinShares'
p489
S'0.1'
p490
sg38
S'22'
p491
sg40
S'MEM'
p492
sg42
g43
sS'_blockPercentage'
p493
S'0.0'
p494
sS'_playerEfficiencyRating'
p495
S'10.7'
p496
sS'_offensiveWinShares'
p497
S'0.1'
p498
sg60
S'102'
p499
sS'_boxPlusMinus'
p500
S'-0.3'
p501
sg52
S'2012-13'
p502
sS'_winShares'
p503
S'0.2'
p504
sba(isrc.gp1.models.Advanced
Advanced
p505
(dp506
g459
S'4.3'
p507
sg461
S'8.6'
p508
sg463
S'.085'
p509
sg465
S'1.8'
p510
sg467
S'14.3'
p511
sg469
S'7.0'
p512
sg471
S'-0.9'
p513
sg22
S'SF'
p514
sg474
S'0.2'
p515
sg476
S'.537'
p516
sg478
S'9.8'
p517
sg480
S'.201'
p518
sg482
S'.593'
p519
sg28
S'NBA'
p520
sg485
S'0.1'
p521
sg487
S'6.0'
p522
sg489
S'0.5'
p523
sg38
S'23'
p524
sg40
S'BOS'
p525
sg42
S'40'
p526
sg493
S'0.4'
p527
sg495
S'10.8'
p528
sg497
S'0.9'
p529
sg60
S'789'
p530
sg500
S'-0.8'
p531
sg52
S'2013-14'
p532
sg503
S'1.4'
p533
sba(isrc.gp1.models.Advanced
Advanced
p534
(dp535
g459
S'1.7'
p536
sg461
S'8.5'
p537
sg463
S'.074'
p538
sg465
S'2.6'
p539
sg467
S'15.0'
p540
sg469
S'5.9'
p541
sg471
S'-0.6'
p542
sg22
S'SF'
p543
sg474
S'0.0'
p544
sg476
S'.515'
p545
sg478
S'10.2'
p546
sg480
S'.104'
p547
sg482
S'.617'
p548
sg28
S'NBA'
p549
sg485
S'-1.6'
p550
sg487
S'4.6'
p551
sg489
S'0.6'
p552
sg38
S'24'
p553
sg40
S'TOT'
p554
sg42
S'29'
p555
sg493
S'1.1'
p556
sg495
S'10.2'
p557
sg497
S'0.2'
p558
sg60
S'526'
p559
sg500
S'-2.2'
p560
sg52
S'2014-15'
p561
sg503
S'0.8'
p562
sba(isrc.gp1.models.Advanced
Advanced
p563
(dp564
g459
S'1.7'
p565
sg461
S'12.4'
p566
sg463
S'-0.017'
p567
sg465
S'2.4'
p568
sg467
S'16.9'
p569
sg469
S'7.5'
p570
sg471
S'-0.6'
p571
sg22
S'SF'
p572
sg474
S'-0.2'
p573
sg476
S'.425'
p574
sg478
S'14.0'
p575
sg480
S'.133'
p576
sg482
S'.650'
p577
sg28
S'NBA'
p578
sg485
S'-5.6'
p579
sg487
S'2.7'
p580
sg489
S'0.2'
p581
sg38
S'24'
p582
sg40
S'PHI'
p583
sg42
g133
sg493
S'2.2'
p584
sg495
S'6.0'
p585
sg497
S'-0.3'
p586
sg60
S'187'
p587
sg500
S'-6.2'
p588
sg52
S'2014-15'
p589
sg503
S'-0.1'
p590
sba(isrc.gp1.models.Advanced
Advanced
p591
(dp592
g459
S'1.7'
p593
sg461
S'8.3'
p594
sg463
S'.139'
p595
sg465
S'3.0'
p596
sg467
S'15.8'
p597
sg469
S'4.9'
p598
sg471
S'-1.0'
p599
sg22
S'SF'
p600
sg474
S'0.1'
p601
sg476
S'.608'
p602
sg478
S'8.2'
p603
sg480
S'.094'
p604
sg482
S'.594'
p605
sg28
S'NBA'
p606
sg485
S'1.7'
p607
sg487
S'5.6'
p608
sg489
S'0.2'
p609
sg38
S'24'
p610
sg40
S'UTA'
p611
sg42
S'12'
p612
sg493
S'0.0'
p613
sg495
S'14.2'
p614
sg497
S'0.4'
p615
sg60
S'211'
p616
sg500
S'0.7'
p617
sg52
S'2014-15'
p618
sg503
S'0.6'
p619
sba(isrc.gp1.models.Advanced
Advanced
p620
(dp621
g459
S'1.8'
p622
sg461
S'0.0'
p623
sg463
S'.102'
p624
sg465
S'2.0'
p625
sg467
S'10.9'
p626
sg469
S'4.9'
p627
sg471
S'-0.2'
p628
sg22
S'SF'
p629
sg474
S'0.0'
p630
sg476
S'.502'
p631
sg478
S'8.0'
p632
sg480
S'.067'
p633
sg482
S'.600'
p634
sg28
S'NBA'
p635
sg485
S'-1.2'
p636
sg487
S'5.7'
p637
sg489
S'0.1'
p638
sg38
S'24'
p639
sg40
S'MIL'
p640
sg42
g43
sg493
S'1.3'
p641
sg495
S'9.7'
p642
sg497
S'0.1'
p643
sg60
S'128'
p644
sg500
S'-1.3'
p645
sg52
S'2014-15'
p646
sg503
S'0.3'
p647
sba(isrc.gp1.models.Advanced
Advanced
p648
(dp649
g459
S'3.8'
p650
sg461
S'16.8'
p651
sg463
S'.065'
p652
sg465
S'2.7'
p653
sg467
S'15.0'
p654
sg469
S'9.4'
p655
sg471
S'1.1'
p656
sg22
S'SF'
p657
sg474
S'0.1'
p658
sg476
S'.487'
p659
sg478
S'14.9'
p660
sg480
S'.270'
p661
sg482
S'.505'
p662
sg28
S'NBA'
p663
sg485
S'-2.0'
p664
sg487
S'10.5'
p665
sg489
S'0.6'
p666
sg38
S'25'
p667
sg40
S'UTA'
p668
sg42
S'40'
p669
sg493
S'1.3'
p670
sg495
S'9.6'
p671
sg497
S'0.0'
p672
sg60
S'458'
p673
sg500
S'-0.8'
p674
sg52
S'2015-16'
p675
sg503
S'0.6'
p676
sbasS'_per36Minutes'
p677
(lp678
(isrc.gp1.models.Per36Minutes
Per36Minutes
p679
(dp680
g8
S'1.8'
p681
sg10
S'6.4'
p682
sg12
S'.440'
p683
sg14
S'0.7'
p684
sg16
S'.333'
p685
sg18
S'2.1'
p686
sg20
S'10.2'
p687
sg22
S'SF'
p688
sg24
S'.500'
p689
sg28
S'NBA'
p690
sg30
S'1.4'
p691
sg32
S'8.8'
p692
sg34
S'1.8'
p693
sg35
S'0.7'
p694
sg36
S'3.9'
p695
sg38
S'22'
p696
sg40
S'MEM'
p697
sg42
g43
sg44
S'0.0'
p698
sg46
S'1.8'
p699
sg47
S'0.4'
p700
sg49
S'2.5'
p701
sg51
S'2.1'
p702
sg52
S'2012-13'
p703
sg54
S'3.9'
p704
sg56
S'1.1'
p705
sg58
S'.714'
p706
sg60
S'102'
p707
sg62
g45
sba(isrc.gp1.models.Per36Minutes
Per36Minutes
p708
(dp709
g8
S'1.4'
p710
sg10
S'5.8'
p711
sg12
S'.397'
p712
sg14
S'1.4'
p713
sg16
S'.339'
p714
sg18
S'2.0'
p715
sg20
S'11.4'
p716
sg22
S'SF'
p717
sg24
S'.860'
p718
sg28
S'NBA'
p719
sg30
S'1.2'
p720
sg32
S'9.8'
p721
sg34
S'2.9'
p722
sg35
S'2.0'
p723
sg36
S'4.4'
p724
sg38
S'23'
p725
sg40
S'BOS'
p726
sg42
S'40'
p727
sg44
S'0.2'
p728
sg46
S'1.9'
p729
sg47
S'1.7'
p730
sg49
S'4.0'
p731
sg51
S'3.0'
p732
sg52
S'2013-14'
p733
sg54
S'3.9'
p734
sg56
S'1.0'
p735
sg58
S'.483'
p736
sg60
S'789'
p737
sg62
g45
sba(isrc.gp1.models.Per36Minutes
Per36Minutes
p738
(dp739
g8
S'0.5'
p740
sg10
S'6.5'
p741
sg12
S'.403'
p742
sg14
S'1.0'
p743
sg16
S'.295'
p744
sg18
S'1.9'
p745
sg20
S'11.4'
p746
sg22
S'SF'
p747
sg24
S'.875'
p748
sg28
S'NBA'
p749
sg30
S'1.8'
p750
sg32
S'10.5'
p751
sg34
S'3.0'
p752
sg35
S'1.1'
p753
sg36
S'3.8'
p754
sg38
S'24'
p755
sg40
S'TOT'
p756
sg42
S'29'
p757
sg44
S'0.5'
p758
sg46
S'2.3'
p759
sg47
S'1.0'
p760
sg49
S'4.0'
p761
sg51
S'3.2'
p762
sg52
S'2014-15'
p763
sg54
S'4.2'
p764
sg56
S'1.0'
p765
sg58
S'.576'
p766
sg60
S'526'
p767
sg62
g15
sba(isrc.gp1.models.Per36Minutes
Per36Minutes
p768
(dp769
g8
S'0.6'
p770
sg10
S'7.5'
p771
sg12
S'.317'
p772
sg14
S'0.6'
p773
sg16
S'.256'
p774
sg18
S'1.9'
p775
sg20
S'10.4'
p776
sg22
S'SF'
p777
sg24
S'.750'
p778
sg28
S'NBA'
p779
sg30
S'1.7'
p780
sg32
S'11.6'
p781
sg34
S'3.7'
p782
sg35
S'1.5'
p783
sg36
S'5.0'
p784
sg38
S'24'
p785
sg40
S'PHI'
p786
sg42
g133
sg44
S'1.0'
p787
sg46
S'1.7'
p788
sg47
S'1.2'
p789
sg49
S'4.0'
p790
sg51
S'4.4'
p791
sg52
S'2014-15'
p792
sg54
S'3.7'
p793
sg56
S'1.7'
p794
sg58
S'.429'
p795
sg60
S'187'
p796
sg62
g15
sba(isrc.gp1.models.Per36Minutes
Per36Minutes
p797
(dp798
g8
S'0.5'
p799
sg10
S'6.5'
p800
sg12
S'.484'
p801
sg14
S'1.2'
p802
sg16
S'.342'
p803
sg18
S'2.2'
p804
sg20
S'13.8'
p805
sg22
S'SF'
p806
sg24
S'1.000'
p807
sg28
S'NBA'
p808
sg30
S'2.0'
p809
sg32
S'10.9'
p810
sg34
S'3.1'
p811
sg35
S'1.0'
p812
sg36
S'3.1'
p813
sg38
S'24'
p814
sg40
S'UTA'
p815
sg42
S'12'
p816
sg44
S'0.0'
p817
sg46
S'3.1'
p818
sg47
S'1.0'
p819
sg49
S'4.4'
p820
sg51
S'2.6'
p821
sg52
S'2014-15'
p822
sg54
S'5.3'
p823
sg56
S'1.0'
p824
sg58
S'.692'
p825
sg60
S'211'
p826
sg62
g45
sba(isrc.gp1.models.Per36Minutes
Per36Minutes
p827
(dp828
g8
S'0.6'
p829
sg10
S'5.1'
p830
sg12
S'.400'
p831
sg14
S'1.4'
p832
sg16
S'.278'
p833
sg18
S'1.4'
p834
sg20
S'8.7'
p835
sg22
S'SF'
p836
sg24
S'1.000'
p837
sg28
S'NBA'
p838
sg30
S'1.4'
p839
sg32
S'8.4'
p840
sg34
S'2.0'
p841
sg35
S'0.6'
p842
sg36
S'3.1'
p843
sg38
S'24'
p844
sg40
S'MIL'
p845
sg42
g43
sg44
S'0.6'
p846
sg46
S'2.0'
p847
sg47
S'0.6'
p848
sg49
S'3.4'
p849
sg51
S'2.5'
p850
sg52
S'2014-15'
p851
sg54
S'3.4'
p852
sg56
S'0.0'
p853
sg58
S'.583'
p854
sg60
S'128'
p855
sg62
g45
sba(isrc.gp1.models.Per36Minutes
Per36Minutes
p856
(dp857
g8
S'1.2'
p858
sg10
S'4.4'
p859
sg12
S'.369'
p860
sg14
S'2.4'
p861
sg16
S'.286'
p862
sg18
S'1.3'
p863
sg20
S'9.5'
p864
sg22
S'SF'
p865
sg24
S'.767'
p866
sg28
S'NBA'
p867
sg30
S'1.8'
p868
sg32
S'8.7'
p869
sg34
S'4.2'
p870
sg35
S'2.4'
p871
sg36
S'5.7'
p872
sg38
S'25'
p873
sg40
S'UTA'
p874
sg42
S'40'
p875
sg44
S'0.6'
p876
sg46
S'2.0'
p877
sg47
S'1.8'
p878
sg49
S'4.3'
p879
sg51
S'4.6'
p880
sg52
S'2015-16'
p881
sg54
S'3.2'
p882
sg56
S'2.0'
p883
sg58
S'.455'
p884
sg60
S'458'
p885
sg62
g48
sbasS'_fromYear'
p886
S'2013'
p887
sS'_url'
p888
S'http://www.basketball-reference.com/players/j/johnsch04.html'
p889
sS'_perGame'
p890
(isrc.gp1.models.PerGame
PerGame
p891
(dp892
g8
S'0.4'
p893
sg10
S'1.4'
p894
sg12
S'.369'
p895
sS'_effectiveFieldGalPercentage'
p896
S'.441'
p897
sg14
S'0.8'
p898
sg16
S'.286'
p899
sg18
S'0.4'
p900
sg20
S'3.0'
p901
sg22
S'SF'
p902
sg24
S'.767'
p903
sg28
S'NBA'
p904
sg30
S'0.6'
p905
sg34
S'1.4'
p906
sS'_fieldGoalsttempted'
p907
S'2.8'
p908
sg35
S'0.8'
p909
sg36
S'1.8'
p910
sg38
S'25'
p911
sg40
S'UTA'
p912
sg42
S'40'
p913
sg44
S'0.2'
p914
sg46
S'0.6'
p915
sg47
S'0.6'
p916
sg49
S'1.4'
p917
sg51
S'1.5'
p918
sg52
S'2015-16'
p919
sg54
S'1.0'
p920
sg56
S'0.6'
p921
sg58
S'.455'
p922
sg60
S'11.5'
p923
sg62
g48
sbsS'_weight'
p924
S'206'
p925
sS'_dob'
p926
S'29-4-1990'
p927
sS'_salary'
p928
(lp929
(isrc.gp1.models.Salary
Salary
p930
(dp931
g40
S'Memphis Grizzlies'
p932
sg28
S'NBA'
p933
sg928
S'$61,290'
p934
sg52
S'2012-13'
p935
sba(isrc.gp1.models.Salary
Salary
p936
(dp937
g40
S'Utah Jazz'
p938
sg28
S'NBA'
p939
sg928
S'$166,897'
p940
sg52
S'2014-15'
p941
sba(isrc.gp1.models.Salary
Salary
p942
(dp943
g40
S'Milwaukee Bucks'
p944
sg28
S'NBA'
p945
sg928
S'$107,674'
p946
sg52
S'2014-15'
p947
sbasg22
S'F-G'
p948
sb.