(isrc.gp1.models.Player
Player
p0
(dp1
S'_experience'
p2
S'NA'
p3
sS'_totals'
p4
(lp5
(isrc.gp1.models.Totals
Totals
p6
(dp7
S'_offensiveRebounds'
p8
g3
sS'_threePointsAttempted'
p9
S'6'
p10
sS'_fieldGoalsPercentage'
p11
S'.353'
p12
sS'_assist'
p13
g3
sS'_threePointsPercentage'
p14
S'7'
p15
sS'_threePoints'
p16
S'.353'
p17
sS'_points'
p18
g3
sS'_position'
p19
g10
sS'_freeThrowsPercentage'
p20
g3
sS'_effectiveFieldGoalPercentage'
p21
S'18'
p22
sS'_league'
p23
S'BAA'
p24
sS'_steals'
p25
g3
sS'_fieldGoalsAttempted'
p26
S'17'
p27
sS'_personalFouls'
p28
g3
sS'_freeThrowsAttempted'
p29
g3
sS'_totalRebounds'
p30
g3
sS'_age'
p31
S'21'
p32
sS'_team'
p33
S'BOS'
p34
sS'_games'
p35
g10
sS'_blocks'
p36
g3
sS'_twoPoints'
p37
S'.857'
p38
sS'_freeThrows'
p39
g3
sS'_twoPointsAttempted'
p40
S'3'
p41
sS'_defensiveRebounds'
p42
g3
sS'_season'
p43
S'1948-49'
p44
sS'_fieldGoals'
p45
g10
sS'_turnOvers'
p46
g3
sS'_twoPointsPercentage'
p47
S'10'
p48
sS'_minutesPlayed'
p49
S'.353'
p50
sS'_gamesStarted'
p51
S'17'
p52
sbasS'_college'
p53
S'Indiana State University'
p54
sS'_toYear'
p55
S'1949'
p56
sS'_height'
p57
S'6-2'
p58
sS'_active'
p59
I00
sS'_shootingHand'
p60
VRight
p61
sS'_name'
p62
S'John Hazen'
p63
sS'_per100Possessions'
p64
(lp65
sS'_advanced'
p66
(lp67
(isrc.gp1.models.Advanced
Advanced
p68
(dp69
S'_offensiveReboundPercentage'
p70
g3
sS'_turnOverPercentage'
p71
g3
sS'_winSharesPer48Minutes'
p72
g3
sS'_stealPercentage'
p73
g3
sS'_usagePercentage'
p74
g3
sS'_totalReboundsPercentage'
p75
g3
sS'_defensiveBoxPlusMinus'
p76
g3
sg19
g10
sS'_valueOverReplacementPlayer'
p77
g3
sS'_trueShootingPercentage'
p78
S'0.1'
p79
sS'_defensiveReboundPercentage'
p80
g3
sS'_freeThrowsAttempRate'
p81
g3
sS'_threePointsAttempRate'
p82
S'0.2'
p83
sg23
S'BAA'
p84
sS'_offensiveBoxPlusMinues'
p85
g3
sS'_assistPercentage'
p86
g3
sS'_defensiveWinShares'
p87
g3
sg31
S'21'
p88
sg33
S'BOS'
p89
sg35
S'.448'
p90
sS'_blockPercentage'
p91
g3
sS'_playerEfficiencyRating'
p92
S'0.1'
p93
sS'_offensiveWinShares'
p94
g3
sg49
S'.412'
p95
sS'_boxPlusMinus'
p96
g3
sg43
S'1948-49'
p97
sS'_winShares'
p98
g3
sbasS'_per36Minutes'
p99
(lp100
(isrc.gp1.models.Per36Minutes
Per36Minutes
p101
(dp102
g8
g3
sg9
g3
sg11
g3
sg13
g3
sg14
g3
sg16
g3
sg18
g3
sg19
g10
sg20
g3
sg23
S'BAA'
p103
sg25
g3
sg26
g3
sg28
g3
sg29
g3
sg30
g3
sg31
S'21'
p104
sg33
S'BOS'
p105
sg35
S'.353'
p106
sg36
g3
sg37
g3
sg39
g3
sg40
g3
sg42
g3
sg43
S'1948-49'
p107
sg45
g3
sg46
g3
sg47
g3
sg49
S'.857'
p108
sg51
S'.353'
p109
sbasS'_fromYear'
p110
S'1949'
p111
sS'_url'
p112
S'http://www.basketball-reference.com/players/h/hazenjo01.html'
p113
sS'_perGame'
p114
(isrc.gp1.models.PerGame
PerGame
p115
(dp116
g8
g3
sg9
S'1.0'
p117
sg11
S'.353'
p118
sS'_effectiveFieldGalPercentage'
p119
S'3.0'
p120
sg13
g3
sg14
S'1.2'
p121
sg16
S'.353'
p122
sg18
g3
sg19
g10
sg20
g3
sg23
S'BAA'
p123
sg25
g3
sg28
g3
sS'_fieldGoalsttempted'
p124
S'2.8'
p125
sg29
g3
sg30
g3
sg31
S'21'
p126
sg33
S'BOS'
p127
sg35
S'1.0'
p128
sg36
g3
sg37
S'.857'
p129
sg39
g3
sg40
S'0.5'
p130
sg42
g3
sg43
S'1948-49'
p131
sg45
S'1.0'
p132
sg46
g3
sg47
S'1.7'
p133
sg49
S'.353'
p134
sg51
S'2.8'
p135
sbsS'_weight'
p136
S'172'
p137
sS'_dob'
p138
S'2-3-1927'
p139
sS'_salary'
p140
(lp141
sg19
S'G'
p142
sb.