(isrc.gp1.models.Player
Player
p0
(dp1
S'_experience'
p2
S'NA'
p3
sS'_totals'
p4
(lp5
(isrc.gp1.models.Totals
Totals
p6
(dp7
S'_offensiveRebounds'
p8
S'3'
p9
sS'_threePointsAttempted'
p10
g3
sS'_fieldGoalsPercentage'
p11
S'.325'
p12
sS'_assist'
p13
g9
sS'_threePointsPercentage'
p14
g3
sS'_threePoints'
p15
g3
sS'_points'
p16
S'44'
p17
sS'_position'
p18
S'SF'
p19
sS'_freeThrowsPercentage'
p20
S'.783'
p21
sS'_effectiveFieldGoalPercentage'
p22
S'.325'
p23
sS'_league'
p24
S'NBA'
p25
sS'_steals'
p26
S'4'
p27
sS'_fieldGoalsAttempted'
p28
S'40'
p29
sS'_personalFouls'
p30
S'32'
p31
sS'_freeThrowsAttempted'
p32
S'23'
p33
sS'_totalRebounds'
p34
S'19'
p35
sS'_age'
p36
S'23'
p37
sS'_team'
p38
S'SDC'
p39
sS'_games'
p40
S'34'
p41
sS'_blocks'
p42
S'0'
p43
sS'_twoPoints'
p44
S'13'
p45
sS'_freeThrows'
p46
S'18'
p47
sS'_twoPointsAttempted'
p48
S'40'
p49
sS'_defensiveRebounds'
p50
S'16'
p51
sS'_season'
p52
S'1978-79'
p53
sS'_fieldGoals'
p54
S'13'
p55
sS'_turnOvers'
p56
S'13'
p57
sS'_twoPointsPercentage'
p58
S'.325'
p59
sS'_minutesPlayed'
p60
S'189'
p61
sS'_gamesStarted'
p62
g3
sba(isrc.gp1.models.Totals
Totals
p63
(dp64
g8
g43
sg10
g43
sg11
S'.000'
p65
sg13
g43
sg14
g3
sg15
g43
sg16
g43
sg18
S'SF'
p66
sg20
g3
sg22
S'.000'
p67
sg24
S'NBA'
p68
sg26
g43
sg28
S'2'
p69
sg30
g69
sg32
g43
sg34
S'1'
p70
sg36
S'24'
p71
sg38
S'SDC'
p72
sg40
g70
sg42
g43
sg44
g43
sg46
g43
sg48
g69
sg50
g70
sg52
S'1979-80'
p73
sg54
g43
sg56
g69
sg58
S'.000'
p74
sg60
S'15'
p75
sg62
g3
sbasS'_college'
p76
S'Villanova University'
p77
sS'_toYear'
p78
S'1980'
p79
sS'_height'
p80
S'6-7'
p81
sS'_active'
p82
I00
sS'_shootingHand'
p83
VRight
p84
sS'_name'
p85
S'John Olive'
p86
sS'_per100Possessions'
p87
(lp88
(isrc.gp1.models.Per100Possession
Per100Possession
p89
(dp90
g8
S'0.7'
p91
sg10
g3
sg11
S'.325'
p92
sS'_offensiveRating'
p93
S'83'
p94
sg13
S'0.7'
p95
sg14
g3
sg15
g3
sg16
S'10.5'
p96
sg18
S'SF'
p97
sS'_defensiveRating'
p98
S'111'
p99
sg20
S'.783'
p100
sg24
S'NBA'
p101
sg26
S'1.0'
p102
sg28
S'9.6'
p103
sg30
S'7.6'
p104
sg32
S'5.5'
p105
sg34
S'4.5'
p106
sg36
S'23'
p107
sg38
S'SDC'
p108
sg40
S'34'
p109
sg42
S'0.0'
p110
sg44
S'3.1'
p111
sg46
S'4.3'
p112
sg48
S'9.6'
p113
sg50
S'3.8'
p114
sg52
S'1978-79'
p115
sg54
S'3.1'
p116
sg56
S'3.1'
p117
sg58
S'.325'
p118
sg60
S'189'
p119
sg62
g3
sba(isrc.gp1.models.Per100Possession
Per100Possession
p120
(dp121
g8
S'0.0'
p122
sg10
S'0.0'
p123
sg11
S'.000'
p124
sg93
g43
sg13
S'0.0'
p125
sg14
g3
sg15
S'0.0'
p126
sg16
S'0.0'
p127
sg18
S'SF'
p128
sg98
S'115'
p129
sg20
g3
sg24
S'NBA'
p130
sg26
S'0.0'
p131
sg28
S'6.3'
p132
sg30
S'6.3'
p133
sg32
S'0.0'
p134
sg34
S'3.2'
p135
sg36
S'24'
p136
sg38
S'SDC'
p137
sg40
g70
sg42
S'0.0'
p138
sg44
S'0.0'
p139
sg46
S'0.0'
p140
sg48
S'6.3'
p141
sg50
S'3.2'
p142
sg52
S'1979-80'
p143
sg54
S'0.0'
p144
sg56
S'6.3'
p145
sg58
S'.000'
p146
sg60
S'15'
p147
sg62
g3
sbasS'_advanced'
p148
(lp149
(isrc.gp1.models.Advanced
Advanced
p150
(dp151
S'_offensiveReboundPercentage'
p152
S'1.7'
p153
sS'_turnOverPercentage'
p154
S'20.6'
p155
sS'_winSharesPer48Minutes'
p156
S'-0.038'
p157
sS'_stealPercentage'
p158
S'1.0'
p159
sS'_usagePercentage'
p160
S'12.7'
p161
sS'_totalReboundsPercentage'
p162
S'5.3'
p163
sS'_defensiveBoxPlusMinus'
p164
S'-2.6'
p165
sg18
S'SF'
p166
sS'_valueOverReplacementPlayer'
p167
S'-0.3'
p168
sS'_trueShootingPercentage'
p169
S'.439'
p170
sS'_defensiveReboundPercentage'
p171
S'9.0'
p172
sS'_freeThrowsAttempRate'
p173
S'.575'
p174
sS'_threePointsAttempRate'
p175
g3
sg24
S'NBA'
p176
sS'_offensiveBoxPlusMinues'
p177
S'-6.0'
p178
sS'_assistPercentage'
p179
S'1.8'
p180
sS'_defensiveWinShares'
p181
S'0.0'
p182
sg36
S'23'
p183
sg38
S'SDC'
p184
sg40
S'34'
p185
sS'_blockPercentage'
p186
S'0.0'
p187
sS'_playerEfficiencyRating'
p188
S'2.0'
p189
sS'_offensiveWinShares'
p190
S'-0.2'
p191
sg60
S'189'
p192
sS'_boxPlusMinus'
p193
S'-8.6'
p194
sg52
S'1978-79'
p195
sS'_winShares'
p196
S'-0.2'
p197
sba(isrc.gp1.models.Advanced
Advanced
p198
(dp199
g152
S'0.0'
p200
sg154
S'50.0'
p201
sg156
S'-0.303'
p202
sg158
S'0.0'
p203
sg160
S'10.7'
p204
sg162
S'3.6'
p205
sg164
S'-2.3'
p206
sg18
S'SF'
p207
sg167
S'-0.1'
p208
sg169
S'.000'
p209
sg171
S'7.5'
p210
sg173
S'.000'
p211
sg175
S'.000'
p212
sg24
S'NBA'
p213
sg177
S'-14.9'
p214
sg179
S'0.0'
p215
sg181
S'0.0'
p216
sg36
S'24'
p217
sg38
S'SDC'
p218
sg40
g70
sg186
S'0.0'
p219
sg188
S'-11.5'
p220
sg190
S'-0.1'
p221
sg60
S'15'
p222
sg193
S'-17.3'
p223
sg52
S'1979-80'
p224
sg196
S'-0.1'
p225
sbasS'_per36Minutes'
p226
(lp227
(isrc.gp1.models.Per36Minutes
Per36Minutes
p228
(dp229
g8
S'0.6'
p230
sg10
g3
sg11
S'.325'
p231
sg13
S'0.6'
p232
sg14
g3
sg15
g3
sg16
S'8.4'
p233
sg18
S'SF'
p234
sg20
S'.783'
p235
sg24
S'NBA'
p236
sg26
S'0.8'
p237
sg28
S'7.6'
p238
sg30
S'6.1'
p239
sg32
S'4.4'
p240
sg34
S'3.6'
p241
sg36
S'23'
p242
sg38
S'SDC'
p243
sg40
S'34'
p244
sg42
S'0.0'
p245
sg44
S'2.5'
p246
sg46
S'3.4'
p247
sg48
S'7.6'
p248
sg50
S'3.0'
p249
sg52
S'1978-79'
p250
sg54
S'2.5'
p251
sg56
S'2.5'
p252
sg58
S'.325'
p253
sg60
S'189'
p254
sg62
g3
sba(isrc.gp1.models.Per36Minutes
Per36Minutes
p255
(dp256
g8
S'0.0'
p257
sg10
S'0.0'
p258
sg11
S'.000'
p259
sg13
S'0.0'
p260
sg14
g3
sg15
S'0.0'
p261
sg16
S'0.0'
p262
sg18
S'SF'
p263
sg20
g3
sg24
S'NBA'
p264
sg26
S'0.0'
p265
sg28
S'4.8'
p266
sg30
S'4.8'
p267
sg32
S'0.0'
p268
sg34
S'2.4'
p269
sg36
S'24'
p270
sg38
S'SDC'
p271
sg40
g70
sg42
S'0.0'
p272
sg44
S'0.0'
p273
sg46
S'0.0'
p274
sg48
S'4.8'
p275
sg50
S'2.4'
p276
sg52
S'1979-80'
p277
sg54
S'0.0'
p278
sg56
S'4.8'
p279
sg58
S'.000'
p280
sg60
S'15'
p281
sg62
g3
sbasS'_fromYear'
p282
S'1979'
p283
sS'_url'
p284
S'http://www.basketball-reference.com/players/o/olivejo01.html'
p285
sS'_perGame'
p286
(isrc.gp1.models.PerGame
PerGame
p287
(dp288
g8
S'0.0'
p289
sg10
S'0.0'
p290
sg11
S'.000'
p291
sS'_effectiveFieldGalPercentage'
p292
S'.000'
p293
sg13
S'0.0'
p294
sg14
g3
sg15
S'0.0'
p295
sg16
S'0.0'
p296
sg18
S'SF'
p297
sg20
g3
sg24
S'NBA'
p298
sg26
S'0.0'
p299
sg30
S'2.0'
p300
sS'_fieldGoalsttempted'
p301
S'2.0'
p302
sg32
S'0.0'
p303
sg34
S'1.0'
p304
sg36
S'24'
p305
sg38
S'SDC'
p306
sg40
g70
sg42
S'0.0'
p307
sg44
S'0.0'
p308
sg46
S'0.0'
p309
sg48
S'2.0'
p310
sg50
S'1.0'
p311
sg52
S'1979-80'
p312
sg54
S'0.0'
p313
sg56
S'2.0'
p314
sg58
S'.000'
p315
sg60
S'15.0'
p316
sg62
g3
sbsS'_weight'
p317
S'210'
p318
sS'_dob'
p319
S'1-3-1955'
p320
sS'_salary'
p321
(lp322
sg18
S'F'
p323
sb.