(isrc.gp1.models.Player
Player
p0
(dp1
S'_experience'
p2
S'NA'
p3
sS'_totals'
p4
(lp5
(isrc.gp1.models.Totals
Totals
p6
(dp7
S'_offensiveRebounds'
p8
g3
sS'_threePointsAttempted'
p9
g3
sS'_fieldGoalsPercentage'
p10
S'.497'
p11
sS'_assist'
p12
S'200'
p13
sS'_threePointsPercentage'
p14
g3
sS'_threePoints'
p15
g3
sS'_points'
p16
S'772'
p17
sS'_position'
p18
S'SF'
p19
sS'_freeThrowsPercentage'
p20
S'.757'
p21
sS'_effectiveFieldGoalPercentage'
p22
S'.497'
p23
sS'_league'
p24
S'NBA'
p25
sS'_steals'
p26
g3
sS'_fieldGoalsAttempted'
p27
S'620'
p28
sS'_personalFouls'
p29
S'166'
p30
sS'_freeThrowsAttempted'
p31
S'206'
p32
sS'_totalRebounds'
p33
S'417'
p34
sS'_age'
p35
S'23'
p36
sS'_team'
p37
S'POR'
p38
sS'_games'
p39
S'78'
p40
sS'_blocks'
p41
g3
sS'_twoPoints'
p42
S'308'
p43
sS'_freeThrows'
p44
S'156'
p45
sS'_twoPointsAttempted'
p46
S'620'
p47
sS'_defensiveRebounds'
p48
g3
sS'_season'
p49
S'1972-73'
p50
sS'_fieldGoals'
p51
S'308'
p52
sS'_turnOvers'
p53
g3
sS'_twoPointsPercentage'
p54
S'.497'
p55
sS'_minutesPlayed'
p56
S'2138'
p57
sS'_gamesStarted'
p58
g3
sba(isrc.gp1.models.Totals
Totals
p59
(dp60
g8
S'116'
p61
sg9
g3
sg10
S'.482'
p62
sg12
S'167'
p63
sg14
g3
sg15
g3
sg16
S'495'
p64
sg18
S'SF'
p65
sg20
S'.819'
p66
sg22
S'.482'
p67
sg24
S'NBA'
p68
sg26
S'60'
p69
sg27
S'434'
p70
sg29
S'179'
p71
sg31
S'94'
p72
sg33
S'324'
p73
sg35
S'24'
p74
sg37
S'POR'
p75
sg39
S'79'
p76
sg41
S'30'
p77
sg42
S'209'
p78
sg44
S'77'
p79
sg46
S'434'
p80
sg48
S'208'
p81
sg49
S'1973-74'
p82
sg51
S'209'
p83
sg53
g3
sg54
S'.482'
p84
sg56
S'1718'
p85
sg58
g3
sba(isrc.gp1.models.Totals
Totals
p86
(dp87
g8
S'87'
p88
sg9
g3
sg10
S'.473'
p89
sg12
S'110'
p90
sg14
g3
sg15
g3
sg16
S'501'
p91
sg18
S'SF'
p92
sg20
S'.833'
p93
sg22
S'.473'
p94
sg24
S'NBA'
p95
sg26
S'59'
p96
sg27
S'429'
p97
sg29
S'172'
p98
sg31
S'114'
p99
sg33
S'243'
p100
sg35
S'25'
p101
sg37
S'TOT'
p102
sg39
S'73'
p103
sg41
S'33'
p104
sg42
S'203'
p105
sg44
S'95'
p106
sg46
S'429'
p107
sg48
S'156'
p108
sg49
S'1974-75'
p109
sg51
S'203'
p110
sg53
g3
sg54
S'.473'
p111
sg56
S'1667'
p112
sg58
g3
sba(isrc.gp1.models.Totals
Totals
p113
(dp114
g8
S'60'
p115
sg9
g3
sg10
S'.465'
p116
sg12
S'80'
p117
sg14
g3
sg15
g3
sg16
S'340'
p118
sg18
S'SF'
p119
sg20
S'.805'
p120
sg22
S'.465'
p121
sg24
S'NBA'
p122
sg26
S'42'
p123
sg27
S'299'
p124
sg29
S'103'
p125
sg31
S'77'
p126
sg33
S'177'
p127
sg35
S'25'
p128
sg37
S'NOJ'
p129
sg39
S'43'
p130
sg41
S'20'
p131
sg42
S'139'
p132
sg44
S'62'
p133
sg46
S'299'
p134
sg48
S'117'
p135
sg49
S'1974-75'
p136
sg51
S'139'
p137
sg53
g3
sg54
S'.465'
p138
sg56
S'1159'
p139
sg58
g3
sba(isrc.gp1.models.Totals
Totals
p140
(dp141
g8
S'27'
p142
sg9
g3
sg10
S'.492'
p143
sg12
S'30'
p144
sg14
g3
sg15
g3
sg16
S'161'
p145
sg18
S'SF'
p146
sg20
S'.892'
p147
sg22
S'.492'
p148
sg24
S'NBA'
p149
sg26
S'17'
p150
sg27
S'130'
p151
sg29
S'69'
p152
sg31
S'37'
p153
sg33
S'66'
p154
sg35
S'25'
p155
sg37
S'KCO'
p156
sg39
S'30'
p157
sg41
S'13'
p158
sg42
S'64'
p159
sg44
S'33'
p160
sg46
S'130'
p161
sg48
S'39'
p162
sg49
S'1974-75'
p163
sg51
S'64'
p164
sg53
g3
sg54
S'.492'
p165
sg56
S'508'
p166
sg58
g3
sba(isrc.gp1.models.Totals
Totals
p167
(dp168
g8
S'116'
p169
sg9
g3
sg10
S'.513'
p170
sg12
S'146'
p171
sg14
g3
sg15
g3
sg16
S'821'
p172
sg18
S'SF'
p173
sg20
S'.839'
p174
sg22
S'.513'
p175
sg24
S'NBA'
p176
sg26
S'67'
p177
sg27
S'678'
p178
sg29
S'217'
p179
sg31
S'149'
p180
sg33
S'357'
p181
sg35
S'26'
p182
sg37
S'KCK'
p183
sg39
S'81'
p184
sg41
S'42'
p185
sg42
S'348'
p186
sg44
S'125'
p187
sg46
S'678'
p188
sg48
S'241'
p189
sg49
S'1975-76'
p190
sg51
S'348'
p191
sg53
g3
sg54
S'.513'
p192
sg56
S'2150'
p193
sg58
g3
sba(isrc.gp1.models.Totals
Totals
p194
(dp195
g8
S'68'
p196
sg9
g3
sg10
S'.489'
p197
sg12
S'105'
p198
sg14
g3
sg15
g3
sg16
S'537'
p199
sg18
S'SF'
p200
sg20
S'.878'
p201
sg22
S'.489'
p202
sg24
S'NBA'
p203
sg26
S'43'
p204
sg27
S'446'
p205
sg29
S'169'
p206
sg31
S'115'
p207
sg33
S'212'
p208
sg35
S'27'
p209
sg37
S'KCK'
p210
sg39
S'81'
p211
sg41
S'21'
p212
sg42
S'218'
p213
sg44
S'101'
p214
sg46
S'446'
p215
sg48
S'144'
p216
sg49
S'1976-77'
p217
sg51
S'218'
p218
sg53
g3
sg54
S'.489'
p219
sg56
S'1386'
p220
sg58
g3
sba(isrc.gp1.models.Totals
Totals
p221
(dp222
g8
S'89'
p223
sg9
g3
sg10
S'.472'
p224
sg12
S'120'
p225
sg14
g3
sg15
g3
sg16
S'695'
p226
sg18
S'SF'
p227
sg20
S'.854'
p228
sg22
S'.472'
p229
sg24
S'NBA'
p230
sg26
S'80'
p231
sg27
S'619'
p232
sg29
S'180'
p233
sg31
S'130'
p234
sg33
S'260'
p235
sg35
S'28'
p236
sg37
S'ATL'
p237
sg39
S'82'
p238
sg41
S'36'
p239
sg42
S'292'
p240
sg44
S'111'
p241
sg46
S'619'
p242
sg48
S'171'
p243
sg49
S'1977-78'
p244
sg51
S'292'
p245
sg53
S'107'
p246
sg54
S'.472'
p247
sg56
S'1704'
p248
sg58
g3
sba(isrc.gp1.models.Totals
Totals
p249
(dp250
g8
S'58'
p251
sg9
g3
sg10
S'.520'
p252
sg12
S'163'
p253
sg14
g3
sg15
g3
sg16
S'650'
p254
sg18
S'SF'
p255
sg20
S'.800'
p256
sg22
S'.520'
p257
sg24
S'NBA'
p258
sg26
S'54'
p259
sg27
S'540'
p260
sg29
S'182'
p261
sg31
S'110'
p262
sg33
S'227'
p263
sg35
S'29'
p264
sg37
S'CHI'
p265
sg39
S'71'
p266
sg41
S'33'
p267
sg42
S'281'
p268
sg44
S'88'
p269
sg46
S'540'
p270
sg48
S'169'
p271
sg49
S'1978-79'
p272
sg51
S'281'
p273
sg53
S'114'
p274
sg54
S'.520'
p275
sg56
S'1734'
p276
sg58
g3
sba(isrc.gp1.models.Totals
Totals
p277
(dp278
g8
S'50'
p279
sg9
S'11'
p280
sg10
S'.497'
p281
sg12
S'161'
p282
sg14
S'.091'
p283
sg15
S'1'
p284
sg16
S'607'
p285
sg18
S'SF'
p286
sg20
S'.882'
p287
sg22
S'.498'
p288
sg24
S'NBA'
p289
sg26
S'59'
p290
sg27
S'527'
p291
sg29
S'165'
p292
sg31
S'93'
p293
sg33
S'163'
p294
sg35
S'30'
p295
sg37
S'CHI'
p296
sg39
S'79'
p297
sg41
S'24'
p298
sg42
S'261'
p299
sg44
S'82'
p300
sg46
S'516'
p301
sg48
S'113'
p302
sg49
S'1979-80'
p303
sg51
S'262'
p304
sg53
S'96'
p305
sg54
S'.506'
p306
sg56
S'1535'
p307
sg58
g3
sba(isrc.gp1.models.Totals
Totals
p308
(dp309
g8
S'8'
p310
sg9
S'6'
p311
sg10
S'.551'
p312
sg12
S'30'
p313
sg14
S'.167'
p314
sg15
g284
sg16
S'202'
p315
sg18
S'SF'
p316
sg20
S'.871'
p317
sg22
S'.554'
p318
sg24
S'NBA'
p319
sg26
S'20'
p320
sg27
S'158'
p321
sg29
S'45'
p322
sg31
S'31'
p323
sg33
S'55'
p324
sg35
S'31'
p325
sg37
S'PHI'
p326
sg39
S'40'
p327
sg41
S'2'
p328
sg42
S'86'
p329
sg44
S'27'
p330
sg46
S'152'
p331
sg48
S'47'
p332
sg49
S'1980-81'
p333
sg51
S'87'
p334
sg53
S'25'
p335
sg54
S'.566'
p336
sg56
S'372'
p337
sg58
g3
sba(isrc.gp1.models.Totals
Totals
p338
(dp339
g8
S'7'
p340
sg9
S'3'
p341
sg10
S'.500'
p342
sg12
S'10'
p343
sg14
S'.333'
p344
sg15
g284
sg16
S'61'
p345
sg18
S'SF'
p346
sg20
S'.857'
p347
sg22
S'.509'
p348
sg24
S'NBA'
p349
sg26
S'13'
p350
sg27
S'54'
p351
sg29
S'28'
p352
sg31
g340
sg33
S'22'
p353
sg35
S'32'
p354
sg37
S'PHI'
p355
sg39
S'26'
p356
sg41
g341
sg42
S'26'
p357
sg44
g311
sg46
S'51'
p358
sg48
S'15'
p359
sg49
S'1981-82'
p360
sg51
S'27'
p361
sg53
S'13'
p362
sg54
S'.510'
p363
sg56
S'150'
p364
sg58
S'0'
p365
sbasS'_college'
p366
S'Temple University'
p367
sS'_toYear'
p368
S'1982'
p369
sS'_height'
p370
S'6-6'
p371
sS'_active'
p372
I00
sS'_shootingHand'
p373
VRight
p374
sS'_name'
p375
S'Ollie Johnson'
p376
sS'_per100Possessions'
p377
(lp378
(isrc.gp1.models.Per100Possession
Per100Possession
p379
(dp380
g8
S'3.0'
p381
sg9
g3
sg10
S'.482'
p382
sS'_offensiveRating'
p383
g3
sg12
S'4.3'
p384
sg14
g3
sg15
g3
sg16
S'12.7'
p385
sg18
S'SF'
p386
sS'_defensiveRating'
p387
S'103'
p388
sg20
S'.819'
p389
sg24
S'NBA'
p390
sg26
S'1.5'
p391
sg27
S'11.2'
p392
sg29
S'4.6'
p393
sg31
S'2.4'
p394
sg33
S'8.3'
p395
sg35
S'24'
p396
sg37
S'POR'
p397
sg39
S'79'
p398
sg41
S'0.8'
p399
sg42
S'5.4'
p400
sg44
S'2.0'
p401
sg46
S'11.2'
p402
sg48
S'5.4'
p403
sg49
S'1973-74'
p404
sg51
S'5.4'
p405
sg53
g3
sg54
S'.482'
p406
sg56
S'1718'
p407
sg58
g3
sba(isrc.gp1.models.Per100Possession
Per100Possession
p408
(dp409
g8
S'2.3'
p410
sg9
g3
sg10
S'.473'
p411
sg383
g3
sg12
S'2.9'
p412
sg14
g3
sg15
g3
sg16
S'13.4'
p413
sg18
S'SF'
p414
sg387
S'100'
p415
sg20
S'.833'
p416
sg24
S'NBA'
p417
sg26
S'1.6'
p418
sg27
S'11.5'
p419
sg29
S'4.6'
p420
sg31
S'3.0'
p421
sg33
S'6.5'
p422
sg35
S'25'
p423
sg37
S'TOT'
p424
sg39
S'73'
p425
sg41
S'0.9'
p426
sg42
S'5.4'
p427
sg44
S'2.5'
p428
sg46
S'11.5'
p429
sg48
S'4.2'
p430
sg49
S'1974-75'
p431
sg51
S'5.4'
p432
sg53
g3
sg54
S'.473'
p433
sg56
S'1667'
p434
sg58
g3
sba(isrc.gp1.models.Per100Possession
Per100Possession
p435
(dp436
g8
S'2.3'
p437
sg9
g3
sg10
S'.465'
p438
sg383
g3
sg12
S'3.0'
p439
sg14
g3
sg15
g3
sg16
S'12.9'
p440
sg18
S'SF'
p441
sg387
S'100'
p442
sg20
S'.805'
p443
sg24
S'NBA'
p444
sg26
S'1.6'
p445
sg27
S'11.3'
p446
sg29
S'3.9'
p447
sg31
S'2.9'
p448
sg33
S'6.7'
p449
sg35
S'25'
p450
sg37
S'NOJ'
p451
sg39
S'43'
p452
sg41
S'0.8'
p453
sg42
S'5.3'
p454
sg44
S'2.3'
p455
sg46
S'11.3'
p456
sg48
S'4.4'
p457
sg49
S'1974-75'
p458
sg51
S'5.3'
p459
sg53
g3
sg54
S'.465'
p460
sg56
S'1159'
p461
sg58
g3
sba(isrc.gp1.models.Per100Possession
Per100Possession
p462
(dp463
g8
S'2.4'
p464
sg9
g3
sg10
S'.492'
p465
sg383
g3
sg12
S'2.7'
p466
sg14
g3
sg15
g3
sg16
S'14.6'
p467
sg18
S'SF'
p468
sg387
S'99'
p469
sg20
S'.892'
p470
sg24
S'NBA'
p471
sg26
S'1.5'
p472
sg27
S'11.8'
p473
sg29
S'6.2'
p474
sg31
S'3.3'
p475
sg33
S'6.0'
p476
sg35
S'25'
p477
sg37
S'KCO'
p478
sg39
S'30'
p479
sg41
S'1.2'
p480
sg42
S'5.8'
p481
sg44
S'3.0'
p482
sg46
S'11.8'
p483
sg48
S'3.5'
p484
sg49
S'1974-75'
p485
sg51
S'5.8'
p486
sg53
g3
sg54
S'.492'
p487
sg56
S'508'
p488
sg58
g3
sba(isrc.gp1.models.Per100Possession
Per100Possession
p489
(dp490
g8
S'2.5'
p491
sg9
g3
sg10
S'.513'
p492
sg383
g3
sg12
S'3.1'
p493
sg14
g3
sg15
g3
sg16
S'17.3'
p494
sg18
S'SF'
p495
sg387
S'101'
p496
sg20
S'.839'
p497
sg24
S'NBA'
p498
sg26
S'1.4'
p499
sg27
S'14.3'
p500
sg29
S'4.6'
p501
sg31
S'3.1'
p502
sg33
S'7.5'
p503
sg35
S'26'
p504
sg37
S'KCK'
p505
sg39
S'81'
p506
sg41
S'0.9'
p507
sg42
S'7.4'
p508
sg44
S'2.6'
p509
sg46
S'14.3'
p510
sg48
S'5.1'
p511
sg49
S'1975-76'
p512
sg51
S'7.4'
p513
sg53
g3
sg54
S'.513'
p514
sg56
S'2150'
p515
sg58
g3
sba(isrc.gp1.models.Per100Possession
Per100Possession
p516
(dp517
g8
S'2.2'
p518
sg9
g3
sg10
S'.489'
p519
sg383
g3
sg12
S'3.4'
p520
sg14
g3
sg15
g3
sg16
S'17.5'
p521
sg18
S'SF'
p522
sg387
S'102'
p523
sg20
S'.878'
p524
sg24
S'NBA'
p525
sg26
S'1.4'
p526
sg27
S'14.5'
p527
sg29
S'5.5'
p528
sg31
S'3.7'
p529
sg33
S'6.9'
p530
sg35
S'27'
p531
sg37
S'KCK'
p532
sg39
S'81'
p533
sg41
S'0.7'
p534
sg42
S'7.1'
p535
sg44
S'3.3'
p536
sg46
S'14.5'
p537
sg48
S'4.7'
p538
sg49
S'1976-77'
p539
sg51
S'7.1'
p540
sg53
g3
sg54
S'.489'
p541
sg56
S'1386'
p542
sg58
g3
sba(isrc.gp1.models.Per100Possession
Per100Possession
p543
(dp544
g8
S'2.4'
p545
sg9
g3
sg10
S'.472'
p546
sg383
S'101'
p547
sg12
S'3.3'
p548
sg14
g3
sg15
g3
sg16
S'19.0'
p549
sg18
S'SF'
p550
sg387
S'100'
p551
sg20
S'.854'
p552
sg24
S'NBA'
p553
sg26
S'2.2'
p554
sg27
S'16.9'
p555
sg29
S'4.9'
p556
sg31
S'3.5'
p557
sg33
S'7.1'
p558
sg35
S'28'
p559
sg37
S'ATL'
p560
sg39
S'82'
p561
sg41
S'1.0'
p562
sg42
S'8.0'
p563
sg44
S'3.0'
p564
sg46
S'16.9'
p565
sg48
S'4.7'
p566
sg49
S'1977-78'
p567
sg51
S'8.0'
p568
sg53
S'2.9'
p569
sg54
S'.472'
p570
sg56
S'1704'
p571
sg58
g3
sba(isrc.gp1.models.Per100Possession
Per100Possession
p572
(dp573
g8
S'1.6'
p574
sg9
g3
sg10
S'.520'
p575
sg383
S'105'
p576
sg12
S'4.4'
p577
sg14
g3
sg15
g3
sg16
S'17.5'
p578
sg18
S'SF'
p579
sg387
S'106'
p580
sg20
S'.800'
p581
sg24
S'NBA'
p582
sg26
S'1.5'
p583
sg27
S'14.5'
p584
sg29
S'4.9'
p585
sg31
S'3.0'
p586
sg33
S'6.1'
p587
sg35
S'29'
p588
sg37
S'CHI'
p589
sg39
S'71'
p590
sg41
S'0.9'
p591
sg42
S'7.6'
p592
sg44
S'2.4'
p593
sg46
S'14.5'
p594
sg48
S'4.5'
p595
sg49
S'1978-79'
p596
sg51
S'7.6'
p597
sg53
S'3.1'
p598
sg54
S'.520'
p599
sg56
S'1734'
p600
sg58
g3
sba(isrc.gp1.models.Per100Possession
Per100Possession
p601
(dp602
g8
S'1.5'
p603
sg9
S'0.3'
p604
sg10
S'.497'
p605
sg383
S'105'
p606
sg12
S'4.9'
p607
sg14
S'.091'
p608
sg15
S'0.0'
p609
sg16
S'18.6'
p610
sg18
S'SF'
p611
sg387
S'108'
p612
sg20
S'.882'
p613
sg24
S'NBA'
p614
sg26
S'1.8'
p615
sg27
S'16.2'
p616
sg29
S'5.1'
p617
sg31
S'2.9'
p618
sg33
S'5.0'
p619
sg35
S'30'
p620
sg37
S'CHI'
p621
sg39
S'79'
p622
sg41
S'0.7'
p623
sg42
S'8.0'
p624
sg44
S'2.5'
p625
sg46
S'15.8'
p626
sg48
S'3.5'
p627
sg49
S'1979-80'
p628
sg51
S'8.0'
p629
sg53
S'2.9'
p630
sg54
S'.506'
p631
sg56
S'1535'
p632
sg58
g3
sba(isrc.gp1.models.Per100Possession
Per100Possession
p633
(dp634
g8
S'1.0'
p635
sg9
S'0.7'
p636
sg10
S'.551'
p637
sg383
S'110'
p638
sg12
S'3.7'
p639
sg14
S'.167'
p640
sg15
S'0.1'
p641
sg16
S'25.2'
p642
sg18
S'SF'
p643
sg387
S'100'
p644
sg20
S'.871'
p645
sg24
S'NBA'
p646
sg26
S'2.5'
p647
sg27
S'19.7'
p648
sg29
S'5.6'
p649
sg31
S'3.9'
p650
sg33
S'6.9'
p651
sg35
S'31'
p652
sg37
S'PHI'
p653
sg39
S'40'
p654
sg41
S'0.2'
p655
sg42
S'10.7'
p656
sg44
S'3.4'
p657
sg46
S'19.0'
p658
sg48
S'5.9'
p659
sg49
S'1980-81'
p660
sg51
S'10.9'
p661
sg53
S'3.1'
p662
sg54
S'.566'
p663
sg56
S'372'
p664
sg58
g3
sba(isrc.gp1.models.Per100Possession
Per100Possession
p665
(dp666
g8
S'2.2'
p667
sg9
S'1.0'
p668
sg10
S'.500'
p669
sg383
S'96'
p670
sg12
S'3.2'
p671
sg14
S'.333'
p672
sg15
S'0.3'
p673
sg16
S'19.4'
p674
sg18
S'SF'
p675
sg387
S'101'
p676
sg20
S'.857'
p677
sg24
S'NBA'
p678
sg26
S'4.1'
p679
sg27
S'17.2'
p680
sg29
S'8.9'
p681
sg31
S'2.2'
p682
sg33
S'7.0'
p683
sg35
S'32'
p684
sg37
S'PHI'
p685
sg39
S'26'
p686
sg41
S'1.0'
p687
sg42
S'8.3'
p688
sg44
S'1.9'
p689
sg46
S'16.2'
p690
sg48
S'4.8'
p691
sg49
S'1981-82'
p692
sg51
S'8.6'
p693
sg53
S'4.1'
p694
sg54
S'.510'
p695
sg56
S'150'
p696
sg58
g365
sbasS'_advanced'
p697
(lp698
(isrc.gp1.models.Advanced
Advanced
p699
(dp700
S'_offensiveReboundPercentage'
p701
g3
sS'_turnOverPercentage'
p702
g3
sS'_winSharesPer48Minutes'
p703
S'.093'
p704
sS'_stealPercentage'
p705
g3
sS'_usagePercentage'
p706
g3
sS'_totalReboundsPercentage'
p707
S'9.4'
p708
sS'_defensiveBoxPlusMinus'
p709
g3
sg18
S'SF'
p710
sS'_valueOverReplacementPlayer'
p711
g3
sS'_trueShootingPercentage'
p712
S'.543'
p713
sS'_defensiveReboundPercentage'
p714
g3
sS'_freeThrowsAttempRate'
p715
S'.332'
p716
sS'_threePointsAttempRate'
p717
g3
sg24
S'NBA'
p718
sS'_offensiveBoxPlusMinues'
p719
g3
sS'_assistPercentage'
p720
S'12.2'
p721
sS'_defensiveWinShares'
p722
S'0.7'
p723
sg35
S'23'
p724
sg37
S'POR'
p725
sg39
S'78'
p726
sS'_blockPercentage'
p727
g3
sS'_playerEfficiencyRating'
p728
S'13.5'
p729
sS'_offensiveWinShares'
p730
S'3.5'
p731
sg56
S'2138'
p732
sS'_boxPlusMinus'
p733
g3
sg49
S'1972-73'
p734
sS'_winShares'
p735
S'4.1'
p736
sba(isrc.gp1.models.Advanced
Advanced
p737
(dp738
g701
S'6.8'
p739
sg702
g3
sg703
S'.057'
p740
sg705
S'1.5'
p741
sg706
g3
sg707
S'9.6'
p742
sg709
S'-0.3'
p743
sg18
S'SF'
p744
sg711
S'0.1'
p745
sg712
S'.521'
p746
sg714
S'12.6'
p747
sg715
S'.217'
p748
sg717
g3
sg24
S'NBA'
p749
sg719
S'-1.5'
p750
sg720
S'12.4'
p751
sg722
S'0.5'
p752
sg35
S'24'
p753
sg37
S'POR'
p754
sg39
S'79'
p755
sg727
S'0.9'
p756
sg728
S'11.8'
p757
sg730
S'1.6'
p758
sg56
S'1718'
p759
sg733
S'-1.8'
p760
sg49
S'1973-74'
p761
sg735
S'2.0'
p762
sba(isrc.gp1.models.Advanced
Advanced
p763
(dp764
g701
S'5.2'
p765
sg702
g3
sg703
S'.075'
p766
sg705
S'1.6'
p767
sg706
g3
sg707
S'7.4'
p768
sg709
S'0.5'
p769
sg18
S'SF'
p770
sg711
S'0.1'
p771
sg712
S'.523'
p772
sg714
S'9.7'
p773
sg715
S'.266'
p774
sg717
g3
sg24
S'NBA'
p775
sg719
S'-2.4'
p776
sg720
S'9.3'
p777
sg722
S'1.2'
p778
sg35
S'25'
p779
sg37
S'TOT'
p780
sg39
S'73'
p781
sg727
S'1.1'
p782
sg728
S'10.9'
p783
sg730
S'1.4'
p784
sg56
S'1667'
p785
sg733
S'-1.8'
p786
sg49
S'1974-75'
p787
sg735
S'2.6'
p788
sba(isrc.gp1.models.Advanced
Advanced
p789
(dp790
g701
S'5.0'
p791
sg702
g3
sg703
S'.065'
p792
sg705
S'1.6'
p793
sg706
g3
sg707
S'7.7'
p794
sg709
S'0.8'
p795
sg18
S'SF'
p796
sg711
S'0.1'
p797
sg712
S'.511'
p798
sg714
S'10.5'
p799
sg715
S'.258'
p800
sg717
g3
sg24
S'NBA'
p801
sg719
S'-2.6'
p802
sg720
S'9.6'
p803
sg722
S'0.8'
p804
sg35
S'25'
p805
sg37
S'NOJ'
p806
sg39
S'43'
p807
sg727
S'0.9'
p808
sg728
S'10.8'
p809
sg730
S'0.8'
p810
sg56
S'1159'
p811
sg733
S'-1.8'
p812
sg49
S'1974-75'
p813
sg735
S'1.6'
p814
sba(isrc.gp1.models.Advanced
Advanced
p815
(dp816
g701
S'5.5'
p817
sg702
g3
sg703
S'.098'
p818
sg705
S'1.5'
p819
sg706
g3
sg707
S'6.7'
p820
sg709
S'-0.1'
p821
sg18
S'SF'
p822
sg711
S'0.0'
p823
sg712
S'.550'
p824
sg714
S'8.0'
p825
sg715
S'.285'
p826
sg717
g3
sg24
S'NBA'
p827
sg719
S'-1.9'
p828
sg720
S'8.4'
p829
sg722
S'0.4'
p830
sg35
S'25'
p831
sg37
S'KCO'
p832
sg39
S'30'
p833
sg727
S'1.4'
p834
sg728
S'11.3'
p835
sg730
S'0.6'
p836
sg56
S'508'
p837
sg733
S'-1.9'
p838
sg49
S'1974-75'
p839
sg735
S'1.0'
p840
sba(isrc.gp1.models.Advanced
Advanced
p841
(dp842
g701
S'5.5'
p843
sg702
g3
sg703
S'.107'
p844
sg705
S'1.4'
p845
sg706
g3
sg707
S'8.5'
p846
sg709
S'-0.1'
p847
sg18
S'SF'
p848
sg711
S'0.7'
p849
sg712
S'.552'
p850
sg714
S'11.6'
p851
sg715
S'.220'
p852
sg717
g3
sg24
S'NBA'
p853
sg719
S'-0.5'
p854
sg720
S'9.9'
p855
sg722
S'1.4'
p856
sg35
S'26'
p857
sg37
S'KCK'
p858
sg39
S'81'
p859
sg727
S'1.0'
p860
sg728
S'13.5'
p861
sg730
S'3.4'
p862
sg56
S'2150'
p863
sg733
S'-0.7'
p864
sg49
S'1975-76'
p865
sg735
S'4.8'
p866
sba(isrc.gp1.models.Advanced
Advanced
p867
(dp868
g701
S'4.9'
p869
sg702
g3
sg703
S'.102'
p870
sg705
S'1.4'
p871
sg706
g3
sg707
S'7.9'
p872
sg709
S'-0.7'
p873
sg18
S'SF'
p874
sg711
S'0.1'
p875
sg712
S'.541'
p876
sg714
S'11.2'
p877
sg715
S'.258'
p878
sg717
g3
sg24
S'NBA'
p879
sg719
S'-1.1'
p880
sg720
S'10.2'
p881
sg722
S'1.1'
p882
sg35
S'27'
p883
sg37
S'KCK'
p884
sg39
S'81'
p885
sg727
S'0.8'
p886
sg728
S'12.6'
p887
sg730
S'1.9'
p888
sg56
S'1386'
p889
sg733
S'-1.8'
p890
sg49
S'1976-77'
p891
sg735
S'2.9'
p892
sba(isrc.gp1.models.Advanced
Advanced
p893
(dp894
g701
S'5.5'
p895
sg702
S'13.7'
p896
sg703
S'.102'
p897
sg705
S'2.2'
p898
sg706
S'18.5'
p899
sg707
S'8.3'
p900
sg709
S'0.5'
p901
sg18
S'SF'
p902
sg711
S'0.8'
p903
sg712
S'.514'
p904
sg714
S'11.3'
p905
sg715
S'.210'
p906
sg717
g3
sg24
S'NBA'
p907
sg719
S'-0.5'
p908
sg720
S'10.5'
p909
sg722
S'1.9'
p910
sg35
S'28'
p911
sg37
S'ATL'
p912
sg39
S'82'
p913
sg727
S'1.3'
p914
sg728
S'13.9'
p915
sg730
S'1.7'
p916
sg56
S'1704'
p917
sg733
S'0.0'
p918
sg49
S'1977-78'
p919
sg735
S'3.6'
p920
sba(isrc.gp1.models.Advanced
Advanced
p921
(dp922
g701
S'3.7'
p923
sg702
S'16.2'
p924
sg703
S'.085'
p925
sg705
S'1.5'
p926
sg706
S'16.2'
p927
sg707
S'7.2'
p928
sg709
S'0.1'
p929
sg18
S'SF'
p930
sg711
S'0.5'
p931
sg712
S'.552'
p932
sg714
S'10.6'
p933
sg715
S'.204'
p934
sg717
g3
sg24
S'NBA'
p935
sg719
S'-0.9'
p936
sg720
S'13.1'
p937
sg722
S'1.4'
p938
sg35
S'29'
p939
sg37
S'CHI'
p940
sg39
S'71'
p941
sg727
S'1.0'
p942
sg728
S'12.3'
p943
sg730
S'1.6'
p944
sg56
S'1734'
p945
sg733
S'-0.9'
p946
sg49
S'1978-79'
p947
sg735
S'3.1'
p948
sba(isrc.gp1.models.Advanced
Advanced
p949
(dp950
g701
S'3.7'
p951
sg702
S'14.5'
p952
sg703
S'.073'
p953
sg705
S'1.8'
p954
sg706
S'17.6'
p955
sg707
S'6.0'
p956
sg709
S'-0.9'
p957
sg18
S'SF'
p958
sg711
S'0.0'
p959
sg712
S'.534'
p960
sg714
S'8.1'
p961
sg715
S'.176'
p962
sg717
S'.021'
p963
sg24
S'NBA'
p964
sg719
S'-1.0'
p965
sg720
S'15.6'
p966
sg722
S'1.0'
p967
sg35
S'30'
p968
sg37
S'CHI'
p969
sg39
S'79'
p970
sg727
S'0.9'
p971
sg728
S'12.3'
p972
sg730
S'1.3'
p973
sg56
S'1535'
p974
sg733
S'-1.9'
p975
sg49
S'1979-80'
p976
sg735
S'2.3'
p977
sba(isrc.gp1.models.Advanced
Advanced
p978
(dp979
g701
S'2.5'
p980
sg702
S'12.7'
p981
sg703
S'.161'
p982
sg705
S'2.5'
p983
sg706
S'21.3'
p984
sg707
S'8.1'
p985
sg709
S'-0.2'
p986
sg18
S'SF'
p987
sg711
S'0.2'
p988
sg712
S'.588'
p989
sg714
S'12.9'
p990
sg715
S'.196'
p991
sg717
S'.038'
p992
sg24
S'NBA'
p993
sg719
S'-0.1'
p994
sg720
S'11.8'
p995
sg722
S'0.7'
p996
sg35
S'31'
p997
sg37
S'PHI'
p998
sg39
S'40'
p999
sg727
S'0.3'
p1000
sg728
S'16.7'
p1001
sg730
S'0.6'
p1002
sg56
S'372'
p1003
sg733
S'-0.3'
p1004
sg49
S'1980-81'
p1005
sg735
S'1.3'
p1006
sba(isrc.gp1.models.Advanced
Advanced
p1007
(dp1008
g701
S'5.5'
p1009
sg702
S'18.6'
p1010
sg703
S'.076'
p1011
sg705
S'4.1'
p1012
sg706
S'19.5'
p1013
sg707
S'8.3'
p1014
sg709
S'1.4'
p1015
sg18
S'SF'
p1016
sg711
S'0.0'
p1017
sg712
S'.534'
p1018
sg714
S'10.8'
p1019
sg715
S'.130'
p1020
sg717
S'.056'
p1021
sg24
S'NBA'
p1022
sg719
S'-2.1'
p1023
sg720
S'9.1'
p1024
sg722
S'0.3'
p1025
sg35
S'32'
p1026
sg37
S'PHI'
p1027
sg39
S'26'
p1028
sg727
S'1.2'
p1029
sg728
S'12.4'
p1030
sg730
S'0.0'
p1031
sg56
S'150'
p1032
sg733
S'-0.8'
p1033
sg49
S'1981-82'
p1034
sg735
S'0.2'
p1035
sbasS'_per36Minutes'
p1036
(lp1037
(isrc.gp1.models.Per36Minutes
Per36Minutes
p1038
(dp1039
g8
g3
sg9
g3
sg10
S'.497'
p1040
sg12
S'3.4'
p1041
sg14
g3
sg15
g3
sg16
S'13.0'
p1042
sg18
S'SF'
p1043
sg20
S'.757'
p1044
sg24
S'NBA'
p1045
sg26
g3
sg27
S'10.4'
p1046
sg29
S'2.8'
p1047
sg31
S'3.5'
p1048
sg33
S'7.0'
p1049
sg35
S'23'
p1050
sg37
S'POR'
p1051
sg39
S'78'
p1052
sg41
g3
sg42
S'5.2'
p1053
sg44
S'2.6'
p1054
sg46
S'10.4'
p1055
sg48
g3
sg49
S'1972-73'
p1056
sg51
S'5.2'
p1057
sg53
g3
sg54
S'.497'
p1058
sg56
S'2138'
p1059
sg58
g3
sba(isrc.gp1.models.Per36Minutes
Per36Minutes
p1060
(dp1061
g8
S'2.4'
p1062
sg9
g3
sg10
S'.482'
p1063
sg12
S'3.5'
p1064
sg14
g3
sg15
g3
sg16
S'10.4'
p1065
sg18
S'SF'
p1066
sg20
S'.819'
p1067
sg24
S'NBA'
p1068
sg26
S'1.3'
p1069
sg27
S'9.1'
p1070
sg29
S'3.8'
p1071
sg31
S'2.0'
p1072
sg33
S'6.8'
p1073
sg35
S'24'
p1074
sg37
S'POR'
p1075
sg39
S'79'
p1076
sg41
S'0.6'
p1077
sg42
S'4.4'
p1078
sg44
S'1.6'
p1079
sg46
S'9.1'
p1080
sg48
S'4.4'
p1081
sg49
S'1973-74'
p1082
sg51
S'4.4'
p1083
sg53
g3
sg54
S'.482'
p1084
sg56
S'1718'
p1085
sg58
g3
sba(isrc.gp1.models.Per36Minutes
Per36Minutes
p1086
(dp1087
g8
S'1.9'
p1088
sg9
g3
sg10
S'.473'
p1089
sg12
S'2.4'
p1090
sg14
g3
sg15
g3
sg16
S'10.8'
p1091
sg18
S'SF'
p1092
sg20
S'.833'
p1093
sg24
S'NBA'
p1094
sg26
S'1.3'
p1095
sg27
S'9.3'
p1096
sg29
S'3.7'
p1097
sg31
S'2.5'
p1098
sg33
S'5.2'
p1099
sg35
S'25'
p1100
sg37
S'TOT'
p1101
sg39
S'73'
p1102
sg41
S'0.7'
p1103
sg42
S'4.4'
p1104
sg44
S'2.1'
p1105
sg46
S'9.3'
p1106
sg48
S'3.4'
p1107
sg49
S'1974-75'
p1108
sg51
S'4.4'
p1109
sg53
g3
sg54
S'.473'
p1110
sg56
S'1667'
p1111
sg58
g3
sba(isrc.gp1.models.Per36Minutes
Per36Minutes
p1112
(dp1113
g8
S'1.9'
p1114
sg9
g3
sg10
S'.465'
p1115
sg12
S'2.5'
p1116
sg14
g3
sg15
g3
sg16
S'10.6'
p1117
sg18
S'SF'
p1118
sg20
S'.805'
p1119
sg24
S'NBA'
p1120
sg26
S'1.3'
p1121
sg27
S'9.3'
p1122
sg29
S'3.2'
p1123
sg31
S'2.4'
p1124
sg33
S'5.5'
p1125
sg35
S'25'
p1126
sg37
S'NOJ'
p1127
sg39
S'43'
p1128
sg41
S'0.6'
p1129
sg42
S'4.3'
p1130
sg44
S'1.9'
p1131
sg46
S'9.3'
p1132
sg48
S'3.6'
p1133
sg49
S'1974-75'
p1134
sg51
S'4.3'
p1135
sg53
g3
sg54
S'.465'
p1136
sg56
S'1159'
p1137
sg58
g3
sba(isrc.gp1.models.Per36Minutes
Per36Minutes
p1138
(dp1139
g8
S'1.9'
p1140
sg9
g3
sg10
S'.492'
p1141
sg12
S'2.1'
p1142
sg14
g3
sg15
g3
sg16
S'11.4'
p1143
sg18
S'SF'
p1144
sg20
S'.892'
p1145
sg24
S'NBA'
p1146
sg26
S'1.2'
p1147
sg27
S'9.2'
p1148
sg29
S'4.9'
p1149
sg31
S'2.6'
p1150
sg33
S'4.7'
p1151
sg35
S'25'
p1152
sg37
S'KCO'
p1153
sg39
S'30'
p1154
sg41
S'0.9'
p1155
sg42
S'4.5'
p1156
sg44
S'2.3'
p1157
sg46
S'9.2'
p1158
sg48
S'2.8'
p1159
sg49
S'1974-75'
p1160
sg51
S'4.5'
p1161
sg53
g3
sg54
S'.492'
p1162
sg56
S'508'
p1163
sg58
g3
sba(isrc.gp1.models.Per36Minutes
Per36Minutes
p1164
(dp1165
g8
S'1.9'
p1166
sg9
g3
sg10
S'.513'
p1167
sg12
S'2.4'
p1168
sg14
g3
sg15
g3
sg16
S'13.7'
p1169
sg18
S'SF'
p1170
sg20
S'.839'
p1171
sg24
S'NBA'
p1172
sg26
S'1.1'
p1173
sg27
S'11.4'
p1174
sg29
S'3.6'
p1175
sg31
S'2.5'
p1176
sg33
S'6.0'
p1177
sg35
S'26'
p1178
sg37
S'KCK'
p1179
sg39
S'81'
p1180
sg41
S'0.7'
p1181
sg42
S'5.8'
p1182
sg44
S'2.1'
p1183
sg46
S'11.4'
p1184
sg48
S'4.0'
p1185
sg49
S'1975-76'
p1186
sg51
S'5.8'
p1187
sg53
g3
sg54
S'.513'
p1188
sg56
S'2150'
p1189
sg58
g3
sba(isrc.gp1.models.Per36Minutes
Per36Minutes
p1190
(dp1191
g8
S'1.8'
p1192
sg9
g3
sg10
S'.489'
p1193
sg12
S'2.7'
p1194
sg14
g3
sg15
g3
sg16
S'13.9'
p1195
sg18
S'SF'
p1196
sg20
S'.878'
p1197
sg24
S'NBA'
p1198
sg26
S'1.1'
p1199
sg27
S'11.6'
p1200
sg29
S'4.4'
p1201
sg31
S'3.0'
p1202
sg33
S'5.5'
p1203
sg35
S'27'
p1204
sg37
S'KCK'
p1205
sg39
S'81'
p1206
sg41
S'0.5'
p1207
sg42
S'5.7'
p1208
sg44
S'2.6'
p1209
sg46
S'11.6'
p1210
sg48
S'3.7'
p1211
sg49
S'1976-77'
p1212
sg51
S'5.7'
p1213
sg53
g3
sg54
S'.489'
p1214
sg56
S'1386'
p1215
sg58
g3
sba(isrc.gp1.models.Per36Minutes
Per36Minutes
p1216
(dp1217
g8
S'1.9'
p1218
sg9
g3
sg10
S'.472'
p1219
sg12
S'2.5'
p1220
sg14
g3
sg15
g3
sg16
S'14.7'
p1221
sg18
S'SF'
p1222
sg20
S'.854'
p1223
sg24
S'NBA'
p1224
sg26
S'1.7'
p1225
sg27
S'13.1'
p1226
sg29
S'3.8'
p1227
sg31
S'2.7'
p1228
sg33
S'5.5'
p1229
sg35
S'28'
p1230
sg37
S'ATL'
p1231
sg39
S'82'
p1232
sg41
S'0.8'
p1233
sg42
S'6.2'
p1234
sg44
S'2.3'
p1235
sg46
S'13.1'
p1236
sg48
S'3.6'
p1237
sg49
S'1977-78'
p1238
sg51
S'6.2'
p1239
sg53
S'2.3'
p1240
sg54
S'.472'
p1241
sg56
S'1704'
p1242
sg58
g3
sba(isrc.gp1.models.Per36Minutes
Per36Minutes
p1243
(dp1244
g8
S'1.2'
p1245
sg9
g3
sg10
S'.520'
p1246
sg12
S'3.4'
p1247
sg14
g3
sg15
g3
sg16
S'13.5'
p1248
sg18
S'SF'
p1249
sg20
S'.800'
p1250
sg24
S'NBA'
p1251
sg26
S'1.1'
p1252
sg27
S'11.2'
p1253
sg29
S'3.8'
p1254
sg31
S'2.3'
p1255
sg33
S'4.7'
p1256
sg35
S'29'
p1257
sg37
S'CHI'
p1258
sg39
S'71'
p1259
sg41
S'0.7'
p1260
sg42
S'5.8'
p1261
sg44
S'1.8'
p1262
sg46
S'11.2'
p1263
sg48
S'3.5'
p1264
sg49
S'1978-79'
p1265
sg51
S'5.8'
p1266
sg53
S'2.4'
p1267
sg54
S'.520'
p1268
sg56
S'1734'
p1269
sg58
g3
sba(isrc.gp1.models.Per36Minutes
Per36Minutes
p1270
(dp1271
g8
S'1.2'
p1272
sg9
S'0.3'
p1273
sg10
S'.497'
p1274
sg12
S'3.8'
p1275
sg14
S'.091'
p1276
sg15
S'0.0'
p1277
sg16
S'14.2'
p1278
sg18
S'SF'
p1279
sg20
S'.882'
p1280
sg24
S'NBA'
p1281
sg26
S'1.4'
p1282
sg27
S'12.4'
p1283
sg29
S'3.9'
p1284
sg31
S'2.2'
p1285
sg33
S'3.8'
p1286
sg35
S'30'
p1287
sg37
S'CHI'
p1288
sg39
S'79'
p1289
sg41
S'0.6'
p1290
sg42
S'6.1'
p1291
sg44
S'1.9'
p1292
sg46
S'12.1'
p1293
sg48
S'2.7'
p1294
sg49
S'1979-80'
p1295
sg51
S'6.1'
p1296
sg53
S'2.3'
p1297
sg54
S'.506'
p1298
sg56
S'1535'
p1299
sg58
g3
sba(isrc.gp1.models.Per36Minutes
Per36Minutes
p1300
(dp1301
g8
S'0.8'
p1302
sg9
S'0.6'
p1303
sg10
S'.551'
p1304
sg12
S'2.9'
p1305
sg14
S'.167'
p1306
sg15
S'0.1'
p1307
sg16
S'19.5'
p1308
sg18
S'SF'
p1309
sg20
S'.871'
p1310
sg24
S'NBA'
p1311
sg26
S'1.9'
p1312
sg27
S'15.3'
p1313
sg29
S'4.4'
p1314
sg31
S'3.0'
p1315
sg33
S'5.3'
p1316
sg35
S'31'
p1317
sg37
S'PHI'
p1318
sg39
S'40'
p1319
sg41
S'0.2'
p1320
sg42
S'8.3'
p1321
sg44
S'2.6'
p1322
sg46
S'14.7'
p1323
sg48
S'4.5'
p1324
sg49
S'1980-81'
p1325
sg51
S'8.4'
p1326
sg53
S'2.4'
p1327
sg54
S'.566'
p1328
sg56
S'372'
p1329
sg58
g3
sba(isrc.gp1.models.Per36Minutes
Per36Minutes
p1330
(dp1331
g8
S'1.7'
p1332
sg9
S'0.7'
p1333
sg10
S'.500'
p1334
sg12
S'2.4'
p1335
sg14
S'.333'
p1336
sg15
S'0.2'
p1337
sg16
S'14.6'
p1338
sg18
S'SF'
p1339
sg20
S'.857'
p1340
sg24
S'NBA'
p1341
sg26
S'3.1'
p1342
sg27
S'13.0'
p1343
sg29
S'6.7'
p1344
sg31
S'1.7'
p1345
sg33
S'5.3'
p1346
sg35
S'32'
p1347
sg37
S'PHI'
p1348
sg39
S'26'
p1349
sg41
S'0.7'
p1350
sg42
S'6.2'
p1351
sg44
S'1.4'
p1352
sg46
S'12.2'
p1353
sg48
S'3.6'
p1354
sg49
S'1981-82'
p1355
sg51
S'6.5'
p1356
sg53
S'3.1'
p1357
sg54
S'.510'
p1358
sg56
S'150'
p1359
sg58
g365
sbasS'_fromYear'
p1360
S'1973'
p1361
sS'_url'
p1362
S'http://www.basketball-reference.com/players/j/johnsol01.html'
p1363
sS'_perGame'
p1364
(isrc.gp1.models.PerGame
PerGame
p1365
(dp1366
g8
S'0.3'
p1367
sg9
S'0.1'
p1368
sg10
S'.500'
p1369
sS'_effectiveFieldGalPercentage'
p1370
S'.509'
p1371
sg12
S'0.4'
p1372
sg14
S'.333'
p1373
sg15
S'0.0'
p1374
sg16
S'2.3'
p1375
sg18
S'SF'
p1376
sg20
S'.857'
p1377
sg24
S'NBA'
p1378
sg26
S'0.5'
p1379
sg29
S'1.1'
p1380
sS'_fieldGoalsttempted'
p1381
S'2.1'
p1382
sg31
S'0.3'
p1383
sg33
S'0.8'
p1384
sg35
S'32'
p1385
sg37
S'PHI'
p1386
sg39
S'26'
p1387
sg41
S'0.1'
p1388
sg42
S'1.0'
p1389
sg44
S'0.2'
p1390
sg46
S'2.0'
p1391
sg48
S'0.6'
p1392
sg49
S'1981-82'
p1393
sg51
S'1.0'
p1394
sg53
S'0.5'
p1395
sg54
S'.510'
p1396
sg56
S'5.8'
p1397
sg58
g365
sbsS'_weight'
p1398
S'200'
p1399
sS'_dob'
p1400
S'11-5-1949'
p1401
sS'_salary'
p1402
(lp1403
sg18
S'F'
p1404
sb.