(isrc.gp1.models.Player
Player
p0
(dp1
S'_experience'
p2
S'NA'
p3
sS'_totals'
p4
(lp5
(isrc.gp1.models.Totals
Totals
p6
(dp7
S'_offensiveRebounds'
p8
S'58'
p9
sS'_threePointsAttempted'
p10
S'0'
p11
sS'_fieldGoalsPercentage'
p12
S'.487'
p13
sS'_assist'
p14
S'22'
p15
sS'_threePointsPercentage'
p16
S'55'
p17
sS'_threePoints'
p18
g11
sS'_points'
p19
g3
sS'_position'
p20
S'PF'
p21
sS'_freeThrowsPercentage'
p22
S'48'
p23
sS'_effectiveFieldGoalPercentage'
p24
S'41'
p25
sS'_league'
p26
S'NBA'
p27
sS'_steals'
p28
S'12'
p29
sS'_fieldGoalsAttempted'
p30
S'113'
p31
sS'_personalFouls'
p32
S'151'
p33
sS'_freeThrowsAttempted'
p34
S'.759'
p35
sS'_totalRebounds'
p36
S'17'
p37
sS'_age'
p38
S'22'
p39
sS'_team'
p40
S'TOT'
p41
sS'_games'
p42
S'54'
p43
sS'_blocks'
p44
S'46'
p45
sS'_twoPoints'
p46
S'113'
p47
sS'_freeThrows'
p48
S'54'
p49
sS'_twoPointsAttempted'
p50
S'.487'
p51
sS'_defensiveRebounds'
p52
S'106'
p53
sS'_season'
p54
S'1997-98'
p55
sS'_fieldGoals'
p56
S'55'
p57
sS'_turnOvers'
p58
S'97'
p59
sS'_twoPointsPercentage'
p60
S'.487'
p61
sS'_minutesPlayed'
p62
S'535'
p63
sS'_gamesStarted'
p64
S'2'
p65
sba(isrc.gp1.models.Totals
Totals
p66
(dp67
g8
S'38'
p68
sg10
g11
sg12
S'.513'
p69
sg14
S'19'
p70
sg16
S'41'
p71
sg18
g11
sg19
g3
sg20
S'PF'
p72
sg22
S'32'
p73
sg24
S'26'
p74
sg26
S'NBA'
p75
sg28
S'9'
p76
sg30
S'80'
p77
sg32
S'108'
p78
sg34
S'.788'
p79
sg36
S'13'
p80
sg38
S'22'
p81
sg40
S'BOS'
p82
sg42
S'33'
p83
sg44
S'33'
p84
sg46
S'80'
p85
sg48
S'33'
p86
sg50
S'.513'
p87
sg52
S'70'
p88
sg54
S'1997-98'
p89
sg56
S'41'
p90
sg58
S'65'
p91
sg60
S'.513'
p92
sg62
S'368'
p93
sg64
g65
sba(isrc.gp1.models.Totals
Totals
p94
(dp95
g8
S'20'
p96
sg10
g11
sg12
S'.424'
p97
sg14
S'3'
p98
sg16
S'14'
p99
sg18
g11
sg19
g3
sg20
S'PF'
p100
sg22
S'16'
p101
sg24
S'15'
p102
sg26
S'NBA'
p103
sg28
g98
sg30
S'33'
p104
sg32
S'43'
p105
sg34
S'.714'
p106
sg36
S'4'
p107
sg38
S'22'
p108
sg40
S'TOR'
p109
sg42
S'21'
p110
sg44
S'13'
p111
sg46
S'33'
p112
sg48
S'21'
p113
sg50
S'.424'
p114
sg52
S'36'
p115
sg54
S'1997-98'
p116
sg56
S'14'
p117
sg58
S'32'
p118
sg60
S'.424'
p119
sg62
S'167'
p120
sg64
g11
sba(isrc.gp1.models.Totals
Totals
p121
(dp122
g8
S'65'
p123
sg10
S'1'
p124
sg12
S'.577'
p125
sg14
S'15'
p126
sg16
S'.000'
p127
sg18
g11
sg19
S'169'
p128
sg20
S'C'
p129
sg22
S'.563'
p130
sg24
S'.577'
p131
sg26
S'NBA'
p132
sg28
S'17'
p133
sg30
S'123'
p134
sg32
S'82'
p135
sg34
S'48'
p136
sg36
S'134'
p137
sg38
S'23'
p138
sg40
S'TOR'
p139
sg42
S'39'
p140
sg44
g76
sg46
S'71'
p141
sg48
S'27'
p142
sg50
S'122'
p143
sg52
S'69'
p144
sg54
S'1998-99'
p145
sg56
S'71'
p146
sg58
S'21'
p147
sg60
S'.582'
p148
sg62
S'593'
p149
sg64
S'11'
p150
sba(isrc.gp1.models.Totals
Totals
p151
(dp152
g8
S'37'
p153
sg10
g124
sg12
S'.458'
p154
sg14
g76
sg16
S'.000'
p155
sg18
g11
sg19
S'114'
p156
sg20
g129
sg22
S'.390'
p157
sg24
S'.458'
p158
sg26
S'NBA'
p159
sg28
S'12'
p160
sg30
S'107'
p161
sg32
S'106'
p162
sg34
S'41'
p163
sg36
S'75'
p164
sg38
S'24'
p165
sg40
S'TOR'
p166
sg42
S'55'
p167
sg44
S'14'
p168
sg46
S'49'
p169
sg48
S'16'
p170
sg50
S'106'
p171
sg52
S'38'
p172
sg54
S'1999-00'
p173
sg56
S'49'
p174
sg58
S'14'
p175
sg60
S'.462'
p176
sg62
S'477'
p177
sg64
S'6'
p178
sba(isrc.gp1.models.Totals
Totals
p179
(dp180
g8
g3
sg10
g3
sg12
g3
sg14
g3
sg16
g3
sg18
g3
sg19
g3
sg20
g3
sg22
g3
sg24
g3
sg26
g3
sg28
g3
sg30
g3
sg32
g3
sg34
g3
sg36
g3
sg38
S'25'
p181
sg40
S'Did Not Play\xc2\xa0(other pro league\xe2\x80\x94Domincan Republic, China)'
p182
sg42
g3
sg44
g3
sg46
g3
sg48
g3
sg50
g3
sg52
g3
sg54
S'2000-01'
p183
sg56
g3
sg58
g3
sg60
g3
sg62
g3
sg64
g3
sba(isrc.gp1.models.Totals
Totals
p184
(dp185
g8
g3
sg10
g3
sg12
g3
sg14
g3
sg16
g3
sg18
g3
sg19
g3
sg20
g3
sg22
g3
sg24
g3
sg26
g3
sg28
g3
sg30
g3
sg32
g3
sg34
g3
sg36
g3
sg38
S'26'
p186
sg40
S'Did Not Play\xc2\xa0(other pro league\xe2\x80\x94China)'
p187
sg42
g3
sg44
g3
sg46
g3
sg48
g3
sg50
g3
sg52
g3
sg54
S'2001-02'
p188
sg56
g3
sg58
g3
sg60
g3
sg62
g3
sg64
g3
sba(isrc.gp1.models.Totals
Totals
p189
(dp190
g8
g3
sg10
g3
sg12
g3
sg14
g3
sg16
g3
sg18
g3
sg19
g3
sg20
g3
sg22
g3
sg24
g3
sg26
g3
sg28
g3
sg30
g3
sg32
g3
sg34
g3
sg36
g3
sg38
S'27'
p191
sg40
S'Did Not Play\xc2\xa0(other pro league\xe2\x80\x94CBA)'
p192
sg42
g3
sg44
g3
sg46
g3
sg48
g3
sg50
g3
sg52
g3
sg54
S'2002-03'
p193
sg56
g3
sg58
g3
sg60
g3
sg62
g3
sg64
g3
sba(isrc.gp1.models.Totals
Totals
p194
(dp195
g8
g3
sg10
g3
sg12
g3
sg14
g3
sg16
g3
sg18
g3
sg19
g3
sg20
g3
sg22
g3
sg24
g3
sg26
g3
sg28
g3
sg30
g3
sg32
g3
sg34
g3
sg36
g3
sg38
S'28'
p196
sg40
S'Did Not Play\xc2\xa0(other pro league\xe2\x80\x94CBA)'
p197
sg42
g3
sg44
g3
sg46
g3
sg48
g3
sg50
g3
sg52
g3
sg54
S'2003-04'
p198
sg56
g3
sg58
g3
sg60
g3
sg62
g3
sg64
g3
sba(isrc.gp1.models.Totals
Totals
p199
(dp200
g8
S'58'
p201
sg10
g11
sg12
S'.488'
p202
sg14
S'15'
p203
sg16
S'42'
p204
sg18
g11
sg19
g3
sg20
g129
sg22
S'39'
p205
sg24
S'27'
p206
sg26
S'NBA'
p207
sg28
S'13'
p208
sg30
S'86'
p209
sg32
S'111'
p210
sg34
S'.587'
p211
sg36
S'17'
p212
sg38
S'29'
p213
sg40
S'MIN'
p214
sg42
S'44'
p215
sg44
S'18'
p216
sg46
S'86'
p217
sg48
S'46'
p218
sg50
S'.488'
p219
sg52
S'97'
p220
sg54
S'2004-05'
p221
sg56
S'42'
p222
sg58
S'82'
p223
sg60
S'.488'
p224
sg62
S'521'
p225
sg64
S'8'
p226
sba(isrc.gp1.models.Totals
Totals
p227
(dp228
g8
S'10'
p229
sg10
g11
sg12
S'.400'
p230
sg14
g98
sg16
g178
sg18
g11
sg19
g3
sg20
g129
sg22
S'10'
p231
sg24
g98
sg26
S'NBA'
p232
sg28
g65
sg30
S'15'
p233
sg32
S'15'
p234
sg34
S'.750'
p235
sg36
g65
sg38
S'30'
p236
sg40
S'TOT'
p237
sg42
S'16'
p238
sg44
g226
sg46
S'15'
p239
sg48
g107
sg50
S'.400'
p240
sg52
S'20'
p241
sg54
S'2005-06'
p242
sg56
g178
sg58
S'17'
p243
sg60
S'.400'
p244
sg62
S'127'
p245
sg64
g11
sba(isrc.gp1.models.Totals
Totals
p246
(dp247
g8
g11
sg10
g11
sg12
S'1.000'
p248
sg14
g124
sg16
g65
sg18
g11
sg19
g3
sg20
g129
sg22
g11
sg24
g11
sg26
S'NBA'
p249
sg28
g65
sg30
g65
sg32
g3
sg34
g11
sg36
g11
sg38
S'30'
p250
sg40
S'MEM'
p251
sg42
g98
sg44
g98
sg46
g65
sg48
g11
sg50
S'1.000'
p252
sg52
g124
sg54
S'2005-06'
p253
sg56
g65
sg58
g107
sg60
S'1.000'
p254
sg62
S'25'
p255
sg64
g11
sba(isrc.gp1.models.Totals
Totals
p256
(dp257
g8
S'7'
p258
sg10
g11
sg12
S'.429'
p259
sg14
g65
sg16
g98
sg18
g11
sg19
g3
sg20
g129
sg22
g98
sg24
g98
sg26
S'NBA'
p260
sg28
g11
sg30
g258
sg32
g76
sg34
S'.750'
p261
sg36
g124
sg38
S'30'
p262
sg40
S'ATL'
p263
sg42
S'11'
p264
sg44
g107
sg46
g258
sg48
g107
sg50
S'.429'
p265
sg52
S'10'
p266
sg54
S'2005-06'
p267
sg56
g98
sg58
S'10'
p268
sg60
S'.429'
p269
sg62
S'66'
p270
sg64
g11
sba(isrc.gp1.models.Totals
Totals
p271
(dp272
g8
S'10'
p273
sg10
g11
sg12
S'.167'
p274
sg14
g124
sg16
g124
sg18
g11
sg19
g3
sg20
g129
sg22
g98
sg24
g11
sg26
S'NBA'
p275
sg28
g65
sg30
g178
sg32
g3
sg34
g258
sg36
g124
sg38
S'30'
p276
sg40
S'NJN'
p277
sg42
g65
sg44
g107
sg46
g178
sg48
g11
sg50
S'.167'
p278
sg52
g11
sg54
S'2005-06'
p279
sg56
g124
sg58
g65
sg60
S'.167'
p280
sg62
S'36'
p281
sg64
g11
sbasS'_college'
p282
S'University of Minnesota'
p283
sS'_toYear'
p284
S'2006'
p285
sS'_height'
p286
S'6-9'
p287
sS'_active'
p288
I00
sS'_shootingHand'
p289
VRight
p290
sS'_name'
p291
S'John Thomas'
p292
sS'_per100Possessions'
p293
(lp294
(isrc.gp1.models.Per100Possession
Per100Possession
p295
(dp296
g8
S'5.6'
p297
sg10
S'0.0'
p298
sg12
S'.487'
p299
sS'_offensiveRating'
p300
S'107'
p301
sg14
S'2.1'
p302
sg16
S'5.3'
p303
sg18
S'0.0'
p304
sg19
S'96'
p305
sg20
S'PF'
p306
sS'_defensiveRating'
p307
g3
sg22
S'4.6'
p308
sg26
S'NBA'
p309
sg28
S'1.2'
p310
sg30
S'10.9'
p311
sg32
S'14.6'
p312
sg34
S'.759'
p313
sg36
S'1.6'
p314
sg38
S'22'
p315
sg40
S'TOT'
p316
sg42
S'54'
p317
sg44
S'4.4'
p318
sg46
S'10.9'
p319
sg48
S'5.2'
p320
sg50
S'.487'
p321
sg52
S'10.2'
p322
sg54
S'1997-98'
p323
sg56
S'5.3'
p324
sg58
S'9.4'
p325
sg60
S'4.0'
p326
sg62
S'535'
p327
sg64
g65
sba(isrc.gp1.models.Per100Possession
Per100Possession
p328
(dp329
g8
S'5.3'
p330
sg10
S'0.0'
p331
sg12
S'.513'
p332
sg300
S'105'
p333
sg14
S'2.7'
p334
sg16
S'5.7'
p335
sg18
S'0.0'
p336
sg19
S'97'
p337
sg20
S'PF'
p338
sg307
g3
sg22
S'4.5'
p339
sg26
S'NBA'
p340
sg28
S'1.3'
p341
sg30
S'11.2'
p342
sg32
S'15.1'
p343
sg34
S'.788'
p344
sg36
S'1.8'
p345
sg38
S'22'
p346
sg40
S'BOS'
p347
sg42
S'33'
p348
sg44
S'4.6'
p349
sg46
S'11.2'
p350
sg48
S'4.6'
p351
sg50
S'.513'
p352
sg52
S'9.8'
p353
sg54
S'1997-98'
p354
sg56
S'5.7'
p355
sg58
S'9.1'
p356
sg60
S'3.6'
p357
sg62
S'368'
p358
sg64
g65
sba(isrc.gp1.models.Per100Possession
Per100Possession
p359
(dp360
g8
S'6.2'
p361
sg10
S'0.0'
p362
sg12
S'.424'
p363
sg300
S'113'
p364
sg14
S'0.9'
p365
sg16
S'4.3'
p366
sg18
S'0.0'
p367
sg19
S'94'
p368
sg20
S'PF'
p369
sg307
g3
sg22
S'5.0'
p370
sg26
S'NBA'
p371
sg28
S'0.9'
p372
sg30
S'10.2'
p373
sg32
S'13.3'
p374
sg34
S'.714'
p375
sg36
S'1.2'
p376
sg38
S'22'
p377
sg40
S'TOR'
p378
sg42
S'21'
p379
sg44
S'4.0'
p380
sg46
S'10.2'
p381
sg48
S'6.5'
p382
sg50
S'.424'
p383
sg52
S'11.2'
p384
sg54
S'1997-98'
p385
sg56
S'4.3'
p386
sg58
S'9.9'
p387
sg60
S'4.7'
p388
sg62
S'167'
p389
sg64
g11
sba(isrc.gp1.models.Per100Possession
Per100Possession
p390
(dp391
g8
S'5.9'
p392
sg10
S'0.1'
p393
sg12
S'.577'
p394
sg300
S'118'
p395
sg14
S'1.4'
p396
sg16
S'.000'
p397
sg18
S'0.0'
p398
sg19
S'15.4'
p399
sg20
g129
sg307
S'105'
p400
sg22
S'.563'
p401
sg26
S'NBA'
p402
sg28
S'1.6'
p403
sg30
S'11.2'
p404
sg32
S'7.5'
p405
sg34
S'4.4'
p406
sg36
S'12.2'
p407
sg38
S'23'
p408
sg40
S'TOR'
p409
sg42
S'39'
p410
sg44
S'0.8'
p411
sg46
S'6.5'
p412
sg48
S'2.5'
p413
sg50
S'11.1'
p414
sg52
S'6.3'
p415
sg54
S'1998-99'
p416
sg56
S'6.5'
p417
sg58
S'1.9'
p418
sg60
S'.582'
p419
sg62
S'593'
p420
sg64
S'11'
p421
sba(isrc.gp1.models.Per100Possession
Per100Possession
p422
(dp423
g8
S'4.0'
p424
sg10
S'0.1'
p425
sg12
S'.458'
p426
sg300
S'97'
p427
sg14
S'1.0'
p428
sg16
S'.000'
p429
sg18
S'0.0'
p430
sg19
S'12.4'
p431
sg20
g129
sg307
S'107'
p432
sg22
S'.390'
p433
sg26
S'NBA'
p434
sg28
S'1.3'
p435
sg30
S'11.6'
p436
sg32
S'11.5'
p437
sg34
S'4.5'
p438
sg36
S'8.2'
p439
sg38
S'24'
p440
sg40
S'TOR'
p441
sg42
S'55'
p442
sg44
S'1.5'
p443
sg46
S'5.3'
p444
sg48
S'1.7'
p445
sg50
S'11.5'
p446
sg52
S'4.1'
p447
sg54
S'1999-00'
p448
sg56
S'5.3'
p449
sg58
S'1.5'
p450
sg60
S'.462'
p451
sg62
S'477'
p452
sg64
g178
sba(isrc.gp1.models.Per100Possession
Per100Possession
p453
(dp454
g8
S'6.0'
p455
sg10
S'0.0'
p456
sg12
S'.488'
p457
sg300
S'107'
p458
sg14
S'1.6'
p459
sg16
S'4.3'
p460
sg18
S'0.0'
p461
sg19
S'108'
p462
sg20
g129
sg307
g3
sg22
S'4.0'
p463
sg26
S'NBA'
p464
sg28
S'1.3'
p465
sg30
S'8.9'
p466
sg32
S'11.5'
p467
sg34
S'.587'
p468
sg36
S'1.8'
p469
sg38
S'29'
p470
sg40
S'MIN'
p471
sg42
S'44'
p472
sg44
S'1.9'
p473
sg46
S'8.9'
p474
sg48
S'4.8'
p475
sg50
S'.488'
p476
sg52
S'10.0'
p477
sg54
S'2004-05'
p478
sg56
S'4.3'
p479
sg58
S'8.5'
p480
sg60
S'2.8'
p481
sg62
S'521'
p482
sg64
g226
sba(isrc.gp1.models.Per100Possession
Per100Possession
p483
(dp484
g8
S'4.2'
p485
sg10
S'0.0'
p486
sg12
S'.400'
p487
sg300
S'109'
p488
sg14
S'1.3'
p489
sg16
S'2.5'
p490
sg18
S'0.0'
p491
sg19
S'81'
p492
sg20
g129
sg307
g3
sg22
S'4.2'
p493
sg26
S'NBA'
p494
sg28
S'0.8'
p495
sg30
S'6.3'
p496
sg32
S'6.3'
p497
sg34
S'.750'
p498
sg36
S'0.8'
p499
sg38
S'30'
p500
sg40
S'TOT'
p501
sg42
S'16'
p502
sg44
S'3.4'
p503
sg46
S'6.3'
p504
sg48
S'1.7'
p505
sg50
S'.400'
p506
sg52
S'8.5'
p507
sg54
S'2005-06'
p508
sg56
S'2.5'
p509
sg58
S'7.2'
p510
sg60
S'1.3'
p511
sg62
S'127'
p512
sg64
g11
sba(isrc.gp1.models.Per100Possession
Per100Possession
p513
(dp514
g8
S'0.0'
p515
sg10
S'0.0'
p516
sg12
S'1.000'
p517
sg300
g3
sg14
S'2.2'
p518
sg16
S'4.5'
p519
sg18
S'0.0'
p520
sg19
S'109'
p521
sg20
g129
sg307
g3
sg22
S'0.0'
p522
sg26
S'NBA'
p523
sg28
S'4.5'
p524
sg30
S'4.5'
p525
sg32
S'88'
p526
sg34
S'0.0'
p527
sg36
S'0.0'
p528
sg38
S'30'
p529
sg40
S'MEM'
p530
sg42
g98
sg44
S'6.7'
p531
sg46
S'4.5'
p532
sg48
S'0.0'
p533
sg50
S'1.000'
p534
sg52
S'2.2'
p535
sg54
S'2005-06'
p536
sg56
S'4.5'
p537
sg58
S'8.9'
p538
sg60
S'0.0'
p539
sg62
S'25'
p540
sg64
g11
sba(isrc.gp1.models.Per100Possession
Per100Possession
p541
(dp542
g8
S'5.6'
p543
sg10
S'0.0'
p544
sg12
S'.429'
p545
sg300
S'113'
p546
sg14
S'1.6'
p547
sg16
S'2.4'
p548
sg18
S'0.0'
p549
sg19
S'85'
p550
sg20
g129
sg307
g3
sg22
S'2.4'
p551
sg26
S'NBA'
p552
sg28
S'0.0'
p553
sg30
S'5.6'
p554
sg32
S'7.2'
p555
sg34
S'.750'
p556
sg36
S'0.8'
p557
sg38
S'30'
p558
sg40
S'ATL'
p559
sg42
S'11'
p560
sg44
S'3.2'
p561
sg46
S'5.6'
p562
sg48
S'3.2'
p563
sg50
S'.429'
p564
sg52
S'8.0'
p565
sg54
S'2005-06'
p566
sg56
S'2.4'
p567
sg58
S'8.0'
p568
sg60
S'2.4'
p569
sg62
S'66'
p570
sg64
g11
sba(isrc.gp1.models.Per100Possession
Per100Possession
p571
(dp572
g8
S'14.8'
p573
sg10
S'0.0'
p574
sg12
S'.167'
p575
sg300
g3
sg14
S'1.5'
p576
sg16
S'1.5'
p577
sg18
S'0.0'
p578
sg19
S'103'
p579
sg20
g129
sg307
g3
sg22
S'4.5'
p580
sg26
S'NBA'
p581
sg28
S'3.0'
p582
sg30
S'8.9'
p583
sg32
S'72'
p584
sg34
S'10.4'
p585
sg36
S'1.5'
p586
sg38
S'30'
p587
sg40
S'NJN'
p588
sg42
g65
sg44
S'5.9'
p589
sg46
S'8.9'
p590
sg48
S'0.0'
p591
sg50
S'.167'
p592
sg52
S'0.0'
p593
sg54
S'2005-06'
p594
sg56
S'1.5'
p595
sg58
S'3.0'
p596
sg60
S'0.0'
p597
sg62
S'36'
p598
sg64
g11
sbasS'_advanced'
p599
(lp600
(isrc.gp1.models.Advanced
Advanced
p601
(dp602
S'_offensiveReboundPercentage'
p603
S'9.7'
p604
sS'_turnOverPercentage'
p605
S'25.2'
p606
sS'_winSharesPer48Minutes'
p607
S'.034'
p608
sS'_stealPercentage'
p609
S'2.1'
p610
sS'_usagePercentage'
p611
S'14.8'
p612
sS'_totalReboundsPercentage'
p613
S'11.5'
p614
sS'_defensiveBoxPlusMinus'
p615
S'-0.6'
p616
sg20
S'PF'
p617
sS'_valueOverReplacementPlayer'
p618
S'-0.4'
p619
sS'_trueShootingPercentage'
p620
S'.552'
p621
sS'_defensiveReboundPercentage'
p622
S'13.5'
p623
sS'_freeThrowsAttempRate'
p624
S'.478'
p625
sS'_threePointsAttempRate'
p626
S'.000'
p627
sg26
S'NBA'
p628
sS'_offensiveBoxPlusMinues'
p629
S'-4.1'
p630
sS'_assistPercentage'
p631
S'4.9'
p632
sS'_defensiveWinShares'
p633
S'0.4'
p634
sg38
S'22'
p635
sg40
S'TOT'
p636
sg42
S'54'
p637
sS'_blockPercentage'
p638
S'1.7'
p639
sS'_playerEfficiencyRating'
p640
S'9.1'
p641
sS'_offensiveWinShares'
p642
S'0.0'
p643
sg62
S'535'
p644
sS'_boxPlusMinus'
p645
S'-4.7'
p646
sg54
S'1997-98'
p647
sS'_winShares'
p648
S'0.4'
p649
sba(isrc.gp1.models.Advanced
Advanced
p650
(dp651
g603
S'9.4'
p652
sg605
S'25.9'
p653
sg607
S'.054'
p654
sg609
S'2.7'
p655
sg611
S'15.0'
p656
sg613
S'11.2'
p657
sg615
S'0.6'
p658
sg20
S'PF'
p659
sg618
S'-0.1'
p660
sg620
S'.571'
p661
sg622
S'13.3'
p662
sg624
S'.413'
p663
sg626
S'.000'
p664
sg26
S'NBA'
p665
sg629
S'-3.6'
p666
sg631
S'5.4'
p667
sg633
S'0.4'
p668
sg38
S'22'
p669
sg40
S'BOS'
p670
sg42
S'33'
p671
sg638
S'1.9'
p672
sg640
S'10.2'
p673
sg642
S'0.0'
p674
sg62
S'368'
p675
sg645
S'-3.0'
p676
sg54
S'1997-98'
p677
sg648
S'0.4'
p678
sba(isrc.gp1.models.Advanced
Advanced
p679
(dp680
g603
S'10.3'
p681
sg605
S'23.5'
p682
sg607
S'-0.009'
p683
sg609
S'0.9'
p684
sg611
S'14.5'
p685
sg613
S'12.1'
p686
sg615
S'-3.3'
p687
sg20
S'PF'
p688
sg618
S'-0.3'
p689
sg620
S'.509'
p690
sg622
S'14.0'
p691
sg624
S'.636'
p692
sg626
S'.000'
p693
sg26
S'NBA'
p694
sg629
S'-5.2'
p695
sg631
S'3.6'
p696
sg633
S'0.0'
p697
sg38
S'22'
p698
sg40
S'TOR'
p699
sg42
S'21'
p700
sg638
S'1.2'
p701
sg640
S'6.8'
p702
sg642
S'0.0'
p703
sg62
S'167'
p704
sg645
S'-8.5'
p705
sg54
S'1997-98'
p706
sg648
S'0.0'
p707
sba(isrc.gp1.models.Advanced
Advanced
p708
(dp709
g603
S'12.6'
p710
sg605
S'12.7'
p711
sg607
S'.125'
p712
sg609
S'1.6'
p713
sg611
S'12.6'
p714
sg613
S'13.1'
p715
sg615
S'-1.3'
p716
sg20
g129
sg618
S'0.1'
p717
sg620
S'.586'
p718
sg622
S'13.6'
p719
sg624
S'.390'
p720
sg626
S'.008'
p721
sg26
S'NBA'
p722
sg629
S'0.2'
p723
sg631
S'4.5'
p724
sg633
S'0.4'
p725
sg38
S'23'
p726
sg40
S'TOR'
p727
sg42
S'39'
p728
sg638
S'1.2'
p729
sg640
S'13.7'
p730
sg642
S'1.2'
p731
sg62
S'593'
p732
sg645
S'-1.1'
p733
sg54
S'1998-99'
p734
sg648
S'1.5'
p735
sba(isrc.gp1.models.Advanced
Advanced
p736
(dp737
g603
S'8.4'
p738
sg605
S'10.1'
p739
sg607
S'.038'
p740
sg609
S'1.3'
p741
sg611
S'12.9'
p742
sg613
S'8.8'
p743
sg615
S'-1.0'
p744
sg20
g129
sg618
S'-0.4'
p745
sg620
S'.456'
p746
sg622
S'9.2'
p747
sg624
S'.383'
p748
sg626
S'.009'
p749
sg26
S'NBA'
p750
sg629
S'-3.9'
p751
sg631
S'2.9'
p752
sg633
S'0.3'
p753
sg38
S'24'
p754
sg40
S'TOR'
p755
sg42
S'55'
p756
sg638
S'2.1'
p757
sg640
S'6.5'
p758
sg642
S'0.1'
p759
sg62
S'477'
p760
sg645
S'-5.0'
p761
sg54
S'1999-00'
p762
sg648
S'0.4'
p763
sba(isrc.gp1.models.Advanced
Advanced
p764
(dp765
g603
S'8.9'
p766
sg605
S'14.5'
p767
sg607
S'.083'
p768
sg609
S'1.6'
p769
sg611
S'11.1'
p770
sg613
S'10.6'
p771
sg615
S'0.9'
p772
sg20
g129
sg618
S'0.1'
p773
sg620
S'.522'
p774
sg622
S'12.2'
p775
sg624
S'.535'
p776
sg626
S'.000'
p777
sg26
S'NBA'
p778
sg629
S'-2.4'
p779
sg631
S'4.7'
p780
sg633
S'0.5'
p781
sg38
S'29'
p782
sg40
S'MIN'
p783
sg42
S'44'
p784
sg638
S'1.8'
p785
sg640
S'9.1'
p786
sg642
S'0.4'
p787
sg62
S'521'
p788
sg645
S'-1.5'
p789
sg54
S'2004-05'
p790
sg648
S'0.9'
p791
sba(isrc.gp1.models.Advanced
Advanced
p792
(dp793
g603
S'9.1'
p794
sg605
S'32.3'
p795
sg607
S'-0.017'
p796
sg609
S'1.3'
p797
sg611
S'9.1'
p798
sg613
S'9.3'
p799
sg615
S'-1.5'
p800
sg20
g129
sg618
S'-0.2'
p801
sg620
S'.447'
p802
sg622
S'9.6'
p803
sg624
S'.267'
p804
sg626
S'.000'
p805
sg26
S'NBA'
p806
sg629
S'-6.4'
p807
sg631
S'2.4'
p808
sg633
S'0.1'
p809
sg38
S'30'
p810
sg40
S'TOT'
p811
sg42
S'16'
p812
sg638
S'1.3'
p813
sg640
S'3.4'
p814
sg642
S'-0.1'
p815
sg62
S'127'
p816
sg645
S'-8.0'
p817
sg54
S'2005-06'
p818
sg648
S'0.0'
p819
sba(isrc.gp1.models.Advanced
Advanced
p820
(dp821
g603
S'0.0'
p822
sg605
S'50.0'
p823
sg607
S'.012'
p824
sg609
S'0.0'
p825
sg611
S'7.8'
p826
sg613
S'0.0'
p827
sg615
S'-1.7'
p828
sg20
g129
sg618
S'0.0'
p829
sg620
S'1.000'
p830
sg622
S'0.0'
p831
sg624
S'.000'
p832
sg626
S'.000'
p833
sg26
S'NBA'
p834
sg629
S'-5.5'
p835
sg631
S'6.5'
p836
sg633
S'0.0'
p837
sg38
S'30'
p838
sg40
S'MEM'
p839
sg42
g98
sg638
S'3.2'
p840
sg640
S'3.8'
p841
sg642
S'0.0'
p842
sg62
S'25'
p843
sg645
S'-7.2'
p844
sg54
S'2005-06'
p845
sg648
S'0.0'
p846
sba(isrc.gp1.models.Advanced
Advanced
p847
(dp848
g603
S'5.3'
p849
sg605
S'31.3'
p850
sg607
S'-0.023'
p851
sg609
S'1.6'
p852
sg611
S'8.8'
p853
sg613
S'9.1'
p854
sg615
S'-1.7'
p855
sg20
g129
sg618
S'-0.1'
p856
sg620
S'.514'
p857
sg622
S'13.1'
p858
sg624
S'.571'
p859
sg626
S'.000'
p860
sg26
S'NBA'
p861
sg629
S'-5.7'
p862
sg631
S'2.2'
p863
sg633
S'0.0'
p864
sg38
S'30'
p865
sg40
S'ATL'
p866
sg42
S'11'
p867
sg638
S'0.0'
p868
sg640
S'3.1'
p869
sg642
S'0.0'
p870
sg62
S'66'
p871
sg645
S'-7.4'
p872
sg54
S'2005-06'
p873
sg648
S'0.0'
p874
sba(isrc.gp1.models.Advanced
Advanced
p875
(dp876
g603
S'22.5'
p877
sg605
S'25.0'
p878
sg607
S'-0.027'
p879
sg609
S'1.5'
p880
sg611
S'10.5'
p881
sg613
S'16.3'
p882
sg615
S'-1.1'
p883
sg20
g129
sg618
S'-0.1'
p884
sg620
S'.167'
p885
sg622
S'9.9'
p886
sg624
S'.000'
p887
sg626
S'.000'
p888
sg26
S'NBA'
p889
sg629
S'-8.4'
p890
sg631
S'0.0'
p891
sg633
S'0.1'
p892
sg38
S'30'
p893
sg40
S'NJN'
p894
sg42
g65
sg638
S'2.2'
p895
sg640
S'3.5'
p896
sg642
S'-0.1'
p897
sg62
S'36'
p898
sg645
S'-9.6'
p899
sg54
S'2005-06'
p900
sg648
S'0.0'
p901
sbasS'_per36Minutes'
p902
(lp903
(isrc.gp1.models.Per36Minutes
Per36Minutes
p904
(dp905
g8
S'3.9'
p906
sg10
S'0.0'
p907
sg12
S'.487'
p908
sg14
S'1.5'
p909
sg16
S'3.7'
p910
sg18
S'0.0'
p911
sg19
g3
sg20
S'PF'
p912
sg22
S'3.2'
p913
sg26
S'NBA'
p914
sg28
S'0.8'
p915
sg30
S'7.6'
p916
sg32
S'10.2'
p917
sg34
S'.759'
p918
sg36
S'1.1'
p919
sg38
S'22'
p920
sg40
S'TOT'
p921
sg42
S'54'
p922
sg44
S'3.1'
p923
sg46
S'7.6'
p924
sg48
S'3.6'
p925
sg50
S'.487'
p926
sg52
S'7.1'
p927
sg54
S'1997-98'
p928
sg56
S'3.7'
p929
sg58
S'6.5'
p930
sg60
S'2.8'
p931
sg62
S'535'
p932
sg64
g65
sba(isrc.gp1.models.Per36Minutes
Per36Minutes
p933
(dp934
g8
S'3.7'
p935
sg10
S'0.0'
p936
sg12
S'.513'
p937
sg14
S'1.9'
p938
sg16
S'4.0'
p939
sg18
S'0.0'
p940
sg19
g3
sg20
S'PF'
p941
sg22
S'3.1'
p942
sg26
S'NBA'
p943
sg28
S'0.9'
p944
sg30
S'7.8'
p945
sg32
S'10.6'
p946
sg34
S'.788'
p947
sg36
S'1.3'
p948
sg38
S'22'
p949
sg40
S'BOS'
p950
sg42
S'33'
p951
sg44
S'3.2'
p952
sg46
S'7.8'
p953
sg48
S'3.2'
p954
sg50
S'.513'
p955
sg52
S'6.8'
p956
sg54
S'1997-98'
p957
sg56
S'4.0'
p958
sg58
S'6.4'
p959
sg60
S'2.5'
p960
sg62
S'368'
p961
sg64
g65
sba(isrc.gp1.models.Per36Minutes
Per36Minutes
p962
(dp963
g8
S'4.3'
p964
sg10
S'0.0'
p965
sg12
S'.424'
p966
sg14
S'0.6'
p967
sg16
S'3.0'
p968
sg18
S'0.0'
p969
sg19
g3
sg20
S'PF'
p970
sg22
S'3.4'
p971
sg26
S'NBA'
p972
sg28
S'0.6'
p973
sg30
S'7.1'
p974
sg32
S'9.3'
p975
sg34
S'.714'
p976
sg36
S'0.9'
p977
sg38
S'22'
p978
sg40
S'TOR'
p979
sg42
S'21'
p980
sg44
S'2.8'
p981
sg46
S'7.1'
p982
sg48
S'4.5'
p983
sg50
S'.424'
p984
sg52
S'7.8'
p985
sg54
S'1997-98'
p986
sg56
S'3.0'
p987
sg58
S'6.9'
p988
sg60
S'3.2'
p989
sg62
S'167'
p990
sg64
g11
sba(isrc.gp1.models.Per36Minutes
Per36Minutes
p991
(dp992
g8
S'3.9'
p993
sg10
S'0.1'
p994
sg12
S'.577'
p995
sg14
S'0.9'
p996
sg16
S'.000'
p997
sg18
S'0.0'
p998
sg19
S'10.3'
p999
sg20
g129
sg22
S'.563'
p1000
sg26
S'NBA'
p1001
sg28
S'1.0'
p1002
sg30
S'7.5'
p1003
sg32
S'5.0'
p1004
sg34
S'2.9'
p1005
sg36
S'8.1'
p1006
sg38
S'23'
p1007
sg40
S'TOR'
p1008
sg42
S'39'
p1009
sg44
S'0.5'
p1010
sg46
S'4.3'
p1011
sg48
S'1.6'
p1012
sg50
S'7.4'
p1013
sg52
S'4.2'
p1014
sg54
S'1998-99'
p1015
sg56
S'4.3'
p1016
sg58
S'1.3'
p1017
sg60
S'.582'
p1018
sg62
S'593'
p1019
sg64
S'11'
p1020
sba(isrc.gp1.models.Per36Minutes
Per36Minutes
p1021
(dp1022
g8
S'2.8'
p1023
sg10
S'0.1'
p1024
sg12
S'.458'
p1025
sg14
S'0.7'
p1026
sg16
S'.000'
p1027
sg18
S'0.0'
p1028
sg19
S'8.6'
p1029
sg20
g129
sg22
S'.390'
p1030
sg26
S'NBA'
p1031
sg28
S'0.9'
p1032
sg30
S'8.1'
p1033
sg32
S'8.0'
p1034
sg34
S'3.1'
p1035
sg36
S'5.7'
p1036
sg38
S'24'
p1037
sg40
S'TOR'
p1038
sg42
S'55'
p1039
sg44
S'1.1'
p1040
sg46
S'3.7'
p1041
sg48
S'1.2'
p1042
sg50
S'8.0'
p1043
sg52
S'2.9'
p1044
sg54
S'1999-00'
p1045
sg56
S'3.7'
p1046
sg58
S'1.1'
p1047
sg60
S'.462'
p1048
sg62
S'477'
p1049
sg64
g178
sba(isrc.gp1.models.Per36Minutes
Per36Minutes
p1050
(dp1051
g8
S'4.0'
p1052
sg10
S'0.0'
p1053
sg12
S'.488'
p1054
sg14
S'1.0'
p1055
sg16
S'2.9'
p1056
sg18
S'0.0'
p1057
sg19
g3
sg20
g129
sg22
S'2.7'
p1058
sg26
S'NBA'
p1059
sg28
S'0.9'
p1060
sg30
S'5.9'
p1061
sg32
S'7.7'
p1062
sg34
S'.587'
p1063
sg36
S'1.2'
p1064
sg38
S'29'
p1065
sg40
S'MIN'
p1066
sg42
S'44'
p1067
sg44
S'1.2'
p1068
sg46
S'5.9'
p1069
sg48
S'3.2'
p1070
sg50
S'.488'
p1071
sg52
S'6.7'
p1072
sg54
S'2004-05'
p1073
sg56
S'2.9'
p1074
sg58
S'5.7'
p1075
sg60
S'1.9'
p1076
sg62
S'521'
p1077
sg64
g226
sba(isrc.gp1.models.Per36Minutes
Per36Minutes
p1078
(dp1079
g8
S'2.8'
p1080
sg10
S'0.0'
p1081
sg12
S'.400'
p1082
sg14
S'0.9'
p1083
sg16
S'1.7'
p1084
sg18
S'0.0'
p1085
sg19
g3
sg20
g129
sg22
S'2.8'
p1086
sg26
S'NBA'
p1087
sg28
S'0.6'
p1088
sg30
S'4.3'
p1089
sg32
S'4.3'
p1090
sg34
S'.750'
p1091
sg36
S'0.6'
p1092
sg38
S'30'
p1093
sg40
S'TOT'
p1094
sg42
S'16'
p1095
sg44
S'2.3'
p1096
sg46
S'4.3'
p1097
sg48
S'1.1'
p1098
sg50
S'.400'
p1099
sg52
S'5.7'
p1100
sg54
S'2005-06'
p1101
sg56
S'1.7'
p1102
sg58
S'4.8'
p1103
sg60
S'0.9'
p1104
sg62
S'127'
p1105
sg64
g11
sba(isrc.gp1.models.Per36Minutes
Per36Minutes
p1106
(dp1107
g8
S'0.0'
p1108
sg10
S'0.0'
p1109
sg12
S'1.000'
p1110
sg14
S'1.4'
p1111
sg16
S'2.9'
p1112
sg18
S'0.0'
p1113
sg19
g3
sg20
g129
sg22
S'0.0'
p1114
sg26
S'NBA'
p1115
sg28
S'2.9'
p1116
sg30
S'2.9'
p1117
sg32
g3
sg34
S'0.0'
p1118
sg36
S'0.0'
p1119
sg38
S'30'
p1120
sg40
S'MEM'
p1121
sg42
g98
sg44
S'4.3'
p1122
sg46
S'2.9'
p1123
sg48
S'0.0'
p1124
sg50
S'1.000'
p1125
sg52
S'1.4'
p1126
sg54
S'2005-06'
p1127
sg56
S'2.9'
p1128
sg58
S'5.8'
p1129
sg60
S'0.0'
p1130
sg62
S'25'
p1131
sg64
g11
sba(isrc.gp1.models.Per36Minutes
Per36Minutes
p1132
(dp1133
g8
S'3.8'
p1134
sg10
S'0.0'
p1135
sg12
S'.429'
p1136
sg14
S'1.1'
p1137
sg16
S'1.6'
p1138
sg18
S'0.0'
p1139
sg19
g3
sg20
g129
sg22
S'1.6'
p1140
sg26
S'NBA'
p1141
sg28
S'0.0'
p1142
sg30
S'3.8'
p1143
sg32
S'4.9'
p1144
sg34
S'.750'
p1145
sg36
S'0.5'
p1146
sg38
S'30'
p1147
sg40
S'ATL'
p1148
sg42
S'11'
p1149
sg44
S'2.2'
p1150
sg46
S'3.8'
p1151
sg48
S'2.2'
p1152
sg50
S'.429'
p1153
sg52
S'5.5'
p1154
sg54
S'2005-06'
p1155
sg56
S'1.6'
p1156
sg58
S'5.5'
p1157
sg60
S'1.6'
p1158
sg62
S'66'
p1159
sg64
g11
sba(isrc.gp1.models.Per36Minutes
Per36Minutes
p1160
(dp1161
g8
S'10.0'
p1162
sg10
S'0.0'
p1163
sg12
S'.167'
p1164
sg14
S'1.0'
p1165
sg16
S'1.0'
p1166
sg18
S'0.0'
p1167
sg19
g3
sg20
g129
sg22
S'3.0'
p1168
sg26
S'NBA'
p1169
sg28
S'2.0'
p1170
sg30
S'6.0'
p1171
sg32
g3
sg34
S'7.0'
p1172
sg36
S'1.0'
p1173
sg38
S'30'
p1174
sg40
S'NJN'
p1175
sg42
g65
sg44
S'4.0'
p1176
sg46
S'6.0'
p1177
sg48
S'0.0'
p1178
sg50
S'.167'
p1179
sg52
S'0.0'
p1180
sg54
S'2005-06'
p1181
sg56
S'1.0'
p1182
sg58
S'2.0'
p1183
sg60
S'0.0'
p1184
sg62
S'36'
p1185
sg64
g11
sbasS'_fromYear'
p1186
S'1998'
p1187
sS'_url'
p1188
S'http://www.basketball-reference.com/players/t/thomajo02.html'
p1189
sS'_perGame'
p1190
(isrc.gp1.models.PerGame
PerGame
p1191
(dp1192
g8
S'5.0'
p1193
sg10
S'0.0'
p1194
sg12
S'.167'
p1195
sS'_effectiveFieldGalPercentage'
p1196
S'0.0'
p1197
sg14
S'0.5'
p1198
sg16
S'0.5'
p1199
sg18
S'0.0'
p1200
sg19
g3
sg20
g129
sg22
S'1.5'
p1201
sg26
S'NBA'
p1202
sg28
S'1.0'
p1203
sg32
g3
sS'_fieldGoalsttempted'
p1204
S'3.0'
p1205
sg34
S'3.5'
p1206
sg36
S'0.5'
p1207
sg38
S'30'
p1208
sg40
S'NJN'
p1209
sg42
g65
sg44
S'2.0'
p1210
sg46
S'3.0'
p1211
sg48
S'0.0'
p1212
sg50
S'.167'
p1213
sg52
S'0.0'
p1214
sg54
S'2005-06'
p1215
sg56
S'0.5'
p1216
sg58
S'1.0'
p1217
sg60
S'.167'
p1218
sg62
S'18.0'
p1219
sg64
g11
sbsS'_weight'
p1220
S'265'
p1221
sS'_dob'
p1222
S'8-9-1975'
p1223
sS'_salary'
p1224
(lp1225
(isrc.gp1.models.Salary
Salary
p1226
(dp1227
g40
S'Boston Celtics'
p1228
sg26
S'NBA'
p1229
sg1224
S'$640,440'
p1230
sg54
S'1997-98'
p1231
sba(isrc.gp1.models.Salary
Salary
p1232
(dp1233
g40
S'Toronto Raptors'
p1234
sg26
S'NBA'
p1235
sg1224
S'$737,000'
p1236
sg54
S'1998-99'
p1237
sba(isrc.gp1.models.Salary
Salary
p1238
(dp1239
g40
S'Toronto Raptors'
p1240
sg26
S'NBA'
p1241
sg1224
S'$832,560'
p1242
sg54
S'1999-00'
p1243
sba(isrc.gp1.models.Salary
Salary
p1244
(dp1245
g40
S'Atlanta Hawks'
p1246
sg26
S'NBA'
p1247
sg1224
S'$178,675'
p1248
sg54
S'2005-06'
p1249
sba(isrc.gp1.models.Salary
Salary
p1250
(dp1251
g40
S'Memphis Grizzlies'
p1252
sg26
S'NBA'
p1253
sg1224
S'$103,443'
p1254
sg54
S'2005-06'
p1255
sbasg20
S'F'
p1256
sb.