(isrc.gp1.models.Player
Player
p0
(dp1
S'_experience'
p2
S'NA'
p3
sS'_totals'
p4
(lp5
(isrc.gp1.models.Totals
Totals
p6
(dp7
S'_offensiveRebounds'
p8
S'8'
p9
sS'_threePointsAttempted'
p10
S'6'
p11
sS'_fieldGoalsPercentage'
p12
S'.238'
p13
sS'_assist'
p14
S'64'
p15
sS'_threePointsPercentage'
p16
S'.167'
p17
sS'_threePoints'
p18
S'1'
p19
sS'_points'
p20
S'54'
p21
sS'_position'
p22
S'PG'
p23
sS'_freeThrowsPercentage'
p24
S'.765'
p25
sS'_effectiveFieldGoalPercentage'
p26
S'.244'
p27
sS'_league'
p28
S'NBA'
p29
sS'_steals'
p30
S'17'
p31
sS'_fieldGoalsAttempted'
p32
S'84'
p33
sS'_personalFouls'
p34
S'49'
p35
sS'_freeThrowsAttempted'
p36
S'17'
p37
sS'_totalRebounds'
p38
S'28'
p39
sS'_age'
p40
S'23'
p41
sS'_team'
p42
S'UTA'
p43
sS'_games'
p44
S'48'
p45
sS'_blocks'
p46
S'2'
p47
sS'_twoPoints'
p48
S'19'
p49
sS'_freeThrows'
p50
S'13'
p51
sS'_twoPointsAttempted'
p52
S'78'
p53
sS'_defensiveRebounds'
p54
S'20'
p55
sS'_season'
p56
S'1989-90'
p57
sS'_fieldGoals'
p58
S'20'
p59
sS'_turnOvers'
p60
S'26'
p61
sS'_twoPointsPercentage'
p62
S'.244'
p63
sS'_minutesPlayed'
p64
S'272'
p65
sS'_gamesStarted'
p66
g47
sbasS'_college'
p67
S'University of Nebraska'
p68
sS'_toYear'
p69
S'1990'
p70
sS'_height'
p71
S'6-2'
p72
sS'_active'
p73
I00
sS'_shootingHand'
p74
VRight
p75
sS'_name'
p76
S'Eric Johnson'
p77
sS'_per100Possessions'
p78
(lp79
(isrc.gp1.models.Per100Possession
Per100Possession
p80
(dp81
g8
S'1.5'
p82
sg10
S'1.1'
p83
sg12
S'.238'
p84
sS'_offensiveRating'
p85
S'77'
p86
sg14
S'11.8'
p87
sg16
S'.167'
p88
sg18
S'0.2'
p89
sg20
S'9.9'
p90
sg22
S'PG'
p91
sS'_defensiveRating'
p92
S'105'
p93
sg24
S'.765'
p94
sg28
S'NBA'
p95
sg30
S'3.1'
p96
sg32
S'15.4'
p97
sg34
S'9.0'
p98
sg36
S'3.1'
p99
sg38
S'5.1'
p100
sg40
S'23'
p101
sg42
S'UTA'
p102
sg44
S'48'
p103
sg46
S'0.4'
p104
sg48
S'3.5'
p105
sg50
S'2.4'
p106
sg52
S'14.3'
p107
sg54
S'3.7'
p108
sg56
S'1989-90'
p109
sg58
S'3.7'
p110
sg60
S'4.8'
p111
sg62
S'.244'
p112
sg64
S'272'
p113
sg66
g47
sbasS'_advanced'
p114
(lp115
(isrc.gp1.models.Advanced
Advanced
p116
(dp117
S'_offensiveReboundPercentage'
p118
S'3.7'
p119
sS'_turnOverPercentage'
p120
S'22.1'
p121
sS'_winSharesPer48Minutes'
p122
S'-0.065'
p123
sS'_stealPercentage'
p124
S'3.1'
p125
sS'_usagePercentage'
p126
S'18.8'
p127
sS'_totalReboundsPercentage'
p128
S'6.0'
p129
sS'_defensiveBoxPlusMinus'
p130
S'0.3'
p131
sg22
S'PG'
p132
sS'_valueOverReplacementPlayer'
p133
S'-0.3'
p134
sS'_trueShootingPercentage'
p135
S'.295'
p136
sS'_defensiveReboundPercentage'
p137
S'8.1'
p138
sS'_freeThrowsAttempRate'
p139
S'.202'
p140
sS'_threePointsAttempRate'
p141
S'.071'
p142
sg28
S'NBA'
p143
sS'_offensiveBoxPlusMinues'
p144
S'-6.6'
p145
sS'_assistPercentage'
p146
S'30.7'
p147
sS'_defensiveWinShares'
p148
S'0.4'
p149
sg40
S'23'
p150
sg42
S'UTA'
p151
sg44
S'48'
p152
sS'_blockPercentage'
p153
S'0.5'
p154
sS'_playerEfficiencyRating'
p155
S'4.6'
p156
sS'_offensiveWinShares'
p157
S'-0.8'
p158
sg64
S'272'
p159
sS'_boxPlusMinus'
p160
S'-6.2'
p161
sg56
S'1989-90'
p162
sS'_winShares'
p163
S'-0.4'
p164
sbasS'_per36Minutes'
p165
(lp166
(isrc.gp1.models.Per36Minutes
Per36Minutes
p167
(dp168
g8
S'1.1'
p169
sg10
S'0.8'
p170
sg12
S'.238'
p171
sg14
S'8.5'
p172
sg16
S'.167'
p173
sg18
S'0.1'
p174
sg20
S'7.1'
p175
sg22
S'PG'
p176
sg24
S'.765'
p177
sg28
S'NBA'
p178
sg30
S'2.3'
p179
sg32
S'11.1'
p180
sg34
S'6.5'
p181
sg36
S'2.3'
p182
sg38
S'3.7'
p183
sg40
S'23'
p184
sg42
S'UTA'
p185
sg44
S'48'
p186
sg46
S'0.3'
p187
sg48
S'2.5'
p188
sg50
S'1.7'
p189
sg52
S'10.3'
p190
sg54
S'2.6'
p191
sg56
S'1989-90'
p192
sg58
S'2.6'
p193
sg60
S'3.4'
p194
sg62
S'.244'
p195
sg64
S'272'
p196
sg66
g47
sbasS'_fromYear'
p197
S'1990'
p198
sS'_url'
p199
S'http://www.basketball-reference.com/players/j/johnser01.html'
p200
sS'_perGame'
p201
(isrc.gp1.models.PerGame
PerGame
p202
(dp203
g8
S'0.2'
p204
sg10
S'0.1'
p205
sg12
S'.238'
p206
sS'_effectiveFieldGalPercentage'
p207
S'.244'
p208
sg14
S'1.3'
p209
sg16
S'.167'
p210
sg18
S'0.0'
p211
sg20
S'1.1'
p212
sg22
S'PG'
p213
sg24
S'.765'
p214
sg28
S'NBA'
p215
sg30
S'0.4'
p216
sg34
S'1.0'
p217
sS'_fieldGoalsttempted'
p218
S'1.8'
p219
sg36
S'0.4'
p220
sg38
S'0.6'
p221
sg40
S'23'
p222
sg42
S'UTA'
p223
sg44
S'48'
p224
sg46
S'0.0'
p225
sg48
S'0.4'
p226
sg50
S'0.3'
p227
sg52
S'1.6'
p228
sg54
S'0.4'
p229
sg56
S'1989-90'
p230
sg58
S'0.4'
p231
sg60
S'0.5'
p232
sg62
S'.244'
p233
sg64
S'5.7'
p234
sg66
g47
sbsS'_weight'
p235
S'205'
p236
sS'_dob'
p237
S'7-2-1966'
p238
sS'_salary'
p239
(lp240
sg22
S'G'
p241
sb.