(isrc.gp1.models.Player
Player
p0
(dp1
S'_experience'
p2
S'NA'
p3
sS'_totals'
p4
(lp5
(isrc.gp1.models.Totals
Totals
p6
(dp7
S'_offensiveRebounds'
p8
S'323'
p9
sS'_threePointsAttempted'
p10
S'22'
p11
sS'_fieldGoalsPercentage'
p12
S'.490'
p13
sS'_assist'
p14
S'292'
p15
sS'_threePointsPercentage'
p16
S'.227'
p17
sS'_threePoints'
p18
S'5'
p19
sS'_points'
p20
S'1576'
p21
sS'_position'
p22
S'PF'
p23
sS'_freeThrowsPercentage'
p24
S'.829'
p25
sS'_effectiveFieldGoalPercentage'
p26
S'.492'
p27
sS'_league'
p28
S'NBA'
p29
sS'_steals'
p30
S'81'
p31
sS'_fieldGoalsAttempted'
p32
S'1258'
p33
sS'_personalFouls'
p34
S'225'
p35
sS'_freeThrowsAttempted'
p36
S'409'
p37
sS'_totalRebounds'
p38
S'899'
p39
sS'_age'
p40
S'22'
p41
sS'_team'
p42
S'CHH'
p43
sS'_games'
p44
S'82'
p45
sS'_blocks'
p46
S'51'
p47
sS'_twoPoints'
p48
S'611'
p49
sS'_freeThrows'
p50
S'339'
p51
sS'_twoPointsAttempted'
p52
S'1236'
p53
sS'_defensiveRebounds'
p54
S'576'
p55
sS'_season'
p56
S'1991-92'
p57
sS'_fieldGoals'
p58
S'616'
p59
sS'_turnOvers'
p60
S'160'
p61
sS'_twoPointsPercentage'
p62
S'.494'
p63
sS'_minutesPlayed'
p64
S'3047'
p65
sS'_gamesStarted'
p66
S'77'
p67
sba(isrc.gp1.models.Totals
Totals
p68
(dp69
g8
S'281'
p70
sg10
S'71'
p71
sg12
S'.526'
p72
sg14
S'353'
p73
sg16
S'.254'
p74
sg18
S'18'
p75
sg20
S'1810'
p76
sg22
S'PF'
p77
sg24
S'.767'
p78
sg26
S'.532'
p79
sg28
S'NBA'
p80
sg30
S'53'
p81
sg32
S'1385'
p82
sg34
S'187'
p83
sg36
S'438'
p84
sg38
S'864'
p85
sg40
S'23'
p86
sg42
S'CHH'
p87
sg44
S'82'
p88
sg46
S'27'
p89
sg48
S'710'
p90
sg50
S'336'
p91
sg52
S'1314'
p92
sg54
S'583'
p93
sg56
S'1992-93'
p94
sg58
S'728'
p95
sg60
S'227'
p96
sg62
S'.540'
p97
sg64
S'3323'
p98
sg66
S'82'
p99
sba(isrc.gp1.models.Totals
Totals
p100
(dp101
g8
S'143'
p102
sg10
S'21'
p103
sg12
S'.515'
p104
sg14
S'184'
p105
sg16
S'.238'
p106
sg18
g19
sg20
S'834'
p107
sg22
S'PF'
p108
sg24
S'.695'
p109
sg26
S'.519'
p110
sg28
S'NBA'
p111
sg30
S'29'
p112
sg32
S'672'
p113
sg34
S'131'
p114
sg36
S'197'
p115
sg38
S'448'
p116
sg40
S'24'
p117
sg42
S'CHH'
p118
sg44
S'51'
p119
sg46
S'14'
p120
sg48
S'341'
p121
sg50
S'137'
p122
sg52
S'651'
p123
sg54
S'305'
p124
sg56
S'1993-94'
p125
sg58
S'346'
p126
sg60
S'116'
p127
sg62
S'.524'
p128
sg64
S'1757'
p129
sg66
S'51'
p130
sba(isrc.gp1.models.Totals
Totals
p131
(dp132
g8
S'190'
p133
sg10
S'210'
p134
sg12
S'.480'
p135
sg14
S'369'
p136
sg16
S'.386'
p137
sg18
S'81'
p138
sg20
S'1525'
p139
sg22
S'PF'
p140
sg24
S'.774'
p141
sg26
S'.513'
p142
sg28
S'NBA'
p143
sg30
S'78'
p144
sg32
S'1219'
p145
sg34
S'174'
p146
sg36
S'354'
p147
sg38
S'585'
p148
sg40
S'25'
p149
sg42
S'CHH'
p150
sg44
S'81'
p151
sg46
S'28'
p152
sg48
S'504'
p153
sg50
S'274'
p154
sg52
S'1009'
p155
sg54
S'395'
p156
sg56
S'1994-95'
p157
sg58
S'585'
p158
sg60
S'207'
p159
sg62
S'.500'
p160
sg64
S'3234'
p161
sg66
S'81'
p162
sba(isrc.gp1.models.Totals
Totals
p163
(dp164
g8
S'249'
p165
sg10
S'183'
p166
sg12
S'.476'
p167
sg14
S'355'
p168
sg16
S'.366'
p169
sg18
S'67'
p170
sg20
S'1660'
p171
sg22
S'PF'
p172
sg24
S'.757'
p173
sg26
S'.503'
p174
sg28
S'NBA'
p175
sg30
S'55'
p176
sg32
S'1225'
p177
sg34
S'173'
p178
sg36
S'564'
p179
sg38
S'683'
p180
sg40
S'26'
p181
sg42
S'CHH'
p182
sg44
S'81'
p183
sg46
S'43'
p184
sg48
S'516'
p185
sg50
S'427'
p186
sg52
S'1042'
p187
sg54
S'434'
p188
sg56
S'1995-96'
p189
sg58
S'583'
p190
sg60
S'182'
p191
sg62
S'.495'
p192
sg64
S'3274'
p193
sg66
S'81'
p194
sba(isrc.gp1.models.Totals
Totals
p195
(dp196
g8
S'165'
p197
sg10
S'105'
p198
sg12
S'.512'
p199
sg14
S'174'
p200
sg16
S'.324'
p201
sg18
S'34'
p202
sg20
S'976'
p203
sg22
S'SF'
p204
sg24
S'.693'
p205
sg26
S'.535'
p206
sg28
S'NBA'
p207
sg30
S'64'
p208
sg32
S'735'
p209
sg34
S'249'
p210
sg36
S'274'
p211
sg38
S'393'
p212
sg40
S'27'
p213
sg42
S'NYK'
p214
sg44
S'76'
p215
sg46
S'36'
p216
sg48
S'342'
p217
sg50
S'190'
p218
sg52
S'630'
p219
sg54
S'228'
p220
sg56
S'1996-97'
p221
sg58
S'376'
p222
sg60
S'136'
p223
sg62
S'.543'
p224
sg64
S'2613'
p225
sg66
S'76'
p226
sba(isrc.gp1.models.Totals
Totals
p227
(dp228
g8
S'175'
p229
sg10
S'63'
p230
sg12
S'.485'
p231
sg14
S'150'
p232
sg16
S'.238'
p233
sg18
S'15'
p234
sg20
S'1087'
p235
sg22
S'SF'
p236
sg24
S'.756'
p237
sg26
S'.494'
p238
sg28
S'NBA'
p239
sg30
S'40'
p240
sg32
S'884'
p241
sg34
S'193'
p242
sg36
S'283'
p243
sg38
S'401'
p244
sg40
S'28'
p245
sg42
S'NYK'
p246
sg44
S'70'
p247
sg46
S'13'
p248
sg48
S'414'
p249
sg50
S'214'
p250
sg52
S'821'
p251
sg54
S'226'
p252
sg56
S'1997-98'
p253
sg58
S'429'
p254
sg60
S'127'
p255
sg62
S'.504'
p256
sg64
S'2412'
p257
sg66
S'70'
p258
sba(isrc.gp1.models.Totals
Totals
p259
(dp260
g8
S'91'
p261
sg10
S'92'
p262
sg12
S'.459'
p263
sg14
S'119'
p264
sg16
S'.359'
p265
sg18
S'33'
p266
sg20
S'587'
p267
sg22
S'PF'
p268
sg24
S'.817'
p269
sg26
S'.495'
p270
sg28
S'NBA'
p271
sg30
S'34'
p272
sg32
S'458'
p273
sg34
S'147'
p274
sg36
S'164'
p275
sg38
S'284'
p276
sg40
S'29'
p277
sg42
S'NYK'
p278
sg44
S'49'
p279
sg46
S'10'
p280
sg48
S'177'
p281
sg50
S'134'
p282
sg52
S'366'
p283
sg54
S'193'
p284
sg56
S'1998-99'
p285
sg58
S'210'
p286
sg60
S'89'
p287
sg62
S'.484'
p288
sg64
S'1639'
p289
sg66
S'48'
p290
sba(isrc.gp1.models.Totals
Totals
p291
(dp292
g8
S'87'
p293
sg10
S'174'
p294
sg12
S'.433'
p295
sg14
S'175'
p296
sg16
S'.333'
p297
sg18
S'58'
p298
sg20
S'750'
p299
sg22
S'PF'
p300
sg24
S'.766'
p301
sg26
S'.477'
p302
sg28
S'NBA'
p303
sg30
S'42'
p304
sg32
S'652'
p305
sg34
S'205'
p306
sg36
S'167'
p307
sg38
S'380'
p308
sg40
S'30'
p309
sg42
S'NYK'
p310
sg44
S'70'
p311
sg46
S'7'
p312
sg48
S'224'
p313
sg50
S'128'
p314
sg52
S'478'
p315
sg54
S'293'
p316
sg56
S'1999-00'
p317
sg58
S'282'
p318
sg60
S'94'
p319
sg62
S'.469'
p320
sg64
S'2281'
p321
sg66
S'68'
p322
sba(isrc.gp1.models.Totals
Totals
p323
(dp324
g8
S'90'
p325
sg10
S'163'
p326
sg12
S'.411'
p327
sg14
S'127'
p328
sg16
S'.313'
p329
sg18
S'51'
p330
sg20
S'645'
p331
sg22
S'PF'
p332
sg24
S'.797'
p333
sg26
S'.454'
p334
sg28
S'NBA'
p335
sg30
S'39'
p336
sg32
S'598'
p337
sg34
S'209'
p338
sg36
S'128'
p339
sg38
S'363'
p340
sg40
S'31'
p341
sg42
S'NYK'
p342
sg44
S'65'
p343
sg46
S'29'
p344
sg48
S'195'
p345
sg50
S'102'
p346
sg52
S'435'
p347
sg54
S'273'
p348
sg56
S'2000-01'
p349
sg58
S'246'
p350
sg60
S'97'
p351
sg62
S'.448'
p352
sg64
S'2105'
p353
sg66
S'65'
p354
sbasS'_college'
p355
S'University of Nevada, Las Vegas'
p356
sS'_toYear'
p357
S'2001'
p358
sS'_height'
p359
S'6-6'
p360
sS'_active'
p361
I00
sS'_shootingHand'
p362
VRight
p363
sS'_name'
p364
S'Larry Johnson'
p365
sS'_per100Possessions'
p366
(lp367
(isrc.gp1.models.Per100Possession
Per100Possession
p368
(dp369
g8
S'5.0'
p370
sg10
S'0.3'
p371
sg12
S'.490'
p372
sS'_offensiveRating'
p373
S'116'
p374
sg14
S'4.5'
p375
sg16
S'.227'
p376
sg18
S'0.1'
p377
sg20
S'24.4'
p378
sg22
S'PF'
p379
sS'_defensiveRating'
p380
S'110'
p381
sg24
S'.829'
p382
sg28
S'NBA'
p383
sg30
S'1.3'
p384
sg32
S'19.5'
p385
sg34
S'3.5'
p386
sg36
S'6.3'
p387
sg38
S'13.9'
p388
sg40
S'22'
p389
sg42
S'CHH'
p390
sg44
S'82'
p391
sg46
S'0.8'
p392
sg48
S'9.5'
p393
sg50
S'5.3'
p394
sg52
S'19.2'
p395
sg54
S'8.9'
p396
sg56
S'1991-92'
p397
sg58
S'9.5'
p398
sg60
S'2.5'
p399
sg62
S'.494'
p400
sg64
S'3047'
p401
sg66
S'77'
p402
sba(isrc.gp1.models.Per100Possession
Per100Possession
p403
(dp404
g8
S'4.0'
p405
sg10
S'1.0'
p406
sg12
S'.526'
p407
sg373
S'115'
p408
sg14
S'5.1'
p409
sg16
S'.254'
p410
sg18
S'0.3'
p411
sg20
S'26.1'
p412
sg22
S'PF'
p413
sg380
S'110'
p414
sg24
S'.767'
p415
sg28
S'NBA'
p416
sg30
S'0.8'
p417
sg32
S'20.0'
p418
sg34
S'2.7'
p419
sg36
S'6.3'
p420
sg38
S'12.5'
p421
sg40
S'23'
p422
sg42
S'CHH'
p423
sg44
S'82'
p424
sg46
S'0.4'
p425
sg48
S'10.2'
p426
sg50
S'4.8'
p427
sg52
S'18.9'
p428
sg54
S'8.4'
p429
sg56
S'1992-93'
p430
sg58
S'10.5'
p431
sg60
S'3.3'
p432
sg62
S'.540'
p433
sg64
S'3323'
p434
sg66
S'82'
p435
sba(isrc.gp1.models.Per100Possession
Per100Possession
p436
(dp437
g8
S'4.0'
p438
sg10
S'0.6'
p439
sg12
S'.515'
p440
sg373
S'110'
p441
sg14
S'5.2'
p442
sg16
S'.238'
p443
sg18
S'0.1'
p444
sg20
S'23.4'
p445
sg22
S'PF'
p446
sg380
S'109'
p447
sg24
S'.695'
p448
sg28
S'NBA'
p449
sg30
S'0.8'
p450
sg32
S'18.8'
p451
sg34
S'3.7'
p452
sg36
S'5.5'
p453
sg38
S'12.5'
p454
sg40
S'24'
p455
sg42
S'CHH'
p456
sg44
S'51'
p457
sg46
S'0.4'
p458
sg48
S'9.6'
p459
sg50
S'3.8'
p460
sg52
S'18.2'
p461
sg54
S'8.5'
p462
sg56
S'1993-94'
p463
sg58
S'9.7'
p464
sg60
S'3.2'
p465
sg62
S'.524'
p466
sg64
S'1757'
p467
sg66
S'51'
p468
sba(isrc.gp1.models.Per100Possession
Per100Possession
p469
(dp470
g8
S'3.1'
p471
sg10
S'3.4'
p472
sg12
S'.480'
p473
sg373
S'111'
p474
sg14
S'6.0'
p475
sg16
S'.386'
p476
sg18
S'1.3'
p477
sg20
S'24.8'
p478
sg22
S'PF'
p479
sg380
S'108'
p480
sg24
S'.774'
p481
sg28
S'NBA'
p482
sg30
S'1.3'
p483
sg32
S'19.8'
p484
sg34
S'2.8'
p485
sg36
S'5.8'
p486
sg38
S'9.5'
p487
sg40
S'25'
p488
sg42
S'CHH'
p489
sg44
S'81'
p490
sg46
S'0.5'
p491
sg48
S'8.2'
p492
sg50
S'4.5'
p493
sg52
S'16.4'
p494
sg54
S'6.4'
p495
sg56
S'1994-95'
p496
sg58
S'9.5'
p497
sg60
S'3.4'
p498
sg62
S'.500'
p499
sg64
S'3234'
p500
sg66
S'81'
p501
sba(isrc.gp1.models.Per100Possession
Per100Possession
p502
(dp503
g8
S'4.0'
p504
sg10
S'2.9'
p505
sg12
S'.476'
p506
sg373
S'118'
p507
sg14
S'5.7'
p508
sg16
S'.366'
p509
sg18
S'1.1'
p510
sg20
S'26.6'
p511
sg22
S'PF'
p512
sg380
S'113'
p513
sg24
S'.757'
p514
sg28
S'NBA'
p515
sg30
S'0.9'
p516
sg32
S'19.6'
p517
sg34
S'2.8'
p518
sg36
S'9.0'
p519
sg38
S'10.9'
p520
sg40
S'26'
p521
sg42
S'CHH'
p522
sg44
S'81'
p523
sg46
S'0.7'
p524
sg48
S'8.3'
p525
sg50
S'6.8'
p526
sg52
S'16.7'
p527
sg54
S'6.9'
p528
sg56
S'1995-96'
p529
sg58
S'9.3'
p530
sg60
S'2.9'
p531
sg62
S'.495'
p532
sg64
S'3274'
p533
sg66
S'81'
p534
sba(isrc.gp1.models.Per100Possession
Per100Possession
p535
(dp536
g8
S'3.3'
p537
sg10
S'2.1'
p538
sg12
S'.512'
p539
sg373
S'113'
p540
sg14
S'3.5'
p541
sg16
S'.324'
p542
sg18
S'0.7'
p543
sg20
S'19.8'
p544
sg22
S'SF'
p545
sg380
S'104'
p546
sg24
S'.693'
p547
sg28
S'NBA'
p548
sg30
S'1.3'
p549
sg32
S'14.9'
p550
sg34
S'5.1'
p551
sg36
S'5.6'
p552
sg38
S'8.0'
p553
sg40
S'27'
p554
sg42
S'NYK'
p555
sg44
S'76'
p556
sg46
S'0.7'
p557
sg48
S'6.9'
p558
sg50
S'3.9'
p559
sg52
S'12.8'
p560
sg54
S'4.6'
p561
sg56
S'1996-97'
p562
sg58
S'7.6'
p563
sg60
S'2.8'
p564
sg62
S'.543'
p565
sg64
S'2613'
p566
sg66
S'76'
p567
sba(isrc.gp1.models.Per100Possession
Per100Possession
p568
(dp569
g8
S'3.9'
p570
sg10
S'1.4'
p571
sg12
S'.485'
p572
sg373
S'109'
p573
sg14
S'3.4'
p574
sg16
S'.238'
p575
sg18
S'0.3'
p576
sg20
S'24.5'
p577
sg22
S'SF'
p578
sg380
S'104'
p579
sg24
S'.756'
p580
sg28
S'NBA'
p581
sg30
S'0.9'
p582
sg32
S'19.9'
p583
sg34
S'4.4'
p584
sg36
S'6.4'
p585
sg38
S'9.0'
p586
sg40
S'28'
p587
sg42
S'NYK'
p588
sg44
S'70'
p589
sg46
S'0.3'
p590
sg48
S'9.3'
p591
sg50
S'4.8'
p592
sg52
S'18.5'
p593
sg54
S'5.1'
p594
sg56
S'1997-98'
p595
sg58
S'9.7'
p596
sg60
S'2.9'
p597
sg62
S'.504'
p598
sg64
S'2412'
p599
sg66
S'70'
p600
sba(isrc.gp1.models.Per100Possession
Per100Possession
p601
(dp602
g8
S'3.1'
p603
sg10
S'3.1'
p604
sg12
S'.459'
p605
sg373
S'109'
p606
sg14
S'4.0'
p607
sg16
S'.359'
p608
sg18
S'1.1'
p609
sg20
S'19.8'
p610
sg22
S'PF'
p611
sg380
S'100'
p612
sg24
S'.817'
p613
sg28
S'NBA'
p614
sg30
S'1.1'
p615
sg32
S'15.4'
p616
sg34
S'5.0'
p617
sg36
S'5.5'
p618
sg38
S'9.6'
p619
sg40
S'29'
p620
sg42
S'NYK'
p621
sg44
S'49'
p622
sg46
S'0.3'
p623
sg48
S'6.0'
p624
sg50
S'4.5'
p625
sg52
S'12.3'
p626
sg54
S'6.5'
p627
sg56
S'1998-99'
p628
sg58
S'7.1'
p629
sg60
S'3.0'
p630
sg62
S'.484'
p631
sg64
S'1639'
p632
sg66
S'48'
p633
sba(isrc.gp1.models.Per100Possession
Per100Possession
p634
(dp635
g8
S'2.1'
p636
sg10
S'4.1'
p637
sg12
S'.433'
p638
sg373
S'105'
p639
sg14
S'4.1'
p640
sg16
S'.333'
p641
sg18
S'1.4'
p642
sg20
S'17.7'
p643
sg22
S'PF'
p644
sg380
S'103'
p645
sg24
S'.766'
p646
sg28
S'NBA'
p647
sg30
S'1.0'
p648
sg32
S'15.4'
p649
sg34
S'4.8'
p650
sg36
S'3.9'
p651
sg38
S'9.0'
p652
sg40
S'30'
p653
sg42
S'NYK'
p654
sg44
S'70'
p655
sg46
S'0.2'
p656
sg48
S'5.3'
p657
sg50
S'3.0'
p658
sg52
S'11.3'
p659
sg54
S'6.9'
p660
sg56
S'1999-00'
p661
sg58
S'6.7'
p662
sg60
S'2.2'
p663
sg62
S'.469'
p664
sg64
S'2281'
p665
sg66
S'68'
p666
sba(isrc.gp1.models.Per100Possession
Per100Possession
p667
(dp668
g8
S'2.4'
p669
sg10
S'4.3'
p670
sg12
S'.411'
p671
sg373
S'99'
p672
sg14
S'3.3'
p673
sg16
S'.313'
p674
sg18
S'1.3'
p675
sg20
S'17.0'
p676
sg22
S'PF'
p677
sg380
S'99'
p678
sg24
S'.797'
p679
sg28
S'NBA'
p680
sg30
S'1.0'
p681
sg32
S'15.7'
p682
sg34
S'5.5'
p683
sg36
S'3.4'
p684
sg38
S'9.5'
p685
sg40
S'31'
p686
sg42
S'NYK'
p687
sg44
S'65'
p688
sg46
S'0.8'
p689
sg48
S'5.1'
p690
sg50
S'2.7'
p691
sg52
S'11.4'
p692
sg54
S'7.2'
p693
sg56
S'2000-01'
p694
sg58
S'6.5'
p695
sg60
S'2.6'
p696
sg62
S'.448'
p697
sg64
S'2105'
p698
sg66
S'65'
p699
sbasS'_advanced'
p700
(lp701
(isrc.gp1.models.Advanced
Advanced
p702
(dp703
S'_offensiveReboundPercentage'
p704
S'11.2'
p705
sS'_turnOverPercentage'
p706
S'10.0'
p707
sS'_winSharesPer48Minutes'
p708
S'.140'
p709
sS'_stealPercentage'
p710
S'1.3'
p711
sS'_usagePercentage'
p712
S'21.2'
p713
sS'_totalReboundsPercentage'
p714
S'15.9'
p715
sS'_defensiveBoxPlusMinus'
p716
S'0.4'
p717
sg22
S'PF'
p718
sS'_valueOverReplacementPlayer'
p719
S'3.7'
p720
sS'_trueShootingPercentage'
p721
S'.548'
p722
sS'_defensiveReboundPercentage'
p723
S'20.7'
p724
sS'_freeThrowsAttempRate'
p725
S'.325'
p726
sS'_threePointsAttempRate'
p727
S'.017'
p728
sg28
S'NBA'
p729
sS'_offensiveBoxPlusMinues'
p730
S'2.4'
p731
sS'_assistPercentage'
p732
S'13.5'
p733
sS'_defensiveWinShares'
p734
S'2.5'
p735
sg40
S'22'
p736
sg42
S'CHH'
p737
sg44
S'82'
p738
sS'_blockPercentage'
p739
S'1.0'
p740
sS'_playerEfficiencyRating'
p741
S'18.9'
p742
sS'_offensiveWinShares'
p743
S'6.4'
p744
sg64
S'3047'
p745
sS'_boxPlusMinus'
p746
S'2.8'
p747
sg56
S'1991-92'
p748
sS'_winShares'
p749
S'8.9'
p750
sba(isrc.gp1.models.Advanced
Advanced
p751
(dp752
g704
S'9.6'
p753
sg706
S'12.6'
p754
sg708
S'.139'
p755
sg710
S'0.8'
p756
sg712
S'22.4'
p757
sg714
S'14.0'
p758
sg716
S'0.1'
p759
sg22
S'PF'
p760
sg719
S'4.6'
p761
sg721
S'.574'
p762
sg723
S'18.0'
p763
sg725
S'.316'
p764
sg727
S'.051'
p765
sg28
S'NBA'
p766
sg730
S'3.3'
p767
sg732
S'15.9'
p768
sg734
S'2.5'
p769
sg40
S'23'
p770
sg42
S'CHH'
p771
sg44
S'82'
p772
sg739
S'0.5'
p773
sg741
S'18.9'
p774
sg743
S'7.1'
p775
sg64
S'3323'
p776
sg746
S'3.4'
p777
sg56
S'1992-93'
p778
sg749
S'9.6'
p779
sba(isrc.gp1.models.Advanced
Advanced
p780
(dp781
g704
S'9.3'
p782
sg706
S'13.3'
p783
sg708
S'.106'
p784
sg710
S'0.8'
p785
sg712
S'21.2'
p786
sg714
S'14.1'
p787
sg716
S'-0.2'
p788
sg22
S'PF'
p789
sg719
S'1.5'
p790
sg721
S'.550'
p791
sg723
S'18.6'
p792
sg725
S'.293'
p793
sg727
S'.031'
p794
sg28
S'NBA'
p795
sg730
S'1.6'
p796
sg732
S'16.0'
p797
sg734
S'1.1'
p798
sg40
S'24'
p799
sg42
S'CHH'
p800
sg44
S'51'
p801
sg739
S'0.5'
p802
sg741
S'16.8'
p803
sg743
S'2.8'
p804
sg64
S'1757'
p805
sg746
S'1.4'
p806
sg56
S'1993-94'
p807
sg749
S'3.9'
p808
sba(isrc.gp1.models.Advanced
Advanced
p809
(dp810
g704
S'7.3'
p811
sg706
S'13.1'
p812
sg708
S'.126'
p813
sg710
S'1.3'
p814
sg712
S'22.6'
p815
sg714
S'10.7'
p816
sg716
S'0.8'
p817
sg22
S'PF'
p818
sg719
S'4.0'
p819
sg721
S'.555'
p820
sg723
S'13.8'
p821
sg725
S'.290'
p822
sg727
S'.172'
p823
sg28
S'NBA'
p824
sg730
S'2.1'
p825
sg732
S'19.4'
p826
sg734
S'3.6'
p827
sg40
S'25'
p828
sg42
S'CHH'
p829
sg44
S'81'
p830
sg739
S'0.6'
p831
sg741
S'17.1'
p832
sg743
S'4.9'
p833
sg64
S'3234'
p834
sg746
S'2.9'
p835
sg56
S'1994-95'
p836
sg749
S'8.5'
p837
sba(isrc.gp1.models.Advanced
Advanced
p838
(dp839
g704
S'9.0'
p840
sg706
S'11.0'
p841
sg708
S'.149'
p842
sg710
S'0.9'
p843
sg712
S'22.9'
p844
sg714
S'12.7'
p845
sg716
S'-0.2'
p846
sg22
S'PF'
p847
sg719
S'4.5'
p848
sg721
S'.563'
p849
sg723
S'16.4'
p850
sg725
S'.460'
p851
sg727
S'.149'
p852
sg28
S'NBA'
p853
sg730
S'3.6'
p854
sg732
S'18.0'
p855
sg734
S'1.3'
p856
sg40
S'26'
p857
sg42
S'CHH'
p858
sg44
S'81'
p859
sg739
S'1.0'
p860
sg741
S'19.8'
p861
sg743
S'8.8'
p862
sg64
S'3274'
p863
sg746
S'3.4'
p864
sg56
S'1995-96'
p865
sg749
S'10.1'
p866
sba(isrc.gp1.models.Advanced
Advanced
p867
(dp868
g704
S'7.9'
p869
sg706
S'13.7'
p870
sg708
S'.141'
p871
sg710
S'1.3'
p872
sg712
S'17.5'
p873
sg714
S'9.0'
p874
sg716
S'1.4'
p875
sg22
S'SF'
p876
sg719
S'2.9'
p877
sg721
S'.570'
p878
sg723
S'10.1'
p879
sg725
S'.373'
p880
sg727
S'.143'
p881
sg28
S'NBA'
p882
sg730
S'0.9'
p883
sg732
S'11.4'
p884
sg734
S'3.7'
p885
sg40
S'27'
p886
sg42
S'NYK'
p887
sg44
S'76'
p888
sg739
S'1.1'
p889
sg741
S'13.8'
p890
sg743
S'4.0'
p891
sg64
S'2613'
p892
sg746
S'2.4'
p893
sg56
S'1996-97'
p894
sg749
S'7.7'
p895
sba(isrc.gp1.models.Advanced
Advanced
p896
(dp897
g704
S'8.7'
p898
sg706
S'11.2'
p899
sg708
S'.137'
p900
sg710
S'0.9'
p901
sg712
S'22.1'
p902
sg714
S'10.0'
p903
sg716
S'0.2'
p904
sg22
S'SF'
p905
sg719
S'2.0'
p906
sg721
S'.539'
p907
sg723
S'11.3'
p908
sg725
S'.320'
p909
sg727
S'.071'
p910
sg28
S'NBA'
p911
sg730
S'1.1'
p912
sg732
S'11.4'
p913
sg734
S'2.9'
p914
sg40
S'28'
p915
sg42
S'NYK'
p916
sg44
S'70'
p917
sg739
S'0.4'
p918
sg741
S'15.8'
p919
sg743
S'4.0'
p920
sg64
S'2412'
p921
sg746
S'1.4'
p922
sg56
S'1997-98'
p923
sg749
S'6.9'
p924
sba(isrc.gp1.models.Advanced
Advanced
p925
(dp926
g704
S'6.8'
p927
sg706
S'14.4'
p928
sg708
S'.144'
p929
sg710
S'1.1'
p930
sg712
S'18.1'
p931
sg714
S'10.2'
p932
sg716
S'1.0'
p933
sg22
S'PF'
p934
sg719
S'1.9'
p935
sg721
S'.554'
p936
sg723
S'13.4'
p937
sg725
S'.358'
p938
sg727
S'.201'
p939
sg28
S'NBA'
p940
sg730
S'1.5'
p941
sg732
S'13.5'
p942
sg734
S'2.1'
p943
sg40
S'29'
p944
sg42
S'NYK'
p945
sg44
S'49'
p946
sg739
S'0.5'
p947
sg741
S'14.6'
p948
sg743
S'2.8'
p949
sg64
S'1639'
p950
sg746
S'2.5'
p951
sg56
S'1998-99'
p952
sg749
S'4.9'
p953
sba(isrc.gp1.models.Advanced
Advanced
p954
(dp955
g704
S'4.7'
p956
sg706
S'11.5'
p957
sg708
S'.107'
p958
sg710
S'1.0'
p959
sg712
S'17.0'
p960
sg714
S'9.9'
p961
sg716
S'0.9'
p962
sg22
S'PF'
p963
sg719
S'1.9'
p964
sg721
S'.517'
p965
sg723
S'14.8'
p966
sg725
S'.256'
p967
sg727
S'.267'
p968
sg28
S'NBA'
p969
sg730
S'0.4'
p970
sg732
S'12.6'
p971
sg734
S'2.7'
p972
sg40
S'30'
p973
sg42
S'NYK'
p974
sg44
S'70'
p975
sg739
S'0.2'
p976
sg741
S'12.4'
p977
sg743
S'2.3'
p978
sg64
S'2281'
p979
sg746
S'1.3'
p980
sg56
S'1999-00'
p981
sg749
S'5.1'
p982
sba(isrc.gp1.models.Advanced
Advanced
p983
(dp984
g704
S'5.3'
p985
sg706
S'12.9'
p986
sg708
S'.093'
p987
sg710
S'1.0'
p988
sg712
S'17.4'
p989
sg714
S'10.4'
p990
sg716
S'1.5'
p991
sg22
S'PF'
p992
sg719
S'1.4'
p993
sg721
S'.493'
p994
sg723
S'15.2'
p995
sg725
S'.214'
p996
sg727
S'.273'
p997
sg28
S'NBA'
p998
sg730
S'-0.7'
p999
sg732
S'10.5'
p1000
sg734
S'3.1'
p1001
sg40
S'31'
p1002
sg42
S'NYK'
p1003
sg44
S'65'
p1004
sg739
S'1.1'
p1005
sg741
S'11.2'
p1006
sg743
S'1.0'
p1007
sg64
S'2105'
p1008
sg746
S'0.7'
p1009
sg56
S'2000-01'
p1010
sg749
S'4.1'
p1011
sbasS'_per36Minutes'
p1012
(lp1013
(isrc.gp1.models.Per36Minutes
Per36Minutes
p1014
(dp1015
g8
S'3.8'
p1016
sg10
S'0.3'
p1017
sg12
S'.490'
p1018
sg14
S'3.4'
p1019
sg16
S'.227'
p1020
sg18
S'0.1'
p1021
sg20
S'18.6'
p1022
sg22
S'PF'
p1023
sg24
S'.829'
p1024
sg28
S'NBA'
p1025
sg30
S'1.0'
p1026
sg32
S'14.9'
p1027
sg34
S'2.7'
p1028
sg36
S'4.8'
p1029
sg38
S'10.6'
p1030
sg40
S'22'
p1031
sg42
S'CHH'
p1032
sg44
S'82'
p1033
sg46
S'0.6'
p1034
sg48
S'7.2'
p1035
sg50
S'4.0'
p1036
sg52
S'14.6'
p1037
sg54
S'6.8'
p1038
sg56
S'1991-92'
p1039
sg58
S'7.3'
p1040
sg60
S'1.9'
p1041
sg62
S'.494'
p1042
sg64
S'3047'
p1043
sg66
S'77'
p1044
sba(isrc.gp1.models.Per36Minutes
Per36Minutes
p1045
(dp1046
g8
S'3.0'
p1047
sg10
S'0.8'
p1048
sg12
S'.526'
p1049
sg14
S'3.8'
p1050
sg16
S'.254'
p1051
sg18
S'0.2'
p1052
sg20
S'19.6'
p1053
sg22
S'PF'
p1054
sg24
S'.767'
p1055
sg28
S'NBA'
p1056
sg30
S'0.6'
p1057
sg32
S'15.0'
p1058
sg34
S'2.0'
p1059
sg36
S'4.7'
p1060
sg38
S'9.4'
p1061
sg40
S'23'
p1062
sg42
S'CHH'
p1063
sg44
S'82'
p1064
sg46
S'0.3'
p1065
sg48
S'7.7'
p1066
sg50
S'3.6'
p1067
sg52
S'14.2'
p1068
sg54
S'6.3'
p1069
sg56
S'1992-93'
p1070
sg58
S'7.9'
p1071
sg60
S'2.5'
p1072
sg62
S'.540'
p1073
sg64
S'3323'
p1074
sg66
S'82'
p1075
sba(isrc.gp1.models.Per36Minutes
Per36Minutes
p1076
(dp1077
g8
S'2.9'
p1078
sg10
S'0.4'
p1079
sg12
S'.515'
p1080
sg14
S'3.8'
p1081
sg16
S'.238'
p1082
sg18
S'0.1'
p1083
sg20
S'17.1'
p1084
sg22
S'PF'
p1085
sg24
S'.695'
p1086
sg28
S'NBA'
p1087
sg30
S'0.6'
p1088
sg32
S'13.8'
p1089
sg34
S'2.7'
p1090
sg36
S'4.0'
p1091
sg38
S'9.2'
p1092
sg40
S'24'
p1093
sg42
S'CHH'
p1094
sg44
S'51'
p1095
sg46
S'0.3'
p1096
sg48
S'7.0'
p1097
sg50
S'2.8'
p1098
sg52
S'13.3'
p1099
sg54
S'6.2'
p1100
sg56
S'1993-94'
p1101
sg58
S'7.1'
p1102
sg60
S'2.4'
p1103
sg62
S'.524'
p1104
sg64
S'1757'
p1105
sg66
S'51'
p1106
sba(isrc.gp1.models.Per36Minutes
Per36Minutes
p1107
(dp1108
g8
S'2.1'
p1109
sg10
S'2.3'
p1110
sg12
S'.480'
p1111
sg14
S'4.1'
p1112
sg16
S'.386'
p1113
sg18
S'0.9'
p1114
sg20
S'17.0'
p1115
sg22
S'PF'
p1116
sg24
S'.774'
p1117
sg28
S'NBA'
p1118
sg30
S'0.9'
p1119
sg32
S'13.6'
p1120
sg34
S'1.9'
p1121
sg36
S'3.9'
p1122
sg38
S'6.5'
p1123
sg40
S'25'
p1124
sg42
S'CHH'
p1125
sg44
S'81'
p1126
sg46
S'0.3'
p1127
sg48
S'5.6'
p1128
sg50
S'3.1'
p1129
sg52
S'11.2'
p1130
sg54
S'4.4'
p1131
sg56
S'1994-95'
p1132
sg58
S'6.5'
p1133
sg60
S'2.3'
p1134
sg62
S'.500'
p1135
sg64
S'3234'
p1136
sg66
S'81'
p1137
sba(isrc.gp1.models.Per36Minutes
Per36Minutes
p1138
(dp1139
g8
S'2.7'
p1140
sg10
S'2.0'
p1141
sg12
S'.476'
p1142
sg14
S'3.9'
p1143
sg16
S'.366'
p1144
sg18
S'0.7'
p1145
sg20
S'18.3'
p1146
sg22
S'PF'
p1147
sg24
S'.757'
p1148
sg28
S'NBA'
p1149
sg30
S'0.6'
p1150
sg32
S'13.5'
p1151
sg34
S'1.9'
p1152
sg36
S'6.2'
p1153
sg38
S'7.5'
p1154
sg40
S'26'
p1155
sg42
S'CHH'
p1156
sg44
S'81'
p1157
sg46
S'0.5'
p1158
sg48
S'5.7'
p1159
sg50
S'4.7'
p1160
sg52
S'11.5'
p1161
sg54
S'4.8'
p1162
sg56
S'1995-96'
p1163
sg58
S'6.4'
p1164
sg60
S'2.0'
p1165
sg62
S'.495'
p1166
sg64
S'3274'
p1167
sg66
S'81'
p1168
sba(isrc.gp1.models.Per36Minutes
Per36Minutes
p1169
(dp1170
g8
S'2.3'
p1171
sg10
S'1.4'
p1172
sg12
S'.512'
p1173
sg14
S'2.4'
p1174
sg16
S'.324'
p1175
sg18
S'0.5'
p1176
sg20
S'13.4'
p1177
sg22
S'SF'
p1178
sg24
S'.693'
p1179
sg28
S'NBA'
p1180
sg30
S'0.9'
p1181
sg32
S'10.1'
p1182
sg34
S'3.4'
p1183
sg36
S'3.8'
p1184
sg38
S'5.4'
p1185
sg40
S'27'
p1186
sg42
S'NYK'
p1187
sg44
S'76'
p1188
sg46
S'0.5'
p1189
sg48
S'4.7'
p1190
sg50
S'2.6'
p1191
sg52
S'8.7'
p1192
sg54
S'3.1'
p1193
sg56
S'1996-97'
p1194
sg58
S'5.2'
p1195
sg60
S'1.9'
p1196
sg62
S'.543'
p1197
sg64
S'2613'
p1198
sg66
S'76'
p1199
sba(isrc.gp1.models.Per36Minutes
Per36Minutes
p1200
(dp1201
g8
S'2.6'
p1202
sg10
S'0.9'
p1203
sg12
S'.485'
p1204
sg14
S'2.2'
p1205
sg16
S'.238'
p1206
sg18
S'0.2'
p1207
sg20
S'16.2'
p1208
sg22
S'SF'
p1209
sg24
S'.756'
p1210
sg28
S'NBA'
p1211
sg30
S'0.6'
p1212
sg32
S'13.2'
p1213
sg34
S'2.9'
p1214
sg36
S'4.2'
p1215
sg38
S'6.0'
p1216
sg40
S'28'
p1217
sg42
S'NYK'
p1218
sg44
S'70'
p1219
sg46
S'0.2'
p1220
sg48
S'6.2'
p1221
sg50
S'3.2'
p1222
sg52
S'12.3'
p1223
sg54
S'3.4'
p1224
sg56
S'1997-98'
p1225
sg58
S'6.4'
p1226
sg60
S'1.9'
p1227
sg62
S'.504'
p1228
sg64
S'2412'
p1229
sg66
S'70'
p1230
sba(isrc.gp1.models.Per36Minutes
Per36Minutes
p1231
(dp1232
g8
S'2.0'
p1233
sg10
S'2.0'
p1234
sg12
S'.459'
p1235
sg14
S'2.6'
p1236
sg16
S'.359'
p1237
sg18
S'0.7'
p1238
sg20
S'12.9'
p1239
sg22
S'PF'
p1240
sg24
S'.817'
p1241
sg28
S'NBA'
p1242
sg30
S'0.7'
p1243
sg32
S'10.1'
p1244
sg34
S'3.2'
p1245
sg36
S'3.6'
p1246
sg38
S'6.2'
p1247
sg40
S'29'
p1248
sg42
S'NYK'
p1249
sg44
S'49'
p1250
sg46
S'0.2'
p1251
sg48
S'3.9'
p1252
sg50
S'2.9'
p1253
sg52
S'8.0'
p1254
sg54
S'4.2'
p1255
sg56
S'1998-99'
p1256
sg58
S'4.6'
p1257
sg60
S'2.0'
p1258
sg62
S'.484'
p1259
sg64
S'1639'
p1260
sg66
S'48'
p1261
sba(isrc.gp1.models.Per36Minutes
Per36Minutes
p1262
(dp1263
g8
S'1.4'
p1264
sg10
S'2.7'
p1265
sg12
S'.433'
p1266
sg14
S'2.8'
p1267
sg16
S'.333'
p1268
sg18
S'0.9'
p1269
sg20
S'11.8'
p1270
sg22
S'PF'
p1271
sg24
S'.766'
p1272
sg28
S'NBA'
p1273
sg30
S'0.7'
p1274
sg32
S'10.3'
p1275
sg34
S'3.2'
p1276
sg36
S'2.6'
p1277
sg38
S'6.0'
p1278
sg40
S'30'
p1279
sg42
S'NYK'
p1280
sg44
S'70'
p1281
sg46
S'0.1'
p1282
sg48
S'3.5'
p1283
sg50
S'2.0'
p1284
sg52
S'7.5'
p1285
sg54
S'4.6'
p1286
sg56
S'1999-00'
p1287
sg58
S'4.5'
p1288
sg60
S'1.5'
p1289
sg62
S'.469'
p1290
sg64
S'2281'
p1291
sg66
S'68'
p1292
sba(isrc.gp1.models.Per36Minutes
Per36Minutes
p1293
(dp1294
g8
S'1.5'
p1295
sg10
S'2.8'
p1296
sg12
S'.411'
p1297
sg14
S'2.2'
p1298
sg16
S'.313'
p1299
sg18
S'0.9'
p1300
sg20
S'11.0'
p1301
sg22
S'PF'
p1302
sg24
S'.797'
p1303
sg28
S'NBA'
p1304
sg30
S'0.7'
p1305
sg32
S'10.2'
p1306
sg34
S'3.6'
p1307
sg36
S'2.2'
p1308
sg38
S'6.2'
p1309
sg40
S'31'
p1310
sg42
S'NYK'
p1311
sg44
S'65'
p1312
sg46
S'0.5'
p1313
sg48
S'3.3'
p1314
sg50
S'1.7'
p1315
sg52
S'7.4'
p1316
sg54
S'4.7'
p1317
sg56
S'2000-01'
p1318
sg58
S'4.2'
p1319
sg60
S'1.7'
p1320
sg62
S'.448'
p1321
sg64
S'2105'
p1322
sg66
S'65'
p1323
sbasS'_fromYear'
p1324
S'1992'
p1325
sS'_url'
p1326
S'http://www.basketball-reference.com/players/j/johnsla02.html'
p1327
sS'_perGame'
p1328
(isrc.gp1.models.PerGame
PerGame
p1329
(dp1330
g8
S'1.4'
p1331
sg10
S'2.5'
p1332
sg12
S'.411'
p1333
sS'_effectiveFieldGalPercentage'
p1334
S'.454'
p1335
sg14
S'2.0'
p1336
sg16
S'.313'
p1337
sg18
S'0.8'
p1338
sg20
S'9.9'
p1339
sg22
S'PF'
p1340
sg24
S'.797'
p1341
sg28
S'NBA'
p1342
sg30
S'0.6'
p1343
sg34
S'3.2'
p1344
sS'_fieldGoalsttempted'
p1345
S'9.2'
p1346
sg36
S'2.0'
p1347
sg38
S'5.6'
p1348
sg40
S'31'
p1349
sg42
S'NYK'
p1350
sg44
S'65'
p1351
sg46
S'0.4'
p1352
sg48
S'3.0'
p1353
sg50
S'1.6'
p1354
sg52
S'6.7'
p1355
sg54
S'4.2'
p1356
sg56
S'2000-01'
p1357
sg58
S'3.8'
p1358
sg60
S'1.5'
p1359
sg62
S'.448'
p1360
sg64
S'32.4'
p1361
sg66
S'65'
p1362
sbsS'_weight'
p1363
S'250'
p1364
sS'_dob'
p1365
S'14-3-1969'
p1366
sS'_salary'
p1367
(lp1368
(isrc.gp1.models.Salary
Salary
p1369
(dp1370
g42
S'Charlotte Hornets'
p1371
sg28
S'NBA'
p1372
sg1367
S'$1,955,000'
p1373
sg56
S'1991-92'
p1374
sba(isrc.gp1.models.Salary
Salary
p1375
(dp1376
g42
S'Charlotte Hornets'
p1377
sg28
S'NBA'
p1378
sg1367
S'$2,540,000'
p1379
sg56
S'1992-93'
p1380
sba(isrc.gp1.models.Salary
Salary
p1381
(dp1382
g42
S'Charlotte Hornets'
p1383
sg28
S'NBA'
p1384
sg1367
S'$3,125,000'
p1385
sg56
S'1993-94'
p1386
sba(isrc.gp1.models.Salary
Salary
p1387
(dp1388
g42
S'Charlotte Hornets'
p1389
sg28
S'NBA'
p1390
sg1367
S'$3,710,000'
p1391
sg56
S'1994-95'
p1392
sba(isrc.gp1.models.Salary
Salary
p1393
(dp1394
g42
S'Charlotte Hornets'
p1395
sg28
S'NBA'
p1396
sg1367
S'$4,295,000'
p1397
sg56
S'1995-96'
p1398
sba(isrc.gp1.models.Salary
Salary
p1399
(dp1400
g42
S'New York Knicks'
p1401
sg28
S'NBA'
p1402
sg1367
S'$5,004,000'
p1403
sg56
S'1996-97'
p1404
sba(isrc.gp1.models.Salary
Salary
p1405
(dp1406
g42
S'New York Knicks'
p1407
sg28
S'NBA'
p1408
sg1367
S'$8,460,714'
p1409
sg56
S'1997-98'
p1410
sba(isrc.gp1.models.Salary
Salary
p1411
(dp1412
g42
S'New York Knicks'
p1413
sg28
S'NBA'
p1414
sg1367
S'$10,186,000'
p1415
sg56
S'1998-99'
p1416
sba(isrc.gp1.models.Salary
Salary
p1417
(dp1418
g42
S'New York Knicks'
p1419
sg28
S'NBA'
p1420
sg1367
S'$11,910,714'
p1421
sg56
S'1999-00'
p1422
sba(isrc.gp1.models.Salary
Salary
p1423
(dp1424
g42
S'New York Knicks'
p1425
sg28
S'NBA'
p1426
sg1367
S'$11,000,000'
p1427
sg56
S'2000-01'
p1428
sba(isrc.gp1.models.Salary
Salary
p1429
(dp1430
g42
S'New York Knicks'
p1431
sg28
S'NBA'
p1432
sg1367
S'$11,335,714'
p1433
sg56
S'2001-02'
p1434
sba(isrc.gp1.models.Salary
Salary
p1435
(dp1436
g42
S'New York Knicks'
p1437
sg28
S'NBA'
p1438
sg1367
S'$9,610,714'
p1439
sg56
S'2002-03'
p1440
sbasg22
S'F'
p1441
sb.