(isrc.gp1.models.Player
Player
p0
(dp1
S'_experience'
p2
S'NA'
p3
sS'_totals'
p4
(lp5
(isrc.gp1.models.Totals
Totals
p6
(dp7
S'_offensiveRebounds'
p8
S'29'
p9
sS'_threePointsAttempted'
p10
S'.438'
p11
sS'_fieldGoalsPercentage'
p12
S'277'
p13
sS'_assist'
p14
S'717'
p15
sS'_threePointsPercentage'
p16
S'.438'
p17
sS'_threePoints'
p18
S'632'
p19
sS'_points'
p20
g3
sS'_position'
p21
S'SF'
p22
sS'_freeThrowsPercentage'
p23
S'114'
p24
sS'_effectiveFieldGoalPercentage'
p25
S'177'
p26
sS'_league'
p27
S'NBA'
p28
sS'_steals'
p29
g3
sS'_fieldGoalsAttempted'
p30
S'.438'
p31
sS'_personalFouls'
p32
g3
sS'_freeThrowsAttempted'
p33
S'441'
p34
sS'_totalRebounds'
p35
S'239'
p36
sS'_age'
p37
S'22'
p38
sS'_team'
p39
S'ATL'
p40
sS'_games'
p41
S'77'
p42
sS'_blocks'
p43
g3
sS'_twoPoints'
p44
S'163'
p45
sS'_freeThrows'
p46
S'264'
p47
sS'_twoPointsAttempted'
p48
S'217'
p49
sS'_defensiveRebounds'
p50
S'16'
p51
sS'_season'
p52
S'1973-74'
p53
sS'_fieldGoals'
p54
S'632'
p55
sS'_turnOvers'
p56
g3
sS'_twoPointsPercentage'
p57
S'.751'
p58
sS'_minutesPlayed'
p59
S'277'
p60
sS'_gamesStarted'
p61
S'1715'
p62
sba(isrc.gp1.models.Totals
Totals
p63
(dp64
g8
S'54'
p65
sg10
S'.461'
p66
sg12
S'315'
p67
sg14
S'815'
p68
sg16
S'.461'
p69
sg18
S'684'
p70
sg20
g3
sg21
S'SF'
p71
sg23
S'133'
p72
sg25
S'180'
p73
sg27
S'NBA'
p74
sg29
g3
sg30
S'.461'
p75
sg32
g3
sg33
S'434'
p76
sg35
S'228'
p77
sg37
S'23'
p78
sg39
S'ATL'
p79
sg41
S'73'
p80
sg43
g3
sg44
S'185'
p81
sg46
S'254'
p82
sg48
S'250'
p83
sg50
S'15'
p84
sg52
S'1974-75'
p85
sg54
S'684'
p86
sg56
g3
sg57
S'.740'
p87
sg59
S'315'
p88
sg61
S'1986'
p89
sba(isrc.gp1.models.Totals
Totals
p90
(dp91
g8
S'45'
p92
sg10
S'.442'
p93
sg12
S'215'
p94
sg14
S'592'
p95
sg16
S'.442'
p96
sg18
S'486'
p97
sg20
g3
sg21
S'PF'
p98
sg23
S'126'
p99
sg25
S'146'
p100
sg27
S'NBA'
p101
sg29
g3
sg30
S'.442'
p102
sg32
g3
sg33
S'403'
p103
sg35
S'235'
p104
sg37
S'24'
p105
sg39
S'ATL'
p106
sg41
S'75'
p107
sg43
g3
sg44
S'162'
p108
sg46
S'257'
p109
sg48
S'209'
p110
sg50
S'16'
p111
sg52
S'1975-76'
p112
sg54
S'486'
p113
sg56
g3
sg57
S'.775'
p114
sg59
S'215'
p115
sg61
S'1758'
p116
sba(isrc.gp1.models.Totals
Totals
p117
(dp118
g8
S'46'
p119
sg10
S'.457'
p120
sg12
S'160'
p121
sg14
S'441'
p122
sg16
S'.457'
p123
sg18
S'350'
p124
sg20
g3
sg21
S'SF'
p125
sg23
S'103'
p126
sg25
S'75'
p127
sg27
S'NBA'
p128
sg29
g3
sg30
S'.457'
p129
sg32
g3
sg33
S'236'
p130
sg35
S'217'
p131
sg37
S'25'
p132
sg39
S'ATL'
p133
sg41
S'77'
p134
sg43
g3
sg44
S'121'
p135
sg46
S'161'
p136
sg48
S'150'
p137
sg50
S'7'
p138
sg52
S'1976-77'
p139
sg54
S'350'
p140
sg56
g3
sg57
S'.807'
p141
sg59
S'160'
p142
sg61
S'1405'
p143
sba(isrc.gp1.models.Totals
Totals
p144
(dp145
g8
S'55'
p146
sg10
S'.474'
p147
sg12
S'192'
p148
sg14
S'280'
p149
sg16
S'.474'
p150
sg18
S'405'
p151
sg20
g3
sg21
S'SF'
p152
sg23
S'105'
p153
sg25
S'137'
p154
sg27
S'NBA'
p155
sg29
S'549'
p156
sg30
S'.474'
p157
sg32
g3
sg33
S'303'
p158
sg35
S'116'
p159
sg37
S'26'
p160
sg39
S'ATL'
p161
sg41
S'75'
p162
sg43
g3
sg44
S'165'
p163
sg46
S'166'
p164
sg48
S'200'
p165
sg50
S'8'
p166
sg52
S'1977-78'
p167
sg54
S'405'
p168
sg56
g3
sg57
S'.825'
p169
sg59
S'192'
p170
sg61
S'1594'
p171
sba(isrc.gp1.models.Totals
Totals
p172
(dp173
g8
S'18'
p174
sg10
S'.479'
p175
sg12
S'152'
p176
sg14
S'180'
p177
sg16
S'.479'
p178
sg18
S'317'
p179
sg20
g3
sg21
S'SF'
p180
sg23
S'104'
p181
sg25
S'83'
p182
sg27
S'NBA'
p183
sg29
S'388'
p184
sg30
S'.479'
p185
sg32
g3
sg33
S'238'
p186
sg35
S'89'
p187
sg37
S'27'
p188
sg39
S'CHI'
p189
sg41
S'77'
p190
sg43
g3
sg44
S'84'
p191
sg46
S'155'
p192
sg48
S'98'
p193
sg50
S'10'
p194
sg52
S'1978-79'
p195
sg54
S'317'
p196
sg56
g3
sg57
S'.857'
p197
sg59
S'152'
p198
sg61
S'1265'
p199
sba(isrc.gp1.models.Totals
Totals
p200
(dp201
g8
S'71'
p202
sg10
S'37'
p203
sg12
S'0'
p204
sg14
S'4'
p205
sg16
S'105'
p206
sg18
g204
sg20
g3
sg21
S'SF'
p207
sg23
S'45'
p208
sg25
S'48'
p209
sg27
S'NBA'
p210
sg29
S'29'
p211
sg30
S'.352'
p212
sg32
g3
sg33
S'26'
p213
sg35
S'3'
p214
sg37
S'28'
p215
sg39
S'TOT'
p216
sg41
S'32'
p217
sg43
S'70'
p218
sg44
S'.352'
p219
sg46
S'.792'
p220
sg48
S'.352'
p221
sg50
S'18'
p222
sg52
S'1979-80'
p223
sg54
S'105'
p224
sg56
S'112'
p225
sg57
S'38'
p226
sg59
S'37'
p227
sg61
S'385'
p228
sba(isrc.gp1.models.Totals
Totals
p229
(dp230
g8
S'9'
p231
sg10
g204
sg12
g204
sg14
g204
sg16
g138
sg18
g204
sg20
g3
sg21
S'SF'
p232
sg23
g205
sg25
g205
sg27
S'NBA'
p233
sg29
S'5'
p234
sg30
S'.000'
p235
sg32
g3
sg33
g234
sg35
g204
sg37
S'28'
p236
sg39
S'UTA'
p237
sg41
g205
sg43
g205
sg44
S'.000'
p238
sg46
S'1.000'
p239
sg48
S'.000'
p240
sg50
g205
sg52
S'1979-80'
p241
sg54
g138
sg56
g205
sg57
g205
sg59
g204
sg61
S'24'
p242
sba(isrc.gp1.models.Totals
Totals
p243
(dp244
g8
S'62'
p245
sg10
S'37'
p246
sg12
g204
sg14
g205
sg16
S'98'
p247
sg18
g204
sg20
g3
sg21
S'SF'
p248
sg23
S'41'
p249
sg25
S'44'
p250
sg27
S'NBA'
p251
sg29
S'24'
p252
sg30
S'.378'
p253
sg32
g3
sg33
S'21'
p254
sg35
g214
sg37
S'28'
p255
sg39
S'ATL'
p256
sg41
S'28'
p257
sg43
S'66'
p258
sg44
S'.378'
p259
sg46
S'.773'
p260
sg48
S'.378'
p261
sg50
S'14'
p262
sg52
S'1979-80'
p263
sg54
S'98'
p264
sg56
S'108'
p265
sg57
S'34'
p266
sg59
S'37'
p267
sg61
S'361'
p268
sbasS'_college'
p269
S'University of Missouri'
p270
sS'_toYear'
p271
S'1980'
p272
sS'_height'
p273
S'6-7'
p274
sS'_active'
p275
I00
sS'_shootingHand'
p276
VRight
p277
sS'_name'
p278
S'John Brown'
p279
sS'_per100Possessions'
p280
(lp281
(isrc.gp1.models.Per100Possession
Per100Possession
p282
(dp283
g8
S'0.7'
p284
sg10
S'.438'
p285
sg12
S'7.0'
p286
sS'_offensiveRating'
p287
g3
sg14
S'18.1'
p288
sg16
S'4.1'
p289
sg18
S'16.0'
p290
sg20
g3
sg21
S'SF'
p291
sS'_defensiveRating'
p292
g3
sg23
S'2.9'
p293
sg27
S'NBA'
p294
sg29
S'101'
p295
sg30
S'.438'
p296
sg32
g3
sg33
S'11.1'
p297
sg35
S'6.0'
p298
sg37
S'22'
p299
sg39
S'ATL'
p300
sg41
S'77'
p301
sg43
g3
sg44
S'5.5'
p302
sg46
S'6.7'
p303
sg48
S'.751'
p304
sg50
S'0.4'
p305
sg52
S'1973-74'
p306
sg54
S'16.0'
p307
sg56
g3
sg57
S'4.5'
p308
sg59
S'7.0'
p309
sg61
S'1715'
p310
sba(isrc.gp1.models.Per100Possession
Per100Possession
p311
(dp312
g8
S'1.2'
p313
sg10
S'.461'
p314
sg12
S'7.2'
p315
sg287
g3
sg14
S'18.5'
p316
sg16
S'4.2'
p317
sg18
S'15.6'
p318
sg20
g3
sg21
S'SF'
p319
sg292
g3
sg23
S'3.0'
p320
sg27
S'NBA'
p321
sg29
S'101'
p322
sg30
S'.461'
p323
sg32
g3
sg33
S'9.9'
p324
sg35
S'5.2'
p325
sg37
S'23'
p326
sg39
S'ATL'
p327
sg41
S'73'
p328
sg43
g3
sg44
S'5.7'
p329
sg46
S'5.8'
p330
sg48
S'.740'
p331
sg50
S'0.3'
p332
sg52
S'1974-75'
p333
sg54
S'15.6'
p334
sg56
g3
sg57
S'4.1'
p335
sg59
S'7.2'
p336
sg61
S'1986'
p337
sba(isrc.gp1.models.Per100Possession
Per100Possession
p338
(dp339
g8
S'1.2'
p340
sg10
S'.442'
p341
sg12
S'5.7'
p342
sg287
g3
sg14
S'15.6'
p343
sg16
S'4.3'
p344
sg18
S'12.8'
p345
sg20
g3
sg21
S'PF'
p346
sg292
g3
sg23
S'3.3'
p347
sg27
S'NBA'
p348
sg29
S'102'
p349
sg30
S'.442'
p350
sg32
g3
sg33
S'10.6'
p351
sg35
S'6.2'
p352
sg37
S'24'
p353
sg39
S'ATL'
p354
sg41
S'75'
p355
sg43
g3
sg44
S'5.5'
p356
sg46
S'6.8'
p357
sg48
S'.775'
p358
sg50
S'0.4'
p359
sg52
S'1975-76'
p360
sg54
S'12.8'
p361
sg56
g3
sg57
S'3.8'
p362
sg59
S'5.7'
p363
sg61
S'1758'
p364
sba(isrc.gp1.models.Per100Possession
Per100Possession
p365
(dp366
g8
S'1.5'
p367
sg10
S'.457'
p368
sg12
S'5.2'
p369
sg287
g3
sg14
S'14.4'
p370
sg16
S'4.0'
p371
sg18
S'11.4'
p372
sg20
g3
sg21
S'SF'
p373
sg292
g3
sg23
S'3.4'
p374
sg27
S'NBA'
p375
sg29
S'103'
p376
sg30
S'.457'
p377
sg32
g3
sg33
S'7.7'
p378
sg35
S'7.1'
p379
sg37
S'25'
p380
sg39
S'ATL'
p381
sg41
S'77'
p382
sg43
g3
sg44
S'4.9'
p383
sg46
S'5.3'
p384
sg48
S'.807'
p385
sg50
S'0.2'
p386
sg52
S'1976-77'
p387
sg54
S'11.4'
p388
sg56
g3
sg57
S'2.5'
p389
sg59
S'5.2'
p390
sg61
S'1405'
p391
sba(isrc.gp1.models.Per100Possession
Per100Possession
p392
(dp393
g8
S'1.6'
p394
sg10
S'.474'
p395
sg12
S'5.6'
p396
sg287
g3
sg14
S'8.2'
p397
sg16
S'4.8'
p398
sg18
S'11.8'
p399
sg20
g3
sg21
S'SF'
p400
sg292
g3
sg23
S'3.1'
p401
sg27
S'NBA'
p402
sg29
S'16.0'
p403
sg30
S'.474'
p404
sg32
g3
sg33
S'8.8'
p405
sg35
S'3.4'
p406
sg37
S'26'
p407
sg39
S'ATL'
p408
sg41
S'75'
p409
sg43
S'106'
p410
sg44
S'5.8'
p411
sg46
S'4.8'
p412
sg48
S'.825'
p413
sg50
S'0.2'
p414
sg52
S'1977-78'
p415
sg54
S'11.8'
p416
sg56
S'102'
p417
sg57
S'4.0'
p418
sg59
S'5.6'
p419
sg61
S'1594'
p420
sba(isrc.gp1.models.Per100Possession
Per100Possession
p421
(dp422
g8
S'0.7'
p423
sg10
S'.479'
p424
sg12
S'5.6'
p425
sg287
g3
sg14
S'6.6'
p426
sg16
S'3.1'
p427
sg18
S'11.7'
p428
sg20
g3
sg21
S'SF'
p429
sg292
g3
sg23
S'3.8'
p430
sg27
S'NBA'
p431
sg29
S'14.3'
p432
sg30
S'.479'
p433
sg32
g3
sg33
S'8.8'
p434
sg35
S'3.3'
p435
sg37
S'27'
p436
sg39
S'CHI'
p437
sg41
S'77'
p438
sg43
S'103'
p439
sg44
S'3.6'
p440
sg46
S'5.7'
p441
sg48
S'.857'
p442
sg50
S'0.4'
p443
sg52
S'1978-79'
p444
sg54
S'11.7'
p445
sg56
S'107'
p446
sg57
S'3.1'
p447
sg59
S'5.6'
p448
sg61
S'1265'
p449
sba(isrc.gp1.models.Per100Possession
Per100Possession
p450
(dp451
g8
S'9.0'
p452
sg10
S'4.7'
p453
sg12
S'0.0'
p454
sg287
g3
sg14
S'0.5'
p455
sg16
S'13.2'
p456
sg18
S'0.0'
p457
sg20
S'106'
p458
sg21
S'SF'
p459
sg292
g3
sg23
S'5.7'
p460
sg27
S'NBA'
p461
sg29
S'3.7'
p462
sg30
S'.352'
p463
sg32
S'90'
p464
sg33
S'3.3'
p465
sg35
S'0.4'
p466
sg37
S'28'
p467
sg39
S'TOT'
p468
sg41
S'32'
p469
sg43
S'8.8'
p470
sg44
S'.352'
p471
sg46
S'.792'
p472
sg48
S'4.8'
p473
sg50
S'2.3'
p474
sg52
S'1979-80'
p475
sg54
S'13.2'
p476
sg56
S'14.1'
p477
sg57
S'6.1'
p478
sg59
S'4.7'
p479
sg61
S'385'
p480
sba(isrc.gp1.models.Per100Possession
Per100Possession
p481
(dp482
g8
S'18.4'
p483
sg10
S'0.0'
p484
sg12
S'0.0'
p485
sg287
g3
sg14
S'0.0'
p486
sg16
S'14.3'
p487
sg18
S'0.0'
p488
sg20
S'113'
p489
sg21
S'SF'
p490
sg292
g3
sg23
S'8.2'
p491
sg27
S'NBA'
p492
sg29
S'10.2'
p493
sg30
S'.000'
p494
sg32
S'63'
p495
sg33
S'10.2'
p496
sg35
S'0.0'
p497
sg37
S'28'
p498
sg39
S'UTA'
p499
sg41
g205
sg43
S'8.2'
p500
sg44
S'.000'
p501
sg46
S'1.000'
p502
sg48
S'8.2'
p503
sg50
S'8.2'
p504
sg52
S'1979-80'
p505
sg54
S'14.3'
p506
sg56
S'8.2'
p507
sg57
S'8.2'
p508
sg59
S'0.0'
p509
sg61
S'24'
p510
sba(isrc.gp1.models.Per100Possession
Per100Possession
p511
(dp512
g8
S'8.3'
p513
sg10
S'5.0'
p514
sg12
S'0.0'
p515
sg287
g3
sg14
S'0.5'
p516
sg16
S'13.2'
p517
sg18
S'0.0'
p518
sg20
S'106'
p519
sg21
S'SF'
p520
sg292
g3
sg23
S'5.5'
p521
sg27
S'NBA'
p522
sg29
S'3.2'
p523
sg30
S'.378'
p524
sg32
S'94'
p525
sg33
S'2.8'
p526
sg35
S'0.4'
p527
sg37
S'28'
p528
sg39
S'ATL'
p529
sg41
S'28'
p530
sg43
S'8.9'
p531
sg44
S'.378'
p532
sg46
S'.773'
p533
sg48
S'4.6'
p534
sg50
S'1.9'
p535
sg52
S'1979-80'
p536
sg54
S'13.2'
p537
sg56
S'14.5'
p538
sg57
S'5.9'
p539
sg59
S'5.0'
p540
sg61
S'361'
p541
sbasS'_advanced'
p542
(lp543
(isrc.gp1.models.Advanced
Advanced
p544
(dp545
S'_offensiveReboundPercentage'
p546
S'15.8'
p547
sS'_turnOverPercentage'
p548
S'1.1'
p549
sS'_winSharesPer48Minutes'
p550
S'-2.8'
p551
sS'_stealPercentage'
p552
S'0.5'
p553
sS'_usagePercentage'
p554
S'2.3'
p555
sS'_totalReboundsPercentage'
p556
S'8.9'
p557
sS'_defensiveBoxPlusMinus'
p558
g3
sg21
S'SF'
p559
sS'_valueOverReplacementPlayer'
p560
g3
sS'_trueShootingPercentage'
p561
S'.493'
p562
sS'_defensiveReboundPercentage'
p563
S'12.9'
p564
sS'_freeThrowsAttempRate'
p565
S'10.2'
p566
sS'_threePointsAttempRate'
p567
S'.343'
p568
sg27
S'NBA'
p569
sS'_offensiveBoxPlusMinues'
p570
S'-0.4'
p571
sS'_assistPercentage'
p572
S'0.7'
p573
sS'_defensiveWinShares'
p574
S'-1.2'
p575
sg37
S'22'
p576
sg39
S'ATL'
p577
sg41
S'77'
p578
sS'_blockPercentage'
p579
S'1.2'
p580
sS'_playerEfficiencyRating'
p581
S'12.8'
p582
sS'_offensiveWinShares'
p583
S'.063'
p584
sg59
S'1715'
p585
sS'_boxPlusMinus'
p586
g3
sg52
S'1973-74'
p587
sS'_winShares'
p588
S'-1.6'
p589
sba(isrc.gp1.models.Advanced
Advanced
p590
(dp591
g546
S'13.3'
p592
sg548
S'1.2'
p593
sg550
S'0.1'
p594
sg552
S'0.4'
p595
sg554
S'4.2'
p596
sg556
S'9.5'
p597
sg558
g3
sg21
S'SF'
p598
sg560
g3
sg561
S'.513'
p599
sg563
S'10.7'
p600
sg565
S'8.4'
p601
sg567
S'.365'
p602
sg27
S'NBA'
p603
sg570
S'1.0'
p604
sg572
S'1.2'
p605
sg574
S'0.5'
p606
sg37
S'23'
p607
sg39
S'ATL'
p608
sg41
S'73'
p609
sg579
S'3.0'
p610
sg581
S'13.9'
p611
sg583
S'.101'
p612
sg59
S'1986'
p613
sg586
g3
sg52
S'1974-75'
p614
sg588
S'-0.4'
p615
sba(isrc.gp1.models.Advanced
Advanced
p616
(dp617
g546
S'15.5'
p618
sg548
S'1.0'
p619
sg550
S'-0.9'
p620
sg552
S'0.5'
p621
sg554
S'2.6'
p622
sg556
S'10.1'
p623
sg558
g3
sg21
S'PF'
p624
sg560
g3
sg561
S'.512'
p625
sg563
S'11.8'
p626
sg565
S'8.3'
p627
sg567
S'.430'
p628
sg27
S'NBA'
p629
sg570
S'0.5'
p630
sg572
S'1.2'
p631
sg574
S'-0.5'
p632
sg37
S'24'
p633
sg39
S'ATL'
p634
sg41
S'75'
p635
sg579
S'1.7'
p636
sg581
S'12.6'
p637
sg583
S'.072'
p638
sg59
S'1758'
p639
sg586
g3
sg52
S'1975-76'
p640
sg588
S'-0.4'
p641
sba(isrc.gp1.models.Advanced
Advanced
p642
(dp643
g546
S'12.4'
p644
sg548
S'0.9'
p645
sg550
S'-1.8'
p646
sg552
S'0.3'
p647
sg554
S'1.7'
p648
sg556
S'10.2'
p649
sg558
g3
sg21
S'SF'
p650
sg560
g3
sg561
S'.530'
p651
sg563
S'8.9'
p652
sg565
S'5.6'
p653
sg567
S'.429'
p654
sg27
S'NBA'
p655
sg570
S'0.1'
p656
sg572
S'1.5'
p657
sg574
S'-1.8'
p658
sg37
S'25'
p659
sg39
S'ATL'
p660
sg41
S'77'
p661
sg579
S'0.8'
p662
sg581
S'10.5'
p663
sg583
S'.058'
p664
sg59
S'1405'
p665
sg586
g3
sg52
S'1976-77'
p666
sg588
S'0.0'
p667
sba(isrc.gp1.models.Advanced
Advanced
p668
(dp669
g546
S'11.7'
p670
sg548
S'15.4'
p671
sg550
S'0.0'
p672
sg552
S'0.3'
p673
sg554
S'2.1'
p674
sg556
S'9.1'
p675
sg558
S'0.1'
p676
sg21
S'SF'
p677
sg560
g3
sg561
S'.557'
p678
sg563
S'10.3'
p679
sg565
S'9.1'
p680
sg567
S'.494'
p681
sg27
S'NBA'
p682
sg570
S'0.1'
p683
sg572
S'1.6'
p684
sg574
S'3.7'
p685
sg37
S'26'
p686
sg39
S'ATL'
p687
sg41
S'75'
p688
sg579
S'19.0'
p689
sg581
S'11.4'
p690
sg583
S'1.5'
p691
sg59
S'1594'
p692
sg586
S'0.8'
p693
sg52
S'1977-78'
p694
sg588
S'.110'
p695
sba(isrc.gp1.models.Advanced
Advanced
p696
(dp697
g546
S'13.3'
p698
sg548
S'14.2'
p699
sg550
S'-2.0'
p700
sg552
S'0.4'
p701
sg554
S'0.9'
p702
sg556
S'10.8'
p703
sg558
S'-2.6'
p704
sg21
S'SF'
p705
sg560
g3
sg561
S'.539'
p706
sg563
S'10.3'
p707
sg565
S'7.2'
p708
sg567
S'.309'
p709
sg27
S'NBA'
p710
sg570
S'-0.6'
p711
sg572
S'0.7'
p712
sg574
S'1.7'
p713
sg37
S'27'
p714
sg39
S'CHI'
p715
sg41
S'77'
p716
sg579
S'19.8'
p717
sg581
S'9.4'
p718
sg583
S'0.8'
p719
sg59
S'1265'
p720
sg586
S'-0.2'
p721
sg52
S'1978-79'
p722
sg588
S'.064'
p723
sba(isrc.gp1.models.Advanced
Advanced
p724
(dp725
g546
S'7.4'
p726
sg548
S'18.7'
p727
sg550
S'.012'
p728
sg552
S'0.4'
p729
sg554
S'16.5'
p730
sg556
S'10.0'
p731
sg558
S'-1.0'
p732
sg21
S'SF'
p733
sg560
S'-0.4'
p734
sg561
S'.444'
p735
sg563
S'12.7'
p736
sg565
S'.457'
p737
sg567
S'.000'
p738
sg27
S'NBA'
p739
sg570
S'-4.7'
p740
sg572
S'6.3'
p741
sg574
S'0.4'
p742
sg37
S'28'
p743
sg39
S'TOT'
p744
sg41
S'32'
p745
sg579
S'0.6'
p746
sg581
S'5.1'
p747
sg583
S'-0.3'
p748
sg59
S'385'
p749
sg586
S'-5.7'
p750
sg52
S'1979-80'
p751
sg588
S'0.1'
p752
sba(isrc.gp1.models.Advanced
Advanced
p753
(dp754
g546
S'25.4'
p755
sg548
S'36.3'
p756
sg550
S'-0.273'
p757
sg552
S'0.0'
p758
sg554
S'24.6'
p759
sg556
S'21.9'
p760
sg558
S'-2.2'
p761
sg21
S'SF'
p762
sg560
S'-0.1'
p763
sg561
S'.228'
p764
sg563
S'18.8'
p765
sg565
S'.571'
p766
sg567
S'.000'
p767
sg27
S'NBA'
p768
sg570
S'-9.4'
p769
sg572
S'19.5'
p770
sg574
S'0.0'
p771
sg37
S'28'
p772
sg39
S'UTA'
p773
sg41
g205
sg579
S'0.0'
p774
sg581
S'-0.5'
p775
sg583
S'-0.1'
p776
sg59
S'24'
p777
sg586
S'-11.6'
p778
sg52
S'1979-80'
p779
sg588
S'-0.1'
p780
sba(isrc.gp1.models.Advanced
Advanced
p781
(dp782
g546
S'6.2'
p783
sg548
S'17.0'
p784
sg550
S'.031'
p785
sg552
S'0.4'
p786
sg554
S'16.0'
p787
sg556
S'9.2'
p788
sg558
S'-0.9'
p789
sg21
S'SF'
p790
sg560
S'-0.3'
p791
sg561
S'.460'
p792
sg563
S'12.3'
p793
sg565
S'.449'
p794
sg567
S'.000'
p795
sg27
S'NBA'
p796
sg570
S'-4.4'
p797
sg572
S'5.4'
p798
sg574
S'0.4'
p799
sg37
S'28'
p800
sg39
S'ATL'
p801
sg41
S'28'
p802
sg579
S'0.7'
p803
sg581
S'5.4'
p804
sg583
S'-0.1'
p805
sg59
S'361'
p806
sg586
S'-5.3'
p807
sg52
S'1979-80'
p808
sg588
S'0.2'
p809
sbasS'_per36Minutes'
p810
(lp811
(isrc.gp1.models.Per36Minutes
Per36Minutes
p812
(dp813
g8
S'0.6'
p814
sg10
S'.438'
p815
sg12
S'5.8'
p816
sg14
S'15.1'
p817
sg16
S'3.4'
p818
sg18
S'13.3'
p819
sg20
g3
sg21
S'SF'
p820
sg23
S'2.4'
p821
sg27
S'NBA'
p822
sg29
g3
sg30
S'.438'
p823
sg32
g3
sg33
S'9.3'
p824
sg35
S'5.0'
p825
sg37
S'22'
p826
sg39
S'ATL'
p827
sg41
S'77'
p828
sg43
g3
sg44
S'4.6'
p829
sg46
S'5.5'
p830
sg48
S'.751'
p831
sg50
S'0.3'
p832
sg52
S'1973-74'
p833
sg54
S'13.3'
p834
sg56
g3
sg57
S'3.7'
p835
sg59
S'5.8'
p836
sg61
S'1715'
p837
sba(isrc.gp1.models.Per36Minutes
Per36Minutes
p838
(dp839
g8
S'1.0'
p840
sg10
S'.461'
p841
sg12
S'5.7'
p842
sg14
S'14.8'
p843
sg16
S'3.4'
p844
sg18
S'12.4'
p845
sg20
g3
sg21
S'SF'
p846
sg23
S'2.4'
p847
sg27
S'NBA'
p848
sg29
g3
sg30
S'.461'
p849
sg32
g3
sg33
S'7.9'
p850
sg35
S'4.1'
p851
sg37
S'23'
p852
sg39
S'ATL'
p853
sg41
S'73'
p854
sg43
g3
sg44
S'4.5'
p855
sg46
S'4.6'
p856
sg48
S'.740'
p857
sg50
S'0.3'
p858
sg52
S'1974-75'
p859
sg54
S'12.4'
p860
sg56
g3
sg57
S'3.3'
p861
sg59
S'5.7'
p862
sg61
S'1986'
p863
sba(isrc.gp1.models.Per36Minutes
Per36Minutes
p864
(dp865
g8
S'0.9'
p866
sg10
S'.442'
p867
sg12
S'4.4'
p868
sg14
S'12.1'
p869
sg16
S'3.3'
p870
sg18
S'10.0'
p871
sg20
g3
sg21
S'PF'
p872
sg23
S'2.6'
p873
sg27
S'NBA'
p874
sg29
g3
sg30
S'.442'
p875
sg32
g3
sg33
S'8.3'
p876
sg35
S'4.8'
p877
sg37
S'24'
p878
sg39
S'ATL'
p879
sg41
S'75'
p880
sg43
g3
sg44
S'4.3'
p881
sg46
S'5.3'
p882
sg48
S'.775'
p883
sg50
S'0.3'
p884
sg52
S'1975-76'
p885
sg54
S'10.0'
p886
sg56
g3
sg57
S'3.0'
p887
sg59
S'4.4'
p888
sg61
S'1758'
p889
sba(isrc.gp1.models.Per36Minutes
Per36Minutes
p890
(dp891
g8
S'1.2'
p892
sg10
S'.457'
p893
sg12
S'4.1'
p894
sg14
S'11.3'
p895
sg16
S'3.1'
p896
sg18
S'9.0'
p897
sg20
g3
sg21
S'SF'
p898
sg23
S'2.6'
p899
sg27
S'NBA'
p900
sg29
g3
sg30
S'.457'
p901
sg32
g3
sg33
S'6.0'
p902
sg35
S'5.6'
p903
sg37
S'25'
p904
sg39
S'ATL'
p905
sg41
S'77'
p906
sg43
g3
sg44
S'3.8'
p907
sg46
S'4.1'
p908
sg48
S'.807'
p909
sg50
S'0.2'
p910
sg52
S'1976-77'
p911
sg54
S'9.0'
p912
sg56
g3
sg57
S'1.9'
p913
sg59
S'4.1'
p914
sg61
S'1405'
p915
sba(isrc.gp1.models.Per36Minutes
Per36Minutes
p916
(dp917
g8
S'1.2'
p918
sg10
S'.474'
p919
sg12
S'4.3'
p920
sg14
S'6.3'
p921
sg16
S'3.7'
p922
sg18
S'9.1'
p923
sg20
g3
sg21
S'SF'
p924
sg23
S'2.4'
p925
sg27
S'NBA'
p926
sg29
S'12.4'
p927
sg30
S'.474'
p928
sg32
g3
sg33
S'6.8'
p929
sg35
S'2.6'
p930
sg37
S'26'
p931
sg39
S'ATL'
p932
sg41
S'75'
p933
sg43
g3
sg44
S'4.5'
p934
sg46
S'3.7'
p935
sg48
S'.825'
p936
sg50
S'0.2'
p937
sg52
S'1977-78'
p938
sg54
S'9.1'
p939
sg56
g3
sg57
S'3.1'
p940
sg59
S'4.3'
p941
sg61
S'1594'
p942
sba(isrc.gp1.models.Per36Minutes
Per36Minutes
p943
(dp944
g8
S'0.5'
p945
sg10
S'.479'
p946
sg12
S'4.3'
p947
sg14
S'5.1'
p948
sg16
S'2.4'
p949
sg18
S'9.0'
p950
sg20
g3
sg21
S'SF'
p951
sg23
S'3.0'
p952
sg27
S'NBA'
p953
sg29
S'11.0'
p954
sg30
S'.479'
p955
sg32
g3
sg33
S'6.8'
p956
sg35
S'2.5'
p957
sg37
S'27'
p958
sg39
S'CHI'
p959
sg41
S'77'
p960
sg43
g3
sg44
S'2.8'
p961
sg46
S'4.4'
p962
sg48
S'.857'
p963
sg50
S'0.3'
p964
sg52
S'1978-79'
p965
sg54
S'9.0'
p966
sg56
g3
sg57
S'2.4'
p967
sg59
S'4.3'
p968
sg61
S'1265'
p969
sba(isrc.gp1.models.Per36Minutes
Per36Minutes
p970
(dp971
g8
S'6.6'
p972
sg10
S'3.5'
p973
sg12
S'0.0'
p974
sg14
S'0.4'
p975
sg16
S'9.8'
p976
sg18
S'0.0'
p977
sg20
g3
sg21
S'SF'
p978
sg23
S'4.2'
p979
sg27
S'NBA'
p980
sg29
S'2.7'
p981
sg30
S'.352'
p982
sg32
g3
sg33
S'2.4'
p983
sg35
S'0.3'
p984
sg37
S'28'
p985
sg39
S'TOT'
p986
sg41
S'32'
p987
sg43
S'6.5'
p988
sg44
S'.352'
p989
sg46
S'.792'
p990
sg48
S'3.6'
p991
sg50
S'1.7'
p992
sg52
S'1979-80'
p993
sg54
S'9.8'
p994
sg56
S'10.5'
p995
sg57
S'4.5'
p996
sg59
S'3.5'
p997
sg61
S'385'
p998
sba(isrc.gp1.models.Per36Minutes
Per36Minutes
p999
(dp1000
g8
S'13.5'
p1001
sg10
S'0.0'
p1002
sg12
S'0.0'
p1003
sg14
S'0.0'
p1004
sg16
S'10.5'
p1005
sg18
S'0.0'
p1006
sg20
g3
sg21
S'SF'
p1007
sg23
S'6.0'
p1008
sg27
S'NBA'
p1009
sg29
S'7.5'
p1010
sg30
S'.000'
p1011
sg32
g3
sg33
S'7.5'
p1012
sg35
S'0.0'
p1013
sg37
S'28'
p1014
sg39
S'UTA'
p1015
sg41
g205
sg43
S'6.0'
p1016
sg44
S'.000'
p1017
sg46
S'1.000'
p1018
sg48
S'6.0'
p1019
sg50
S'6.0'
p1020
sg52
S'1979-80'
p1021
sg54
S'10.5'
p1022
sg56
S'6.0'
p1023
sg57
S'6.0'
p1024
sg59
S'0.0'
p1025
sg61
S'24'
p1026
sba(isrc.gp1.models.Per36Minutes
Per36Minutes
p1027
(dp1028
g8
S'6.2'
p1029
sg10
S'3.7'
p1030
sg12
S'0.0'
p1031
sg14
S'0.4'
p1032
sg16
S'9.8'
p1033
sg18
S'0.0'
p1034
sg20
g3
sg21
S'SF'
p1035
sg23
S'4.1'
p1036
sg27
S'NBA'
p1037
sg29
S'2.4'
p1038
sg30
S'.378'
p1039
sg32
g3
sg33
S'2.1'
p1040
sg35
S'0.3'
p1041
sg37
S'28'
p1042
sg39
S'ATL'
p1043
sg41
S'28'
p1044
sg43
S'6.6'
p1045
sg44
S'.378'
p1046
sg46
S'.773'
p1047
sg48
S'3.4'
p1048
sg50
S'1.4'
p1049
sg52
S'1979-80'
p1050
sg54
S'9.8'
p1051
sg56
S'10.8'
p1052
sg57
S'4.4'
p1053
sg59
S'3.7'
p1054
sg61
S'361'
p1055
sbasS'_fromYear'
p1056
S'1974'
p1057
sS'_url'
p1058
S'http://www.basketball-reference.com/players/b/brownjo01.html'
p1059
sS'_perGame'
p1060
(isrc.gp1.models.PerGame
PerGame
p1061
(dp1062
g8
S'2.2'
p1063
sg10
S'1.3'
p1064
sg12
S'0.0'
p1065
sS'_effectiveFieldGalPercentage'
p1066
S'1.6'
p1067
sg14
S'0.1'
p1068
sg16
S'3.5'
p1069
sg18
S'0.0'
p1070
sg20
g3
sg21
S'SF'
p1071
sg23
S'1.5'
p1072
sg27
S'NBA'
p1073
sg29
S'0.9'
p1074
sg32
g3
sS'_fieldGoalsttempted'
p1075
S'.378'
p1076
sg33
S'0.8'
p1077
sg35
S'0.1'
p1078
sg37
S'28'
p1079
sg39
S'ATL'
p1080
sg41
S'28'
p1081
sg43
S'2.4'
p1082
sg44
S'.378'
p1083
sg46
S'.773'
p1084
sg48
S'.378'
p1085
sg50
S'0.5'
p1086
sg52
S'1979-80'
p1087
sg54
S'3.5'
p1088
sg56
S'3.9'
p1089
sg57
S'1.2'
p1090
sg59
S'1.3'
p1091
sg61
S'12.9'
p1092
sbsS'_weight'
p1093
S'220'
p1094
sS'_dob'
p1095
S'14-12-1951'
p1096
sS'_salary'
p1097
(lp1098
sg21
S'F'
p1099
sb.