(isrc.gp1.models.Player
Player
p0
(dp1
S'_experience'
p2
S'NA'
p3
sS'_totals'
p4
(lp5
(isrc.gp1.models.Totals
Totals
p6
(dp7
S'_offensiveRebounds'
p8
g3
sS'_threePointsAttempted'
p9
S'.340'
p10
sS'_fieldGoalsPercentage'
p11
S'113'
p12
sS'_assist'
p13
g3
sS'_threePointsPercentage'
p14
S'.340'
p15
sS'_threePoints'
p16
S'332'
p17
sS'_points'
p18
g3
sS'_position'
p19
S'C'
p20
sS'_freeThrowsPercentage'
p21
S'285'
p22
sS'_effectiveFieldGoalPercentage'
p23
S'312'
p24
sS'_league'
p25
S'NBA'
p26
sS'_steals'
p27
g3
sS'_fieldGoalsAttempted'
p28
S'.340'
p29
sS'_personalFouls'
p30
g3
sS'_freeThrowsAttempted'
p31
S'158'
p32
sS'_totalRebounds'
p33
g3
sS'_age'
p34
S'22'
p35
sS'_team'
p36
S'BOS'
p37
sS'_games'
p38
S'66'
p39
sS'_blocks'
p40
g3
sS'_twoPoints'
p41
S'59'
p42
sS'_freeThrows'
p43
S'27'
p44
sS'_twoPointsAttempted'
p45
S'117'
p46
sS'_defensiveRebounds'
p47
g3
sS'_season'
p48
S'1959-60'
p49
sS'_fieldGoals'
p50
S'332'
p51
sS'_turnOvers'
p52
g3
sS'_twoPointsPercentage'
p53
S'.504'
p54
sS'_minutesPlayed'
p55
S'113'
p56
sS'_gamesStarted'
p57
S'808'
p58
sbasS'_college'
p59
S'North Carolina State University'
p60
sS'_toYear'
p61
S'1960'
p62
sS'_height'
p63
S'6-9'
p64
sS'_active'
p65
I00
sS'_shootingHand'
p66
VRight
p67
sS'_name'
p68
S'John Richter'
p69
sS'_per100Possessions'
p70
(lp71
sS'_advanced'
p72
(lp73
(isrc.gp1.models.Advanced
Advanced
p74
(dp75
S'_offensiveReboundPercentage'
p76
S'1.6'
p77
sS'_turnOverPercentage'
p78
g3
sS'_winSharesPer48Minutes'
p79
g3
sS'_stealPercentage'
p80
g3
sS'_usagePercentage'
p81
g3
sS'_totalReboundsPercentage'
p82
S'.026'
p83
sS'_defensiveBoxPlusMinus'
p84
g3
sg19
g20
sS'_valueOverReplacementPlayer'
p85
g3
sS'_trueShootingPercentage'
p86
S'.372'
p87
sS'_defensiveReboundPercentage'
p88
S'0.4'
p89
sS'_freeThrowsAttempRate'
p90
S'-1.1'
p91
sS'_threePointsAttempRate'
p92
S'.352'
p93
sg25
S'NBA'
p94
sS'_offensiveBoxPlusMinues'
p95
g3
sS'_assistPercentage'
p96
g3
sS'_defensiveWinShares'
p97
g3
sg34
S'22'
p98
sg36
S'BOS'
p99
sg38
S'66'
p100
sS'_blockPercentage'
p101
g3
sS'_playerEfficiencyRating'
p102
S'8.1'
p103
sS'_offensiveWinShares'
p104
g3
sg55
S'808'
p105
sS'_boxPlusMinus'
p106
g3
sg48
S'1959-60'
p107
sS'_winShares'
p108
g3
sbasS'_per36Minutes'
p109
(lp110
(isrc.gp1.models.Per36Minutes
Per36Minutes
p111
(dp112
g8
g3
sg9
S'.340'
p113
sg11
S'5.0'
p114
sg13
g3
sg14
S'2.6'
p115
sg16
S'14.8'
p116
sg18
g3
sg19
g20
sg21
S'12.7'
p117
sg25
S'NBA'
p118
sg27
g3
sg28
S'.340'
p119
sg30
g3
sg31
S'7.0'
p120
sg33
g3
sg34
S'22'
p121
sg36
S'BOS'
p122
sg38
S'66'
p123
sg40
g3
sg41
S'5.2'
p124
sg43
S'1.2'
p125
sg45
S'.504'
p126
sg47
g3
sg48
S'1959-60'
p127
sg50
S'14.8'
p128
sg52
g3
sg53
S'13.9'
p129
sg55
S'5.0'
p130
sg57
S'808'
p131
sbasS'_fromYear'
p132
S'1960'
p133
sS'_url'
p134
S'http://www.basketball-reference.com/players/r/richtjo01.html'
p135
sS'_perGame'
p136
(isrc.gp1.models.PerGame
PerGame
p137
(dp138
g8
g3
sg9
S'.340'
p139
sg11
S'1.7'
p140
sS'_effectiveFieldGalPercentage'
p141
S'4.7'
p142
sg13
g3
sg14
S'.340'
p143
sg16
S'5.0'
p144
sg18
g3
sg19
g20
sg21
S'4.3'
p145
sg25
S'NBA'
p146
sg27
g3
sg30
g3
sS'_fieldGoalsttempted'
p147
S'.340'
p148
sg31
S'2.4'
p149
sg33
g3
sg34
S'22'
p150
sg36
S'BOS'
p151
sg38
S'66'
p152
sg40
g3
sg41
S'0.9'
p153
sg43
S'0.4'
p154
sg45
S'1.8'
p155
sg47
g3
sg48
S'1959-60'
p156
sg50
S'5.0'
p157
sg52
g3
sg53
S'.504'
p158
sg55
S'1.7'
p159
sg57
S'12.2'
p160
sbsS'_weight'
p161
S'225'
p162
sS'_dob'
p163
S'12-3-1937'
p164
sS'_salary'
p165
(lp166
sg19
S'F'
p167
sb.