(isrc.gp1.models.Player
Player
p0
(dp1
S'_experience'
p2
S'NA'
p3
sS'_totals'
p4
(lp5
(isrc.gp1.models.Totals
Totals
p6
(dp7
S'_offensiveRebounds'
p8
g3
sS'_threePointsAttempted'
p9
S'.286'
p10
sS'_fieldGoalsPercentage'
p11
S'42'
p12
sS'_assist'
p13
g3
sS'_threePointsPercentage'
p14
S'10'
p15
sS'_threePoints'
p16
S'.286'
p17
sS'_points'
p18
g3
sS'_position'
p19
S'19'
p20
sS'_freeThrowsPercentage'
p21
g3
sS'_effectiveFieldGoalPercentage'
p22
S'2'
p23
sS'_league'
p24
S'NBA'
p25
sS'_steals'
p26
g3
sS'_fieldGoalsAttempted'
p27
S'12'
p28
sS'_personalFouls'
p29
g3
sS'_freeThrowsAttempted'
p30
S'34'
p31
sS'_totalRebounds'
p32
g3
sS'_age'
p33
S'23'
p34
sS'_team'
p35
S'TOT'
p36
sS'_games'
p37
S'93'
p38
sS'_blocks'
p39
g3
sS'_twoPoints'
p40
S'11'
p41
sS'_freeThrows'
p42
S'21'
p43
sS'_twoPointsAttempted'
p44
S'.909'
p45
sS'_defensiveRebounds'
p46
g3
sS'_season'
p47
S'1955-56'
p48
sS'_fieldGoals'
p49
S'.286'
p50
sS'_turnOvers'
p51
g3
sS'_twoPointsPercentage'
p52
S'10'
p53
sS'_minutesPlayed'
p54
S'42'
p55
sS'_gamesStarted'
p56
S'12'
p57
sba(isrc.gp1.models.Totals
Totals
p58
(dp59
g8
g3
sg9
S'.308'
p60
sg11
S'26'
p61
sg13
g3
sg14
S'6'
p62
sg16
S'.308'
p63
sg18
g3
sg19
S'7'
p64
sg21
g3
sg22
S'1'
p65
sg24
S'NBA'
p66
sg26
g3
sg27
S'8'
p67
sg29
g3
sg30
S'22'
p68
sg32
g3
sg33
S'23'
p69
sg35
S'FTW'
p70
sg37
S'43'
p71
sg39
g3
sg40
g62
sg42
S'14'
p72
sg44
S'1.000'
p73
sg46
g3
sg47
S'1955-56'
p74
sg49
S'.308'
p75
sg51
g3
sg52
S'4'
p76
sg54
S'26'
p77
sg56
g67
sba(isrc.gp1.models.Totals
Totals
p78
(dp79
g8
g3
sg9
S'.250'
p80
sg11
S'16'
p81
sg13
g3
sg14
g76
sg16
S'.250'
p82
sg18
g3
sg19
S'12'
p83
sg21
g3
sg22
g65
sg24
S'NBA'
p84
sg26
g3
sg27
g76
sg29
g3
sg30
S'12'
p85
sg32
g3
sg33
S'23'
p86
sg35
S'MNL'
p87
sg37
S'50'
p88
sg39
g3
sg40
S'5'
p89
sg42
g64
sg44
S'.800'
p90
sg46
g3
sg47
S'1955-56'
p91
sg49
S'.250'
p92
sg51
g3
sg52
g62
sg54
S'16'
p93
sg56
g76
sbasS'_college'
p94
S'University of Dayton'
p95
sS'_toYear'
p96
S'1956'
p97
sS'_height'
p98
S'6-8'
p99
sS'_active'
p100
I00
sS'_shootingHand'
p101
VRight
p102
sS'_name'
p103
S'Johnny Horan'
p104
sS'_per100Possessions'
p105
(lp106
sS'_advanced'
p107
(lp108
(isrc.gp1.models.Advanced
Advanced
p109
(dp110
S'_offensiveReboundPercentage'
p111
S'-0.1'
p112
sS'_turnOverPercentage'
p113
g3
sS'_winSharesPer48Minutes'
p114
g3
sS'_stealPercentage'
p115
g3
sS'_usagePercentage'
p116
g3
sS'_totalReboundsPercentage'
p117
g3
sS'_defensiveBoxPlusMinus'
p118
g3
sg19
S'19'
p119
sS'_valueOverReplacementPlayer'
p120
g3
sS'_trueShootingPercentage'
p121
S'.262'
p122
sS'_defensiveReboundPercentage'
p123
S'-0.075'
p124
sS'_freeThrowsAttempRate'
p125
S'0.0'
p126
sS'_threePointsAttempRate'
p127
S'-0.2'
p128
sg24
S'NBA'
p129
sS'_offensiveBoxPlusMinues'
p130
g3
sS'_assistPercentage'
p131
g3
sS'_defensiveWinShares'
p132
g3
sg33
S'23'
p133
sg35
S'TOT'
p134
sg37
S'93'
p135
sS'_blockPercentage'
p136
g3
sS'_playerEfficiencyRating'
p137
S'.363'
p138
sS'_offensiveWinShares'
p139
g3
sg54
S'1.9'
p140
sS'_boxPlusMinus'
p141
g3
sg47
S'1955-56'
p142
sS'_winShares'
p143
g3
sba(isrc.gp1.models.Advanced
Advanced
p144
(dp145
g111
S'-0.1'
p146
sg113
g3
sg114
g3
sg115
g3
sg116
g3
sg117
g3
sg118
g3
sg19
g64
sg120
g3
sg121
S'.231'
p147
sg123
S'-0.066'
p148
sg125
S'0.0'
p149
sg127
S'-0.1'
p150
sg24
S'NBA'
p151
sg130
g3
sg131
g3
sg132
g3
sg33
S'23'
p152
sg35
S'FTW'
p153
sg37
S'43'
p154
sg136
g3
sg137
S'.384'
p155
sg139
g3
sg54
S'2.3'
p156
sg141
g3
sg47
S'1955-56'
p157
sg143
g3
sba(isrc.gp1.models.Advanced
Advanced
p158
(dp159
g111
S'-0.1'
p160
sg113
g3
sg114
g3
sg115
g3
sg116
g3
sg117
g3
sg118
g3
sg19
S'12'
p161
sg120
g3
sg121
S'.313'
p162
sg123
S'-0.084'
p163
sg125
S'0.0'
p164
sg127
S'-0.1'
p165
sg24
S'NBA'
p166
sg130
g3
sg131
g3
sg132
g3
sg33
S'23'
p167
sg35
S'MNL'
p168
sg37
S'50'
p169
sg136
g3
sg137
S'.330'
p170
sg139
g3
sg54
S'1.6'
p171
sg141
g3
sg47
S'1955-56'
p172
sg143
g3
sbasS'_per36Minutes'
p173
(lp174
(isrc.gp1.models.Per36Minutes
Per36Minutes
p175
(dp176
g8
g3
sg9
S'3.9'
p177
sg11
S'16.3'
p178
sg13
g3
sg14
S'4.3'
p179
sg16
S'.286'
p180
sg18
g3
sg19
S'19'
p181
sg21
g3
sg24
S'NBA'
p182
sg26
g3
sg27
S'4.6'
p183
sg29
g3
sg30
S'13.2'
p184
sg32
g3
sg33
S'23'
p185
sg35
S'TOT'
p186
sg37
S'93'
p187
sg39
g3
sg40
S'.909'
p188
sg42
S'8.1'
p189
sg44
S'3.9'
p190
sg46
g3
sg47
S'1955-56'
p191
sg49
S'.286'
p192
sg51
g3
sg52
S'0.8'
p193
sg54
S'16.3'
p194
sg56
S'4.6'
p195
sba(isrc.gp1.models.Per36Minutes
Per36Minutes
p196
(dp197
g8
g3
sg9
S'5.0'
p198
sg11
S'21.8'
p199
sg13
g3
sg14
S'5.0'
p200
sg16
S'.308'
p201
sg18
g3
sg19
g64
sg21
g3
sg24
S'NBA'
p202
sg26
g3
sg27
S'6.7'
p203
sg29
g3
sg30
S'18.4'
p204
sg32
g3
sg33
S'23'
p205
sg35
S'FTW'
p206
sg37
S'43'
p207
sg39
g3
sg40
S'1.000'
p208
sg42
S'11.7'
p209
sg44
S'3.3'
p210
sg46
g3
sg47
S'1955-56'
p211
sg49
S'.308'
p212
sg51
g3
sg52
S'0.8'
p213
sg54
S'21.8'
p214
sg56
S'6.7'
p215
sba(isrc.gp1.models.Per36Minutes
Per36Minutes
p216
(dp217
g8
g3
sg9
S'2.9'
p218
sg11
S'11.5'
p219
sg13
g3
sg14
S'3.6'
p220
sg16
S'.250'
p221
sg18
g3
sg19
S'12'
p222
sg21
g3
sg24
S'NBA'
p223
sg26
g3
sg27
S'2.9'
p224
sg29
g3
sg30
S'8.6'
p225
sg32
g3
sg33
S'23'
p226
sg35
S'MNL'
p227
sg37
S'50'
p228
sg39
g3
sg40
S'.800'
p229
sg42
S'5.0'
p230
sg44
S'4.3'
p231
sg46
g3
sg47
S'1955-56'
p232
sg49
S'.250'
p233
sg51
g3
sg52
S'0.7'
p234
sg54
S'11.5'
p235
sg56
S'2.9'
p236
sbasS'_fromYear'
p237
S'1956'
p238
sS'_url'
p239
S'http://www.basketball-reference.com/players/h/horanjo01.html'
p240
sS'_perGame'
p241
(isrc.gp1.models.PerGame
PerGame
p242
(dp243
g8
g3
sg9
S'.250'
p244
sg11
S'1.3'
p245
sS'_effectiveFieldGalPercentage'
p246
S'0.1'
p247
sg13
g3
sg14
S'0.3'
p248
sg16
S'.250'
p249
sg18
g3
sg19
S'12'
p250
sg21
g3
sg24
S'NBA'
p251
sg26
g3
sg29
g3
sS'_fieldGoalsttempted'
p252
S'0.3'
p253
sg30
S'1.0'
p254
sg32
g3
sg33
S'23'
p255
sg35
S'MNL'
p256
sg37
S'4.2'
p257
sg39
g3
sg40
S'0.4'
p258
sg42
S'0.6'
p259
sg44
S'.800'
p260
sg46
g3
sg47
S'1955-56'
p261
sg49
S'.250'
p262
sg51
g3
sg52
S'0.5'
p263
sg54
S'1.3'
p264
sg56
S'0.3'
p265
sbsS'_weight'
p266
S'190'
p267
sS'_dob'
p268
S'24-11-1932'
p269
sS'_salary'
p270
(lp271
sg19
S'F'
p272
sb.