(isrc.gp1.models.Player
Player
p0
(dp1
S'_experience'
p2
S'NA'
p3
sS'_totals'
p4
(lp5
(isrc.gp1.models.Totals
Totals
p6
(dp7
S'_offensiveRebounds'
p8
g3
sS'_threePointsAttempted'
p9
S'4'
p10
sS'_fieldGoalsPercentage'
p11
S'.310'
p12
sS'_assist'
p13
g3
sS'_threePointsPercentage'
p14
S'11'
p15
sS'_threePoints'
p16
S'.310'
p17
sS'_points'
p18
g3
sS'_position'
p19
S'7'
p20
sS'_freeThrowsPercentage'
p21
g3
sS'_effectiveFieldGoalPercentage'
p22
S'22'
p23
sS'_league'
p24
S'NBA'
p25
sS'_steals'
p26
g3
sS'_fieldGoalsAttempted'
p27
S'29'
p28
sS'_personalFouls'
p29
g3
sS'_freeThrowsAttempted'
p30
g3
sS'_totalRebounds'
p31
g3
sS'_age'
p32
S'23'
p33
sS'_team'
p34
S'WAT'
p35
sS'_games'
p36
S'9'
p37
sS'_blocks'
p38
g3
sS'_twoPoints'
p39
S'.364'
p40
sS'_freeThrows'
p41
g3
sS'_twoPointsAttempted'
p42
S'8'
p43
sS'_defensiveRebounds'
p44
g3
sS'_season'
p45
S'1949-50'
p46
sS'_fieldGoals'
p47
g37
sS'_turnOvers'
p48
g3
sS'_twoPointsPercentage'
p49
S'14'
p50
sS'_minutesPlayed'
p51
S'.310'
p52
sS'_gamesStarted'
p53
S'29'
p54
sbasS'_college'
p55
S'Drake University'
p56
sS'_toYear'
p57
S'1950'
p58
sS'_height'
p59
S'6-9'
p60
sS'_active'
p61
I00
sS'_shootingHand'
p62
VRight
p63
sS'_name'
p64
S'John Pritchard'
p65
sS'_per100Possessions'
p66
(lp67
sS'_advanced'
p68
(lp69
(isrc.gp1.models.Advanced
Advanced
p70
(dp71
S'_offensiveReboundPercentage'
p72
g3
sS'_turnOverPercentage'
p73
g3
sS'_winSharesPer48Minutes'
p74
g3
sS'_stealPercentage'
p75
g3
sS'_usagePercentage'
p76
g3
sS'_totalReboundsPercentage'
p77
g3
sS'_defensiveBoxPlusMinus'
p78
g3
sg19
g20
sS'_valueOverReplacementPlayer'
p79
g3
sS'_trueShootingPercentage'
p80
S'0.0'
p81
sS'_defensiveReboundPercentage'
p82
g3
sS'_freeThrowsAttempRate'
p83
g3
sS'_threePointsAttempRate'
p84
S'-0.2'
p85
sg24
S'NBA'
p86
sS'_offensiveBoxPlusMinues'
p87
g3
sS'_assistPercentage'
p88
g3
sS'_defensiveWinShares'
p89
g3
sg32
S'23'
p90
sg34
S'WAT'
p91
sg36
S'.325'
p92
sS'_blockPercentage'
p93
g3
sS'_playerEfficiencyRating'
p94
S'-0.1'
p95
sS'_offensiveWinShares'
p96
g3
sg51
S'.379'
p97
sS'_boxPlusMinus'
p98
g3
sg45
S'1949-50'
p99
sS'_winShares'
p100
g3
sbasS'_per36Minutes'
p101
(lp102
(isrc.gp1.models.Per36Minutes
Per36Minutes
p103
(dp104
g8
g3
sg9
g3
sg11
g3
sg13
g3
sg14
g3
sg16
g3
sg18
g3
sg19
g20
sg21
g3
sg24
S'NBA'
p105
sg26
g3
sg27
g3
sg29
g3
sg30
g3
sg31
g3
sg32
S'23'
p106
sg34
S'WAT'
p107
sg36
S'.310'
p108
sg38
g3
sg39
g3
sg41
g3
sg42
g3
sg44
g3
sg45
S'1949-50'
p109
sg47
g3
sg48
g3
sg49
g3
sg51
S'.364'
p110
sg53
S'.310'
p111
sbasS'_fromYear'
p112
S'1950'
p113
sS'_url'
p114
S'http://www.basketball-reference.com/players/p/pritcjo01.html'
p115
sS'_perGame'
p116
(isrc.gp1.models.PerGame
PerGame
p117
(dp118
g8
g3
sg9
S'0.6'
p119
sg11
S'.310'
p120
sS'_effectiveFieldGalPercentage'
p121
S'3.1'
p122
sg13
g3
sg14
S'1.6'
p123
sg16
S'.310'
p124
sg18
g3
sg19
g20
sg21
g3
sg24
S'NBA'
p125
sg26
g3
sg29
g3
sS'_fieldGoalsttempted'
p126
S'4.1'
p127
sg30
g3
sg31
g3
sg32
S'23'
p128
sg34
S'WAT'
p129
sg36
S'1.3'
p130
sg38
g3
sg39
S'.364'
p131
sg41
g3
sg42
S'1.1'
p132
sg44
g3
sg45
S'1949-50'
p133
sg47
S'1.3'
p134
sg48
g3
sg49
S'2.0'
p135
sg51
S'.310'
p136
sg53
S'4.1'
p137
sbsS'_weight'
p138
S'220'
p139
sS'_dob'
p140
S'23-1-1927'
p141
sS'_salary'
p142
(lp143
sg19
S'C'
p144
sb.