(isrc.gp1.models.Player
Player
p0
(dp1
S'_experience'
p2
S'NA'
p3
sS'_totals'
p4
(lp5
(isrc.gp1.models.Totals
Totals
p6
(dp7
S'_offensiveRebounds'
p8
S'809'
p9
sS'_threePointsAttempted'
p10
S'246'
p11
sS'_fieldGoalsPercentage'
p12
S'0'
p13
sS'_assist'
p14
S'328'
p15
sS'_threePointsPercentage'
p16
S'623'
p17
sS'_threePoints'
p18
g13
sS'_points'
p19
g3
sS'_position'
p20
S'C'
p21
sS'_freeThrowsPercentage'
p22
S'538'
p23
sS'_effectiveFieldGoalPercentage'
p24
S'214'
p25
sS'_league'
p26
S'ABA'
p27
sS'_steals'
p28
S'608'
p29
sS'_fieldGoalsAttempted'
p30
S'.395'
p31
sS'_personalFouls'
p32
g3
sS'_freeThrowsAttempted'
p33
S'271'
p34
sS'_totalRebounds'
p35
S'117'
p36
sS'_age'
p37
S'24'
p38
sS'_team'
p39
S'DLC'
p40
sS'_games'
p41
S'77'
p42
sS'_blocks'
p43
g3
sS'_twoPoints'
p44
S'.395'
p45
sS'_freeThrows'
p46
S'.542'
p47
sS'_twoPointsAttempted'
p48
S'.395'
p49
sS'_defensiveRebounds'
p50
S'58'
p51
sS'_season'
p52
S'1968-69'
p53
sS'_fieldGoals'
p54
S'623'
p55
sS'_turnOvers'
p56
g3
sS'_twoPointsPercentage'
p57
S'116'
p58
sS'_minutesPlayed'
p59
S'246'
p60
sS'_gamesStarted'
p61
S'2172'
p62
sba(isrc.gp1.models.Totals
Totals
p63
(dp64
g8
S'274'
p65
sg10
S'.000'
p66
sg12
g13
sg14
S'85'
p67
sg16
S'105'
p68
sg18
S'2'
p69
sg19
g3
sg20
g21
sg22
S'130'
p70
sg24
S'56'
p71
sg26
S'ABA'
p72
sg28
S'185'
p73
sg30
S'.370'
p74
sg32
g3
sg33
S'.596'
p75
sg35
S'58'
p76
sg37
S'25'
p77
sg39
S'TOT'
p78
sg41
S'70'
p79
sg43
S'266'
p80
sg44
S'282'
p81
sg46
S'94'
p82
sg48
S'.372'
p83
sg50
S'404'
p84
sg52
S'1969-70'
p85
sg54
S'284'
p86
sg56
g3
sg57
S'.370'
p87
sg59
S'105'
p88
sg61
S'1190'
p89
sba(isrc.gp1.models.Totals
Totals
p90
(dp91
g8
S'228'
p92
sg10
S'.000'
p93
sg12
g13
sg14
S'68'
p94
sg16
S'92'
p95
sg18
S'1'
p96
sg19
g3
sg20
g21
sg22
S'101'
p97
sg24
S'48'
p98
sg26
S'ABA'
p99
sg28
S'149'
p100
sg30
S'.397'
p101
sg32
g3
sg33
S'.615'
p102
sg35
S'52'
p103
sg37
S'25'
p104
sg39
S'DLC'
p105
sg41
S'48'
p106
sg43
S'232'
p107
sg44
S'231'
p108
sg46
S'78'
p109
sg48
S'.398'
p110
sg50
S'329'
p111
sg52
S'1969-70'
p112
sg54
S'232'
p113
sg56
g3
sg57
S'.397'
p114
sg59
S'92'
p115
sg61
S'966'
p116
sba(isrc.gp1.models.Totals
Totals
p117
(dp118
g8
S'15'
p119
sg10
S'4'
p120
sg12
g13
sg14
S'6'
p121
sg16
S'12'
p122
sg18
g13
sg19
g3
sg20
g21
sg22
S'13'
p123
sg24
S'9'
p124
sg26
S'ABA'
p125
sg28
S'11'
p126
sg30
S'.333'
p127
sg32
g3
sg33
g69
sg35
g120
sg37
S'25'
p128
sg39
S'PTP'
p129
sg41
g121
sg43
g3
sg44
S'.333'
p130
sg46
S'.333'
p131
sg48
S'.333'
p132
sg50
S'3'
p133
sg52
S'1969-70'
p134
sg54
S'12'
p135
sg56
g3
sg57
g133
sg59
g120
sg61
S'59'
p136
sba(isrc.gp1.models.Totals
Totals
p137
(dp138
g8
S'33'
p139
sg10
S'.000'
p140
sg12
g13
sg14
S'13'
p141
sg16
g124
sg18
g96
sg19
g3
sg20
g21
sg22
S'27'
p142
sg24
S'5'
p143
sg26
S'ABA'
p144
sg28
S'30'
p145
sg30
S'.225'
p146
sg32
g3
sg33
S'.714'
p147
sg35
g133
sg37
S'25'
p148
sg39
S'NYA'
p149
sg41
S'16'
p150
sg43
S'23'
p151
sg44
S'39'
p152
sg46
S'7'
p153
sg48
S'.231'
p154
sg50
S'60'
p155
sg52
S'1969-70'
p156
sg54
S'40'
p157
sg56
g3
sg57
S'.225'
p158
sg59
g124
sg61
S'165'
p159
sbasS'_college'
p160
S'University of Southern Colorado'
p161
sS'_toYear'
p162
S'1970'
p163
sS'_height'
p164
S'7-0'
p165
sS'_active'
p166
I00
sS'_shootingHand'
p167
VRight
p168
sS'_name'
p169
S'John Smith'
p170
sS'_per100Possessions'
p171
(lp172
sS'_advanced'
p173
(lp174
(isrc.gp1.models.Advanced
Advanced
p175
(dp176
S'_offensiveReboundPercentage'
p177
S'17.0'
p178
sS'_turnOverPercentage'
p179
S'0.2'
p180
sS'_winSharesPer48Minutes'
p181
g3
sS'_stealPercentage'
p182
S'-1.5'
p183
sS'_usagePercentage'
p184
S'.004'
p185
sS'_totalReboundsPercentage'
p186
S'14.0'
p187
sS'_defensiveBoxPlusMinus'
p188
g3
sg20
g21
sS'_valueOverReplacementPlayer'
p189
g3
sS'_trueShootingPercentage'
p190
S'.424'
p191
sS'_defensiveReboundPercentage'
p192
S'3.6'
p193
sS'_freeThrowsAttempRate'
p194
S'.343'
p195
sS'_threePointsAttempRate'
p196
S'.000'
p197
sg26
S'ABA'
p198
sS'_offensiveBoxPlusMinues'
p199
g3
sS'_assistPercentage'
p200
S'14.6'
p201
sS'_defensiveWinShares'
p202
g3
sg37
S'24'
p203
sg39
S'DLC'
p204
sg41
S'77'
p205
sS'_blockPercentage'
p206
S'1.7'
p207
sS'_playerEfficiencyRating'
p208
S'10.3'
p209
sS'_offensiveWinShares'
p210
g3
sg59
S'2172'
p211
sS'_boxPlusMinus'
p212
g3
sg52
S'1968-69'
p213
sS'_winShares'
p214
g3
sba(isrc.gp1.models.Advanced
Advanced
p215
(dp216
g177
S'15.0'
p217
sg179
S'0.0'
p218
sg181
g3
sg182
S'-1.0'
p219
sg184
S'.001'
p220
sg186
S'20.7'
p221
sg188
g3
sg20
g21
sg189
g3
sg190
S'.409'
p222
sg192
S'5.8'
p223
sg194
S'.331'
p224
sg196
S'.007'
p225
sg26
S'ABA'
p226
sg199
g3
sg200
S'12.5'
p227
sg202
g3
sg37
S'25'
p228
sg39
S'TOT'
p229
sg41
S'70'
p230
sg206
S'1.0'
p231
sg208
S'7.0'
p232
sg210
g3
sg59
S'1190'
p233
sg212
g3
sg52
S'1969-70'
p234
sg214
g3
sba(isrc.gp1.models.Advanced
Advanced
p235
(dp236
g177
S'14.9'
p237
sg179
S'0.4'
p238
sg181
g3
sg182
S'-0.4'
p239
sg184
S'.018'
p240
sg186
S'20.3'
p241
sg188
g3
sg20
g21
sg189
g3
sg190
S'.436'
p242
sg192
S'6.5'
p243
sg194
S'.336'
p244
sg196
S'.004'
p245
sg26
S'ABA'
p246
sg199
g3
sg200
S'12.5'
p247
sg202
g3
sg37
S'25'
p248
sg39
S'DLC'
p249
sg41
S'48'
p250
sg206
S'0.8'
p251
sg208
S'8.1'
p252
sg210
g3
sg59
S'966'
p253
sg212
g3
sg52
S'1969-70'
p254
sg214
g3
sba(isrc.gp1.models.Advanced
Advanced
p255
(dp256
g177
S'10.8'
p257
sg179
S'-0.1'
p258
sg181
g3
sg182
S'-0.1'
p259
sg184
S'-0.045'
p260
sg186
S'20.0'
p261
sg188
g3
sg20
g21
sg189
g3
sg190
S'.345'
p262
sg192
S'6.0'
p263
sg194
S'.750'
p264
sg196
S'.000'
p265
sg26
S'ABA'
p266
sg199
g3
sg200
S'12.2'
p267
sg202
g3
sg37
S'25'
p268
sg39
S'PTP'
p269
sg41
g121
sg206
S'0.0'
p270
sg208
S'3.3'
p271
sg210
g3
sg59
S'59'
p272
sg212
g3
sg52
S'1969-70'
p273
sg214
g3
sba(isrc.gp1.models.Advanced
Advanced
p274
(dp275
g177
S'17.5'
p276
sg179
S'-0.3'
p277
sg181
g3
sg182
S'-0.5'
p278
sg184
S'-0.081'
p279
sg186
S'23.2'
p280
sg188
g3
sg20
g21
sg189
g3
sg190
S'.267'
p281
sg192
S'2.2'
p282
sg194
S'.175'
p283
sg196
S'.025'
p284
sg26
S'ABA'
p285
sg199
g3
sg200
S'12.8'
p286
sg202
g3
sg37
S'25'
p287
sg39
S'NYA'
p288
sg41
S'16'
p289
sg206
S'0.2'
p290
sg208
S'1.8'
p291
sg210
g3
sg59
S'165'
p292
sg212
g3
sg52
S'1969-70'
p293
sg214
g3
sbasS'_per36Minutes'
p294
(lp295
(isrc.gp1.models.Per36Minutes
Per36Minutes
p296
(dp297
g8
S'13.4'
p298
sg10
S'4.1'
p299
sg12
S'0.0'
p300
sg14
S'5.4'
p301
sg16
S'10.3'
p302
sg18
S'0.0'
p303
sg19
g3
sg20
g21
sg22
S'8.9'
p304
sg26
S'ABA'
p305
sg28
S'10.1'
p306
sg30
S'.395'
p307
sg32
g3
sg33
S'4.5'
p308
sg35
S'1.9'
p309
sg37
S'24'
p310
sg39
S'DLC'
p311
sg41
S'77'
p312
sg43
g3
sg44
S'.395'
p313
sg46
S'.542'
p314
sg48
S'1.9'
p315
sg50
S'1.0'
p316
sg52
S'1968-69'
p317
sg54
S'10.3'
p318
sg56
g3
sg57
S'3.5'
p319
sg59
S'4.1'
p320
sg61
S'2172'
p321
sba(isrc.gp1.models.Per36Minutes
Per36Minutes
p322
(dp323
g8
S'8.3'
p324
sg10
S'.000'
p325
sg12
S'0.0'
p326
sg14
S'2.6'
p327
sg16
S'3.2'
p328
sg18
S'0.1'
p329
sg19
g3
sg20
g21
sg22
S'3.9'
p330
sg26
S'ABA'
p331
sg28
S'5.6'
p332
sg30
S'.370'
p333
sg32
g3
sg33
S'.596'
p334
sg35
S'1.8'
p335
sg37
S'25'
p336
sg39
S'TOT'
p337
sg41
S'70'
p338
sg43
S'8.0'
p339
sg44
S'8.5'
p340
sg46
S'2.8'
p341
sg48
S'.372'
p342
sg50
S'12.2'
p343
sg52
S'1969-70'
p344
sg54
S'8.6'
p345
sg56
g3
sg57
S'1.7'
p346
sg59
S'3.2'
p347
sg61
S'1190'
p348
sba(isrc.gp1.models.Per36Minutes
Per36Minutes
p349
(dp350
g8
S'8.5'
p351
sg10
S'.000'
p352
sg12
S'0.0'
p353
sg14
S'2.5'
p354
sg16
S'3.4'
p355
sg18
S'0.0'
p356
sg19
g3
sg20
g21
sg22
S'3.8'
p357
sg26
S'ABA'
p358
sg28
S'5.6'
p359
sg30
S'.397'
p360
sg32
g3
sg33
S'.615'
p361
sg35
S'1.9'
p362
sg37
S'25'
p363
sg39
S'DLC'
p364
sg41
S'48'
p365
sg43
S'8.6'
p366
sg44
S'8.6'
p367
sg46
S'2.9'
p368
sg48
S'.398'
p369
sg50
S'12.3'
p370
sg52
S'1969-70'
p371
sg54
S'8.6'
p372
sg56
g3
sg57
S'1.8'
p373
sg59
S'3.4'
p374
sg61
S'966'
p375
sba(isrc.gp1.models.Per36Minutes
Per36Minutes
p376
(dp377
g8
S'9.2'
p378
sg10
S'2.4'
p379
sg12
S'0.0'
p380
sg14
S'3.7'
p381
sg16
S'7.3'
p382
sg18
S'0.0'
p383
sg19
g3
sg20
g21
sg22
S'7.9'
p384
sg26
S'ABA'
p385
sg28
S'6.7'
p386
sg30
S'.333'
p387
sg32
g3
sg33
S'1.2'
p388
sg35
S'2.4'
p389
sg37
S'25'
p390
sg39
S'PTP'
p391
sg41
g121
sg43
g3
sg44
S'.333'
p392
sg46
S'.333'
p393
sg48
S'1.8'
p394
sg50
S'1.8'
p395
sg52
S'1969-70'
p396
sg54
S'7.3'
p397
sg56
g3
sg57
S'5.5'
p398
sg59
S'2.4'
p399
sg61
S'59'
p400
sba(isrc.gp1.models.Per36Minutes
Per36Minutes
p401
(dp402
g8
S'7.2'
p403
sg10
S'.000'
p404
sg12
S'0.0'
p405
sg14
S'2.8'
p406
sg16
S'2.0'
p407
sg18
S'0.2'
p408
sg19
g3
sg20
g21
sg22
S'5.9'
p409
sg26
S'ABA'
p410
sg28
S'6.5'
p411
sg30
S'.225'
p412
sg32
g3
sg33
S'.714'
p413
sg35
S'0.7'
p414
sg37
S'25'
p415
sg39
S'NYA'
p416
sg41
S'16'
p417
sg43
S'5.0'
p418
sg44
S'8.5'
p419
sg46
S'1.5'
p420
sg48
S'.231'
p421
sg50
S'13.1'
p422
sg52
S'1969-70'
p423
sg54
S'8.7'
p424
sg56
g3
sg57
S'1.1'
p425
sg59
S'2.0'
p426
sg61
S'165'
p427
sbasS'_fromYear'
p428
S'1969'
p429
sS'_url'
p430
S'http://www.basketball-reference.com/players/s/smithjo01.html'
p431
sS'_perGame'
p432
(isrc.gp1.models.PerGame
PerGame
p433
(dp434
g8
S'2.1'
p435
sg10
S'.000'
p436
sg12
S'0.0'
p437
sS'_effectiveFieldGalPercentage'
p438
S'0.3'
p439
sg14
S'0.8'
p440
sg16
S'0.6'
p441
sg18
S'0.1'
p442
sg19
g3
sg20
g21
sg22
S'1.7'
p443
sg26
S'ABA'
p444
sg28
S'1.9'
p445
sg32
g3
sS'_fieldGoalsttempted'
p446
S'.225'
p447
sg33
S'.714'
p448
sg35
S'0.2'
p449
sg37
S'25'
p450
sg39
S'NYA'
p451
sg41
S'16'
p452
sg43
S'1.4'
p453
sg44
S'2.4'
p454
sg46
S'0.4'
p455
sg48
S'.231'
p456
sg50
S'3.8'
p457
sg52
S'1969-70'
p458
sg54
S'2.5'
p459
sg56
g3
sg57
S'.225'
p460
sg59
S'0.6'
p461
sg61
S'10.3'
p462
sbsS'_weight'
p463
S'235'
p464
sS'_dob'
p465
S'24-5-1944'
p466
sS'_salary'
p467
(lp468
sg20
g21
sb.