(isrc.gp1.models.Player
Player
p0
(dp1
S'_experience'
p2
S'NA'
p3
sS'_totals'
p4
(lp5
(isrc.gp1.models.Totals
Totals
p6
(dp7
S'_offensiveRebounds'
p8
S'138'
p9
sS'_threePointsAttempted'
p10
S'.053'
p11
sS'_fieldGoalsPercentage'
p12
S'1'
p13
sS'_assist'
p14
S'120'
p15
sS'_threePointsPercentage'
p16
S'248'
p17
sS'_threePoints'
p18
S'19'
p19
sS'_points'
p20
g3
sS'_position'
p21
S'PG'
p22
sS'_freeThrowsPercentage'
p23
S'58'
p24
sS'_effectiveFieldGoalPercentage'
p25
S'105'
p26
sS'_league'
p27
S'NBA'
p28
sS'_steals'
p29
S'22'
p30
sS'_fieldGoalsAttempted'
p31
S'.479'
p32
sS'_personalFouls'
p33
S'604'
p34
sS'_freeThrowsAttempted'
p35
S'.610'
p36
sS'_totalRebounds'
p37
S'373'
p38
sS'_age'
p39
S'22'
p40
sS'_team'
p41
S'SAS'
p42
sS'_games'
p43
S'82'
p44
sS'_blocks'
p45
S'154'
p46
sS'_twoPoints'
p47
S'501'
p48
sS'_freeThrows'
p49
S'172'
p50
sS'_twoPointsAttempted'
p51
S'.495'
p52
sS'_defensiveRebounds'
p53
S'196'
p54
sS'_season'
p55
S'1980-81'
p56
sS'_fieldGoals'
p57
S'520'
p58
sS'_turnOvers'
p59
S'178'
p60
sS'_twoPointsPercentage'
p61
S'.480'
p62
sS'_minutesPlayed'
p63
S'249'
p64
sS'_gamesStarted'
p65
S'1578'
p66
sba(isrc.gp1.models.Totals
Totals
p67
(dp68
g8
S'62'
p69
sg10
S'21'
p70
sg12
S'.463'
p71
sg14
S'762'
p72
sg16
S'.048'
p73
sg18
g13
sg20
S'741'
p74
sg21
S'PG'
p75
sg23
S'.670'
p76
sg25
S'.464'
p77
sg27
S'NBA'
p78
sg29
S'163'
p79
sg31
S'667'
p80
sg33
S'254'
p81
sg35
S'182'
p82
sg37
S'275'
p83
sg39
S'23'
p84
sg41
S'SAS'
p85
sg43
S'79'
p86
sg45
S'12'
p87
sg47
S'308'
p88
sg49
S'122'
p89
sg51
S'646'
p90
sg53
S'213'
p91
sg55
S'1981-82'
p92
sg57
S'309'
p93
sg59
S'175'
p94
sg61
S'.477'
p95
sg63
S'2294'
p96
sg65
S'78'
p97
sba(isrc.gp1.models.Totals
Totals
p98
(dp99
g8
S'65'
p100
sg10
S'22'
p101
sg12
S'.468'
p102
sg14
S'753'
p103
sg16
S'.227'
p104
sg18
S'5'
p105
sg20
S'941'
p106
sg21
S'PG'
p107
sg23
S'.744'
p108
sg25
S'.471'
p109
sg27
S'NBA'
p110
sg29
S'194'
p111
sg31
S'841'
p112
sg33
S'247'
p113
sg35
S'199'
p114
sg37
S'277'
p115
sg39
S'24'
p116
sg41
S'SAS'
p117
sg43
S'77'
p118
sg45
S'32'
p119
sg47
S'389'
p120
sg49
S'148'
p121
sg51
S'819'
p122
sg53
S'212'
p123
sg55
S'1982-83'
p124
sg57
S'394'
p125
sg59
S'226'
p126
sg61
S'.475'
p127
sg63
S'2552'
p128
sg65
S'73'
p129
sba(isrc.gp1.models.Totals
Totals
p130
(dp131
g8
S'37'
p132
sg10
S'87'
p133
sg12
S'.446'
p134
sg14
S'566'
p135
sg16
S'.322'
p136
sg18
S'28'
p137
sg20
S'595'
p138
sg21
S'PG'
p139
sg23
S'.755'
p140
sg25
S'.473'
p141
sg27
S'NBA'
p142
sg29
S'123'
p143
sg31
S'518'
p144
sg33
S'168'
p145
sg35
S'139'
p146
sg37
S'178'
p147
sg39
S'25'
p148
sg41
S'SAS'
p149
sg43
S'59'
p150
sg45
S'20'
p151
sg47
S'203'
p152
sg49
S'105'
p153
sg51
S'431'
p154
sg53
S'141'
p155
sg55
S'1983-84'
p156
sg57
S'231'
p157
sg59
S'143'
p158
sg61
S'.471'
p159
sg63
S'1650'
p160
sg65
S'42'
p161
sba(isrc.gp1.models.Totals
Totals
p162
(dp163
g8
S'94'
p164
sg10
S'89'
p165
sg12
S'.457'
p166
sg14
S'816'
p167
sg16
S'.281'
p168
sg18
S'25'
p169
sg20
S'1046'
p170
sg21
S'PG'
p171
sg23
S'.762'
p172
sg25
S'.471'
p173
sg27
S'NBA'
p174
sg29
S'229'
p175
sg31
S'910'
p176
sg33
S'247'
p177
sg35
S'248'
p178
sg37
S'378'
p179
sg39
S'26'
p180
sg41
S'SAS'
p181
sg43
S'82'
p182
sg45
S'18'
p183
sg47
S'391'
p184
sg49
S'189'
p185
sg51
S'821'
p186
sg53
S'284'
p187
sg55
S'1984-85'
p188
sg57
S'416'
p189
sg59
S'236'
p190
sg61
S'.476'
p191
sg63
S'2689'
p192
sg65
S'82'
p193
sba(isrc.gp1.models.Totals
Totals
p194
(dp195
g8
S'25'
p196
sg10
S'22'
p197
sg12
S'.495'
p198
sg14
S'252'
p199
sg16
S'.182'
p200
sg18
S'4'
p201
sg20
S'363'
p202
sg21
S'PG'
p203
sg23
S'.686'
p204
sg25
S'.502'
p205
sg27
S'NBA'
p206
sg29
S'70'
p207
sg31
S'303'
p208
sg33
S'78'
p209
sg35
S'86'
p210
sg37
S'86'
p211
sg39
S'27'
p212
sg41
S'SAS'
p213
sg43
S'28'
p214
sg45
S'6'
p215
sg47
S'146'
p216
sg49
S'59'
p217
sg51
S'281'
p218
sg53
S'61'
p219
sg55
S'1985-86'
p220
sg57
S'150'
p221
sg59
S'81'
p222
sg61
S'.520'
p223
sg63
S'856'
p224
sg65
S'23'
p225
sba(isrc.gp1.models.Totals
Totals
p226
(dp227
g8
S'32'
p228
sg10
S'79'
p229
sg12
S'.442'
p230
sg14
S'250'
p231
sg16
S'.278'
p232
sg18
S'22'
p233
sg20
S'474'
p234
sg21
S'PG'
p235
sg23
S'.800'
p236
sg25
S'.467'
p237
sg27
S'NBA'
p238
sg29
S'83'
p239
sg31
S'448'
p240
sg33
S'97'
p241
sg35
S'70'
p242
sg37
S'100'
p243
sg39
S'28'
p244
sg41
S'SAS'
p245
sg43
S'55'
p246
sg45
S'3'
p247
sg47
S'176'
p248
sg49
S'56'
p249
sg51
S'369'
p250
sg53
S'68'
p251
sg55
S'1986-87'
p252
sg57
S'198'
p253
sg59
S'102'
p254
sg61
S'.477'
p255
sg63
S'1234'
p256
sg65
S'27'
p257
sba(isrc.gp1.models.Totals
Totals
p258
(dp259
g8
g201
sg10
g13
sg12
S'.400'
p260
sg14
g247
sg16
S'.000'
p261
sg18
S'0'
p262
sg20
g3
sg21
S'PG'
p263
sg23
S'2'
p264
sg25
S'.400'
p265
sg27
S'NBA'
p266
sg29
g262
sg31
S'10'
p267
sg33
S'8'
p268
sg35
g262
sg37
S'12'
p269
sg39
S'29'
p270
sg41
S'TOT'
p271
sg43
g105
sg45
S'7'
p272
sg47
g201
sg49
g262
sg51
S'9'
p273
sg53
g215
sg55
S'1987-88'
p274
sg57
g201
sg59
g13
sg61
S'.444'
p275
sg63
S'61'
p276
sg65
g262
sba(isrc.gp1.models.Totals
Totals
p277
(dp278
g8
g247
sg10
g13
sg12
S'.444'
p279
sg14
g247
sg16
S'.000'
p280
sg18
g262
sg20
g3
sg21
S'PG'
p281
sg23
g13
sg25
S'.444'
p282
sg27
S'NBA'
p283
sg29
g262
sg31
g273
sg33
g268
sg35
g262
sg37
S'11'
p284
sg39
S'29'
p285
sg41
S'SAS'
p286
sg43
g201
sg45
g201
sg47
g201
sg49
g262
sg51
g268
sg53
g201
sg55
S'1987-88'
p287
sg57
g201
sg59
g13
sg61
S'.500'
p288
sg63
S'51'
p289
sg65
g262
sba(isrc.gp1.models.Totals
Totals
p290
(dp291
g8
g264
sg10
g262
sg12
S'.000'
p292
sg14
g262
sg16
g262
sg18
g262
sg20
g3
sg21
S'PG'
p293
sg23
g13
sg25
g262
sg27
S'NBA'
p294
sg29
g247
sg31
g13
sg33
g3
sg35
g13
sg37
g262
sg39
S'29'
p295
sg41
S'NJN'
p296
sg43
g13
sg45
g262
sg47
g13
sg49
g262
sg51
S'.000'
p297
sg53
g13
sg55
S'1987-88'
p298
sg57
g262
sg59
g262
sg61
S'.000'
p299
sg63
S'10'
p300
sg65
g262
sba(isrc.gp1.models.Totals
Totals
p301
(dp302
g8
g3
sg10
g3
sg12
g3
sg14
g3
sg16
g3
sg18
g3
sg20
g3
sg21
g3
sg23
g3
sg25
g3
sg27
g3
sg29
g3
sg31
g3
sg33
g3
sg35
g3
sg37
g3
sg39
S'30'
p303
sg41
S'Did Not Play\xc2\xa0(other pro league\xe2\x80\x94Mexico)'
p304
sg43
g3
sg45
g3
sg47
g3
sg49
g3
sg51
g3
sg53
g3
sg55
S'1988-89'
p305
sg57
g3
sg59
g3
sg61
g3
sg63
g3
sg65
g3
sba(isrc.gp1.models.Totals
Totals
p306
(dp307
g8
S'16'
p308
sg10
S'34'
p309
sg12
S'.373'
p310
sg14
S'82'
p311
sg16
S'.235'
p312
sg18
g268
sg20
S'118'
p313
sg21
S'PG'
p314
sg23
S'.593'
p315
sg25
S'.405'
p316
sg27
S'NBA'
p317
sg29
S'32'
p318
sg31
S'126'
p319
sg33
S'55'
p320
sg35
S'27'
p321
sg37
S'52'
p322
sg39
S'31'
p323
sg41
S'SAS'
p324
sg43
S'53'
p325
sg45
g247
sg47
S'39'
p326
sg49
S'16'
p327
sg51
S'92'
p328
sg53
S'36'
p329
sg55
S'1989-90'
p330
sg57
S'47'
p331
sg59
S'39'
p332
sg61
S'.424'
p333
sg63
S'516'
p334
sg65
g268
sbasS'_college'
p335
S'University of Texas at Austin'
p336
sS'_toYear'
p337
S'1990'
p338
sS'_height'
p339
S'6-1'
p340
sS'_active'
p341
I00
sS'_shootingHand'
p342
VRight
p343
sS'_name'
p344
S'Johnny Moore'
p345
sS'_per100Possessions'
p346
(lp347
(isrc.gp1.models.Per100Possession
Per100Possession
p348
(dp349
g8
S'4.1'
p350
sg10
S'.053'
p351
sg12
S'0.0'
p352
sS'_offensiveRating'
p353
S'104'
p354
sg14
S'3.5'
p355
sg16
S'7.3'
p356
sg18
S'0.6'
p357
sg20
S'103'
p358
sg21
S'PG'
p359
sS'_defensiveRating'
p360
g3
sg23
S'1.7'
p361
sg27
S'NBA'
p362
sg29
S'0.7'
p363
sg31
S'.479'
p364
sg33
S'17.9'
p365
sg35
S'.610'
p366
sg37
S'11.0'
p367
sg39
S'22'
p368
sg41
S'SAS'
p369
sg43
S'82'
p370
sg45
S'4.6'
p371
sg47
S'14.8'
p372
sg49
S'5.1'
p373
sg51
S'.495'
p374
sg53
S'5.8'
p375
sg55
S'1980-81'
p376
sg57
S'15.4'
p377
sg59
S'5.3'
p378
sg61
S'3.1'
p379
sg63
S'7.4'
p380
sg65
S'1578'
p381
sba(isrc.gp1.models.Per100Possession
Per100Possession
p382
(dp383
g8
S'1.3'
p384
sg10
S'0.4'
p385
sg12
S'.463'
p386
sg353
S'110'
p387
sg14
S'15.6'
p388
sg16
S'.048'
p389
sg18
S'0.0'
p390
sg20
S'15.1'
p391
sg21
S'PG'
p392
sg360
S'106'
p393
sg23
S'.670'
p394
sg27
S'NBA'
p395
sg29
S'3.3'
p396
sg31
S'13.6'
p397
sg33
S'5.2'
p398
sg35
S'3.7'
p399
sg37
S'5.6'
p400
sg39
S'23'
p401
sg41
S'SAS'
p402
sg43
S'79'
p403
sg45
S'0.2'
p404
sg47
S'6.3'
p405
sg49
S'2.5'
p406
sg51
S'13.2'
p407
sg53
S'4.3'
p408
sg55
S'1981-82'
p409
sg57
S'6.3'
p410
sg59
S'3.6'
p411
sg61
S'.477'
p412
sg63
S'2294'
p413
sg65
S'78'
p414
sba(isrc.gp1.models.Per100Possession
Per100Possession
p415
(dp416
g8
S'1.2'
p417
sg10
S'0.4'
p418
sg12
S'.468'
p419
sg353
S'108'
p420
sg14
S'13.7'
p421
sg16
S'.227'
p422
sg18
S'0.1'
p423
sg20
S'17.1'
p424
sg21
S'PG'
p425
sg360
S'104'
p426
sg23
S'.744'
p427
sg27
S'NBA'
p428
sg29
S'3.5'
p429
sg31
S'15.3'
p430
sg33
S'4.5'
p431
sg35
S'3.6'
p432
sg37
S'5.0'
p433
sg39
S'24'
p434
sg41
S'SAS'
p435
sg43
S'77'
p436
sg45
S'0.6'
p437
sg47
S'7.1'
p438
sg49
S'2.7'
p439
sg51
S'14.9'
p440
sg53
S'3.9'
p441
sg55
S'1982-83'
p442
sg57
S'7.2'
p443
sg59
S'4.1'
p444
sg61
S'.475'
p445
sg63
S'2552'
p446
sg65
S'73'
p447
sba(isrc.gp1.models.Per100Possession
Per100Possession
p448
(dp449
g8
S'1.0'
p450
sg10
S'2.4'
p451
sg12
S'.446'
p452
sg353
S'111'
p453
sg14
S'15.5'
p454
sg16
S'.322'
p455
sg18
S'0.8'
p456
sg20
S'16.2'
p457
sg21
S'PG'
p458
sg360
S'109'
p459
sg23
S'.755'
p460
sg27
S'NBA'
p461
sg29
S'3.4'
p462
sg31
S'14.1'
p463
sg33
S'4.6'
p464
sg35
S'3.8'
p465
sg37
S'4.9'
p466
sg39
S'25'
p467
sg41
S'SAS'
p468
sg43
S'59'
p469
sg45
S'0.5'
p470
sg47
S'5.5'
p471
sg49
S'2.9'
p472
sg51
S'11.8'
p473
sg53
S'3.9'
p474
sg55
S'1983-84'
p475
sg57
S'6.3'
p476
sg59
S'3.9'
p477
sg61
S'.471'
p478
sg63
S'1650'
p479
sg65
S'42'
p480
sba(isrc.gp1.models.Per100Possession
Per100Possession
p481
(dp482
g8
S'1.6'
p483
sg10
S'1.5'
p484
sg12
S'.457'
p485
sg353
S'110'
p486
sg14
S'14.0'
p487
sg16
S'.281'
p488
sg18
S'0.4'
p489
sg20
S'18.0'
p490
sg21
S'PG'
p491
sg360
S'106'
p492
sg23
S'.762'
p493
sg27
S'NBA'
p494
sg29
S'3.9'
p495
sg31
S'15.6'
p496
sg33
S'4.2'
p497
sg35
S'4.3'
p498
sg37
S'6.5'
p499
sg39
S'26'
p500
sg41
S'SAS'
p501
sg43
S'82'
p502
sg45
S'0.3'
p503
sg47
S'6.7'
p504
sg49
S'3.2'
p505
sg51
S'14.1'
p506
sg53
S'4.9'
p507
sg55
S'1984-85'
p508
sg57
S'7.1'
p509
sg59
S'4.1'
p510
sg61
S'.476'
p511
sg63
S'2689'
p512
sg65
S'82'
p513
sba(isrc.gp1.models.Per100Possession
Per100Possession
p514
(dp515
g8
S'1.4'
p516
sg10
S'1.2'
p517
sg12
S'.495'
p518
sg353
S'109'
p519
sg14
S'13.6'
p520
sg16
S'.182'
p521
sg18
S'0.2'
p522
sg20
S'19.6'
p523
sg21
S'PG'
p524
sg360
S'106'
p525
sg23
S'.686'
p526
sg27
S'NBA'
p527
sg29
S'3.8'
p528
sg31
S'16.4'
p529
sg33
S'4.2'
p530
sg35
S'4.6'
p531
sg37
S'4.6'
p532
sg39
S'27'
p533
sg41
S'SAS'
p534
sg43
S'28'
p535
sg45
S'0.3'
p536
sg47
S'7.9'
p537
sg49
S'3.2'
p538
sg51
S'15.2'
p539
sg53
S'3.3'
p540
sg55
S'1985-86'
p541
sg57
S'8.1'
p542
sg59
S'4.4'
p543
sg61
S'.520'
p544
sg63
S'856'
p545
sg65
S'23'
p546
sba(isrc.gp1.models.Per100Possession
Per100Possession
p547
(dp548
g8
S'1.2'
p549
sg10
S'3.0'
p550
sg12
S'.442'
p551
sg353
S'102'
p552
sg14
S'9.6'
p553
sg16
S'.278'
p554
sg18
S'0.8'
p555
sg20
S'18.1'
p556
sg21
S'PG'
p557
sg360
S'111'
p558
sg23
S'.800'
p559
sg27
S'NBA'
p560
sg29
S'3.2'
p561
sg31
S'17.1'
p562
sg33
S'3.7'
p563
sg35
S'2.7'
p564
sg37
S'3.8'
p565
sg39
S'28'
p566
sg41
S'SAS'
p567
sg43
S'55'
p568
sg45
S'0.1'
p569
sg47
S'6.7'
p570
sg49
S'2.1'
p571
sg51
S'14.1'
p572
sg53
S'2.6'
p573
sg55
S'1986-87'
p574
sg57
S'7.6'
p575
sg59
S'3.9'
p576
sg61
S'.477'
p577
sg63
S'1234'
p578
sg65
S'27'
p579
sba(isrc.gp1.models.Per100Possession
Per100Possession
p580
(dp581
g8
S'3.0'
p582
sg10
S'0.8'
p583
sg12
S'.400'
p584
sg353
S'114'
p585
sg14
S'2.3'
p586
sg16
S'.000'
p587
sg18
S'0.0'
p588
sg20
S'76'
p589
sg21
S'PG'
p590
sg360
g3
sg23
S'1.5'
p591
sg27
S'NBA'
p592
sg29
S'0.0'
p593
sg31
S'7.6'
p594
sg33
S'6.1'
p595
sg35
S'0.0'
p596
sg37
S'9.1'
p597
sg39
S'29'
p598
sg41
S'TOT'
p599
sg43
g105
sg45
S'5.3'
p600
sg47
S'3.0'
p601
sg49
S'0.0'
p602
sg51
S'6.8'
p603
sg53
S'4.6'
p604
sg55
S'1987-88'
p605
sg57
S'3.0'
p606
sg59
S'0.8'
p607
sg61
S'.444'
p608
sg63
S'61'
p609
sg65
g262
sba(isrc.gp1.models.Per100Possession
Per100Possession
p610
(dp611
g8
S'2.7'
p612
sg10
S'0.9'
p613
sg12
S'.444'
p614
sg353
S'114'
p615
sg14
S'2.7'
p616
sg16
S'.000'
p617
sg18
S'0.0'
p618
sg20
S'92'
p619
sg21
S'PG'
p620
sg360
g3
sg23
S'0.9'
p621
sg27
S'NBA'
p622
sg29
S'0.0'
p623
sg31
S'8.1'
p624
sg33
S'7.2'
p625
sg35
S'0.0'
p626
sg37
S'9.9'
p627
sg39
S'29'
p628
sg41
S'SAS'
p629
sg43
g201
sg45
S'3.6'
p630
sg47
S'3.6'
p631
sg49
S'0.0'
p632
sg51
S'7.2'
p633
sg53
S'3.6'
p634
sg55
S'1987-88'
p635
sg57
S'3.6'
p636
sg59
S'0.9'
p637
sg61
S'.500'
p638
sg63
S'51'
p639
sg65
g262
sba(isrc.gp1.models.Per100Possession
Per100Possession
p640
(dp641
g8
S'9.7'
p642
sg10
S'0.0'
p643
sg12
S'.000'
p644
sg353
g3
sg14
S'0.0'
p645
sg16
S'0.0'
p646
sg18
S'0.0'
p647
sg20
S'115'
p648
sg21
S'PG'
p649
sg360
g3
sg23
S'4.9'
p650
sg27
S'NBA'
p651
sg29
S'14.6'
p652
sg31
S'4.9'
p653
sg33
S'24'
p654
sg35
S'4.9'
p655
sg37
S'0.0'
p656
sg39
S'29'
p657
sg41
S'NJN'
p658
sg43
g13
sg45
S'0.0'
p659
sg47
S'4.9'
p660
sg49
S'0.0'
p661
sg51
S'.000'
p662
sg53
S'4.9'
p663
sg55
S'1987-88'
p664
sg57
S'0.0'
p665
sg59
S'0.0'
p666
sg61
S'0.0'
p667
sg63
S'10'
p668
sg65
g262
sba(isrc.gp1.models.Per100Possession
Per100Possession
p669
(dp670
g8
S'1.5'
p671
sg10
S'3.2'
p672
sg12
S'.373'
p673
sg353
S'91'
p674
sg14
S'7.7'
p675
sg16
S'.235'
p676
sg18
S'0.8'
p677
sg20
S'11.1'
p678
sg21
S'PG'
p679
sg360
S'105'
p680
sg23
S'.593'
p681
sg27
S'NBA'
p682
sg29
S'3.0'
p683
sg31
S'11.9'
p684
sg33
S'5.2'
p685
sg35
S'2.6'
p686
sg37
S'4.9'
p687
sg39
S'31'
p688
sg41
S'SAS'
p689
sg43
S'53'
p690
sg45
S'0.3'
p691
sg47
S'3.7'
p692
sg49
S'1.5'
p693
sg51
S'8.7'
p694
sg53
S'3.4'
p695
sg55
S'1989-90'
p696
sg57
S'4.4'
p697
sg59
S'3.7'
p698
sg61
S'.424'
p699
sg63
S'516'
p700
sg65
g268
sbasS'_advanced'
p701
(lp702
(isrc.gp1.models.Advanced
Advanced
p703
(dp704
S'_offensiveReboundPercentage'
p705
S'4.2'
p706
sS'_turnOverPercentage'
p707
S'20.5'
p708
sS'_winSharesPer48Minutes'
p709
S'.099'
p710
sS'_stealPercentage'
p711
S'3.5'
p712
sS'_usagePercentage'
p713
S'18.9'
p714
sS'_totalReboundsPercentage'
p715
S'6.8'
p716
sS'_defensiveBoxPlusMinus'
p717
S'0.1'
p718
sg21
S'PG'
p719
sS'_valueOverReplacementPlayer'
p720
S'1.0'
p721
sS'_trueShootingPercentage'
p722
S'.507'
p723
sS'_defensiveReboundPercentage'
p724
S'9.1'
p725
sS'_freeThrowsAttempRate'
p726
S'.331'
p727
sS'_threePointsAttempRate'
p728
S'.037'
p729
sg27
S'NBA'
p730
sS'_offensiveBoxPlusMinues'
p731
S'0.4'
p732
sS'_assistPercentage'
p733
S'31.8'
p734
sS'_defensiveWinShares'
p735
S'2.0'
p736
sg39
S'22'
p737
sg41
S'SAS'
p738
sg43
S'82'
p739
sS'_blockPercentage'
p740
S'0.7'
p741
sS'_playerEfficiencyRating'
p742
S'15.8'
p743
sS'_offensiveWinShares'
p744
S'1.2'
p745
sg63
S'1578'
p746
sS'_boxPlusMinus'
p747
S'0.5'
p748
sg55
S'1980-81'
p749
sS'_winShares'
p750
S'3.2'
p751
sba(isrc.gp1.models.Advanced
Advanced
p752
(dp753
g705
S'2.9'
p754
sg707
S'19.0'
p755
sg709
S'.122'
p756
sg711
S'3.3'
p757
sg713
S'16.0'
p758
sg715
S'6.4'
p759
sg717
S'0.1'
p760
sg21
S'PG'
p761
sg720
S'1.9'
p762
sg722
S'.496'
p763
sg724
S'9.9'
p764
sg726
S'.273'
p765
sg728
S'.031'
p766
sg27
S'NBA'
p767
sg731
S'1.2'
p768
sg733
S'41.5'
p769
sg735
S'2.7'
p770
sg39
S'23'
p771
sg41
S'SAS'
p772
sg43
S'79'
p773
sg740
S'0.3'
p774
sg742
S'17.0'
p775
sg744
S'3.1'
p776
sg63
S'2294'
p777
sg747
S'1.3'
p778
sg55
S'1981-82'
p779
sg750
S'5.8'
p780
sba(isrc.gp1.models.Advanced
Advanced
p781
(dp782
g705
S'2.9'
p783
sg707
S'19.6'
p784
sg709
S'.123'
p785
sg711
S'3.5'
p786
sg713
S'18.0'
p787
sg715
S'5.9'
p788
sg717
S'0.4'
p789
sg21
S'PG'
p790
sg720
S'2.5'
p791
sg722
S'.507'
p792
sg724
S'8.7'
p793
sg726
S'.237'
p794
sg728
S'.026'
p795
sg27
S'NBA'
p796
sg731
S'1.6'
p797
sg733
S'37.8'
p798
sg735
S'2.8'
p799
sg39
S'24'
p800
sg41
S'SAS'
p801
sg43
S'77'
p802
sg740
S'0.7'
p803
sg742
S'17.5'
p804
sg744
S'3.8'
p805
sg63
S'2552'
p806
sg747
S'1.9'
p807
sg55
S'1982-83'
p808
sg750
S'6.6'
p809
sba(isrc.gp1.models.Advanced
Advanced
p810
(dp811
g705
S'2.4'
p812
sg707
S'19.8'
p813
sg709
S'.110'
p814
sg711
S'3.4'
p815
sg713
S'17.0'
p816
sg715
S'5.7'
p817
sg717
S'-0.5'
p818
sg21
S'PG'
p819
sg720
S'1.4'
p820
sg722
S'.514'
p821
sg724
S'8.9'
p822
sg726
S'.268'
p823
sg728
S'.168'
p824
sg27
S'NBA'
p825
sg731
S'1.8'
p826
sg733
S'40.9'
p827
sg735
S'1.4'
p828
sg39
S'25'
p829
sg41
S'SAS'
p830
sg43
S'59'
p831
sg740
S'0.6'
p832
sg742
S'17.5'
p833
sg744
S'2.4'
p834
sg63
S'1650'
p835
sg747
S'1.3'
p836
sg55
S'1983-84'
p837
sg750
S'3.8'
p838
sba(isrc.gp1.models.Advanced
Advanced
p839
(dp840
g705
S'4.1'
p841
sg707
S'18.8'
p842
sg709
S'.128'
p843
sg711
S'3.9'
p844
sg713
S'18.7'
p845
sg715
S'7.9'
p846
sg717
S'1.2'
p847
sg21
S'PG'
p848
sg720
S'3.7'
p849
sg722
S'.513'
p850
sg724
S'11.6'
p851
sg726
S'.273'
p852
sg728
S'.098'
p853
sg27
S'NBA'
p854
sg731
S'2.2'
p855
sg733
S'38.9'
p856
sg735
S'3.5'
p857
sg39
S'26'
p858
sg41
S'SAS'
p859
sg43
S'82'
p860
sg740
S'0.4'
p861
sg742
S'18.3'
p862
sg744
S'3.7'
p863
sg63
S'2689'
p864
sg747
S'3.4'
p865
sg55
S'1984-85'
p866
sg750
S'7.2'
p867
sba(isrc.gp1.models.Advanced
Advanced
p868
(dp869
g705
S'3.4'
p870
sg707
S'19.2'
p871
sg709
S'.119'
p872
sg711
S'3.8'
p873
sg713
S'19.8'
p874
sg715
S'5.7'
p875
sg717
S'-0.2'
p876
sg21
S'PG'
p877
sg720
S'0.8'
p878
sg722
S'.533'
p879
sg724
S'7.9'
p880
sg726
S'.284'
p881
sg728
S'.073'
p882
sg27
S'NBA'
p883
sg731
S'1.9'
p884
sg733
S'40.2'
p885
sg735
S'1.0'
p886
sg39
S'27'
p887
sg41
S'SAS'
p888
sg43
S'28'
p889
sg740
S'0.4'
p890
sg742
S'18.3'
p891
sg744
S'1.2'
p892
sg63
S'856'
p893
sg747
S'1.7'
p894
sg55
S'1985-86'
p895
sg750
S'2.1'
p896
sba(isrc.gp1.models.Advanced
Advanced
p897
(dp898
g705
S'2.7'
p899
sg707
S'17.6'
p900
sg709
S'.048'
p901
sg711
S'3.2'
p902
sg713
S'18.9'
p903
sg715
S'4.5'
p904
sg717
S'-1.3'
p905
sg21
S'PG'
p906
sg720
S'-0.1'
p907
sg722
S'.495'
p908
sg724
S'6.3'
p909
sg726
S'.156'
p910
sg728
S'.176'
p911
sg27
S'NBA'
p912
sg731
S'-1.0'
p913
sg733
S'27.7'
p914
sg735
S'0.9'
p915
sg39
S'28'
p916
sg41
S'SAS'
p917
sg43
S'55'
p918
sg740
S'0.1'
p919
sg742
S'13.4'
p920
sg744
S'0.3'
p921
sg63
S'1234'
p922
sg747
S'-2.3'
p923
sg55
S'1986-87'
p924
sg750
S'1.2'
p925
sba(isrc.gp1.models.Advanced
Advanced
p926
(dp927
g705
S'3.6'
p928
sg707
S'41.2'
p929
sg709
S'-0.077'
p930
sg711
S'2.3'
p931
sg713
S'11.2'
p932
sg715
S'5.4'
p933
sg717
S'-1.7'
p934
sg21
S'PG'
p935
sg720
S'-0.1'
p936
sg722
S'.400'
p937
sg724
S'7.3'
p938
sg726
S'.000'
p939
sg728
S'.100'
p940
sg27
S'NBA'
p941
sg731
S'-6.6'
p942
sg733
S'23.1'
p943
sg735
S'0.0'
p944
sg39
S'29'
p945
sg41
S'TOT'
p946
sg43
g105
sg740
S'0.0'
p947
sg742
S'5.9'
p948
sg744
S'-0.1'
p949
sg63
S'61'
p950
sg747
S'-8.3'
p951
sg55
S'1987-88'
p952
sg750
S'-0.1'
p953
sba(isrc.gp1.models.Advanced
Advanced
p954
(dp955
g705
S'2.1'
p956
sg707
S'30.8'
p957
sg709
S'-0.009'
p958
sg711
S'2.7'
p959
sg713
S'10.1'
p960
sg715
S'4.2'
p961
sg717
S'-2.1'
p962
sg21
S'PG'
p963
sg720
S'-0.1'
p964
sg722
S'.444'
p965
sg724
S'6.4'
p966
sg726
S'.000'
p967
sg728
S'.111'
p968
sg27
S'NBA'
p969
sg731
S'-4.5'
p970
sg733
S'25.2'
p971
sg735
S'0.0'
p972
sg39
S'29'
p973
sg41
S'SAS'
p974
sg43
g201
sg740
S'0.0'
p975
sg742
S'9.0'
p976
sg744
S'0.0'
p977
sg63
S'51'
p978
sg747
S'-6.6'
p979
sg55
S'1987-88'
p980
sg750
S'0.0'
p981
sba(isrc.gp1.models.Advanced
Advanced
p982
(dp983
g705
S'11.2'
p984
sg707
S'75.0'
p985
sg709
S'-0.428'
p986
sg711
S'0.0'
p987
sg713
S'16.9'
p988
sg715
S'11.6'
p989
sg717
S'0.3'
p990
sg21
S'PG'
p991
sg720
S'0.0'
p992
sg722
S'.000'
p993
sg724
S'12.0'
p994
sg726
S'.000'
p995
sg728
S'.000'
p996
sg27
S'NBA'
p997
sg731
S'-17.5'
p998
sg733
S'12.3'
p999
sg735
S'0.0'
p1000
sg39
S'29'
p1001
sg41
S'NJN'
p1002
sg43
g13
sg740
S'0.0'
p1003
sg742
S'-9.8'
p1004
sg744
S'-0.1'
p1005
sg63
S'10'
p1006
sg747
S'-17.2'
p1007
sg55
S'1987-88'
p1008
sg750
S'-0.1'
p1009
sba(isrc.gp1.models.Advanced
Advanced
p1010
(dp1011
g705
S'3.6'
p1012
sg707
S'22.0'
p1013
sg709
S'.029'
p1014
sg711
S'3.0'
p1015
sg713
S'14.2'
p1016
sg715
S'5.7'
p1017
sg717
S'0.2'
p1018
sg21
S'PG'
p1019
sg720
S'-0.2'
p1020
sg722
S'.428'
p1021
sg724
S'7.6'
p1022
sg726
S'.214'
p1023
sg728
S'.270'
p1024
sg27
S'NBA'
p1025
sg731
S'-3.4'
p1026
sg733
S'20.7'
p1027
sg735
S'0.7'
p1028
sg39
S'31'
p1029
sg41
S'SAS'
p1030
sg43
S'53'
p1031
sg740
S'0.4'
p1032
sg742
S'8.1'
p1033
sg744
S'-0.4'
p1034
sg63
S'516'
p1035
sg747
S'-3.2'
p1036
sg55
S'1989-90'
p1037
sg750
S'0.3'
p1038
sbasS'_per36Minutes'
p1039
(lp1040
(isrc.gp1.models.Per36Minutes
Per36Minutes
p1041
(dp1042
g8
S'3.1'
p1043
sg10
S'.053'
p1044
sg12
S'0.0'
p1045
sg14
S'2.7'
p1046
sg16
S'5.7'
p1047
sg18
S'0.4'
p1048
sg20
g3
sg21
S'PG'
p1049
sg23
S'1.3'
p1050
sg27
S'NBA'
p1051
sg29
S'0.5'
p1052
sg31
S'.479'
p1053
sg33
S'13.8'
p1054
sg35
S'.610'
p1055
sg37
S'8.5'
p1056
sg39
S'22'
p1057
sg41
S'SAS'
p1058
sg43
S'82'
p1059
sg45
S'3.5'
p1060
sg47
S'11.4'
p1061
sg49
S'3.9'
p1062
sg51
S'.495'
p1063
sg53
S'4.5'
p1064
sg55
S'1980-81'
p1065
sg57
S'11.9'
p1066
sg59
S'4.1'
p1067
sg61
S'2.4'
p1068
sg63
S'5.7'
p1069
sg65
S'1578'
p1070
sba(isrc.gp1.models.Per36Minutes
Per36Minutes
p1071
(dp1072
g8
S'1.0'
p1073
sg10
S'0.3'
p1074
sg12
S'.463'
p1075
sg14
S'12.0'
p1076
sg16
S'.048'
p1077
sg18
S'0.0'
p1078
sg20
S'11.6'
p1079
sg21
S'PG'
p1080
sg23
S'.670'
p1081
sg27
S'NBA'
p1082
sg29
S'2.6'
p1083
sg31
S'10.5'
p1084
sg33
S'4.0'
p1085
sg35
S'2.9'
p1086
sg37
S'4.3'
p1087
sg39
S'23'
p1088
sg41
S'SAS'
p1089
sg43
S'79'
p1090
sg45
S'0.2'
p1091
sg47
S'4.8'
p1092
sg49
S'1.9'
p1093
sg51
S'10.1'
p1094
sg53
S'3.3'
p1095
sg55
S'1981-82'
p1096
sg57
S'4.8'
p1097
sg59
S'2.7'
p1098
sg61
S'.477'
p1099
sg63
S'2294'
p1100
sg65
S'78'
p1101
sba(isrc.gp1.models.Per36Minutes
Per36Minutes
p1102
(dp1103
g8
S'0.9'
p1104
sg10
S'0.3'
p1105
sg12
S'.468'
p1106
sg14
S'10.6'
p1107
sg16
S'.227'
p1108
sg18
S'0.1'
p1109
sg20
S'13.3'
p1110
sg21
S'PG'
p1111
sg23
S'.744'
p1112
sg27
S'NBA'
p1113
sg29
S'2.7'
p1114
sg31
S'11.9'
p1115
sg33
S'3.5'
p1116
sg35
S'2.8'
p1117
sg37
S'3.9'
p1118
sg39
S'24'
p1119
sg41
S'SAS'
p1120
sg43
S'77'
p1121
sg45
S'0.5'
p1122
sg47
S'5.5'
p1123
sg49
S'2.1'
p1124
sg51
S'11.6'
p1125
sg53
S'3.0'
p1126
sg55
S'1982-83'
p1127
sg57
S'5.6'
p1128
sg59
S'3.2'
p1129
sg61
S'.475'
p1130
sg63
S'2552'
p1131
sg65
S'73'
p1132
sba(isrc.gp1.models.Per36Minutes
Per36Minutes
p1133
(dp1134
g8
S'0.8'
p1135
sg10
S'1.9'
p1136
sg12
S'.446'
p1137
sg14
S'12.3'
p1138
sg16
S'.322'
p1139
sg18
S'0.6'
p1140
sg20
S'13.0'
p1141
sg21
S'PG'
p1142
sg23
S'.755'
p1143
sg27
S'NBA'
p1144
sg29
S'2.7'
p1145
sg31
S'11.3'
p1146
sg33
S'3.7'
p1147
sg35
S'3.0'
p1148
sg37
S'3.9'
p1149
sg39
S'25'
p1150
sg41
S'SAS'
p1151
sg43
S'59'
p1152
sg45
S'0.4'
p1153
sg47
S'4.4'
p1154
sg49
S'2.3'
p1155
sg51
S'9.4'
p1156
sg53
S'3.1'
p1157
sg55
S'1983-84'
p1158
sg57
S'5.0'
p1159
sg59
S'3.1'
p1160
sg61
S'.471'
p1161
sg63
S'1650'
p1162
sg65
S'42'
p1163
sba(isrc.gp1.models.Per36Minutes
Per36Minutes
p1164
(dp1165
g8
S'1.3'
p1166
sg10
S'1.2'
p1167
sg12
S'.457'
p1168
sg14
S'10.9'
p1169
sg16
S'.281'
p1170
sg18
S'0.3'
p1171
sg20
S'14.0'
p1172
sg21
S'PG'
p1173
sg23
S'.762'
p1174
sg27
S'NBA'
p1175
sg29
S'3.1'
p1176
sg31
S'12.2'
p1177
sg33
S'3.3'
p1178
sg35
S'3.3'
p1179
sg37
S'5.1'
p1180
sg39
S'26'
p1181
sg41
S'SAS'
p1182
sg43
S'82'
p1183
sg45
S'0.2'
p1184
sg47
S'5.2'
p1185
sg49
S'2.5'
p1186
sg51
S'11.0'
p1187
sg53
S'3.8'
p1188
sg55
S'1984-85'
p1189
sg57
S'5.6'
p1190
sg59
S'3.2'
p1191
sg61
S'.476'
p1192
sg63
S'2689'
p1193
sg65
S'82'
p1194
sba(isrc.gp1.models.Per36Minutes
Per36Minutes
p1195
(dp1196
g8
S'1.1'
p1197
sg10
S'0.9'
p1198
sg12
S'.495'
p1199
sg14
S'10.6'
p1200
sg16
S'.182'
p1201
sg18
S'0.2'
p1202
sg20
S'15.3'
p1203
sg21
S'PG'
p1204
sg23
S'.686'
p1205
sg27
S'NBA'
p1206
sg29
S'2.9'
p1207
sg31
S'12.7'
p1208
sg33
S'3.3'
p1209
sg35
S'3.6'
p1210
sg37
S'3.6'
p1211
sg39
S'27'
p1212
sg41
S'SAS'
p1213
sg43
S'28'
p1214
sg45
S'0.3'
p1215
sg47
S'6.1'
p1216
sg49
S'2.5'
p1217
sg51
S'11.8'
p1218
sg53
S'2.6'
p1219
sg55
S'1985-86'
p1220
sg57
S'6.3'
p1221
sg59
S'3.4'
p1222
sg61
S'.520'
p1223
sg63
S'856'
p1224
sg65
S'23'
p1225
sba(isrc.gp1.models.Per36Minutes
Per36Minutes
p1226
(dp1227
g8
S'0.9'
p1228
sg10
S'2.3'
p1229
sg12
S'.442'
p1230
sg14
S'7.3'
p1231
sg16
S'.278'
p1232
sg18
S'0.6'
p1233
sg20
S'13.8'
p1234
sg21
S'PG'
p1235
sg23
S'.800'
p1236
sg27
S'NBA'
p1237
sg29
S'2.4'
p1238
sg31
S'13.1'
p1239
sg33
S'2.8'
p1240
sg35
S'2.0'
p1241
sg37
S'2.9'
p1242
sg39
S'28'
p1243
sg41
S'SAS'
p1244
sg43
S'55'
p1245
sg45
S'0.1'
p1246
sg47
S'5.1'
p1247
sg49
S'1.6'
p1248
sg51
S'10.8'
p1249
sg53
S'2.0'
p1250
sg55
S'1986-87'
p1251
sg57
S'5.8'
p1252
sg59
S'3.0'
p1253
sg61
S'.477'
p1254
sg63
S'1234'
p1255
sg65
S'27'
p1256
sba(isrc.gp1.models.Per36Minutes
Per36Minutes
p1257
(dp1258
g8
S'2.4'
p1259
sg10
S'0.6'
p1260
sg12
S'.400'
p1261
sg14
S'1.8'
p1262
sg16
S'.000'
p1263
sg18
S'0.0'
p1264
sg20
g3
sg21
S'PG'
p1265
sg23
S'1.2'
p1266
sg27
S'NBA'
p1267
sg29
S'0.0'
p1268
sg31
S'5.9'
p1269
sg33
S'4.7'
p1270
sg35
S'0.0'
p1271
sg37
S'7.1'
p1272
sg39
S'29'
p1273
sg41
S'TOT'
p1274
sg43
g105
sg45
S'4.1'
p1275
sg47
S'2.4'
p1276
sg49
S'0.0'
p1277
sg51
S'5.3'
p1278
sg53
S'3.5'
p1279
sg55
S'1987-88'
p1280
sg57
S'2.4'
p1281
sg59
S'0.6'
p1282
sg61
S'.444'
p1283
sg63
S'61'
p1284
sg65
g262
sba(isrc.gp1.models.Per36Minutes
Per36Minutes
p1285
(dp1286
g8
S'2.1'
p1287
sg10
S'0.7'
p1288
sg12
S'.444'
p1289
sg14
S'2.1'
p1290
sg16
S'.000'
p1291
sg18
S'0.0'
p1292
sg20
g3
sg21
S'PG'
p1293
sg23
S'0.7'
p1294
sg27
S'NBA'
p1295
sg29
S'0.0'
p1296
sg31
S'6.4'
p1297
sg33
S'5.6'
p1298
sg35
S'0.0'
p1299
sg37
S'7.8'
p1300
sg39
S'29'
p1301
sg41
S'SAS'
p1302
sg43
g201
sg45
S'2.8'
p1303
sg47
S'2.8'
p1304
sg49
S'0.0'
p1305
sg51
S'5.6'
p1306
sg53
S'2.8'
p1307
sg55
S'1987-88'
p1308
sg57
S'2.8'
p1309
sg59
S'0.7'
p1310
sg61
S'.500'
p1311
sg63
S'51'
p1312
sg65
g262
sba(isrc.gp1.models.Per36Minutes
Per36Minutes
p1313
(dp1314
g8
S'7.2'
p1315
sg10
S'0.0'
p1316
sg12
S'.000'
p1317
sg14
S'0.0'
p1318
sg16
S'0.0'
p1319
sg18
S'0.0'
p1320
sg20
g3
sg21
S'PG'
p1321
sg23
S'3.6'
p1322
sg27
S'NBA'
p1323
sg29
S'10.8'
p1324
sg31
S'3.6'
p1325
sg33
g3
sg35
S'3.6'
p1326
sg37
S'0.0'
p1327
sg39
S'29'
p1328
sg41
S'NJN'
p1329
sg43
g13
sg45
S'0.0'
p1330
sg47
S'3.6'
p1331
sg49
S'0.0'
p1332
sg51
S'.000'
p1333
sg53
S'3.6'
p1334
sg55
S'1987-88'
p1335
sg57
S'0.0'
p1336
sg59
S'0.0'
p1337
sg61
S'0.0'
p1338
sg63
S'10'
p1339
sg65
g262
sba(isrc.gp1.models.Per36Minutes
Per36Minutes
p1340
(dp1341
g8
S'1.1'
p1342
sg10
S'2.4'
p1343
sg12
S'.373'
p1344
sg14
S'5.7'
p1345
sg16
S'.235'
p1346
sg18
S'0.6'
p1347
sg20
S'8.2'
p1348
sg21
S'PG'
p1349
sg23
S'.593'
p1350
sg27
S'NBA'
p1351
sg29
S'2.2'
p1352
sg31
S'8.8'
p1353
sg33
S'3.8'
p1354
sg35
S'1.9'
p1355
sg37
S'3.6'
p1356
sg39
S'31'
p1357
sg41
S'SAS'
p1358
sg43
S'53'
p1359
sg45
S'0.2'
p1360
sg47
S'2.7'
p1361
sg49
S'1.1'
p1362
sg51
S'6.4'
p1363
sg53
S'2.5'
p1364
sg55
S'1989-90'
p1365
sg57
S'3.3'
p1366
sg59
S'2.7'
p1367
sg61
S'.424'
p1368
sg63
S'516'
p1369
sg65
g268
sbasS'_fromYear'
p1370
S'1981'
p1371
sS'_url'
p1372
S'http://www.basketball-reference.com/players/m/moorejo01.html'
p1373
sS'_perGame'
p1374
(isrc.gp1.models.PerGame
PerGame
p1375
(dp1376
g8
S'0.3'
p1377
sg10
S'0.6'
p1378
sg12
S'.373'
p1379
sS'_effectiveFieldGalPercentage'
p1380
S'.405'
p1381
sg14
S'1.5'
p1382
sg16
S'.235'
p1383
sg18
S'0.2'
p1384
sg20
S'2.2'
p1385
sg21
S'PG'
p1386
sg23
S'.593'
p1387
sg27
S'NBA'
p1388
sg29
S'0.6'
p1389
sg33
S'1.0'
p1390
sS'_fieldGoalsttempted'
p1391
S'2.4'
p1392
sg35
S'0.5'
p1393
sg37
S'1.0'
p1394
sg39
S'31'
p1395
sg41
S'SAS'
p1396
sg43
S'53'
p1397
sg45
S'0.1'
p1398
sg47
S'0.7'
p1399
sg49
S'0.3'
p1400
sg51
S'1.7'
p1401
sg53
S'0.7'
p1402
sg55
S'1989-90'
p1403
sg57
S'0.9'
p1404
sg59
S'0.7'
p1405
sg61
S'.424'
p1406
sg63
S'9.7'
p1407
sg65
g268
sbsS'_weight'
p1408
S'175'
p1409
sS'_dob'
p1410
S'3-3-1958'
p1411
sS'_salary'
p1412
(lp1413
(isrc.gp1.models.Salary
Salary
p1414
(dp1415
g41
S'San Antonio Spurs'
p1416
sg27
S'NBA'
p1417
sg1412
S'$350,000'
p1418
sg55
S'1985-86'
p1419
sbasg21
S'G'
p1420
sb.