(isrc.gp1.models.Player
Player
p0
(dp1
S'_experience'
p2
S'NA'
p3
sS'_totals'
p4
(lp5
(isrc.gp1.models.Totals
Totals
p6
(dp7
S'_offensiveRebounds'
p8
S'4'
p9
sS'_threePointsAttempted'
p10
S'0'
p11
sS'_fieldGoalsPercentage'
p12
S'.405'
p13
sS'_assist'
p14
g11
sS'_threePointsPercentage'
p15
g3
sS'_threePoints'
p16
g11
sS'_points'
p17
S'32'
p18
sS'_position'
p19
S'C'
p20
sS'_freeThrowsPercentage'
p21
S'.333'
p22
sS'_effectiveFieldGoalPercentage'
p23
S'.405'
p24
sS'_league'
p25
S'NBA'
p26
sS'_steals'
p27
S'1'
p28
sS'_fieldGoalsAttempted'
p29
S'37'
p30
sS'_personalFouls'
p31
S'20'
p32
sS'_freeThrowsAttempted'
p33
S'6'
p34
sS'_totalRebounds'
p35
S'32'
p36
sS'_age'
p37
S'24'
p38
sS'_team'
p39
S'MIA'
p40
sS'_games'
p41
S'16'
p42
sS'_blocks'
p43
S'12'
p44
sS'_twoPoints'
p45
S'15'
p46
sS'_freeThrows'
p47
S'2'
p48
sS'_twoPointsAttempted'
p49
S'37'
p50
sS'_defensiveRebounds'
p51
S'28'
p52
sS'_season'
p53
S'2002-03'
p54
sS'_fieldGoals'
p55
S'15'
p56
sS'_turnOvers'
p57
g34
sS'_twoPointsPercentage'
p58
S'.405'
p59
sS'_minutesPlayed'
p60
S'156'
p61
sS'_gamesStarted'
p62
g11
sbasS'_college'
p63
S'Ohio State University'
p64
sS'_toYear'
p65
S'2003'
p66
sS'_height'
p67
S'6-11'
p68
sS'_active'
p69
I00
sS'_shootingHand'
p70
VRight
p71
sS'_name'
p72
S'Ken Johnson'
p73
sS'_per100Possessions'
p74
(lp75
(isrc.gp1.models.Per100Possession
Per100Possession
p76
(dp77
g8
S'1.4'
p78
sg10
S'0.0'
p79
sg12
S'.405'
p80
sS'_offensiveRating'
p81
S'76'
p82
sg14
S'0.0'
p83
sg15
g3
sg16
S'0.0'
p84
sg17
S'11.2'
p85
sg19
g20
sS'_defensiveRating'
p86
S'100'
p87
sg21
S'.333'
p88
sg25
S'NBA'
p89
sg27
S'0.4'
p90
sg29
S'13.0'
p91
sg31
S'7.0'
p92
sg33
S'2.1'
p93
sg35
S'11.2'
p94
sg37
S'24'
p95
sg39
S'MIA'
p96
sg41
S'16'
p97
sg43
S'4.2'
p98
sg45
S'5.3'
p99
sg47
S'0.7'
p100
sg49
S'13.0'
p101
sg51
S'9.8'
p102
sg53
S'2002-03'
p103
sg55
S'5.3'
p104
sg57
S'2.1'
p105
sg58
S'.405'
p106
sg60
S'156'
p107
sg62
g11
sbasS'_advanced'
p108
(lp109
(isrc.gp1.models.Advanced
Advanced
p110
(dp111
S'_offensiveReboundPercentage'
p112
S'2.9'
p113
sS'_turnOverPercentage'
p114
S'13.1'
p115
sS'_winSharesPer48Minutes'
p116
S'-0.002'
p117
sS'_stealPercentage'
p118
S'0.4'
p119
sS'_usagePercentage'
p120
S'13.8'
p121
sS'_totalReboundsPercentage'
p122
S'11.8'
p123
sS'_defensiveBoxPlusMinus'
p124
S'-0.1'
p125
sg19
g20
sS'_valueOverReplacementPlayer'
p126
S'-0.3'
p127
sS'_trueShootingPercentage'
p128
S'.404'
p129
sS'_defensiveReboundPercentage'
p130
S'21.3'
p131
sS'_freeThrowsAttempRate'
p132
S'.162'
p133
sS'_threePointsAttempRate'
p134
S'.000'
p135
sg25
S'NBA'
p136
sS'_offensiveBoxPlusMinues'
p137
S'-9.9'
p138
sS'_assistPercentage'
p139
S'0.0'
p140
sS'_defensiveWinShares'
p141
S'0.2'
p142
sg37
S'24'
p143
sg39
S'MIA'
p144
sg41
S'16'
p145
sS'_blockPercentage'
p146
S'6.0'
p147
sS'_playerEfficiencyRating'
p148
S'6.1'
p149
sS'_offensiveWinShares'
p150
S'-0.2'
p151
sg60
S'156'
p152
sS'_boxPlusMinus'
p153
S'-10.0'
p154
sg53
S'2002-03'
p155
sS'_winShares'
p156
S'0.0'
p157
sbasS'_per36Minutes'
p158
(lp159
(isrc.gp1.models.Per36Minutes
Per36Minutes
p160
(dp161
g8
S'0.9'
p162
sg10
S'0.0'
p163
sg12
S'.405'
p164
sg14
S'0.0'
p165
sg15
g3
sg16
S'0.0'
p166
sg17
S'7.4'
p167
sg19
g20
sg21
S'.333'
p168
sg25
S'NBA'
p169
sg27
S'0.2'
p170
sg29
S'8.5'
p171
sg31
S'4.6'
p172
sg33
S'1.4'
p173
sg35
S'7.4'
p174
sg37
S'24'
p175
sg39
S'MIA'
p176
sg41
S'16'
p177
sg43
S'2.8'
p178
sg45
S'3.5'
p179
sg47
S'0.5'
p180
sg49
S'8.5'
p181
sg51
S'6.5'
p182
sg53
S'2002-03'
p183
sg55
S'3.5'
p184
sg57
S'1.4'
p185
sg58
S'.405'
p186
sg60
S'156'
p187
sg62
g11
sbasS'_fromYear'
p188
S'2003'
p189
sS'_url'
p190
S'http://www.basketball-reference.com/players/j/johnske03.html'
p191
sS'_perGame'
p192
(isrc.gp1.models.PerGame
PerGame
p193
(dp194
g8
S'0.3'
p195
sg10
S'0.0'
p196
sg12
S'.405'
p197
sS'_effectiveFieldGalPercentage'
p198
S'.405'
p199
sg14
S'0.0'
p200
sg15
g3
sg16
S'0.0'
p201
sg17
S'2.0'
p202
sg19
g20
sg21
S'.333'
p203
sg25
S'NBA'
p204
sg27
S'0.1'
p205
sg31
S'1.3'
p206
sS'_fieldGoalsttempted'
p207
S'2.3'
p208
sg33
S'0.4'
p209
sg35
S'2.0'
p210
sg37
S'24'
p211
sg39
S'MIA'
p212
sg41
S'16'
p213
sg43
S'0.8'
p214
sg45
S'0.9'
p215
sg47
S'0.1'
p216
sg49
S'2.3'
p217
sg51
S'1.8'
p218
sg53
S'2002-03'
p219
sg55
S'0.9'
p220
sg57
S'0.4'
p221
sg58
S'.405'
p222
sg60
S'9.8'
p223
sg62
g11
sbsS'_weight'
p224
S'240'
p225
sS'_dob'
p226
S'1-2-1978'
p227
sS'_salary'
p228
(lp229
(isrc.gp1.models.Salary
Salary
p230
(dp231
g39
S'Miami Heat'
p232
sg25
S'NBA'
p233
sg228
S'$349,458'
p234
sg53
S'2002-03'
p235
sbasg19
S'F-C'
p236
sb.