(isrc.gp1.models.Player
Player
p0
(dp1
S'_experience'
p2
S'NA'
p3
sS'_totals'
p4
(lp5
(isrc.gp1.models.Totals
Totals
p6
(dp7
S'_offensiveRebounds'
p8
g3
sS'_threePointsAttempted'
p9
g3
sS'_fieldGoalsPercentage'
p10
S'.472'
p11
sS'_assist'
p12
S'39'
p13
sS'_threePointsPercentage'
p14
g3
sS'_threePoints'
p15
g3
sS'_points'
p16
S'382'
p17
sS'_position'
p18
S'C'
p19
sS'_freeThrowsPercentage'
p20
S'.662'
p21
sS'_effectiveFieldGoalPercentage'
p22
S'.472'
p23
sS'_league'
p24
S'NBA'
p25
sS'_steals'
p26
g3
sS'_fieldGoalsAttempted'
p27
S'299'
p28
sS'_personalFouls'
p29
S'154'
p30
sS'_freeThrowsAttempted'
p31
S'151'
p32
sS'_totalRebounds'
p33
S'342'
p34
sS'_age'
p35
S'22'
p36
sS'_team'
p37
S'PHW'
p38
sS'_games'
p39
S'64'
p40
sS'_blocks'
p41
g3
sS'_twoPoints'
p42
S'141'
p43
sS'_freeThrows'
p44
S'100'
p45
sS'_twoPointsAttempted'
p46
S'299'
p47
sS'_defensiveRebounds'
p48
g3
sS'_season'
p49
S'1951-52'
p50
sS'_fieldGoals'
p51
S'141'
p52
sS'_turnOvers'
p53
g3
sS'_twoPointsPercentage'
p54
S'.472'
p55
sS'_minutesPlayed'
p56
S'993'
p57
sS'_gamesStarted'
p58
g3
sba(isrc.gp1.models.Totals
Totals
p59
(dp60
g8
g3
sg9
g3
sg10
S'.452'
p61
sg12
S'197'
p62
sg14
g3
sg15
g3
sg16
S'1564'
p63
sg18
g19
sg20
S'.700'
p64
sg22
S'.452'
p65
sg24
S'NBA'
p66
sg26
g3
sg27
S'1114'
p67
sg29
S'248'
p68
sg31
S'794'
p69
sg33
S'976'
p70
sg35
S'23'
p71
sg37
S'PHW'
p72
sg39
S'70'
p73
sg41
g3
sg42
S'504'
p74
sg44
S'556'
p75
sg46
S'1114'
p76
sg48
g3
sg49
S'1952-53'
p77
sg51
S'504'
p78
sg53
g3
sg54
S'.452'
p79
sg56
S'3166'
p80
sg58
g3
sba(isrc.gp1.models.Totals
Totals
p81
(dp82
g8
g3
sg9
g3
sg10
S'.449'
p83
sg12
S'203'
p84
sg14
g3
sg15
g3
sg16
S'1759'
p85
sg18
g19
sg20
S'.747'
p86
sg22
S'.449'
p87
sg24
S'NBA'
p88
sg26
g3
sg27
S'1317'
p89
sg29
S'259'
p90
sg31
S'772'
p91
sg33
S'797'
p92
sg35
S'24'
p93
sg37
S'PHW'
p94
sg39
S'72'
p95
sg41
g3
sg42
S'591'
p96
sg44
S'577'
p97
sg46
S'1317'
p98
sg48
g3
sg49
S'1953-54'
p99
sg51
S'591'
p100
sg53
g3
sg54
S'.449'
p101
sg56
S'3296'
p102
sg58
g3
sba(isrc.gp1.models.Totals
Totals
p103
(dp104
g8
g3
sg9
g3
sg10
S'.440'
p105
sg12
S'215'
p106
sg14
g3
sg15
g3
sg16
S'1631'
p107
sg18
g19
sg20
S'.766'
p108
sg22
S'.440'
p109
sg24
S'NBA'
p110
sg26
g3
sg27
S'1184'
p111
sg29
S'255'
p112
sg31
S'769'
p113
sg33
S'1085'
p114
sg35
S'25'
p115
sg37
S'PHW'
p116
sg39
S'72'
p117
sg41
g3
sg42
S'521'
p118
sg44
S'589'
p119
sg46
S'1184'
p120
sg48
g3
sg49
S'1954-55'
p121
sg51
S'521'
p122
sg53
g3
sg54
S'.440'
p123
sg56
S'2917'
p124
sg58
g3
sba(isrc.gp1.models.Totals
Totals
p125
(dp126
g8
g3
sg9
g3
sg10
S'.457'
p127
sg12
S'225'
p128
sg14
g3
sg15
g3
sg16
S'1547'
p129
sg18
g19
sg20
S'.801'
p130
sg22
S'.457'
p131
sg24
S'NBA'
p132
sg26
g3
sg27
S'1092'
p133
sg29
S'251'
p134
sg31
S'685'
p135
sg33
S'872'
p136
sg35
S'26'
p137
sg37
S'PHW'
p138
sg39
S'70'
p139
sg41
g3
sg42
S'499'
p140
sg44
S'549'
p141
sg46
S'1092'
p142
sg48
g3
sg49
S'1955-56'
p143
sg51
S'499'
p144
sg53
g3
sg54
S'.457'
p145
sg56
S'2594'
p146
sg58
g3
sba(isrc.gp1.models.Totals
Totals
p147
(dp148
g8
g3
sg9
g3
sg10
S'.447'
p149
sg12
S'203'
p150
sg14
g3
sg15
g3
sg16
S'1575'
p151
sg18
g19
sg20
S'.826'
p152
sg22
S'.447'
p153
sg24
S'NBA'
p154
sg26
g3
sg27
S'1163'
p155
sg29
S'231'
p156
sg31
S'648'
p157
sg33
S'855'
p158
sg35
S'27'
p159
sg37
S'PHW'
p160
sg39
S'69'
p161
sg41
g3
sg42
S'520'
p162
sg44
S'535'
p163
sg46
S'1163'
p164
sg48
g3
sg49
S'1956-57'
p165
sg51
S'520'
p166
sg53
g3
sg54
S'.447'
p167
sg56
S'2531'
p168
sg58
g3
sba(isrc.gp1.models.Totals
Totals
p169
(dp170
g8
g3
sg9
g3
sg10
S'.429'
p171
sg12
S'166'
p172
sg14
g3
sg15
g3
sg16
S'1388'
p173
sg18
g19
sg20
S'.819'
p174
sg22
S'.429'
p175
sg24
S'NBA'
p176
sg26
g3
sg27
S'1102'
p177
sg29
S'233'
p178
sg31
S'540'
p179
sg33
S'790'
p180
sg35
S'28'
p181
sg37
S'PHW'
p182
sg39
S'71'
p183
sg41
g3
sg42
S'473'
p184
sg44
S'442'
p185
sg46
S'1102'
p186
sg48
g3
sg49
S'1957-58'
p187
sg51
S'473'
p188
sg53
g3
sg54
S'.429'
p189
sg56
S'2408'
p190
sg58
g3
sba(isrc.gp1.models.Totals
Totals
p191
(dp192
g8
g3
sg9
g3
sg10
S'.329'
p193
sg12
S'21'
p194
sg14
g3
sg15
g3
sg16
S'177'
p195
sg18
g19
sg20
S'.784'
p196
sg22
S'.329'
p197
sg24
S'NBA'
p198
sg26
g3
sg27
S'164'
p199
sg29
S'50'
p200
sg31
S'88'
p201
sg33
S'139'
p202
sg35
S'29'
p203
sg37
S'PHW'
p204
sg39
S'28'
p205
sg41
g3
sg42
S'54'
p206
sg44
S'69'
p207
sg46
S'164'
p208
sg48
g3
sg49
S'1958-59'
p209
sg51
S'54'
p210
sg53
g3
sg54
S'.329'
p211
sg56
S'393'
p212
sg58
g3
sbasS'_college'
p213
S'Ohio State University'
p214
sS'_toYear'
p215
S'1959'
p216
sS'_height'
p217
S'6-8'
p218
sS'_active'
p219
I00
sS'_shootingHand'
p220
VRight
p221
sS'_name'
p222
S'Neil Johnston'
p223
sS'_per100Possessions'
p224
(lp225
sS'_advanced'
p226
(lp227
(isrc.gp1.models.Advanced
Advanced
p228
(dp229
S'_offensiveReboundPercentage'
p230
g3
sS'_turnOverPercentage'
p231
g3
sS'_winSharesPer48Minutes'
p232
S'.163'
p233
sS'_stealPercentage'
p234
g3
sS'_usagePercentage'
p235
g3
sS'_totalReboundsPercentage'
p236
g3
sS'_defensiveBoxPlusMinus'
p237
g3
sg18
g19
sS'_valueOverReplacementPlayer'
p238
g3
sS'_trueShootingPercentage'
p239
S'.523'
p240
sS'_defensiveReboundPercentage'
p241
g3
sS'_freeThrowsAttempRate'
p242
S'.505'
p243
sS'_threePointsAttempRate'
p244
g3
sg24
S'NBA'
p245
sS'_offensiveBoxPlusMinues'
p246
g3
sS'_assistPercentage'
p247
g3
sS'_defensiveWinShares'
p248
S'0.5'
p249
sg35
S'22'
p250
sg37
S'PHW'
p251
sg39
S'64'
p252
sS'_blockPercentage'
p253
g3
sS'_playerEfficiencyRating'
p254
S'18.8'
p255
sS'_offensiveWinShares'
p256
S'2.9'
p257
sg56
S'993'
p258
sS'_boxPlusMinus'
p259
g3
sg49
S'1951-52'
p260
sS'_winShares'
p261
S'3.4'
p262
sba(isrc.gp1.models.Advanced
Advanced
p263
(dp264
g230
g3
sg231
g3
sg232
S'.232'
p265
sg234
g3
sg235
g3
sg236
g3
sg237
g3
sg18
g19
sg238
g3
sg239
S'.534'
p266
sg241
g3
sg242
S'.713'
p267
sg244
g3
sg24
S'NBA'
p268
sg246
g3
sg247
g3
sg248
S'2.3'
p269
sg35
S'23'
p270
sg37
S'PHW'
p271
sg39
S'70'
p272
sg253
g3
sg254
S'25.9'
p273
sg256
S'13.0'
p274
sg56
S'3166'
p275
sg259
g3
sg49
S'1952-53'
p276
sg261
S'15.3'
p277
sba(isrc.gp1.models.Advanced
Advanced
p278
(dp279
g230
g3
sg231
g3
sg232
S'.267'
p280
sg234
g3
sg235
g3
sg236
g3
sg237
g3
sg18
g19
sg238
g3
sg239
S'.531'
p281
sg241
g3
sg242
S'.586'
p282
sg244
g3
sg24
S'NBA'
p283
sg246
g3
sg247
g3
sg248
S'3.0'
p284
sg35
S'24'
p285
sg37
S'PHW'
p286
sg39
S'72'
p287
sg253
g3
sg254
S'25.6'
p288
sg256
S'15.4'
p289
sg56
S'3296'
p290
sg259
g3
sg49
S'1953-54'
p291
sg261
S'18.3'
p292
sba(isrc.gp1.models.Advanced
Advanced
p293
(dp294
g230
g3
sg231
g3
sg232
S'.253'
p295
sg234
g3
sg235
g3
sg236
g3
sg237
g3
sg18
g19
sg238
g3
sg239
S'.536'
p296
sg241
g3
sg242
S'.649'
p297
sg244
g3
sg24
S'NBA'
p298
sg246
g3
sg247
g3
sg248
S'3.9'
p299
sg35
S'25'
p300
sg37
S'PHW'
p301
sg39
S'72'
p302
sg253
g3
sg254
S'25.4'
p303
sg256
S'11.5'
p304
sg56
S'2917'
p305
sg259
g3
sg49
S'1954-55'
p306
sg261
S'15.4'
p307
sba(isrc.gp1.models.Advanced
Advanced
p308
(dp309
g230
g3
sg231
g3
sg232
S'.258'
p310
sg234
g3
sg235
g3
sg236
g3
sg237
g3
sg18
g19
sg238
g3
sg239
S'.555'
p311
sg241
g3
sg242
S'.627'
p312
sg244
g3
sg24
S'NBA'
p313
sg246
g3
sg247
g3
sg248
S'2.7'
p314
sg35
S'26'
p315
sg37
S'PHW'
p316
sg39
S'70'
p317
sg253
g3
sg254
S'25.1'
p318
sg256
S'11.2'
p319
sg56
S'2594'
p320
sg259
g3
sg49
S'1955-56'
p321
sg261
S'13.9'
p322
sba(isrc.gp1.models.Advanced
Advanced
p323
(dp324
g230
g3
sg231
g3
sg232
S'.259'
p325
sg234
g3
sg235
g3
sg236
g3
sg237
g3
sg18
g19
sg238
g3
sg239
S'.544'
p326
sg241
g3
sg242
S'.557'
p327
sg244
g3
sg24
S'NBA'
p328
sg246
g3
sg247
g3
sg248
S'2.1'
p329
sg35
S'27'
p330
sg37
S'PHW'
p331
sg39
S'69'
p332
sg253
g3
sg254
S'26.6'
p333
sg256
S'11.6'
p334
sg56
S'2531'
p335
sg259
g3
sg49
S'1956-57'
p336
sg261
S'13.7'
p337
sba(isrc.gp1.models.Advanced
Advanced
p338
(dp339
g230
g3
sg231
g3
sg232
S'.224'
p340
sg234
g3
sg235
g3
sg236
g3
sg237
g3
sg18
g19
sg238
g3
sg239
S'.518'
p341
sg241
g3
sg242
S'.490'
p342
sg244
g3
sg24
S'NBA'
p343
sg246
g3
sg247
g3
sg248
S'3.1'
p344
sg35
S'28'
p345
sg37
S'PHW'
p346
sg39
S'71'
p347
sg253
g3
sg254
S'22.5'
p348
sg256
S'8.2'
p349
sg56
S'2408'
p350
sg259
g3
sg49
S'1957-58'
p351
sg261
S'11.3'
p352
sba(isrc.gp1.models.Advanced
Advanced
p353
(dp354
g230
g3
sg231
g3
sg232
S'.091'
p355
sg234
g3
sg235
g3
sg236
g3
sg237
g3
sg18
g19
sg238
g3
sg239
S'.437'
p356
sg241
g3
sg242
S'.537'
p357
sg244
g3
sg24
S'NBA'
p358
sg246
g3
sg247
g3
sg248
S'0.6'
p359
sg35
S'29'
p360
sg37
S'PHW'
p361
sg39
S'28'
p362
sg253
g3
sg254
S'15.6'
p363
sg256
S'0.2'
p364
sg56
S'393'
p365
sg259
g3
sg49
S'1958-59'
p366
sg261
S'0.7'
p367
sbasS'_per36Minutes'
p368
(lp369
(isrc.gp1.models.Per36Minutes
Per36Minutes
p370
(dp371
g8
g3
sg9
g3
sg10
S'.472'
p372
sg12
S'1.4'
p373
sg14
g3
sg15
g3
sg16
S'13.8'
p374
sg18
g19
sg20
S'.662'
p375
sg24
S'NBA'
p376
sg26
g3
sg27
S'10.8'
p377
sg29
S'5.6'
p378
sg31
S'5.5'
p379
sg33
S'12.4'
p380
sg35
S'22'
p381
sg37
S'PHW'
p382
sg39
S'64'
p383
sg41
g3
sg42
S'5.1'
p384
sg44
S'3.6'
p385
sg46
S'10.8'
p386
sg48
g3
sg49
S'1951-52'
p387
sg51
S'5.1'
p388
sg53
g3
sg54
S'.472'
p389
sg56
S'993'
p390
sg58
g3
sba(isrc.gp1.models.Per36Minutes
Per36Minutes
p391
(dp392
g8
g3
sg9
g3
sg10
S'.452'
p393
sg12
S'2.2'
p394
sg14
g3
sg15
g3
sg16
S'17.8'
p395
sg18
g19
sg20
S'.700'
p396
sg24
S'NBA'
p397
sg26
g3
sg27
S'12.7'
p398
sg29
S'2.8'
p399
sg31
S'9.0'
p400
sg33
S'11.1'
p401
sg35
S'23'
p402
sg37
S'PHW'
p403
sg39
S'70'
p404
sg41
g3
sg42
S'5.7'
p405
sg44
S'6.3'
p406
sg46
S'12.7'
p407
sg48
g3
sg49
S'1952-53'
p408
sg51
S'5.7'
p409
sg53
g3
sg54
S'.452'
p410
sg56
S'3166'
p411
sg58
g3
sba(isrc.gp1.models.Per36Minutes
Per36Minutes
p412
(dp413
g8
g3
sg9
g3
sg10
S'.449'
p414
sg12
S'2.2'
p415
sg14
g3
sg15
g3
sg16
S'19.2'
p416
sg18
g19
sg20
S'.747'
p417
sg24
S'NBA'
p418
sg26
g3
sg27
S'14.4'
p419
sg29
S'2.8'
p420
sg31
S'8.4'
p421
sg33
S'8.7'
p422
sg35
S'24'
p423
sg37
S'PHW'
p424
sg39
S'72'
p425
sg41
g3
sg42
S'6.5'
p426
sg44
S'6.3'
p427
sg46
S'14.4'
p428
sg48
g3
sg49
S'1953-54'
p429
sg51
S'6.5'
p430
sg53
g3
sg54
S'.449'
p431
sg56
S'3296'
p432
sg58
g3
sba(isrc.gp1.models.Per36Minutes
Per36Minutes
p433
(dp434
g8
g3
sg9
g3
sg10
S'.440'
p435
sg12
S'2.7'
p436
sg14
g3
sg15
g3
sg16
S'20.1'
p437
sg18
g19
sg20
S'.766'
p438
sg24
S'NBA'
p439
sg26
g3
sg27
S'14.6'
p440
sg29
S'3.1'
p441
sg31
S'9.5'
p442
sg33
S'13.4'
p443
sg35
S'25'
p444
sg37
S'PHW'
p445
sg39
S'72'
p446
sg41
g3
sg42
S'6.4'
p447
sg44
S'7.3'
p448
sg46
S'14.6'
p449
sg48
g3
sg49
S'1954-55'
p450
sg51
S'6.4'
p451
sg53
g3
sg54
S'.440'
p452
sg56
S'2917'
p453
sg58
g3
sba(isrc.gp1.models.Per36Minutes
Per36Minutes
p454
(dp455
g8
g3
sg9
g3
sg10
S'.457'
p456
sg12
S'3.1'
p457
sg14
g3
sg15
g3
sg16
S'21.5'
p458
sg18
g19
sg20
S'.801'
p459
sg24
S'NBA'
p460
sg26
g3
sg27
S'15.2'
p461
sg29
S'3.5'
p462
sg31
S'9.5'
p463
sg33
S'12.1'
p464
sg35
S'26'
p465
sg37
S'PHW'
p466
sg39
S'70'
p467
sg41
g3
sg42
S'6.9'
p468
sg44
S'7.6'
p469
sg46
S'15.2'
p470
sg48
g3
sg49
S'1955-56'
p471
sg51
S'6.9'
p472
sg53
g3
sg54
S'.457'
p473
sg56
S'2594'
p474
sg58
g3
sba(isrc.gp1.models.Per36Minutes
Per36Minutes
p475
(dp476
g8
g3
sg9
g3
sg10
S'.447'
p477
sg12
S'2.9'
p478
sg14
g3
sg15
g3
sg16
S'22.4'
p479
sg18
g19
sg20
S'.826'
p480
sg24
S'NBA'
p481
sg26
g3
sg27
S'16.5'
p482
sg29
S'3.3'
p483
sg31
S'9.2'
p484
sg33
S'12.2'
p485
sg35
S'27'
p486
sg37
S'PHW'
p487
sg39
S'69'
p488
sg41
g3
sg42
S'7.4'
p489
sg44
S'7.6'
p490
sg46
S'16.5'
p491
sg48
g3
sg49
S'1956-57'
p492
sg51
S'7.4'
p493
sg53
g3
sg54
S'.447'
p494
sg56
S'2531'
p495
sg58
g3
sba(isrc.gp1.models.Per36Minutes
Per36Minutes
p496
(dp497
g8
g3
sg9
g3
sg10
S'.429'
p498
sg12
S'2.5'
p499
sg14
g3
sg15
g3
sg16
S'20.8'
p500
sg18
g19
sg20
S'.819'
p501
sg24
S'NBA'
p502
sg26
g3
sg27
S'16.5'
p503
sg29
S'3.5'
p504
sg31
S'8.1'
p505
sg33
S'11.8'
p506
sg35
S'28'
p507
sg37
S'PHW'
p508
sg39
S'71'
p509
sg41
g3
sg42
S'7.1'
p510
sg44
S'6.6'
p511
sg46
S'16.5'
p512
sg48
g3
sg49
S'1957-58'
p513
sg51
S'7.1'
p514
sg53
g3
sg54
S'.429'
p515
sg56
S'2408'
p516
sg58
g3
sba(isrc.gp1.models.Per36Minutes
Per36Minutes
p517
(dp518
g8
g3
sg9
g3
sg10
S'.329'
p519
sg12
S'1.9'
p520
sg14
g3
sg15
g3
sg16
S'16.2'
p521
sg18
g19
sg20
S'.784'
p522
sg24
S'NBA'
p523
sg26
g3
sg27
S'15.0'
p524
sg29
S'4.6'
p525
sg31
S'8.1'
p526
sg33
S'12.7'
p527
sg35
S'29'
p528
sg37
S'PHW'
p529
sg39
S'28'
p530
sg41
g3
sg42
S'4.9'
p531
sg44
S'6.3'
p532
sg46
S'15.0'
p533
sg48
g3
sg49
S'1958-59'
p534
sg51
S'4.9'
p535
sg53
g3
sg54
S'.329'
p536
sg56
S'393'
p537
sg58
g3
sbasS'_fromYear'
p538
S'1952'
p539
sS'_url'
p540
S'http://www.basketball-reference.com/players/j/johnsne01.html'
p541
sS'_perGame'
p542
(isrc.gp1.models.PerGame
PerGame
p543
(dp544
g8
g3
sg9
g3
sg10
S'.329'
p545
sS'_effectiveFieldGalPercentage'
p546
S'.329'
p547
sg12
S'0.8'
p548
sg14
g3
sg15
g3
sg16
S'6.3'
p549
sg18
g19
sg20
S'.784'
p550
sg24
S'NBA'
p551
sg26
g3
sg29
S'1.8'
p552
sS'_fieldGoalsttempted'
p553
S'5.9'
p554
sg31
S'3.1'
p555
sg33
S'5.0'
p556
sg35
S'29'
p557
sg37
S'PHW'
p558
sg39
S'28'
p559
sg41
g3
sg42
S'1.9'
p560
sg44
S'2.5'
p561
sg46
S'5.9'
p562
sg48
g3
sg49
S'1958-59'
p563
sg51
S'1.9'
p564
sg53
g3
sg54
S'.329'
p565
sg56
S'14.0'
p566
sg58
g3
sbsS'_weight'
p567
S'210'
p568
sS'_dob'
p569
S'4-2-1929'
p570
sS'_salary'
p571
(lp572
sg18
g19
sb.