(isrc.gp1.models.Player
Player
p0
(dp1
S'_experience'
p2
S'NA'
p3
sS'_totals'
p4
(lp5
(isrc.gp1.models.Totals
Totals
p6
(dp7
S'_offensiveRebounds'
p8
S'11'
p9
sS'_threePointsAttempted'
p10
S'0'
p11
sS'_fieldGoalsPercentage'
p12
S'.367'
p13
sS'_assist'
p14
S'3'
p15
sS'_threePointsPercentage'
p16
S'11'
p17
sS'_threePoints'
p18
g11
sS'_points'
p19
g3
sS'_position'
p20
S'C'
p21
sS'_freeThrowsPercentage'
p22
S'8'
p23
sS'_effectiveFieldGoalPercentage'
p24
S'7'
p25
sS'_league'
p26
S'NBA'
p27
sS'_steals'
p28
S'4'
p29
sS'_fieldGoalsAttempted'
p30
S'30'
p31
sS'_personalFouls'
p32
S'29'
p33
sS'_freeThrowsAttempted'
p34
S'.500'
p35
sS'_totalRebounds'
p36
g15
sS'_age'
p37
S'23'
p38
sS'_team'
p39
S'IND'
p40
sS'_games'
p41
S'25'
p42
sS'_blocks'
p43
g23
sS'_twoPoints'
p44
S'30'
p45
sS'_freeThrows'
p46
S'14'
p47
sS'_twoPointsAttempted'
p48
S'.367'
p49
sS'_defensiveRebounds'
p50
S'19'
p51
sS'_season'
p52
S'2004-05'
p53
sS'_fieldGoals'
p54
S'11'
p55
sS'_turnOvers'
p56
S'12'
p57
sS'_twoPointsPercentage'
p58
S'.367'
p59
sS'_minutesPlayed'
p60
S'139'
p61
sS'_gamesStarted'
p62
S'1'
p63
sba(isrc.gp1.models.Totals
Totals
p64
(dp65
g8
S'30'
p66
sg10
g11
sg12
S'.484'
p67
sg14
g15
sg16
S'31'
p68
sg18
g11
sg19
g3
sg20
g21
sg22
S'18'
p69
sg24
g23
sg26
S'NBA'
p70
sg28
S'15'
p71
sg30
S'64'
p72
sg32
S'70'
p73
sg34
S'.727'
p74
sg36
S'5'
p75
sg37
S'24'
p76
sg39
S'ATL'
p77
sg41
S'40'
p78
sg43
S'12'
p79
sg44
S'64'
p80
sg46
S'11'
p81
sg48
S'.484'
p82
sg50
S'48'
p83
sg52
S'2005-06'
p84
sg54
S'31'
p85
sg56
S'76'
p86
sg58
S'.484'
p87
sg60
S'296'
p88
sg62
g29
sbasS'_college'
p89
S'Kent State University'
p90
sS'_toYear'
p91
S'2006'
p92
sS'_height'
p93
S'7-0'
p94
sS'_active'
p95
I00
sS'_shootingHand'
p96
VRight
p97
sS'_name'
p98
S'John Edwards'
p99
sS'_per100Possessions'
p100
(lp101
(isrc.gp1.models.Per100Possession
Per100Possession
p102
(dp103
g8
S'4.4'
p104
sg10
S'0.0'
p105
sg12
S'.367'
p106
sS'_offensiveRating'
p107
S'107'
p108
sg14
S'1.2'
p109
sg16
S'4.4'
p110
sg18
S'0.0'
p111
sg19
S'80'
p112
sg20
g21
sS'_defensiveRating'
p113
g3
sg22
S'3.2'
p114
sg26
S'NBA'
p115
sg28
S'1.6'
p116
sg30
S'11.9'
p117
sg32
S'11.5'
p118
sg34
S'.500'
p119
sg36
S'1.2'
p120
sg37
S'23'
p121
sg39
S'IND'
p122
sg41
S'25'
p123
sg43
S'3.2'
p124
sg44
S'11.9'
p125
sg46
S'5.5'
p126
sg48
S'.367'
p127
sg50
S'7.5'
p128
sg52
S'2004-05'
p129
sg54
S'4.4'
p130
sg56
S'4.8'
p131
sg58
S'2.8'
p132
sg60
S'139'
p133
sg62
g63
sba(isrc.gp1.models.Per100Possession
Per100Possession
p134
(dp135
g8
S'5.4'
p136
sg10
S'0.0'
p137
sg12
S'.484'
p138
sg107
S'112'
p139
sg14
S'0.5'
p140
sg16
S'5.6'
p141
sg18
S'0.0'
p142
sg19
S'101'
p143
sg20
g21
sg113
g3
sg22
S'3.2'
p144
sg26
S'NBA'
p145
sg28
S'2.7'
p146
sg30
S'11.5'
p147
sg32
S'12.6'
p148
sg34
S'.727'
p149
sg36
S'0.9'
p150
sg37
S'24'
p151
sg39
S'ATL'
p152
sg41
S'40'
p153
sg43
S'2.2'
p154
sg44
S'11.5'
p155
sg46
S'2.0'
p156
sg48
S'.484'
p157
sg50
S'8.6'
p158
sg52
S'2005-06'
p159
sg54
S'5.6'
p160
sg56
S'13.6'
p161
sg58
S'1.4'
p162
sg60
S'296'
p163
sg62
g29
sbasS'_advanced'
p164
(lp165
(isrc.gp1.models.Advanced
Advanced
p166
(dp167
S'_offensiveReboundPercentage'
p168
S'7.0'
p169
sS'_turnOverPercentage'
p170
S'18.1'
p171
sS'_winSharesPer48Minutes'
p172
S'-0.035'
p173
sS'_stealPercentage'
p174
S'1.2'
p175
sS'_usagePercentage'
p176
S'15.2'
p177
sS'_totalReboundsPercentage'
p178
S'8.2'
p179
sS'_defensiveBoxPlusMinus'
p180
S'-0.1'
p181
sg20
g21
sS'_valueOverReplacementPlayer'
p182
S'-0.2'
p183
sS'_trueShootingPercentage'
p184
S'.401'
p185
sS'_defensiveReboundPercentage'
p186
S'9.3'
p187
sS'_freeThrowsAttempRate'
p188
S'.467'
p189
sS'_threePointsAttempRate'
p190
S'.000'
p191
sg26
S'NBA'
p192
sS'_offensiveBoxPlusMinues'
p193
S'-6.9'
p194
sS'_assistPercentage'
p195
S'3.7'
p196
sS'_defensiveWinShares'
p197
S'0.1'
p198
sg37
S'23'
p199
sg39
S'IND'
p200
sg41
S'25'
p201
sS'_blockPercentage'
p202
S'2.2'
p203
sS'_playerEfficiencyRating'
p204
S'5.1'
p205
sS'_offensiveWinShares'
p206
S'-0.2'
p207
sg60
S'139'
p208
sS'_boxPlusMinus'
p209
S'-7.0'
p210
sg52
S'2004-05'
p211
sS'_winShares'
p212
S'-0.1'
p213
sba(isrc.gp1.models.Advanced
Advanced
p214
(dp215
g168
S'7.1'
p216
sg170
S'14.8'
p217
sg172
S'.026'
p218
sg174
S'0.5'
p219
sg176
S'12.4'
p220
sg178
S'9.7'
p221
sg180
S'-1.4'
p222
sg20
g21
sg182
S'-0.3'
p223
sg184
S'.508'
p224
sg186
S'12.5'
p225
sg188
S'.172'
p226
sg190
S'.000'
p227
sg26
S'NBA'
p228
sg193
S'-4.5'
p229
sg195
S'2.7'
p230
sg197
S'0.1'
p231
sg37
S'24'
p232
sg39
S'ATL'
p233
sg41
S'40'
p234
sg202
S'3.9'
p235
sg204
S'6.4'
p236
sg206
S'0.1'
p237
sg60
S'296'
p238
sg209
S'-5.9'
p239
sg52
S'2005-06'
p240
sg212
S'0.2'
p241
sbasS'_per36Minutes'
p242
(lp243
(isrc.gp1.models.Per36Minutes
Per36Minutes
p244
(dp245
g8
S'2.8'
p246
sg10
S'0.0'
p247
sg12
S'.367'
p248
sg14
S'0.8'
p249
sg16
S'2.8'
p250
sg18
S'0.0'
p251
sg19
g3
sg20
g21
sg22
S'2.1'
p252
sg26
S'NBA'
p253
sg28
S'1.0'
p254
sg30
S'7.8'
p255
sg32
S'7.5'
p256
sg34
S'.500'
p257
sg36
S'0.8'
p258
sg37
S'23'
p259
sg39
S'IND'
p260
sg41
S'25'
p261
sg43
S'2.1'
p262
sg44
S'7.8'
p263
sg46
S'3.6'
p264
sg48
S'.367'
p265
sg50
S'4.9'
p266
sg52
S'2004-05'
p267
sg54
S'2.8'
p268
sg56
S'3.1'
p269
sg58
S'1.8'
p270
sg60
S'139'
p271
sg62
g63
sba(isrc.gp1.models.Per36Minutes
Per36Minutes
p272
(dp273
g8
S'3.6'
p274
sg10
S'0.0'
p275
sg12
S'.484'
p276
sg14
S'0.4'
p277
sg16
S'3.8'
p278
sg18
S'0.0'
p279
sg19
g3
sg20
g21
sg22
S'2.2'
p280
sg26
S'NBA'
p281
sg28
S'1.8'
p282
sg30
S'7.8'
p283
sg32
S'8.5'
p284
sg34
S'.727'
p285
sg36
S'0.6'
p286
sg37
S'24'
p287
sg39
S'ATL'
p288
sg41
S'40'
p289
sg43
S'1.5'
p290
sg44
S'7.8'
p291
sg46
S'1.3'
p292
sg48
S'.484'
p293
sg50
S'5.8'
p294
sg52
S'2005-06'
p295
sg54
S'3.8'
p296
sg56
S'9.2'
p297
sg58
S'1.0'
p298
sg60
S'296'
p299
sg62
g29
sbasS'_fromYear'
p300
S'2005'
p301
sS'_url'
p302
S'http://www.basketball-reference.com/players/e/edwarjo01.html'
p303
sS'_perGame'
p304
(isrc.gp1.models.PerGame
PerGame
p305
(dp306
g8
S'0.8'
p307
sg10
S'0.0'
p308
sg12
S'.484'
p309
sS'_effectiveFieldGalPercentage'
p310
S'0.2'
p311
sg14
S'0.1'
p312
sg16
S'0.8'
p313
sg18
S'0.0'
p314
sg19
g3
sg20
g21
sg22
S'0.5'
p315
sg26
S'NBA'
p316
sg28
S'0.4'
p317
sg32
S'1.8'
p318
sS'_fieldGoalsttempted'
p319
S'1.6'
p320
sg34
S'.727'
p321
sg36
S'0.1'
p322
sg37
S'24'
p323
sg39
S'ATL'
p324
sg41
S'40'
p325
sg43
S'0.3'
p326
sg44
S'1.6'
p327
sg46
S'0.3'
p328
sg48
S'.484'
p329
sg50
S'1.2'
p330
sg52
S'2005-06'
p331
sg54
S'0.8'
p332
sg56
S'1.9'
p333
sg58
S'.484'
p334
sg60
S'7.4'
p335
sg62
g29
sbsS'_weight'
p336
S'275'
p337
sS'_dob'
p338
S'31-7-1981'
p339
sS'_salary'
p340
(lp341
(isrc.gp1.models.Salary
Salary
p342
(dp343
g39
S'Indiana Pacers'
p344
sg26
S'NBA'
p345
sg340
S'$385,277'
p346
sg52
S'2004-05'
p347
sba(isrc.gp1.models.Salary
Salary
p348
(dp349
g39
S'Atlanta Hawks'
p350
sg26
S'NBA'
p351
sg340
S'$1,000,000'
p352
sg52
S'2005-06'
p353
sba(isrc.gp1.models.Salary
Salary
p354
(dp355
g39
S'Indiana Pacers'
p356
sg26
S'NBA'
p357
sg340
S'$1,080,000'
p358
sg52
S'2006-07'
p359
sbasg20
g21
sb.