(isrc.gp1.models.Player
Player
p0
(dp1
S'_experience'
p2
S'NA'
p3
sS'_totals'
p4
(lp5
(isrc.gp1.models.Totals
Totals
p6
(dp7
S'_offensiveRebounds'
p8
S'0'
p9
sS'_threePointsAttempted'
p10
g9
sS'_fieldGoalsPercentage'
p11
S'.000'
p12
sS'_assist'
p13
g9
sS'_threePointsPercentage'
p14
g3
sS'_threePoints'
p15
g9
sS'_points'
p16
S'1'
p17
sS'_position'
p18
S'PF'
p19
sS'_freeThrowsPercentage'
p20
S'.250'
p21
sS'_effectiveFieldGoalPercentage'
p22
S'.000'
p23
sS'_league'
p24
S'NBA'
p25
sS'_steals'
p26
g9
sS'_fieldGoalsAttempted'
p27
g17
sS'_personalFouls'
p28
g17
sS'_freeThrowsAttempted'
p29
S'4'
p30
sS'_totalRebounds'
p31
g9
sS'_age'
p32
S'26'
p33
sS'_team'
p34
S'PHI'
p35
sS'_games'
p36
g17
sS'_blocks'
p37
g9
sS'_twoPoints'
p38
g9
sS'_freeThrows'
p39
g17
sS'_twoPointsAttempted'
p40
g17
sS'_defensiveRebounds'
p41
g9
sS'_season'
p42
S'1983-84'
p43
sS'_fieldGoals'
p44
g9
sS'_turnOvers'
p45
g9
sS'_twoPointsPercentage'
p46
S'.000'
p47
sS'_minutesPlayed'
p48
S'3'
p49
sS'_gamesStarted'
p50
g9
sba(isrc.gp1.models.Totals
Totals
p51
(dp52
g8
S'71'
p53
sg10
g9
sg11
S'.528'
p54
sg13
S'26'
p55
sg14
g3
sg15
g9
sg16
S'174'
p56
sg18
S'C-PF'
p57
sg20
S'.690'
p58
sg22
S'.528'
p59
sg24
S'NBA'
p60
sg26
S'22'
p61
sg27
S'127'
p62
sg28
S'107'
p63
sg29
S'58'
p64
sg31
S'184'
p65
sg32
S'27'
p66
sg34
S'TOT'
p67
sg36
S'31'
p68
sg37
S'79'
p69
sg38
S'67'
p70
sg39
S'40'
p71
sg40
S'127'
p72
sg41
S'113'
p73
sg42
S'1984-85'
p74
sg44
S'67'
p75
sg45
S'25'
p76
sg46
S'.528'
p77
sg48
S'667'
p78
sg50
g30
sba(isrc.gp1.models.Totals
Totals
p79
(dp80
g8
S'2'
p81
sg10
g9
sg11
S'.500'
p82
sg13
g17
sg14
g3
sg15
g9
sg16
S'8'
p83
sg18
S'PF'
p84
sg20
S'.667'
p85
sg22
S'.500'
p86
sg24
S'NBA'
p87
sg26
g9
sg27
g30
sg28
S'6'
p88
sg29
g88
sg31
g88
sg32
S'27'
p89
sg34
S'CHI'
p90
sg36
g49
sg37
S'5'
p91
sg38
g81
sg39
g30
sg40
g30
sg41
g30
sg42
S'1984-85'
p92
sg44
g81
sg45
g30
sg46
S'.500'
p93
sg48
S'29'
p94
sg50
g9
sba(isrc.gp1.models.Totals
Totals
p95
(dp96
g8
S'69'
p97
sg10
g9
sg11
S'.528'
p98
sg13
S'25'
p99
sg14
g3
sg15
g9
sg16
S'166'
p100
sg18
S'C'
p101
sg20
S'.692'
p102
sg22
S'.528'
p103
sg24
S'NBA'
p104
sg26
S'22'
p105
sg27
S'123'
p106
sg28
S'101'
p107
sg29
S'52'
p108
sg31
S'178'
p109
sg32
S'27'
p110
sg34
S'WSB'
p111
sg36
S'28'
p112
sg37
S'74'
p113
sg38
S'65'
p114
sg39
S'36'
p115
sg40
S'123'
p116
sg41
S'109'
p117
sg42
S'1984-85'
p118
sg44
S'65'
p119
sg45
S'21'
p120
sg46
S'.528'
p121
sg48
S'638'
p122
sg50
g30
sba(isrc.gp1.models.Totals
Totals
p123
(dp124
g8
S'122'
p125
sg10
g17
sg11
S'.508'
p126
sg13
S'76'
p127
sg14
S'.000'
p128
sg15
g9
sg16
S'312'
p129
sg18
g101
sg20
S'.628'
p130
sg22
S'.508'
p131
sg24
S'NBA'
p132
sg26
S'57'
p133
sg27
S'254'
p134
sg28
S'235'
p135
sg29
S'86'
p136
sg31
S'321'
p137
sg32
S'28'
p138
sg34
S'WSB'
p139
sg36
S'81'
p140
sg37
S'133'
p141
sg38
S'129'
p142
sg39
S'54'
p143
sg40
S'253'
p144
sg41
S'199'
p145
sg42
S'1985-86'
p146
sg44
S'129'
p147
sg45
S'71'
p148
sg46
S'.510'
p149
sg48
S'1609'
p150
sg50
S'58'
p151
sba(isrc.gp1.models.Totals
Totals
p152
(dp153
g8
S'144'
p154
sg10
g17
sg11
S'.474'
p155
sg13
S'80'
p156
sg14
S'.000'
p157
sg15
g9
sg16
S'284'
p158
sg18
S'PF'
p159
sg20
S'.632'
p160
sg22
S'.474'
p161
sg24
S'NBA'
p162
sg26
S'67'
p163
sg27
S'249'
p164
sg28
S'252'
p165
sg29
S'76'
p166
sg31
S'356'
p167
sg32
S'29'
p168
sg34
S'WSB'
p169
sg36
S'79'
p170
sg37
S'165'
p171
sg38
S'118'
p172
sg39
S'48'
p173
sg40
S'248'
p174
sg41
S'212'
p175
sg42
S'1986-87'
p176
sg44
S'118'
p177
sg45
S'77'
p178
sg46
S'.476'
p179
sg48
S'1609'
p180
sg50
S'64'
p181
sba(isrc.gp1.models.Totals
Totals
p182
(dp183
g8
S'106'
p184
sg10
g17
sg11
S'.407'
p185
sg13
S'59'
p186
sg14
S'.000'
p187
sg15
g9
sg16
S'197'
p188
sg18
S'PF'
p189
sg20
S'.707'
p190
sg22
S'.407'
p191
sg24
S'NBA'
p192
sg26
S'53'
p193
sg27
S'177'
p194
sg28
S'226'
p195
sg29
S'75'
p196
sg31
S'325'
p197
sg32
S'30'
p198
sg34
S'WSB'
p199
sg36
S'69'
p200
sg37
S'113'
p201
sg38
S'72'
p202
sg39
S'53'
p203
sg40
S'176'
p204
sg41
S'219'
p205
sg42
S'1987-88'
p206
sg44
S'72'
p207
sg45
S'57'
p208
sg46
S'.409'
p209
sg48
S'1313'
p210
sg50
S'49'
p211
sba(isrc.gp1.models.Totals
Totals
p212
(dp213
g8
S'77'
p214
sg10
g17
sg11
S'.480'
p215
sg13
S'42'
p216
sg14
S'.000'
p217
sg15
g9
sg16
S'136'
p218
sg18
g101
sg20
S'.640'
p219
sg22
S'.480'
p220
sg24
S'NBA'
p221
sg26
S'39'
p222
sg27
S'125'
p223
sg28
S'187'
p224
sg29
S'25'
p225
sg31
S'257'
p226
sg32
S'31'
p227
sg34
S'WSB'
p228
sg36
S'53'
p229
sg37
S'76'
p230
sg38
S'60'
p231
sg39
S'16'
p232
sg40
S'124'
p233
sg41
S'180'
p234
sg42
S'1988-89'
p235
sg44
S'60'
p236
sg45
S'39'
p237
sg46
S'.484'
p238
sg48
S'1154'
p239
sg50
S'45'
p240
sba(isrc.gp1.models.Totals
Totals
p241
(dp242
g8
S'145'
p243
sg10
g9
sg11
S'.508'
p244
sg13
S'139'
p245
sg14
g3
sg15
g9
sg16
S'256'
p246
sg18
g101
sg20
S'.648'
p247
sg22
S'.508'
p248
sg24
S'NBA'
p249
sg26
S'50'
p250
sg27
S'185'
p251
sg28
S'296'
p252
sg29
S'105'
p253
sg31
S'504'
p254
sg32
S'32'
p255
sg34
S'WSB'
p256
sg36
S'81'
p257
sg37
S'197'
p258
sg38
S'94'
p259
sg39
S'68'
p260
sg40
S'185'
p261
sg41
S'359'
p262
sg42
S'1989-90'
p263
sg44
S'94'
p264
sg45
S'76'
p265
sg46
S'.508'
p266
sg48
S'2240'
p267
sg50
S'81'
p268
sba(isrc.gp1.models.Totals
Totals
p269
(dp270
g8
S'119'
p271
sg10
g9
sg11
S'.540'
p272
sg13
S'48'
p273
sg14
g3
sg15
g9
sg16
S'163'
p274
sg18
g101
sg20
S'.580'
p275
sg22
S'.540'
p276
sg24
S'NBA'
p277
sg26
S'51'
p278
sg27
S'124'
p279
sg28
S'199'
p280
sg29
S'50'
p281
sg31
S'359'
p282
sg32
S'33'
p283
sg34
S'WSB'
p284
sg36
S'62'
p285
sg37
S'124'
p286
sg38
S'67'
p287
sg39
S'29'
p288
sg40
S'124'
p289
sg41
S'240'
p290
sg42
S'1990-91'
p291
sg44
S'67'
p292
sg45
S'46'
p293
sg46
S'.540'
p294
sg48
S'1499'
p295
sg50
S'54'
p296
sba(isrc.gp1.models.Totals
Totals
p297
(dp298
g8
S'105'
p299
sg10
g9
sg11
S'.367'
p300
sg13
S'62'
p301
sg14
g3
sg15
g9
sg16
S'86'
p302
sg18
g101
sg20
S'.500'
p303
sg22
S'.367'
p304
sg24
S'NBA'
p305
sg26
S'43'
p306
sg27
S'90'
p307
sg28
S'214'
p308
sg29
S'40'
p309
sg31
S'317'
p310
sg32
S'34'
p311
sg34
S'WSB'
p312
sg36
S'75'
p313
sg37
S'92'
p314
sg38
S'33'
p315
sg39
S'20'
p316
sg40
S'90'
p317
sg41
S'212'
p318
sg42
S'1991-92'
p319
sg44
S'33'
p320
sg45
S'39'
p321
sg46
S'.367'
p322
sg48
S'1365'
p323
sg50
S'32'
p324
sba(isrc.gp1.models.Totals
Totals
p325
(dp326
g8
S'87'
p327
sg10
g17
sg11
S'.524'
p328
sg13
S'42'
p329
sg14
S'.000'
p330
sg15
g9
sg16
S'88'
p331
sg18
g101
sg20
S'.579'
p332
sg22
S'.524'
p333
sg24
S'NBA'
p334
sg26
S'38'
p335
sg27
S'63'
p336
sg28
S'144'
p337
sg29
S'38'
p338
sg31
S'277'
p339
sg32
S'35'
p340
sg34
S'WSB'
p341
sg36
S'67'
p342
sg37
S'77'
p343
sg38
S'33'
p344
sg39
S'22'
p345
sg40
S'62'
p346
sg41
S'190'
p347
sg42
S'1992-93'
p348
sg44
S'33'
p349
sg45
S'38'
p350
sg46
S'.532'
p351
sg48
S'1206'
p352
sg50
S'21'
p353
sba(isrc.gp1.models.Totals
Totals
p354
(dp355
g8
S'89'
p356
sg10
g17
sg11
S'.462'
p357
sg13
S'29'
p358
sg14
S'.000'
p359
sg15
g9
sg16
S'91'
p360
sg18
g101
sg20
S'.559'
p361
sg22
S'.462'
p362
sg24
S'NBA'
p363
sg26
S'14'
p364
sg27
S'78'
p365
sg28
S'136'
p366
sg29
S'34'
p367
sg31
S'235'
p368
sg32
S'36'
p369
sg34
S'DET'
p370
sg36
S'42'
p371
sg37
S'43'
p372
sg38
S'36'
p373
sg39
S'19'
p374
sg40
S'77'
p375
sg41
S'146'
p376
sg42
S'1993-94'
p377
sg44
S'36'
p378
sg45
S'12'
p379
sg46
S'.468'
p380
sg48
S'877'
p381
sg50
g9
sba(isrc.gp1.models.Totals
Totals
p382
(dp383
g8
g81
sg10
g9
sg11
S'.333'
p384
sg13
g9
sg14
g3
sg15
g9
sg16
g49
sg18
S'PF'
p385
sg20
S'.500'
p386
sg22
S'.333'
p387
sg24
S'NBA'
p388
sg26
g9
sg27
g49
sg28
g83
sg29
g81
sg31
S'7'
p389
sg32
S'37'
p390
sg34
S'HOU'
p391
sg36
g49
sg37
g17
sg38
g17
sg39
g17
sg40
g49
sg41
g91
sg42
S'1994-95'
p392
sg44
g17
sg45
g9
sg46
S'.333'
p393
sg48
S'36'
p394
sg50
g9
sba(isrc.gp1.models.Totals
Totals
p395
(dp396
g8
S'28'
p397
sg10
g9
sg11
S'.316'
p398
sg13
S'12'
p399
sg14
g3
sg15
g9
sg16
S'16'
p400
sg18
S'PF'
p401
sg20
S'.308'
p402
sg22
S'.316'
p403
sg24
S'NBA'
p404
sg26
g91
sg27
S'19'
p405
sg28
S'44'
p406
sg29
S'13'
p407
sg31
S'74'
p408
sg32
S'38'
p409
sg34
S'HOU'
p410
sg36
S'46'
p411
sg37
S'24'
p412
sg38
g88
sg39
g30
sg40
S'19'
p413
sg41
S'46'
p414
sg42
S'1995-96'
p415
sg44
g88
sg45
g49
sg46
S'.316'
p416
sg48
S'297'
p417
sg50
g9
sba(isrc.gp1.models.Totals
Totals
p418
(dp419
g8
g91
sg10
g9
sg11
S'.400'
p420
sg13
g49
sg14
g3
sg15
g9
sg16
g30
sg18
S'PF'
p421
sg20
g3
sg22
S'.400'
p422
sg24
S'NBA'
p423
sg26
g81
sg27
g91
sg28
g83
sg29
g9
sg31
S'13'
p424
sg32
S'39'
p425
sg34
S'HOU'
p426
sg36
S'12'
p427
sg37
g30
sg38
g81
sg39
g9
sg40
g91
sg41
g83
sg42
S'1996-97'
p428
sg44
g81
sg45
g9
sg46
S'.400'
p429
sg48
S'93'
p430
sg50
g9
sba(isrc.gp1.models.Totals
Totals
p431
(dp432
g8
S'12'
p433
sg10
g9
sg11
S'.700'
p434
sg13
g91
sg14
g3
sg15
g9
sg16
S'15'
p435
sg18
S'PF'
p436
sg20
S'.500'
p437
sg22
S'.700'
p438
sg24
S'NBA'
p439
sg26
g17
sg27
S'10'
p440
sg28
S'22'
p441
sg29
g81
sg31
S'24'
p442
sg32
S'40'
p443
sg34
S'HOU'
p444
sg36
S'24'
p445
sg37
g88
sg38
g389
sg39
g17
sg40
S'10'
p446
sg41
S'12'
p447
sg42
S'1997-98'
p448
sg44
g389
sg45
g30
sg46
S'.700'
p449
sg48
S'127'
p450
sg50
g9
sbasS'_college'
p451
S'Albany State University'
p452
sS'_toYear'
p453
S'1998'
p454
sS'_height'
p455
S'6-9'
p456
sS'_active'
p457
I00
sS'_shootingHand'
p458
VRight
p459
sS'_name'
p460
S'Charles Jones'
p461
sS'_per100Possessions'
p462
(lp463
(isrc.gp1.models.Per100Possession
Per100Possession
p464
(dp465
g8
S'0.0'
p466
sg10
S'0.0'
p467
sg11
S'.000'
p468
sS'_offensiveRating'
p469
S'42'
p470
sg13
S'0.0'
p471
sg14
g3
sg15
S'0.0'
p472
sg16
S'16.1'
p473
sg18
S'PF'
p474
sS'_defensiveRating'
p475
S'113'
p476
sg20
S'.250'
p477
sg24
S'NBA'
p478
sg26
S'0.0'
p479
sg27
S'16.1'
p480
sg28
S'16.1'
p481
sg29
S'64.3'
p482
sg31
S'0.0'
p483
sg32
S'26'
p484
sg34
S'PHI'
p485
sg36
g17
sg37
S'0.0'
p486
sg38
S'0.0'
p487
sg39
S'16.1'
p488
sg40
S'16.1'
p489
sg41
S'0.0'
p490
sg42
S'1983-84'
p491
sg44
S'0.0'
p492
sg45
S'0.0'
p493
sg46
S'.000'
p494
sg48
g49
sg50
g9
sba(isrc.gp1.models.Per100Possession
Per100Possession
p495
(dp496
g8
S'5.1'
p497
sg10
S'0.0'
p498
sg11
S'.528'
p499
sg469
S'117'
p500
sg13
S'1.9'
p501
sg14
g3
sg15
S'0.0'
p502
sg16
S'12.5'
p503
sg18
S'C-PF'
p504
sg475
S'99'
p505
sg20
S'.690'
p506
sg24
S'NBA'
p507
sg26
S'1.6'
p508
sg27
S'9.1'
p509
sg28
S'7.7'
p510
sg29
S'4.2'
p511
sg31
S'13.2'
p512
sg32
S'27'
p513
sg34
S'TOT'
p514
sg36
S'31'
p515
sg37
S'5.7'
p516
sg38
S'4.8'
p517
sg39
S'2.9'
p518
sg40
S'9.1'
p519
sg41
S'8.1'
p520
sg42
S'1984-85'
p521
sg44
S'4.8'
p522
sg45
S'1.8'
p523
sg46
S'.528'
p524
sg48
S'667'
p525
sg50
g30
sba(isrc.gp1.models.Per100Possession
Per100Possession
p526
(dp527
g8
S'3.3'
p528
sg10
S'0.0'
p529
sg11
S'.500'
p530
sg469
S'86'
p531
sg13
S'1.7'
p532
sg14
g3
sg15
S'0.0'
p533
sg16
S'13.3'
p534
sg18
S'PF'
p535
sg475
S'106'
p536
sg20
S'.667'
p537
sg24
S'NBA'
p538
sg26
S'0.0'
p539
sg27
S'6.7'
p540
sg28
S'10.0'
p541
sg29
S'10.0'
p542
sg31
S'10.0'
p543
sg32
S'27'
p544
sg34
S'CHI'
p545
sg36
g49
sg37
S'8.3'
p546
sg38
S'3.3'
p547
sg39
S'6.7'
p548
sg40
S'6.7'
p549
sg41
S'6.7'
p550
sg42
S'1984-85'
p551
sg44
S'3.3'
p552
sg45
S'6.7'
p553
sg46
S'.500'
p554
sg48
S'29'
p555
sg50
g9
sba(isrc.gp1.models.Per100Possession
Per100Possession
p556
(dp557
g8
S'5.2'
p558
sg10
S'0.0'
p559
sg11
S'.528'
p560
sg469
S'119'
p561
sg13
S'1.9'
p562
sg14
g3
sg15
S'0.0'
p563
sg16
S'12.5'
p564
sg18
g101
sg475
S'99'
p565
sg20
S'.692'
p566
sg24
S'NBA'
p567
sg26
S'1.7'
p568
sg27
S'9.2'
p569
sg28
S'7.6'
p570
sg29
S'3.9'
p571
sg31
S'13.4'
p572
sg32
S'27'
p573
sg34
S'WSB'
p574
sg36
S'28'
p575
sg37
S'5.6'
p576
sg38
S'4.9'
p577
sg39
S'2.7'
p578
sg40
S'9.2'
p579
sg41
S'8.2'
p580
sg42
S'1984-85'
p581
sg44
S'4.9'
p582
sg45
S'1.6'
p583
sg46
S'.528'
p584
sg48
S'638'
p585
sg50
g30
sba(isrc.gp1.models.Per100Possession
Per100Possession
p586
(dp587
g8
S'3.7'
p588
sg10
S'0.0'
p589
sg11
S'.508'
p590
sg469
S'105'
p591
sg13
S'2.3'
p592
sg14
S'.000'
p593
sg15
S'0.0'
p594
sg16
S'9.4'
p595
sg18
g101
sg475
S'103'
p596
sg20
S'.628'
p597
sg24
S'NBA'
p598
sg26
S'1.7'
p599
sg27
S'7.6'
p600
sg28
S'7.1'
p601
sg29
S'2.6'
p602
sg31
S'9.7'
p603
sg32
S'28'
p604
sg34
S'WSB'
p605
sg36
S'81'
p606
sg37
S'4.0'
p607
sg38
S'3.9'
p608
sg39
S'1.6'
p609
sg40
S'7.6'
p610
sg41
S'6.0'
p611
sg42
S'1985-86'
p612
sg44
S'3.9'
p613
sg45
S'2.1'
p614
sg46
S'.510'
p615
sg48
S'1609'
p616
sg50
S'58'
p617
sba(isrc.gp1.models.Per100Possession
Per100Possession
p618
(dp619
g8
S'4.3'
p620
sg10
S'0.0'
p621
sg11
S'.474'
p622
sg469
S'102'
p623
sg13
S'2.4'
p624
sg14
S'.000'
p625
sg15
S'0.0'
p626
sg16
S'8.5'
p627
sg18
S'PF'
p628
sg475
S'104'
p629
sg20
S'.632'
p630
sg24
S'NBA'
p631
sg26
S'2.0'
p632
sg27
S'7.4'
p633
sg28
S'7.5'
p634
sg29
S'2.3'
p635
sg31
S'10.6'
p636
sg32
S'29'
p637
sg34
S'WSB'
p638
sg36
S'79'
p639
sg37
S'4.9'
p640
sg38
S'3.5'
p641
sg39
S'1.4'
p642
sg40
S'7.4'
p643
sg41
S'6.3'
p644
sg42
S'1986-87'
p645
sg44
S'3.5'
p646
sg45
S'2.3'
p647
sg46
S'.476'
p648
sg48
S'1609'
p649
sg50
S'64'
p650
sba(isrc.gp1.models.Per100Possession
Per100Possession
p651
(dp652
g8
S'3.9'
p653
sg10
S'0.0'
p654
sg11
S'.407'
p655
sg469
S'99'
p656
sg13
S'2.2'
p657
sg14
S'.000'
p658
sg15
S'0.0'
p659
sg16
S'7.3'
p660
sg18
S'PF'
p661
sg475
S'102'
p662
sg20
S'.707'
p663
sg24
S'NBA'
p664
sg26
S'2.0'
p665
sg27
S'6.6'
p666
sg28
S'8.4'
p667
sg29
S'2.8'
p668
sg31
S'12.1'
p669
sg32
S'30'
p670
sg34
S'WSB'
p671
sg36
S'69'
p672
sg37
S'4.2'
p673
sg38
S'2.7'
p674
sg39
S'2.0'
p675
sg40
S'6.6'
p676
sg41
S'8.2'
p677
sg42
S'1987-88'
p678
sg44
S'2.7'
p679
sg45
S'2.1'
p680
sg46
S'.409'
p681
sg48
S'1313'
p682
sg50
S'49'
p683
sba(isrc.gp1.models.Per100Possession
Per100Possession
p684
(dp685
g8
S'3.2'
p686
sg10
S'0.0'
p687
sg11
S'.480'
p688
sg469
S'102'
p689
sg13
S'1.7'
p690
sg14
S'.000'
p691
sg15
S'0.0'
p692
sg16
S'5.6'
p693
sg18
g101
sg475
S'105'
p694
sg20
S'.640'
p695
sg24
S'NBA'
p696
sg26
S'1.6'
p697
sg27
S'5.2'
p698
sg28
S'7.7'
p699
sg29
S'1.0'
p700
sg31
S'10.6'
p701
sg32
S'31'
p702
sg34
S'WSB'
p703
sg36
S'53'
p704
sg37
S'3.1'
p705
sg38
S'2.5'
p706
sg39
S'0.7'
p707
sg40
S'5.1'
p708
sg41
S'7.4'
p709
sg42
S'1988-89'
p710
sg44
S'2.5'
p711
sg45
S'1.6'
p712
sg46
S'.484'
p713
sg48
S'1154'
p714
sg50
S'45'
p715
sba(isrc.gp1.models.Per100Possession
Per100Possession
p716
(dp717
g8
S'3.1'
p718
sg10
S'0.0'
p719
sg11
S'.508'
p720
sg469
S'111'
p721
sg13
S'3.0'
p722
sg14
g3
sg15
S'0.0'
p723
sg16
S'5.5'
p724
sg18
g101
sg475
S'106'
p725
sg20
S'.648'
p726
sg24
S'NBA'
p727
sg26
S'1.1'
p728
sg27
S'4.0'
p729
sg28
S'6.4'
p730
sg29
S'2.3'
p731
sg31
S'10.9'
p732
sg32
S'32'
p733
sg34
S'WSB'
p734
sg36
S'81'
p735
sg37
S'4.2'
p736
sg38
S'2.0'
p737
sg39
S'1.5'
p738
sg40
S'4.0'
p739
sg41
S'7.7'
p740
sg42
S'1989-90'
p741
sg44
S'2.0'
p742
sg45
S'1.6'
p743
sg46
S'.508'
p744
sg48
S'2240'
p745
sg50
S'81'
p746
sba(isrc.gp1.models.Per100Possession
Per100Possession
p747
(dp748
g8
S'3.9'
p749
sg10
S'0.0'
p750
sg11
S'.540'
p751
sg469
S'110'
p752
sg13
S'1.6'
p753
sg14
g3
sg15
S'0.0'
p754
sg16
S'5.4'
p755
sg18
g101
sg475
S'104'
p756
sg20
S'.580'
p757
sg24
S'NBA'
p758
sg26
S'1.7'
p759
sg27
S'4.1'
p760
sg28
S'6.5'
p761
sg29
S'1.6'
p762
sg31
S'11.8'
p763
sg32
S'33'
p764
sg34
S'WSB'
p765
sg36
S'62'
p766
sg37
S'4.1'
p767
sg38
S'2.2'
p768
sg39
S'1.0'
p769
sg40
S'4.1'
p770
sg41
S'7.9'
p771
sg42
S'1990-91'
p772
sg44
S'2.2'
p773
sg45
S'1.5'
p774
sg46
S'.540'
p775
sg48
S'1499'
p776
sg50
S'54'
p777
sba(isrc.gp1.models.Per100Possession
Per100Possession
p778
(dp779
g8
S'3.8'
p780
sg10
S'0.0'
p781
sg11
S'.367'
p782
sg469
S'99'
p783
sg13
S'2.2'
p784
sg14
g3
sg15
S'0.0'
p785
sg16
S'3.1'
p786
sg18
g101
sg475
S'106'
p787
sg20
S'.500'
p788
sg24
S'NBA'
p789
sg26
S'1.5'
p790
sg27
S'3.2'
p791
sg28
S'7.7'
p792
sg29
S'1.4'
p793
sg31
S'11.4'
p794
sg32
S'34'
p795
sg34
S'WSB'
p796
sg36
S'75'
p797
sg37
S'3.3'
p798
sg38
S'1.2'
p799
sg39
S'0.7'
p800
sg40
S'3.2'
p801
sg41
S'7.6'
p802
sg42
S'1991-92'
p803
sg44
S'1.2'
p804
sg45
S'1.4'
p805
sg46
S'.367'
p806
sg48
S'1365'
p807
sg50
S'32'
p808
sba(isrc.gp1.models.Per100Possession
Per100Possession
p809
(dp810
g8
S'3.5'
p811
sg10
S'0.0'
p812
sg11
S'.524'
p813
sg469
S'107'
p814
sg13
S'1.7'
p815
sg14
S'.000'
p816
sg15
S'0.0'
p817
sg16
S'3.6'
p818
sg18
g101
sg475
S'108'
p819
sg20
S'.579'
p820
sg24
S'NBA'
p821
sg26
S'1.5'
p822
sg27
S'2.6'
p823
sg28
S'5.9'
p824
sg29
S'1.5'
p825
sg31
S'11.3'
p826
sg32
S'35'
p827
sg34
S'WSB'
p828
sg36
S'67'
p829
sg37
S'3.1'
p830
sg38
S'1.3'
p831
sg39
S'0.9'
p832
sg40
S'2.5'
p833
sg41
S'7.7'
p834
sg42
S'1992-93'
p835
sg44
S'1.3'
p836
sg45
S'1.5'
p837
sg46
S'.532'
p838
sg48
S'1206'
p839
sg50
S'21'
p840
sba(isrc.gp1.models.Per100Possession
Per100Possession
p841
(dp842
g8
S'5.2'
p843
sg10
S'0.1'
p844
sg11
S'.462'
p845
sg469
S'123'
p846
sg13
S'1.7'
p847
sg14
S'.000'
p848
sg15
S'0.0'
p849
sg16
S'5.3'
p850
sg18
g101
sg475
S'109'
p851
sg20
S'.559'
p852
sg24
S'NBA'
p853
sg26
S'0.8'
p854
sg27
S'4.5'
p855
sg28
S'7.9'
p856
sg29
S'2.0'
p857
sg31
S'13.7'
p858
sg32
S'36'
p859
sg34
S'DET'
p860
sg36
S'42'
p861
sg37
S'2.5'
p862
sg38
S'2.1'
p863
sg39
S'1.1'
p864
sg40
S'4.5'
p865
sg41
S'8.5'
p866
sg42
S'1993-94'
p867
sg44
S'2.1'
p868
sg45
S'0.7'
p869
sg46
S'.468'
p870
sg48
S'877'
p871
sg50
g9
sba(isrc.gp1.models.Per100Possession
Per100Possession
p872
(dp873
g8
S'2.8'
p874
sg10
S'0.0'
p875
sg11
S'.333'
p876
sg469
S'108'
p877
sg13
S'0.0'
p878
sg14
g3
sg15
S'0.0'
p879
sg16
S'4.2'
p880
sg18
S'PF'
p881
sg475
S'110'
p882
sg20
S'.500'
p883
sg24
S'NBA'
p884
sg26
S'0.0'
p885
sg27
S'4.2'
p886
sg28
S'11.3'
p887
sg29
S'2.8'
p888
sg31
S'9.9'
p889
sg32
S'37'
p890
sg34
S'HOU'
p891
sg36
g49
sg37
S'1.4'
p892
sg38
S'1.4'
p893
sg39
S'1.4'
p894
sg40
S'4.2'
p895
sg41
S'7.1'
p896
sg42
S'1994-95'
p897
sg44
S'1.4'
p898
sg45
S'0.0'
p899
sg46
S'.333'
p900
sg48
S'36'
p901
sg50
g9
sba(isrc.gp1.models.Per100Possession
Per100Possession
p902
(dp903
g8
S'4.9'
p904
sg10
S'0.0'
p905
sg11
S'.316'
p906
sg469
S'114'
p907
sg13
S'2.1'
p908
sg14
g3
sg15
S'0.0'
p909
sg16
S'2.8'
p910
sg18
S'PF'
p911
sg475
S'105'
p912
sg20
S'.308'
p913
sg24
S'NBA'
p914
sg26
S'0.9'
p915
sg27
S'3.3'
p916
sg28
S'7.6'
p917
sg29
S'2.3'
p918
sg31
S'12.8'
p919
sg32
S'38'
p920
sg34
S'HOU'
p921
sg36
S'46'
p922
sg37
S'4.2'
p923
sg38
S'1.0'
p924
sg39
S'0.7'
p925
sg40
S'3.3'
p926
sg41
S'8.0'
p927
sg42
S'1995-96'
p928
sg44
S'1.0'
p929
sg45
S'0.5'
p930
sg46
S'.316'
p931
sg48
S'297'
p932
sg50
g9
sba(isrc.gp1.models.Per100Possession
Per100Possession
p933
(dp934
g8
S'2.8'
p935
sg10
S'0.0'
p936
sg11
S'.400'
p937
sg469
S'136'
p938
sg13
S'1.7'
p939
sg14
g3
sg15
S'0.0'
p940
sg16
S'2.3'
p941
sg18
S'PF'
p942
sg475
S'106'
p943
sg20
g3
sg24
S'NBA'
p944
sg26
S'1.1'
p945
sg27
S'2.8'
p946
sg28
S'4.5'
p947
sg29
S'0.0'
p948
sg31
S'7.3'
p949
sg32
S'39'
p950
sg34
S'HOU'
p951
sg36
S'12'
p952
sg37
S'2.3'
p953
sg38
S'1.1'
p954
sg39
S'0.0'
p955
sg40
S'2.8'
p956
sg41
S'4.5'
p957
sg42
S'1996-97'
p958
sg44
S'1.1'
p959
sg45
S'0.0'
p960
sg46
S'.400'
p961
sg48
S'93'
p962
sg50
g9
sba(isrc.gp1.models.Per100Possession
Per100Possession
p963
(dp964
g8
S'5.0'
p965
sg10
S'0.0'
p966
sg11
S'.700'
p967
sg469
S'127'
p968
sg13
S'2.1'
p969
sg14
g3
sg15
S'0.0'
p970
sg16
S'6.2'
p971
sg18
S'PF'
p972
sg475
S'111'
p973
sg20
S'.500'
p974
sg24
S'NBA'
p975
sg26
S'0.4'
p976
sg27
S'4.2'
p977
sg28
S'9.1'
p978
sg29
S'0.8'
p979
sg31
S'10.0'
p980
sg32
S'40'
p981
sg34
S'HOU'
p982
sg36
S'24'
p983
sg37
S'2.5'
p984
sg38
S'2.9'
p985
sg39
S'0.4'
p986
sg40
S'4.2'
p987
sg41
S'5.0'
p988
sg42
S'1997-98'
p989
sg44
S'2.9'
p990
sg45
S'1.7'
p991
sg46
S'.700'
p992
sg48
S'127'
p993
sg50
g9
sbasS'_advanced'
p994
(lp995
(isrc.gp1.models.Advanced
Advanced
p996
(dp997
S'_offensiveReboundPercentage'
p998
S'0.0'
p999
sS'_turnOverPercentage'
p1000
S'0.0'
p1001
sS'_winSharesPer48Minutes'
p1002
S'-0.552'
p1003
sS'_stealPercentage'
p1004
S'0.0'
p1005
sS'_usagePercentage'
p1006
S'38.0'
p1007
sS'_totalReboundsPercentage'
p1008
S'0.0'
p1009
sS'_defensiveBoxPlusMinus'
p1010
S'-11.1'
p1011
sg18
S'PF'
p1012
sS'_valueOverReplacementPlayer'
p1013
S'0.0'
p1014
sS'_trueShootingPercentage'
p1015
S'.181'
p1016
sS'_defensiveReboundPercentage'
p1017
S'0.0'
p1018
sS'_freeThrowsAttempRate'
p1019
S'4.000'
p1020
sS'_threePointsAttempRate'
p1021
S'.000'
p1022
sg24
S'NBA'
p1023
sS'_offensiveBoxPlusMinues'
p1024
S'-20.5'
p1025
sS'_assistPercentage'
p1026
S'0.0'
p1027
sS'_defensiveWinShares'
p1028
S'0.0'
p1029
sg32
S'26'
p1030
sg34
S'PHI'
p1031
sg36
g17
sS'_blockPercentage'
p1032
S'0.0'
p1033
sS'_playerEfficiencyRating'
p1034
S'-19.5'
p1035
sS'_offensiveWinShares'
p1036
S'0.0'
p1037
sg48
g49
sS'_boxPlusMinus'
p1038
S'-31.6'
p1039
sg42
S'1983-84'
p1040
sS'_winShares'
p1041
S'0.0'
p1042
sba(isrc.gp1.models.Advanced
Advanced
p1043
(dp1044
g998
S'11.5'
p1045
sg1000
S'14.1'
p1046
sg1002
S'.161'
p1047
sg1004
S'1.6'
p1048
sg1006
S'11.1'
p1049
sg1008
S'15.2'
p1050
sg1010
S'5.1'
p1051
sg18
S'C-PF'
p1052
sg1013
S'0.9'
p1053
sg1015
S'.570'
p1054
sg1017
S'19.1'
p1055
sg1019
S'.457'
p1056
sg1021
S'.000'
p1057
sg24
S'NBA'
p1058
sg1024
S'-1.7'
p1059
sg1026
S'4.9'
p1060
sg1028
S'1.4'
p1061
sg32
S'27'
p1062
sg34
S'TOT'
p1063
sg36
S'31'
p1064
sg1032
S'6.8'
p1065
sg1034
S'14.9'
p1066
sg1036
S'0.9'
p1067
sg48
S'667'
p1068
sg1038
S'3.4'
p1069
sg42
S'1984-85'
p1070
sg1041
S'2.2'
p1071
sba(isrc.gp1.models.Advanced
Advanced
p1072
(dp1073
g998
S'8.2'
p1074
sg1000
S'37.6'
p1075
sg1002
S'-0.001'
p1076
sg1004
S'0.0'
p1077
sg1006
S'15.3'
p1078
sg1008
S'12.0'
p1079
sg1010
S'3.6'
p1080
sg18
S'PF'
p1081
sg1013
S'0.0'
p1082
sg1015
S'.602'
p1083
sg1017
S'15.6'
p1084
sg1019
S'1.500'
p1085
sg1021
S'.000'
p1086
sg24
S'NBA'
p1087
sg1024
S'-6.4'
p1088
sg1026
S'4.3'
p1089
sg1028
S'0.0'
p1090
sg32
S'27'
p1091
sg34
S'CHI'
p1092
sg36
g49
sg1032
S'9.9'
p1093
sg1034
S'8.5'
p1094
sg1036
S'0.0'
p1095
sg48
S'29'
p1096
sg1038
S'-2.8'
p1097
sg42
S'1984-85'
p1098
sg1041
S'0.0'
p1099
sba(isrc.gp1.models.Advanced
Advanced
p1100
(dp1101
g998
S'11.7'
p1102
sg1000
S'12.6'
p1103
sg1002
S'.168'
p1104
sg1004
S'1.7'
p1105
sg1006
S'10.9'
p1106
sg1008
S'15.4'
p1107
sg1010
S'5.2'
p1108
sg18
g101
sg1013
S'0.9'
p1109
sg1015
S'.569'
p1110
sg1017
S'19.3'
p1111
sg1019
S'.423'
p1112
sg1021
S'.000'
p1113
sg24
S'NBA'
p1114
sg1024
S'-1.5'
p1115
sg1026
S'5.0'
p1116
sg1028
S'1.3'
p1117
sg32
S'27'
p1118
sg34
S'WSB'
p1119
sg36
S'28'
p1120
sg1032
S'6.6'
p1121
sg1034
S'15.1'
p1122
sg1036
S'0.9'
p1123
sg48
S'638'
p1124
sg1038
S'3.7'
p1125
sg42
S'1984-85'
p1126
sg1041
S'2.2'
p1127
sba(isrc.gp1.models.Advanced
Advanced
p1128
(dp1129
g998
S'8.2'
p1130
sg1000
S'19.6'
p1131
sg1002
S'.096'
p1132
sg1004
S'1.7'
p1133
sg1006
S'9.4'
p1134
sg1008
S'10.8'
p1135
sg1010
S'4.1'
p1136
sg18
g101
sg1013
S'1.4'
p1137
sg1015
S'.535'
p1138
sg1017
S'13.3'
p1139
sg1019
S'.339'
p1140
sg1021
S'.004'
p1141
sg24
S'NBA'
p1142
sg1024
S'-2.6'
p1143
sg1026
S'6.3'
p1144
sg1028
S'2.6'
p1145
sg32
S'28'
p1146
sg34
S'WSB'
p1147
sg36
S'81'
p1148
sg1032
S'4.6'
p1149
sg1034
S'10.5'
p1150
sg1036
S'0.6'
p1151
sg48
S'1609'
p1152
sg1038
S'1.5'
p1153
sg42
S'1985-86'
p1154
sg1041
S'3.2'
p1155
sba(isrc.gp1.models.Advanced
Advanced
p1156
(dp1157
g998
S'9.3'
p1158
sg1000
S'21.4'
p1159
sg1002
S'.083'
p1160
sg1004
S'2.0'
p1161
sg1006
S'9.0'
p1162
sg1008
S'11.7'
p1163
sg1010
S'5.1'
p1164
sg18
S'PF'
p1165
sg1013
S'1.9'
p1166
sg1015
S'.503'
p1167
sg1017
S'14.2'
p1168
sg1019
S'.305'
p1169
sg1021
S'.004'
p1170
sg24
S'NBA'
p1171
sg1024
S'-2.4'
p1172
sg1026
S'6.4'
p1173
sg1028
S'2.6'
p1174
sg32
S'29'
p1175
sg34
S'WSB'
p1176
sg36
S'79'
p1177
sg1032
S'5.7'
p1178
sg1034
S'10.6'
p1179
sg1036
S'0.2'
p1180
sg48
S'1609'
p1181
sg1038
S'2.7'
p1182
sg42
S'1986-87'
p1183
sg1041
S'2.8'
p1184
sba(isrc.gp1.models.Advanced
Advanced
p1185
(dp1186
g998
S'8.9'
p1187
sg1000
S'21.3'
p1188
sg1002
S'.082'
p1189
sg1004
S'2.0'
p1190
sg1006
S'8.4'
p1191
sg1008
S'13.8'
p1192
sg1010
S'5.0'
p1193
sg18
S'PF'
p1194
sg1013
S'1.3'
p1195
sg1015
S'.469'
p1196
sg1017
S'18.8'
p1197
sg1019
S'.424'
p1198
sg1021
S'.006'
p1199
sg24
S'NBA'
p1200
sg1024
S'-3.0'
p1201
sg1026
S'5.7'
p1202
sg1028
S'2.2'
p1203
sg32
S'30'
p1204
sg34
S'WSB'
p1205
sg36
S'69'
p1206
sg1032
S'5.0'
p1207
sg1034
S'9.3'
p1208
sg1036
S'0.0'
p1209
sg48
S'1313'
p1210
sg1038
S'2.0'
p1211
sg42
S'1987-88'
p1212
sg1041
S'2.2'
p1213
sba(isrc.gp1.models.Advanced
Advanced
p1214
(dp1215
g998
S'7.0'
p1216
sg1000
S'22.3'
p1217
sg1002
S'.068'
p1218
sg1004
S'1.6'
p1219
sg1006
S'6.1'
p1220
sg1008
S'12.2'
p1221
sg1010
S'4.0'
p1222
sg18
g101
sg1013
S'0.7'
p1223
sg1015
S'.500'
p1224
sg1017
S'17.8'
p1225
sg1019
S'.200'
p1226
sg1021
S'.008'
p1227
sg24
S'NBA'
p1228
sg1024
S'-3.6'
p1229
sg1026
S'4.4'
p1230
sg1028
S'1.5'
p1231
sg32
S'31'
p1232
sg34
S'WSB'
p1233
sg36
S'53'
p1234
sg1032
S'3.9'
p1235
sg1034
S'7.4'
p1236
sg1036
S'0.1'
p1237
sg48
S'1154'
p1238
sg1038
S'0.4'
p1239
sg42
S'1988-89'
p1240
sg1041
S'1.6'
p1241
sba(isrc.gp1.models.Advanced
Advanced
p1242
(dp1243
g998
S'6.9'
p1244
sg1000
S'24.7'
p1245
sg1002
S'.082'
p1246
sg1004
S'1.1'
p1247
sg1006
S'5.6'
p1248
sg1008
S'12.1'
p1249
sg1010
S'4.5'
p1250
sg18
g101
sg1013
S'2.1'
p1251
sg1015
S'.554'
p1252
sg1017
S'17.4'
p1253
sg1019
S'.568'
p1254
sg1021
S'.000'
p1255
sg24
S'NBA'
p1256
sg1024
S'-2.8'
p1257
sg1026
S'7.2'
p1258
sg1028
S'2.8'
p1259
sg32
S'32'
p1260
sg34
S'WSB'
p1261
sg36
S'81'
p1262
sg1032
S'5.0'
p1263
sg1034
S'9.2'
p1264
sg1036
S'1.0'
p1265
sg48
S'2240'
p1266
sg1038
S'1.7'
p1267
sg42
S'1989-90'
p1268
sg1041
S'3.8'
p1269
sba(isrc.gp1.models.Advanced
Advanced
p1270
(dp1271
g998
S'8.6'
p1272
sg1000
S'24.0'
p1273
sg1002
S'.092'
p1274
sg1004
S'1.7'
p1275
sg1006
S'5.3'
p1276
sg1008
S'13.1'
p1277
sg1010
S'4.5'
p1278
sg18
g101
sg1013
S'1.2'
p1279
sg1015
S'.558'
p1280
sg1017
S'17.6'
p1281
sg1019
S'.403'
p1282
sg1021
S'.000'
p1283
sg24
S'NBA'
p1284
sg1024
S'-3.3'
p1285
sg1026
S'4.0'
p1286
sg1028
S'2.3'
p1287
sg32
S'33'
p1288
sg34
S'WSB'
p1289
sg36
S'62'
p1290
sg1032
S'4.9'
p1291
sg1034
S'9.4'
p1292
sg1036
S'0.6'
p1293
sg48
S'1499'
p1294
sg1038
S'1.2'
p1295
sg42
S'1990-91'
p1296
sg1041
S'2.9'
p1297
sba(isrc.gp1.models.Advanced
Advanced
p1298
(dp1299
g998
S'8.2'
p1300
sg1000
S'26.6'
p1301
sg1002
S'.063'
p1302
sg1004
S'1.5'
p1303
sg1006
S'4.5'
p1304
sg1008
S'12.7'
p1305
sg1010
S'4.2'
p1306
sg18
g101
sg1013
S'0.5'
p1307
sg1015
S'.400'
p1308
sg1017
S'17.4'
p1309
sg1019
S'.444'
p1310
sg1021
S'.000'
p1311
sg24
S'NBA'
p1312
sg1024
S'-4.8'
p1313
sg1026
S'5.5'
p1314
sg1028
S'1.8'
p1315
sg32
S'34'
p1316
sg34
S'WSB'
p1317
sg36
S'75'
p1318
sg1032
S'4.1'
p1319
sg1034
S'6.8'
p1320
sg1036
S'0.0'
p1321
sg48
S'1365'
p1322
sg1038
S'-0.6'
p1323
sg42
S'1991-92'
p1324
sg1041
S'1.8'
p1325
sba(isrc.gp1.models.Advanced
Advanced
p1326
(dp1327
g998
S'8.0'
p1328
sg1000
S'32.3'
p1329
sg1002
S'.063'
p1330
sg1004
S'1.5'
p1331
sg1006
S'4.2'
p1332
sg1008
S'12.9'
p1333
sg1010
S'3.4'
p1334
sg18
g101
sg1013
S'0.4'
p1335
sg1015
S'.552'
p1336
sg1017
S'18.1'
p1337
sg1019
S'.603'
p1338
sg1021
S'.016'
p1339
sg24
S'NBA'
p1340
sg1024
S'-4.1'
p1341
sg1026
S'4.3'
p1342
sg1028
S'1.3'
p1343
sg32
S'35'
p1344
sg34
S'WSB'
p1345
sg36
S'67'
p1346
sg1032
S'3.9'
p1347
sg1034
S'7.8'
p1348
sg1036
S'0.3'
p1349
sg48
S'1206'
p1350
sg1038
S'-0.7'
p1351
sg42
S'1992-93'
p1352
sg1041
S'1.6'
p1353
sba(isrc.gp1.models.Advanced
Advanced
p1354
(dp1355
g998
S'11.1'
p1356
sg1000
S'11.4'
p1357
sg1002
S'.083'
p1358
sg1004
S'0.8'
p1359
sg1006
S'5.2'
p1360
sg1008
S'14.8'
p1361
sg1010
S'2.3'
p1362
sg18
g101
sg1013
S'0.4'
p1363
sg1015
S'.489'
p1364
sg1017
S'18.7'
p1365
sg1019
S'.436'
p1366
sg1021
S'.013'
p1367
sg24
S'NBA'
p1368
sg1024
S'-2.7'
p1369
sg1026
S'4.3'
p1370
sg1028
S'0.6'
p1371
sg32
S'36'
p1372
sg34
S'DET'
p1373
sg36
S'42'
p1374
sg1032
S'3.2'
p1375
sg1034
S'8.7'
p1376
sg1036
S'0.9'
p1377
sg48
S'877'
p1378
sg1038
S'-0.4'
p1379
sg42
S'1993-94'
p1380
sg1041
S'1.5'
p1381
sba(isrc.gp1.models.Advanced
Advanced
p1382
(dp1383
g998
S'6.7'
p1384
sg1000
S'0.0'
p1385
sg1002
S'.050'
p1386
sg1004
S'0.0'
p1387
sg1006
S'4.8'
p1388
sg1008
S'11.2'
p1389
sg1010
S'-2.0'
p1390
sg18
S'PF'
p1391
sg1013
S'-0.1'
p1392
sg1015
S'.387'
p1393
sg1017
S'15.2'
p1394
sg1019
S'.667'
p1395
sg1021
S'.000'
p1396
sg24
S'NBA'
p1397
sg1024
S'-6.4'
p1398
sg1026
S'0.0'
p1399
sg1028
S'0.0'
p1400
sg32
S'37'
p1401
sg34
S'HOU'
p1402
sg36
g49
sg1032
S'1.9'
p1403
sg1034
S'2.6'
p1404
sg1036
S'0.0'
p1405
sg48
S'36'
p1406
sg1038
S'-8.3'
p1407
sg42
S'1994-95'
p1408
sg1041
S'0.0'
p1409
sba(isrc.gp1.models.Advanced
Advanced
p1410
(dp1411
g998
S'10.9'
p1412
sg1000
S'10.8'
p1413
sg1002
S'.090'
p1414
sg1004
S'0.9'
p1415
sg1006
S'4.2'
p1416
sg1008
S'14.1'
p1417
sg1010
S'3.8'
p1418
sg18
S'PF'
p1419
sg1013
S'0.1'
p1420
sg1015
S'.324'
p1421
sg1017
S'17.1'
p1422
sg1019
S'.684'
p1423
sg1021
S'.000'
p1424
sg24
S'NBA'
p1425
sg1024
S'-4.3'
p1426
sg1026
S'5.3'
p1427
sg1028
S'0.4'
p1428
sg32
S'38'
p1429
sg34
S'HOU'
p1430
sg36
S'46'
p1431
sg1032
S'5.8'
p1432
sg1034
S'8.1'
p1433
sg1036
S'0.2'
p1434
sg48
S'297'
p1435
sg1038
S'-0.5'
p1436
sg42
S'1995-96'
p1437
sg1041
S'0.6'
p1438
sba(isrc.gp1.models.Advanced
Advanced
p1439
(dp1440
g998
S'6.6'
p1441
sg1000
S'0.0'
p1442
sg1002
S'.090'
p1443
sg1004
S'1.1'
p1444
sg1006
S'2.4'
p1445
sg1008
S'8.1'
p1446
sg1010
S'3.0'
p1447
sg18
S'PF'
p1448
sg1013
S'0.0'
p1449
sg1015
S'.400'
p1450
sg1017
S'9.5'
p1451
sg1019
S'.000'
p1452
sg1021
S'.000'
p1453
sg24
S'NBA'
p1454
sg1024
S'-3.6'
p1455
sg1026
S'4.3'
p1456
sg1028
S'0.1'
p1457
sg32
S'39'
p1458
sg34
S'HOU'
p1459
sg36
S'12'
p1460
sg1032
S'3.2'
p1461
sg1034
S'6.3'
p1462
sg1036
S'0.1'
p1463
sg48
S'93'
p1464
sg1038
S'-0.6'
p1465
sg42
S'1996-97'
p1466
sg1041
S'0.2'
p1467
sba(isrc.gp1.models.Advanced
Advanced
p1468
(dp1469
g998
S'11.3'
p1470
sg1000
S'26.9'
p1471
sg1002
S'.078'
p1472
sg1004
S'0.4'
p1473
sg1006
S'5.3'
p1474
sg1008
S'11.2'
p1475
sg1010
S'0.6'
p1476
sg18
S'PF'
p1477
sg1013
S'0.0'
p1478
sg1015
S'.689'
p1479
sg1017
S'11.1'
p1480
sg1019
S'.200'
p1481
sg1021
S'.000'
p1482
sg24
S'NBA'
p1483
sg1024
S'-1.6'
p1484
sg1026
S'5.7'
p1485
sg1028
S'0.0'
p1486
sg32
S'40'
p1487
sg34
S'HOU'
p1488
sg36
S'24'
p1489
sg1032
S'3.3'
p1490
sg1034
S'7.8'
p1491
sg1036
S'0.2'
p1492
sg48
S'127'
p1493
sg1038
S'-1.1'
p1494
sg42
S'1997-98'
p1495
sg1041
S'0.2'
p1496
sbasS'_per36Minutes'
p1497
(lp1498
(isrc.gp1.models.Per36Minutes
Per36Minutes
p1499
(dp1500
g8
S'0.0'
p1501
sg10
S'0.0'
p1502
sg11
S'.000'
p1503
sg13
S'0.0'
p1504
sg14
g3
sg15
S'0.0'
p1505
sg16
S'12.0'
p1506
sg18
S'PF'
p1507
sg20
S'.250'
p1508
sg24
S'NBA'
p1509
sg26
S'0.0'
p1510
sg27
S'12.0'
p1511
sg28
S'12.0'
p1512
sg29
S'48.0'
p1513
sg31
S'0.0'
p1514
sg32
S'26'
p1515
sg34
S'PHI'
p1516
sg36
g17
sg37
S'0.0'
p1517
sg38
S'0.0'
p1518
sg39
S'12.0'
p1519
sg40
S'12.0'
p1520
sg41
S'0.0'
p1521
sg42
S'1983-84'
p1522
sg44
S'0.0'
p1523
sg45
S'0.0'
p1524
sg46
S'.000'
p1525
sg48
g49
sg50
g9
sba(isrc.gp1.models.Per36Minutes
Per36Minutes
p1526
(dp1527
g8
S'3.8'
p1528
sg10
S'0.0'
p1529
sg11
S'.528'
p1530
sg13
S'1.4'
p1531
sg14
g3
sg15
S'0.0'
p1532
sg16
S'9.4'
p1533
sg18
S'C-PF'
p1534
sg20
S'.690'
p1535
sg24
S'NBA'
p1536
sg26
S'1.2'
p1537
sg27
S'6.9'
p1538
sg28
S'5.8'
p1539
sg29
S'3.1'
p1540
sg31
S'9.9'
p1541
sg32
S'27'
p1542
sg34
S'TOT'
p1543
sg36
S'31'
p1544
sg37
S'4.3'
p1545
sg38
S'3.6'
p1546
sg39
S'2.2'
p1547
sg40
S'6.9'
p1548
sg41
S'6.1'
p1549
sg42
S'1984-85'
p1550
sg44
S'3.6'
p1551
sg45
S'1.3'
p1552
sg46
S'.528'
p1553
sg48
S'667'
p1554
sg50
g30
sba(isrc.gp1.models.Per36Minutes
Per36Minutes
p1555
(dp1556
g8
S'2.5'
p1557
sg10
S'0.0'
p1558
sg11
S'.500'
p1559
sg13
S'1.2'
p1560
sg14
g3
sg15
S'0.0'
p1561
sg16
S'9.9'
p1562
sg18
S'PF'
p1563
sg20
S'.667'
p1564
sg24
S'NBA'
p1565
sg26
S'0.0'
p1566
sg27
S'5.0'
p1567
sg28
S'7.4'
p1568
sg29
S'7.4'
p1569
sg31
S'7.4'
p1570
sg32
S'27'
p1571
sg34
S'CHI'
p1572
sg36
g49
sg37
S'6.2'
p1573
sg38
S'2.5'
p1574
sg39
S'5.0'
p1575
sg40
S'5.0'
p1576
sg41
S'5.0'
p1577
sg42
S'1984-85'
p1578
sg44
S'2.5'
p1579
sg45
S'5.0'
p1580
sg46
S'.500'
p1581
sg48
S'29'
p1582
sg50
g9
sba(isrc.gp1.models.Per36Minutes
Per36Minutes
p1583
(dp1584
g8
S'3.9'
p1585
sg10
S'0.0'
p1586
sg11
S'.528'
p1587
sg13
S'1.4'
p1588
sg14
g3
sg15
S'0.0'
p1589
sg16
S'9.4'
p1590
sg18
g101
sg20
S'.692'
p1591
sg24
S'NBA'
p1592
sg26
S'1.2'
p1593
sg27
S'6.9'
p1594
sg28
S'5.7'
p1595
sg29
S'2.9'
p1596
sg31
S'10.0'
p1597
sg32
S'27'
p1598
sg34
S'WSB'
p1599
sg36
S'28'
p1600
sg37
S'4.2'
p1601
sg38
S'3.7'
p1602
sg39
S'2.0'
p1603
sg40
S'6.9'
p1604
sg41
S'6.2'
p1605
sg42
S'1984-85'
p1606
sg44
S'3.7'
p1607
sg45
S'1.2'
p1608
sg46
S'.528'
p1609
sg48
S'638'
p1610
sg50
g30
sba(isrc.gp1.models.Per36Minutes
Per36Minutes
p1611
(dp1612
g8
S'2.7'
p1613
sg10
S'0.0'
p1614
sg11
S'.508'
p1615
sg13
S'1.7'
p1616
sg14
S'.000'
p1617
sg15
S'0.0'
p1618
sg16
S'7.0'
p1619
sg18
g101
sg20
S'.628'
p1620
sg24
S'NBA'
p1621
sg26
S'1.3'
p1622
sg27
S'5.7'
p1623
sg28
S'5.3'
p1624
sg29
S'1.9'
p1625
sg31
S'7.2'
p1626
sg32
S'28'
p1627
sg34
S'WSB'
p1628
sg36
S'81'
p1629
sg37
S'3.0'
p1630
sg38
S'2.9'
p1631
sg39
S'1.2'
p1632
sg40
S'5.7'
p1633
sg41
S'4.5'
p1634
sg42
S'1985-86'
p1635
sg44
S'2.9'
p1636
sg45
S'1.6'
p1637
sg46
S'.510'
p1638
sg48
S'1609'
p1639
sg50
S'58'
p1640
sba(isrc.gp1.models.Per36Minutes
Per36Minutes
p1641
(dp1642
g8
S'3.2'
p1643
sg10
S'0.0'
p1644
sg11
S'.474'
p1645
sg13
S'1.8'
p1646
sg14
S'.000'
p1647
sg15
S'0.0'
p1648
sg16
S'6.4'
p1649
sg18
S'PF'
p1650
sg20
S'.632'
p1651
sg24
S'NBA'
p1652
sg26
S'1.5'
p1653
sg27
S'5.6'
p1654
sg28
S'5.6'
p1655
sg29
S'1.7'
p1656
sg31
S'8.0'
p1657
sg32
S'29'
p1658
sg34
S'WSB'
p1659
sg36
S'79'
p1660
sg37
S'3.7'
p1661
sg38
S'2.6'
p1662
sg39
S'1.1'
p1663
sg40
S'5.5'
p1664
sg41
S'4.7'
p1665
sg42
S'1986-87'
p1666
sg44
S'2.6'
p1667
sg45
S'1.7'
p1668
sg46
S'.476'
p1669
sg48
S'1609'
p1670
sg50
S'64'
p1671
sba(isrc.gp1.models.Per36Minutes
Per36Minutes
p1672
(dp1673
g8
S'2.9'
p1674
sg10
S'0.0'
p1675
sg11
S'.407'
p1676
sg13
S'1.6'
p1677
sg14
S'.000'
p1678
sg15
S'0.0'
p1679
sg16
S'5.4'
p1680
sg18
S'PF'
p1681
sg20
S'.707'
p1682
sg24
S'NBA'
p1683
sg26
S'1.5'
p1684
sg27
S'4.9'
p1685
sg28
S'6.2'
p1686
sg29
S'2.1'
p1687
sg31
S'8.9'
p1688
sg32
S'30'
p1689
sg34
S'WSB'
p1690
sg36
S'69'
p1691
sg37
S'3.1'
p1692
sg38
S'2.0'
p1693
sg39
S'1.5'
p1694
sg40
S'4.8'
p1695
sg41
S'6.0'
p1696
sg42
S'1987-88'
p1697
sg44
S'2.0'
p1698
sg45
S'1.6'
p1699
sg46
S'.409'
p1700
sg48
S'1313'
p1701
sg50
S'49'
p1702
sba(isrc.gp1.models.Per36Minutes
Per36Minutes
p1703
(dp1704
g8
S'2.4'
p1705
sg10
S'0.0'
p1706
sg11
S'.480'
p1707
sg13
S'1.3'
p1708
sg14
S'.000'
p1709
sg15
S'0.0'
p1710
sg16
S'4.2'
p1711
sg18
g101
sg20
S'.640'
p1712
sg24
S'NBA'
p1713
sg26
S'1.2'
p1714
sg27
S'3.9'
p1715
sg28
S'5.8'
p1716
sg29
S'0.8'
p1717
sg31
S'8.0'
p1718
sg32
S'31'
p1719
sg34
S'WSB'
p1720
sg36
S'53'
p1721
sg37
S'2.4'
p1722
sg38
S'1.9'
p1723
sg39
S'0.5'
p1724
sg40
S'3.9'
p1725
sg41
S'5.6'
p1726
sg42
S'1988-89'
p1727
sg44
S'1.9'
p1728
sg45
S'1.2'
p1729
sg46
S'.484'
p1730
sg48
S'1154'
p1731
sg50
S'45'
p1732
sba(isrc.gp1.models.Per36Minutes
Per36Minutes
p1733
(dp1734
g8
S'2.3'
p1735
sg10
S'0.0'
p1736
sg11
S'.508'
p1737
sg13
S'2.2'
p1738
sg14
g3
sg15
S'0.0'
p1739
sg16
S'4.1'
p1740
sg18
g101
sg20
S'.648'
p1741
sg24
S'NBA'
p1742
sg26
S'0.8'
p1743
sg27
S'3.0'
p1744
sg28
S'4.8'
p1745
sg29
S'1.7'
p1746
sg31
S'8.1'
p1747
sg32
S'32'
p1748
sg34
S'WSB'
p1749
sg36
S'81'
p1750
sg37
S'3.2'
p1751
sg38
S'1.5'
p1752
sg39
S'1.1'
p1753
sg40
S'3.0'
p1754
sg41
S'5.8'
p1755
sg42
S'1989-90'
p1756
sg44
S'1.5'
p1757
sg45
S'1.2'
p1758
sg46
S'.508'
p1759
sg48
S'2240'
p1760
sg50
S'81'
p1761
sba(isrc.gp1.models.Per36Minutes
Per36Minutes
p1762
(dp1763
g8
S'2.9'
p1764
sg10
S'0.0'
p1765
sg11
S'.540'
p1766
sg13
S'1.2'
p1767
sg14
g3
sg15
S'0.0'
p1768
sg16
S'3.9'
p1769
sg18
g101
sg20
S'.580'
p1770
sg24
S'NBA'
p1771
sg26
S'1.2'
p1772
sg27
S'3.0'
p1773
sg28
S'4.8'
p1774
sg29
S'1.2'
p1775
sg31
S'8.6'
p1776
sg32
S'33'
p1777
sg34
S'WSB'
p1778
sg36
S'62'
p1779
sg37
S'3.0'
p1780
sg38
S'1.6'
p1781
sg39
S'0.7'
p1782
sg40
S'3.0'
p1783
sg41
S'5.8'
p1784
sg42
S'1990-91'
p1785
sg44
S'1.6'
p1786
sg45
S'1.1'
p1787
sg46
S'.540'
p1788
sg48
S'1499'
p1789
sg50
S'54'
p1790
sba(isrc.gp1.models.Per36Minutes
Per36Minutes
p1791
(dp1792
g8
S'2.8'
p1793
sg10
S'0.0'
p1794
sg11
S'.367'
p1795
sg13
S'1.6'
p1796
sg14
g3
sg15
S'0.0'
p1797
sg16
S'2.3'
p1798
sg18
g101
sg20
S'.500'
p1799
sg24
S'NBA'
p1800
sg26
S'1.1'
p1801
sg27
S'2.4'
p1802
sg28
S'5.6'
p1803
sg29
S'1.1'
p1804
sg31
S'8.4'
p1805
sg32
S'34'
p1806
sg34
S'WSB'
p1807
sg36
S'75'
p1808
sg37
S'2.4'
p1809
sg38
S'0.9'
p1810
sg39
S'0.5'
p1811
sg40
S'2.4'
p1812
sg41
S'5.6'
p1813
sg42
S'1991-92'
p1814
sg44
S'0.9'
p1815
sg45
S'1.0'
p1816
sg46
S'.367'
p1817
sg48
S'1365'
p1818
sg50
S'32'
p1819
sba(isrc.gp1.models.Per36Minutes
Per36Minutes
p1820
(dp1821
g8
S'2.6'
p1822
sg10
S'0.0'
p1823
sg11
S'.524'
p1824
sg13
S'1.3'
p1825
sg14
S'.000'
p1826
sg15
S'0.0'
p1827
sg16
S'2.6'
p1828
sg18
g101
sg20
S'.579'
p1829
sg24
S'NBA'
p1830
sg26
S'1.1'
p1831
sg27
S'1.9'
p1832
sg28
S'4.3'
p1833
sg29
S'1.1'
p1834
sg31
S'8.3'
p1835
sg32
S'35'
p1836
sg34
S'WSB'
p1837
sg36
S'67'
p1838
sg37
S'2.3'
p1839
sg38
S'1.0'
p1840
sg39
S'0.7'
p1841
sg40
S'1.9'
p1842
sg41
S'5.7'
p1843
sg42
S'1992-93'
p1844
sg44
S'1.0'
p1845
sg45
S'1.1'
p1846
sg46
S'.532'
p1847
sg48
S'1206'
p1848
sg50
S'21'
p1849
sba(isrc.gp1.models.Per36Minutes
Per36Minutes
p1850
(dp1851
g8
S'3.7'
p1852
sg10
S'0.0'
p1853
sg11
S'.462'
p1854
sg13
S'1.2'
p1855
sg14
S'.000'
p1856
sg15
S'0.0'
p1857
sg16
S'3.7'
p1858
sg18
g101
sg20
S'.559'
p1859
sg24
S'NBA'
p1860
sg26
S'0.6'
p1861
sg27
S'3.2'
p1862
sg28
S'5.6'
p1863
sg29
S'1.4'
p1864
sg31
S'9.6'
p1865
sg32
S'36'
p1866
sg34
S'DET'
p1867
sg36
S'42'
p1868
sg37
S'1.8'
p1869
sg38
S'1.5'
p1870
sg39
S'0.8'
p1871
sg40
S'3.2'
p1872
sg41
S'6.0'
p1873
sg42
S'1993-94'
p1874
sg44
S'1.5'
p1875
sg45
S'0.5'
p1876
sg46
S'.468'
p1877
sg48
S'877'
p1878
sg50
g9
sba(isrc.gp1.models.Per36Minutes
Per36Minutes
p1879
(dp1880
g8
S'2.0'
p1881
sg10
S'0.0'
p1882
sg11
S'.333'
p1883
sg13
S'0.0'
p1884
sg14
g3
sg15
S'0.0'
p1885
sg16
S'3.0'
p1886
sg18
S'PF'
p1887
sg20
S'.500'
p1888
sg24
S'NBA'
p1889
sg26
S'0.0'
p1890
sg27
S'3.0'
p1891
sg28
S'8.0'
p1892
sg29
S'2.0'
p1893
sg31
S'7.0'
p1894
sg32
S'37'
p1895
sg34
S'HOU'
p1896
sg36
g49
sg37
S'1.0'
p1897
sg38
S'1.0'
p1898
sg39
S'1.0'
p1899
sg40
S'3.0'
p1900
sg41
S'5.0'
p1901
sg42
S'1994-95'
p1902
sg44
S'1.0'
p1903
sg45
S'0.0'
p1904
sg46
S'.333'
p1905
sg48
S'36'
p1906
sg50
g9
sba(isrc.gp1.models.Per36Minutes
Per36Minutes
p1907
(dp1908
g8
S'3.4'
p1909
sg10
S'0.0'
p1910
sg11
S'.316'
p1911
sg13
S'1.5'
p1912
sg14
g3
sg15
S'0.0'
p1913
sg16
S'1.9'
p1914
sg18
S'PF'
p1915
sg20
S'.308'
p1916
sg24
S'NBA'
p1917
sg26
S'0.6'
p1918
sg27
S'2.3'
p1919
sg28
S'5.3'
p1920
sg29
S'1.6'
p1921
sg31
S'9.0'
p1922
sg32
S'38'
p1923
sg34
S'HOU'
p1924
sg36
S'46'
p1925
sg37
S'2.9'
p1926
sg38
S'0.7'
p1927
sg39
S'0.5'
p1928
sg40
S'2.3'
p1929
sg41
S'5.6'
p1930
sg42
S'1995-96'
p1931
sg44
S'0.7'
p1932
sg45
S'0.4'
p1933
sg46
S'.316'
p1934
sg48
S'297'
p1935
sg50
g9
sba(isrc.gp1.models.Per36Minutes
Per36Minutes
p1936
(dp1937
g8
S'1.9'
p1938
sg10
S'0.0'
p1939
sg11
S'.400'
p1940
sg13
S'1.2'
p1941
sg14
g3
sg15
S'0.0'
p1942
sg16
S'1.5'
p1943
sg18
S'PF'
p1944
sg20
g3
sg24
S'NBA'
p1945
sg26
S'0.8'
p1946
sg27
S'1.9'
p1947
sg28
S'3.1'
p1948
sg29
S'0.0'
p1949
sg31
S'5.0'
p1950
sg32
S'39'
p1951
sg34
S'HOU'
p1952
sg36
S'12'
p1953
sg37
S'1.5'
p1954
sg38
S'0.8'
p1955
sg39
S'0.0'
p1956
sg40
S'1.9'
p1957
sg41
S'3.1'
p1958
sg42
S'1996-97'
p1959
sg44
S'0.8'
p1960
sg45
S'0.0'
p1961
sg46
S'.400'
p1962
sg48
S'93'
p1963
sg50
g9
sba(isrc.gp1.models.Per36Minutes
Per36Minutes
p1964
(dp1965
g8
S'3.4'
p1966
sg10
S'0.0'
p1967
sg11
S'.700'
p1968
sg13
S'1.4'
p1969
sg14
g3
sg15
S'0.0'
p1970
sg16
S'4.3'
p1971
sg18
S'PF'
p1972
sg20
S'.500'
p1973
sg24
S'NBA'
p1974
sg26
S'0.3'
p1975
sg27
S'2.8'
p1976
sg28
S'6.2'
p1977
sg29
S'0.6'
p1978
sg31
S'6.8'
p1979
sg32
S'40'
p1980
sg34
S'HOU'
p1981
sg36
S'24'
p1982
sg37
S'1.7'
p1983
sg38
S'2.0'
p1984
sg39
S'0.3'
p1985
sg40
S'2.8'
p1986
sg41
S'3.4'
p1987
sg42
S'1997-98'
p1988
sg44
S'2.0'
p1989
sg45
S'1.1'
p1990
sg46
S'.700'
p1991
sg48
S'127'
p1992
sg50
g9
sbasS'_fromYear'
p1993
S'1984'
p1994
sS'_url'
p1995
S'http://www.basketball-reference.com/players/j/jonesch01.html'
p1996
sS'_perGame'
p1997
(isrc.gp1.models.PerGame
PerGame
p1998
(dp1999
g8
S'0.5'
p2000
sg10
S'0.0'
p2001
sg11
S'.700'
p2002
sS'_effectiveFieldGalPercentage'
p2003
S'.700'
p2004
sg13
S'0.2'
p2005
sg14
g3
sg15
S'0.0'
p2006
sg16
S'0.6'
p2007
sg18
S'PF'
p2008
sg20
S'.500'
p2009
sg24
S'NBA'
p2010
sg26
S'0.0'
p2011
sg28
S'0.9'
p2012
sS'_fieldGoalsttempted'
p2013
S'0.4'
p2014
sg29
S'0.1'
p2015
sg31
S'1.0'
p2016
sg32
S'40'
p2017
sg34
S'HOU'
p2018
sg36
S'24'
p2019
sg37
S'0.3'
p2020
sg38
S'0.3'
p2021
sg39
S'0.0'
p2022
sg40
S'0.4'
p2023
sg41
S'0.5'
p2024
sg42
S'1997-98'
p2025
sg44
S'0.3'
p2026
sg45
S'0.2'
p2027
sg46
S'.700'
p2028
sg48
S'5.3'
p2029
sg50
g9
sbsS'_weight'
p2030
S'215'
p2031
sS'_dob'
p2032
S'3-4-1957'
p2033
sS'_salary'
p2034
(lp2035
(isrc.gp1.models.Salary
Salary
p2036
(dp2037
g34
S'Washington Bullets'
p2038
sg24
S'NBA'
p2039
sg2034
S'$95,000'
p2040
sg42
S'1985-86'
p2041
sba(isrc.gp1.models.Salary
Salary
p2042
(dp2043
g34
S'Washington Bullets'
p2044
sg24
S'NBA'
p2045
sg2034
S'$250,000'
p2046
sg42
S'1987-88'
p2047
sba(isrc.gp1.models.Salary
Salary
p2048
(dp2049
g34
S'Washington Bullets'
p2050
sg24
S'NBA'
p2051
sg2034
S'$100,000'
p2052
sg42
S'1988-89'
p2053
sba(isrc.gp1.models.Salary
Salary
p2054
(dp2055
g34
S'Washington Bullets'
p2056
sg24
S'NBA'
p2057
sg2034
S'$675,000'
p2058
sg42
S'1990-91'
p2059
sba(isrc.gp1.models.Salary
Salary
p2060
(dp2061
g34
S'Washington Bullets'
p2062
sg24
S'NBA'
p2063
sg2034
S'$750,000'
p2064
sg42
S'1991-92'
p2065
sba(isrc.gp1.models.Salary
Salary
p2066
(dp2067
g34
S'Washington Bullets'
p2068
sg24
S'NBA'
p2069
sg2034
S'$875,000'
p2070
sg42
S'1992-93'
p2071
sba(isrc.gp1.models.Salary
Salary
p2072
(dp2073
g34
S'Houston Rockets'
p2074
sg24
S'NBA'
p2075
sg2034
S'$350,000'
p2076
sg42
S'1995-96'
p2077
sba(isrc.gp1.models.Salary
Salary
p2078
(dp2079
g34
S'Houston Rockets'
p2080
sg24
S'NBA'
p2081
sg2034
S'$247,500'
p2082
sg42
S'1996-97'
p2083
sbasg18
S'F-C'
p2084
sb.