(isrc.gp1.models.Player
Player
p0
(dp1
S'_experience'
p2
V1 year
p3
sS'_totals'
p4
(lp5
(isrc.gp1.models.Totals
Totals
p6
(dp7
S'_offensiveRebounds'
p8
S'1'
p9
sS'_threePointsAttempted'
p10
S'3'
p11
sS'_fieldGoalsPercentage'
p12
S'.143'
p13
sS'_assist'
p14
g9
sS'_threePointsPercentage'
p15
S'.000'
p16
sS'_threePoints'
p17
S'0'
p18
sS'_points'
p19
S'9'
p20
sS'_position'
p21
S'SF'
p22
sS'_freeThrowsPercentage'
p23
S'.625'
p24
sS'_effectiveFieldGoalPercentage'
p25
S'.143'
p26
sS'_league'
p27
S'NBA'
p28
sS'_steals'
p29
g11
sS'_fieldGoalsAttempted'
p30
S'14'
p31
sS'_personalFouls'
p32
g11
sS'_freeThrowsAttempted'
p33
S'8'
p34
sS'_totalRebounds'
p35
S'7'
p36
sS'_age'
p37
S'24'
p38
sS'_team'
p39
S'TOT'
p40
sS'_games'
p41
S'10'
p42
sS'_blocks'
p43
g18
sS'_twoPoints'
p44
S'2'
p45
sS'_freeThrows'
p46
S'5'
p47
sS'_twoPointsAttempted'
p48
S'11'
p49
sS'_defensiveRebounds'
p50
S'6'
p51
sS'_season'
p52
S'2012-13'
p53
sS'_fieldGoals'
p54
g45
sS'_turnOvers'
p55
g45
sS'_twoPointsPercentage'
p56
S'.182'
p57
sS'_minutesPlayed'
p58
S'54'
p59
sS'_gamesStarted'
p60
g18
sba(isrc.gp1.models.Totals
Totals
p61
(dp62
g8
g9
sg10
g45
sg12
S'.182'
p63
sg14
g9
sg15
S'.000'
p64
sg17
g18
sg19
g36
sg21
S'SF'
p65
sg23
S'.750'
p66
sg25
S'.182'
p67
sg27
S'NBA'
p68
sg29
g18
sg30
S'11'
p69
sg32
g45
sg33
S'4'
p70
sg35
g47
sg37
S'24'
p71
sg39
S'BOS'
p72
sg41
g51
sg43
g18
sg44
g45
sg46
g11
sg48
g20
sg50
g70
sg52
S'2012-13'
p73
sg54
g45
sg55
g45
sg56
S'.222'
p74
sg58
S'24'
p75
sg60
g18
sba(isrc.gp1.models.Totals
Totals
p76
(dp77
g8
g18
sg10
g9
sg12
S'.000'
p78
sg14
g18
sg15
S'.000'
p79
sg17
g18
sg19
g45
sg21
S'SF'
p80
sg23
S'.500'
p81
sg25
S'.000'
p82
sg27
S'NBA'
p83
sg29
g11
sg30
g11
sg32
g9
sg33
g70
sg35
g45
sg37
S'24'
p84
sg39
S'BRK'
p85
sg41
g70
sg43
g18
sg44
g18
sg46
g45
sg48
g45
sg50
g45
sg52
S'2012-13'
p86
sg54
g18
sg55
g18
sg56
S'.000'
p87
sg58
S'30'
p88
sg60
g18
sbasS'_college'
p89
S'Syracuse University'
p90
sS'_toYear'
p91
S'2013'
p92
sS'_height'
p93
S'6-7'
p94
sS'_active'
p95
I01
sS'_shootingHand'
p96
VRight
p97
sS'_name'
p98
S'Kris Joseph'
p99
sS'_per100Possessions'
p100
(lp101
(isrc.gp1.models.Per100Possession
Per100Possession
p102
(dp103
g8
S'1.0'
p104
sg10
S'3.0'
p105
sg12
S'.143'
p106
sS'_offensiveRating'
p107
S'57'
p108
sg14
S'1.0'
p109
sg15
S'.000'
p110
sg17
S'0.0'
p111
sg19
S'8.9'
p112
sg21
S'SF'
p113
sS'_defensiveRating'
p114
S'104'
p115
sg23
S'.625'
p116
sg27
S'NBA'
p117
sg29
S'3.0'
p118
sg30
S'13.8'
p119
sg32
S'3.0'
p120
sg33
S'7.9'
p121
sg35
S'6.9'
p122
sg37
S'24'
p123
sg39
S'TOT'
p124
sg41
S'10'
p125
sg43
S'0.0'
p126
sg44
S'2.0'
p127
sg46
S'4.9'
p128
sg48
S'10.9'
p129
sg50
S'5.9'
p130
sg52
S'2012-13'
p131
sg54
S'2.0'
p132
sg55
S'2.0'
p133
sg56
S'.182'
p134
sg58
S'54'
p135
sg60
g18
sba(isrc.gp1.models.Per100Possession
Per100Possession
p136
(dp137
g8
S'2.2'
p138
sg10
S'4.4'
p139
sg12
S'.182'
p140
sg107
S'59'
p141
sg14
S'2.2'
p142
sg15
S'.000'
p143
sg17
S'0.0'
p144
sg19
S'15.3'
p145
sg21
S'SF'
p146
sg114
S'107'
p147
sg23
S'.750'
p148
sg27
S'NBA'
p149
sg29
S'0.0'
p150
sg30
S'24.0'
p151
sg32
S'4.4'
p152
sg33
S'8.7'
p153
sg35
S'10.9'
p154
sg37
S'24'
p155
sg39
S'BOS'
p156
sg41
g51
sg43
S'0.0'
p157
sg44
S'4.4'
p158
sg46
S'6.5'
p159
sg48
S'19.6'
p160
sg50
S'8.7'
p161
sg52
S'2012-13'
p162
sg54
S'4.4'
p163
sg55
S'4.4'
p164
sg56
S'.222'
p165
sg58
S'24'
p166
sg60
g18
sba(isrc.gp1.models.Per100Possession
Per100Possession
p167
(dp168
g8
S'0.0'
p169
sg10
S'1.8'
p170
sg12
S'.000'
p171
sg107
S'53'
p172
sg14
S'0.0'
p173
sg15
S'.000'
p174
sg17
S'0.0'
p175
sg19
S'3.6'
p176
sg21
S'SF'
p177
sg114
S'102'
p178
sg23
S'.500'
p179
sg27
S'NBA'
p180
sg29
S'5.4'
p181
sg30
S'5.4'
p182
sg32
S'1.8'
p183
sg33
S'7.2'
p184
sg35
S'3.6'
p185
sg37
S'24'
p186
sg39
S'BRK'
p187
sg41
g70
sg43
S'0.0'
p188
sg44
S'0.0'
p189
sg46
S'3.6'
p190
sg48
S'3.6'
p191
sg50
S'3.6'
p192
sg52
S'2012-13'
p193
sg54
S'0.0'
p194
sg55
S'0.0'
p195
sg56
S'.000'
p196
sg58
S'30'
p197
sg60
g18
sbasS'_advanced'
p198
(lp199
(isrc.gp1.models.Advanced
Advanced
p200
(dp201
S'_offensiveReboundPercentage'
p202
S'2.3'
p203
sS'_turnOverPercentage'
p204
S'10.2'
p205
sS'_winSharesPer48Minutes'
p206
S'-0.127'
p207
sS'_stealPercentage'
p208
S'3.0'
p209
sS'_usagePercentage'
p210
S'17.0'
p211
sS'_totalReboundsPercentage'
p212
S'7.7'
p213
sS'_defensiveBoxPlusMinus'
p214
S'-0.9'
p215
sg21
S'SF'
p216
sS'_valueOverReplacementPlayer'
p217
S'-0.1'
p218
sS'_trueShootingPercentage'
p219
S'.257'
p220
sS'_defensiveReboundPercentage'
p221
S'12.9'
p222
sS'_freeThrowsAttempRate'
p223
S'.571'
p224
sS'_threePointsAttempRate'
p225
S'.214'
p226
sg27
S'NBA'
p227
sS'_offensiveBoxPlusMinues'
p228
S'-9.6'
p229
sS'_assistPercentage'
p230
S'2.8'
p231
sS'_defensiveWinShares'
p232
S'0.1'
p233
sg37
S'24'
p234
sg39
S'TOT'
p235
sg41
S'10'
p236
sS'_blockPercentage'
p237
S'0.0'
p238
sS'_playerEfficiencyRating'
p239
S'0.6'
p240
sS'_offensiveWinShares'
p241
S'-0.2'
p242
sg58
S'54'
p243
sS'_boxPlusMinus'
p244
S'-10.5'
p245
sg52
S'2012-13'
p246
sS'_winShares'
p247
S'-0.1'
p248
sba(isrc.gp1.models.Advanced
Advanced
p249
(dp250
g202
S'5.1'
p251
sg204
S'13.6'
p252
sg206
S'-0.275'
p253
sg208
S'0.0'
p254
sg210
S'29.1'
p255
sg212
S'12.3'
p256
sg214
S'-5.0'
p257
sg21
S'SF'
p258
sg217
S'-0.1'
p259
sg219
S'.274'
p260
sg221
S'19.1'
p261
sg223
S'.364'
p262
sg225
S'.182'
p263
sg27
S'NBA'
p264
sg228
S'-14.2'
p265
sg230
S'6.2'
p266
sg232
S'0.0'
p267
sg37
S'24'
p268
sg39
S'BOS'
p269
sg41
g51
sg237
S'0.0'
p270
sg239
S'-3.2'
p271
sg241
S'-0.2'
p272
sg58
S'24'
p273
sg244
S'-19.2'
p274
sg52
S'2012-13'
p275
sg247
S'-0.1'
p276
sba(isrc.gp1.models.Advanced
Advanced
p277
(dp278
g202
S'0.0'
p279
sg204
S'0.0'
p280
sg206
S'-0.008'
p281
sg208
S'5.4'
p282
sg210
S'7.3'
p283
sg212
S'3.9'
p284
sg214
S'2.4'
p285
sg21
S'SF'
p286
sg217
S'0.0'
p287
sg219
S'.210'
p288
sg221
S'7.9'
p289
sg223
S'1.333'
p290
sg225
S'.333'
p291
sg27
S'NBA'
p292
sg228
S'-5.9'
p293
sg230
S'0.0'
p294
sg232
S'0.0'
p295
sg37
S'24'
p296
sg39
S'BRK'
p297
sg41
g70
sg237
S'0.0'
p298
sg239
S'3.7'
p299
sg241
S'-0.1'
p300
sg58
S'30'
p301
sg244
S'-3.5'
p302
sg52
S'2012-13'
p303
sg247
S'0.0'
p304
sbasS'_per36Minutes'
p305
(lp306
(isrc.gp1.models.Per36Minutes
Per36Minutes
p307
(dp308
g8
S'0.7'
p309
sg10
S'2.0'
p310
sg12
S'.143'
p311
sg14
S'0.7'
p312
sg15
S'.000'
p313
sg17
S'0.0'
p314
sg19
S'6.0'
p315
sg21
S'SF'
p316
sg23
S'.625'
p317
sg27
S'NBA'
p318
sg29
S'2.0'
p319
sg30
S'9.3'
p320
sg32
S'2.0'
p321
sg33
S'5.3'
p322
sg35
S'4.7'
p323
sg37
S'24'
p324
sg39
S'TOT'
p325
sg41
S'10'
p326
sg43
S'0.0'
p327
sg44
S'1.3'
p328
sg46
S'3.3'
p329
sg48
S'7.3'
p330
sg50
S'4.0'
p331
sg52
S'2012-13'
p332
sg54
S'1.3'
p333
sg55
S'1.3'
p334
sg56
S'.182'
p335
sg58
S'54'
p336
sg60
g18
sba(isrc.gp1.models.Per36Minutes
Per36Minutes
p337
(dp338
g8
S'1.5'
p339
sg10
S'3.0'
p340
sg12
S'.182'
p341
sg14
S'1.5'
p342
sg15
S'.000'
p343
sg17
S'0.0'
p344
sg19
S'10.5'
p345
sg21
S'SF'
p346
sg23
S'.750'
p347
sg27
S'NBA'
p348
sg29
S'0.0'
p349
sg30
S'16.5'
p350
sg32
S'3.0'
p351
sg33
S'6.0'
p352
sg35
S'7.5'
p353
sg37
S'24'
p354
sg39
S'BOS'
p355
sg41
g51
sg43
S'0.0'
p356
sg44
S'3.0'
p357
sg46
S'4.5'
p358
sg48
S'13.5'
p359
sg50
S'6.0'
p360
sg52
S'2012-13'
p361
sg54
S'3.0'
p362
sg55
S'3.0'
p363
sg56
S'.222'
p364
sg58
S'24'
p365
sg60
g18
sba(isrc.gp1.models.Per36Minutes
Per36Minutes
p366
(dp367
g8
S'0.0'
p368
sg10
S'1.2'
p369
sg12
S'.000'
p370
sg14
S'0.0'
p371
sg15
S'.000'
p372
sg17
S'0.0'
p373
sg19
S'2.4'
p374
sg21
S'SF'
p375
sg23
S'.500'
p376
sg27
S'NBA'
p377
sg29
S'3.6'
p378
sg30
S'3.6'
p379
sg32
S'1.2'
p380
sg33
S'4.8'
p381
sg35
S'2.4'
p382
sg37
S'24'
p383
sg39
S'BRK'
p384
sg41
g70
sg43
S'0.0'
p385
sg44
S'0.0'
p386
sg46
S'2.4'
p387
sg48
S'2.4'
p388
sg50
S'2.4'
p389
sg52
S'2012-13'
p390
sg54
S'0.0'
p391
sg55
S'0.0'
p392
sg56
S'.000'
p393
sg58
S'30'
p394
sg60
g18
sbasS'_fromYear'
p395
S'2013'
p396
sS'_url'
p397
S'http://www.basketball-reference.com/players/j/josepkr01.html'
p398
sS'_perGame'
p399
(isrc.gp1.models.PerGame
PerGame
p400
(dp401
g8
S'0.0'
p402
sg10
S'0.3'
p403
sg12
S'.000'
p404
sS'_effectiveFieldGalPercentage'
p405
S'.000'
p406
sg14
S'0.0'
p407
sg15
S'.000'
p408
sg17
S'0.0'
p409
sg19
S'0.5'
p410
sg21
S'SF'
p411
sg23
S'.500'
p412
sg27
S'NBA'
p413
sg29
S'0.8'
p414
sg32
S'0.3'
p415
sS'_fieldGoalsttempted'
p416
S'0.8'
p417
sg33
S'1.0'
p418
sg35
S'0.5'
p419
sg37
S'24'
p420
sg39
S'BRK'
p421
sg41
g70
sg43
S'0.0'
p422
sg44
S'0.0'
p423
sg46
S'0.5'
p424
sg48
S'0.5'
p425
sg50
S'0.5'
p426
sg52
S'2012-13'
p427
sg54
S'0.0'
p428
sg55
S'0.0'
p429
sg56
S'.000'
p430
sg58
S'7.5'
p431
sg60
g18
sbsS'_weight'
p432
S'210'
p433
sS'_dob'
p434
S'17-12-1988'
p435
sS'_salary'
p436
(lp437
(isrc.gp1.models.Salary
Salary
p438
(dp439
g39
S'Boston Celtics'
p440
sg27
S'NBA'
p441
sg436
S'$189,442'
p442
sg52
S'2012-13'
p443
sbasg21
S'F'
p444
sb.