(isrc.gp1.models.Player
Player
p0
(dp1
S'_experience'
p2
V6
p3
sS'_totals'
p4
(lp5
(isrc.gp1.models.Totals
Totals
p6
(dp7
S'_offensiveRebounds'
p8
S'56'
p9
sS'_threePointsAttempted'
p10
S'159'
p11
sS'_fieldGoalsPercentage'
p12
S'.442'
p13
sS'_assist'
p14
S'280'
p15
sS'_threePointsPercentage'
p16
S'.390'
p17
sS'_threePoints'
p18
S'62'
p19
sS'_points'
p20
S'587'
p21
sS'_position'
p22
S'PG'
p23
sS'_freeThrowsPercentage'
p24
S'.756'
p25
sS'_effectiveFieldGoalPercentage'
p26
S'.502'
p27
sS'_league'
p28
S'NBA'
p29
sS'_steals'
p30
S'79'
p31
sS'_fieldGoalsAttempted'
p32
S'520'
p33
sS'_personalFouls'
p34
S'153'
p35
sS'_freeThrowsAttempted'
p36
S'86'
p37
sS'_totalRebounds'
p38
S'191'
p39
sS'_age'
p40
S'19'
p41
sS'_team'
p42
S'PHI'
p43
sS'_games'
p44
S'73'
p45
sS'_blocks'
p46
S'18'
p47
sS'_twoPoints'
p48
S'168'
p49
sS'_freeThrows'
p50
S'65'
p51
sS'_twoPointsAttempted'
p52
S'361'
p53
sS'_defensiveRebounds'
p54
S'135'
p55
sS'_season'
p56
S'2009-10'
p57
sS'_fieldGoals'
p58
S'230'
p59
sS'_turnOvers'
p60
S'156'
p61
sS'_twoPointsPercentage'
p62
S'.465'
p63
sS'_minutesPlayed'
p64
S'1767'
p65
sS'_gamesStarted'
p66
S'51'
p67
sba(isrc.gp1.models.Totals
Totals
p68
(dp69
g8
S'68'
p70
sg10
S'222'
p71
sg12
S'.446'
p72
sg14
S'531'
p73
sg16
S'.365'
p74
sg18
S'81'
p75
sg20
S'1145'
p76
sg22
S'PG'
p77
sg24
S'.823'
p78
sg26
S'.487'
p79
sg28
S'NBA'
p80
sg30
S'120'
p81
sg32
S'999'
p82
sg34
S'203'
p83
sg36
S'209'
p84
sg38
S'332'
p85
sg40
S'20'
p86
sg42
S'PHI'
p87
sg44
S'82'
p88
sg46
S'29'
p89
sg48
S'365'
p90
sg50
S'172'
p91
sg52
S'777'
p92
sg54
S'264'
p93
sg56
S'2010-11'
p94
sg58
S'446'
p95
sg60
S'218'
p96
sg62
S'.470'
p97
sg64
S'2901'
p98
sg66
S'82'
p99
sba(isrc.gp1.models.Totals
Totals
p100
(dp101
g8
S'57'
p102
sg10
S'171'
p103
sg12
S'.432'
p104
sg14
S'290'
p105
sg16
S'.380'
p106
sg18
S'65'
p107
sg20
S'879'
p108
sg22
S'PG'
p109
sg24
S'.783'
p110
sg26
S'.471'
p111
sg28
S'NBA'
p112
sg30
S'103'
p113
sg32
S'834'
p114
sg34
S'137'
p115
sg36
S'120'
p116
sg38
S'212'
p117
sg40
S'21'
p118
sg42
S'PHI'
p119
sg44
S'65'
p120
sg46
S'18'
p121
sg48
S'295'
p122
sg50
S'94'
p123
sg52
S'663'
p124
sg54
S'155'
p125
sg56
S'2011-12'
p126
sg58
S'360'
p127
sg60
S'135'
p128
sg62
S'.445'
p129
sg64
S'2196'
p130
sg66
S'65'
p131
sba(isrc.gp1.models.Totals
Totals
p132
(dp133
g8
S'240'
p134
sg10
S'.368'
p135
sg12
S'91'
p136
sg14
S'123'
p137
sg16
S'464'
p138
sg18
S'247'
p139
sg20
S'NA'
p140
sg22
S'78'
p141
sg24
S'89'
p142
sg26
S'182'
p143
sg28
S'PG'
p144
sg30
S'32'
p145
sg32
S'.431'
p146
sg34
S'1383'
p147
sg36
S'.752'
p148
sg38
S'625'
p149
sg40
S'PHI'
p150
sg42
S'NBA'
p151
sg44
S'78'
p152
sg46
S'292'
p153
sg48
S'1041'
p154
sg50
S'242'
p155
sg52
S'.446'
p156
sg54
S'329'
p157
sg56
S'22'
p158
sg58
S'1288'
p159
sg60
S'170'
p160
sg62
S'.466'
p161
sg64
S'555'
p162
sg66
S'2926'
p163
sba(isrc.gp1.models.Totals
Totals
p164
(dp165
g8
S'28'
p166
sg10
S'77'
p167
sg12
S'.447'
p168
sg14
S'268'
p169
sg16
S'.390'
p170
sg18
S'30'
p171
sg20
S'487'
p172
sg22
S'PG'
p173
sg24
S'.810'
p174
sg26
S'.480'
p175
sg28
S'NBA'
p176
sg30
S'56'
p177
sg32
S'454'
p178
sg34
S'92'
p179
sg36
S'63'
p180
sg38
S'142'
p181
sg40
S'23'
p182
sg42
S'NOP'
p183
sg44
S'34'
p184
sg46
S'12'
p185
sg48
S'173'
p186
sg50
S'51'
p187
sg52
S'377'
p188
sg54
S'114'
p189
sg56
S'2013-14'
p190
sg58
S'203'
p191
sg60
S'105'
p192
sg62
S'.459'
p193
sg64
S'1143'
p194
sg66
S'34'
p195
sba(isrc.gp1.models.Totals
Totals
p196
(dp197
g8
S'32'
p198
sg10
S'135'
p199
sg12
S'.446'
p200
sg14
S'274'
p201
sg16
S'.378'
p202
sg18
S'51'
p203
sg20
S'592'
p204
sg22
S'PG'
p205
sg24
S'.855'
p206
sg26
S'.493'
p207
sg28
S'NBA'
p208
sg30
S'63'
p209
sg32
S'534'
p210
sg34
S'110'
p211
sg36
S'76'
p212
sg38
S'135'
p213
sg40
S'24'
p214
sg42
S'NOP'
p215
sg44
S'40'
p216
sg46
S'23'
p217
sg48
S'187'
p218
sg50
S'65'
p219
sg52
S'399'
p220
sg54
S'103'
p221
sg56
S'2014-15'
p222
sg58
S'238'
p223
sg60
S'91'
p224
sg62
S'.469'
p225
sg64
S'1303'
p226
sg66
S'37'
p227
sba(isrc.gp1.models.Totals
Totals
p228
(dp229
g8
S'17'
p230
sg10
S'146'
p231
sg12
S'.436'
p232
sg14
S'231'
p233
sg16
S'.349'
p234
sg18
S'51'
p235
sg20
S'624'
p236
sg22
S'PG'
p237
sg24
S'.802'
p238
sg26
S'.483'
p239
sg28
S'NBA'
p240
sg30
S'46'
p241
sg32
S'537'
p242
sg34
S'98'
p243
sg36
S'131'
p244
sg38
S'114'
p245
sg40
S'25'
p246
sg42
S'NOP'
p247
sg44
S'43'
p248
sg46
S'16'
p249
sg48
S'183'
p250
sg50
S'105'
p251
sg52
S'391'
p252
sg54
S'97'
p253
sg56
S'2015-16'
p254
sg58
S'234'
p255
sg60
S'92'
p256
sg62
S'.468'
p257
sg64
S'1110'
p258
sg66
S'14'
p259
sbasS'_college'
p260
S'University of California, Los Angeles'
p261
sS'_toYear'
p262
S'2016'
p263
sS'_height'
p264
S'6-4'
p265
sS'_active'
p266
I01
sS'_shootingHand'
p267
VRight
p268
sS'_name'
p269
S'Jrue Holiday'
p270
sS'_per100Possessions'
p271
(lp272
(isrc.gp1.models.Per100Possession
Per100Possession
p273
(dp274
g8
S'1.7'
p275
sg10
S'4.7'
p276
sg12
S'.442'
p277
sS'_offensiveRating'
p278
S'100'
p279
sg14
S'8.3'
p280
sg16
S'.390'
p281
sg18
S'1.8'
p282
sg20
S'17.4'
p283
sg22
S'PG'
p284
sS'_defensiveRating'
p285
S'111'
p286
sg24
S'.756'
p287
sg28
S'NBA'
p288
sg30
S'2.3'
p289
sg32
S'15.4'
p290
sg34
S'4.5'
p291
sg36
S'2.6'
p292
sg38
S'5.7'
p293
sg40
S'19'
p294
sg42
S'PHI'
p295
sg44
S'73'
p296
sg46
S'0.5'
p297
sg48
S'5.0'
p298
sg50
S'1.9'
p299
sg52
S'10.7'
p300
sg54
S'4.0'
p301
sg56
S'2009-10'
p302
sg58
S'6.8'
p303
sg60
S'4.6'
p304
sg62
S'.465'
p305
sg64
S'1767'
p306
sg66
S'51'
p307
sba(isrc.gp1.models.Per100Possession
Per100Possession
p308
(dp309
g8
S'1.2'
p310
sg10
S'4.0'
p311
sg12
S'.446'
p312
sg278
S'104'
p313
sg14
S'9.6'
p314
sg16
S'.365'
p315
sg18
S'1.5'
p316
sg20
S'20.7'
p317
sg22
S'PG'
p318
sg285
S'106'
p319
sg24
S'.823'
p320
sg28
S'NBA'
p321
sg30
S'2.2'
p322
sg32
S'18.0'
p323
sg34
S'3.7'
p324
sg36
S'3.8'
p325
sg38
S'6.0'
p326
sg40
S'20'
p327
sg42
S'PHI'
p328
sg44
S'82'
p329
sg46
S'0.5'
p330
sg48
S'6.6'
p331
sg50
S'3.1'
p332
sg52
S'14.0'
p333
sg54
S'4.8'
p334
sg56
S'2010-11'
p335
sg58
S'8.0'
p336
sg60
S'3.9'
p337
sg62
S'.470'
p338
sg64
S'2901'
p339
sg66
S'82'
p340
sba(isrc.gp1.models.Per100Possession
Per100Possession
p341
(dp342
g8
S'1.4'
p343
sg10
S'4.2'
p344
sg12
S'.432'
p345
sg278
S'99'
p346
sg14
S'7.1'
p347
sg16
S'.380'
p348
sg18
S'1.6'
p349
sg20
S'21.4'
p350
sg22
S'PG'
p351
sg285
S'101'
p352
sg24
S'.783'
p353
sg28
S'NBA'
p354
sg30
S'2.5'
p355
sg32
S'20.3'
p356
sg34
S'3.3'
p357
sg36
S'2.9'
p358
sg38
S'5.2'
p359
sg40
S'21'
p360
sg42
S'PHI'
p361
sg44
S'65'
p362
sg46
S'0.4'
p363
sg48
S'7.2'
p364
sg50
S'2.3'
p365
sg52
S'16.2'
p366
sg54
S'3.8'
p367
sg56
S'2011-12'
p368
sg58
S'8.8'
p369
sg60
S'3.3'
p370
sg62
S'.445'
p371
sg64
S'2196'
p372
sg66
S'65'
p373
sba(isrc.gp1.models.Per100Possession
Per100Possession
p374
(dp375
g8
S'4.3'
p376
sg10
S'.368'
p377
sg12
S'1.6'
p378
sg278
S'107'
p379
sg14
S'2.2'
p380
sg16
S'8.4'
p381
sg18
S'4.5'
p382
sg20
S'99'
p383
sg22
S'78'
p384
sg285
g140
sg24
S'1.6'
p385
sg28
S'PG'
p386
sg30
S'0.6'
p387
sg32
S'.431'
p388
sg34
S'24.9'
p389
sg36
S'.752'
p390
sg38
S'11.3'
p391
sg40
S'PHI'
p392
sg42
S'NBA'
p393
sg44
S'78'
p394
sg46
S'5.3'
p395
sg48
S'18.8'
p396
sg50
S'4.4'
p397
sg52
S'.446'
p398
sg54
S'5.9'
p399
sg56
S'22'
p400
sg58
S'23.2'
p401
sg60
S'3.1'
p402
sg62
S'3.3'
p403
sg64
S'10.0'
p404
sg66
S'2926'
p405
sba(isrc.gp1.models.Per100Possession
Per100Possession
p406
(dp407
g8
S'1.3'
p408
sg10
S'3.5'
p409
sg12
S'.447'
p410
sg278
S'103'
p411
sg14
S'12.2'
p412
sg16
S'.390'
p413
sg18
S'1.4'
p414
sg20
S'22.2'
p415
sg22
S'PG'
p416
sg285
S'110'
p417
sg24
S'.810'
p418
sg28
S'NBA'
p419
sg30
S'2.6'
p420
sg32
S'20.7'
p421
sg34
S'4.2'
p422
sg36
S'2.9'
p423
sg38
S'6.5'
p424
sg40
S'23'
p425
sg42
S'NOP'
p426
sg44
S'34'
p427
sg46
S'0.5'
p428
sg48
S'7.9'
p429
sg50
S'2.3'
p430
sg52
S'17.2'
p431
sg54
S'5.2'
p432
sg56
S'2013-14'
p433
sg58
S'9.2'
p434
sg60
S'4.8'
p435
sg62
S'.459'
p436
sg64
S'1143'
p437
sg66
S'34'
p438
sba(isrc.gp1.models.Per100Possession
Per100Possession
p439
(dp440
g8
S'1.3'
p441
sg10
S'5.4'
p442
sg12
S'.446'
p443
sg278
S'109'
p444
sg14
S'11.0'
p445
sg16
S'.378'
p446
sg18
S'2.1'
p447
sg20
S'23.9'
p448
sg22
S'PG'
p449
sg285
S'107'
p450
sg24
S'.855'
p451
sg28
S'NBA'
p452
sg30
S'2.5'
p453
sg32
S'21.5'
p454
sg34
S'4.4'
p455
sg36
S'3.1'
p456
sg38
S'5.4'
p457
sg40
S'24'
p458
sg42
S'NOP'
p459
sg44
S'40'
p460
sg46
S'0.9'
p461
sg48
S'7.5'
p462
sg50
S'2.6'
p463
sg52
S'16.1'
p464
sg54
S'4.2'
p465
sg56
S'2014-15'
p466
sg58
S'9.6'
p467
sg60
S'3.7'
p468
sg62
S'.469'
p469
sg64
S'1303'
p470
sg66
S'37'
p471
sba(isrc.gp1.models.Per100Possession
Per100Possession
p472
(dp473
g8
S'0.8'
p474
sg10
S'6.6'
p475
sg12
S'.436'
p476
sg278
S'105'
p477
sg14
S'10.4'
p478
sg16
S'.349'
p479
sg18
S'2.3'
p480
sg20
S'28.1'
p481
sg22
S'PG'
p482
sg285
S'110'
p483
sg24
S'.802'
p484
sg28
S'NBA'
p485
sg30
S'2.1'
p486
sg32
S'24.2'
p487
sg34
S'4.4'
p488
sg36
S'5.9'
p489
sg38
S'5.1'
p490
sg40
S'25'
p491
sg42
S'NOP'
p492
sg44
S'43'
p493
sg46
S'0.7'
p494
sg48
S'8.2'
p495
sg50
S'4.7'
p496
sg52
S'17.6'
p497
sg54
S'4.4'
p498
sg56
S'2015-16'
p499
sg58
S'10.5'
p500
sg60
S'4.1'
p501
sg62
S'.468'
p502
sg64
S'1110'
p503
sg66
S'14'
p504
sbasS'_advanced'
p505
(lp506
(isrc.gp1.models.Advanced
Advanced
p507
(dp508
S'_offensiveReboundPercentage'
p509
S'3.7'
p510
sS'_turnOverPercentage'
p511
S'21.9'
p512
sS'_winSharesPer48Minutes'
p513
S'.032'
p514
sS'_stealPercentage'
p515
S'2.3'
p516
sS'_usagePercentage'
p517
S'18.4'
p518
sS'_totalReboundsPercentage'
p519
S'6.4'
p520
sS'_defensiveBoxPlusMinus'
p521
S'-1.0'
p522
sg22
S'PG'
p523
sS'_valueOverReplacementPlayer'
p524
S'0.1'
p525
sS'_trueShootingPercentage'
p526
S'.526'
p527
sS'_defensiveReboundPercentage'
p528
S'9.1'
p529
sS'_freeThrowsAttempRate'
p530
S'.165'
p531
sS'_threePointsAttempRate'
p532
S'.306'
p533
sg28
S'NBA'
p534
sS'_offensiveBoxPlusMinues'
p535
S'-0.8'
p536
sS'_assistPercentage'
p537
S'24.4'
p538
sS'_defensiveWinShares'
p539
S'1.0'
p540
sg40
S'19'
p541
sg42
S'PHI'
p542
sg44
S'73'
p543
sS'_blockPercentage'
p544
S'0.8'
p545
sS'_playerEfficiencyRating'
p546
S'12.3'
p547
sS'_offensiveWinShares'
p548
S'0.2'
p549
sg64
S'1767'
p550
sS'_boxPlusMinus'
p551
S'-1.8'
p552
sg56
S'2009-10'
p553
sS'_winShares'
p554
S'1.2'
p555
sba(isrc.gp1.models.Advanced
Advanced
p556
(dp557
g509
S'2.7'
p558
sg511
S'16.7'
p559
sg513
S'.094'
p560
sg515
S'2.2'
p561
sg517
S'20.8'
p562
sg519
S'6.6'
p563
sg521
S'0.6'
p564
sg22
S'PG'
p565
sg524
S'2.5'
p566
sg526
S'.525'
p567
sg528
S'10.5'
p568
sg530
S'.209'
p569
sg532
S'.222'
p570
sg28
S'NBA'
p571
sg535
S'0.8'
p572
sg537
S'29.0'
p573
sg539
S'3.5'
p574
sg40
S'20'
p575
sg42
S'PHI'
p576
sg44
S'82'
p577
sg544
S'0.8'
p578
sg546
S'15.4'
p579
sg548
S'2.2'
p580
sg64
S'2901'
p581
sg551
S'1.4'
p582
sg56
S'2010-11'
p583
sg554
S'5.7'
p584
sba(isrc.gp1.models.Advanced
Advanced
p585
(dp586
g509
S'2.9'
p587
sg511
S'13.2'
p588
sg513
S'.092'
p589
sg515
S'2.5'
p590
sg517
S'21.8'
p591
sg519
S'5.4'
p592
sg521
S'0.6'
p593
sg22
S'PG'
p594
sg524
S'1.6'
p595
sg526
S'.496'
p596
sg528
S'7.9'
p597
sg530
S'.144'
p598
sg532
S'.205'
p599
sg28
S'NBA'
p600
sg535
S'0.2'
p601
sg537
S'21.6'
p602
sg539
S'3.3'
p603
sg40
S'21'
p604
sg42
S'PHI'
p605
sg44
S'65'
p606
sg544
S'0.6'
p607
sg546
S'14.7'
p608
sg548
S'0.9'
p609
sg64
S'2196'
p610
sg551
S'0.9'
p611
sg56
S'2011-12'
p612
sg554
S'4.2'
p613
sba(isrc.gp1.models.Advanced
Advanced
p614
(dp615
g509
S'9.5'
p616
sg511
S'26.6'
p617
sg513
S'1.0'
p618
sg515
S'0.9'
p619
sg517
S'0.6'
p620
sg519
S'36.5'
p621
sg521
S'0.6'
p622
sg22
S'78'
p623
sg524
g140
sg526
S'.192'
p624
sg528
S'6.4'
p625
sg530
S'3.3'
p626
sg532
S'.188'
p627
sg28
S'PG'
p628
sg535
S'-0.4'
p629
sg537
S'2.2'
p630
sg539
S'3.3'
p631
sg40
S'PHI'
p632
sg42
S'NBA'
p633
sg44
S'2926'
p634
sg544
S'17.3'
p635
sg546
S'.496'
p636
sg548
S'2.7'
p637
sg64
S'16.7'
p638
sg551
S'1.9'
p639
sg56
S'22'
p640
sg554
S'.055'
p641
sba(isrc.gp1.models.Advanced
Advanced
p642
(dp643
g509
S'2.8'
p644
sg511
S'17.9'
p645
sg513
S'.064'
p646
sg515
S'2.6'
p647
sg517
S'23.3'
p648
sg519
S'7.2'
p649
sg521
S'-0.8'
p650
sg22
S'PG'
p651
sg524
S'0.8'
p652
sg526
S'.505'
p653
sg528
S'11.8'
p654
sg530
S'.139'
p655
sg532
S'.170'
p656
sg28
S'NBA'
p657
sg535
S'1.5'
p658
sg537
S'38.9'
p659
sg539
S'0.7'
p660
sg40
S'23'
p661
sg42
S'NOP'
p662
sg44
S'34'
p663
sg544
S'0.9'
p664
sg546
S'17.1'
p665
sg548
S'0.8'
p666
sg64
S'1143'
p667
sg551
S'0.7'
p668
sg56
S'2013-14'
p669
sg554
S'1.5'
p670
sba(isrc.gp1.models.Advanced
Advanced
p671
(dp672
g509
S'2.8'
p673
sg511
S'13.8'
p674
sg513
S'.124'
p675
sg515
S'2.5'
p676
sg517
S'23.1'
p677
sg519
S'5.9'
p678
sg521
S'-0.7'
p679
sg22
S'PG'
p680
sg524
S'1.4'
p681
sg526
S'.522'
p682
sg528
S'9.0'
p683
sg530
S'.142'
p684
sg532
S'.253'
p685
sg28
S'NBA'
p686
sg535
S'3.0'
p687
sg537
S'34.9'
p688
sg539
S'1.1'
p689
sg40
S'24'
p690
sg42
S'NOP'
p691
sg44
S'40'
p692
sg544
S'1.3'
p693
sg546
S'18.8'
p694
sg548
S'2.3'
p695
sg64
S'1303'
p696
sg551
S'2.3'
p697
sg56
S'2014-15'
p698
sg554
S'3.4'
p699
sba(isrc.gp1.models.Advanced
Advanced
p700
(dp701
g509
S'1.7'
p702
sg511
S'13.4'
p703
sg513
S'.093'
p704
sg515
S'2.1'
p705
sg517
S'27.5'
p706
sg519
S'5.7'
p707
sg521
S'-1.7'
p708
sg22
S'PG'
p709
sg524
S'0.8'
p710
sg526
S'.525'
p711
sg528
S'9.9'
p712
sg530
S'.244'
p713
sg532
S'.272'
p714
sg28
S'NBA'
p715
sg535
S'2.7'
p716
sg537
S'35.7'
p717
sg539
S'0.6'
p718
sg40
S'25'
p719
sg42
S'NOP'
p720
sg44
S'43'
p721
sg544
S'1.2'
p722
sg546
S'19.1'
p723
sg548
S'1.6'
p724
sg64
S'1110'
p725
sg551
S'1.0'
p726
sg56
S'2015-16'
p727
sg554
S'2.2'
p728
sbasS'_per36Minutes'
p729
(lp730
(isrc.gp1.models.Per36Minutes
Per36Minutes
p731
(dp732
g8
S'1.1'
p733
sg10
S'3.2'
p734
sg12
S'.442'
p735
sg14
S'5.7'
p736
sg16
S'.390'
p737
sg18
S'1.3'
p738
sg20
S'12.0'
p739
sg22
S'PG'
p740
sg24
S'.756'
p741
sg28
S'NBA'
p742
sg30
S'1.6'
p743
sg32
S'10.6'
p744
sg34
S'3.1'
p745
sg36
S'1.8'
p746
sg38
S'3.9'
p747
sg40
S'19'
p748
sg42
S'PHI'
p749
sg44
S'73'
p750
sg46
S'0.4'
p751
sg48
S'3.4'
p752
sg50
S'1.3'
p753
sg52
S'7.4'
p754
sg54
S'2.8'
p755
sg56
S'2009-10'
p756
sg58
S'4.7'
p757
sg60
S'3.2'
p758
sg62
S'.465'
p759
sg64
S'1767'
p760
sg66
S'51'
p761
sba(isrc.gp1.models.Per36Minutes
Per36Minutes
p762
(dp763
g8
S'0.8'
p764
sg10
S'2.8'
p765
sg12
S'.446'
p766
sg14
S'6.6'
p767
sg16
S'.365'
p768
sg18
S'1.0'
p769
sg20
S'14.2'
p770
sg22
S'PG'
p771
sg24
S'.823'
p772
sg28
S'NBA'
p773
sg30
S'1.5'
p774
sg32
S'12.4'
p775
sg34
S'2.5'
p776
sg36
S'2.6'
p777
sg38
S'4.1'
p778
sg40
S'20'
p779
sg42
S'PHI'
p780
sg44
S'82'
p781
sg46
S'0.4'
p782
sg48
S'4.5'
p783
sg50
S'2.1'
p784
sg52
S'9.6'
p785
sg54
S'3.3'
p786
sg56
S'2010-11'
p787
sg58
S'5.5'
p788
sg60
S'2.7'
p789
sg62
S'.470'
p790
sg64
S'2901'
p791
sg66
S'82'
p792
sba(isrc.gp1.models.Per36Minutes
Per36Minutes
p793
(dp794
g8
S'0.9'
p795
sg10
S'2.8'
p796
sg12
S'.432'
p797
sg14
S'4.8'
p798
sg16
S'.380'
p799
sg18
S'1.1'
p800
sg20
S'14.4'
p801
sg22
S'PG'
p802
sg24
S'.783'
p803
sg28
S'NBA'
p804
sg30
S'1.7'
p805
sg32
S'13.7'
p806
sg34
S'2.2'
p807
sg36
S'2.0'
p808
sg38
S'3.5'
p809
sg40
S'21'
p810
sg42
S'PHI'
p811
sg44
S'65'
p812
sg46
S'0.3'
p813
sg48
S'4.8'
p814
sg50
S'1.5'
p815
sg52
S'10.9'
p816
sg54
S'2.5'
p817
sg56
S'2011-12'
p818
sg58
S'5.9'
p819
sg60
S'2.2'
p820
sg62
S'.445'
p821
sg64
S'2196'
p822
sg66
S'65'
p823
sba(isrc.gp1.models.Per36Minutes
Per36Minutes
p824
(dp825
g8
S'3.0'
p826
sg10
S'.368'
p827
sg12
S'1.1'
p828
sg14
S'1.5'
p829
sg16
S'5.7'
p830
sg18
S'3.0'
p831
sg20
g140
sg22
S'78'
p832
sg24
S'1.1'
p833
sg28
S'PG'
p834
sg30
S'0.4'
p835
sg32
S'.431'
p836
sg34
S'17.0'
p837
sg36
S'.752'
p838
sg38
S'7.7'
p839
sg40
S'PHI'
p840
sg42
S'NBA'
p841
sg44
S'78'
p842
sg46
S'3.6'
p843
sg48
S'12.8'
p844
sg50
S'3.0'
p845
sg52
S'.446'
p846
sg54
S'4.0'
p847
sg56
S'22'
p848
sg58
S'15.8'
p849
sg60
S'2.1'
p850
sg62
S'2.2'
p851
sg64
S'6.8'
p852
sg66
S'2926'
p853
sba(isrc.gp1.models.Per36Minutes
Per36Minutes
p854
(dp855
g8
S'0.9'
p856
sg10
S'2.4'
p857
sg12
S'.447'
p858
sg14
S'8.4'
p859
sg16
S'.390'
p860
sg18
S'0.9'
p861
sg20
S'15.3'
p862
sg22
S'PG'
p863
sg24
S'.810'
p864
sg28
S'NBA'
p865
sg30
S'1.8'
p866
sg32
S'14.3'
p867
sg34
S'2.9'
p868
sg36
S'2.0'
p869
sg38
S'4.5'
p870
sg40
S'23'
p871
sg42
S'NOP'
p872
sg44
S'34'
p873
sg46
S'0.4'
p874
sg48
S'5.4'
p875
sg50
S'1.6'
p876
sg52
S'11.9'
p877
sg54
S'3.6'
p878
sg56
S'2013-14'
p879
sg58
S'6.4'
p880
sg60
S'3.3'
p881
sg62
S'.459'
p882
sg64
S'1143'
p883
sg66
S'34'
p884
sba(isrc.gp1.models.Per36Minutes
Per36Minutes
p885
(dp886
g8
S'0.9'
p887
sg10
S'3.7'
p888
sg12
S'.446'
p889
sg14
S'7.6'
p890
sg16
S'.378'
p891
sg18
S'1.4'
p892
sg20
S'16.4'
p893
sg22
S'PG'
p894
sg24
S'.855'
p895
sg28
S'NBA'
p896
sg30
S'1.7'
p897
sg32
S'14.8'
p898
sg34
S'3.0'
p899
sg36
S'2.1'
p900
sg38
S'3.7'
p901
sg40
S'24'
p902
sg42
S'NOP'
p903
sg44
S'40'
p904
sg46
S'0.6'
p905
sg48
S'5.2'
p906
sg50
S'1.8'
p907
sg52
S'11.0'
p908
sg54
S'2.8'
p909
sg56
S'2014-15'
p910
sg58
S'6.6'
p911
sg60
S'2.5'
p912
sg62
S'.469'
p913
sg64
S'1303'
p914
sg66
S'37'
p915
sba(isrc.gp1.models.Per36Minutes
Per36Minutes
p916
(dp917
g8
S'0.6'
p918
sg10
S'4.7'
p919
sg12
S'.436'
p920
sg14
S'7.5'
p921
sg16
S'.349'
p922
sg18
S'1.7'
p923
sg20
S'20.2'
p924
sg22
S'PG'
p925
sg24
S'.802'
p926
sg28
S'NBA'
p927
sg30
S'1.5'
p928
sg32
S'17.4'
p929
sg34
S'3.2'
p930
sg36
S'4.2'
p931
sg38
S'3.7'
p932
sg40
S'25'
p933
sg42
S'NOP'
p934
sg44
S'43'
p935
sg46
S'0.5'
p936
sg48
S'5.9'
p937
sg50
S'3.4'
p938
sg52
S'12.7'
p939
sg54
S'3.1'
p940
sg56
S'2015-16'
p941
sg58
S'7.6'
p942
sg60
S'3.0'
p943
sg62
S'.468'
p944
sg64
S'1110'
p945
sg66
S'14'
p946
sbasS'_fromYear'
p947
S'2010'
p948
sS'_url'
p949
S'http://www.basketball-reference.com/players/h/holidjr01.html'
p950
sS'_perGame'
p951
(isrc.gp1.models.PerGame
PerGame
p952
(dp953
g8
S'0.4'
p954
sg10
S'3.4'
p955
sg12
S'.436'
p956
sS'_effectiveFieldGalPercentage'
p957
S'.483'
p958
sg14
S'5.4'
p959
sg16
S'.349'
p960
sg18
S'1.2'
p961
sg20
S'14.5'
p962
sg22
S'PG'
p963
sg24
S'.802'
p964
sg28
S'NBA'
p965
sg30
S'1.1'
p966
sg34
S'2.3'
p967
sS'_fieldGoalsttempted'
p968
S'12.5'
p969
sg36
S'3.0'
p970
sg38
S'2.7'
p971
sg40
S'25'
p972
sg42
S'NOP'
p973
sg44
S'43'
p974
sg46
S'0.4'
p975
sg48
S'4.3'
p976
sg50
S'2.4'
p977
sg52
S'9.1'
p978
sg54
S'2.3'
p979
sg56
S'2015-16'
p980
sg58
S'5.4'
p981
sg60
S'2.1'
p982
sg62
S'.468'
p983
sg64
S'25.8'
p984
sg66
S'14'
p985
sbsS'_weight'
p986
S'205'
p987
sS'_dob'
p988
S'12-6-1990'
p989
sS'_salary'
p990
(lp991
(isrc.gp1.models.Salary
Salary
p992
(dp993
g42
S'Philadelphia 76ers'
p994
sg28
S'NBA'
p995
sg990
S'$1,514,280'
p996
sg56
S'2009-10'
p997
sba(isrc.gp1.models.Salary
Salary
p998
(dp999
g42
S'Philadelphia 76ers'
p1000
sg28
S'NBA'
p1001
sg990
S'$1,627,920'
p1002
sg56
S'2010-11'
p1003
sba(isrc.gp1.models.Salary
Salary
p1004
(dp1005
g42
S'Philadelphia 76ers'
p1006
sg28
S'NBA'
p1007
sg990
S'$1,741,440'
p1008
sg56
S'2011-12'
p1009
sba(isrc.gp1.models.Salary
Salary
p1010
(dp1011
g42
S'Philadelphia 76ers'
p1012
sg28
S'NBA'
p1013
sg990
S'$2,674,852'
p1014
sg56
S'2012-13'
p1015
sba(isrc.gp1.models.Salary
Salary
p1016
(dp1017
g42
S'New Orleans Pelicans'
p1018
sg28
S'NBA'
p1019
sg990
S'$9,213,484'
p1020
sg56
S'2013-14'
p1021
sba(isrc.gp1.models.Salary
Salary
p1022
(dp1023
g42
S'New Orleans Pelicans'
p1024
sg28
S'NBA'
p1025
sg990
S'$9,904,495'
p1026
sg56
S'2014-15'
p1027
sbasg22
S'G'
p1028
sb.