(isrc.gp1.models.Player
Player
p0
(dp1
S'_experience'
p2
S'NA'
p3
sS'_totals'
p4
(lp5
(isrc.gp1.models.Totals
Totals
p6
(dp7
S'_offensiveRebounds'
p8
g3
sS'_threePointsAttempted'
p9
g3
sS'_fieldGoalsPercentage'
p10
S'.238'
p11
sS'_assist'
p12
S'28'
p13
sS'_threePointsPercentage'
p14
g3
sS'_threePoints'
p15
g3
sS'_points'
p16
S'384'
p17
sS'_position'
p18
g3
sS'_freeThrowsPercentage'
p19
S'.795'
p20
sS'_effectiveFieldGoalPercentage'
p21
S'.238'
p22
sS'_league'
p23
S'BAA'
p24
sS'_steals'
p25
g3
sS'_fieldGoalsAttempted'
p26
S'537'
p27
sS'_personalFouls'
p28
S'78'
p29
sS'_freeThrowsAttempted'
p30
S'161'
p31
sS'_totalRebounds'
p32
g3
sS'_age'
p33
S'27'
p34
sS'_team'
p35
S'TOT'
p36
sS'_games'
p37
S'59'
p38
sS'_blocks'
p39
g3
sS'_twoPoints'
p40
S'128'
p41
sS'_freeThrows'
p42
S'128'
p43
sS'_twoPointsAttempted'
p44
S'537'
p45
sS'_defensiveRebounds'
p46
g3
sS'_season'
p47
S'1946-47'
p48
sS'_fieldGoals'
p49
S'128'
p50
sS'_turnOvers'
p51
g3
sS'_twoPointsPercentage'
p52
S'.238'
p53
sS'_minutesPlayed'
p54
g3
sS'_gamesStarted'
p55
g3
sba(isrc.gp1.models.Totals
Totals
p56
(dp57
g8
g3
sg9
g3
sg10
S'.231'
p58
sg12
S'22'
p59
sg14
g3
sg15
g3
sg16
S'310'
p60
sg18
g3
sg19
S'.846'
p61
sg21
S'.231'
p62
sg23
S'BAA'
p63
sg25
g3
sg26
S'446'
p64
sg28
S'61'
p65
sg30
S'123'
p66
sg32
g3
sg33
S'27'
p67
sg35
S'PIT'
p68
sg37
S'41'
p69
sg39
g3
sg40
S'103'
p70
sg42
S'104'
p71
sg44
S'446'
p72
sg46
g3
sg47
S'1946-47'
p73
sg49
S'103'
p74
sg51
g3
sg52
S'.231'
p75
sg54
g3
sg55
g3
sba(isrc.gp1.models.Totals
Totals
p76
(dp77
g8
g3
sg9
g3
sg10
S'.275'
p78
sg12
S'6'
p79
sg14
g3
sg15
g3
sg16
S'74'
p80
sg18
g3
sg19
S'.632'
p81
sg21
S'.275'
p82
sg23
S'BAA'
p83
sg25
g3
sg26
S'91'
p84
sg28
S'17'
p85
sg30
S'38'
p86
sg32
g3
sg33
S'27'
p87
sg35
S'BOS'
p88
sg37
S'18'
p89
sg39
g3
sg40
S'25'
p90
sg42
S'24'
p91
sg44
S'91'
p92
sg46
g3
sg47
S'1946-47'
p93
sg49
S'25'
p94
sg51
g3
sg52
S'.275'
p95
sg54
g3
sg55
g3
sbasS'_college'
p96
S'NA'
p97
sS'_toYear'
p98
S'1947'
p99
sS'_height'
p100
S'5-10'
p101
sS'_active'
p102
I00
sS'_shootingHand'
p103
VRight
p104
sS'_name'
p105
S'Tony Kappen'
p106
sS'_per100Possessions'
p107
(lp108
sS'_advanced'
p109
(lp110
(isrc.gp1.models.Advanced
Advanced
p111
(dp112
S'_offensiveReboundPercentage'
p113
g3
sS'_turnOverPercentage'
p114
g3
sS'_winSharesPer48Minutes'
p115
g3
sS'_stealPercentage'
p116
g3
sS'_usagePercentage'
p117
g3
sS'_totalReboundsPercentage'
p118
g3
sS'_defensiveBoxPlusMinus'
p119
g3
sg18
g3
sS'_valueOverReplacementPlayer'
p120
g3
sS'_trueShootingPercentage'
p121
S'.316'
p122
sS'_defensiveReboundPercentage'
p123
g3
sS'_freeThrowsAttempRate'
p124
S'.300'
p125
sS'_threePointsAttempRate'
p126
g3
sg23
S'BAA'
p127
sS'_offensiveBoxPlusMinues'
p128
g3
sS'_assistPercentage'
p129
g3
sS'_defensiveWinShares'
p130
S'-0.2'
p131
sg33
S'27'
p132
sg35
S'TOT'
p133
sg37
S'59'
p134
sS'_blockPercentage'
p135
g3
sS'_playerEfficiencyRating'
p136
g3
sS'_offensiveWinShares'
p137
S'0.9'
p138
sg54
g3
sS'_boxPlusMinus'
p139
g3
sg47
S'1946-47'
p140
sS'_winShares'
p141
S'0.7'
p142
sba(isrc.gp1.models.Advanced
Advanced
p143
(dp144
g113
g3
sg114
g3
sg115
g3
sg116
g3
sg117
g3
sg118
g3
sg119
g3
sg18
g3
sg120
g3
sg121
S'.310'
p145
sg123
g3
sg124
S'.276'
p146
sg126
g3
sg23
S'BAA'
p147
sg128
g3
sg129
g3
sg130
S'-0.3'
p148
sg33
S'27'
p149
sg35
S'PIT'
p150
sg37
S'41'
p151
sg135
g3
sg136
g3
sg137
S'0.5'
p152
sg54
g3
sg139
g3
sg47
S'1946-47'
p153
sg141
S'0.2'
p154
sba(isrc.gp1.models.Advanced
Advanced
p155
(dp156
g113
g3
sg114
g3
sg115
g3
sg116
g3
sg117
g3
sg118
g3
sg119
g3
sg18
g3
sg120
g3
sg121
S'.343'
p157
sg123
g3
sg124
S'.418'
p158
sg126
g3
sg23
S'BAA'
p159
sg128
g3
sg129
g3
sg130
S'0.1'
p160
sg33
S'27'
p161
sg35
S'BOS'
p162
sg37
S'18'
p163
sg135
g3
sg136
g3
sg137
S'0.4'
p164
sg54
g3
sg139
g3
sg47
S'1946-47'
p165
sg141
S'0.5'
p166
sbasS'_per36Minutes'
p167
(lp168
(isrc.gp1.models.Per36Minutes
Per36Minutes
p169
(dp170
g8
g3
sg9
g3
sg10
S'.238'
p171
sg12
g3
sg14
g3
sg15
g3
sg16
g3
sg18
g3
sg19
S'.795'
p172
sg23
S'BAA'
p173
sg25
g3
sg26
g3
sg28
g3
sg30
g3
sg32
g3
sg33
S'27'
p174
sg35
S'TOT'
p175
sg37
S'59'
p176
sg39
g3
sg40
g3
sg42
g3
sg44
g3
sg46
g3
sg47
S'1946-47'
p177
sg49
g3
sg51
g3
sg52
S'.238'
p178
sg54
g3
sg55
g3
sba(isrc.gp1.models.Per36Minutes
Per36Minutes
p179
(dp180
g8
g3
sg9
g3
sg10
S'.231'
p181
sg12
g3
sg14
g3
sg15
g3
sg16
g3
sg18
g3
sg19
S'.846'
p182
sg23
S'BAA'
p183
sg25
g3
sg26
g3
sg28
g3
sg30
g3
sg32
g3
sg33
S'27'
p184
sg35
S'PIT'
p185
sg37
S'41'
p186
sg39
g3
sg40
g3
sg42
g3
sg44
g3
sg46
g3
sg47
S'1946-47'
p187
sg49
g3
sg51
g3
sg52
S'.231'
p188
sg54
g3
sg55
g3
sba(isrc.gp1.models.Per36Minutes
Per36Minutes
p189
(dp190
g8
g3
sg9
g3
sg10
S'.275'
p191
sg12
g3
sg14
g3
sg15
g3
sg16
g3
sg18
g3
sg19
S'.632'
p192
sg23
S'BAA'
p193
sg25
g3
sg26
g3
sg28
g3
sg30
g3
sg32
g3
sg33
S'27'
p194
sg35
S'BOS'
p195
sg37
S'18'
p196
sg39
g3
sg40
g3
sg42
g3
sg44
g3
sg46
g3
sg47
S'1946-47'
p197
sg49
g3
sg51
g3
sg52
S'.275'
p198
sg54
g3
sg55
g3
sbasS'_fromYear'
p199
S'1947'
p200
sS'_url'
p201
S'http://www.basketball-reference.com/players/k/kappeto01.html'
p202
sS'_perGame'
p203
(isrc.gp1.models.PerGame
PerGame
p204
(dp205
g8
g3
sg9
g3
sg10
S'.275'
p206
sS'_effectiveFieldGalPercentage'
p207
S'.275'
p208
sg12
S'0.3'
p209
sg14
g3
sg15
g3
sg16
S'4.1'
p210
sg18
g3
sg19
S'.632'
p211
sg23
S'BAA'
p212
sg25
g3
sg28
S'0.9'
p213
sS'_fieldGoalsttempted'
p214
S'5.1'
p215
sg30
S'2.1'
p216
sg32
g3
sg33
S'27'
p217
sg35
S'BOS'
p218
sg37
S'18'
p219
sg39
g3
sg40
S'1.4'
p220
sg42
S'1.3'
p221
sg44
S'5.1'
p222
sg46
g3
sg47
S'1946-47'
p223
sg49
S'1.4'
p224
sg51
g3
sg52
S'.275'
p225
sg54
g3
sg55
g3
sbsS'_weight'
p226
S'165'
p227
sS'_dob'
p228
S'13-4-1919'
p229
sS'_salary'
p230
(lp231
sg18
S'G'
p232
sb.