(isrc.gp1.models.Player
Player
p0
(dp1
S'_experience'
p2
S'NA'
p3
sS'_totals'
p4
(lp5
(isrc.gp1.models.Totals
Totals
p6
(dp7
S'_offensiveRebounds'
p8
S'3'
p9
sS'_threePointsAttempted'
p10
S'0'
p11
sS'_fieldGoalsPercentage'
p12
S'.667'
p13
sS'_assist'
p14
g11
sS'_threePointsPercentage'
p15
S'2'
p16
sS'_threePoints'
p17
g11
sS'_points'
p18
g3
sS'_position'
p19
S'SG'
p20
sS'_freeThrowsPercentage'
p21
S'1'
p22
sS'_effectiveFieldGoalPercentage'
p23
g11
sS'_league'
p24
S'NBA'
p25
sS'_steals'
p26
g16
sS'_fieldGoalsAttempted'
p27
g9
sS'_personalFouls'
p28
g3
sS'_freeThrowsAttempted'
p29
g16
sS'_totalRebounds'
p30
g11
sS'_age'
p31
S'23'
p32
sS'_team'
p33
S'DEN'
p34
sS'_games'
p35
g16
sS'_blocks'
p36
g11
sS'_twoPoints'
p37
g9
sS'_freeThrows'
p38
g11
sS'_twoPointsAttempted'
p39
S'.667'
p40
sS'_defensiveRebounds'
p41
g11
sS'_season'
p42
S'1998-99'
p43
sS'_fieldGoals'
p44
g16
sS'_turnOvers'
p45
S'4'
p46
sS'_twoPointsPercentage'
p47
S'.667'
p48
sS'_minutesPlayed'
p49
g46
sS'_gamesStarted'
p50
g11
sbasS'_college'
p51
S'University of Southern Mississippi'
p52
sS'_toYear'
p53
S'1999'
p54
sS'_height'
p55
S'6-7'
p56
sS'_active'
p57
I00
sS'_shootingHand'
p58
VRight
p59
sS'_name'
p60
S'Kelly McCarty'
p61
sS'_per100Possessions'
p62
(lp63
(isrc.gp1.models.Per100Possession
Per100Possession
p64
(dp65
g8
S'39.8'
p66
sg10
S'0.0'
p67
sg12
S'.667'
p68
sS'_offensiveRating'
p69
g3
sg14
S'0.0'
p70
sg15
S'26.5'
p71
sg17
S'0.0'
p72
sg18
S'110'
p73
sg19
S'SG'
p74
sS'_defensiveRating'
p75
g3
sg21
S'13.3'
p76
sg24
S'NBA'
p77
sg26
S'26.5'
p78
sg27
S'39.8'
p79
sg28
S'81'
p80
sg29
S'26.5'
p81
sg30
S'0.0'
p82
sg31
S'23'
p83
sg33
S'DEN'
p84
sg35
g16
sg36
S'0.0'
p85
sg37
S'39.8'
p86
sg38
S'0.0'
p87
sg39
S'.667'
p88
sg41
S'0.0'
p89
sg42
S'1998-99'
p90
sg44
S'26.5'
p91
sg45
S'53.1'
p92
sg47
S'0.0'
p93
sg49
g46
sg50
g11
sbasS'_advanced'
p94
(lp95
(isrc.gp1.models.Advanced
Advanced
p96
(dp97
S'_offensiveReboundPercentage'
p98
S'56.0'
p99
sS'_turnOverPercentage'
p100
S'40.0'
p101
sS'_winSharesPer48Minutes'
p102
S'-0.238'
p103
sS'_stealPercentage'
p104
S'0.0'
p105
sS'_usagePercentage'
p106
S'56.6'
p107
sS'_totalReboundsPercentage'
p108
S'43.3'
p109
sS'_defensiveBoxPlusMinus'
p110
S'-17.5'
p111
sg19
S'SG'
p112
sS'_valueOverReplacementPlayer'
p113
S'0.0'
p114
sS'_trueShootingPercentage'
p115
S'.667'
p116
sS'_defensiveReboundPercentage'
p117
S'29.9'
p118
sS'_freeThrowsAttempRate'
p119
S'.000'
p120
sS'_threePointsAttempRate'
p121
S'.000'
p122
sg24
S'NBA'
p123
sS'_offensiveBoxPlusMinues'
p124
S'-7.2'
p125
sS'_assistPercentage'
p126
S'0.0'
p127
sS'_defensiveWinShares'
p128
S'0.0'
p129
sg31
S'23'
p130
sg33
S'DEN'
p131
sg35
g16
sS'_blockPercentage'
p132
S'0.0'
p133
sS'_playerEfficiencyRating'
p134
S'31.7'
p135
sS'_offensiveWinShares'
p136
S'0.0'
p137
sg49
g46
sS'_boxPlusMinus'
p138
S'-24.8'
p139
sg42
S'1998-99'
p140
sS'_winShares'
p141
S'0.0'
p142
sbasS'_per36Minutes'
p143
(lp144
(isrc.gp1.models.Per36Minutes
Per36Minutes
p145
(dp146
g8
S'27.0'
p147
sg10
S'0.0'
p148
sg12
S'.667'
p149
sg14
S'0.0'
p150
sg15
S'18.0'
p151
sg17
S'0.0'
p152
sg18
g3
sg19
S'SG'
p153
sg21
S'9.0'
p154
sg24
S'NBA'
p155
sg26
S'18.0'
p156
sg27
S'27.0'
p157
sg28
g3
sg29
S'18.0'
p158
sg30
S'0.0'
p159
sg31
S'23'
p160
sg33
S'DEN'
p161
sg35
g16
sg36
S'0.0'
p162
sg37
S'27.0'
p163
sg38
S'0.0'
p164
sg39
S'.667'
p165
sg41
S'0.0'
p166
sg42
S'1998-99'
p167
sg44
S'18.0'
p168
sg45
S'36.0'
p169
sg47
S'0.0'
p170
sg49
g46
sg50
g11
sbasS'_fromYear'
p171
S'1999'
p172
sS'_url'
p173
S'http://www.basketball-reference.com/players/m/mccarke01.html'
p174
sS'_perGame'
p175
(isrc.gp1.models.PerGame
PerGame
p176
(dp177
g8
S'1.5'
p178
sg10
S'0.0'
p179
sg12
S'.667'
p180
sS'_effectiveFieldGalPercentage'
p181
S'0.0'
p182
sg14
S'0.0'
p183
sg15
S'1.0'
p184
sg17
S'0.0'
p185
sg18
g3
sg19
S'SG'
p186
sg21
S'0.5'
p187
sg24
S'NBA'
p188
sg26
S'1.0'
p189
sg28
g3
sS'_fieldGoalsttempted'
p190
S'1.5'
p191
sg29
S'1.0'
p192
sg30
S'0.0'
p193
sg31
S'23'
p194
sg33
S'DEN'
p195
sg35
g16
sg36
S'0.0'
p196
sg37
S'1.5'
p197
sg38
S'0.0'
p198
sg39
S'.667'
p199
sg41
S'0.0'
p200
sg42
S'1998-99'
p201
sg44
S'1.0'
p202
sg45
S'2.0'
p203
sg47
S'.667'
p204
sg49
S'2.0'
p205
sg50
g11
sbsS'_weight'
p206
S'200'
p207
sS'_dob'
p208
S'24-8-1975'
p209
sS'_salary'
p210
(lp211
(isrc.gp1.models.Salary
Salary
p212
(dp213
g33
S'Denver Nuggets'
p214
sg24
S'NBA'
p215
sg210
S'$287,500'
p216
sg42
S'1998-99'
p217
sbasg19
S'G-F'
p218
sb.