(isrc.gp1.models.Player
Player
p0
(dp1
S'_experience'
p2
S'NA'
p3
sS'_totals'
p4
(lp5
(isrc.gp1.models.Totals
Totals
p6
(dp7
S'_offensiveRebounds'
p8
S'6'
p9
sS'_threePointsAttempted'
p10
S'.250'
p11
sS'_fieldGoalsPercentage'
p12
S'2'
p13
sS'_assist'
p14
S'5'
p15
sS'_threePointsPercentage'
p16
S'23'
p17
sS'_threePoints'
p18
S'8'
p19
sS'_points'
p20
g3
sS'_position'
p21
S'SG'
p22
sS'_freeThrowsPercentage'
p23
S'9'
p24
sS'_effectiveFieldGoalPercentage'
p25
S'7'
p26
sS'_league'
p27
S'NBA'
p28
sS'_steals'
p29
S'1'
p30
sS'_fieldGoalsAttempted'
p31
S'.325'
p32
sS'_personalFouls'
p33
S'59'
p34
sS'_freeThrowsAttempted'
p35
S'.636'
p36
sS'_totalRebounds'
p37
S'10'
p38
sS'_age'
p39
S'22'
p40
sS'_team'
p41
S'IND'
p42
sS'_games'
p43
S'19'
p44
sS'_blocks'
p45
S'10'
p46
sS'_twoPoints'
p47
S'69'
p48
sS'_freeThrows'
p49
S'11'
p50
sS'_twoPointsAttempted'
p51
S'.333'
p52
sS'_defensiveRebounds'
p53
S'15'
p54
sS'_season'
p55
S'1980-81'
p56
sS'_fieldGoals'
p57
S'77'
p58
sS'_turnOvers'
p59
S'18'
p60
sS'_twoPointsPercentage'
p61
S'.338'
p62
sS'_minutesPlayed'
p63
S'25'
p64
sS'_gamesStarted'
p65
S'149'
p66
sba(isrc.gp1.models.Totals
Totals
p67
(dp68
g8
g3
sg10
g3
sg12
g3
sg14
g3
sg16
g3
sg18
g3
sg20
g3
sg21
g3
sg23
g3
sg25
g3
sg27
g3
sg29
g3
sg31
g3
sg33
g3
sg35
g3
sg37
g3
sg39
S'23'
p69
sg41
S'Did Not Play\xc2\xa0(other pro league\xe2\x80\x94CBA)'
p70
sg43
g3
sg45
g3
sg47
g3
sg49
g3
sg51
g3
sg53
g3
sg55
S'1981-82'
p71
sg57
g3
sg59
g3
sg61
g3
sg63
g3
sg65
g3
sba(isrc.gp1.models.Totals
Totals
p72
(dp73
g8
g9
sg10
g13
sg12
S'.521'
p74
sg14
S'28'
p75
sg16
S'.000'
p76
sg18
S'0'
p77
sg20
S'85'
p78
sg21
S'SG'
p79
sg23
S'.643'
p80
sg25
S'.521'
p81
sg27
S'NBA'
p82
sg29
g15
sg31
S'73'
p83
sg33
S'36'
p84
sg35
S'14'
p85
sg37
S'22'
p86
sg39
S'24'
p87
sg41
S'UTA'
p88
sg43
S'22'
p89
sg45
g77
sg47
S'38'
p90
sg49
g24
sg51
S'71'
p91
sg53
S'16'
p92
sg55
S'1982-83'
p93
sg57
S'38'
p94
sg59
S'22'
p95
sg61
S'.535'
p96
sg63
S'210'
p97
sg65
g77
sba(isrc.gp1.models.Totals
Totals
p98
(dp99
g8
g3
sg10
g3
sg12
g3
sg14
g3
sg16
g3
sg18
g3
sg20
g3
sg21
g3
sg23
g3
sg25
g3
sg27
g3
sg29
g3
sg31
g3
sg33
g3
sg35
g3
sg37
g3
sg39
S'25'
p100
sg41
S'Did Not Play\xc2\xa0(other pro league\xe2\x80\x94CBA)'
p101
sg43
g3
sg45
g3
sg47
g3
sg49
g3
sg51
g3
sg53
g3
sg55
S'1983-84'
p102
sg57
g3
sg59
g3
sg61
g3
sg63
g3
sg65
g3
sba(isrc.gp1.models.Totals
Totals
p103
(dp104
g8
g30
sg10
g77
sg12
S'.333'
p105
sg14
g13
sg16
g13
sg18
g77
sg20
g3
sg21
S'SG'
p106
sg23
g13
sg25
g13
sg27
S'NBA'
p107
sg29
g77
sg31
g9
sg33
g9
sg35
S'.500'
p108
sg37
S'3'
p109
sg39
S'26'
p110
sg41
S'TOT'
p111
sg43
g19
sg45
g109
sg47
g9
sg49
S'4'
p112
sg51
S'.333'
p113
sg53
g109
sg55
S'1984-85'
p114
sg57
g13
sg59
g109
sg61
S'.333'
p115
sg63
S'29'
p116
sg65
g77
sba(isrc.gp1.models.Totals
Totals
p117
(dp118
g8
g30
sg10
g77
sg12
S'.400'
p119
sg14
g30
sg16
g13
sg18
g77
sg20
g3
sg21
S'SG'
p120
sg23
g30
sg25
g13
sg27
S'NBA'
p121
sg29
g77
sg31
g15
sg33
g9
sg35
S'.500'
p122
sg37
g77
sg39
S'26'
p123
sg41
S'UTA'
p124
sg43
g112
sg45
g109
sg47
g15
sg49
g112
sg51
S'.400'
p125
sg53
g13
sg55
S'1984-85'
p126
sg57
g13
sg59
g13
sg61
S'.400'
p127
sg63
S'13'
p128
sg65
g77
sba(isrc.gp1.models.Totals
Totals
p129
(dp130
g8
g30
sg10
g77
sg12
S'.000'
p131
sg14
g77
sg16
g77
sg18
g77
sg20
g3
sg21
S'SG'
p132
sg23
g77
sg25
g77
sg27
S'NBA'
p133
sg29
g77
sg31
g30
sg33
g3
sg35
g30
sg37
g30
sg39
S'26'
p134
sg41
S'KCK'
p135
sg43
g112
sg45
g30
sg47
g30
sg49
g77
sg51
S'.000'
p136
sg53
g109
sg55
S'1984-85'
p137
sg57
g77
sg59
g77
sg61
S'.000'
p138
sg63
S'16'
p139
sg65
g77
sbasS'_college'
p140
S'University of Louisiana at Monroe'
p141
sS'_toYear'
p142
S'1985'
p143
sS'_height'
p144
S'6-3'
p145
sS'_active'
p146
I00
sS'_shootingHand'
p147
VRight
p148
sS'_name'
p149
S'Kenny Natt'
p150
sS'_per100Possessions'
p151
(lp152
(isrc.gp1.models.Per100Possession
Per100Possession
p153
(dp154
g8
S'1.9'
p155
sg10
S'.250'
p156
sg12
S'0.6'
p157
sS'_offensiveRating'
p158
S'109'
p159
sg14
S'1.6'
p160
sg16
S'7.3'
p161
sg18
S'2.6'
p162
sg20
S'82'
p163
sg21
S'SG'
p164
sS'_defensiveRating'
p165
g3
sg23
S'2.9'
p166
sg27
S'NBA'
p167
sg29
S'0.3'
p168
sg31
S'.325'
p169
sg33
S'18.8'
p170
sg35
S'.636'
p171
sg37
S'3.2'
p172
sg39
S'22'
p173
sg41
S'IND'
p174
sg43
S'19'
p175
sg45
S'3.2'
p176
sg47
S'22.0'
p177
sg49
S'3.5'
p178
sg51
S'.333'
p179
sg53
S'4.8'
p180
sg55
S'1980-81'
p181
sg57
S'24.6'
p182
sg59
S'5.7'
p183
sg61
S'2.2'
p184
sg63
S'8.0'
p185
sg65
S'149'
p186
sba(isrc.gp1.models.Per100Possession
Per100Possession
p187
(dp188
g8
S'1.3'
p189
sg10
S'0.4'
p190
sg12
S'.521'
p191
sg158
S'94'
p192
sg14
S'6.0'
p193
sg16
S'.000'
p194
sg18
S'0.0'
p195
sg20
S'18.1'
p196
sg21
S'SG'
p197
sg165
S'109'
p198
sg23
S'.643'
p199
sg27
S'NBA'
p200
sg29
S'1.1'
p201
sg31
S'15.5'
p202
sg33
S'7.7'
p203
sg35
S'3.0'
p204
sg37
S'4.7'
p205
sg39
S'24'
p206
sg41
S'UTA'
p207
sg43
S'22'
p208
sg45
S'0.0'
p209
sg47
S'8.1'
p210
sg49
S'1.9'
p211
sg51
S'15.1'
p212
sg53
S'3.4'
p213
sg55
S'1982-83'
p214
sg57
S'8.1'
p215
sg59
S'4.7'
p216
sg61
S'.535'
p217
sg63
S'210'
p218
sg65
g77
sba(isrc.gp1.models.Per100Possession
Per100Possession
p219
(dp220
g8
S'1.6'
p221
sg10
S'0.0'
p222
sg12
S'.333'
p223
sg158
S'109'
p224
sg14
S'3.2'
p225
sg16
S'3.2'
p226
sg18
S'0.0'
p227
sg20
S'76'
p228
sg21
S'SG'
p229
sg165
g3
sg23
S'3.2'
p230
sg27
S'NBA'
p231
sg29
S'0.0'
p232
sg31
S'9.5'
p233
sg33
S'9.5'
p234
sg35
S'.500'
p235
sg37
S'4.7'
p236
sg39
S'26'
p237
sg41
S'TOT'
p238
sg43
g19
sg45
S'4.7'
p239
sg47
S'9.5'
p240
sg49
S'6.3'
p241
sg51
S'.333'
p242
sg53
S'4.7'
p243
sg55
S'1984-85'
p244
sg57
S'3.2'
p245
sg59
S'4.7'
p246
sg61
S'3.2'
p247
sg63
S'29'
p248
sg65
g77
sba(isrc.gp1.models.Per100Possession
Per100Possession
p249
(dp250
g8
S'3.5'
p251
sg10
S'0.0'
p252
sg12
S'.400'
p253
sg158
S'103'
p254
sg14
S'3.5'
p255
sg16
S'7.0'
p256
sg18
S'0.0'
p257
sg20
S'66'
p258
sg21
S'SG'
p259
sg165
g3
sg23
S'3.5'
p260
sg27
S'NBA'
p261
sg29
S'0.0'
p262
sg31
S'17.6'
p263
sg33
S'21.1'
p264
sg35
S'.500'
p265
sg37
S'0.0'
p266
sg39
S'26'
p267
sg41
S'UTA'
p268
sg43
g112
sg45
S'10.5'
p269
sg47
S'17.6'
p270
sg49
S'14.0'
p271
sg51
S'.400'
p272
sg53
S'7.0'
p273
sg55
S'1984-85'
p274
sg57
S'7.0'
p275
sg59
S'7.0'
p276
sg61
S'7.0'
p277
sg63
S'13'
p278
sg65
g77
sba(isrc.gp1.models.Per100Possession
Per100Possession
p279
(dp280
g8
S'2.9'
p281
sg10
S'0.0'
p282
sg12
S'.000'
p283
sg158
g3
sg14
S'0.0'
p284
sg16
S'0.0'
p285
sg18
S'0.0'
p286
sg20
S'114'
p287
sg21
S'SG'
p288
sg165
g3
sg23
S'0.0'
p289
sg27
S'NBA'
p290
sg29
S'0.0'
p291
sg31
S'2.9'
p292
sg33
S'123'
p293
sg35
S'2.9'
p294
sg37
S'2.9'
p295
sg39
S'26'
p296
sg41
S'KCK'
p297
sg43
g112
sg45
S'2.9'
p298
sg47
S'2.9'
p299
sg49
S'0.0'
p300
sg51
S'.000'
p301
sg53
S'8.6'
p302
sg55
S'1984-85'
p303
sg57
S'0.0'
p304
sg59
S'0.0'
p305
sg61
S'0.0'
p306
sg63
S'16'
p307
sg65
g77
sbasS'_advanced'
p308
(lp309
(isrc.gp1.models.Advanced
Advanced
p310
(dp311
S'_offensiveReboundPercentage'
p312
S'6.4'
p313
sS'_turnOverPercentage'
p314
S'10.9'
p315
sS'_winSharesPer48Minutes'
p316
S'-0.075'
p317
sS'_stealPercentage'
p318
S'1.6'
p319
sS'_usagePercentage'
p320
S'24.7'
p321
sS'_totalReboundsPercentage'
p322
S'5.5'
p323
sS'_defensiveBoxPlusMinus'
p324
S'-3.7'
p325
sg21
S'SG'
p326
sS'_valueOverReplacementPlayer'
p327
S'-0.3'
p328
sS'_trueShootingPercentage'
p329
S'.360'
p330
sS'_defensiveReboundPercentage'
p331
S'4.5'
p332
sS'_freeThrowsAttempRate'
p333
S'.143'
p334
sS'_threePointsAttempRate'
p335
S'.104'
p336
sg27
S'NBA'
p337
sS'_offensiveBoxPlusMinues'
p338
S'-5.4'
p339
sS'_assistPercentage'
p340
S'9.4'
p341
sS'_defensiveWinShares'
p342
S'0.1'
p343
sg39
S'22'
p344
sg41
S'IND'
p345
sg43
S'19'
p346
sS'_blockPercentage'
p347
S'0.4'
p348
sS'_playerEfficiencyRating'
p349
S'5.2'
p350
sS'_offensiveWinShares'
p351
S'-0.3'
p352
sg63
S'149'
p353
sS'_boxPlusMinus'
p354
S'-9.1'
p355
sg55
S'1980-81'
p356
sS'_winShares'
p357
S'-0.2'
p358
sba(isrc.gp1.models.Advanced
Advanced
p359
(dp360
g312
S'3.0'
p361
sg314
S'21.7'
p362
sg316
S'.013'
p363
sg318
S'1.1'
p364
sg320
S'18.8'
p365
sg322
S'5.3'
p366
sg324
S'-2.8'
p367
sg21
S'SG'
p368
sg327
S'-0.2'
p369
sg329
S'.537'
p370
sg331
S'7.5'
p371
sg333
S'.192'
p372
sg335
S'.027'
p373
sg27
S'NBA'
p374
sg338
S'-3.2'
p375
sg340
S'18.7'
p376
sg342
S'0.1'
p377
sg39
S'24'
p378
sg41
S'UTA'
p379
sg43
S'22'
p380
sg347
S'0.0'
p381
sg349
S'9.1'
p382
sg351
S'-0.1'
p383
sg63
S'210'
p384
sg354
S'-6.1'
p385
sg55
S'1982-83'
p386
sg357
S'0.1'
p387
sba(isrc.gp1.models.Advanced
Advanced
p388
(dp389
g312
S'7.6'
p390
sg314
S'27.9'
p391
sg316
S'-0.063'
p392
sg318
S'3.2'
p393
sg320
S'14.7'
p394
sg322
S'5.5'
p395
sg324
S'-1.4'
p396
sg21
S'SG'
p397
sg327
S'0.0'
p398
sg329
S'.387'
p399
sg331
S'3.5'
p400
sg333
S'.667'
p401
sg335
S'.000'
p402
sg27
S'NBA'
p403
sg338
S'-7.1'
p404
sg340
S'11.2'
p405
sg342
S'0.0'
p406
sg39
S'26'
p407
sg41
S'TOT'
p408
sg43
g19
sg347
S'0.0'
p409
sg349
S'4.7'
p410
sg351
S'-0.1'
p411
sg63
S'29'
p412
sg354
S'-8.5'
p413
sg55
S'1984-85'
p414
sg357
S'0.0'
p415
sba(isrc.gp1.models.Advanced
Advanced
p416
(dp417
g312
S'8.2'
p418
sg314
S'30.7'
p419
sg316
S'-0.201'
p420
sg318
S'3.5'
p421
sg320
S'29.8'
p422
sg322
S'8.0'
p423
sg324
S'-3.2'
p424
sg21
S'SG'
p425
sg327
S'0.0'
p426
sg329
S'.444'
p427
sg331
S'7.8'
p428
sg333
S'.800'
p429
sg335
S'.000'
p430
sg27
S'NBA'
p431
sg338
S'-12.3'
p432
sg340
S'0.0'
p433
sg342
S'0.0'
p434
sg39
S'26'
p435
sg41
S'UTA'
p436
sg43
g112
sg347
S'0.0'
p437
sg349
S'1.5'
p438
sg351
S'-0.1'
p439
sg63
S'13'
p440
sg354
S'-15.5'
p441
sg55
S'1984-85'
p442
sg357
S'-0.1'
p443
sba(isrc.gp1.models.Advanced
Advanced
p444
(dp445
g312
S'7.2'
p446
sg314
S'0.0'
p447
sg316
S'.049'
p448
sg318
S'2.9'
p449
sg320
S'2.5'
p450
sg322
S'3.6'
p451
sg324
S'0.1'
p452
sg21
S'SG'
p453
sg327
S'0.0'
p454
sg329
S'.000'
p455
sg331
S'0.0'
p456
sg333
S'.000'
p457
sg335
S'.000'
p458
sg27
S'NBA'
p459
sg338
S'-2.9'
p460
sg340
S'20.2'
p461
sg342
S'0.0'
p462
sg39
S'26'
p463
sg41
S'KCK'
p464
sg43
g112
sg347
S'0.0'
p465
sg349
S'7.3'
p466
sg351
S'0.0'
p467
sg63
S'16'
p468
sg354
S'-2.8'
p469
sg55
S'1984-85'
p470
sg357
S'0.0'
p471
sbasS'_per36Minutes'
p472
(lp473
(isrc.gp1.models.Per36Minutes
Per36Minutes
p474
(dp475
g8
S'1.4'
p476
sg10
S'.250'
p477
sg12
S'0.5'
p478
sg14
S'1.2'
p479
sg16
S'5.6'
p480
sg18
S'1.9'
p481
sg20
g3
sg21
S'SG'
p482
sg23
S'2.2'
p483
sg27
S'NBA'
p484
sg29
S'0.2'
p485
sg31
S'.325'
p486
sg33
S'14.3'
p487
sg35
S'.636'
p488
sg37
S'2.4'
p489
sg39
S'22'
p490
sg41
S'IND'
p491
sg43
S'19'
p492
sg45
S'2.4'
p493
sg47
S'16.7'
p494
sg49
S'2.7'
p495
sg51
S'.333'
p496
sg53
S'3.6'
p497
sg55
S'1980-81'
p498
sg57
S'18.6'
p499
sg59
S'4.3'
p500
sg61
S'1.7'
p501
sg63
S'6.0'
p502
sg65
S'149'
p503
sba(isrc.gp1.models.Per36Minutes
Per36Minutes
p504
(dp505
g8
S'1.0'
p506
sg10
S'0.3'
p507
sg12
S'.521'
p508
sg14
S'4.8'
p509
sg16
S'.000'
p510
sg18
S'0.0'
p511
sg20
S'14.6'
p512
sg21
S'SG'
p513
sg23
S'.643'
p514
sg27
S'NBA'
p515
sg29
S'0.9'
p516
sg31
S'12.5'
p517
sg33
S'6.2'
p518
sg35
S'2.4'
p519
sg37
S'3.8'
p520
sg39
S'24'
p521
sg41
S'UTA'
p522
sg43
S'22'
p523
sg45
S'0.0'
p524
sg47
S'6.5'
p525
sg49
S'1.5'
p526
sg51
S'12.2'
p527
sg53
S'2.7'
p528
sg55
S'1982-83'
p529
sg57
S'6.5'
p530
sg59
S'3.8'
p531
sg61
S'.535'
p532
sg63
S'210'
p533
sg65
g77
sba(isrc.gp1.models.Per36Minutes
Per36Minutes
p534
(dp535
g8
S'1.2'
p536
sg10
S'0.0'
p537
sg12
S'.333'
p538
sg14
S'2.5'
p539
sg16
S'2.5'
p540
sg18
S'0.0'
p541
sg20
g3
sg21
S'SG'
p542
sg23
S'2.5'
p543
sg27
S'NBA'
p544
sg29
S'0.0'
p545
sg31
S'7.4'
p546
sg33
S'7.4'
p547
sg35
S'.500'
p548
sg37
S'3.7'
p549
sg39
S'26'
p550
sg41
S'TOT'
p551
sg43
g19
sg45
S'3.7'
p552
sg47
S'7.4'
p553
sg49
S'5.0'
p554
sg51
S'.333'
p555
sg53
S'3.7'
p556
sg55
S'1984-85'
p557
sg57
S'2.5'
p558
sg59
S'3.7'
p559
sg61
S'2.5'
p560
sg63
S'29'
p561
sg65
g77
sba(isrc.gp1.models.Per36Minutes
Per36Minutes
p562
(dp563
g8
S'2.8'
p564
sg10
S'0.0'
p565
sg12
S'.400'
p566
sg14
S'2.8'
p567
sg16
S'5.5'
p568
sg18
S'0.0'
p569
sg20
g3
sg21
S'SG'
p570
sg23
S'2.8'
p571
sg27
S'NBA'
p572
sg29
S'0.0'
p573
sg31
S'13.8'
p574
sg33
S'16.6'
p575
sg35
S'.500'
p576
sg37
S'0.0'
p577
sg39
S'26'
p578
sg41
S'UTA'
p579
sg43
g112
sg45
S'8.3'
p580
sg47
S'13.8'
p581
sg49
S'11.1'
p582
sg51
S'.400'
p583
sg53
S'5.5'
p584
sg55
S'1984-85'
p585
sg57
S'5.5'
p586
sg59
S'5.5'
p587
sg61
S'5.5'
p588
sg63
S'13'
p589
sg65
g77
sba(isrc.gp1.models.Per36Minutes
Per36Minutes
p590
(dp591
g8
S'2.3'
p592
sg10
S'0.0'
p593
sg12
S'.000'
p594
sg14
S'0.0'
p595
sg16
S'0.0'
p596
sg18
S'0.0'
p597
sg20
g3
sg21
S'SG'
p598
sg23
S'0.0'
p599
sg27
S'NBA'
p600
sg29
S'0.0'
p601
sg31
S'2.3'
p602
sg33
g3
sg35
S'2.3'
p603
sg37
S'2.3'
p604
sg39
S'26'
p605
sg41
S'KCK'
p606
sg43
g112
sg45
S'2.3'
p607
sg47
S'2.3'
p608
sg49
S'0.0'
p609
sg51
S'.000'
p610
sg53
S'6.8'
p611
sg55
S'1984-85'
p612
sg57
S'0.0'
p613
sg59
S'0.0'
p614
sg61
S'0.0'
p615
sg63
S'16'
p616
sg65
g77
sbasS'_fromYear'
p617
S'1981'
p618
sS'_url'
p619
S'http://www.basketball-reference.com/players/n/nattke01.html'
p620
sS'_perGame'
p621
(isrc.gp1.models.PerGame
PerGame
p622
(dp623
g8
S'0.3'
p624
sg10
S'0.0'
p625
sg12
S'.000'
p626
sS'_effectiveFieldGalPercentage'
p627
S'0.0'
p628
sg14
S'0.0'
p629
sg16
S'0.0'
p630
sg18
S'0.0'
p631
sg20
g3
sg21
S'SG'
p632
sg23
S'0.0'
p633
sg27
S'NBA'
p634
sg29
S'0.0'
p635
sg33
g3
sS'_fieldGoalsttempted'
p636
S'0.3'
p637
sg35
S'0.3'
p638
sg37
S'0.3'
p639
sg39
S'26'
p640
sg41
S'KCK'
p641
sg43
g112
sg45
S'0.3'
p642
sg47
S'0.3'
p643
sg49
S'0.0'
p644
sg51
S'.000'
p645
sg53
S'0.8'
p646
sg55
S'1984-85'
p647
sg57
S'0.0'
p648
sg59
S'0.0'
p649
sg61
S'.000'
p650
sg63
S'4.0'
p651
sg65
g77
sbsS'_weight'
p652
S'185'
p653
sS'_dob'
p654
S'5-10-1958'
p655
sS'_salary'
p656
(lp657
sg21
S'G'
p658
sb.