(isrc.gp1.models.Player
Player
p0
(dp1
S'_experience'
p2
S'NA'
p3
sS'_totals'
p4
(lp5
(isrc.gp1.models.Totals
Totals
p6
(dp7
S'_offensiveRebounds'
p8
g3
sS'_threePointsAttempted'
p9
g3
sS'_fieldGoalsPercentage'
p10
S'.326'
p11
sS'_assist'
p12
S'118'
p13
sS'_threePointsPercentage'
p14
g3
sS'_threePoints'
p15
g3
sS'_points'
p16
S'483'
p17
sS'_position'
p18
S'PF'
p19
sS'_freeThrowsPercentage'
p20
S'.650'
p21
sS'_effectiveFieldGoalPercentage'
p22
S'.326'
p23
sS'_league'
p24
S'NBA'
p25
sS'_steals'
p26
g3
sS'_fieldGoalsAttempted'
p27
S'481'
p28
sS'_personalFouls'
p29
S'175'
p30
sS'_freeThrowsAttempted'
p31
S'260'
p32
sS'_totalRebounds'
p33
g3
sS'_age'
p34
S'25'
p35
sS'_team'
p36
S'TOT'
p37
sS'_games'
p38
S'68'
p39
sS'_blocks'
p40
g3
sS'_twoPoints'
p41
S'157'
p42
sS'_freeThrows'
p43
S'169'
p44
sS'_twoPointsAttempted'
p45
S'481'
p46
sS'_defensiveRebounds'
p47
g3
sS'_season'
p48
S'1949-50'
p49
sS'_fieldGoals'
p50
S'157'
p51
sS'_turnOvers'
p52
g3
sS'_twoPointsPercentage'
p53
S'.326'
p54
sS'_minutesPlayed'
p55
g3
sS'_gamesStarted'
p56
g3
sba(isrc.gp1.models.Totals
Totals
p57
(dp58
g8
g3
sg9
g3
sg10
S'.308'
p59
sg12
S'8'
p60
sg14
g3
sg15
g3
sg16
S'26'
p61
sg18
S'PF'
p62
sg20
S'.833'
p63
sg22
S'.308'
p64
sg24
S'NBA'
p65
sg26
g3
sg27
S'26'
p66
sg29
S'13'
p67
sg31
S'12'
p68
sg33
g3
sg34
S'25'
p69
sg36
S'TRI'
p70
sg38
S'4'
p71
sg40
g3
sg41
g60
sg43
S'10'
p72
sg45
S'26'
p73
sg47
g3
sg48
S'1949-50'
p74
sg50
g60
sg52
g3
sg53
S'.308'
p75
sg55
g3
sg56
g3
sba(isrc.gp1.models.Totals
Totals
p76
(dp77
g8
g3
sg9
g3
sg10
S'.327'
p78
sg12
S'110'
p79
sg14
g3
sg15
g3
sg16
S'457'
p80
sg18
S'PF'
p81
sg20
S'.641'
p82
sg22
S'.327'
p83
sg24
S'NBA'
p84
sg26
g3
sg27
S'455'
p85
sg29
S'162'
p86
sg31
S'248'
p87
sg33
g3
sg34
S'25'
p88
sg36
S'FTW'
p89
sg38
S'64'
p90
sg40
g3
sg41
S'149'
p91
sg43
S'159'
p92
sg45
S'455'
p93
sg47
g3
sg48
S'1949-50'
p94
sg50
S'149'
p95
sg52
g3
sg53
S'.327'
p96
sg55
g3
sg56
g3
sba(isrc.gp1.models.Totals
Totals
p97
(dp98
g8
g3
sg9
g3
sg10
S'.370'
p99
sg12
S'181'
p100
sg14
g3
sg15
g3
sg16
S'711'
p101
sg18
S'PF'
p102
sg20
S'.681'
p103
sg22
S'.370'
p104
sg24
S'NBA'
p105
sg26
g3
sg27
S'689'
p106
sg29
S'253'
p107
sg31
S'295'
p108
sg33
S'477'
p109
sg34
S'26'
p110
sg36
S'FTW'
p111
sg38
S'68'
p112
sg40
g3
sg41
S'255'
p113
sg43
S'201'
p114
sg45
S'689'
p115
sg47
g3
sg48
S'1950-51'
p116
sg50
S'255'
p117
sg52
g3
sg53
S'.370'
p118
sg55
g3
sg56
g3
sba(isrc.gp1.models.Totals
Totals
p119
(dp120
g8
g3
sg9
g3
sg10
S'.388'
p121
sg12
S'212'
p122
sg14
g3
sg15
g3
sg16
S'589'
p123
sg18
S'PF'
p124
sg20
S'.668'
p125
sg22
S'.388'
p126
sg24
S'NBA'
p127
sg26
g3
sg27
S'480'
p128
sg29
S'265'
p129
sg31
S'325'
p130
sg33
S'514'
p131
sg34
S'27'
p132
sg36
S'FTW'
p133
sg38
S'66'
p134
sg40
g3
sg41
S'186'
p135
sg43
S'217'
p136
sg45
S'480'
p137
sg47
g3
sg48
S'1951-52'
p138
sg50
S'186'
p139
sg52
g3
sg53
S'.388'
p140
sg55
S'2148'
p141
sg56
g3
sba(isrc.gp1.models.Totals
Totals
p142
(dp143
g8
g3
sg9
g3
sg10
S'.363'
p144
sg12
S'156'
p145
sg14
g3
sg15
g3
sg16
S'274'
p146
sg18
S'PF'
p147
sg20
S'.629'
p148
sg22
S'.363'
p149
sg24
S'NBA'
p150
sg26
g3
sg27
S'256'
p151
sg29
S'165'
p152
sg31
S'140'
p153
sg33
S'295'
p154
sg34
S'28'
p155
sg36
S'TOT'
p156
sg38
S'69'
p157
sg40
g3
sg41
S'93'
p158
sg43
S'88'
p159
sg45
S'256'
p160
sg47
g3
sg48
S'1952-53'
p161
sg50
S'93'
p162
sg52
g3
sg53
S'.363'
p163
sg55
S'1424'
p164
sg56
g3
sba(isrc.gp1.models.Totals
Totals
p165
(dp166
g8
g3
sg9
g3
sg10
S'.330'
p167
sg12
S'108'
p168
sg14
g3
sg15
g3
sg16
S'179'
p169
sg18
g3
sg20
S'.616'
p170
sg22
S'.330'
p171
sg24
S'NBA'
p172
sg26
g3
sg27
S'179'
p173
sg29
S'117'
p174
sg31
S'99'
p175
sg33
S'207'
p176
sg34
S'28'
p177
sg36
S'FTW'
p178
sg38
S'52'
p179
sg40
g3
sg41
S'59'
p180
sg43
S'61'
p181
sg45
S'179'
p182
sg47
g3
sg48
S'1952-53'
p183
sg50
S'59'
p184
sg52
g3
sg53
S'.330'
p185
sg55
S'982'
p186
sg56
g3
sba(isrc.gp1.models.Totals
Totals
p187
(dp188
g8
g3
sg9
g3
sg10
S'.442'
p189
sg12
S'48'
p190
sg14
g3
sg15
g3
sg16
S'95'
p191
sg18
S'PF'
p192
sg20
S'.659'
p193
sg22
S'.442'
p194
sg24
S'NBA'
p195
sg26
g3
sg27
S'77'
p196
sg29
S'48'
p197
sg31
S'41'
p198
sg33
S'88'
p199
sg34
S'28'
p200
sg36
S'BLB'
p201
sg38
S'17'
p202
sg40
g3
sg41
S'34'
p203
sg43
S'27'
p204
sg45
S'77'
p205
sg47
g3
sg48
S'1952-53'
p206
sg50
S'34'
p207
sg52
g3
sg53
S'.442'
p208
sg55
S'442'
p209
sg56
g3
sbasS'_college'
p210
S'Loyola University of Chicago'
p211
sS'_toYear'
p212
S'1953'
p213
sS'_height'
p214
S'6-6'
p215
sS'_active'
p216
I00
sS'_shootingHand'
p217
VRight
p218
sS'_name'
p219
S'Jack Kerris'
p220
sS'_per100Possessions'
p221
(lp222
sS'_advanced'
p223
(lp224
(isrc.gp1.models.Advanced
Advanced
p225
(dp226
S'_offensiveReboundPercentage'
p227
g3
sS'_turnOverPercentage'
p228
g3
sS'_winSharesPer48Minutes'
p229
g3
sS'_stealPercentage'
p230
g3
sS'_usagePercentage'
p231
g3
sS'_totalReboundsPercentage'
p232
g3
sS'_defensiveBoxPlusMinus'
p233
g3
sg18
S'PF'
p234
sS'_valueOverReplacementPlayer'
p235
g3
sS'_trueShootingPercentage'
p236
S'.406'
p237
sS'_defensiveReboundPercentage'
p238
g3
sS'_freeThrowsAttempRate'
p239
S'.541'
p240
sS'_threePointsAttempRate'
p241
g3
sg24
S'NBA'
p242
sS'_offensiveBoxPlusMinues'
p243
g3
sS'_assistPercentage'
p244
g3
sS'_defensiveWinShares'
p245
S'2.7'
p246
sg34
S'25'
p247
sg36
S'TOT'
p248
sg38
S'68'
p249
sS'_blockPercentage'
p250
g3
sS'_playerEfficiencyRating'
p251
g3
sS'_offensiveWinShares'
p252
S'1.4'
p253
sg55
g3
sS'_boxPlusMinus'
p254
g3
sg48
S'1949-50'
p255
sS'_winShares'
p256
S'4.1'
p257
sba(isrc.gp1.models.Advanced
Advanced
p258
(dp259
g227
g3
sg228
g3
sg229
g3
sg230
g3
sg231
g3
sg232
g3
sg233
g3
sg18
S'PF'
p260
sg235
g3
sg236
S'.416'
p261
sg238
g3
sg239
S'.462'
p262
sg241
g3
sg24
S'NBA'
p263
sg243
g3
sg244
g3
sg245
S'0.1'
p264
sg34
S'25'
p265
sg36
S'TRI'
p266
sg38
g71
sg250
g3
sg251
g3
sg252
S'0.1'
p267
sg55
g3
sg254
g3
sg48
S'1949-50'
p268
sg256
S'0.2'
p269
sba(isrc.gp1.models.Advanced
Advanced
p270
(dp271
g227
g3
sg228
g3
sg229
g3
sg230
g3
sg231
g3
sg232
g3
sg233
g3
sg18
S'PF'
p272
sg235
g3
sg236
S'.405'
p273
sg238
g3
sg239
S'.545'
p274
sg241
g3
sg24
S'NBA'
p275
sg243
g3
sg244
g3
sg245
S'2.6'
p276
sg34
S'25'
p277
sg36
S'FTW'
p278
sg38
S'64'
p279
sg250
g3
sg251
g3
sg252
S'1.3'
p280
sg55
g3
sg254
g3
sg48
S'1949-50'
p281
sg256
S'3.9'
p282
sba(isrc.gp1.models.Advanced
Advanced
p283
(dp284
g227
g3
sg228
g3
sg229
g3
sg230
g3
sg231
g3
sg232
g3
sg233
g3
sg18
S'PF'
p285
sg235
g3
sg236
S'.434'
p286
sg238
g3
sg239
S'.428'
p287
sg241
g3
sg24
S'NBA'
p288
sg243
g3
sg244
g3
sg245
S'3.1'
p289
sg34
S'26'
p290
sg36
S'FTW'
p291
sg38
S'68'
p292
sg250
g3
sg251
g3
sg252
S'2.6'
p293
sg55
g3
sg254
g3
sg48
S'1950-51'
p294
sg256
S'5.7'
p295
sba(isrc.gp1.models.Advanced
Advanced
p296
(dp297
g227
g3
sg228
g3
sg229
S'.132'
p298
sg230
g3
sg231
g3
sg232
g3
sg233
g3
sg18
S'PF'
p299
sg235
g3
sg236
S'.473'
p300
sg238
g3
sg239
S'.677'
p301
sg241
g3
sg24
S'NBA'
p302
sg243
g3
sg244
g3
sg245
S'2.3'
p303
sg34
S'27'
p304
sg36
S'FTW'
p305
sg38
S'66'
p306
sg250
g3
sg251
S'16.1'
p307
sg252
S'3.7'
p308
sg55
S'2148'
p309
sg254
g3
sg48
S'1951-52'
p310
sg256
S'5.9'
p311
sba(isrc.gp1.models.Advanced
Advanced
p312
(dp313
g227
g3
sg228
g3
sg229
S'.072'
p314
sg230
g3
sg231
g3
sg232
g3
sg233
g3
sg18
S'PF'
p315
sg235
g3
sg236
S'.431'
p316
sg238
g3
sg239
S'.547'
p317
sg241
g3
sg24
S'NBA'
p318
sg243
g3
sg244
g3
sg245
S'1.4'
p319
sg34
S'28'
p320
sg36
S'TOT'
p321
sg38
S'69'
p322
sg250
g3
sg251
S'12.4'
p323
sg252
S'0.8'
p324
sg55
S'1424'
p325
sg254
g3
sg48
S'1952-53'
p326
sg256
S'2.1'
p327
sba(isrc.gp1.models.Advanced
Advanced
p328
(dp329
g227
g3
sg228
g3
sg229
S'.065'
p330
sg230
g3
sg231
g3
sg232
g3
sg233
g3
sg18
g3
sg235
g3
sg236
S'.402'
p331
sg238
g3
sg239
S'.553'
p332
sg241
g3
sg24
S'NBA'
p333
sg243
g3
sg244
g3
sg245
S'1.2'
p334
sg34
S'28'
p335
sg36
S'FTW'
p336
sg38
S'52'
p337
sg250
g3
sg251
S'11.8'
p338
sg252
S'0.1'
p339
sg55
S'982'
p340
sg254
g3
sg48
S'1952-53'
p341
sg256
S'1.3'
p342
sba(isrc.gp1.models.Advanced
Advanced
p343
(dp344
g227
g3
sg228
g3
sg229
S'.087'
p345
sg230
g3
sg231
g3
sg232
g3
sg233
g3
sg18
S'PF'
p346
sg235
g3
sg236
S'.500'
p347
sg238
g3
sg239
S'.532'
p348
sg241
g3
sg24
S'NBA'
p349
sg243
g3
sg244
g3
sg245
S'0.1'
p350
sg34
S'28'
p351
sg36
S'BLB'
p352
sg38
S'17'
p353
sg250
g3
sg251
S'13.8'
p354
sg252
S'0.7'
p355
sg55
S'442'
p356
sg254
g3
sg48
S'1952-53'
p357
sg256
S'0.8'
p358
sbasS'_per36Minutes'
p359
(lp360
(isrc.gp1.models.Per36Minutes
Per36Minutes
p361
(dp362
g8
g3
sg9
g3
sg10
S'.326'
p363
sg12
g3
sg14
g3
sg15
g3
sg16
g3
sg18
S'PF'
p364
sg20
S'.650'
p365
sg24
S'NBA'
p366
sg26
g3
sg27
g3
sg29
g3
sg31
g3
sg33
g3
sg34
S'25'
p367
sg36
S'TOT'
p368
sg38
S'68'
p369
sg40
g3
sg41
g3
sg43
g3
sg45
g3
sg47
g3
sg48
S'1949-50'
p370
sg50
g3
sg52
g3
sg53
S'.326'
p371
sg55
g3
sg56
g3
sba(isrc.gp1.models.Per36Minutes
Per36Minutes
p372
(dp373
g8
g3
sg9
g3
sg10
S'.308'
p374
sg12
g3
sg14
g3
sg15
g3
sg16
g3
sg18
S'PF'
p375
sg20
S'.833'
p376
sg24
S'NBA'
p377
sg26
g3
sg27
g3
sg29
g3
sg31
g3
sg33
g3
sg34
S'25'
p378
sg36
S'TRI'
p379
sg38
g71
sg40
g3
sg41
g3
sg43
g3
sg45
g3
sg47
g3
sg48
S'1949-50'
p380
sg50
g3
sg52
g3
sg53
S'.308'
p381
sg55
g3
sg56
g3
sba(isrc.gp1.models.Per36Minutes
Per36Minutes
p382
(dp383
g8
g3
sg9
g3
sg10
S'.327'
p384
sg12
g3
sg14
g3
sg15
g3
sg16
g3
sg18
S'PF'
p385
sg20
S'.641'
p386
sg24
S'NBA'
p387
sg26
g3
sg27
g3
sg29
g3
sg31
g3
sg33
g3
sg34
S'25'
p388
sg36
S'FTW'
p389
sg38
S'64'
p390
sg40
g3
sg41
g3
sg43
g3
sg45
g3
sg47
g3
sg48
S'1949-50'
p391
sg50
g3
sg52
g3
sg53
S'.327'
p392
sg55
g3
sg56
g3
sba(isrc.gp1.models.Per36Minutes
Per36Minutes
p393
(dp394
g8
g3
sg9
g3
sg10
S'.370'
p395
sg12
g3
sg14
g3
sg15
g3
sg16
g3
sg18
S'PF'
p396
sg20
S'.681'
p397
sg24
S'NBA'
p398
sg26
g3
sg27
g3
sg29
g3
sg31
g3
sg33
g3
sg34
S'26'
p399
sg36
S'FTW'
p400
sg38
S'68'
p401
sg40
g3
sg41
g3
sg43
g3
sg45
g3
sg47
g3
sg48
S'1950-51'
p402
sg50
g3
sg52
g3
sg53
S'.370'
p403
sg55
g3
sg56
g3
sba(isrc.gp1.models.Per36Minutes
Per36Minutes
p404
(dp405
g8
g3
sg9
g3
sg10
S'.388'
p406
sg12
S'3.6'
p407
sg14
g3
sg15
g3
sg16
S'9.9'
p408
sg18
S'PF'
p409
sg20
S'.668'
p410
sg24
S'NBA'
p411
sg26
g3
sg27
S'8.0'
p412
sg29
S'4.4'
p413
sg31
S'5.4'
p414
sg33
S'8.6'
p415
sg34
S'27'
p416
sg36
S'FTW'
p417
sg38
S'66'
p418
sg40
g3
sg41
S'3.1'
p419
sg43
S'3.6'
p420
sg45
S'8.0'
p421
sg47
g3
sg48
S'1951-52'
p422
sg50
S'3.1'
p423
sg52
g3
sg53
S'.388'
p424
sg55
S'2148'
p425
sg56
g3
sba(isrc.gp1.models.Per36Minutes
Per36Minutes
p426
(dp427
g8
g3
sg9
g3
sg10
S'.363'
p428
sg12
S'3.9'
p429
sg14
g3
sg15
g3
sg16
S'6.9'
p430
sg18
S'PF'
p431
sg20
S'.629'
p432
sg24
S'NBA'
p433
sg26
g3
sg27
S'6.5'
p434
sg29
S'4.2'
p435
sg31
S'3.5'
p436
sg33
S'7.5'
p437
sg34
S'28'
p438
sg36
S'TOT'
p439
sg38
S'69'
p440
sg40
g3
sg41
S'2.4'
p441
sg43
S'2.2'
p442
sg45
S'6.5'
p443
sg47
g3
sg48
S'1952-53'
p444
sg50
S'2.4'
p445
sg52
g3
sg53
S'.363'
p446
sg55
S'1424'
p447
sg56
g3
sba(isrc.gp1.models.Per36Minutes
Per36Minutes
p448
(dp449
g8
g3
sg9
g3
sg10
S'.330'
p450
sg12
S'4.0'
p451
sg14
g3
sg15
g3
sg16
S'6.6'
p452
sg18
g3
sg20
S'.616'
p453
sg24
S'NBA'
p454
sg26
g3
sg27
S'6.6'
p455
sg29
S'4.3'
p456
sg31
S'3.6'
p457
sg33
S'7.6'
p458
sg34
S'28'
p459
sg36
S'FTW'
p460
sg38
S'52'
p461
sg40
g3
sg41
S'2.2'
p462
sg43
S'2.2'
p463
sg45
S'6.6'
p464
sg47
g3
sg48
S'1952-53'
p465
sg50
S'2.2'
p466
sg52
g3
sg53
S'.330'
p467
sg55
S'982'
p468
sg56
g3
sba(isrc.gp1.models.Per36Minutes
Per36Minutes
p469
(dp470
g8
g3
sg9
g3
sg10
S'.442'
p471
sg12
S'3.9'
p472
sg14
g3
sg15
g3
sg16
S'7.7'
p473
sg18
S'PF'
p474
sg20
S'.659'
p475
sg24
S'NBA'
p476
sg26
g3
sg27
S'6.3'
p477
sg29
S'3.9'
p478
sg31
S'3.3'
p479
sg33
S'7.2'
p480
sg34
S'28'
p481
sg36
S'BLB'
p482
sg38
S'17'
p483
sg40
g3
sg41
S'2.8'
p484
sg43
S'2.2'
p485
sg45
S'6.3'
p486
sg47
g3
sg48
S'1952-53'
p487
sg50
S'2.8'
p488
sg52
g3
sg53
S'.442'
p489
sg55
S'442'
p490
sg56
g3
sbasS'_fromYear'
p491
S'1950'
p492
sS'_url'
p493
S'http://www.basketball-reference.com/players/k/kerrija01.html'
p494
sS'_perGame'
p495
(isrc.gp1.models.PerGame
PerGame
p496
(dp497
g8
g3
sg9
g3
sg10
S'.442'
p498
sS'_effectiveFieldGalPercentage'
p499
S'.442'
p500
sg12
S'2.8'
p501
sg14
g3
sg15
g3
sg16
S'5.6'
p502
sg18
S'PF'
p503
sg20
S'.659'
p504
sg24
S'NBA'
p505
sg26
g3
sg29
S'2.8'
p506
sS'_fieldGoalsttempted'
p507
S'4.5'
p508
sg31
S'2.4'
p509
sg33
S'5.2'
p510
sg34
S'28'
p511
sg36
S'BLB'
p512
sg38
S'17'
p513
sg40
g3
sg41
S'2.0'
p514
sg43
S'1.6'
p515
sg45
S'4.5'
p516
sg47
g3
sg48
S'1952-53'
p517
sg50
S'2.0'
p518
sg52
g3
sg53
S'.442'
p519
sg55
S'26.0'
p520
sg56
g3
sbsS'_weight'
p521
S'215'
p522
sS'_dob'
p523
S'30-1-1925'
p524
sS'_salary'
p525
(lp526
sg18
S'F-C'
p527
sb.