(isrc.gp1.models.Player
Player
p0
(dp1
S'_experience'
p2
S'NA'
p3
sS'_totals'
p4
(lp5
(isrc.gp1.models.Totals
Totals
p6
(dp7
S'_offensiveRebounds'
p8
S'7'
p9
sS'_threePointsAttempted'
p10
S'1'
p11
sS'_fieldGoalsPercentage'
p12
S'.429'
p13
sS'_assist'
p14
S'3'
p15
sS'_threePointsPercentage'
p16
S'.000'
p17
sS'_threePoints'
p18
S'0'
p19
sS'_points'
p20
S'13'
p21
sS'_position'
p22
S'C'
p23
sS'_freeThrowsPercentage'
p24
S'.500'
p25
sS'_effectiveFieldGoalPercentage'
p26
S'.429'
p27
sS'_league'
p28
S'NBA'
p29
sS'_steals'
p30
g19
sS'_fieldGoalsAttempted'
p31
S'14'
p32
sS'_personalFouls'
p33
S'11'
p34
sS'_freeThrowsAttempted'
p35
S'2'
p36
sS'_totalRebounds'
p37
S'13'
p38
sS'_age'
p39
S'22'
p40
sS'_team'
p41
S'POR'
p42
sS'_games'
p43
S'14'
p44
sS'_blocks'
p45
g36
sS'_twoPoints'
p46
S'6'
p47
sS'_freeThrows'
p48
g11
sS'_twoPointsAttempted'
p49
S'13'
p50
sS'_defensiveRebounds'
p51
g47
sS'_season'
p52
S'1993-94'
p53
sS'_fieldGoals'
p54
g47
sS'_turnOvers'
p55
S'5'
p56
sS'_twoPointsPercentage'
p57
S'.462'
p58
sS'_minutesPlayed'
p59
S'58'
p60
sS'_gamesStarted'
p61
g19
sbasS'_college'
p62
S'North Carolina State University'
p63
sS'_toYear'
p64
S'1994'
p65
sS'_height'
p66
S'6-11'
p67
sS'_active'
p68
I00
sS'_shootingHand'
p69
VRight
p70
sS'_name'
p71
S'Kevin Thompson'
p72
sS'_per100Possessions'
p73
(lp74
(isrc.gp1.models.Per100Possession
Per100Possession
p75
(dp76
g8
S'5.9'
p77
sg10
S'0.8'
p78
sg12
S'.429'
p79
sS'_offensiveRating'
p80
S'87'
p81
sg14
S'2.5'
p82
sg16
S'.000'
p83
sg18
S'0.0'
p84
sg20
S'10.9'
p85
sg22
g23
sS'_defensiveRating'
p86
S'109'
p87
sg24
S'.500'
p88
sg28
S'NBA'
p89
sg30
S'0.0'
p90
sg31
S'11.7'
p91
sg33
S'9.2'
p92
sg35
S'1.7'
p93
sg37
S'10.9'
p94
sg39
S'22'
p95
sg41
S'POR'
p96
sg43
S'14'
p97
sg45
S'1.7'
p98
sg46
S'5.0'
p99
sg48
S'0.8'
p100
sg49
S'10.9'
p101
sg51
S'5.0'
p102
sg52
S'1993-94'
p103
sg54
S'5.0'
p104
sg55
S'4.2'
p105
sg57
S'.462'
p106
sg59
S'58'
p107
sg61
g19
sbasS'_advanced'
p108
(lp109
(isrc.gp1.models.Advanced
Advanced
p110
(dp111
S'_offensiveReboundPercentage'
p112
S'12.6'
p113
sS'_turnOverPercentage'
p114
S'25.2'
p115
sS'_winSharesPer48Minutes'
p116
S'-0.016'
p117
sS'_stealPercentage'
p118
S'0.0'
p119
sS'_usagePercentage'
p120
S'14.0'
p121
sS'_totalReboundsPercentage'
p122
S'12.2'
p123
sS'_defensiveBoxPlusMinus'
p124
S'-0.6'
p125
sg22
g23
sS'_valueOverReplacementPlayer'
p126
S'-0.1'
p127
sS'_trueShootingPercentage'
p128
S'.437'
p129
sS'_defensiveReboundPercentage'
p130
S'11.8'
p131
sS'_freeThrowsAttempRate'
p132
S'.143'
p133
sS'_threePointsAttempRate'
p134
S'.071'
p135
sg28
S'NBA'
p136
sS'_offensiveBoxPlusMinues'
p137
S'-4.9'
p138
sS'_assistPercentage'
p139
S'6.9'
p140
sS'_defensiveWinShares'
p141
S'0.0'
p142
sg39
S'22'
p143
sg41
S'POR'
p144
sg43
S'14'
p145
sS'_blockPercentage'
p146
S'2.2'
p147
sS'_playerEfficiencyRating'
p148
S'4.9'
p149
sS'_offensiveWinShares'
p150
S'-0.1'
p151
sg59
S'58'
p152
sS'_boxPlusMinus'
p153
S'-5.6'
p154
sg52
S'1993-94'
p155
sS'_winShares'
p156
S'0.0'
p157
sbasS'_per36Minutes'
p158
(lp159
(isrc.gp1.models.Per36Minutes
Per36Minutes
p160
(dp161
g8
S'4.3'
p162
sg10
S'0.6'
p163
sg12
S'.429'
p164
sg14
S'1.9'
p165
sg16
S'.000'
p166
sg18
S'0.0'
p167
sg20
S'8.1'
p168
sg22
g23
sg24
S'.500'
p169
sg28
S'NBA'
p170
sg30
S'0.0'
p171
sg31
S'8.7'
p172
sg33
S'6.8'
p173
sg35
S'1.2'
p174
sg37
S'8.1'
p175
sg39
S'22'
p176
sg41
S'POR'
p177
sg43
S'14'
p178
sg45
S'1.2'
p179
sg46
S'3.7'
p180
sg48
S'0.6'
p181
sg49
S'8.1'
p182
sg51
S'3.7'
p183
sg52
S'1993-94'
p184
sg54
S'3.7'
p185
sg55
S'3.1'
p186
sg57
S'.462'
p187
sg59
S'58'
p188
sg61
g19
sbasS'_fromYear'
p189
S'1994'
p190
sS'_url'
p191
S'http://www.basketball-reference.com/players/t/thompke01.html'
p192
sS'_perGame'
p193
(isrc.gp1.models.PerGame
PerGame
p194
(dp195
g8
S'0.5'
p196
sg10
S'0.1'
p197
sg12
S'.429'
p198
sS'_effectiveFieldGalPercentage'
p199
S'.429'
p200
sg14
S'0.2'
p201
sg16
S'.000'
p202
sg18
S'0.0'
p203
sg20
S'0.9'
p204
sg22
g23
sg24
S'.500'
p205
sg28
S'NBA'
p206
sg30
S'0.0'
p207
sg33
S'0.8'
p208
sS'_fieldGoalsttempted'
p209
S'1.0'
p210
sg35
S'0.1'
p211
sg37
S'0.9'
p212
sg39
S'22'
p213
sg41
S'POR'
p214
sg43
S'14'
p215
sg45
S'0.1'
p216
sg46
S'0.4'
p217
sg48
S'0.1'
p218
sg49
S'0.9'
p219
sg51
S'0.4'
p220
sg52
S'1993-94'
p221
sg54
S'0.4'
p222
sg55
S'0.4'
p223
sg57
S'.462'
p224
sg59
S'4.1'
p225
sg61
g19
sbsS'_weight'
p226
S'260'
p227
sS'_dob'
p228
S'7-2-1971'
p229
sS'_salary'
p230
(lp231
(isrc.gp1.models.Salary
Salary
p232
(dp233
g41
S'Portland Trail Blazers'
p234
sg28
S'NBA'
p235
sg230
S'$150,000'
p236
sg52
S'1993-94'
p237
sbasg22
S'C-F'
p238
sb.