(isrc.gp1.models.Player
Player
p0
(dp1
S'_experience'
p2
S'NA'
p3
sS'_totals'
p4
(lp5
(isrc.gp1.models.Totals
Totals
p6
(dp7
S'_offensiveRebounds'
p8
S'18'
p9
sS'_threePointsAttempted'
p10
S'2'
p11
sS'_fieldGoalsPercentage'
p12
S'.322'
p13
sS'_assist'
p14
S'14'
p15
sS'_threePointsPercentage'
p16
S'.000'
p17
sS'_threePoints'
p18
S'0'
p19
sS'_points'
p20
S'67'
p21
sS'_position'
p22
S'SG'
p23
sS'_freeThrowsPercentage'
p24
S'.647'
p25
sS'_effectiveFieldGoalPercentage'
p26
S'.322'
p27
sS'_league'
p28
S'NBA'
p29
sS'_steals'
p30
S'10'
p31
sS'_fieldGoalsAttempted'
p32
S'87'
p33
sS'_personalFouls'
p34
S'45'
p35
sS'_freeThrowsAttempted'
p36
S'17'
p37
sS'_totalRebounds'
p38
S'29'
p39
sS'_age'
p40
S'23'
p41
sS'_team'
p42
S'LAL'
p43
sS'_games'
p44
S'36'
p45
sS'_blocks'
p46
g11
sS'_twoPoints'
p47
S'28'
p48
sS'_freeThrows'
p49
S'11'
p50
sS'_twoPointsAttempted'
p51
S'85'
p52
sS'_defensiveRebounds'
p53
S'11'
p54
sS'_season'
p55
S'1981-82'
p56
sS'_fieldGoals'
p57
S'28'
p58
sS'_turnOvers'
p59
S'20'
p60
sS'_twoPointsPercentage'
p61
S'.329'
p62
sS'_minutesPlayed'
p63
S'237'
p64
sS'_gamesStarted'
p65
g19
sba(isrc.gp1.models.Totals
Totals
p66
(dp67
g8
g3
sg10
g3
sg12
g3
sg14
g3
sg16
g3
sg18
g3
sg20
g3
sg22
g3
sg24
g3
sg26
g3
sg28
g3
sg30
g3
sg32
g3
sg34
g3
sg36
g3
sg38
g3
sg40
S'24'
p68
sg42
S'Did Not Play\xc2\xa0(other pro league\xe2\x80\x94CBA)'
p69
sg44
g3
sg46
g3
sg47
g3
sg49
g3
sg51
g3
sg53
g3
sg55
S'1982-83'
p70
sg57
g3
sg59
g3
sg61
g3
sg63
g3
sg65
g3
sba(isrc.gp1.models.Totals
Totals
p71
(dp72
g8
S'30'
p73
sg10
S'17'
p74
sg12
S'.410'
p75
sg14
S'114'
p76
sg16
S'.176'
p77
sg18
S'3'
p78
sg20
S'387'
p79
sg22
S'SG'
p80
sg24
S'.816'
p81
sg26
S'.414'
p82
sg28
S'NBA'
p83
sg30
S'46'
p84
sg32
S'371'
p85
sg34
S'133'
p86
sg36
S'98'
p87
sg38
S'95'
p88
sg40
S'25'
p89
sg42
S'IND'
p90
sg44
S'61'
p91
sg46
S'5'
p92
sg47
S'149'
p93
sg49
S'80'
p94
sg51
S'354'
p95
sg53
S'65'
p96
sg55
S'1983-84'
p97
sg57
S'152'
p98
sg59
S'62'
p99
sg61
S'.421'
p100
sg63
S'923'
p101
sg65
S'13'
p102
sba(isrc.gp1.models.Totals
Totals
p103
(dp104
g8
S'20'
p105
sg10
S'13'
p106
sg12
S'.455'
p107
sg14
S'58'
p108
sg16
S'.385'
p109
sg18
g92
sg20
S'165'
p110
sg22
S'SG'
p111
sg24
S'.884'
p112
sg26
S'.474'
p113
sg28
S'NBA'
p114
sg30
S'30'
p115
sg32
S'134'
p116
sg34
S'63'
p117
sg36
S'43'
p118
sg38
S'49'
p119
sg40
S'26'
p120
sg42
S'NJN'
p121
sg44
S'29'
p122
sg46
S'7'
p123
sg47
S'56'
p124
sg49
S'38'
p125
sg51
S'121'
p126
sg53
S'29'
p127
sg55
S'1984-85'
p128
sg57
S'61'
p129
sg59
S'32'
p130
sg61
S'.463'
p131
sg63
S'535'
p132
sg65
g123
sba(isrc.gp1.models.Totals
Totals
p133
(dp134
g8
S'9'
p135
sg10
S'75'
p136
sg12
S'.367'
p137
sg14
S'23'
p138
sg16
S'.360'
p139
sg18
S'27'
p140
sg20
S'174'
p141
sg22
S'SG'
p142
sg24
S'.833'
p143
sg26
S'.449'
p144
sg28
S'NBA'
p145
sg30
S'29'
p146
sg32
S'166'
p147
sg34
S'54'
p148
sg36
S'30'
p149
sg38
S'36'
p150
sg40
S'27'
p151
sg42
S'WSB'
p152
sg44
S'30'
p153
sg46
g11
sg47
S'34'
p154
sg49
S'25'
p155
sg51
S'91'
p156
sg53
S'27'
p157
sg55
S'1985-86'
p158
sg57
S'61'
p159
sg59
S'18'
p160
sg61
S'.374'
p161
sg63
S'430'
p162
sg65
S'1'
p163
sba(isrc.gp1.models.Totals
Totals
p164
(dp165
g8
S'21'
p166
sg10
S'124'
p167
sg12
S'.454'
p168
sg14
S'93'
p169
sg16
S'.419'
p170
sg18
S'52'
p171
sg20
S'401'
p172
sg22
S'SG'
p173
sg24
S'.754'
p174
sg26
S'.531'
p175
sg28
S'NBA'
p176
sg30
S'54'
p177
sg32
S'337'
p178
sg34
S'141'
p179
sg36
S'57'
p180
sg38
S'77'
p181
sg40
S'28'
p182
sg42
S'NJN'
p183
sg44
S'56'
p184
sg46
g123
sg47
S'101'
p185
sg49
S'43'
p186
sg51
S'213'
p187
sg53
S'56'
p188
sg55
S'1986-87'
p189
sg57
S'153'
p190
sg59
S'53'
p191
sg61
S'.474'
p192
sg63
S'942'
p193
sg65
g78
sba(isrc.gp1.models.Totals
Totals
p194
(dp195
g8
S'4'
p196
sg10
S'50'
p197
sg12
S'.394'
p198
sg14
S'40'
p199
sg16
S'.320'
p200
sg18
S'16'
p201
sg20
S'126'
p202
sg22
S'SG'
p203
sg24
S'.960'
p204
sg26
S'.468'
p205
sg28
S'NBA'
p206
sg30
S'15'
p207
sg32
S'109'
p208
sg34
S'55'
p209
sg36
S'25'
p210
sg38
S'31'
p211
sg40
S'29'
p212
sg42
S'NJN'
p213
sg44
S'31'
p214
sg46
g11
sg47
S'27'
p215
sg49
S'24'
p216
sg51
S'59'
p217
sg53
S'27'
p218
sg55
S'1987-88'
p219
sg57
S'43'
p220
sg59
S'19'
p221
sg61
S'.458'
p222
sg63
S'393'
p223
sg65
g11
sbasS'_college'
p224
S'Creighton University'
p225
sS'_toYear'
p226
S'1988'
p227
sS'_height'
p228
S'6-5'
p229
sS'_active'
p230
I00
sS'_shootingHand'
p231
VRight
p232
sS'_name'
p233
S'Kevin McKenna'
p234
sS'_per100Possessions'
p235
(lp236
(isrc.gp1.models.Per100Possession
Per100Possession
p237
(dp238
g8
S'3.5'
p239
sg10
S'0.4'
p240
sg12
S'.322'
p241
sS'_offensiveRating'
p242
S'78'
p243
sg14
S'2.8'
p244
sg16
S'.000'
p245
sg18
S'0.0'
p246
sg20
S'13.2'
p247
sg22
S'SG'
p248
sS'_defensiveRating'
p249
S'109'
p250
sg24
S'.647'
p251
sg28
S'NBA'
p252
sg30
S'2.0'
p253
sg32
S'17.1'
p254
sg34
S'8.8'
p255
sg36
S'3.3'
p256
sg38
S'5.7'
p257
sg40
S'23'
p258
sg42
S'LAL'
p259
sg44
S'36'
p260
sg46
S'0.4'
p261
sg47
S'5.5'
p262
sg49
S'2.2'
p263
sg51
S'16.7'
p264
sg53
S'2.2'
p265
sg55
S'1981-82'
p266
sg57
S'5.5'
p267
sg59
S'3.9'
p268
sg61
S'.329'
p269
sg63
S'237'
p270
sg65
g19
sba(isrc.gp1.models.Per100Possession
Per100Possession
p271
(dp272
g8
S'1.5'
p273
sg10
S'0.9'
p274
sg12
S'.410'
p275
sg242
S'96'
p276
sg14
S'5.8'
p277
sg16
S'.176'
p278
sg18
S'0.2'
p279
sg20
S'19.7'
p280
sg22
S'SG'
p281
sg249
S'108'
p282
sg24
S'.816'
p283
sg28
S'NBA'
p284
sg30
S'2.3'
p285
sg32
S'18.9'
p286
sg34
S'6.8'
p287
sg36
S'5.0'
p288
sg38
S'4.8'
p289
sg40
S'25'
p290
sg42
S'IND'
p291
sg44
S'61'
p292
sg46
S'0.3'
p293
sg47
S'7.6'
p294
sg49
S'4.1'
p295
sg51
S'18.0'
p296
sg53
S'3.3'
p297
sg55
S'1983-84'
p298
sg57
S'7.7'
p299
sg59
S'3.2'
p300
sg61
S'.421'
p301
sg63
S'923'
p302
sg65
S'13'
p303
sba(isrc.gp1.models.Per100Possession
Per100Possession
p304
(dp305
g8
S'1.8'
p306
sg10
S'1.2'
p307
sg12
S'.455'
p308
sg242
S'108'
p309
sg14
S'5.1'
p310
sg16
S'.385'
p311
sg18
S'0.4'
p312
sg20
S'14.7'
p313
sg22
S'SG'
p314
sg249
S'108'
p315
sg24
S'.884'
p316
sg28
S'NBA'
p317
sg30
S'2.7'
p318
sg32
S'11.9'
p319
sg34
S'5.6'
p320
sg36
S'3.8'
p321
sg38
S'4.4'
p322
sg40
S'26'
p323
sg42
S'NJN'
p324
sg44
S'29'
p325
sg46
S'0.6'
p326
sg47
S'5.0'
p327
sg49
S'3.4'
p328
sg51
S'10.7'
p329
sg53
S'2.6'
p330
sg55
S'1984-85'
p331
sg57
S'5.4'
p332
sg59
S'2.8'
p333
sg61
S'.463'
p334
sg63
S'535'
p335
sg65
g123
sba(isrc.gp1.models.Per100Possession
Per100Possession
p336
(dp337
g8
S'1.0'
p338
sg10
S'8.5'
p339
sg12
S'.367'
p340
sg242
S'100'
p341
sg14
S'2.6'
p342
sg16
S'.360'
p343
sg18
S'3.0'
p344
sg20
S'19.6'
p345
sg22
S'SG'
p346
sg249
S'105'
p347
sg24
S'.833'
p348
sg28
S'NBA'
p349
sg30
S'3.3'
p350
sg32
S'18.7'
p351
sg34
S'6.1'
p352
sg36
S'3.4'
p353
sg38
S'4.1'
p354
sg40
S'27'
p355
sg42
S'WSB'
p356
sg44
S'30'
p357
sg46
S'0.2'
p358
sg47
S'3.8'
p359
sg49
S'2.8'
p360
sg51
S'10.3'
p361
sg53
S'3.0'
p362
sg55
S'1985-86'
p363
sg57
S'6.9'
p364
sg59
S'2.0'
p365
sg61
S'.374'
p366
sg63
S'430'
p367
sg65
g163
sba(isrc.gp1.models.Per100Possession
Per100Possession
p368
(dp369
g8
S'1.1'
p370
sg10
S'6.2'
p371
sg12
S'.454'
p372
sg242
S'110'
p373
sg14
S'4.7'
p374
sg16
S'.419'
p375
sg18
S'2.6'
p376
sg20
S'20.1'
p377
sg22
S'SG'
p378
sg249
S'111'
p379
sg24
S'.754'
p380
sg28
S'NBA'
p381
sg30
S'2.7'
p382
sg32
S'16.9'
p383
sg34
S'7.1'
p384
sg36
S'2.9'
p385
sg38
S'3.9'
p386
sg40
S'28'
p387
sg42
S'NJN'
p388
sg44
S'56'
p389
sg46
S'0.4'
p390
sg47
S'5.1'
p391
sg49
S'2.2'
p392
sg51
S'10.7'
p393
sg53
S'2.8'
p394
sg55
S'1986-87'
p395
sg57
S'7.7'
p396
sg59
S'2.7'
p397
sg61
S'.474'
p398
sg63
S'942'
p399
sg65
g78
sba(isrc.gp1.models.Per100Possession
Per100Possession
p400
(dp401
g8
S'0.5'
p402
sg10
S'6.2'
p403
sg12
S'.394'
p404
sg242
S'107'
p405
sg14
S'5.0'
p406
sg16
S'.320'
p407
sg18
S'2.0'
p408
sg20
S'15.6'
p409
sg22
S'SG'
p410
sg249
S'111'
p411
sg24
S'.960'
p412
sg28
S'NBA'
p413
sg30
S'1.9'
p414
sg32
S'13.5'
p415
sg34
S'6.8'
p416
sg36
S'3.1'
p417
sg38
S'3.8'
p418
sg40
S'29'
p419
sg42
S'NJN'
p420
sg44
S'31'
p421
sg46
S'0.2'
p422
sg47
S'3.3'
p423
sg49
S'3.0'
p424
sg51
S'7.3'
p425
sg53
S'3.3'
p426
sg55
S'1987-88'
p427
sg57
S'5.3'
p428
sg59
S'2.4'
p429
sg61
S'.458'
p430
sg63
S'393'
p431
sg65
g11
sbasS'_advanced'
p432
(lp433
(isrc.gp1.models.Advanced
Advanced
p434
(dp435
S'_offensiveReboundPercentage'
p436
S'8.6'
p437
sS'_turnOverPercentage'
p438
S'17.5'
p439
sS'_winSharesPer48Minutes'
p440
S'-0.069'
p441
sS'_stealPercentage'
p442
S'2.0'
p443
sS'_usagePercentage'
p444
S'19.2'
p445
sS'_totalReboundsPercentage'
p446
S'6.7'
p447
sS'_defensiveBoxPlusMinus'
p448
S'-1.6'
p449
sg22
S'SG'
p450
sS'_valueOverReplacementPlayer'
p451
S'-0.3'
p452
sS'_trueShootingPercentage'
p453
S'.355'
p454
sS'_defensiveReboundPercentage'
p455
S'4.9'
p456
sS'_freeThrowsAttempRate'
p457
S'.195'
p458
sS'_threePointsAttempRate'
p459
S'.023'
p460
sg28
S'NBA'
p461
sS'_offensiveBoxPlusMinues'
p462
S'-6.3'
p463
sS'_assistPercentage'
p464
S'6.8'
p465
sS'_defensiveWinShares'
p466
S'0.2'
p467
sg40
S'23'
p468
sg42
S'LAL'
p469
sg44
S'36'
p470
sS'_blockPercentage'
p471
S'0.4'
p472
sS'_playerEfficiencyRating'
p473
S'2.8'
p474
sS'_offensiveWinShares'
p475
S'-0.5'
p476
sg63
S'237'
p477
sS'_boxPlusMinus'
p478
S'-7.8'
p479
sg55
S'1981-82'
p480
sS'_winShares'
p481
S'-0.3'
p482
sba(isrc.gp1.models.Advanced
Advanced
p483
(dp484
g436
S'3.6'
p485
sg438
S'13.0'
p486
sg440
S'.031'
p487
sg442
S'2.3'
p488
sg444
S'21.3'
p489
sg446
S'5.7'
p490
sg448
S'-1.2'
p491
sg22
S'SG'
p492
sg451
S'-0.5'
p493
sg453
S'.467'
p494
sg455
S'7.8'
p495
sg457
S'.264'
p496
sg459
S'.046'
p497
sg28
S'NBA'
p498
sg462
S'-2.9'
p499
sg464
S'17.5'
p500
sg466
S'1.0'
p501
sg40
S'25'
p502
sg42
S'IND'
p503
sg44
S'61'
p504
sg471
S'0.3'
p505
sg473
S'10.8'
p506
sg475
S'-0.3'
p507
sg63
S'923'
p508
sg478
S'-4.1'
p509
sg55
S'1983-84'
p510
sg481
S'0.6'
p511
sba(isrc.gp1.models.Advanced
Advanced
p512
(dp513
g436
S'4.1'
p514
sg438
S'17.3'
p515
sg440
S'.082'
p516
sg442
S'2.7'
p517
sg444
S'14.0'
p518
sg446
S'5.1'
p519
sg448
S'0.5'
p520
sg22
S'SG'
p521
sg451
S'0.1'
p522
sg453
S'.539'
p523
sg455
S'6.3'
p524
sg457
S'.321'
p525
sg459
S'.097'
p526
sg28
S'NBA'
p527
sg462
S'-1.4'
p528
sg464
S'13.4'
p529
sg466
S'0.5'
p530
sg40
S'26'
p531
sg42
S'NJN'
p532
sg44
S'29'
p533
sg471
S'0.8'
p534
sg473
S'10.9'
p535
sg475
S'0.4'
p536
sg63
S'535'
p537
sg478
S'-0.9'
p538
sg55
S'1984-85'
p539
sg481
S'0.9'
p540
sba(isrc.gp1.models.Advanced
Advanced
p541
(dp542
g436
S'2.3'
p543
sg438
S'9.1'
p544
sg440
S'.073'
p545
sg442
S'3.3'
p546
sg444
S'19.2'
p547
sg446
S'4.5'
p548
sg448
S'-0.7'
p549
sg22
S'SG'
p550
sg451
S'0.1'
p551
sg453
S'.485'
p552
sg455
S'6.8'
p553
sg457
S'.181'
p554
sg459
S'.452'
p555
sg28
S'NBA'
p556
sg462
S'-0.5'
p557
sg464
S'7.7'
p558
sg466
S'0.6'
p559
sg40
S'27'
p560
sg42
S'WSB'
p561
sg44
S'30'
p562
sg471
S'0.3'
p563
sg473
S'10.9'
p564
sg475
S'0.1'
p565
sg63
S'430'
p566
sg478
S'-1.2'
p567
sg55
S'1985-86'
p568
sg481
S'0.7'
p569
sba(isrc.gp1.models.Advanced
Advanced
p570
(dp571
g436
S'2.5'
p572
sg438
S'12.8'
p573
sg440
S'.087'
p574
sg442
S'2.7'
p575
sg444
S'17.8'
p576
sg446
S'4.6'
p577
sg448
S'-0.9'
p578
sg22
S'SG'
p579
sg451
S'0.5'
p580
sg453
S'.554'
p581
sg455
S'6.7'
p582
sg457
S'.169'
p583
sg459
S'.368'
p584
sg28
S'NBA'
p585
sg462
S'1.0'
p586
sg464
S'14.4'
p587
sg466
S'0.7'
p588
sg40
S'28'
p589
sg42
S'NJN'
p590
sg44
S'56'
p591
sg471
S'0.4'
p592
sg473
S'12.1'
p593
sg475
S'1.0'
p594
sg63
S'942'
p595
sg478
S'0.0'
p596
sg55
S'1986-87'
p597
sg481
S'1.7'
p598
sba(isrc.gp1.models.Advanced
Advanced
p599
(dp600
g436
S'1.1'
p601
sg438
S'13.7'
p602
sg440
S'.061'
p603
sg442
S'1.9'
p604
sg444
S'14.9'
p605
sg446
S'4.6'
p606
sg448
S'-1.6'
p607
sg22
S'SG'
p608
sg451
S'-0.1'
p609
sg453
S'.525'
p610
sg455
S'8.2'
p611
sg457
S'.229'
p612
sg459
S'.459'
p613
sg28
S'NBA'
p614
sg462
S'-1.6'
p615
sg464
S'14.5'
p616
sg466
S'0.2'
p617
sg40
S'29'
p618
sg42
S'NJN'
p619
sg44
S'31'
p620
sg471
S'0.3'
p621
sg473
S'9.2'
p622
sg475
S'0.2'
p623
sg63
S'393'
p624
sg478
S'-3.2'
p625
sg55
S'1987-88'
p626
sg481
S'0.5'
p627
sbasS'_per36Minutes'
p628
(lp629
(isrc.gp1.models.Per36Minutes
Per36Minutes
p630
(dp631
g8
S'2.7'
p632
sg10
S'0.3'
p633
sg12
S'.322'
p634
sg14
S'2.1'
p635
sg16
S'.000'
p636
sg18
S'0.0'
p637
sg20
S'10.2'
p638
sg22
S'SG'
p639
sg24
S'.647'
p640
sg28
S'NBA'
p641
sg30
S'1.5'
p642
sg32
S'13.2'
p643
sg34
S'6.8'
p644
sg36
S'2.6'
p645
sg38
S'4.4'
p646
sg40
S'23'
p647
sg42
S'LAL'
p648
sg44
S'36'
p649
sg46
S'0.3'
p650
sg47
S'4.3'
p651
sg49
S'1.7'
p652
sg51
S'12.9'
p653
sg53
S'1.7'
p654
sg55
S'1981-82'
p655
sg57
S'4.3'
p656
sg59
S'3.0'
p657
sg61
S'.329'
p658
sg63
S'237'
p659
sg65
g19
sba(isrc.gp1.models.Per36Minutes
Per36Minutes
p660
(dp661
g8
S'1.2'
p662
sg10
S'0.7'
p663
sg12
S'.410'
p664
sg14
S'4.4'
p665
sg16
S'.176'
p666
sg18
S'0.1'
p667
sg20
S'15.1'
p668
sg22
S'SG'
p669
sg24
S'.816'
p670
sg28
S'NBA'
p671
sg30
S'1.8'
p672
sg32
S'14.5'
p673
sg34
S'5.2'
p674
sg36
S'3.8'
p675
sg38
S'3.7'
p676
sg40
S'25'
p677
sg42
S'IND'
p678
sg44
S'61'
p679
sg46
S'0.2'
p680
sg47
S'5.8'
p681
sg49
S'3.1'
p682
sg51
S'13.8'
p683
sg53
S'2.5'
p684
sg55
S'1983-84'
p685
sg57
S'5.9'
p686
sg59
S'2.4'
p687
sg61
S'.421'
p688
sg63
S'923'
p689
sg65
S'13'
p690
sba(isrc.gp1.models.Per36Minutes
Per36Minutes
p691
(dp692
g8
S'1.3'
p693
sg10
S'0.9'
p694
sg12
S'.455'
p695
sg14
S'3.9'
p696
sg16
S'.385'
p697
sg18
S'0.3'
p698
sg20
S'11.1'
p699
sg22
S'SG'
p700
sg24
S'.884'
p701
sg28
S'NBA'
p702
sg30
S'2.0'
p703
sg32
S'9.0'
p704
sg34
S'4.2'
p705
sg36
S'2.9'
p706
sg38
S'3.3'
p707
sg40
S'26'
p708
sg42
S'NJN'
p709
sg44
S'29'
p710
sg46
S'0.5'
p711
sg47
S'3.8'
p712
sg49
S'2.6'
p713
sg51
S'8.1'
p714
sg53
S'2.0'
p715
sg55
S'1984-85'
p716
sg57
S'4.1'
p717
sg59
S'2.2'
p718
sg61
S'.463'
p719
sg63
S'535'
p720
sg65
g123
sba(isrc.gp1.models.Per36Minutes
Per36Minutes
p721
(dp722
g8
S'0.8'
p723
sg10
S'6.3'
p724
sg12
S'.367'
p725
sg14
S'1.9'
p726
sg16
S'.360'
p727
sg18
S'2.3'
p728
sg20
S'14.6'
p729
sg22
S'SG'
p730
sg24
S'.833'
p731
sg28
S'NBA'
p732
sg30
S'2.4'
p733
sg32
S'13.9'
p734
sg34
S'4.5'
p735
sg36
S'2.5'
p736
sg38
S'3.0'
p737
sg40
S'27'
p738
sg42
S'WSB'
p739
sg44
S'30'
p740
sg46
S'0.2'
p741
sg47
S'2.8'
p742
sg49
S'2.1'
p743
sg51
S'7.6'
p744
sg53
S'2.3'
p745
sg55
S'1985-86'
p746
sg57
S'5.1'
p747
sg59
S'1.5'
p748
sg61
S'.374'
p749
sg63
S'430'
p750
sg65
g163
sba(isrc.gp1.models.Per36Minutes
Per36Minutes
p751
(dp752
g8
S'0.8'
p753
sg10
S'4.7'
p754
sg12
S'.454'
p755
sg14
S'3.6'
p756
sg16
S'.419'
p757
sg18
S'2.0'
p758
sg20
S'15.3'
p759
sg22
S'SG'
p760
sg24
S'.754'
p761
sg28
S'NBA'
p762
sg30
S'2.1'
p763
sg32
S'12.9'
p764
sg34
S'5.4'
p765
sg36
S'2.2'
p766
sg38
S'2.9'
p767
sg40
S'28'
p768
sg42
S'NJN'
p769
sg44
S'56'
p770
sg46
S'0.3'
p771
sg47
S'3.9'
p772
sg49
S'1.6'
p773
sg51
S'8.1'
p774
sg53
S'2.1'
p775
sg55
S'1986-87'
p776
sg57
S'5.8'
p777
sg59
S'2.0'
p778
sg61
S'.474'
p779
sg63
S'942'
p780
sg65
g78
sba(isrc.gp1.models.Per36Minutes
Per36Minutes
p781
(dp782
g8
S'0.4'
p783
sg10
S'4.6'
p784
sg12
S'.394'
p785
sg14
S'3.7'
p786
sg16
S'.320'
p787
sg18
S'1.5'
p788
sg20
S'11.5'
p789
sg22
S'SG'
p790
sg24
S'.960'
p791
sg28
S'NBA'
p792
sg30
S'1.4'
p793
sg32
S'10.0'
p794
sg34
S'5.0'
p795
sg36
S'2.3'
p796
sg38
S'2.8'
p797
sg40
S'29'
p798
sg42
S'NJN'
p799
sg44
S'31'
p800
sg46
S'0.2'
p801
sg47
S'2.5'
p802
sg49
S'2.2'
p803
sg51
S'5.4'
p804
sg53
S'2.5'
p805
sg55
S'1987-88'
p806
sg57
S'3.9'
p807
sg59
S'1.7'
p808
sg61
S'.458'
p809
sg63
S'393'
p810
sg65
g11
sbasS'_fromYear'
p811
S'1982'
p812
sS'_url'
p813
S'http://www.basketball-reference.com/players/m/mckenke01.html'
p814
sS'_perGame'
p815
(isrc.gp1.models.PerGame
PerGame
p816
(dp817
g8
S'0.1'
p818
sg10
S'1.6'
p819
sg12
S'.394'
p820
sS'_effectiveFieldGalPercentage'
p821
S'.468'
p822
sg14
S'1.3'
p823
sg16
S'.320'
p824
sg18
S'0.5'
p825
sg20
S'4.1'
p826
sg22
S'SG'
p827
sg24
S'.960'
p828
sg28
S'NBA'
p829
sg30
S'0.5'
p830
sg34
S'1.8'
p831
sS'_fieldGoalsttempted'
p832
S'3.5'
p833
sg36
S'0.8'
p834
sg38
S'1.0'
p835
sg40
S'29'
p836
sg42
S'NJN'
p837
sg44
S'31'
p838
sg46
S'0.1'
p839
sg47
S'0.9'
p840
sg49
S'0.8'
p841
sg51
S'1.9'
p842
sg53
S'0.9'
p843
sg55
S'1987-88'
p844
sg57
S'1.4'
p845
sg59
S'0.6'
p846
sg61
S'.458'
p847
sg63
S'12.7'
p848
sg65
g11
sbsS'_weight'
p849
S'195'
p850
sS'_dob'
p851
S'8-1-1959'
p852
sS'_salary'
p853
(lp854
(isrc.gp1.models.Salary
Salary
p855
(dp856
g42
S'New Jersey Nets'
p857
sg28
S'NBA'
p858
sg853
S'$150,000'
p859
sg55
S'1987-88'
p860
sbasg22
S'G-F'
p861
sb.