(isrc.gp1.models.Player
Player
p0
(dp1
S'_experience'
p2
V1 year
p3
sS'_totals'
p4
(lp5
(isrc.gp1.models.Totals
Totals
p6
(dp7
S'_offensiveRebounds'
p8
S'40'
p9
sS'_threePointsAttempted'
p10
S'0'
p11
sS'_fieldGoalsPercentage'
p12
S'.402'
p13
sS'_assist'
p14
S'9'
p15
sS'_threePointsPercentage'
p16
S'43'
p17
sS'_threePoints'
p18
g11
sS'_points'
p19
S'NA'
p20
sS'_position'
p21
S'PF'
p22
sS'_freeThrowsPercentage'
p23
S'38'
p24
sS'_effectiveFieldGoalPercentage'
p25
g15
sS'_league'
p26
S'NBA'
p27
sS'_steals'
p28
S'5'
p29
sS'_fieldGoalsAttempted'
p30
S'107'
p31
sS'_personalFouls'
p32
S'95'
p33
sS'_freeThrowsAttempted'
p34
S'.600'
p35
sS'_totalRebounds'
p36
S'10'
p37
sS'_age'
p38
S'23'
p39
sS'_team'
p40
S'CLE'
p41
sS'_games'
p42
S'32'
p43
sS'_blocks'
p44
S'8'
p45
sS'_twoPoints'
p46
S'107'
p47
sS'_freeThrows'
p48
S'15'
p49
sS'_twoPointsAttempted'
p50
S'.402'
p51
sS'_defensiveRebounds'
p52
S'78'
p53
sS'_season'
p54
S'2012-13'
p55
sS'_fieldGoals'
p56
S'43'
p57
sS'_turnOvers'
p58
S'25'
p59
sS'_twoPointsPercentage'
p60
S'.402'
p61
sS'_minutesPlayed'
p62
S'334'
p63
sS'_gamesStarted'
p64
g11
sbasS'_college'
p65
S'West Virginia University'
p66
sS'_toYear'
p67
S'2013'
p68
sS'_height'
p69
S'6-8'
p70
sS'_active'
p71
I01
sS'_shootingHand'
p72
VRight
p73
sS'_name'
p74
S'Kevin Jones'
p75
sS'_per100Possessions'
p76
(lp77
(isrc.gp1.models.Per100Possession
Per100Possession
p78
(dp79
g8
S'6.2'
p80
sg10
S'0.0'
p81
sg12
S'.402'
p82
sS'_offensiveRating'
p83
S'110'
p84
sg14
S'1.4'
p85
sg16
S'6.7'
p86
sg18
S'0.0'
p87
sg19
S'99'
p88
sg21
S'PF'
p89
sS'_defensiveRating'
p90
g20
sg23
S'5.9'
p91
sg26
S'NBA'
p92
sg28
S'0.8'
p93
sg30
S'16.7'
p94
sg32
S'14.8'
p95
sg34
S'.600'
p96
sg36
S'1.6'
p97
sg38
S'23'
p98
sg40
S'CLE'
p99
sg42
S'32'
p100
sg44
S'1.2'
p101
sg46
S'16.7'
p102
sg48
S'2.3'
p103
sg50
S'.402'
p104
sg52
S'12.1'
p105
sg54
S'2012-13'
p106
sg56
S'6.7'
p107
sg58
S'3.9'
p108
sg60
S'1.4'
p109
sg62
S'334'
p110
sg64
g11
sbasS'_advanced'
p111
(lp112
(isrc.gp1.models.Advanced
Advanced
p113
(dp114
S'_offensiveReboundPercentage'
p115
S'12.6'
p116
sS'_turnOverPercentage'
p117
S'6.6'
p118
sS'_winSharesPer48Minutes'
p119
S'.032'
p120
sS'_stealPercentage'
p121
S'1.4'
p122
sS'_usagePercentage'
p123
S'16.2'
p124
sS'_totalReboundsPercentage'
p125
S'13.5'
p126
sS'_defensiveBoxPlusMinus'
p127
S'-1.8'
p128
sg21
S'PF'
p129
sS'_valueOverReplacementPlayer'
p130
S'-0.3'
p131
sS'_trueShootingPercentage'
p132
S'.418'
p133
sS'_defensiveReboundPercentage'
p134
S'14.5'
p135
sS'_freeThrowsAttempRate'
p136
S'.140'
p137
sS'_threePointsAttempRate'
p138
S'.000'
p139
sg26
S'NBA'
p140
sS'_offensiveBoxPlusMinues'
p141
S'-3.4'
p142
sS'_assistPercentage'
p143
S'4.8'
p144
sS'_defensiveWinShares'
p145
S'0.2'
p146
sg38
S'23'
p147
sg40
S'CLE'
p148
sg42
S'32'
p149
sS'_blockPercentage'
p150
S'1.2'
p151
sS'_playerEfficiencyRating'
p152
S'11.1'
p153
sS'_offensiveWinShares'
p154
S'0.1'
p155
sg62
S'334'
p156
sS'_boxPlusMinus'
p157
S'-5.2'
p158
sg54
S'2012-13'
p159
sS'_winShares'
p160
S'0.2'
p161
sbasS'_per36Minutes'
p162
(lp163
(isrc.gp1.models.Per36Minutes
Per36Minutes
p164
(dp165
g8
S'4.3'
p166
sg10
S'0.0'
p167
sg12
S'.402'
p168
sg14
S'1.0'
p169
sg16
S'4.6'
p170
sg18
S'0.0'
p171
sg19
g20
sg21
S'PF'
p172
sg23
S'4.1'
p173
sg26
S'NBA'
p174
sg28
S'0.5'
p175
sg30
S'11.5'
p176
sg32
S'10.2'
p177
sg34
S'.600'
p178
sg36
S'1.1'
p179
sg38
S'23'
p180
sg40
S'CLE'
p181
sg42
S'32'
p182
sg44
S'0.9'
p183
sg46
S'11.5'
p184
sg48
S'1.6'
p185
sg50
S'.402'
p186
sg52
S'8.4'
p187
sg54
S'2012-13'
p188
sg56
S'4.6'
p189
sg58
S'2.7'
p190
sg60
S'1.0'
p191
sg62
S'334'
p192
sg64
g11
sbasS'_fromYear'
p193
S'2013'
p194
sS'_url'
p195
S'http://www.basketball-reference.com/players/j/joneske01.html'
p196
sS'_perGame'
p197
(isrc.gp1.models.PerGame
PerGame
p198
(dp199
g8
S'1.3'
p200
sg10
S'0.0'
p201
sg12
S'.402'
p202
sS'_effectiveFieldGalPercentage'
p203
S'0.3'
p204
sg14
S'0.3'
p205
sg16
S'1.3'
p206
sg18
S'0.0'
p207
sg19
g20
sg21
S'PF'
p208
sg23
S'1.2'
p209
sg26
S'NBA'
p210
sg28
S'0.2'
p211
sg32
S'3.0'
p212
sS'_fieldGoalsttempted'
p213
S'3.3'
p214
sg34
S'.600'
p215
sg36
S'0.3'
p216
sg38
S'23'
p217
sg40
S'CLE'
p218
sg42
S'32'
p219
sg44
S'0.3'
p220
sg46
S'3.3'
p221
sg48
S'0.5'
p222
sg50
S'.402'
p223
sg52
S'2.4'
p224
sg54
S'2012-13'
p225
sg56
S'1.3'
p226
sg58
S'0.8'
p227
sg60
S'.402'
p228
sg62
S'10.4'
p229
sg64
g11
sbsS'_weight'
p230
S'251'
p231
sS'_dob'
p232
S'25-8-1989'
p233
sS'_salary'
p234
(lp235
(isrc.gp1.models.Salary
Salary
p236
(dp237
g40
S'Cleveland Cavaliers'
p238
sg26
S'NBA'
p239
sg234
S'$390,027'
p240
sg54
S'2012-13'
p241
sbasg21
S'F'
p242
sb.