(isrc.gp1.models.Player
Player
p0
(dp1
S'_experience'
p2
S'NA'
p3
sS'_totals'
p4
(lp5
(isrc.gp1.models.Totals
Totals
p6
(dp7
S'_offensiveRebounds'
p8
S'76'
p9
sS'_threePointsAttempted'
p10
S'1'
p11
sS'_fieldGoalsPercentage'
p12
S'.476'
p13
sS'_assist'
p14
S'29'
p15
sS'_threePointsPercentage'
p16
S'.000'
p17
sS'_threePoints'
p18
S'0'
p19
sS'_points'
p20
S'352'
p21
sS'_position'
p22
S'C'
p23
sS'_freeThrowsPercentage'
p24
S'.687'
p25
sS'_effectiveFieldGoalPercentage'
p26
S'.476'
p27
sS'_league'
p28
S'NBA'
p29
sS'_steals'
p30
S'21'
p31
sS'_fieldGoalsAttempted'
p32
S'273'
p33
sS'_personalFouls'
p34
S'192'
p35
sS'_freeThrowsAttempted'
p36
S'134'
p37
sS'_totalRebounds'
p38
S'223'
p39
sS'_age'
p40
S'22'
p41
sS'_team'
p42
S'TOT'
p43
sS'_games'
p44
S'65'
p45
sS'_blocks'
p46
S'21'
p47
sS'_twoPoints'
p48
S'130'
p49
sS'_freeThrows'
p50
S'92'
p51
sS'_twoPointsAttempted'
p52
S'272'
p53
sS'_defensiveRebounds'
p54
S'147'
p55
sS'_season'
p56
S'1986-87'
p57
sS'_fieldGoals'
p58
S'130'
p59
sS'_turnOvers'
p60
S'78'
p61
sS'_twoPointsPercentage'
p62
S'.478'
p63
sS'_minutesPlayed'
p64
S'875'
p65
sS'_gamesStarted'
p66
g11
sba(isrc.gp1.models.Totals
Totals
p67
(dp68
g8
S'18'
p69
sg10
g19
sg12
S'.400'
p70
sg14
S'5'
p71
sg16
S'18'
p72
sg18
g19
sg20
g3
sg22
g23
sg24
S'13'
p73
sg26
S'9'
p74
sg28
S'NBA'
p75
sg30
S'3'
p76
sg32
S'45'
p77
sg34
S'45'
p78
sg36
S'.643'
p79
sg38
S'6'
p80
sg40
S'22'
p81
sg42
S'SAS'
p82
sg44
S'14'
p83
sg46
S'4'
p84
sg48
S'45'
p85
sg50
S'14'
p86
sg52
S'.400'
p87
sg54
S'31'
p88
sg56
S'1986-87'
p89
sg58
S'18'
p90
sg60
S'27'
p91
sg62
S'.400'
p92
sg64
S'122'
p93
sg66
g11
sba(isrc.gp1.models.Totals
Totals
p94
(dp95
g8
S'63'
p96
sg10
g11
sg12
S'.491'
p97
sg14
S'23'
p98
sg16
S'.000'
p99
sg18
g19
sg20
S'307'
p100
sg22
g23
sg24
S'.692'
p101
sg26
S'.491'
p102
sg28
S'NBA'
p103
sg30
S'16'
p104
sg32
S'228'
p105
sg34
S'165'
p106
sg36
S'120'
p107
sg38
S'192'
p108
sg40
S'22'
p109
sg42
S'POR'
p110
sg44
S'51'
p111
sg46
S'18'
p112
sg48
S'112'
p113
sg50
S'83'
p114
sg52
S'227'
p115
sg54
S'129'
p116
sg56
S'1986-87'
p117
sg58
S'112'
p118
sg60
S'74'
p119
sg62
S'.493'
p120
sg64
S'753'
p121
sg66
g19
sba(isrc.gp1.models.Totals
Totals
p122
(dp123
g8
S'352'
p124
sg10
g19
sg12
S'.496'
p125
sg14
S'31'
p126
sg16
S'450'
p127
sg18
g19
sg20
g3
sg22
g23
sg24
S'224'
p128
sg26
S'331'
p129
sg28
S'NBA'
p130
sg30
S'32'
p131
sg32
S'907'
p132
sg34
S'1231'
p133
sg36
S'.770'
p134
sg38
S'66'
p135
sg40
S'23'
p136
sg42
S'POR'
p137
sg44
S'78'
p138
sg46
S'177'
p139
sg48
S'907'
p140
sg50
S'430'
p141
sg52
S'.496'
p142
sg54
S'576'
p143
sg56
S'1987-88'
p144
sg58
S'450'
p145
sg60
S'280'
p146
sg62
S'.496'
p147
sg64
S'2223'
p148
sg66
S'50'
p149
sba(isrc.gp1.models.Totals
Totals
p150
(dp151
g8
S'246'
p152
sg10
S'2'
p153
sg12
S'.477'
p154
sg14
S'60'
p155
sg16
S'.000'
p156
sg18
g19
sg20
S'1432'
p157
sg22
g23
sg24
S'.757'
p158
sg26
S'.477'
p159
sg28
S'NBA'
p160
sg30
S'56'
p161
sg32
S'1161'
p162
sg34
S'300'
p163
sg36
S'428'
p164
sg38
S'635'
p165
sg40
S'24'
p166
sg42
S'POR'
p167
sg44
S'79'
p168
sg46
S'49'
p169
sg48
S'554'
p170
sg50
S'324'
p171
sg52
S'1159'
p172
sg54
S'389'
p173
sg56
S'1988-89'
p174
sg58
S'554'
p175
sg60
S'200'
p176
sg62
S'.478'
p177
sg64
S'2662'
p178
sg66
S'79'
p179
sba(isrc.gp1.models.Totals
Totals
p180
(dp181
g8
S'325'
p182
sg10
g19
sg12
S'.478'
p183
sg14
S'36'
p184
sg16
S'548'
p185
sg18
g19
sg20
g3
sg22
g23
sg24
S'184'
p186
sg26
S'231'
p187
sg28
S'NBA'
p188
sg30
S'34'
p189
sg32
S'1146'
p190
sg34
S'1327'
p191
sg36
S'.740'
p192
sg38
S'91'
p193
sg40
S'25'
p194
sg42
S'POR'
p195
sg44
S'82'
p196
sg46
S'171'
p197
sg48
S'1146'
p198
sg50
S'312'
p199
sg52
S'.478'
p200
sg54
S'509'
p201
sg56
S'1989-90'
p202
sg58
S'548'
p203
sg60
S'271'
p204
sg62
S'.478'
p205
sg64
S'2462'
p206
sg66
S'82'
p207
sba(isrc.gp1.models.Totals
Totals
p208
(dp209
g8
S'177'
p210
sg10
g153
sg12
S'.481'
p211
sg14
S'89'
p212
sg16
S'.000'
p213
sg18
g19
sg20
S'1282'
p214
sg22
g23
sg24
S'.772'
p215
sg26
S'.481'
p216
sg28
S'NBA'
p217
sg30
S'33'
p218
sg32
S'1084'
p219
sg34
S'251'
p220
sg36
S'311'
p221
sg38
S'531'
p222
sg40
S'26'
p223
sg42
S'POR'
p224
sg44
S'81'
p225
sg46
S'34'
p226
sg48
S'521'
p227
sg50
S'240'
p228
sg52
S'1082'
p229
sg54
S'354'
p230
sg56
S'1990-91'
p231
sg58
S'521'
p232
sg60
S'186'
p233
sg62
S'.482'
p234
sg64
S'2511'
p235
sg66
S'81'
p236
sba(isrc.gp1.models.Totals
Totals
p237
(dp238
g8
S'151'
p239
sg10
g76
sg12
S'.461'
p240
sg14
S'99'
p241
sg16
S'.000'
p242
sg18
g19
sg20
S'880'
p243
sg22
g23
sg24
S'.690'
p244
sg26
S'.461'
p245
sg28
S'NBA'
p246
sg30
S'38'
p247
sg32
S'786'
p248
sg34
S'264'
p249
sg36
S'226'
p250
sg38
S'497'
p251
sg40
S'27'
p252
sg42
S'POR'
p253
sg44
S'82'
p254
sg46
S'37'
p255
sg48
S'362'
p256
sg50
S'156'
p257
sg52
S'783'
p258
sg54
S'346'
p259
sg56
S'1991-92'
p260
sg58
S'362'
p261
sg60
S'143'
p262
sg62
S'.462'
p263
sg64
S'2222'
p264
sg66
S'82'
p265
sba(isrc.gp1.models.Totals
Totals
p266
(dp267
g8
S'118'
p268
sg10
g153
sg12
S'.438'
p269
sg14
S'70'
p270
sg16
S'.000'
p271
sg18
g19
sg20
S'729'
p272
sg22
g23
sg24
S'.730'
p273
sg26
S'.438'
p274
sg28
S'NBA'
p275
sg30
S'45'
p276
sg32
S'688'
p277
sg34
S'222'
p278
sg36
S'174'
p279
sg38
S'387'
p280
sg40
S'28'
p281
sg42
S'POR'
p282
sg44
S'74'
p283
sg46
S'39'
p284
sg48
S'301'
p285
sg50
S'127'
p286
sg52
S'686'
p287
sg54
S'269'
p288
sg56
S'1992-93'
p289
sg58
S'301'
p290
sg60
S'87'
p291
sg62
S'.439'
p292
sg64
S'1762'
p293
sg66
S'55'
p294
sba(isrc.gp1.models.Totals
Totals
p295
(dp296
g8
S'222'
p297
sg10
g19
sg12
S'.417'
p298
sg14
S'37'
p299
sg16
S'184'
p300
sg18
g19
sg20
g3
sg22
g23
sg24
S'103'
p301
sg26
S'88'
p302
sg28
S'NBA'
p303
sg30
S'35'
p304
sg32
S'441'
p305
sg34
S'456'
p306
sg36
S'.667'
p307
sg38
S'56'
p308
sg40
S'29'
p309
sg42
S'WSB'
p310
sg44
S'69'
p311
sg46
S'101'
p312
sg48
S'441'
p313
sg50
S'132'
p314
sg52
S'.417'
p315
sg54
S'325'
p316
sg56
S'1993-94'
p317
sg58
S'184'
p318
sg60
S'223'
p319
sg62
S'.417'
p320
sg64
S'1485'
p321
sg66
S'52'
p322
sba(isrc.gp1.models.Totals
Totals
p323
(dp324
g8
S'65'
p325
sg10
S'10'
p326
sg12
S'.442'
p327
sg14
S'20'
p328
sg16
S'.200'
p329
sg18
g153
sg20
S'283'
p330
sg22
g23
sg24
S'.643'
p331
sg26
S'.446'
p332
sg28
S'NBA'
p333
sg30
S'21'
p334
sg32
S'267'
p335
sg34
S'110'
p336
sg36
S'70'
p337
sg38
S'195'
p338
sg40
S'30'
p339
sg42
S'WSB'
p340
sg44
S'40'
p341
sg46
S'24'
p342
sg48
S'116'
p343
sg50
S'45'
p344
sg52
S'257'
p345
sg54
S'130'
p346
sg56
S'1994-95'
p347
sg58
S'118'
p348
sg60
S'59'
p349
sg62
S'.451'
p350
sg64
S'818'
p351
sg66
S'22'
p352
sba(isrc.gp1.models.Totals
Totals
p353
(dp354
g8
g71
sg10
g19
sg12
S'.214'
p355
sg14
g153
sg16
g76
sg18
g19
sg20
g3
sg22
g23
sg24
g153
sg26
g76
sg28
S'NBA'
p356
sg30
g19
sg32
S'14'
p357
sg34
g74
sg36
S'.500'
p358
sg38
g153
sg40
S'31'
p359
sg42
S'MIL'
p360
sg44
S'8'
p361
sg46
g153
sg48
S'14'
p362
sg50
g80
sg52
S'.214'
p363
sg54
S'7'
p364
sg56
S'1995-96'
p365
sg58
g76
sg60
S'19'
p366
sg62
S'.214'
p367
sg64
S'58'
p368
sg66
g11
sba(isrc.gp1.models.Totals
Totals
p369
(dp370
g8
S'23'
p371
sg10
g84
sg12
S'.437'
p372
sg14
S'16'
p373
sg16
S'.750'
p374
sg18
g76
sg20
S'104'
p375
sg22
g23
sg24
S'.688'
p376
sg26
S'.451'
p377
sg28
S'NBA'
p378
sg30
g74
sg32
S'103'
p379
sg34
S'63'
p380
sg36
S'16'
p381
sg38
S'60'
p382
sg40
S'32'
p383
sg42
S'LAC'
p384
sg44
S'26'
p385
sg46
S'11'
p386
sg48
S'42'
p387
sg50
S'11'
p388
sg52
S'99'
p389
sg54
S'37'
p390
sg56
S'1996-97'
p391
sg58
S'45'
p392
sg60
S'33'
p393
sg62
S'.424'
p394
sg64
S'384'
p395
sg66
S'22'
p396
sbasS'_college'
p397
S'Eastern Illinois University'
p398
sS'_toYear'
p399
S'1997'
p400
sS'_height'
p401
S'7-0'
p402
sS'_active'
p403
I00
sS'_shootingHand'
p404
VRight
p405
sS'_name'
p406
S'Kevin Duckworth'
p407
sS'_per100Possessions'
p408
(lp409
(isrc.gp1.models.Per100Possession
Per100Possession
p410
(dp411
g8
S'4.0'
p412
sg10
S'0.1'
p413
sg12
S'.476'
p414
sS'_offensiveRating'
p415
S'99'
p416
sg14
S'1.5'
p417
sg16
S'.000'
p418
sg18
S'0.0'
p419
sg20
S'18.5'
p420
sg22
g23
sS'_defensiveRating'
p421
S'108'
p422
sg24
S'.687'
p423
sg28
S'NBA'
p424
sg30
S'1.1'
p425
sg32
S'14.3'
p426
sg34
S'10.1'
p427
sg36
S'7.0'
p428
sg38
S'11.7'
p429
sg40
S'22'
p430
sg42
S'TOT'
p431
sg44
S'65'
p432
sg46
S'1.1'
p433
sg48
S'6.8'
p434
sg50
S'4.8'
p435
sg52
S'14.3'
p436
sg54
S'7.7'
p437
sg56
S'1986-87'
p438
sg58
S'6.8'
p439
sg60
S'4.1'
p440
sg62
S'.478'
p441
sg64
S'875'
p442
sg66
g11
sba(isrc.gp1.models.Per100Possession
Per100Possession
p443
(dp444
g8
S'7.0'
p445
sg10
S'0.0'
p446
sg12
S'.400'
p447
sg415
S'109'
p448
sg14
S'1.9'
p449
sg16
S'7.0'
p450
sg18
S'0.0'
p451
sg20
S'103'
p452
sg22
g23
sg421
g3
sg24
S'5.0'
p453
sg28
S'NBA'
p454
sg30
S'1.2'
p455
sg32
S'17.4'
p456
sg34
S'17.4'
p457
sg36
S'.643'
p458
sg38
S'2.3'
p459
sg40
S'22'
p460
sg42
S'SAS'
p461
sg44
S'14'
p462
sg46
S'1.5'
p463
sg48
S'17.4'
p464
sg50
S'5.4'
p465
sg52
S'.400'
p466
sg54
S'12.0'
p467
sg56
S'1986-87'
p468
sg58
S'7.0'
p469
sg60
S'10.4'
p470
sg62
S'3.5'
p471
sg64
S'122'
p472
sg66
g11
sba(isrc.gp1.models.Per100Possession
Per100Possession
p473
(dp474
g8
S'3.8'
p475
sg10
S'0.1'
p476
sg12
S'.491'
p477
sg415
S'98'
p478
sg14
S'1.4'
p479
sg16
S'.000'
p480
sg18
S'0.0'
p481
sg20
S'18.6'
p482
sg22
g23
sg421
S'108'
p483
sg24
S'.692'
p484
sg28
S'NBA'
p485
sg30
S'1.0'
p486
sg32
S'13.8'
p487
sg34
S'10.0'
p488
sg36
S'7.3'
p489
sg38
S'11.7'
p490
sg40
S'22'
p491
sg42
S'POR'
p492
sg44
S'51'
p493
sg46
S'1.1'
p494
sg48
S'6.8'
p495
sg50
S'5.0'
p496
sg52
S'13.8'
p497
sg54
S'7.8'
p498
sg56
S'1986-87'
p499
sg58
S'6.8'
p500
sg60
S'4.5'
p501
sg62
S'.493'
p502
sg64
S'753'
p503
sg66
g19
sba(isrc.gp1.models.Per100Possession
Per100Possession
p504
(dp505
g8
S'7.3'
p506
sg10
S'0.0'
p507
sg12
S'.496'
p508
sg415
S'109'
p509
sg14
S'0.6'
p510
sg16
S'9.4'
p511
sg18
S'0.0'
p512
sg20
S'110'
p513
sg22
g23
sg421
g3
sg24
S'4.7'
p514
sg28
S'NBA'
p515
sg30
S'0.7'
p516
sg32
S'18.9'
p517
sg34
S'25.7'
p518
sg36
S'.770'
p519
sg38
S'1.4'
p520
sg40
S'23'
p521
sg42
S'POR'
p522
sg44
S'78'
p523
sg46
S'3.7'
p524
sg48
S'18.9'
p525
sg50
S'9.0'
p526
sg52
S'.496'
p527
sg54
S'12.0'
p528
sg56
S'1987-88'
p529
sg58
S'9.4'
p530
sg60
S'5.8'
p531
sg62
S'6.9'
p532
sg64
S'2223'
p533
sg66
S'50'
p534
sba(isrc.gp1.models.Per100Possession
Per100Possession
p535
(dp536
g8
S'4.3'
p537
sg10
S'0.0'
p538
sg12
S'.477'
p539
sg415
S'106'
p540
sg14
S'1.0'
p541
sg16
S'.000'
p542
sg18
S'0.0'
p543
sg20
S'24.8'
p544
sg22
g23
sg421
S'109'
p545
sg24
S'.757'
p546
sg28
S'NBA'
p547
sg30
S'1.0'
p548
sg32
S'20.1'
p549
sg34
S'5.2'
p550
sg36
S'7.4'
p551
sg38
S'11.0'
p552
sg40
S'24'
p553
sg42
S'POR'
p554
sg44
S'79'
p555
sg46
S'0.9'
p556
sg48
S'9.6'
p557
sg50
S'5.6'
p558
sg52
S'20.1'
p559
sg54
S'6.7'
p560
sg56
S'1988-89'
p561
sg58
S'9.6'
p562
sg60
S'3.5'
p563
sg62
S'.478'
p564
sg64
S'2662'
p565
sg66
S'79'
p566
sba(isrc.gp1.models.Per100Possession
Per100Possession
p567
(dp568
g8
S'6.2'
p569
sg10
S'0.0'
p570
sg12
S'.478'
p571
sg415
S'107'
p572
sg14
S'0.7'
p573
sg16
S'10.4'
p574
sg18
S'0.0'
p575
sg20
S'105'
p576
sg22
g23
sg421
g3
sg24
S'3.5'
p577
sg28
S'NBA'
p578
sg30
S'0.6'
p579
sg32
S'21.8'
p580
sg34
S'25.3'
p581
sg36
S'.740'
p582
sg38
S'1.7'
p583
sg40
S'25'
p584
sg42
S'POR'
p585
sg44
S'82'
p586
sg46
S'3.3'
p587
sg48
S'21.8'
p588
sg50
S'5.9'
p589
sg52
S'.478'
p590
sg54
S'9.7'
p591
sg56
S'1989-90'
p592
sg58
S'10.4'
p593
sg60
S'5.2'
p594
sg62
S'4.4'
p595
sg64
S'2462'
p596
sg66
S'82'
p597
sba(isrc.gp1.models.Per100Possession
Per100Possession
p598
(dp599
g8
S'3.4'
p600
sg10
S'0.0'
p601
sg12
S'.481'
p602
sg415
S'103'
p603
sg14
S'1.7'
p604
sg16
S'.000'
p605
sg18
S'0.0'
p606
sg20
S'24.4'
p607
sg22
g23
sg421
S'107'
p608
sg24
S'.772'
p609
sg28
S'NBA'
p610
sg30
S'0.6'
p611
sg32
S'20.6'
p612
sg34
S'4.8'
p613
sg36
S'5.9'
p614
sg38
S'10.1'
p615
sg40
S'26'
p616
sg42
S'POR'
p617
sg44
S'81'
p618
sg46
S'0.6'
p619
sg48
S'9.9'
p620
sg50
S'4.6'
p621
sg52
S'20.6'
p622
sg54
S'6.7'
p623
sg56
S'1990-91'
p624
sg58
S'9.9'
p625
sg60
S'3.5'
p626
sg62
S'.482'
p627
sg64
S'2511'
p628
sg66
S'81'
p629
sba(isrc.gp1.models.Per100Possession
Per100Possession
p630
(dp631
g8
S'3.3'
p632
sg10
S'0.1'
p633
sg12
S'.461'
p634
sg415
S'101'
p635
sg14
S'2.2'
p636
sg16
S'.000'
p637
sg18
S'0.0'
p638
sg20
S'19.2'
p639
sg22
g23
sg421
S'106'
p640
sg24
S'.690'
p641
sg28
S'NBA'
p642
sg30
S'0.8'
p643
sg32
S'17.2'
p644
sg34
S'5.8'
p645
sg36
S'4.9'
p646
sg38
S'10.8'
p647
sg40
S'27'
p648
sg42
S'POR'
p649
sg44
S'82'
p650
sg46
S'0.8'
p651
sg48
S'7.9'
p652
sg50
S'3.4'
p653
sg52
S'17.1'
p654
sg54
S'7.6'
p655
sg56
S'1991-92'
p656
sg58
S'7.9'
p657
sg60
S'3.1'
p658
sg62
S'.462'
p659
sg64
S'2222'
p660
sg66
S'82'
p661
sba(isrc.gp1.models.Per100Possession
Per100Possession
p662
(dp663
g8
S'3.2'
p664
sg10
S'0.1'
p665
sg12
S'.438'
p666
sg415
S'100'
p667
sg14
S'1.9'
p668
sg16
S'.000'
p669
sg18
S'0.0'
p670
sg20
S'20.0'
p671
sg22
g23
sg421
S'106'
p672
sg24
S'.730'
p673
sg28
S'NBA'
p674
sg30
S'1.2'
p675
sg32
S'18.9'
p676
sg34
S'6.1'
p677
sg36
S'4.8'
p678
sg38
S'10.6'
p679
sg40
S'28'
p680
sg42
S'POR'
p681
sg44
S'74'
p682
sg46
S'1.1'
p683
sg48
S'8.3'
p684
sg50
S'3.5'
p685
sg52
S'18.9'
p686
sg54
S'7.4'
p687
sg56
S'1992-93'
p688
sg58
S'8.3'
p689
sg60
S'2.4'
p690
sg62
S'.439'
p691
sg64
S'1762'
p692
sg66
S'55'
p693
sba(isrc.gp1.models.Per100Possession
Per100Possession
p694
(dp695
g8
S'7.5'
p696
sg10
S'0.0'
p697
sg12
S'.417'
p698
sg415
S'111'
p699
sg14
S'1.2'
p700
sg16
S'6.2'
p701
sg18
S'0.0'
p702
sg20
S'91'
p703
sg22
g23
sg421
g3
sg24
S'3.5'
p704
sg28
S'NBA'
p705
sg30
S'1.2'
p706
sg32
S'14.9'
p707
sg34
S'15.4'
p708
sg36
S'.667'
p709
sg38
S'1.9'
p710
sg40
S'29'
p711
sg42
S'WSB'
p712
sg44
S'69'
p713
sg46
S'3.4'
p714
sg48
S'14.9'
p715
sg50
S'4.4'
p716
sg52
S'.417'
p717
sg54
S'11.0'
p718
sg56
S'1993-94'
p719
sg58
S'6.2'
p720
sg60
S'7.5'
p721
sg62
S'3.0'
p722
sg64
S'1485'
p723
sg66
S'52'
p724
sba(isrc.gp1.models.Per100Possession
Per100Possession
p725
(dp726
g8
S'4.0'
p727
sg10
S'0.6'
p728
sg12
S'.442'
p729
sg415
S'92'
p730
sg14
S'1.2'
p731
sg16
S'.200'
p732
sg18
S'0.1'
p733
sg20
S'17.6'
p734
sg22
g23
sg421
S'110'
p735
sg24
S'.643'
p736
sg28
S'NBA'
p737
sg30
S'1.3'
p738
sg32
S'16.6'
p739
sg34
S'6.8'
p740
sg36
S'4.3'
p741
sg38
S'12.1'
p742
sg40
S'30'
p743
sg42
S'WSB'
p744
sg44
S'40'
p745
sg46
S'1.5'
p746
sg48
S'7.2'
p747
sg50
S'2.8'
p748
sg52
S'16.0'
p749
sg54
S'8.1'
p750
sg56
S'1994-95'
p751
sg58
S'7.3'
p752
sg60
S'3.7'
p753
sg62
S'.451'
p754
sg64
S'818'
p755
sg66
S'22'
p756
sba(isrc.gp1.models.Per100Possession
Per100Possession
p757
(dp758
g8
S'4.6'
p759
sg10
S'0.0'
p760
sg12
S'.214'
p761
sg415
S'112'
p762
sg14
S'1.8'
p763
sg16
S'2.8'
p764
sg18
S'0.0'
p765
sg20
S'66'
p766
sg22
g23
sg421
g3
sg24
S'1.8'
p767
sg28
S'NBA'
p768
sg30
S'0.0'
p769
sg32
S'12.8'
p770
sg34
S'8.3'
p771
sg36
S'.500'
p772
sg38
S'1.8'
p773
sg40
S'31'
p774
sg42
S'MIL'
p775
sg44
g361
sg46
S'1.8'
p776
sg48
S'12.8'
p777
sg50
S'5.5'
p778
sg52
S'.214'
p779
sg54
S'6.4'
p780
sg56
S'1995-96'
p781
sg58
S'2.8'
p782
sg60
S'17.4'
p783
sg62
S'2.8'
p784
sg64
S'58'
p785
sg66
g11
sba(isrc.gp1.models.Per100Possession
Per100Possession
p786
(dp787
g8
S'3.1'
p788
sg10
S'0.5'
p789
sg12
S'.437'
p790
sg415
S'85'
p791
sg14
S'2.2'
p792
sg16
S'.750'
p793
sg18
S'0.4'
p794
sg20
S'14.2'
p795
sg22
g23
sg421
S'109'
p796
sg24
S'.688'
p797
sg28
S'NBA'
p798
sg30
S'1.2'
p799
sg32
S'14.1'
p800
sg34
S'8.6'
p801
sg36
S'2.2'
p802
sg38
S'8.2'
p803
sg40
S'32'
p804
sg42
S'LAC'
p805
sg44
S'26'
p806
sg46
S'1.5'
p807
sg48
S'5.7'
p808
sg50
S'1.5'
p809
sg52
S'13.6'
p810
sg54
S'5.1'
p811
sg56
S'1996-97'
p812
sg58
S'6.2'
p813
sg60
S'4.5'
p814
sg62
S'.424'
p815
sg64
S'384'
p816
sg66
S'22'
p817
sbasS'_advanced'
p818
(lp819
(isrc.gp1.models.Advanced
Advanced
p820
(dp821
S'_offensiveReboundPercentage'
p822
S'9.8'
p823
sS'_turnOverPercentage'
p824
S'19.0'
p825
sS'_winSharesPer48Minutes'
p826
S'.045'
p827
sS'_stealPercentage'
p828
S'1.1'
p829
sS'_usagePercentage'
p830
S'18.5'
p831
sS'_totalReboundsPercentage'
p832
S'14.2'
p833
sS'_defensiveBoxPlusMinus'
p834
S'-1.3'
p835
sg22
g23
sS'_valueOverReplacementPlayer'
p836
S'-0.7'
p837
sS'_trueShootingPercentage'
p838
S'.530'
p839
sS'_defensiveReboundPercentage'
p840
S'18.5'
p841
sS'_freeThrowsAttempRate'
p842
S'.491'
p843
sS'_threePointsAttempRate'
p844
S'.004'
p845
sg28
S'NBA'
p846
sS'_offensiveBoxPlusMinues'
p847
S'-3.9'
p848
sS'_assistPercentage'
p849
S'4.3'
p850
sS'_defensiveWinShares'
p851
S'0.9'
p852
sg40
S'22'
p853
sg42
S'TOT'
p854
sg44
S'65'
p855
sS'_blockPercentage'
p856
S'1.3'
p857
sS'_playerEfficiencyRating'
p858
S'9.1'
p859
sS'_offensiveWinShares'
p860
S'-0.1'
p861
sg64
S'875'
p862
sS'_boxPlusMinus'
p863
S'-5.1'
p864
sg56
S'1986-87'
p865
sS'_winShares'
p866
S'0.8'
p867
sba(isrc.gp1.models.Advanced
Advanced
p868
(dp869
g822
S'11.3'
p870
sg824
S'7.3'
p871
sg826
S'.062'
p872
sg828
S'1.9'
p873
sg830
S'18.1'
p874
sg832
S'14.0'
p875
sg834
S'-1.1'
p876
sg22
g23
sg836
S'-0.1'
p877
sg838
S'.440'
p878
sg840
S'17.0'
p879
sg842
S'.311'
p880
sg844
S'.000'
p881
sg28
S'NBA'
p882
sg847
S'-3.3'
p883
sg849
S'6.6'
p884
sg851
S'0.1'
p885
sg40
S'22'
p886
sg42
S'SAS'
p887
sg44
S'14'
p888
sg856
S'1.4'
p889
sg858
S'10.6'
p890
sg860
S'0.0'
p891
sg64
S'122'
p892
sg863
S'-4.4'
p893
sg56
S'1986-87'
p894
sg866
S'0.2'
p895
sba(isrc.gp1.models.Advanced
Advanced
p896
(dp897
g822
S'9.6'
p898
sg824
S'20.9'
p899
sg826
S'.043'
p900
sg828
S'1.0'
p901
sg830
S'18.5'
p902
sg832
S'14.3'
p903
sg834
S'-1.3'
p904
sg22
g23
sg836
S'-0.6'
p905
sg838
S'.547'
p906
sg840
S'18.7'
p907
sg842
S'.526'
p908
sg844
S'.004'
p909
sg28
S'NBA'
p910
sg847
S'-4.0'
p911
sg849
S'4.0'
p912
sg851
S'0.8'
p913
sg40
S'22'
p914
sg42
S'POR'
p915
sg44
S'51'
p916
sg856
S'1.3'
p917
sg858
S'8.8'
p918
sg860
S'-0.1'
p919
sg64
S'753'
p920
sg863
S'-5.3'
p921
sg56
S'1986-87'
p922
sg866
S'0.7'
p923
sba(isrc.gp1.models.Advanced
Advanced
p924
(dp925
g822
S'10.9'
p926
sg824
S'13.9'
p927
sg826
S'.112'
p928
sg828
S'0.6'
p929
sg830
S'22.6'
p930
sg832
S'14.0'
p931
sg834
S'-2.2'
p932
sg22
g23
sg836
S'-0.5'
p933
sg838
S'.561'
p934
sg840
S'17.1'
p935
sg842
S'.474'
p936
sg844
S'.000'
p937
sg28
S'NBA'
p938
sg847
S'-0.8'
p939
sg849
S'4.1'
p940
sg851
S'2.1'
p941
sg40
S'23'
p942
sg42
S'POR'
p943
sg44
S'78'
p944
sg856
S'0.8'
p945
sg858
S'14.9'
p946
sg860
S'3.0'
p947
sg64
S'2223'
p948
sg863
S'-3.0'
p949
sg56
S'1987-88'
p950
sg866
S'5.2'
p951
sba(isrc.gp1.models.Advanced
Advanced
p952
(dp953
g822
S'9.7'
p954
sg824
S'12.9'
p955
sg826
S'.086'
p956
sg828
S'1.0'
p957
sg830
S'22.4'
p958
sg832
S'12.9'
p959
sg834
S'-2.0'
p960
sg22
g23
sg836
S'-1.1'
p961
sg838
S'.531'
p962
sg840
S'16.4'
p963
sg842
S'.369'
p964
sg844
S'.002'
p965
sg28
S'NBA'
p966
sg847
S'-1.7'
p967
sg849
S'3.1'
p968
sg851
S'2.3'
p969
sg40
S'24'
p970
sg42
S'POR'
p971
sg44
S'79'
p972
sg856
S'1.1'
p973
sg858
S'13.9'
p974
sg860
S'2.5'
p975
sg64
S'2662'
p976
sg863
S'-3.7'
p977
sg56
S'1988-89'
p978
sg866
S'4.8'
p979
sba(isrc.gp1.models.Advanced
Advanced
p980
(dp981
g822
S'8.0'
p982
sg824
S'11.8'
p983
sg826
S'.093'
p984
sg828
S'0.7'
p985
sg830
S'23.2'
p986
sg832
S'11.2'
p987
sg834
S'-0.8'
p988
sg22
g23
sg836
S'-0.2'
p989
sg838
S'.517'
p990
sg840
S'14.6'
p991
sg842
S'.272'
p992
sg844
S'.000'
p993
sg28
S'NBA'
p994
sg847
S'-1.6'
p995
sg849
S'5.5'
p996
sg851
S'2.9'
p997
sg40
S'25'
p998
sg42
S'POR'
p999
sg44
S'82'
p1000
sg856
S'0.8'
p1001
sg858
S'13.3'
p1002
sg860
S'1.8'
p1003
sg64
S'2462'
p1004
sg863
S'-2.4'
p1005
sg56
S'1989-90'
p1006
sg866
S'4.8'
p1007
sba(isrc.gp1.models.Advanced
Advanced
p1008
(dp1009
g822
S'7.9'
p1010
sg824
S'13.2'
p1011
sg826
S'.082'
p1012
sg828
S'0.6'
p1013
sg830
S'22.8'
p1014
sg832
S'11.7'
p1015
sg834
S'-1.0'
p1016
sg22
g23
sg836
S'-0.7'
p1017
sg838
S'.525'
p1018
sg840
S'15.4'
p1019
sg842
S'.287'
p1020
sg844
S'.002'
p1021
sg28
S'NBA'
p1022
sg847
S'-2.1'
p1023
sg849
S'5.1'
p1024
sg851
S'3.0'
p1025
sg40
S'26'
p1026
sg42
S'POR'
p1027
sg44
S'81'
p1028
sg856
S'0.8'
p1029
sg858
S'12.7'
p1030
sg860
S'1.3'
p1031
sg64
S'2511'
p1032
sg863
S'-3.2'
p1033
sg56
S'1990-91'
p1034
sg866
S'4.3'
p1035
sba(isrc.gp1.models.Advanced
Advanced
p1036
(dp1037
g822
S'7.4'
p1038
sg824
S'13.9'
p1039
sg826
S'.071'
p1040
sg828
S'0.8'
p1041
sg830
S'18.8'
p1042
sg832
S'12.2'
p1043
sg834
S'0.0'
p1044
sg22
g23
sg836
S'-0.6'
p1045
sg838
S'.497'
p1046
sg840
S'17.0'
p1047
sg842
S'.288'
p1048
sg844
S'.004'
p1049
sg28
S'NBA'
p1050
sg847
S'-3.1'
p1051
sg849
S'6.3'
p1052
sg851
S'3.0'
p1053
sg40
S'27'
p1054
sg42
S'POR'
p1055
sg44
S'82'
p1056
sg856
S'1.0'
p1057
sg858
S'10.5'
p1058
sg860
S'0.3'
p1059
sg64
S'2222'
p1060
sg863
S'-3.1'
p1061
sg56
S'1991-92'
p1062
sg866
S'3.3'
p1063
sba(isrc.gp1.models.Advanced
Advanced
p1064
(dp1065
g822
S'7.1'
p1066
sg824
S'10.2'
p1067
sg826
S'.069'
p1068
sg828
S'1.2'
p1069
sg830
S'19.9'
p1070
sg832
S'12.0'
p1071
sg834
S'-0.1'
p1072
sg22
g23
sg836
S'-0.7'
p1073
sg838
S'.477'
p1074
sg840
S'17.2'
p1075
sg842
S'.253'
p1076
sg844
S'.003'
p1077
sg28
S'NBA'
p1078
sg847
S'-3.5'
p1079
sg849
S'5.9'
p1080
sg851
S'2.3'
p1081
sg40
S'28'
p1082
sg42
S'POR'
p1083
sg44
S'74'
p1084
sg856
S'1.4'
p1085
sg858
S'11.4'
p1086
sg860
S'0.2'
p1087
sg64
S'1762'
p1088
sg863
S'-3.6'
p1089
sg56
S'1992-93'
p1090
sg866
S'2.5'
p1091
sba(isrc.gp1.models.Advanced
Advanced
p1092
(dp1093
g822
S'8.0'
p1094
sg824
S'16.8'
p1095
sg826
S'-0.017'
p1096
sg828
S'1.2'
p1097
sg830
S'17.3'
p1098
sg832
S'12.8'
p1099
sg834
S'-1.1'
p1100
sg22
g23
sg836
S'-1.4'
p1101
sg838
S'.457'
p1102
sg840
S'17.8'
p1103
sg842
S'.299'
p1104
sg844
S'.000'
p1105
sg28
S'NBA'
p1106
sg847
S'-4.5'
p1107
sg849
S'5.5'
p1108
sg851
S'0.6'
p1109
sg40
S'29'
p1110
sg42
S'WSB'
p1111
sg44
S'69'
p1112
sg856
S'1.5'
p1113
sg858
S'8.2'
p1114
sg860
S'-1.1'
p1115
sg64
S'1485'
p1116
sg863
S'-5.7'
p1117
sg56
S'1993-94'
p1118
sg866
S'-0.5'
p1119
sba(isrc.gp1.models.Advanced
Advanced
p1120
(dp1121
g822
S'8.9'
p1122
sg824
S'16.5'
p1123
sg826
S'-0.002'
p1124
sg828
S'1.3'
p1125
sg830
S'19.1'
p1126
sg832
S'13.7'
p1127
sg834
S'-1.0'
p1128
sg22
g23
sg836
S'-0.9'
p1129
sg838
S'.475'
p1130
sg840
S'19.0'
p1131
sg842
S'.262'
p1132
sg844
S'.037'
p1133
sg28
S'NBA'
p1134
sg847
S'-5.2'
p1135
sg849
S'3.7'
p1136
sg851
S'0.7'
p1137
sg40
S'30'
p1138
sg42
S'WSB'
p1139
sg44
S'40'
p1140
sg856
S'2.1'
p1141
sg858
S'9.9'
p1142
sg860
S'-0.7'
p1143
sg64
S'818'
p1144
sg863
S'-6.2'
p1145
sg56
S'1994-95'
p1146
sg866
S'0.0'
p1147
sba(isrc.gp1.models.Advanced
Advanced
p1148
(dp1149
g822
S'4.2'
p1150
sg824
S'10.7'
p1151
sg826
S'-0.110'
p1152
sg828
S'1.8'
p1153
sg830
S'14.7'
p1154
sg832
S'7.4'
p1155
sg834
S'-1.6'
p1156
sg22
g23
sg836
S'-0.1'
p1157
sg838
S'.270'
p1158
sg840
S'10.8'
p1159
sg842
S'.429'
p1160
sg844
S'.000'
p1161
sg28
S'NBA'
p1162
sg847
S'-8.7'
p1163
sg849
S'4.8'
p1164
sg851
S'0.0'
p1165
sg40
S'31'
p1166
sg42
S'MIL'
p1167
sg44
g361
sg856
S'0.0'
p1168
sg858
S'-2.7'
p1169
sg860
S'-0.2'
p1170
sg64
S'58'
p1171
sg863
S'-10.3'
p1172
sg56
S'1995-96'
p1173
sg866
S'-0.1'
p1174
sba(isrc.gp1.models.Advanced
Advanced
p1175
(dp1176
g822
S'6.7'
p1177
sg824
S'23.1'
p1178
sg826
S'-0.030'
p1179
sg828
S'1.2'
p1180
sg830
S'16.6'
p1181
sg832
S'9.1'
p1182
sg834
S'-0.1'
p1183
sg22
g23
sg836
S'-0.3'
p1184
sg838
S'.473'
p1185
sg840
S'11.7'
p1186
sg842
S'.155'
p1187
sg844
S'.039'
p1188
sg28
S'NBA'
p1189
sg847
S'-5.4'
p1190
sg849
S'6.6'
p1191
sg851
S'0.3'
p1192
sg40
S'32'
p1193
sg42
S'LAC'
p1194
sg44
S'26'
p1195
sg856
S'2.2'
p1196
sg858
S'6.1'
p1197
sg860
S'-0.5'
p1198
sg64
S'384'
p1199
sg863
S'-5.5'
p1200
sg56
S'1996-97'
p1201
sg866
S'-0.2'
p1202
sbasS'_per36Minutes'
p1203
(lp1204
(isrc.gp1.models.Per36Minutes
Per36Minutes
p1205
(dp1206
g8
S'3.1'
p1207
sg10
S'0.0'
p1208
sg12
S'.476'
p1209
sg14
S'1.2'
p1210
sg16
S'.000'
p1211
sg18
S'0.0'
p1212
sg20
S'14.5'
p1213
sg22
g23
sg24
S'.687'
p1214
sg28
S'NBA'
p1215
sg30
S'0.9'
p1216
sg32
S'11.2'
p1217
sg34
S'7.9'
p1218
sg36
S'5.5'
p1219
sg38
S'9.2'
p1220
sg40
S'22'
p1221
sg42
S'TOT'
p1222
sg44
S'65'
p1223
sg46
S'0.9'
p1224
sg48
S'5.3'
p1225
sg50
S'3.8'
p1226
sg52
S'11.2'
p1227
sg54
S'6.0'
p1228
sg56
S'1986-87'
p1229
sg58
S'5.3'
p1230
sg60
S'3.2'
p1231
sg62
S'.478'
p1232
sg64
S'875'
p1233
sg66
g11
sba(isrc.gp1.models.Per36Minutes
Per36Minutes
p1234
(dp1235
g8
S'5.3'
p1236
sg10
S'0.0'
p1237
sg12
S'.400'
p1238
sg14
S'1.5'
p1239
sg16
S'5.3'
p1240
sg18
S'0.0'
p1241
sg20
g3
sg22
g23
sg24
S'3.8'
p1242
sg28
S'NBA'
p1243
sg30
S'0.9'
p1244
sg32
S'13.3'
p1245
sg34
S'13.3'
p1246
sg36
S'.643'
p1247
sg38
S'1.8'
p1248
sg40
S'22'
p1249
sg42
S'SAS'
p1250
sg44
S'14'
p1251
sg46
S'1.2'
p1252
sg48
S'13.3'
p1253
sg50
S'4.1'
p1254
sg52
S'.400'
p1255
sg54
S'9.1'
p1256
sg56
S'1986-87'
p1257
sg58
S'5.3'
p1258
sg60
S'8.0'
p1259
sg62
S'2.7'
p1260
sg64
S'122'
p1261
sg66
g11
sba(isrc.gp1.models.Per36Minutes
Per36Minutes
p1262
(dp1263
g8
S'3.0'
p1264
sg10
S'0.0'
p1265
sg12
S'.491'
p1266
sg14
S'1.1'
p1267
sg16
S'.000'
p1268
sg18
S'0.0'
p1269
sg20
S'14.7'
p1270
sg22
g23
sg24
S'.692'
p1271
sg28
S'NBA'
p1272
sg30
S'0.8'
p1273
sg32
S'10.9'
p1274
sg34
S'7.9'
p1275
sg36
S'5.7'
p1276
sg38
S'9.2'
p1277
sg40
S'22'
p1278
sg42
S'POR'
p1279
sg44
S'51'
p1280
sg46
S'0.9'
p1281
sg48
S'5.4'
p1282
sg50
S'4.0'
p1283
sg52
S'10.9'
p1284
sg54
S'6.2'
p1285
sg56
S'1986-87'
p1286
sg58
S'5.4'
p1287
sg60
S'3.5'
p1288
sg62
S'.493'
p1289
sg64
S'753'
p1290
sg66
g19
sba(isrc.gp1.models.Per36Minutes
Per36Minutes
p1291
(dp1292
g8
S'5.7'
p1293
sg10
S'0.0'
p1294
sg12
S'.496'
p1295
sg14
S'0.5'
p1296
sg16
S'7.3'
p1297
sg18
S'0.0'
p1298
sg20
g3
sg22
g23
sg24
S'3.6'
p1299
sg28
S'NBA'
p1300
sg30
S'0.5'
p1301
sg32
S'14.7'
p1302
sg34
S'19.9'
p1303
sg36
S'.770'
p1304
sg38
S'1.1'
p1305
sg40
S'23'
p1306
sg42
S'POR'
p1307
sg44
S'78'
p1308
sg46
S'2.9'
p1309
sg48
S'14.7'
p1310
sg50
S'7.0'
p1311
sg52
S'.496'
p1312
sg54
S'9.3'
p1313
sg56
S'1987-88'
p1314
sg58
S'7.3'
p1315
sg60
S'4.5'
p1316
sg62
S'5.4'
p1317
sg64
S'2223'
p1318
sg66
S'50'
p1319
sba(isrc.gp1.models.Per36Minutes
Per36Minutes
p1320
(dp1321
g8
S'3.3'
p1322
sg10
S'0.0'
p1323
sg12
S'.477'
p1324
sg14
S'0.8'
p1325
sg16
S'.000'
p1326
sg18
S'0.0'
p1327
sg20
S'19.4'
p1328
sg22
g23
sg24
S'.757'
p1329
sg28
S'NBA'
p1330
sg30
S'0.8'
p1331
sg32
S'15.7'
p1332
sg34
S'4.1'
p1333
sg36
S'5.8'
p1334
sg38
S'8.6'
p1335
sg40
S'24'
p1336
sg42
S'POR'
p1337
sg44
S'79'
p1338
sg46
S'0.7'
p1339
sg48
S'7.5'
p1340
sg50
S'4.4'
p1341
sg52
S'15.7'
p1342
sg54
S'5.3'
p1343
sg56
S'1988-89'
p1344
sg58
S'7.5'
p1345
sg60
S'2.7'
p1346
sg62
S'.478'
p1347
sg64
S'2662'
p1348
sg66
S'79'
p1349
sba(isrc.gp1.models.Per36Minutes
Per36Minutes
p1350
(dp1351
g8
S'4.8'
p1352
sg10
S'0.0'
p1353
sg12
S'.478'
p1354
sg14
S'0.5'
p1355
sg16
S'8.0'
p1356
sg18
S'0.0'
p1357
sg20
g3
sg22
g23
sg24
S'2.7'
p1358
sg28
S'NBA'
p1359
sg30
S'0.5'
p1360
sg32
S'16.8'
p1361
sg34
S'19.4'
p1362
sg36
S'.740'
p1363
sg38
S'1.3'
p1364
sg40
S'25'
p1365
sg42
S'POR'
p1366
sg44
S'82'
p1367
sg46
S'2.5'
p1368
sg48
S'16.8'
p1369
sg50
S'4.6'
p1370
sg52
S'.478'
p1371
sg54
S'7.4'
p1372
sg56
S'1989-90'
p1373
sg58
S'8.0'
p1374
sg60
S'4.0'
p1375
sg62
S'3.4'
p1376
sg64
S'2462'
p1377
sg66
S'82'
p1378
sba(isrc.gp1.models.Per36Minutes
Per36Minutes
p1379
(dp1380
g8
S'2.5'
p1381
sg10
S'0.0'
p1382
sg12
S'.481'
p1383
sg14
S'1.3'
p1384
sg16
S'.000'
p1385
sg18
S'0.0'
p1386
sg20
S'18.4'
p1387
sg22
g23
sg24
S'.772'
p1388
sg28
S'NBA'
p1389
sg30
S'0.5'
p1390
sg32
S'15.5'
p1391
sg34
S'3.6'
p1392
sg36
S'4.5'
p1393
sg38
S'7.6'
p1394
sg40
S'26'
p1395
sg42
S'POR'
p1396
sg44
S'81'
p1397
sg46
S'0.5'
p1398
sg48
S'7.5'
p1399
sg50
S'3.4'
p1400
sg52
S'15.5'
p1401
sg54
S'5.1'
p1402
sg56
S'1990-91'
p1403
sg58
S'7.5'
p1404
sg60
S'2.7'
p1405
sg62
S'.482'
p1406
sg64
S'2511'
p1407
sg66
S'81'
p1408
sba(isrc.gp1.models.Per36Minutes
Per36Minutes
p1409
(dp1410
g8
S'2.4'
p1411
sg10
S'0.0'
p1412
sg12
S'.461'
p1413
sg14
S'1.6'
p1414
sg16
S'.000'
p1415
sg18
S'0.0'
p1416
sg20
S'14.3'
p1417
sg22
g23
sg24
S'.690'
p1418
sg28
S'NBA'
p1419
sg30
S'0.6'
p1420
sg32
S'12.7'
p1421
sg34
S'4.3'
p1422
sg36
S'3.7'
p1423
sg38
S'8.1'
p1424
sg40
S'27'
p1425
sg42
S'POR'
p1426
sg44
S'82'
p1427
sg46
S'0.6'
p1428
sg48
S'5.9'
p1429
sg50
S'2.5'
p1430
sg52
S'12.7'
p1431
sg54
S'5.6'
p1432
sg56
S'1991-92'
p1433
sg58
S'5.9'
p1434
sg60
S'2.3'
p1435
sg62
S'.462'
p1436
sg64
S'2222'
p1437
sg66
S'82'
p1438
sba(isrc.gp1.models.Per36Minutes
Per36Minutes
p1439
(dp1440
g8
S'2.4'
p1441
sg10
S'0.0'
p1442
sg12
S'.438'
p1443
sg14
S'1.4'
p1444
sg16
S'.000'
p1445
sg18
S'0.0'
p1446
sg20
S'14.9'
p1447
sg22
g23
sg24
S'.730'
p1448
sg28
S'NBA'
p1449
sg30
S'0.9'
p1450
sg32
S'14.1'
p1451
sg34
S'4.5'
p1452
sg36
S'3.6'
p1453
sg38
S'7.9'
p1454
sg40
S'28'
p1455
sg42
S'POR'
p1456
sg44
S'74'
p1457
sg46
S'0.8'
p1458
sg48
S'6.1'
p1459
sg50
S'2.6'
p1460
sg52
S'14.0'
p1461
sg54
S'5.5'
p1462
sg56
S'1992-93'
p1463
sg58
S'6.1'
p1464
sg60
S'1.8'
p1465
sg62
S'.439'
p1466
sg64
S'1762'
p1467
sg66
S'55'
p1468
sba(isrc.gp1.models.Per36Minutes
Per36Minutes
p1469
(dp1470
g8
S'5.4'
p1471
sg10
S'0.0'
p1472
sg12
S'.417'
p1473
sg14
S'0.9'
p1474
sg16
S'4.5'
p1475
sg18
S'0.0'
p1476
sg20
g3
sg22
g23
sg24
S'2.5'
p1477
sg28
S'NBA'
p1478
sg30
S'0.8'
p1479
sg32
S'10.7'
p1480
sg34
S'11.1'
p1481
sg36
S'.667'
p1482
sg38
S'1.4'
p1483
sg40
S'29'
p1484
sg42
S'WSB'
p1485
sg44
S'69'
p1486
sg46
S'2.4'
p1487
sg48
S'10.7'
p1488
sg50
S'3.2'
p1489
sg52
S'.417'
p1490
sg54
S'7.9'
p1491
sg56
S'1993-94'
p1492
sg58
S'4.5'
p1493
sg60
S'5.4'
p1494
sg62
S'2.1'
p1495
sg64
S'1485'
p1496
sg66
S'52'
p1497
sba(isrc.gp1.models.Per36Minutes
Per36Minutes
p1498
(dp1499
g8
S'2.9'
p1500
sg10
S'0.4'
p1501
sg12
S'.442'
p1502
sg14
S'0.9'
p1503
sg16
S'.200'
p1504
sg18
S'0.1'
p1505
sg20
S'12.5'
p1506
sg22
g23
sg24
S'.643'
p1507
sg28
S'NBA'
p1508
sg30
S'0.9'
p1509
sg32
S'11.8'
p1510
sg34
S'4.8'
p1511
sg36
S'3.1'
p1512
sg38
S'8.6'
p1513
sg40
S'30'
p1514
sg42
S'WSB'
p1515
sg44
S'40'
p1516
sg46
S'1.1'
p1517
sg48
S'5.1'
p1518
sg50
S'2.0'
p1519
sg52
S'11.3'
p1520
sg54
S'5.7'
p1521
sg56
S'1994-95'
p1522
sg58
S'5.2'
p1523
sg60
S'2.6'
p1524
sg62
S'.451'
p1525
sg64
S'818'
p1526
sg66
S'22'
p1527
sba(isrc.gp1.models.Per36Minutes
Per36Minutes
p1528
(dp1529
g8
S'3.1'
p1530
sg10
S'0.0'
p1531
sg12
S'.214'
p1532
sg14
S'1.2'
p1533
sg16
S'1.9'
p1534
sg18
S'0.0'
p1535
sg20
g3
sg22
g23
sg24
S'1.2'
p1536
sg28
S'NBA'
p1537
sg30
S'0.0'
p1538
sg32
S'8.7'
p1539
sg34
S'5.6'
p1540
sg36
S'.500'
p1541
sg38
S'1.2'
p1542
sg40
S'31'
p1543
sg42
S'MIL'
p1544
sg44
g361
sg46
S'1.2'
p1545
sg48
S'8.7'
p1546
sg50
S'3.7'
p1547
sg52
S'.214'
p1548
sg54
S'4.3'
p1549
sg56
S'1995-96'
p1550
sg58
S'1.9'
p1551
sg60
S'11.8'
p1552
sg62
S'1.9'
p1553
sg64
S'58'
p1554
sg66
g11
sba(isrc.gp1.models.Per36Minutes
Per36Minutes
p1555
(dp1556
g8
S'2.2'
p1557
sg10
S'0.4'
p1558
sg12
S'.437'
p1559
sg14
S'1.5'
p1560
sg16
S'.750'
p1561
sg18
S'0.3'
p1562
sg20
S'9.7'
p1563
sg22
g23
sg24
S'.688'
p1564
sg28
S'NBA'
p1565
sg30
S'0.8'
p1566
sg32
S'9.7'
p1567
sg34
S'5.9'
p1568
sg36
S'1.5'
p1569
sg38
S'5.6'
p1570
sg40
S'32'
p1571
sg42
S'LAC'
p1572
sg44
S'26'
p1573
sg46
S'1.0'
p1574
sg48
S'3.9'
p1575
sg50
S'1.0'
p1576
sg52
S'9.3'
p1577
sg54
S'3.5'
p1578
sg56
S'1996-97'
p1579
sg58
S'4.2'
p1580
sg60
S'3.1'
p1581
sg62
S'.424'
p1582
sg64
S'384'
p1583
sg66
S'22'
p1584
sbasS'_fromYear'
p1585
S'1987'
p1586
sS'_url'
p1587
S'http://www.basketball-reference.com/players/d/duckwke01.html'
p1588
sS'_perGame'
p1589
(isrc.gp1.models.PerGame
PerGame
p1590
(dp1591
g8
S'0.9'
p1592
sg10
S'0.2'
p1593
sg12
S'.437'
p1594
sS'_effectiveFieldGalPercentage'
p1595
S'.451'
p1596
sg14
S'0.6'
p1597
sg16
S'.750'
p1598
sg18
S'0.1'
p1599
sg20
S'4.0'
p1600
sg22
g23
sg24
S'.688'
p1601
sg28
S'NBA'
p1602
sg30
S'0.3'
p1603
sg34
S'2.4'
p1604
sS'_fieldGoalsttempted'
p1605
S'4.0'
p1606
sg36
S'0.6'
p1607
sg38
S'2.3'
p1608
sg40
S'32'
p1609
sg42
S'LAC'
p1610
sg44
S'26'
p1611
sg46
S'0.4'
p1612
sg48
S'1.6'
p1613
sg50
S'0.4'
p1614
sg52
S'3.8'
p1615
sg54
S'1.4'
p1616
sg56
S'1996-97'
p1617
sg58
S'1.7'
p1618
sg60
S'1.3'
p1619
sg62
S'.424'
p1620
sg64
S'14.8'
p1621
sg66
S'22'
p1622
sbsS'_weight'
p1623
S'275'
p1624
sS'_dob'
p1625
S'1-4-1964'
p1626
sS'_salary'
p1627
(lp1628
(isrc.gp1.models.Salary
Salary
p1629
(dp1630
g42
S'Portland Trail Blazers'
p1631
sg28
S'NBA'
p1632
sg1627
S'$175,000'
p1633
sg56
S'1987-88'
p1634
sba(isrc.gp1.models.Salary
Salary
p1635
(dp1636
g42
S'Portland Trail Blazers'
p1637
sg28
S'NBA'
p1638
sg1627
S'$2,000,000'
p1639
sg56
S'1988-89'
p1640
sba(isrc.gp1.models.Salary
Salary
p1641
(dp1642
g42
S'Portland Trail Blazers'
p1643
sg28
S'NBA'
p1644
sg1627
S'$1,710,000'
p1645
sg56
S'1990-91'
p1646
sba(isrc.gp1.models.Salary
Salary
p1647
(dp1648
g42
S'Portland Trail Blazers'
p1649
sg28
S'NBA'
p1650
sg1627
S'$2,013,000'
p1651
sg56
S'1991-92'
p1652
sba(isrc.gp1.models.Salary
Salary
p1653
(dp1654
g42
S'Portland Trail Blazers'
p1655
sg28
S'NBA'
p1656
sg1627
S'$2,213,000'
p1657
sg56
S'1992-93'
p1658
sba(isrc.gp1.models.Salary
Salary
p1659
(dp1660
g42
S'Washington Bullets'
p1661
sg28
S'NBA'
p1662
sg1627
S'$2,313,000'
p1663
sg56
S'1993-94'
p1664
sba(isrc.gp1.models.Salary
Salary
p1665
(dp1666
g42
S'Washington Bullets'
p1667
sg28
S'NBA'
p1668
sg1627
S'$2,612,500'
p1669
sg56
S'1994-95'
p1670
sba(isrc.gp1.models.Salary
Salary
p1671
(dp1672
g42
S'Milwaukee Bucks'
p1673
sg28
S'NBA'
p1674
sg1627
S'$2,863,000'
p1675
sg56
S'1995-96'
p1676
sba(isrc.gp1.models.Salary
Salary
p1677
(dp1678
g42
S'Los Angeles Clippers'
p1679
sg28
S'NBA'
p1680
sg1627
S'$247,500'
p1681
sg56
S'1996-97'
p1682
sbasg22
g23
sb.