(isrc.gp1.models.Player
Player
p0
(dp1
S'_experience'
p2
S'NA'
p3
sS'_totals'
p4
(lp5
(isrc.gp1.models.Totals
Totals
p6
(dp7
S'_offensiveRebounds'
p8
S'21'
p9
sS'_threePointsAttempted'
p10
S'84'
p11
sS'_fieldGoalsPercentage'
p12
S'.370'
p13
sS'_assist'
p14
S'145'
p15
sS'_threePointsPercentage'
p16
S'.333'
p17
sS'_threePoints'
p18
S'28'
p19
sS'_points'
p20
S'314'
p21
sS'_position'
p22
S'PG'
p23
sS'_freeThrowsPercentage'
p24
S'.778'
p25
sS'_effectiveFieldGoalPercentage'
p26
S'.415'
p27
sS'_league'
p28
S'NBA'
p29
sS'_steals'
p30
S'48'
p31
sS'_fieldGoalsAttempted'
p32
S'311'
p33
sS'_personalFouls'
p34
S'99'
p35
sS'_freeThrowsAttempted'
p36
S'72'
p37
sS'_totalRebounds'
p38
S'81'
p39
sS'_age'
p40
S'21'
p41
sS'_team'
p42
S'CHI'
p43
sS'_games'
p44
S'50'
p45
sS'_blocks'
p46
S'2'
p47
sS'_twoPoints'
p48
S'87'
p49
sS'_freeThrows'
p50
S'56'
p51
sS'_twoPointsAttempted'
p52
S'227'
p53
sS'_defensiveRebounds'
p54
S'60'
p55
sS'_season'
p56
S'2000-01'
p57
sS'_fieldGoals'
p58
S'115'
p59
sS'_turnOvers'
p60
S'54'
p61
sS'_twoPointsPercentage'
p62
S'.383'
p63
sS'_minutesPlayed'
p64
S'936'
p65
sS'_gamesStarted'
p66
S'14'
p67
sbasS'_college'
p68
S'University of Connecticut'
p69
sS'_toYear'
p70
S'2001'
p71
sS'_height'
p72
S'5-10'
p73
sS'_active'
p74
I00
sS'_shootingHand'
p75
VRight
p76
sS'_name'
p77
S'Khalid El-Amin'
p78
sS'_per100Possessions'
p79
(lp80
(isrc.gp1.models.Per100Possession
Per100Possession
p81
(dp82
g8
S'1.2'
p83
sg10
S'4.8'
p84
sg12
S'.370'
p85
sS'_offensiveRating'
p86
S'97'
p87
sg14
S'8.3'
p88
sg16
S'.333'
p89
sg18
S'1.6'
p90
sg20
S'18.0'
p91
sg22
S'PG'
p92
sS'_defensiveRating'
p93
S'108'
p94
sg24
S'.778'
p95
sg28
S'NBA'
p96
sg30
S'2.8'
p97
sg32
S'17.9'
p98
sg34
S'5.7'
p99
sg36
S'4.1'
p100
sg38
S'4.7'
p101
sg40
S'21'
p102
sg42
S'CHI'
p103
sg44
S'50'
p104
sg46
S'0.1'
p105
sg48
S'5.0'
p106
sg50
S'3.2'
p107
sg52
S'13.0'
p108
sg54
S'3.4'
p109
sg56
S'2000-01'
p110
sg58
S'6.6'
p111
sg60
S'3.1'
p112
sg62
S'.383'
p113
sg64
S'936'
p114
sg66
S'14'
p115
sbasS'_advanced'
p116
(lp117
(isrc.gp1.models.Advanced
Advanced
p118
(dp119
S'_offensiveReboundPercentage'
p120
S'2.6'
p121
sS'_turnOverPercentage'
p122
S'13.6'
p123
sS'_winSharesPer48Minutes'
p124
S'.030'
p125
sS'_stealPercentage'
p126
S'2.8'
p127
sS'_usagePercentage'
p128
S'19.7'
p129
sS'_totalReboundsPercentage'
p130
S'5.1'
p131
sS'_defensiveBoxPlusMinus'
p132
S'-2.7'
p133
sg22
S'PG'
p134
sS'_valueOverReplacementPlayer'
p135
S'-0.4'
p136
sS'_trueShootingPercentage'
p137
S'.458'
p138
sS'_defensiveReboundPercentage'
p139
S'7.9'
p140
sS'_freeThrowsAttempRate'
p141
S'.232'
p142
sS'_threePointsAttempRate'
p143
S'.270'
p144
sg28
S'NBA'
p145
sS'_offensiveBoxPlusMinues'
p146
S'-1.0'
p147
sS'_assistPercentage'
p148
S'27.5'
p149
sS'_defensiveWinShares'
p150
S'0.4'
p151
sg40
S'21'
p152
sg42
S'CHI'
p153
sg44
S'50'
p154
sS'_blockPercentage'
p155
S'0.2'
p156
sS'_playerEfficiencyRating'
p157
S'12.2'
p158
sS'_offensiveWinShares'
p159
S'0.2'
p160
sg64
S'936'
p161
sS'_boxPlusMinus'
p162
S'-3.8'
p163
sg56
S'2000-01'
p164
sS'_winShares'
p165
S'0.6'
p166
sbasS'_per36Minutes'
p167
(lp168
(isrc.gp1.models.Per36Minutes
Per36Minutes
p169
(dp170
g8
S'0.8'
p171
sg10
S'3.2'
p172
sg12
S'.370'
p173
sg14
S'5.6'
p174
sg16
S'.333'
p175
sg18
S'1.1'
p176
sg20
S'12.1'
p177
sg22
S'PG'
p178
sg24
S'.778'
p179
sg28
S'NBA'
p180
sg30
S'1.8'
p181
sg32
S'12.0'
p182
sg34
S'3.8'
p183
sg36
S'2.8'
p184
sg38
S'3.1'
p185
sg40
S'21'
p186
sg42
S'CHI'
p187
sg44
S'50'
p188
sg46
S'0.1'
p189
sg48
S'3.3'
p190
sg50
S'2.2'
p191
sg52
S'8.7'
p192
sg54
S'2.3'
p193
sg56
S'2000-01'
p194
sg58
S'4.4'
p195
sg60
S'2.1'
p196
sg62
S'.383'
p197
sg64
S'936'
p198
sg66
S'14'
p199
sbasS'_fromYear'
p200
S'2001'
p201
sS'_url'
p202
S'http://www.basketball-reference.com/players/e/elamikh01.html'
p203
sS'_perGame'
p204
(isrc.gp1.models.PerGame
PerGame
p205
(dp206
g8
S'0.4'
p207
sg10
S'1.7'
p208
sg12
S'.370'
p209
sS'_effectiveFieldGalPercentage'
p210
S'.415'
p211
sg14
S'2.9'
p212
sg16
S'.333'
p213
sg18
S'0.6'
p214
sg20
S'6.3'
p215
sg22
S'PG'
p216
sg24
S'.778'
p217
sg28
S'NBA'
p218
sg30
S'1.0'
p219
sg34
S'2.0'
p220
sS'_fieldGoalsttempted'
p221
S'6.2'
p222
sg36
S'1.4'
p223
sg38
S'1.6'
p224
sg40
S'21'
p225
sg42
S'CHI'
p226
sg44
S'50'
p227
sg46
S'0.0'
p228
sg48
S'1.7'
p229
sg50
S'1.1'
p230
sg52
S'4.5'
p231
sg54
S'1.2'
p232
sg56
S'2000-01'
p233
sg58
S'2.3'
p234
sg60
S'1.1'
p235
sg62
S'.383'
p236
sg64
S'18.7'
p237
sg66
S'14'
p238
sbsS'_weight'
p239
S'200'
p240
sS'_dob'
p241
S'25-4-1979'
p242
sS'_salary'
p243
(lp244
(isrc.gp1.models.Salary
Salary
p245
(dp246
g42
S'Chicago Bulls'
p247
sg28
S'NBA'
p248
sg243
S'$316,969'
p249
sg56
S'2000-01'
p250
sba(isrc.gp1.models.Salary
Salary
p251
(dp252
g42
S'Dallas Mavericks'
p253
sg28
S'NBA'
p254
sg243
S'$465,850'
p255
sg56
S'2001-02'
p256
sbasg22
S'G'
p257
sb.