(isrc.gp1.models.Player
Player
p0
(dp1
S'_experience'
p2
S'NA'
p3
sS'_totals'
p4
(lp5
(isrc.gp1.models.Totals
Totals
p6
(dp7
S'_offensiveRebounds'
p8
S'1'
p9
sS'_threePointsAttempted'
p10
g9
sS'_fieldGoalsPercentage'
p11
S'.273'
p12
sS'_assist'
p13
S'2'
p14
sS'_threePointsPercentage'
p15
S'.000'
p16
sS'_threePoints'
p17
S'0'
p18
sS'_points'
p19
S'7'
p20
sS'_position'
p21
S'PG'
p22
sS'_freeThrowsPercentage'
p23
S'.333'
p24
sS'_effectiveFieldGoalPercentage'
p25
S'.273'
p26
sS'_league'
p27
S'NBA'
p28
sS'_steals'
p29
g14
sS'_fieldGoalsAttempted'
p30
S'11'
p31
sS'_personalFouls'
p32
S'4'
p33
sS'_freeThrowsAttempted'
p34
S'3'
p35
sS'_totalRebounds'
p36
g14
sS'_age'
p37
S'23'
p38
sS'_team'
p39
S'LAL'
p40
sS'_games'
p41
S'6'
p42
sS'_blocks'
p43
g18
sS'_twoPoints'
p44
g35
sS'_freeThrows'
p45
g9
sS'_twoPointsAttempted'
p46
S'10'
p47
sS'_defensiveRebounds'
p48
g9
sS'_season'
p49
S'1995-96'
p50
sS'_fieldGoals'
p51
g35
sS'_turnOvers'
p52
g14
sS'_twoPointsPercentage'
p53
S'.300'
p54
sS'_minutesPlayed'
p55
S'20'
p56
sS'_gamesStarted'
p57
g18
sba(isrc.gp1.models.Totals
Totals
p58
(dp59
g8
g33
sg10
g14
sg11
S'.412'
p60
sg13
S'5'
p61
sg15
S'.500'
p62
sg17
g9
sg19
S'20'
p63
sg21
S'SG'
p64
sg23
S'1.000'
p65
sg25
S'.441'
p66
sg27
S'NBA'
p67
sg29
g33
sg30
S'17'
p68
sg32
g20
sg34
g61
sg36
S'14'
p69
sg37
S'24'
p70
sg39
S'PHI'
p71
sg41
g20
sg43
g18
sg44
g42
sg45
g61
sg46
S'15'
p72
sg48
S'10'
p73
sg49
S'1996-97'
p74
sg51
g20
sg52
g35
sg53
S'.400'
p75
sg55
S'59'
p76
sg57
g18
sbasS'_college'
p77
S'Western Carolina University'
p78
sS'_toYear'
p79
S'1997'
p80
sS'_height'
p81
S'6-1'
p82
sS'_active'
p83
I00
sS'_shootingHand'
p84
VRight
p85
sS'_name'
p86
S'Frankie King'
p87
sS'_per100Possessions'
p88
(lp89
(isrc.gp1.models.Per100Possession
Per100Possession
p90
(dp91
g8
S'2.6'
p92
sg10
S'2.6'
p93
sg11
S'.273'
p94
sS'_offensiveRating'
p95
S'64'
p96
sg13
S'5.2'
p97
sg15
S'.000'
p98
sg17
S'0.0'
p99
sg19
S'18.2'
p100
sg21
S'PG'
p101
sS'_defensiveRating'
p102
S'103'
p103
sg23
S'.333'
p104
sg27
S'NBA'
p105
sg29
S'5.2'
p106
sg30
S'28.6'
p107
sg32
S'10.4'
p108
sg34
S'7.8'
p109
sg36
S'5.2'
p110
sg37
S'23'
p111
sg39
S'LAL'
p112
sg41
g42
sg43
S'0.0'
p113
sg44
S'7.8'
p114
sg45
S'2.6'
p115
sg46
S'26.0'
p116
sg48
S'2.6'
p117
sg49
S'1995-96'
p118
sg51
S'7.8'
p119
sg52
S'5.2'
p120
sg53
S'.300'
p121
sg55
S'20'
p122
sg57
g18
sba(isrc.gp1.models.Per100Possession
Per100Possession
p123
(dp124
g8
S'3.4'
p125
sg10
S'1.7'
p126
sg11
S'.412'
p127
sg95
S'112'
p128
sg13
S'4.3'
p129
sg15
S'.500'
p130
sg17
S'0.9'
p131
sg19
S'17.1'
p132
sg21
S'SG'
p133
sg102
S'107'
p134
sg23
S'1.000'
p135
sg27
S'NBA'
p136
sg29
S'3.4'
p137
sg30
S'14.5'
p138
sg32
S'6.0'
p139
sg34
S'4.3'
p140
sg36
S'12.0'
p141
sg37
S'24'
p142
sg39
S'PHI'
p143
sg41
g20
sg43
S'0.0'
p144
sg44
S'5.1'
p145
sg45
S'4.3'
p146
sg46
S'12.8'
p147
sg48
S'8.5'
p148
sg49
S'1996-97'
p149
sg51
S'6.0'
p150
sg52
S'2.6'
p151
sg53
S'.400'
p152
sg55
S'59'
p153
sg57
g18
sbasS'_advanced'
p154
(lp155
(isrc.gp1.models.Advanced
Advanced
p156
(dp157
S'_offensiveReboundPercentage'
p158
S'5.9'
p159
sS'_turnOverPercentage'
p160
S'14.0'
p161
sS'_winSharesPer48Minutes'
p162
S'-0.234'
p163
sS'_stealPercentage'
p164
S'5.2'
p165
sS'_usagePercentage'
p166
S'32.1'
p167
sS'_totalReboundsPercentage'
p168
S'5.8'
p169
sS'_defensiveBoxPlusMinus'
p170
S'-1.2'
p171
sg21
S'PG'
p172
sS'_valueOverReplacementPlayer'
p173
S'0.0'
p174
sS'_trueShootingPercentage'
p175
S'.284'
p176
sS'_defensiveReboundPercentage'
p177
S'5.7'
p178
sS'_freeThrowsAttempRate'
p179
S'.273'
p180
sS'_threePointsAttempRate'
p181
S'.091'
p182
sg27
S'NBA'
p183
sS'_offensiveBoxPlusMinues'
p184
S'-10.5'
p185
sS'_assistPercentage'
p186
S'15.0'
p187
sS'_defensiveWinShares'
p188
S'0.0'
p189
sg37
S'23'
p190
sg39
S'LAL'
p191
sg41
g42
sS'_blockPercentage'
p192
S'0.0'
p193
sS'_playerEfficiencyRating'
p194
S'0.7'
p195
sS'_offensiveWinShares'
p196
S'-0.1'
p197
sg55
S'20'
p198
sS'_boxPlusMinus'
p199
S'-11.7'
p200
sg49
S'1995-96'
p201
sS'_winShares'
p202
S'-0.1'
p203
sba(isrc.gp1.models.Advanced
Advanced
p204
(dp205
g158
S'7.2'
p206
sg160
S'13.5'
p207
sg162
S'.113'
p208
sg164
S'3.4'
p209
sg166
S'15.9'
p210
sg168
S'12.9'
p211
sg170
S'-0.2'
p212
sg21
S'SG'
p213
sg173
S'0.0'
p214
sg175
S'.521'
p215
sg177
S'18.9'
p216
sg179
S'.294'
p217
sg181
S'.118'
p218
sg27
S'NBA'
p219
sg184
S'-1.5'
p220
sg186
S'13.2'
p221
sg188
S'0.1'
p222
sg37
S'24'
p223
sg39
S'PHI'
p224
sg41
g20
sg192
S'0.0'
p225
sg194
S'15.0'
p226
sg196
S'0.1'
p227
sg55
S'59'
p228
sg199
S'-1.7'
p229
sg49
S'1996-97'
p230
sg202
S'0.1'
p231
sbasS'_per36Minutes'
p232
(lp233
(isrc.gp1.models.Per36Minutes
Per36Minutes
p234
(dp235
g8
S'1.8'
p236
sg10
S'1.8'
p237
sg11
S'.273'
p238
sg13
S'3.6'
p239
sg15
S'.000'
p240
sg17
S'0.0'
p241
sg19
S'12.6'
p242
sg21
S'PG'
p243
sg23
S'.333'
p244
sg27
S'NBA'
p245
sg29
S'3.6'
p246
sg30
S'19.8'
p247
sg32
S'7.2'
p248
sg34
S'5.4'
p249
sg36
S'3.6'
p250
sg37
S'23'
p251
sg39
S'LAL'
p252
sg41
g42
sg43
S'0.0'
p253
sg44
S'5.4'
p254
sg45
S'1.8'
p255
sg46
S'18.0'
p256
sg48
S'1.8'
p257
sg49
S'1995-96'
p258
sg51
S'5.4'
p259
sg52
S'3.6'
p260
sg53
S'.300'
p261
sg55
S'20'
p262
sg57
g18
sba(isrc.gp1.models.Per36Minutes
Per36Minutes
p263
(dp264
g8
S'2.4'
p265
sg10
S'1.2'
p266
sg11
S'.412'
p267
sg13
S'3.1'
p268
sg15
S'.500'
p269
sg17
S'0.6'
p270
sg19
S'12.2'
p271
sg21
S'SG'
p272
sg23
S'1.000'
p273
sg27
S'NBA'
p274
sg29
S'2.4'
p275
sg30
S'10.4'
p276
sg32
S'4.3'
p277
sg34
S'3.1'
p278
sg36
S'8.5'
p279
sg37
S'24'
p280
sg39
S'PHI'
p281
sg41
g20
sg43
S'0.0'
p282
sg44
S'3.7'
p283
sg45
S'3.1'
p284
sg46
S'9.2'
p285
sg48
S'6.1'
p286
sg49
S'1996-97'
p287
sg51
S'4.3'
p288
sg52
S'1.8'
p289
sg53
S'.400'
p290
sg55
S'59'
p291
sg57
g18
sbasS'_fromYear'
p292
S'1996'
p293
sS'_url'
p294
S'http://www.basketball-reference.com/players/k/kingfr01.html'
p295
sS'_perGame'
p296
(isrc.gp1.models.PerGame
PerGame
p297
(dp298
g8
S'0.6'
p299
sg10
S'0.3'
p300
sg11
S'.412'
p301
sS'_effectiveFieldGalPercentage'
p302
S'.441'
p303
sg13
S'0.7'
p304
sg15
S'.500'
p305
sg17
S'0.1'
p306
sg19
S'2.9'
p307
sg21
S'SG'
p308
sg23
S'1.000'
p309
sg27
S'NBA'
p310
sg29
S'0.6'
p311
sg32
S'1.0'
p312
sS'_fieldGoalsttempted'
p313
S'2.4'
p314
sg34
S'0.7'
p315
sg36
S'2.0'
p316
sg37
S'24'
p317
sg39
S'PHI'
p318
sg41
g20
sg43
S'0.0'
p319
sg44
S'0.9'
p320
sg45
S'0.7'
p321
sg46
S'2.1'
p322
sg48
S'1.4'
p323
sg49
S'1996-97'
p324
sg51
S'1.0'
p325
sg52
S'0.4'
p326
sg53
S'.400'
p327
sg55
S'8.4'
p328
sg57
g18
sbsS'_weight'
p329
S'185'
p330
sS'_dob'
p331
S'6-6-1972'
p332
sS'_salary'
p333
(lp334
(isrc.gp1.models.Salary
Salary
p335
(dp336
g39
S'Los Angeles Lakers'
p337
sg27
S'NBA'
p338
sg333
S'$200,000'
p339
sg49
S'1995-96'
p340
sbasg21
S'G'
p341
sb.