(isrc.gp1.models.Player
Player
p0
(dp1
S'_experience'
p2
S'NA'
p3
sS'_totals'
p4
(lp5
(isrc.gp1.models.Totals
Totals
p6
(dp7
S'_offensiveRebounds'
p8
S'36'
p9
sS'_threePointsAttempted'
p10
S'87'
p11
sS'_fieldGoalsPercentage'
p12
S'.374'
p13
sS'_assist'
p14
S'103'
p15
sS'_threePointsPercentage'
p16
S'.241'
p17
sS'_threePoints'
p18
S'21'
p19
sS'_points'
p20
S'487'
p21
sS'_position'
p22
S'SG'
p23
sS'_freeThrowsPercentage'
p24
S'.807'
p25
sS'_effectiveFieldGoalPercentage'
p26
S'.396'
p27
sS'_league'
p28
S'ABA'
p29
sS'_steals'
p30
g3
sS'_fieldGoalsAttempted'
p31
S'494'
p32
sS'_personalFouls'
p33
S'168'
p34
sS'_freeThrowsAttempted'
p35
S'119'
p36
sS'_totalRebounds'
p37
S'113'
p38
sS'_age'
p39
S'22'
p40
sS'_team'
p41
S'MMP'
p42
sS'_games'
p43
S'74'
p44
sS'_blocks'
p45
g3
sS'_twoPoints'
p46
S'164'
p47
sS'_freeThrows'
p48
S'96'
p49
sS'_twoPointsAttempted'
p50
S'407'
p51
sS'_defensiveRebounds'
p52
S'77'
p53
sS'_season'
p54
S'1971-72'
p55
sS'_fieldGoals'
p56
S'185'
p57
sS'_turnOvers'
p58
S'76'
p59
sS'_twoPointsPercentage'
p60
S'.403'
p61
sS'_minutesPlayed'
p62
S'1153'
p63
sS'_gamesStarted'
p64
g3
sba(isrc.gp1.models.Totals
Totals
p65
(dp66
g8
S'2'
p67
sg10
S'3'
p68
sg12
S'.207'
p69
sg14
S'14'
p70
sg16
S'.000'
p71
sg18
S'0'
p72
sg20
S'19'
p73
sg22
S'SG'
p74
sg24
S'.875'
p75
sg26
S'.207'
p76
sg28
S'ABA'
p77
sg30
g3
sg31
S'29'
p78
sg33
S'20'
p79
sg35
S'8'
p80
sg37
S'12'
p81
sg39
S'23'
p82
sg41
S'MMT'
p83
sg43
S'10'
p84
sg45
g3
sg46
S'6'
p85
sg48
S'7'
p86
sg50
S'26'
p87
sg52
S'10'
p88
sg54
S'1972-73'
p89
sg56
g85
sg58
S'4'
p90
sg60
S'.231'
p91
sg62
S'102'
p92
sg64
g3
sbasS'_college'
p93
S'Virginia Polytechnic Institute and State University'
p94
sS'_toYear'
p95
S'1973'
p96
sS'_height'
p97
S'6-2'
p98
sS'_active'
p99
I00
sS'_shootingHand'
p100
VRight
p101
sS'_name'
p102
S'Loyd King'
p103
sS'_per100Possessions'
p104
(lp105
sS'_advanced'
p106
(lp107
(isrc.gp1.models.Advanced
Advanced
p108
(dp109
S'_offensiveReboundPercentage'
p110
S'2.6'
p111
sS'_turnOverPercentage'
p112
S'12.2'
p113
sS'_winSharesPer48Minutes'
p114
S'.017'
p115
sS'_stealPercentage'
p116
g3
sS'_usagePercentage'
p117
S'19.8'
p118
sS'_totalReboundsPercentage'
p119
S'4.3'
p120
sS'_defensiveBoxPlusMinus'
p121
g3
sg22
S'SG'
p122
sS'_valueOverReplacementPlayer'
p123
g3
sS'_trueShootingPercentage'
p124
S'.446'
p125
sS'_defensiveReboundPercentage'
p126
S'6.2'
p127
sS'_freeThrowsAttempRate'
p128
S'.241'
p129
sS'_threePointsAttempRate'
p130
S'.176'
p131
sg28
S'ABA'
p132
sS'_offensiveBoxPlusMinues'
p133
g3
sS'_assistPercentage'
p134
S'12.7'
p135
sS'_defensiveWinShares'
p136
S'1.4'
p137
sg39
S'22'
p138
sg41
S'MMP'
p139
sg43
S'74'
p140
sS'_blockPercentage'
p141
g3
sS'_playerEfficiencyRating'
p142
S'8.2'
p143
sS'_offensiveWinShares'
p144
S'-0.9'
p145
sg62
S'1153'
p146
sS'_boxPlusMinus'
p147
g3
sg54
S'1971-72'
p148
sS'_winShares'
p149
S'0.4'
p150
sba(isrc.gp1.models.Advanced
Advanced
p151
(dp152
g110
S'1.9'
p153
sg112
S'11.0'
p154
sg114
S'-0.148'
p155
sg116
g3
sg117
S'13.8'
p156
sg119
S'5.7'
p157
sg121
g3
sg22
S'SG'
p158
sg123
g3
sg124
S'.292'
p159
sg126
S'9.7'
p160
sg128
S'.276'
p161
sg130
S'.103'
p162
sg28
S'ABA'
p163
sg133
g3
sg134
S'16.5'
p164
sg136
S'0.0'
p165
sg39
S'23'
p166
sg41
S'MMT'
p167
sg43
S'10'
p168
sg141
g3
sg142
S'1.6'
p169
sg144
S'-0.3'
p170
sg62
S'102'
p171
sg147
g3
sg54
S'1972-73'
p172
sg149
S'-0.3'
p173
sbasS'_per36Minutes'
p174
(lp175
(isrc.gp1.models.Per36Minutes
Per36Minutes
p176
(dp177
g8
S'1.1'
p178
sg10
S'2.7'
p179
sg12
S'.374'
p180
sg14
S'3.2'
p181
sg16
S'.241'
p182
sg18
S'0.7'
p183
sg20
S'15.2'
p184
sg22
S'SG'
p185
sg24
S'.807'
p186
sg28
S'ABA'
p187
sg30
g3
sg31
S'15.4'
p188
sg33
S'5.2'
p189
sg35
S'3.7'
p190
sg37
S'3.5'
p191
sg39
S'22'
p192
sg41
S'MMP'
p193
sg43
S'74'
p194
sg45
g3
sg46
S'5.1'
p195
sg48
S'3.0'
p196
sg50
S'12.7'
p197
sg52
S'2.4'
p198
sg54
S'1971-72'
p199
sg56
S'5.8'
p200
sg58
S'2.4'
p201
sg60
S'.403'
p202
sg62
S'1153'
p203
sg64
g3
sba(isrc.gp1.models.Per36Minutes
Per36Minutes
p204
(dp205
g8
S'0.7'
p206
sg10
S'1.1'
p207
sg12
S'.207'
p208
sg14
S'4.9'
p209
sg16
S'.000'
p210
sg18
S'0.0'
p211
sg20
S'6.7'
p212
sg22
S'SG'
p213
sg24
S'.875'
p214
sg28
S'ABA'
p215
sg30
g3
sg31
S'10.2'
p216
sg33
S'7.1'
p217
sg35
S'2.8'
p218
sg37
S'4.2'
p219
sg39
S'23'
p220
sg41
S'MMT'
p221
sg43
S'10'
p222
sg45
g3
sg46
S'2.1'
p223
sg48
S'2.5'
p224
sg50
S'9.2'
p225
sg52
S'3.5'
p226
sg54
S'1972-73'
p227
sg56
S'2.1'
p228
sg58
S'1.4'
p229
sg60
S'.231'
p230
sg62
S'102'
p231
sg64
g3
sbasS'_fromYear'
p232
S'1972'
p233
sS'_url'
p234
S'http://www.basketball-reference.com/players/k/kinglo01.html'
p235
sS'_perGame'
p236
(isrc.gp1.models.PerGame
PerGame
p237
(dp238
g8
S'0.2'
p239
sg10
S'0.3'
p240
sg12
S'.207'
p241
sS'_effectiveFieldGalPercentage'
p242
S'.207'
p243
sg14
S'1.4'
p244
sg16
S'.000'
p245
sg18
S'0.0'
p246
sg20
S'1.9'
p247
sg22
S'SG'
p248
sg24
S'.875'
p249
sg28
S'ABA'
p250
sg30
g3
sg33
S'2.0'
p251
sS'_fieldGoalsttempted'
p252
S'2.9'
p253
sg35
S'0.8'
p254
sg37
S'1.2'
p255
sg39
S'23'
p256
sg41
S'MMT'
p257
sg43
S'10'
p258
sg45
g3
sg46
S'0.6'
p259
sg48
S'0.7'
p260
sg50
S'2.6'
p261
sg52
S'1.0'
p262
sg54
S'1972-73'
p263
sg56
S'0.6'
p264
sg58
S'0.4'
p265
sg60
S'.231'
p266
sg62
S'10.2'
p267
sg64
g3
sbsS'_weight'
p268
S'180'
p269
sS'_dob'
p270
S'29-5-1949'
p271
sS'_salary'
p272
(lp273
sg22
S'G'
p274
sb.