(isrc.gp1.models.Player
Player
p0
(dp1
S'_experience'
p2
V7
p3
sS'_totals'
p4
(lp5
(isrc.gp1.models.Totals
Totals
p6
(dp7
S'_offensiveRebounds'
p8
S'38'
p9
sS'_threePointsAttempted'
p10
S'13'
p11
sS'_fieldGoalsPercentage'
p12
S'.445'
p13
sS'_assist'
p14
S'15'
p15
sS'_threePointsPercentage'
p16
S'.154'
p17
sS'_threePoints'
p18
S'2'
p19
sS'_points'
p20
S'213'
p21
sS'_position'
p22
S'PF'
p23
sS'_freeThrowsPercentage'
p24
S'.704'
p25
sS'_effectiveFieldGoalPercentage'
p26
S'.451'
p27
sS'_league'
p28
S'NBA'
p29
sS'_steals'
p30
S'10'
p31
sS'_fieldGoalsAttempted'
p32
S'173'
p33
sS'_personalFouls'
p34
S'87'
p35
sS'_freeThrowsAttempted'
p36
S'81'
p37
sS'_totalRebounds'
p38
S'116'
p39
sS'_age'
p40
S'21'
p41
sS'_team'
p42
S'DEN'
p43
sS'_games'
p44
S'61'
p45
sS'_blocks'
p46
S'13'
p47
sS'_twoPoints'
p48
S'75'
p49
sS'_freeThrows'
p50
S'57'
p51
sS'_twoPointsAttempted'
p52
S'160'
p53
sS'_defensiveRebounds'
p54
S'78'
p55
sS'_season'
p56
S'2005-06'
p57
sS'_fieldGoals'
p58
S'77'
p59
sS'_turnOvers'
p60
S'16'
p61
sS'_twoPointsPercentage'
p62
S'.469'
p63
sS'_minutesPlayed'
p64
S'519'
p65
sS'_gamesStarted'
p66
g19
sba(isrc.gp1.models.Totals
Totals
p67
(dp68
g8
S'77'
p69
sg10
S'221'
p70
sg12
S'.422'
p71
sg14
S'45'
p72
sg16
S'.376'
p73
sg18
S'83'
p74
sg20
S'598'
p75
sg22
S'PF'
p76
sg24
S'.852'
p77
sg26
S'.509'
p78
sg28
S'NBA'
p79
sg30
S'28'
p80
sg32
S'474'
p81
sg34
S'200'
p82
sg36
S'135'
p83
sg38
S'266'
p84
sg40
S'22'
p85
sg42
S'DEN'
p86
sg44
S'79'
p87
sg46
S'14'
p88
sg48
S'117'
p89
sg50
S'115'
p90
sg52
S'253'
p91
sg54
S'189'
p92
sg56
S'2006-07'
p93
sg58
S'200'
p94
sg60
S'79'
p95
sg62
S'.462'
p96
sg64
S'1488'
p97
sg66
S'14'
p98
sba(isrc.gp1.models.Totals
Totals
p99
(dp100
g8
S'92'
p101
sg10
S'277'
p102
sg12
S'.472'
p103
sg14
S'95'
p104
sg16
S'.339'
p105
sg18
S'94'
p106
sg20
S'880'
p107
sg22
S'SF'
p108
sg24
S'.770'
p109
sg26
S'.543'
p110
sg28
S'NBA'
p111
sg30
S'44'
p112
sg32
S'659'
p113
sg34
S'181'
p114
sg36
S'213'
p115
sg38
S'333'
p116
sg40
S'23'
p117
sg42
S'DEN'
p118
sg44
S'79'
p119
sg46
S'19'
p120
sg48
S'217'
p121
sg50
S'164'
p122
sg52
S'382'
p123
sg54
S'241'
p124
sg56
S'2007-08'
p125
sg58
S'311'
p126
sg60
S'89'
p127
sg62
S'.568'
p128
sg64
S'1889'
p129
sg66
S'13'
p130
sba(isrc.gp1.models.Totals
Totals
p131
(dp132
g8
S'92'
p133
sg10
S'267'
p134
sg12
S'.447'
p135
sg14
S'64'
p136
sg16
S'.326'
p137
sg18
S'87'
p138
sg20
S'813'
p139
sg22
S'SF'
p140
sg24
S'.725'
p141
sg26
S'.515'
p142
sg28
S'NBA'
p143
sg30
S'31'
p144
sg32
S'646'
p145
sg34
S'155'
p146
sg36
S'204'
p147
sg38
S'327'
p148
sg40
S'24'
p149
sg42
S'DEN'
p150
sg44
S'82'
p151
sg46
S'14'
p152
sg48
S'202'
p153
sg50
S'148'
p154
sg52
S'379'
p155
sg54
S'235'
p156
sg56
S'2008-09'
p157
sg58
S'289'
p158
sg60
S'82'
p159
sg62
S'.533'
p160
sg64
S'1824'
p161
sg66
S'7'
p162
sba(isrc.gp1.models.Totals
Totals
p163
(dp164
g8
S'NA'
p165
sg10
g165
sg12
g165
sg14
g165
sg16
g165
sg18
g165
sg20
g165
sg22
g165
sg24
g165
sg26
g165
sg28
g165
sg30
g165
sg32
g165
sg34
g165
sg36
g165
sg38
g165
sg40
S'25'
p166
sg42
S'Did Not Play\xc2\xa0(other pro league\xe2\x80\x94Greece)'
p167
sg44
g165
sg46
g165
sg48
g165
sg50
g165
sg52
g165
sg54
g165
sg56
S'2009-10'
p168
sg58
g165
sg60
g165
sg62
g165
sg64
g165
sg66
g165
sba(isrc.gp1.models.Totals
Totals
p169
(dp170
g8
S'37'
p171
sg10
S'131'
p172
sg12
S'.438'
p173
sg14
S'40'
p174
sg16
S'.298'
p175
sg18
S'39'
p176
sg20
S'436'
p177
sg22
S'SF'
p178
sg24
S'.631'
p179
sg26
S'.486'
p180
sg28
S'NBA'
p181
sg30
S'19'
p182
sg32
S'406'
p183
sg34
S'99'
p184
sg36
S'65'
p185
sg38
S'177'
p186
sg40
S'26'
p187
sg42
S'TOR'
p188
sg44
S'39'
p189
sg46
g162
sg48
S'139'
p190
sg50
S'41'
p191
sg52
S'275'
p192
sg54
S'140'
p193
sg56
S'2010-11'
p194
sg58
S'178'
p195
sg60
S'65'
p196
sg62
S'.505'
p197
sg64
S'1032'
p198
sg66
S'23'
p199
sba(isrc.gp1.models.Totals
Totals
p200
(dp201
g8
S'42'
p202
sg10
S'179'
p203
sg12
S'.402'
p204
sg14
S'46'
p205
sg16
S'.346'
p206
sg18
S'62'
p207
sg20
S'473'
p208
sg22
S'SF'
p209
sg24
S'.810'
p210
sg26
S'.478'
p211
sg28
S'NBA'
p212
sg30
S'23'
p213
sg32
S'410'
p214
sg34
S'119'
p215
sg36
S'100'
p216
sg38
S'199'
p217
sg40
S'27'
p218
sg42
S'TOR'
p219
sg44
S'49'
p220
sg46
S'4'
p221
sg48
S'103'
p222
sg50
S'81'
p223
sg52
S'231'
p224
sg54
S'157'
p225
sg56
S'2011-12'
p226
sg58
S'165'
p227
sg60
S'64'
p228
sg62
S'.446'
p229
sg64
S'1057'
p230
sg66
S'3'
p231
sba(isrc.gp1.models.Totals
Totals
p232
(dp233
g8
S'10'
p234
sg10
S'66'
p235
sg12
S'.333'
p236
sg14
S'16'
p237
sg16
S'.303'
p238
sg18
S'20'
p239
sg20
S'148'
p240
sg22
S'SF'
p241
sg24
S'.842'
p242
sg26
S'.403'
p243
sg28
S'NBA'
p244
sg30
g221
sg32
S'144'
p245
sg34
S'45'
p246
sg36
S'38'
p247
sg38
S'52'
p248
sg40
S'28'
p249
sg42
S'TOR'
p250
sg44
S'20'
p251
sg46
g19
sg48
S'28'
p252
sg50
S'32'
p253
sg52
S'78'
p254
sg54
S'42'
p255
sg56
S'2012-13'
p256
sg58
S'48'
p257
sg60
S'14'
p258
sg62
S'.359'
p259
sg64
S'376'
p260
sg66
g231
sbasS'_college'
p261
S'University of Missouri'
p262
sS'_toYear'
p263
S'2013'
p264
sS'_height'
p265
S'6-8'
p266
sS'_active'
p267
I01
sS'_shootingHand'
p268
VRight
p269
sS'_name'
p270
S'Linas Kleiza'
p271
sS'_per100Possessions'
p272
(lp273
(isrc.gp1.models.Per100Possession
Per100Possession
p274
(dp275
g8
S'3.7'
p276
sg10
S'1.3'
p277
sg12
S'.445'
p278
sS'_offensiveRating'
p279
S'109'
p280
sg14
S'1.5'
p281
sg16
S'.154'
p282
sg18
S'0.2'
p283
sg20
S'21.0'
p284
sg22
S'PF'
p285
sS'_defensiveRating'
p286
S'106'
p287
sg24
S'.704'
p288
sg28
S'NBA'
p289
sg30
S'1.0'
p290
sg32
S'17.0'
p291
sg34
S'8.6'
p292
sg36
S'8.0'
p293
sg38
S'11.4'
p294
sg40
S'21'
p295
sg42
S'DEN'
p296
sg44
S'61'
p297
sg46
S'1.3'
p298
sg48
S'7.4'
p299
sg50
S'5.6'
p300
sg52
S'15.8'
p301
sg54
S'7.7'
p302
sg56
S'2005-06'
p303
sg58
S'7.6'
p304
sg60
S'1.6'
p305
sg62
S'.469'
p306
sg64
S'519'
p307
sg66
g19
sba(isrc.gp1.models.Per100Possession
Per100Possession
p308
(dp309
g8
S'2.5'
p310
sg10
S'7.3'
p311
sg12
S'.422'
p312
sg279
S'108'
p313
sg14
S'1.5'
p314
sg16
S'.376'
p315
sg18
S'2.7'
p316
sg20
S'19.8'
p317
sg22
S'PF'
p318
sg286
S'108'
p319
sg24
S'.852'
p320
sg28
S'NBA'
p321
sg30
S'0.9'
p322
sg32
S'15.7'
p323
sg34
S'6.6'
p324
sg36
S'4.5'
p325
sg38
S'8.8'
p326
sg40
S'22'
p327
sg42
S'DEN'
p328
sg44
S'79'
p329
sg46
S'0.5'
p330
sg48
S'3.9'
p331
sg50
S'3.8'
p332
sg52
S'8.4'
p333
sg54
S'6.3'
p334
sg56
S'2006-07'
p335
sg58
S'6.6'
p336
sg60
S'2.6'
p337
sg62
S'.462'
p338
sg64
S'1488'
p339
sg66
S'14'
p340
sba(isrc.gp1.models.Per100Possession
Per100Possession
p341
(dp342
g8
S'2.3'
p343
sg10
S'7.1'
p344
sg12
S'.472'
p345
sg279
S'114'
p346
sg14
S'2.4'
p347
sg16
S'.339'
p348
sg18
S'2.4'
p349
sg20
S'22.4'
p350
sg22
S'SF'
p351
sg286
S'109'
p352
sg24
S'.770'
p353
sg28
S'NBA'
p354
sg30
S'1.1'
p355
sg32
S'16.8'
p356
sg34
S'4.6'
p357
sg36
S'5.4'
p358
sg38
S'8.5'
p359
sg40
S'23'
p360
sg42
S'DEN'
p361
sg44
S'79'
p362
sg46
S'0.5'
p363
sg48
S'5.5'
p364
sg50
S'4.2'
p365
sg52
S'9.7'
p366
sg54
S'6.1'
p367
sg56
S'2007-08'
p368
sg58
S'7.9'
p369
sg60
S'2.3'
p370
sg62
S'.568'
p371
sg64
S'1889'
p372
sg66
S'13'
p373
sba(isrc.gp1.models.Per100Possession
Per100Possession
p374
(dp375
g8
S'2.6'
p376
sg10
S'7.5'
p377
sg12
S'.447'
p378
sg279
S'110'
p379
sg14
S'1.8'
p380
sg16
S'.326'
p381
sg18
S'2.4'
p382
sg20
S'22.7'
p383
sg22
S'SF'
p384
sg286
S'110'
p385
sg24
S'.725'
p386
sg28
S'NBA'
p387
sg30
S'0.9'
p388
sg32
S'18.0'
p389
sg34
S'4.3'
p390
sg36
S'5.7'
p391
sg38
S'9.1'
p392
sg40
S'24'
p393
sg42
S'DEN'
p394
sg44
S'82'
p395
sg46
S'0.4'
p396
sg48
S'5.6'
p397
sg50
S'4.1'
p398
sg52
S'10.6'
p399
sg54
S'6.6'
p400
sg56
S'2008-09'
p401
sg58
S'8.1'
p402
sg60
S'2.3'
p403
sg62
S'.533'
p404
sg64
S'1824'
p405
sg66
g162
sba(isrc.gp1.models.Per100Possession
Per100Possession
p406
(dp407
g8
S'1.9'
p408
sg10
S'6.6'
p409
sg12
S'.438'
p410
sg279
S'95'
p411
sg14
S'2.0'
p412
sg16
S'.298'
p413
sg18
S'2.0'
p414
sg20
S'21.8'
p415
sg22
S'SF'
p416
sg286
S'114'
p417
sg24
S'.631'
p418
sg28
S'NBA'
p419
sg30
S'1.0'
p420
sg32
S'20.3'
p421
sg34
S'5.0'
p422
sg36
S'3.3'
p423
sg38
S'8.9'
p424
sg40
S'26'
p425
sg42
S'TOR'
p426
sg44
S'39'
p427
sg46
S'0.4'
p428
sg48
S'7.0'
p429
sg50
S'2.1'
p430
sg52
S'13.8'
p431
sg54
S'7.0'
p432
sg56
S'2010-11'
p433
sg58
S'8.9'
p434
sg60
S'3.3'
p435
sg62
S'.505'
p436
sg64
S'1032'
p437
sg66
S'23'
p438
sba(isrc.gp1.models.Per100Possession
Per100Possession
p439
(dp440
g8
S'2.1'
p441
sg10
S'9.1'
p442
sg12
S'.402'
p443
sg279
S'100'
p444
sg14
S'2.3'
p445
sg16
S'.346'
p446
sg18
S'3.2'
p447
sg20
S'24.1'
p448
sg22
S'SF'
p449
sg286
S'105'
p450
sg24
S'.810'
p451
sg28
S'NBA'
p452
sg30
S'1.2'
p453
sg32
S'20.9'
p454
sg34
S'6.1'
p455
sg36
S'5.1'
p456
sg38
S'10.1'
p457
sg40
S'27'
p458
sg42
S'TOR'
p459
sg44
S'49'
p460
sg46
S'0.2'
p461
sg48
S'5.2'
p462
sg50
S'4.1'
p463
sg52
S'11.8'
p464
sg54
S'8.0'
p465
sg56
S'2011-12'
p466
sg58
S'8.4'
p467
sg60
S'3.3'
p468
sg62
S'.446'
p469
sg64
S'1057'
p470
sg66
g231
sba(isrc.gp1.models.Per100Possession
Per100Possession
p471
(dp472
g8
S'1.4'
p473
sg10
S'9.3'
p474
sg12
S'.333'
p475
sg279
S'96'
p476
sg14
S'2.3'
p477
sg16
S'.303'
p478
sg18
S'2.8'
p479
sg20
S'20.9'
p480
sg22
S'SF'
p481
sg286
S'111'
p482
sg24
S'.842'
p483
sg28
S'NBA'
p484
sg30
S'0.6'
p485
sg32
S'20.3'
p486
sg34
S'6.4'
p487
sg36
S'5.4'
p488
sg38
S'7.3'
p489
sg40
S'28'
p490
sg42
S'TOR'
p491
sg44
S'20'
p492
sg46
S'0.3'
p493
sg48
S'4.0'
p494
sg50
S'4.5'
p495
sg52
S'11.0'
p496
sg54
S'5.9'
p497
sg56
S'2012-13'
p498
sg58
S'6.8'
p499
sg60
S'2.0'
p500
sg62
S'.359'
p501
sg64
S'376'
p502
sg66
g231
sbasS'_advanced'
p503
(lp504
(isrc.gp1.models.Advanced
Advanced
p505
(dp506
S'_offensiveReboundPercentage'
p507
S'8.7'
p508
sS'_turnOverPercentage'
p509
S'7.1'
p510
sS'_winSharesPer48Minutes'
p511
S'.111'
p512
sS'_stealPercentage'
p513
S'1.0'
p514
sS'_usagePercentage'
p515
S'19.4'
p516
sS'_totalReboundsPercentage'
p517
S'13.1'
p518
sS'_defensiveBoxPlusMinus'
p519
S'-1.7'
p520
sg22
S'PF'
p521
sS'_valueOverReplacementPlayer'
p522
S'-0.3'
p523
sS'_trueShootingPercentage'
p524
S'.510'
p525
sS'_defensiveReboundPercentage'
p526
S'17.4'
p527
sS'_freeThrowsAttempRate'
p528
S'.468'
p529
sS'_threePointsAttempRate'
p530
S'.075'
p531
sg28
S'NBA'
p532
sS'_offensiveBoxPlusMinues'
p533
S'-2.5'
p534
sS'_assistPercentage'
p535
S'4.6'
p536
sS'_defensiveWinShares'
p537
S'0.6'
p538
sg40
S'21'
p539
sg42
S'DEN'
p540
sg44
S'61'
p541
sS'_blockPercentage'
p542
S'1.9'
p543
sS'_playerEfficiencyRating'
p544
S'13.2'
p545
sS'_offensiveWinShares'
p546
S'0.6'
p547
sg64
S'519'
p548
sS'_boxPlusMinus'
p549
S'-4.3'
p550
sg56
S'2005-06'
p551
sS'_winShares'
p552
S'1.2'
p553
sba(isrc.gp1.models.Advanced
Advanced
p554
(dp555
g507
S'5.9'
p556
sg509
S'12.9'
p557
sg511
S'.090'
p558
sg513
S'0.9'
p559
sg515
S'17.6'
p560
sg517
S'10.1'
p561
sg519
S'-1.7'
p562
sg22
S'PF'
p563
sg522
S'-0.1'
p564
sg524
S'.561'
p565
sg526
S'14.1'
p566
sg528
S'.285'
p567
sg530
S'.466'
p568
sg28
S'NBA'
p569
sg533
S'-0.5'
p570
sg535
S'4.5'
p571
sg537
S'1.2'
p572
sg40
S'22'
p573
sg42
S'DEN'
p574
sg44
S'79'
p575
sg542
S'0.7'
p576
sg544
S'11.1'
p577
sg546
S'1.6'
p578
sg64
S'1488'
p579
sg549
S'-2.3'
p580
sg56
S'2006-07'
p581
sg552
S'2.8'
p582
sba(isrc.gp1.models.Advanced
Advanced
p583
(dp584
g507
S'5.4'
p585
sg509
S'10.6'
p586
sg511
S'.119'
p587
sg513
S'1.1'
p588
sg515
S'18.9'
p589
sg517
S'9.5'
p590
sg519
S'-1.7'
p591
sg22
S'SF'
p592
sg522
S'0.7'
p593
sg524
S'.585'
p594
sg526
S'13.5'
p595
sg528
S'.323'
p596
sg530
S'.420'
p597
sg28
S'NBA'
p598
sg533
S'1.1'
p599
sg535
S'7.5'
p600
sg537
S'1.6'
p601
sg40
S'23'
p602
sg42
S'DEN'
p603
sg44
S'79'
p604
sg542
S'0.7'
p605
sg544
S'14.4'
p606
sg546
S'3.1'
p607
sg64
S'1889'
p608
sg549
S'-0.6'
p609
sg56
S'2007-08'
p610
sg552
S'4.7'
p611
sba(isrc.gp1.models.Advanced
Advanced
p612
(dp613
g507
S'6.0'
p614
sg509
S'10.0'
p615
sg511
S'.095'
p616
sg513
S'0.9'
p617
sg515
S'20.0'
p618
sg517
S'10.4'
p619
sg519
S'-2.2'
p620
sg22
S'SF'
p621
sg522
S'0.0'
p622
sg524
S'.552'
p623
sg526
S'14.5'
p624
sg528
S'.316'
p625
sg530
S'.413'
p626
sg28
S'NBA'
p627
sg533
S'0.1'
p628
sg535
S'5.7'
p629
sg537
S'1.5'
p630
sg40
S'24'
p631
sg42
S'DEN'
p632
sg44
S'82'
p633
sg542
S'0.6'
p634
sg544
S'13.2'
p635
sg546
S'2.1'
p636
sg64
S'1824'
p637
sg549
S'-2.1'
p638
sg56
S'2008-09'
p639
sg552
S'3.6'
p640
sba(isrc.gp1.models.Advanced
Advanced
p641
(dp642
g507
S'4.1'
p643
sg509
S'13.0'
p644
sg511
S'-0.012'
p645
sg513
S'1.0'
p646
sg515
S'21.7'
p647
sg517
S'10.2'
p648
sg519
S'-2.7'
p649
sg22
S'SF'
p650
sg522
S'-0.7'
p651
sg524
S'.502'
p652
sg526
S'16.5'
p653
sg528
S'.160'
p654
sg530
S'.323'
p655
sg28
S'NBA'
p656
sg533
S'-2.0'
p657
sg535
S'6.2'
p658
sg537
S'0.2'
p659
sg40
S'26'
p660
sg42
S'TOR'
p661
sg44
S'39'
p662
sg542
S'0.5'
p663
sg544
S'10.1'
p664
sg546
S'-0.5'
p665
sg64
S'1032'
p666
sg549
S'-4.7'
p667
sg56
S'2010-11'
p668
sg552
S'-0.3'
p669
sba(isrc.gp1.models.Advanced
Advanced
p670
(dp671
g507
S'4.7'
p672
sg509
S'12.4'
p673
sg511
S'.066'
p674
sg513
S'1.2'
p675
sg515
S'23.1'
p676
sg517
S'11.0'
p677
sg519
S'-1.9'
p678
sg22
S'SF'
p679
sg522
S'-0.1'
p680
sg524
S'.521'
p681
sg526
S'17.2'
p682
sg528
S'.244'
p683
sg530
S'.437'
p684
sg28
S'NBA'
p685
sg533
S'-0.3'
p686
sg535
S'7.9'
p687
sg537
S'1.0'
p688
sg40
S'27'
p689
sg42
S'TOR'
p690
sg44
S'49'
p691
sg542
S'0.3'
p692
sg544
S'12.4'
p693
sg546
S'0.5'
p694
sg64
S'1057'
p695
sg549
S'-2.2'
p696
sg56
S'2011-12'
p697
sg552
S'1.5'
p698
sba(isrc.gp1.models.Advanced
Advanced
p699
(dp700
g507
S'3.1'
p701
sg509
S'8.0'
p702
sg511
S'.013'
p703
sg513
S'0.6'
p704
sg515
S'21.6'
p705
sg517
S'8.2'
p706
sg519
S'-3.4'
p707
sg22
S'SF'
p708
sg522
S'-0.3'
p709
sg524
S'.460'
p710
sg526
S'13.5'
p711
sg528
S'.264'
p712
sg530
S'.458'
p713
sg28
S'NBA'
p714
sg533
S'-2.3'
p715
sg535
S'6.9'
p716
sg537
S'0.2'
p717
sg40
S'28'
p718
sg42
S'TOR'
p719
sg44
S'20'
p720
sg542
S'0.4'
p721
sg544
S'8.2'
p722
sg546
S'-0.1'
p723
sg64
S'376'
p724
sg549
S'-5.7'
p725
sg56
S'2012-13'
p726
sg552
S'0.1'
p727
sbasS'_per36Minutes'
p728
(lp729
(isrc.gp1.models.Per36Minutes
Per36Minutes
p730
(dp731
g8
S'2.6'
p732
sg10
S'0.9'
p733
sg12
S'.445'
p734
sg14
S'1.0'
p735
sg16
S'.154'
p736
sg18
S'0.1'
p737
sg20
S'14.8'
p738
sg22
S'PF'
p739
sg24
S'.704'
p740
sg28
S'NBA'
p741
sg30
S'0.7'
p742
sg32
S'12.0'
p743
sg34
S'6.0'
p744
sg36
S'5.6'
p745
sg38
S'8.0'
p746
sg40
S'21'
p747
sg42
S'DEN'
p748
sg44
S'61'
p749
sg46
S'0.9'
p750
sg48
S'5.2'
p751
sg50
S'4.0'
p752
sg52
S'11.1'
p753
sg54
S'5.4'
p754
sg56
S'2005-06'
p755
sg58
S'5.3'
p756
sg60
S'1.1'
p757
sg62
S'.469'
p758
sg64
S'519'
p759
sg66
g19
sba(isrc.gp1.models.Per36Minutes
Per36Minutes
p760
(dp761
g8
S'1.9'
p762
sg10
S'5.3'
p763
sg12
S'.422'
p764
sg14
S'1.1'
p765
sg16
S'.376'
p766
sg18
S'2.0'
p767
sg20
S'14.5'
p768
sg22
S'PF'
p769
sg24
S'.852'
p770
sg28
S'NBA'
p771
sg30
S'0.7'
p772
sg32
S'11.5'
p773
sg34
S'4.8'
p774
sg36
S'3.3'
p775
sg38
S'6.4'
p776
sg40
S'22'
p777
sg42
S'DEN'
p778
sg44
S'79'
p779
sg46
S'0.3'
p780
sg48
S'2.8'
p781
sg50
S'2.8'
p782
sg52
S'6.1'
p783
sg54
S'4.6'
p784
sg56
S'2006-07'
p785
sg58
S'4.8'
p786
sg60
S'1.9'
p787
sg62
S'.462'
p788
sg64
S'1488'
p789
sg66
S'14'
p790
sba(isrc.gp1.models.Per36Minutes
Per36Minutes
p791
(dp792
g8
S'1.8'
p793
sg10
S'5.3'
p794
sg12
S'.472'
p795
sg14
S'1.8'
p796
sg16
S'.339'
p797
sg18
S'1.8'
p798
sg20
S'16.8'
p799
sg22
S'SF'
p800
sg24
S'.770'
p801
sg28
S'NBA'
p802
sg30
S'0.8'
p803
sg32
S'12.6'
p804
sg34
S'3.4'
p805
sg36
S'4.1'
p806
sg38
S'6.3'
p807
sg40
S'23'
p808
sg42
S'DEN'
p809
sg44
S'79'
p810
sg46
S'0.4'
p811
sg48
S'4.1'
p812
sg50
S'3.1'
p813
sg52
S'7.3'
p814
sg54
S'4.6'
p815
sg56
S'2007-08'
p816
sg58
S'5.9'
p817
sg60
S'1.7'
p818
sg62
S'.568'
p819
sg64
S'1889'
p820
sg66
S'13'
p821
sba(isrc.gp1.models.Per36Minutes
Per36Minutes
p822
(dp823
g8
S'1.8'
p824
sg10
S'5.3'
p825
sg12
S'.447'
p826
sg14
S'1.3'
p827
sg16
S'.326'
p828
sg18
S'1.7'
p829
sg20
S'16.0'
p830
sg22
S'SF'
p831
sg24
S'.725'
p832
sg28
S'NBA'
p833
sg30
S'0.6'
p834
sg32
S'12.7'
p835
sg34
S'3.1'
p836
sg36
S'4.0'
p837
sg38
S'6.5'
p838
sg40
S'24'
p839
sg42
S'DEN'
p840
sg44
S'82'
p841
sg46
S'0.3'
p842
sg48
S'4.0'
p843
sg50
S'2.9'
p844
sg52
S'7.5'
p845
sg54
S'4.6'
p846
sg56
S'2008-09'
p847
sg58
S'5.7'
p848
sg60
S'1.6'
p849
sg62
S'.533'
p850
sg64
S'1824'
p851
sg66
g162
sba(isrc.gp1.models.Per36Minutes
Per36Minutes
p852
(dp853
g8
S'1.3'
p854
sg10
S'4.6'
p855
sg12
S'.438'
p856
sg14
S'1.4'
p857
sg16
S'.298'
p858
sg18
S'1.4'
p859
sg20
S'15.2'
p860
sg22
S'SF'
p861
sg24
S'.631'
p862
sg28
S'NBA'
p863
sg30
S'0.7'
p864
sg32
S'14.2'
p865
sg34
S'3.5'
p866
sg36
S'2.3'
p867
sg38
S'6.2'
p868
sg40
S'26'
p869
sg42
S'TOR'
p870
sg44
S'39'
p871
sg46
S'0.2'
p872
sg48
S'4.8'
p873
sg50
S'1.4'
p874
sg52
S'9.6'
p875
sg54
S'4.9'
p876
sg56
S'2010-11'
p877
sg58
S'6.2'
p878
sg60
S'2.3'
p879
sg62
S'.505'
p880
sg64
S'1032'
p881
sg66
S'23'
p882
sba(isrc.gp1.models.Per36Minutes
Per36Minutes
p883
(dp884
g8
S'1.4'
p885
sg10
S'6.1'
p886
sg12
S'.402'
p887
sg14
S'1.6'
p888
sg16
S'.346'
p889
sg18
S'2.1'
p890
sg20
S'16.1'
p891
sg22
S'SF'
p892
sg24
S'.810'
p893
sg28
S'NBA'
p894
sg30
S'0.8'
p895
sg32
S'14.0'
p896
sg34
S'4.1'
p897
sg36
S'3.4'
p898
sg38
S'6.8'
p899
sg40
S'27'
p900
sg42
S'TOR'
p901
sg44
S'49'
p902
sg46
S'0.1'
p903
sg48
S'3.5'
p904
sg50
S'2.8'
p905
sg52
S'7.9'
p906
sg54
S'5.3'
p907
sg56
S'2011-12'
p908
sg58
S'5.6'
p909
sg60
S'2.2'
p910
sg62
S'.446'
p911
sg64
S'1057'
p912
sg66
g231
sba(isrc.gp1.models.Per36Minutes
Per36Minutes
p913
(dp914
g8
S'1.0'
p915
sg10
S'6.3'
p916
sg12
S'.333'
p917
sg14
S'1.5'
p918
sg16
S'.303'
p919
sg18
S'1.9'
p920
sg20
S'14.2'
p921
sg22
S'SF'
p922
sg24
S'.842'
p923
sg28
S'NBA'
p924
sg30
S'0.4'
p925
sg32
S'13.8'
p926
sg34
S'4.3'
p927
sg36
S'3.6'
p928
sg38
S'5.0'
p929
sg40
S'28'
p930
sg42
S'TOR'
p931
sg44
S'20'
p932
sg46
S'0.2'
p933
sg48
S'2.7'
p934
sg50
S'3.1'
p935
sg52
S'7.5'
p936
sg54
S'4.0'
p937
sg56
S'2012-13'
p938
sg58
S'4.6'
p939
sg60
S'1.3'
p940
sg62
S'.359'
p941
sg64
S'376'
p942
sg66
g231
sbasS'_fromYear'
p943
S'2006'
p944
sS'_url'
p945
S'http://www.basketball-reference.com/players/k/kleizli01.html'
p946
sS'_perGame'
p947
(isrc.gp1.models.PerGame
PerGame
p948
(dp949
g8
S'0.5'
p950
sg10
S'3.3'
p951
sg12
S'.333'
p952
sS'_effectiveFieldGalPercentage'
p953
S'.403'
p954
sg14
S'0.8'
p955
sg16
S'.303'
p956
sg18
S'1.0'
p957
sg20
S'7.4'
p958
sg22
S'SF'
p959
sg24
S'.842'
p960
sg28
S'NBA'
p961
sg30
S'0.2'
p962
sg34
S'2.3'
p963
sS'_fieldGoalsttempted'
p964
S'7.2'
p965
sg36
S'1.9'
p966
sg38
S'2.6'
p967
sg40
S'28'
p968
sg42
S'TOR'
p969
sg44
S'20'
p970
sg46
S'0.1'
p971
sg48
S'1.4'
p972
sg50
S'1.6'
p973
sg52
S'3.9'
p974
sg54
S'2.1'
p975
sg56
S'2012-13'
p976
sg58
S'2.4'
p977
sg60
S'0.7'
p978
sg62
S'.359'
p979
sg64
S'18.8'
p980
sg66
g231
sbsS'_weight'
p981
S'245'
p982
sS'_dob'
p983
S'3-1-1985'
p984
sS'_salary'
p985
(lp986
(isrc.gp1.models.Salary
Salary
p987
(dp988
g42
S'Denver Nuggets'
p989
sg28
S'NBA'
p990
sg985
S'$879,360'
p991
sg56
S'2005-06'
p992
sba(isrc.gp1.models.Salary
Salary
p993
(dp994
g42
S'Denver Nuggets'
p995
sg28
S'NBA'
p996
sg985
S'$945,360'
p997
sg56
S'2006-07'
p998
sba(isrc.gp1.models.Salary
Salary
p999
(dp1000
g42
S'Denver Nuggets'
p1001
sg28
S'NBA'
p1002
sg985
S'$1,011,360'
p1003
sg56
S'2007-08'
p1004
sba(isrc.gp1.models.Salary
Salary
p1005
(dp1006
g42
S'Denver Nuggets'
p1007
sg28
S'NBA'
p1008
sg985
S'$1,824,493'
p1009
sg56
S'2008-09'
p1010
sba(isrc.gp1.models.Salary
Salary
p1011
(dp1012
g42
S'Toronto Raptors'
p1013
sg28
S'NBA'
p1014
sg985
S'$4,995,000'
p1015
sg56
S'2010-11'
p1016
sba(isrc.gp1.models.Salary
Salary
p1017
(dp1018
g42
S'Toronto Raptors'
p1019
sg28
S'NBA'
p1020
sg985
S'$4,605,000'
p1021
sg56
S'2011-12'
p1022
sba(isrc.gp1.models.Salary
Salary
p1023
(dp1024
g42
S'Toronto Raptors'
p1025
sg28
S'NBA'
p1026
sg985
S'$4,600,000'
p1027
sg56
S'2012-13'
p1028
sbasg22
S'F'
p1029
sb.