(isrc.gp1.models.Player
Player
p0
(dp1
S'_experience'
p2
S'NA'
p3
sS'_totals'
p4
(lp5
(isrc.gp1.models.Totals
Totals
p6
(dp7
S'_offensiveRebounds'
p8
g3
sS'_threePointsAttempted'
p9
g3
sS'_fieldGoalsPercentage'
p10
S'.419'
p11
sS'_assist'
p12
S'57'
p13
sS'_threePointsPercentage'
p14
g3
sS'_threePoints'
p15
g3
sS'_points'
p16
S'488'
p17
sS'_position'
p18
S'SF'
p19
sS'_freeThrowsPercentage'
p20
S'.562'
p21
sS'_effectiveFieldGoalPercentage'
p22
S'.419'
p23
sS'_league'
p24
S'NBA'
p25
sS'_steals'
p26
g3
sS'_fieldGoalsAttempted'
p27
S'484'
p28
sS'_personalFouls'
p29
S'123'
p30
sS'_freeThrowsAttempted'
p31
S'146'
p32
sS'_totalRebounds'
p33
S'309'
p34
sS'_age'
p35
S'25'
p36
sS'_team'
p37
S'BAL'
p38
sS'_games'
p39
S'78'
p40
sS'_blocks'
p41
g3
sS'_twoPoints'
p42
S'203'
p43
sS'_freeThrows'
p44
S'82'
p45
sS'_twoPointsAttempted'
p46
S'484'
p47
sS'_defensiveRebounds'
p48
g3
sS'_season'
p49
S'1963-64'
p50
sS'_fieldGoals'
p51
S'203'
p52
sS'_turnOvers'
p53
g3
sS'_twoPointsPercentage'
p54
S'.419'
p55
sS'_minutesPlayed'
p56
S'1148'
p57
sS'_gamesStarted'
p58
g3
sba(isrc.gp1.models.Totals
Totals
p59
(dp60
g8
g3
sg9
g3
sg10
S'.433'
p61
sg12
S'63'
p62
sg14
g3
sg15
g3
sg16
S'422'
p63
sg18
S'SF'
p64
sg20
S'.633'
p65
sg22
S'.433'
p66
sg24
S'NBA'
p67
sg26
g3
sg27
S'416'
p68
sg29
S'115'
p69
sg31
S'98'
p70
sg33
S'243'
p71
sg35
S'26'
p72
sg37
S'DET'
p73
sg39
S'65'
p74
sg41
g3
sg42
S'180'
p75
sg44
S'62'
p76
sg46
S'416'
p77
sg48
g3
sg49
S'1964-65'
p78
sg51
S'180'
p79
sg53
g3
sg54
S'.433'
p80
sg56
S'836'
p81
sg58
g3
sba(isrc.gp1.models.Totals
Totals
p82
(dp83
g8
g3
sg9
g3
sg10
S'.415'
p84
sg12
S'42'
p85
sg14
g3
sg15
g3
sg16
S'440'
p86
sg18
S'SF'
p87
sg20
S'.539'
p88
sg22
S'.415'
p89
sg24
S'NBA'
p90
sg26
g3
sg27
S'439'
p91
sg29
S'94'
p92
sg31
S'141'
p93
sg33
S'260'
p94
sg35
S'27'
p95
sg37
S'DET'
p96
sg39
S'60'
p97
sg41
g3
sg42
S'182'
p98
sg44
S'76'
p99
sg46
S'439'
p100
sg48
g3
sg49
S'1965-66'
p101
sg51
S'182'
p102
sg53
g3
sg54
S'.415'
p103
sg56
S'783'
p104
sg58
g3
sba(isrc.gp1.models.Totals
Totals
p105
(dp106
g8
g3
sg9
g3
sg10
S'.426'
p107
sg12
S'70'
p108
sg14
g3
sg15
g3
sg16
S'792'
p109
sg18
S'SF'
p110
sg20
S'.604'
p111
sg22
S'.426'
p112
sg24
S'NBA'
p113
sg26
g3
sg27
S'773'
p114
sg29
S'204'
p115
sg31
S'222'
p116
sg33
S'479'
p117
sg35
S'28'
p118
sg37
S'CHI'
p119
sg39
S'78'
p120
sg41
g3
sg42
S'329'
p121
sg44
S'134'
p122
sg46
S'773'
p123
sg48
g3
sg49
S'1966-67'
p124
sg51
S'329'
p125
sg53
g3
sg54
S'.426'
p126
sg56
S'1655'
p127
sg58
g3
sba(isrc.gp1.models.Totals
Totals
p128
(dp129
g8
g3
sg9
g3
sg10
S'.446'
p130
sg12
S'176'
p131
sg14
g3
sg15
g3
sg16
S'1360'
p132
sg18
S'SF'
p133
sg20
S'.726'
p134
sg22
S'.446'
p135
sg24
S'NBA'
p136
sg26
g3
sg27
S'1189'
p137
sg29
S'259'
p138
sg31
S'413'
p139
sg33
S'710'
p140
sg35
S'29'
p141
sg37
S'SDR'
p142
sg39
S'69'
p143
sg41
g3
sg42
S'530'
p144
sg44
S'300'
p145
sg46
S'1189'
p146
sg48
g3
sg49
S'1967-68'
p147
sg51
S'530'
p148
sg53
g3
sg54
S'.446'
p149
sg56
S'2548'
p150
sg58
g3
sba(isrc.gp1.models.Totals
Totals
p151
(dp152
g8
g3
sg9
g3
sg10
S'.434'
p153
sg12
S'214'
p154
sg14
g3
sg15
g3
sg16
S'1820'
p155
sg18
S'SF'
p156
sg20
S'.748'
p157
sg22
S'.434'
p158
sg24
S'NBA'
p159
sg26
g3
sg27
S'1582'
p160
sg29
S'303'
p161
sg31
S'596'
p162
sg33
S'776'
p163
sg35
S'30'
p164
sg37
S'SDR'
p165
sg39
S'81'
p166
sg41
g3
sg42
S'687'
p167
sg44
S'446'
p168
sg46
S'1582'
p169
sg48
g3
sg49
S'1968-69'
p170
sg51
S'687'
p171
sg53
g3
sg54
S'.434'
p172
sg56
S'3130'
p173
sg58
g3
sba(isrc.gp1.models.Totals
Totals
p174
(dp175
g8
g3
sg9
g3
sg10
S'.447'
p176
sg12
S'78'
p177
sg14
g3
sg15
g3
sg16
S'857'
p178
sg18
S'SF'
p179
sg20
S'.751'
p180
sg22
S'.447'
p181
sg24
S'NBA'
p182
sg26
g3
sg27
S'756'
p183
sg29
S'135'
p184
sg31
S'241'
p185
sg33
S'388'
p186
sg35
S'31'
p187
sg37
S'SDR'
p188
sg39
S'56'
p189
sg41
g3
sg42
S'338'
p190
sg44
S'181'
p191
sg46
S'756'
p192
sg48
g3
sg49
S'1969-70'
p193
sg51
S'338'
p194
sg53
g3
sg54
S'.447'
p195
sg56
S'1578'
p196
sg58
g3
sba(isrc.gp1.models.Totals
Totals
p197
(dp198
g8
g3
sg9
g3
sg10
S'.446'
p199
sg12
S'130'
p200
sg14
g3
sg15
g3
sg16
S'1157'
p201
sg18
S'SF'
p202
sg20
S'.778'
p203
sg22
S'.446'
p204
sg24
S'NBA'
p205
sg26
g3
sg27
S'1018'
p206
sg29
S'220'
p207
sg31
S'320'
p208
sg33
S'435'
p209
sg35
S'32'
p210
sg37
S'SEA'
p211
sg39
S'79'
p212
sg41
g3
sg42
S'454'
p213
sg44
S'249'
p214
sg46
S'1018'
p215
sg48
g3
sg49
S'1970-71'
p216
sg51
S'454'
p217
sg53
g3
sg54
S'.446'
p218
sg56
S'2143'
p219
sg58
g3
sba(isrc.gp1.models.Totals
Totals
p220
(dp221
g8
g3
sg9
g3
sg10
S'.469'
p222
sg12
S'82'
p223
sg14
g3
sg15
g3
sg16
S'832'
p224
sg18
S'SF'
p225
sg20
S'.793'
p226
sg22
S'.469'
p227
sg24
S'NBA'
p228
sg26
g3
sg27
S'687'
p229
sg29
S'168'
p230
sg31
S'237'
p231
sg33
S'335'
p232
sg35
S'33'
p233
sg37
S'SEA'
p234
sg39
S'73'
p235
sg41
g3
sg42
S'322'
p236
sg44
S'188'
p237
sg46
S'687'
p238
sg48
g3
sg49
S'1971-72'
p239
sg51
S'322'
p240
sg53
g3
sg54
S'.469'
p241
sg56
S'1857'
p242
sg58
g3
sba(isrc.gp1.models.Totals
Totals
p243
(dp244
g8
g3
sg9
g3
sg10
S'.480'
p245
sg12
S'80'
p246
sg14
g3
sg15
g3
sg16
S'658'
p247
sg18
S'SF'
p248
sg20
S'.774'
p249
sg22
S'.480'
p250
sg24
S'NBA'
p251
sg26
g3
sg27
S'575'
p252
sg29
S'128'
p253
sg31
S'137'
p254
sg33
S'198'
p255
sg35
S'34'
p256
sg37
S'KCO'
p257
sg39
S'77'
p258
sg41
g3
sg42
S'276'
p259
sg44
S'106'
p260
sg46
S'575'
p261
sg48
g3
sg49
S'1972-73'
p262
sg51
S'276'
p263
sg53
g3
sg54
S'.480'
p264
sg56
S'1240'
p265
sg58
g3
sba(isrc.gp1.models.Totals
Totals
p266
(dp267
g8
S'126'
p268
sg9
g3
sg10
S'.478'
p269
sg12
S'110'
p270
sg14
g3
sg15
g3
sg16
S'1010'
p271
sg18
S'SF'
p272
sg20
S'.772'
p273
sg22
S'.478'
p274
sg24
S'NBA'
p275
sg26
S'77'
p276
sg27
S'836'
p277
sg29
S'157'
p278
sg31
S'272'
p279
sg33
S'383'
p280
sg35
S'35'
p281
sg37
S'KCO'
p282
sg39
S'77'
p283
sg41
S'15'
p284
sg42
S'400'
p285
sg44
S'210'
p286
sg46
S'836'
p287
sg48
S'257'
p288
sg49
S'1973-74'
p289
sg51
S'400'
p290
sg53
g3
sg54
S'.478'
p291
sg56
S'2091'
p292
sg58
g3
sba(isrc.gp1.models.Totals
Totals
p293
(dp294
g8
S'14'
p295
sg9
g3
sg10
S'.469'
p296
sg12
S'10'
p297
sg14
g3
sg15
g3
sg16
S'112'
p298
sg18
S'SF'
p299
sg20
S'.667'
p300
sg22
S'.469'
p301
sg24
S'NBA'
p302
sg26
S'12'
p303
sg27
S'98'
p304
sg29
S'31'
p305
sg31
S'30'
p306
sg33
S'39'
p307
sg35
S'36'
p308
sg37
S'KCO'
p309
sg39
S'21'
p310
sg41
S'1'
p311
sg42
S'46'
p312
sg44
S'20'
p313
sg46
S'98'
p314
sg48
S'25'
p315
sg49
S'1974-75'
p316
sg51
S'46'
p317
sg53
g3
sg54
S'.469'
p318
sg56
S'232'
p319
sg58
g3
sbasS'_college'
p320
S'Marquette University'
p321
sS'_toYear'
p322
S'1975'
p323
sS'_height'
p324
S'6-5'
p325
sS'_active'
p326
I00
sS'_shootingHand'
p327
VRight
p328
sS'_name'
p329
S'Don Kojis'
p330
sS'_per100Possessions'
p331
(lp332
(isrc.gp1.models.Per100Possession
Per100Possession
p333
(dp334
g8
S'2.7'
p335
sg9
g3
sg10
S'.478'
p336
sS'_offensiveRating'
p337
g3
sg12
S'2.4'
p338
sg14
g3
sg15
g3
sg16
S'21.9'
p339
sg18
S'SF'
p340
sS'_defensiveRating'
p341
S'101'
p342
sg20
S'.772'
p343
sg24
S'NBA'
p344
sg26
S'1.7'
p345
sg27
S'18.1'
p346
sg29
S'3.4'
p347
sg31
S'5.9'
p348
sg33
S'8.3'
p349
sg35
S'35'
p350
sg37
S'KCO'
p351
sg39
S'77'
p352
sg41
S'0.3'
p353
sg42
S'8.7'
p354
sg44
S'4.5'
p355
sg46
S'18.1'
p356
sg48
S'5.6'
p357
sg49
S'1973-74'
p358
sg51
S'8.7'
p359
sg53
g3
sg54
S'.478'
p360
sg56
S'2091'
p361
sg58
g3
sba(isrc.gp1.models.Per100Possession
Per100Possession
p362
(dp363
g8
S'2.8'
p364
sg9
g3
sg10
S'.469'
p365
sg337
g3
sg12
S'2.0'
p366
sg14
g3
sg15
g3
sg16
S'22.2'
p367
sg18
S'SF'
p368
sg341
S'97'
p369
sg20
S'.667'
p370
sg24
S'NBA'
p371
sg26
S'2.4'
p372
sg27
S'19.4'
p373
sg29
S'6.1'
p374
sg31
S'5.9'
p375
sg33
S'7.7'
p376
sg35
S'36'
p377
sg37
S'KCO'
p378
sg39
S'21'
p379
sg41
S'0.2'
p380
sg42
S'9.1'
p381
sg44
S'4.0'
p382
sg46
S'19.4'
p383
sg48
S'5.0'
p384
sg49
S'1974-75'
p385
sg51
S'9.1'
p386
sg53
g3
sg54
S'.469'
p387
sg56
S'232'
p388
sg58
g3
sbasS'_advanced'
p389
(lp390
(isrc.gp1.models.Advanced
Advanced
p391
(dp392
S'_offensiveReboundPercentage'
p393
g3
sS'_turnOverPercentage'
p394
g3
sS'_winSharesPer48Minutes'
p395
S'.031'
p396
sS'_stealPercentage'
p397
g3
sS'_usagePercentage'
p398
g3
sS'_totalReboundsPercentage'
p399
g3
sS'_defensiveBoxPlusMinus'
p400
g3
sg18
S'SF'
p401
sS'_valueOverReplacementPlayer'
p402
g3
sS'_trueShootingPercentage'
p403
S'.445'
p404
sS'_defensiveReboundPercentage'
p405
g3
sS'_freeThrowsAttempRate'
p406
S'.302'
p407
sS'_threePointsAttempRate'
p408
g3
sg24
S'NBA'
p409
sS'_offensiveBoxPlusMinues'
p410
g3
sS'_assistPercentage'
p411
g3
sS'_defensiveWinShares'
p412
S'0.8'
p413
sg35
S'25'
p414
sg37
S'BAL'
p415
sg39
S'78'
p416
sS'_blockPercentage'
p417
g3
sS'_playerEfficiencyRating'
p418
S'12.6'
p419
sS'_offensiveWinShares'
p420
S'-0.1'
p421
sg56
S'1148'
p422
sS'_boxPlusMinus'
p423
g3
sg49
S'1963-64'
p424
sS'_winShares'
p425
S'0.7'
p426
sba(isrc.gp1.models.Advanced
Advanced
p427
(dp428
g393
g3
sg394
g3
sg395
S'.085'
p429
sg397
g3
sg398
g3
sg399
g3
sg400
g3
sg18
S'SF'
p430
sg402
g3
sg403
S'.460'
p431
sg405
g3
sg406
S'.236'
p432
sg408
g3
sg24
S'NBA'
p433
sg410
g3
sg411
S'11.1'
p434
sg412
S'1.0'
p435
sg35
S'26'
p436
sg37
S'DET'
p437
sg39
S'65'
p438
sg417
g3
sg418
S'15.5'
p439
sg420
S'0.5'
p440
sg56
S'836'
p441
sg423
g3
sg49
S'1964-65'
p442
sg425
S'1.5'
p443
sba(isrc.gp1.models.Advanced
Advanced
p444
(dp445
g393
g3
sg394
g3
sg395
S'.044'
p446
sg397
g3
sg398
g3
sg399
g3
sg400
g3
sg18
S'SF'
p447
sg402
g3
sg403
S'.439'
p448
sg405
g3
sg406
S'.321'
p449
sg408
g3
sg24
S'NBA'
p450
sg410
g3
sg411
S'8.0'
p451
sg412
S'1.0'
p452
sg35
S'27'
p453
sg37
S'DET'
p454
sg39
S'60'
p455
sg417
g3
sg418
S'15.4'
p456
sg420
S'-0.3'
p457
sg56
S'783'
p458
sg423
g3
sg49
S'1965-66'
p459
sg425
S'0.7'
p460
sba(isrc.gp1.models.Advanced
Advanced
p461
(dp462
g393
g3
sg394
g3
sg395
S'.056'
p463
sg397
g3
sg398
g3
sg399
g3
sg400
g3
sg18
S'SF'
p464
sg402
g3
sg403
S'.455'
p465
sg405
g3
sg406
S'.287'
p466
sg408
g3
sg24
S'NBA'
p467
sg410
g3
sg411
S'5.9'
p468
sg412
S'2.0'
p469
sg35
S'28'
p470
sg37
S'CHI'
p471
sg39
S'78'
p472
sg417
g3
sg418
S'12.9'
p473
sg420
S'-0.1'
p474
sg56
S'1655'
p475
sg423
g3
sg49
S'1966-67'
p476
sg425
S'1.9'
p477
sba(isrc.gp1.models.Advanced
Advanced
p478
(dp479
g393
g3
sg394
g3
sg395
S'.094'
p480
sg397
g3
sg398
g3
sg399
g3
sg400
g3
sg18
S'SF'
p481
sg402
g3
sg403
S'.496'
p482
sg405
g3
sg406
S'.347'
p483
sg408
g3
sg24
S'NBA'
p484
sg410
g3
sg411
S'9.9'
p485
sg412
S'2.3'
p486
sg35
S'29'
p487
sg37
S'SDR'
p488
sg39
S'69'
p489
sg417
g3
sg418
S'16.0'
p490
sg420
S'2.7'
p491
sg56
S'2548'
p492
sg423
g3
sg49
S'1967-68'
p493
sg425
S'5.0'
p494
sba(isrc.gp1.models.Advanced
Advanced
p495
(dp496
g393
g3
sg394
g3
sg395
S'.127'
p497
sg397
g3
sg398
g3
sg399
g3
sg400
g3
sg18
S'SF'
p498
sg402
g3
sg403
S'.493'
p499
sg405
g3
sg406
S'.377'
p500
sg408
g3
sg24
S'NBA'
p501
sg410
g3
sg411
S'9.6'
p502
sg412
S'4.3'
p503
sg35
S'30'
p504
sg37
S'SDR'
p505
sg39
S'81'
p506
sg417
g3
sg418
S'16.7'
p507
sg420
S'4.0'
p508
sg56
S'3130'
p509
sg423
g3
sg49
S'1968-69'
p510
sg425
S'8.3'
p511
sba(isrc.gp1.models.Advanced
Advanced
p512
(dp513
g393
g3
sg394
g3
sg395
S'.097'
p514
sg397
g3
sg398
g3
sg399
g3
sg400
g3
sg18
S'SF'
p515
sg402
g3
sg403
S'.497'
p516
sg405
g3
sg406
S'.319'
p517
sg408
g3
sg24
S'NBA'
p518
sg410
g3
sg411
S'6.5'
p519
sg412
S'2.0'
p520
sg35
S'31'
p521
sg37
S'SDR'
p522
sg39
S'56'
p523
sg417
g3
sg418
S'14.8'
p524
sg420
S'1.1'
p525
sg56
S'1578'
p526
sg423
g3
sg49
S'1969-70'
p527
sg425
S'3.2'
p528
sba(isrc.gp1.models.Advanced
Advanced
p529
(dp530
g393
g3
sg394
g3
sg395
S'.075'
p531
sg397
g3
sg398
g3
sg399
S'9.3'
p532
sg400
g3
sg18
S'SF'
p533
sg402
g3
sg403
S'.499'
p534
sg405
g3
sg406
S'.314'
p535
sg408
g3
sg24
S'NBA'
p536
sg410
g3
sg411
S'8.5'
p537
sg412
S'1.0'
p538
sg35
S'32'
p539
sg37
S'SEA'
p540
sg39
S'79'
p541
sg417
g3
sg418
S'14.5'
p542
sg420
S'2.3'
p543
sg56
S'2143'
p544
sg423
g3
sg49
S'1970-71'
p545
sg425
S'3.3'
p546
sba(isrc.gp1.models.Advanced
Advanced
p547
(dp548
g393
g3
sg394
g3
sg395
S'.096'
p549
sg397
g3
sg398
g3
sg399
S'8.6'
p550
sg400
g3
sg18
S'SF'
p551
sg402
g3
sg403
S'.526'
p552
sg405
g3
sg406
S'.345'
p553
sg408
g3
sg24
S'NBA'
p554
sg410
g3
sg411
S'6.3'
p555
sg412
S'1.0'
p556
sg35
S'33'
p557
sg37
S'SEA'
p558
sg39
S'73'
p559
sg417
g3
sg418
S'13.4'
p560
sg420
S'2.7'
p561
sg56
S'1857'
p562
sg423
g3
sg49
S'1971-72'
p563
sg425
S'3.7'
p564
sba(isrc.gp1.models.Advanced
Advanced
p565
(dp566
g393
g3
sg394
g3
sg395
S'.084'
p567
sg397
g3
sg398
g3
sg399
S'8.3'
p568
sg400
g3
sg18
S'SF'
p569
sg402
g3
sg403
S'.518'
p570
sg405
g3
sg406
S'.238'
p571
sg408
g3
sg24
S'NBA'
p572
sg410
g3
sg411
S'9.3'
p573
sg412
S'0.1'
p574
sg35
S'34'
p575
sg37
S'KCO'
p576
sg39
S'77'
p577
sg417
g3
sg418
S'14.8'
p578
sg420
S'2.1'
p579
sg56
S'1240'
p580
sg423
g3
sg49
S'1972-73'
p581
sg425
S'2.2'
p582
sba(isrc.gp1.models.Advanced
Advanced
p583
(dp584
g393
S'6.3'
p585
sg394
g3
sg395
S'.109'
p586
sg397
S'1.7'
p587
sg398
g3
sg399
S'9.6'
p588
sg400
S'-1.2'
p589
sg18
S'SF'
p590
sg402
S'0.4'
p591
sg403
S'.528'
p592
sg405
S'12.9'
p593
sg406
S'.325'
p594
sg408
g3
sg24
S'NBA'
p595
sg410
S'-0.1'
p596
sg411
S'7.9'
p597
sg412
S'1.3'
p598
sg35
S'35'
p599
sg37
S'KCO'
p600
sg39
S'77'
p601
sg417
S'0.4'
p602
sg418
S'15.6'
p603
sg420
S'3.4'
p604
sg56
S'2091'
p605
sg423
S'-1.3'
p606
sg49
S'1973-74'
p607
sg425
S'4.8'
p608
sba(isrc.gp1.models.Advanced
Advanced
p609
(dp610
g393
S'6.3'
p611
sg394
g3
sg395
S'.096'
p612
sg397
S'2.4'
p613
sg398
g3
sg399
S'8.7'
p614
sg400
S'-1.9'
p615
sg18
S'SF'
p616
sg402
S'-0.1'
p617
sg403
S'.504'
p618
sg405
S'11.2'
p619
sg406
S'.306'
p620
sg408
g3
sg24
S'NBA'
p621
sg410
S'-1.8'
p622
sg411
S'6.9'
p623
sg412
S'0.3'
p624
sg35
S'36'
p625
sg37
S'KCO'
p626
sg39
S'21'
p627
sg417
S'0.2'
p628
sg418
S'14.2'
p629
sg420
S'0.2'
p630
sg56
S'232'
p631
sg423
S'-3.7'
p632
sg49
S'1974-75'
p633
sg425
S'0.5'
p634
sbasS'_per36Minutes'
p635
(lp636
(isrc.gp1.models.Per36Minutes
Per36Minutes
p637
(dp638
g8
g3
sg9
g3
sg10
S'.419'
p639
sg12
S'1.8'
p640
sg14
g3
sg15
g3
sg16
S'15.3'
p641
sg18
S'SF'
p642
sg20
S'.562'
p643
sg24
S'NBA'
p644
sg26
g3
sg27
S'15.2'
p645
sg29
S'3.9'
p646
sg31
S'4.6'
p647
sg33
S'9.7'
p648
sg35
S'25'
p649
sg37
S'BAL'
p650
sg39
S'78'
p651
sg41
g3
sg42
S'6.4'
p652
sg44
S'2.6'
p653
sg46
S'15.2'
p654
sg48
g3
sg49
S'1963-64'
p655
sg51
S'6.4'
p656
sg53
g3
sg54
S'.419'
p657
sg56
S'1148'
p658
sg58
g3
sba(isrc.gp1.models.Per36Minutes
Per36Minutes
p659
(dp660
g8
g3
sg9
g3
sg10
S'.433'
p661
sg12
S'2.7'
p662
sg14
g3
sg15
g3
sg16
S'18.2'
p663
sg18
S'SF'
p664
sg20
S'.633'
p665
sg24
S'NBA'
p666
sg26
g3
sg27
S'17.9'
p667
sg29
S'5.0'
p668
sg31
S'4.2'
p669
sg33
S'10.5'
p670
sg35
S'26'
p671
sg37
S'DET'
p672
sg39
S'65'
p673
sg41
g3
sg42
S'7.8'
p674
sg44
S'2.7'
p675
sg46
S'17.9'
p676
sg48
g3
sg49
S'1964-65'
p677
sg51
S'7.8'
p678
sg53
g3
sg54
S'.433'
p679
sg56
S'836'
p680
sg58
g3
sba(isrc.gp1.models.Per36Minutes
Per36Minutes
p681
(dp682
g8
g3
sg9
g3
sg10
S'.415'
p683
sg12
S'1.9'
p684
sg14
g3
sg15
g3
sg16
S'20.2'
p685
sg18
S'SF'
p686
sg20
S'.539'
p687
sg24
S'NBA'
p688
sg26
g3
sg27
S'20.2'
p689
sg29
S'4.3'
p690
sg31
S'6.5'
p691
sg33
S'12.0'
p692
sg35
S'27'
p693
sg37
S'DET'
p694
sg39
S'60'
p695
sg41
g3
sg42
S'8.4'
p696
sg44
S'3.5'
p697
sg46
S'20.2'
p698
sg48
g3
sg49
S'1965-66'
p699
sg51
S'8.4'
p700
sg53
g3
sg54
S'.415'
p701
sg56
S'783'
p702
sg58
g3
sba(isrc.gp1.models.Per36Minutes
Per36Minutes
p703
(dp704
g8
g3
sg9
g3
sg10
S'.426'
p705
sg12
S'1.5'
p706
sg14
g3
sg15
g3
sg16
S'17.2'
p707
sg18
S'SF'
p708
sg20
S'.604'
p709
sg24
S'NBA'
p710
sg26
g3
sg27
S'16.8'
p711
sg29
S'4.4'
p712
sg31
S'4.8'
p713
sg33
S'10.4'
p714
sg35
S'28'
p715
sg37
S'CHI'
p716
sg39
S'78'
p717
sg41
g3
sg42
S'7.2'
p718
sg44
S'2.9'
p719
sg46
S'16.8'
p720
sg48
g3
sg49
S'1966-67'
p721
sg51
S'7.2'
p722
sg53
g3
sg54
S'.426'
p723
sg56
S'1655'
p724
sg58
g3
sba(isrc.gp1.models.Per36Minutes
Per36Minutes
p725
(dp726
g8
g3
sg9
g3
sg10
S'.446'
p727
sg12
S'2.5'
p728
sg14
g3
sg15
g3
sg16
S'19.2'
p729
sg18
S'SF'
p730
sg20
S'.726'
p731
sg24
S'NBA'
p732
sg26
g3
sg27
S'16.8'
p733
sg29
S'3.7'
p734
sg31
S'5.8'
p735
sg33
S'10.0'
p736
sg35
S'29'
p737
sg37
S'SDR'
p738
sg39
S'69'
p739
sg41
g3
sg42
S'7.5'
p740
sg44
S'4.2'
p741
sg46
S'16.8'
p742
sg48
g3
sg49
S'1967-68'
p743
sg51
S'7.5'
p744
sg53
g3
sg54
S'.446'
p745
sg56
S'2548'
p746
sg58
g3
sba(isrc.gp1.models.Per36Minutes
Per36Minutes
p747
(dp748
g8
g3
sg9
g3
sg10
S'.434'
p749
sg12
S'2.5'
p750
sg14
g3
sg15
g3
sg16
S'20.9'
p751
sg18
S'SF'
p752
sg20
S'.748'
p753
sg24
S'NBA'
p754
sg26
g3
sg27
S'18.2'
p755
sg29
S'3.5'
p756
sg31
S'6.9'
p757
sg33
S'8.9'
p758
sg35
S'30'
p759
sg37
S'SDR'
p760
sg39
S'81'
p761
sg41
g3
sg42
S'7.9'
p762
sg44
S'5.1'
p763
sg46
S'18.2'
p764
sg48
g3
sg49
S'1968-69'
p765
sg51
S'7.9'
p766
sg53
g3
sg54
S'.434'
p767
sg56
S'3130'
p768
sg58
g3
sba(isrc.gp1.models.Per36Minutes
Per36Minutes
p769
(dp770
g8
g3
sg9
g3
sg10
S'.447'
p771
sg12
S'1.8'
p772
sg14
g3
sg15
g3
sg16
S'19.6'
p773
sg18
S'SF'
p774
sg20
S'.751'
p775
sg24
S'NBA'
p776
sg26
g3
sg27
S'17.2'
p777
sg29
S'3.1'
p778
sg31
S'5.5'
p779
sg33
S'8.9'
p780
sg35
S'31'
p781
sg37
S'SDR'
p782
sg39
S'56'
p783
sg41
g3
sg42
S'7.7'
p784
sg44
S'4.1'
p785
sg46
S'17.2'
p786
sg48
g3
sg49
S'1969-70'
p787
sg51
S'7.7'
p788
sg53
g3
sg54
S'.447'
p789
sg56
S'1578'
p790
sg58
g3
sba(isrc.gp1.models.Per36Minutes
Per36Minutes
p791
(dp792
g8
g3
sg9
g3
sg10
S'.446'
p793
sg12
S'2.2'
p794
sg14
g3
sg15
g3
sg16
S'19.4'
p795
sg18
S'SF'
p796
sg20
S'.778'
p797
sg24
S'NBA'
p798
sg26
g3
sg27
S'17.1'
p799
sg29
S'3.7'
p800
sg31
S'5.4'
p801
sg33
S'7.3'
p802
sg35
S'32'
p803
sg37
S'SEA'
p804
sg39
S'79'
p805
sg41
g3
sg42
S'7.6'
p806
sg44
S'4.2'
p807
sg46
S'17.1'
p808
sg48
g3
sg49
S'1970-71'
p809
sg51
S'7.6'
p810
sg53
g3
sg54
S'.446'
p811
sg56
S'2143'
p812
sg58
g3
sba(isrc.gp1.models.Per36Minutes
Per36Minutes
p813
(dp814
g8
g3
sg9
g3
sg10
S'.469'
p815
sg12
S'1.6'
p816
sg14
g3
sg15
g3
sg16
S'16.1'
p817
sg18
S'SF'
p818
sg20
S'.793'
p819
sg24
S'NBA'
p820
sg26
g3
sg27
S'13.3'
p821
sg29
S'3.3'
p822
sg31
S'4.6'
p823
sg33
S'6.5'
p824
sg35
S'33'
p825
sg37
S'SEA'
p826
sg39
S'73'
p827
sg41
g3
sg42
S'6.2'
p828
sg44
S'3.6'
p829
sg46
S'13.3'
p830
sg48
g3
sg49
S'1971-72'
p831
sg51
S'6.2'
p832
sg53
g3
sg54
S'.469'
p833
sg56
S'1857'
p834
sg58
g3
sba(isrc.gp1.models.Per36Minutes
Per36Minutes
p835
(dp836
g8
g3
sg9
g3
sg10
S'.480'
p837
sg12
S'2.3'
p838
sg14
g3
sg15
g3
sg16
S'19.1'
p839
sg18
S'SF'
p840
sg20
S'.774'
p841
sg24
S'NBA'
p842
sg26
g3
sg27
S'16.7'
p843
sg29
S'3.7'
p844
sg31
S'4.0'
p845
sg33
S'5.7'
p846
sg35
S'34'
p847
sg37
S'KCO'
p848
sg39
S'77'
p849
sg41
g3
sg42
S'8.0'
p850
sg44
S'3.1'
p851
sg46
S'16.7'
p852
sg48
g3
sg49
S'1972-73'
p853
sg51
S'8.0'
p854
sg53
g3
sg54
S'.480'
p855
sg56
S'1240'
p856
sg58
g3
sba(isrc.gp1.models.Per36Minutes
Per36Minutes
p857
(dp858
g8
S'2.2'
p859
sg9
g3
sg10
S'.478'
p860
sg12
S'1.9'
p861
sg14
g3
sg15
g3
sg16
S'17.4'
p862
sg18
S'SF'
p863
sg20
S'.772'
p864
sg24
S'NBA'
p865
sg26
S'1.3'
p866
sg27
S'14.4'
p867
sg29
S'2.7'
p868
sg31
S'4.7'
p869
sg33
S'6.6'
p870
sg35
S'35'
p871
sg37
S'KCO'
p872
sg39
S'77'
p873
sg41
S'0.3'
p874
sg42
S'6.9'
p875
sg44
S'3.6'
p876
sg46
S'14.4'
p877
sg48
S'4.4'
p878
sg49
S'1973-74'
p879
sg51
S'6.9'
p880
sg53
g3
sg54
S'.478'
p881
sg56
S'2091'
p882
sg58
g3
sba(isrc.gp1.models.Per36Minutes
Per36Minutes
p883
(dp884
g8
S'2.2'
p885
sg9
g3
sg10
S'.469'
p886
sg12
S'1.6'
p887
sg14
g3
sg15
g3
sg16
S'17.4'
p888
sg18
S'SF'
p889
sg20
S'.667'
p890
sg24
S'NBA'
p891
sg26
S'1.9'
p892
sg27
S'15.2'
p893
sg29
S'4.8'
p894
sg31
S'4.7'
p895
sg33
S'6.1'
p896
sg35
S'36'
p897
sg37
S'KCO'
p898
sg39
S'21'
p899
sg41
S'0.2'
p900
sg42
S'7.1'
p901
sg44
S'3.1'
p902
sg46
S'15.2'
p903
sg48
S'3.9'
p904
sg49
S'1974-75'
p905
sg51
S'7.1'
p906
sg53
g3
sg54
S'.469'
p907
sg56
S'232'
p908
sg58
g3
sbasS'_fromYear'
p909
S'1964'
p910
sS'_url'
p911
S'http://www.basketball-reference.com/players/k/kojisdo01.html'
p912
sS'_perGame'
p913
(isrc.gp1.models.PerGame
PerGame
p914
(dp915
g8
S'0.7'
p916
sg9
g3
sg10
S'.469'
p917
sS'_effectiveFieldGalPercentage'
p918
S'.469'
p919
sg12
S'0.5'
p920
sg14
g3
sg15
g3
sg16
S'5.3'
p921
sg18
S'SF'
p922
sg20
S'.667'
p923
sg24
S'NBA'
p924
sg26
S'0.6'
p925
sg29
S'1.5'
p926
sS'_fieldGoalsttempted'
p927
S'4.7'
p928
sg31
S'1.4'
p929
sg33
S'1.9'
p930
sg35
S'36'
p931
sg37
S'KCO'
p932
sg39
S'21'
p933
sg41
S'0.0'
p934
sg42
S'2.2'
p935
sg44
S'1.0'
p936
sg46
S'4.7'
p937
sg48
S'1.2'
p938
sg49
S'1974-75'
p939
sg51
S'2.2'
p940
sg53
g3
sg54
S'.469'
p941
sg56
S'11.0'
p942
sg58
g3
sbsS'_weight'
p943
S'215'
p944
sS'_dob'
p945
S'15-1-1939'
p946
sS'_salary'
p947
(lp948
sg18
S'F'
p949
sb.