(isrc.gp1.models.Player
Player
p0
(dp1
S'_experience'
p2
V4
p3
sS'_totals'
p4
(lp5
(isrc.gp1.models.Totals
Totals
p6
(dp7
S'_offensiveRebounds'
p8
S'44'
p9
sS'_threePointsAttempted'
p10
S'183'
p11
sS'_fieldGoalsPercentage'
p12
S'.469'
p13
sS'_assist'
p14
S'275'
p15
sS'_threePointsPercentage'
p16
S'.399'
p17
sS'_threePoints'
p18
S'73'
p19
sS'_points'
p20
S'944'
p21
sS'_position'
p22
S'PG'
p23
sS'_freeThrowsPercentage'
p24
S'.872'
p25
sS'_effectiveFieldGoalPercentage'
p26
S'.517'
p27
sS'_league'
p28
S'NBA'
p29
sS'_steals'
p30
S'54'
p31
sS'_fieldGoalsAttempted'
p32
S'747'
p33
sS'_personalFouls'
p34
S'110'
p35
sS'_freeThrowsAttempted'
p36
S'196'
p37
sS'_totalRebounds'
p38
S'191'
p39
sS'_age'
p40
S'19'
p41
sS'_team'
p42
S'CLE'
p43
sS'_games'
p44
S'51'
p45
sS'_blocks'
p46
S'20'
p47
sS'_twoPoints'
p48
S'277'
p49
sS'_freeThrows'
p50
S'171'
p51
sS'_twoPointsAttempted'
p52
S'564'
p53
sS'_defensiveRebounds'
p54
S'147'
p55
sS'_season'
p56
S'2011-12'
p57
sS'_fieldGoals'
p58
S'350'
p59
sS'_turnOvers'
p60
S'160'
p61
sS'_twoPointsPercentage'
p62
S'.491'
p63
sS'_minutesPlayed'
p64
S'1558'
p65
sS'_gamesStarted'
p66
S'51'
p67
sba(isrc.gp1.models.Totals
Totals
p68
(dp69
g8
S'34'
p70
sg10
S'279'
p71
sg12
S'.452'
p72
sg14
S'350'
p73
sg16
S'.391'
p74
sg18
S'109'
p75
sg20
S'1325'
p76
sg22
S'PG'
p77
sg24
S'.855'
p78
sg26
S'.503'
p79
sg28
S'NBA'
p80
sg30
S'89'
p81
sg32
S'1070'
p82
sg34
S'146'
p83
sg36
S'290'
p84
sg38
S'216'
p85
sg40
S'20'
p86
sg42
S'CLE'
p87
sg44
S'59'
p88
sg46
S'21'
p89
sg48
S'375'
p90
sg50
S'248'
p91
sg52
S'791'
p92
sg54
S'182'
p93
sg56
S'2012-13'
p94
sg58
S'484'
p95
sg60
S'191'
p96
sg62
S'.474'
p97
sg64
S'2048'
p98
sg66
S'59'
p99
sba(isrc.gp1.models.Totals
Totals
p100
(dp101
g8
S'52'
p102
sg10
S'344'
p103
sg12
S'.430'
p104
sg14
S'433'
p105
sg16
S'.358'
p106
sg18
S'123'
p107
sg20
S'1478'
p108
sg22
S'PG'
p109
sg24
S'.861'
p110
sg26
S'.480'
p111
sg28
S'NBA'
p112
sg30
S'108'
p113
sg32
S'1237'
p114
sg34
S'163'
p115
sg36
S'338'
p116
sg38
S'259'
p117
sg40
S'21'
p118
sg42
S'CLE'
p119
sg44
S'71'
p120
sg46
S'23'
p121
sg48
S'409'
p122
sg50
S'291'
p123
sg52
S'893'
p124
sg54
S'207'
p125
sg56
S'2013-14'
p126
sg58
S'532'
p127
sg60
S'190'
p128
sg62
S'.458'
p129
sg64
S'2496'
p130
sg66
S'71'
p131
sba(isrc.gp1.models.Totals
Totals
p132
(dp133
g8
S'55'
p134
sg10
S'378'
p135
sg12
S'.468'
p136
sg14
S'389'
p137
sg16
S'.415'
p138
sg18
S'157'
p139
sg20
S'1628'
p140
sg22
S'PG'
p141
sg24
S'.863'
p142
sg26
S'.532'
p143
sg28
S'NBA'
p144
sg30
S'114'
p145
sg32
S'1235'
p146
sg34
S'146'
p147
sg36
S'365'
p148
sg38
S'237'
p149
sg40
S'22'
p150
sg42
S'CLE'
p151
sg44
S'75'
p152
sg46
S'20'
p153
sg48
S'421'
p154
sg50
S'315'
p155
sg52
S'857'
p156
sg54
S'182'
p157
sg56
S'2014-15'
p158
sg58
S'578'
p159
sg60
S'186'
p160
sg62
S'.491'
p161
sg64
S'2730'
p162
sg66
S'75'
p163
sba(isrc.gp1.models.Totals
Totals
p164
(dp165
g8
S'21'
p166
sg10
S'89'
p167
sg12
S'.440'
p168
sg14
S'94'
p169
sg16
S'.247'
p170
sg18
S'22'
p171
sg20
S'397'
p172
sg22
S'PG'
p173
sg24
S'.882'
p174
sg26
S'.471'
p175
sg28
S'NBA'
p176
sg30
S'20'
p177
sg32
S'350'
p178
sg34
S'35'
p179
sg36
S'76'
p180
sg38
S'70'
p181
sg40
S'23'
p182
sg42
S'CLE'
p183
sg44
S'23'
p184
sg46
S'4'
p185
sg48
S'132'
p186
sg50
S'67'
p187
sg52
S'261'
p188
sg54
S'49'
p189
sg56
S'2015-16'
p190
sg58
S'154'
p191
sg60
S'45'
p192
sg62
S'.506'
p193
sg64
S'667'
p194
sg66
S'23'
p195
sbasS'_college'
p196
S'Duke University'
p197
sS'_toYear'
p198
S'2016'
p199
sS'_height'
p200
S'6-3'
p201
sS'_active'
p202
I01
sS'_shootingHand'
p203
VRight
p204
sS'_name'
p205
S'Kyrie Irving'
p206
sS'_per100Possessions'
p207
(lp208
(isrc.gp1.models.Per100Possession
Per100Possession
p209
(dp210
g8
S'1.5'
p211
sg10
S'6.2'
p212
sg12
S'.469'
p213
sS'_offensiveRating'
p214
S'109'
p215
sg14
S'9.3'
p216
sg16
S'.399'
p217
sg18
S'2.5'
p218
sg20
S'31.8'
p219
sg22
S'PG'
p220
sS'_defensiveRating'
p221
S'110'
p222
sg24
S'.872'
p223
sg28
S'NBA'
p224
sg30
S'1.8'
p225
sg32
S'25.2'
p226
sg34
S'3.7'
p227
sg36
S'6.6'
p228
sg38
S'6.4'
p229
sg40
S'19'
p230
sg42
S'CLE'
p231
sg44
S'51'
p232
sg46
S'0.7'
p233
sg48
S'9.3'
p234
sg50
S'5.8'
p235
sg52
S'19.0'
p236
sg54
S'5.0'
p237
sg56
S'2011-12'
p238
sg58
S'11.8'
p239
sg60
S'5.4'
p240
sg62
S'.491'
p241
sg64
S'1558'
p242
sg66
S'51'
p243
sba(isrc.gp1.models.Per100Possession
Per100Possession
p244
(dp245
g8
S'0.9'
p246
sg10
S'7.1'
p247
sg12
S'.452'
p248
sg214
S'108'
p249
sg14
S'8.9'
p250
sg16
S'.391'
p251
sg18
S'2.8'
p252
sg20
S'33.7'
p253
sg22
S'PG'
p254
sg221
S'110'
p255
sg24
S'.855'
p256
sg28
S'NBA'
p257
sg30
S'2.3'
p258
sg32
S'27.2'
p259
sg34
S'3.7'
p260
sg36
S'7.4'
p261
sg38
S'5.5'
p262
sg40
S'20'
p263
sg42
S'CLE'
p264
sg44
S'59'
p265
sg46
S'0.5'
p266
sg48
S'9.5'
p267
sg50
S'6.3'
p268
sg52
S'20.1'
p269
sg54
S'4.6'
p270
sg56
S'2012-13'
p271
sg58
S'12.3'
p272
sg60
S'4.9'
p273
sg62
S'.474'
p274
sg64
S'2048'
p275
sg66
S'59'
p276
sba(isrc.gp1.models.Per100Possession
Per100Possession
p277
(dp278
g8
S'1.1'
p279
sg10
S'7.1'
p280
sg12
S'.430'
p281
sg214
S'109'
p282
sg14
S'8.9'
p283
sg16
S'.358'
p284
sg18
S'2.5'
p285
sg20
S'30.5'
p286
sg22
S'PG'
p287
sg221
S'108'
p288
sg24
S'.861'
p289
sg28
S'NBA'
p290
sg30
S'2.2'
p291
sg32
S'25.6'
p292
sg34
S'3.4'
p293
sg36
S'7.0'
p294
sg38
S'5.4'
p295
sg40
S'21'
p296
sg42
S'CLE'
p297
sg44
S'71'
p298
sg46
S'0.5'
p299
sg48
S'8.4'
p300
sg50
S'6.0'
p301
sg52
S'18.4'
p302
sg54
S'4.3'
p303
sg56
S'2013-14'
p304
sg58
S'11.0'
p305
sg60
S'3.9'
p306
sg62
S'.458'
p307
sg64
S'2496'
p308
sg66
S'71'
p309
sba(isrc.gp1.models.Per100Possession
Per100Possession
p310
(dp311
g8
S'1.0'
p312
sg10
S'7.2'
p313
sg12
S'.468'
p314
sg214
S'117'
p315
sg14
S'7.4'
p316
sg16
S'.415'
p317
sg18
S'3.0'
p318
sg20
S'31.0'
p319
sg22
S'PG'
p320
sg221
S'108'
p321
sg24
S'.863'
p322
sg28
S'NBA'
p323
sg30
S'2.2'
p324
sg32
S'23.5'
p325
sg34
S'2.8'
p326
sg36
S'7.0'
p327
sg38
S'4.5'
p328
sg40
S'22'
p329
sg42
S'CLE'
p330
sg44
S'75'
p331
sg46
S'0.4'
p332
sg48
S'8.0'
p333
sg50
S'6.0'
p334
sg52
S'16.3'
p335
sg54
S'3.5'
p336
sg56
S'2014-15'
p337
sg58
S'11.0'
p338
sg60
S'3.5'
p339
sg62
S'.491'
p340
sg64
S'2730'
p341
sg66
S'75'
p342
sba(isrc.gp1.models.Per100Possession
Per100Possession
p343
(dp344
g8
S'1.6'
p345
sg10
S'6.9'
p346
sg12
S'.440'
p347
sg214
S'106'
p348
sg14
S'7.3'
p349
sg16
S'.247'
p350
sg18
S'1.7'
p351
sg20
S'30.8'
p352
sg22
S'PG'
p353
sg221
S'106'
p354
sg24
S'.882'
p355
sg28
S'NBA'
p356
sg30
S'1.6'
p357
sg32
S'27.2'
p358
sg34
S'2.7'
p359
sg36
S'5.9'
p360
sg38
S'5.4'
p361
sg40
S'23'
p362
sg42
S'CLE'
p363
sg44
S'23'
p364
sg46
S'0.3'
p365
sg48
S'10.2'
p366
sg50
S'5.2'
p367
sg52
S'20.2'
p368
sg54
S'3.8'
p369
sg56
S'2015-16'
p370
sg58
S'11.9'
p371
sg60
S'3.5'
p372
sg62
S'.506'
p373
sg64
S'667'
p374
sg66
S'23'
p375
sbasS'_advanced'
p376
(lp377
(isrc.gp1.models.Advanced
Advanced
p378
(dp379
S'_offensiveReboundPercentage'
p380
S'3.1'
p381
sS'_turnOverPercentage'
p382
S'16.1'
p383
sS'_winSharesPer48Minutes'
p384
S'.125'
p385
sS'_stealPercentage'
p386
S'1.8'
p387
sS'_usagePercentage'
p388
S'28.7'
p389
sS'_totalReboundsPercentage'
p390
S'7.0'
p391
sS'_defensiveBoxPlusMinus'
p392
S'-1.7'
p393
sg22
S'PG'
p394
sS'_valueOverReplacementPlayer'
p395
S'2.1'
p396
sS'_trueShootingPercentage'
p397
S'.566'
p398
sS'_defensiveReboundPercentage'
p399
S'11.2'
p400
sS'_freeThrowsAttempRate'
p401
S'.262'
p402
sS'_threePointsAttempRate'
p403
S'.245'
p404
sg28
S'NBA'
p405
sS'_offensiveBoxPlusMinues'
p406
S'4.9'
p407
sS'_assistPercentage'
p408
S'36.5'
p409
sS'_defensiveWinShares'
p410
S'0.6'
p411
sg40
S'19'
p412
sg42
S'CLE'
p413
sg44
S'51'
p414
sS'_blockPercentage'
p415
S'1.0'
p416
sS'_playerEfficiencyRating'
p417
S'21.4'
p418
sS'_offensiveWinShares'
p419
S'3.4'
p420
sg64
S'1558'
p421
sS'_boxPlusMinus'
p422
S'3.3'
p423
sg56
S'2011-12'
p424
sS'_winShares'
p425
S'4.1'
p426
sba(isrc.gp1.models.Advanced
Advanced
p427
(dp428
g380
S'1.8'
p429
sg382
S'13.8'
p430
sg384
S'.125'
p431
sg386
S'2.3'
p432
sg388
S'30.2'
p433
sg390
S'6.1'
p434
sg392
S'-1.6'
p435
sg22
S'PG'
p436
sg395
S'2.8'
p437
sg397
S'.553'
p438
sg399
S'10.8'
p439
sg401
S'.271'
p440
sg403
S'.261'
p441
sg28
S'NBA'
p442
sg406
S'4.9'
p443
sg408
S'32.7'
p444
sg410
S'1.1'
p445
sg40
S'20'
p446
sg42
S'CLE'
p447
sg44
S'59'
p448
sg415
S'0.8'
p449
sg417
S'21.4'
p450
sg419
S'4.2'
p451
sg64
S'2048'
p452
sg422
S'3.3'
p453
sg56
S'2012-13'
p454
sg425
S'5.3'
p455
sba(isrc.gp1.models.Advanced
Advanced
p456
(dp457
g380
S'2.3'
p458
sg382
S'12.1'
p459
sg384
S'.128'
p460
sg386
S'2.2'
p461
sg388
S'28.2'
p462
sg390
S'5.8'
p463
sg392
S'-0.9'
p464
sg22
S'PG'
p465
sg395
S'3.3'
p466
sg397
S'.533'
p467
sg399
S'9.5'
p468
sg401
S'.273'
p469
sg403
S'.278'
p470
sg28
S'NBA'
p471
sg406
S'4.1'
p472
sg408
S'31.6'
p473
sg410
S'2.1'
p474
sg40
S'21'
p475
sg42
S'CLE'
p476
sg44
S'71'
p477
sg415
S'0.8'
p478
sg417
S'20.1'
p479
sg419
S'4.6'
p480
sg64
S'2496'
p481
sg422
S'3.2'
p482
sg56
S'2013-14'
p483
sg425
S'6.7'
p484
sba(isrc.gp1.models.Advanced
Advanced
p485
(dp486
g380
S'2.3'
p487
sg382
S'11.8'
p488
sg384
S'.183'
p489
sg386
S'2.2'
p490
sg388
S'26.2'
p491
sg390
S'5.0'
p492
sg392
S'-1.4'
p493
sg22
S'PG'
p494
sg395
S'3.7'
p495
sg397
S'.583'
p496
sg399
S'7.5'
p497
sg401
S'.296'
p498
sg403
S'.306'
p499
sg28
S'NBA'
p500
sg406
S'4.7'
p501
sg408
S'25.0'
p502
sg410
S'2.0'
p503
sg40
S'22'
p504
sg42
S'CLE'
p505
sg44
S'75'
p506
sg415
S'0.6'
p507
sg417
S'21.5'
p508
sg419
S'8.4'
p509
sg64
S'2730'
p510
sg422
S'3.3'
p511
sg56
S'2014-15'
p512
sg425
S'10.4'
p513
sba(isrc.gp1.models.Advanced
Advanced
p514
(dp515
g380
S'3.6'
p516
sg382
S'10.5'
p517
sg384
S'.127'
p518
sg386
S'1.6'
p519
sg388
S'29.1'
p520
sg390
S'6.0'
p521
sg392
S'-1.5'
p522
sg22
S'PG'
p523
sg395
S'0.5'
p524
sg397
S'.518'
p525
sg399
S'8.3'
p526
sg401
S'.217'
p527
sg403
S'.254'
p528
sg28
S'NBA'
p529
sg406
S'2.2'
p530
sg408
S'25.5'
p531
sg410
S'0.7'
p532
sg40
S'23'
p533
sg42
S'CLE'
p534
sg44
S'23'
p535
sg415
S'0.5'
p536
sg417
S'19.0'
p537
sg419
S'1.1'
p538
sg64
S'667'
p539
sg422
S'0.7'
p540
sg56
S'2015-16'
p541
sg425
S'1.8'
p542
sbasS'_per36Minutes'
p543
(lp544
(isrc.gp1.models.Per36Minutes
Per36Minutes
p545
(dp546
g8
S'1.0'
p547
sg10
S'4.2'
p548
sg12
S'.469'
p549
sg14
S'6.4'
p550
sg16
S'.399'
p551
sg18
S'1.7'
p552
sg20
S'21.8'
p553
sg22
S'PG'
p554
sg24
S'.872'
p555
sg28
S'NBA'
p556
sg30
S'1.2'
p557
sg32
S'17.3'
p558
sg34
S'2.5'
p559
sg36
S'4.5'
p560
sg38
S'4.4'
p561
sg40
S'19'
p562
sg42
S'CLE'
p563
sg44
S'51'
p564
sg46
S'0.5'
p565
sg48
S'6.4'
p566
sg50
S'4.0'
p567
sg52
S'13.0'
p568
sg54
S'3.4'
p569
sg56
S'2011-12'
p570
sg58
S'8.1'
p571
sg60
S'3.7'
p572
sg62
S'.491'
p573
sg64
S'1558'
p574
sg66
S'51'
p575
sba(isrc.gp1.models.Per36Minutes
Per36Minutes
p576
(dp577
g8
S'0.6'
p578
sg10
S'4.9'
p579
sg12
S'.452'
p580
sg14
S'6.2'
p581
sg16
S'.391'
p582
sg18
S'1.9'
p583
sg20
S'23.3'
p584
sg22
S'PG'
p585
sg24
S'.855'
p586
sg28
S'NBA'
p587
sg30
S'1.6'
p588
sg32
S'18.8'
p589
sg34
S'2.6'
p590
sg36
S'5.1'
p591
sg38
S'3.8'
p592
sg40
S'20'
p593
sg42
S'CLE'
p594
sg44
S'59'
p595
sg46
S'0.4'
p596
sg48
S'6.6'
p597
sg50
S'4.4'
p598
sg52
S'13.9'
p599
sg54
S'3.2'
p600
sg56
S'2012-13'
p601
sg58
S'8.5'
p602
sg60
S'3.4'
p603
sg62
S'.474'
p604
sg64
S'2048'
p605
sg66
S'59'
p606
sba(isrc.gp1.models.Per36Minutes
Per36Minutes
p607
(dp608
g8
S'0.7'
p609
sg10
S'5.0'
p610
sg12
S'.430'
p611
sg14
S'6.2'
p612
sg16
S'.358'
p613
sg18
S'1.8'
p614
sg20
S'21.3'
p615
sg22
S'PG'
p616
sg24
S'.861'
p617
sg28
S'NBA'
p618
sg30
S'1.6'
p619
sg32
S'17.8'
p620
sg34
S'2.4'
p621
sg36
S'4.9'
p622
sg38
S'3.7'
p623
sg40
S'21'
p624
sg42
S'CLE'
p625
sg44
S'71'
p626
sg46
S'0.3'
p627
sg48
S'5.9'
p628
sg50
S'4.2'
p629
sg52
S'12.9'
p630
sg54
S'3.0'
p631
sg56
S'2013-14'
p632
sg58
S'7.7'
p633
sg60
S'2.7'
p634
sg62
S'.458'
p635
sg64
S'2496'
p636
sg66
S'71'
p637
sba(isrc.gp1.models.Per36Minutes
Per36Minutes
p638
(dp639
g8
S'0.7'
p640
sg10
S'5.0'
p641
sg12
S'.468'
p642
sg14
S'5.1'
p643
sg16
S'.415'
p644
sg18
S'2.1'
p645
sg20
S'21.5'
p646
sg22
S'PG'
p647
sg24
S'.863'
p648
sg28
S'NBA'
p649
sg30
S'1.5'
p650
sg32
S'16.3'
p651
sg34
S'1.9'
p652
sg36
S'4.8'
p653
sg38
S'3.1'
p654
sg40
S'22'
p655
sg42
S'CLE'
p656
sg44
S'75'
p657
sg46
S'0.3'
p658
sg48
S'5.6'
p659
sg50
S'4.2'
p660
sg52
S'11.3'
p661
sg54
S'2.4'
p662
sg56
S'2014-15'
p663
sg58
S'7.6'
p664
sg60
S'2.5'
p665
sg62
S'.491'
p666
sg64
S'2730'
p667
sg66
S'75'
p668
sba(isrc.gp1.models.Per36Minutes
Per36Minutes
p669
(dp670
g8
S'1.1'
p671
sg10
S'4.8'
p672
sg12
S'.440'
p673
sg14
S'5.1'
p674
sg16
S'.247'
p675
sg18
S'1.2'
p676
sg20
S'21.4'
p677
sg22
S'PG'
p678
sg24
S'.882'
p679
sg28
S'NBA'
p680
sg30
S'1.1'
p681
sg32
S'18.9'
p682
sg34
S'1.9'
p683
sg36
S'4.1'
p684
sg38
S'3.8'
p685
sg40
S'23'
p686
sg42
S'CLE'
p687
sg44
S'23'
p688
sg46
S'0.2'
p689
sg48
S'7.1'
p690
sg50
S'3.6'
p691
sg52
S'14.1'
p692
sg54
S'2.6'
p693
sg56
S'2015-16'
p694
sg58
S'8.3'
p695
sg60
S'2.4'
p696
sg62
S'.506'
p697
sg64
S'667'
p698
sg66
S'23'
p699
sbasS'_fromYear'
p700
S'2012'
p701
sS'_url'
p702
S'http://www.basketball-reference.com/players/i/irvinky01.html'
p703
sS'_perGame'
p704
(isrc.gp1.models.PerGame
PerGame
p705
(dp706
g8
S'0.9'
p707
sg10
S'3.9'
p708
sg12
S'.440'
p709
sS'_effectiveFieldGalPercentage'
p710
S'.471'
p711
sg14
S'4.1'
p712
sg16
S'.247'
p713
sg18
S'1.0'
p714
sg20
S'17.3'
p715
sg22
S'PG'
p716
sg24
S'.882'
p717
sg28
S'NBA'
p718
sg30
S'0.9'
p719
sg34
S'1.5'
p720
sS'_fieldGoalsttempted'
p721
S'15.2'
p722
sg36
S'3.3'
p723
sg38
S'3.0'
p724
sg40
S'23'
p725
sg42
S'CLE'
p726
sg44
S'23'
p727
sg46
S'0.2'
p728
sg48
S'5.7'
p729
sg50
S'2.9'
p730
sg52
S'11.3'
p731
sg54
S'2.1'
p732
sg56
S'2015-16'
p733
sg58
S'6.7'
p734
sg60
S'2.0'
p735
sg62
S'.506'
p736
sg64
S'29.0'
p737
sg66
S'23'
p738
sbsS'_weight'
p739
S'193'
p740
sS'_dob'
p741
S'23-3-1992'
p742
sS'_salary'
p743
(lp744
(isrc.gp1.models.Salary
Salary
p745
(dp746
g42
S'Cleveland Cavaliers'
p747
sg28
S'NBA'
p748
sg743
S'$5,144,280'
p749
sg56
S'2011-12'
p750
sba(isrc.gp1.models.Salary
Salary
p751
(dp752
g42
S'Cleveland Cavaliers'
p753
sg28
S'NBA'
p754
sg743
S'$5,530,080'
p755
sg56
S'2012-13'
p756
sba(isrc.gp1.models.Salary
Salary
p757
(dp758
g42
S'Cleveland Cavaliers'
p759
sg28
S'NBA'
p760
sg743
S'$5,607,240'
p761
sg56
S'2013-14'
p762
sba(isrc.gp1.models.Salary
Salary
p763
(dp764
g42
S'Cleveland Cavaliers'
p765
sg28
S'NBA'
p766
sg743
S'$7,070,730'
p767
sg56
S'2014-15'
p768
sbasg22
S'G'
p769
sb.