(isrc.gp1.models.Player
Player
p0
(dp1
S'_experience'
p2
S'NA'
p3
sS'_totals'
p4
(lp5
(isrc.gp1.models.Totals
Totals
p6
(dp7
S'_offensiveRebounds'
p8
S'1'
p9
sS'_threePointsAttempted'
p10
S'2'
p11
sS'_fieldGoalsPercentage'
p12
S'.500'
p13
sS'_assist'
p14
g11
sS'_threePointsPercentage'
p15
S'.500'
p16
sS'_threePoints'
p17
g9
sS'_points'
p18
S'7'
p19
sS'_position'
p20
S'SG'
p21
sS'_freeThrowsPercentage'
p22
g3
sS'_effectiveFieldGoalPercentage'
p23
S'.583'
p24
sS'_league'
p25
S'NBA'
p26
sS'_steals'
p27
S'0'
p28
sS'_fieldGoalsAttempted'
p29
S'6'
p30
sS'_personalFouls'
p31
g28
sS'_freeThrowsAttempted'
p32
g28
sS'_totalRebounds'
p33
S'4'
p34
sS'_age'
p35
S'25'
p36
sS'_team'
p37
S'BOS'
p38
sS'_games'
p39
g9
sS'_blocks'
p40
g28
sS'_twoPoints'
p41
g11
sS'_freeThrows'
p42
g28
sS'_twoPointsAttempted'
p43
g34
sS'_defensiveRebounds'
p44
S'3'
p45
sS'_season'
p46
S'2009-10'
p47
sS'_fieldGoals'
p48
g45
sS'_turnOvers'
p49
g9
sS'_twoPointsPercentage'
p50
S'.500'
p51
sS'_minutesPlayed'
p52
S'22'
p53
sS'_gamesStarted'
p54
g28
sbasS'_college'
p55
S'University of Houston'
p56
sS'_toYear'
p57
S'2010'
p58
sS'_height'
p59
S'6-2'
p60
sS'_active'
p61
I00
sS'_shootingHand'
p62
VRight
p63
sS'_name'
p64
S'Oliver Lafayette'
p65
sS'_per100Possessions'
p66
(lp67
(isrc.gp1.models.Per100Possession
Per100Possession
p68
(dp69
g8
S'2.4'
p70
sg10
S'4.8'
p71
sg12
S'.500'
p72
sS'_offensiveRating'
p73
S'112'
p74
sg14
S'4.8'
p75
sg15
S'.500'
p76
sg17
S'2.4'
p77
sg18
S'16.7'
p78
sg20
S'SG'
p79
sS'_defensiveRating'
p80
S'109'
p81
sg22
g3
sg25
S'NBA'
p82
sg27
S'0.0'
p83
sg29
S'14.3'
p84
sg31
S'0.0'
p85
sg32
S'0.0'
p86
sg33
S'9.5'
p87
sg35
S'25'
p88
sg37
S'BOS'
p89
sg39
g9
sg40
S'0.0'
p90
sg41
S'4.8'
p91
sg42
S'0.0'
p92
sg43
S'9.5'
p93
sg44
S'7.1'
p94
sg46
S'2009-10'
p95
sg48
S'7.1'
p96
sg49
S'2.4'
p97
sg50
S'.500'
p98
sg52
S'22'
p99
sg54
g28
sbasS'_advanced'
p100
(lp101
(isrc.gp1.models.Advanced
Advanced
p102
(dp103
S'_offensiveReboundPercentage'
p104
S'5.7'
p105
sS'_turnOverPercentage'
p106
S'14.3'
p107
sS'_winSharesPer48Minutes'
p108
S'.098'
p109
sS'_stealPercentage'
p110
S'0.0'
p111
sS'_usagePercentage'
p112
S'14.9'
p113
sS'_totalReboundsPercentage'
p114
S'11.1'
p115
sS'_defensiveBoxPlusMinus'
p116
S'-1.6'
p117
sg20
S'SG'
p118
sS'_valueOverReplacementPlayer'
p119
S'0.0'
p120
sS'_trueShootingPercentage'
p121
S'.583'
p122
sS'_defensiveReboundPercentage'
p123
S'16.3'
p124
sS'_freeThrowsAttempRate'
p125
S'.000'
p126
sS'_threePointsAttempRate'
p127
S'.333'
p128
sg25
S'NBA'
p129
sS'_offensiveBoxPlusMinues'
p130
S'-1.2'
p131
sS'_assistPercentage'
p132
S'14.4'
p133
sS'_defensiveWinShares'
p134
S'0.0'
p135
sg35
S'25'
p136
sg37
S'BOS'
p137
sg39
g9
sS'_blockPercentage'
p138
S'0.0'
p139
sS'_playerEfficiencyRating'
p140
S'12.8'
p141
sS'_offensiveWinShares'
p142
S'0.0'
p143
sg52
S'22'
p144
sS'_boxPlusMinus'
p145
S'-2.8'
p146
sg46
S'2009-10'
p147
sS'_winShares'
p148
S'0.0'
p149
sbasS'_per36Minutes'
p150
(lp151
(isrc.gp1.models.Per36Minutes
Per36Minutes
p152
(dp153
g8
S'1.6'
p154
sg10
S'3.3'
p155
sg12
S'.500'
p156
sg14
S'3.3'
p157
sg15
S'.500'
p158
sg17
S'1.6'
p159
sg18
S'11.5'
p160
sg20
S'SG'
p161
sg22
g3
sg25
S'NBA'
p162
sg27
S'0.0'
p163
sg29
S'9.8'
p164
sg31
S'0.0'
p165
sg32
S'0.0'
p166
sg33
S'6.5'
p167
sg35
S'25'
p168
sg37
S'BOS'
p169
sg39
g9
sg40
S'0.0'
p170
sg41
S'3.3'
p171
sg42
S'0.0'
p172
sg43
S'6.5'
p173
sg44
S'4.9'
p174
sg46
S'2009-10'
p175
sg48
S'4.9'
p176
sg49
S'1.6'
p177
sg50
S'.500'
p178
sg52
S'22'
p179
sg54
g28
sbasS'_fromYear'
p180
S'2010'
p181
sS'_url'
p182
S'http://www.basketball-reference.com/players/l/lafayol01.html'
p183
sS'_perGame'
p184
(isrc.gp1.models.PerGame
PerGame
p185
(dp186
g8
S'1.0'
p187
sg10
S'2.0'
p188
sg12
S'.500'
p189
sS'_effectiveFieldGalPercentage'
p190
S'.583'
p191
sg14
S'2.0'
p192
sg15
S'.500'
p193
sg17
S'1.0'
p194
sg18
S'7.0'
p195
sg20
S'SG'
p196
sg22
g3
sg25
S'NBA'
p197
sg27
S'0.0'
p198
sg31
S'0.0'
p199
sS'_fieldGoalsttempted'
p200
S'6.0'
p201
sg32
S'0.0'
p202
sg33
S'4.0'
p203
sg35
S'25'
p204
sg37
S'BOS'
p205
sg39
g9
sg40
S'0.0'
p206
sg41
S'2.0'
p207
sg42
S'0.0'
p208
sg43
S'4.0'
p209
sg44
S'3.0'
p210
sg46
S'2009-10'
p211
sg48
S'3.0'
p212
sg49
S'1.0'
p213
sg50
S'.500'
p214
sg52
S'22.0'
p215
sg54
g28
sbsS'_weight'
p216
S'190'
p217
sS'_dob'
p218
S'6-5-1984'
p219
sS'_salary'
p220
(lp221
sg20
S'G'
p222
sb.