(isrc.gp1.models.Player
Player
p0
(dp1
S'_experience'
p2
V5
p3
sS'_totals'
p4
(lp5
(isrc.gp1.models.Totals
Totals
p6
(dp7
S'_offensiveRebounds'
p8
S'105'
p9
sS'_threePointsAttempted'
p10
S'219'
p11
sS'_fieldGoalsPercentage'
p12
S'.497'
p13
sS'_assist'
p14
S'155'
p15
sS'_threePointsPercentage'
p16
S'.393'
p17
sS'_threePoints'
p18
S'86'
p19
sS'_points'
p20
S'797'
p21
sS'_position'
p22
S'SG'
p23
sS'_freeThrowsPercentage'
p24
S'.769'
p25
sS'_effectiveFieldGoalPercentage'
p26
S'.568'
p27
sS'_league'
p28
S'NBA'
p29
sS'_steals'
p30
S'80'
p31
sS'_fieldGoalsAttempted'
p32
S'602'
p33
sS'_personalFouls'
p34
S'114'
p35
sS'_freeThrowsAttempted'
p36
S'147'
p37
sS'_totalRebounds'
p38
S'521'
p39
sS'_age'
p40
S'22'
p41
sS'_team'
p42
S'NYK'
p43
sS'_games'
p44
S'82'
p45
sS'_blocks'
p46
S'17'
p47
sS'_twoPoints'
p48
S'213'
p49
sS'_freeThrows'
p50
S'113'
p51
sS'_twoPointsAttempted'
p52
S'383'
p53
sS'_defensiveRebounds'
p54
S'416'
p55
sS'_season'
p56
S'2010-11'
p57
sS'_fieldGoals'
p58
S'299'
p59
sS'_turnOvers'
p60
S'107'
p61
sS'_twoPointsPercentage'
p62
S'.556'
p63
sS'_minutesPlayed'
p64
S'2541'
p65
sS'_gamesStarted'
p66
S'81'
p67
sba(isrc.gp1.models.Totals
Totals
p68
(dp69
g8
S'59'
p70
sg10
S'121'
p71
sg12
S'.460'
p72
sg14
S'169'
p73
sg16
S'.256'
p74
sg18
S'31'
p75
sg20
S'580'
p76
sg22
S'SG'
p77
sg24
S'.562'
p78
sg26
S'.490'
p79
sg28
S'NBA'
p80
sg30
S'79'
p81
sg32
S'513'
p82
sg34
S'99'
p83
sg36
S'137'
p84
sg38
S'278'
p85
sg40
S'23'
p86
sg42
S'NYK'
p87
sg44
S'66'
p88
sg46
S'17'
p89
sg48
S'205'
p90
sg50
S'77'
p91
sg52
S'392'
p92
sg54
S'219'
p93
sg56
S'2011-12'
p94
sg58
S'236'
p95
sg60
S'102'
p96
sg62
S'.523'
p97
sg64
S'1894'
p98
sg66
S'62'
p99
sba(isrc.gp1.models.Totals
Totals
p100
(dp101
g8
S'59'
p102
sg10
S'14'
p103
sg12
S'.457'
p104
sg14
S'60'
p105
sg16
S'.143'
p106
sg18
S'2'
p107
sg20
S'240'
p108
sg22
S'SF'
p109
sg24
S'.642'
p110
sg26
S'.462'
p111
sg28
S'NBA'
p112
sg30
S'32'
p113
sg32
S'223'
p114
sg34
S'63'
p115
sg36
S'53'
p116
sg38
S'208'
p117
sg40
S'24'
p118
sg42
S'TOR'
p119
sg44
S'51'
p120
sg46
S'8'
p121
sg48
S'100'
p122
sg50
S'34'
p123
sg52
S'209'
p124
sg54
S'149'
p125
sg56
S'2012-13'
p126
sg58
S'102'
p127
sg60
S'42'
p128
sg62
S'.478'
p129
sg64
S'1037'
p130
sg66
S'22'
p131
sba(isrc.gp1.models.Totals
Totals
p132
(dp133
g8
S'15'
p134
sg10
S'5'
p135
sg12
S'.403'
p136
sg14
S'20'
p137
sg16
S'.000'
p138
sg18
S'0'
p139
sg20
S'68'
p140
sg22
S'SF'
p141
sg24
S'.636'
p142
sg26
S'.403'
p143
sg28
S'NBA'
p144
sg30
S'10'
p145
sg32
S'67'
p146
sg34
S'25'
p147
sg36
S'22'
p148
sg38
S'59'
p149
sg40
S'25'
p150
sg42
S'TOR'
p151
sg44
S'30'
p152
sg46
S'3'
p153
sg48
S'27'
p154
sg50
S'14'
p155
sg52
S'62'
p156
sg54
S'44'
p157
sg56
S'2013-14'
p158
sg58
S'27'
p159
sg60
S'11'
p160
sg62
S'.435'
p161
sg64
S'322'
p162
sg66
g107
sba(isrc.gp1.models.Totals
Totals
p163
(dp164
g8
S'10'
p165
sg10
g107
sg12
S'.488'
p166
sg14
S'15'
p167
sg16
S'.500'
p168
sg18
S'1'
p169
sg20
S'46'
p170
sg22
S'SF'
p171
sg24
S'.833'
p172
sg26
S'.500'
p173
sg28
S'NBA'
p174
sg30
S'11'
p175
sg32
S'41'
p176
sg34
S'9'
p177
sg36
S'6'
p178
sg38
S'26'
p179
sg40
S'26'
p180
sg42
S'TOR'
p181
sg44
S'26'
p182
sg46
g139
sg48
S'19'
p183
sg50
g135
sg52
S'39'
p184
sg54
S'16'
p185
sg56
S'2014-15'
p186
sg58
S'20'
p187
sg60
g121
sg62
S'.487'
p188
sg64
S'216'
p189
sg66
g177
sbasS'_college'
p190
S'Stanford University'
p191
sS'_toYear'
p192
S'2015'
p193
sS'_height'
p194
S'6-7'
p195
sS'_active'
p196
I01
sS'_shootingHand'
p197
VRight
p198
sS'_name'
p199
S'Landry Fields'
p200
sS'_per100Possessions'
p201
(lp202
(isrc.gp1.models.Per100Possession
Per100Possession
p203
(dp204
g8
S'2.1'
p205
sg10
S'4.3'
p206
sg12
S'.497'
p207
sS'_offensiveRating'
p208
S'115'
p209
sg14
S'3.1'
p210
sg16
S'.393'
p211
sg18
S'1.7'
p212
sg20
S'15.8'
p213
sg22
S'SG'
p214
sS'_defensiveRating'
p215
S'110'
p216
sg24
S'.769'
p217
sg28
S'NBA'
p218
sg30
S'1.6'
p219
sg32
S'11.9'
p220
sg34
S'2.3'
p221
sg36
S'2.9'
p222
sg38
S'10.3'
p223
sg40
S'22'
p224
sg42
S'NYK'
p225
sg44
S'82'
p226
sg46
S'0.3'
p227
sg48
S'4.2'
p228
sg50
S'2.2'
p229
sg52
S'7.6'
p230
sg54
S'8.2'
p231
sg56
S'2010-11'
p232
sg58
S'5.9'
p233
sg60
S'2.1'
p234
sg62
S'.556'
p235
sg64
S'2541'
p236
sg66
S'81'
p237
sba(isrc.gp1.models.Per100Possession
Per100Possession
p238
(dp239
g8
S'1.6'
p240
sg10
S'3.3'
p241
sg12
S'.460'
p242
sg208
S'100'
p243
sg14
S'4.6'
p244
sg16
S'.256'
p245
sg18
S'0.8'
p246
sg20
S'15.8'
p247
sg22
S'SG'
p248
sg215
S'102'
p249
sg24
S'.562'
p250
sg28
S'NBA'
p251
sg30
S'2.1'
p252
sg32
S'14.0'
p253
sg34
S'2.7'
p254
sg36
S'3.7'
p255
sg38
S'7.6'
p256
sg40
S'23'
p257
sg42
S'NYK'
p258
sg44
S'66'
p259
sg46
S'0.5'
p260
sg48
S'5.6'
p261
sg50
S'2.1'
p262
sg52
S'10.7'
p263
sg54
S'6.0'
p264
sg56
S'2011-12'
p265
sg58
S'6.4'
p266
sg60
S'2.8'
p267
sg62
S'.523'
p268
sg64
S'1894'
p269
sg66
S'62'
p270
sba(isrc.gp1.models.Per100Possession
Per100Possession
p271
(dp272
g8
S'3.0'
p273
sg10
S'0.7'
p274
sg12
S'.457'
p275
sg208
S'101'
p276
sg14
S'3.1'
p277
sg16
S'.143'
p278
sg18
S'0.1'
p279
sg20
S'12.3'
p280
sg22
S'SF'
p281
sg215
S'108'
p282
sg24
S'.642'
p283
sg28
S'NBA'
p284
sg30
S'1.6'
p285
sg32
S'11.4'
p286
sg34
S'3.2'
p287
sg36
S'2.7'
p288
sg38
S'10.7'
p289
sg40
S'24'
p290
sg42
S'TOR'
p291
sg44
S'51'
p292
sg46
S'0.4'
p293
sg48
S'5.1'
p294
sg50
S'1.7'
p295
sg52
S'10.7'
p296
sg54
S'7.6'
p297
sg56
S'2012-13'
p298
sg58
S'5.2'
p299
sg60
S'2.2'
p300
sg62
S'.478'
p301
sg64
S'1037'
p302
sg66
S'22'
p303
sba(isrc.gp1.models.Per100Possession
Per100Possession
p304
(dp305
g8
S'2.4'
p306
sg10
S'0.8'
p307
sg12
S'.403'
p308
sg208
S'98'
p309
sg14
S'3.2'
p310
sg16
S'.000'
p311
sg18
S'0.0'
p312
sg20
S'11.0'
p313
sg22
S'SF'
p314
sg215
S'105'
p315
sg24
S'.636'
p316
sg28
S'NBA'
p317
sg30
S'1.6'
p318
sg32
S'10.9'
p319
sg34
S'4.1'
p320
sg36
S'3.6'
p321
sg38
S'9.6'
p322
sg40
S'25'
p323
sg42
S'TOR'
p324
sg44
S'30'
p325
sg46
S'0.5'
p326
sg48
S'4.4'
p327
sg50
S'2.3'
p328
sg52
S'10.1'
p329
sg54
S'7.1'
p330
sg56
S'2013-14'
p331
sg58
S'4.4'
p332
sg60
S'1.8'
p333
sg62
S'.435'
p334
sg64
S'322'
p335
sg66
g107
sba(isrc.gp1.models.Per100Possession
Per100Possession
p336
(dp337
g8
S'2.4'
p338
sg10
S'0.5'
p339
sg12
S'.488'
p340
sg208
S'109'
p341
sg14
S'3.6'
p342
sg16
S'.500'
p343
sg18
S'0.2'
p344
sg20
S'11.0'
p345
sg22
S'SF'
p346
sg215
S'109'
p347
sg24
S'.833'
p348
sg28
S'NBA'
p349
sg30
S'2.6'
p350
sg32
S'9.8'
p351
sg34
S'2.2'
p352
sg36
S'1.4'
p353
sg38
S'6.2'
p354
sg40
S'26'
p355
sg42
S'TOR'
p356
sg44
S'26'
p357
sg46
S'0.0'
p358
sg48
S'4.5'
p359
sg50
S'1.2'
p360
sg52
S'9.3'
p361
sg54
S'3.8'
p362
sg56
S'2014-15'
p363
sg58
S'4.8'
p364
sg60
S'1.9'
p365
sg62
S'.487'
p366
sg64
S'216'
p367
sg66
g177
sbasS'_advanced'
p368
(lp369
(isrc.gp1.models.Advanced
Advanced
p370
(dp371
S'_offensiveReboundPercentage'
p372
S'4.7'
p373
sS'_turnOverPercentage'
p374
S'13.8'
p375
sS'_winSharesPer48Minutes'
p376
S'.100'
p377
sS'_stealPercentage'
p378
S'1.6'
p379
sS'_usagePercentage'
p380
S'13.5'
p381
sS'_totalReboundsPercentage'
p382
S'11.7'
p383
sS'_defensiveBoxPlusMinus'
p384
S'0.1'
p385
sg22
S'SG'
p386
sS'_valueOverReplacementPlayer'
p387
S'1.7'
p388
sS'_trueShootingPercentage'
p389
S'.598'
p390
sS'_defensiveReboundPercentage'
p391
S'18.9'
p392
sS'_freeThrowsAttempRate'
p393
S'.244'
p394
sS'_threePointsAttempRate'
p395
S'.364'
p396
sg28
S'NBA'
p397
sS'_offensiveBoxPlusMinues'
p398
S'0.5'
p399
sS'_assistPercentage'
p400
S'9.0'
p401
sS'_defensiveWinShares'
p402
S'1.8'
p403
sg40
S'22'
p404
sg42
S'NYK'
p405
sg44
S'82'
p406
sS'_blockPercentage'
p407
S'0.5'
p408
sS'_playerEfficiencyRating'
p409
S'13.5'
p410
sS'_offensiveWinShares'
p411
S'3.4'
p412
sg64
S'2541'
p413
sS'_boxPlusMinus'
p414
S'0.6'
p415
sg56
S'2010-11'
p416
sS'_winShares'
p417
S'5.3'
p418
sba(isrc.gp1.models.Advanced
Advanced
p419
(dp420
g372
S'3.6'
p421
sg374
S'15.1'
p422
sg376
S'.085'
p423
sg378
S'2.1'
p424
sg380
S'16.0'
p425
sg382
S'8.5'
p426
sg384
S'1.5'
p427
sg22
S'SG'
p428
sg387
S'1.2'
p429
sg389
S'.506'
p430
sg391
S'13.5'
p431
sg393
S'.267'
p432
sg395
S'.236'
p433
sg28
S'NBA'
p434
sg398
S'-1.1'
p435
sg400
S'14.5'
p436
sg402
S'2.6'
p437
sg40
S'23'
p438
sg42
S'NYK'
p439
sg44
S'66'
p440
sg407
S'0.7'
p441
sg409
S'12.0'
p442
sg411
S'0.8'
p443
sg64
S'1894'
p444
sg414
S'0.4'
p445
sg56
S'2011-12'
p446
sg417
S'3.4'
p447
sba(isrc.gp1.models.Advanced
Advanced
p448
(dp449
g372
S'6.7'
p450
sg374
S'14.6'
p451
sg376
S'.052'
p452
sg378
S'1.6'
p453
sg380
S'12.9'
p454
sg382
S'11.9'
p455
sg384
S'0.7'
p456
sg22
S'SF'
p457
sg387
S'0.0'
p458
sg389
S'.487'
p459
sg391
S'17.4'
p460
sg393
S'.238'
p461
sg395
S'.063'
p462
sg28
S'NBA'
p463
sg398
S'-2.6'
p464
sg400
S'8.9'
p465
sg402
S'0.8'
p466
sg40
S'24'
p467
sg42
S'TOR'
p468
sg44
S'51'
p469
sg407
S'0.6'
p470
sg409
S'10.3'
p471
sg411
S'0.3'
p472
sg64
S'1037'
p473
sg414
S'-1.9'
p474
sg56
S'2012-13'
p475
sg417
S'1.1'
p476
sba(isrc.gp1.models.Advanced
Advanced
p477
(dp478
g372
S'5.4'
p479
sg374
S'12.5'
p480
sg376
S'.057'
p481
sg378
S'1.6'
p482
sg380
S'12.4'
p483
sg382
S'10.7'
p484
sg384
S'0.9'
p485
sg22
S'SF'
p486
sg387
S'-0.1'
p487
sg389
S'.443'
p488
sg391
S'16.0'
p489
sg393
S'.328'
p490
sg395
S'.075'
p491
sg28
S'NBA'
p492
sg398
S'-3.9'
p493
sg400
S'9.3'
p494
sg402
S'0.4'
p495
sg40
S'25'
p496
sg42
S'TOR'
p497
sg44
S'30'
p498
sg407
S'0.7'
p499
sg409
S'8.6'
p500
sg411
S'0.0'
p501
sg64
S'322'
p502
sg414
S'-2.9'
p503
sg56
S'2013-14'
p504
sg417
S'0.4'
p505
sba(isrc.gp1.models.Advanced
Advanced
p506
(dp507
g372
S'5.3'
p508
sg374
S'15.5'
p509
sg376
S'.072'
p510
sg378
S'2.6'
p511
sg380
S'10.8'
p512
sg382
S'6.9'
p513
sg384
S'0.1'
p514
sg22
S'SF'
p515
sg387
S'0.0'
p516
sg389
S'.527'
p517
sg391
S'8.5'
p518
sg393
S'.146'
p519
sg395
S'.049'
p520
sg28
S'NBA'
p521
sg398
S'-1.5'
p522
sg400
S'10.1'
p523
sg402
S'0.1'
p524
sg40
S'26'
p525
sg42
S'TOR'
p526
sg44
S'26'
p527
sg407
S'0.0'
p528
sg409
S'10.8'
p529
sg411
S'0.2'
p530
sg64
S'216'
p531
sg414
S'-1.5'
p532
sg56
S'2014-15'
p533
sg417
S'0.3'
p534
sbasS'_per36Minutes'
p535
(lp536
(isrc.gp1.models.Per36Minutes
Per36Minutes
p537
(dp538
g8
S'1.5'
p539
sg10
S'3.1'
p540
sg12
S'.497'
p541
sg14
S'2.2'
p542
sg16
S'.393'
p543
sg18
S'1.2'
p544
sg20
S'11.3'
p545
sg22
S'SG'
p546
sg24
S'.769'
p547
sg28
S'NBA'
p548
sg30
S'1.1'
p549
sg32
S'8.5'
p550
sg34
S'1.6'
p551
sg36
S'2.1'
p552
sg38
S'7.4'
p553
sg40
S'22'
p554
sg42
S'NYK'
p555
sg44
S'82'
p556
sg46
S'0.2'
p557
sg48
S'3.0'
p558
sg50
S'1.6'
p559
sg52
S'5.4'
p560
sg54
S'5.9'
p561
sg56
S'2010-11'
p562
sg58
S'4.2'
p563
sg60
S'1.5'
p564
sg62
S'.556'
p565
sg64
S'2541'
p566
sg66
S'81'
p567
sba(isrc.gp1.models.Per36Minutes
Per36Minutes
p568
(dp569
g8
S'1.1'
p570
sg10
S'2.3'
p571
sg12
S'.460'
p572
sg14
S'3.2'
p573
sg16
S'.256'
p574
sg18
S'0.6'
p575
sg20
S'11.0'
p576
sg22
S'SG'
p577
sg24
S'.562'
p578
sg28
S'NBA'
p579
sg30
S'1.5'
p580
sg32
S'9.8'
p581
sg34
S'1.9'
p582
sg36
S'2.6'
p583
sg38
S'5.3'
p584
sg40
S'23'
p585
sg42
S'NYK'
p586
sg44
S'66'
p587
sg46
S'0.3'
p588
sg48
S'3.9'
p589
sg50
S'1.5'
p590
sg52
S'7.5'
p591
sg54
S'4.2'
p592
sg56
S'2011-12'
p593
sg58
S'4.5'
p594
sg60
S'1.9'
p595
sg62
S'.523'
p596
sg64
S'1894'
p597
sg66
S'62'
p598
sba(isrc.gp1.models.Per36Minutes
Per36Minutes
p599
(dp600
g8
S'2.0'
p601
sg10
S'0.5'
p602
sg12
S'.457'
p603
sg14
S'2.1'
p604
sg16
S'.143'
p605
sg18
S'0.1'
p606
sg20
S'8.3'
p607
sg22
S'SF'
p608
sg24
S'.642'
p609
sg28
S'NBA'
p610
sg30
S'1.1'
p611
sg32
S'7.7'
p612
sg34
S'2.2'
p613
sg36
S'1.8'
p614
sg38
S'7.2'
p615
sg40
S'24'
p616
sg42
S'TOR'
p617
sg44
S'51'
p618
sg46
S'0.3'
p619
sg48
S'3.5'
p620
sg50
S'1.2'
p621
sg52
S'7.3'
p622
sg54
S'5.2'
p623
sg56
S'2012-13'
p624
sg58
S'3.5'
p625
sg60
S'1.5'
p626
sg62
S'.478'
p627
sg64
S'1037'
p628
sg66
S'22'
p629
sba(isrc.gp1.models.Per36Minutes
Per36Minutes
p630
(dp631
g8
S'1.7'
p632
sg10
S'0.6'
p633
sg12
S'.403'
p634
sg14
S'2.2'
p635
sg16
S'.000'
p636
sg18
S'0.0'
p637
sg20
S'7.6'
p638
sg22
S'SF'
p639
sg24
S'.636'
p640
sg28
S'NBA'
p641
sg30
S'1.1'
p642
sg32
S'7.5'
p643
sg34
S'2.8'
p644
sg36
S'2.5'
p645
sg38
S'6.6'
p646
sg40
S'25'
p647
sg42
S'TOR'
p648
sg44
S'30'
p649
sg46
S'0.3'
p650
sg48
S'3.0'
p651
sg50
S'1.6'
p652
sg52
S'6.9'
p653
sg54
S'4.9'
p654
sg56
S'2013-14'
p655
sg58
S'3.0'
p656
sg60
S'1.2'
p657
sg62
S'.435'
p658
sg64
S'322'
p659
sg66
g107
sba(isrc.gp1.models.Per36Minutes
Per36Minutes
p660
(dp661
g8
S'1.7'
p662
sg10
S'0.3'
p663
sg12
S'.488'
p664
sg14
S'2.5'
p665
sg16
S'.500'
p666
sg18
S'0.2'
p667
sg20
S'7.7'
p668
sg22
S'SF'
p669
sg24
S'.833'
p670
sg28
S'NBA'
p671
sg30
S'1.8'
p672
sg32
S'6.8'
p673
sg34
S'1.5'
p674
sg36
S'1.0'
p675
sg38
S'4.3'
p676
sg40
S'26'
p677
sg42
S'TOR'
p678
sg44
S'26'
p679
sg46
S'0.0'
p680
sg48
S'3.2'
p681
sg50
S'0.8'
p682
sg52
S'6.5'
p683
sg54
S'2.7'
p684
sg56
S'2014-15'
p685
sg58
S'3.3'
p686
sg60
S'1.3'
p687
sg62
S'.487'
p688
sg64
S'216'
p689
sg66
g177
sbasS'_fromYear'
p690
S'2011'
p691
sS'_url'
p692
S'http://www.basketball-reference.com/players/f/fieldla01.html'
p693
sS'_perGame'
p694
(isrc.gp1.models.PerGame
PerGame
p695
(dp696
g8
S'0.4'
p697
sg10
S'0.1'
p698
sg12
S'.488'
p699
sS'_effectiveFieldGalPercentage'
p700
S'.500'
p701
sg14
S'0.6'
p702
sg16
S'.500'
p703
sg18
S'0.0'
p704
sg20
S'1.8'
p705
sg22
S'SF'
p706
sg24
S'.833'
p707
sg28
S'NBA'
p708
sg30
S'0.4'
p709
sg34
S'0.3'
p710
sS'_fieldGoalsttempted'
p711
S'1.6'
p712
sg36
S'0.2'
p713
sg38
S'1.0'
p714
sg40
S'26'
p715
sg42
S'TOR'
p716
sg44
S'26'
p717
sg46
S'0.0'
p718
sg48
S'0.7'
p719
sg50
S'0.2'
p720
sg52
S'1.5'
p721
sg54
S'0.6'
p722
sg56
S'2014-15'
p723
sg58
S'0.8'
p724
sg60
S'0.3'
p725
sg62
S'.487'
p726
sg64
S'8.3'
p727
sg66
g177
sbsS'_weight'
p728
S'210'
p729
sS'_dob'
p730
S'27-6-1988'
p731
sS'_salary'
p732
(lp733
(isrc.gp1.models.Salary
Salary
p734
(dp735
g42
S'New York Knicks'
p736
sg28
S'NBA'
p737
sg732
S'$473,604'
p738
sg56
S'2010-11'
p739
sba(isrc.gp1.models.Salary
Salary
p740
(dp741
g42
S'New York Knicks'
p742
sg28
S'NBA'
p743
sg732
S'$762,195'
p744
sg56
S'2011-12'
p745
sba(isrc.gp1.models.Salary
Salary
p746
(dp747
g42
S'Toronto Raptors'
p748
sg28
S'NBA'
p749
sg732
S'$6,250,000'
p750
sg56
S'2012-13'
p751
sba(isrc.gp1.models.Salary
Salary
p752
(dp753
g42
S'Toronto Raptors'
p754
sg28
S'NBA'
p755
sg732
S'$6,250,000'
p756
sg56
S'2013-14'
p757
sba(isrc.gp1.models.Salary
Salary
p758
(dp759
g42
S'Toronto Raptors'
p760
sg28
S'NBA'
p761
sg732
S'$6,250,000'
p762
sg56
S'2014-15'
p763
sbasg22
S'F'
p764
sb.