(isrc.gp1.models.Player
Player
p0
(dp1
S'_experience'
p2
S'NA'
p3
sS'_totals'
p4
(lp5
(isrc.gp1.models.Totals
Totals
p6
(dp7
S'_offensiveRebounds'
p8
S'110'
p9
sS'_threePointsAttempted'
p10
g3
sS'_fieldGoalsPercentage'
p11
S'.506'
p12
sS'_assist'
p13
S'41'
p14
sS'_threePointsPercentage'
p15
g3
sS'_threePoints'
p16
g3
sS'_points'
p17
S'345'
p18
sS'_position'
p19
S'PF'
p20
sS'_freeThrowsPercentage'
p21
S'.580'
p22
sS'_effectiveFieldGoalPercentage'
p23
S'.506'
p24
sS'_league'
p25
S'NBA'
p26
sS'_steals'
p27
S'21'
p28
sS'_fieldGoalsAttempted'
p29
S'251'
p30
sS'_personalFouls'
p31
S'78'
p32
sS'_freeThrowsAttempted'
p33
S'157'
p34
sS'_totalRebounds'
p35
S'301'
p36
sS'_age'
p37
S'22'
p38
sS'_team'
p39
S'CHI'
p40
sS'_games'
p41
S'62'
p42
sS'_blocks'
p43
S'6'
p44
sS'_twoPoints'
p45
S'127'
p46
sS'_freeThrows'
p47
S'91'
p48
sS'_twoPointsAttempted'
p49
S'251'
p50
sS'_defensiveRebounds'
p51
S'191'
p52
sS'_season'
p53
S'1977-78'
p54
sS'_fieldGoals'
p55
S'127'
p56
sS'_turnOvers'
p57
S'69'
p58
sS'_twoPointsPercentage'
p59
S'.506'
p60
sS'_minutesPlayed'
p61
S'926'
p62
sS'_gamesStarted'
p63
g3
sba(isrc.gp1.models.Totals
Totals
p64
(dp65
g8
S'292'
p66
sg10
g3
sg11
S'.475'
p67
sg13
S'68'
p68
sg15
g3
sg16
g3
sg17
S'647'
p69
sg19
S'PF'
p70
sg21
S'.469'
p71
sg23
S'.475'
p72
sg25
S'NBA'
p73
sg27
S'27'
p74
sg29
S'585'
p75
sg31
S'125'
p76
sg33
S'194'
p77
sg35
S'742'
p78
sg37
S'23'
p79
sg39
S'CHI'
p80
sg41
S'80'
p81
sg43
S'22'
p82
sg45
S'278'
p83
sg47
S'91'
p84
sg49
S'585'
p85
sg51
S'450'
p86
sg53
S'1978-79'
p87
sg55
S'278'
p88
sg57
S'149'
p89
sg59
S'.475'
p90
sg61
S'1959'
p91
sg63
g3
sba(isrc.gp1.models.Totals
Totals
p92
(dp93
g8
S'226'
p94
sg10
S'0'
p95
sg11
S'.516'
p96
sg13
S'46'
p97
sg15
g3
sg16
g95
sg17
S'614'
p98
sg19
S'C'
p99
sg21
S'.523'
p100
sg23
S'.516'
p101
sg25
S'NBA'
p102
sg27
S'33'
p103
sg29
S'483'
p104
sg31
S'140'
p105
sg33
S'222'
p106
sg35
S'613'
p107
sg37
S'24'
p108
sg39
S'TOT'
p109
sg41
S'77'
p110
sg43
S'22'
p111
sg45
S'249'
p112
sg47
S'116'
p113
sg49
S'483'
p114
sg51
S'387'
p115
sg53
S'1979-80'
p116
sg55
S'249'
p117
sg57
S'100'
p118
sg59
S'.516'
p119
sg61
S'1510'
p120
sg63
g3
sba(isrc.gp1.models.Totals
Totals
p121
(dp122
g8
S'157'
p123
sg10
g95
sg11
S'.529'
p124
sg13
S'32'
p125
sg15
g3
sg16
g95
sg17
S'453'
p126
sg19
g99
sg21
S'.524'
p127
sg23
S'.529'
p128
sg25
S'NBA'
p129
sg27
S'23'
p130
sg29
S'346'
p131
sg31
S'113'
p132
sg33
S'166'
p133
sg35
S'450'
p134
sg37
S'24'
p135
sg39
S'CHI'
p136
sg41
S'54'
p137
sg43
S'17'
p138
sg45
S'183'
p139
sg47
S'87'
p140
sg49
S'346'
p141
sg51
S'293'
p142
sg53
S'1979-80'
p143
sg55
S'183'
p144
sg57
S'75'
p145
sg59
S'.529'
p146
sg61
S'1136'
p147
sg63
g3
sba(isrc.gp1.models.Totals
Totals
p148
(dp149
g8
S'69'
p150
sg10
g95
sg11
S'.482'
p151
sg13
S'14'
p152
sg15
g3
sg16
g95
sg17
S'161'
p153
sg19
g99
sg21
S'.518'
p154
sg23
S'.482'
p155
sg25
S'NBA'
p156
sg27
S'10'
p157
sg29
S'137'
p158
sg31
S'27'
p159
sg33
S'56'
p160
sg35
S'163'
p161
sg37
S'24'
p162
sg39
S'LAL'
p163
sg41
S'23'
p164
sg43
S'5'
p165
sg45
S'66'
p166
sg47
S'29'
p167
sg49
S'137'
p168
sg51
S'94'
p169
sg53
S'1979-80'
p170
sg55
S'66'
p171
sg57
S'25'
p172
sg59
S'.482'
p173
sg61
S'374'
p174
sg63
g3
sba(isrc.gp1.models.Totals
Totals
p175
(dp176
g8
S'152'
p177
sg10
S'1'
p178
sg11
S'.502'
p179
sg13
S'27'
p180
sg15
S'.000'
p181
sg16
g95
sg17
S'390'
p182
sg19
S'PF'
p183
sg21
S'.534'
p184
sg23
S'.502'
p185
sg25
S'NBA'
p186
sg27
S'19'
p187
sg29
S'327'
p188
sg31
S'135'
p189
sg33
S'116'
p190
sg35
S'377'
p191
sg37
S'25'
p192
sg39
S'LAL'
p193
sg41
S'69'
p194
sg43
g44
sg45
S'164'
p195
sg47
S'62'
p196
sg49
S'326'
p197
sg51
S'225'
p198
sg53
S'1980-81'
p199
sg55
S'164'
p200
sg57
S'65'
p201
sg59
S'.503'
p202
sg61
S'1086'
p203
sg63
g3
sba(isrc.gp1.models.Totals
Totals
p204
(dp205
g8
S'164'
p206
sg10
S'2'
p207
sg11
S'.438'
p208
sg13
S'32'
p209
sg15
S'.000'
p210
sg16
g95
sg17
S'321'
p211
sg19
S'PF'
p212
sg21
S'.508'
p213
sg23
S'.438'
p214
sg25
S'NBA'
p215
sg27
S'10'
p216
sg29
S'329'
p217
sg31
S'134'
p218
sg33
S'65'
p219
sg35
S'401'
p220
sg37
S'26'
p221
sg39
S'LAL'
p222
sg41
S'75'
p223
sg43
S'7'
p224
sg45
S'144'
p225
sg47
S'33'
p226
sg49
S'327'
p227
sg51
S'237'
p228
sg53
S'1981-82'
p229
sg55
S'144'
p230
sg57
S'49'
p231
sg59
S'.440'
p232
sg61
S'1134'
p233
sg63
g178
sba(isrc.gp1.models.Totals
Totals
p234
(dp235
g8
S'55'
p236
sg10
g95
sg11
S'.422'
p237
sg13
S'12'
p238
sg15
g3
sg16
g95
sg17
S'98'
p239
sg19
S'PF'
p240
sg21
S'.480'
p241
sg23
S'.422'
p242
sg25
S'NBA'
p243
sg27
S'8'
p244
sg29
S'102'
p245
sg31
S'48'
p246
sg33
S'25'
p247
sg35
S'128'
p248
sg37
S'27'
p249
sg39
S'LAL'
p250
sg41
S'39'
p251
sg43
S'4'
p252
sg45
S'43'
p253
sg47
S'12'
p254
sg49
S'102'
p255
sg51
S'73'
p256
sg53
S'1982-83'
p257
sg55
S'43'
p258
sg57
S'20'
p259
sg59
S'.422'
p260
sg61
S'356'
p261
sg63
g252
sba(isrc.gp1.models.Totals
Totals
p262
(dp263
g8
S'42'
p264
sg10
g95
sg11
S'.373'
p265
sg13
S'10'
p266
sg15
g3
sg16
g95
sg17
S'53'
p267
sg19
S'PF'
p268
sg21
S'.577'
p269
sg23
S'.373'
p270
sg25
S'NBA'
p271
sg27
g44
sg29
S'51'
p272
sg31
S'32'
p273
sg33
S'26'
p274
sg35
S'119'
p275
sg37
S'28'
p276
sg39
S'ATL'
p277
sg41
S'35'
p278
sg43
S'3'
p279
sg45
S'19'
p280
sg47
S'15'
p281
sg49
S'51'
p282
sg51
S'77'
p283
sg53
S'1983-84'
p284
sg55
S'19'
p285
sg57
S'21'
p286
sg59
S'.373'
p287
sg61
S'335'
p288
sg63
g95
sbasS'_college'
p289
S'Arizona State University'
p290
sS'_toYear'
p291
S'1984'
p292
sS'_height'
p293
S'6-8'
p294
sS'_active'
p295
I00
sS'_shootingHand'
p296
VRight
p297
sS'_name'
p298
S'Mark Landsberger'
p299
sS'_per100Possessions'
p300
(lp301
(isrc.gp1.models.Per100Possession
Per100Possession
p302
(dp303
g8
S'5.6'
p304
sg10
g3
sg11
S'.506'
p305
sS'_offensiveRating'
p306
S'104'
p307
sg13
S'2.1'
p308
sg15
g3
sg16
g3
sg17
S'17.6'
p309
sg19
S'PF'
p310
sS'_defensiveRating'
p311
S'102'
p312
sg21
S'.580'
p313
sg25
S'NBA'
p314
sg27
S'1.1'
p315
sg29
S'12.8'
p316
sg31
S'4.0'
p317
sg33
S'8.0'
p318
sg35
S'15.4'
p319
sg37
S'22'
p320
sg39
S'CHI'
p321
sg41
S'62'
p322
sg43
S'0.3'
p323
sg45
S'6.5'
p324
sg47
S'4.6'
p325
sg49
S'12.8'
p326
sg51
S'9.8'
p327
sg53
S'1977-78'
p328
sg55
S'6.5'
p329
sg57
S'3.5'
p330
sg59
S'.506'
p331
sg61
S'926'
p332
sg63
g3
sba(isrc.gp1.models.Per100Possession
Per100Possession
p333
(dp334
g8
S'7.0'
p335
sg10
g3
sg11
S'.475'
p336
sg306
S'96'
p337
sg13
S'1.6'
p338
sg15
g3
sg16
g3
sg17
S'15.4'
p339
sg19
S'PF'
p340
sg311
S'104'
p341
sg21
S'.469'
p342
sg25
S'NBA'
p343
sg27
S'0.6'
p344
sg29
S'13.9'
p345
sg31
S'3.0'
p346
sg33
S'4.6'
p347
sg35
S'17.7'
p348
sg37
S'23'
p349
sg39
S'CHI'
p350
sg41
S'80'
p351
sg43
S'0.5'
p352
sg45
S'6.6'
p353
sg47
S'2.2'
p354
sg49
S'13.9'
p355
sg51
S'10.7'
p356
sg53
S'1978-79'
p357
sg55
S'6.6'
p358
sg57
S'3.5'
p359
sg59
S'.475'
p360
sg61
S'1959'
p361
sg63
g3
sba(isrc.gp1.models.Per100Possession
Per100Possession
p362
(dp363
g8
S'7.0'
p364
sg10
S'0.0'
p365
sg11
S'.516'
p366
sg306
S'106'
p367
sg13
S'1.4'
p368
sg15
g3
sg16
S'0.0'
p369
sg17
S'19.1'
p370
sg19
g99
sg311
S'104'
p371
sg21
S'.523'
p372
sg25
S'NBA'
p373
sg27
S'1.0'
p374
sg29
S'15.0'
p375
sg31
S'4.3'
p376
sg33
S'6.9'
p377
sg35
S'19.0'
p378
sg37
S'24'
p379
sg39
S'TOT'
p380
sg41
S'77'
p381
sg43
S'0.7'
p382
sg45
S'7.7'
p383
sg47
S'3.6'
p384
sg49
S'15.0'
p385
sg51
S'12.0'
p386
sg53
S'1979-80'
p387
sg55
S'7.7'
p388
sg57
S'3.1'
p389
sg59
S'.516'
p390
sg61
S'1510'
p391
sg63
g3
sba(isrc.gp1.models.Per100Possession
Per100Possession
p392
(dp393
g8
S'6.5'
p394
sg10
S'0.0'
p395
sg11
S'.529'
p396
sg306
S'106'
p397
sg13
S'1.3'
p398
sg15
g3
sg16
S'0.0'
p399
sg17
S'18.8'
p400
sg19
g99
sg311
S'104'
p401
sg21
S'.524'
p402
sg25
S'NBA'
p403
sg27
S'1.0'
p404
sg29
S'14.4'
p405
sg31
S'4.7'
p406
sg33
S'6.9'
p407
sg35
S'18.7'
p408
sg37
S'24'
p409
sg39
S'CHI'
p410
sg41
S'54'
p411
sg43
S'0.7'
p412
sg45
S'7.6'
p413
sg47
S'3.6'
p414
sg49
S'14.4'
p415
sg51
S'12.2'
p416
sg53
S'1979-80'
p417
sg55
S'7.6'
p418
sg57
S'3.1'
p419
sg59
S'.529'
p420
sg61
S'1136'
p421
sg63
g3
sba(isrc.gp1.models.Per100Possession
Per100Possession
p422
(dp423
g8
S'8.5'
p424
sg10
S'0.0'
p425
sg11
S'.482'
p426
sg306
S'106'
p427
sg13
S'1.7'
p428
sg15
g3
sg16
S'0.0'
p429
sg17
S'19.9'
p430
sg19
g99
sg311
S'102'
p431
sg21
S'.518'
p432
sg25
S'NBA'
p433
sg27
S'1.2'
p434
sg29
S'16.9'
p435
sg31
S'3.3'
p436
sg33
S'6.9'
p437
sg35
S'20.1'
p438
sg37
S'24'
p439
sg39
S'LAL'
p440
sg41
S'23'
p441
sg43
S'0.6'
p442
sg45
S'8.1'
p443
sg47
S'3.6'
p444
sg49
S'16.9'
p445
sg51
S'11.6'
p446
sg53
S'1979-80'
p447
sg55
S'8.1'
p448
sg57
S'3.1'
p449
sg59
S'.482'
p450
sg61
S'374'
p451
sg63
g3
sba(isrc.gp1.models.Per100Possession
Per100Possession
p452
(dp453
g8
S'6.5'
p454
sg10
S'0.0'
p455
sg11
S'.502'
p456
sg306
S'105'
p457
sg13
S'1.2'
p458
sg15
S'.000'
p459
sg16
S'0.0'
p460
sg17
S'16.8'
p461
sg19
S'PF'
p462
sg311
S'104'
p463
sg21
S'.534'
p464
sg25
S'NBA'
p465
sg27
S'0.8'
p466
sg29
S'14.1'
p467
sg31
S'5.8'
p468
sg33
S'5.0'
p469
sg35
S'16.2'
p470
sg37
S'25'
p471
sg39
S'LAL'
p472
sg41
S'69'
p473
sg43
S'0.3'
p474
sg45
S'7.1'
p475
sg47
S'2.7'
p476
sg49
S'14.0'
p477
sg51
S'9.7'
p478
sg53
S'1980-81'
p479
sg55
S'7.1'
p480
sg57
S'2.8'
p481
sg59
S'.503'
p482
sg61
S'1086'
p483
sg63
g3
sba(isrc.gp1.models.Per100Possession
Per100Possession
p484
(dp485
g8
S'6.7'
p486
sg10
S'0.1'
p487
sg11
S'.438'
p488
sg306
S'103'
p489
sg13
S'1.3'
p490
sg15
S'.000'
p491
sg16
S'0.0'
p492
sg17
S'13.2'
p493
sg19
S'PF'
p494
sg311
S'107'
p495
sg21
S'.508'
p496
sg25
S'NBA'
p497
sg27
S'0.4'
p498
sg29
S'13.5'
p499
sg31
S'5.5'
p500
sg33
S'2.7'
p501
sg35
S'16.5'
p502
sg37
S'26'
p503
sg39
S'LAL'
p504
sg41
S'75'
p505
sg43
S'0.3'
p506
sg45
S'5.9'
p507
sg47
S'1.4'
p508
sg49
S'13.4'
p509
sg51
S'9.7'
p510
sg53
S'1981-82'
p511
sg55
S'5.9'
p512
sg57
S'2.0'
p513
sg59
S'.440'
p514
sg61
S'1134'
p515
sg63
g178
sba(isrc.gp1.models.Per100Possession
Per100Possession
p516
(dp517
g8
S'7.1'
p518
sg10
S'0.0'
p519
sg11
S'.422'
p520
sg306
S'99'
p521
sg13
S'1.6'
p522
sg15
g3
sg16
S'0.0'
p523
sg17
S'12.7'
p524
sg19
S'PF'
p525
sg311
S'105'
p526
sg21
S'.480'
p527
sg25
S'NBA'
p528
sg27
S'1.0'
p529
sg29
S'13.2'
p530
sg31
S'6.2'
p531
sg33
S'3.2'
p532
sg35
S'16.6'
p533
sg37
S'27'
p534
sg39
S'LAL'
p535
sg41
S'39'
p536
sg43
S'0.5'
p537
sg45
S'5.6'
p538
sg47
S'1.6'
p539
sg49
S'13.2'
p540
sg51
S'9.5'
p541
sg53
S'1982-83'
p542
sg55
S'5.6'
p543
sg57
S'2.6'
p544
sg59
S'.422'
p545
sg61
S'356'
p546
sg63
g252
sba(isrc.gp1.models.Per100Possession
Per100Possession
p547
(dp548
g8
S'6.3'
p549
sg10
S'0.0'
p550
sg11
S'.373'
p551
sg306
S'90'
p552
sg13
S'1.5'
p553
sg15
g3
sg16
S'0.0'
p554
sg17
S'8.0'
p555
sg19
S'PF'
p556
sg311
S'105'
p557
sg21
S'.577'
p558
sg25
S'NBA'
p559
sg27
S'0.9'
p560
sg29
S'7.7'
p561
sg31
S'4.8'
p562
sg33
S'3.9'
p563
sg35
S'17.9'
p564
sg37
S'28'
p565
sg39
S'ATL'
p566
sg41
S'35'
p567
sg43
S'0.5'
p568
sg45
S'2.9'
p569
sg47
S'2.3'
p570
sg49
S'7.7'
p571
sg51
S'11.6'
p572
sg53
S'1983-84'
p573
sg55
S'2.9'
p574
sg57
S'3.2'
p575
sg59
S'.373'
p576
sg61
S'335'
p577
sg63
g95
sbasS'_advanced'
p578
(lp579
(isrc.gp1.models.Advanced
Advanced
p580
(dp581
S'_offensiveReboundPercentage'
p582
S'13.0'
p583
sS'_turnOverPercentage'
p584
S'17.7'
p585
sS'_winSharesPer48Minutes'
p586
S'.100'
p587
sS'_stealPercentage'
p588
S'1.1'
p589
sS'_usagePercentage'
p590
S'16.9'
p591
sS'_totalReboundsPercentage'
p592
S'17.7'
p593
sS'_defensiveBoxPlusMinus'
p594
S'-1.4'
p595
sg19
S'PF'
p596
sS'_valueOverReplacementPlayer'
p597
S'-0.1'
p598
sS'_trueShootingPercentage'
p599
S'.539'
p600
sS'_defensiveReboundPercentage'
p601
S'22.4'
p602
sS'_freeThrowsAttempRate'
p603
S'.625'
p604
sS'_threePointsAttempRate'
p605
g3
sg25
S'NBA'
p606
sS'_offensiveBoxPlusMinues'
p607
S'-0.9'
p608
sS'_assistPercentage'
p609
S'6.3'
p610
sS'_defensiveWinShares'
p611
S'0.8'
p612
sg37
S'22'
p613
sg39
S'CHI'
p614
sg41
S'62'
p615
sS'_blockPercentage'
p616
S'0.4'
p617
sS'_playerEfficiencyRating'
p618
S'14.5'
p619
sS'_offensiveWinShares'
p620
S'1.1'
p621
sg61
S'926'
p622
sS'_boxPlusMinus'
p623
S'-2.2'
p624
sg53
S'1977-78'
p625
sS'_winShares'
p626
S'1.9'
p627
sba(isrc.gp1.models.Advanced
Advanced
p628
(dp629
g582
S'16.4'
p630
sg584
S'18.2'
p631
sg586
S'.054'
p632
sg588
S'0.6'
p633
sg590
S'16.7'
p634
sg592
S'20.7'
p635
sg594
S'-1.1'
p636
sg19
S'PF'
p637
sg597
S'-0.7'
p638
sg599
S'.483'
p639
sg601
S'25.0'
p640
sg603
S'.332'
p641
sg605
g3
sg25
S'NBA'
p642
sg607
S'-2.3'
p643
sg609
S'4.7'
p644
sg611
S'2.0'
p645
sg37
S'23'
p646
sg39
S'CHI'
p647
sg41
S'80'
p648
sg616
S'0.6'
p649
sg618
S'12.6'
p650
sg620
S'0.2'
p651
sg61
S'1959'
p652
sg623
S'-3.4'
p653
sg53
S'1978-79'
p654
sg626
S'2.2'
p655
sba(isrc.gp1.models.Advanced
Advanced
p656
(dp657
g582
S'17.4'
p658
sg584
S'14.7'
p659
sg586
S'.109'
p660
sg588
S'1.0'
p661
sg590
S'18.3'
p662
sg592
S'22.6'
p663
sg594
S'-1.9'
p664
sg19
g99
sg597
S'-0.4'
p665
sg599
S'.529'
p666
sg601
S'27.6'
p667
sg603
S'.460'
p668
sg605
S'.000'
p669
sg25
S'NBA'
p670
sg607
S'-1.2'
p671
sg609
S'4.3'
p672
sg611
S'1.8'
p673
sg37
S'24'
p674
sg39
S'TOT'
p675
sg41
S'77'
p676
sg616
S'0.8'
p677
sg618
S'15.7'
p678
sg620
S'1.6'
p679
sg61
S'1510'
p680
sg623
S'-3.1'
p681
sg53
S'1979-80'
p682
sg626
S'3.4'
p683
sba(isrc.gp1.models.Advanced
Advanced
p684
(dp685
g582
S'15.9'
p686
sg584
S'15.2'
p687
sg586
S'.103'
p688
sg588
S'1.0'
p689
sg590
S'17.7'
p690
sg592
S'22.3'
p691
sg594
S'-1.7'
p692
sg19
g99
sg597
S'-0.3'
p693
sg599
S'.541'
p694
sg601
S'28.3'
p695
sg603
S'.480'
p696
sg605
S'.000'
p697
sg25
S'NBA'
p698
sg607
S'-1.4'
p699
sg609
S'4.1'
p700
sg611
S'1.3'
p701
sg37
S'24'
p702
sg39
S'CHI'
p703
sg41
S'54'
p704
sg616
S'0.8'
p705
sg618
S'15.3'
p706
sg620
S'1.1'
p707
sg61
S'1136'
p708
sg623
S'-3.1'
p709
sg53
S'1979-80'
p710
sg626
S'2.4'
p711
sba(isrc.gp1.models.Advanced
Advanced
p712
(dp713
g582
S'22.0'
p714
sg584
S'13.4'
p715
sg586
S'.128'
p716
sg588
S'1.2'
p717
sg590
S'20.0'
p718
sg592
S'23.8'
p719
sg594
S'-2.5'
p720
sg19
g99
sg597
S'-0.1'
p721
sg599
S'.498'
p722
sg601
S'25.2'
p723
sg603
S'.409'
p724
sg605
S'.000'
p725
sg25
S'NBA'
p726
sg607
S'-0.5'
p727
sg609
S'4.7'
p728
sg611
S'0.5'
p729
sg37
S'24'
p730
sg39
S'LAL'
p731
sg41
S'23'
p732
sg616
S'0.7'
p733
sg618
S'17.0'
p734
sg620
S'0.4'
p735
sg61
S'374'
p736
sg623
S'-3.0'
p737
sg53
S'1979-80'
p738
sg626
S'1.0'
p739
sba(isrc.gp1.models.Advanced
Advanced
p740
(dp741
g582
S'16.1'
p742
sg584
S'14.7'
p743
sg586
S'.099'
p744
sg588
S'0.8'
p745
sg590
S'16.4'
p746
sg592
S'18.8'
p747
sg594
S'-2.4'
p748
sg19
S'PF'
p749
sg597
S'-0.6'
p750
sg599
S'.516'
p751
sg601
S'21.2'
p752
sg603
S'.355'
p753
sg605
S'.003'
p754
sg25
S'NBA'
p755
sg607
S'-1.9'
p756
sg609
S'3.1'
p757
sg611
S'1.3'
p758
sg37
S'25'
p759
sg39
S'LAL'
p760
sg41
S'69'
p761
sg616
S'0.3'
p762
sg618
S'12.5'
p763
sg620
S'0.9'
p764
sg61
S'1086'
p765
sg623
S'-4.4'
p766
sg53
S'1980-81'
p767
sg626
S'2.2'
p768
sba(isrc.gp1.models.Advanced
Advanced
p769
(dp770
g582
S'16.3'
p771
sg584
S'12.1'
p772
sg586
S'.072'
p773
sg588
S'0.4'
p774
sg590
S'14.2'
p775
sg592
S'19.3'
p776
sg594
S'-2.1'
p777
sg19
S'PF'
p778
sg597
S'-0.8'
p779
sg599
S'.449'
p780
sg601
S'22.0'
p781
sg603
S'.198'
p782
sg605
S'.006'
p783
sg25
S'NBA'
p784
sg607
S'-2.7'
p785
sg609
S'3.3'
p786
sg611
S'1.2'
p787
sg37
S'26'
p788
sg39
S'LAL'
p789
sg41
S'75'
p790
sg616
S'0.3'
p791
sg618
S'10.3'
p792
sg620
S'0.5'
p793
sg61
S'1134'
p794
sg623
S'-4.8'
p795
sg53
S'1981-82'
p796
sg626
S'1.7'
p797
sba(isrc.gp1.models.Advanced
Advanced
p798
(dp799
g582
S'17.9'
p800
sg584
S'15.0'
p801
sg586
S'.061'
p802
sg588
S'1.0'
p803
sg590
S'14.8'
p804
sg592
S'19.9'
p805
sg594
S'-2.1'
p806
sg19
S'PF'
p807
sg597
S'-0.2'
p808
sg599
S'.434'
p809
sg601
S'21.7'
p810
sg603
S'.245'
p811
sg605
S'.000'
p812
sg25
S'NBA'
p813
sg607
S'-2.5'
p814
sg609
S'3.8'
p815
sg611
S'0.4'
p816
sg37
S'27'
p817
sg39
S'LAL'
p818
sg41
S'39'
p819
sg616
S'0.6'
p820
sg618
S'10.2'
p821
sg620
S'0.1'
p822
sg61
S'356'
p823
sg623
S'-4.6'
p824
sg53
S'1982-83'
p825
sg626
S'0.4'
p826
sba(isrc.gp1.models.Advanced
Advanced
p827
(dp828
g582
S'14.1'
p829
sg584
S'25.2'
p830
sg586
S'.036'
p831
sg588
S'0.9'
p832
sg590
S'10.8'
p833
sg592
S'20.3'
p834
sg594
S'0.2'
p835
sg19
S'PF'
p836
sg597
S'-0.2'
p837
sg599
S'.424'
p838
sg601
S'26.7'
p839
sg603
S'.510'
p840
sg605
S'.000'
p841
sg25
S'NBA'
p842
sg607
S'-5.0'
p843
sg609
S'3.9'
p844
sg611
S'0.5'
p845
sg37
S'28'
p846
sg39
S'ATL'
p847
sg41
S'35'
p848
sg616
S'0.5'
p849
sg618
S'8.1'
p850
sg620
S'-0.2'
p851
sg61
S'335'
p852
sg623
S'-4.9'
p853
sg53
S'1983-84'
p854
sg626
S'0.3'
p855
sbasS'_per36Minutes'
p856
(lp857
(isrc.gp1.models.Per36Minutes
Per36Minutes
p858
(dp859
g8
S'4.3'
p860
sg10
g3
sg11
S'.506'
p861
sg13
S'1.6'
p862
sg15
g3
sg16
g3
sg17
S'13.4'
p863
sg19
S'PF'
p864
sg21
S'.580'
p865
sg25
S'NBA'
p866
sg27
S'0.8'
p867
sg29
S'9.8'
p868
sg31
S'3.0'
p869
sg33
S'6.1'
p870
sg35
S'11.7'
p871
sg37
S'22'
p872
sg39
S'CHI'
p873
sg41
S'62'
p874
sg43
S'0.2'
p875
sg45
S'4.9'
p876
sg47
S'3.5'
p877
sg49
S'9.8'
p878
sg51
S'7.4'
p879
sg53
S'1977-78'
p880
sg55
S'4.9'
p881
sg57
S'2.7'
p882
sg59
S'.506'
p883
sg61
S'926'
p884
sg63
g3
sba(isrc.gp1.models.Per36Minutes
Per36Minutes
p885
(dp886
g8
S'5.4'
p887
sg10
g3
sg11
S'.475'
p888
sg13
S'1.2'
p889
sg15
g3
sg16
g3
sg17
S'11.9'
p890
sg19
S'PF'
p891
sg21
S'.469'
p892
sg25
S'NBA'
p893
sg27
S'0.5'
p894
sg29
S'10.8'
p895
sg31
S'2.3'
p896
sg33
S'3.6'
p897
sg35
S'13.6'
p898
sg37
S'23'
p899
sg39
S'CHI'
p900
sg41
S'80'
p901
sg43
S'0.4'
p902
sg45
S'5.1'
p903
sg47
S'1.7'
p904
sg49
S'10.8'
p905
sg51
S'8.3'
p906
sg53
S'1978-79'
p907
sg55
S'5.1'
p908
sg57
S'2.7'
p909
sg59
S'.475'
p910
sg61
S'1959'
p911
sg63
g3
sba(isrc.gp1.models.Per36Minutes
Per36Minutes
p912
(dp913
g8
S'5.4'
p914
sg10
S'0.0'
p915
sg11
S'.516'
p916
sg13
S'1.1'
p917
sg15
g3
sg16
S'0.0'
p918
sg17
S'14.6'
p919
sg19
g99
sg21
S'.523'
p920
sg25
S'NBA'
p921
sg27
S'0.8'
p922
sg29
S'11.5'
p923
sg31
S'3.3'
p924
sg33
S'5.3'
p925
sg35
S'14.6'
p926
sg37
S'24'
p927
sg39
S'TOT'
p928
sg41
S'77'
p929
sg43
S'0.5'
p930
sg45
S'5.9'
p931
sg47
S'2.8'
p932
sg49
S'11.5'
p933
sg51
S'9.2'
p934
sg53
S'1979-80'
p935
sg55
S'5.9'
p936
sg57
S'2.4'
p937
sg59
S'.516'
p938
sg61
S'1510'
p939
sg63
g3
sba(isrc.gp1.models.Per36Minutes
Per36Minutes
p940
(dp941
g8
S'5.0'
p942
sg10
S'0.0'
p943
sg11
S'.529'
p944
sg13
S'1.0'
p945
sg15
g3
sg16
S'0.0'
p946
sg17
S'14.4'
p947
sg19
g99
sg21
S'.524'
p948
sg25
S'NBA'
p949
sg27
S'0.7'
p950
sg29
S'11.0'
p951
sg31
S'3.6'
p952
sg33
S'5.3'
p953
sg35
S'14.3'
p954
sg37
S'24'
p955
sg39
S'CHI'
p956
sg41
S'54'
p957
sg43
S'0.5'
p958
sg45
S'5.8'
p959
sg47
S'2.8'
p960
sg49
S'11.0'
p961
sg51
S'9.3'
p962
sg53
S'1979-80'
p963
sg55
S'5.8'
p964
sg57
S'2.4'
p965
sg59
S'.529'
p966
sg61
S'1136'
p967
sg63
g3
sba(isrc.gp1.models.Per36Minutes
Per36Minutes
p968
(dp969
g8
S'6.6'
p970
sg10
S'0.0'
p971
sg11
S'.482'
p972
sg13
S'1.3'
p973
sg15
g3
sg16
S'0.0'
p974
sg17
S'15.5'
p975
sg19
g99
sg21
S'.518'
p976
sg25
S'NBA'
p977
sg27
S'1.0'
p978
sg29
S'13.2'
p979
sg31
S'2.6'
p980
sg33
S'5.4'
p981
sg35
S'15.7'
p982
sg37
S'24'
p983
sg39
S'LAL'
p984
sg41
S'23'
p985
sg43
S'0.5'
p986
sg45
S'6.4'
p987
sg47
S'2.8'
p988
sg49
S'13.2'
p989
sg51
S'9.0'
p990
sg53
S'1979-80'
p991
sg55
S'6.4'
p992
sg57
S'2.4'
p993
sg59
S'.482'
p994
sg61
S'374'
p995
sg63
g3
sba(isrc.gp1.models.Per36Minutes
Per36Minutes
p996
(dp997
g8
S'5.0'
p998
sg10
S'0.0'
p999
sg11
S'.502'
p1000
sg13
S'0.9'
p1001
sg15
S'.000'
p1002
sg16
S'0.0'
p1003
sg17
S'12.9'
p1004
sg19
S'PF'
p1005
sg21
S'.534'
p1006
sg25
S'NBA'
p1007
sg27
S'0.6'
p1008
sg29
S'10.8'
p1009
sg31
S'4.5'
p1010
sg33
S'3.8'
p1011
sg35
S'12.5'
p1012
sg37
S'25'
p1013
sg39
S'LAL'
p1014
sg41
S'69'
p1015
sg43
S'0.2'
p1016
sg45
S'5.4'
p1017
sg47
S'2.1'
p1018
sg49
S'10.8'
p1019
sg51
S'7.5'
p1020
sg53
S'1980-81'
p1021
sg55
S'5.4'
p1022
sg57
S'2.2'
p1023
sg59
S'.503'
p1024
sg61
S'1086'
p1025
sg63
g3
sba(isrc.gp1.models.Per36Minutes
Per36Minutes
p1026
(dp1027
g8
S'5.2'
p1028
sg10
S'0.1'
p1029
sg11
S'.438'
p1030
sg13
S'1.0'
p1031
sg15
S'.000'
p1032
sg16
S'0.0'
p1033
sg17
S'10.2'
p1034
sg19
S'PF'
p1035
sg21
S'.508'
p1036
sg25
S'NBA'
p1037
sg27
S'0.3'
p1038
sg29
S'10.4'
p1039
sg31
S'4.3'
p1040
sg33
S'2.1'
p1041
sg35
S'12.7'
p1042
sg37
S'26'
p1043
sg39
S'LAL'
p1044
sg41
S'75'
p1045
sg43
S'0.2'
p1046
sg45
S'4.6'
p1047
sg47
S'1.0'
p1048
sg49
S'10.4'
p1049
sg51
S'7.5'
p1050
sg53
S'1981-82'
p1051
sg55
S'4.6'
p1052
sg57
S'1.6'
p1053
sg59
S'.440'
p1054
sg61
S'1134'
p1055
sg63
g178
sba(isrc.gp1.models.Per36Minutes
Per36Minutes
p1056
(dp1057
g8
S'5.6'
p1058
sg10
S'0.0'
p1059
sg11
S'.422'
p1060
sg13
S'1.2'
p1061
sg15
g3
sg16
S'0.0'
p1062
sg17
S'9.9'
p1063
sg19
S'PF'
p1064
sg21
S'.480'
p1065
sg25
S'NBA'
p1066
sg27
S'0.8'
p1067
sg29
S'10.3'
p1068
sg31
S'4.9'
p1069
sg33
S'2.5'
p1070
sg35
S'12.9'
p1071
sg37
S'27'
p1072
sg39
S'LAL'
p1073
sg41
S'39'
p1074
sg43
S'0.4'
p1075
sg45
S'4.3'
p1076
sg47
S'1.2'
p1077
sg49
S'10.3'
p1078
sg51
S'7.4'
p1079
sg53
S'1982-83'
p1080
sg55
S'4.3'
p1081
sg57
S'2.0'
p1082
sg59
S'.422'
p1083
sg61
S'356'
p1084
sg63
g252
sba(isrc.gp1.models.Per36Minutes
Per36Minutes
p1085
(dp1086
g8
S'4.5'
p1087
sg10
S'0.0'
p1088
sg11
S'.373'
p1089
sg13
S'1.1'
p1090
sg15
g3
sg16
S'0.0'
p1091
sg17
S'5.7'
p1092
sg19
S'PF'
p1093
sg21
S'.577'
p1094
sg25
S'NBA'
p1095
sg27
S'0.6'
p1096
sg29
S'5.5'
p1097
sg31
S'3.4'
p1098
sg33
S'2.8'
p1099
sg35
S'12.8'
p1100
sg37
S'28'
p1101
sg39
S'ATL'
p1102
sg41
S'35'
p1103
sg43
S'0.3'
p1104
sg45
S'2.0'
p1105
sg47
S'1.6'
p1106
sg49
S'5.5'
p1107
sg51
S'8.3'
p1108
sg53
S'1983-84'
p1109
sg55
S'2.0'
p1110
sg57
S'2.3'
p1111
sg59
S'.373'
p1112
sg61
S'335'
p1113
sg63
g95
sbasS'_fromYear'
p1114
S'1978'
p1115
sS'_url'
p1116
S'http://www.basketball-reference.com/players/l/landsma01.html'
p1117
sS'_perGame'
p1118
(isrc.gp1.models.PerGame
PerGame
p1119
(dp1120
g8
S'1.2'
p1121
sg10
S'0.0'
p1122
sg11
S'.373'
p1123
sS'_effectiveFieldGalPercentage'
p1124
S'.373'
p1125
sg13
S'0.3'
p1126
sg15
g3
sg16
S'0.0'
p1127
sg17
S'1.5'
p1128
sg19
S'PF'
p1129
sg21
S'.577'
p1130
sg25
S'NBA'
p1131
sg27
S'0.2'
p1132
sg31
S'0.9'
p1133
sS'_fieldGoalsttempted'
p1134
S'1.5'
p1135
sg33
S'0.7'
p1136
sg35
S'3.4'
p1137
sg37
S'28'
p1138
sg39
S'ATL'
p1139
sg41
S'35'
p1140
sg43
S'0.1'
p1141
sg45
S'0.5'
p1142
sg47
S'0.4'
p1143
sg49
S'1.5'
p1144
sg51
S'2.2'
p1145
sg53
S'1983-84'
p1146
sg55
S'0.5'
p1147
sg57
S'0.6'
p1148
sg59
S'.373'
p1149
sg61
S'9.6'
p1150
sg63
g95
sbsS'_weight'
p1151
S'215'
p1152
sS'_dob'
p1153
S'21-5-1955'
p1154
sS'_salary'
p1155
(lp1156
sg19
S'F-C'
p1157
sb.