(isrc.gp1.models.Player
Player
p0
(dp1
S'_experience'
p2
S'NA'
p3
sS'_totals'
p4
(lp5
(isrc.gp1.models.Totals
Totals
p6
(dp7
S'_offensiveRebounds'
p8
S'3'
p9
sS'_threePointsAttempted'
p10
S'0'
p11
sS'_fieldGoalsPercentage'
p12
S'.400'
p13
sS'_assist'
p14
S'1'
p15
sS'_threePointsPercentage'
p16
g3
sS'_threePoints'
p17
g11
sS'_points'
p18
S'11'
p19
sS'_position'
p20
S'SF'
p21
sS'_freeThrowsPercentage'
p22
S'.750'
p23
sS'_effectiveFieldGoalPercentage'
p24
S'.400'
p25
sS'_league'
p26
S'NBA'
p27
sS'_steals'
p28
g11
sS'_fieldGoalsAttempted'
p29
S'10'
p30
sS'_personalFouls'
p31
S'11'
p32
sS'_freeThrowsAttempted'
p33
S'4'
p34
sS'_totalRebounds'
p35
g34
sS'_age'
p36
S'22'
p37
sS'_team'
p38
S'PHO'
p39
sS'_games'
p40
S'12'
p41
sS'_blocks'
p42
S'2'
p43
sS'_twoPoints'
p44
g34
sS'_freeThrows'
p45
g9
sS'_twoPointsAttempted'
p46
S'10'
p47
sS'_defensiveRebounds'
p48
g15
sS'_season'
p49
S'1994-95'
p50
sS'_fieldGoals'
p51
g34
sS'_turnOvers'
p52
S'5'
p53
sS'_twoPointsPercentage'
p54
S'.400'
p55
sS'_minutesPlayed'
p56
S'53'
p57
sS'_gamesStarted'
p58
g11
sba(isrc.gp1.models.Totals
Totals
p59
(dp60
g8
S'17'
p61
sg10
g43
sg12
S'.532'
p62
sg14
S'12'
p63
sg16
S'.000'
p64
sg17
g11
sg18
S'116'
p65
sg20
S'SF'
p66
sg22
S'.723'
p67
sg24
S'.532'
p68
sg26
S'NBA'
p69
sg28
S'14'
p70
sg29
S'77'
p71
sg31
S'61'
p72
sg33
S'47'
p73
sg35
S'53'
p74
sg36
S'23'
p75
sg38
S'CLE'
p76
sg40
S'41'
p77
sg42
S'12'
p78
sg44
S'41'
p79
sg45
S'34'
p80
sg46
S'75'
p81
sg48
S'36'
p82
sg49
S'1995-96'
p83
sg51
S'41'
p84
sg52
S'24'
p85
sg54
S'.547'
p86
sg56
S'367'
p87
sg58
g11
sba(isrc.gp1.models.Totals
Totals
p88
(dp89
g8
S'52'
p90
sg10
S'6'
p91
sg12
S'.420'
p92
sg14
S'33'
p93
sg16
S'.000'
p94
sg17
g11
sg18
S'171'
p95
sg20
S'PF'
p96
sg22
S'.729'
p97
sg24
S'.420'
p98
sg26
S'NBA'
p99
sg28
S'33'
p100
sg29
S'162'
p101
sg31
S'111'
p102
sg33
S'48'
p103
sg35
S'127'
p104
sg36
S'24'
p105
sg38
S'CLE'
p106
sg40
S'64'
p107
sg42
S'30'
p108
sg44
S'68'
p109
sg45
S'35'
p110
sg46
S'156'
p111
sg48
S'75'
p112
sg49
S'1996-97'
p113
sg51
S'68'
p114
sg52
S'50'
p115
sg54
S'.436'
p116
sg56
S'843'
p117
sg58
g15
sba(isrc.gp1.models.Totals
Totals
p118
(dp119
g8
g43
sg10
g11
sg12
S'.600'
p120
sg14
g15
sg16
g3
sg17
g11
sg18
S'12'
p121
sg20
S'SF'
p122
sg22
S'.750'
p123
sg24
S'.600'
p124
sg26
S'NBA'
p125
sg28
g43
sg29
g53
sg31
g9
sg33
S'8'
p126
sg35
g53
sg36
S'25'
p127
sg38
S'MIA'
p128
sg40
g91
sg42
g11
sg44
g9
sg45
g91
sg46
g53
sg48
g9
sg49
S'1997-98'
p129
sg51
g9
sg52
g34
sg54
S'.600'
p130
sg56
S'29'
p131
sg58
g11
sba(isrc.gp1.models.Totals
Totals
p132
(dp133
g8
g91
sg10
g11
sg12
S'.667'
p134
sg14
g15
sg16
g3
sg17
g11
sg18
S'13'
p135
sg20
S'PF'
p136
sg22
S'.556'
p137
sg24
S'.667'
p138
sg26
S'NBA'
p139
sg28
g43
sg29
g91
sg31
S'13'
p140
sg33
S'9'
p141
sg35
S'16'
p142
sg36
S'26'
p143
sg38
S'CLE'
p144
sg40
S'10'
p145
sg42
g15
sg44
g34
sg45
g53
sg46
g91
sg48
S'10'
p146
sg49
S'1998-99'
p147
sg51
g34
sg52
g34
sg54
S'.667'
p148
sg56
S'65'
p149
sg58
g11
sba(isrc.gp1.models.Totals
Totals
p150
(dp151
g8
g11
sg10
g11
sg12
S'.167'
p152
sg14
g43
sg16
g3
sg17
g11
sg18
g91
sg20
S'SF'
p153
sg22
S'.800'
p154
sg24
S'.167'
p155
sg26
S'NBA'
p156
sg28
g34
sg29
g91
sg31
g126
sg33
g53
sg35
g53
sg36
S'27'
p157
sg38
S'TOT'
p158
sg40
S'10'
p159
sg42
g15
sg44
g15
sg45
g34
sg46
g91
sg48
g53
sg49
S'1999-00'
p160
sg51
g15
sg52
g43
sg54
S'.167'
p161
sg56
S'38'
p162
sg58
g11
sba(isrc.gp1.models.Totals
Totals
p163
(dp164
g8
g11
sg10
g11
sg12
S'.000'
p165
sg14
g15
sg16
g3
sg17
g11
sg18
g9
sg20
S'SF'
p166
sg22
S'.750'
p167
sg24
S'.000'
p168
sg26
S'NBA'
p169
sg28
g34
sg29
g53
sg31
S'7'
p170
sg33
g34
sg35
g53
sg36
S'27'
p171
sg38
S'TOR'
p172
sg40
g170
sg42
g15
sg44
g11
sg45
g9
sg46
g53
sg48
g53
sg49
S'1999-00'
p173
sg51
g11
sg52
g43
sg54
S'.000'
p174
sg56
S'32'
p175
sg58
g11
sba(isrc.gp1.models.Totals
Totals
p176
(dp177
g8
g11
sg10
g11
sg12
S'1.000'
p178
sg14
g15
sg16
g3
sg17
g11
sg18
g9
sg20
S'SF'
p179
sg22
S'1.000'
p180
sg24
S'1.000'
p181
sg26
S'NBA'
p182
sg28
g11
sg29
g15
sg31
g15
sg33
g15
sg35
g11
sg36
S'27'
p183
sg38
S'PHI'
p184
sg40
g9
sg42
g11
sg44
g15
sg45
g15
sg46
g15
sg48
g11
sg49
S'1999-00'
p185
sg51
g15
sg52
g11
sg54
S'1.000'
p186
sg56
g91
sg58
g11
sbasS'_college'
p187
S'Duke University'
p188
sS'_toYear'
p189
S'2000'
p190
sS'_height'
p191
S'6-8'
p192
sS'_active'
p193
I00
sS'_shootingHand'
p194
VRight
p195
sS'_name'
p196
S'Antonio Lang'
p197
sS'_per100Possessions'
p198
(lp199
(isrc.gp1.models.Per100Possession
Per100Possession
p200
(dp201
g8
S'2.8'
p202
sg10
S'0.0'
p203
sg12
S'.400'
p204
sS'_offensiveRating'
p205
S'78'
p206
sg14
S'0.9'
p207
sg16
g3
sg17
S'0.0'
p208
sg18
S'10.4'
p209
sg20
S'SF'
p210
sS'_defensiveRating'
p211
S'116'
p212
sg22
S'.750'
p213
sg26
S'NBA'
p214
sg28
S'0.0'
p215
sg29
S'9.4'
p216
sg31
S'10.4'
p217
sg33
S'3.8'
p218
sg35
S'3.8'
p219
sg36
S'22'
p220
sg38
S'PHO'
p221
sg40
S'12'
p222
sg42
S'1.9'
p223
sg44
S'3.8'
p224
sg45
S'2.8'
p225
sg46
S'9.4'
p226
sg48
S'0.9'
p227
sg49
S'1994-95'
p228
sg51
S'3.8'
p229
sg52
S'4.7'
p230
sg54
S'.400'
p231
sg56
S'53'
p232
sg58
g11
sba(isrc.gp1.models.Per100Possession
Per100Possession
p233
(dp234
g8
S'2.7'
p235
sg10
S'0.3'
p236
sg12
S'.532'
p237
sg205
S'105'
p238
sg14
S'1.9'
p239
sg16
S'.000'
p240
sg17
S'0.0'
p241
sg18
S'18.4'
p242
sg20
S'SF'
p243
sg211
S'105'
p244
sg22
S'.723'
p245
sg26
S'NBA'
p246
sg28
S'2.2'
p247
sg29
S'12.2'
p248
sg31
S'9.7'
p249
sg33
S'7.5'
p250
sg35
S'8.4'
p251
sg36
S'23'
p252
sg38
S'CLE'
p253
sg40
S'41'
p254
sg42
S'1.9'
p255
sg44
S'6.5'
p256
sg45
S'5.4'
p257
sg46
S'11.9'
p258
sg48
S'5.7'
p259
sg49
S'1995-96'
p260
sg51
S'6.5'
p261
sg52
S'3.8'
p262
sg54
S'.547'
p263
sg56
S'367'
p264
sg58
g11
sba(isrc.gp1.models.Per100Possession
Per100Possession
p265
(dp266
g8
S'3.6'
p267
sg10
S'0.4'
p268
sg12
S'.420'
p269
sg205
S'90'
p270
sg14
S'2.3'
p271
sg16
S'.000'
p272
sg17
S'0.0'
p273
sg18
S'11.7'
p274
sg20
S'PF'
p275
sg211
S'101'
p276
sg22
S'.729'
p277
sg26
S'NBA'
p278
sg28
S'2.3'
p279
sg29
S'11.1'
p280
sg31
S'7.6'
p281
sg33
S'3.3'
p282
sg35
S'8.7'
p283
sg36
S'24'
p284
sg38
S'CLE'
p285
sg40
S'64'
p286
sg42
S'2.1'
p287
sg44
S'4.7'
p288
sg45
S'2.4'
p289
sg46
S'10.7'
p290
sg48
S'5.2'
p291
sg49
S'1996-97'
p292
sg51
S'4.7'
p293
sg52
S'3.4'
p294
sg54
S'.436'
p295
sg56
S'843'
p296
sg58
g15
sba(isrc.gp1.models.Per100Possession
Per100Possession
p297
(dp298
g8
S'3.8'
p299
sg10
S'0.0'
p300
sg12
S'.600'
p301
sg205
S'103'
p302
sg14
S'1.9'
p303
sg16
g3
sg17
S'0.0'
p304
sg18
S'22.6'
p305
sg20
S'SF'
p306
sg211
S'100'
p307
sg22
S'.750'
p308
sg26
S'NBA'
p309
sg28
S'3.8'
p310
sg29
S'9.4'
p311
sg31
S'5.6'
p312
sg33
S'15.1'
p313
sg35
S'9.4'
p314
sg36
S'25'
p315
sg38
S'MIA'
p316
sg40
g91
sg42
S'0.0'
p317
sg44
S'5.6'
p318
sg45
S'11.3'
p319
sg46
S'9.4'
p320
sg48
S'5.6'
p321
sg49
S'1997-98'
p322
sg51
S'5.6'
p323
sg52
S'7.5'
p324
sg54
S'.600'
p325
sg56
S'29'
p326
sg58
g11
sba(isrc.gp1.models.Per100Possession
Per100Possession
p327
(dp328
g8
S'5.1'
p329
sg10
S'0.0'
p330
sg12
S'.667'
p331
sg205
S'105'
p332
sg14
S'0.9'
p333
sg16
g3
sg17
S'0.0'
p334
sg18
S'11.1'
p335
sg20
S'PF'
p336
sg211
S'100'
p337
sg22
S'.556'
p338
sg26
S'NBA'
p339
sg28
S'1.7'
p340
sg29
S'5.1'
p341
sg31
S'11.1'
p342
sg33
S'7.7'
p343
sg35
S'13.7'
p344
sg36
S'26'
p345
sg38
S'CLE'
p346
sg40
S'10'
p347
sg42
S'0.9'
p348
sg44
S'3.4'
p349
sg45
S'4.3'
p350
sg46
S'5.1'
p351
sg48
S'8.5'
p352
sg49
S'1998-99'
p353
sg51
S'3.4'
p354
sg52
S'3.4'
p355
sg54
S'.667'
p356
sg56
S'65'
p357
sg58
g11
sba(isrc.gp1.models.Per100Possession
Per100Possession
p358
(dp359
g8
S'0.0'
p360
sg10
S'0.0'
p361
sg12
S'.167'
p362
sg205
S'71'
p363
sg14
S'2.7'
p364
sg16
g3
sg17
S'0.0'
p365
sg18
S'8.2'
p366
sg20
S'SF'
p367
sg211
S'96'
p368
sg22
S'.800'
p369
sg26
S'NBA'
p370
sg28
S'5.5'
p371
sg29
S'8.2'
p372
sg31
S'10.9'
p373
sg33
S'6.8'
p374
sg35
S'6.8'
p375
sg36
S'27'
p376
sg38
S'TOT'
p377
sg40
S'10'
p378
sg42
S'1.4'
p379
sg44
S'1.4'
p380
sg45
S'5.5'
p381
sg46
S'8.2'
p382
sg48
S'6.8'
p383
sg49
S'1999-00'
p384
sg51
S'1.4'
p385
sg52
S'2.7'
p386
sg54
S'.167'
p387
sg56
S'38'
p388
sg58
g11
sba(isrc.gp1.models.Per100Possession
Per100Possession
p389
(dp390
g8
S'0.0'
p391
sg10
S'0.0'
p392
sg12
S'.000'
p393
sg205
S'45'
p394
sg14
S'1.6'
p395
sg16
g3
sg17
S'0.0'
p396
sg18
S'4.9'
p397
sg20
S'SF'
p398
sg211
S'93'
p399
sg22
S'.750'
p400
sg26
S'NBA'
p401
sg28
S'6.5'
p402
sg29
S'8.1'
p403
sg31
S'11.4'
p404
sg33
S'6.5'
p405
sg35
S'8.1'
p406
sg36
S'27'
p407
sg38
S'TOR'
p408
sg40
g170
sg42
S'1.6'
p409
sg44
S'0.0'
p410
sg45
S'4.9'
p411
sg46
S'8.1'
p412
sg48
S'8.1'
p413
sg49
S'1999-00'
p414
sg51
S'0.0'
p415
sg52
S'3.2'
p416
sg54
S'.000'
p417
sg56
S'32'
p418
sg58
g11
sba(isrc.gp1.models.Per100Possession
Per100Possession
p419
(dp420
g8
S'0.0'
p421
sg10
S'0.0'
p422
sg12
S'1.000'
p423
sg205
S'216'
p424
sg14
S'8.6'
p425
sg16
g3
sg17
S'0.0'
p426
sg18
S'25.9'
p427
sg20
S'SF'
p428
sg211
S'110'
p429
sg22
S'1.000'
p430
sg26
S'NBA'
p431
sg28
S'0.0'
p432
sg29
S'8.6'
p433
sg31
S'8.6'
p434
sg33
S'8.6'
p435
sg35
S'0.0'
p436
sg36
S'27'
p437
sg38
S'PHI'
p438
sg40
g9
sg42
S'0.0'
p439
sg44
S'8.6'
p440
sg45
S'8.6'
p441
sg46
S'8.6'
p442
sg48
S'0.0'
p443
sg49
S'1999-00'
p444
sg51
S'8.6'
p445
sg52
S'0.0'
p446
sg54
S'1.000'
p447
sg56
g91
sg58
g11
sbasS'_advanced'
p448
(lp449
(isrc.gp1.models.Advanced
Advanced
p450
(dp451
S'_offensiveReboundPercentage'
p452
S'6.5'
p453
sS'_turnOverPercentage'
p454
S'29.8'
p455
sS'_winSharesPer48Minutes'
p456
S'-0.083'
p457
sS'_stealPercentage'
p458
S'0.0'
p459
sS'_usagePercentage'
p460
S'13.7'
p461
sS'_totalReboundsPercentage'
p462
S'4.3'
p463
sS'_defensiveBoxPlusMinus'
p464
S'-1.5'
p465
sg20
S'SF'
p466
sS'_valueOverReplacementPlayer'
p467
S'-0.1'
p468
sS'_trueShootingPercentage'
p469
S'.468'
p470
sS'_defensiveReboundPercentage'
p471
S'2.2'
p472
sS'_freeThrowsAttempRate'
p473
S'.400'
p474
sS'_threePointsAttempRate'
p475
S'.000'
p476
sg26
S'NBA'
p477
sS'_offensiveBoxPlusMinues'
p478
S'-7.0'
p479
sS'_assistPercentage'
p480
S'2.4'
p481
sS'_defensiveWinShares'
p482
S'0.0'
p483
sg36
S'22'
p484
sg38
S'PHO'
p485
sg40
S'12'
p486
sS'_blockPercentage'
p487
S'2.8'
p488
sS'_playerEfficiencyRating'
p489
S'0.3'
p490
sS'_offensiveWinShares'
p491
S'-0.1'
p492
sg56
S'53'
p493
sS'_boxPlusMinus'
p494
S'-8.5'
p495
sg49
S'1994-95'
p496
sS'_winShares'
p497
S'-0.1'
p498
sba(isrc.gp1.models.Advanced
Advanced
p499
(dp500
g452
S'6.1'
p501
sg454
S'19.7'
p502
sg456
S'.090'
p503
sg458
S'2.2'
p504
sg460
S'16.7'
p505
sg462
S'9.6'
p506
sg464
S'0.7'
p507
sg20
S'SF'
p508
sg467
S'-0.1'
p509
sg469
S'.594'
p510
sg471
S'13.3'
p511
sg473
S'.610'
p512
sg475
S'.026'
p513
sg26
S'NBA'
p514
sg478
S'-3.8'
p515
sg480
S'5.6'
p516
sg482
S'0.5'
p517
sg36
S'23'
p518
sg38
S'CLE'
p519
sg40
S'41'
p520
sg487
S'2.9'
p521
sg489
S'11.5'
p522
sg491
S'0.2'
p523
sg56
S'367'
p524
sg494
S'-3.1'
p525
sg49
S'1995-96'
p526
sg497
S'0.7'
p527
sba(isrc.gp1.models.Advanced
Advanced
p528
(dp529
g452
S'7.9'
p530
sg454
S'21.4'
p531
sg456
S'.048'
p532
sg458
S'2.3'
p533
sg460
S'13.8'
p534
sg462
S'9.8'
p535
sg464
S'2.8'
p536
sg20
S'PF'
p537
sg467
S'-0.1'
p538
sg469
S'.467'
p539
sg471
S'11.8'
p540
sg473
S'.296'
p541
sg475
S'.037'
p542
sg26
S'NBA'
p543
sg478
S'-5.1'
p544
sg480
S'6.5'
p545
sg482
S'1.4'
p546
sg36
S'24'
p547
sg38
S'CLE'
p548
sg40
S'64'
p549
sg487
S'3.2'
p550
sg489
S'8.0'
p551
sg491
S'-0.6'
p552
sg56
S'843'
p553
sg494
S'-2.3'
p554
sg49
S'1996-97'
p555
sg497
S'0.8'
p556
sba(isrc.gp1.models.Advanced
Advanced
p557
(dp558
g452
S'8.4'
p559
sg454
S'31.9'
p560
sg456
S'.122'
p561
sg458
S'3.8'
p562
sg460
S'20.1'
p563
sg462
S'10.1'
p564
sg464
S'0.7'
p565
sg20
S'SF'
p566
sg467
S'0.0'
p567
sg469
S'.704'
p568
sg471
S'11.8'
p569
sg473
S'1.600'
p570
sg475
S'.000'
p571
sg26
S'NBA'
p572
sg478
S'-2.4'
p573
sg480
S'5.6'
p574
sg482
S'0.0'
p575
sg36
S'25'
p576
sg38
S'MIA'
p577
sg40
g91
sg487
S'0.0'
p578
sg489
S'14.9'
p579
sg491
S'0.0'
p580
sg56
S'29'
p581
sg494
S'-1.7'
p582
sg49
S'1997-98'
p583
sg497
S'0.1'
p584
sba(isrc.gp1.models.Advanced
Advanced
p585
(dp586
g452
S'11.9'
p587
sg454
S'28.7'
p588
sg456
S'.100'
p589
sg458
S'1.7'
p590
sg460
S'10.5'
p591
sg462
S'15.7'
p592
sg464
S'-0.2'
p593
sg20
S'PF'
p594
sg467
S'0.0'
p595
sg469
S'.653'
p596
sg471
S'19.4'
p597
sg473
S'1.500'
p598
sg475
S'.000'
p599
sg26
S'NBA'
p600
sg478
S'-2.9'
p601
sg480
S'2.6'
p602
sg482
S'0.1'
p603
sg36
S'26'
p604
sg38
S'CLE'
p605
sg40
S'10'
p606
sg487
S'1.2'
p607
sg489
S'8.8'
p608
sg491
S'0.1'
p609
sg56
S'65'
p610
sg494
S'-3.1'
p611
sg49
S'1998-99'
p612
sg497
S'0.1'
p613
sba(isrc.gp1.models.Advanced
Advanced
p614
(dp615
g452
S'0.0'
p616
sg454
S'19.6'
p617
sg456
S'.014'
p618
sg458
S'5.5'
p619
sg460
S'11.9'
p620
sg462
S'7.4'
p621
sg464
S'2.7'
p622
sg20
S'SF'
p623
sg467
S'0.0'
p624
sg469
S'.366'
p625
sg471
S'15.2'
p626
sg473
S'.833'
p627
sg475
S'.000'
p628
sg26
S'NBA'
p629
sg478
S'-7.5'
p630
sg480
S'8.0'
p631
sg482
S'0.1'
p632
sg36
S'27'
p633
sg38
S'TOT'
p634
sg40
S'10'
p635
sg487
S'1.9'
p636
sg489
S'5.7'
p637
sg491
S'-0.1'
p638
sg56
S'38'
p639
sg494
S'-4.8'
p640
sg49
S'1999-00'
p641
sg497
S'0.0'
p642
sba(isrc.gp1.models.Advanced
Advanced
p643
(dp644
g452
S'0.0'
p645
sg454
S'22.8'
p646
sg456
S'-0.059'
p647
sg458
S'6.5'
p648
sg460
S'12.1'
p649
sg462
S'8.7'
p650
sg464
S'5.0'
p651
sg20
S'SF'
p652
sg467
S'0.0'
p653
sg469
S'.222'
p654
sg471
S'18.1'
p655
sg473
S'.800'
p656
sg475
S'.000'
p657
sg26
S'NBA'
p658
sg478
S'-9.9'
p659
sg480
S'4.1'
p660
sg482
S'0.1'
p661
sg36
S'27'
p662
sg38
S'TOR'
p663
sg40
g170
sg487
S'2.2'
p664
sg489
S'2.1'
p665
sg491
S'-0.1'
p666
sg56
S'32'
p667
sg494
S'-4.9'
p668
sg49
S'1999-00'
p669
sg497
S'0.0'
p670
sba(isrc.gp1.models.Advanced
Advanced
p671
(dp672
g452
S'0.0'
p673
sg454
S'0.0'
p674
sg456
S'.405'
p675
sg458
S'0.0'
p676
sg460
S'10.5'
p677
sg462
S'0.0'
p678
sg464
S'-9.5'
p679
sg20
S'SF'
p680
sg467
S'0.0'
p681
sg469
S'1.042'
p682
sg471
S'0.0'
p683
sg473
S'1.000'
p684
sg475
S'.000'
p685
sg26
S'NBA'
p686
sg478
S'4.9'
p687
sg480
S'28.3'
p688
sg482
S'0.0'
p689
sg36
S'27'
p690
sg38
S'PHI'
p691
sg40
g9
sg487
S'0.0'
p692
sg489
S'25.2'
p693
sg491
S'0.0'
p694
sg56
g91
sg494
S'-4.6'
p695
sg49
S'1999-00'
p696
sg497
S'0.1'
p697
sbasS'_per36Minutes'
p698
(lp699
(isrc.gp1.models.Per36Minutes
Per36Minutes
p700
(dp701
g8
S'2.0'
p702
sg10
S'0.0'
p703
sg12
S'.400'
p704
sg14
S'0.7'
p705
sg16
g3
sg17
S'0.0'
p706
sg18
S'7.5'
p707
sg20
S'SF'
p708
sg22
S'.750'
p709
sg26
S'NBA'
p710
sg28
S'0.0'
p711
sg29
S'6.8'
p712
sg31
S'7.5'
p713
sg33
S'2.7'
p714
sg35
S'2.7'
p715
sg36
S'22'
p716
sg38
S'PHO'
p717
sg40
S'12'
p718
sg42
S'1.4'
p719
sg44
S'2.7'
p720
sg45
S'2.0'
p721
sg46
S'6.8'
p722
sg48
S'0.7'
p723
sg49
S'1994-95'
p724
sg51
S'2.7'
p725
sg52
S'3.4'
p726
sg54
S'.400'
p727
sg56
S'53'
p728
sg58
g11
sba(isrc.gp1.models.Per36Minutes
Per36Minutes
p729
(dp730
g8
S'1.7'
p731
sg10
S'0.2'
p732
sg12
S'.532'
p733
sg14
S'1.2'
p734
sg16
S'.000'
p735
sg17
S'0.0'
p736
sg18
S'11.4'
p737
sg20
S'SF'
p738
sg22
S'.723'
p739
sg26
S'NBA'
p740
sg28
S'1.4'
p741
sg29
S'7.6'
p742
sg31
S'6.0'
p743
sg33
S'4.6'
p744
sg35
S'5.2'
p745
sg36
S'23'
p746
sg38
S'CLE'
p747
sg40
S'41'
p748
sg42
S'1.2'
p749
sg44
S'4.0'
p750
sg45
S'3.3'
p751
sg46
S'7.4'
p752
sg48
S'3.5'
p753
sg49
S'1995-96'
p754
sg51
S'4.0'
p755
sg52
S'2.4'
p756
sg54
S'.547'
p757
sg56
S'367'
p758
sg58
g11
sba(isrc.gp1.models.Per36Minutes
Per36Minutes
p759
(dp760
g8
S'2.2'
p761
sg10
S'0.3'
p762
sg12
S'.420'
p763
sg14
S'1.4'
p764
sg16
S'.000'
p765
sg17
S'0.0'
p766
sg18
S'7.3'
p767
sg20
S'PF'
p768
sg22
S'.729'
p769
sg26
S'NBA'
p770
sg28
S'1.4'
p771
sg29
S'6.9'
p772
sg31
S'4.7'
p773
sg33
S'2.0'
p774
sg35
S'5.4'
p775
sg36
S'24'
p776
sg38
S'CLE'
p777
sg40
S'64'
p778
sg42
S'1.3'
p779
sg44
S'2.9'
p780
sg45
S'1.5'
p781
sg46
S'6.7'
p782
sg48
S'3.2'
p783
sg49
S'1996-97'
p784
sg51
S'2.9'
p785
sg52
S'2.1'
p786
sg54
S'.436'
p787
sg56
S'843'
p788
sg58
g15
sba(isrc.gp1.models.Per36Minutes
Per36Minutes
p789
(dp790
g8
S'2.5'
p791
sg10
S'0.0'
p792
sg12
S'.600'
p793
sg14
S'1.2'
p794
sg16
g3
sg17
S'0.0'
p795
sg18
S'14.9'
p796
sg20
S'SF'
p797
sg22
S'.750'
p798
sg26
S'NBA'
p799
sg28
S'2.5'
p800
sg29
S'6.2'
p801
sg31
S'3.7'
p802
sg33
S'9.9'
p803
sg35
S'6.2'
p804
sg36
S'25'
p805
sg38
S'MIA'
p806
sg40
g91
sg42
S'0.0'
p807
sg44
S'3.7'
p808
sg45
S'7.4'
p809
sg46
S'6.2'
p810
sg48
S'3.7'
p811
sg49
S'1997-98'
p812
sg51
S'3.7'
p813
sg52
S'5.0'
p814
sg54
S'.600'
p815
sg56
S'29'
p816
sg58
g11
sba(isrc.gp1.models.Per36Minutes
Per36Minutes
p817
(dp818
g8
S'3.3'
p819
sg10
S'0.0'
p820
sg12
S'.667'
p821
sg14
S'0.6'
p822
sg16
g3
sg17
S'0.0'
p823
sg18
S'7.2'
p824
sg20
S'PF'
p825
sg22
S'.556'
p826
sg26
S'NBA'
p827
sg28
S'1.1'
p828
sg29
S'3.3'
p829
sg31
S'7.2'
p830
sg33
S'5.0'
p831
sg35
S'8.9'
p832
sg36
S'26'
p833
sg38
S'CLE'
p834
sg40
S'10'
p835
sg42
S'0.6'
p836
sg44
S'2.2'
p837
sg45
S'2.8'
p838
sg46
S'3.3'
p839
sg48
S'5.5'
p840
sg49
S'1998-99'
p841
sg51
S'2.2'
p842
sg52
S'2.2'
p843
sg54
S'.667'
p844
sg56
S'65'
p845
sg58
g11
sba(isrc.gp1.models.Per36Minutes
Per36Minutes
p846
(dp847
g8
S'0.0'
p848
sg10
S'0.0'
p849
sg12
S'.167'
p850
sg14
S'1.9'
p851
sg16
g3
sg17
S'0.0'
p852
sg18
S'5.7'
p853
sg20
S'SF'
p854
sg22
S'.800'
p855
sg26
S'NBA'
p856
sg28
S'3.8'
p857
sg29
S'5.7'
p858
sg31
S'7.6'
p859
sg33
S'4.7'
p860
sg35
S'4.7'
p861
sg36
S'27'
p862
sg38
S'TOT'
p863
sg40
S'10'
p864
sg42
S'0.9'
p865
sg44
S'0.9'
p866
sg45
S'3.8'
p867
sg46
S'5.7'
p868
sg48
S'4.7'
p869
sg49
S'1999-00'
p870
sg51
S'0.9'
p871
sg52
S'1.9'
p872
sg54
S'.167'
p873
sg56
S'38'
p874
sg58
g11
sba(isrc.gp1.models.Per36Minutes
Per36Minutes
p875
(dp876
g8
S'0.0'
p877
sg10
S'0.0'
p878
sg12
S'.000'
p879
sg14
S'1.1'
p880
sg16
g3
sg17
S'0.0'
p881
sg18
S'3.4'
p882
sg20
S'SF'
p883
sg22
S'.750'
p884
sg26
S'NBA'
p885
sg28
S'4.5'
p886
sg29
S'5.6'
p887
sg31
S'7.9'
p888
sg33
S'4.5'
p889
sg35
S'5.6'
p890
sg36
S'27'
p891
sg38
S'TOR'
p892
sg40
g170
sg42
S'1.1'
p893
sg44
S'0.0'
p894
sg45
S'3.4'
p895
sg46
S'5.6'
p896
sg48
S'5.6'
p897
sg49
S'1999-00'
p898
sg51
S'0.0'
p899
sg52
S'2.3'
p900
sg54
S'.000'
p901
sg56
S'32'
p902
sg58
g11
sba(isrc.gp1.models.Per36Minutes
Per36Minutes
p903
(dp904
g8
S'0.0'
p905
sg10
S'0.0'
p906
sg12
S'1.000'
p907
sg14
S'6.0'
p908
sg16
g3
sg17
S'0.0'
p909
sg18
S'18.0'
p910
sg20
S'SF'
p911
sg22
S'1.000'
p912
sg26
S'NBA'
p913
sg28
S'0.0'
p914
sg29
S'6.0'
p915
sg31
S'6.0'
p916
sg33
S'6.0'
p917
sg35
S'0.0'
p918
sg36
S'27'
p919
sg38
S'PHI'
p920
sg40
g9
sg42
S'0.0'
p921
sg44
S'6.0'
p922
sg45
S'6.0'
p923
sg46
S'6.0'
p924
sg48
S'0.0'
p925
sg49
S'1999-00'
p926
sg51
S'6.0'
p927
sg52
S'0.0'
p928
sg54
S'1.000'
p929
sg56
g91
sg58
g11
sbasS'_fromYear'
p930
S'1995'
p931
sS'_url'
p932
S'http://www.basketball-reference.com/players/l/langan02.html'
p933
sS'_perGame'
p934
(isrc.gp1.models.PerGame
PerGame
p935
(dp936
g8
S'0.0'
p937
sg10
S'0.0'
p938
sg12
S'1.000'
p939
sS'_effectiveFieldGalPercentage'
p940
S'1.000'
p941
sg14
S'0.3'
p942
sg16
g3
sg17
S'0.0'
p943
sg18
S'1.0'
p944
sg20
S'SF'
p945
sg22
S'1.000'
p946
sg26
S'NBA'
p947
sg28
S'0.0'
p948
sg31
S'0.3'
p949
sS'_fieldGoalsttempted'
p950
S'0.3'
p951
sg33
S'0.3'
p952
sg35
S'0.0'
p953
sg36
S'27'
p954
sg38
S'PHI'
p955
sg40
g9
sg42
S'0.0'
p956
sg44
S'0.3'
p957
sg45
S'0.3'
p958
sg46
S'0.3'
p959
sg48
S'0.0'
p960
sg49
S'1999-00'
p961
sg51
S'0.3'
p962
sg52
S'0.0'
p963
sg54
S'1.000'
p964
sg56
S'2.0'
p965
sg58
g11
sbsS'_weight'
p966
S'205'
p967
sS'_dob'
p968
S'15-5-1972'
p969
sS'_salary'
p970
(lp971
(isrc.gp1.models.Salary
Salary
p972
(dp973
g38
S'Phoenix Suns'
p974
sg26
S'NBA'
p975
sg970
S'$325,000'
p976
sg49
S'1994-95'
p977
sba(isrc.gp1.models.Salary
Salary
p978
(dp979
g38
S'Cleveland Cavaliers'
p980
sg26
S'NBA'
p981
sg970
S'$423,000'
p982
sg49
S'1995-96'
p983
sba(isrc.gp1.models.Salary
Salary
p984
(dp985
g38
S'Cleveland Cavaliers'
p986
sg26
S'NBA'
p987
sg970
S'$520,000'
p988
sg49
S'1996-97'
p989
sbasg20
S'F-G'
p990
sb.