(isrc.gp1.models.Player
Player
p0
(dp1
S'_experience'
p2
S'NA'
p3
sS'_totals'
p4
(lp5
(isrc.gp1.models.Totals
Totals
p6
(dp7
S'_offensiveRebounds'
p8
g3
sS'_threePointsAttempted'
p9
g3
sS'_fieldGoalsPercentage'
p10
S'.456'
p11
sS'_assist'
p12
S'99'
p13
sS'_threePointsPercentage'
p14
g3
sS'_threePoints'
p15
g3
sS'_points'
p16
S'569'
p17
sS'_position'
p18
S'SG'
p19
sS'_freeThrowsPercentage'
p20
S'.772'
p21
sS'_effectiveFieldGoalPercentage'
p22
S'.456'
p23
sS'_league'
p24
S'NBA'
p25
sS'_steals'
p26
g3
sS'_fieldGoalsAttempted'
p27
S'482'
p28
sS'_personalFouls'
p29
S'178'
p30
sS'_freeThrowsAttempted'
p31
S'167'
p32
sS'_totalRebounds'
p33
S'236'
p34
sS'_age'
p35
S'22'
p36
sS'_team'
p37
S'SDR'
p38
sS'_games'
p39
S'73'
p40
sS'_blocks'
p41
g3
sS'_twoPoints'
p42
S'220'
p43
sS'_freeThrows'
p44
S'129'
p45
sS'_twoPointsAttempted'
p46
S'482'
p47
sS'_defensiveRebounds'
p48
g3
sS'_season'
p49
S'1968-69'
p50
sS'_fieldGoals'
p51
S'220'
p52
sS'_turnOvers'
p53
g3
sS'_twoPointsPercentage'
p54
S'.456'
p55
sS'_minutesPlayed'
p56
S'1378'
p57
sS'_gamesStarted'
p58
g3
sba(isrc.gp1.models.Totals
Totals
p59
(dp60
g8
g3
sg9
g3
sg10
S'.443'
p61
sg12
S'287'
p62
sg14
g3
sg15
g3
sg16
S'1188'
p63
sg18
S'PG'
p64
sg20
S'.770'
p65
sg22
S'.443'
p66
sg24
S'NBA'
p67
sg26
g3
sg27
S'1027'
p68
sg29
S'238'
p69
sg31
S'361'
p70
sg33
S'255'
p71
sg35
S'23'
p72
sg37
S'SDR'
p73
sg39
S'82'
p74
sg41
g3
sg42
S'455'
p75
sg44
S'278'
p76
sg46
S'1027'
p77
sg48
g3
sg49
S'1969-70'
p78
sg51
S'455'
p79
sg53
g3
sg54
S'.443'
p80
sg56
S'2471'
p81
sg58
g3
sba(isrc.gp1.models.Totals
Totals
p82
(dp83
g8
g3
sg9
g3
sg10
S'.448'
p84
sg12
S'344'
p85
sg14
g3
sg15
g3
sg16
S'1689'
p86
sg18
S'SG'
p87
sg20
S'.806'
p88
sg22
S'.448'
p89
sg24
S'NBA'
p90
sg26
g3
sg27
S'1305'
p91
sg29
S'230'
p92
sg31
S'644'
p93
sg33
S'406'
p94
sg35
S'24'
p95
sg37
S'SDR'
p96
sg39
S'82'
p97
sg41
g3
sg42
S'585'
p98
sg44
S'519'
p99
sg46
S'1305'
p100
sg48
g3
sg49
S'1970-71'
p101
sg51
S'585'
p102
sg53
g3
sg54
S'.448'
p103
sg56
S'3102'
p104
sg58
g3
sba(isrc.gp1.models.Totals
Totals
p105
(dp106
g8
g3
sg9
g3
sg10
S'.435'
p107
sg12
S'337'
p108
sg14
g3
sg15
g3
sg16
S'1501'
p109
sg18
S'SG'
p110
sg20
S'.838'
p111
sg22
S'.435'
p112
sg24
S'NBA'
p113
sg26
g3
sg27
S'1279'
p114
sg29
S'211'
p115
sg31
S'462'
p116
sg33
S'345'
p117
sg35
S'25'
p118
sg37
S'HOU'
p119
sg39
S'81'
p120
sg41
g3
sg42
S'557'
p121
sg44
S'387'
p122
sg46
S'1279'
p123
sg48
g3
sg49
S'1971-72'
p124
sg51
S'557'
p125
sg53
g3
sg54
S'.435'
p126
sg56
S'3097'
p127
sg58
g3
sba(isrc.gp1.models.Totals
Totals
p128
(dp129
g8
g3
sg9
g3
sg10
S'.407'
p130
sg12
S'138'
p131
sg14
g3
sg15
g3
sg16
S'490'
p132
sg18
S'SG'
p133
sg20
S'.800'
p134
sg22
S'.407'
p135
sg24
S'NBA'
p136
sg26
g3
sg27
S'455'
p137
sg29
S'117'
p138
sg31
S'150'
p139
sg33
S'172'
p140
sg35
S'26'
p141
sg37
S'DET'
p142
sg39
S'51'
p143
sg41
g3
sg42
S'185'
p144
sg44
S'120'
p145
sg46
S'455'
p146
sg48
g3
sg49
S'1972-73'
p147
sg51
S'185'
p148
sg53
g3
sg54
S'.407'
p149
sg56
S'1603'
p150
sg58
g3
sba(isrc.gp1.models.Totals
Totals
p151
(dp152
g8
S'34'
p153
sg9
g3
sg10
S'.427'
p154
sg12
S'97'
p155
sg14
g3
sg15
g3
sg16
S'447'
p156
sg18
S'SG'
p157
sg20
S'.848'
p158
sg22
S'.427'
p159
sg24
S'NBA'
p160
sg26
S'38'
p161
sg27
S'361'
p162
sg29
S'79'
p163
sg31
S'164'
p164
sg33
S'113'
p165
sg35
S'27'
p166
sg37
S'DET'
p167
sg39
S'50'
p168
sg41
S'3'
p169
sg42
S'154'
p170
sg44
S'139'
p171
sg46
S'361'
p172
sg48
S'79'
p173
sg49
S'1973-74'
p174
sg51
S'154'
p175
sg53
g3
sg54
S'.427'
p176
sg56
S'980'
p177
sg58
g3
sba(isrc.gp1.models.Totals
Totals
p178
(dp179
g8
S'88'
p180
sg9
g3
sg10
S'.406'
p181
sg12
S'188'
p182
sg14
g3
sg15
g3
sg16
S'648'
p183
sg18
S'SG'
p184
sg20
S'.838'
p185
sg22
S'.406'
p186
sg24
S'NBA'
p187
sg26
S'56'
p188
sg27
S'561'
p189
sg29
S'162'
p190
sg31
S'229'
p191
sg33
S'194'
p192
sg35
S'28'
p193
sg37
S'TOT'
p194
sg39
S'75'
p195
sg41
S'12'
p196
sg42
S'228'
p197
sg44
S'192'
p198
sg46
S'561'
p199
sg48
S'106'
p200
sg49
S'1974-75'
p201
sg51
S'228'
p202
sg53
g3
sg54
S'.406'
p203
sg56
S'1783'
p204
sg58
g3
sba(isrc.gp1.models.Totals
Totals
p205
(dp206
g8
S'7'
p207
sg9
g3
sg10
S'.339'
p208
sg12
S'30'
p209
sg14
g3
sg15
g3
sg16
S'125'
p210
sg18
S'SG'
p211
sg20
S'.887'
p212
sg22
S'.339'
p213
sg24
S'NBA'
p214
sg26
S'12'
p215
sg27
S'115'
p216
sg29
S'28'
p217
sg31
S'53'
p218
sg33
S'24'
p219
sg35
S'28'
p220
sg37
S'NOJ'
p221
sg39
S'19'
p222
sg41
S'2'
p223
sg42
S'39'
p224
sg44
S'47'
p225
sg46
S'115'
p226
sg48
S'17'
p227
sg49
S'1974-75'
p228
sg51
S'39'
p229
sg53
g3
sg54
S'.339'
p230
sg56
S'353'
p231
sg58
g3
sba(isrc.gp1.models.Totals
Totals
p232
(dp233
g8
S'81'
p234
sg9
g3
sg10
S'.424'
p235
sg12
S'158'
p236
sg14
g3
sg15
g3
sg16
S'523'
p237
sg18
S'SG'
p238
sg20
S'.824'
p239
sg22
S'.424'
p240
sg24
S'NBA'
p241
sg26
S'44'
p242
sg27
S'446'
p243
sg29
S'134'
p244
sg31
S'176'
p245
sg33
S'170'
p246
sg35
S'28'
p247
sg37
S'LAL'
p248
sg39
S'56'
p249
sg41
S'10'
p250
sg42
S'189'
p251
sg44
S'145'
p252
sg46
S'446'
p253
sg48
S'89'
p254
sg49
S'1974-75'
p255
sg51
S'189'
p256
sg53
g3
sg54
S'.424'
p257
sg56
S'1430'
p258
sg58
g3
sba(isrc.gp1.models.Totals
Totals
p259
(dp260
g8
S'28'
p261
sg9
g3
sg10
S'.417'
p262
sg12
S'76'
p263
sg14
g3
sg15
g3
sg16
S'250'
p264
sg18
S'PG'
p265
sg20
S'.899'
p266
sg22
S'.417'
p267
sg24
S'NBA'
p268
sg26
S'27'
p269
sg27
S'204'
p270
sg29
S'105'
p271
sg31
S'89'
p272
sg33
S'99'
p273
sg35
S'29'
p274
sg37
S'LAL'
p275
sg39
S'53'
p276
sg41
g169
sg42
S'85'
p277
sg44
S'80'
p278
sg46
S'204'
p279
sg48
S'71'
p280
sg49
S'1975-76'
p281
sg51
S'85'
p282
sg53
g3
sg54
S'.417'
p283
sg56
S'853'
p284
sg58
g3
sbasS'_college'
p285
S'University of Nebraska'
p286
sS'_toYear'
p287
S'1976'
p288
sS'_height'
p289
S'6-3'
p290
sS'_active'
p291
I00
sS'_shootingHand'
p292
VRight
p293
sS'_name'
p294
S'Stu Lantz'
p295
sS'_per100Possessions'
p296
(lp297
(isrc.gp1.models.Per100Possession
Per100Possession
p298
(dp299
g8
S'1.6'
p300
sg9
g3
sg10
S'.427'
p301
sS'_offensiveRating'
p302
g3
sg12
S'4.5'
p303
sg14
g3
sg15
g3
sg16
S'20.6'
p304
sg18
S'SG'
p305
sS'_defensiveRating'
p306
S'97'
p307
sg20
S'.848'
p308
sg24
S'NBA'
p309
sg26
S'1.7'
p310
sg27
S'16.6'
p311
sg29
S'3.6'
p312
sg31
S'7.5'
p313
sg33
S'5.2'
p314
sg35
S'27'
p315
sg37
S'DET'
p316
sg39
S'50'
p317
sg41
S'0.1'
p318
sg42
S'7.1'
p319
sg44
S'6.4'
p320
sg46
S'16.6'
p321
sg48
S'3.6'
p322
sg49
S'1973-74'
p323
sg51
S'7.1'
p324
sg53
g3
sg54
S'.427'
p325
sg56
S'980'
p326
sg58
g3
sba(isrc.gp1.models.Per100Possession
Per100Possession
p327
(dp328
g8
S'2.2'
p329
sg9
g3
sg10
S'.406'
p330
sg302
g3
sg12
S'4.7'
p331
sg14
g3
sg15
g3
sg16
S'16.3'
p332
sg18
S'SG'
p333
sg306
S'103'
p334
sg20
S'.838'
p335
sg24
S'NBA'
p336
sg26
S'1.4'
p337
sg27
S'14.1'
p338
sg29
S'4.1'
p339
sg31
S'5.8'
p340
sg33
S'4.9'
p341
sg35
S'28'
p342
sg37
S'TOT'
p343
sg39
S'75'
p344
sg41
S'0.3'
p345
sg42
S'5.7'
p346
sg44
S'4.8'
p347
sg46
S'14.1'
p348
sg48
S'2.7'
p349
sg49
S'1974-75'
p350
sg51
S'5.7'
p351
sg53
g3
sg54
S'.406'
p352
sg56
S'1783'
p353
sg58
g3
sba(isrc.gp1.models.Per100Possession
Per100Possession
p354
(dp355
g8
S'0.9'
p356
sg9
g3
sg10
S'.339'
p357
sg302
g3
sg12
S'3.7'
p358
sg14
g3
sg15
g3
sg16
S'15.5'
p359
sg18
S'SG'
p360
sg306
S'103'
p361
sg20
S'.887'
p362
sg24
S'NBA'
p363
sg26
S'1.5'
p364
sg27
S'14.3'
p365
sg29
S'3.5'
p366
sg31
S'6.6'
p367
sg33
S'3.0'
p368
sg35
S'28'
p369
sg37
S'NOJ'
p370
sg39
S'19'
p371
sg41
S'0.2'
p372
sg42
S'4.8'
p373
sg44
S'5.8'
p374
sg46
S'14.3'
p375
sg48
S'2.1'
p376
sg49
S'1974-75'
p377
sg51
S'4.8'
p378
sg53
g3
sg54
S'.339'
p379
sg56
S'353'
p380
sg58
g3
sba(isrc.gp1.models.Per100Possession
Per100Possession
p381
(dp382
g8
S'2.6'
p383
sg9
g3
sg10
S'.424'
p384
sg302
g3
sg12
S'5.0'
p385
sg14
g3
sg15
g3
sg16
S'16.5'
p386
sg18
S'SG'
p387
sg306
S'104'
p388
sg20
S'.824'
p389
sg24
S'NBA'
p390
sg26
S'1.4'
p391
sg27
S'14.1'
p392
sg29
S'4.2'
p393
sg31
S'5.6'
p394
sg33
S'5.4'
p395
sg35
S'28'
p396
sg37
S'LAL'
p397
sg39
S'56'
p398
sg41
S'0.3'
p399
sg42
S'6.0'
p400
sg44
S'4.6'
p401
sg46
S'14.1'
p402
sg48
S'2.8'
p403
sg49
S'1974-75'
p404
sg51
S'6.0'
p405
sg53
g3
sg54
S'.424'
p406
sg56
S'1430'
p407
sg58
g3
sba(isrc.gp1.models.Per100Possession
Per100Possession
p408
(dp409
g8
S'1.5'
p410
sg9
g3
sg10
S'.417'
p411
sg302
g3
sg12
S'4.0'
p412
sg14
g3
sg15
g3
sg16
S'13.0'
p413
sg18
S'PG'
p414
sg306
S'102'
p415
sg20
S'.899'
p416
sg24
S'NBA'
p417
sg26
S'1.4'
p418
sg27
S'10.6'
p419
sg29
S'5.5'
p420
sg31
S'4.6'
p421
sg33
S'5.2'
p422
sg35
S'29'
p423
sg37
S'LAL'
p424
sg39
S'53'
p425
sg41
S'0.2'
p426
sg42
S'4.4'
p427
sg44
S'4.2'
p428
sg46
S'10.6'
p429
sg48
S'3.7'
p430
sg49
S'1975-76'
p431
sg51
S'4.4'
p432
sg53
g3
sg54
S'.417'
p433
sg56
S'853'
p434
sg58
g3
sbasS'_advanced'
p435
(lp436
(isrc.gp1.models.Advanced
Advanced
p437
(dp438
S'_offensiveReboundPercentage'
p439
g3
sS'_turnOverPercentage'
p440
g3
sS'_winSharesPer48Minutes'
p441
S'.118'
p442
sS'_stealPercentage'
p443
g3
sS'_usagePercentage'
p444
g3
sS'_totalReboundsPercentage'
p445
g3
sS'_defensiveBoxPlusMinus'
p446
g3
sg18
S'SG'
p447
sS'_valueOverReplacementPlayer'
p448
g3
sS'_trueShootingPercentage'
p449
S'.512'
p450
sS'_defensiveReboundPercentage'
p451
g3
sS'_freeThrowsAttempRate'
p452
S'.346'
p453
sS'_threePointsAttempRate'
p454
g3
sg24
S'NBA'
p455
sS'_offensiveBoxPlusMinues'
p456
g3
sS'_assistPercentage'
p457
S'9.3'
p458
sS'_defensiveWinShares'
p459
S'1.6'
p460
sg35
S'22'
p461
sg37
S'SDR'
p462
sg39
S'73'
p463
sS'_blockPercentage'
p464
g3
sS'_playerEfficiencyRating'
p465
S'11.9'
p466
sS'_offensiveWinShares'
p467
S'1.8'
p468
sg56
S'1378'
p469
sS'_boxPlusMinus'
p470
g3
sg49
S'1968-69'
p471
sS'_winShares'
p472
S'3.4'
p473
sba(isrc.gp1.models.Advanced
Advanced
p474
(dp475
g439
g3
sg440
g3
sg441
S'.091'
p476
sg443
g3
sg444
g3
sg445
g3
sg446
g3
sg18
S'PG'
p477
sg448
g3
sg449
S'.501'
p478
sg451
g3
sg452
S'.352'
p479
sg454
g3
sg24
S'NBA'
p480
sg456
g3
sg457
S'14.6'
p481
sg459
S'2.7'
p482
sg35
S'23'
p483
sg37
S'SDR'
p484
sg39
S'82'
p485
sg464
g3
sg465
S'12.9'
p486
sg467
S'1.9'
p487
sg56
S'2471'
p488
sg470
g3
sg49
S'1969-70'
p489
sg472
S'4.7'
p490
sba(isrc.gp1.models.Advanced
Advanced
p491
(dp492
g439
g3
sg440
g3
sg441
S'.162'
p493
sg443
g3
sg444
g3
sg445
S'5.7'
p494
sg446
g3
sg18
S'SG'
p495
sg448
g3
sg449
S'.532'
p496
sg451
g3
sg452
S'.493'
p497
sg454
g3
sg24
S'NBA'
p498
sg456
g3
sg457
S'15.6'
p499
sg459
S'4.2'
p500
sg35
S'24'
p501
sg37
S'SDR'
p502
sg39
S'82'
p503
sg464
g3
sg465
S'16.8'
p504
sg467
S'6.3'
p505
sg56
S'3102'
p506
sg470
g3
sg49
S'1970-71'
p507
sg472
S'10.5'
p508
sba(isrc.gp1.models.Advanced
Advanced
p509
(dp510
g439
g3
sg440
g3
sg441
S'.114'
p511
sg443
g3
sg444
g3
sg445
S'5.0'
p512
sg446
g3
sg18
S'SG'
p513
sg448
g3
sg449
S'.506'
p514
sg451
g3
sg452
S'.361'
p515
sg454
g3
sg24
S'NBA'
p516
sg456
g3
sg457
S'14.9'
p517
sg459
S'3.8'
p518
sg35
S'25'
p519
sg37
S'HOU'
p520
sg39
S'81'
p521
sg464
g3
sg465
S'15.0'
p522
sg467
S'3.6'
p523
sg56
S'3097'
p524
sg470
g3
sg49
S'1971-72'
p525
sg472
S'7.4'
p526
sba(isrc.gp1.models.Advanced
Advanced
p527
(dp528
g439
g3
sg440
g3
sg441
S'.041'
p529
sg443
g3
sg444
g3
sg445
S'5.2'
p530
sg446
g3
sg18
S'SG'
p531
sg448
g3
sg449
S'.470'
p532
sg451
g3
sg452
S'.330'
p533
sg454
g3
sg24
S'NBA'
p534
sg456
g3
sg457
S'10.6'
p535
sg459
S'1.0'
p536
sg35
S'26'
p537
sg37
S'DET'
p538
sg39
S'51'
p539
sg464
g3
sg465
S'9.3'
p540
sg467
S'0.4'
p541
sg56
S'1603'
p542
sg470
g3
sg49
S'1972-73'
p543
sg472
S'1.4'
p544
sba(isrc.gp1.models.Advanced
Advanced
p545
(dp546
g439
S'3.6'
p547
sg440
g3
sg441
S'.118'
p548
sg443
S'1.7'
p549
sg444
g3
sg445
S'5.9'
p550
sg446
S'-1.0'
p551
sg18
S'SG'
p552
sg448
S'0.1'
p553
sg449
S'.516'
p554
sg451
S'8.3'
p555
sg452
S'.454'
p556
sg454
g3
sg24
S'NBA'
p557
sg456
S'-0.7'
p558
sg457
S'13.8'
p559
sg459
S'1.2'
p560
sg35
S'27'
p561
sg37
S'DET'
p562
sg39
S'50'
p563
sg464
S'0.2'
p564
sg465
S'14.4'
p565
sg467
S'1.3'
p566
sg56
S'980'
p567
sg470
S'-1.6'
p568
sg49
S'1973-74'
p569
sg472
S'2.4'
p570
sba(isrc.gp1.models.Advanced
Advanced
p571
(dp572
g439
S'4.8'
p573
sg440
g3
sg441
S'.047'
p574
sg443
S'1.4'
p575
sg444
g3
sg445
S'5.2'
p576
sg446
S'-1.5'
p577
sg18
S'SG'
p578
sg448
S'-0.5'
p579
sg449
S'.490'
p580
sg451
S'5.7'
p581
sg452
S'.408'
p582
sg454
g3
sg24
S'NBA'
p583
sg456
S'-1.7'
p584
sg457
S'14.5'
p585
sg459
S'0.5'
p586
sg35
S'28'
p587
sg37
S'TOT'
p588
sg39
S'75'
p589
sg464
S'0.3'
p590
sg465
S'11.9'
p591
sg467
S'1.3'
p592
sg56
S'1783'
p593
sg470
S'-3.2'
p594
sg49
S'1974-75'
p595
sg472
S'1.7'
p596
sba(isrc.gp1.models.Advanced
Advanced
p597
(dp598
g439
S'1.9'
p599
sg440
g3
sg441
S'.011'
p600
sg443
S'1.5'
p601
sg444
g3
sg445
S'3.4'
p602
sg446
S'-2.1'
p603
sg18
S'SG'
p604
sg448
S'-0.4'
p605
sg449
S'.452'
p606
sg451
S'5.0'
p607
sg452
S'.461'
p608
sg454
g3
sg24
S'NBA'
p609
sg456
S'-4.3'
p610
sg457
S'11.7'
p611
sg459
S'0.1'
p612
sg35
S'28'
p613
sg37
S'NOJ'
p614
sg39
S'19'
p615
sg464
S'0.3'
p616
sg465
S'9.7'
p617
sg467
S'-0.1'
p618
sg56
S'353'
p619
sg470
S'-6.3'
p620
sg49
S'1974-75'
p621
sg472
S'0.1'
p622
sba(isrc.gp1.models.Advanced
Advanced
p623
(dp624
g439
S'5.5'
p625
sg440
g3
sg441
S'.056'
p626
sg443
S'1.4'
p627
sg444
g3
sg445
S'5.7'
p628
sg446
S'-1.4'
p629
sg18
S'SG'
p630
sg448
S'-0.2'
p631
sg449
S'.500'
p632
sg451
S'5.9'
p633
sg452
S'.395'
p634
sg454
g3
sg24
S'NBA'
p635
sg456
S'-1.1'
p636
sg457
S'15.2'
p637
sg459
S'0.3'
p638
sg35
S'28'
p639
sg37
S'LAL'
p640
sg39
S'56'
p641
sg464
S'0.4'
p642
sg465
S'12.4'
p643
sg467
S'1.3'
p644
sg56
S'1430'
p645
sg470
S'-2.4'
p646
sg49
S'1974-75'
p647
sg472
S'1.7'
p648
sba(isrc.gp1.models.Advanced
Advanced
p649
(dp650
g439
S'3.3'
p651
sg440
g3
sg441
S'.059'
p652
sg443
S'1.4'
p653
sg444
g3
sg445
S'5.6'
p654
sg446
S'-1.0'
p655
sg18
S'PG'
p656
sg448
S'-0.4'
p657
sg449
S'.514'
p658
sg451
S'7.7'
p659
sg452
S'.436'
p660
sg454
g3
sg24
S'NBA'
p661
sg456
S'-2.7'
p662
sg457
S'11.1'
p663
sg459
S'0.5'
p664
sg35
S'29'
p665
sg37
S'LAL'
p666
sg39
S'53'
p667
sg464
S'0.2'
p668
sg465
S'9.8'
p669
sg467
S'0.6'
p670
sg56
S'853'
p671
sg470
S'-3.8'
p672
sg49
S'1975-76'
p673
sg472
S'1.0'
p674
sbasS'_per36Minutes'
p675
(lp676
(isrc.gp1.models.Per36Minutes
Per36Minutes
p677
(dp678
g8
g3
sg9
g3
sg10
S'.456'
p679
sg12
S'2.6'
p680
sg14
g3
sg15
g3
sg16
S'14.9'
p681
sg18
S'SG'
p682
sg20
S'.772'
p683
sg24
S'NBA'
p684
sg26
g3
sg27
S'12.6'
p685
sg29
S'4.7'
p686
sg31
S'4.4'
p687
sg33
S'6.2'
p688
sg35
S'22'
p689
sg37
S'SDR'
p690
sg39
S'73'
p691
sg41
g3
sg42
S'5.7'
p692
sg44
S'3.4'
p693
sg46
S'12.6'
p694
sg48
g3
sg49
S'1968-69'
p695
sg51
S'5.7'
p696
sg53
g3
sg54
S'.456'
p697
sg56
S'1378'
p698
sg58
g3
sba(isrc.gp1.models.Per36Minutes
Per36Minutes
p699
(dp700
g8
g3
sg9
g3
sg10
S'.443'
p701
sg12
S'4.2'
p702
sg14
g3
sg15
g3
sg16
S'17.3'
p703
sg18
S'PG'
p704
sg20
S'.770'
p705
sg24
S'NBA'
p706
sg26
g3
sg27
S'15.0'
p707
sg29
S'3.5'
p708
sg31
S'5.3'
p709
sg33
S'3.7'
p710
sg35
S'23'
p711
sg37
S'SDR'
p712
sg39
S'82'
p713
sg41
g3
sg42
S'6.6'
p714
sg44
S'4.1'
p715
sg46
S'15.0'
p716
sg48
g3
sg49
S'1969-70'
p717
sg51
S'6.6'
p718
sg53
g3
sg54
S'.443'
p719
sg56
S'2471'
p720
sg58
g3
sba(isrc.gp1.models.Per36Minutes
Per36Minutes
p721
(dp722
g8
g3
sg9
g3
sg10
S'.448'
p723
sg12
S'4.0'
p724
sg14
g3
sg15
g3
sg16
S'19.6'
p725
sg18
S'SG'
p726
sg20
S'.806'
p727
sg24
S'NBA'
p728
sg26
g3
sg27
S'15.1'
p729
sg29
S'2.7'
p730
sg31
S'7.5'
p731
sg33
S'4.7'
p732
sg35
S'24'
p733
sg37
S'SDR'
p734
sg39
S'82'
p735
sg41
g3
sg42
S'6.8'
p736
sg44
S'6.0'
p737
sg46
S'15.1'
p738
sg48
g3
sg49
S'1970-71'
p739
sg51
S'6.8'
p740
sg53
g3
sg54
S'.448'
p741
sg56
S'3102'
p742
sg58
g3
sba(isrc.gp1.models.Per36Minutes
Per36Minutes
p743
(dp744
g8
g3
sg9
g3
sg10
S'.435'
p745
sg12
S'3.9'
p746
sg14
g3
sg15
g3
sg16
S'17.4'
p747
sg18
S'SG'
p748
sg20
S'.838'
p749
sg24
S'NBA'
p750
sg26
g3
sg27
S'14.9'
p751
sg29
S'2.5'
p752
sg31
S'5.4'
p753
sg33
S'4.0'
p754
sg35
S'25'
p755
sg37
S'HOU'
p756
sg39
S'81'
p757
sg41
g3
sg42
S'6.5'
p758
sg44
S'4.5'
p759
sg46
S'14.9'
p760
sg48
g3
sg49
S'1971-72'
p761
sg51
S'6.5'
p762
sg53
g3
sg54
S'.435'
p763
sg56
S'3097'
p764
sg58
g3
sba(isrc.gp1.models.Per36Minutes
Per36Minutes
p765
(dp766
g8
g3
sg9
g3
sg10
S'.407'
p767
sg12
S'3.1'
p768
sg14
g3
sg15
g3
sg16
S'11.0'
p769
sg18
S'SG'
p770
sg20
S'.800'
p771
sg24
S'NBA'
p772
sg26
g3
sg27
S'10.2'
p773
sg29
S'2.6'
p774
sg31
S'3.4'
p775
sg33
S'3.9'
p776
sg35
S'26'
p777
sg37
S'DET'
p778
sg39
S'51'
p779
sg41
g3
sg42
S'4.2'
p780
sg44
S'2.7'
p781
sg46
S'10.2'
p782
sg48
g3
sg49
S'1972-73'
p783
sg51
S'4.2'
p784
sg53
g3
sg54
S'.407'
p785
sg56
S'1603'
p786
sg58
g3
sba(isrc.gp1.models.Per36Minutes
Per36Minutes
p787
(dp788
g8
S'1.2'
p789
sg9
g3
sg10
S'.427'
p790
sg12
S'3.6'
p791
sg14
g3
sg15
g3
sg16
S'16.4'
p792
sg18
S'SG'
p793
sg20
S'.848'
p794
sg24
S'NBA'
p795
sg26
S'1.4'
p796
sg27
S'13.3'
p797
sg29
S'2.9'
p798
sg31
S'6.0'
p799
sg33
S'4.2'
p800
sg35
S'27'
p801
sg37
S'DET'
p802
sg39
S'50'
p803
sg41
S'0.1'
p804
sg42
S'5.7'
p805
sg44
S'5.1'
p806
sg46
S'13.3'
p807
sg48
S'2.9'
p808
sg49
S'1973-74'
p809
sg51
S'5.7'
p810
sg53
g3
sg54
S'.427'
p811
sg56
S'980'
p812
sg58
g3
sba(isrc.gp1.models.Per36Minutes
Per36Minutes
p813
(dp814
g8
S'1.8'
p815
sg9
g3
sg10
S'.406'
p816
sg12
S'3.8'
p817
sg14
g3
sg15
g3
sg16
S'13.1'
p818
sg18
S'SG'
p819
sg20
S'.838'
p820
sg24
S'NBA'
p821
sg26
S'1.1'
p822
sg27
S'11.3'
p823
sg29
S'3.3'
p824
sg31
S'4.6'
p825
sg33
S'3.9'
p826
sg35
S'28'
p827
sg37
S'TOT'
p828
sg39
S'75'
p829
sg41
S'0.2'
p830
sg42
S'4.6'
p831
sg44
S'3.9'
p832
sg46
S'11.3'
p833
sg48
S'2.1'
p834
sg49
S'1974-75'
p835
sg51
S'4.6'
p836
sg53
g3
sg54
S'.406'
p837
sg56
S'1783'
p838
sg58
g3
sba(isrc.gp1.models.Per36Minutes
Per36Minutes
p839
(dp840
g8
S'0.7'
p841
sg9
g3
sg10
S'.339'
p842
sg12
S'3.1'
p843
sg14
g3
sg15
g3
sg16
S'12.7'
p844
sg18
S'SG'
p845
sg20
S'.887'
p846
sg24
S'NBA'
p847
sg26
S'1.2'
p848
sg27
S'11.7'
p849
sg29
S'2.9'
p850
sg31
S'5.4'
p851
sg33
S'2.4'
p852
sg35
S'28'
p853
sg37
S'NOJ'
p854
sg39
S'19'
p855
sg41
S'0.2'
p856
sg42
S'4.0'
p857
sg44
S'4.8'
p858
sg46
S'11.7'
p859
sg48
S'1.7'
p860
sg49
S'1974-75'
p861
sg51
S'4.0'
p862
sg53
g3
sg54
S'.339'
p863
sg56
S'353'
p864
sg58
g3
sba(isrc.gp1.models.Per36Minutes
Per36Minutes
p865
(dp866
g8
S'2.0'
p867
sg9
g3
sg10
S'.424'
p868
sg12
S'4.0'
p869
sg14
g3
sg15
g3
sg16
S'13.2'
p870
sg18
S'SG'
p871
sg20
S'.824'
p872
sg24
S'NBA'
p873
sg26
S'1.1'
p874
sg27
S'11.2'
p875
sg29
S'3.4'
p876
sg31
S'4.4'
p877
sg33
S'4.3'
p878
sg35
S'28'
p879
sg37
S'LAL'
p880
sg39
S'56'
p881
sg41
S'0.3'
p882
sg42
S'4.8'
p883
sg44
S'3.7'
p884
sg46
S'11.2'
p885
sg48
S'2.2'
p886
sg49
S'1974-75'
p887
sg51
S'4.8'
p888
sg53
g3
sg54
S'.424'
p889
sg56
S'1430'
p890
sg58
g3
sba(isrc.gp1.models.Per36Minutes
Per36Minutes
p891
(dp892
g8
S'1.2'
p893
sg9
g3
sg10
S'.417'
p894
sg12
S'3.2'
p895
sg14
g3
sg15
g3
sg16
S'10.6'
p896
sg18
S'PG'
p897
sg20
S'.899'
p898
sg24
S'NBA'
p899
sg26
S'1.1'
p900
sg27
S'8.6'
p901
sg29
S'4.4'
p902
sg31
S'3.8'
p903
sg33
S'4.2'
p904
sg35
S'29'
p905
sg37
S'LAL'
p906
sg39
S'53'
p907
sg41
S'0.1'
p908
sg42
S'3.6'
p909
sg44
S'3.4'
p910
sg46
S'8.6'
p911
sg48
S'3.0'
p912
sg49
S'1975-76'
p913
sg51
S'3.6'
p914
sg53
g3
sg54
S'.417'
p915
sg56
S'853'
p916
sg58
g3
sbasS'_fromYear'
p917
S'1969'
p918
sS'_url'
p919
S'http://www.basketball-reference.com/players/l/lantzst01.html'
p920
sS'_perGame'
p921
(isrc.gp1.models.PerGame
PerGame
p922
(dp923
g8
S'0.5'
p924
sg9
g3
sg10
S'.417'
p925
sS'_effectiveFieldGalPercentage'
p926
S'.417'
p927
sg12
S'1.4'
p928
sg14
g3
sg15
g3
sg16
S'4.7'
p929
sg18
S'PG'
p930
sg20
S'.899'
p931
sg24
S'NBA'
p932
sg26
S'0.5'
p933
sg29
S'2.0'
p934
sS'_fieldGoalsttempted'
p935
S'3.8'
p936
sg31
S'1.7'
p937
sg33
S'1.9'
p938
sg35
S'29'
p939
sg37
S'LAL'
p940
sg39
S'53'
p941
sg41
S'0.1'
p942
sg42
S'1.6'
p943
sg44
S'1.5'
p944
sg46
S'3.8'
p945
sg48
S'1.3'
p946
sg49
S'1975-76'
p947
sg51
S'1.6'
p948
sg53
g3
sg54
S'.417'
p949
sg56
S'16.1'
p950
sg58
g3
sbsS'_weight'
p951
S'175'
p952
sS'_dob'
p953
S'13-7-1946'
p954
sS'_salary'
p955
(lp956
sg18
S'G'
p957
sb.