(isrc.gp1.models.Player
Player
p0
(dp1
S'_experience'
p2
S'NA'
p3
sS'_totals'
p4
(lp5
(isrc.gp1.models.Totals
Totals
p6
(dp7
S'_offensiveRebounds'
p8
S'403'
p9
sS'_threePointsAttempted'
p10
S'.302'
p11
sS'_fieldGoalsPercentage'
p12
S'42'
p13
sS'_assist'
p14
S'182'
p15
sS'_threePointsPercentage'
p16
S'431'
p17
sS'_threePoints'
p18
S'139'
p19
sS'_points'
p20
g3
sS'_position'
p21
S'SG'
p22
sS'_freeThrowsPercentage'
p23
S'196'
p24
sS'_effectiveFieldGoalPercentage'
p25
S'340'
p26
sS'_league'
p27
S'ABA'
p28
sS'_steals'
p29
S'193'
p30
sS'_fieldGoalsAttempted'
p31
S'.407'
p32
sS'_personalFouls'
p33
g3
sS'_freeThrowsAttempted'
p34
S'.716'
p35
sS'_totalRebounds'
p36
S'177'
p37
sS'_age'
p38
S'22'
p39
sS'_team'
p40
S'LAS'
p41
sS'_games'
p42
S'78'
p43
sS'_blocks'
p44
S'1328'
p45
sS'_twoPoints'
p46
S'1023'
p47
sS'_freeThrows'
p48
S'475'
p49
sS'_twoPointsAttempted'
p50
S'.421'
p51
sS'_defensiveRebounds'
p52
S'599'
p53
sS'_season'
p54
S'1968-69'
p55
sS'_fieldGoals'
p56
S'1162'
p57
sS'_turnOvers'
p58
g3
sS'_twoPointsPercentage'
p59
S'.425'
p60
sS'_minutesPlayed'
p61
S'473'
p62
sS'_gamesStarted'
p63
S'2871'
p64
sba(isrc.gp1.models.Totals
Totals
p65
(dp66
g8
S'282'
p67
sg10
S'.203'
p68
sg12
S'15'
p69
sg14
S'147'
p70
sg16
S'302'
p71
sg18
S'74'
p72
sg20
g3
sg21
S'SG'
p73
sg23
S'132'
p74
sg25
S'223'
p75
sg27
S'ABA'
p76
sg29
S'173'
p77
sg31
S'.418'
p78
sg33
g3
sg34
S'.674'
p79
sg36
S'147'
p80
sg38
S'23'
p81
sg40
S'TOT'
p82
sg42
S'80'
p83
sg44
S'872'
p84
sg46
S'684'
p85
sg48
S'331'
p86
sg50
S'.442'
p87
sg52
S'414'
p88
sg54
S'1969-70'
p89
sg56
S'758'
p90
sg58
g3
sg59
S'.428'
p91
sg61
S'317'
p92
sg63
S'2037'
p93
sba(isrc.gp1.models.Totals
Totals
p94
(dp95
g8
S'104'
p96
sg10
S'.237'
p97
sg12
S'9'
p98
sg14
S'64'
p99
sg16
S'85'
p100
sg18
S'38'
p101
sg20
g3
sg21
S'SG'
p102
sg23
S'43'
p103
sg25
S'96'
p104
sg27
S'ABA'
p105
sg29
S'56'
p106
sg31
S'.379'
p107
sg33
g3
sg34
S'.716'
p108
sg36
S'47'
p109
sg38
S'23'
p110
sg40
S'LAS'
p111
sg42
S'21'
p112
sg44
S'293'
p113
sg46
S'210'
p114
sg48
S'134'
p115
sg50
S'.405'
p116
sg52
S'147'
p117
sg54
S'1969-70'
p118
sg56
S'248'
p119
sg58
g3
sg59
S'.397'
p120
sg61
S'94'
p121
sg63
S'654'
p122
sba(isrc.gp1.models.Totals
Totals
p123
(dp124
g8
S'178'
p125
sg10
S'.167'
p126
sg12
S'6'
p127
sg14
S'83'
p128
sg16
S'217'
p129
sg18
S'36'
p130
sg20
g3
sg21
S'SG'
p131
sg23
S'89'
p132
sg25
S'127'
p133
sg27
S'ABA'
p134
sg29
S'117'
p135
sg31
S'.437'
p136
sg33
g3
sg34
S'.645'
p137
sg36
S'100'
p138
sg38
S'23'
p139
sg40
S'CAR'
p140
sg42
S'59'
p141
sg44
S'579'
p142
sg46
S'474'
p143
sg48
S'197'
p144
sg50
S'.458'
p145
sg52
S'267'
p146
sg54
S'1969-70'
p147
sg56
S'510'
p148
sg58
g3
sg59
S'.443'
p149
sg61
S'223'
p150
sg63
S'1383'
p151
sba(isrc.gp1.models.Totals
Totals
p152
(dp153
g8
S'286'
p154
sg10
S'.213'
p155
sg12
S'13'
p156
sg14
S'130'
p157
sg16
S'351'
p158
sg18
S'61'
p159
sg20
g3
sg21
S'SG'
p160
sg23
S'171'
p161
sg25
S'197'
p162
sg27
S'ABA'
p163
sg29
S'181'
p164
sg31
S'.458'
p165
sg33
g3
sg34
S'.724'
p166
sg36
S'167'
p167
sg38
S'24'
p168
sg40
S'CAR'
p169
sg42
S'77'
p170
sg44
S'938'
p171
sg46
S'734'
p172
sg48
S'272'
p173
sg50
S'.478'
p174
sg52
S'457'
p175
sg54
S'1970-71'
p176
sg56
S'795'
p177
sg58
g3
sg59
S'.466'
p178
sg61
S'364'
p179
sg63
S'2140'
p180
sba(isrc.gp1.models.Totals
Totals
p181
(dp182
g8
S'222'
p183
sg10
S'.255'
p184
sg12
S'12'
p185
sg14
S'191'
p186
sg16
S'550'
p187
sg18
S'47'
p188
sg20
g3
sg21
S'SG'
p189
sg23
S'177'
p190
sg25
S'393'
p191
sg27
S'ABA'
p192
sg29
S'232'
p193
sg31
S'.458'
p194
sg33
g3
sg34
S'.791'
p195
sg36
S'235'
p196
sg38
S'25'
p197
sg40
S'CAR'
p198
sg42
S'83'
p199
sg44
S'1529'
p200
sg46
S'1181'
p201
sg48
S'497'
p202
sg50
S'.466'
p203
sg52
S'399'
p204
sg54
S'1971-72'
p205
sg56
S'1228'
p206
sg58
g3
sg59
S'.463'
p207
sg61
S'562'
p208
sg63
S'3199'
p209
sba(isrc.gp1.models.Totals
Totals
p210
(dp211
g8
S'184'
p212
sg10
S'.000'
p213
sg12
S'0'
p214
sg14
S'168'
p215
sg16
S'450'
p216
sg18
S'7'
p217
sg20
g3
sg21
S'SG'
p218
sg23
S'171'
p219
sg25
S'306'
p220
sg27
S'ABA'
p221
sg29
S'174'
p222
sg31
S'.417'
p223
sg33
g3
sg34
S'.725'
p224
sg36
S'281'
p225
sg38
S'26'
p226
sg40
S'SDA'
p227
sg42
S'83'
p228
sg44
S'1206'
p229
sg46
S'1073'
p230
sg48
S'422'
p231
sg50
S'.419'
p232
sg52
S'355'
p233
sg54
S'1972-73'
p234
sg56
S'1080'
p235
sg58
g3
sg59
S'.417'
p236
sg61
S'450'
p237
sg63
S'2700'
p238
sba(isrc.gp1.models.Totals
Totals
p239
(dp240
g8
S'122'
p241
sg10
S'.000'
p242
sg12
g214
sg14
S'56'
p243
sg16
S'281'
p244
sg18
S'3'
p245
sg20
g3
sg21
S'SG'
p246
sg23
S'87'
p247
sg25
S'151'
p248
sg27
S'ABA'
p249
sg29
g127
sg31
S'.440'
p250
sg33
S'713'
p251
sg34
S'.662'
p252
sg36
S'144'
p253
sg38
S'27'
p254
sg40
S'TOT'
p255
sg42
S'80'
p256
sg44
S'120'
p257
sg46
S'635'
p258
sg48
S'228'
p259
sg50
S'.443'
p260
sg52
S'209'
p261
sg54
S'1973-74'
p262
sg56
S'638'
p263
sg58
S'138'
p264
sg59
S'.440'
p265
sg61
S'281'
p266
sg63
S'1968'
p267
sba(isrc.gp1.models.Totals
Totals
p268
(dp269
g8
g98
sg10
S'5'
p270
sg12
g214
sg14
g214
sg16
S'13'
p271
sg18
g214
sg20
g3
sg21
S'SG'
p272
sg23
g127
sg25
S'10'
p273
sg27
S'ABA'
p274
sg29
g270
sg31
S'.385'
p275
sg33
g3
sg34
g245
sg36
g270
sg38
S'27'
p276
sg40
S'SDA'
p277
sg42
g217
sg44
g270
sg46
S'.385'
p278
sg48
S'.700'
p279
sg50
S'.385'
p280
sg52
S'8'
p281
sg54
S'1973-74'
p282
sg56
S'13'
p283
sg58
S'17'
p284
sg59
g217
sg61
g270
sg63
S'68'
p285
sba(isrc.gp1.models.Totals
Totals
p286
(dp287
g8
S'116'
p288
sg10
S'.000'
p289
sg12
g214
sg14
S'51'
p290
sg16
S'276'
p291
sg18
g245
sg20
g3
sg21
S'SG'
p292
sg23
S'84'
p293
sg25
S'144'
p294
sg27
S'ABA'
p295
sg29
g127
sg31
S'.442'
p296
sg33
S'696'
p297
sg34
S'.661'
p298
sg36
S'136'
p299
sg38
S'27'
p300
sg40
S'VIR'
p301
sg42
S'73'
p302
sg44
S'115'
p303
sg46
S'622'
p304
sg48
S'218'
p305
sg50
S'.444'
p306
sg52
S'200'
p307
sg54
S'1973-74'
p308
sg56
S'625'
p309
sg58
S'133'
p310
sg59
S'.442'
p311
sg61
S'276'
p312
sg63
S'1900'
p313
sba(isrc.gp1.models.Totals
Totals
p314
(dp315
g8
S'1'
p316
sg10
g245
sg12
g214
sg14
g214
sg16
g98
sg18
g214
sg20
g3
sg21
S'SG'
p317
sg23
g214
sg25
g245
sg27
S'ABA'
p318
sg29
S'2'
p319
sg31
S'.333'
p320
sg33
g3
sg34
g316
sg36
g316
sg38
S'28'
p321
sg40
S'UTS'
p322
sg42
g270
sg44
g214
sg46
S'.333'
p323
sg48
S'1.000'
p324
sg50
S'.333'
p325
sg52
S'4'
p326
sg54
S'1974-75'
p327
sg56
g98
sg58
g98
sg59
g245
sg61
g245
sg63
S'26'
p328
sbasS'_college'
p329
S'University of North Carolina'
p330
sS'_toYear'
p331
S'1975'
p332
sS'_height'
p333
S'6-4'
p334
sS'_active'
p335
I00
sS'_shootingHand'
p336
VRight
p337
sS'_name'
p338
S'Larry Miller'
p339
sS'_per100Possessions'
p340
(lp341
(isrc.gp1.models.Per100Possession
Per100Possession
p342
(dp343
g8
S'2.8'
p344
sg10
S'.000'
p345
sg12
S'0.0'
p346
sS'_offensiveRating'
p347
S'109'
p348
sg14
S'1.3'
p349
sg16
S'6.5'
p350
sg18
S'0.1'
p351
sg20
S'99'
p352
sg21
S'SG'
p353
sS'_defensiveRating'
p354
g3
sg23
S'2.0'
p355
sg27
S'ABA'
p356
sg29
S'0.1'
p357
sg31
S'.440'
p358
sg33
S'16.6'
p359
sg34
S'.662'
p360
sg36
S'3.3'
p361
sg38
S'27'
p362
sg40
S'TOT'
p363
sg42
S'80'
p364
sg44
S'2.8'
p365
sg46
S'14.7'
p366
sg48
S'5.3'
p367
sg50
S'.443'
p368
sg52
S'4.9'
p369
sg54
S'1973-74'
p370
sg56
S'14.8'
p371
sg58
S'3.2'
p372
sg59
S'3.5'
p373
sg61
S'6.5'
p374
sg63
S'1968'
p375
sba(isrc.gp1.models.Per100Possession
Per100Possession
p376
(dp377
g8
S'5.8'
p378
sg10
S'3.2'
p379
sg12
S'0.0'
p380
sg347
g3
sg14
S'0.0'
p381
sg16
S'8.4'
p382
sg18
S'0.0'
p383
sg20
S'105'
p384
sg21
S'SG'
p385
sg354
g3
sg23
S'3.9'
p386
sg27
S'ABA'
p387
sg29
S'3.2'
p388
sg31
S'.385'
p389
sg33
S'96'
p390
sg34
S'1.9'
p391
sg36
S'3.2'
p392
sg38
S'27'
p393
sg40
S'SDA'
p394
sg42
g217
sg44
S'3.2'
p395
sg46
S'.385'
p396
sg48
S'.700'
p397
sg50
S'4.5'
p398
sg52
S'5.2'
p399
sg54
S'1973-74'
p400
sg56
S'8.4'
p401
sg58
S'11.0'
p402
sg59
S'6.5'
p403
sg61
S'3.2'
p404
sg63
S'68'
p405
sba(isrc.gp1.models.Per100Possession
Per100Possession
p406
(dp407
g8
S'2.8'
p408
sg10
S'.000'
p409
sg12
S'0.0'
p410
sg347
S'109'
p411
sg14
S'1.2'
p412
sg16
S'6.6'
p413
sg18
S'0.1'
p414
sg20
S'99'
p415
sg21
S'SG'
p416
sg354
g3
sg23
S'2.0'
p417
sg27
S'ABA'
p418
sg29
S'0.1'
p419
sg31
S'.442'
p420
sg33
S'16.8'
p421
sg34
S'.661'
p422
sg36
S'3.3'
p423
sg38
S'27'
p424
sg40
S'VIR'
p425
sg42
S'73'
p426
sg44
S'2.8'
p427
sg46
S'15.0'
p428
sg48
S'5.3'
p429
sg50
S'.444'
p430
sg52
S'4.8'
p431
sg54
S'1973-74'
p432
sg56
S'15.1'
p433
sg58
S'3.2'
p434
sg59
S'3.5'
p435
sg61
S'6.6'
p436
sg63
S'1900'
p437
sba(isrc.gp1.models.Per100Possession
Per100Possession
p438
(dp439
g8
S'1.9'
p440
sg10
S'5.7'
p441
sg12
S'0.0'
p442
sg347
g3
sg14
S'0.0'
p443
sg16
S'17.0'
p444
sg18
S'0.0'
p445
sg20
S'109'
p446
sg21
S'SG'
p447
sg354
g3
sg23
S'0.0'
p448
sg27
S'ABA'
p449
sg29
S'3.8'
p450
sg31
S'.333'
p451
sg33
S'96'
p452
sg34
S'1.9'
p453
sg36
S'1.9'
p454
sg38
S'28'
p455
sg40
S'UTS'
p456
sg42
g270
sg44
S'0.0'
p457
sg46
S'.333'
p458
sg48
S'1.000'
p459
sg50
S'5.7'
p460
sg52
S'7.5'
p461
sg54
S'1974-75'
p462
sg56
S'17.0'
p463
sg58
S'17.0'
p464
sg59
S'5.7'
p465
sg61
S'5.7'
p466
sg63
S'26'
p467
sbasS'_advanced'
p468
(lp469
(isrc.gp1.models.Advanced
Advanced
p470
(dp471
S'_offensiveReboundPercentage'
p472
S'9.5'
p473
sS'_turnOverPercentage'
p474
S'3.2'
p475
sS'_winSharesPer48Minutes'
p476
g3
sS'_stealPercentage'
p477
S'1.6'
p478
sS'_usagePercentage'
p479
S'.053'
p480
sS'_totalReboundsPercentage'
p481
S'11.7'
p482
sS'_defensiveBoxPlusMinus'
p483
g3
sg21
S'SG'
p484
sS'_valueOverReplacementPlayer'
p485
g3
sS'_trueShootingPercentage'
p486
S'.484'
p487
sS'_defensiveReboundPercentage'
p488
S'9.1'
p489
sS'_freeThrowsAttempRate'
p490
S'.409'
p491
sS'_threePointsAttempRate'
p492
S'.120'
p493
sg27
S'ABA'
p494
sS'_offensiveBoxPlusMinues'
p495
g3
sS'_assistPercentage'
p496
S'19.8'
p497
sS'_defensiveWinShares'
p498
g3
sg38
S'22'
p499
sg40
S'LAS'
p500
sg42
S'78'
p501
sS'_blockPercentage'
p502
S'1.6'
p503
sS'_playerEfficiencyRating'
p504
S'14.9'
p505
sS'_offensiveWinShares'
p506
g3
sg61
S'2871'
p507
sS'_boxPlusMinus'
p508
g3
sg54
S'1968-69'
p509
sS'_winShares'
p510
g3
sba(isrc.gp1.models.Advanced
Advanced
p511
(dp512
g472
S'9.3'
p513
sg474
S'3.0'
p514
sg476
g3
sg477
S'0.8'
p515
sg479
S'.071'
p516
sg481
S'14.0'
p517
sg483
g3
sg21
S'SG'
p518
sg485
g3
sg486
S'.482'
p519
sg488
S'10.2'
p520
sg490
S'.437'
p521
sg492
S'.098'
p522
sg27
S'ABA'
p523
sg495
g3
sg496
S'19.4'
p524
sg498
g3
sg38
S'23'
p525
sg40
S'TOT'
p526
sg42
S'80'
p527
sg502
S'2.2'
p528
sg504
S'13.4'
p529
sg506
g3
sg61
S'2037'
p530
sg508
g3
sg54
S'1969-70'
p531
sg510
g3
sba(isrc.gp1.models.Advanced
Advanced
p532
(dp533
g472
S'9.9'
p534
sg474
S'0.8'
p535
sg476
g3
sg477
S'0.2'
p536
sg479
S'.060'
p537
sg481
S'17.3'
p538
sg483
g3
sg21
S'SG'
p539
sg485
g3
sg486
S'.477'
p540
sg488
S'9.8'
p541
sg490
S'.540'
p542
sg492
S'.153'
p543
sg27
S'ABA'
p544
sg495
g3
sg496
S'21.0'
p545
sg498
g3
sg38
S'23'
p546
sg40
S'LAS'
p547
sg42
S'21'
p548
sg502
S'0.6'
p549
sg504
S'12.2'
p550
sg506
g3
sg61
S'654'
p551
sg508
g3
sg54
S'1969-70'
p552
sg510
g3
sba(isrc.gp1.models.Advanced
Advanced
p553
(dp554
g472
S'9.0'
p555
sg474
S'2.2'
p556
sg476
g3
sg477
S'0.6'
p557
sg479
S'.077'
p558
sg481
S'12.2'
p559
sg483
g3
sg21
S'SG'
p560
sg485
g3
sg486
S'.485'
p561
sg488
S'10.4'
p562
sg490
S'.386'
p563
sg492
S'.071'
p564
sg27
S'ABA'
p565
sg495
g3
sg496
S'18.7'
p566
sg498
g3
sg38
S'23'
p567
sg40
S'CAR'
p568
sg42
S'59'
p569
sg502
S'1.6'
p570
sg504
S'14.0'
p571
sg506
g3
sg61
S'1383'
p572
sg508
g3
sg54
S'1969-70'
p573
sg510
g3
sba(isrc.gp1.models.Advanced
Advanced
p574
(dp575
g472
S'9.7'
p576
sg474
S'3.4'
p577
sg476
g3
sg477
S'1.9'
p578
sg479
S'.076'
p579
sg481
S'12.4'
p580
sg483
g3
sg21
S'SG'
p581
sg485
g3
sg486
S'.513'
p582
sg488
S'10.1'
p583
sg490
S'.342'
p584
sg492
S'.077'
p585
sg27
S'ABA'
p586
sg495
g3
sg496
S'17.7'
p587
sg498
g3
sg38
S'24'
p588
sg40
S'CAR'
p589
sg42
S'77'
p590
sg502
S'1.5'
p591
sg504
S'14.6'
p592
sg506
g3
sg61
S'2140'
p593
sg508
g3
sg54
S'1970-71'
p594
sg510
g3
sba(isrc.gp1.models.Advanced
Advanced
p595
(dp596
g472
S'4.9'
p597
sg474
S'3.9'
p598
sg476
g3
sg477
S'11.7'
p599
sg479
S'2.3'
p600
sg481
S'5.8'
p601
sg483
g3
sg21
S'SG'
p602
sg485
g3
sg486
S'.528'
p603
sg488
S'6.7'
p604
sg490
S'.405'
p605
sg492
S'.038'
p606
sg27
S'ABA'
p607
sg495
g3
sg496
S'9.6'
p608
sg498
S'.093'
p609
sg38
S'25'
p610
sg40
S'CAR'
p611
sg42
S'83'
p612
sg502
S'18.9'
p613
sg504
S'14.1'
p614
sg506
S'6.2'
p615
sg61
S'3199'
p616
sg508
g3
sg54
S'1971-72'
p617
sg510
g3
sba(isrc.gp1.models.Advanced
Advanced
p618
(dp619
g472
S'6.0'
p620
sg474
S'-0.6'
p621
sg476
g3
sg477
S'11.7'
p622
sg479
S'3.0'
p623
sg481
S'6.4'
p624
sg483
g3
sg21
S'SG'
p625
sg485
g3
sg486
S'.476'
p626
sg488
S'6.9'
p627
sg490
S'.391'
p628
sg492
S'.006'
p629
sg27
S'ABA'
p630
sg495
g3
sg496
S'14.7'
p631
sg498
S'.043'
p632
sg38
S'26'
p633
sg40
S'SDA'
p634
sg42
S'83'
p635
sg502
S'20.1'
p636
sg504
S'12.9'
p637
sg506
S'2.4'
p638
sg61
S'2700'
p639
sg508
g3
sg54
S'1972-73'
p640
sg510
g3
sba(isrc.gp1.models.Advanced
Advanced
p641
(dp642
g472
S'4.4'
p643
sg474
S'14.0'
p644
sg476
S'.031'
p645
sg477
S'1.3'
p646
sg479
S'16.9'
p647
sg481
S'5.3'
p648
sg483
S'-1.5'
p649
sg21
S'SG'
p650
sg485
S'-0.5'
p651
sg486
S'.483'
p652
sg488
S'6.2'
p653
sg490
S'.357'
p654
sg492
S'.005'
p655
sg27
S'ABA'
p656
sg495
S'-1.5'
p657
sg496
S'10.3'
p658
sg498
S'0.5'
p659
sg38
S'27'
p660
sg40
S'TOT'
p661
sg42
S'80'
p662
sg502
S'0.2'
p663
sg504
S'10.2'
p664
sg506
S'0.8'
p665
sg61
S'1968'
p666
sg508
S'-3.0'
p667
sg54
S'1973-74'
p668
sg510
S'1.3'
p669
sba(isrc.gp1.models.Advanced
Advanced
p670
(dp671
g472
S'3.9'
p672
sg474
S'22.3'
p673
sg476
S'.046'
p674
sg477
S'3.2'
p675
sg479
S'12.1'
p676
sg481
S'6.0'
p677
sg483
S'1.0'
p678
sg21
S'SG'
p679
sg485
S'0.0'
p680
sg486
S'.489'
p681
sg488
S'8.3'
p682
sg490
S'.769'
p683
sg492
S'.000'
p684
sg27
S'ABA'
p685
sg495
S'-2.9'
p686
sg496
S'13.2'
p687
sg498
S'0.1'
p688
sg38
S'27'
p689
sg40
S'SDA'
p690
sg42
g217
sg502
S'0.0'
p691
sg504
S'10.3'
p692
sg506
S'0.0'
p693
sg61
S'68'
p694
sg508
S'-1.9'
p695
sg54
S'1973-74'
p696
sg510
S'0.1'
p697
sba(isrc.gp1.models.Advanced
Advanced
p698
(dp699
g472
S'4.5'
p700
sg474
S'13.8'
p701
sg476
S'.030'
p702
sg477
S'1.2'
p703
sg479
S'17.1'
p704
sg481
S'5.3'
p705
sg483
S'-1.6'
p706
sg21
S'SG'
p707
sg485
S'-0.5'
p708
sg486
S'.483'
p709
sg488
S'6.1'
p710
sg490
S'.349'
p711
sg492
S'.005'
p712
sg27
S'ABA'
p713
sg495
S'-1.4'
p714
sg496
S'10.2'
p715
sg498
S'0.4'
p716
sg38
S'27'
p717
sg40
S'VIR'
p718
sg42
S'73'
p719
sg502
S'0.2'
p720
sg504
S'10.2'
p721
sg506
S'0.8'
p722
sg61
S'1900'
p723
sg508
S'-3.0'
p724
sg54
S'1973-74'
p725
sg510
S'1.2'
p726
sba(isrc.gp1.models.Advanced
Advanced
p727
(dp728
g472
S'4.2'
p729
sg474
S'16.2'
p730
sg476
S'.022'
p731
sg477
S'1.9'
p732
sg479
S'19.7'
p733
sg481
S'2.0'
p734
sg483
S'-3.7'
p735
sg21
S'SG'
p736
sg485
S'0.0'
p737
sg486
S'.436'
p738
sg488
S'0.0'
p739
sg490
S'.333'
p740
sg492
S'.000'
p741
sg27
S'ABA'
p742
sg495
S'-3.6'
p743
sg496
S'21.4'
p744
sg498
S'0.0'
p745
sg38
S'28'
p746
sg40
S'UTS'
p747
sg42
g270
sg502
S'0.0'
p748
sg504
S'11.0'
p749
sg506
S'0.0'
p750
sg61
S'26'
p751
sg508
S'-7.3'
p752
sg54
S'1974-75'
p753
sg510
S'0.0'
p754
sbasS'_per36Minutes'
p755
(lp756
(isrc.gp1.models.Per36Minutes
Per36Minutes
p757
(dp758
g8
S'5.1'
p759
sg10
S'.302'
p760
sg12
S'0.5'
p761
sg14
S'2.3'
p762
sg16
S'5.4'
p763
sg18
S'1.7'
p764
sg20
g3
sg21
S'SG'
p765
sg23
S'2.5'
p766
sg27
S'ABA'
p767
sg29
S'2.4'
p768
sg31
S'.407'
p769
sg33
g3
sg34
S'.716'
p770
sg36
S'2.2'
p771
sg38
S'22'
p772
sg40
S'LAS'
p773
sg42
S'78'
p774
sg44
S'16.7'
p775
sg46
S'12.8'
p776
sg48
S'6.0'
p777
sg50
S'.421'
p778
sg52
S'7.5'
p779
sg54
S'1968-69'
p780
sg56
S'14.6'
p781
sg58
g3
sg59
S'4.3'
p782
sg61
S'5.9'
p783
sg63
S'2871'
p784
sba(isrc.gp1.models.Per36Minutes
Per36Minutes
p785
(dp786
g8
S'5.0'
p787
sg10
S'.203'
p788
sg12
S'0.3'
p789
sg14
S'2.6'
p790
sg16
S'5.3'
p791
sg18
S'1.3'
p792
sg20
g3
sg21
S'SG'
p793
sg23
S'2.3'
p794
sg27
S'ABA'
p795
sg29
S'3.1'
p796
sg31
S'.418'
p797
sg33
g3
sg34
S'.674'
p798
sg36
S'2.6'
p799
sg38
S'23'
p800
sg40
S'TOT'
p801
sg42
S'80'
p802
sg44
S'15.4'
p803
sg46
S'12.1'
p804
sg48
S'5.8'
p805
sg50
S'.442'
p806
sg52
S'7.3'
p807
sg54
S'1969-70'
p808
sg56
S'13.4'
p809
sg58
g3
sg59
S'3.9'
p810
sg61
S'5.6'
p811
sg63
S'2037'
p812
sba(isrc.gp1.models.Per36Minutes
Per36Minutes
p813
(dp814
g8
S'5.7'
p815
sg10
S'.237'
p816
sg12
S'0.5'
p817
sg14
S'3.5'
p818
sg16
S'4.7'
p819
sg18
S'2.1'
p820
sg20
g3
sg21
S'SG'
p821
sg23
S'2.4'
p822
sg27
S'ABA'
p823
sg29
S'3.1'
p824
sg31
S'.379'
p825
sg33
g3
sg34
S'.716'
p826
sg36
S'2.6'
p827
sg38
S'23'
p828
sg40
S'LAS'
p829
sg42
S'21'
p830
sg44
S'16.1'
p831
sg46
S'11.6'
p832
sg48
S'7.4'
p833
sg50
S'.405'
p834
sg52
S'8.1'
p835
sg54
S'1969-70'
p836
sg56
S'13.7'
p837
sg58
g3
sg59
S'5.3'
p838
sg61
S'5.2'
p839
sg63
S'654'
p840
sba(isrc.gp1.models.Per36Minutes
Per36Minutes
p841
(dp842
g8
S'4.6'
p843
sg10
S'.167'
p844
sg12
S'0.2'
p845
sg14
S'2.2'
p846
sg16
S'5.6'
p847
sg18
S'0.9'
p848
sg20
g3
sg21
S'SG'
p849
sg23
S'2.3'
p850
sg27
S'ABA'
p851
sg29
S'3.0'
p852
sg31
S'.437'
p853
sg33
g3
sg34
S'.645'
p854
sg36
S'2.6'
p855
sg38
S'23'
p856
sg40
S'CAR'
p857
sg42
S'59'
p858
sg44
S'15.1'
p859
sg46
S'12.3'
p860
sg48
S'5.1'
p861
sg50
S'.458'
p862
sg52
S'7.0'
p863
sg54
S'1969-70'
p864
sg56
S'13.3'
p865
sg58
g3
sg59
S'3.3'
p866
sg61
S'5.8'
p867
sg63
S'1383'
p868
sba(isrc.gp1.models.Per36Minutes
Per36Minutes
p869
(dp870
g8
S'4.8'
p871
sg10
S'.213'
p872
sg12
S'0.2'
p873
sg14
S'2.2'
p874
sg16
S'5.9'
p875
sg18
S'1.0'
p876
sg20
g3
sg21
S'SG'
p877
sg23
S'2.9'
p878
sg27
S'ABA'
p879
sg29
S'3.0'
p880
sg31
S'.458'
p881
sg33
g3
sg34
S'.724'
p882
sg36
S'2.8'
p883
sg38
S'24'
p884
sg40
S'CAR'
p885
sg42
S'77'
p886
sg44
S'15.8'
p887
sg46
S'12.3'
p888
sg48
S'4.6'
p889
sg50
S'.478'
p890
sg52
S'7.7'
p891
sg54
S'1970-71'
p892
sg56
S'13.4'
p893
sg58
g3
sg59
S'3.3'
p894
sg61
S'6.1'
p895
sg63
S'2140'
p896
sba(isrc.gp1.models.Per36Minutes
Per36Minutes
p897
(dp898
g8
S'2.5'
p899
sg10
S'.255'
p900
sg12
S'0.1'
p901
sg14
S'2.1'
p902
sg16
S'6.2'
p903
sg18
S'0.5'
p904
sg20
g3
sg21
S'SG'
p905
sg23
S'2.0'
p906
sg27
S'ABA'
p907
sg29
S'2.6'
p908
sg31
S'.458'
p909
sg33
g3
sg34
S'.791'
p910
sg36
S'2.6'
p911
sg38
S'25'
p912
sg40
S'CAR'
p913
sg42
S'83'
p914
sg44
S'17.2'
p915
sg46
S'13.3'
p916
sg48
S'5.6'
p917
sg50
S'.466'
p918
sg52
S'4.5'
p919
sg54
S'1971-72'
p920
sg56
S'13.8'
p921
sg58
g3
sg59
S'4.4'
p922
sg61
S'6.3'
p923
sg63
S'3199'
p924
sba(isrc.gp1.models.Per36Minutes
Per36Minutes
p925
(dp926
g8
S'2.5'
p927
sg10
S'.000'
p928
sg12
S'0.0'
p929
sg14
S'2.2'
p930
sg16
S'6.0'
p931
sg18
S'0.1'
p932
sg20
g3
sg21
S'SG'
p933
sg23
S'2.3'
p934
sg27
S'ABA'
p935
sg29
S'2.3'
p936
sg31
S'.417'
p937
sg33
g3
sg34
S'.725'
p938
sg36
S'3.7'
p939
sg38
S'26'
p940
sg40
S'SDA'
p941
sg42
S'83'
p942
sg44
S'16.1'
p943
sg46
S'14.3'
p944
sg48
S'5.6'
p945
sg50
S'.419'
p946
sg52
S'4.7'
p947
sg54
S'1972-73'
p948
sg56
S'14.4'
p949
sg58
g3
sg59
S'4.1'
p950
sg61
S'6.0'
p951
sg63
S'2700'
p952
sba(isrc.gp1.models.Per36Minutes
Per36Minutes
p953
(dp954
g8
S'2.2'
p955
sg10
S'.000'
p956
sg12
S'0.0'
p957
sg14
S'1.0'
p958
sg16
S'5.1'
p959
sg18
S'0.1'
p960
sg20
g3
sg21
S'SG'
p961
sg23
S'1.6'
p962
sg27
S'ABA'
p963
sg29
S'0.1'
p964
sg31
S'.440'
p965
sg33
S'13.0'
p966
sg34
S'.662'
p967
sg36
S'2.6'
p968
sg38
S'27'
p969
sg40
S'TOT'
p970
sg42
S'80'
p971
sg44
S'2.2'
p972
sg46
S'11.6'
p973
sg48
S'4.2'
p974
sg50
S'.443'
p975
sg52
S'3.8'
p976
sg54
S'1973-74'
p977
sg56
S'11.7'
p978
sg58
S'2.5'
p979
sg59
S'2.8'
p980
sg61
S'5.1'
p981
sg63
S'1968'
p982
sba(isrc.gp1.models.Per36Minutes
Per36Minutes
p983
(dp984
g8
S'4.8'
p985
sg10
S'2.6'
p986
sg12
S'0.0'
p987
sg14
S'0.0'
p988
sg16
S'6.9'
p989
sg18
S'0.0'
p990
sg20
g3
sg21
S'SG'
p991
sg23
S'3.2'
p992
sg27
S'ABA'
p993
sg29
S'2.6'
p994
sg31
S'.385'
p995
sg33
g3
sg34
S'1.6'
p996
sg36
S'2.6'
p997
sg38
S'27'
p998
sg40
S'SDA'
p999
sg42
g217
sg44
S'2.6'
p1000
sg46
S'.385'
p1001
sg48
S'.700'
p1002
sg50
S'3.7'
p1003
sg52
S'4.2'
p1004
sg54
S'1973-74'
p1005
sg56
S'6.9'
p1006
sg58
S'9.0'
p1007
sg59
S'5.3'
p1008
sg61
S'2.6'
p1009
sg63
S'68'
p1010
sba(isrc.gp1.models.Per36Minutes
Per36Minutes
p1011
(dp1012
g8
S'2.2'
p1013
sg10
S'.000'
p1014
sg12
S'0.0'
p1015
sg14
S'1.0'
p1016
sg16
S'5.2'
p1017
sg18
S'0.1'
p1018
sg20
g3
sg21
S'SG'
p1019
sg23
S'1.6'
p1020
sg27
S'ABA'
p1021
sg29
S'0.1'
p1022
sg31
S'.442'
p1023
sg33
S'13.2'
p1024
sg34
S'.661'
p1025
sg36
S'2.6'
p1026
sg38
S'27'
p1027
sg40
S'VIR'
p1028
sg42
S'73'
p1029
sg44
S'2.2'
p1030
sg46
S'11.8'
p1031
sg48
S'4.1'
p1032
sg50
S'.444'
p1033
sg52
S'3.8'
p1034
sg54
S'1973-74'
p1035
sg56
S'11.8'
p1036
sg58
S'2.5'
p1037
sg59
S'2.7'
p1038
sg61
S'5.2'
p1039
sg63
S'1900'
p1040
sba(isrc.gp1.models.Per36Minutes
Per36Minutes
p1041
(dp1042
g8
S'1.4'
p1043
sg10
S'4.2'
p1044
sg12
S'0.0'
p1045
sg14
S'0.0'
p1046
sg16
S'12.5'
p1047
sg18
S'0.0'
p1048
sg20
g3
sg21
S'SG'
p1049
sg23
S'0.0'
p1050
sg27
S'ABA'
p1051
sg29
S'2.8'
p1052
sg31
S'.333'
p1053
sg33
g3
sg34
S'1.4'
p1054
sg36
S'1.4'
p1055
sg38
S'28'
p1056
sg40
S'UTS'
p1057
sg42
g270
sg44
S'0.0'
p1058
sg46
S'.333'
p1059
sg48
S'1.000'
p1060
sg50
S'4.2'
p1061
sg52
S'5.5'
p1062
sg54
S'1974-75'
p1063
sg56
S'12.5'
p1064
sg58
S'12.5'
p1065
sg59
S'4.2'
p1066
sg61
S'4.2'
p1067
sg63
S'26'
p1068
sbasS'_fromYear'
p1069
S'1969'
p1070
sS'_url'
p1071
S'http://www.basketball-reference.com/players/m/millela01.html'
p1072
sS'_perGame'
p1073
(isrc.gp1.models.PerGame
PerGame
p1074
(dp1075
g8
S'0.2'
p1076
sg10
S'0.6'
p1077
sg12
S'0.0'
p1078
sS'_effectiveFieldGalPercentage'
p1079
S'0.6'
p1080
sg14
S'0.0'
p1081
sg16
S'1.8'
p1082
sg18
S'0.0'
p1083
sg20
g3
sg21
S'SG'
p1084
sg23
S'0.0'
p1085
sg27
S'ABA'
p1086
sg29
S'0.4'
p1087
sg33
g3
sS'_fieldGoalsttempted'
p1088
S'.333'
p1089
sg34
S'0.2'
p1090
sg36
S'0.2'
p1091
sg38
S'28'
p1092
sg40
S'UTS'
p1093
sg42
g270
sg44
S'0.0'
p1094
sg46
S'.333'
p1095
sg48
S'1.000'
p1096
sg50
S'.333'
p1097
sg52
S'0.8'
p1098
sg54
S'1974-75'
p1099
sg56
S'1.8'
p1100
sg58
S'1.8'
p1101
sg59
S'0.6'
p1102
sg61
S'0.6'
p1103
sg63
S'5.2'
p1104
sbsS'_weight'
p1105
S'190'
p1106
sS'_dob'
p1107
S'4-4-1946'
p1108
sS'_salary'
p1109
(lp1110
sg21
S'G-F'
p1111
sb.