(isrc.gp1.models.Player
Player
p0
(dp1
S'_experience'
p2
S'NA'
p3
sS'_totals'
p4
(lp5
(isrc.gp1.models.Totals
Totals
p6
(dp7
S'_offensiveRebounds'
p8
S'133'
p9
sS'_threePointsAttempted'
p10
S'1'
p11
sS'_fieldGoalsPercentage'
p12
S'.512'
p13
sS'_assist'
p14
S'33'
p15
sS'_threePointsPercentage'
p16
S'.000'
p17
sS'_threePoints'
p18
S'0'
p19
sS'_points'
p20
S'383'
p21
sS'_position'
p22
S'C'
p23
sS'_freeThrowsPercentage'
p24
S'.650'
p25
sS'_effectiveFieldGoalPercentage'
p26
S'.512'
p27
sS'_league'
p28
S'NBA'
p29
sS'_steals'
p30
S'40'
p31
sS'_fieldGoalsAttempted'
p32
S'287'
p33
sS'_personalFouls'
p34
S'186'
p35
sS'_freeThrowsAttempted'
p36
S'137'
p37
sS'_totalRebounds'
p38
S'375'
p39
sS'_age'
p40
S'21'
p41
sS'_team'
p42
S'KCK'
p43
sS'_games'
p44
S'71'
p45
sS'_blocks'
p46
S'61'
p47
sS'_twoPoints'
p48
S'147'
p49
sS'_freeThrows'
p50
S'89'
p51
sS'_twoPointsAttempted'
p52
S'286'
p53
sS'_defensiveRebounds'
p54
S'242'
p55
sS'_season'
p56
S'1982-83'
p57
sS'_fieldGoals'
p58
S'147'
p59
sS'_turnOvers'
p60
S'96'
p61
sS'_twoPointsPercentage'
p62
S'.514'
p63
sS'_minutesPlayed'
p64
S'987'
p65
sS'_gamesStarted'
p66
S'3'
p67
sba(isrc.gp1.models.Totals
Totals
p68
(dp69
g8
S'260'
p70
sg10
g19
sg12
S'.523'
p71
sg14
S'86'
p72
sg16
g3
sg18
g19
sg20
S'826'
p73
sg22
g23
sg24
S'.717'
p74
sg26
S'.523'
p75
sg28
S'NBA'
p76
sg30
S'71'
p77
sg32
S'637'
p78
sg34
S'327'
p79
sg36
S'223'
p80
sg38
S'709'
p81
sg40
S'22'
p82
sg42
S'KCK'
p83
sg44
S'80'
p84
sg46
S'145'
p85
sg48
S'333'
p86
sg50
S'160'
p87
sg52
S'637'
p88
sg54
S'449'
p89
sg56
S'1983-84'
p90
sg58
S'333'
p91
sg60
S'168'
p92
sg62
S'.523'
p93
sg64
S'1915'
p94
sg66
S'38'
p95
sba(isrc.gp1.models.Totals
Totals
p96
(dp97
g8
S'274'
p98
sg10
g19
sg12
S'.531'
p99
sg14
S'130'
p100
sg16
g3
sg18
g19
sg20
S'965'
p101
sg22
g23
sg24
S'.721'
p102
sg26
S'.531'
p103
sg28
S'NBA'
p104
sg30
S'98'
p105
sg32
S'695'
p106
sg34
S'328'
p107
sg36
S'315'
p108
sg38
S'854'
p109
sg40
S'23'
p110
sg42
S'KCK'
p111
sg44
S'82'
p112
sg46
S'128'
p113
sg48
S'369'
p114
sg50
S'227'
p115
sg52
S'695'
p116
sg54
S'580'
p117
sg56
S'1984-85'
p118
sg58
S'369'
p119
sg60
S'202'
p120
sg62
S'.531'
p121
sg64
S'2458'
p122
sg66
S'77'
p123
sba(isrc.gp1.models.Totals
Totals
p124
(dp125
g8
S'252'
p126
sg10
g11
sg12
S'.518'
p127
sg14
S'168'
p128
sg16
S'.000'
p129
sg18
g19
sg20
S'1024'
p130
sg22
g23
sg24
S'.732'
p131
sg26
S'.518'
p132
sg28
S'NBA'
p133
sg30
S'71'
p134
sg32
S'794'
p135
sg34
S'295'
p136
sg36
S'276'
p137
sg38
S'770'
p138
sg40
S'24'
p139
sg42
S'SAC'
p140
sg44
S'80'
p141
sg46
S'109'
p142
sg48
S'411'
p143
sg50
S'202'
p144
sg52
S'793'
p145
sg54
S'518'
p146
sg56
S'1985-86'
p147
sg58
S'411'
p148
sg60
S'184'
p149
sg62
S'.518'
p150
sg64
S'2377'
p151
sg66
S'64'
p152
sba(isrc.gp1.models.Totals
Totals
p153
(dp154
g8
S'237'
p155
sg10
S'5'
p156
sg12
S'.481'
p157
sg14
S'122'
p158
sg16
S'.000'
p159
sg18
g19
sg20
S'912'
p160
sg22
g23
sg24
S'.737'
p161
sg26
S'.481'
p162
sg28
S'NBA'
p163
sg30
S'69'
p164
sg32
S'752'
p165
sg34
S'290'
p166
sg36
S'255'
p167
sg38
S'687'
p168
sg40
S'25'
p169
sg42
S'SAC'
p170
sg44
S'82'
p171
sg46
S'126'
p172
sg48
S'362'
p173
sg50
S'188'
p174
sg52
S'747'
p175
sg54
S'450'
p176
sg56
S'1986-87'
p177
sg58
S'362'
p178
sg60
S'143'
p179
sg62
S'.485'
p180
sg64
S'2166'
p181
sg66
S'53'
p182
sba(isrc.gp1.models.Totals
Totals
p183
(dp184
g8
S'138'
p185
sg10
g156
sg12
S'.471'
p186
sg14
S'68'
p187
sg16
S'.400'
p188
sg18
S'2'
p189
sg20
S'550'
p190
sg22
g23
sg24
S'.720'
p191
sg26
S'.474'
p192
sg28
S'NBA'
p193
sg30
S'54'
p194
sg32
S'456'
p195
sg34
S'217'
p196
sg36
S'164'
p197
sg38
S'427'
p198
sg40
S'26'
p199
sg42
S'SAC'
p200
sg44
S'69'
p201
sg46
S'73'
p202
sg48
S'213'
p203
sg50
S'118'
p204
sg52
S'451'
p205
sg54
S'289'
p206
sg56
S'1987-88'
p207
sg58
S'215'
p208
sg60
S'109'
p209
sg62
S'.472'
p210
sg64
S'1257'
p211
sg66
S'9'
p212
sba(isrc.gp1.models.Totals
Totals
p213
(dp214
g8
S'224'
p215
sg10
g11
sg12
S'.489'
p216
sg14
S'81'
p217
sg16
S'.000'
p218
sg18
g19
sg20
S'1059'
p219
sg22
g23
sg24
S'.808'
p220
sg26
S'.489'
p221
sg28
S'NBA'
p222
sg30
S'79'
p223
sg32
S'850'
p224
sg34
S'285'
p225
sg36
S'281'
p226
sg38
S'718'
p227
sg40
S'27'
p228
sg42
S'TOT'
p229
sg44
S'76'
p230
sg46
S'94'
p231
sg48
S'416'
p232
sg50
S'227'
p233
sg52
S'849'
p234
sg54
S'494'
p235
sg56
S'1988-89'
p236
sg58
S'416'
p237
sg60
S'179'
p238
sg62
S'.490'
p239
sg64
S'2329'
p240
sg66
S'71'
p241
sba(isrc.gp1.models.Totals
Totals
p242
(dp243
g8
S'120'
p244
sg10
g11
sg12
S'.461'
p245
sg14
S'44'
p246
sg16
S'.000'
p247
sg18
g19
sg20
S'646'
p248
sg22
g23
sg24
S'.809'
p249
sg26
S'.461'
p250
sg28
S'NBA'
p251
sg30
S'46'
p252
sg32
S'536'
p253
sg34
S'153'
p254
sg36
S'188'
p255
sg38
S'392'
p256
sg40
S'27'
p257
sg42
S'SAC'
p258
sg44
S'43'
p259
sg46
S'55'
p260
sg48
S'247'
p261
sg50
S'152'
p262
sg52
S'535'
p263
sg54
S'272'
p264
sg56
S'1988-89'
p265
sg58
S'247'
p266
sg60
S'117'
p267
sg62
S'.462'
p268
sg64
S'1276'
p269
sg66
S'42'
p270
sba(isrc.gp1.models.Totals
Totals
p271
(dp272
g8
S'104'
p273
sg10
g19
sg12
S'.538'
p274
sg14
S'37'
p275
sg16
g3
sg18
g19
sg20
S'413'
p276
sg22
g23
sg24
S'.806'
p277
sg26
S'.538'
p278
sg28
S'NBA'
p279
sg30
S'33'
p280
sg32
S'314'
p281
sg34
S'132'
p282
sg36
S'93'
p283
sg38
S'326'
p284
sg40
S'27'
p285
sg42
S'IND'
p286
sg44
S'33'
p287
sg46
S'39'
p288
sg48
S'169'
p289
sg50
S'75'
p290
sg52
S'314'
p291
sg54
S'222'
p292
sg56
S'1988-89'
p293
sg58
S'169'
p294
sg60
S'62'
p295
sg62
S'.538'
p296
sg64
S'1053'
p297
sg66
S'29'
p298
sba(isrc.gp1.models.Totals
Totals
p299
(dp300
g8
S'175'
p301
sg10
g156
sg12
S'.473'
p302
sg14
S'106'
p303
sg16
S'.200'
p304
sg18
g11
sg20
S'554'
p305
sg22
g23
sg24
S'.799'
p306
sg26
S'.475'
p307
sg28
S'NBA'
p308
sg30
S'65'
p309
sg32
S'471'
p310
sg34
S'313'
p311
sg36
S'134'
p312
sg38
S'630'
p313
sg40
S'28'
p314
sg42
S'IND'
p315
sg44
S'82'
p316
sg46
S'71'
p317
sg48
S'222'
p318
sg50
S'107'
p319
sg52
S'466'
p320
sg54
S'455'
p321
sg56
S'1989-90'
p322
sg58
S'223'
p323
sg60
S'150'
p324
sg62
S'.476'
p325
sg64
S'2126'
p326
sg66
S'60'
p327
sba(isrc.gp1.models.Totals
Totals
p328
(dp329
g8
S'154'
p330
sg10
g156
sg12
S'.488'
p331
sg14
S'147'
p332
sg16
S'.200'
p333
sg18
g11
sg20
S'625'
p334
sg22
g23
sg24
S'.692'
p335
sg26
S'.489'
p336
sg28
S'NBA'
p337
sg30
S'63'
p338
sg32
S'565'
p339
sg34
S'265'
p340
sg36
S'104'
p341
sg38
S'563'
p342
sg40
S'29'
p343
sg42
S'IND'
p344
sg44
S'82'
p345
sg46
S'63'
p346
sg48
S'275'
p347
sg50
S'72'
p348
sg52
S'560'
p349
sg54
S'409'
p350
sg56
S'1990-91'
p351
sg58
S'276'
p352
sg60
S'168'
p353
sg62
S'.491'
p354
sg64
S'1946'
p355
sg66
S'77'
p356
sba(isrc.gp1.models.Totals
Totals
p357
(dp358
g8
S'98'
p359
sg10
g189
sg12
S'.468'
p360
sg14
S'102'
p361
sg16
S'.000'
p362
sg18
g19
sg20
S'394'
p363
sg22
g23
sg24
S'.817'
p364
sg26
S'.468'
p365
sg28
S'NBA'
p366
sg30
S'52'
p367
sg32
S'359'
p368
sg34
S'207'
p369
sg36
S'71'
p370
sg38
S'381'
p371
sg40
S'30'
p372
sg42
S'IND'
p373
sg44
S'80'
p374
sg46
S'34'
p375
sg48
S'168'
p376
sg50
S'58'
p377
sg52
S'357'
p378
sg54
S'283'
p379
sg56
S'1991-92'
p380
sg58
S'168'
p381
sg60
S'98'
p382
sg62
S'.471'
p383
sg64
S'1299'
p384
sg66
S'49'
p385
sba(isrc.gp1.models.Totals
Totals
p386
(dp387
g8
S'55'
p388
sg10
g11
sg12
S'.488'
p389
sg14
S'34'
p390
sg16
S'.000'
p391
sg18
g19
sg20
S'237'
p392
sg22
g23
sg24
S'.744'
p393
sg26
S'.488'
p394
sg28
S'NBA'
p395
sg30
S'29'
p396
sg32
S'213'
p397
sg34
S'137'
p398
sg36
S'39'
p399
sg38
S'178'
p400
sg40
S'31'
p401
sg42
S'IND'
p402
sg44
S'63'
p403
sg46
S'24'
p404
sg48
S'104'
p405
sg50
S'29'
p406
sg52
S'212'
p407
sg54
S'123'
p408
sg56
S'1992-93'
p409
sg58
S'104'
p410
sg60
S'47'
p411
sg62
S'.491'
p412
sg64
S'730'
p413
sg66
g19
sba(isrc.gp1.models.Totals
Totals
p414
(dp415
g8
S'26'
p416
sg10
g19
sg12
S'.351'
p417
sg14
S'16'
p418
sg16
g3
sg18
g19
sg20
S'70'
p419
sg22
g23
sg24
S'.533'
p420
sg26
S'.351'
p421
sg28
S'NBA'
p422
sg30
S'10'
p423
sg32
S'77'
p424
sg34
S'59'
p425
sg36
S'30'
p426
sg38
S'75'
p427
sg40
S'32'
p428
sg42
S'IND'
p429
sg44
S'30'
p430
sg46
S'8'
p431
sg48
S'27'
p432
sg50
S'16'
p433
sg52
S'77'
p434
sg54
S'49'
p435
sg56
S'1993-94'
p436
sg58
S'27'
p437
sg60
S'23'
p438
sg62
S'.351'
p439
sg64
S'282'
p440
sg66
g11
sba(isrc.gp1.models.Totals
Totals
p441
(dp442
g8
S'28'
p443
sg10
g19
sg12
S'.415'
p444
sg14
S'18'
p445
sg16
g3
sg18
g19
sg20
S'112'
p446
sg22
g23
sg24
S'.875'
p447
sg26
S'.415'
p448
sg28
S'NBA'
p449
sg30
S'18'
p450
sg32
S'118'
p451
sg34
S'76'
p452
sg36
S'16'
p453
sg38
S'89'
p454
sg40
S'33'
p455
sg42
S'IND'
p456
sg44
S'38'
p457
sg46
S'10'
p458
sg48
S'49'
p459
sg50
S'14'
p460
sg52
S'118'
p461
sg54
S'61'
p462
sg56
S'1994-95'
p463
sg58
S'49'
p464
sg60
S'33'
p465
sg62
S'.415'
p466
sg64
S'453'
p467
sg66
g67
sba(isrc.gp1.models.Totals
Totals
p468
(dp469
g8
S'62'
p470
sg10
g19
sg12
S'.398'
p471
sg14
S'26'
p472
sg16
g3
sg18
g19
sg20
S'85'
p473
sg22
g23
sg24
S'.792'
p474
sg26
S'.398'
p475
sg28
S'NBA'
p476
sg30
S'19'
p477
sg32
S'83'
p478
sg34
S'125'
p479
sg36
S'24'
p480
sg38
S'199'
p481
sg40
S'34'
p482
sg42
S'PHI'
p483
sg44
S'44'
p484
sg46
S'20'
p485
sg48
S'33'
p486
sg50
S'19'
p487
sg52
S'83'
p488
sg54
S'137'
p489
sg56
S'1995-96'
p490
sg58
S'33'
p491
sg60
S'37'
p492
sg62
S'.398'
p493
sg64
S'773'
p494
sg66
S'11'
p495
sba(isrc.gp1.models.Totals
Totals
p496
(dp497
g8
S'7'
p498
sg10
g19
sg12
S'.158'
p499
sg14
g189
sg16
g3
sg18
g19
sg20
S'10'
p500
sg22
g23
sg24
S'.667'
p501
sg26
S'.158'
p502
sg28
S'NBA'
p503
sg30
g67
sg32
S'19'
p504
sg34
S'33'
p505
sg36
S'6'
p506
sg38
S'34'
p507
sg40
S'35'
p508
sg42
S'TOT'
p509
sg44
S'26'
p510
sg46
g506
sg48
g67
sg50
S'4'
p511
sg52
S'19'
p512
sg54
S'27'
p513
sg56
S'1996-97'
p514
sg58
g67
sg60
g212
sg62
S'.158'
p515
sg64
S'140'
p516
sg66
g19
sba(isrc.gp1.models.Totals
Totals
p517
(dp518
g8
g156
sg10
g19
sg12
S'.188'
p519
sg14
g19
sg16
g3
sg18
g19
sg20
g498
sg22
g23
sg24
S'.500'
p520
sg26
S'.188'
p521
sg28
S'NBA'
p522
sg30
g67
sg32
S'16'
p523
sg34
S'26'
p524
sg36
g189
sg38
S'26'
p525
sg40
S'35'
p526
sg42
S'DEN'
p527
sg44
S'17'
p528
sg46
g506
sg48
g67
sg50
g11
sg52
S'16'
p529
sg54
S'21'
p530
sg56
S'1996-97'
p531
sg58
g67
sg60
g498
sg62
S'.188'
p532
sg64
S'105'
p533
sg66
g19
sba(isrc.gp1.models.Totals
Totals
p534
(dp535
g8
g189
sg10
g19
sg12
S'.000'
p536
sg14
g189
sg16
g3
sg18
g19
sg20
g67
sg22
g23
sg24
S'.750'
p537
sg26
S'.000'
p538
sg28
S'NBA'
p539
sg30
g19
sg32
g67
sg34
g498
sg36
g511
sg38
g431
sg40
S'35'
p540
sg42
S'IND'
p541
sg44
g212
sg46
g19
sg48
g19
sg50
g67
sg52
g67
sg54
g506
sg56
S'1996-97'
p542
sg58
g19
sg60
g189
sg62
S'.000'
p543
sg64
S'35'
p544
sg66
g19
sbasS'_college'
p545
S'University of Texas at Austin'
p546
sS'_toYear'
p547
S'1997'
p548
sS'_height'
p549
S'6-10'
p550
sS'_active'
p551
I00
sS'_shootingHand'
p552
VRight
p553
sS'_name'
p554
S'LaSalle Thompson'
p555
sS'_per100Possessions'
p556
(lp557
(isrc.gp1.models.Per100Possession
Per100Possession
p558
(dp559
g8
S'6.1'
p560
sg10
S'0.0'
p561
sg12
S'.512'
p562
sS'_offensiveRating'
p563
S'101'
p564
sg14
S'1.5'
p565
sg16
S'.000'
p566
sg18
S'0.0'
p567
sg20
S'17.5'
p568
sg22
g23
sS'_defensiveRating'
p569
S'99'
p570
sg24
S'.650'
p571
sg28
S'NBA'
p572
sg30
S'1.8'
p573
sg32
S'13.1'
p574
sg34
S'8.5'
p575
sg36
S'6.3'
p576
sg38
S'17.1'
p577
sg40
S'21'
p578
sg42
S'KCK'
p579
sg44
S'71'
p580
sg46
S'2.8'
p581
sg48
S'6.7'
p582
sg50
S'4.1'
p583
sg52
S'13.1'
p584
sg54
S'11.0'
p585
sg56
S'1982-83'
p586
sg58
S'6.7'
p587
sg60
S'4.4'
p588
sg62
S'.514'
p589
sg64
S'987'
p590
sg66
g67
sba(isrc.gp1.models.Per100Possession
Per100Possession
p591
(dp592
g8
S'6.3'
p593
sg10
S'0.0'
p594
sg12
S'.523'
p595
sg563
S'106'
p596
sg14
S'2.1'
p597
sg16
g3
sg18
S'0.0'
p598
sg20
S'20.1'
p599
sg22
g23
sg569
S'102'
p600
sg24
S'.717'
p601
sg28
S'NBA'
p602
sg30
S'1.7'
p603
sg32
S'15.5'
p604
sg34
S'8.0'
p605
sg36
S'5.4'
p606
sg38
S'17.3'
p607
sg40
S'22'
p608
sg42
S'KCK'
p609
sg44
S'80'
p610
sg46
S'3.5'
p611
sg48
S'8.1'
p612
sg50
S'3.9'
p613
sg52
S'15.5'
p614
sg54
S'10.9'
p615
sg56
S'1983-84'
p616
sg58
S'8.1'
p617
sg60
S'4.1'
p618
sg62
S'.523'
p619
sg64
S'1915'
p620
sg66
S'38'
p621
sba(isrc.gp1.models.Per100Possession
Per100Possession
p622
(dp623
g8
S'5.1'
p624
sg10
S'0.0'
p625
sg12
S'.531'
p626
sg563
S'108'
p627
sg14
S'2.4'
p628
sg16
g3
sg18
S'0.0'
p629
sg20
S'18.0'
p630
sg22
g23
sg569
S'106'
p631
sg24
S'.721'
p632
sg28
S'NBA'
p633
sg30
S'1.8'
p634
sg32
S'13.0'
p635
sg34
S'6.1'
p636
sg36
S'5.9'
p637
sg38
S'16.0'
p638
sg40
S'23'
p639
sg42
S'KCK'
p640
sg44
S'82'
p641
sg46
S'2.4'
p642
sg48
S'6.9'
p643
sg50
S'4.2'
p644
sg52
S'13.0'
p645
sg54
S'10.8'
p646
sg56
S'1984-85'
p647
sg58
S'6.9'
p648
sg60
S'3.8'
p649
sg62
S'.531'
p650
sg64
S'2458'
p651
sg66
S'77'
p652
sba(isrc.gp1.models.Per100Possession
Per100Possession
p653
(dp654
g8
S'5.0'
p655
sg10
S'0.0'
p656
sg12
S'.518'
p657
sg563
S'108'
p658
sg14
S'3.3'
p659
sg16
S'.000'
p660
sg18
S'0.0'
p661
sg20
S'20.3'
p662
sg22
g23
sg569
S'105'
p663
sg24
S'.732'
p664
sg28
S'NBA'
p665
sg30
S'1.4'
p666
sg32
S'15.7'
p667
sg34
S'5.8'
p668
sg36
S'5.5'
p669
sg38
S'15.2'
p670
sg40
S'24'
p671
sg42
S'SAC'
p672
sg44
S'80'
p673
sg46
S'2.2'
p674
sg48
S'8.1'
p675
sg50
S'4.0'
p676
sg52
S'15.7'
p677
sg54
S'10.3'
p678
sg56
S'1985-86'
p679
sg58
S'8.1'
p680
sg60
S'3.6'
p681
sg62
S'.518'
p682
sg64
S'2377'
p683
sg66
S'64'
p684
sba(isrc.gp1.models.Per100Possession
Per100Possession
p685
(dp686
g8
S'5.2'
p687
sg10
S'0.1'
p688
sg12
S'.481'
p689
sg563
S'108'
p690
sg14
S'2.7'
p691
sg16
S'.000'
p692
sg18
S'0.0'
p693
sg20
S'19.9'
p694
sg22
g23
sg569
S'107'
p695
sg24
S'.737'
p696
sg28
S'NBA'
p697
sg30
S'1.5'
p698
sg32
S'16.4'
p699
sg34
S'6.3'
p700
sg36
S'5.6'
p701
sg38
S'15.0'
p702
sg40
S'25'
p703
sg42
S'SAC'
p704
sg44
S'82'
p705
sg46
S'2.8'
p706
sg48
S'7.9'
p707
sg50
S'4.1'
p708
sg52
S'16.3'
p709
sg54
S'9.8'
p710
sg56
S'1986-87'
p711
sg58
S'7.9'
p712
sg60
S'3.1'
p713
sg62
S'.485'
p714
sg64
S'2166'
p715
sg66
S'53'
p716
sba(isrc.gp1.models.Per100Possession
Per100Possession
p717
(dp718
g8
S'5.2'
p719
sg10
S'0.2'
p720
sg12
S'.471'
p721
sg563
S'101'
p722
sg14
S'2.6'
p723
sg16
S'.400'
p724
sg18
S'0.1'
p725
sg20
S'20.8'
p726
sg22
g23
sg569
S'106'
p727
sg24
S'.720'
p728
sg28
S'NBA'
p729
sg30
S'2.0'
p730
sg32
S'17.3'
p731
sg34
S'8.2'
p732
sg36
S'6.2'
p733
sg38
S'16.2'
p734
sg40
S'26'
p735
sg42
S'SAC'
p736
sg44
S'69'
p737
sg46
S'2.8'
p738
sg48
S'8.1'
p739
sg50
S'4.5'
p740
sg52
S'17.1'
p741
sg54
S'10.9'
p742
sg56
S'1987-88'
p743
sg58
S'8.1'
p744
sg60
S'4.1'
p745
sg62
S'.472'
p746
sg64
S'1257'
p747
sg66
g212
sba(isrc.gp1.models.Per100Possession
Per100Possession
p748
(dp749
g8
S'4.6'
p750
sg10
S'0.0'
p751
sg12
S'.489'
p752
sg563
S'104'
p753
sg14
S'1.7'
p754
sg16
S'.000'
p755
sg18
S'0.0'
p756
sg20
S'21.8'
p757
sg22
g23
sg569
S'106'
p758
sg24
S'.808'
p759
sg28
S'NBA'
p760
sg30
S'1.6'
p761
sg32
S'17.5'
p762
sg34
S'5.9'
p763
sg36
S'5.8'
p764
sg38
S'14.8'
p765
sg40
S'27'
p766
sg42
S'TOT'
p767
sg44
S'76'
p768
sg46
S'1.9'
p769
sg48
S'8.6'
p770
sg50
S'4.7'
p771
sg52
S'17.5'
p772
sg54
S'10.2'
p773
sg56
S'1988-89'
p774
sg58
S'8.6'
p775
sg60
S'3.7'
p776
sg62
S'.490'
p777
sg64
S'2329'
p778
sg66
S'71'
p779
sba(isrc.gp1.models.Per100Possession
Per100Possession
p780
(dp781
g8
S'4.5'
p782
sg10
S'0.0'
p783
sg12
S'.461'
p784
sg563
S'100'
p785
sg14
S'1.6'
p786
sg16
S'.000'
p787
sg18
S'0.0'
p788
sg20
S'24.2'
p789
sg22
g23
sg569
S'106'
p790
sg24
S'.809'
p791
sg28
S'NBA'
p792
sg30
S'1.7'
p793
sg32
S'20.1'
p794
sg34
S'5.7'
p795
sg36
S'7.0'
p796
sg38
S'14.7'
p797
sg40
S'27'
p798
sg42
S'SAC'
p799
sg44
S'43'
p800
sg46
S'2.1'
p801
sg48
S'9.2'
p802
sg50
S'5.7'
p803
sg52
S'20.0'
p804
sg54
S'10.2'
p805
sg56
S'1988-89'
p806
sg58
S'9.2'
p807
sg60
S'4.4'
p808
sg62
S'.462'
p809
sg64
S'1276'
p810
sg66
S'42'
p811
sba(isrc.gp1.models.Per100Possession
Per100Possession
p812
(dp813
g8
S'4.8'
p814
sg10
S'0.0'
p815
sg12
S'.538'
p816
sg563
S'113'
p817
sg14
S'1.7'
p818
sg16
g3
sg18
S'0.0'
p819
sg20
S'19.0'
p820
sg22
g23
sg569
S'107'
p821
sg24
S'.806'
p822
sg28
S'NBA'
p823
sg30
S'1.5'
p824
sg32
S'14.4'
p825
sg34
S'6.1'
p826
sg36
S'4.3'
p827
sg38
S'15.0'
p828
sg40
S'27'
p829
sg42
S'IND'
p830
sg44
S'33'
p831
sg46
S'1.8'
p832
sg48
S'7.8'
p833
sg50
S'3.4'
p834
sg52
S'14.4'
p835
sg54
S'10.2'
p836
sg56
S'1988-89'
p837
sg58
S'7.8'
p838
sg60
S'2.8'
p839
sg62
S'.538'
p840
sg64
S'1053'
p841
sg66
S'29'
p842
sba(isrc.gp1.models.Per100Possession
Per100Possession
p843
(dp844
g8
S'4.1'
p845
sg10
S'0.1'
p846
sg12
S'.473'
p847
sg563
S'99'
p848
sg14
S'2.5'
p849
sg16
S'.200'
p850
sg18
S'0.0'
p851
sg20
S'12.9'
p852
sg22
g23
sg569
S'107'
p853
sg24
S'.799'
p854
sg28
S'NBA'
p855
sg30
S'1.5'
p856
sg32
S'11.0'
p857
sg34
S'7.3'
p858
sg36
S'3.1'
p859
sg38
S'14.7'
p860
sg40
S'28'
p861
sg42
S'IND'
p862
sg44
S'82'
p863
sg46
S'1.7'
p864
sg48
S'5.2'
p865
sg50
S'2.5'
p866
sg52
S'10.8'
p867
sg54
S'10.6'
p868
sg56
S'1989-90'
p869
sg58
S'5.2'
p870
sg60
S'3.5'
p871
sg62
S'.476'
p872
sg64
S'2126'
p873
sg66
S'60'
p874
sba(isrc.gp1.models.Per100Possession
Per100Possession
p875
(dp876
g8
S'3.8'
p877
sg10
S'0.1'
p878
sg12
S'.488'
p879
sg563
S'96'
p880
sg14
S'3.6'
p881
sg16
S'.200'
p882
sg18
S'0.0'
p883
sg20
S'15.5'
p884
sg22
g23
sg569
S'108'
p885
sg24
S'.692'
p886
sg28
S'NBA'
p887
sg30
S'1.6'
p888
sg32
S'14.0'
p889
sg34
S'6.6'
p890
sg36
S'2.6'
p891
sg38
S'14.0'
p892
sg40
S'29'
p893
sg42
S'IND'
p894
sg44
S'82'
p895
sg46
S'1.6'
p896
sg48
S'6.8'
p897
sg50
S'1.8'
p898
sg52
S'13.9'
p899
sg54
S'10.2'
p900
sg56
S'1990-91'
p901
sg58
S'6.9'
p902
sg60
S'4.2'
p903
sg62
S'.491'
p904
sg64
S'1946'
p905
sg66
S'77'
p906
sba(isrc.gp1.models.Per100Possession
Per100Possession
p907
(dp908
g8
S'3.7'
p909
sg10
S'0.1'
p910
sg12
S'.468'
p911
sg563
S'98'
p912
sg14
S'3.8'
p913
sg16
S'.000'
p914
sg18
S'0.0'
p915
sg20
S'14.7'
p916
sg22
g23
sg569
S'106'
p917
sg24
S'.817'
p918
sg28
S'NBA'
p919
sg30
S'1.9'
p920
sg32
S'13.4'
p921
sg34
S'7.7'
p922
sg36
S'2.7'
p923
sg38
S'14.2'
p924
sg40
S'30'
p925
sg42
S'IND'
p926
sg44
S'80'
p927
sg46
S'1.3'
p928
sg48
S'6.3'
p929
sg50
S'2.2'
p930
sg52
S'13.3'
p931
sg54
S'10.6'
p932
sg56
S'1991-92'
p933
sg58
S'6.3'
p934
sg60
S'3.7'
p935
sg62
S'.471'
p936
sg64
S'1299'
p937
sg66
S'49'
p938
sba(isrc.gp1.models.Per100Possession
Per100Possession
p939
(dp940
g8
S'3.8'
p941
sg10
S'0.1'
p942
sg12
S'.488'
p943
sg563
S'100'
p944
sg14
S'2.3'
p945
sg16
S'.000'
p946
sg18
S'0.0'
p947
sg20
S'16.2'
p948
sg22
g23
sg569
S'107'
p949
sg24
S'.744'
p950
sg28
S'NBA'
p951
sg30
S'2.0'
p952
sg32
S'14.6'
p953
sg34
S'9.4'
p954
sg36
S'2.7'
p955
sg38
S'12.2'
p956
sg40
S'31'
p957
sg42
S'IND'
p958
sg44
S'63'
p959
sg46
S'1.6'
p960
sg48
S'7.1'
p961
sg50
S'2.0'
p962
sg52
S'14.5'
p963
sg54
S'8.4'
p964
sg56
S'1992-93'
p965
sg58
S'7.1'
p966
sg60
S'3.2'
p967
sg62
S'.491'
p968
sg64
S'730'
p969
sg66
g19
sba(isrc.gp1.models.Per100Possession
Per100Possession
p970
(dp971
g8
S'4.7'
p972
sg10
S'0.0'
p973
sg12
S'.351'
p974
sg563
S'82'
p975
sg14
S'2.9'
p976
sg16
g3
sg18
S'0.0'
p977
sg20
S'12.8'
p978
sg22
g23
sg569
S'101'
p979
sg24
S'.533'
p980
sg28
S'NBA'
p981
sg30
S'1.8'
p982
sg32
S'14.1'
p983
sg34
S'10.8'
p984
sg36
S'5.5'
p985
sg38
S'13.7'
p986
sg40
S'32'
p987
sg42
S'IND'
p988
sg44
S'30'
p989
sg46
S'1.5'
p990
sg48
S'4.9'
p991
sg50
S'2.9'
p992
sg52
S'14.1'
p993
sg54
S'8.9'
p994
sg56
S'1993-94'
p995
sg58
S'4.9'
p996
sg60
S'4.2'
p997
sg62
S'.351'
p998
sg64
S'282'
p999
sg66
g11
sba(isrc.gp1.models.Per100Possession
Per100Possession
p1000
(dp1001
g8
S'3.3'
p1002
sg10
S'0.0'
p1003
sg12
S'.415'
p1004
sg563
S'86'
p1005
sg14
S'2.1'
p1006
sg16
g3
sg18
S'0.0'
p1007
sg20
S'13.2'
p1008
sg22
g23
sg569
S'104'
p1009
sg24
S'.875'
p1010
sg28
S'NBA'
p1011
sg30
S'2.1'
p1012
sg32
S'13.9'
p1013
sg34
S'8.9'
p1014
sg36
S'1.9'
p1015
sg38
S'10.5'
p1016
sg40
S'33'
p1017
sg42
S'IND'
p1018
sg44
S'38'
p1019
sg46
S'1.2'
p1020
sg48
S'5.8'
p1021
sg50
S'1.6'
p1022
sg52
S'13.9'
p1023
sg54
S'7.2'
p1024
sg56
S'1994-95'
p1025
sg58
S'5.8'
p1026
sg60
S'3.9'
p1027
sg62
S'.415'
p1028
sg64
S'453'
p1029
sg66
g67
sba(isrc.gp1.models.Per100Possession
Per100Possession
p1030
(dp1031
g8
S'4.2'
p1032
sg10
S'0.0'
p1033
sg12
S'.398'
p1034
sg563
S'92'
p1035
sg14
S'1.8'
p1036
sg16
g3
sg18
S'0.0'
p1037
sg20
S'5.7'
p1038
sg22
g23
sg569
S'111'
p1039
sg24
S'.792'
p1040
sg28
S'NBA'
p1041
sg30
S'1.3'
p1042
sg32
S'5.6'
p1043
sg34
S'8.4'
p1044
sg36
S'1.6'
p1045
sg38
S'13.4'
p1046
sg40
S'34'
p1047
sg42
S'PHI'
p1048
sg44
S'44'
p1049
sg46
S'1.3'
p1050
sg48
S'2.2'
p1051
sg50
S'1.3'
p1052
sg52
S'5.6'
p1053
sg54
S'9.2'
p1054
sg56
S'1995-96'
p1055
sg58
S'2.2'
p1056
sg60
S'2.5'
p1057
sg62
S'.398'
p1058
sg64
S'773'
p1059
sg66
S'11'
p1060
sba(isrc.gp1.models.Per100Possession
Per100Possession
p1061
(dp1062
g8
S'2.6'
p1063
sg10
S'0.0'
p1064
sg12
S'.158'
p1065
sg563
S'51'
p1066
sg14
S'0.7'
p1067
sg16
g3
sg18
S'0.0'
p1068
sg20
S'3.7'
p1069
sg22
g23
sg569
S'106'
p1070
sg24
S'.667'
p1071
sg28
S'NBA'
p1072
sg30
S'1.1'
p1073
sg32
S'7.1'
p1074
sg34
S'12.4'
p1075
sg36
S'2.2'
p1076
sg38
S'12.7'
p1077
sg40
S'35'
p1078
sg42
S'TOT'
p1079
sg44
S'26'
p1080
sg46
S'2.2'
p1081
sg48
S'1.1'
p1082
sg50
S'1.5'
p1083
sg52
S'7.1'
p1084
sg54
S'10.1'
p1085
sg56
S'1996-97'
p1086
sg58
S'1.1'
p1087
sg60
S'3.4'
p1088
sg62
S'.158'
p1089
sg64
S'140'
p1090
sg66
g19
sba(isrc.gp1.models.Per100Possession
Per100Possession
p1091
(dp1092
g8
S'2.5'
p1093
sg10
S'0.0'
p1094
sg12
S'.188'
p1095
sg563
S'44'
p1096
sg14
S'0.0'
p1097
sg16
g3
sg18
S'0.0'
p1098
sg20
S'3.5'
p1099
sg22
g23
sg569
S'106'
p1100
sg24
S'.500'
p1101
sg28
S'NBA'
p1102
sg30
S'1.5'
p1103
sg32
S'7.9'
p1104
sg34
S'12.9'
p1105
sg36
S'1.0'
p1106
sg38
S'12.9'
p1107
sg40
S'35'
p1108
sg42
S'DEN'
p1109
sg44
S'17'
p1110
sg46
S'3.0'
p1111
sg48
S'1.5'
p1112
sg50
S'0.5'
p1113
sg52
S'7.9'
p1114
sg54
S'10.4'
p1115
sg56
S'1996-97'
p1116
sg58
S'1.5'
p1117
sg60
S'3.5'
p1118
sg62
S'.188'
p1119
sg64
S'105'
p1120
sg66
g19
sba(isrc.gp1.models.Per100Possession
Per100Possession
p1121
(dp1122
g8
S'3.1'
p1123
sg10
S'0.0'
p1124
sg12
S'.000'
p1125
sg563
S'76'
p1126
sg14
S'3.1'
p1127
sg16
g3
sg18
S'0.0'
p1128
sg20
S'4.6'
p1129
sg22
g23
sg569
S'107'
p1130
sg24
S'.750'
p1131
sg28
S'NBA'
p1132
sg30
S'0.0'
p1133
sg32
S'4.6'
p1134
sg34
S'10.8'
p1135
sg36
S'6.2'
p1136
sg38
S'12.3'
p1137
sg40
S'35'
p1138
sg42
S'IND'
p1139
sg44
g212
sg46
S'0.0'
p1140
sg48
S'0.0'
p1141
sg50
S'4.6'
p1142
sg52
S'4.6'
p1143
sg54
S'9.2'
p1144
sg56
S'1996-97'
p1145
sg58
S'0.0'
p1146
sg60
S'3.1'
p1147
sg62
S'.000'
p1148
sg64
S'35'
p1149
sg66
g19
sbasS'_advanced'
p1150
(lp1151
(isrc.gp1.models.Advanced
Advanced
p1152
(dp1153
S'_offensiveReboundPercentage'
p1154
S'14.6'
p1155
sS'_turnOverPercentage'
p1156
S'21.7'
p1157
sS'_winSharesPer48Minutes'
p1158
S'.110'
p1159
sS'_stealPercentage'
p1160
S'1.8'
p1161
sS'_usagePercentage'
p1162
S'17.3'
p1163
sS'_totalReboundsPercentage'
p1164
S'20.5'
p1165
sS'_defensiveBoxPlusMinus'
p1166
S'1.1'
p1167
sg22
g23
sS'_valueOverReplacementPlayer'
p1168
S'0.2'
p1169
sS'_trueShootingPercentage'
p1170
S'.551'
p1171
sS'_defensiveReboundPercentage'
p1172
S'26.5'
p1173
sS'_freeThrowsAttempRate'
p1174
S'.477'
p1175
sS'_threePointsAttempRate'
p1176
S'.003'
p1177
sg28
S'NBA'
p1178
sS'_offensiveBoxPlusMinues'
p1179
S'-2.2'
p1180
sS'_assistPercentage'
p1181
S'4.2'
p1182
sS'_defensiveWinShares'
p1183
S'1.7'
p1184
sg40
S'21'
p1185
sg42
S'KCK'
p1186
sg44
S'71'
p1187
sS'_blockPercentage'
p1188
S'3.5'
p1189
sS'_playerEfficiencyRating'
p1190
S'14.7'
p1191
sS'_offensiveWinShares'
p1192
S'0.5'
p1193
sg64
S'987'
p1194
sS'_boxPlusMinus'
p1195
S'-1.1'
p1196
sg56
S'1982-83'
p1197
sS'_winShares'
p1198
S'2.3'
p1199
sba(isrc.gp1.models.Advanced
Advanced
p1200
(dp1201
g1154
S'15.2'
p1202
sg1156
S'18.6'
p1203
sg1158
S'.122'
p1204
sg1160
S'1.7'
p1205
sg1162
S'19.0'
p1206
sg1164
S'21.1'
p1207
sg1166
S'2.5'
p1208
sg22
g23
sg1168
S'1.7'
p1209
sg1170
S'.562'
p1210
sg1172
S'27.3'
p1211
sg1174
S'.350'
p1212
sg1176
S'.000'
p1213
sg28
S'NBA'
p1214
sg1179
S'-1.0'
p1215
sg1181
S'6.3'
p1216
sg1183
S'3.3'
p1217
sg40
S'22'
p1218
sg42
S'KCK'
p1219
sg44
S'80'
p1220
sg1188
S'4.3'
p1221
sg1190
S'16.9'
p1222
sg1192
S'1.5'
p1223
sg64
S'1915'
p1224
sg1195
S'1.5'
p1225
sg56
S'1983-84'
p1226
sg1198
S'4.9'
p1227
sba(isrc.gp1.models.Advanced
Advanced
p1228
(dp1229
g1154
S'12.8'
p1230
sg1156
S'19.5'
p1231
sg1158
S'.103'
p1232
sg1160
S'1.8'
p1233
sg1162
S'16.6'
p1234
sg1164
S'19.8'
p1235
sg1166
S'2.1'
p1236
sg22
g23
sg1168
S'2.3'
p1237
sg1170
S'.579'
p1238
sg1172
S'26.7'
p1239
sg1174
S'.453'
p1240
sg1176
S'.000'
p1241
sg28
S'NBA'
p1242
sg1179
S'-0.3'
p1243
sg1181
S'6.8'
p1244
sg1183
S'3.0'
p1245
sg40
S'23'
p1246
sg42
S'KCK'
p1247
sg44
S'82'
p1248
sg1188
S'2.9'
p1249
sg1190
S'15.6'
p1250
sg1192
S'2.3'
p1251
sg64
S'2458'
p1252
sg1195
S'1.8'
p1253
sg56
S'1984-85'
p1254
sg1198
S'5.3'
p1255
sba(isrc.gp1.models.Advanced
Advanced
p1256
(dp1257
g1154
S'12.1'
p1258
sg1156
S'16.7'
p1259
sg1158
S'.113'
p1260
sg1160
S'1.4'
p1261
sg1162
S'18.7'
p1262
sg1164
S'18.3'
p1263
sg1166
S'1.9'
p1264
sg22
g23
sg1168
S'2.4'
p1265
sg1170
S'.559'
p1266
sg1172
S'24.5'
p1267
sg1174
S'.348'
p1268
sg1176
S'.001'
p1269
sg28
S'NBA'
p1270
sg1179
S'0.0'
p1271
sg1181
S'9.8'
p1272
sg1183
S'3.1'
p1273
sg40
S'24'
p1274
sg42
S'SAC'
p1275
sg44
S'80'
p1276
sg1188
S'2.6'
p1277
sg1190
S'16.4'
p1278
sg1192
S'2.5'
p1279
sg64
S'2377'
p1280
sg1195
S'1.9'
p1281
sg56
S'1985-86'
p1282
sg1198
S'5.6'
p1283
sba(isrc.gp1.models.Advanced
Advanced
p1284
(dp1285
g1154
S'11.9'
p1286
sg1156
S'14.2'
p1287
sg1158
S'.100'
p1288
sg1160
S'1.5'
p1289
sg1162
S'18.6'
p1290
sg1164
S'17.3'
p1291
sg1166
S'1.5'
p1292
sg22
g23
sg1168
S'1.5'
p1293
sg1170
S'.528'
p1294
sg1172
S'22.8'
p1295
sg1174
S'.339'
p1296
sg1176
S'.007'
p1297
sg28
S'NBA'
p1298
sg1179
S'-0.8'
p1299
sg1181
S'7.8'
p1300
sg1183
S'2.5'
p1301
sg40
S'25'
p1302
sg42
S'SAC'
p1303
sg44
S'82'
p1304
sg1188
S'3.3'
p1305
sg1190
S'15.7'
p1306
sg1192
S'2.0'
p1307
sg64
S'2166'
p1308
sg1195
S'0.7'
p1309
sg56
S'1986-87'
p1310
sg1198
S'4.5'
p1311
sba(isrc.gp1.models.Advanced
Advanced
p1312
(dp1313
g1154
S'11.9'
p1314
sg1156
S'17.1'
p1315
sg1158
S'.074'
p1316
sg1160
S'2.0'
p1317
sg1162
S'20.4'
p1318
sg1164
S'18.5'
p1319
sg1166
S'1.0'
p1320
sg22
g23
sg1168
S'0.2'
p1321
sg1170
S'.521'
p1322
sg1172
S'25.2'
p1323
sg1174
S'.360'
p1324
sg1176
S'.011'
p1325
sg28
S'NBA'
p1326
sg1179
S'-2.2'
p1327
sg1181
S'7.7'
p1328
sg1183
S'1.6'
p1329
sg40
S'26'
p1330
sg42
S'SAC'
p1331
sg44
S'69'
p1332
sg1188
S'3.2'
p1333
sg1190
S'15.3'
p1334
sg1192
S'0.3'
p1335
sg64
S'1257'
p1336
sg1195
S'-1.3'
p1337
sg56
S'1987-88'
p1338
sg1198
S'1.9'
p1339
sba(isrc.gp1.models.Advanced
Advanced
p1340
(dp1341
g1154
S'10.7'
p1342
sg1156
S'15.5'
p1343
sg1158
S'.090'
p1344
sg1160
S'1.6'
p1345
sg1162
S'20.4'
p1346
sg1164
S'16.8'
p1347
sg1166
S'0.5'
p1348
sg22
g23
sg1168
S'0.4'
p1349
sg1170
S'.544'
p1350
sg1172
S'22.7'
p1351
sg1174
S'.331'
p1352
sg1176
S'.001'
p1353
sg28
S'NBA'
p1354
sg1179
S'-1.7'
p1355
sg1181
S'5.2'
p1356
sg1183
S'2.9'
p1357
sg40
S'27'
p1358
sg42
S'TOT'
p1359
sg44
S'76'
p1360
sg1188
S'2.3'
p1361
sg1190
S'15.6'
p1362
sg1192
S'1.5'
p1363
sg64
S'2329'
p1364
sg1195
S'-1.2'
p1365
sg56
S'1988-89'
p1366
sg1198
S'4.4'
p1367
sba(isrc.gp1.models.Advanced
Advanced
p1368
(dp1369
g1154
S'9.9'
p1370
sg1156
S'15.9'
p1371
sg1158
S'.065'
p1372
sg1160
S'1.7'
p1373
sg1162
S'23.6'
p1374
sg1164
S'16.5'
p1375
sg1166
S'0.1'
p1376
sg22
g23
sg1168
S'-0.3'
p1377
sg1170
S'.522'
p1378
sg1172
S'23.3'
p1379
sg1174
S'.351'
p1380
sg1176
S'.002'
p1381
sg28
S'NBA'
p1382
sg1179
S'-3.0'
p1383
sg1181
S'5.3'
p1384
sg1183
S'1.7'
p1385
sg40
S'27'
p1386
sg42
S'SAC'
p1387
sg44
S'43'
p1388
sg1188
S'2.5'
p1389
sg1190
S'15.6'
p1390
sg1192
S'0.1'
p1391
sg64
S'1276'
p1392
sg1195
S'-2.8'
p1393
sg56
S'1988-89'
p1394
sg1198
S'1.7'
p1395
sba(isrc.gp1.models.Advanced
Advanced
p1396
(dp1397
g1154
S'11.6'
p1398
sg1156
S'14.9'
p1399
sg1158
S'.120'
p1400
sg1160
S'1.5'
p1401
sg1162
S'16.6'
p1402
sg1164
S'17.2'
p1403
sg1166
S'0.8'
p1404
sg22
g23
sg1168
S'0.7'
p1405
sg1170
S'.582'
p1406
sg1172
S'22.1'
p1407
sg1174
S'.296'
p1408
sg1176
S'.000'
p1409
sg28
S'NBA'
p1410
sg1179
S'-0.2'
p1411
sg1181
S'5.1'
p1412
sg1183
S'1.2'
p1413
sg40
S'27'
p1414
sg42
S'IND'
p1415
sg44
S'33'
p1416
sg1188
S'2.1'
p1417
sg1190
S'15.5'
p1418
sg1192
S'1.4'
p1419
sg64
S'1053'
p1420
sg1195
S'0.7'
p1421
sg56
S'1988-89'
p1422
sg1198
S'2.6'
p1423
sba(isrc.gp1.models.Advanced
Advanced
p1424
(dp1425
g1154
S'10.1'
p1426
sg1156
S'22.1'
p1427
sg1158
S'.055'
p1428
sg1160
S'1.5'
p1429
sg1162
S'13.9'
p1430
sg1164
S'17.3'
p1431
sg1166
S'1.6'
p1432
sg22
g23
sg1168
S'0.4'
p1433
sg1170
S'.523'
p1434
sg1172
S'23.9'
p1435
sg1174
S'.285'
p1436
sg1176
S'.011'
p1437
sg28
S'NBA'
p1438
sg1179
S'-2.8'
p1439
sg1181
S'6.7'
p1440
sg1183
S'2.5'
p1441
sg40
S'28'
p1442
sg42
S'IND'
p1443
sg44
S'82'
p1444
sg1188
S'2.0'
p1445
sg1190
S'10.3'
p1446
sg1192
S'0.0'
p1447
sg64
S'2126'
p1448
sg1195
S'-1.2'
p1449
sg56
S'1989-90'
p1450
sg1198
S'2.4'
p1451
sba(isrc.gp1.models.Advanced
Advanced
p1452
(dp1453
g1154
S'9.4'
p1454
sg1156
S'21.6'
p1455
sg1158
S'.030'
p1456
sg1160
S'1.6'
p1457
sg1162
S'16.8'
p1458
sg1164
S'16.6'
p1459
sg1166
S'1.1'
p1460
sg22
g23
sg1168
S'0.2'
p1461
sg1170
S'.512'
p1462
sg1172
S'23.3'
p1463
sg1174
S'.184'
p1464
sg1176
S'.009'
p1465
sg28
S'NBA'
p1466
sg1179
S'-2.7'
p1467
sg1181
S'10.4'
p1468
sg1183
S'1.9'
p1469
sg40
S'29'
p1470
sg42
S'IND'
p1471
sg44
S'82'
p1472
sg1188
S'1.9'
p1473
sg1190
S'11.2'
p1474
sg1192
S'-0.7'
p1475
sg64
S'1946'
p1476
sg1195
S'-1.6'
p1477
sg56
S'1990-91'
p1478
sg1198
S'1.2'
p1479
sba(isrc.gp1.models.Advanced
Advanced
p1480
(dp1481
g1154
S'8.8'
p1482
sg1156
S'20.1'
p1483
sg1158
S'.058'
p1484
sg1160
S'1.9'
p1485
sg1162
S'15.8'
p1486
sg1164
S'16.2'
p1487
sg1166
S'1.4'
p1488
sg22
g23
sg1168
S'0.0'
p1489
sg1170
S'.505'
p1490
sg1172
S'22.9'
p1491
sg1174
S'.198'
p1492
sg1176
S'.006'
p1493
sg28
S'NBA'
p1494
sg1179
S'-3.4'
p1495
sg1181
S'10.5'
p1496
sg1183
S'1.7'
p1497
sg40
S'30'
p1498
sg42
S'IND'
p1499
sg44
S'80'
p1500
sg1188
S'1.6'
p1501
sg1190
S'10.9'
p1502
sg1192
S'-0.2'
p1503
sg64
S'1299'
p1504
sg1195
S'-2.0'
p1505
sg56
S'1991-92'
p1506
sg1198
S'1.6'
p1507
sba(isrc.gp1.models.Advanced
Advanced
p1508
(dp1509
g1154
S'8.4'
p1510
sg1156
S'17.0'
p1511
sg1158
S'.061'
p1512
sg1160
S'2.0'
p1513
sg1162
S'16.1'
p1514
sg1164
S'13.4'
p1515
sg1166
S'0.6'
p1516
sg22
g23
sg1168
S'-0.1'
p1517
sg1170
S'.515'
p1518
sg1172
S'18.3'
p1519
sg1174
S'.183'
p1520
sg1176
S'.005'
p1521
sg28
S'NBA'
p1522
sg1179
S'-3.0'
p1523
sg1181
S'6.6'
p1524
sg1183
S'0.9'
p1525
sg40
S'31'
p1526
sg42
S'IND'
p1527
sg44
S'63'
p1528
sg1188
S'2.1'
p1529
sg1190
S'10.7'
p1530
sg1192
S'0.1'
p1531
sg64
S'730'
p1532
sg1195
S'-2.4'
p1533
sg56
S'1992-93'
p1534
sg1198
S'0.9'
p1535
sba(isrc.gp1.models.Advanced
Advanced
p1536
(dp1537
g1154
S'11.1'
p1538
sg1156
S'20.3'
p1539
sg1158
S'-0.005'
p1540
sg1160
S'1.8'
p1541
sg1162
S'17.6'
p1542
sg1164
S'15.4'
p1543
sg1166
S'1.0'
p1544
sg22
g23
sg1168
S'-0.2'
p1545
sg1170
S'.388'
p1546
sg1172
S'19.4'
p1547
sg1174
S'.390'
p1548
sg1176
S'.000'
p1549
sg28
S'NBA'
p1550
sg1179
S'-5.7'
p1551
sg1181
S'8.0'
p1552
sg1183
S'0.5'
p1553
sg40
S'32'
p1554
sg42
S'IND'
p1555
sg44
S'30'
p1556
sg1188
S'1.9'
p1557
sg1190
S'6.1'
p1558
sg1192
S'-0.5'
p1559
sg64
S'282'
p1560
sg1195
S'-4.7'
p1561
sg56
S'1993-94'
p1562
sg1198
S'0.0'
p1563
sba(isrc.gp1.models.Advanced
Advanced
p1564
(dp1565
g1154
S'7.6'
p1566
sg1156
S'20.9'
p1567
sg1158
S'.015'
p1568
sg1160
S'2.1'
p1569
sg1162
S'16.0'
p1570
sg1164
S'11.9'
p1571
sg1166
S'1.6'
p1572
sg22
g23
sg1168
S'-0.2'
p1573
sg1170
S'.448'
p1574
sg1172
S'16.0'
p1575
sg1174
S'.136'
p1576
sg1176
S'.000'
p1577
sg28
S'NBA'
p1578
sg1179
S'-5.2'
p1579
sg1181
S'6.2'
p1580
sg1183
S'0.7'
p1581
sg40
S'33'
p1582
sg42
S'IND'
p1583
sg44
S'38'
p1584
sg1188
S'1.7'
p1585
sg1190
S'6.8'
p1586
sg1192
S'-0.6'
p1587
sg64
S'453'
p1588
sg1195
S'-3.7'
p1589
sg56
S'1994-95'
p1590
sg1198
S'0.1'
p1591
sba(isrc.gp1.models.Advanced
Advanced
p1592
(dp1593
g1154
S'9.0'
p1594
sg1156
S'28.3'
p1595
sg1158
S'.013'
p1596
sg1160
S'1.3'
p1597
sg1162
S'7.5'
p1598
sg1164
S'14.9'
p1599
sg1166
S'1.2'
p1600
sg22
g23
sg1168
S'-0.4'
p1601
sg1170
S'.454'
p1602
sg1172
S'21.0'
p1603
sg1174
S'.289'
p1604
sg1176
S'.000'
p1605
sg28
S'NBA'
p1606
sg1179
S'-5.2'
p1607
sg1181
S'5.1'
p1608
sg1183
S'0.5'
p1609
sg40
S'34'
p1610
sg42
S'PHI'
p1611
sg44
S'44'
p1612
sg1188
S'1.9'
p1613
sg1190
S'6.2'
p1614
sg1192
S'-0.3'
p1615
sg64
S'773'
p1616
sg1195
S'-4.0'
p1617
sg56
S'1995-96'
p1618
sg1198
S'0.2'
p1619
sba(isrc.gp1.models.Advanced
Advanced
p1620
(dp1621
g1154
S'5.9'
p1622
sg1156
S'29.4'
p1623
sg1158
S'-0.086'
p1624
sg1160
S'1.1'
p1625
sg1162
S'9.9'
p1626
sg1164
S'14.0'
p1627
sg1166
S'-0.2'
p1628
sg22
g23
sg1168
S'-0.3'
p1629
sg1170
S'.231'
p1630
sg1172
S'21.9'
p1631
sg1174
S'.316'
p1632
sg1176
S'.000'
p1633
sg28
S'NBA'
p1634
sg1179
S'-10.9'
p1635
sg1181
S'2.0'
p1636
sg1183
S'0.2'
p1637
sg40
S'35'
p1638
sg42
S'TOT'
p1639
sg44
S'26'
p1640
sg1188
S'2.9'
p1641
sg1190
S'-0.5'
p1642
sg1192
S'-0.4'
p1643
sg64
S'140'
p1644
sg1195
S'-11.1'
p1645
sg56
S'1996-97'
p1646
sg1198
S'-0.3'
p1647
sba(isrc.gp1.models.Advanced
Advanced
p1648
(dp1649
g1154
S'5.5'
p1650
sg1156
S'29.3'
p1651
sg1158
S'-0.109'
p1652
sg1160
S'1.5'
p1653
sg1162
S'10.2'
p1654
sg1164
S'14.1'
p1655
sg1166
S'-0.4'
p1656
sg22
g23
sg1168
S'-0.3'
p1657
sg1170
S'.207'
p1658
sg1172
S'22.5'
p1659
sg1174
S'.125'
p1660
sg1176
S'.000'
p1661
sg28
S'NBA'
p1662
sg1179
S'-12.2'
p1663
sg1181
S'0.0'
p1664
sg1183
S'0.1'
p1665
sg40
S'35'
p1666
sg42
S'DEN'
p1667
sg44
S'17'
p1668
sg1188
S'3.9'
p1669
sg1190
S'-0.9'
p1670
sg1192
S'-0.4'
p1671
sg64
S'105'
p1672
sg1195
S'-12.6'
p1673
sg56
S'1996-97'
p1674
sg1198
S'-0.2'
p1675
sba(isrc.gp1.models.Advanced
Advanced
p1676
(dp1677
g1154
S'6.9'
p1678
sg1156
S'29.6'
p1679
sg1158
S'-0.017'
p1680
sg1160
S'0.0'
p1681
sg1162
S'8.9'
p1682
sg1164
S'13.6'
p1683
sg1166
S'0.3'
p1684
sg22
g23
sg1168
S'0.0'
p1685
sg1170
S'.315'
p1686
sg1172
S'20.1'
p1687
sg1174
S'1.333'
p1688
sg1176
S'.000'
p1689
sg28
S'NBA'
p1690
sg1179
S'-7.0'
p1691
sg1181
S'8.0'
p1692
sg1183
S'0.0'
p1693
sg40
S'35'
p1694
sg42
S'IND'
p1695
sg44
g212
sg1188
S'0.0'
p1696
sg1190
S'0.8'
p1697
sg1192
S'0.0'
p1698
sg64
S'35'
p1699
sg1195
S'-6.7'
p1700
sg56
S'1996-97'
p1701
sg1198
S'0.0'
p1702
sbasS'_per36Minutes'
p1703
(lp1704
(isrc.gp1.models.Per36Minutes
Per36Minutes
p1705
(dp1706
g8
S'4.9'
p1707
sg10
S'0.0'
p1708
sg12
S'.512'
p1709
sg14
S'1.2'
p1710
sg16
S'.000'
p1711
sg18
S'0.0'
p1712
sg20
S'14.0'
p1713
sg22
g23
sg24
S'.650'
p1714
sg28
S'NBA'
p1715
sg30
S'1.5'
p1716
sg32
S'10.5'
p1717
sg34
S'6.8'
p1718
sg36
S'5.0'
p1719
sg38
S'13.7'
p1720
sg40
S'21'
p1721
sg42
S'KCK'
p1722
sg44
S'71'
p1723
sg46
S'2.2'
p1724
sg48
S'5.4'
p1725
sg50
S'3.2'
p1726
sg52
S'10.4'
p1727
sg54
S'8.8'
p1728
sg56
S'1982-83'
p1729
sg58
S'5.4'
p1730
sg60
S'3.5'
p1731
sg62
S'.514'
p1732
sg64
S'987'
p1733
sg66
g67
sba(isrc.gp1.models.Per36Minutes
Per36Minutes
p1734
(dp1735
g8
S'4.9'
p1736
sg10
S'0.0'
p1737
sg12
S'.523'
p1738
sg14
S'1.6'
p1739
sg16
g3
sg18
S'0.0'
p1740
sg20
S'15.5'
p1741
sg22
g23
sg24
S'.717'
p1742
sg28
S'NBA'
p1743
sg30
S'1.3'
p1744
sg32
S'12.0'
p1745
sg34
S'6.1'
p1746
sg36
S'4.2'
p1747
sg38
S'13.3'
p1748
sg40
S'22'
p1749
sg42
S'KCK'
p1750
sg44
S'80'
p1751
sg46
S'2.7'
p1752
sg48
S'6.3'
p1753
sg50
S'3.0'
p1754
sg52
S'12.0'
p1755
sg54
S'8.4'
p1756
sg56
S'1983-84'
p1757
sg58
S'6.3'
p1758
sg60
S'3.2'
p1759
sg62
S'.523'
p1760
sg64
S'1915'
p1761
sg66
S'38'
p1762
sba(isrc.gp1.models.Per36Minutes
Per36Minutes
p1763
(dp1764
g8
S'4.0'
p1765
sg10
S'0.0'
p1766
sg12
S'.531'
p1767
sg14
S'1.9'
p1768
sg16
g3
sg18
S'0.0'
p1769
sg20
S'14.1'
p1770
sg22
g23
sg24
S'.721'
p1771
sg28
S'NBA'
p1772
sg30
S'1.4'
p1773
sg32
S'10.2'
p1774
sg34
S'4.8'
p1775
sg36
S'4.6'
p1776
sg38
S'12.5'
p1777
sg40
S'23'
p1778
sg42
S'KCK'
p1779
sg44
S'82'
p1780
sg46
S'1.9'
p1781
sg48
S'5.4'
p1782
sg50
S'3.3'
p1783
sg52
S'10.2'
p1784
sg54
S'8.5'
p1785
sg56
S'1984-85'
p1786
sg58
S'5.4'
p1787
sg60
S'3.0'
p1788
sg62
S'.531'
p1789
sg64
S'2458'
p1790
sg66
S'77'
p1791
sba(isrc.gp1.models.Per36Minutes
Per36Minutes
p1792
(dp1793
g8
S'3.8'
p1794
sg10
S'0.0'
p1795
sg12
S'.518'
p1796
sg14
S'2.5'
p1797
sg16
S'.000'
p1798
sg18
S'0.0'
p1799
sg20
S'15.5'
p1800
sg22
g23
sg24
S'.732'
p1801
sg28
S'NBA'
p1802
sg30
S'1.1'
p1803
sg32
S'12.0'
p1804
sg34
S'4.5'
p1805
sg36
S'4.2'
p1806
sg38
S'11.7'
p1807
sg40
S'24'
p1808
sg42
S'SAC'
p1809
sg44
S'80'
p1810
sg46
S'1.7'
p1811
sg48
S'6.2'
p1812
sg50
S'3.1'
p1813
sg52
S'12.0'
p1814
sg54
S'7.8'
p1815
sg56
S'1985-86'
p1816
sg58
S'6.2'
p1817
sg60
S'2.8'
p1818
sg62
S'.518'
p1819
sg64
S'2377'
p1820
sg66
S'64'
p1821
sba(isrc.gp1.models.Per36Minutes
Per36Minutes
p1822
(dp1823
g8
S'3.9'
p1824
sg10
S'0.1'
p1825
sg12
S'.481'
p1826
sg14
S'2.0'
p1827
sg16
S'.000'
p1828
sg18
S'0.0'
p1829
sg20
S'15.2'
p1830
sg22
g23
sg24
S'.737'
p1831
sg28
S'NBA'
p1832
sg30
S'1.1'
p1833
sg32
S'12.5'
p1834
sg34
S'4.8'
p1835
sg36
S'4.2'
p1836
sg38
S'11.4'
p1837
sg40
S'25'
p1838
sg42
S'SAC'
p1839
sg44
S'82'
p1840
sg46
S'2.1'
p1841
sg48
S'6.0'
p1842
sg50
S'3.1'
p1843
sg52
S'12.4'
p1844
sg54
S'7.5'
p1845
sg56
S'1986-87'
p1846
sg58
S'6.0'
p1847
sg60
S'2.4'
p1848
sg62
S'.485'
p1849
sg64
S'2166'
p1850
sg66
S'53'
p1851
sba(isrc.gp1.models.Per36Minutes
Per36Minutes
p1852
(dp1853
g8
S'4.0'
p1854
sg10
S'0.1'
p1855
sg12
S'.471'
p1856
sg14
S'1.9'
p1857
sg16
S'.400'
p1858
sg18
S'0.1'
p1859
sg20
S'15.8'
p1860
sg22
g23
sg24
S'.720'
p1861
sg28
S'NBA'
p1862
sg30
S'1.5'
p1863
sg32
S'13.1'
p1864
sg34
S'6.2'
p1865
sg36
S'4.7'
p1866
sg38
S'12.2'
p1867
sg40
S'26'
p1868
sg42
S'SAC'
p1869
sg44
S'69'
p1870
sg46
S'2.1'
p1871
sg48
S'6.1'
p1872
sg50
S'3.4'
p1873
sg52
S'12.9'
p1874
sg54
S'8.3'
p1875
sg56
S'1987-88'
p1876
sg58
S'6.2'
p1877
sg60
S'3.1'
p1878
sg62
S'.472'
p1879
sg64
S'1257'
p1880
sg66
g212
sba(isrc.gp1.models.Per36Minutes
Per36Minutes
p1881
(dp1882
g8
S'3.5'
p1883
sg10
S'0.0'
p1884
sg12
S'.489'
p1885
sg14
S'1.3'
p1886
sg16
S'.000'
p1887
sg18
S'0.0'
p1888
sg20
S'16.4'
p1889
sg22
g23
sg24
S'.808'
p1890
sg28
S'NBA'
p1891
sg30
S'1.2'
p1892
sg32
S'13.1'
p1893
sg34
S'4.4'
p1894
sg36
S'4.3'
p1895
sg38
S'11.1'
p1896
sg40
S'27'
p1897
sg42
S'TOT'
p1898
sg44
S'76'
p1899
sg46
S'1.5'
p1900
sg48
S'6.4'
p1901
sg50
S'3.5'
p1902
sg52
S'13.1'
p1903
sg54
S'7.6'
p1904
sg56
S'1988-89'
p1905
sg58
S'6.4'
p1906
sg60
S'2.8'
p1907
sg62
S'.490'
p1908
sg64
S'2329'
p1909
sg66
S'71'
p1910
sba(isrc.gp1.models.Per36Minutes
Per36Minutes
p1911
(dp1912
g8
S'3.4'
p1913
sg10
S'0.0'
p1914
sg12
S'.461'
p1915
sg14
S'1.2'
p1916
sg16
S'.000'
p1917
sg18
S'0.0'
p1918
sg20
S'18.2'
p1919
sg22
g23
sg24
S'.809'
p1920
sg28
S'NBA'
p1921
sg30
S'1.3'
p1922
sg32
S'15.1'
p1923
sg34
S'4.3'
p1924
sg36
S'5.3'
p1925
sg38
S'11.1'
p1926
sg40
S'27'
p1927
sg42
S'SAC'
p1928
sg44
S'43'
p1929
sg46
S'1.6'
p1930
sg48
S'7.0'
p1931
sg50
S'4.3'
p1932
sg52
S'15.1'
p1933
sg54
S'7.7'
p1934
sg56
S'1988-89'
p1935
sg58
S'7.0'
p1936
sg60
S'3.3'
p1937
sg62
S'.462'
p1938
sg64
S'1276'
p1939
sg66
S'42'
p1940
sba(isrc.gp1.models.Per36Minutes
Per36Minutes
p1941
(dp1942
g8
S'3.6'
p1943
sg10
S'0.0'
p1944
sg12
S'.538'
p1945
sg14
S'1.3'
p1946
sg16
g3
sg18
S'0.0'
p1947
sg20
S'14.1'
p1948
sg22
g23
sg24
S'.806'
p1949
sg28
S'NBA'
p1950
sg30
S'1.1'
p1951
sg32
S'10.7'
p1952
sg34
S'4.5'
p1953
sg36
S'3.2'
p1954
sg38
S'11.1'
p1955
sg40
S'27'
p1956
sg42
S'IND'
p1957
sg44
S'33'
p1958
sg46
S'1.3'
p1959
sg48
S'5.8'
p1960
sg50
S'2.6'
p1961
sg52
S'10.7'
p1962
sg54
S'7.6'
p1963
sg56
S'1988-89'
p1964
sg58
S'5.8'
p1965
sg60
S'2.1'
p1966
sg62
S'.538'
p1967
sg64
S'1053'
p1968
sg66
S'29'
p1969
sba(isrc.gp1.models.Per36Minutes
Per36Minutes
p1970
(dp1971
g8
S'3.0'
p1972
sg10
S'0.1'
p1973
sg12
S'.473'
p1974
sg14
S'1.8'
p1975
sg16
S'.200'
p1976
sg18
S'0.0'
p1977
sg20
S'9.4'
p1978
sg22
g23
sg24
S'.799'
p1979
sg28
S'NBA'
p1980
sg30
S'1.1'
p1981
sg32
S'8.0'
p1982
sg34
S'5.3'
p1983
sg36
S'2.3'
p1984
sg38
S'10.7'
p1985
sg40
S'28'
p1986
sg42
S'IND'
p1987
sg44
S'82'
p1988
sg46
S'1.2'
p1989
sg48
S'3.8'
p1990
sg50
S'1.8'
p1991
sg52
S'7.9'
p1992
sg54
S'7.7'
p1993
sg56
S'1989-90'
p1994
sg58
S'3.8'
p1995
sg60
S'2.5'
p1996
sg62
S'.476'
p1997
sg64
S'2126'
p1998
sg66
S'60'
p1999
sba(isrc.gp1.models.Per36Minutes
Per36Minutes
p2000
(dp2001
g8
S'2.8'
p2002
sg10
S'0.1'
p2003
sg12
S'.488'
p2004
sg14
S'2.7'
p2005
sg16
S'.200'
p2006
sg18
S'0.0'
p2007
sg20
S'11.6'
p2008
sg22
g23
sg24
S'.692'
p2009
sg28
S'NBA'
p2010
sg30
S'1.2'
p2011
sg32
S'10.5'
p2012
sg34
S'4.9'
p2013
sg36
S'1.9'
p2014
sg38
S'10.4'
p2015
sg40
S'29'
p2016
sg42
S'IND'
p2017
sg44
S'82'
p2018
sg46
S'1.2'
p2019
sg48
S'5.1'
p2020
sg50
S'1.3'
p2021
sg52
S'10.4'
p2022
sg54
S'7.6'
p2023
sg56
S'1990-91'
p2024
sg58
S'5.1'
p2025
sg60
S'3.1'
p2026
sg62
S'.491'
p2027
sg64
S'1946'
p2028
sg66
S'77'
p2029
sba(isrc.gp1.models.Per36Minutes
Per36Minutes
p2030
(dp2031
g8
S'2.7'
p2032
sg10
S'0.1'
p2033
sg12
S'.468'
p2034
sg14
S'2.8'
p2035
sg16
S'.000'
p2036
sg18
S'0.0'
p2037
sg20
S'10.9'
p2038
sg22
g23
sg24
S'.817'
p2039
sg28
S'NBA'
p2040
sg30
S'1.4'
p2041
sg32
S'9.9'
p2042
sg34
S'5.7'
p2043
sg36
S'2.0'
p2044
sg38
S'10.6'
p2045
sg40
S'30'
p2046
sg42
S'IND'
p2047
sg44
S'80'
p2048
sg46
S'0.9'
p2049
sg48
S'4.7'
p2050
sg50
S'1.6'
p2051
sg52
S'9.9'
p2052
sg54
S'7.8'
p2053
sg56
S'1991-92'
p2054
sg58
S'4.7'
p2055
sg60
S'2.7'
p2056
sg62
S'.471'
p2057
sg64
S'1299'
p2058
sg66
S'49'
p2059
sba(isrc.gp1.models.Per36Minutes
Per36Minutes
p2060
(dp2061
g8
S'2.7'
p2062
sg10
S'0.0'
p2063
sg12
S'.488'
p2064
sg14
S'1.7'
p2065
sg16
S'.000'
p2066
sg18
S'0.0'
p2067
sg20
S'11.7'
p2068
sg22
g23
sg24
S'.744'
p2069
sg28
S'NBA'
p2070
sg30
S'1.4'
p2071
sg32
S'10.5'
p2072
sg34
S'6.8'
p2073
sg36
S'1.9'
p2074
sg38
S'8.8'
p2075
sg40
S'31'
p2076
sg42
S'IND'
p2077
sg44
S'63'
p2078
sg46
S'1.2'
p2079
sg48
S'5.1'
p2080
sg50
S'1.4'
p2081
sg52
S'10.5'
p2082
sg54
S'6.1'
p2083
sg56
S'1992-93'
p2084
sg58
S'5.1'
p2085
sg60
S'2.3'
p2086
sg62
S'.491'
p2087
sg64
S'730'
p2088
sg66
g19
sba(isrc.gp1.models.Per36Minutes
Per36Minutes
p2089
(dp2090
g8
S'3.3'
p2091
sg10
S'0.0'
p2092
sg12
S'.351'
p2093
sg14
S'2.0'
p2094
sg16
g3
sg18
S'0.0'
p2095
sg20
S'8.9'
p2096
sg22
g23
sg24
S'.533'
p2097
sg28
S'NBA'
p2098
sg30
S'1.3'
p2099
sg32
S'9.8'
p2100
sg34
S'7.5'
p2101
sg36
S'3.8'
p2102
sg38
S'9.6'
p2103
sg40
S'32'
p2104
sg42
S'IND'
p2105
sg44
S'30'
p2106
sg46
S'1.0'
p2107
sg48
S'3.4'
p2108
sg50
S'2.0'
p2109
sg52
S'9.8'
p2110
sg54
S'6.3'
p2111
sg56
S'1993-94'
p2112
sg58
S'3.4'
p2113
sg60
S'2.9'
p2114
sg62
S'.351'
p2115
sg64
S'282'
p2116
sg66
g11
sba(isrc.gp1.models.Per36Minutes
Per36Minutes
p2117
(dp2118
g8
S'2.2'
p2119
sg10
S'0.0'
p2120
sg12
S'.415'
p2121
sg14
S'1.4'
p2122
sg16
g3
sg18
S'0.0'
p2123
sg20
S'8.9'
p2124
sg22
g23
sg24
S'.875'
p2125
sg28
S'NBA'
p2126
sg30
S'1.4'
p2127
sg32
S'9.4'
p2128
sg34
S'6.0'
p2129
sg36
S'1.3'
p2130
sg38
S'7.1'
p2131
sg40
S'33'
p2132
sg42
S'IND'
p2133
sg44
S'38'
p2134
sg46
S'0.8'
p2135
sg48
S'3.9'
p2136
sg50
S'1.1'
p2137
sg52
S'9.4'
p2138
sg54
S'4.8'
p2139
sg56
S'1994-95'
p2140
sg58
S'3.9'
p2141
sg60
S'2.6'
p2142
sg62
S'.415'
p2143
sg64
S'453'
p2144
sg66
g67
sba(isrc.gp1.models.Per36Minutes
Per36Minutes
p2145
(dp2146
g8
S'2.9'
p2147
sg10
S'0.0'
p2148
sg12
S'.398'
p2149
sg14
S'1.2'
p2150
sg16
g3
sg18
S'0.0'
p2151
sg20
S'4.0'
p2152
sg22
g23
sg24
S'.792'
p2153
sg28
S'NBA'
p2154
sg30
S'0.9'
p2155
sg32
S'3.9'
p2156
sg34
S'5.8'
p2157
sg36
S'1.1'
p2158
sg38
S'9.3'
p2159
sg40
S'34'
p2160
sg42
S'PHI'
p2161
sg44
S'44'
p2162
sg46
S'0.9'
p2163
sg48
S'1.5'
p2164
sg50
S'0.9'
p2165
sg52
S'3.9'
p2166
sg54
S'6.4'
p2167
sg56
S'1995-96'
p2168
sg58
S'1.5'
p2169
sg60
S'1.7'
p2170
sg62
S'.398'
p2171
sg64
S'773'
p2172
sg66
S'11'
p2173
sba(isrc.gp1.models.Per36Minutes
Per36Minutes
p2174
(dp2175
g8
S'1.8'
p2176
sg10
S'0.0'
p2177
sg12
S'.158'
p2178
sg14
S'0.5'
p2179
sg16
g3
sg18
S'0.0'
p2180
sg20
S'2.6'
p2181
sg22
g23
sg24
S'.667'
p2182
sg28
S'NBA'
p2183
sg30
S'0.8'
p2184
sg32
S'4.9'
p2185
sg34
S'8.5'
p2186
sg36
S'1.5'
p2187
sg38
S'8.7'
p2188
sg40
S'35'
p2189
sg42
S'TOT'
p2190
sg44
S'26'
p2191
sg46
S'1.5'
p2192
sg48
S'0.8'
p2193
sg50
S'1.0'
p2194
sg52
S'4.9'
p2195
sg54
S'6.9'
p2196
sg56
S'1996-97'
p2197
sg58
S'0.8'
p2198
sg60
S'2.3'
p2199
sg62
S'.158'
p2200
sg64
S'140'
p2201
sg66
g19
sba(isrc.gp1.models.Per36Minutes
Per36Minutes
p2202
(dp2203
g8
S'1.7'
p2204
sg10
S'0.0'
p2205
sg12
S'.188'
p2206
sg14
S'0.0'
p2207
sg16
g3
sg18
S'0.0'
p2208
sg20
S'2.4'
p2209
sg22
g23
sg24
S'.500'
p2210
sg28
S'NBA'
p2211
sg30
S'1.0'
p2212
sg32
S'5.5'
p2213
sg34
S'8.9'
p2214
sg36
S'0.7'
p2215
sg38
S'8.9'
p2216
sg40
S'35'
p2217
sg42
S'DEN'
p2218
sg44
S'17'
p2219
sg46
S'2.1'
p2220
sg48
S'1.0'
p2221
sg50
S'0.3'
p2222
sg52
S'5.5'
p2223
sg54
S'7.2'
p2224
sg56
S'1996-97'
p2225
sg58
S'1.0'
p2226
sg60
S'2.4'
p2227
sg62
S'.188'
p2228
sg64
S'105'
p2229
sg66
g19
sba(isrc.gp1.models.Per36Minutes
Per36Minutes
p2230
(dp2231
g8
S'2.1'
p2232
sg10
S'0.0'
p2233
sg12
S'.000'
p2234
sg14
S'2.1'
p2235
sg16
g3
sg18
S'0.0'
p2236
sg20
S'3.1'
p2237
sg22
g23
sg24
S'.750'
p2238
sg28
S'NBA'
p2239
sg30
S'0.0'
p2240
sg32
S'3.1'
p2241
sg34
S'7.2'
p2242
sg36
S'4.1'
p2243
sg38
S'8.2'
p2244
sg40
S'35'
p2245
sg42
S'IND'
p2246
sg44
g212
sg46
S'0.0'
p2247
sg48
S'0.0'
p2248
sg50
S'3.1'
p2249
sg52
S'3.1'
p2250
sg54
S'6.2'
p2251
sg56
S'1996-97'
p2252
sg58
S'0.0'
p2253
sg60
S'2.1'
p2254
sg62
S'.000'
p2255
sg64
S'35'
p2256
sg66
g19
sbasS'_fromYear'
p2257
S'1983'
p2258
sS'_url'
p2259
S'http://www.basketball-reference.com/players/t/thompla01.html'
p2260
sS'_perGame'
p2261
(isrc.gp1.models.PerGame
PerGame
p2262
(dp2263
g8
S'0.2'
p2264
sg10
S'0.0'
p2265
sg12
S'.000'
p2266
sS'_effectiveFieldGalPercentage'
p2267
S'.000'
p2268
sg14
S'0.2'
p2269
sg16
g3
sg18
S'0.0'
p2270
sg20
S'0.3'
p2271
sg22
g23
sg24
S'.750'
p2272
sg28
S'NBA'
p2273
sg30
S'0.0'
p2274
sg34
S'0.8'
p2275
sS'_fieldGoalsttempted'
p2276
S'0.3'
p2277
sg36
S'0.4'
p2278
sg38
S'0.9'
p2279
sg40
S'35'
p2280
sg42
S'IND'
p2281
sg44
g212
sg46
S'0.0'
p2282
sg48
S'0.0'
p2283
sg50
S'0.3'
p2284
sg52
S'0.3'
p2285
sg54
S'0.7'
p2286
sg56
S'1996-97'
p2287
sg58
S'0.0'
p2288
sg60
S'0.2'
p2289
sg62
S'.000'
p2290
sg64
S'3.9'
p2291
sg66
g19
sbsS'_weight'
p2292
S'245'
p2293
sS'_dob'
p2294
S'23-6-1961'
p2295
sS'_salary'
p2296
(lp2297
(isrc.gp1.models.Salary
Salary
p2298
(dp2299
g42
S'Sacramento Kings'
p2300
sg28
S'NBA'
p2301
sg2296
S'$352,000'
p2302
sg56
S'1985-86'
p2303
sba(isrc.gp1.models.Salary
Salary
p2304
(dp2305
g42
S'Sacramento Kings'
p2306
sg28
S'NBA'
p2307
sg2296
S'$636,000'
p2308
sg56
S'1987-88'
p2309
sba(isrc.gp1.models.Salary
Salary
p2310
(dp2311
g42
S'Sacramento Kings'
p2312
sg28
S'NBA'
p2313
sg2296
S'$636,000'
p2314
sg56
S'1988-89'
p2315
sba(isrc.gp1.models.Salary
Salary
p2316
(dp2317
g42
S'Indiana Pacers'
p2318
sg28
S'NBA'
p2319
sg2296
S'$2,000,000'
p2320
sg56
S'1990-91'
p2321
sba(isrc.gp1.models.Salary
Salary
p2322
(dp2323
g42
S'Indiana Pacers'
p2324
sg28
S'NBA'
p2325
sg2296
S'$2,000,000'
p2326
sg56
S'1991-92'
p2327
sba(isrc.gp1.models.Salary
Salary
p2328
(dp2329
g42
S'Indiana Pacers'
p2330
sg28
S'NBA'
p2331
sg2296
S'$2,000,000'
p2332
sg56
S'1992-93'
p2333
sba(isrc.gp1.models.Salary
Salary
p2334
(dp2335
g42
S'Indiana Pacers'
p2336
sg28
S'NBA'
p2337
sg2296
S'$2,000,000'
p2338
sg56
S'1993-94'
p2339
sba(isrc.gp1.models.Salary
Salary
p2340
(dp2341
g42
S'Indiana Pacers'
p2342
sg28
S'NBA'
p2343
sg2296
S'$2,000,000'
p2344
sg56
S'1994-95'
p2345
sba(isrc.gp1.models.Salary
Salary
p2346
(dp2347
g42
S'Denver Nuggets'
p2348
sg28
S'NBA'
p2349
sg2296
S'$247,500'
p2350
sg56
S'1996-97'
p2351
sba(isrc.gp1.models.Salary
Salary
p2352
(dp2353
g42
S'Indiana Pacers'
p2354
sg28
S'NBA'
p2355
sg2296
S'$510,000'
p2356
sg56
S'1999-00'
p2357
sbasg22
S'C-F'
p2358
sb.