(isrc.gp1.models.Player
Player
p0
(dp1
S'_experience'
p2
S'NA'
p3
sS'_totals'
p4
(lp5
(isrc.gp1.models.Totals
Totals
p6
(dp7
S'_offensiveRebounds'
p8
g3
sS'_threePointsAttempted'
p9
g3
sS'_fieldGoalsPercentage'
p10
S'.399'
p11
sS'_assist'
p12
S'89'
p13
sS'_threePointsPercentage'
p14
g3
sS'_threePoints'
p15
g3
sS'_points'
p16
S'896'
p17
sS'_position'
p18
S'SF'
p19
sS'_freeThrowsPercentage'
p20
S'.701'
p21
sS'_effectiveFieldGoalPercentage'
p22
S'.399'
p23
sS'_league'
p24
S'NBA'
p25
sS'_steals'
p26
g3
sS'_fieldGoalsAttempted'
p27
S'776'
p28
sS'_personalFouls'
p29
S'158'
p30
sS'_freeThrowsAttempted'
p31
S'394'
p32
sS'_totalRebounds'
p33
S'490'
p34
sS'_age'
p35
S'24'
p36
sS'_team'
p37
S'DET'
p38
sS'_games'
p39
S'74'
p40
sS'_blocks'
p41
g3
sS'_twoPoints'
p42
S'310'
p43
sS'_freeThrows'
p44
S'276'
p45
sS'_twoPointsAttempted'
p46
S'776'
p47
sS'_defensiveRebounds'
p48
g3
sS'_season'
p49
S'1960-61'
p50
sS'_fieldGoals'
p51
S'310'
p52
sS'_turnOvers'
p53
g3
sS'_twoPointsPercentage'
p54
S'.399'
p55
sS'_minutesPlayed'
p56
S'1735'
p57
sS'_gamesStarted'
p58
g3
sba(isrc.gp1.models.Totals
Totals
p59
(dp60
g8
g3
sg9
g3
sg10
S'.358'
p61
sg12
S'64'
p62
sg14
g3
sg15
g3
sg16
S'571'
p63
sg18
S'SF'
p64
sg20
S'.761'
p65
sg22
S'.358'
p66
sg24
S'NBA'
p67
sg26
g3
sg27
S'500'
p68
sg29
S'128'
p69
sg31
S'280'
p70
sg33
S'349'
p71
sg35
S'25'
p72
sg37
S'DET'
p73
sg39
S'75'
p74
sg41
g3
sg42
S'179'
p75
sg44
S'213'
p76
sg46
S'500'
p77
sg48
g3
sg49
S'1961-62'
p78
sg51
S'179'
p79
sg53
g3
sg54
S'.358'
p80
sg56
S'1351'
p81
sg58
g3
sba(isrc.gp1.models.Totals
Totals
p82
(dp83
g8
g3
sg9
g3
sg10
S'.378'
p84
sg12
S'64'
p85
sg14
g3
sg15
g3
sg16
S'450'
p86
sg18
S'SG'
p87
sg20
S'.788'
p88
sg22
S'.378'
p89
sg24
S'NBA'
p90
sg26
g3
sg27
S'394'
p91
sg29
S'113'
p92
sg31
S'193'
p93
sg33
S'217'
p94
sg35
S'26'
p95
sg37
S'SFW'
p96
sg39
S'64'
p97
sg41
g3
sg42
S'149'
p98
sg44
S'152'
p99
sg46
S'394'
p100
sg48
g3
sg49
S'1962-63'
p101
sg51
S'149'
p102
sg53
g3
sg54
S'.378'
p103
sg56
S'1192'
p104
sg58
g3
sba(isrc.gp1.models.Totals
Totals
p105
(dp106
g8
g3
sg9
g3
sg10
S'.379'
p107
sg12
S'25'
p108
sg14
g3
sg15
g3
sg16
S'175'
p109
sg18
S'SF'
p110
sg20
S'.662'
p111
sg22
S'.379'
p112
sg24
S'NBA'
p113
sg26
g3
sg27
S'169'
p114
sg29
S'67'
p115
sg31
S'71'
p116
sg33
S'97'
p117
sg35
S'27'
p118
sg37
S'SFW'
p119
sg39
S'54'
p120
sg41
g3
sg42
S'64'
p121
sg44
S'47'
p122
sg46
S'169'
p123
sg48
g3
sg49
S'1963-64'
p124
sg51
S'64'
p125
sg53
g3
sg54
S'.379'
p126
sg56
S'522'
p127
sg58
g3
sba(isrc.gp1.models.Totals
Totals
p128
(dp129
g8
g3
sg9
g3
sg10
S'.351'
p130
sg12
S'12'
p131
sg14
g3
sg15
g3
sg16
S'92'
p132
sg18
S'SF'
p133
sg20
S'.731'
p134
sg22
S'.351'
p135
sg24
S'NBA'
p136
sg26
g3
sg27
S'77'
p137
sg29
S'22'
p138
sg31
S'52'
p139
sg33
S'55'
p140
sg35
S'28'
p141
sg37
S'SFW'
p142
sg39
S'19'
p143
sg41
g3
sg42
S'27'
p144
sg44
S'38'
p145
sg46
S'77'
p146
sg48
g3
sg49
S'1964-65'
p147
sg51
S'27'
p148
sg53
g3
sg54
S'.351'
p149
sg56
S'247'
p150
sg58
g3
sba(isrc.gp1.models.Totals
Totals
p151
(dp152
g8
g3
sg9
g3
sg10
g3
sg12
g3
sg14
g3
sg15
g3
sg16
g3
sg18
g3
sg20
g3
sg22
g3
sg24
g3
sg26
g3
sg27
g3
sg29
g3
sg31
g3
sg33
g3
sg35
S'29'
p153
sg37
S'Did Not Play\xc2\xa0(coach\xe2\x80\x94assistant coach)'
p154
sg39
g3
sg41
g3
sg42
g3
sg44
g3
sg46
g3
sg48
g3
sg49
S'1965-66'
p155
sg51
g3
sg53
g3
sg54
g3
sg56
g3
sg58
g3
sba(isrc.gp1.models.Totals
Totals
p156
(dp157
g8
g3
sg9
g3
sg10
S'.750'
p158
sg12
S'0'
p159
sg14
g3
sg15
g3
sg16
S'12'
p160
sg18
g3
sg20
S'.857'
p161
sg22
S'.750'
p162
sg24
S'NBA'
p163
sg26
g3
sg27
S'4'
p164
sg29
g159
sg31
S'7'
p165
sg33
g159
sg35
S'30'
p166
sg37
S'SFW'
p167
sg39
S'1'
p168
sg41
g3
sg42
S'3'
p169
sg44
S'6'
p170
sg46
g164
sg48
g3
sg49
S'1966-67'
p171
sg51
g169
sg53
g3
sg54
S'.750'
p172
sg56
S'5'
p173
sg58
g3
sba(isrc.gp1.models.Totals
Totals
p174
(dp175
g8
g3
sg9
g3
sg10
S'.229'
p176
sg12
g164
sg14
g3
sg15
g3
sg16
S'33'
p177
sg18
g3
sg20
S'.708'
p178
sg22
S'.229'
p179
sg24
S'NBA'
p180
sg26
g3
sg27
S'35'
p181
sg29
S'16'
p182
sg31
S'24'
p183
sg33
S'27'
p184
sg35
S'31'
p185
sg37
S'SFW'
p186
sg39
S'10'
p187
sg41
g3
sg42
S'8'
p188
sg44
S'17'
p189
sg46
S'35'
p190
sg48
g3
sg49
S'1967-68'
p191
sg51
g188
sg53
g3
sg54
S'.229'
p192
sg56
S'106'
p193
sg58
g3
sbasS'_college'
p194
S'University of Michigan'
p195
sS'_toYear'
p196
S'1968'
p197
sS'_height'
p198
S'6-4'
p199
sS'_active'
p200
I00
sS'_shootingHand'
p201
VRight
p202
sS'_name'
p203
S'George Lee'
p204
sS'_per100Possessions'
p205
(lp206
sS'_advanced'
p207
(lp208
(isrc.gp1.models.Advanced
Advanced
p209
(dp210
S'_offensiveReboundPercentage'
p211
g3
sS'_turnOverPercentage'
p212
g3
sS'_winSharesPer48Minutes'
p213
S'.073'
p214
sS'_stealPercentage'
p215
g3
sS'_usagePercentage'
p216
g3
sS'_totalReboundsPercentage'
p217
g3
sS'_defensiveBoxPlusMinus'
p218
g3
sg18
S'SF'
p219
sS'_valueOverReplacementPlayer'
p220
g3
sS'_trueShootingPercentage'
p221
S'.472'
p222
sS'_defensiveReboundPercentage'
p223
g3
sS'_freeThrowsAttempRate'
p224
S'.508'
p225
sS'_threePointsAttempRate'
p226
g3
sg24
S'NBA'
p227
sS'_offensiveBoxPlusMinues'
p228
g3
sS'_assistPercentage'
p229
g3
sS'_defensiveWinShares'
p230
S'0.8'
p231
sg35
S'24'
p232
sg37
S'DET'
p233
sg39
S'74'
p234
sS'_blockPercentage'
p235
g3
sS'_playerEfficiencyRating'
p236
S'14.6'
p237
sS'_offensiveWinShares'
p238
S'1.8'
p239
sg56
S'1735'
p240
sS'_boxPlusMinus'
p241
g3
sg49
S'1960-61'
p242
sS'_winShares'
p243
S'2.6'
p244
sba(isrc.gp1.models.Advanced
Advanced
p245
(dp246
g211
g3
sg212
g3
sg213
S'.061'
p247
sg215
g3
sg216
g3
sg217
g3
sg218
g3
sg18
S'SF'
p248
sg220
g3
sg221
S'.458'
p249
sg223
g3
sg224
S'.560'
p250
sg226
g3
sg24
S'NBA'
p251
sg228
g3
sg229
g3
sg230
S'1.2'
p252
sg35
S'25'
p253
sg37
S'DET'
p254
sg39
S'75'
p255
sg235
g3
sg236
S'12.2'
p256
sg238
S'0.6'
p257
sg56
S'1351'
p258
sg241
g3
sg49
S'1961-62'
p259
sg243
S'1.7'
p260
sba(isrc.gp1.models.Advanced
Advanced
p261
(dp262
g211
g3
sg212
g3
sg213
S'.048'
p263
sg215
g3
sg216
g3
sg217
g3
sg218
g3
sg18
S'SG'
p264
sg220
g3
sg221
S'.470'
p265
sg223
g3
sg224
S'.490'
p266
sg226
g3
sg24
S'NBA'
p267
sg228
g3
sg229
g3
sg230
S'0.8'
p268
sg35
S'26'
p269
sg37
S'SFW'
p270
sg39
S'64'
p271
sg235
g3
sg236
S'10.1'
p272
sg238
S'0.4'
p273
sg56
S'1192'
p274
sg241
g3
sg49
S'1962-63'
p275
sg243
S'1.2'
p276
sba(isrc.gp1.models.Advanced
Advanced
p277
(dp278
g211
g3
sg212
g3
sg213
S'.057'
p279
sg215
g3
sg216
g3
sg217
g3
sg218
g3
sg18
S'SF'
p280
sg220
g3
sg221
S'.437'
p281
sg223
g3
sg224
S'.420'
p282
sg226
g3
sg24
S'NBA'
p283
sg228
g3
sg229
g3
sg230
S'0.7'
p284
sg35
S'27'
p285
sg37
S'SFW'
p286
sg39
S'54'
p287
sg235
g3
sg236
S'8.9'
p288
sg238
S'-0.1'
p289
sg56
S'522'
p290
sg241
g3
sg49
S'1963-64'
p291
sg243
S'0.6'
p292
sba(isrc.gp1.models.Advanced
Advanced
p293
(dp294
g211
g3
sg212
g3
sg213
S'.072'
p295
sg215
g3
sg216
g3
sg217
g3
sg218
g3
sg18
S'SF'
p296
sg220
g3
sg221
S'.461'
p297
sg223
g3
sg224
S'.675'
p298
sg226
g3
sg24
S'NBA'
p299
sg228
g3
sg229
S'6.5'
p300
sg230
S'0.3'
p301
sg35
S'28'
p302
sg37
S'SFW'
p303
sg39
S'19'
p304
sg235
g3
sg236
S'11.7'
p305
sg238
S'0.1'
p306
sg56
S'247'
p307
sg241
g3
sg49
S'1964-65'
p308
sg243
S'0.4'
p309
sba(isrc.gp1.models.Advanced
Advanced
p310
(dp311
g211
g3
sg212
g3
sg213
S'1.384'
p312
sg215
g3
sg216
g3
sg217
g3
sg218
g3
sg18
g3
sg220
g3
sg221
S'.847'
p313
sg223
g3
sg224
S'1.750'
p314
sg226
g3
sg24
S'NBA'
p315
sg228
g3
sg229
S'0.0'
p316
sg230
S'0.0'
p317
sg35
S'30'
p318
sg37
S'SFW'
p319
sg39
g168
sg235
g3
sg236
S'77.0'
p320
sg238
S'0.1'
p321
sg56
g173
sg241
g3
sg49
S'1966-67'
p322
sg243
S'0.1'
p323
sba(isrc.gp1.models.Advanced
Advanced
p324
(dp325
g211
g3
sg212
g3
sg213
S'-0.048'
p326
sg215
g3
sg216
g3
sg217
g3
sg218
g3
sg18
g3
sg220
g3
sg221
S'.362'
p327
sg223
g3
sg224
S'.686'
p328
sg226
g3
sg24
S'NBA'
p329
sg228
g3
sg229
S'4.5'
p330
sg230
S'0.1'
p331
sg35
S'31'
p332
sg37
S'SFW'
p333
sg39
S'10'
p334
sg235
g3
sg236
S'6.0'
p335
sg238
S'-0.2'
p336
sg56
S'106'
p337
sg241
g3
sg49
S'1967-68'
p338
sg243
S'-0.1'
p339
sbasS'_per36Minutes'
p340
(lp341
(isrc.gp1.models.Per36Minutes
Per36Minutes
p342
(dp343
g8
g3
sg9
g3
sg10
S'.399'
p344
sg12
S'1.8'
p345
sg14
g3
sg15
g3
sg16
S'18.6'
p346
sg18
S'SF'
p347
sg20
S'.701'
p348
sg24
S'NBA'
p349
sg26
g3
sg27
S'16.1'
p350
sg29
S'3.3'
p351
sg31
S'8.2'
p352
sg33
S'10.2'
p353
sg35
S'24'
p354
sg37
S'DET'
p355
sg39
S'74'
p356
sg41
g3
sg42
S'6.4'
p357
sg44
S'5.7'
p358
sg46
S'16.1'
p359
sg48
g3
sg49
S'1960-61'
p360
sg51
S'6.4'
p361
sg53
g3
sg54
S'.399'
p362
sg56
S'1735'
p363
sg58
g3
sba(isrc.gp1.models.Per36Minutes
Per36Minutes
p364
(dp365
g8
g3
sg9
g3
sg10
S'.358'
p366
sg12
S'1.7'
p367
sg14
g3
sg15
g3
sg16
S'15.2'
p368
sg18
S'SF'
p369
sg20
S'.761'
p370
sg24
S'NBA'
p371
sg26
g3
sg27
S'13.3'
p372
sg29
S'3.4'
p373
sg31
S'7.5'
p374
sg33
S'9.3'
p375
sg35
S'25'
p376
sg37
S'DET'
p377
sg39
S'75'
p378
sg41
g3
sg42
S'4.8'
p379
sg44
S'5.7'
p380
sg46
S'13.3'
p381
sg48
g3
sg49
S'1961-62'
p382
sg51
S'4.8'
p383
sg53
g3
sg54
S'.358'
p384
sg56
S'1351'
p385
sg58
g3
sba(isrc.gp1.models.Per36Minutes
Per36Minutes
p386
(dp387
g8
g3
sg9
g3
sg10
S'.378'
p388
sg12
S'1.9'
p389
sg14
g3
sg15
g3
sg16
S'13.6'
p390
sg18
S'SG'
p391
sg20
S'.788'
p392
sg24
S'NBA'
p393
sg26
g3
sg27
S'11.9'
p394
sg29
S'3.4'
p395
sg31
S'5.8'
p396
sg33
S'6.6'
p397
sg35
S'26'
p398
sg37
S'SFW'
p399
sg39
S'64'
p400
sg41
g3
sg42
S'4.5'
p401
sg44
S'4.6'
p402
sg46
S'11.9'
p403
sg48
g3
sg49
S'1962-63'
p404
sg51
S'4.5'
p405
sg53
g3
sg54
S'.378'
p406
sg56
S'1192'
p407
sg58
g3
sba(isrc.gp1.models.Per36Minutes
Per36Minutes
p408
(dp409
g8
g3
sg9
g3
sg10
S'.379'
p410
sg12
S'1.7'
p411
sg14
g3
sg15
g3
sg16
S'12.1'
p412
sg18
S'SF'
p413
sg20
S'.662'
p414
sg24
S'NBA'
p415
sg26
g3
sg27
S'11.7'
p416
sg29
S'4.6'
p417
sg31
S'4.9'
p418
sg33
S'6.7'
p419
sg35
S'27'
p420
sg37
S'SFW'
p421
sg39
S'54'
p422
sg41
g3
sg42
S'4.4'
p423
sg44
S'3.2'
p424
sg46
S'11.7'
p425
sg48
g3
sg49
S'1963-64'
p426
sg51
S'4.4'
p427
sg53
g3
sg54
S'.379'
p428
sg56
S'522'
p429
sg58
g3
sba(isrc.gp1.models.Per36Minutes
Per36Minutes
p430
(dp431
g8
g3
sg9
g3
sg10
S'.351'
p432
sg12
S'1.7'
p433
sg14
g3
sg15
g3
sg16
S'13.4'
p434
sg18
S'SF'
p435
sg20
S'.731'
p436
sg24
S'NBA'
p437
sg26
g3
sg27
S'11.2'
p438
sg29
S'3.2'
p439
sg31
S'7.6'
p440
sg33
S'8.0'
p441
sg35
S'28'
p442
sg37
S'SFW'
p443
sg39
S'19'
p444
sg41
g3
sg42
S'3.9'
p445
sg44
S'5.5'
p446
sg46
S'11.2'
p447
sg48
g3
sg49
S'1964-65'
p448
sg51
S'3.9'
p449
sg53
g3
sg54
S'.351'
p450
sg56
S'247'
p451
sg58
g3
sba(isrc.gp1.models.Per36Minutes
Per36Minutes
p452
(dp453
g8
g3
sg9
g3
sg10
S'.750'
p454
sg12
S'0.0'
p455
sg14
g3
sg15
g3
sg16
S'86.4'
p456
sg18
g3
sg20
S'.857'
p457
sg24
S'NBA'
p458
sg26
g3
sg27
S'28.8'
p459
sg29
S'0.0'
p460
sg31
S'50.4'
p461
sg33
S'0.0'
p462
sg35
S'30'
p463
sg37
S'SFW'
p464
sg39
g168
sg41
g3
sg42
S'21.6'
p465
sg44
S'43.2'
p466
sg46
S'28.8'
p467
sg48
g3
sg49
S'1966-67'
p468
sg51
S'21.6'
p469
sg53
g3
sg54
S'.750'
p470
sg56
g173
sg58
g3
sba(isrc.gp1.models.Per36Minutes
Per36Minutes
p471
(dp472
g8
g3
sg9
g3
sg10
S'.229'
p473
sg12
S'1.4'
p474
sg14
g3
sg15
g3
sg16
S'11.2'
p475
sg18
g3
sg20
S'.708'
p476
sg24
S'NBA'
p477
sg26
g3
sg27
S'11.9'
p478
sg29
S'5.4'
p479
sg31
S'8.2'
p480
sg33
S'9.2'
p481
sg35
S'31'
p482
sg37
S'SFW'
p483
sg39
S'10'
p484
sg41
g3
sg42
S'2.7'
p485
sg44
S'5.8'
p486
sg46
S'11.9'
p487
sg48
g3
sg49
S'1967-68'
p488
sg51
S'2.7'
p489
sg53
g3
sg54
S'.229'
p490
sg56
S'106'
p491
sg58
g3
sbasS'_fromYear'
p492
S'1961'
p493
sS'_url'
p494
S'http://www.basketball-reference.com/players/l/leege01.html'
p495
sS'_perGame'
p496
(isrc.gp1.models.PerGame
PerGame
p497
(dp498
g8
g3
sg9
g3
sg10
S'.229'
p499
sS'_effectiveFieldGalPercentage'
p500
S'.229'
p501
sg12
S'0.4'
p502
sg14
g3
sg15
g3
sg16
S'3.3'
p503
sg18
g3
sg20
S'.708'
p504
sg24
S'NBA'
p505
sg26
g3
sg29
S'1.6'
p506
sS'_fieldGoalsttempted'
p507
S'3.5'
p508
sg31
S'2.4'
p509
sg33
S'2.7'
p510
sg35
S'31'
p511
sg37
S'SFW'
p512
sg39
S'10'
p513
sg41
g3
sg42
S'0.8'
p514
sg44
S'1.7'
p515
sg46
S'3.5'
p516
sg48
g3
sg49
S'1967-68'
p517
sg51
S'0.8'
p518
sg53
g3
sg54
S'.229'
p519
sg56
S'10.6'
p520
sg58
g3
sbsS'_weight'
p521
S'200'
p522
sS'_dob'
p523
S'23-11-1936'
p524
sS'_salary'
p525
(lp526
sg18
S'F-G'
p527
sb.