(isrc.gp1.models.Player
Player
p0
(dp1
S'_experience'
p2
S'NA'
p3
sS'_totals'
p4
(lp5
(isrc.gp1.models.Totals
Totals
p6
(dp7
S'_offensiveRebounds'
p8
g3
sS'_threePointsAttempted'
p9
S'.349'
p10
sS'_fieldGoalsPercentage'
p11
S'499'
p12
sS'_assist'
p13
g3
sS'_threePointsPercentage'
p14
S'90'
p15
sS'_threePoints'
p16
S'.349'
p17
sS'_points'
p18
g3
sS'_position'
p19
S'SF'
p20
sS'_freeThrowsPercentage'
p21
g3
sS'_effectiveFieldGoalPercentage'
p22
S'192'
p23
sS'_league'
p24
S'NBA'
p25
sS'_steals'
p26
g3
sS'_fieldGoalsAttempted'
p27
S'174'
p28
sS'_personalFouls'
p29
g3
sS'_freeThrowsAttempted'
p30
g3
sS'_totalRebounds'
p31
g3
sS'_age'
p32
S'25'
p33
sS'_team'
p34
S'CHS'
p35
sS'_games'
p36
S'67'
p37
sS'_blocks'
p38
g3
sS'_twoPoints'
p39
S'129'
p40
sS'_freeThrows'
p41
S'438'
p42
sS'_twoPointsAttempted'
p43
S'.698'
p44
sS'_defensiveRebounds'
p45
g3
sS'_season'
p46
S'1949-50'
p47
sS'_fieldGoals'
p48
S'.349'
p49
sS'_turnOvers'
p50
g3
sS'_twoPointsPercentage'
p51
S'140'
p52
sS'_minutesPlayed'
p53
S'499'
p54
sS'_gamesStarted'
p55
S'174'
p56
sba(isrc.gp1.models.Totals
Totals
p57
(dp58
g8
g3
sg9
S'.346'
p59
sg11
S'671'
p60
sg13
g3
sg14
S'82'
p61
sg16
S'.346'
p62
sg18
g3
sg19
S'SF'
p63
sg21
g3
sg22
S'218'
p64
sg24
S'NBA'
p65
sg26
g3
sg27
S'232'
p66
sg29
g3
sg30
S'546'
p67
sg31
g3
sg32
S'26'
p68
sg34
S'INO'
p69
sg36
S'68'
p70
sg38
g3
sg39
S'119'
p71
sg41
S'197'
p72
sg43
S'.689'
p73
sg45
g3
sg46
S'1950-51'
p74
sg48
S'.346'
p75
sg50
g3
sg51
S'296'
p76
sg53
S'671'
p77
sg55
S'232'
p78
sba(isrc.gp1.models.Totals
Totals
p79
(dp80
g8
g3
sg9
S'.389'
p81
sg11
S'349'
p82
sg13
g3
sg14
S'.389'
p83
sg16
S'897'
p84
sg18
g3
sg19
S'SF'
p85
sg21
S'820'
p86
sg22
S'430'
p87
sg24
S'NBA'
p88
sg26
g3
sg27
S'.389'
p89
sg29
g3
sg30
S'196'
p90
sg31
g3
sg32
S'27'
p91
sg34
S'INO'
p92
sg36
S'66'
p93
sg38
g3
sg39
S'122'
p94
sg41
S'255'
p95
sg43
S'187'
p96
sg45
g3
sg46
S'1951-52'
p97
sg48
S'897'
p98
sg50
g3
sg51
S'.652'
p99
sg53
S'349'
p100
sg55
S'2344'
p101
sba(isrc.gp1.models.Totals
Totals
p102
(dp103
g8
g3
sg9
S'.389'
p104
sg11
S'402'
p105
sg13
g3
sg14
S'.389'
p106
sg16
S'1034'
p107
sg18
g3
sg19
S'SF'
p108
sg21
S'967'
p109
sg22
S'483'
p110
sg24
S'NBA'
p111
sg26
g3
sg27
S'.389'
p112
sg29
g3
sg30
S'245'
p113
sg31
g3
sg32
S'28'
p114
sg34
S'INO'
p115
sg36
S'71'
p116
sg38
g3
sg39
S'163'
p117
sg41
S'277'
p118
sg43
S'259'
p119
sg45
g3
sg46
S'1952-53'
p120
sg48
S'1034'
p121
sg50
g3
sg51
S'.629'
p122
sg53
S'402'
p123
sg55
S'2871'
p124
sba(isrc.gp1.models.Totals
Totals
p125
(dp126
g8
g3
sg9
S'.338'
p127
sg11
S'588'
p128
sg13
g3
sg14
S'63'
p129
sg16
S'.338'
p130
sg18
g3
sg19
S'72'
p131
sg21
g3
sg22
S'226'
p132
sg24
S'NBA'
p133
sg26
g3
sg27
S'199'
p134
sg29
g3
sg30
S'461'
p135
sg31
g3
sg32
S'29'
p136
sg34
S'TOT'
p137
sg36
S'2064'
p138
sg38
g3
sg39
S'88'
p139
sg41
S'203'
p140
sg43
S'.716'
p141
sg45
g3
sg46
S'1953-54'
p142
sg48
S'.338'
p143
sg50
g3
sg51
S'297'
p144
sg53
S'588'
p145
sg55
S'199'
p146
sba(isrc.gp1.models.Totals
Totals
p147
(dp148
g8
g3
sg9
S'432'
p149
sg11
S'214'
p150
sg13
g3
sg14
g3
sg16
S'173'
p151
sg18
g3
sg19
S'55'
p152
sg21
g3
sg22
g3
sg24
S'NBA'
p153
sg26
g3
sg27
S'82'
p154
sg29
g3
sg30
g3
sg31
g3
sg32
S'29'
p155
sg34
S'BLB'
p156
sg36
S'1879'
p157
sg38
g3
sg39
g3
sg41
g3
sg43
g3
sg45
g3
sg46
S'1953-54'
p158
sg48
S'58'
p159
sg50
g3
sg51
g3
sg53
S'531'
p160
sg55
S'187'
p161
sba(isrc.gp1.models.Totals
Totals
p162
(dp163
g8
g3
sg9
S'29'
p164
sg11
S'12'
p165
sg13
g3
sg14
g3
sg16
S'30'
p166
sg18
g3
sg19
S'17'
p167
sg21
g3
sg22
g3
sg24
S'NBA'
p168
sg26
g3
sg27
S'6'
p169
sg29
g3
sg30
g3
sg31
g3
sg32
S'29'
p170
sg34
S'FTW'
p171
sg36
S'185'
p172
sg38
g3
sg39
g3
sg41
g3
sg43
g3
sg45
g3
sg46
S'1953-54'
p173
sg48
S'5'
p174
sg50
g3
sg51
g3
sg53
S'57'
p175
sg55
S'12'
p176
sbasS'_college'
p177
S'University of Notre Dame'
p178
sS'_toYear'
p179
S'1954'
p180
sS'_height'
p181
S'6-4'
p182
sS'_active'
p183
I00
sS'_shootingHand'
p184
VRight
p185
sS'_name'
p186
S'Leo Barnhorst'
p187
sS'_per100Possessions'
p188
(lp189
sS'_advanced'
p190
(lp191
(isrc.gp1.models.Advanced
Advanced
p192
(dp193
S'_offensiveReboundPercentage'
p194
g3
sS'_turnOverPercentage'
p195
g3
sS'_winSharesPer48Minutes'
p196
g3
sS'_stealPercentage'
p197
g3
sS'_usagePercentage'
p198
g3
sS'_totalReboundsPercentage'
p199
g3
sS'_defensiveBoxPlusMinus'
p200
g3
sg19
S'SF'
p201
sS'_valueOverReplacementPlayer'
p202
g3
sS'_trueShootingPercentage'
p203
S'0.9'
p204
sS'_defensiveReboundPercentage'
p205
g3
sS'_freeThrowsAttempRate'
p206
S'3.6'
p207
sS'_threePointsAttempRate'
p208
S'2.8'
p209
sg24
S'NBA'
p210
sS'_offensiveBoxPlusMinues'
p211
g3
sS'_assistPercentage'
p212
g3
sS'_defensiveWinShares'
p213
g3
sg32
S'25'
p214
sg34
S'CHS'
p215
sg36
S'67'
p216
sS'_blockPercentage'
p217
g3
sS'_playerEfficiencyRating'
p218
S'.259'
p219
sS'_offensiveWinShares'
p220
g3
sg53
S'.394'
p221
sS'_boxPlusMinus'
p222
g3
sg46
S'1949-50'
p223
sS'_winShares'
p224
g3
sba(isrc.gp1.models.Advanced
Advanced
p225
(dp226
g194
g3
sg195
g3
sg196
g3
sg197
g3
sg198
g3
sg199
g3
sg200
g3
sg19
S'SF'
p227
sg202
g3
sg203
S'-0.7'
p228
sg205
g3
sg206
S'1.3'
p229
sg208
S'1.9'
p230
sg24
S'NBA'
p231
sg211
g3
sg212
g3
sg213
g3
sg32
S'26'
p232
sg34
S'INO'
p233
sg36
S'68'
p234
sg217
g3
sg218
S'.177'
p235
sg220
g3
sg53
S'.377'
p236
sg222
g3
sg46
S'1950-51'
p237
sg224
g3
sba(isrc.gp1.models.Advanced
Advanced
p238
(dp239
g194
S'3.5'
p240
sg195
g3
sg196
g3
sg197
g3
sg198
g3
sg199
S'.097'
p241
sg200
g3
sg19
S'SF'
p242
sg202
g3
sg203
S'.419'
p243
sg205
S'4.7'
p244
sg206
S'1.3'
p245
sg208
S'.208'
p246
sg24
S'NBA'
p247
sg211
g3
sg212
g3
sg213
g3
sg32
S'27'
p248
sg34
S'INO'
p249
sg36
S'66'
p250
sg217
g3
sg218
S'15.9'
p251
sg220
g3
sg53
S'2344'
p252
sg222
g3
sg46
S'1951-52'
p253
sg224
g3
sba(isrc.gp1.models.Advanced
Advanced
p254
(dp255
g194
S'3.5'
p256
sg195
g3
sg196
g3
sg197
g3
sg198
g3
sg199
S'.076'
p257
sg200
g3
sg19
S'SF'
p258
sg202
g3
sg203
S'.421'
p259
sg205
S'4.6'
p260
sg206
S'1.1'
p261
sg208
S'.250'
p262
sg24
S'NBA'
p263
sg211
g3
sg212
g3
sg213
g3
sg32
S'28'
p264
sg34
S'INO'
p265
sg36
S'71'
p266
sg217
g3
sg218
S'16.0'
p267
sg220
g3
sg53
S'2871'
p268
sg222
g3
sg46
S'1952-53'
p269
sg224
g3
sba(isrc.gp1.models.Advanced
Advanced
p270
(dp271
g194
g3
sg195
g3
sg196
g3
sg197
g3
sg198
g3
sg199
g3
sg200
g3
sg19
S'72'
p272
sg202
g3
sg203
g3
sg205
g3
sg206
g3
sg208
g3
sg24
S'NBA'
p273
sg211
g3
sg212
g3
sg213
g3
sg32
S'29'
p274
sg34
S'TOT'
p275
sg36
S'2064'
p276
sg217
g3
sg218
S'.150'
p277
sg220
g3
sg53
S'.368'
p278
sg222
g3
sg46
S'1953-54'
p279
sg224
g3
sba(isrc.gp1.models.Advanced
Advanced
p280
(dp281
g194
g3
sg195
g3
sg196
g3
sg197
g3
sg198
g3
sg199
g3
sg200
g3
sg19
S'55'
p282
sg202
g3
sg203
g3
sg205
g3
sg206
g3
sg208
g3
sg24
S'NBA'
p283
sg211
g3
sg212
g3
sg213
g3
sg32
S'29'
p284
sg34
S'BLB'
p285
sg36
S'1879'
p286
sg217
g3
sg218
g3
sg220
g3
sg53
g3
sg222
g3
sg46
S'1953-54'
p287
sg224
g3
sba(isrc.gp1.models.Advanced
Advanced
p288
(dp289
g194
g3
sg195
g3
sg196
g3
sg197
g3
sg198
g3
sg199
g3
sg200
g3
sg19
S'17'
p290
sg202
g3
sg203
g3
sg205
g3
sg206
g3
sg208
g3
sg24
S'NBA'
p291
sg211
g3
sg212
g3
sg213
g3
sg32
S'29'
p292
sg34
S'FTW'
p293
sg36
S'185'
p294
sg217
g3
sg218
g3
sg220
g3
sg53
g3
sg222
g3
sg46
S'1953-54'
p295
sg224
g3
sbasS'_per36Minutes'
p296
(lp297
(isrc.gp1.models.Per36Minutes
Per36Minutes
p298
(dp299
g8
g3
sg9
g3
sg11
g3
sg13
g3
sg14
g3
sg16
g3
sg18
g3
sg19
S'SF'
p300
sg21
g3
sg24
S'NBA'
p301
sg26
g3
sg27
g3
sg29
g3
sg30
g3
sg31
g3
sg32
S'25'
p302
sg34
S'CHS'
p303
sg36
S'67'
p304
sg38
g3
sg39
g3
sg41
g3
sg43
g3
sg45
g3
sg46
S'1949-50'
p305
sg48
S'.698'
p306
sg50
g3
sg51
g3
sg53
S'.349'
p307
sg55
S'.349'
p308
sba(isrc.gp1.models.Per36Minutes
Per36Minutes
p309
(dp310
g8
g3
sg9
g3
sg11
g3
sg13
g3
sg14
g3
sg16
g3
sg18
g3
sg19
S'SF'
p311
sg21
g3
sg24
S'NBA'
p312
sg26
g3
sg27
g3
sg29
g3
sg30
g3
sg31
g3
sg32
S'26'
p313
sg34
S'INO'
p314
sg36
S'68'
p315
sg38
g3
sg39
g3
sg41
g3
sg43
g3
sg45
g3
sg46
S'1950-51'
p316
sg48
S'.689'
p317
sg50
g3
sg51
g3
sg53
S'.346'
p318
sg55
S'.346'
p319
sba(isrc.gp1.models.Per36Minutes
Per36Minutes
p320
(dp321
g8
g3
sg9
S'.389'
p322
sg11
S'5.4'
p323
sg13
g3
sg14
S'1.9'
p324
sg16
S'13.8'
p325
sg18
g3
sg19
S'SF'
p326
sg21
S'12.6'
p327
sg24
S'NBA'
p328
sg26
g3
sg27
S'.389'
p329
sg29
g3
sg30
S'3.0'
p330
sg31
g3
sg32
S'27'
p331
sg34
S'INO'
p332
sg36
S'66'
p333
sg38
g3
sg39
S'2.9'
p334
sg41
S'3.9'
p335
sg43
S'.652'
p336
sg45
g3
sg46
S'1951-52'
p337
sg48
S'13.8'
p338
sg50
g3
sg51
S'6.6'
p339
sg53
S'5.4'
p340
sg55
S'2344'
p341
sba(isrc.gp1.models.Per36Minutes
Per36Minutes
p342
(dp343
g8
g3
sg9
S'.389'
p344
sg11
S'5.0'
p345
sg13
g3
sg14
S'2.0'
p346
sg16
S'13.0'
p347
sg18
g3
sg19
S'SF'
p348
sg21
S'12.1'
p349
sg24
S'NBA'
p350
sg26
g3
sg27
S'.389'
p351
sg29
g3
sg30
S'3.1'
p352
sg31
g3
sg32
S'28'
p353
sg34
S'INO'
p354
sg36
S'71'
p355
sg38
g3
sg39
S'3.2'
p356
sg41
S'3.5'
p357
sg43
S'.629'
p358
sg45
g3
sg46
S'1952-53'
p359
sg48
S'13.0'
p360
sg50
g3
sg51
S'6.1'
p361
sg53
S'5.0'
p362
sg55
S'2871'
p363
sba(isrc.gp1.models.Per36Minutes
Per36Minutes
p364
(dp365
g8
g3
sg9
S'1.1'
p366
sg11
S'10.3'
p367
sg13
g3
sg14
S'1.5'
p368
sg16
S'.338'
p369
sg18
g3
sg19
S'72'
p370
sg21
g3
sg24
S'NBA'
p371
sg26
g3
sg27
S'3.5'
p372
sg29
g3
sg30
S'8.0'
p373
sg31
g3
sg32
S'29'
p374
sg34
S'TOT'
p375
sg36
S'2064'
p376
sg38
g3
sg39
S'.716'
p377
sg41
S'3.5'
p378
sg43
S'5.2'
p379
sg45
g3
sg46
S'1953-54'
p380
sg48
S'.338'
p381
sg50
g3
sg51
S'3.9'
p382
sg53
S'10.3'
p383
sg55
S'3.5'
p384
sba(isrc.gp1.models.Per36Minutes
Per36Minutes
p385
(dp386
g8
g3
sg9
g3
sg11
g3
sg13
g3
sg14
g3
sg16
g3
sg18
g3
sg19
S'55'
p387
sg21
g3
sg24
S'NBA'
p388
sg26
g3
sg27
g3
sg29
g3
sg30
g3
sg31
g3
sg32
S'29'
p389
sg34
S'BLB'
p390
sg36
S'1879'
p391
sg38
g3
sg39
g3
sg41
g3
sg43
g3
sg45
g3
sg46
S'1953-54'
p392
sg48
g3
sg50
g3
sg51
g3
sg53
g3
sg55
g3
sba(isrc.gp1.models.Per36Minutes
Per36Minutes
p393
(dp394
g8
g3
sg9
g3
sg11
g3
sg13
g3
sg14
g3
sg16
g3
sg18
g3
sg19
S'17'
p395
sg21
g3
sg24
S'NBA'
p396
sg26
g3
sg27
g3
sg29
g3
sg30
g3
sg31
g3
sg32
S'29'
p397
sg34
S'FTW'
p398
sg36
S'185'
p399
sg38
g3
sg39
g3
sg41
g3
sg43
g3
sg45
g3
sg46
S'1953-54'
p400
sg48
g3
sg50
g3
sg51
g3
sg53
g3
sg55
g3
sbasS'_fromYear'
p401
S'1950'
p402
sS'_url'
p403
S'http://www.basketball-reference.com/players/b/barnhle01.html'
p404
sS'_perGame'
p405
(isrc.gp1.models.PerGame
PerGame
p406
(dp407
g8
g3
sg9
g3
sg11
g3
sS'_effectiveFieldGalPercentage'
p408
g3
sg13
g3
sg14
g3
sg16
g3
sg18
g3
sg19
S'17'
p409
sg21
g3
sg24
S'NBA'
p410
sg26
g3
sg29
g3
sS'_fieldGoalsttempted'
p411
g3
sg30
g3
sg31
g3
sg32
S'29'
p412
sg34
S'FTW'
p413
sg36
g3
sg38
g3
sg39
g3
sg41
g3
sg43
g3
sg45
g3
sg46
S'1953-54'
p414
sg48
g3
sg50
g3
sg51
g3
sg53
g3
sg55
g3
sbsS'_weight'
p415
S'190'
p416
sS'_dob'
p417
S'11-5-1924'
p418
sS'_salary'
p419
(lp420
sg19
S'F-G'
p421
sb.