(isrc.gp1.models.Player
Player
p0
(dp1
S'_experience'
p2
S'NA'
p3
sS'_totals'
p4
(lp5
(isrc.gp1.models.Totals
Totals
p6
(dp7
S'_offensiveRebounds'
p8
g3
sS'_threePointsAttempted'
p9
g3
sS'_fieldGoalsPercentage'
p10
S'.250'
p11
sS'_assist'
p12
S'1'
p13
sS'_threePointsPercentage'
p14
g3
sS'_threePoints'
p15
g3
sS'_points'
p16
S'2'
p17
sS'_position'
p18
g3
sS'_freeThrowsPercentage'
p19
S'.000'
p20
sS'_effectiveFieldGoalPercentage'
p21
S'.250'
p22
sS'_league'
p23
S'NBA'
p24
sS'_steals'
p25
g3
sS'_fieldGoalsAttempted'
p26
S'4'
p27
sS'_personalFouls'
p28
S'3'
p29
sS'_freeThrowsAttempted'
p30
g13
sS'_totalRebounds'
p31
g17
sS'_age'
p32
S'24'
p33
sS'_team'
p34
S'INO'
p35
sS'_games'
p36
g17
sS'_blocks'
p37
g3
sS'_twoPoints'
p38
g13
sS'_freeThrows'
p39
S'0'
p40
sS'_twoPointsAttempted'
p41
g27
sS'_defensiveRebounds'
p42
g3
sS'_season'
p43
S'1950-51'
p44
sS'_fieldGoals'
p45
g13
sS'_turnOvers'
p46
g3
sS'_twoPointsPercentage'
p47
S'.250'
p48
sS'_minutesPlayed'
p49
g3
sS'_gamesStarted'
p50
g3
sbasS'_college'
p51
S'University of Arizona'
p52
sS'_toYear'
p53
S'1951'
p54
sS'_height'
p55
S'6-2'
p56
sS'_active'
p57
I00
sS'_shootingHand'
p58
VRight
p59
sS'_name'
p60
S'Leon Blevins'
p61
sS'_per100Possessions'
p62
(lp63
sS'_advanced'
p64
(lp65
(isrc.gp1.models.Advanced
Advanced
p66
(dp67
S'_offensiveReboundPercentage'
p68
g3
sS'_turnOverPercentage'
p69
g3
sS'_winSharesPer48Minutes'
p70
g3
sS'_stealPercentage'
p71
g3
sS'_usagePercentage'
p72
g3
sS'_totalReboundsPercentage'
p73
g3
sS'_defensiveBoxPlusMinus'
p74
g3
sg18
g3
sS'_valueOverReplacementPlayer'
p75
g3
sS'_trueShootingPercentage'
p76
S'.225'
p77
sS'_defensiveReboundPercentage'
p78
g3
sS'_freeThrowsAttempRate'
p79
S'.250'
p80
sS'_threePointsAttempRate'
p81
g3
sg23
S'NBA'
p82
sS'_offensiveBoxPlusMinues'
p83
g3
sS'_assistPercentage'
p84
g3
sS'_defensiveWinShares'
p85
S'0.0'
p86
sg32
S'24'
p87
sg34
S'INO'
p88
sg36
g17
sS'_blockPercentage'
p89
g3
sS'_playerEfficiencyRating'
p90
g3
sS'_offensiveWinShares'
p91
S'-0.1'
p92
sg49
g3
sS'_boxPlusMinus'
p93
g3
sg43
S'1950-51'
p94
sS'_winShares'
p95
S'0.0'
p96
sbasS'_per36Minutes'
p97
(lp98
(isrc.gp1.models.Per36Minutes
Per36Minutes
p99
(dp100
g8
g3
sg9
g3
sg10
S'.250'
p101
sg12
g3
sg14
g3
sg15
g3
sg16
g3
sg18
g3
sg19
S'.000'
p102
sg23
S'NBA'
p103
sg25
g3
sg26
g3
sg28
g3
sg30
g3
sg31
g3
sg32
S'24'
p104
sg34
S'INO'
p105
sg36
g17
sg37
g3
sg38
g3
sg39
g3
sg41
g3
sg42
g3
sg43
S'1950-51'
p106
sg45
g3
sg46
g3
sg47
S'.250'
p107
sg49
g3
sg50
g3
sbasS'_fromYear'
p108
S'1951'
p109
sS'_url'
p110
S'http://www.basketball-reference.com/players/b/blevile01.html'
p111
sS'_perGame'
p112
(isrc.gp1.models.PerGame
PerGame
p113
(dp114
g8
g3
sg9
g3
sg10
S'.250'
p115
sS'_effectiveFieldGalPercentage'
p116
S'.250'
p117
sg12
S'0.5'
p118
sg14
g3
sg15
g3
sg16
S'1.0'
p119
sg18
g3
sg19
S'.000'
p120
sg23
S'NBA'
p121
sg25
g3
sg28
S'1.5'
p122
sS'_fieldGoalsttempted'
p123
S'2.0'
p124
sg30
S'0.5'
p125
sg31
S'1.0'
p126
sg32
S'24'
p127
sg34
S'INO'
p128
sg36
g17
sg37
g3
sg38
S'0.5'
p129
sg39
S'0.0'
p130
sg41
S'2.0'
p131
sg42
g3
sg43
S'1950-51'
p132
sg45
S'0.5'
p133
sg46
g3
sg47
S'.250'
p134
sg49
g3
sg50
g3
sbsS'_weight'
p135
S'160'
p136
sS'_dob'
p137
S'25-6-1926'
p138
sS'_salary'
p139
(lp140
sg18
S'G'
p141
sb.