(isrc.gp1.models.Player
Player
p0
(dp1
S'_experience'
p2
S'NA'
p3
sS'_totals'
p4
(lp5
(isrc.gp1.models.Totals
Totals
p6
(dp7
S'_offensiveRebounds'
p8
g3
sS'_threePointsAttempted'
p9
S'0'
p10
sS'_fieldGoalsPercentage'
p11
S'.000'
p12
sS'_assist'
p13
g3
sS'_threePointsPercentage'
p14
g10
sS'_threePoints'
p15
S'.000'
p16
sS'_points'
p17
g3
sS'_position'
p18
S'5'
p19
sS'_freeThrowsPercentage'
p20
g3
sS'_effectiveFieldGoalPercentage'
p21
g3
sS'_league'
p22
S'BAA'
p23
sS'_steals'
p24
g3
sS'_fieldGoalsAttempted'
p25
S'3'
p26
sS'_personalFouls'
p27
g3
sS'_freeThrowsAttempted'
p28
g3
sS'_totalRebounds'
p29
g3
sS'_age'
p30
S'27'
p31
sS'_team'
p32
S'CLR'
p33
sS'_games'
p34
g10
sS'_blocks'
p35
g3
sS'_twoPoints'
p36
g10
sS'_freeThrows'
p37
g3
sS'_twoPointsAttempted'
p38
S'2'
p39
sS'_defensiveRebounds'
p40
g3
sS'_season'
p41
S'1946-47'
p42
sS'_fieldGoals'
p43
g10
sS'_turnOvers'
p44
g3
sS'_twoPointsPercentage'
p45
g10
sS'_minutesPlayed'
p46
S'.000'
p47
sS'_gamesStarted'
p48
g26
sbasS'_college'
p49
S'University of Wyoming'
p50
sS'_toYear'
p51
S'1947'
p52
sS'_height'
p53
S'6-3'
p54
sS'_active'
p55
I00
sS'_shootingHand'
p56
VRight
p57
sS'_name'
p58
S'Leon Brown'
p59
sS'_per100Possessions'
p60
(lp61
sS'_advanced'
p62
(lp63
(isrc.gp1.models.Advanced
Advanced
p64
(dp65
S'_offensiveReboundPercentage'
p66
g3
sS'_turnOverPercentage'
p67
g3
sS'_winSharesPer48Minutes'
p68
g3
sS'_stealPercentage'
p69
g3
sS'_usagePercentage'
p70
g3
sS'_totalReboundsPercentage'
p71
g3
sS'_defensiveBoxPlusMinus'
p72
g3
sg18
g19
sS'_valueOverReplacementPlayer'
p73
g3
sS'_trueShootingPercentage'
p74
S'0.0'
p75
sS'_defensiveReboundPercentage'
p76
g3
sS'_freeThrowsAttempRate'
p77
g3
sS'_threePointsAttempRate'
p78
S'-0.1'
p79
sg22
S'BAA'
p80
sS'_offensiveBoxPlusMinues'
p81
g3
sS'_assistPercentage'
p82
g3
sS'_defensiveWinShares'
p83
g3
sg30
S'27'
p84
sg32
S'CLR'
p85
sg34
S'.000'
p86
sS'_blockPercentage'
p87
g3
sS'_playerEfficiencyRating'
p88
S'-0.1'
p89
sS'_offensiveWinShares'
p90
g3
sg46
S'.000'
p91
sS'_boxPlusMinus'
p92
g3
sg41
S'1946-47'
p93
sS'_winShares'
p94
g3
sbasS'_per36Minutes'
p95
(lp96
(isrc.gp1.models.Per36Minutes
Per36Minutes
p97
(dp98
g8
g3
sg9
g3
sg11
g3
sg13
g3
sg14
g3
sg15
g3
sg17
g3
sg18
g19
sg20
g3
sg22
S'BAA'
p99
sg24
g3
sg25
g3
sg27
g3
sg28
g3
sg29
g3
sg30
S'27'
p100
sg32
S'CLR'
p101
sg34
S'.000'
p102
sg35
g3
sg36
g3
sg37
g3
sg38
g3
sg40
g3
sg41
S'1946-47'
p103
sg43
g3
sg44
g3
sg45
g3
sg46
g3
sg48
S'.000'
p104
sbasS'_fromYear'
p105
S'1947'
p106
sS'_url'
p107
S'http://www.basketball-reference.com/players/b/brownle01.html'
p108
sS'_perGame'
p109
(isrc.gp1.models.PerGame
PerGame
p110
(dp111
g8
g3
sg9
S'0.0'
p112
sg11
S'.000'
p113
sS'_effectiveFieldGalPercentage'
p114
g3
sg13
g3
sg14
S'0.0'
p115
sg15
S'.000'
p116
sg17
g3
sg18
g19
sg20
g3
sg22
S'BAA'
p117
sg24
g3
sg27
g3
sS'_fieldGoalsttempted'
p118
S'0.6'
p119
sg28
g3
sg29
g3
sg30
S'27'
p120
sg32
S'CLR'
p121
sg34
S'0.0'
p122
sg35
g3
sg36
S'0.0'
p123
sg37
g3
sg38
S'0.4'
p124
sg40
g3
sg41
S'1946-47'
p125
sg43
S'0.0'
p126
sg44
g3
sg45
S'0.0'
p127
sg46
S'.000'
p128
sg48
S'0.6'
p129
sbsS'_weight'
p130
S'190'
p131
sS'_dob'
p132
S'12-10-1919'
p133
sS'_salary'
p134
(lp135
sg18
S'F'
p136
sb.