(isrc.gp1.models.Player
Player
p0
(dp1
S'_experience'
p2
S'NA'
p3
sS'_totals'
p4
(lp5
(isrc.gp1.models.Totals
Totals
p6
(dp7
S'_offensiveRebounds'
p8
S'9'
p9
sS'_threePointsAttempted'
p10
S'0'
p11
sS'_fieldGoalsPercentage'
p12
S'.362'
p13
sS'_assist'
p14
S'29'
p15
sS'_threePointsPercentage'
p16
g3
sS'_threePoints'
p17
g11
sS'_points'
p18
S'48'
p19
sS'_position'
p20
S'SF'
p21
sS'_freeThrowsPercentage'
p22
S'.600'
p23
sS'_effectiveFieldGoalPercentage'
p24
S'.362'
p25
sS'_league'
p26
S'NBA'
p27
sS'_steals'
p28
g9
sS'_fieldGoalsAttempted'
p29
S'58'
p30
sS'_personalFouls'
p31
S'31'
p32
sS'_freeThrowsAttempted'
p33
S'10'
p34
sS'_totalRebounds'
p35
S'33'
p36
sS'_age'
p37
S'23'
p38
sS'_team'
p39
S'PHI'
p40
sS'_games'
p41
S'28'
p42
sS'_blocks'
p43
S'2'
p44
sS'_twoPoints'
p45
S'21'
p46
sS'_freeThrows'
p47
S'6'
p48
sS'_twoPointsAttempted'
p49
S'58'
p50
sS'_defensiveRebounds'
p51
S'24'
p52
sS'_season'
p53
S'1983-84'
p54
sS'_fieldGoals'
p55
S'21'
p56
sS'_turnOvers'
p57
S'19'
p58
sS'_twoPointsPercentage'
p59
S'.362'
p60
sS'_minutesPlayed'
p61
S'196'
p62
sS'_gamesStarted'
p63
S'3'
p64
sba(isrc.gp1.models.Totals
Totals
p65
(dp66
g8
S'1'
p67
sg10
g11
sg12
S'.000'
p68
sg14
g64
sg16
g3
sg17
g11
sg18
g11
sg20
S'SF'
p69
sg22
g3
sg24
S'.000'
p70
sg26
S'NBA'
p71
sg28
g11
sg29
g44
sg31
g64
sg33
g11
sg35
g44
sg37
S'24'
p72
sg39
S'ATL'
p73
sg41
S'4'
p74
sg43
g11
sg45
g11
sg47
g11
sg49
g44
sg51
g67
sg53
S'1984-85'
p75
sg55
g11
sg57
g67
sg59
S'.000'
p76
sg61
S'12'
p77
sg63
g11
sbasS'_college'
p78
S'Syracuse University'
p79
sS'_toYear'
p80
S'1985'
p81
sS'_height'
p82
S'6-8'
p83
sS'_active'
p84
I00
sS'_shootingHand'
p85
VLeft
p86
sS'_name'
p87
S'Leo Rautins'
p88
sS'_per100Possessions'
p89
(lp90
(isrc.gp1.models.Per100Possession
Per100Possession
p91
(dp92
g8
S'2.2'
p93
sg10
S'0.0'
p94
sg12
S'.362'
p95
sS'_offensiveRating'
p96
S'81'
p97
sg14
S'7.1'
p98
sg16
g3
sg17
S'0.0'
p99
sg18
S'11.8'
p100
sg20
S'SF'
p101
sS'_defensiveRating'
p102
S'105'
p103
sg22
S'.600'
p104
sg26
S'NBA'
p105
sg28
S'2.2'
p106
sg29
S'14.3'
p107
sg31
S'7.6'
p108
sg33
S'2.5'
p109
sg35
S'8.1'
p110
sg37
S'23'
p111
sg39
S'PHI'
p112
sg41
S'28'
p113
sg43
S'0.5'
p114
sg45
S'5.2'
p115
sg47
S'1.5'
p116
sg49
S'14.3'
p117
sg51
S'5.9'
p118
sg53
S'1983-84'
p119
sg55
S'5.2'
p120
sg57
S'4.7'
p121
sg59
S'.362'
p122
sg61
S'196'
p123
sg63
g64
sba(isrc.gp1.models.Per100Possession
Per100Possession
p124
(dp125
g8
S'4.0'
p126
sg10
S'0.0'
p127
sg12
S'.000'
p128
sg96
S'60'
p129
sg14
S'12.0'
p130
sg16
g3
sg17
S'0.0'
p131
sg18
S'0.0'
p132
sg20
S'SF'
p133
sg102
S'112'
p134
sg22
g3
sg26
S'NBA'
p135
sg28
S'0.0'
p136
sg29
S'8.0'
p137
sg31
S'12.0'
p138
sg33
S'0.0'
p139
sg35
S'8.0'
p140
sg37
S'24'
p141
sg39
S'ATL'
p142
sg41
g74
sg43
S'0.0'
p143
sg45
S'0.0'
p144
sg47
S'0.0'
p145
sg49
S'8.0'
p146
sg51
S'4.0'
p147
sg53
S'1984-85'
p148
sg55
S'0.0'
p149
sg57
S'4.0'
p150
sg59
S'.000'
p151
sg61
S'12'
p152
sg63
g11
sbasS'_advanced'
p153
(lp154
(isrc.gp1.models.Advanced
Advanced
p155
(dp156
S'_offensiveReboundPercentage'
p157
S'5.4'
p158
sS'_turnOverPercentage'
p159
S'23.3'
p160
sS'_winSharesPer48Minutes'
p161
S'-0.024'
p162
sS'_stealPercentage'
p163
S'2.2'
p164
sS'_usagePercentage'
p165
S'17.2'
p166
sS'_totalReboundsPercentage'
p167
S'9.6'
p168
sS'_defensiveBoxPlusMinus'
p169
S'0.6'
p170
sg20
S'SF'
p171
sS'_valueOverReplacementPlayer'
p172
S'-0.1'
p173
sS'_trueShootingPercentage'
p174
S'.385'
p175
sS'_defensiveReboundPercentage'
p176
S'13.5'
p177
sS'_freeThrowsAttempRate'
p178
S'.172'
p179
sS'_threePointsAttempRate'
p180
S'.000'
p181
sg26
S'NBA'
p182
sS'_offensiveBoxPlusMinues'
p183
S'-5.6'
p184
sS'_assistPercentage'
p185
S'20.0'
p186
sS'_defensiveWinShares'
p187
S'0.3'
p188
sg37
S'23'
p189
sg39
S'PHI'
p190
sg41
S'28'
p191
sS'_blockPercentage'
p192
S'0.6'
p193
sS'_playerEfficiencyRating'
p194
S'6.2'
p195
sS'_offensiveWinShares'
p196
S'-0.4'
p197
sg61
S'196'
p198
sS'_boxPlusMinus'
p199
S'-5.0'
p200
sg53
S'1983-84'
p201
sS'_winShares'
p202
S'-0.1'
p203
sba(isrc.gp1.models.Advanced
Advanced
p204
(dp205
g157
S'9.3'
p206
sg159
S'33.3'
p207
sg161
S'-0.126'
p208
sg163
S'0.0'
p209
sg165
S'10.3'
p210
sg167
S'9.1'
p211
sg169
S'-1.1'
p212
sg20
S'SF'
p213
sg172
S'0.0'
p214
sg174
S'.000'
p215
sg176
S'9.0'
p216
sg178
S'.000'
p217
sg180
S'.000'
p218
sg26
S'NBA'
p219
sg183
S'-8.6'
p220
sg185
S'28.8'
p221
sg187
S'0.0'
p222
sg37
S'24'
p223
sg39
S'ATL'
p224
sg41
g74
sg192
S'0.0'
p225
sg194
S'-1.8'
p226
sg196
S'0.0'
p227
sg61
S'12'
p228
sg199
S'-9.7'
p229
sg53
S'1984-85'
p230
sg202
S'0.0'
p231
sbasS'_per36Minutes'
p232
(lp233
(isrc.gp1.models.Per36Minutes
Per36Minutes
p234
(dp235
g8
S'1.7'
p236
sg10
S'0.0'
p237
sg12
S'.362'
p238
sg14
S'5.3'
p239
sg16
g3
sg17
S'0.0'
p240
sg18
S'8.8'
p241
sg20
S'SF'
p242
sg22
S'.600'
p243
sg26
S'NBA'
p244
sg28
S'1.7'
p245
sg29
S'10.7'
p246
sg31
S'5.7'
p247
sg33
S'1.8'
p248
sg35
S'6.1'
p249
sg37
S'23'
p250
sg39
S'PHI'
p251
sg41
S'28'
p252
sg43
S'0.4'
p253
sg45
S'3.9'
p254
sg47
S'1.1'
p255
sg49
S'10.7'
p256
sg51
S'4.4'
p257
sg53
S'1983-84'
p258
sg55
S'3.9'
p259
sg57
S'3.5'
p260
sg59
S'.362'
p261
sg61
S'196'
p262
sg63
g64
sba(isrc.gp1.models.Per36Minutes
Per36Minutes
p263
(dp264
g8
S'3.0'
p265
sg10
S'0.0'
p266
sg12
S'.000'
p267
sg14
S'9.0'
p268
sg16
g3
sg17
S'0.0'
p269
sg18
S'0.0'
p270
sg20
S'SF'
p271
sg22
g3
sg26
S'NBA'
p272
sg28
S'0.0'
p273
sg29
S'6.0'
p274
sg31
S'9.0'
p275
sg33
S'0.0'
p276
sg35
S'6.0'
p277
sg37
S'24'
p278
sg39
S'ATL'
p279
sg41
g74
sg43
S'0.0'
p280
sg45
S'0.0'
p281
sg47
S'0.0'
p282
sg49
S'6.0'
p283
sg51
S'3.0'
p284
sg53
S'1984-85'
p285
sg55
S'0.0'
p286
sg57
S'3.0'
p287
sg59
S'.000'
p288
sg61
S'12'
p289
sg63
g11
sbasS'_fromYear'
p290
S'1984'
p291
sS'_url'
p292
S'http://www.basketball-reference.com/players/r/rautile01.html'
p293
sS'_perGame'
p294
(isrc.gp1.models.PerGame
PerGame
p295
(dp296
g8
S'0.3'
p297
sg10
S'0.0'
p298
sg12
S'.000'
p299
sS'_effectiveFieldGalPercentage'
p300
S'.000'
p301
sg14
S'0.8'
p302
sg16
g3
sg17
S'0.0'
p303
sg18
S'0.0'
p304
sg20
S'SF'
p305
sg22
g3
sg26
S'NBA'
p306
sg28
S'0.0'
p307
sg31
S'0.8'
p308
sS'_fieldGoalsttempted'
p309
S'0.5'
p310
sg33
S'0.0'
p311
sg35
S'0.5'
p312
sg37
S'24'
p313
sg39
S'ATL'
p314
sg41
g74
sg43
S'0.0'
p315
sg45
S'0.0'
p316
sg47
S'0.0'
p317
sg49
S'0.5'
p318
sg51
S'0.3'
p319
sg53
S'1984-85'
p320
sg55
S'0.0'
p321
sg57
S'0.3'
p322
sg59
S'.000'
p323
sg61
S'3.0'
p324
sg63
g11
sbsS'_weight'
p325
S'215'
p326
sS'_dob'
p327
S'20-3-1960'
p328
sS'_salary'
p329
(lp330
sg20
S'F'
p331
sb.