(isrc.gp1.models.Player
Player
p0
(dp1
S'_experience'
p2
S'NA'
p3
sS'_totals'
p4
(lp5
(isrc.gp1.models.Totals
Totals
p6
(dp7
S'_offensiveRebounds'
p8
S'20'
p9
sS'_threePointsAttempted'
p10
S'24'
p11
sS'_fieldGoalsPercentage'
p12
S'0'
p13
sS'_assist'
p14
g3
sS'_threePointsPercentage'
p15
S'60'
p16
sS'_threePoints'
p17
g13
sS'_points'
p18
g3
sS'_position'
p19
S'PF'
p20
sS'_freeThrowsPercentage'
p21
S'14'
p22
sS'_effectiveFieldGoalPercentage'
p23
S'22'
p24
sS'_league'
p25
S'ABA'
p26
sS'_steals'
p27
g3
sS'_fieldGoalsAttempted'
p28
S'.400'
p29
sS'_personalFouls'
p30
g3
sS'_freeThrowsAttempted'
p31
S'108'
p32
sS'_totalRebounds'
p33
S'57'
p34
sS'_age'
p35
S'29'
p36
sS'_team'
p37
S'PTP'
p38
sS'_games'
p39
S'17'
p40
sS'_blocks'
p41
g3
sS'_twoPoints'
p42
S'.400'
p43
sS'_freeThrows'
p44
S'.409'
p45
sS'_twoPointsAttempted'
p46
S'.400'
p47
sS'_defensiveRebounds'
p48
S'49'
p49
sS'_season'
p50
S'1967-68'
p51
sS'_fieldGoals'
p52
S'60'
p53
sS'_turnOvers'
p54
g3
sS'_twoPointsPercentage'
p55
S'9'
p56
sS'_minutesPlayed'
p57
S'24'
p58
sS'_gamesStarted'
p59
S'331'
p60
sba(isrc.gp1.models.Totals
Totals
p61
(dp62
g8
S'30'
p63
sg10
S'4'
p64
sg12
g13
sg14
S'15'
p65
sg15
S'13'
p66
sg17
g13
sg18
g3
sg19
S'PF'
p67
sg21
S'18'
p68
sg23
S'5'
p69
sg25
S'ABA'
p70
sg27
S'8'
p71
sg28
S'.308'
p72
sg30
g3
sg31
S'12'
p73
sg33
S'2'
p74
sg35
S'30'
p75
sg37
S'MNP'
p76
sg39
S'10'
p77
sg41
g3
sg42
S'.308'
p78
sg44
S'.000'
p79
sg46
S'.308'
p80
sg48
S'1'
p81
sg50
S'1968-69'
p82
sg52
S'13'
p83
sg54
g3
sg55
g13
sg57
g64
sg59
S'95'
p84
sbasS'_college'
p85
S'University of the Pacific'
p86
sS'_toYear'
p87
S'1969'
p88
sS'_height'
p89
S'6-9'
p90
sS'_active'
p91
I00
sS'_shootingHand'
p92
VRight
p93
sS'_name'
p94
S'Leroy Wright'
p95
sS'_per100Possessions'
p96
(lp97
sS'_advanced'
p98
(lp99
(isrc.gp1.models.Advanced
Advanced
p100
(dp101
S'_offensiveReboundPercentage'
p102
S'13.8'
p103
sS'_turnOverPercentage'
p104
S'0.2'
p105
sS'_winSharesPer48Minutes'
p106
g3
sS'_stealPercentage'
p107
S'-0.1'
p108
sS'_usagePercentage'
p109
S'.036'
p110
sS'_totalReboundsPercentage'
p111
S'22.3'
p112
sS'_defensiveBoxPlusMinus'
p113
g3
sg19
S'PF'
p114
sS'_valueOverReplacementPlayer'
p115
g3
sS'_trueShootingPercentage'
p116
S'.409'
p117
sS'_defensiveReboundPercentage'
p118
S'5.4'
p119
sS'_freeThrowsAttempRate'
p120
S'.367'
p121
sS'_threePointsAttempRate'
p122
S'.000'
p123
sg25
S'ABA'
p124
sS'_offensiveBoxPlusMinues'
p125
g3
sS'_assistPercentage'
p126
S'10.1'
p127
sS'_defensiveWinShares'
p128
g3
sg35
S'29'
p129
sg37
S'PTP'
p130
sg39
S'17'
p131
sS'_blockPercentage'
p132
S'0.4'
p133
sS'_playerEfficiencyRating'
p134
S'6.3'
p135
sS'_offensiveWinShares'
p136
g3
sg57
S'331'
p137
sS'_boxPlusMinus'
p138
g3
sg50
S'1967-68'
p139
sS'_winShares'
p140
g3
sba(isrc.gp1.models.Advanced
Advanced
p141
(dp142
g102
S'14.0'
p143
sg104
S'0.0'
p144
sg106
g3
sg107
S'-0.2'
p145
sg109
S'-0.007'
p146
sg111
S'11.6'
p147
sg113
g3
sg19
S'PF'
p148
sg115
g3
sg116
S'.263'
p149
sg118
S'1.3'
p150
sg120
S'.385'
p151
sg122
S'.000'
p152
sg25
S'ABA'
p153
sg125
g3
sg126
S'6.4'
p154
sg128
g3
sg35
S'30'
p155
sg37
S'MNP'
p156
sg39
S'10'
p157
sg132
S'0.1'
p158
sg134
S'3.5'
p159
sg136
g3
sg57
S'95'
p160
sg138
g3
sg50
S'1968-69'
p161
sg140
g3
sbasS'_per36Minutes'
p162
(lp163
(isrc.gp1.models.Per36Minutes
Per36Minutes
p164
(dp165
g8
S'2.2'
p166
sg10
S'2.6'
p167
sg12
S'0.0'
p168
sg14
g3
sg15
S'6.5'
p169
sg17
S'0.0'
p170
sg18
g3
sg19
S'PF'
p171
sg21
S'1.5'
p172
sg25
S'ABA'
p173
sg27
g3
sg28
S'.400'
p174
sg30
g3
sg31
S'11.7'
p175
sg33
S'6.2'
p176
sg35
S'29'
p177
sg37
S'PTP'
p178
sg39
S'17'
p179
sg41
g3
sg42
S'.400'
p180
sg44
S'.409'
p181
sg46
S'1.0'
p182
sg48
S'5.3'
p183
sg50
S'1967-68'
p184
sg52
S'6.5'
p185
sg54
g3
sg55
S'2.4'
p186
sg57
S'2.6'
p187
sg59
S'331'
p188
sba(isrc.gp1.models.Per36Minutes
Per36Minutes
p189
(dp190
g8
S'11.4'
p191
sg10
S'1.5'
p192
sg12
S'0.0'
p193
sg14
S'5.7'
p194
sg15
S'4.9'
p195
sg17
S'0.0'
p196
sg18
g3
sg19
S'PF'
p197
sg21
S'6.8'
p198
sg25
S'ABA'
p199
sg27
S'3.0'
p200
sg28
S'.308'
p201
sg30
g3
sg31
S'4.5'
p202
sg33
S'0.8'
p203
sg35
S'30'
p204
sg37
S'MNP'
p205
sg39
S'10'
p206
sg41
g3
sg42
S'.308'
p207
sg44
S'.000'
p208
sg46
S'0.0'
p209
sg48
S'0.4'
p210
sg50
S'1968-69'
p211
sg52
S'4.9'
p212
sg54
g3
sg55
S'1.9'
p213
sg57
S'1.5'
p214
sg59
S'95'
p215
sbasS'_fromYear'
p216
S'1968'
p217
sS'_url'
p218
S'http://www.basketball-reference.com/players/w/wrighle01.html'
p219
sS'_perGame'
p220
(isrc.gp1.models.PerGame
PerGame
p221
(dp222
g8
S'3.0'
p223
sg10
S'0.4'
p224
sg12
S'0.0'
p225
sS'_effectiveFieldGalPercentage'
p226
S'0.5'
p227
sg14
S'1.5'
p228
sg15
S'1.3'
p229
sg17
S'0.0'
p230
sg18
g3
sg19
S'PF'
p231
sg21
S'1.8'
p232
sg25
S'ABA'
p233
sg27
S'0.8'
p234
sg30
g3
sS'_fieldGoalsttempted'
p235
S'.308'
p236
sg31
S'1.2'
p237
sg33
S'0.2'
p238
sg35
S'30'
p239
sg37
S'MNP'
p240
sg39
S'10'
p241
sg41
g3
sg42
S'.308'
p242
sg44
S'.000'
p243
sg46
S'.308'
p244
sg48
S'0.1'
p245
sg50
S'1968-69'
p246
sg52
S'1.3'
p247
sg54
g3
sg55
S'0.0'
p248
sg57
S'0.4'
p249
sg59
S'9.5'
p250
sbsS'_weight'
p251
S'215'
p252
sS'_dob'
p253
S'6-5-1938'
p254
sS'_salary'
p255
(lp256
sg19
S'F'
p257
sb.