(isrc.gp1.models.Player
Player
p0
(dp1
S'_experience'
p2
S'NA'
p3
sS'_totals'
p4
(lp5
(isrc.gp1.models.Totals
Totals
p6
(dp7
S'_offensiveRebounds'
p8
S'12'
p9
sS'_threePointsAttempted'
p10
S'0'
p11
sS'_fieldGoalsPercentage'
p12
S'.340'
p13
sS'_assist'
p14
S'6'
p15
sS'_threePointsPercentage'
p16
S'17'
p17
sS'_threePoints'
p18
g11
sS'_points'
p19
g3
sS'_position'
p20
S'C'
p21
sS'_freeThrowsPercentage'
p22
S'12'
p23
sS'_effectiveFieldGoalPercentage'
p24
S'9'
p25
sS'_league'
p26
S'NBA'
p27
sS'_steals'
p28
g25
sS'_fieldGoalsAttempted'
p29
S'50'
p30
sS'_personalFouls'
p31
S'43'
p32
sS'_freeThrowsAttempted'
p33
S'.474'
p34
sS'_totalRebounds'
p35
S'1'
p36
sS'_age'
p37
S'22'
p38
sS'_team'
p39
S'LAC'
p40
sS'_games'
p41
S'29'
p42
sS'_blocks'
p43
S'11'
p44
sS'_twoPoints'
p45
S'50'
p46
sS'_freeThrows'
p47
S'19'
p48
sS'_twoPointsAttempted'
p49
S'.340'
p50
sS'_defensiveRebounds'
p51
S'24'
p52
sS'_season'
p53
S'1991-92'
p54
sS'_fieldGoals'
p55
S'17'
p56
sS'_turnOvers'
p57
S'11'
p58
sS'_twoPointsPercentage'
p59
S'.340'
p60
sS'_minutesPlayed'
p61
S'103'
p62
sS'_gamesStarted'
p63
g11
sba(isrc.gp1.models.Totals
Totals
p64
(dp65
g8
g3
sg10
g3
sg12
g3
sg14
g3
sg16
g3
sg18
g3
sg19
g3
sg20
g3
sg22
g3
sg24
g3
sg26
g3
sg28
g3
sg29
g3
sg31
g3
sg33
g3
sg35
g3
sg37
S'23'
p66
sg39
S'Did Not Play\xc2\xa0(other pro league\xe2\x80\x94CBA, Italy)'
p67
sg41
g3
sg43
g3
sg45
g3
sg47
g3
sg49
g3
sg51
g3
sg53
S'1992-93'
p68
sg55
g3
sg57
g3
sg59
g3
sg61
g3
sg63
g3
sba(isrc.gp1.models.Totals
Totals
p69
(dp70
g8
S'118'
p71
sg10
g11
sg12
S'.484'
p72
sg14
S'17'
p73
sg16
S'88'
p74
sg18
g11
sg19
g3
sg20
g21
sg22
S'70'
p75
sg24
S'45'
p76
sg26
S'NBA'
p77
sg28
S'25'
p78
sg29
S'182'
p79
sg31
S'221'
p80
sg33
S'.662'
p81
sg35
S'24'
p82
sg37
S'24'
p83
sg39
S'CHH'
p84
sg41
S'50'
p85
sg43
S'21'
p86
sg45
S'182'
p87
sg47
S'68'
p88
sg49
S'.484'
p89
sg51
S'188'
p90
sg53
S'1993-94'
p91
sg55
S'88'
p92
sg57
S'83'
p93
sg59
S'.484'
p94
sg61
S'680'
p95
sg63
g36
sba(isrc.gp1.models.Totals
Totals
p96
(dp97
g8
g3
sg10
g3
sg12
g3
sg14
g3
sg16
g3
sg18
g3
sg19
g3
sg20
g3
sg22
g3
sg24
g3
sg26
g3
sg28
g3
sg29
g3
sg31
g3
sg33
g3
sg35
g3
sg37
S'25'
p98
sg39
S'Did Not Play\xc2\xa0(other pro league\xe2\x80\x94Spain)'
p99
sg41
g3
sg43
g3
sg45
g3
sg47
g3
sg49
g3
sg51
g3
sg53
S'1994-95'
p100
sg55
g3
sg57
g3
sg59
g3
sg61
g3
sg63
g3
sba(isrc.gp1.models.Totals
Totals
p101
(dp102
g8
S'3'
p103
sg10
g11
sg12
S'.227'
p104
sg14
S'2'
p105
sg16
S'5'
p106
sg18
g11
sg19
g3
sg20
g21
sg22
g106
sg24
g103
sg26
S'NBA'
p107
sg28
g103
sg29
S'22'
p108
sg31
S'13'
p109
sg33
S'.500'
p110
sg35
S'4'
p111
sg37
S'26'
p112
sg39
S'MIA'
p113
sg41
S'12'
p114
sg43
g103
sg45
S'22'
p115
sg47
g15
sg49
S'.227'
p116
sg51
S'8'
p117
sg53
S'1995-96'
p118
sg55
g106
sg57
S'11'
p119
sg59
S'.227'
p120
sg61
S'74'
p121
sg63
g36
sbasS'_college'
p122
S'Syracuse University'
p123
sS'_toYear'
p124
S'1996'
p125
sS'_height'
p126
S'6-9'
p127
sS'_active'
p128
I00
sS'_shootingHand'
p129
VRight
p130
sS'_name'
p131
S'LeRon Ellis'
p132
sS'_per100Possessions'
p133
(lp134
(isrc.gp1.models.Per100Possession
Per100Possession
p135
(dp136
g8
S'5.8'
p137
sg10
S'0.0'
p138
sg12
S'.340'
p139
sS'_offensiveRating'
p140
S'101'
p141
sg14
S'2.9'
p142
sg16
S'8.2'
p143
sg18
S'0.0'
p144
sg19
S'75'
p145
sg20
g21
sS'_defensiveRating'
p146
g3
sg22
S'5.8'
p147
sg26
S'NBA'
p148
sg28
S'4.3'
p149
sg29
S'24.1'
p150
sg31
S'20.8'
p151
sg33
S'.474'
p152
sg35
S'0.5'
p153
sg37
S'22'
p154
sg39
S'LAC'
p155
sg41
S'29'
p156
sg43
S'5.3'
p157
sg45
S'24.1'
p158
sg47
S'9.2'
p159
sg49
S'.340'
p160
sg51
S'11.6'
p161
sg53
S'1991-92'
p162
sg55
S'8.2'
p163
sg57
S'5.3'
p164
sg59
S'4.3'
p165
sg61
S'103'
p166
sg63
g11
sba(isrc.gp1.models.Per100Possession
Per100Possession
p167
(dp168
g8
S'8.5'
p169
sg10
S'0.0'
p170
sg12
S'.484'
p171
sg140
S'107'
p172
sg14
S'1.2'
p173
sg16
S'6.4'
p174
sg18
S'0.0'
p175
sg19
S'113'
p176
sg20
g21
sg146
g3
sg22
S'5.1'
p177
sg26
S'NBA'
p178
sg28
S'1.8'
p179
sg29
S'13.2'
p180
sg31
S'16.0'
p181
sg33
S'.662'
p182
sg35
S'1.7'
p183
sg37
S'24'
p184
sg39
S'CHH'
p185
sg41
S'50'
p186
sg43
S'1.5'
p187
sg45
S'13.2'
p188
sg47
S'4.9'
p189
sg49
S'.484'
p190
sg51
S'13.6'
p191
sg53
S'1993-94'
p192
sg55
S'6.4'
p193
sg57
S'6.0'
p194
sg59
S'3.3'
p195
sg61
S'680'
p196
sg63
g36
sba(isrc.gp1.models.Per100Possession
Per100Possession
p197
(dp198
g8
S'2.1'
p199
sg10
S'0.0'
p200
sg12
S'.227'
p201
sg140
S'106'
p202
sg14
S'1.4'
p203
sg16
S'3.6'
p204
sg18
S'0.0'
p205
sg19
S'70'
p206
sg20
g21
sg146
g3
sg22
S'3.6'
p207
sg26
S'NBA'
p208
sg28
S'2.1'
p209
sg29
S'15.7'
p210
sg31
S'9.3'
p211
sg33
S'.500'
p212
sg35
S'2.8'
p213
sg37
S'26'
p214
sg39
S'MIA'
p215
sg41
S'12'
p216
sg43
S'2.1'
p217
sg45
S'15.7'
p218
sg47
S'4.3'
p219
sg49
S'.227'
p220
sg51
S'5.7'
p221
sg53
S'1995-96'
p222
sg55
S'3.6'
p223
sg57
S'7.8'
p224
sg59
S'2.1'
p225
sg61
S'74'
p226
sg63
g36
sbasS'_advanced'
p227
(lp228
(isrc.gp1.models.Advanced
Advanced
p229
(dp230
S'_offensiveReboundPercentage'
p231
S'12.9'
p232
sS'_turnOverPercentage'
p233
S'15.9'
p234
sS'_winSharesPer48Minutes'
p235
S'-0.100'
p236
sS'_stealPercentage'
p237
S'2.9'
p238
sS'_usagePercentage'
p239
S'28.6'
p240
sS'_totalReboundsPercentage'
p241
S'13.0'
p242
sS'_defensiveBoxPlusMinus'
p243
S'-0.4'
p244
sg20
g21
sS'_valueOverReplacementPlayer'
p245
S'-0.2'
p246
sS'_trueShootingPercentage'
p247
S'.368'
p248
sS'_defensiveReboundPercentage'
p249
S'13.0'
p250
sS'_freeThrowsAttempRate'
p251
S'.380'
p252
sS'_threePointsAttempRate'
p253
S'.000'
p254
sg26
S'NBA'
p255
sS'_offensiveBoxPlusMinues'
p256
S'-9.7'
p257
sS'_assistPercentage'
p258
S'1.4'
p259
sS'_defensiveWinShares'
p260
S'0.2'
p261
sg37
S'22'
p262
sg39
S'LAC'
p263
sg41
S'29'
p264
sS'_blockPercentage'
p265
S'5.5'
p266
sS'_playerEfficiencyRating'
p267
S'8.6'
p268
sS'_offensiveWinShares'
p269
S'-0.4'
p270
sg61
S'103'
p271
sS'_boxPlusMinus'
p272
S'-10.2'
p273
sg53
S'1991-92'
p274
sS'_winShares'
p275
S'-0.2'
p276
sba(isrc.gp1.models.Advanced
Advanced
p277
(dp278
g231
S'11.7'
p279
sg233
S'9.0'
p280
sg235
S'.111'
p281
sg237
S'1.2'
p282
sg239
S'14.6'
p283
sg241
S'15.3'
p284
sg243
S'-0.3'
p285
sg20
g21
sg245
S'0.0'
p286
sg247
S'.521'
p287
sg249
S'18.6'
p288
sg251
S'.374'
p289
sg253
S'.000'
p290
sg26
S'NBA'
p291
sg256
S'-1.4'
p292
sg258
S'4.9'
p293
sg260
S'0.6'
p294
sg37
S'24'
p295
sg39
S'CHH'
p296
sg41
S'50'
p297
sg265
S'2.3'
p298
sg267
S'13.5'
p299
sg269
S'1.0'
p300
sg61
S'680'
p301
sg272
S'-1.7'
p302
sg53
S'1993-94'
p303
sg275
S'1.6'
p304
sba(isrc.gp1.models.Advanced
Advanced
p305
(dp306
g231
S'8.1'
p307
sg233
S'10.9'
p308
sg235
S'-0.081'
p309
sg237
S'1.4'
p310
sg239
S'17.0'
p311
sg241
S'6.3'
p312
sg243
S'0.9'
p313
sg20
g21
sg245
S'-0.1'
p314
sg247
S'.264'
p315
sg249
S'4.6'
p316
sg251
S'.273'
p317
sg253
S'.000'
p318
sg26
S'NBA'
p319
sg256
S'-8.4'
p320
sg258
S'8.1'
p321
sg260
S'0.1'
p322
sg37
S'26'
p323
sg39
S'MIA'
p324
sg41
S'12'
p325
sg265
S'3.2'
p326
sg267
S'1.6'
p327
sg269
S'-0.2'
p328
sg61
S'74'
p329
sg272
S'-7.5'
p330
sg53
S'1995-96'
p331
sg275
S'-0.1'
p332
sbasS'_per36Minutes'
p333
(lp334
(isrc.gp1.models.Per36Minutes
Per36Minutes
p335
(dp336
g8
S'4.2'
p337
sg10
S'0.0'
p338
sg12
S'.340'
p339
sg14
S'2.1'
p340
sg16
S'5.9'
p341
sg18
S'0.0'
p342
sg19
g3
sg20
g21
sg22
S'4.2'
p343
sg26
S'NBA'
p344
sg28
S'3.1'
p345
sg29
S'17.5'
p346
sg31
S'15.0'
p347
sg33
S'.474'
p348
sg35
S'0.3'
p349
sg37
S'22'
p350
sg39
S'LAC'
p351
sg41
S'29'
p352
sg43
S'3.8'
p353
sg45
S'17.5'
p354
sg47
S'6.6'
p355
sg49
S'.340'
p356
sg51
S'8.4'
p357
sg53
S'1991-92'
p358
sg55
S'5.9'
p359
sg57
S'3.8'
p360
sg59
S'3.1'
p361
sg61
S'103'
p362
sg63
g11
sba(isrc.gp1.models.Per36Minutes
Per36Minutes
p363
(dp364
g8
S'6.2'
p365
sg10
S'0.0'
p366
sg12
S'.484'
p367
sg14
S'0.9'
p368
sg16
S'4.7'
p369
sg18
S'0.0'
p370
sg19
g3
sg20
g21
sg22
S'3.7'
p371
sg26
S'NBA'
p372
sg28
S'1.3'
p373
sg29
S'9.6'
p374
sg31
S'11.7'
p375
sg33
S'.662'
p376
sg35
S'1.3'
p377
sg37
S'24'
p378
sg39
S'CHH'
p379
sg41
S'50'
p380
sg43
S'1.1'
p381
sg45
S'9.6'
p382
sg47
S'3.6'
p383
sg49
S'.484'
p384
sg51
S'10.0'
p385
sg53
S'1993-94'
p386
sg55
S'4.7'
p387
sg57
S'4.4'
p388
sg59
S'2.4'
p389
sg61
S'680'
p390
sg63
g36
sba(isrc.gp1.models.Per36Minutes
Per36Minutes
p391
(dp392
g8
S'1.5'
p393
sg10
S'0.0'
p394
sg12
S'.227'
p395
sg14
S'1.0'
p396
sg16
S'2.4'
p397
sg18
S'0.0'
p398
sg19
g3
sg20
g21
sg22
S'2.4'
p399
sg26
S'NBA'
p400
sg28
S'1.5'
p401
sg29
S'10.7'
p402
sg31
S'6.3'
p403
sg33
S'.500'
p404
sg35
S'1.9'
p405
sg37
S'26'
p406
sg39
S'MIA'
p407
sg41
S'12'
p408
sg43
S'1.5'
p409
sg45
S'10.7'
p410
sg47
S'2.9'
p411
sg49
S'.227'
p412
sg51
S'3.9'
p413
sg53
S'1995-96'
p414
sg55
S'2.4'
p415
sg57
S'5.4'
p416
sg59
S'1.5'
p417
sg61
S'74'
p418
sg63
g36
sbasS'_fromYear'
p419
S'1992'
p420
sS'_url'
p421
S'http://www.basketball-reference.com/players/e/ellisle02.html'
p422
sS'_perGame'
p423
(isrc.gp1.models.PerGame
PerGame
p424
(dp425
g8
S'0.3'
p426
sg10
S'0.0'
p427
sg12
S'.227'
p428
sS'_effectiveFieldGalPercentage'
p429
S'0.3'
p430
sg14
S'0.2'
p431
sg16
S'0.4'
p432
sg18
S'0.0'
p433
sg19
g3
sg20
g21
sg22
S'0.4'
p434
sg26
S'NBA'
p435
sg28
S'0.3'
p436
sg31
S'1.1'
p437
sS'_fieldGoalsttempted'
p438
S'1.8'
p439
sg33
S'.500'
p440
sg35
S'0.3'
p441
sg37
S'26'
p442
sg39
S'MIA'
p443
sg41
S'12'
p444
sg43
S'0.3'
p445
sg45
S'1.8'
p446
sg47
S'0.5'
p447
sg49
S'.227'
p448
sg51
S'0.7'
p449
sg53
S'1995-96'
p450
sg55
S'0.4'
p451
sg57
S'0.9'
p452
sg59
S'.227'
p453
sg61
S'6.2'
p454
sg63
g36
sbsS'_weight'
p455
S'225'
p456
sS'_dob'
p457
S'28-4-1969'
p458
sS'_salary'
p459
(lp460
(isrc.gp1.models.Salary
Salary
p461
(dp462
g39
S'Los Angeles Clippers'
p463
sg26
S'NBA'
p464
sg459
S'$180,000'
p465
sg53
S'1991-92'
p466
sba(isrc.gp1.models.Salary
Salary
p467
(dp468
g39
S'Charlotte Hornets'
p469
sg26
S'NBA'
p470
sg459
S'$150,000'
p471
sg53
S'1993-94'
p472
sba(isrc.gp1.models.Salary
Salary
p473
(dp474
g39
S'Miami Heat'
p475
sg26
S'NBA'
p476
sg459
S'$400,000'
p477
sg53
S'1995-96'
p478
sbasg20
S'F-C'
p479
sb.