(isrc.gp1.models.Player
Player
p0
(dp1
S'_experience'
p2
S'NA'
p3
sS'_totals'
p4
(lp5
(isrc.gp1.models.Totals
Totals
p6
(dp7
S'_offensiveRebounds'
p8
S'59'
p9
sS'_threePointsAttempted'
p10
S'33'
p11
sS'_fieldGoalsPercentage'
p12
S'.355'
p13
sS'_assist'
p14
S'27'
p15
sS'_threePointsPercentage'
p16
S'.212'
p17
sS'_threePoints'
p18
S'7'
p19
sS'_points'
p20
S'173'
p21
sS'_position'
p22
S'SF'
p23
sS'_freeThrowsPercentage'
p24
S'.595'
p25
sS'_effectiveFieldGoalPercentage'
p26
S'.372'
p27
sS'_league'
p28
S'NBA'
p29
sS'_steals'
p30
S'37'
p31
sS'_fieldGoalsAttempted'
p32
S'203'
p33
sS'_personalFouls'
p34
S'90'
p35
sS'_freeThrowsAttempted'
p36
S'37'
p37
sS'_totalRebounds'
p38
S'183'
p39
sS'_age'
p40
S'23'
p41
sS'_team'
p42
S'CHI'
p43
sS'_games'
p44
S'41'
p45
sS'_blocks'
p46
S'32'
p47
sS'_twoPoints'
p48
S'65'
p49
sS'_freeThrows'
p50
S'22'
p51
sS'_twoPointsAttempted'
p52
S'170'
p53
sS'_defensiveRebounds'
p54
S'124'
p55
sS'_season'
p56
S'2003-04'
p57
sS'_fieldGoals'
p58
S'72'
p59
sS'_turnOvers'
p60
S'37'
p61
sS'_twoPointsPercentage'
p62
S'.382'
p63
sS'_minutesPlayed'
p64
S'734'
p65
sS'_gamesStarted'
p66
S'20'
p67
sba(isrc.gp1.models.Totals
Totals
p68
(dp69
g8
S'3'
p70
sg10
S'1'
p71
sg12
S'.000'
p72
sg14
g71
sg16
S'.000'
p73
sg18
S'0'
p74
sg20
g3
sg22
S'SF'
p75
sg24
g74
sg26
S'.000'
p76
sg28
S'NBA'
p77
sg30
g74
sg32
S'2'
p78
sg34
g74
sg36
g74
sg38
g74
sg40
S'24'
p79
sg42
S'SAS'
p80
sg44
g78
sg46
g71
sg48
g74
sg50
g74
sg52
g71
sg54
g70
sg56
S'2004-05'
p81
sg58
g74
sg60
g71
sg62
S'.000'
p82
sg64
S'15'
p83
sg66
g74
sba(isrc.gp1.models.Totals
Totals
p84
(dp85
g8
S'40'
p86
sg10
S'36'
p87
sg12
S'.409'
p88
sg14
S'14'
p89
sg16
S'.361'
p90
sg18
S'13'
p91
sg20
S'153'
p92
sg22
S'SF'
p93
sg24
S'.667'
p94
sg26
S'.453'
p95
sg28
S'NBA'
p96
sg30
S'12'
p97
sg32
S'149'
p98
sg34
S'61'
p99
sg36
S'27'
p100
sg38
S'122'
p101
sg40
S'25'
p102
sg42
S'TOT'
p103
sg44
S'36'
p104
sg46
S'12'
p105
sg48
S'48'
p106
sg50
S'18'
p107
sg52
S'113'
p108
sg54
S'82'
p109
sg56
S'2005-06'
p110
sg58
S'61'
p111
sg60
S'28'
p112
sg62
S'.425'
p113
sg64
S'524'
p114
sg66
g19
sba(isrc.gp1.models.Totals
Totals
p115
(dp116
g8
g19
sg10
g74
sg12
S'.500'
p117
sg14
g78
sg16
S'5'
p118
sg18
g74
sg20
g3
sg22
S'SF'
p119
sg24
g74
sg26
g71
sg28
S'NBA'
p120
sg30
g74
sg32
S'10'
p121
sg34
S'11'
p122
sg36
S'.250'
p123
sg38
g78
sg40
S'25'
p124
sg42
S'NJN'
p125
sg44
S'9'
p126
sg46
S'4'
p127
sg48
S'10'
p128
sg50
g127
sg52
S'.500'
p129
sg54
g19
sg56
S'2005-06'
p130
sg58
g118
sg60
g19
sg62
S'.500'
p131
sg64
S'35'
p132
sg66
g74
sba(isrc.gp1.models.Totals
Totals
p133
(dp134
g8
S'40'
p135
sg10
S'36'
p136
sg12
S'.403'
p137
sg14
S'12'
p138
sg16
S'.361'
p139
sg18
S'13'
p140
sg20
S'142'
p141
sg22
S'SF'
p142
sg24
S'.739'
p143
sg26
S'.450'
p144
sg28
S'NBA'
p145
sg30
S'10'
p146
sg32
S'139'
p147
sg34
S'54'
p148
sg36
S'23'
p149
sg38
S'115'
p150
sg40
S'25'
p151
sg42
S'NOK'
p152
sg44
S'27'
p153
sg46
S'12'
p154
sg48
S'43'
p155
sg50
S'17'
p156
sg52
S'103'
p157
sg54
S'75'
p158
sg56
S'2005-06'
p159
sg58
S'56'
p160
sg60
S'24'
p161
sg62
S'.417'
p162
sg64
S'489'
p163
sg66
g19
sba(isrc.gp1.models.Totals
Totals
p164
(dp165
g8
S'52'
p166
sg10
S'30'
p167
sg12
S'.489'
p168
sg14
S'18'
p169
sg16
S'.333'
p170
sg18
S'10'
p171
sg20
S'226'
p172
sg22
S'PF'
p173
sg24
S'.811'
p174
sg26
S'.516'
p175
sg28
S'NBA'
p176
sg30
S'33'
p177
sg32
S'190'
p178
sg34
S'101'
p179
sg36
S'37'
p180
sg38
S'163'
p181
sg40
S'26'
p182
sg42
S'NOK'
p183
sg44
S'54'
p184
sg46
S'18'
p185
sg48
S'83'
p186
sg50
S'30'
p187
sg52
S'160'
p188
sg54
S'111'
p189
sg56
S'2006-07'
p190
sg58
S'93'
p191
sg60
S'27'
p192
sg62
S'.519'
p193
sg64
S'720'
p194
sg66
g74
sba(isrc.gp1.models.Totals
Totals
p195
(dp196
g8
g118
sg10
g70
sg12
S'.474'
p197
sg14
g127
sg16
S'.333'
p198
sg18
g71
sg20
S'21'
p199
sg22
S'PF'
p200
sg24
S'1.000'
p201
sg26
S'.500'
p202
sg28
S'NBA'
p203
sg30
g74
sg32
S'19'
p204
sg34
S'11'
p205
sg36
g78
sg38
S'14'
p206
sg40
S'27'
p207
sg42
S'TOT'
p208
sg44
S'8'
p209
sg46
g71
sg48
g209
sg50
g78
sg52
S'16'
p210
sg54
g126
sg56
S'2007-08'
p211
sg58
g126
sg60
g118
sg62
S'.500'
p212
sg64
S'63'
p213
sg66
g74
sba(isrc.gp1.models.Totals
Totals
p214
(dp215
g8
g209
sg10
g78
sg12
S'.500'
p216
sg14
g74
sg16
S'.500'
p217
sg18
g71
sg20
g3
sg22
S'PF'
p218
sg24
g118
sg26
S'.536'
p219
sg28
S'NBA'
p220
sg30
g71
sg32
S'14'
p221
sg34
S'15'
p222
sg36
g74
sg38
g70
sg40
S'27'
p223
sg42
S'PHO'
p224
sg44
S'6'
p225
sg46
g78
sg48
g225
sg50
g74
sg52
S'12'
p226
sg54
S'13'
p227
sg56
S'2007-08'
p228
sg58
g19
sg60
S'10'
p229
sg62
S'.500'
p230
sg64
S'53'
p231
sg66
g74
sba(isrc.gp1.models.Totals
Totals
p232
(dp233
g8
g74
sg10
g71
sg12
S'.400'
p234
sg14
g71
sg16
S'.000'
p235
sg18
g74
sg20
g225
sg22
S'PF'
p236
sg24
S'1.000'
p237
sg26
S'.400'
p238
sg28
S'NBA'
p239
sg30
g74
sg32
g118
sg34
g71
sg36
g78
sg38
g71
sg40
S'27'
p240
sg42
S'TOR'
p241
sg44
g78
sg46
g74
sg48
g78
sg50
g78
sg52
g127
sg54
g71
sg56
S'2007-08'
p242
sg58
g78
sg60
g70
sg62
S'.500'
p243
sg64
S'10'
p244
sg66
g74
sba(isrc.gp1.models.Totals
Totals
p245
(dp246
g8
g118
sg10
g78
sg12
S'.364'
p247
sg14
g71
sg16
S'.500'
p248
sg18
g71
sg20
g3
sg22
S'PF'
p249
sg24
g70
sg26
S'.409'
p250
sg28
S'NBA'
p251
sg30
g74
sg32
S'11'
p252
sg34
g126
sg36
g74
sg38
g78
sg40
S'28'
p253
sg42
S'TOT'
p254
sg44
S'10'
p255
sg46
g78
sg48
g70
sg50
g74
sg52
g126
sg54
g209
sg56
S'2008-09'
p256
sg58
g127
sg60
g19
sg62
S'.333'
p257
sg64
S'55'
p258
sg66
g74
sba(isrc.gp1.models.Totals
Totals
p259
(dp260
g8
g74
sg10
g74
sg12
g74
sg14
g74
sg16
g74
sg18
g74
sg20
g3
sg22
S'PF'
p261
sg24
g74
sg26
g74
sg28
S'NBA'
p262
sg30
g3
sg32
g74
sg34
g3
sg36
g74
sg38
g71
sg40
S'28'
p263
sg42
S'CHA'
p264
sg44
g78
sg46
g3
sg48
g74
sg50
g74
sg52
g74
sg54
g74
sg56
S'2008-09'
p265
sg58
g74
sg60
g3
sg62
g74
sg64
S'13'
p266
sg66
g74
sba(isrc.gp1.models.Totals
Totals
p267
(dp268
g8
g118
sg10
g78
sg12
S'.364'
p269
sg14
g71
sg16
S'.500'
p270
sg18
g71
sg20
g3
sg22
S'PF'
p271
sg24
g70
sg26
S'.409'
p272
sg28
S'NBA'
p273
sg30
g74
sg32
S'11'
p274
sg34
g126
sg36
g74
sg38
g78
sg40
S'28'
p275
sg42
S'CHI'
p276
sg44
g209
sg46
g78
sg48
g70
sg50
g74
sg52
g126
sg54
g209
sg56
S'2008-09'
p277
sg58
g127
sg60
g225
sg62
S'.333'
p278
sg64
S'42'
p279
sg66
g74
sbasS'_college'
p280
S'Tulane University'
p281
sS'_toYear'
p282
S'2009'
p283
sS'_height'
p284
S'6-8'
p285
sS'_active'
p286
I00
sS'_shootingHand'
p287
VRight
p288
sS'_name'
p289
S'Linton Johnson'
p290
sS'_per100Possessions'
p291
(lp292
(isrc.gp1.models.Per100Possession
Per100Possession
p293
(dp294
g8
S'4.2'
p295
sg10
S'2.3'
p296
sg12
S'.355'
p297
sS'_offensiveRating'
p298
S'84'
p299
sg14
S'1.9'
p300
sg16
S'.212'
p301
sg18
S'0.5'
p302
sg20
S'12.3'
p303
sg22
S'SF'
p304
sS'_defensiveRating'
p305
S'99'
p306
sg24
S'.595'
p307
sg28
S'NBA'
p308
sg30
S'2.6'
p309
sg32
S'14.4'
p310
sg34
S'6.4'
p311
sg36
S'2.6'
p312
sg38
S'13.0'
p313
sg40
S'23'
p314
sg42
S'CHI'
p315
sg44
S'41'
p316
sg46
S'2.3'
p317
sg48
S'4.6'
p318
sg50
S'1.6'
p319
sg52
S'12.1'
p320
sg54
S'8.8'
p321
sg56
S'2003-04'
p322
sg58
S'5.1'
p323
sg60
S'2.6'
p324
sg62
S'.382'
p325
sg64
S'734'
p326
sg66
S'20'
p327
sba(isrc.gp1.models.Per100Possession
Per100Possession
p328
(dp329
g8
S'10.8'
p330
sg10
S'3.6'
p331
sg12
S'.000'
p332
sg298
S'94'
p333
sg14
S'3.6'
p334
sg16
S'.000'
p335
sg18
S'0.0'
p336
sg20
g74
sg22
S'SF'
p337
sg305
g3
sg24
S'0.0'
p338
sg28
S'NBA'
p339
sg30
S'0.0'
p340
sg32
S'7.2'
p341
sg34
S'0.0'
p342
sg36
S'0.0'
p343
sg38
S'0.0'
p344
sg40
S'24'
p345
sg42
S'SAS'
p346
sg44
g78
sg46
S'3.6'
p347
sg48
S'0.0'
p348
sg50
S'0.0'
p349
sg52
S'3.6'
p350
sg54
S'10.8'
p351
sg56
S'2004-05'
p352
sg58
S'0.0'
p353
sg60
S'3.6'
p354
sg62
S'.000'
p355
sg64
S'15'
p356
sg66
g74
sba(isrc.gp1.models.Per100Possession
Per100Possession
p357
(dp358
g8
S'4.1'
p359
sg10
S'3.7'
p360
sg12
S'.409'
p361
sg298
S'94'
p362
sg14
S'1.4'
p363
sg16
S'.361'
p364
sg18
S'1.3'
p365
sg20
S'15.7'
p366
sg22
S'SF'
p367
sg305
S'106'
p368
sg24
S'.667'
p369
sg28
S'NBA'
p370
sg30
S'1.2'
p371
sg32
S'15.3'
p372
sg34
S'6.3'
p373
sg36
S'2.8'
p374
sg38
S'12.6'
p375
sg40
S'25'
p376
sg42
S'TOT'
p377
sg44
S'36'
p378
sg46
S'1.2'
p379
sg48
S'4.9'
p380
sg50
S'1.9'
p381
sg52
S'11.6'
p382
sg54
S'8.4'
p383
sg56
S'2005-06'
p384
sg58
S'6.3'
p385
sg60
S'2.9'
p386
sg62
S'.425'
p387
sg64
S'524'
p388
sg66
g19
sba(isrc.gp1.models.Per100Possession
Per100Possession
p389
(dp390
g8
S'10.7'
p391
sg10
S'0.0'
p392
sg12
S'.500'
p393
sg298
S'97'
p394
sg14
S'3.1'
p395
sg16
S'7.6'
p396
sg18
S'0.0'
p397
sg20
S'70'
p398
sg22
S'SF'
p399
sg305
g3
sg24
S'0.0'
p400
sg28
S'NBA'
p401
sg30
S'0.0'
p402
sg32
S'15.3'
p403
sg34
S'16.8'
p404
sg36
S'.250'
p405
sg38
S'3.1'
p406
sg40
S'25'
p407
sg42
S'NJN'
p408
sg44
g126
sg46
S'6.1'
p409
sg48
S'15.3'
p410
sg50
S'6.1'
p411
sg52
S'.500'
p412
sg54
S'10.7'
p413
sg56
S'2005-06'
p414
sg58
S'7.6'
p415
sg60
S'10.7'
p416
sg62
S'1.5'
p417
sg64
S'35'
p418
sg66
g74
sba(isrc.gp1.models.Per100Possession
Per100Possession
p419
(dp420
g8
S'4.4'
p421
sg10
S'4.0'
p422
sg12
S'.403'
p423
sg298
S'97'
p424
sg14
S'1.3'
p425
sg16
S'.361'
p426
sg18
S'1.4'
p427
sg20
S'15.7'
p428
sg22
S'SF'
p429
sg305
S'106'
p430
sg24
S'.739'
p431
sg28
S'NBA'
p432
sg30
S'1.1'
p433
sg32
S'15.3'
p434
sg34
S'6.0'
p435
sg36
S'2.5'
p436
sg38
S'12.7'
p437
sg40
S'25'
p438
sg42
S'NOK'
p439
sg44
S'27'
p440
sg46
S'1.3'
p441
sg48
S'4.7'
p442
sg50
S'1.9'
p443
sg52
S'11.4'
p444
sg54
S'8.3'
p445
sg56
S'2005-06'
p446
sg58
S'6.2'
p447
sg60
S'2.6'
p448
sg62
S'.417'
p449
sg64
S'489'
p450
sg66
g19
sba(isrc.gp1.models.Per100Possession
Per100Possession
p451
(dp452
g8
S'3.8'
p453
sg10
S'2.2'
p454
sg12
S'.489'
p455
sg298
S'111'
p456
sg14
S'1.3'
p457
sg16
S'.333'
p458
sg18
S'0.7'
p459
sg20
S'16.7'
p460
sg22
S'PF'
p461
sg305
S'103'
p462
sg24
S'.811'
p463
sg28
S'NBA'
p464
sg30
S'2.4'
p465
sg32
S'14.0'
p466
sg34
S'7.5'
p467
sg36
S'2.7'
p468
sg38
S'12.0'
p469
sg40
S'26'
p470
sg42
S'NOK'
p471
sg44
S'54'
p472
sg46
S'1.3'
p473
sg48
S'6.1'
p474
sg50
S'2.2'
p475
sg52
S'11.8'
p476
sg54
S'8.2'
p477
sg56
S'2006-07'
p478
sg58
S'6.9'
p479
sg60
S'2.0'
p480
sg62
S'.519'
p481
sg64
S'720'
p482
sg66
g74
sba(isrc.gp1.models.Per100Possession
Per100Possession
p483
(dp484
g8
S'4.0'
p485
sg10
S'2.4'
p486
sg12
S'.474'
p487
sg298
S'98'
p488
sg14
S'3.2'
p489
sg16
S'.333'
p490
sg18
S'0.8'
p491
sg20
S'16.7'
p492
sg22
S'PF'
p493
sg305
S'111'
p494
sg24
S'1.000'
p495
sg28
S'NBA'
p496
sg30
S'0.0'
p497
sg32
S'15.1'
p498
sg34
S'8.8'
p499
sg36
S'1.6'
p500
sg38
S'11.2'
p501
sg40
S'27'
p502
sg42
S'TOT'
p503
sg44
g209
sg46
S'0.8'
p504
sg48
S'6.4'
p505
sg50
S'1.6'
p506
sg52
S'12.7'
p507
sg54
S'7.2'
p508
sg56
S'2007-08'
p509
sg58
S'7.2'
p510
sg60
S'4.0'
p511
sg62
S'.500'
p512
sg64
S'63'
p513
sg66
g74
sba(isrc.gp1.models.Per100Possession
Per100Possession
p514
(dp515
g8
S'7.5'
p516
sg10
S'1.9'
p517
sg12
S'.500'
p518
sg298
S'111'
p519
sg14
S'0.0'
p520
sg16
S'.500'
p521
sg18
S'0.9'
p522
sg20
S'112'
p523
sg22
S'PF'
p524
sg305
g3
sg24
S'4.7'
p525
sg28
S'NBA'
p526
sg30
S'0.9'
p527
sg32
S'13.1'
p528
sg34
S'14.1'
p529
sg36
S'0.0'
p530
sg38
S'2.8'
p531
sg40
S'27'
p532
sg42
S'PHO'
p533
sg44
g225
sg46
S'1.9'
p534
sg48
S'5.6'
p535
sg50
S'0.0'
p536
sg52
S'11.2'
p537
sg54
S'12.2'
p538
sg56
S'2007-08'
p539
sg58
S'6.6'
p540
sg60
S'9.4'
p541
sg62
S'.500'
p542
sg64
S'53'
p543
sg66
g74
sba(isrc.gp1.models.Per100Possession
Per100Possession
p544
(dp545
g8
S'0.0'
p546
sg10
S'5.3'
p547
sg12
S'.400'
p548
sg298
S'72'
p549
sg14
S'5.3'
p550
sg16
S'.000'
p551
sg18
S'0.0'
p552
sg20
S'31.9'
p553
sg22
S'PF'
p554
sg305
S'112'
p555
sg24
S'1.000'
p556
sg28
S'NBA'
p557
sg30
S'0.0'
p558
sg32
S'26.6'
p559
sg34
S'5.3'
p560
sg36
S'10.6'
p561
sg38
S'5.3'
p562
sg40
S'27'
p563
sg42
S'TOR'
p564
sg44
g78
sg46
S'0.0'
p565
sg48
S'10.6'
p566
sg50
S'10.6'
p567
sg52
S'21.3'
p568
sg54
S'5.3'
p569
sg56
S'2007-08'
p570
sg58
S'10.6'
p571
sg60
S'16.0'
p572
sg62
S'.500'
p573
sg64
S'10'
p574
sg66
g74
sba(isrc.gp1.models.Per100Possession
Per100Possession
p575
(dp576
g8
S'4.7'
p577
sg10
S'1.9'
p578
sg12
S'.364'
p579
sg298
S'112'
p580
sg14
S'0.9'
p581
sg16
S'.500'
p582
sg18
S'0.9'
p583
sg20
S'89'
p584
sg22
S'PF'
p585
sg305
g3
sg24
S'2.8'
p586
sg28
S'NBA'
p587
sg30
S'0.0'
p588
sg32
S'10.4'
p589
sg34
S'8.5'
p590
sg36
S'0.0'
p591
sg38
S'1.9'
p592
sg40
S'28'
p593
sg42
S'TOT'
p594
sg44
S'10'
p595
sg46
S'1.9'
p596
sg48
S'2.8'
p597
sg50
S'0.0'
p598
sg52
S'8.5'
p599
sg54
S'7.6'
p600
sg56
S'2008-09'
p601
sg58
S'3.8'
p602
sg60
S'6.6'
p603
sg62
S'.333'
p604
sg64
S'55'
p605
sg66
g74
sba(isrc.gp1.models.Per100Possession
Per100Possession
p606
(dp607
g8
S'0.0'
p608
sg10
S'0.0'
p609
sg12
S'0.0'
p610
sg298
g3
sg14
S'4.2'
p611
sg16
S'0.0'
p612
sg18
S'0.0'
p613
sg20
g3
sg22
S'PF'
p614
sg305
g3
sg24
S'0.0'
p615
sg28
S'NBA'
p616
sg30
S'0.0'
p617
sg32
S'0.0'
p618
sg34
g3
sg36
S'0.0'
p619
sg38
S'0.0'
p620
sg40
S'28'
p621
sg42
S'CHA'
p622
sg44
g78
sg46
S'115'
p623
sg48
S'0.0'
p624
sg50
S'0.0'
p625
sg52
S'0.0'
p626
sg54
S'0.0'
p627
sg56
S'2008-09'
p628
sg58
S'0.0'
p629
sg60
g3
sg62
S'0.0'
p630
sg64
S'13'
p631
sg66
g74
sba(isrc.gp1.models.Per100Possession
Per100Possession
p632
(dp633
g8
S'6.1'
p634
sg10
S'2.5'
p635
sg12
S'.364'
p636
sg298
S'111'
p637
sg14
S'1.2'
p638
sg16
S'.500'
p639
sg18
S'1.2'
p640
sg20
S'89'
p641
sg22
S'PF'
p642
sg305
g3
sg24
S'3.7'
p643
sg28
S'NBA'
p644
sg30
S'0.0'
p645
sg32
S'13.5'
p646
sg34
S'11.1'
p647
sg36
S'0.0'
p648
sg38
S'2.5'
p649
sg40
S'28'
p650
sg42
S'CHI'
p651
sg44
g209
sg46
S'2.5'
p652
sg48
S'3.7'
p653
sg50
S'0.0'
p654
sg52
S'11.1'
p655
sg54
S'9.8'
p656
sg56
S'2008-09'
p657
sg58
S'4.9'
p658
sg60
S'7.4'
p659
sg62
S'.333'
p660
sg64
S'42'
p661
sg66
g74
sbasS'_advanced'
p662
(lp663
(isrc.gp1.models.Advanced
Advanced
p664
(dp665
S'_offensiveReboundPercentage'
p666
S'8.5'
p667
sS'_turnOverPercentage'
p668
S'14.4'
p669
sS'_winSharesPer48Minutes'
p670
S'.023'
p671
sS'_stealPercentage'
p672
S'2.6'
p673
sS'_usagePercentage'
p674
S'15.6'
p675
sS'_totalReboundsPercentage'
p676
S'13.6'
p677
sS'_defensiveBoxPlusMinus'
p678
S'2.2'
p679
sg22
S'SF'
p680
sS'_valueOverReplacementPlayer'
p681
S'-0.1'
p682
sS'_trueShootingPercentage'
p683
S'.394'
p684
sS'_defensiveReboundPercentage'
p685
S'19.0'
p686
sS'_freeThrowsAttempRate'
p687
S'.182'
p688
sS'_threePointsAttempRate'
p689
S'.163'
p690
sg28
S'NBA'
p691
sS'_offensiveBoxPlusMinues'
p692
S'-4.9'
p693
sS'_assistPercentage'
p694
S'6.1'
p695
sS'_defensiveWinShares'
p696
S'1.1'
p697
sg40
S'23'
p698
sg42
S'CHI'
p699
sg44
S'41'
p700
sS'_blockPercentage'
p701
S'3.2'
p702
sS'_playerEfficiencyRating'
p703
S'9.6'
p704
sS'_offensiveWinShares'
p705
S'-0.8'
p706
sg64
S'734'
p707
sS'_boxPlusMinus'
p708
S'-2.7'
p709
sg56
S'2003-04'
p710
sS'_winShares'
p711
S'0.4'
p712
sba(isrc.gp1.models.Advanced
Advanced
p713
(dp714
g666
S'0.0'
p715
sg668
S'33.3'
p716
sg670
S'-0.122'
p717
sg672
S'3.6'
p718
sg674
S'9.3'
p719
sg676
S'11.7'
p720
sg678
S'1.9'
p721
sg22
S'SF'
p722
sg681
S'0.0'
p723
sg683
S'.000'
p724
sg685
S'23.4'
p725
sg687
S'.000'
p726
sg689
S'.500'
p727
sg28
S'NBA'
p728
sg692
S'-13.4'
p729
sg694
S'0.0'
p730
sg696
S'0.0'
p731
sg40
S'24'
p732
sg42
S'SAS'
p733
sg44
g78
sg701
S'0.0'
p734
sg703
S'-3.4'
p735
sg705
S'-0.1'
p736
sg64
S'15'
p737
sg708
S'-11.5'
p738
sg56
S'2004-05'
p739
sg711
S'0.0'
p740
sba(isrc.gp1.models.Advanced
Advanced
p741
(dp742
g666
S'8.9'
p743
sg668
S'14.8'
p744
sg670
S'.036'
p745
sg672
S'1.2'
p746
sg674
S'16.8'
p747
sg676
S'13.8'
p748
sg678
S'-0.3'
p749
sg22
S'SF'
p750
sg681
S'-0.2'
p751
sg683
S'.476'
p752
sg685
S'19.1'
p753
sg687
S'.181'
p754
sg689
S'.242'
p755
sg28
S'NBA'
p756
sg692
S'-3.4'
p757
sg694
S'4.5'
p758
sg696
S'0.6'
p759
sg40
S'25'
p760
sg42
S'TOT'
p761
sg44
S'36'
p762
sg701
S'1.9'
p763
sg703
S'10.1'
p764
sg705
S'-0.2'
p765
sg64
S'524'
p766
sg708
S'-3.7'
p767
sg56
S'2005-06'
p768
sg711
S'0.4'
p769
sba(isrc.gp1.models.Advanced
Advanced
p770
(dp771
g666
S'0.0'
p772
sg668
S'25.4'
p773
sg670
S'-0.065'
p774
sg672
S'3.1'
p775
sg674
S'21.2'
p776
sg676
S'11.7'
p777
sg678
S'1.3'
p778
sg22
S'SF'
p779
sg681
S'-0.1'
p780
sg683
S'.468'
p781
sg685
S'23.8'
p782
sg687
S'.400'
p783
sg689
S'.000'
p784
sg28
S'NBA'
p785
sg692
S'-9.9'
p786
sg694
S'10.2'
p787
sg696
S'0.1'
p788
sg40
S'25'
p789
sg42
S'NJN'
p790
sg44
g126
sg701
S'0.0'
p791
sg703
S'4.4'
p792
sg705
S'-0.1'
p793
sg64
S'35'
p794
sg708
S'-8.6'
p795
sg56
S'2005-06'
p796
sg711
S'0.0'
p797
sba(isrc.gp1.models.Advanced
Advanced
p798
(dp799
g666
S'9.5'
p800
sg668
S'13.9'
p801
sg670
S'.043'
p802
sg672
S'1.1'
p803
sg674
S'16.5'
p804
sg676
S'14.0'
p805
sg678
S'-0.4'
p806
sg22
S'SF'
p807
sg681
S'-0.2'
p808
sg683
S'.476'
p809
sg685
S'18.8'
p810
sg687
S'.165'
p811
sg689
S'.259'
p812
sg28
S'NBA'
p813
sg692
S'-2.9'
p814
sg694
S'4.1'
p815
sg696
S'0.5'
p816
sg40
S'25'
p817
sg42
S'NOK'
p818
sg44
S'27'
p819
sg701
S'2.0'
p820
sg703
S'10.5'
p821
sg705
S'-0.1'
p822
sg64
S'489'
p823
sg708
S'-3.3'
p824
sg56
S'2005-06'
p825
sg711
S'0.4'
p826
sba(isrc.gp1.models.Advanced
Advanced
p827
(dp828
g666
S'8.2'
p829
sg668
S'11.6'
p830
sg670
S'.125'
p831
sg672
S'2.4'
p832
sg674
S'14.8'
p833
sg676
S'13.1'
p834
sg678
S'1.0'
p835
sg22
S'PF'
p836
sg681
S'0.3'
p837
sg683
S'.548'
p838
sg685
S'18.2'
p839
sg687
S'.195'
p840
sg689
S'.158'
p841
sg28
S'NBA'
p842
sg692
S'-1.5'
p843
sg694
S'4.0'
p844
sg696
S'1.0'
p845
sg40
S'26'
p846
sg42
S'NOK'
p847
sg44
S'54'
p848
sg701
S'2.0'
p849
sg703
S'14.0'
p850
sg705
S'0.8'
p851
sg64
S'720'
p852
sg708
S'-0.4'
p853
sg56
S'2006-07'
p854
sg711
S'1.9'
p855
sba(isrc.gp1.models.Advanced
Advanced
p856
(dp857
g666
S'9.8'
p858
sg668
S'20.1'
p859
sg670
S'.024'
p860
sg672
S'0.0'
p861
sg674
S'18.0'
p862
sg676
S'12.6'
p863
sg678
S'-1.8'
p864
sg22
S'PF'
p865
sg681
S'0.0'
p866
sg683
S'.528'
p867
sg685
S'15.2'
p868
sg687
S'.105'
p869
sg689
S'.158'
p870
sg28
S'NBA'
p871
sg692
S'-3.1'
p872
sg694
S'9.2'
p873
sg696
S'0.0'
p874
sg40
S'27'
p875
sg42
S'TOT'
p876
sg44
g209
sg701
S'1.0'
p877
sg703
S'8.2'
p878
sg705
S'0.0'
p879
sg64
S'63'
p880
sg708
S'-5.0'
p881
sg56
S'2007-08'
p882
sg711
S'0.0'
p883
sba(isrc.gp1.models.Advanced
Advanced
p884
(dp885
g666
S'11.6'
p886
sg668
S'12.5'
p887
sg670
S'.087'
p888
sg672
S'0.0'
p889
sg674
S'13.5'
p890
sg676
S'13.9'
p891
sg678
S'-1.3'
p892
sg22
S'PF'
p893
sg681
S'0.0'
p894
sg683
S'.536'
p895
sg685
S'15.8'
p896
sg687
S'.000'
p897
sg689
S'.143'
p898
sg28
S'NBA'
p899
sg692
S'-1.3'
p900
sg694
S'7.8'
p901
sg696
S'0.0'
p902
sg40
S'27'
p903
sg42
S'PHO'
p904
sg44
g225
sg701
S'1.2'
p905
sg703
S'9.5'
p906
sg705
S'0.1'
p907
sg64
S'53'
p908
sg708
S'-2.6'
p909
sg56
S'2007-08'
p910
sg711
S'0.1'
p911
sba(isrc.gp1.models.Advanced
Advanced
p912
(dp913
g666
S'0.0'
p914
sg668
S'33.8'
p915
sg670
S'-0.308'
p916
sg672
S'0.0'
p917
sg674
S'41.9'
p918
sg676
S'5.9'
p919
sg678
S'-4.9'
p920
sg22
S'PF'
p921
sg681
S'0.0'
p922
sg683
S'.510'
p923
sg685
S'11.9'
p924
sg687
S'.400'
p925
sg689
S'.200'
p926
sg28
S'NBA'
p927
sg692
S'-12.8'
p928
sg694
S'16.8'
p929
sg696
S'0.0'
p930
sg40
S'27'
p931
sg42
S'TOR'
p932
sg44
g78
sg701
S'0.0'
p933
sg703
S'1.1'
p934
sg705
S'-0.1'
p935
sg64
S'10'
p936
sg708
S'-17.7'
p937
sg56
S'2007-08'
p938
sg711
S'-0.1'
p939
sba(isrc.gp1.models.Advanced
Advanced
p940
(dp941
g666
S'6.3'
p942
sg668
S'15.4'
p943
sg670
S'-0.004'
p944
sg672
S'0.9'
p945
sg674
S'10.5'
p946
sg676
S'8.3'
p947
sg678
S'-0.9'
p948
sg22
S'PF'
p949
sg681
S'-0.1'
p950
sg683
S'.409'
p951
sg685
S'10.4'
p952
sg687
S'.000'
p953
sg689
S'.182'
p954
sg28
S'NBA'
p955
sg692
S'-5.1'
p956
sg694
S'5.3'
p957
sg696
S'0.0'
p958
sg40
S'28'
p959
sg42
S'TOT'
p960
sg44
S'10'
p961
sg701
S'0.0'
p962
sg703
S'3.4'
p963
sg705
S'0.0'
p964
sg64
S'55'
p965
sg708
S'-6.1'
p966
sg56
S'2008-09'
p967
sg711
S'0.0'
p968
sba(isrc.gp1.models.Advanced
Advanced
p969
(dp970
g666
S'0.0'
p971
sg668
S'0.0'
p972
sg670
S'0.0'
p973
sg672
S'0.0'
p974
sg674
S'.010'
p975
sg676
S'0.0'
p976
sg678
g3
sg22
S'PF'
p977
sg681
g3
sg683
S'0.0'
p978
sg685
S'0.0'
p979
sg687
S'0.0'
p980
sg689
S'0.0'
p981
sg28
S'NBA'
p982
sg692
g3
sg694
S'0.0'
p983
sg696
S'0.7'
p984
sg40
S'28'
p985
sg42
S'CHA'
p986
sg44
g78
sg701
S'0.0'
p987
sg703
S'-1.5'
p988
sg705
S'-6.6'
p989
sg64
S'13'
p990
sg708
g3
sg56
S'2008-09'
p991
sg711
S'-5.9'
p992
sba(isrc.gp1.models.Advanced
Advanced
p993
(dp994
g666
S'8.2'
p995
sg668
S'15.4'
p996
sg670
S'-0.008'
p997
sg672
S'1.2'
p998
sg674
S'13.8'
p999
sg676
S'10.9'
p1000
sg678
S'-1.4'
p1001
sg22
S'PF'
p1002
sg681
S'0.0'
p1003
sg683
S'.409'
p1004
sg685
S'13.6'
p1005
sg687
S'.000'
p1006
sg689
S'.182'
p1007
sg28
S'NBA'
p1008
sg692
S'-4.7'
p1009
sg694
S'6.9'
p1010
sg696
S'0.0'
p1011
sg40
S'28'
p1012
sg42
S'CHI'
p1013
sg44
g209
sg701
S'0.0'
p1014
sg703
S'5.0'
p1015
sg705
S'0.0'
p1016
sg64
S'42'
p1017
sg708
S'-6.1'
p1018
sg56
S'2008-09'
p1019
sg711
S'0.0'
p1020
sbasS'_per36Minutes'
p1021
(lp1022
(isrc.gp1.models.Per36Minutes
Per36Minutes
p1023
(dp1024
g8
S'2.9'
p1025
sg10
S'1.6'
p1026
sg12
S'.355'
p1027
sg14
S'1.3'
p1028
sg16
S'.212'
p1029
sg18
S'0.3'
p1030
sg20
S'8.5'
p1031
sg22
S'SF'
p1032
sg24
S'.595'
p1033
sg28
S'NBA'
p1034
sg30
S'1.8'
p1035
sg32
S'10.0'
p1036
sg34
S'4.4'
p1037
sg36
S'1.8'
p1038
sg38
S'9.0'
p1039
sg40
S'23'
p1040
sg42
S'CHI'
p1041
sg44
S'41'
p1042
sg46
S'1.6'
p1043
sg48
S'3.2'
p1044
sg50
S'1.1'
p1045
sg52
S'8.3'
p1046
sg54
S'6.1'
p1047
sg56
S'2003-04'
p1048
sg58
S'3.5'
p1049
sg60
S'1.8'
p1050
sg62
S'.382'
p1051
sg64
S'734'
p1052
sg66
S'20'
p1053
sba(isrc.gp1.models.Per36Minutes
Per36Minutes
p1054
(dp1055
g8
S'7.2'
p1056
sg10
S'2.4'
p1057
sg12
S'.000'
p1058
sg14
S'2.4'
p1059
sg16
S'.000'
p1060
sg18
S'0.0'
p1061
sg20
g3
sg22
S'SF'
p1062
sg24
S'0.0'
p1063
sg28
S'NBA'
p1064
sg30
S'0.0'
p1065
sg32
S'4.8'
p1066
sg34
S'0.0'
p1067
sg36
S'0.0'
p1068
sg38
S'0.0'
p1069
sg40
S'24'
p1070
sg42
S'SAS'
p1071
sg44
g78
sg46
S'2.4'
p1072
sg48
S'0.0'
p1073
sg50
S'0.0'
p1074
sg52
S'2.4'
p1075
sg54
S'7.2'
p1076
sg56
S'2004-05'
p1077
sg58
S'0.0'
p1078
sg60
S'2.4'
p1079
sg62
S'.000'
p1080
sg64
S'15'
p1081
sg66
g74
sba(isrc.gp1.models.Per36Minutes
Per36Minutes
p1082
(dp1083
g8
S'2.7'
p1084
sg10
S'2.5'
p1085
sg12
S'.409'
p1086
sg14
S'1.0'
p1087
sg16
S'.361'
p1088
sg18
S'0.9'
p1089
sg20
S'10.5'
p1090
sg22
S'SF'
p1091
sg24
S'.667'
p1092
sg28
S'NBA'
p1093
sg30
S'0.8'
p1094
sg32
S'10.2'
p1095
sg34
S'4.2'
p1096
sg36
S'1.9'
p1097
sg38
S'8.4'
p1098
sg40
S'25'
p1099
sg42
S'TOT'
p1100
sg44
S'36'
p1101
sg46
S'0.8'
p1102
sg48
S'3.3'
p1103
sg50
S'1.2'
p1104
sg52
S'7.8'
p1105
sg54
S'5.6'
p1106
sg56
S'2005-06'
p1107
sg58
S'4.2'
p1108
sg60
S'1.9'
p1109
sg62
S'.425'
p1110
sg64
S'524'
p1111
sg66
g19
sba(isrc.gp1.models.Per36Minutes
Per36Minutes
p1112
(dp1113
g8
S'7.2'
p1114
sg10
S'0.0'
p1115
sg12
S'.500'
p1116
sg14
S'2.1'
p1117
sg16
S'5.1'
p1118
sg18
S'0.0'
p1119
sg20
g3
sg22
S'SF'
p1120
sg24
S'0.0'
p1121
sg28
S'NBA'
p1122
sg30
S'0.0'
p1123
sg32
S'10.3'
p1124
sg34
S'11.3'
p1125
sg36
S'.250'
p1126
sg38
S'2.1'
p1127
sg40
S'25'
p1128
sg42
S'NJN'
p1129
sg44
g126
sg46
S'4.1'
p1130
sg48
S'10.3'
p1131
sg50
S'4.1'
p1132
sg52
S'.500'
p1133
sg54
S'7.2'
p1134
sg56
S'2005-06'
p1135
sg58
S'5.1'
p1136
sg60
S'7.2'
p1137
sg62
S'1.0'
p1138
sg64
S'35'
p1139
sg66
g74
sba(isrc.gp1.models.Per36Minutes
Per36Minutes
p1140
(dp1141
g8
S'2.9'
p1142
sg10
S'2.7'
p1143
sg12
S'.403'
p1144
sg14
S'0.9'
p1145
sg16
S'.361'
p1146
sg18
S'1.0'
p1147
sg20
S'10.5'
p1148
sg22
S'SF'
p1149
sg24
S'.739'
p1150
sg28
S'NBA'
p1151
sg30
S'0.7'
p1152
sg32
S'10.2'
p1153
sg34
S'4.0'
p1154
sg36
S'1.7'
p1155
sg38
S'8.5'
p1156
sg40
S'25'
p1157
sg42
S'NOK'
p1158
sg44
S'27'
p1159
sg46
S'0.9'
p1160
sg48
S'3.2'
p1161
sg50
S'1.3'
p1162
sg52
S'7.6'
p1163
sg54
S'5.5'
p1164
sg56
S'2005-06'
p1165
sg58
S'4.1'
p1166
sg60
S'1.8'
p1167
sg62
S'.417'
p1168
sg64
S'489'
p1169
sg66
g19
sba(isrc.gp1.models.Per36Minutes
Per36Minutes
p1170
(dp1171
g8
S'2.6'
p1172
sg10
S'1.5'
p1173
sg12
S'.489'
p1174
sg14
S'0.9'
p1175
sg16
S'.333'
p1176
sg18
S'0.5'
p1177
sg20
S'11.3'
p1178
sg22
S'PF'
p1179
sg24
S'.811'
p1180
sg28
S'NBA'
p1181
sg30
S'1.6'
p1182
sg32
S'9.5'
p1183
sg34
S'5.0'
p1184
sg36
S'1.8'
p1185
sg38
S'8.1'
p1186
sg40
S'26'
p1187
sg42
S'NOK'
p1188
sg44
S'54'
p1189
sg46
S'0.9'
p1190
sg48
S'4.1'
p1191
sg50
S'1.5'
p1192
sg52
S'8.0'
p1193
sg54
S'5.5'
p1194
sg56
S'2006-07'
p1195
sg58
S'4.6'
p1196
sg60
S'1.4'
p1197
sg62
S'.519'
p1198
sg64
S'720'
p1199
sg66
g74
sba(isrc.gp1.models.Per36Minutes
Per36Minutes
p1200
(dp1201
g8
S'2.9'
p1202
sg10
S'1.7'
p1203
sg12
S'.474'
p1204
sg14
S'2.3'
p1205
sg16
S'.333'
p1206
sg18
S'0.6'
p1207
sg20
S'12.0'
p1208
sg22
S'PF'
p1209
sg24
S'1.000'
p1210
sg28
S'NBA'
p1211
sg30
S'0.0'
p1212
sg32
S'10.9'
p1213
sg34
S'6.3'
p1214
sg36
S'1.1'
p1215
sg38
S'8.0'
p1216
sg40
S'27'
p1217
sg42
S'TOT'
p1218
sg44
g209
sg46
S'0.6'
p1219
sg48
S'4.6'
p1220
sg50
S'1.1'
p1221
sg52
S'9.1'
p1222
sg54
S'5.1'
p1223
sg56
S'2007-08'
p1224
sg58
S'5.1'
p1225
sg60
S'2.9'
p1226
sg62
S'.500'
p1227
sg64
S'63'
p1228
sg66
g74
sba(isrc.gp1.models.Per36Minutes
Per36Minutes
p1229
(dp1230
g8
S'5.4'
p1231
sg10
S'1.4'
p1232
sg12
S'.500'
p1233
sg14
S'0.0'
p1234
sg16
S'.500'
p1235
sg18
S'0.7'
p1236
sg20
g3
sg22
S'PF'
p1237
sg24
S'3.4'
p1238
sg28
S'NBA'
p1239
sg30
S'0.7'
p1240
sg32
S'9.5'
p1241
sg34
S'10.2'
p1242
sg36
S'0.0'
p1243
sg38
S'2.0'
p1244
sg40
S'27'
p1245
sg42
S'PHO'
p1246
sg44
g225
sg46
S'1.4'
p1247
sg48
S'4.1'
p1248
sg50
S'0.0'
p1249
sg52
S'8.2'
p1250
sg54
S'8.8'
p1251
sg56
S'2007-08'
p1252
sg58
S'4.8'
p1253
sg60
S'6.8'
p1254
sg62
S'.500'
p1255
sg64
S'53'
p1256
sg66
g74
sba(isrc.gp1.models.Per36Minutes
Per36Minutes
p1257
(dp1258
g8
S'0.0'
p1259
sg10
S'3.6'
p1260
sg12
S'.400'
p1261
sg14
S'3.6'
p1262
sg16
S'.000'
p1263
sg18
S'0.0'
p1264
sg20
S'21.6'
p1265
sg22
S'PF'
p1266
sg24
S'1.000'
p1267
sg28
S'NBA'
p1268
sg30
S'0.0'
p1269
sg32
S'18.0'
p1270
sg34
S'3.6'
p1271
sg36
S'7.2'
p1272
sg38
S'3.6'
p1273
sg40
S'27'
p1274
sg42
S'TOR'
p1275
sg44
g78
sg46
S'0.0'
p1276
sg48
S'7.2'
p1277
sg50
S'7.2'
p1278
sg52
S'14.4'
p1279
sg54
S'3.6'
p1280
sg56
S'2007-08'
p1281
sg58
S'7.2'
p1282
sg60
S'10.8'
p1283
sg62
S'.500'
p1284
sg64
S'10'
p1285
sg66
g74
sba(isrc.gp1.models.Per36Minutes
Per36Minutes
p1286
(dp1287
g8
S'3.3'
p1288
sg10
S'1.3'
p1289
sg12
S'.364'
p1290
sg14
S'0.7'
p1291
sg16
S'.500'
p1292
sg18
S'0.7'
p1293
sg20
g3
sg22
S'PF'
p1294
sg24
S'2.0'
p1295
sg28
S'NBA'
p1296
sg30
S'0.0'
p1297
sg32
S'7.2'
p1298
sg34
S'5.9'
p1299
sg36
S'0.0'
p1300
sg38
S'1.3'
p1301
sg40
S'28'
p1302
sg42
S'TOT'
p1303
sg44
S'10'
p1304
sg46
S'1.3'
p1305
sg48
S'2.0'
p1306
sg50
S'0.0'
p1307
sg52
S'5.9'
p1308
sg54
S'5.2'
p1309
sg56
S'2008-09'
p1310
sg58
S'2.6'
p1311
sg60
S'4.6'
p1312
sg62
S'.333'
p1313
sg64
S'55'
p1314
sg66
g74
sba(isrc.gp1.models.Per36Minutes
Per36Minutes
p1315
(dp1316
g8
S'0.0'
p1317
sg10
S'0.0'
p1318
sg12
S'0.0'
p1319
sg14
S'2.8'
p1320
sg16
S'0.0'
p1321
sg18
S'0.0'
p1322
sg20
g3
sg22
S'PF'
p1323
sg24
S'0.0'
p1324
sg28
S'NBA'
p1325
sg30
S'0.0'
p1326
sg32
S'0.0'
p1327
sg34
g3
sg36
S'0.0'
p1328
sg38
S'0.0'
p1329
sg40
S'28'
p1330
sg42
S'CHA'
p1331
sg44
g78
sg46
g3
sg48
S'0.0'
p1332
sg50
S'0.0'
p1333
sg52
S'0.0'
p1334
sg54
S'0.0'
p1335
sg56
S'2008-09'
p1336
sg58
S'0.0'
p1337
sg60
g3
sg62
S'0.0'
p1338
sg64
S'13'
p1339
sg66
g74
sba(isrc.gp1.models.Per36Minutes
Per36Minutes
p1340
(dp1341
g8
S'4.3'
p1342
sg10
S'1.7'
p1343
sg12
S'.364'
p1344
sg14
S'0.9'
p1345
sg16
S'.500'
p1346
sg18
S'0.9'
p1347
sg20
g3
sg22
S'PF'
p1348
sg24
S'2.6'
p1349
sg28
S'NBA'
p1350
sg30
S'0.0'
p1351
sg32
S'9.4'
p1352
sg34
S'7.7'
p1353
sg36
S'0.0'
p1354
sg38
S'1.7'
p1355
sg40
S'28'
p1356
sg42
S'CHI'
p1357
sg44
g209
sg46
S'1.7'
p1358
sg48
S'2.6'
p1359
sg50
S'0.0'
p1360
sg52
S'7.7'
p1361
sg54
S'6.9'
p1362
sg56
S'2008-09'
p1363
sg58
S'3.4'
p1364
sg60
S'5.1'
p1365
sg62
S'.333'
p1366
sg64
S'42'
p1367
sg66
g74
sbasS'_fromYear'
p1368
S'2004'
p1369
sS'_url'
p1370
S'http://www.basketball-reference.com/players/j/johnsli01.html'
p1371
sS'_perGame'
p1372
(isrc.gp1.models.PerGame
PerGame
p1373
(dp1374
g8
S'0.6'
p1375
sg10
S'0.3'
p1376
sg12
S'.364'
p1377
sS'_effectiveFieldGalPercentage'
p1378
S'.409'
p1379
sg14
S'0.1'
p1380
sg16
S'.500'
p1381
sg18
S'0.1'
p1382
sg20
g3
sg22
S'PF'
p1383
sg24
S'0.4'
p1384
sg28
S'NBA'
p1385
sg30
S'0.0'
p1386
sg34
S'1.1'
p1387
sS'_fieldGoalsttempted'
p1388
S'1.4'
p1389
sg36
S'0.0'
p1390
sg38
S'0.3'
p1391
sg40
S'28'
p1392
sg42
S'CHI'
p1393
sg44
g209
sg46
S'0.3'
p1394
sg48
S'0.4'
p1395
sg50
S'0.0'
p1396
sg52
S'1.1'
p1397
sg54
S'1.0'
p1398
sg56
S'2008-09'
p1399
sg58
S'0.5'
p1400
sg60
S'0.8'
p1401
sg62
S'.333'
p1402
sg64
S'5.3'
p1403
sg66
g74
sbsS'_weight'
p1404
S'205'
p1405
sS'_dob'
p1406
S'13-6-1980'
p1407
sS'_salary'
p1408
(lp1409
(isrc.gp1.models.Salary
Salary
p1410
(dp1411
g42
S'Chicago Bulls'
p1412
sg28
S'NBA'
p1413
sg1408
S'$366,931'
p1414
sg56
S'2003-04'
p1415
sba(isrc.gp1.models.Salary
Salary
p1416
(dp1417
g42
S'San Antonio Spurs'
p1418
sg28
S'NBA'
p1419
sg1408
S'$620,046'
p1420
sg56
S'2004-05'
p1421
sba(isrc.gp1.models.Salary
Salary
p1422
(dp1423
g42
S'New Jersey Nets'
p1424
sg28
S'NBA'
p1425
sg1408
S'$719,373'
p1426
sg56
S'2005-06'
p1427
sba(isrc.gp1.models.Salary
Salary
p1428
(dp1429
g42
S'New Orleans/Oklahoma City Hornets'
p1430
sg28
S'NBA'
p1431
sg1408
S'$771,331'
p1432
sg56
S'2006-07'
p1433
sba(isrc.gp1.models.Salary
Salary
p1434
(dp1435
g42
S'Phoenix Suns'
p1436
sg28
S'NBA'
p1437
sg1408
S'$283,953'
p1438
sg56
S'2007-08'
p1439
sba(isrc.gp1.models.Salary
Salary
p1440
(dp1441
g42
S'Charlotte Bobcats'
p1442
sg28
S'NBA'
p1443
sg1408
S'$125,374'
p1444
sg56
S'2008-09'
p1445
sbasg22
S'F'
p1446
sb.