(isrc.gp1.models.Player
Player
p0
(dp1
S'_experience'
p2
S'NA'
p3
sS'_totals'
p4
(lp5
(isrc.gp1.models.Totals
Totals
p6
(dp7
S'_offensiveRebounds'
p8
S'86'
p9
sS'_threePointsAttempted'
p10
S'177'
p11
sS'_fieldGoalsPercentage'
p12
S'.443'
p13
sS'_assist'
p14
S'148'
p15
sS'_threePointsPercentage'
p16
S'.333'
p17
sS'_threePoints'
p18
S'59'
p19
sS'_points'
p20
S'701'
p21
sS'_position'
p22
S'SG'
p23
sS'_freeThrowsPercentage'
p24
S'.727'
p25
sS'_effectiveFieldGoalPercentage'
p26
S'.488'
p27
sS'_league'
p28
S'NBA'
p29
sS'_steals'
p30
S'38'
p31
sS'_fieldGoalsAttempted'
p32
S'644'
p33
sS'_personalFouls'
p34
S'144'
p35
sS'_freeThrowsAttempted'
p36
S'99'
p37
sS'_totalRebounds'
p38
S'216'
p39
sS'_age'
p40
S'25'
p41
sS'_team'
p42
S'SAS'
p43
sS'_games'
p44
S'77'
p45
sS'_blocks'
p46
S'30'
p47
sS'_twoPoints'
p48
S'226'
p49
sS'_freeThrows'
p50
S'72'
p51
sS'_twoPointsAttempted'
p52
S'467'
p53
sS'_defensiveRebounds'
p54
S'130'
p55
sS'_season'
p56
S'1992-93'
p57
sS'_fieldGoals'
p58
S'285'
p59
sS'_turnOvers'
p60
S'102'
p61
sS'_twoPointsPercentage'
p62
S'.484'
p63
sS'_minutesPlayed'
p64
S'1573'
p65
sS'_gamesStarted'
p66
S'10'
p67
sba(isrc.gp1.models.Totals
Totals
p68
(dp69
g8
S'45'
p70
sg10
S'125'
p71
sg12
S'.376'
p72
sg14
S'94'
p73
sg16
S'.352'
p74
sg18
S'44'
p75
sg20
S'370'
p76
sg22
S'SG'
p77
sg24
S'.719'
p78
sg26
S'.435'
p79
sg28
S'NBA'
p80
sg30
S'29'
p81
sg32
S'372'
p82
sg34
S'69'
p83
sg36
S'64'
p84
sg38
S'111'
p85
sg40
S'26'
p86
sg42
S'SAS'
p87
sg44
S'65'
p88
sg46
S'16'
p89
sg48
S'96'
p90
sg50
S'46'
p91
sg52
S'247'
p92
sg54
S'66'
p93
sg56
S'1993-94'
p94
sg58
S'140'
p95
sg60
S'60'
p96
sg62
S'.389'
p97
sg64
S'980'
p98
sg66
S'5'
p99
sba(isrc.gp1.models.Totals
Totals
p100
(dp101
g8
S'29'
p102
sg10
S'100'
p103
sg12
S'.383'
p104
sg14
S'40'
p105
sg16
S'.260'
p106
sg18
S'26'
p107
sg20
S'208'
p108
sg22
S'SG'
p109
sg24
S'.815'
p110
sg26
S'.445'
p111
sg28
S'NBA'
p112
sg30
S'22'
p113
sg32
S'209'
p114
sg34
S'48'
p115
sg36
S'27'
p116
sg38
S'63'
p117
sg40
S'27'
p118
sg42
S'TOT'
p119
sg44
S'30'
p120
sg46
S'10'
p121
sg48
S'54'
p122
sg50
S'22'
p123
sg52
S'109'
p124
sg54
S'34'
p125
sg56
S'1994-95'
p126
sg58
S'80'
p127
sg60
S'31'
p128
sg62
S'.495'
p129
sg64
S'604'
p130
sg66
S'14'
p131
sba(isrc.gp1.models.Totals
Totals
p132
(dp133
g8
S'2'
p134
sg10
S'14'
p135
sg12
S'.333'
p136
sg14
S'4'
p137
sg16
S'.214'
p138
sg18
S'3'
p139
sg20
S'23'
p140
sg22
S'SG'
p141
sg24
S'1.000'
p142
sg26
S'.389'
p143
sg28
S'NBA'
p144
sg30
g134
sg32
S'27'
p145
sg34
S'8'
p146
sg36
g134
sg38
S'7'
p147
sg40
S'27'
p148
sg42
S'PHI'
p149
sg44
g99
sg46
S'0'
p150
sg48
S'6'
p151
sg50
g134
sg52
S'13'
p152
sg54
g99
sg56
S'1994-95'
p153
sg58
S'9'
p154
sg60
g146
sg62
S'.462'
p155
sg64
S'63'
p156
sg66
g150
sba(isrc.gp1.models.Totals
Totals
p157
(dp158
g8
S'27'
p159
sg10
S'86'
p160
sg12
S'.390'
p161
sg14
S'36'
p162
sg16
S'.267'
p163
sg18
S'23'
p164
sg20
S'185'
p165
sg22
S'SG'
p166
sg24
S'.800'
p167
sg26
S'.453'
p168
sg28
S'NBA'
p169
sg30
S'20'
p170
sg32
S'182'
p171
sg34
S'40'
p172
sg36
S'25'
p173
sg38
S'56'
p174
sg40
S'27'
p175
sg42
S'LAL'
p176
sg44
S'25'
p177
sg46
S'10'
p178
sg48
S'48'
p179
sg50
S'20'
p180
sg52
S'96'
p181
sg54
S'29'
p182
sg56
S'1994-95'
p183
sg58
S'71'
p184
sg60
S'23'
p185
sg62
S'.500'
p186
sg64
S'541'
p187
sg66
S'14'
p188
sba(isrc.gp1.models.Totals
Totals
p189
(dp190
g8
g3
sg10
g3
sg12
g3
sg14
g3
sg16
g3
sg18
g3
sg20
g3
sg22
g3
sg24
g3
sg26
g3
sg28
g3
sg30
g3
sg32
g3
sg34
g3
sg36
g3
sg38
g3
sg40
S'28'
p191
sg42
S'Did Not Play\xc2\xa0(other pro league\xe2\x80\x94Italy)'
p192
sg44
g3
sg46
g3
sg48
g3
sg50
g3
sg52
g3
sg54
g3
sg56
S'1995-96'
p193
sg58
g3
sg60
g3
sg62
g3
sg64
g3
sg66
g3
sba(isrc.gp1.models.Totals
Totals
p194
(dp195
g8
S'19'
p196
sg10
S'70'
p197
sg12
S'.303'
p198
sg14
S'26'
p199
sg16
S'.300'
p200
sg18
S'21'
p201
sg20
S'98'
p202
sg22
S'SG'
p203
sg24
S'.833'
p204
sg26
S'.391'
p205
sg28
S'NBA'
p206
sg30
S'10'
p207
sg32
S'119'
p208
sg34
S'33'
p209
sg36
g151
sg38
S'43'
p210
sg40
S'29'
p211
sg42
S'TOT'
p212
sg44
S'22'
p213
sg46
g139
sg48
S'15'
p214
sg50
g99
sg52
S'49'
p215
sg54
S'24'
p216
sg56
S'1996-97'
p217
sg58
S'36'
p218
sg60
S'14'
p219
sg62
S'.306'
p220
sg64
S'310'
p221
sg66
g150
sba(isrc.gp1.models.Totals
Totals
p222
(dp223
g8
g139
sg10
S'11'
p224
sg12
S'.125'
p225
sg14
S'1'
p226
sg16
S'.182'
p227
sg18
g134
sg20
g3
sg22
S'SG'
p228
sg24
g226
sg26
S'.188'
p229
sg28
S'NBA'
p230
sg30
g150
sg32
S'16'
p231
sg34
g151
sg36
g150
sg38
g226
sg40
S'29'
p232
sg42
S'SAC'
p233
sg44
g99
sg46
g139
sg48
g150
sg50
g150
sg52
g99
sg54
g137
sg56
S'1996-97'
p234
sg58
g134
sg60
g137
sg62
S'.000'
p235
sg64
S'28'
p236
sg66
g150
sba(isrc.gp1.models.Totals
Totals
p237
(dp238
g8
S'18'
p239
sg10
S'59'
p240
sg12
S'.330'
p241
sg14
S'25'
p242
sg16
S'.322'
p243
sg18
S'19'
p244
sg20
S'92'
p245
sg22
S'SG'
p246
sg24
S'.833'
p247
sg26
S'.422'
p248
sg28
S'NBA'
p249
sg30
g154
sg32
S'103'
p250
sg34
S'29'
p251
sg36
g151
sg38
S'39'
p252
sg40
S'29'
p253
sg42
S'NJN'
p254
sg44
S'17'
p255
sg46
g139
sg48
S'15'
p256
sg50
g99
sg52
S'44'
p257
sg54
S'21'
p258
sg56
S'1996-97'
p259
sg58
S'34'
p260
sg60
S'11'
p261
sg62
S'.341'
p262
sg64
S'282'
p263
sg66
g150
sba(isrc.gp1.models.Totals
Totals
p264
(dp265
g8
g137
sg10
g154
sg12
S'.414'
p266
sg14
g137
sg16
S'.222'
p267
sg18
g134
sg20
S'34'
p268
sg22
S'SG'
p269
sg24
S'.800'
p270
sg26
S'.448'
p271
sg28
S'NBA'
p272
sg30
g139
sg32
S'29'
p273
sg34
g137
sg36
S'10'
p274
sg38
g147
sg40
S'30'
p275
sg42
S'TOR'
p276
sg44
g151
sg46
g134
sg48
S'10'
p277
sg50
g146
sg52
S'20'
p278
sg54
g139
sg56
S'1997-98'
p279
sg58
S'12'
p280
sg60
g137
sg62
S'.500'
p281
sg64
S'82'
p282
sg66
g150
sbasS'_college'
p283
S'Mount San Antonio College'
p284
sS'_toYear'
p285
S'1998'
p286
sS'_height'
p287
S'6-7'
p288
sS'_active'
p289
I00
sS'_shootingHand'
p290
VRight
p291
sS'_name'
p292
S'Lloyd Daniels'
p293
sS'_per100Possessions'
p294
(lp295
(isrc.gp1.models.Per100Possession
Per100Possession
p296
(dp297
g8
S'2.8'
p298
sg10
S'5.7'
p299
sg12
S'.443'
p300
sS'_offensiveRating'
p301
S'102'
p302
sg14
S'4.7'
p303
sg16
S'.333'
p304
sg18
S'1.9'
p305
sg20
S'22.4'
p306
sg22
S'SG'
p307
sS'_defensiveRating'
p308
S'109'
p309
sg24
S'.727'
p310
sg28
S'NBA'
p311
sg30
S'1.2'
p312
sg32
S'20.6'
p313
sg34
S'4.6'
p314
sg36
S'3.2'
p315
sg38
S'6.9'
p316
sg40
S'25'
p317
sg42
S'SAS'
p318
sg44
S'77'
p319
sg46
S'1.0'
p320
sg48
S'7.2'
p321
sg50
S'2.3'
p322
sg52
S'14.9'
p323
sg54
S'4.2'
p324
sg56
S'1992-93'
p325
sg58
S'9.1'
p326
sg60
S'3.3'
p327
sg62
S'.484'
p328
sg64
S'1573'
p329
sg66
S'10'
p330
sba(isrc.gp1.models.Per100Possession
Per100Possession
p331
(dp332
g8
S'2.4'
p333
sg10
S'6.8'
p334
sg12
S'.376'
p335
sg301
S'99'
p336
sg14
S'5.1'
p337
sg16
S'.352'
p338
sg18
S'2.4'
p339
sg20
S'20.1'
p340
sg22
S'SG'
p341
sg308
S'107'
p342
sg24
S'.719'
p343
sg28
S'NBA'
p344
sg30
S'1.6'
p345
sg32
S'20.2'
p346
sg34
S'3.8'
p347
sg36
S'3.5'
p348
sg38
S'6.0'
p349
sg40
S'26'
p350
sg42
S'SAS'
p351
sg44
S'65'
p352
sg46
S'0.9'
p353
sg48
S'5.2'
p354
sg50
S'2.5'
p355
sg52
S'13.4'
p356
sg54
S'3.6'
p357
sg56
S'1993-94'
p358
sg58
S'7.6'
p359
sg60
S'3.3'
p360
sg62
S'.389'
p361
sg64
S'980'
p362
sg66
g99
sba(isrc.gp1.models.Per100Possession
Per100Possession
p363
(dp364
g8
S'2.4'
p365
sg10
S'8.4'
p366
sg12
S'.383'
p367
sg301
S'98'
p368
sg14
S'3.4'
p369
sg16
S'.260'
p370
sg18
S'2.2'
p371
sg20
S'17.4'
p372
sg22
S'SG'
p373
sg308
S'112'
p374
sg24
S'.815'
p375
sg28
S'NBA'
p376
sg30
S'1.8'
p377
sg32
S'17.5'
p378
sg34
S'4.0'
p379
sg36
S'2.3'
p380
sg38
S'5.3'
p381
sg40
S'27'
p382
sg42
S'TOT'
p383
sg44
S'30'
p384
sg46
S'0.8'
p385
sg48
S'4.5'
p386
sg50
S'1.8'
p387
sg52
S'9.1'
p388
sg54
S'2.9'
p389
sg56
S'1994-95'
p390
sg58
S'6.7'
p391
sg60
S'2.6'
p392
sg62
S'.495'
p393
sg64
S'604'
p394
sg66
S'14'
p395
sba(isrc.gp1.models.Per100Possession
Per100Possession
p396
(dp397
g8
S'1.7'
p398
sg10
S'11.7'
p399
sg12
S'.333'
p400
sg301
S'75'
p401
sg14
S'3.3'
p402
sg16
S'.214'
p403
sg18
S'2.5'
p404
sg20
S'19.3'
p405
sg22
S'SG'
p406
sg308
S'112'
p407
sg24
S'1.000'
p408
sg28
S'NBA'
p409
sg30
S'1.7'
p410
sg32
S'22.6'
p411
sg34
S'6.7'
p412
sg36
S'1.7'
p413
sg38
S'5.9'
p414
sg40
S'27'
p415
sg42
S'PHI'
p416
sg44
g99
sg46
S'0.0'
p417
sg48
S'5.0'
p418
sg50
S'1.7'
p419
sg52
S'10.9'
p420
sg54
S'4.2'
p421
sg56
S'1994-95'
p422
sg58
S'7.5'
p423
sg60
S'6.7'
p424
sg62
S'.462'
p425
sg64
S'63'
p426
sg66
g150
sba(isrc.gp1.models.Per100Possession
Per100Possession
p427
(dp428
g8
S'2.5'
p429
sg10
S'8.0'
p430
sg12
S'.390'
p431
sg301
S'102'
p432
sg14
S'3.4'
p433
sg16
S'.267'
p434
sg18
S'2.1'
p435
sg20
S'17.2'
p436
sg22
S'SG'
p437
sg308
S'112'
p438
sg24
S'.800'
p439
sg28
S'NBA'
p440
sg30
S'1.9'
p441
sg32
S'17.0'
p442
sg34
S'3.7'
p443
sg36
S'2.3'
p444
sg38
S'5.2'
p445
sg40
S'27'
p446
sg42
S'LAL'
p447
sg44
S'25'
p448
sg46
S'0.9'
p449
sg48
S'4.5'
p450
sg50
S'1.9'
p451
sg52
S'8.9'
p452
sg54
S'2.7'
p453
sg56
S'1994-95'
p454
sg58
S'6.6'
p455
sg60
S'2.1'
p456
sg62
S'.500'
p457
sg64
S'541'
p458
sg66
S'14'
p459
sba(isrc.gp1.models.Per100Possession
Per100Possession
p460
(dp461
g8
S'3.2'
p462
sg10
S'11.7'
p463
sg12
S'.303'
p464
sg301
S'95'
p465
sg14
S'4.4'
p466
sg16
S'.300'
p467
sg18
S'3.5'
p468
sg20
S'16.4'
p469
sg22
S'SG'
p470
sg308
S'112'
p471
sg24
S'.833'
p472
sg28
S'NBA'
p473
sg30
S'1.7'
p474
sg32
S'20.0'
p475
sg34
S'5.5'
p476
sg36
S'1.0'
p477
sg38
S'7.2'
p478
sg40
S'29'
p479
sg42
S'TOT'
p480
sg44
S'22'
p481
sg46
S'0.5'
p482
sg48
S'2.5'
p483
sg50
S'0.8'
p484
sg52
S'8.2'
p485
sg54
S'4.0'
p486
sg56
S'1996-97'
p487
sg58
S'6.0'
p488
sg60
S'2.3'
p489
sg62
S'.306'
p490
sg64
S'310'
p491
sg66
g150
sba(isrc.gp1.models.Per100Possession
Per100Possession
p492
(dp493
g8
S'5.6'
p494
sg10
S'20.7'
p495
sg12
S'.125'
p496
sg301
S'109'
p497
sg14
S'1.9'
p498
sg16
S'.182'
p499
sg18
S'3.8'
p500
sg20
S'43'
p501
sg22
S'SG'
p502
sg308
g3
sg24
S'1.9'
p503
sg28
S'NBA'
p504
sg30
S'0.0'
p505
sg32
S'30.1'
p506
sg34
S'11.3'
p507
sg36
S'0.0'
p508
sg38
S'1.9'
p509
sg40
S'29'
p510
sg42
S'SAC'
p511
sg44
g99
sg46
S'5.6'
p512
sg48
S'0.0'
p513
sg50
S'0.0'
p514
sg52
S'9.4'
p515
sg54
S'7.5'
p516
sg56
S'1996-97'
p517
sg58
S'3.8'
p518
sg60
S'7.5'
p519
sg62
S'.000'
p520
sg64
S'28'
p521
sg66
g150
sba(isrc.gp1.models.Per100Possession
Per100Possession
p522
(dp523
g8
S'3.3'
p524
sg10
S'10.9'
p525
sg12
S'.330'
p526
sg301
S'103'
p527
sg14
S'4.6'
p528
sg16
S'.322'
p529
sg18
S'3.5'
p530
sg20
S'17.0'
p531
sg22
S'SG'
p532
sg308
S'112'
p533
sg24
S'.833'
p534
sg28
S'NBA'
p535
sg30
S'1.7'
p536
sg32
S'19.0'
p537
sg34
S'5.3'
p538
sg36
S'1.1'
p539
sg38
S'7.2'
p540
sg40
S'29'
p541
sg42
S'NJN'
p542
sg44
S'17'
p543
sg46
S'0.6'
p544
sg48
S'2.8'
p545
sg50
S'0.9'
p546
sg52
S'8.1'
p547
sg54
S'3.9'
p548
sg56
S'1996-97'
p549
sg58
S'6.3'
p550
sg60
S'2.0'
p551
sg62
S'.341'
p552
sg64
S'282'
p553
sg66
g150
sba(isrc.gp1.models.Per100Possession
Per100Possession
p554
(dp555
g8
S'2.5'
p556
sg10
S'5.7'
p557
sg12
S'.414'
p558
sg301
S'105'
p559
sg14
S'2.5'
p560
sg16
S'.222'
p561
sg18
S'1.3'
p562
sg20
S'21.5'
p563
sg22
S'SG'
p564
sg308
S'115'
p565
sg24
S'.800'
p566
sg28
S'NBA'
p567
sg30
S'1.9'
p568
sg32
S'18.3'
p569
sg34
S'2.5'
p570
sg36
S'6.3'
p571
sg38
S'4.4'
p572
sg40
S'30'
p573
sg42
S'TOR'
p574
sg44
g151
sg46
S'1.3'
p575
sg48
S'6.3'
p576
sg50
S'5.1'
p577
sg52
S'12.6'
p578
sg54
S'1.9'
p579
sg56
S'1997-98'
p580
sg58
S'7.6'
p581
sg60
S'2.5'
p582
sg62
S'.500'
p583
sg64
S'82'
p584
sg66
g150
sbasS'_advanced'
p585
(lp586
(isrc.gp1.models.Advanced
Advanced
p587
(dp588
S'_offensiveReboundPercentage'
p589
S'6.6'
p590
sS'_turnOverPercentage'
p591
S'12.9'
p592
sS'_winSharesPer48Minutes'
p593
S'.056'
p594
sS'_stealPercentage'
p595
S'1.2'
p596
sS'_usagePercentage'
p597
S'22.1'
p598
sS'_totalReboundsPercentage'
p599
S'7.9'
p600
sS'_defensiveBoxPlusMinus'
p601
S'-1.0'
p602
sg22
S'SG'
p603
sS'_valueOverReplacementPlayer'
p604
S'0.5'
p605
sS'_trueShootingPercentage'
p606
S'.510'
p607
sS'_defensiveReboundPercentage'
p608
S'9.1'
p609
sS'_freeThrowsAttempRate'
p610
S'.154'
p611
sS'_threePointsAttempRate'
p612
S'.275'
p613
sg28
S'NBA'
p614
sS'_offensiveBoxPlusMinues'
p615
S'0.2'
p616
sS'_assistPercentage'
p617
S'14.4'
p618
sS'_defensiveWinShares'
p619
S'1.3'
p620
sg40
S'25'
p621
sg42
S'SAS'
p622
sg44
S'77'
p623
sS'_blockPercentage'
p624
S'1.2'
p625
sS'_playerEfficiencyRating'
p626
S'12.9'
p627
sS'_offensiveWinShares'
p628
S'0.5'
p629
sg64
S'1573'
p630
sS'_boxPlusMinus'
p631
S'-0.8'
p632
sg56
S'1992-93'
p633
sS'_winShares'
p634
S'1.8'
p635
sba(isrc.gp1.models.Advanced
Advanced
p636
(dp637
g589
S'5.4'
p638
sg591
S'13.0'
p639
sg593
S'.054'
p640
sg595
S'1.6'
p641
sg597
S'21.0'
p642
sg599
S'6.4'
p643
sg601
S'-1.4'
p644
sg22
S'SG'
p645
sg604
S'-0.1'
p646
sg606
S'.462'
p647
sg608
S'7.2'
p648
sg610
S'.172'
p649
sg612
S'.336'
p650
sg28
S'NBA'
p651
sg615
S'-0.9'
p652
sg617
S'14.5'
p653
sg619
S'0.9'
p654
sg40
S'26'
p655
sg42
S'SAS'
p656
sg44
S'65'
p657
sg624
S'1.1'
p658
sg626
S'11.2'
p659
sg628
S'0.2'
p660
sg64
S'980'
p661
sg631
S'-2.3'
p662
sg56
S'1993-94'
p663
sg634
S'1.1'
p664
sba(isrc.gp1.models.Advanced
Advanced
p665
(dp666
g589
S'5.3'
p667
sg591
S'12.3'
p668
sg593
S'.019'
p669
sg595
S'1.8'
p670
sg597
S'18.1'
p671
sg599
S'5.8'
p672
sg601
S'-1.6'
p673
sg22
S'SG'
p674
sg604
S'-0.1'
p675
sg606
S'.471'
p676
sg608
S'6.3'
p677
sg610
S'.129'
p678
sg612
S'.478'
p679
sg28
S'NBA'
p680
sg615
S'-1.3'
p681
sg617
S'9.7'
p682
sg619
S'0.3'
p683
sg40
S'27'
p684
sg42
S'TOT'
p685
sg44
S'30'
p686
sg624
S'1.1'
p687
sg626
S'9.7'
p688
sg628
S'-0.1'
p689
sg64
S'604'
p690
sg631
S'-2.9'
p691
sg56
S'1994-95'
p692
sg634
S'0.2'
p693
sba(isrc.gp1.models.Advanced
Advanced
p694
(dp695
g589
S'3.7'
p696
sg591
S'22.3'
p697
sg593
S'-0.145'
p698
sg595
S'1.7'
p699
sg597
S'25.4'
p700
sg599
S'6.5'
p701
sg601
S'-3.5'
p702
sg22
S'SG'
p703
sg604
S'-0.1'
p704
sg606
S'.412'
p705
sg608
S'9.3'
p706
sg610
S'.074'
p707
sg612
S'.519'
p708
sg28
S'NBA'
p709
sg615
S'-6.0'
p710
sg617
S'10.6'
p711
sg619
S'0.0'
p712
sg40
S'27'
p713
sg42
S'PHI'
p714
sg44
g99
sg624
S'0.0'
p715
sg626
S'3.1'
p716
sg628
S'-0.2'
p717
sg64
S'63'
p718
sg631
S'-9.5'
p719
sg56
S'1994-95'
p720
sg634
S'-0.2'
p721
sba(isrc.gp1.models.Advanced
Advanced
p722
(dp723
g589
S'5.5'
p724
sg591
S'10.6'
p725
sg593
S'.038'
p726
sg595
S'1.9'
p727
sg597
S'17.2'
p728
sg599
S'5.7'
p729
sg601
S'-1.3'
p730
sg22
S'SG'
p731
sg604
S'0.0'
p732
sg606
S'.479'
p733
sg608
S'5.9'
p734
sg610
S'.137'
p735
sg612
S'.473'
p736
sg28
S'NBA'
p737
sg615
S'-0.7'
p738
sg617
S'9.6'
p739
sg619
S'0.3'
p740
sg40
S'27'
p741
sg42
S'LAL'
p742
sg44
S'25'
p743
sg624
S'1.3'
p744
sg626
S'10.4'
p745
sg628
S'0.1'
p746
sg64
S'541'
p747
sg631
S'-2.1'
p748
sg56
S'1994-95'
p749
sg634
S'0.4'
p750
sba(isrc.gp1.models.Advanced
Advanced
p751
(dp752
g589
S'6.3'
p753
sg591
S'10.3'
p754
sg593
S'.001'
p755
sg595
S'1.7'
p756
sg597
S'18.8'
p757
sg599
S'7.6'
p758
sg601
S'-2.3'
p759
sg22
S'SG'
p760
sg604
S'-0.1'
p761
sg606
S'.403'
p762
sg608
S'8.9'
p763
sg610
S'.050'
p764
sg612
S'.588'
p765
sg28
S'NBA'
p766
sg615
S'-1.4'
p767
sg617
S'13.1'
p768
sg619
S'0.1'
p769
sg40
S'29'
p770
sg42
S'TOT'
p771
sg44
S'22'
p772
sg624
S'0.7'
p773
sg626
S'8.3'
p774
sg628
S'-0.1'
p775
sg64
S'310'
p776
sg631
S'-3.7'
p777
sg56
S'1996-97'
p778
sg634
S'0.0'
p779
sba(isrc.gp1.models.Advanced
Advanced
p780
(dp781
g589
S'4.1'
p782
sg591
S'15.8'
p783
sg593
S'-0.398'
p784
sg595
S'1.9'
p785
sg597
S'30.4'
p786
sg599
S'8.3'
p787
sg601
S'-5.5'
p788
sg22
S'SG'
p789
sg604
S'-0.1'
p790
sg606
S'.188'
p791
sg608
S'12.6'
p792
sg610
S'.000'
p793
sg612
S'.688'
p794
sg28
S'NBA'
p795
sg615
S'-13.5'
p796
sg617
S'5.2'
p797
sg619
S'0.0'
p798
sg40
S'29'
p799
sg42
S'SAC'
p800
sg44
g99
sg624
S'0.0'
p801
sg626
S'-10.5'
p802
sg628
S'-0.3'
p803
sg64
S'28'
p804
sg631
S'-19.0'
p805
sg56
S'1996-97'
p806
sg634
S'-0.2'
p807
sba(isrc.gp1.models.Advanced
Advanced
p808
(dp809
g589
S'6.5'
p810
sg591
S'9.4'
p811
sg593
S'.041'
p812
sg595
S'1.7'
p813
sg597
S'17.6'
p814
sg599
S'7.5'
p815
sg601
S'-2.0'
p816
sg22
S'SG'
p817
sg604
S'0.0'
p818
sg606
S'.435'
p819
sg608
S'8.6'
p820
sg610
S'.058'
p821
sg612
S'.573'
p822
sg28
S'NBA'
p823
sg615
S'-0.2'
p824
sg617
S'13.9'
p825
sg619
S'0.1'
p826
sg40
S'29'
p827
sg42
S'NJN'
p828
sg44
S'17'
p829
sg624
S'0.8'
p830
sg626
S'10.1'
p831
sg628
S'0.1'
p832
sg64
S'282'
p833
sg631
S'-2.2'
p834
sg56
S'1996-97'
p835
sg634
S'0.2'
p836
sba(isrc.gp1.models.Advanced
Advanced
p837
(dp838
g589
S'5.3'
p839
sg591
S'10.7'
p840
sg593
S'.040'
p841
sg595
S'1.9'
p842
sg597
S'20.0'
p843
sg599
S'4.8'
p844
sg601
S'-4.0'
p845
sg22
S'SG'
p846
sg604
S'-0.1'
p847
sg606
S'.509'
p848
sg608
S'4.3'
p849
sg610
S'.345'
p850
sg612
S'.310'
p851
sg28
S'NBA'
p852
sg615
S'-1.1'
p853
sg617
S'8.2'
p854
sg619
S'0.0'
p855
sg40
S'30'
p856
sg42
S'TOR'
p857
sg44
g151
sg624
S'1.7'
p858
sg626
S'13.5'
p859
sg628
S'0.1'
p860
sg64
S'82'
p861
sg631
S'-5.1'
p862
sg56
S'1997-98'
p863
sg634
S'0.1'
p864
sbasS'_per36Minutes'
p865
(lp866
(isrc.gp1.models.Per36Minutes
Per36Minutes
p867
(dp868
g8
S'2.0'
p869
sg10
S'4.1'
p870
sg12
S'.443'
p871
sg14
S'3.4'
p872
sg16
S'.333'
p873
sg18
S'1.4'
p874
sg20
S'16.0'
p875
sg22
S'SG'
p876
sg24
S'.727'
p877
sg28
S'NBA'
p878
sg30
S'0.9'
p879
sg32
S'14.7'
p880
sg34
S'3.3'
p881
sg36
S'2.3'
p882
sg38
S'4.9'
p883
sg40
S'25'
p884
sg42
S'SAS'
p885
sg44
S'77'
p886
sg46
S'0.7'
p887
sg48
S'5.2'
p888
sg50
S'1.6'
p889
sg52
S'10.7'
p890
sg54
S'3.0'
p891
sg56
S'1992-93'
p892
sg58
S'6.5'
p893
sg60
S'2.3'
p894
sg62
S'.484'
p895
sg64
S'1573'
p896
sg66
S'10'
p897
sba(isrc.gp1.models.Per36Minutes
Per36Minutes
p898
(dp899
g8
S'1.7'
p900
sg10
S'4.6'
p901
sg12
S'.376'
p902
sg14
S'3.5'
p903
sg16
S'.352'
p904
sg18
S'1.6'
p905
sg20
S'13.6'
p906
sg22
S'SG'
p907
sg24
S'.719'
p908
sg28
S'NBA'
p909
sg30
S'1.1'
p910
sg32
S'13.7'
p911
sg34
S'2.5'
p912
sg36
S'2.4'
p913
sg38
S'4.1'
p914
sg40
S'26'
p915
sg42
S'SAS'
p916
sg44
S'65'
p917
sg46
S'0.6'
p918
sg48
S'3.5'
p919
sg50
S'1.7'
p920
sg52
S'9.1'
p921
sg54
S'2.4'
p922
sg56
S'1993-94'
p923
sg58
S'5.1'
p924
sg60
S'2.2'
p925
sg62
S'.389'
p926
sg64
S'980'
p927
sg66
g99
sba(isrc.gp1.models.Per36Minutes
Per36Minutes
p928
(dp929
g8
S'1.7'
p930
sg10
S'6.0'
p931
sg12
S'.383'
p932
sg14
S'2.4'
p933
sg16
S'.260'
p934
sg18
S'1.5'
p935
sg20
S'12.4'
p936
sg22
S'SG'
p937
sg24
S'.815'
p938
sg28
S'NBA'
p939
sg30
S'1.3'
p940
sg32
S'12.5'
p941
sg34
S'2.9'
p942
sg36
S'1.6'
p943
sg38
S'3.8'
p944
sg40
S'27'
p945
sg42
S'TOT'
p946
sg44
S'30'
p947
sg46
S'0.6'
p948
sg48
S'3.2'
p949
sg50
S'1.3'
p950
sg52
S'6.5'
p951
sg54
S'2.0'
p952
sg56
S'1994-95'
p953
sg58
S'4.8'
p954
sg60
S'1.8'
p955
sg62
S'.495'
p956
sg64
S'604'
p957
sg66
S'14'
p958
sba(isrc.gp1.models.Per36Minutes
Per36Minutes
p959
(dp960
g8
S'1.1'
p961
sg10
S'8.0'
p962
sg12
S'.333'
p963
sg14
S'2.3'
p964
sg16
S'.214'
p965
sg18
S'1.7'
p966
sg20
S'13.1'
p967
sg22
S'SG'
p968
sg24
S'1.000'
p969
sg28
S'NBA'
p970
sg30
S'1.1'
p971
sg32
S'15.4'
p972
sg34
S'4.6'
p973
sg36
S'1.1'
p974
sg38
S'4.0'
p975
sg40
S'27'
p976
sg42
S'PHI'
p977
sg44
g99
sg46
S'0.0'
p978
sg48
S'3.4'
p979
sg50
S'1.1'
p980
sg52
S'7.4'
p981
sg54
S'2.9'
p982
sg56
S'1994-95'
p983
sg58
S'5.1'
p984
sg60
S'4.6'
p985
sg62
S'.462'
p986
sg64
S'63'
p987
sg66
g150
sba(isrc.gp1.models.Per36Minutes
Per36Minutes
p988
(dp989
g8
S'1.8'
p990
sg10
S'5.7'
p991
sg12
S'.390'
p992
sg14
S'2.4'
p993
sg16
S'.267'
p994
sg18
S'1.5'
p995
sg20
S'12.3'
p996
sg22
S'SG'
p997
sg24
S'.800'
p998
sg28
S'NBA'
p999
sg30
S'1.3'
p1000
sg32
S'12.1'
p1001
sg34
S'2.7'
p1002
sg36
S'1.7'
p1003
sg38
S'3.7'
p1004
sg40
S'27'
p1005
sg42
S'LAL'
p1006
sg44
S'25'
p1007
sg46
S'0.7'
p1008
sg48
S'3.2'
p1009
sg50
S'1.3'
p1010
sg52
S'6.4'
p1011
sg54
S'1.9'
p1012
sg56
S'1994-95'
p1013
sg58
S'4.7'
p1014
sg60
S'1.5'
p1015
sg62
S'.500'
p1016
sg64
S'541'
p1017
sg66
S'14'
p1018
sba(isrc.gp1.models.Per36Minutes
Per36Minutes
p1019
(dp1020
g8
S'2.2'
p1021
sg10
S'8.1'
p1022
sg12
S'.303'
p1023
sg14
S'3.0'
p1024
sg16
S'.300'
p1025
sg18
S'2.4'
p1026
sg20
S'11.4'
p1027
sg22
S'SG'
p1028
sg24
S'.833'
p1029
sg28
S'NBA'
p1030
sg30
S'1.2'
p1031
sg32
S'13.8'
p1032
sg34
S'3.8'
p1033
sg36
S'0.7'
p1034
sg38
S'5.0'
p1035
sg40
S'29'
p1036
sg42
S'TOT'
p1037
sg44
S'22'
p1038
sg46
S'0.3'
p1039
sg48
S'1.7'
p1040
sg50
S'0.6'
p1041
sg52
S'5.7'
p1042
sg54
S'2.8'
p1043
sg56
S'1996-97'
p1044
sg58
S'4.2'
p1045
sg60
S'1.6'
p1046
sg62
S'.306'
p1047
sg64
S'310'
p1048
sg66
g150
sba(isrc.gp1.models.Per36Minutes
Per36Minutes
p1049
(dp1050
g8
S'3.9'
p1051
sg10
S'14.1'
p1052
sg12
S'.125'
p1053
sg14
S'1.3'
p1054
sg16
S'.182'
p1055
sg18
S'2.6'
p1056
sg20
g3
sg22
S'SG'
p1057
sg24
S'1.3'
p1058
sg28
S'NBA'
p1059
sg30
S'0.0'
p1060
sg32
S'20.6'
p1061
sg34
S'7.7'
p1062
sg36
S'0.0'
p1063
sg38
S'1.3'
p1064
sg40
S'29'
p1065
sg42
S'SAC'
p1066
sg44
g99
sg46
S'3.9'
p1067
sg48
S'0.0'
p1068
sg50
S'0.0'
p1069
sg52
S'6.4'
p1070
sg54
S'5.1'
p1071
sg56
S'1996-97'
p1072
sg58
S'2.6'
p1073
sg60
S'5.1'
p1074
sg62
S'.000'
p1075
sg64
S'28'
p1076
sg66
g150
sba(isrc.gp1.models.Per36Minutes
Per36Minutes
p1077
(dp1078
g8
S'2.3'
p1079
sg10
S'7.5'
p1080
sg12
S'.330'
p1081
sg14
S'3.2'
p1082
sg16
S'.322'
p1083
sg18
S'2.4'
p1084
sg20
S'11.7'
p1085
sg22
S'SG'
p1086
sg24
S'.833'
p1087
sg28
S'NBA'
p1088
sg30
S'1.1'
p1089
sg32
S'13.1'
p1090
sg34
S'3.7'
p1091
sg36
S'0.8'
p1092
sg38
S'5.0'
p1093
sg40
S'29'
p1094
sg42
S'NJN'
p1095
sg44
S'17'
p1096
sg46
S'0.4'
p1097
sg48
S'1.9'
p1098
sg50
S'0.6'
p1099
sg52
S'5.6'
p1100
sg54
S'2.7'
p1101
sg56
S'1996-97'
p1102
sg58
S'4.3'
p1103
sg60
S'1.4'
p1104
sg62
S'.341'
p1105
sg64
S'282'
p1106
sg66
g150
sba(isrc.gp1.models.Per36Minutes
Per36Minutes
p1107
(dp1108
g8
S'1.8'
p1109
sg10
S'4.0'
p1110
sg12
S'.414'
p1111
sg14
S'1.8'
p1112
sg16
S'.222'
p1113
sg18
S'0.9'
p1114
sg20
S'14.9'
p1115
sg22
S'SG'
p1116
sg24
S'.800'
p1117
sg28
S'NBA'
p1118
sg30
S'1.3'
p1119
sg32
S'12.7'
p1120
sg34
S'1.8'
p1121
sg36
S'4.4'
p1122
sg38
S'3.1'
p1123
sg40
S'30'
p1124
sg42
S'TOR'
p1125
sg44
g151
sg46
S'0.9'
p1126
sg48
S'4.4'
p1127
sg50
S'3.5'
p1128
sg52
S'8.8'
p1129
sg54
S'1.3'
p1130
sg56
S'1997-98'
p1131
sg58
S'5.3'
p1132
sg60
S'1.8'
p1133
sg62
S'.500'
p1134
sg64
S'82'
p1135
sg66
g150
sbasS'_fromYear'
p1136
S'1993'
p1137
sS'_url'
p1138
S'http://www.basketball-reference.com/players/d/daniell01.html'
p1139
sS'_perGame'
p1140
(isrc.gp1.models.PerGame
PerGame
p1141
(dp1142
g8
S'0.7'
p1143
sg10
S'1.5'
p1144
sg12
S'.414'
p1145
sS'_effectiveFieldGalPercentage'
p1146
S'.448'
p1147
sg14
S'0.7'
p1148
sg16
S'.222'
p1149
sg18
S'0.3'
p1150
sg20
S'5.7'
p1151
sg22
S'SG'
p1152
sg24
S'.800'
p1153
sg28
S'NBA'
p1154
sg30
S'0.5'
p1155
sg34
S'0.7'
p1156
sS'_fieldGoalsttempted'
p1157
S'4.8'
p1158
sg36
S'1.7'
p1159
sg38
S'1.2'
p1160
sg40
S'30'
p1161
sg42
S'TOR'
p1162
sg44
g151
sg46
S'0.3'
p1163
sg48
S'1.7'
p1164
sg50
S'1.3'
p1165
sg52
S'3.3'
p1166
sg54
S'0.5'
p1167
sg56
S'1997-98'
p1168
sg58
S'2.0'
p1169
sg60
S'0.7'
p1170
sg62
S'.500'
p1171
sg64
S'13.7'
p1172
sg66
g150
sbsS'_weight'
p1173
S'205'
p1174
sS'_dob'
p1175
S'4-9-1967'
p1176
sS'_salary'
p1177
(lp1178
(isrc.gp1.models.Salary
Salary
p1179
(dp1180
g42
S'San Antonio Spurs'
p1181
sg28
S'NBA'
p1182
sg1177
S'$140,000'
p1183
sg56
S'1992-93'
p1184
sba(isrc.gp1.models.Salary
Salary
p1185
(dp1186
g42
S'San Antonio Spurs'
p1187
sg28
S'NBA'
p1188
sg1177
S'$182,000'
p1189
sg56
S'1993-94'
p1190
sba(isrc.gp1.models.Salary
Salary
p1191
(dp1192
g42
S'San Antonio Spurs'
p1193
sg28
S'NBA'
p1194
sg1177
S'$250,000'
p1195
sg56
S'1994-95'
p1196
sba(isrc.gp1.models.Salary
Salary
p1197
(dp1198
g42
S'Philadelphia 76ers'
p1199
sg28
S'NBA'
p1200
sg1177
S'$11,400'
p1201
sg56
S'1994-95'
p1202
sba(isrc.gp1.models.Salary
Salary
p1203
(dp1204
g42
S'New Jersey Nets'
p1205
sg28
S'NBA'
p1206
sg1177
S'$184,100'
p1207
sg56
S'1996-97'
p1208
sbasg22
S'G'
p1209
sb.