(isrc.gp1.models.Player
Player
p0
(dp1
S'_experience'
p2
S'NA'
p3
sS'_totals'
p4
(lp5
(isrc.gp1.models.Totals
Totals
p6
(dp7
S'_offensiveRebounds'
p8
g3
sS'_threePointsAttempted'
p9
g3
sS'_fieldGoalsPercentage'
p10
S'.293'
p11
sS'_assist'
p12
S'36'
p13
sS'_threePointsPercentage'
p14
g3
sS'_threePoints'
p15
g3
sS'_points'
p16
S'237'
p17
sS'_position'
p18
g3
sS'_freeThrowsPercentage'
p19
S'.622'
p20
sS'_effectiveFieldGoalPercentage'
p21
S'.293'
p22
sS'_league'
p23
S'NBA'
p24
sS'_steals'
p25
g3
sS'_fieldGoalsAttempted'
p26
S'270'
p27
sS'_personalFouls'
p28
S'132'
p29
sS'_freeThrowsAttempted'
p30
S'127'
p31
sS'_totalRebounds'
p32
S'157'
p33
sS'_age'
p34
S'22'
p35
sS'_team'
p36
S'TOT'
p37
sS'_games'
p38
S'61'
p39
sS'_blocks'
p40
g3
sS'_twoPoints'
p41
S'79'
p42
sS'_freeThrows'
p43
S'79'
p44
sS'_twoPointsAttempted'
p45
S'270'
p46
sS'_defensiveRebounds'
p47
g3
sS'_season'
p48
S'1950-51'
p49
sS'_fieldGoals'
p50
S'79'
p51
sS'_turnOvers'
p52
g3
sS'_twoPointsPercentage'
p53
S'.293'
p54
sS'_minutesPlayed'
p55
g3
sS'_gamesStarted'
p56
g3
sba(isrc.gp1.models.Totals
Totals
p57
(dp58
g8
g3
sg9
g3
sg10
g3
sg12
S'29'
p59
sg14
g3
sg15
g3
sg16
S'162'
p60
sg18
g3
sg19
g3
sg21
g3
sg23
S'NBA'
p61
sg25
g3
sg26
S'175'
p62
sg28
S'103'
p63
sg30
S'93'
p64
sg32
g3
sg34
S'22'
p65
sg36
S'SYR'
p66
sg38
S'47'
p67
sg40
g3
sg41
g3
sg43
S'58'
p68
sg45
g3
sg47
g3
sg48
S'1950-51'
p69
sg50
S'52'
p70
sg52
g3
sg53
g3
sg55
g3
sg56
g3
sba(isrc.gp1.models.Totals
Totals
p71
(dp72
g8
g3
sg9
g3
sg10
g3
sg12
S'7'
p73
sg14
g3
sg15
g3
sg16
S'75'
p74
sg18
g3
sg19
g3
sg21
g3
sg23
S'NBA'
p75
sg25
g3
sg26
S'95'
p76
sg28
S'29'
p77
sg30
S'34'
p78
sg32
g3
sg34
S'22'
p79
sg36
S'INO'
p80
sg38
S'14'
p81
sg40
g3
sg41
g3
sg43
S'21'
p82
sg45
g3
sg47
g3
sg48
S'1950-51'
p83
sg50
S'27'
p84
sg52
g3
sg53
g3
sg55
g3
sg56
g3
sba(isrc.gp1.models.Totals
Totals
p85
(dp86
g8
g3
sg9
g3
sg10
S'.357'
p87
sg12
S'48'
p88
sg14
g3
sg15
g3
sg16
S'454'
p89
sg18
S'SF'
p90
sg19
S'.712'
p91
sg21
S'.357'
p92
sg23
S'NBA'
p93
sg25
g3
sg26
S'417'
p94
sg28
S'147'
p95
sg30
S'219'
p96
sg32
S'257'
p97
sg34
S'23'
p98
sg36
S'INO'
p99
sg38
S'63'
p100
sg40
g3
sg41
S'149'
p101
sg43
S'156'
p102
sg45
S'417'
p103
sg47
g3
sg48
S'1951-52'
p104
sg50
S'149'
p105
sg52
g3
sg53
S'.357'
p106
sg55
S'1254'
p107
sg56
g3
sba(isrc.gp1.models.Totals
Totals
p108
(dp109
g8
g3
sg9
g3
sg10
S'.330'
p110
sg12
S'106'
p111
sg14
g3
sg15
g3
sg16
S'472'
p112
sg18
S'SF'
p113
sg19
S'.728'
p114
sg21
S'.330'
p115
sg23
S'NBA'
p116
sg25
g3
sg26
S'525'
p117
sg28
S'178'
p118
sg30
S'173'
p119
sg32
S'339'
p120
sg34
S'24'
p121
sg36
S'PHW'
p122
sg38
S'64'
p123
sg40
g3
sg41
S'173'
p124
sg43
S'126'
p125
sg45
S'525'
p126
sg47
g3
sg48
S'1952-53'
p127
sg50
S'173'
p128
sg52
g3
sg53
S'.330'
p129
sg55
S'1788'
p130
sg56
g3
sba(isrc.gp1.models.Totals
Totals
p131
(dp132
g8
g3
sg9
g3
sg10
S'.313'
p133
sg12
S'26'
p134
sg14
g3
sg15
g3
sg16
S'102'
p135
sg18
S'SF'
p136
sg19
S'.653'
p137
sg21
S'.313'
p138
sg23
S'NBA'
p139
sg25
g3
sg26
S'112'
p140
sg28
S'34'
p141
sg30
S'49'
p142
sg32
S'64'
p143
sg34
S'25'
p144
sg36
S'MLH'
p145
sg38
S'21'
p146
sg40
g3
sg41
S'35'
p147
sg43
S'32'
p148
sg45
S'112'
p149
sg47
g3
sg48
S'1953-54'
p150
sg50
S'35'
p151
sg52
g3
sg53
S'.313'
p152
sg55
S'380'
p153
sg56
g3
sbasS'_college'
p154
S'University of San Francisco'
p155
sS'_toYear'
p156
S'1954'
p157
sS'_height'
p158
S'6-5'
p159
sS'_active'
p160
I00
sS'_shootingHand'
p161
VRight
p162
sS'_name'
p163
S'Don Lofgran'
p164
sS'_per100Possessions'
p165
(lp166
sS'_advanced'
p167
(lp168
(isrc.gp1.models.Advanced
Advanced
p169
(dp170
S'_offensiveReboundPercentage'
p171
g3
sS'_turnOverPercentage'
p172
g3
sS'_winSharesPer48Minutes'
p173
g3
sS'_stealPercentage'
p174
g3
sS'_usagePercentage'
p175
g3
sS'_totalReboundsPercentage'
p176
g3
sS'_defensiveBoxPlusMinus'
p177
g3
sg18
g3
sS'_valueOverReplacementPlayer'
p178
g3
sS'_trueShootingPercentage'
p179
S'.364'
p180
sS'_defensiveReboundPercentage'
p181
g3
sS'_freeThrowsAttempRate'
p182
S'.470'
p183
sS'_threePointsAttempRate'
p184
g3
sg23
S'NBA'
p185
sS'_offensiveBoxPlusMinues'
p186
g3
sS'_assistPercentage'
p187
g3
sS'_defensiveWinShares'
p188
g3
sg34
S'22'
p189
sg36
S'TOT'
p190
sg38
S'61'
p191
sS'_blockPercentage'
p192
g3
sS'_playerEfficiencyRating'
p193
g3
sS'_offensiveWinShares'
p194
g3
sg55
g3
sS'_boxPlusMinus'
p195
g3
sg48
S'1950-51'
p196
sS'_winShares'
p197
g3
sba(isrc.gp1.models.Advanced
Advanced
p198
(dp199
g171
g3
sg172
g3
sg173
g3
sg174
g3
sg175
g3
sg176
g3
sg177
g3
sg18
g3
sg178
g3
sg179
g3
sg181
g3
sg182
g3
sg184
g3
sg23
S'NBA'
p200
sg186
g3
sg187
g3
sg188
g3
sg34
S'22'
p201
sg36
S'SYR'
p202
sg38
S'47'
p203
sg192
g3
sg193
g3
sg194
g3
sg55
g3
sg195
g3
sg48
S'1950-51'
p204
sg197
g3
sba(isrc.gp1.models.Advanced
Advanced
p205
(dp206
g171
g3
sg172
g3
sg173
g3
sg174
g3
sg175
g3
sg176
g3
sg177
g3
sg18
g3
sg178
g3
sg179
g3
sg181
g3
sg182
g3
sg184
g3
sg23
S'NBA'
p207
sg186
g3
sg187
g3
sg188
g3
sg34
S'22'
p208
sg36
S'INO'
p209
sg38
S'14'
p210
sg192
g3
sg193
g3
sg194
g3
sg55
g3
sg195
g3
sg48
S'1950-51'
p211
sg197
g3
sba(isrc.gp1.models.Advanced
Advanced
p212
(dp213
g171
g3
sg172
g3
sg173
S'.112'
p214
sg174
g3
sg175
g3
sg176
g3
sg177
g3
sg18
S'SF'
p215
sg178
g3
sg179
S'.442'
p216
sg181
g3
sg182
S'.525'
p217
sg184
g3
sg23
S'NBA'
p218
sg186
g3
sg187
g3
sg188
S'1.6'
p219
sg34
S'23'
p220
sg36
S'INO'
p221
sg38
S'63'
p222
sg192
g3
sg193
S'13.9'
p223
sg194
S'1.3'
p224
sg55
S'1254'
p225
sg195
g3
sg48
S'1951-52'
p226
sg197
S'2.9'
p227
sba(isrc.gp1.models.Advanced
Advanced
p228
(dp229
g171
g3
sg172
g3
sg173
S'.004'
p230
sg174
g3
sg175
g3
sg176
g3
sg177
g3
sg18
S'SF'
p231
sg178
g3
sg179
S'.393'
p232
sg181
g3
sg182
S'.330'
p233
sg184
g3
sg23
S'NBA'
p234
sg186
g3
sg187
g3
sg188
S'1.0'
p235
sg34
S'24'
p236
sg36
S'PHW'
p237
sg38
S'64'
p238
sg192
g3
sg193
S'10.3'
p239
sg194
S'-0.8'
p240
sg55
S'1788'
p241
sg195
g3
sg48
S'1952-53'
p242
sg197
S'0.1'
p243
sba(isrc.gp1.models.Advanced
Advanced
p244
(dp245
g171
g3
sg172
g3
sg173
S'.007'
p246
sg174
g3
sg175
g3
sg176
g3
sg177
g3
sg18
S'SF'
p247
sg178
g3
sg179
S'.382'
p248
sg181
g3
sg182
S'.438'
p249
sg184
g3
sg23
S'NBA'
p250
sg186
g3
sg187
g3
sg188
S'0.3'
p251
sg34
S'25'
p252
sg36
S'MLH'
p253
sg38
S'21'
p254
sg192
g3
sg193
S'10.9'
p255
sg194
S'-0.3'
p256
sg55
S'380'
p257
sg195
g3
sg48
S'1953-54'
p258
sg197
S'0.1'
p259
sbasS'_per36Minutes'
p260
(lp261
(isrc.gp1.models.Per36Minutes
Per36Minutes
p262
(dp263
g8
g3
sg9
g3
sg10
S'.293'
p264
sg12
g3
sg14
g3
sg15
g3
sg16
g3
sg18
g3
sg19
S'.622'
p265
sg23
S'NBA'
p266
sg25
g3
sg26
g3
sg28
g3
sg30
g3
sg32
g3
sg34
S'22'
p267
sg36
S'TOT'
p268
sg38
S'61'
p269
sg40
g3
sg41
g3
sg43
g3
sg45
g3
sg47
g3
sg48
S'1950-51'
p270
sg50
g3
sg52
g3
sg53
S'.293'
p271
sg55
g3
sg56
g3
sba(isrc.gp1.models.Per36Minutes
Per36Minutes
p272
(dp273
g8
g3
sg9
g3
sg10
g3
sg12
g3
sg14
g3
sg15
g3
sg16
g3
sg18
g3
sg19
g3
sg23
S'NBA'
p274
sg25
g3
sg26
g3
sg28
g3
sg30
g3
sg32
g3
sg34
S'22'
p275
sg36
S'SYR'
p276
sg38
S'47'
p277
sg40
g3
sg41
g3
sg43
g3
sg45
g3
sg47
g3
sg48
S'1950-51'
p278
sg50
g3
sg52
g3
sg53
g3
sg55
g3
sg56
g3
sba(isrc.gp1.models.Per36Minutes
Per36Minutes
p279
(dp280
g8
g3
sg9
g3
sg10
g3
sg12
g3
sg14
g3
sg15
g3
sg16
g3
sg18
g3
sg19
g3
sg23
S'NBA'
p281
sg25
g3
sg26
g3
sg28
g3
sg30
g3
sg32
g3
sg34
S'22'
p282
sg36
S'INO'
p283
sg38
S'14'
p284
sg40
g3
sg41
g3
sg43
g3
sg45
g3
sg47
g3
sg48
S'1950-51'
p285
sg50
g3
sg52
g3
sg53
g3
sg55
g3
sg56
g3
sba(isrc.gp1.models.Per36Minutes
Per36Minutes
p286
(dp287
g8
g3
sg9
g3
sg10
S'.357'
p288
sg12
S'1.4'
p289
sg14
g3
sg15
g3
sg16
S'13.0'
p290
sg18
S'SF'
p291
sg19
S'.712'
p292
sg23
S'NBA'
p293
sg25
g3
sg26
S'12.0'
p294
sg28
S'4.2'
p295
sg30
S'6.3'
p296
sg32
S'7.4'
p297
sg34
S'23'
p298
sg36
S'INO'
p299
sg38
S'63'
p300
sg40
g3
sg41
S'4.3'
p301
sg43
S'4.5'
p302
sg45
S'12.0'
p303
sg47
g3
sg48
S'1951-52'
p304
sg50
S'4.3'
p305
sg52
g3
sg53
S'.357'
p306
sg55
S'1254'
p307
sg56
g3
sba(isrc.gp1.models.Per36Minutes
Per36Minutes
p308
(dp309
g8
g3
sg9
g3
sg10
S'.330'
p310
sg12
S'2.1'
p311
sg14
g3
sg15
g3
sg16
S'9.5'
p312
sg18
S'SF'
p313
sg19
S'.728'
p314
sg23
S'NBA'
p315
sg25
g3
sg26
S'10.6'
p316
sg28
S'3.6'
p317
sg30
S'3.5'
p318
sg32
S'6.8'
p319
sg34
S'24'
p320
sg36
S'PHW'
p321
sg38
S'64'
p322
sg40
g3
sg41
S'3.5'
p323
sg43
S'2.5'
p324
sg45
S'10.6'
p325
sg47
g3
sg48
S'1952-53'
p326
sg50
S'3.5'
p327
sg52
g3
sg53
S'.330'
p328
sg55
S'1788'
p329
sg56
g3
sba(isrc.gp1.models.Per36Minutes
Per36Minutes
p330
(dp331
g8
g3
sg9
g3
sg10
S'.313'
p332
sg12
S'2.5'
p333
sg14
g3
sg15
g3
sg16
S'9.7'
p334
sg18
S'SF'
p335
sg19
S'.653'
p336
sg23
S'NBA'
p337
sg25
g3
sg26
S'10.6'
p338
sg28
S'3.2'
p339
sg30
S'4.6'
p340
sg32
S'6.1'
p341
sg34
S'25'
p342
sg36
S'MLH'
p343
sg38
S'21'
p344
sg40
g3
sg41
S'3.3'
p345
sg43
S'3.0'
p346
sg45
S'10.6'
p347
sg47
g3
sg48
S'1953-54'
p348
sg50
S'3.3'
p349
sg52
g3
sg53
S'.313'
p350
sg55
S'380'
p351
sg56
g3
sbasS'_fromYear'
p352
S'1951'
p353
sS'_url'
p354
S'http://www.basketball-reference.com/players/l/lofgrdo01.html'
p355
sS'_perGame'
p356
(isrc.gp1.models.PerGame
PerGame
p357
(dp358
g8
g3
sg9
g3
sg10
S'.313'
p359
sS'_effectiveFieldGalPercentage'
p360
S'.313'
p361
sg12
S'1.2'
p362
sg14
g3
sg15
g3
sg16
S'4.9'
p363
sg18
S'SF'
p364
sg19
S'.653'
p365
sg23
S'NBA'
p366
sg25
g3
sg28
S'1.6'
p367
sS'_fieldGoalsttempted'
p368
S'5.3'
p369
sg30
S'2.3'
p370
sg32
S'3.0'
p371
sg34
S'25'
p372
sg36
S'MLH'
p373
sg38
S'21'
p374
sg40
g3
sg41
S'1.7'
p375
sg43
S'1.5'
p376
sg45
S'5.3'
p377
sg47
g3
sg48
S'1953-54'
p378
sg50
S'1.7'
p379
sg52
g3
sg53
S'.313'
p380
sg55
S'18.1'
p381
sg56
g3
sbsS'_weight'
p382
S'200'
p383
sS'_dob'
p384
S'18-11-1928'
p385
sS'_salary'
p386
(lp387
sg18
S'F-C'
p388
sb.