(isrc.gp1.models.Player
Player
p0
(dp1
S'_experience'
p2
S'NA'
p3
sS'_totals'
p4
(lp5
(isrc.gp1.models.Totals
Totals
p6
(dp7
S'_offensiveRebounds'
p8
S'206'
p9
sS'_threePointsAttempted'
p10
S'4'
p11
sS'_fieldGoalsPercentage'
p12
S'.481'
p13
sS'_assist'
p14
S'49'
p15
sS'_threePointsPercentage'
p16
S'.250'
p17
sS'_threePoints'
p18
S'1'
p19
sS'_points'
p20
S'561'
p21
sS'_position'
p22
S'C'
p23
sS'_freeThrowsPercentage'
p24
S'.587'
p25
sS'_effectiveFieldGoalPercentage'
p26
S'.482'
p27
sS'_league'
p28
S'NBA'
p29
sS'_steals'
p30
S'48'
p31
sS'_fieldGoalsAttempted'
p32
S'491'
p33
sS'_personalFouls'
p34
S'211'
p35
sS'_freeThrowsAttempted'
p36
S'150'
p37
sS'_totalRebounds'
p38
S'471'
p39
sS'_age'
p40
S'21'
p41
sS'_team'
p42
S'LAC'
p43
sS'_games'
p44
S'77'
p45
sS'_blocks'
p46
S'60'
p47
sS'_twoPoints'
p48
S'235'
p49
sS'_freeThrows'
p50
S'88'
p51
sS'_twoPointsAttempted'
p52
S'487'
p53
sS'_defensiveRebounds'
p54
S'265'
p55
sS'_season'
p56
S'1996-97'
p57
sS'_fieldGoals'
p58
S'236'
p59
sS'_turnOvers'
p60
S'79'
p61
sS'_twoPointsPercentage'
p62
S'.483'
p63
sS'_minutesPlayed'
p64
S'1936'
p65
sS'_gamesStarted'
p66
S'51'
p67
sba(isrc.gp1.models.Totals
Totals
p68
(dp69
g8
S'180'
p70
sg10
S'2'
p71
sg12
S'.445'
p72
sg14
S'55'
p73
sg16
S'.000'
p74
sg18
S'0'
p75
sg20
S'623'
p76
sg22
g23
sg24
S'.659'
p77
sg26
S'.445'
p78
sg28
S'NBA'
p79
sg30
S'55'
p80
sg32
S'542'
p81
sg34
S'237'
p82
sg36
S'214'
p83
sg38
S'606'
p84
sg40
S'22'
p85
sg42
S'LAC'
p86
sg44
S'69'
p87
sg46
S'87'
p88
sg48
S'241'
p89
sg50
S'141'
p90
sg52
S'540'
p91
sg54
S'426'
p92
sg56
S'1997-98'
p93
sg58
S'241'
p94
sg60
S'81'
p95
sg62
S'.446'
p96
sg64
S'2067'
p97
sg66
S'38'
p98
sba(isrc.gp1.models.Totals
Totals
p99
(dp100
g8
S'142'
p101
sg10
g19
sg12
S'.458'
p102
sg14
S'33'
p103
sg16
S'.000'
p104
sg18
g75
sg20
S'319'
p105
sg22
g23
sg24
S'.692'
p106
sg26
S'.458'
p107
sg28
S'NBA'
p108
sg30
S'26'
p109
sg32
S'260'
p110
sg34
S'162'
p111
sg36
S'117'
p112
sg38
S'361'
p113
sg40
S'23'
p114
sg42
S'LAC'
p115
sg44
S'48'
p116
sg46
S'36'
p117
sg48
S'119'
p118
sg50
S'81'
p119
sg52
S'259'
p120
sg54
S'219'
p121
sg56
S'1998-99'
p122
sg58
S'119'
p123
sg60
S'48'
p124
sg62
S'.459'
p125
sg64
S'1135'
p126
sg66
S'15'
p127
sba(isrc.gp1.models.Totals
Totals
p128
(dp129
g8
S'117'
p130
sg10
S'3'
p131
sg12
S'.499'
p132
sg14
S'21'
p133
sg16
S'.333'
p134
sg18
g19
sg20
S'448'
p135
sg22
g23
sg24
S'.644'
p136
sg26
S'.500'
p137
sg28
S'NBA'
p138
sg30
S'29'
p139
sg32
S'361'
p140
sg34
S'203'
p141
sg36
S'135'
p142
sg38
S'305'
p143
sg40
S'24'
p144
sg42
S'ATL'
p145
sg44
S'75'
p146
sg46
S'40'
p147
sg48
S'179'
p148
sg50
S'87'
p149
sg52
S'358'
p150
sg54
S'188'
p151
sg56
S'1999-00'
p152
sg58
S'180'
p153
sg60
S'66'
p154
sg62
S'.500'
p155
sg64
S'1205'
p156
sg66
g75
sba(isrc.gp1.models.Totals
Totals
p157
(dp158
g8
S'180'
p159
sg10
g71
sg12
S'.448'
p160
sg14
S'87'
p161
sg16
S'.000'
p162
sg18
g75
sg20
S'881'
p163
sg22
g23
sg24
S'.718'
p164
sg26
S'.448'
p165
sg28
S'NBA'
p166
sg30
S'42'
p167
sg32
S'811'
p168
sg34
S'232'
p169
sg36
S'216'
p170
sg38
S'535'
p171
sg40
S'25'
p172
sg42
S'ATL'
p173
sg44
S'71'
p174
sg46
S'63'
p175
sg48
S'363'
p176
sg50
S'155'
p177
sg52
S'809'
p178
sg54
S'355'
p179
sg56
S'2000-01'
p180
sg58
S'363'
p181
sg60
S'125'
p182
sg62
S'.449'
p183
sg64
S'1988'
p184
sg66
S'46'
p185
sba(isrc.gp1.models.Totals
Totals
p186
(dp187
g8
S'130'
p188
sg10
g71
sg12
S'.459'
p189
sg14
S'44'
p190
sg16
S'.000'
p191
sg18
g75
sg20
S'516'
p192
sg22
g23
sg24
S'.569'
p193
sg26
S'.459'
p194
sg28
S'NBA'
p195
sg30
S'30'
p196
sg32
S'486'
p197
sg34
S'126'
p198
sg36
S'123'
p199
sg38
S'405'
p200
sg40
S'26'
p201
sg42
S'MEM'
p202
sg44
S'43'
p203
sg46
S'23'
p204
sg48
S'223'
p205
sg50
S'70'
p206
sg52
S'484'
p207
sg54
S'275'
p208
sg56
S'2001-02'
p209
sg58
S'223'
p210
sg60
S'72'
p211
sg62
S'.461'
p212
sg64
S'1251'
p213
sg66
S'33'
p214
sba(isrc.gp1.models.Totals
Totals
p215
(dp216
g8
S'170'
p217
sg10
S'5'
p218
sg12
S'.454'
p219
sg14
S'80'
p220
sg16
S'.000'
p221
sg18
g75
sg20
S'797'
p222
sg22
g23
sg24
S'.659'
p223
sg26
S'.454'
p224
sg28
S'NBA'
p225
sg30
S'51'
p226
sg32
S'716'
p227
sg34
S'209'
p228
sg36
S'223'
p229
sg38
S'528'
p230
sg40
S'27'
p231
sg42
S'MEM'
p232
sg44
S'70'
p233
sg46
S'54'
p234
sg48
S'325'
p235
sg50
S'147'
p236
sg52
S'711'
p237
sg54
S'358'
p238
sg56
S'2002-03'
p239
sg58
S'325'
p240
sg60
S'110'
p241
sg62
S'.457'
p242
sg64
S'1982'
p243
sg66
S'49'
p244
sba(isrc.gp1.models.Totals
Totals
p245
(dp246
g8
S'144'
p247
sg10
g218
sg12
S'.439'
p248
sg14
S'71'
p249
sg16
S'.000'
p250
sg18
g75
sg20
S'610'
p251
sg22
g23
sg24
S'.733'
p252
sg26
S'.439'
p253
sg28
S'NBA'
p254
sg30
S'45'
p255
sg32
S'586'
p256
sg34
S'192'
p257
sg36
S'131'
p258
sg38
S'445'
p259
sg40
S'28'
p260
sg42
S'MEM'
p261
sg44
S'65'
p262
sg46
S'58'
p263
sg48
S'257'
p264
sg50
S'96'
p265
sg52
S'581'
p266
sg54
S'301'
p267
sg56
S'2003-04'
p268
sg58
S'257'
p269
sg60
S'77'
p270
sg62
S'.442'
p271
sg64
S'1674'
p272
sg66
S'46'
p273
sba(isrc.gp1.models.Totals
Totals
p274
(dp275
g8
S'177'
p276
sg10
g131
sg12
S'.469'
p277
sg14
S'87'
p278
sg16
S'.000'
p279
sg18
g75
sg20
S'771'
p280
sg22
g23
sg24
S'.662'
p281
sg26
S'.469'
p282
sg28
S'NBA'
p283
sg30
S'58'
p284
sg32
S'683'
p285
sg34
S'251'
p286
sg36
S'198'
p287
sg38
S'613'
p288
sg40
S'29'
p289
sg42
S'MEM'
p290
sg44
S'80'
p291
sg46
S'69'
p292
sg48
S'320'
p293
sg50
S'131'
p294
sg52
S'680'
p295
sg54
S'436'
p296
sg56
S'2004-05'
p297
sg58
S'320'
p298
sg60
S'100'
p299
sg62
S'.471'
p300
sg64
S'2287'
p301
sg66
S'77'
p302
sba(isrc.gp1.models.Totals
Totals
p303
(dp304
g8
S'142'
p305
sg10
g71
sg12
S'.478'
p306
sg14
S'48'
p307
sg16
S'.000'
p308
sg18
g75
sg20
S'454'
p309
sg22
g23
sg24
S'.564'
p310
sg26
S'.478'
p311
sg28
S'NBA'
p312
sg30
S'52'
p313
sg32
S'406'
p314
sg34
S'201'
p315
sg36
S'117'
p316
sg38
S'395'
p317
sg40
S'30'
p318
sg42
S'MEM'
p319
sg44
S'78'
p320
sg46
S'46'
p321
sg48
S'194'
p322
sg50
S'66'
p323
sg52
S'404'
p324
sg54
S'253'
p325
sg56
S'2005-06'
p326
sg58
S'194'
p327
sg60
S'67'
p328
sg62
S'.480'
p329
sg64
S'1689'
p330
sg66
S'58'
p331
sba(isrc.gp1.models.Totals
Totals
p332
(dp333
g8
S'131'
p334
sg10
g75
sg12
S'.448'
p335
sg14
S'28'
p336
sg16
S'82'
p337
sg18
g75
sg20
g3
sg22
g23
sg24
S'85'
p338
sg26
S'9'
p339
sg28
S'NBA'
p340
sg30
S'28'
p341
sg32
S'183'
p342
sg34
S'173'
p343
sg36
S'.281'
p344
sg38
S'40'
p345
sg40
S'31'
p346
sg42
S'ATL'
p347
sg44
S'67'
p348
sg46
S'39'
p349
sg48
S'183'
p350
sg50
S'32'
p351
sg52
S'.448'
p352
sg54
S'216'
p353
sg56
S'2006-07'
p354
sg58
S'82'
p355
sg60
S'204'
p356
sg62
S'.448'
p357
sg64
S'1035'
p358
sg66
S'31'
p359
sba(isrc.gp1.models.Totals
Totals
p360
(dp361
g8
S'30'
p362
sg10
g75
sg12
S'.286'
p363
sg14
g131
sg16
S'6'
p364
sg18
g75
sg20
g3
sg22
g23
sg24
S'8'
p365
sg26
g131
sg28
S'NBA'
p366
sg30
g131
sg32
S'21'
p367
sg34
S'15'
p368
sg36
S'.500'
p369
sg38
g11
sg40
S'32'
p370
sg42
S'TOT'
p371
sg44
S'18'
p372
sg46
g11
sg48
S'21'
p373
sg50
g364
sg52
S'.286'
p374
sg54
S'38'
p375
sg56
S'2007-08'
p376
sg58
g364
sg60
S'31'
p377
sg62
S'.286'
p378
sg64
S'161'
p379
sg66
g19
sba(isrc.gp1.models.Totals
Totals
p380
(dp381
g8
S'30'
p382
sg10
g75
sg12
S'.294'
p383
sg14
g131
sg16
g218
sg18
g75
sg20
g3
sg22
g23
sg24
S'7'
p384
sg26
g131
sg28
S'NBA'
p385
sg30
g131
sg32
S'17'
p386
sg34
S'13'
p387
sg36
S'.500'
p388
sg38
g131
sg40
S'32'
p389
sg42
S'ATL'
p390
sg44
S'13'
p391
sg46
g71
sg48
S'17'
p392
sg50
g364
sg52
S'.294'
p393
sg54
S'37'
p394
sg56
S'2007-08'
p395
sg58
g218
sg60
S'26'
p396
sg62
S'.294'
p397
sg64
S'148'
p398
sg66
g19
sba(isrc.gp1.models.Totals
Totals
p399
(dp400
g8
g19
sg10
g75
sg12
S'.250'
p401
sg14
g75
sg16
g19
sg18
g75
sg20
g3
sg22
g23
sg24
g75
sg26
g75
sg28
S'NBA'
p402
sg30
g71
sg32
g11
sg34
g3
sg36
g19
sg38
g75
sg40
S'32'
p403
sg42
S'SAC'
p404
sg44
g218
sg46
g218
sg48
g11
sg50
g75
sg52
S'.250'
p405
sg54
g19
sg56
S'2007-08'
p406
sg58
g19
sg60
g71
sg62
S'.250'
p407
sg64
S'13'
p408
sg66
g75
sba(isrc.gp1.models.Totals
Totals
p409
(dp410
g8
S'18'
p411
sg10
g75
sg12
S'.370'
p412
sg14
g11
sg16
S'10'
p413
sg18
g75
sg20
g3
sg22
g23
sg24
g384
sg26
g131
sg28
S'NBA'
p414
sg30
g218
sg32
S'27'
p415
sg34
S'23'
p416
sg36
S'.375'
p417
sg38
g131
sg40
S'33'
p418
sg42
S'CLE'
p419
sg44
S'17'
p420
sg46
g339
sg48
S'27'
p421
sg50
g365
sg52
S'.370'
p422
sg54
S'25'
p423
sg56
S'2008-09'
p424
sg58
S'10'
p425
sg60
S'17'
p426
sg62
S'.370'
p427
sg64
S'125'
p428
sg66
g71
sbasS'_college'
p429
S'University of Memphis'
p430
sS'_toYear'
p431
S'2009'
p432
sS'_height'
p433
S'6-11'
p434
sS'_active'
p435
I00
sS'_shootingHand'
p436
VRight
p437
sS'_name'
p438
S'Lorenzen Wright'
p439
sS'_per100Possessions'
p440
(lp441
(isrc.gp1.models.Per100Possession
Per100Possession
p442
(dp443
g8
S'5.6'
p444
sg10
S'0.1'
p445
sg12
S'.481'
p446
sS'_offensiveRating'
p447
S'106'
p448
sg14
S'1.3'
p449
sg16
S'.250'
p450
sg18
S'0.0'
p451
sg20
S'15.2'
p452
sg22
g23
sS'_defensiveRating'
p453
S'108'
p454
sg24
S'.587'
p455
sg28
S'NBA'
p456
sg30
S'1.3'
p457
sg32
S'13.3'
p458
sg34
S'5.7'
p459
sg36
S'4.1'
p460
sg38
S'12.8'
p461
sg40
S'21'
p462
sg42
S'LAC'
p463
sg44
S'77'
p464
sg46
S'1.6'
p465
sg48
S'6.4'
p466
sg50
S'2.4'
p467
sg52
S'13.2'
p468
sg54
S'7.2'
p469
sg56
S'1996-97'
p470
sg58
S'6.4'
p471
sg60
S'2.1'
p472
sg62
S'.483'
p473
sg64
S'1936'
p474
sg66
S'51'
p475
sba(isrc.gp1.models.Per100Possession
Per100Possession
p476
(dp477
g8
S'4.5'
p478
sg10
S'0.1'
p479
sg12
S'.445'
p480
sg447
S'104'
p481
sg14
S'1.4'
p482
sg16
S'.000'
p483
sg18
S'0.0'
p484
sg20
S'15.7'
p485
sg22
g23
sg453
S'107'
p486
sg24
S'.659'
p487
sg28
S'NBA'
p488
sg30
S'1.4'
p489
sg32
S'13.6'
p490
sg34
S'6.0'
p491
sg36
S'5.4'
p492
sg38
S'15.2'
p493
sg40
S'22'
p494
sg42
S'LAC'
p495
sg44
S'69'
p496
sg46
S'2.2'
p497
sg48
S'6.1'
p498
sg50
S'3.5'
p499
sg52
S'13.6'
p500
sg54
S'10.7'
p501
sg56
S'1997-98'
p502
sg58
S'6.1'
p503
sg60
S'2.0'
p504
sg62
S'.446'
p505
sg64
S'2067'
p506
sg66
S'38'
p507
sba(isrc.gp1.models.Per100Possession
Per100Possession
p508
(dp509
g8
S'6.7'
p510
sg10
S'0.0'
p511
sg12
S'.458'
p512
sg447
S'110'
p513
sg14
S'1.6'
p514
sg16
S'.000'
p515
sg18
S'0.0'
p516
sg20
S'15.1'
p517
sg22
g23
sg453
S'107'
p518
sg24
S'.692'
p519
sg28
S'NBA'
p520
sg30
S'1.2'
p521
sg32
S'12.3'
p522
sg34
S'7.7'
p523
sg36
S'5.5'
p524
sg38
S'17.1'
p525
sg40
S'23'
p526
sg42
S'LAC'
p527
sg44
S'48'
p528
sg46
S'1.7'
p529
sg48
S'5.6'
p530
sg50
S'3.8'
p531
sg52
S'12.2'
p532
sg54
S'10.4'
p533
sg56
S'1998-99'
p534
sg58
S'5.6'
p535
sg60
S'2.3'
p536
sg62
S'.459'
p537
sg64
S'1135'
p538
sg66
S'15'
p539
sba(isrc.gp1.models.Per100Possession
Per100Possession
p540
(dp541
g8
S'5.1'
p542
sg10
S'0.1'
p543
sg12
S'.499'
p544
sg447
S'106'
p545
sg14
S'0.9'
p546
sg16
S'.333'
p547
sg18
S'0.0'
p548
sg20
S'19.5'
p549
sg22
g23
sg453
S'106'
p550
sg24
S'.644'
p551
sg28
S'NBA'
p552
sg30
S'1.3'
p553
sg32
S'15.7'
p554
sg34
S'8.8'
p555
sg36
S'5.9'
p556
sg38
S'13.2'
p557
sg40
S'24'
p558
sg42
S'ATL'
p559
sg44
S'75'
p560
sg46
S'1.7'
p561
sg48
S'7.8'
p562
sg50
S'3.8'
p563
sg52
S'15.5'
p564
sg54
S'8.2'
p565
sg56
S'1999-00'
p566
sg58
S'7.8'
p567
sg60
S'2.9'
p568
sg62
S'.500'
p569
sg64
S'1205'
p570
sg66
g75
sba(isrc.gp1.models.Per100Possession
Per100Possession
p571
(dp572
g8
S'4.7'
p573
sg10
S'0.1'
p574
sg12
S'.448'
p575
sg447
S'99'
p576
sg14
S'2.3'
p577
sg16
S'.000'
p578
sg18
S'0.0'
p579
sg20
S'23.1'
p580
sg22
g23
sg453
S'103'
p581
sg24
S'.718'
p582
sg28
S'NBA'
p583
sg30
S'1.1'
p584
sg32
S'21.3'
p585
sg34
S'6.1'
p586
sg36
S'5.7'
p587
sg38
S'14.0'
p588
sg40
S'25'
p589
sg42
S'ATL'
p590
sg44
S'71'
p591
sg46
S'1.7'
p592
sg48
S'9.5'
p593
sg50
S'4.1'
p594
sg52
S'21.2'
p595
sg54
S'9.3'
p596
sg56
S'2000-01'
p597
sg58
S'9.5'
p598
sg60
S'3.3'
p599
sg62
S'.449'
p600
sg64
S'1988'
p601
sg66
S'46'
p602
sba(isrc.gp1.models.Per100Possession
Per100Possession
p603
(dp604
g8
S'5.5'
p605
sg10
S'0.1'
p606
sg12
S'.459'
p607
sg447
S'96'
p608
sg14
S'1.9'
p609
sg16
S'.000'
p610
sg18
S'0.0'
p611
sg20
S'21.7'
p612
sg22
g23
sg453
S'104'
p613
sg24
S'.569'
p614
sg28
S'NBA'
p615
sg30
S'1.3'
p616
sg32
S'20.5'
p617
sg34
S'5.3'
p618
sg36
S'5.2'
p619
sg38
S'17.1'
p620
sg40
S'26'
p621
sg42
S'MEM'
p622
sg44
S'43'
p623
sg46
S'1.0'
p624
sg48
S'9.4'
p625
sg50
S'2.9'
p626
sg52
S'20.4'
p627
sg54
S'11.6'
p628
sg56
S'2001-02'
p629
sg58
S'9.4'
p630
sg60
S'3.0'
p631
sg62
S'.461'
p632
sg64
S'1251'
p633
sg66
S'33'
p634
sba(isrc.gp1.models.Per100Possession
Per100Possession
p635
(dp636
g8
S'4.4'
p637
sg10
S'0.1'
p638
sg12
S'.454'
p639
sg447
S'99'
p640
sg14
S'2.1'
p641
sg16
S'.000'
p642
sg18
S'0.0'
p643
sg20
S'20.8'
p644
sg22
g23
sg453
S'106'
p645
sg24
S'.659'
p646
sg28
S'NBA'
p647
sg30
S'1.3'
p648
sg32
S'18.7'
p649
sg34
S'5.5'
p650
sg36
S'5.8'
p651
sg38
S'13.8'
p652
sg40
S'27'
p653
sg42
S'MEM'
p654
sg44
S'70'
p655
sg46
S'1.4'
p656
sg48
S'8.5'
p657
sg50
S'3.8'
p658
sg52
S'18.6'
p659
sg54
S'9.4'
p660
sg56
S'2002-03'
p661
sg58
S'8.5'
p662
sg60
S'2.9'
p663
sg62
S'.457'
p664
sg64
S'1982'
p665
sg66
S'49'
p666
sba(isrc.gp1.models.Per100Possession
Per100Possession
p667
(dp668
g8
S'4.5'
p669
sg10
S'0.2'
p670
sg12
S'.439'
p671
sg447
S'100'
p672
sg14
S'2.2'
p673
sg16
S'.000'
p674
sg18
S'0.0'
p675
sg20
S'19.1'
p676
sg22
g23
sg453
S'101'
p677
sg24
S'.733'
p678
sg28
S'NBA'
p679
sg30
S'1.4'
p680
sg32
S'18.4'
p681
sg34
S'6.0'
p682
sg36
S'4.1'
p683
sg38
S'14.0'
p684
sg40
S'28'
p685
sg42
S'MEM'
p686
sg44
S'65'
p687
sg46
S'1.8'
p688
sg48
S'8.1'
p689
sg50
S'3.0'
p690
sg52
S'18.2'
p691
sg54
S'9.4'
p692
sg56
S'2003-04'
p693
sg58
S'8.1'
p694
sg60
S'2.4'
p695
sg62
S'.442'
p696
sg64
S'1674'
p697
sg66
S'46'
p698
sba(isrc.gp1.models.Per100Possession
Per100Possession
p699
(dp700
g8
S'4.2'
p701
sg10
S'0.1'
p702
sg12
S'.469'
p703
sg447
S'103'
p704
sg14
S'2.1'
p705
sg16
S'.000'
p706
sg18
S'0.0'
p707
sg20
S'18.3'
p708
sg22
g23
sg453
S'101'
p709
sg24
S'.662'
p710
sg28
S'NBA'
p711
sg30
S'1.4'
p712
sg32
S'16.2'
p713
sg34
S'6.0'
p714
sg36
S'4.7'
p715
sg38
S'14.5'
p716
sg40
S'29'
p717
sg42
S'MEM'
p718
sg44
S'80'
p719
sg46
S'1.6'
p720
sg48
S'7.6'
p721
sg50
S'3.1'
p722
sg52
S'16.1'
p723
sg54
S'10.3'
p724
sg56
S'2004-05'
p725
sg58
S'7.6'
p726
sg60
S'2.4'
p727
sg62
S'.471'
p728
sg64
S'2287'
p729
sg66
S'77'
p730
sba(isrc.gp1.models.Per100Possession
Per100Possession
p731
(dp732
g8
S'4.7'
p733
sg10
S'0.1'
p734
sg12
S'.478'
p735
sg447
S'103'
p736
sg14
S'1.6'
p737
sg16
S'.000'
p738
sg18
S'0.0'
p739
sg20
S'15.0'
p740
sg22
g23
sg453
S'100'
p741
sg24
S'.564'
p742
sg28
S'NBA'
p743
sg30
S'1.7'
p744
sg32
S'13.4'
p745
sg34
S'6.6'
p746
sg36
S'3.9'
p747
sg38
S'13.0'
p748
sg40
S'30'
p749
sg42
S'MEM'
p750
sg44
S'78'
p751
sg46
S'1.5'
p752
sg48
S'6.4'
p753
sg50
S'2.2'
p754
sg52
S'13.3'
p755
sg54
S'8.3'
p756
sg56
S'2005-06'
p757
sg58
S'6.4'
p758
sg60
S'2.2'
p759
sg62
S'.480'
p760
sg64
S'1689'
p761
sg66
S'58'
p762
sba(isrc.gp1.models.Per100Possession
Per100Possession
p763
(dp764
g8
S'6.8'
p765
sg10
S'0.0'
p766
sg12
S'.448'
p767
sg447
S'108'
p768
sg14
S'1.4'
p769
sg16
S'4.2'
p770
sg18
S'0.0'
p771
sg20
S'95'
p772
sg22
g23
sg453
g3
sg24
S'4.4'
p773
sg28
S'NBA'
p774
sg30
S'1.4'
p775
sg32
S'9.4'
p776
sg34
S'8.9'
p777
sg36
S'.281'
p778
sg38
S'2.1'
p779
sg40
S'31'
p780
sg42
S'ATL'
p781
sg44
S'67'
p782
sg46
S'2.0'
p783
sg48
S'9.4'
p784
sg50
S'1.6'
p785
sg52
S'.448'
p786
sg54
S'11.1'
p787
sg56
S'2006-07'
p788
sg58
S'4.2'
p789
sg60
S'10.5'
p790
sg62
S'0.5'
p791
sg64
S'1035'
p792
sg66
S'31'
p793
sba(isrc.gp1.models.Per100Possession
Per100Possession
p794
(dp795
g8
S'9.8'
p796
sg10
S'0.0'
p797
sg12
S'.286'
p798
sg447
S'108'
p799
sg14
S'1.0'
p800
sg16
S'2.0'
p801
sg18
S'0.0'
p802
sg20
S'79'
p803
sg22
g23
sg453
g3
sg24
S'2.6'
p804
sg28
S'NBA'
p805
sg30
S'1.0'
p806
sg32
S'6.9'
p807
sg34
S'4.9'
p808
sg36
S'.500'
p809
sg38
S'1.3'
p810
sg40
S'32'
p811
sg42
S'TOT'
p812
sg44
S'18'
p813
sg46
S'1.3'
p814
sg48
S'6.9'
p815
sg50
S'2.0'
p816
sg52
S'.286'
p817
sg54
S'12.4'
p818
sg56
S'2007-08'
p819
sg58
S'2.0'
p820
sg60
S'10.1'
p821
sg62
S'1.0'
p822
sg64
S'161'
p823
sg66
g19
sba(isrc.gp1.models.Per100Possession
Per100Possession
p824
(dp825
g8
S'10.7'
p826
sg10
S'0.0'
p827
sg12
S'.294'
p828
sg447
S'107'
p829
sg14
S'1.1'
p830
sg16
S'1.8'
p831
sg18
S'0.0'
p832
sg20
S'87'
p833
sg22
g23
sg453
g3
sg24
S'2.5'
p834
sg28
S'NBA'
p835
sg30
S'1.1'
p836
sg32
S'6.1'
p837
sg34
S'4.6'
p838
sg36
S'.500'
p839
sg38
S'1.1'
p840
sg40
S'32'
p841
sg42
S'ATL'
p842
sg44
S'13'
p843
sg46
S'0.7'
p844
sg48
S'6.1'
p845
sg50
S'2.1'
p846
sg52
S'.294'
p847
sg54
S'13.2'
p848
sg56
S'2007-08'
p849
sg58
S'1.8'
p850
sg60
S'9.3'
p851
sg62
S'1.1'
p852
sg64
S'148'
p853
sg66
g19
sba(isrc.gp1.models.Per100Possession
Per100Possession
p854
(dp855
g8
S'3.9'
p856
sg10
S'0.0'
p857
sg12
S'.250'
p858
sg447
g3
sg14
S'0.0'
p859
sg16
S'3.9'
p860
sg18
S'0.0'
p861
sg20
S'118'
p862
sg22
g23
sg453
g3
sg24
S'0.0'
p863
sg28
S'NBA'
p864
sg30
S'7.8'
p865
sg32
S'15.6'
p866
sg34
S'52'
p867
sg36
S'3.9'
p868
sg38
S'0.0'
p869
sg40
S'32'
p870
sg42
S'SAC'
p871
sg44
g218
sg46
S'19.5'
p872
sg48
S'15.6'
p873
sg50
S'0.0'
p874
sg52
S'.250'
p875
sg54
S'3.9'
p876
sg56
S'2007-08'
p877
sg58
S'3.9'
p878
sg60
S'7.8'
p879
sg62
S'0.0'
p880
sg64
S'13'
p881
sg66
g75
sba(isrc.gp1.models.Per100Possession
Per100Possession
p882
(dp883
g8
S'7.8'
p884
sg10
S'0.0'
p885
sg12
S'.370'
p886
sg447
S'101'
p887
sg14
S'1.7'
p888
sg16
S'4.3'
p889
sg18
S'0.0'
p890
sg20
S'73'
p891
sg22
g23
sg453
g3
sg24
S'3.0'
p892
sg28
S'NBA'
p893
sg30
S'2.2'
p894
sg32
S'11.7'
p895
sg34
S'10.0'
p896
sg36
S'.375'
p897
sg38
S'1.3'
p898
sg40
S'33'
p899
sg42
S'CLE'
p900
sg44
S'17'
p901
sg46
S'3.9'
p902
sg48
S'11.7'
p903
sg50
S'3.5'
p904
sg52
S'.370'
p905
sg54
S'10.8'
p906
sg56
S'2008-09'
p907
sg58
S'4.3'
p908
sg60
S'7.4'
p909
sg62
S'1.3'
p910
sg64
S'125'
p911
sg66
g71
sbasS'_advanced'
p912
(lp913
(isrc.gp1.models.Advanced
Advanced
p914
(dp915
S'_offensiveReboundPercentage'
p916
S'12.0'
p917
sS'_turnOverPercentage'
p918
S'12.4'
p919
sS'_winSharesPer48Minutes'
p920
S'.079'
p921
sS'_stealPercentage'
p922
S'1.3'
p923
sS'_usagePercentage'
p924
S'14.7'
p925
sS'_totalReboundsPercentage'
p926
S'14.2'
p927
sS'_defensiveBoxPlusMinus'
p928
S'0.3'
p929
sg22
g23
sS'_valueOverReplacementPlayer'
p930
S'0.2'
p931
sS'_trueShootingPercentage'
p932
S'.504'
p933
sS'_defensiveReboundPercentage'
p934
S'16.6'
p935
sS'_freeThrowsAttempRate'
p936
S'.305'
p937
sS'_threePointsAttempRate'
p938
S'.008'
p939
sg28
S'NBA'
p940
sS'_offensiveBoxPlusMinues'
p941
S'-1.9'
p942
sS'_assistPercentage'
p943
S'4.0'
p944
sS'_defensiveWinShares'
p945
S'1.7'
p946
sg40
S'21'
p947
sg42
S'LAC'
p948
sg44
S'77'
p949
sS'_blockPercentage'
p950
S'2.4'
p951
sS'_playerEfficiencyRating'
p952
S'12.5'
p953
sS'_offensiveWinShares'
p954
S'1.5'
p955
sg64
S'1936'
p956
sS'_boxPlusMinus'
p957
S'-1.5'
p958
sg56
S'1996-97'
p959
sS'_winShares'
p960
S'3.2'
p961
sba(isrc.gp1.models.Advanced
Advanced
p962
(dp963
g916
S'9.8'
p964
sg918
S'11.3'
p965
sg920
S'.071'
p966
sg922
S'1.4'
p967
sg924
S'15.4'
p968
sg926
S'16.7'
p969
sg928
S'0.2'
p970
sg22
g23
sg930
S'-0.2'
p971
sg932
S'.490'
p972
sg934
S'23.7'
p973
sg936
S'.395'
p974
sg938
S'.004'
p975
sg28
S'NBA'
p976
sg941
S'-2.6'
p977
sg943
S'4.3'
p978
sg945
S'1.5'
p979
sg40
S'22'
p980
sg42
S'LAC'
p981
sg44
S'69'
p982
sg950
S'2.8'
p983
sg952
S'13.6'
p984
sg954
S'1.5'
p985
sg64
S'2067'
p986
sg957
S'-2.4'
p987
sg56
S'1997-98'
p988
sg960
S'3.1'
p989
sba(isrc.gp1.models.Advanced
Advanced
p990
(dp991
g916
S'14.0'
p992
sg918
S'13.4'
p993
sg920
S'.093'
p994
sg922
S'1.2'
p995
sg924
S'14.4'
p996
sg926
S'18.8'
p997
sg928
S'-0.5'
p998
sg22
g23
sg930
S'0.2'
p999
sg932
S'.512'
p1000
sg934
S'24.2'
p1001
sg936
S'.450'
p1002
sg938
S'.004'
p1003
sg28
S'NBA'
p1004
sg941
S'-0.8'
p1005
sg943
S'4.8'
p1006
sg945
S'0.5'
p1007
sg40
S'23'
p1008
sg42
S'LAC'
p1009
sg44
S'48'
p1010
sg950
S'2.4'
p1011
sg952
S'14.7'
p1012
sg954
S'1.7'
p1013
sg64
S'1135'
p1014
sg957
S'-1.3'
p1015
sg56
S'1998-99'
p1016
sg960
S'2.2'
p1017
sba(isrc.gp1.models.Advanced
Advanced
p1018
(dp1019
g916
S'10.6'
p1020
sg918
S'13.6'
p1021
sg920
S'.088'
p1022
sg922
S'1.3'
p1023
sg924
S'17.9'
p1024
sg926
S'13.9'
p1025
sg928
S'-1.3'
p1026
sg22
g23
sg930
S'-0.4'
p1027
sg932
S'.533'
p1028
sg934
S'17.1'
p1029
sg936
S'.374'
p1030
sg938
S'.008'
p1031
sg28
S'NBA'
p1032
sg941
S'-1.9'
p1033
sg943
S'2.9'
p1034
sg945
S'0.9'
p1035
sg40
S'24'
p1036
sg42
S'ATL'
p1037
sg44
S'75'
p1038
sg950
S'2.2'
p1039
sg952
S'13.9'
p1040
sg954
S'1.3'
p1041
sg64
S'1205'
p1042
sg957
S'-3.2'
p1043
sg56
S'1999-00'
p1044
sg960
S'2.2'
p1045
sba(isrc.gp1.models.Advanced
Advanced
p1046
(dp1047
g916
S'10.0'
p1048
sg918
S'12.1'
p1049
sg920
S'.077'
p1050
sg922
S'1.1'
p1051
sg924
S'23.2'
p1052
sg926
S'15.0'
p1053
sg928
S'-0.1'
p1054
sg22
g23
sg930
S'0.1'
p1055
sg932
S'.486'
p1056
sg934
S'20.0'
p1057
sg936
S'.266'
p1058
sg938
S'.002'
p1059
sg28
S'NBA'
p1060
sg941
S'-1.6'
p1061
sg943
S'8.0'
p1062
sg945
S'2.0'
p1063
sg40
S'25'
p1064
sg42
S'ATL'
p1065
sg44
S'71'
p1066
sg950
S'2.3'
p1067
sg952
S'15.7'
p1068
sg954
S'1.1'
p1069
sg64
S'1988'
p1070
sg957
S'-1.7'
p1071
sg56
S'2000-01'
p1072
sg960
S'3.2'
p1073
sba(isrc.gp1.models.Advanced
Advanced
p1074
(dp1075
g916
S'11.6'
p1076
sg918
S'11.8'
p1077
sg920
S'.055'
p1078
sg922
S'1.3'
p1079
sg924
S'22.2'
p1080
sg926
S'18.1'
p1081
sg928
S'-0.8'
p1082
sg22
g23
sg930
S'-0.6'
p1083
sg932
S'.478'
p1084
sg934
S'24.5'
p1085
sg936
S'.253'
p1086
sg938
S'.004'
p1087
sg28
S'NBA'
p1088
sg941
S'-3.0'
p1089
sg943
S'6.5'
p1090
sg945
S'1.4'
p1091
sg40
S'26'
p1092
sg42
S'MEM'
p1093
sg44
S'43'
p1094
sg950
S'1.3'
p1095
sg952
S'14.8'
p1096
sg954
S'0.0'
p1097
sg64
S'1251'
p1098
sg957
S'-3.8'
p1099
sg56
S'2001-02'
p1100
sg960
S'1.4'
p1101
sba(isrc.gp1.models.Advanced
Advanced
p1102
(dp1103
g916
S'9.8'
p1104
sg918
S'11.9'
p1105
sg920
S'.061'
p1106
sg922
S'1.3'
p1107
sg924
S'21.0'
p1108
sg926
S'15.0'
p1109
sg928
S'-0.5'
p1110
sg22
g23
sg930
S'-0.2'
p1111
sg932
S'.489'
p1112
sg934
S'20.0'
p1113
sg936
S'.311'
p1114
sg938
S'.007'
p1115
sg28
S'NBA'
p1116
sg941
S'-1.9'
p1117
sg943
S'6.7'
p1118
sg945
S'1.5'
p1119
sg40
S'27'
p1120
sg42
S'MEM'
p1121
sg44
S'70'
p1122
sg950
S'1.9'
p1123
sg952
S'14.4'
p1124
sg954
S'1.0'
p1125
sg64
S'1982'
p1126
sg957
S'-2.4'
p1127
sg56
S'2002-03'
p1128
sg960
S'2.5'
p1129
sba(isrc.gp1.models.Advanced
Advanced
p1130
(dp1131
g916
S'9.6'
p1132
sg918
S'10.7'
p1133
sg920
S'.092'
p1134
sg922
S'1.4'
p1135
sg924
S'19.4'
p1136
sg926
S'15.0'
p1137
sg928
S'0.7'
p1138
sg22
g23
sg930
S'0.3'
p1139
sg932
S'.474'
p1140
sg934
S'20.5'
p1141
sg936
S'.224'
p1142
sg938
S'.009'
p1143
sg28
S'NBA'
p1144
sg941
S'-2.1'
p1145
sg943
S'7.2'
p1146
sg945
S'2.1'
p1147
sg40
S'28'
p1148
sg42
S'MEM'
p1149
sg44
S'65'
p1150
sg950
S'2.5'
p1151
sg952
S'14.0'
p1152
sg954
S'1.0'
p1153
sg64
S'1674'
p1154
sg957
S'-1.3'
p1155
sg56
S'2003-04'
p1156
sg960
S'3.2'
p1157
sba(isrc.gp1.models.Advanced
Advanced
p1158
(dp1159
g916
S'9.3'
p1160
sg918
S'11.5'
p1161
sg920
S'.108'
p1162
sg922
S'1.4'
p1163
sg924
S'17.9'
p1164
sg926
S'16.1'
p1165
sg928
S'1.8'
p1166
sg22
g23
sg930
S'0.8'
p1167
sg932
S'.501'
p1168
sg934
S'22.8'
p1169
sg936
S'.290'
p1170
sg938
S'.004'
p1171
sg28
S'NBA'
p1172
sg941
S'-2.4'
p1173
sg943
S'6.7'
p1174
sg945
S'3.8'
p1175
sg40
S'29'
p1176
sg42
S'MEM'
p1177
sg44
S'80'
p1178
sg950
S'2.4'
p1179
sg952
S'13.9'
p1180
sg954
S'1.3'
p1181
sg64
S'2287'
p1182
sg957
S'-0.6'
p1183
sg56
S'2004-05'
p1184
sg960
S'5.2'
p1185
sba(isrc.gp1.models.Advanced
Advanced
p1186
(dp1187
g916
S'10.3'
p1188
sg918
S'12.8'
p1189
sg920
S'.106'
p1190
sg922
S'1.7'
p1191
sg924
S'15.1'
p1192
sg926
S'14.2'
p1193
sg928
S'1.6'
p1194
sg22
g23
sg930
S'0.3'
p1195
sg932
S'.496'
p1196
sg934
S'18.0'
p1197
sg936
S'.288'
p1198
sg938
S'.005'
p1199
sg28
S'NBA'
p1200
sg941
S'-3.0'
p1201
sg943
S'4.9'
p1202
sg945
S'3.0'
p1203
sg40
S'30'
p1204
sg42
S'MEM'
p1205
sg44
S'78'
p1206
sg950
S'2.2'
p1207
sg952
S'12.2'
p1208
sg954
S'0.8'
p1209
sg64
S'1689'
p1210
sg957
S'-1.3'
p1211
sg56
S'2005-06'
p1212
sg960
S'3.7'
p1213
sba(isrc.gp1.models.Advanced
Advanced
p1214
(dp1215
g916
S'9.8'
p1216
sg918
S'16.5'
p1217
sg920
S'.033'
p1218
sg922
S'1.4'
p1219
sg924
S'10.5'
p1220
sg926
S'12.6'
p1221
sg928
S'0.7'
p1222
sg22
g23
sg930
S'-0.2'
p1223
sg932
S'.439'
p1224
sg934
S'15.4'
p1225
sg936
S'.175'
p1226
sg938
S'.000'
p1227
sg28
S'NBA'
p1228
sg941
S'-3.7'
p1229
sg943
S'6.1'
p1230
sg945
S'0.9'
p1231
sg40
S'31'
p1232
sg42
S'ATL'
p1233
sg44
S'67'
p1234
sg950
S'2.1'
p1235
sg952
S'6.6'
p1236
sg954
S'-0.2'
p1237
sg64
S'1035'
p1238
sg957
S'-3.0'
p1239
sg56
S'2006-07'
p1240
sg960
S'0.7'
p1241
sba(isrc.gp1.models.Advanced
Advanced
p1242
(dp1243
g916
S'5.8'
p1244
sg918
S'14.5'
p1245
sg920
S'.001'
p1246
sg922
S'1.0'
p1247
sg924
S'7.8'
p1248
sg926
S'13.8'
p1249
sg928
S'0.1'
p1250
sg22
g23
sg930
S'-0.2'
p1251
sg932
S'.317'
p1252
sg934
S'21.6'
p1253
sg936
S'.286'
p1254
sg938
S'.000'
p1255
sg28
S'NBA'
p1256
sg941
S'-7.0'
p1257
sg943
S'3.5'
p1258
sg945
S'0.2'
p1259
sg40
S'32'
p1260
sg42
S'TOT'
p1261
sg44
S'18'
p1262
sg950
S'1.4'
p1263
sg952
S'2.5'
p1264
sg954
S'-0.2'
p1265
sg64
S'161'
p1266
sg957
S'-6.9'
p1267
sg56
S'2007-08'
p1268
sg960
S'0.0'
p1269
sba(isrc.gp1.models.Advanced
Advanced
p1270
(dp1271
g916
S'5.5'
p1272
sg918
S'9.2'
p1273
sg920
S'.028'
p1274
sg922
S'1.1'
p1275
sg924
S'6.6'
p1276
sg926
S'14.6'
p1277
sg928
S'0.4'
p1278
sg22
g23
sg930
S'-0.2'
p1279
sg932
S'.331'
p1280
sg934
S'23.5'
p1281
sg936
S'.353'
p1282
sg938
S'.000'
p1283
sg28
S'NBA'
p1284
sg941
S'-6.5'
p1285
sg943
S'2.8'
p1286
sg945
S'0.2'
p1287
sg40
S'32'
p1288
sg42
S'ATL'
p1289
sg44
S'13'
p1290
sg950
S'1.5'
p1291
sg952
S'3.7'
p1292
sg954
S'-0.1'
p1293
sg64
S'148'
p1294
sg957
S'-6.1'
p1295
sg56
S'2007-08'
p1296
sg960
S'0.1'
p1297
sba(isrc.gp1.models.Advanced
Advanced
p1298
(dp1299
g916
S'9.3'
p1300
sg918
S'33.3'
p1301
sg920
S'-0.304'
p1302
sg922
S'0.0'
p1303
sg924
S'20.6'
p1304
sg926
S'4.5'
p1305
sg928
S'-4.3'
p1306
sg22
g23
sg930
S'0.0'
p1307
sg932
S'.250'
p1308
sg934
S'0.0'
p1309
sg936
S'.000'
p1310
sg938
S'.000'
p1311
sg28
S'NBA'
p1312
sg941
S'-12.2'
p1313
sg943
S'11.1'
p1314
sg945
S'0.0'
p1315
sg40
S'32'
p1316
sg42
S'SAC'
p1317
sg44
g218
sg950
S'0.0'
p1318
sg952
S'-11.7'
p1319
sg954
S'-0.1'
p1320
sg64
S'13'
p1321
sg957
S'-16.5'
p1322
sg56
S'2007-08'
p1323
sg960
S'-0.1'
p1324
sba(isrc.gp1.models.Advanced
Advanced
p1325
(dp1326
g916
S'6.9'
p1327
sg918
S'22.8'
p1328
sg920
S'-0.022'
p1329
sg922
S'1.7'
p1330
sg924
S'14.9'
p1331
sg926
S'11.9'
p1332
sg928
S'2.0'
p1333
sg22
g23
sg930
S'-0.1'
p1334
sg932
S'.377'
p1335
sg934
S'16.5'
p1336
sg936
S'.296'
p1337
sg938
S'.000'
p1338
sg28
S'NBA'
p1339
sg941
S'-8.4'
p1340
sg943
S'3.5'
p1341
sg945
S'0.2'
p1342
sg40
S'33'
p1343
sg42
S'CLE'
p1344
sg44
S'17'
p1345
sg950
S'3.2'
p1346
sg952
S'4.0'
p1347
sg954
S'-0.3'
p1348
sg64
S'125'
p1349
sg957
S'-6.4'
p1350
sg56
S'2008-09'
p1351
sg960
S'-0.1'
p1352
sbasS'_per36Minutes'
p1353
(lp1354
(isrc.gp1.models.Per36Minutes
Per36Minutes
p1355
(dp1356
g8
S'3.8'
p1357
sg10
S'0.1'
p1358
sg12
S'.481'
p1359
sg14
S'0.9'
p1360
sg16
S'.250'
p1361
sg18
S'0.0'
p1362
sg20
S'10.4'
p1363
sg22
g23
sg24
S'.587'
p1364
sg28
S'NBA'
p1365
sg30
S'0.9'
p1366
sg32
S'9.1'
p1367
sg34
S'3.9'
p1368
sg36
S'2.8'
p1369
sg38
S'8.8'
p1370
sg40
S'21'
p1371
sg42
S'LAC'
p1372
sg44
S'77'
p1373
sg46
S'1.1'
p1374
sg48
S'4.4'
p1375
sg50
S'1.6'
p1376
sg52
S'9.1'
p1377
sg54
S'4.9'
p1378
sg56
S'1996-97'
p1379
sg58
S'4.4'
p1380
sg60
S'1.5'
p1381
sg62
S'.483'
p1382
sg64
S'1936'
p1383
sg66
S'51'
p1384
sba(isrc.gp1.models.Per36Minutes
Per36Minutes
p1385
(dp1386
g8
S'3.1'
p1387
sg10
S'0.0'
p1388
sg12
S'.445'
p1389
sg14
S'1.0'
p1390
sg16
S'.000'
p1391
sg18
S'0.0'
p1392
sg20
S'10.9'
p1393
sg22
g23
sg24
S'.659'
p1394
sg28
S'NBA'
p1395
sg30
S'1.0'
p1396
sg32
S'9.4'
p1397
sg34
S'4.1'
p1398
sg36
S'3.7'
p1399
sg38
S'10.6'
p1400
sg40
S'22'
p1401
sg42
S'LAC'
p1402
sg44
S'69'
p1403
sg46
S'1.5'
p1404
sg48
S'4.2'
p1405
sg50
S'2.5'
p1406
sg52
S'9.4'
p1407
sg54
S'7.4'
p1408
sg56
S'1997-98'
p1409
sg58
S'4.2'
p1410
sg60
S'1.4'
p1411
sg62
S'.446'
p1412
sg64
S'2067'
p1413
sg66
S'38'
p1414
sba(isrc.gp1.models.Per36Minutes
Per36Minutes
p1415
(dp1416
g8
S'4.5'
p1417
sg10
S'0.0'
p1418
sg12
S'.458'
p1419
sg14
S'1.0'
p1420
sg16
S'.000'
p1421
sg18
S'0.0'
p1422
sg20
S'10.1'
p1423
sg22
g23
sg24
S'.692'
p1424
sg28
S'NBA'
p1425
sg30
S'0.8'
p1426
sg32
S'8.2'
p1427
sg34
S'5.1'
p1428
sg36
S'3.7'
p1429
sg38
S'11.5'
p1430
sg40
S'23'
p1431
sg42
S'LAC'
p1432
sg44
S'48'
p1433
sg46
S'1.1'
p1434
sg48
S'3.8'
p1435
sg50
S'2.6'
p1436
sg52
S'8.2'
p1437
sg54
S'6.9'
p1438
sg56
S'1998-99'
p1439
sg58
S'3.8'
p1440
sg60
S'1.5'
p1441
sg62
S'.459'
p1442
sg64
S'1135'
p1443
sg66
S'15'
p1444
sba(isrc.gp1.models.Per36Minutes
Per36Minutes
p1445
(dp1446
g8
S'3.5'
p1447
sg10
S'0.1'
p1448
sg12
S'.499'
p1449
sg14
S'0.6'
p1450
sg16
S'.333'
p1451
sg18
S'0.0'
p1452
sg20
S'13.4'
p1453
sg22
g23
sg24
S'.644'
p1454
sg28
S'NBA'
p1455
sg30
S'0.9'
p1456
sg32
S'10.8'
p1457
sg34
S'6.1'
p1458
sg36
S'4.0'
p1459
sg38
S'9.1'
p1460
sg40
S'24'
p1461
sg42
S'ATL'
p1462
sg44
S'75'
p1463
sg46
S'1.2'
p1464
sg48
S'5.3'
p1465
sg50
S'2.6'
p1466
sg52
S'10.7'
p1467
sg54
S'5.6'
p1468
sg56
S'1999-00'
p1469
sg58
S'5.4'
p1470
sg60
S'2.0'
p1471
sg62
S'.500'
p1472
sg64
S'1205'
p1473
sg66
g75
sba(isrc.gp1.models.Per36Minutes
Per36Minutes
p1474
(dp1475
g8
S'3.3'
p1476
sg10
S'0.0'
p1477
sg12
S'.448'
p1478
sg14
S'1.6'
p1479
sg16
S'.000'
p1480
sg18
S'0.0'
p1481
sg20
S'16.0'
p1482
sg22
g23
sg24
S'.718'
p1483
sg28
S'NBA'
p1484
sg30
S'0.8'
p1485
sg32
S'14.7'
p1486
sg34
S'4.2'
p1487
sg36
S'3.9'
p1488
sg38
S'9.7'
p1489
sg40
S'25'
p1490
sg42
S'ATL'
p1491
sg44
S'71'
p1492
sg46
S'1.1'
p1493
sg48
S'6.6'
p1494
sg50
S'2.8'
p1495
sg52
S'14.6'
p1496
sg54
S'6.4'
p1497
sg56
S'2000-01'
p1498
sg58
S'6.6'
p1499
sg60
S'2.3'
p1500
sg62
S'.449'
p1501
sg64
S'1988'
p1502
sg66
S'46'
p1503
sba(isrc.gp1.models.Per36Minutes
Per36Minutes
p1504
(dp1505
g8
S'3.7'
p1506
sg10
S'0.1'
p1507
sg12
S'.459'
p1508
sg14
S'1.3'
p1509
sg16
S'.000'
p1510
sg18
S'0.0'
p1511
sg20
S'14.8'
p1512
sg22
g23
sg24
S'.569'
p1513
sg28
S'NBA'
p1514
sg30
S'0.9'
p1515
sg32
S'14.0'
p1516
sg34
S'3.6'
p1517
sg36
S'3.5'
p1518
sg38
S'11.7'
p1519
sg40
S'26'
p1520
sg42
S'MEM'
p1521
sg44
S'43'
p1522
sg46
S'0.7'
p1523
sg48
S'6.4'
p1524
sg50
S'2.0'
p1525
sg52
S'13.9'
p1526
sg54
S'7.9'
p1527
sg56
S'2001-02'
p1528
sg58
S'6.4'
p1529
sg60
S'2.1'
p1530
sg62
S'.461'
p1531
sg64
S'1251'
p1532
sg66
S'33'
p1533
sba(isrc.gp1.models.Per36Minutes
Per36Minutes
p1534
(dp1535
g8
S'3.1'
p1536
sg10
S'0.1'
p1537
sg12
S'.454'
p1538
sg14
S'1.5'
p1539
sg16
S'.000'
p1540
sg18
S'0.0'
p1541
sg20
S'14.5'
p1542
sg22
g23
sg24
S'.659'
p1543
sg28
S'NBA'
p1544
sg30
S'0.9'
p1545
sg32
S'13.0'
p1546
sg34
S'3.8'
p1547
sg36
S'4.1'
p1548
sg38
S'9.6'
p1549
sg40
S'27'
p1550
sg42
S'MEM'
p1551
sg44
S'70'
p1552
sg46
S'1.0'
p1553
sg48
S'5.9'
p1554
sg50
S'2.7'
p1555
sg52
S'12.9'
p1556
sg54
S'6.5'
p1557
sg56
S'2002-03'
p1558
sg58
S'5.9'
p1559
sg60
S'2.0'
p1560
sg62
S'.457'
p1561
sg64
S'1982'
p1562
sg66
S'49'
p1563
sba(isrc.gp1.models.Per36Minutes
Per36Minutes
p1564
(dp1565
g8
S'3.1'
p1566
sg10
S'0.1'
p1567
sg12
S'.439'
p1568
sg14
S'1.5'
p1569
sg16
S'.000'
p1570
sg18
S'0.0'
p1571
sg20
S'13.1'
p1572
sg22
g23
sg24
S'.733'
p1573
sg28
S'NBA'
p1574
sg30
S'1.0'
p1575
sg32
S'12.6'
p1576
sg34
S'4.1'
p1577
sg36
S'2.8'
p1578
sg38
S'9.6'
p1579
sg40
S'28'
p1580
sg42
S'MEM'
p1581
sg44
S'65'
p1582
sg46
S'1.2'
p1583
sg48
S'5.5'
p1584
sg50
S'2.1'
p1585
sg52
S'12.5'
p1586
sg54
S'6.5'
p1587
sg56
S'2003-04'
p1588
sg58
S'5.5'
p1589
sg60
S'1.7'
p1590
sg62
S'.442'
p1591
sg64
S'1674'
p1592
sg66
S'46'
p1593
sba(isrc.gp1.models.Per36Minutes
Per36Minutes
p1594
(dp1595
g8
S'2.8'
p1596
sg10
S'0.0'
p1597
sg12
S'.469'
p1598
sg14
S'1.4'
p1599
sg16
S'.000'
p1600
sg18
S'0.0'
p1601
sg20
S'12.1'
p1602
sg22
g23
sg24
S'.662'
p1603
sg28
S'NBA'
p1604
sg30
S'0.9'
p1605
sg32
S'10.8'
p1606
sg34
S'4.0'
p1607
sg36
S'3.1'
p1608
sg38
S'9.6'
p1609
sg40
S'29'
p1610
sg42
S'MEM'
p1611
sg44
S'80'
p1612
sg46
S'1.1'
p1613
sg48
S'5.0'
p1614
sg50
S'2.1'
p1615
sg52
S'10.7'
p1616
sg54
S'6.9'
p1617
sg56
S'2004-05'
p1618
sg58
S'5.0'
p1619
sg60
S'1.6'
p1620
sg62
S'.471'
p1621
sg64
S'2287'
p1622
sg66
S'77'
p1623
sba(isrc.gp1.models.Per36Minutes
Per36Minutes
p1624
(dp1625
g8
S'3.0'
p1626
sg10
S'0.0'
p1627
sg12
S'.478'
p1628
sg14
S'1.0'
p1629
sg16
S'.000'
p1630
sg18
S'0.0'
p1631
sg20
S'9.7'
p1632
sg22
g23
sg24
S'.564'
p1633
sg28
S'NBA'
p1634
sg30
S'1.1'
p1635
sg32
S'8.7'
p1636
sg34
S'4.3'
p1637
sg36
S'2.5'
p1638
sg38
S'8.4'
p1639
sg40
S'30'
p1640
sg42
S'MEM'
p1641
sg44
S'78'
p1642
sg46
S'1.0'
p1643
sg48
S'4.1'
p1644
sg50
S'1.4'
p1645
sg52
S'8.6'
p1646
sg54
S'5.4'
p1647
sg56
S'2005-06'
p1648
sg58
S'4.1'
p1649
sg60
S'1.4'
p1650
sg62
S'.480'
p1651
sg64
S'1689'
p1652
sg66
S'58'
p1653
sba(isrc.gp1.models.Per36Minutes
Per36Minutes
p1654
(dp1655
g8
S'4.6'
p1656
sg10
S'0.0'
p1657
sg12
S'.448'
p1658
sg14
S'1.0'
p1659
sg16
S'2.9'
p1660
sg18
S'0.0'
p1661
sg20
g3
sg22
g23
sg24
S'3.0'
p1662
sg28
S'NBA'
p1663
sg30
S'1.0'
p1664
sg32
S'6.4'
p1665
sg34
S'6.0'
p1666
sg36
S'.281'
p1667
sg38
S'1.4'
p1668
sg40
S'31'
p1669
sg42
S'ATL'
p1670
sg44
S'67'
p1671
sg46
S'1.4'
p1672
sg48
S'6.4'
p1673
sg50
S'1.1'
p1674
sg52
S'.448'
p1675
sg54
S'7.5'
p1676
sg56
S'2006-07'
p1677
sg58
S'2.9'
p1678
sg60
S'7.1'
p1679
sg62
S'0.3'
p1680
sg64
S'1035'
p1681
sg66
S'31'
p1682
sba(isrc.gp1.models.Per36Minutes
Per36Minutes
p1683
(dp1684
g8
S'6.7'
p1685
sg10
S'0.0'
p1686
sg12
S'.286'
p1687
sg14
S'0.7'
p1688
sg16
S'1.3'
p1689
sg18
S'0.0'
p1690
sg20
g3
sg22
g23
sg24
S'1.8'
p1691
sg28
S'NBA'
p1692
sg30
S'0.7'
p1693
sg32
S'4.7'
p1694
sg34
S'3.4'
p1695
sg36
S'.500'
p1696
sg38
S'0.9'
p1697
sg40
S'32'
p1698
sg42
S'TOT'
p1699
sg44
S'18'
p1700
sg46
S'0.9'
p1701
sg48
S'4.7'
p1702
sg50
S'1.3'
p1703
sg52
S'.286'
p1704
sg54
S'8.5'
p1705
sg56
S'2007-08'
p1706
sg58
S'1.3'
p1707
sg60
S'6.9'
p1708
sg62
S'0.7'
p1709
sg64
S'161'
p1710
sg66
g19
sba(isrc.gp1.models.Per36Minutes
Per36Minutes
p1711
(dp1712
g8
S'7.3'
p1713
sg10
S'0.0'
p1714
sg12
S'.294'
p1715
sg14
S'0.7'
p1716
sg16
S'1.2'
p1717
sg18
S'0.0'
p1718
sg20
g3
sg22
g23
sg24
S'1.7'
p1719
sg28
S'NBA'
p1720
sg30
S'0.7'
p1721
sg32
S'4.1'
p1722
sg34
S'3.2'
p1723
sg36
S'.500'
p1724
sg38
S'0.7'
p1725
sg40
S'32'
p1726
sg42
S'ATL'
p1727
sg44
S'13'
p1728
sg46
S'0.5'
p1729
sg48
S'4.1'
p1730
sg50
S'1.5'
p1731
sg52
S'.294'
p1732
sg54
S'9.0'
p1733
sg56
S'2007-08'
p1734
sg58
S'1.2'
p1735
sg60
S'6.3'
p1736
sg62
S'0.7'
p1737
sg64
S'148'
p1738
sg66
g19
sba(isrc.gp1.models.Per36Minutes
Per36Minutes
p1739
(dp1740
g8
S'2.8'
p1741
sg10
S'0.0'
p1742
sg12
S'.250'
p1743
sg14
S'0.0'
p1744
sg16
S'2.8'
p1745
sg18
S'0.0'
p1746
sg20
g3
sg22
g23
sg24
S'0.0'
p1747
sg28
S'NBA'
p1748
sg30
S'5.5'
p1749
sg32
S'11.1'
p1750
sg34
g3
sg36
S'2.8'
p1751
sg38
S'0.0'
p1752
sg40
S'32'
p1753
sg42
S'SAC'
p1754
sg44
g218
sg46
S'13.8'
p1755
sg48
S'11.1'
p1756
sg50
S'0.0'
p1757
sg52
S'.250'
p1758
sg54
S'2.8'
p1759
sg56
S'2007-08'
p1760
sg58
S'2.8'
p1761
sg60
S'5.5'
p1762
sg62
S'0.0'
p1763
sg64
S'13'
p1764
sg66
g75
sba(isrc.gp1.models.Per36Minutes
Per36Minutes
p1765
(dp1766
g8
S'5.2'
p1767
sg10
S'0.0'
p1768
sg12
S'.370'
p1769
sg14
S'1.2'
p1770
sg16
S'2.9'
p1771
sg18
S'0.0'
p1772
sg20
g3
sg22
g23
sg24
S'2.0'
p1773
sg28
S'NBA'
p1774
sg30
S'1.4'
p1775
sg32
S'7.8'
p1776
sg34
S'6.6'
p1777
sg36
S'.375'
p1778
sg38
S'0.9'
p1779
sg40
S'33'
p1780
sg42
S'CLE'
p1781
sg44
S'17'
p1782
sg46
S'2.6'
p1783
sg48
S'7.8'
p1784
sg50
S'2.3'
p1785
sg52
S'.370'
p1786
sg54
S'7.2'
p1787
sg56
S'2008-09'
p1788
sg58
S'2.9'
p1789
sg60
S'4.9'
p1790
sg62
S'0.9'
p1791
sg64
S'125'
p1792
sg66
g71
sbasS'_fromYear'
p1793
S'1997'
p1794
sS'_url'
p1795
S'http://www.basketball-reference.com/players/w/wrighlo02.html'
p1796
sS'_perGame'
p1797
(isrc.gp1.models.PerGame
PerGame
p1798
(dp1799
g8
S'1.1'
p1800
sg10
S'0.0'
p1801
sg12
S'.370'
p1802
sS'_effectiveFieldGalPercentage'
p1803
S'0.2'
p1804
sg14
S'0.2'
p1805
sg16
S'0.6'
p1806
sg18
S'0.0'
p1807
sg20
g3
sg22
g23
sg24
S'0.4'
p1808
sg28
S'NBA'
p1809
sg30
S'0.3'
p1810
sg34
S'1.4'
p1811
sS'_fieldGoalsttempted'
p1812
S'1.6'
p1813
sg36
S'.375'
p1814
sg38
S'0.2'
p1815
sg40
S'33'
p1816
sg42
S'CLE'
p1817
sg44
S'17'
p1818
sg46
S'0.5'
p1819
sg48
S'1.6'
p1820
sg50
S'0.5'
p1821
sg52
S'.370'
p1822
sg54
S'1.5'
p1823
sg56
S'2008-09'
p1824
sg58
S'0.6'
p1825
sg60
S'1.0'
p1826
sg62
S'.370'
p1827
sg64
S'7.4'
p1828
sg66
g71
sbsS'_weight'
p1829
S'225'
p1830
sS'_dob'
p1831
S'4-11-1975'
p1832
sS'_salary'
p1833
(lp1834
(isrc.gp1.models.Salary
Salary
p1835
(dp1836
g42
S'Los Angeles Clippers'
p1837
sg28
S'NBA'
p1838
sg1833
S'$1,480,000'
p1839
sg56
S'1996-97'
p1840
sba(isrc.gp1.models.Salary
Salary
p1841
(dp1842
g42
S'Los Angeles Clippers'
p1843
sg28
S'NBA'
p1844
sg1833
S'$1,701,720'
p1845
sg56
S'1997-98'
p1846
sba(isrc.gp1.models.Salary
Salary
p1847
(dp1848
g42
S'Los Angeles Clippers'
p1849
sg28
S'NBA'
p1850
sg1833
S'$1,923,000'
p1851
sg56
S'1998-99'
p1852
sba(isrc.gp1.models.Salary
Salary
p1853
(dp1854
g42
S'Atlanta Hawks'
p1855
sg28
S'NBA'
p1856
sg1833
S'$4,400,000'
p1857
sg56
S'1999-00'
p1858
sba(isrc.gp1.models.Salary
Salary
p1859
(dp1860
g42
S'Atlanta Hawks'
p1861
sg28
S'NBA'
p1862
sg1833
S'$4,950,000'
p1863
sg56
S'2000-01'
p1864
sba(isrc.gp1.models.Salary
Salary
p1865
(dp1866
g42
S'Memphis Grizzlies'
p1867
sg28
S'NBA'
p1868
sg1833
S'$5,500,000'
p1869
sg56
S'2001-02'
p1870
sba(isrc.gp1.models.Salary
Salary
p1871
(dp1872
g42
S'Memphis Grizzlies'
p1873
sg28
S'NBA'
p1874
sg1833
S'$6,050,000'
p1875
sg56
S'2002-03'
p1876
sba(isrc.gp1.models.Salary
Salary
p1877
(dp1878
g42
S'Memphis Grizzlies'
p1879
sg28
S'NBA'
p1880
sg1833
S'$6,600,000'
p1881
sg56
S'2003-04'
p1882
sba(isrc.gp1.models.Salary
Salary
p1883
(dp1884
g42
S'Memphis Grizzlies'
p1885
sg28
S'NBA'
p1886
sg1833
S'$7,150,000'
p1887
sg56
S'2004-05'
p1888
sba(isrc.gp1.models.Salary
Salary
p1889
(dp1890
g42
S'Memphis Grizzlies'
p1891
sg28
S'NBA'
p1892
sg1833
S'$7,700,000'
p1893
sg56
S'2005-06'
p1894
sba(isrc.gp1.models.Salary
Salary
p1895
(dp1896
g42
S'Atlanta Hawks'
p1897
sg28
S'NBA'
p1898
sg1833
S'$3,250,000'
p1899
sg56
S'2006-07'
p1900
sba(isrc.gp1.models.Salary
Salary
p1901
(dp1902
g42
S'Sacramento Kings'
p1903
sg28
S'NBA'
p1904
sg1833
S'$3,250,000'
p1905
sg56
S'2007-08'
p1906
sba(isrc.gp1.models.Salary
Salary
p1907
(dp1908
g42
S'Cleveland Cavaliers'
p1909
sg28
S'NBA'
p1910
sg1833
S'$1,262,275'
p1911
sg56
S'2008-09'
p1912
sbasg22
S'F-C'
p1913
sb.