(isrc.gp1.models.Player
Player
p0
(dp1
S'_experience'
p2
V9
p3
sS'_totals'
p4
(lp5
(isrc.gp1.models.Totals
Totals
p6
(dp7
S'_offensiveRebounds'
p8
S'15'
p9
sS'_threePointsAttempted'
p10
S'0'
p11
sS'_fieldGoalsPercentage'
p12
S'.400'
p13
sS'_assist'
p14
S'1'
p15
sS'_threePointsPercentage'
p16
S'6'
p17
sS'_threePoints'
p18
g11
sS'_points'
p19
S'NA'
p20
sS'_position'
p21
S'PF'
p22
sS'_freeThrowsPercentage'
p23
S'13'
p24
sS'_effectiveFieldGoalPercentage'
p25
S'4'
p26
sS'_league'
p27
S'NBA'
p28
sS'_steals'
p29
S'8'
p30
sS'_fieldGoalsAttempted'
p31
S'15'
p32
sS'_personalFouls'
p33
S'16'
p34
sS'_freeThrowsAttempted'
p35
S'.400'
p36
sS'_totalRebounds'
p37
g15
sS'_age'
p38
S'24'
p39
sS'_team'
p40
S'TOT'
p41
sS'_games'
p42
S'11'
p43
sS'_blocks'
p44
S'5'
p45
sS'_twoPoints'
p46
S'15'
p47
sS'_freeThrows'
p48
S'10'
p49
sS'_twoPointsAttempted'
p50
S'.400'
p51
sS'_defensiveRebounds'
p52
S'28'
p53
sS'_season'
p54
S'2006-07'
p55
sS'_fieldGoals'
p56
g17
sS'_turnOvers'
p57
S'15'
p58
sS'_twoPointsPercentage'
p59
S'.400'
p60
sS'_minutesPlayed'
p61
S'89'
p62
sS'_gamesStarted'
p63
g11
sba(isrc.gp1.models.Totals
Totals
p64
(dp65
g8
g11
sg10
g11
sg12
g11
sg14
g11
sg16
g11
sg18
g11
sg19
g20
sg21
S'PF'
p66
sg23
g11
sg25
g11
sg27
S'NBA'
p67
sg29
g20
sg31
g11
sg33
g20
sg35
g11
sg37
g11
sg38
S'24'
p68
sg40
S'UTA'
p69
sg42
g15
sg44
g20
sg46
g11
sg48
g11
sg50
g11
sg52
g11
sg54
S'2006-07'
p70
sg56
g11
sg57
g20
sg59
g11
sg61
S'2'
p71
sg63
g11
sba(isrc.gp1.models.Totals
Totals
p72
(dp73
g8
S'15'
p74
sg10
g11
sg12
S'.400'
p75
sg14
g15
sg16
g17
sg18
g11
sg19
g20
sg21
S'PF'
p76
sg23
S'13'
p77
sg25
g26
sg27
S'NBA'
p78
sg29
g30
sg31
S'15'
p79
sg33
S'16'
p80
sg35
S'.400'
p81
sg37
g15
sg38
S'24'
p82
sg40
S'PHI'
p83
sg42
S'10'
p84
sg44
g45
sg46
S'15'
p85
sg48
S'10'
p86
sg50
S'.400'
p87
sg52
S'28'
p88
sg54
S'2006-07'
p89
sg56
g17
sg57
S'15'
p90
sg59
S'.400'
p91
sg61
S'87'
p92
sg63
g11
sba(isrc.gp1.models.Totals
Totals
p93
(dp94
g8
g45
sg10
g11
sg12
S'.500'
p95
sg14
g15
sg16
g30
sg18
g11
sg19
g20
sg21
S'PF'
p96
sg23
S'7'
p97
sg25
g71
sg27
S'NBA'
p98
sg29
g15
sg31
S'16'
p99
sg33
S'18'
p100
sg35
S'.286'
p101
sg37
g11
sg38
S'25'
p102
sg40
S'PHI'
p103
sg42
S'16'
p104
sg44
g71
sg46
S'16'
p105
sg48
g97
sg50
S'.500'
p106
sg52
S'12'
p107
sg54
S'2007-08'
p108
sg56
g30
sg57
S'13'
p109
sg59
S'.500'
p110
sg61
S'64'
p111
sg63
g11
sba(isrc.gp1.models.Totals
Totals
p112
(dp113
g8
S'128'
p114
sg10
g15
sg12
S'.536'
p115
sg14
S'28'
p116
sg16
S'.000'
p117
sg18
g11
sg19
S'321'
p118
sg21
S'PF'
p119
sg23
S'.442'
p120
sg25
S'.536'
p121
sg27
S'NBA'
p122
sg29
S'32'
p123
sg31
S'250'
p124
sg33
S'154'
p125
sg35
S'120'
p126
sg37
S'270'
p127
sg38
S'26'
p128
sg40
S'PHO'
p129
sg42
S'76'
p130
sg44
S'65'
p131
sg46
S'134'
p132
sg48
S'53'
p133
sg50
S'249'
p134
sg52
S'142'
p135
sg54
S'2008-09'
p136
sg56
S'134'
p137
sg57
S'56'
p138
sg59
S'.538'
p139
sg61
S'1044'
p140
sg63
g11
sba(isrc.gp1.models.Totals
Totals
p141
(dp142
g8
S'128'
p143
sg10
g15
sg12
S'.551'
p144
sg14
S'31'
p145
sg16
S'.000'
p146
sg18
g11
sg19
S'371'
p147
sg21
S'PF'
p148
sg23
S'.545'
p149
sg25
S'.551'
p150
sg27
S'NBA'
p151
sg29
S'24'
p152
sg31
S'276'
p153
sg33
S'169'
p154
sg35
S'123'
p155
sg37
S'346'
p156
sg38
S'27'
p157
sg40
S'PHO'
p158
sg42
S'79'
p159
sg44
S'73'
p160
sg46
S'152'
p161
sg48
S'67'
p162
sg50
S'275'
p163
sg52
S'218'
p164
sg54
S'2009-10'
p165
sg56
S'152'
p166
sg57
S'57'
p167
sg59
S'.553'
p168
sg61
S'1168'
p169
sg63
g11
sba(isrc.gp1.models.Totals
Totals
p170
(dp171
g8
S'104'
p172
sg10
g11
sg12
S'.454'
p173
sg14
S'14'
p174
sg16
S'83'
p175
sg18
g11
sg19
g20
sg21
S'PF'
p176
sg23
S'81'
p177
sg25
S'34'
p178
sg27
S'NBA'
p179
sg29
S'33'
p180
sg31
S'183'
p181
sg33
S'200'
p182
sg35
S'.391'
p183
sg37
S'17'
p184
sg38
S'28'
p185
sg40
S'GSW'
p186
sg42
S'46'
p187
sg44
S'24'
p188
sg46
S'183'
p189
sg48
S'87'
p190
sg50
S'.454'
p191
sg52
S'185'
p192
sg54
S'2010-11'
p193
sg56
S'83'
p194
sg57
S'87'
p195
sg59
S'.454'
p196
sg61
S'691'
p197
sg63
g97
sba(isrc.gp1.models.Totals
Totals
p198
(dp199
g8
S'128'
p200
sg10
g11
sg12
S'.430'
p201
sg14
S'27'
p202
sg16
S'89'
p203
sg18
g11
sg19
g20
sg21
S'PF'
p204
sg23
S'94'
p205
sg25
S'35'
p206
sg27
S'NBA'
p207
sg29
S'44'
p208
sg31
S'207'
p209
sg33
S'213'
p210
sg35
S'.427'
p211
sg37
S'14'
p212
sg38
S'29'
p213
sg40
S'IND'
p214
sg42
S'60'
p215
sg44
S'45'
p216
sg46
S'207'
p217
sg48
S'82'
p218
sg50
S'.430'
p219
sg52
S'222'
p220
sg54
S'2011-12'
p221
sg56
S'89'
p222
sg57
S'125'
p223
sg59
S'.430'
p224
sg61
S'753'
p225
sg63
g11
sba(isrc.gp1.models.Totals
Totals
p226
(dp227
g8
S'58'
p228
sg10
g11
sg12
S'.395'
p229
sg14
S'16'
p230
sg16
S'32'
p231
sg18
g11
sg19
g20
sg21
S'PF'
p232
sg23
S'48'
p233
sg25
S'12'
p234
sg27
S'NBA'
p235
sg29
S'12'
p236
sg31
S'81'
p237
sg33
S'76'
p238
sg35
S'.333'
p239
sg37
S'11'
p240
sg38
S'30'
p241
sg40
S'TOT'
p242
sg42
S'39'
p243
sg44
S'19'
p244
sg46
S'81'
p245
sg48
S'36'
p246
sg50
S'.395'
p247
sg52
S'106'
p248
sg54
S'2012-13'
p249
sg56
S'32'
p250
sg57
S'53'
p251
sg59
S'.395'
p252
sg61
S'372'
p253
sg63
g11
sba(isrc.gp1.models.Totals
Totals
p254
(dp255
g8
S'24'
p256
sg10
g11
sg12
S'.368'
p257
sg14
g97
sg16
S'14'
p258
sg18
g11
sg19
g20
sg21
S'PF'
p259
sg23
S'23'
p260
sg25
g26
sg27
S'NBA'
p261
sg29
g17
sg31
S'38'
p262
sg33
S'32'
p263
sg35
S'.200'
p264
sg37
S'3'
p265
sg38
S'30'
p266
sg40
S'MIN'
p267
sg42
S'20'
p268
sg44
S'11'
p269
sg46
S'38'
p270
sg48
S'20'
p271
sg50
S'.368'
p272
sg52
S'47'
p273
sg54
S'2012-13'
p274
sg56
S'14'
p275
sg57
S'26'
p276
sg59
S'.368'
p277
sg61
S'161'
p278
sg63
g11
sba(isrc.gp1.models.Totals
Totals
p279
(dp280
g8
g15
sg10
g11
sg12
S'.000'
p281
sg14
g11
sg16
g11
sg18
g11
sg19
g20
sg21
S'PF'
p282
sg23
g11
sg25
g11
sg27
S'NBA'
p283
sg29
g11
sg31
g15
sg33
g20
sg35
g15
sg37
g11
sg38
S'30'
p284
sg40
S'CHI'
p285
sg42
g15
sg44
g11
sg46
g15
sg48
g11
sg50
S'.000'
p286
sg52
g11
sg54
S'2012-13'
p287
sg56
g11
sg57
g11
sg59
S'.000'
p288
sg61
g71
sg63
g11
sba(isrc.gp1.models.Totals
Totals
p289
(dp290
g8
S'34'
p291
sg10
g11
sg12
S'.429'
p292
sg14
S'9'
p293
sg16
S'18'
p294
sg18
g11
sg19
g20
sg21
S'PF'
p295
sg23
S'24'
p296
sg25
g30
sg27
S'NBA'
p297
sg29
g17
sg31
S'42'
p298
sg33
S'44'
p299
sg35
S'.500'
p300
sg37
g30
sg38
S'30'
p301
sg40
S'NOH'
p302
sg42
S'18'
p303
sg44
g30
sg46
S'42'
p304
sg48
S'16'
p305
sg50
S'.429'
p306
sg52
S'58'
p307
sg54
S'2012-13'
p308
sg56
S'18'
p309
sg57
S'27'
p310
sg59
S'.429'
p311
sg61
S'209'
p312
sg63
g11
sba(isrc.gp1.models.Totals
Totals
p313
(dp314
g8
S'27'
p315
sg10
g11
sg12
S'.500'
p316
sg14
g293
sg16
S'16'
p317
sg18
g11
sg19
g20
sg21
S'PF'
p318
sg23
S'28'
p319
sg25
g17
sg27
S'NBA'
p320
sg29
S'11'
p321
sg31
S'32'
p322
sg33
S'38'
p323
sg35
S'.250'
p324
sg37
g17
sg38
S'31'
p325
sg40
S'TOT'
p326
sg42
S'19'
p327
sg44
S'14'
p328
sg46
S'32'
p329
sg48
S'24'
p330
sg50
S'.500'
p331
sg52
S'55'
p332
sg54
S'2013-14'
p333
sg56
S'16'
p334
sg57
S'49'
p335
sg59
S'.500'
p336
sg61
S'185'
p337
sg63
g11
sba(isrc.gp1.models.Totals
Totals
p338
(dp339
g8
S'27'
p340
sg10
g11
sg12
S'.500'
p341
sg14
g293
sg16
S'16'
p342
sg18
g11
sg19
g20
sg21
S'PF'
p343
sg23
S'28'
p344
sg25
g17
sg27
S'NBA'
p345
sg29
S'11'
p346
sg31
S'32'
p347
sg33
S'38'
p348
sg35
S'.250'
p349
sg37
g17
sg38
S'31'
p350
sg40
S'NOP'
p351
sg42
S'18'
p352
sg44
S'14'
p353
sg46
S'32'
p354
sg48
S'24'
p355
sg50
S'.500'
p356
sg52
S'55'
p357
sg54
S'2013-14'
p358
sg56
S'16'
p359
sg57
S'49'
p360
sg59
S'.500'
p361
sg61
S'184'
p362
sg63
g11
sba(isrc.gp1.models.Totals
Totals
p363
(dp364
g8
g11
sg10
g11
sg12
g11
sg14
g11
sg16
g11
sg18
g11
sg19
g20
sg21
S'PF'
p365
sg23
g11
sg25
g11
sg27
S'NBA'
p366
sg29
g20
sg31
g11
sg33
g20
sg35
g11
sg37
g11
sg38
S'31'
p367
sg40
S'CHI'
p368
sg42
g15
sg44
g20
sg46
g11
sg48
g11
sg50
g11
sg52
g11
sg54
S'2013-14'
p369
sg56
g11
sg57
g20
sg59
g11
sg61
g15
sg63
g11
sba(isrc.gp1.models.Totals
Totals
p370
(dp371
g8
S'94'
p372
sg10
g15
sg12
S'.427'
p373
sg14
S'70'
p374
sg16
S'.000'
p375
sg18
g11
sg19
S'259'
p376
sg21
S'PF'
p377
sg23
S'.471'
p378
sg25
S'.427'
p379
sg27
S'NBA'
p380
sg29
S'22'
p381
sg31
S'255'
p382
sg33
S'126'
p383
sg35
S'87'
p384
sg37
S'268'
p385
sg38
S'32'
p386
sg40
S'TOT'
p387
sg42
S'53'
p388
sg44
S'52'
p389
sg46
S'109'
p390
sg48
S'41'
p391
sg50
S'254'
p392
sg52
S'174'
p393
sg54
S'2014-15'
p394
sg56
S'109'
p395
sg57
S'62'
p396
sg59
S'.429'
p397
sg61
S'937'
p398
sg63
S'35'
p399
sba(isrc.gp1.models.Totals
Totals
p400
(dp401
g8
S'15'
p402
sg10
g11
sg12
S'.333'
p403
sg14
g15
sg16
g26
sg18
g11
sg19
g20
sg21
S'PF'
p404
sg23
g45
sg25
g265
sg27
S'NBA'
p405
sg29
g11
sg31
S'12'
p406
sg33
S'11'
p407
sg35
S'.600'
p408
sg37
g45
sg38
S'32'
p409
sg40
S'CLE'
p410
sg42
S'12'
p411
sg44
g45
sg46
S'12'
p412
sg48
g45
sg50
S'.333'
p413
sg52
S'20'
p414
sg54
S'2014-15'
p415
sg56
g26
sg57
S'11'
p416
sg59
S'.333'
p417
sg61
S'79'
p418
sg63
g11
sba(isrc.gp1.models.Totals
Totals
p419
(dp420
g8
S'89'
p421
sg10
g15
sg12
S'.432'
p422
sg14
S'65'
p423
sg16
S'.000'
p424
sg18
g11
sg19
S'248'
p425
sg21
S'PF'
p426
sg23
S'.463'
p427
sg25
S'.432'
p428
sg27
S'NBA'
p429
sg29
S'21'
p430
sg31
S'243'
p431
sg33
S'115'
p432
sg35
S'82'
p433
sg37
S'248'
p434
sg38
S'32'
p435
sg40
S'NYK'
p436
sg42
S'41'
p437
sg44
S'52'
p438
sg46
S'105'
p439
sg48
S'38'
p440
sg50
S'242'
p441
sg52
S'159'
p442
sg54
S'2014-15'
p443
sg56
S'105'
p444
sg57
S'57'
p445
sg59
S'.434'
p446
sg61
S'858'
p447
sg63
S'35'
p448
sba(isrc.gp1.models.Totals
Totals
p449
(dp450
g8
S'24'
p451
sg10
g11
sg12
S'.429'
p452
sg14
g45
sg16
S'18'
p453
sg18
g11
sg19
g20
sg21
S'PF'
p454
sg23
S'16'
p455
sg25
S'10'
p456
sg27
S'NBA'
p457
sg29
g26
sg31
S'42'
p458
sg33
S'46'
p459
sg35
S'.476'
p460
sg37
g293
sg38
S'33'
p461
sg40
S'NYK'
p462
sg42
S'21'
p463
sg44
g293
sg46
S'42'
p464
sg48
S'21'
p465
sg50
S'.429'
p466
sg52
S'40'
p467
sg54
S'2015-16'
p468
sg56
S'18'
p469
sg57
S'38'
p470
sg59
S'.429'
p471
sg61
S'161'
p472
sg63
g11
sbasS'_college'
p473
S'University of Nevada, Las Vegas'
p474
sS'_toYear'
p475
S'2016'
p476
sS'_height'
p477
S'6-9'
p478
sS'_active'
p479
I01
sS'_shootingHand'
p480
VRight
p481
sS'_name'
p482
S'Lou Amundson'
p483
sS'_per100Possessions'
p484
(lp485
(isrc.gp1.models.Per100Possession
Per100Possession
p486
(dp487
g8
S'8.9'
p488
sg10
S'0.0'
p489
sg12
S'.400'
p490
sS'_offensiveRating'
p491
S'103'
p492
sg14
S'0.6'
p493
sg16
S'3.6'
p494
sg18
S'0.0'
p495
sg19
S'91'
p496
sg21
S'PF'
p497
sS'_defensiveRating'
p498
g20
sg23
S'7.7'
p499
sg27
S'NBA'
p500
sg29
S'4.8'
p501
sg31
S'8.9'
p502
sg33
S'9.5'
p503
sg35
S'.400'
p504
sg37
S'0.6'
p505
sg38
S'24'
p506
sg40
S'TOT'
p507
sg42
S'11'
p508
sg44
S'3.0'
p509
sg46
S'8.9'
p510
sg48
S'5.9'
p511
sg50
S'.400'
p512
sg52
S'16.6'
p513
sg54
S'2006-07'
p514
sg56
S'3.6'
p515
sg57
S'8.9'
p516
sg59
S'2.4'
p517
sg61
S'89'
p518
sg63
g11
sba(isrc.gp1.models.Per100Possession
Per100Possession
p519
(dp520
g8
S'0.0'
p521
sg10
S'0.0'
p522
sg12
S'0.0'
p523
sg491
g20
sg14
S'0.0'
p524
sg16
S'0.0'
p525
sg18
S'0.0'
p526
sg19
g20
sg21
S'PF'
p527
sg498
g20
sg23
S'0.0'
p528
sg27
S'NBA'
p529
sg29
S'0.0'
p530
sg31
S'0.0'
p531
sg33
g20
sg35
S'0.0'
p532
sg37
S'0.0'
p533
sg38
S'24'
p534
sg40
S'UTA'
p535
sg42
g15
sg44
S'116'
p536
sg46
S'0.0'
p537
sg48
S'0.0'
p538
sg50
S'0.0'
p539
sg52
S'0.0'
p540
sg54
S'2006-07'
p541
sg56
S'0.0'
p542
sg57
g20
sg59
S'0.0'
p543
sg61
g71
sg63
g11
sba(isrc.gp1.models.Per100Possession
Per100Possession
p544
(dp545
g8
S'9.1'
p546
sg10
S'0.0'
p547
sg12
S'.400'
p548
sg491
S'103'
p549
sg14
S'0.6'
p550
sg16
S'3.6'
p551
sg18
S'0.0'
p552
sg19
S'91'
p553
sg21
S'PF'
p554
sg498
g20
sg23
S'7.9'
p555
sg27
S'NBA'
p556
sg29
S'4.9'
p557
sg31
S'9.1'
p558
sg33
S'9.7'
p559
sg35
S'.400'
p560
sg37
S'0.6'
p561
sg38
S'24'
p562
sg40
S'PHI'
p563
sg42
S'10'
p564
sg44
S'3.0'
p565
sg46
S'9.1'
p566
sg48
S'6.1'
p567
sg50
S'.400'
p568
sg52
S'17.0'
p569
sg54
S'2006-07'
p570
sg56
S'3.6'
p571
sg57
S'9.1'
p572
sg59
S'2.4'
p573
sg61
S'87'
p574
sg63
g11
sba(isrc.gp1.models.Per100Possession
Per100Possession
p575
(dp576
g8
S'4.1'
p577
sg10
S'0.0'
p578
sg12
S'.500'
p579
sg491
S'110'
p580
sg14
S'0.8'
p581
sg16
S'6.6'
p582
sg18
S'0.0'
p583
sg19
S'101'
p584
sg21
S'PF'
p585
sg498
g20
sg23
S'5.8'
p586
sg27
S'NBA'
p587
sg29
S'0.8'
p588
sg31
S'13.3'
p589
sg33
S'14.9'
p590
sg35
S'.286'
p591
sg37
S'0.0'
p592
sg38
S'25'
p593
sg40
S'PHI'
p594
sg42
S'16'
p595
sg44
S'1.7'
p596
sg46
S'13.3'
p597
sg48
S'5.8'
p598
sg50
S'.500'
p599
sg52
S'10.0'
p600
sg54
S'2007-08'
p601
sg56
S'6.6'
p602
sg57
S'10.8'
p603
sg59
S'1.7'
p604
sg61
S'64'
p605
sg63
g11
sba(isrc.gp1.models.Per100Possession
Per100Possession
p606
(dp607
g8
S'6.1'
p608
sg10
S'0.0'
p609
sg12
S'.536'
p610
sg491
S'108'
p611
sg14
S'1.3'
p612
sg16
S'.000'
p613
sg18
S'0.0'
p614
sg19
S'15.4'
p615
sg21
S'PF'
p616
sg498
S'109'
p617
sg23
S'.442'
p618
sg27
S'NBA'
p619
sg29
S'1.5'
p620
sg31
S'12.0'
p621
sg33
S'7.4'
p622
sg35
S'5.7'
p623
sg37
S'12.9'
p624
sg38
S'26'
p625
sg40
S'PHO'
p626
sg42
S'76'
p627
sg44
S'3.1'
p628
sg46
S'6.4'
p629
sg48
S'2.5'
p630
sg50
S'11.9'
p631
sg52
S'6.8'
p632
sg54
S'2008-09'
p633
sg56
S'6.4'
p634
sg57
S'2.7'
p635
sg59
S'.538'
p636
sg61
S'1044'
p637
sg63
g11
sba(isrc.gp1.models.Per100Possession
Per100Possession
p638
(dp639
g8
S'5.5'
p640
sg10
S'0.0'
p641
sg12
S'.551'
p642
sg491
S'113'
p643
sg14
S'1.3'
p644
sg16
S'.000'
p645
sg18
S'0.0'
p646
sg19
S'16.0'
p647
sg21
S'PF'
p648
sg498
S'107'
p649
sg23
S'.545'
p650
sg27
S'NBA'
p651
sg29
S'1.0'
p652
sg31
S'11.9'
p653
sg33
S'7.3'
p654
sg35
S'5.3'
p655
sg37
S'14.9'
p656
sg38
S'27'
p657
sg40
S'PHO'
p658
sg42
S'79'
p659
sg44
S'3.1'
p660
sg46
S'6.6'
p661
sg48
S'2.9'
p662
sg50
S'11.9'
p663
sg52
S'9.4'
p664
sg54
S'2009-10'
p665
sg56
S'6.6'
p666
sg57
S'2.5'
p667
sg59
S'.553'
p668
sg61
S'1168'
p669
sg63
g11
sba(isrc.gp1.models.Per100Possession
Per100Possession
p670
(dp671
g8
S'7.6'
p672
sg10
S'0.0'
p673
sg12
S'.454'
p674
sg491
S'110'
p675
sg14
S'1.0'
p676
sg16
S'6.1'
p677
sg18
S'0.0'
p678
sg19
S'101'
p679
sg21
S'PF'
p680
sg498
g20
sg23
S'5.9'
p681
sg27
S'NBA'
p682
sg29
S'2.4'
p683
sg31
S'13.4'
p684
sg33
S'14.7'
p685
sg35
S'.391'
p686
sg37
S'1.2'
p687
sg38
S'28'
p688
sg40
S'GSW'
p689
sg42
S'46'
p690
sg44
S'1.8'
p691
sg46
S'13.4'
p692
sg48
S'6.4'
p693
sg50
S'.454'
p694
sg52
S'13.6'
p695
sg54
S'2010-11'
p696
sg56
S'6.1'
p697
sg57
S'6.4'
p698
sg59
S'2.5'
p699
sg61
S'691'
p700
sg63
g97
sba(isrc.gp1.models.Per100Possession
Per100Possession
p701
(dp702
g8
S'9.0'
p703
sg10
S'0.0'
p704
sg12
S'.430'
p705
sg491
S'99'
p706
sg14
S'1.9'
p707
sg16
S'6.3'
p708
sg18
S'0.0'
p709
sg19
S'92'
p710
sg21
S'PF'
p711
sg498
g20
sg23
S'6.6'
p712
sg27
S'NBA'
p713
sg29
S'3.1'
p714
sg31
S'14.5'
p715
sg33
S'15.0'
p716
sg35
S'.427'
p717
sg37
S'1.0'
p718
sg38
S'29'
p719
sg40
S'IND'
p720
sg42
S'60'
p721
sg44
S'3.2'
p722
sg46
S'14.5'
p723
sg48
S'5.8'
p724
sg50
S'.430'
p725
sg52
S'15.6'
p726
sg54
S'2011-12'
p727
sg56
S'6.3'
p728
sg57
S'8.8'
p729
sg59
S'2.5'
p730
sg61
S'753'
p731
sg63
g11
sba(isrc.gp1.models.Per100Possession
Per100Possession
p732
(dp733
g8
S'8.3'
p734
sg10
S'0.0'
p735
sg12
S'.395'
p736
sg491
S'105'
p737
sg14
S'2.3'
p738
sg16
S'4.6'
p739
sg18
S'0.0'
p740
sg19
S'89'
p741
sg21
S'PF'
p742
sg498
g20
sg23
S'6.9'
p743
sg27
S'NBA'
p744
sg29
S'1.7'
p745
sg31
S'11.6'
p746
sg33
S'10.8'
p747
sg35
S'.333'
p748
sg37
S'1.6'
p749
sg38
S'30'
p750
sg40
S'TOT'
p751
sg42
S'39'
p752
sg44
S'2.7'
p753
sg46
S'11.6'
p754
sg48
S'5.1'
p755
sg50
S'.395'
p756
sg52
S'15.1'
p757
sg54
S'2012-13'
p758
sg56
S'4.6'
p759
sg57
S'7.6'
p760
sg59
S'1.7'
p761
sg61
S'372'
p762
sg63
g11
sba(isrc.gp1.models.Per100Possession
Per100Possession
p763
(dp764
g8
S'7.7'
p765
sg10
S'0.0'
p766
sg12
S'.368'
p767
sg491
S'103'
p768
sg14
S'2.2'
p769
sg16
S'4.5'
p770
sg18
S'0.0'
p771
sg19
S'77'
p772
sg21
S'PF'
p773
sg498
g20
sg23
S'7.4'
p774
sg27
S'NBA'
p775
sg29
S'1.9'
p776
sg31
S'12.2'
p777
sg33
S'10.3'
p778
sg35
S'.200'
p779
sg37
S'1.0'
p780
sg38
S'30'
p781
sg40
S'MIN'
p782
sg42
S'20'
p783
sg44
S'3.5'
p784
sg46
S'12.2'
p785
sg48
S'6.4'
p786
sg50
S'.368'
p787
sg52
S'15.1'
p788
sg54
S'2012-13'
p789
sg56
S'4.5'
p790
sg57
S'8.3'
p791
sg59
S'1.3'
p792
sg61
S'161'
p793
sg63
g11
sba(isrc.gp1.models.Per100Possession
Per100Possession
p794
(dp795
g8
S'26.9'
p796
sg10
S'0.0'
p797
sg12
S'.000'
p798
sg491
g20
sg14
S'0.0'
p799
sg16
S'0.0'
p800
sg18
S'0.0'
p801
sg19
S'113'
p802
sg21
S'PF'
p803
sg498
g20
sg23
S'0.0'
p804
sg27
S'NBA'
p805
sg29
S'0.0'
p806
sg31
S'26.9'
p807
sg33
S'59'
p808
sg35
S'26.9'
p809
sg37
S'0.0'
p810
sg38
S'30'
p811
sg40
S'CHI'
p812
sg42
g15
sg44
S'0.0'
p813
sg46
S'26.9'
p814
sg48
S'0.0'
p815
sg50
S'.000'
p816
sg52
S'0.0'
p817
sg54
S'2012-13'
p818
sg56
S'0.0'
p819
sg57
S'0.0'
p820
sg59
S'0.0'
p821
sg61
g71
sg63
g11
sba(isrc.gp1.models.Per100Possession
Per100Possession
p822
(dp823
g8
S'8.8'
p824
sg10
S'0.0'
p825
sg12
S'.429'
p826
sg491
S'106'
p827
sg14
S'2.3'
p828
sg16
S'4.7'
p829
sg18
S'0.0'
p830
sg19
S'102'
p831
sg21
S'PF'
p832
sg498
g20
sg23
S'6.2'
p833
sg27
S'NBA'
p834
sg29
S'1.6'
p835
sg31
S'10.9'
p836
sg33
S'11.4'
p837
sg35
S'.500'
p838
sg37
S'2.1'
p839
sg38
S'30'
p840
sg40
S'NOH'
p841
sg42
S'18'
p842
sg44
S'2.1'
p843
sg46
S'10.9'
p844
sg48
S'4.2'
p845
sg50
S'.429'
p846
sg52
S'15.0'
p847
sg54
S'2012-13'
p848
sg56
S'4.7'
p849
sg57
S'7.0'
p850
sg59
S'2.1'
p851
sg61
S'209'
p852
sg63
g11
sba(isrc.gp1.models.Per100Possession
Per100Possession
p853
(dp854
g8
S'7.6'
p855
sg10
S'0.0'
p856
sg12
S'.500'
p857
sg491
S'105'
p858
sg14
S'2.5'
p859
sg16
S'4.5'
p860
sg18
S'0.0'
p861
sg19
S'91'
p862
sg21
S'PF'
p863
sg498
g20
sg23
S'7.9'
p864
sg27
S'NBA'
p865
sg29
S'3.1'
p866
sg31
S'9.0'
p867
sg33
S'10.7'
p868
sg35
S'.250'
p869
sg37
S'1.7'
p870
sg38
S'31'
p871
sg40
S'TOT'
p872
sg42
S'19'
p873
sg44
S'3.9'
p874
sg46
S'9.0'
p875
sg48
S'6.8'
p876
sg50
S'.500'
p877
sg52
S'15.5'
p878
sg54
S'2013-14'
p879
sg56
S'4.5'
p880
sg57
S'13.8'
p881
sg59
S'1.7'
p882
sg61
S'185'
p883
sg63
g11
sba(isrc.gp1.models.Per100Possession
Per100Possession
p884
(dp885
g8
S'7.6'
p886
sg10
S'0.0'
p887
sg12
S'.500'
p888
sg491
S'105'
p889
sg14
S'2.5'
p890
sg16
S'4.5'
p891
sg18
S'0.0'
p892
sg19
S'91'
p893
sg21
S'PF'
p894
sg498
g20
sg23
S'7.9'
p895
sg27
S'NBA'
p896
sg29
S'3.1'
p897
sg31
S'9.1'
p898
sg33
S'10.8'
p899
sg35
S'.250'
p900
sg37
S'1.7'
p901
sg38
S'31'
p902
sg40
S'NOP'
p903
sg42
S'18'
p904
sg44
S'4.0'
p905
sg46
S'9.1'
p906
sg48
S'6.8'
p907
sg50
S'.500'
p908
sg52
S'15.6'
p909
sg54
S'2013-14'
p910
sg56
S'4.5'
p911
sg57
S'13.9'
p912
sg59
S'1.7'
p913
sg61
S'184'
p914
sg63
g11
sba(isrc.gp1.models.Per100Possession
Per100Possession
p915
(dp916
g8
S'0.0'
p917
sg10
S'0.0'
p918
sg12
S'0.0'
p919
sg491
g20
sg14
S'0.0'
p920
sg16
S'0.0'
p921
sg18
S'0.0'
p922
sg19
g20
sg21
S'PF'
p923
sg498
g20
sg23
S'0.0'
p924
sg27
S'NBA'
p925
sg29
S'0.0'
p926
sg31
S'0.0'
p927
sg33
g20
sg35
S'0.0'
p928
sg37
S'0.0'
p929
sg38
S'31'
p930
sg40
S'CHI'
p931
sg42
g15
sg44
S'110'
p932
sg46
S'0.0'
p933
sg48
S'0.0'
p934
sg50
S'0.0'
p935
sg52
S'0.0'
p936
sg54
S'2013-14'
p937
sg56
S'0.0'
p938
sg57
g20
sg59
S'0.0'
p939
sg61
g15
sg63
g11
sba(isrc.gp1.models.Per100Possession
Per100Possession
p940
(dp941
g8
S'5.3'
p942
sg10
S'0.1'
p943
sg12
S'.427'
p944
sg491
S'92'
p945
sg14
S'3.9'
p946
sg16
S'.000'
p947
sg18
S'0.0'
p948
sg19
S'14.5'
p949
sg21
S'PF'
p950
sg498
S'106'
p951
sg23
S'.471'
p952
sg27
S'NBA'
p953
sg29
S'1.2'
p954
sg31
S'14.3'
p955
sg33
S'7.1'
p956
sg35
S'4.9'
p957
sg37
S'15.0'
p958
sg38
S'32'
p959
sg40
S'TOT'
p960
sg42
S'53'
p961
sg44
S'2.9'
p962
sg46
S'6.1'
p963
sg48
S'2.3'
p964
sg50
S'14.3'
p965
sg52
S'9.8'
p966
sg54
S'2014-15'
p967
sg56
S'6.1'
p968
sg57
S'3.5'
p969
sg59
S'.429'
p970
sg61
S'937'
p971
sg63
S'35'
p972
sba(isrc.gp1.models.Per100Possession
Per100Possession
p973
(dp974
g8
S'9.9'
p975
sg10
S'0.0'
p976
sg12
S'.333'
p977
sg491
S'107'
p978
sg14
S'0.7'
p979
sg16
S'2.6'
p980
sg18
S'0.0'
p981
sg19
S'84'
p982
sg21
S'PF'
p983
sg498
g20
sg23
S'3.3'
p984
sg27
S'NBA'
p985
sg29
S'0.0'
p986
sg31
S'7.9'
p987
sg33
S'7.2'
p988
sg35
S'.600'
p989
sg37
S'3.3'
p990
sg38
S'32'
p991
sg40
S'CLE'
p992
sg42
S'12'
p993
sg44
S'3.3'
p994
sg46
S'7.9'
p995
sg48
S'3.3'
p996
sg50
S'.333'
p997
sg52
S'13.2'
p998
sg54
S'2014-15'
p999
sg56
S'2.6'
p1000
sg57
S'7.2'
p1001
sg59
S'2.0'
p1002
sg61
S'79'
p1003
sg63
g11
sba(isrc.gp1.models.Per100Possession
Per100Possession
p1004
(dp1005
g8
S'5.5'
p1006
sg10
S'0.1'
p1007
sg12
S'.432'
p1008
sg491
S'92'
p1009
sg14
S'4.0'
p1010
sg16
S'.000'
p1011
sg18
S'0.0'
p1012
sg19
S'15.2'
p1013
sg21
S'PF'
p1014
sg498
S'106'
p1015
sg23
S'.463'
p1016
sg27
S'NBA'
p1017
sg29
S'1.3'
p1018
sg31
S'14.9'
p1019
sg33
S'7.1'
p1020
sg35
S'5.0'
p1021
sg37
S'15.2'
p1022
sg38
S'32'
p1023
sg40
S'NYK'
p1024
sg42
S'41'
p1025
sg44
S'3.2'
p1026
sg46
S'6.4'
p1027
sg48
S'2.3'
p1028
sg50
S'14.8'
p1029
sg52
S'9.8'
p1030
sg54
S'2014-15'
p1031
sg56
S'6.4'
p1032
sg57
S'3.5'
p1033
sg59
S'.434'
p1034
sg61
S'858'
p1035
sg63
S'35'
p1036
sba(isrc.gp1.models.Per100Possession
Per100Possession
p1037
(dp1038
g8
S'7.7'
p1039
sg10
S'0.0'
p1040
sg12
S'.429'
p1041
sg491
S'106'
p1042
sg14
S'1.6'
p1043
sg16
S'5.7'
p1044
sg18
S'0.0'
p1045
sg19
S'95'
p1046
sg21
S'PF'
p1047
sg498
g20
sg23
S'5.1'
p1048
sg27
S'NBA'
p1049
sg29
S'1.3'
p1050
sg31
S'13.4'
p1051
sg33
S'14.7'
p1052
sg35
S'.476'
p1053
sg37
S'2.9'
p1054
sg38
S'33'
p1055
sg40
S'NYK'
p1056
sg42
S'21'
p1057
sg44
S'2.9'
p1058
sg46
S'13.4'
p1059
sg48
S'6.7'
p1060
sg50
S'.429'
p1061
sg52
S'12.8'
p1062
sg54
S'2015-16'
p1063
sg56
S'5.7'
p1064
sg57
S'12.1'
p1065
sg59
S'3.2'
p1066
sg61
S'161'
p1067
sg63
g11
sbasS'_advanced'
p1068
(lp1069
(isrc.gp1.models.Advanced
Advanced
p1070
(dp1071
S'_offensiveReboundPercentage'
p1072
S'17.6'
p1073
sS'_turnOverPercentage'
p1074
S'20.5'
p1075
sS'_winSharesPer48Minutes'
p1076
S'.039'
p1077
sS'_stealPercentage'
p1078
S'0.6'
p1079
sS'_usagePercentage'
p1080
S'12.7'
p1081
sS'_totalReboundsPercentage'
p1082
S'18.9'
p1083
sS'_defensiveBoxPlusMinus'
p1084
S'1.4'
p1085
sg21
S'PF'
p1086
sS'_valueOverReplacementPlayer'
p1087
S'0.0'
p1088
sS'_trueShootingPercentage'
p1089
S'.412'
p1090
sS'_defensiveReboundPercentage'
p1091
S'20.2'
p1092
sS'_freeThrowsAttempRate'
p1093
S'.667'
p1094
sS'_threePointsAttempRate'
p1095
S'.000'
p1096
sg27
S'NBA'
p1097
sS'_offensiveBoxPlusMinues'
p1098
S'-5.5'
p1099
sS'_assistPercentage'
p1100
S'1.7'
p1101
sS'_defensiveWinShares'
p1102
S'0.1'
p1103
sg38
S'24'
p1104
sg40
S'TOT'
p1105
sg42
S'11'
p1106
sS'_blockPercentage'
p1107
S'6.9'
p1108
sS'_playerEfficiencyRating'
p1109
S'9.6'
p1110
sS'_offensiveWinShares'
p1111
S'-0.1'
p1112
sg61
S'89'
p1113
sS'_boxPlusMinus'
p1114
S'-4.1'
p1115
sg54
S'2006-07'
p1116
sS'_winShares'
p1117
S'0.1'
p1118
sba(isrc.gp1.models.Advanced
Advanced
p1119
(dp1120
g1072
S'0.0'
p1121
sg1074
S'0.0'
p1122
sg1076
S'0.0'
p1123
sg1078
S'0.0'
p1124
sg1080
S'-0.004'
p1125
sg1082
S'0.0'
p1126
sg1084
g20
sg21
S'PF'
p1127
sg1087
g20
sg1089
S'0.0'
p1128
sg1091
S'0.0'
p1129
sg1093
S'0.0'
p1130
sg1095
S'0.0'
p1131
sg27
S'NBA'
p1132
sg1098
g20
sg1100
S'0.0'
p1133
sg1102
S'0.2'
p1134
sg38
S'24'
p1135
sg40
S'UTA'
p1136
sg42
g15
sg1107
S'0.0'
p1137
sg1109
S'0.0'
p1138
sg1111
S'-5.3'
p1139
sg61
g71
sg1114
g20
sg54
S'2006-07'
p1140
sg1117
S'-5.1'
p1141
sba(isrc.gp1.models.Advanced
Advanced
p1142
(dp1143
g1072
S'18.0'
p1144
sg1074
S'20.5'
p1145
sg1076
S'.040'
p1146
sg1078
S'0.6'
p1147
sg1080
S'13.0'
p1148
sg1082
S'19.3'
p1149
sg1084
S'1.4'
p1150
sg21
S'PF'
p1151
sg1087
S'0.0'
p1152
sg1089
S'.412'
p1153
sg1091
S'20.6'
p1154
sg1093
S'.667'
p1155
sg1095
S'.000'
p1156
sg27
S'NBA'
p1157
sg1098
S'-5.5'
p1158
sg1100
S'1.7'
p1159
sg1102
S'0.1'
p1160
sg38
S'24'
p1161
sg40
S'PHI'
p1162
sg42
S'10'
p1163
sg1107
S'7.1'
p1164
sg1109
S'9.8'
p1165
sg1111
S'-0.1'
p1166
sg61
S'87'
p1167
sg1114
S'-4.1'
p1168
sg54
S'2006-07'
p1169
sg1117
S'0.1'
p1170
sba(isrc.gp1.models.Advanced
Advanced
p1171
(dp1172
g1072
S'12.9'
p1173
sg1074
S'9.5'
p1174
sg1076
S'.043'
p1175
sg1078
S'0.8'
p1176
sg1080
S'14.9'
p1177
sg1082
S'11.1'
p1178
sg1084
S'-4.3'
p1179
sg21
S'PF'
p1180
sg1087
S'-0.1'
p1181
sg1089
S'.472'
p1182
sg1091
S'9.4'
p1183
sg1093
S'.438'
p1184
sg1095
S'.000'
p1185
sg27
S'NBA'
p1186
sg1098
S'-4.5'
p1187
sg1100
S'0.0'
p1188
sg1102
S'0.0'
p1189
sg38
S'25'
p1190
sg40
S'PHI'
p1191
sg42
S'16'
p1192
sg1107
S'1.2'
p1193
sg1109
S'7.4'
p1194
sg1111
S'0.0'
p1195
sg61
S'64'
p1196
sg1114
S'-8.8'
p1197
sg54
S'2007-08'
p1198
sg1117
S'0.1'
p1199
sba(isrc.gp1.models.Advanced
Advanced
p1200
(dp1201
g1072
S'14.9'
p1202
sg1074
S'15.6'
p1203
sg1076
S'.082'
p1204
sg1078
S'1.5'
p1205
sg1080
S'15.1'
p1206
sg1082
S'15.1'
p1207
sg1084
S'0.8'
p1208
sg21
S'PF'
p1209
sg1087
S'0.4'
p1210
sg1089
S'.530'
p1211
sg1091
S'15.3'
p1212
sg1093
S'.480'
p1213
sg1095
S'.004'
p1214
sg27
S'NBA'
p1215
sg1098
S'-1.3'
p1216
sg1100
S'3.7'
p1217
sg1102
S'1.0'
p1218
sg38
S'26'
p1219
sg40
S'PHO'
p1220
sg42
S'76'
p1221
sg1107
S'4.6'
p1222
sg1109
S'13.3'
p1223
sg1111
S'0.8'
p1224
sg61
S'1044'
p1225
sg1114
S'-0.5'
p1226
sg54
S'2008-09'
p1227
sg1117
S'1.8'
p1228
sba(isrc.gp1.models.Advanced
Advanced
p1229
(dp1230
g1072
S'13.1'
p1231
sg1074
S'14.7'
p1232
sg1076
S'.118'
p1233
sg1078
S'1.0'
p1234
sg1080
S'14.6'
p1235
sg1082
S'16.7'
p1236
sg1084
S'1.4'
p1237
sg21
S'PF'
p1238
sg1087
S'0.7'
p1239
sg1089
S'.562'
p1240
sg1091
S'19.9'
p1241
sg1093
S'.446'
p1242
sg1095
S'.004'
p1243
sg27
S'NBA'
p1244
sg1098
S'-1.0'
p1245
sg1100
S'3.7'
p1246
sg1102
S'1.3'
p1247
sg38
S'27'
p1248
sg40
S'PHO'
p1249
sg42
S'79'
p1250
sg1107
S'4.4'
p1251
sg1109
S'14.4'
p1252
sg1111
S'1.5'
p1253
sg61
S'1168'
p1254
sg1114
S'0.4'
p1255
sg54
S'2009-10'
p1256
sg1117
S'2.9'
p1257
sba(isrc.gp1.models.Advanced
Advanced
p1258
(dp1259
g1072
S'13.0'
p1260
sg1074
S'9.8'
p1261
sg1076
S'.044'
p1262
sg1078
S'1.0'
p1263
sg1080
S'15.7'
p1264
sg1082
S'15.2'
p1265
sg1084
S'-0.9'
p1266
sg21
S'PF'
p1267
sg1087
S'-0.5'
p1268
sg1089
S'.452'
p1269
sg1091
S'17.4'
p1270
sg1093
S'.475'
p1271
sg1095
S'.000'
p1272
sg27
S'NBA'
p1273
sg1098
S'-4.0'
p1274
sg1100
S'3.5'
p1275
sg1102
S'0.5'
p1276
sg38
S'28'
p1277
sg40
S'GSW'
p1278
sg42
S'46'
p1279
sg1107
S'3.6'
p1280
sg1109
S'11.5'
p1281
sg1111
S'0.2'
p1282
sg61
S'691'
p1283
sg1114
S'-4.9'
p1284
sg54
S'2010-11'
p1285
sg1117
S'0.6'
p1286
sba(isrc.gp1.models.Advanced
Advanced
p1287
(dp1288
g1072
S'14.1'
p1289
sg1074
S'15.6'
p1290
sg1076
S'.062'
p1291
sg1078
S'1.9'
p1292
sg1080
S'17.3'
p1293
sg1082
S'16.6'
p1294
sg1084
S'1.2'
p1295
sg21
S'PF'
p1296
sg1087
S'-0.1'
p1297
sg1089
S'.438'
p1298
sg1091
S'19.0'
p1299
sg1093
S'.396'
p1300
sg1095
S'.000'
p1301
sg27
S'NBA'
p1302
sg1098
S'-3.9'
p1303
sg1100
S'3.0'
p1304
sg1102
S'1.3'
p1305
sg38
S'29'
p1306
sg40
S'IND'
p1307
sg42
S'60'
p1308
sg1107
S'4.6'
p1309
sg1109
S'11.5'
p1310
sg1111
S'-0.3'
p1311
sg61
S'753'
p1312
sg1114
S'-2.7'
p1313
sg54
S'2011-12'
p1314
sg1117
S'1.0'
p1315
sba(isrc.gp1.models.Advanced
Advanced
p1316
(dp1317
g1072
S'14.7'
p1318
sg1074
S'16.4'
p1319
sg1076
S'.019'
p1320
sg1078
S'2.3'
p1321
sg1080
S'14.2'
p1322
sg1082
S'16.7'
p1323
sg1084
S'1.0'
p1324
sg21
S'PF'
p1325
sg1087
S'-0.1'
p1326
sg1089
S'.392'
p1327
sg1091
S'18.7'
p1328
sg1093
S'.444'
p1329
sg1095
S'.000'
p1330
sg27
S'NBA'
p1331
sg1098
S'-4.4'
p1332
sg1100
S'4.5'
p1333
sg1102
S'0.4'
p1334
sg38
S'30'
p1335
sg40
S'TOT'
p1336
sg42
S'39'
p1337
sg1107
S'2.6'
p1338
sg1109
S'9.3'
p1339
sg1111
S'-0.3'
p1340
sg61
S'372'
p1341
sg1114
S'-3.3'
p1342
sg54
S'2012-13'
p1343
sg1117
S'0.1'
p1344
sba(isrc.gp1.models.Advanced
Advanced
p1345
(dp1346
g1072
S'15.9'
p1347
sg1074
S'19.0'
p1348
sg1076
S'-0.038'
p1349
sg1078
S'2.2'
p1350
sg1080
S'16.1'
p1351
sg1082
S'16.7'
p1352
sg1084
S'0.9'
p1353
sg21
S'PF'
p1354
sg1087
S'-0.2'
p1355
sg1089
S'.342'
p1356
sg1091
S'17.6'
p1357
sg1093
S'.526'
p1358
sg1095
S'.000'
p1359
sg27
S'NBA'
p1360
sg1098
S'-6.9'
p1361
sg1100
S'2.8'
p1362
sg1102
S'0.2'
p1363
sg38
S'30'
p1364
sg40
S'MIN'
p1365
sg42
S'20'
p1366
sg1107
S'2.9'
p1367
sg1109
S'6.3'
p1368
sg1111
S'-0.4'
p1369
sg61
S'161'
p1370
sg1114
S'-5.9'
p1371
sg54
S'2012-13'
p1372
sg1117
S'-0.1'
p1373
sba(isrc.gp1.models.Advanced
Advanced
p1374
(dp1375
g1072
S'56.7'
p1376
sg1074
S'0.0'
p1377
sg1076
S'-0.274'
p1378
sg1078
S'0.0'
p1379
sg1080
S'23.0'
p1380
sg1082
S'28.7'
p1381
sg1084
S'-11.4'
p1382
sg21
S'PF'
p1383
sg1087
S'0.0'
p1384
sg1089
S'.000'
p1385
sg1091
S'0.0'
p1386
sg1093
S'.000'
p1387
sg1095
S'.000'
p1388
sg27
S'NBA'
p1389
sg1098
S'-9.7'
p1390
sg1100
S'0.0'
p1391
sg1102
S'0.0'
p1392
sg38
S'30'
p1393
sg40
S'CHI'
p1394
sg42
g15
sg1107
S'0.0'
p1395
sg1109
S'0.0'
p1396
sg1111
S'0.0'
p1397
sg61
g71
sg1114
S'-21.1'
p1398
sg54
S'2012-13'
p1399
sg1117
S'0.0'
p1400
sba(isrc.gp1.models.Advanced
Advanced
p1401
(dp1402
g1072
S'13.4'
p1403
sg1074
S'14.0'
p1404
sg1076
S'.065'
p1405
sg1078
S'2.3'
p1406
sg1080
S'12.7'
p1407
sg1082
S'16.5'
p1408
sg1084
S'1.3'
p1409
sg21
S'PF'
p1410
sg1087
S'0.0'
p1411
sg1089
S'.449'
p1412
sg1091
S'19.7'
p1413
sg1093
S'.381'
p1414
sg1095
S'.000'
p1415
sg27
S'NBA'
p1416
sg1098
S'-2.4'
p1417
sg1100
S'5.8'
p1418
sg1102
S'0.2'
p1419
sg38
S'30'
p1420
sg40
S'NOH'
p1421
sg42
S'18'
p1422
sg1107
S'2.4'
p1423
sg1109
S'11.7'
p1424
sg1111
S'0.1'
p1425
sg61
S'209'
p1426
sg1114
S'-1.1'
p1427
sg54
S'2012-13'
p1428
sg1117
S'0.3'
p1429
sba(isrc.gp1.models.Advanced
Advanced
p1430
(dp1431
g1072
S'17.3'
p1432
sg1074
S'24.8'
p1433
sg1076
S'.024'
p1434
sg1078
S'2.5'
p1435
sg1080
S'13.9'
p1436
sg1082
S'17.3'
p1437
sg1084
S'2.1'
p1438
sg21
S'PF'
p1439
sg1087
S'0.0'
p1440
sg1089
S'.446'
p1441
sg1091
S'17.2'
p1442
sg1093
S'.750'
p1443
sg1095
S'.000'
p1444
sg27
S'NBA'
p1445
sg1098
S'-3.4'
p1446
sg1100
S'4.7'
p1447
sg1102
S'0.2'
p1448
sg38
S'31'
p1449
sg40
S'TOT'
p1450
sg42
S'19'
p1451
sg1107
S'5.0'
p1452
sg1109
S'9.1'
p1453
sg1111
S'-0.1'
p1454
sg61
S'185'
p1455
sg1114
S'-1.3'
p1456
sg54
S'2013-14'
p1457
sg1117
S'0.1'
p1458
sba(isrc.gp1.models.Advanced
Advanced
p1459
(dp1460
g1072
S'17.4'
p1461
sg1074
S'24.8'
p1462
sg1076
S'.024'
p1463
sg1078
S'2.5'
p1464
sg1080
S'14.0'
p1465
sg1082
S'17.4'
p1466
sg1084
S'2.1'
p1467
sg21
S'PF'
p1468
sg1087
S'0.0'
p1469
sg1089
S'.446'
p1470
sg1091
S'17.3'
p1471
sg1093
S'.750'
p1472
sg1095
S'.000'
p1473
sg27
S'NBA'
p1474
sg1098
S'-3.4'
p1475
sg1100
S'4.7'
p1476
sg1102
S'0.2'
p1477
sg38
S'31'
p1478
sg40
S'NOP'
p1479
sg42
S'18'
p1480
sg1107
S'5.0'
p1481
sg1109
S'9.2'
p1482
sg1111
S'-0.1'
p1483
sg61
S'184'
p1484
sg1114
S'-1.3'
p1485
sg54
S'2013-14'
p1486
sg1117
S'0.1'
p1487
sba(isrc.gp1.models.Advanced
Advanced
p1488
(dp1489
g1072
S'0.0'
p1490
sg1074
S'0.0'
p1491
sg1076
S'0.0'
p1492
sg1078
S'0.0'
p1493
sg1080
S'.029'
p1494
sg1082
S'0.0'
p1495
sg1084
g20
sg21
S'PF'
p1496
sg1087
g20
sg1089
S'0.0'
p1497
sg1091
S'0.0'
p1498
sg1093
S'0.0'
p1499
sg1095
S'0.0'
p1500
sg27
S'NBA'
p1501
sg1098
g20
sg1100
S'0.0'
p1502
sg1102
S'1.0'
p1503
sg38
S'31'
p1504
sg40
S'CHI'
p1505
sg42
g15
sg1107
S'0.0'
p1506
sg1109
S'0.0'
p1507
sg1111
S'-7.3'
p1508
sg61
g15
sg1114
g20
sg54
S'2013-14'
p1509
sg1117
S'-6.3'
p1510
sba(isrc.gp1.models.Advanced
Advanced
p1511
(dp1512
g1072
S'11.3'
p1513
sg1074
S'17.5'
p1514
sg1076
S'.017'
p1515
sg1078
S'1.2'
p1516
sg1080
S'17.4'
p1517
sg1082
S'16.5'
p1518
sg1084
S'2.0'
p1519
sg21
S'PF'
p1520
sg1087
S'0.0'
p1521
sg1089
S'.442'
p1522
sg1091
S'22.0'
p1523
sg1093
S'.341'
p1524
sg1095
S'.004'
p1525
sg27
S'NBA'
p1526
sg1098
S'-4.0'
p1527
sg1100
S'12.2'
p1528
sg1102
S'0.9'
p1529
sg38
S'32'
p1530
sg40
S'TOT'
p1531
sg42
S'53'
p1532
sg1107
S'4.6'
p1533
sg1109
S'11.8'
p1534
sg1111
S'-0.6'
p1535
sg61
S'937'
p1536
sg1114
S'-2.0'
p1537
sg54
S'2014-15'
p1538
sg1117
S'0.3'
p1539
sba(isrc.gp1.models.Advanced
Advanced
p1540
(dp1541
g1072
S'7.4'
p1542
sg1074
S'26.0'
p1543
sg1076
S'-0.011'
p1544
sg1078
S'0.7'
p1545
sg1080
S'11.0'
p1546
sg1082
S'14.5'
p1547
sg1084
S'-0.1'
p1548
sg21
S'PF'
p1549
sg1087
S'-0.1'
p1550
sg1089
S'.387'
p1551
sg1091
S'21.5'
p1552
sg1093
S'.417'
p1553
sg1095
S'.000'
p1554
sg27
S'NBA'
p1555
sg1098
S'-6.2'
p1556
sg1100
S'8.7'
p1557
sg1102
S'0.1'
p1558
sg38
S'32'
p1559
sg40
S'CLE'
p1560
sg42
S'12'
p1561
sg1107
S'0.0'
p1562
sg1109
S'3.8'
p1563
sg1111
S'-0.1'
p1564
sg61
S'79'
p1565
sg1114
S'-6.3'
p1566
sg54
S'2014-15'
p1567
sg1117
S'0.0'
p1568
sba(isrc.gp1.models.Advanced
Advanced
p1569
(dp1570
g1072
S'11.6'
p1571
sg1074
S'17.0'
p1572
sg1076
S'.020'
p1573
sg1078
S'1.3'
p1574
sg1080
S'18.0'
p1575
sg1082
S'16.7'
p1576
sg1084
S'2.2'
p1577
sg21
S'PF'
p1578
sg1087
S'0.1'
p1579
sg1089
S'.444'
p1580
sg1091
S'22.0'
p1581
sg1093
S'.337'
p1582
sg1095
S'.004'
p1583
sg27
S'NBA'
p1584
sg1098
S'-3.8'
p1585
sg1100
S'12.6'
p1586
sg1102
S'0.8'
p1587
sg38
S'32'
p1588
sg40
S'NYK'
p1589
sg42
S'41'
p1590
sg1107
S'5.0'
p1591
sg1109
S'12.5'
p1592
sg1111
S'-0.5'
p1593
sg61
S'858'
p1594
sg1114
S'-1.6'
p1595
sg54
S'2014-15'
p1596
sg1117
S'0.4'
p1597
sba(isrc.gp1.models.Advanced
Advanced
p1598
(dp1599
g1072
S'11.1'
p1600
sg1074
S'14.9'
p1601
sg1076
S'.038'
p1602
sg1078
S'1.6'
p1603
sg1080
S'16.8'
p1604
sg1082
S'13.7'
p1605
sg1084
S'0.0'
p1606
sg21
S'PF'
p1607
sg1087
S'-0.1'
p1608
sg1089
S'.449'
p1609
sg1091
S'16.2'
p1610
sg1093
S'.500'
p1611
sg1095
S'.000'
p1612
sg27
S'NBA'
p1613
sg1098
S'-3.6'
p1614
sg1100
S'8.6'
p1615
sg1102
S'0.2'
p1616
sg38
S'33'
p1617
sg40
S'NYK'
p1618
sg42
S'21'
p1619
sg1107
S'1.9'
p1620
sg1109
S'8.6'
p1621
sg1111
S'0.0'
p1622
sg61
S'161'
p1623
sg1114
S'-3.5'
p1624
sg54
S'2015-16'
p1625
sg1117
S'0.1'
p1626
sbasS'_per36Minutes'
p1627
(lp1628
(isrc.gp1.models.Per36Minutes
Per36Minutes
p1629
(dp1630
g8
S'6.1'
p1631
sg10
S'0.0'
p1632
sg12
S'.400'
p1633
sg14
S'0.4'
p1634
sg16
S'2.4'
p1635
sg18
S'0.0'
p1636
sg19
g20
sg21
S'PF'
p1637
sg23
S'5.3'
p1638
sg27
S'NBA'
p1639
sg29
S'3.2'
p1640
sg31
S'6.1'
p1641
sg33
S'6.5'
p1642
sg35
S'.400'
p1643
sg37
S'0.4'
p1644
sg38
S'24'
p1645
sg40
S'TOT'
p1646
sg42
S'11'
p1647
sg44
S'2.0'
p1648
sg46
S'6.1'
p1649
sg48
S'4.0'
p1650
sg50
S'.400'
p1651
sg52
S'11.3'
p1652
sg54
S'2006-07'
p1653
sg56
S'2.4'
p1654
sg57
S'6.1'
p1655
sg59
S'1.6'
p1656
sg61
S'89'
p1657
sg63
g11
sba(isrc.gp1.models.Per36Minutes
Per36Minutes
p1658
(dp1659
g8
S'0.0'
p1660
sg10
S'0.0'
p1661
sg12
S'0.0'
p1662
sg14
S'0.0'
p1663
sg16
S'0.0'
p1664
sg18
S'0.0'
p1665
sg19
g20
sg21
S'PF'
p1666
sg23
S'0.0'
p1667
sg27
S'NBA'
p1668
sg29
S'0.0'
p1669
sg31
S'0.0'
p1670
sg33
g20
sg35
S'0.0'
p1671
sg37
S'0.0'
p1672
sg38
S'24'
p1673
sg40
S'UTA'
p1674
sg42
g15
sg44
g20
sg46
S'0.0'
p1675
sg48
S'0.0'
p1676
sg50
S'0.0'
p1677
sg52
S'0.0'
p1678
sg54
S'2006-07'
p1679
sg56
S'0.0'
p1680
sg57
g20
sg59
S'0.0'
p1681
sg61
g71
sg63
g11
sba(isrc.gp1.models.Per36Minutes
Per36Minutes
p1682
(dp1683
g8
S'6.2'
p1684
sg10
S'0.0'
p1685
sg12
S'.400'
p1686
sg14
S'0.4'
p1687
sg16
S'2.5'
p1688
sg18
S'0.0'
p1689
sg19
g20
sg21
S'PF'
p1690
sg23
S'5.4'
p1691
sg27
S'NBA'
p1692
sg29
S'3.3'
p1693
sg31
S'6.2'
p1694
sg33
S'6.6'
p1695
sg35
S'.400'
p1696
sg37
S'0.4'
p1697
sg38
S'24'
p1698
sg40
S'PHI'
p1699
sg42
S'10'
p1700
sg44
S'2.1'
p1701
sg46
S'6.2'
p1702
sg48
S'4.1'
p1703
sg50
S'.400'
p1704
sg52
S'11.6'
p1705
sg54
S'2006-07'
p1706
sg56
S'2.5'
p1707
sg57
S'6.2'
p1708
sg59
S'1.7'
p1709
sg61
S'87'
p1710
sg63
g11
sba(isrc.gp1.models.Per36Minutes
Per36Minutes
p1711
(dp1712
g8
S'2.8'
p1713
sg10
S'0.0'
p1714
sg12
S'.500'
p1715
sg14
S'0.6'
p1716
sg16
S'4.5'
p1717
sg18
S'0.0'
p1718
sg19
g20
sg21
S'PF'
p1719
sg23
S'3.9'
p1720
sg27
S'NBA'
p1721
sg29
S'0.6'
p1722
sg31
S'9.0'
p1723
sg33
S'10.1'
p1724
sg35
S'.286'
p1725
sg37
S'0.0'
p1726
sg38
S'25'
p1727
sg40
S'PHI'
p1728
sg42
S'16'
p1729
sg44
S'1.1'
p1730
sg46
S'9.0'
p1731
sg48
S'3.9'
p1732
sg50
S'.500'
p1733
sg52
S'6.8'
p1734
sg54
S'2007-08'
p1735
sg56
S'4.5'
p1736
sg57
S'7.3'
p1737
sg59
S'1.1'
p1738
sg61
S'64'
p1739
sg63
g11
sba(isrc.gp1.models.Per36Minutes
Per36Minutes
p1740
(dp1741
g8
S'4.4'
p1742
sg10
S'0.0'
p1743
sg12
S'.536'
p1744
sg14
S'1.0'
p1745
sg16
S'.000'
p1746
sg18
S'0.0'
p1747
sg19
S'11.1'
p1748
sg21
S'PF'
p1749
sg23
S'.442'
p1750
sg27
S'NBA'
p1751
sg29
S'1.1'
p1752
sg31
S'8.6'
p1753
sg33
S'5.3'
p1754
sg35
S'4.1'
p1755
sg37
S'9.3'
p1756
sg38
S'26'
p1757
sg40
S'PHO'
p1758
sg42
S'76'
p1759
sg44
S'2.2'
p1760
sg46
S'4.6'
p1761
sg48
S'1.8'
p1762
sg50
S'8.6'
p1763
sg52
S'4.9'
p1764
sg54
S'2008-09'
p1765
sg56
S'4.6'
p1766
sg57
S'1.9'
p1767
sg59
S'.538'
p1768
sg61
S'1044'
p1769
sg63
g11
sba(isrc.gp1.models.Per36Minutes
Per36Minutes
p1770
(dp1771
g8
S'3.9'
p1772
sg10
S'0.0'
p1773
sg12
S'.551'
p1774
sg14
S'1.0'
p1775
sg16
S'.000'
p1776
sg18
S'0.0'
p1777
sg19
S'11.4'
p1778
sg21
S'PF'
p1779
sg23
S'.545'
p1780
sg27
S'NBA'
p1781
sg29
S'0.7'
p1782
sg31
S'8.5'
p1783
sg33
S'5.2'
p1784
sg35
S'3.8'
p1785
sg37
S'10.7'
p1786
sg38
S'27'
p1787
sg40
S'PHO'
p1788
sg42
S'79'
p1789
sg44
S'2.3'
p1790
sg46
S'4.7'
p1791
sg48
S'2.1'
p1792
sg50
S'8.5'
p1793
sg52
S'6.7'
p1794
sg54
S'2009-10'
p1795
sg56
S'4.7'
p1796
sg57
S'1.8'
p1797
sg59
S'.553'
p1798
sg61
S'1168'
p1799
sg63
g11
sba(isrc.gp1.models.Per36Minutes
Per36Minutes
p1800
(dp1801
g8
S'5.4'
p1802
sg10
S'0.0'
p1803
sg12
S'.454'
p1804
sg14
S'0.7'
p1805
sg16
S'4.3'
p1806
sg18
S'0.0'
p1807
sg19
g20
sg21
S'PF'
p1808
sg23
S'4.2'
p1809
sg27
S'NBA'
p1810
sg29
S'1.7'
p1811
sg31
S'9.5'
p1812
sg33
S'10.4'
p1813
sg35
S'.391'
p1814
sg37
S'0.9'
p1815
sg38
S'28'
p1816
sg40
S'GSW'
p1817
sg42
S'46'
p1818
sg44
S'1.3'
p1819
sg46
S'9.5'
p1820
sg48
S'4.5'
p1821
sg50
S'.454'
p1822
sg52
S'9.6'
p1823
sg54
S'2010-11'
p1824
sg56
S'4.3'
p1825
sg57
S'4.5'
p1826
sg59
S'1.8'
p1827
sg61
S'691'
p1828
sg63
g97
sba(isrc.gp1.models.Per36Minutes
Per36Minutes
p1829
(dp1830
g8
S'6.1'
p1831
sg10
S'0.0'
p1832
sg12
S'.430'
p1833
sg14
S'1.3'
p1834
sg16
S'4.3'
p1835
sg18
S'0.0'
p1836
sg19
g20
sg21
S'PF'
p1837
sg23
S'4.5'
p1838
sg27
S'NBA'
p1839
sg29
S'2.1'
p1840
sg31
S'9.9'
p1841
sg33
S'10.2'
p1842
sg35
S'.427'
p1843
sg37
S'0.7'
p1844
sg38
S'29'
p1845
sg40
S'IND'
p1846
sg42
S'60'
p1847
sg44
S'2.2'
p1848
sg46
S'9.9'
p1849
sg48
S'3.9'
p1850
sg50
S'.430'
p1851
sg52
S'10.6'
p1852
sg54
S'2011-12'
p1853
sg56
S'4.3'
p1854
sg57
S'6.0'
p1855
sg59
S'1.7'
p1856
sg61
S'753'
p1857
sg63
g11
sba(isrc.gp1.models.Per36Minutes
Per36Minutes
p1858
(dp1859
g8
S'5.6'
p1860
sg10
S'0.0'
p1861
sg12
S'.395'
p1862
sg14
S'1.5'
p1863
sg16
S'3.1'
p1864
sg18
S'0.0'
p1865
sg19
g20
sg21
S'PF'
p1866
sg23
S'4.6'
p1867
sg27
S'NBA'
p1868
sg29
S'1.2'
p1869
sg31
S'7.8'
p1870
sg33
S'7.4'
p1871
sg35
S'.333'
p1872
sg37
S'1.1'
p1873
sg38
S'30'
p1874
sg40
S'TOT'
p1875
sg42
S'39'
p1876
sg44
S'1.8'
p1877
sg46
S'7.8'
p1878
sg48
S'3.5'
p1879
sg50
S'.395'
p1880
sg52
S'10.3'
p1881
sg54
S'2012-13'
p1882
sg56
S'3.1'
p1883
sg57
S'5.1'
p1884
sg59
S'1.2'
p1885
sg61
S'372'
p1886
sg63
g11
sba(isrc.gp1.models.Per36Minutes
Per36Minutes
p1887
(dp1888
g8
S'5.4'
p1889
sg10
S'0.0'
p1890
sg12
S'.368'
p1891
sg14
S'1.6'
p1892
sg16
S'3.1'
p1893
sg18
S'0.0'
p1894
sg19
g20
sg21
S'PF'
p1895
sg23
S'5.1'
p1896
sg27
S'NBA'
p1897
sg29
S'1.3'
p1898
sg31
S'8.5'
p1899
sg33
S'7.2'
p1900
sg35
S'.200'
p1901
sg37
S'0.7'
p1902
sg38
S'30'
p1903
sg40
S'MIN'
p1904
sg42
S'20'
p1905
sg44
S'2.5'
p1906
sg46
S'8.5'
p1907
sg48
S'4.5'
p1908
sg50
S'.368'
p1909
sg52
S'10.5'
p1910
sg54
S'2012-13'
p1911
sg56
S'3.1'
p1912
sg57
S'5.8'
p1913
sg59
S'0.9'
p1914
sg61
S'161'
p1915
sg63
g11
sba(isrc.gp1.models.Per36Minutes
Per36Minutes
p1916
(dp1917
g8
S'18.0'
p1918
sg10
S'0.0'
p1919
sg12
S'.000'
p1920
sg14
S'0.0'
p1921
sg16
S'0.0'
p1922
sg18
S'0.0'
p1923
sg19
g20
sg21
S'PF'
p1924
sg23
S'0.0'
p1925
sg27
S'NBA'
p1926
sg29
S'0.0'
p1927
sg31
S'18.0'
p1928
sg33
g20
sg35
S'18.0'
p1929
sg37
S'0.0'
p1930
sg38
S'30'
p1931
sg40
S'CHI'
p1932
sg42
g15
sg44
S'0.0'
p1933
sg46
S'18.0'
p1934
sg48
S'0.0'
p1935
sg50
S'.000'
p1936
sg52
S'0.0'
p1937
sg54
S'2012-13'
p1938
sg56
S'0.0'
p1939
sg57
S'0.0'
p1940
sg59
S'0.0'
p1941
sg61
g71
sg63
g11
sba(isrc.gp1.models.Per36Minutes
Per36Minutes
p1942
(dp1943
g8
S'5.9'
p1944
sg10
S'0.0'
p1945
sg12
S'.429'
p1946
sg14
S'1.6'
p1947
sg16
S'3.1'
p1948
sg18
S'0.0'
p1949
sg19
g20
sg21
S'PF'
p1950
sg23
S'4.1'
p1951
sg27
S'NBA'
p1952
sg29
S'1.0'
p1953
sg31
S'7.2'
p1954
sg33
S'7.6'
p1955
sg35
S'.500'
p1956
sg37
S'1.4'
p1957
sg38
S'30'
p1958
sg40
S'NOH'
p1959
sg42
S'18'
p1960
sg44
S'1.4'
p1961
sg46
S'7.2'
p1962
sg48
S'2.8'
p1963
sg50
S'.429'
p1964
sg52
S'10.0'
p1965
sg54
S'2012-13'
p1966
sg56
S'3.1'
p1967
sg57
S'4.7'
p1968
sg59
S'1.4'
p1969
sg61
S'209'
p1970
sg63
g11
sba(isrc.gp1.models.Per36Minutes
Per36Minutes
p1971
(dp1972
g8
S'5.3'
p1973
sg10
S'0.0'
p1974
sg12
S'.500'
p1975
sg14
S'1.8'
p1976
sg16
S'3.1'
p1977
sg18
S'0.0'
p1978
sg19
g20
sg21
S'PF'
p1979
sg23
S'5.4'
p1980
sg27
S'NBA'
p1981
sg29
S'2.1'
p1982
sg31
S'6.2'
p1983
sg33
S'7.4'
p1984
sg35
S'.250'
p1985
sg37
S'1.2'
p1986
sg38
S'31'
p1987
sg40
S'TOT'
p1988
sg42
S'19'
p1989
sg44
S'2.7'
p1990
sg46
S'6.2'
p1991
sg48
S'4.7'
p1992
sg50
S'.500'
p1993
sg52
S'10.7'
p1994
sg54
S'2013-14'
p1995
sg56
S'3.1'
p1996
sg57
S'9.5'
p1997
sg59
S'1.2'
p1998
sg61
S'185'
p1999
sg63
g11
sba(isrc.gp1.models.Per36Minutes
Per36Minutes
p2000
(dp2001
g8
S'5.3'
p2002
sg10
S'0.0'
p2003
sg12
S'.500'
p2004
sg14
S'1.8'
p2005
sg16
S'3.1'
p2006
sg18
S'0.0'
p2007
sg19
g20
sg21
S'PF'
p2008
sg23
S'5.5'
p2009
sg27
S'NBA'
p2010
sg29
S'2.2'
p2011
sg31
S'6.3'
p2012
sg33
S'7.4'
p2013
sg35
S'.250'
p2014
sg37
S'1.2'
p2015
sg38
S'31'
p2016
sg40
S'NOP'
p2017
sg42
S'18'
p2018
sg44
S'2.7'
p2019
sg46
S'6.3'
p2020
sg48
S'4.7'
p2021
sg50
S'.500'
p2022
sg52
S'10.8'
p2023
sg54
S'2013-14'
p2024
sg56
S'3.1'
p2025
sg57
S'9.6'
p2026
sg59
S'1.2'
p2027
sg61
S'184'
p2028
sg63
g11
sba(isrc.gp1.models.Per36Minutes
Per36Minutes
p2029
(dp2030
g8
S'0.0'
p2031
sg10
S'0.0'
p2032
sg12
S'0.0'
p2033
sg14
S'0.0'
p2034
sg16
S'0.0'
p2035
sg18
S'0.0'
p2036
sg19
g20
sg21
S'PF'
p2037
sg23
S'0.0'
p2038
sg27
S'NBA'
p2039
sg29
S'0.0'
p2040
sg31
S'0.0'
p2041
sg33
g20
sg35
S'0.0'
p2042
sg37
S'0.0'
p2043
sg38
S'31'
p2044
sg40
S'CHI'
p2045
sg42
g15
sg44
g20
sg46
S'0.0'
p2046
sg48
S'0.0'
p2047
sg50
S'0.0'
p2048
sg52
S'0.0'
p2049
sg54
S'2013-14'
p2050
sg56
S'0.0'
p2051
sg57
g20
sg59
S'0.0'
p2052
sg61
g15
sg63
g11
sba(isrc.gp1.models.Per36Minutes
Per36Minutes
p2053
(dp2054
g8
S'3.6'
p2055
sg10
S'0.0'
p2056
sg12
S'.427'
p2057
sg14
S'2.7'
p2058
sg16
S'.000'
p2059
sg18
S'0.0'
p2060
sg19
S'10.0'
p2061
sg21
S'PF'
p2062
sg23
S'.471'
p2063
sg27
S'NBA'
p2064
sg29
S'0.8'
p2065
sg31
S'9.8'
p2066
sg33
S'4.8'
p2067
sg35
S'3.3'
p2068
sg37
S'10.3'
p2069
sg38
S'32'
p2070
sg40
S'TOT'
p2071
sg42
S'53'
p2072
sg44
S'2.0'
p2073
sg46
S'4.2'
p2074
sg48
S'1.6'
p2075
sg50
S'9.8'
p2076
sg52
S'6.7'
p2077
sg54
S'2014-15'
p2078
sg56
S'4.2'
p2079
sg57
S'2.4'
p2080
sg59
S'.429'
p2081
sg61
S'937'
p2082
sg63
S'35'
p2083
sba(isrc.gp1.models.Per36Minutes
Per36Minutes
p2084
(dp2085
g8
S'6.8'
p2086
sg10
S'0.0'
p2087
sg12
S'.333'
p2088
sg14
S'0.5'
p2089
sg16
S'1.8'
p2090
sg18
S'0.0'
p2091
sg19
g20
sg21
S'PF'
p2092
sg23
S'2.3'
p2093
sg27
S'NBA'
p2094
sg29
S'0.0'
p2095
sg31
S'5.5'
p2096
sg33
S'5.0'
p2097
sg35
S'.600'
p2098
sg37
S'2.3'
p2099
sg38
S'32'
p2100
sg40
S'CLE'
p2101
sg42
S'12'
p2102
sg44
S'2.3'
p2103
sg46
S'5.5'
p2104
sg48
S'2.3'
p2105
sg50
S'.333'
p2106
sg52
S'9.1'
p2107
sg54
S'2014-15'
p2108
sg56
S'1.8'
p2109
sg57
S'5.0'
p2110
sg59
S'1.4'
p2111
sg61
S'79'
p2112
sg63
g11
sba(isrc.gp1.models.Per36Minutes
Per36Minutes
p2113
(dp2114
g8
S'3.7'
p2115
sg10
S'0.0'
p2116
sg12
S'.432'
p2117
sg14
S'2.7'
p2118
sg16
S'.000'
p2119
sg18
S'0.0'
p2120
sg19
S'10.4'
p2121
sg21
S'PF'
p2122
sg23
S'.463'
p2123
sg27
S'NBA'
p2124
sg29
S'0.9'
p2125
sg31
S'10.2'
p2126
sg33
S'4.8'
p2127
sg35
S'3.4'
p2128
sg37
S'10.4'
p2129
sg38
S'32'
p2130
sg40
S'NYK'
p2131
sg42
S'41'
p2132
sg44
S'2.2'
p2133
sg46
S'4.4'
p2134
sg48
S'1.6'
p2135
sg50
S'10.2'
p2136
sg52
S'6.7'
p2137
sg54
S'2014-15'
p2138
sg56
S'4.4'
p2139
sg57
S'2.4'
p2140
sg59
S'.434'
p2141
sg61
S'858'
p2142
sg63
S'35'
p2143
sba(isrc.gp1.models.Per36Minutes
Per36Minutes
p2144
(dp2145
g8
S'5.4'
p2146
sg10
S'0.0'
p2147
sg12
S'.429'
p2148
sg14
S'1.1'
p2149
sg16
S'4.0'
p2150
sg18
S'0.0'
p2151
sg19
g20
sg21
S'PF'
p2152
sg23
S'3.6'
p2153
sg27
S'NBA'
p2154
sg29
S'0.9'
p2155
sg31
S'9.4'
p2156
sg33
S'10.3'
p2157
sg35
S'.476'
p2158
sg37
S'2.0'
p2159
sg38
S'33'
p2160
sg40
S'NYK'
p2161
sg42
S'21'
p2162
sg44
S'2.0'
p2163
sg46
S'9.4'
p2164
sg48
S'4.7'
p2165
sg50
S'.429'
p2166
sg52
S'8.9'
p2167
sg54
S'2015-16'
p2168
sg56
S'4.0'
p2169
sg57
S'8.5'
p2170
sg59
S'2.2'
p2171
sg61
S'161'
p2172
sg63
g11
sbasS'_fromYear'
p2173
S'2007'
p2174
sS'_url'
p2175
S'http://www.basketball-reference.com/players/a/amundlo01.html'
p2176
sS'_perGame'
p2177
(isrc.gp1.models.PerGame
PerGame
p2178
(dp2179
g8
S'1.1'
p2180
sg10
S'0.0'
p2181
sg12
S'.429'
p2182
sS'_effectiveFieldGalPercentage'
p2183
S'0.5'
p2184
sg14
S'0.2'
p2185
sg16
S'0.9'
p2186
sg18
S'0.0'
p2187
sg19
g20
sg21
S'PF'
p2188
sg23
S'0.8'
p2189
sg27
S'NBA'
p2190
sg29
S'0.2'
p2191
sg33
S'2.2'
p2192
sS'_fieldGoalsttempted'
p2193
S'2.0'
p2194
sg35
S'.476'
p2195
sg37
S'0.4'
p2196
sg38
S'33'
p2197
sg40
S'NYK'
p2198
sg42
S'21'
p2199
sg44
S'0.4'
p2200
sg46
S'2.0'
p2201
sg48
S'1.0'
p2202
sg50
S'.429'
p2203
sg52
S'1.9'
p2204
sg54
S'2015-16'
p2205
sg56
S'0.9'
p2206
sg57
S'1.8'
p2207
sg59
S'.429'
p2208
sg61
S'7.7'
p2209
sg63
g11
sbsS'_weight'
p2210
S'220'
p2211
sS'_dob'
p2212
S'7-12-1982'
p2213
sS'_salary'
p2214
(lp2215
(isrc.gp1.models.Salary
Salary
p2216
(dp2217
g40
S'Philadelphia 76ers'
p2218
sg27
S'NBA'
p2219
sg2214
S'$105,696'
p2220
sg54
S'2006-07'
p2221
sba(isrc.gp1.models.Salary
Salary
p2222
(dp2223
g40
S'Sacramento Kings'
p2224
sg27
S'NBA'
p2225
sg2214
S'$75,000'
p2226
sg54
S'2006-07'
p2227
sba(isrc.gp1.models.Salary
Salary
p2228
(dp2229
g40
S'Utah Jazz'
p2230
sg27
S'NBA'
p2231
sg2214
S'$35,232'
p2232
sg54
S'2006-07'
p2233
sba(isrc.gp1.models.Salary
Salary
p2234
(dp2235
g40
S'Philadelphia 76ers'
p2236
sg27
S'NBA'
p2237
sg2214
S'$687,456'
p2238
sg54
S'2007-08'
p2239
sba(isrc.gp1.models.Salary
Salary
p2240
(dp2241
g40
S'Phoenix Suns'
p2242
sg27
S'NBA'
p2243
sg2214
S'$797,581'
p2244
sg54
S'2008-09'
p2245
sba(isrc.gp1.models.Salary
Salary
p2246
(dp2247
g40
S'Phoenix Suns'
p2248
sg27
S'NBA'
p2249
sg2214
S'$855,189'
p2250
sg54
S'2009-10'
p2251
sba(isrc.gp1.models.Salary
Salary
p2252
(dp2253
g40
S'Golden State Warriors'
p2254
sg27
S'NBA'
p2255
sg2214
S'$2,225,000'
p2256
sg54
S'2010-11'
p2257
sba(isrc.gp1.models.Salary
Salary
p2258
(dp2259
g40
S'Indiana Pacers'
p2260
sg27
S'NBA'
p2261
sg2214
S'$2,403,000'
p2262
sg54
S'2011-12'
p2263
sba(isrc.gp1.models.Salary
Salary
p2264
(dp2265
g40
S'Minnesota Timberwolves'
p2266
sg27
S'NBA'
p2267
sg2214
S'$1,069,509'
p2268
sg54
S'2012-13'
p2269
sba(isrc.gp1.models.Salary
Salary
p2270
(dp2271
g40
S'New York Knicks'
p2272
sg27
S'NBA'
p2273
sg2214
S'$409,167'
p2274
sg54
S'2014-15'
p2275
sbasg21
S'F'
p2276
sb.