(isrc.gp1.models.Player
Player
p0
(dp1
S'_experience'
p2
S'NA'
p3
sS'_totals'
p4
(lp5
(isrc.gp1.models.Totals
Totals
p6
(dp7
S'_offensiveRebounds'
p8
S'199'
p9
sS'_threePointsAttempted'
p10
S'.120'
p11
sS'_fieldGoalsPercentage'
p12
S'3'
p13
sS'_assist'
p14
S'261'
p15
sS'_threePointsPercentage'
p16
S'438'
p17
sS'_threePoints'
p18
S'25'
p19
sS'_points'
p20
g3
sS'_position'
p21
S'PG'
p22
sS'_freeThrowsPercentage'
p23
S'95'
p24
sS'_effectiveFieldGoalPercentage'
p25
S'529'
p26
sS'_league'
p27
S'ABA'
p28
sS'_steals'
p29
S'289'
p30
sS'_fieldGoalsAttempted'
p31
S'.421'
p32
sS'_personalFouls'
p33
g3
sS'_freeThrowsAttempted'
p34
S'.824'
p35
sS'_totalRebounds'
p36
S'478'
p37
sS'_age'
p38
S'22'
p39
sS'_team'
p40
S'LAS'
p41
sS'_games'
p42
S'84'
p43
sS'_blocks'
p44
S'1414'
p45
sS'_twoPoints'
p46
S'1022'
p47
sS'_freeThrows'
p48
S'642'
p49
sS'_twoPointsAttempted'
p50
S'.429'
p51
sS'_defensiveRebounds'
p52
S'294'
p53
sS'_season'
p54
S'1969-70'
p55
sS'_fieldGoals'
p56
S'1047'
p57
sS'_turnOvers'
p58
g3
sS'_twoPointsPercentage'
p59
S'.423'
p60
sS'_minutesPlayed'
p61
S'441'
p62
sS'_gamesStarted'
p63
S'2955'
p64
sba(isrc.gp1.models.Totals
Totals
p65
(dp66
g8
S'176'
p67
sg10
S'.288'
p68
sg12
S'17'
p69
sg14
S'356'
p70
sg16
S'727'
p71
sg18
S'59'
p72
sg20
g3
sg21
S'PG'
p73
sg23
S'107'
p74
sg25
S'696'
p75
sg27
S'ABA'
p76
sg29
S'263'
p77
sg31
S'.431'
p78
sg33
g3
sg34
S'.865'
p79
sg36
S'619'
p80
sg38
S'23'
p81
sg40
S'FLO'
p82
sg42
S'81'
p83
sg44
S'2201'
p84
sg46
S'1669'
p85
sg48
S'805'
p86
sg50
S'.436'
p87
sg52
S'283'
p88
sg54
S'1970-71'
p89
sg56
S'1728'
p90
sg58
g3
sg59
S'.435'
p91
sg61
S'744'
p92
sg63
S'3394'
p93
sba(isrc.gp1.models.Totals
Totals
p94
(dp95
g8
S'158'
p96
sg10
S'.229'
p97
sg12
S'11'
p98
sg14
S'261'
p99
sg16
S'541'
p100
sg18
S'48'
p101
sg20
g3
sg21
S'PG'
p102
sg23
S'116'
p103
sg25
S'611'
p104
sg27
S'ABA'
p105
sg29
S'270'
p106
sg31
S'.441'
p107
sg33
g3
sg34
S'.872'
p108
sg36
S'481'
p109
sg38
S'24'
p110
sg40
S'FLO'
p111
sg42
S'82'
p112
sg44
S'1726'
p113
sg46
S'1205'
p114
sg48
S'701'
p115
sg50
S'.449'
p116
sg52
S'274'
p117
sg54
S'1971-72'
p118
sg56
S'1253'
p119
sg58
g3
sg59
S'.445'
p120
sg61
S'552'
p121
sg63
S'2977'
p122
sba(isrc.gp1.models.Totals
Totals
p123
(dp124
g8
S'118'
p125
sg10
S'.393'
p126
sg12
S'11'
p127
sg14
S'247'
p128
sg16
S'467'
p129
sg18
S'28'
p130
sg20
g3
sg21
S'PG'
p131
sg23
S'97'
p132
sg25
S'500'
p133
sg27
S'ABA'
p134
sg29
S'219'
p135
sg31
S'.506'
p136
sg33
g3
sg34
S'.859'
p137
sg36
S'301'
p138
sg38
S'25'
p139
sg40
S'CAR'
p140
sg42
S'84'
p141
sg44
S'1467'
p142
sg46
S'916'
p143
sg48
S'582'
p144
sg50
S'.510'
p145
sg52
S'215'
p146
sg54
S'1972-73'
p147
sg56
S'944'
p148
sg58
g3
sg59
S'.512'
p149
sg61
S'478'
p150
sg63
S'2228'
p151
sba(isrc.gp1.models.Totals
Totals
p152
(dp153
g8
S'165'
p154
sg10
S'.233'
p155
sg12
S'10'
p156
sg14
S'135'
p157
sg16
S'488'
p158
sg18
S'43'
p159
sg20
g3
sg21
S'PG'
p160
sg23
S'78'
p161
sg25
S'490'
p162
sg27
S'ABA'
p163
sg29
S'7'
p164
sg31
S'.462'
p165
sg33
S'1496'
p166
sg34
S'.875'
p167
sg36
S'347'
p168
sg38
S'26'
p169
sg40
S'CAR'
p170
sg42
S'83'
p171
sg44
S'234'
p172
sg46
S'1035'
p173
sg48
S'560'
p174
sg50
S'.471'
p175
sg52
S'243'
p176
sg54
S'1973-74'
p177
sg56
S'1078'
p178
sg58
S'244'
p179
sg59
S'.467'
p180
sg61
S'498'
p181
sg63
S'2592'
p182
sba(isrc.gp1.models.Totals
Totals
p183
(dp184
g8
S'174'
p185
sg10
S'.188'
p186
sg12
g13
sg14
S'140'
p187
sg16
S'480'
p188
sg18
S'16'
p189
sg20
g3
sg21
S'PG'
p190
sg23
S'36'
p191
sg25
S'475'
p192
sg27
S'ABA'
p193
sg29
S'8'
p194
sg31
S'.485'
p195
sg33
S'1444'
p196
sg34
S'.896'
p197
sg36
S'570'
p198
sg38
S'27'
p199
sg40
S'DNA'
p200
sg42
S'74'
p201
sg44
S'279'
p202
sg46
S'980'
p203
sg48
S'530'
p204
sg50
S'.490'
p205
sg52
S'210'
p206
sg54
S'1974-75'
p207
sg56
S'996'
p208
sg58
S'206'
p209
sg59
S'.486'
p210
sg61
S'483'
p211
sg63
S'2463'
p212
sba(isrc.gp1.models.Totals
Totals
p213
(dp214
g8
S'90'
p215
sg10
S'.269'
p216
sg12
g164
sg14
S'71'
p217
sg16
S'299'
p218
sg18
S'26'
p219
sg20
g3
sg21
S'PG'
p220
sg23
S'38'
p221
sg25
S'253'
p222
sg27
S'ABA'
p223
sg29
S'1'
p224
sg31
S'.427'
p225
sg33
S'872'
p226
sg34
S'.888'
p227
sg36
S'271'
p228
sg38
S'28'
p229
sg40
S'VIR'
p230
sg42
S'45'
p231
sg44
S'192'
p232
sg46
S'691'
p233
sg48
S'285'
p234
sg50
S'.433'
p235
sg52
S'128'
p236
sg54
S'1975-76'
p237
sg56
S'717'
p238
sg58
S'122'
p239
sg59
S'.432'
p240
sg61
S'306'
p241
sg63
S'1658'
p242
sba(isrc.gp1.models.Totals
Totals
p243
(dp244
g8
S'61'
p245
sg10
S'.404'
p246
sg12
S'220'
p247
sg14
S'727'
p248
sg16
S'.404'
p249
sg18
S'544'
p250
sg20
g3
sg21
S'PG'
p251
sg23
S'240'
p252
sg25
S'36'
p253
sg27
S'NBA'
p254
sg29
g3
sg31
S'.404'
p255
sg33
g3
sg34
S'96'
p256
sg36
S'127'
p257
sg38
S'29'
p258
sg40
S'TOT'
p259
sg42
S'76'
p260
sg44
g3
sg46
S'287'
p261
sg48
S'60'
p262
sg50
S'338'
p263
sg52
g13
sg54
S'1976-77'
p264
sg56
S'544'
p265
sg58
g3
sg59
S'.849'
p266
sg61
S'220'
p267
sg63
S'1438'
p268
sba(isrc.gp1.models.Totals
Totals
p269
(dp270
g8
S'11'
p271
sg10
S'.329'
p272
sg12
S'27'
p273
sg14
S'95'
p274
sg16
S'.329'
p275
sg18
S'82'
p276
sg20
g3
sg21
S'PG'
p277
sg23
S'21'
p278
sg25
S'6'
p279
sg27
S'NBA'
p280
sg29
g3
sg31
S'.329'
p281
sg33
g3
sg34
S'16'
p282
sg36
S'16'
p283
sg38
S'29'
p284
sg40
S'LAL'
p285
sg42
S'12'
p286
sg44
g3
sg46
S'41'
p287
sg48
S'10'
p288
sg50
S'48'
p289
sg52
g224
sg54
S'1976-77'
p290
sg56
S'82'
p291
sg58
g3
sg59
S'.854'
p292
sg61
S'27'
p293
sg63
S'207'
p294
sba(isrc.gp1.models.Totals
Totals
p295
(dp296
g8
S'23'
p297
sg10
S'.392'
p298
sg12
S'93'
p299
sg14
S'309'
p300
sg16
S'.392'
p301
sg18
S'237'
p302
sg20
g3
sg21
S'PG'
p303
sg23
S'104'
p304
sg25
S'11'
p305
sg27
S'NBA'
p306
sg29
g3
sg31
S'.392'
p307
sg33
g3
sg34
S'31'
p308
sg36
S'58'
p309
sg38
S'29'
p310
sg40
S'SAS'
p311
sg42
S'35'
p312
sg44
g3
sg46
S'123'
p313
sg48
S'20'
p314
sg50
S'146'
p315
sg52
g224
sg54
S'1976-77'
p316
sg56
S'237'
p317
sg58
g3
sg59
S'.842'
p318
sg61
S'93'
p319
sg63
S'606'
p320
sba(isrc.gp1.models.Totals
Totals
p321
(dp322
g8
S'27'
p323
sg10
S'.444'
p324
sg12
S'100'
p325
sg14
S'323'
p326
sg16
S'.444'
p327
sg18
S'225'
p328
sg20
g3
sg21
S'PG'
p329
sg23
S'115'
p330
sg25
S'19'
p331
sg27
S'NBA'
p332
sg29
g3
sg31
S'.444'
p333
sg33
g3
sg34
S'49'
p334
sg36
S'53'
p335
sg38
S'29'
p336
sg40
S'DEN'
p337
sg42
S'29'
p338
sg44
g3
sg46
S'123'
p339
sg48
S'30'
p340
sg50
S'144'
p341
sg52
g224
sg54
S'1976-77'
p342
sg56
S'225'
p343
sg58
g3
sg59
S'.854'
p344
sg61
S'100'
p345
sg63
S'625'
p346
sba(isrc.gp1.models.Totals
Totals
p347
(dp348
g8
S'46'
p349
sg10
S'.441'
p350
sg12
S'147'
p351
sg14
S'87'
p352
sg16
S'.441'
p353
sg18
S'333'
p354
sg20
g3
sg21
S'PG'
p355
sg23
S'148'
p356
sg25
S'11'
p357
sg27
S'NBA'
p358
sg29
S'467'
p359
sg31
S'.441'
p360
sg33
g3
sg34
S'84'
p361
sg36
S'108'
p362
sg38
S'30'
p363
sg40
S'DEN'
p364
sg42
S'77'
p365
sg44
g3
sg46
S'173'
p366
sg48
S'73'
p367
sg50
S'206'
p368
sg52
S'5'
p369
sg54
S'1977-78'
p370
sg56
S'333'
p371
sg58
g3
sg59
S'.840'
p372
sg61
S'147'
p373
sg63
S'988'
p374
sba(isrc.gp1.models.Totals
Totals
p375
(dp376
g8
g3
sg10
g3
sg12
g3
sg14
g3
sg16
g3
sg18
g3
sg20
g3
sg21
g3
sg23
g3
sg25
g3
sg27
g3
sg29
g3
sg31
g3
sg33
g3
sg34
g3
sg36
g3
sg38
S'31'
p377
sg40
S'Did Not Play'
p378
sg42
g3
sg44
g3
sg46
g3
sg48
g3
sg50
g3
sg52
g3
sg54
S'1978-79'
p379
sg56
g3
sg58
g3
sg59
g3
sg61
g3
sg63
g3
sba(isrc.gp1.models.Totals
Totals
p380
(dp381
g8
S'71'
p382
sg10
S'.091'
p383
sg12
g224
sg14
S'27'
p384
sg16
S'99'
p385
sg18
S'11'
p386
sg20
g3
sg21
S'PG'
p387
sg23
S'13'
p388
sg25
S'105'
p389
sg27
S'NBA'
p390
sg29
S'0'
p391
sg31
S'.441'
p392
sg33
S'306'
p393
sg34
S'.897'
p394
sg36
S'134'
p395
sg38
S'32'
p396
sg40
S'UTA'
p397
sg42
S'48'
p398
sg44
S'57'
p399
sg46
S'216'
p400
sg48
S'117'
p401
sg50
S'.458'
p402
sg52
S'84'
p403
sg54
S'1979-80'
p404
sg56
S'227'
p405
sg58
S'72'
p406
sg59
S'.443'
p407
sg61
S'100'
p408
sg63
S'772'
p409
sba(isrc.gp1.models.Totals
Totals
p410
(dp411
g8
S'10'
p412
sg10
S'.200'
p413
sg12
g224
sg14
g369
sg16
S'12'
p414
sg18
g369
sg20
g3
sg21
S'PG'
p415
sg23
S'2'
p416
sg25
S'25'
p417
sg27
S'NBA'
p418
sg29
g391
sg31
S'.333'
p419
sg33
S'52'
p420
sg34
S'.714'
p421
sg36
S'28'
p422
sg38
S'33'
p423
sg40
S'CLE'
p424
sg42
S'21'
p425
sg44
S'17'
p426
sg46
S'34'
p427
sg48
S'35'
p428
sg50
S'.353'
p429
sg52
S'12'
p430
sg54
S'1980-81'
p431
sg56
S'39'
p432
sg58
S'13'
p433
sg59
S'.346'
p434
sg61
S'13'
p435
sg63
S'128'
p436
sbasS'_college'
p437
S'University of Southern California'
p438
sS'_toYear'
p439
S'1981'
p440
sS'_height'
p441
S'6-0'
p442
sS'_active'
p443
I00
sS'_shootingHand'
p444
VRight
p445
sS'_name'
p446
S'Mack Calvin'
p447
sS'_per100Possessions'
p448
(lp449
(isrc.gp1.models.Per100Possession
Per100Possession
p450
(dp451
g8
S'2.9'
p452
sg10
S'.233'
p453
sg12
S'0.2'
p454
sS'_offensiveRating'
p455
S'105'
p456
sg14
S'2.4'
p457
sg16
S'8.7'
p458
sg18
S'0.8'
p459
sg20
S'112'
p460
sg21
S'PG'
p461
sS'_defensiveRating'
p462
g3
sg23
S'1.4'
p463
sg27
S'ABA'
p464
sg29
S'0.1'
p465
sg31
S'.462'
p466
sg33
S'26.7'
p467
sg34
S'.875'
p468
sg36
S'6.2'
p469
sg38
S'26'
p470
sg40
S'CAR'
p471
sg42
S'83'
p472
sg44
S'4.2'
p473
sg46
S'18.5'
p474
sg48
S'10.0'
p475
sg50
S'.471'
p476
sg52
S'4.3'
p477
sg54
S'1973-74'
p478
sg56
S'19.3'
p479
sg58
S'4.4'
p480
sg59
S'8.8'
p481
sg61
S'8.9'
p482
sg63
S'2592'
p483
sba(isrc.gp1.models.Per100Possession
Per100Possession
p484
(dp485
g8
S'3.2'
p486
sg10
S'.188'
p487
sg12
S'0.1'
p488
sg455
S'105'
p489
sg14
S'2.5'
p490
sg16
S'8.7'
p491
sg18
S'0.3'
p492
sg20
S'114'
p493
sg21
S'PG'
p494
sg462
g3
sg23
S'0.7'
p495
sg27
S'ABA'
p496
sg29
S'0.1'
p497
sg31
S'.485'
p498
sg33
S'26.2'
p499
sg34
S'.896'
p500
sg36
S'10.3'
p501
sg38
S'27'
p502
sg40
S'DNA'
p503
sg42
S'74'
p504
sg44
S'5.1'
p505
sg46
S'17.8'
p506
sg48
S'9.6'
p507
sg50
S'.490'
p508
sg52
S'3.8'
p509
sg54
S'1974-75'
p510
sg56
S'18.0'
p511
sg58
S'3.7'
p512
sg59
S'8.6'
p513
sg61
S'8.7'
p514
sg63
S'2463'
p515
sba(isrc.gp1.models.Per100Possession
Per100Possession
p516
(dp517
g8
S'2.4'
p518
sg10
S'.269'
p519
sg12
S'0.2'
p520
sg455
S'111'
p521
sg14
S'1.9'
p522
sg16
S'8.1'
p523
sg18
S'0.7'
p524
sg20
S'101'
p525
sg21
S'PG'
p526
sg462
g3
sg23
S'1.0'
p527
sg27
S'ABA'
p528
sg29
S'0.0'
p529
sg31
S'.427'
p530
sg33
S'23.6'
p531
sg34
S'.888'
p532
sg36
S'7.3'
p533
sg38
S'28'
p534
sg40
S'VIR'
p535
sg42
S'45'
p536
sg44
S'5.2'
p537
sg46
S'18.7'
p538
sg48
S'7.7'
p539
sg50
S'.433'
p540
sg52
S'3.5'
p541
sg54
S'1975-76'
p542
sg56
S'19.4'
p543
sg58
S'3.3'
p544
sg59
S'6.9'
p545
sg61
S'8.3'
p546
sg63
S'1658'
p547
sba(isrc.gp1.models.Per100Possession
Per100Possession
p548
(dp549
g8
S'1.8'
p550
sg10
S'.404'
p551
sg12
S'6.6'
p552
sg455
g3
sg14
S'22.0'
p553
sg16
S'8.7'
p554
sg18
S'16.4'
p555
sg20
g3
sg21
S'PG'
p556
sg462
g3
sg23
S'7.2'
p557
sg27
S'NBA'
p558
sg29
S'103'
p559
sg31
S'.404'
p560
sg33
g3
sg34
S'2.9'
p561
sg36
S'3.8'
p562
sg38
S'29'
p563
sg40
S'TOT'
p564
sg42
S'76'
p565
sg44
g3
sg46
S'10.2'
p566
sg48
S'1.8'
p567
sg50
S'.849'
p568
sg52
S'0.1'
p569
sg54
S'1976-77'
p570
sg56
S'16.4'
p571
sg58
g3
sg59
S'1.1'
p572
sg61
S'6.6'
p573
sg63
S'1438'
p574
sba(isrc.gp1.models.Per100Possession
Per100Possession
p575
(dp576
g8
S'2.4'
p577
sg10
S'.329'
p578
sg12
S'6.0'
p579
sg455
g3
sg14
S'21.0'
p580
sg16
S'9.1'
p581
sg18
S'18.2'
p582
sg20
g3
sg21
S'PG'
p583
sg462
g3
sg23
S'4.7'
p584
sg27
S'NBA'
p585
sg29
S'102'
p586
sg31
S'.329'
p587
sg33
g3
sg34
S'3.5'
p588
sg36
S'3.5'
p589
sg38
S'29'
p590
sg40
S'LAL'
p591
sg42
S'12'
p592
sg44
g3
sg46
S'10.6'
p593
sg48
S'2.2'
p594
sg50
S'.854'
p595
sg52
S'0.2'
p596
sg54
S'1976-77'
p597
sg56
S'18.2'
p598
sg58
g3
sg59
S'1.3'
p599
sg61
S'6.0'
p600
sg63
S'207'
p601
sba(isrc.gp1.models.Per100Possession
Per100Possession
p602
(dp603
g8
S'1.6'
p604
sg10
S'.392'
p605
sg12
S'6.6'
p606
sg455
g3
sg14
S'21.9'
p607
sg16
S'8.7'
p608
sg18
S'16.8'
p609
sg20
g3
sg21
S'PG'
p610
sg462
g3
sg23
S'7.4'
p611
sg27
S'NBA'
p612
sg29
S'106'
p613
sg31
S'.392'
p614
sg33
g3
sg34
S'2.2'
p615
sg36
S'4.1'
p616
sg38
S'29'
p617
sg40
S'SAS'
p618
sg42
S'35'
p619
sg44
g3
sg46
S'10.3'
p620
sg48
S'1.4'
p621
sg50
S'.842'
p622
sg52
S'0.1'
p623
sg54
S'1976-77'
p624
sg56
S'16.8'
p625
sg58
g3
sg59
S'0.8'
p626
sg61
S'6.6'
p627
sg63
S'606'
p628
sba(isrc.gp1.models.Per100Possession
Per100Possession
p629
(dp630
g8
S'1.9'
p631
sg10
S'.444'
p632
sg12
S'6.9'
p633
sg455
g3
sg14
S'22.3'
p634
sg16
S'8.5'
p635
sg18
S'15.5'
p636
sg20
g3
sg21
S'PG'
p637
sg462
g3
sg23
S'7.9'
p638
sg27
S'NBA'
p639
sg29
S'100'
p640
sg31
S'.444'
p641
sg33
g3
sg34
S'3.4'
p642
sg36
S'3.7'
p643
sg38
S'29'
p644
sg40
S'DEN'
p645
sg42
S'29'
p646
sg44
g3
sg46
S'9.9'
p647
sg48
S'2.1'
p648
sg50
S'.854'
p649
sg52
S'0.1'
p650
sg54
S'1976-77'
p651
sg56
S'15.5'
p652
sg58
g3
sg59
S'1.3'
p653
sg61
S'6.9'
p654
sg63
S'625'
p655
sba(isrc.gp1.models.Per100Possession
Per100Possession
p656
(dp657
g8
S'2.1'
p658
sg10
S'.441'
p659
sg12
S'6.6'
p660
sg455
g3
sg14
S'3.9'
p661
sg16
S'7.7'
p662
sg18
S'14.9'
p663
sg20
g3
sg21
S'PG'
p664
sg462
g3
sg23
S'6.6'
p665
sg27
S'NBA'
p666
sg29
S'20.9'
p667
sg31
S'.441'
p668
sg33
g3
sg34
S'3.8'
p669
sg36
S'4.8'
p670
sg38
S'30'
p671
sg40
S'DEN'
p672
sg42
S'77'
p673
sg44
S'102'
p674
sg46
S'9.2'
p675
sg48
S'3.3'
p676
sg50
S'.840'
p677
sg52
S'0.2'
p678
sg54
S'1977-78'
p679
sg56
S'14.9'
p680
sg58
S'104'
p681
sg59
S'0.5'
p682
sg61
S'6.6'
p683
sg63
S'988'
p684
sba(isrc.gp1.models.Per100Possession
Per100Possession
p685
(dp686
g8
S'4.5'
p687
sg10
S'.091'
p688
sg12
S'0.1'
p689
sg455
S'112'
p690
sg14
S'1.7'
p691
sg16
S'6.3'
p692
sg18
S'0.7'
p693
sg20
S'110'
p694
sg21
S'PG'
p695
sg462
g3
sg23
S'0.8'
p696
sg27
S'NBA'
p697
sg29
S'0.0'
p698
sg31
S'.441'
p699
sg33
S'19.5'
p700
sg34
S'.897'
p701
sg36
S'8.5'
p702
sg38
S'32'
p703
sg40
S'UTA'
p704
sg42
S'48'
p705
sg44
S'3.6'
p706
sg46
S'13.8'
p707
sg48
S'7.5'
p708
sg50
S'.458'
p709
sg52
S'5.4'
p710
sg54
S'1979-80'
p711
sg56
S'14.5'
p712
sg58
S'4.6'
p713
sg59
S'6.7'
p714
sg61
S'6.4'
p715
sg63
S'772'
p716
sba(isrc.gp1.models.Per100Possession
Per100Possession
p717
(dp718
g8
S'3.7'
p719
sg10
S'.200'
p720
sg12
S'0.4'
p721
sg455
S'110'
p722
sg14
S'1.9'
p723
sg16
S'4.5'
p724
sg18
S'1.9'
p725
sg20
S'93'
p726
sg21
S'PG'
p727
sg462
g3
sg23
S'0.7'
p728
sg27
S'NBA'
p729
sg29
S'0.0'
p730
sg31
S'.333'
p731
sg33
S'19.3'
p732
sg34
S'.714'
p733
sg36
S'10.4'
p734
sg38
S'33'
p735
sg40
S'CLE'
p736
sg42
S'21'
p737
sg44
S'6.3'
p738
sg46
S'12.6'
p739
sg48
S'13.0'
p740
sg50
S'.353'
p741
sg52
S'4.5'
p742
sg54
S'1980-81'
p743
sg56
S'14.5'
p744
sg58
S'4.8'
p745
sg59
S'9.3'
p746
sg61
S'4.8'
p747
sg63
S'128'
p748
sbasS'_advanced'
p749
(lp750
(isrc.gp1.models.Advanced
Advanced
p751
(dp752
S'_offensiveReboundPercentage'
p753
S'4.4'
p754
sS'_turnOverPercentage'
p755
S'7.7'
p756
sS'_winSharesPer48Minutes'
p757
g3
sS'_stealPercentage'
p758
S'4.9'
p759
sS'_usagePercentage'
p760
S'.124'
p761
sS'_totalReboundsPercentage'
p762
S'16.4'
p763
sS'_defensiveBoxPlusMinus'
p764
g3
sg21
S'PG'
p765
sS'_valueOverReplacementPlayer'
p766
g3
sS'_trueShootingPercentage'
p767
S'.532'
p768
sS'_defensiveReboundPercentage'
p769
S'22.3'
p770
sS'_freeThrowsAttempRate'
p771
S'.613'
p772
sS'_threePointsAttempRate'
p773
S'.024'
p774
sg27
S'ABA'
p775
sS'_offensiveBoxPlusMinues'
p776
g3
sS'_assistPercentage'
p777
S'19.9'
p778
sS'_defensiveWinShares'
p779
g3
sg38
S'22'
p780
sg40
S'LAS'
p781
sg42
S'84'
p782
sS'_blockPercentage'
p783
S'2.8'
p784
sS'_playerEfficiencyRating'
p785
S'15.6'
p786
sS'_offensiveWinShares'
p787
g3
sg61
S'2955'
p788
sS'_boxPlusMinus'
p789
g3
sg54
S'1969-70'
p790
sS'_winShares'
p791
g3
sba(isrc.gp1.models.Advanced
Advanced
p792
(dp793
g753
S'3.9'
p794
sg755
S'8.5'
p795
sg757
g3
sg758
S'6.2'
p796
sg760
S'.120'
p797
sg762
S'14.6'
p798
sg764
g3
sg21
S'PG'
p799
sg766
g3
sg767
S'.529'
p800
sg769
S'26.8'
p801
sg771
S'.466'
p802
sg773
S'.034'
p803
sg27
S'ABA'
p804
sg776
g3
sg777
S'26.8'
p805
sg779
g3
sg38
S'23'
p806
sg40
S'FLO'
p807
sg42
S'81'
p808
sg783
S'2.3'
p809
sg785
S'19.2'
p810
sg787
g3
sg61
S'3394'
p811
sg789
g3
sg54
S'1970-71'
p812
sg791
g3
sba(isrc.gp1.models.Advanced
Advanced
p813
(dp814
g753
S'3.7'
p815
sg755
S'6.5'
p816
sg757
g3
sg758
S'14.3'
p817
sg760
S'2.0'
p818
sg762
S'4.5'
p819
sg764
g3
sg21
S'PG'
p820
sg766
g3
sg767
S'.553'
p821
sg769
S'5.2'
p822
sg771
S'.559'
p823
sg773
S'.038'
p824
sg27
S'ABA'
p825
sg776
g3
sg777
S'23.6'
p826
sg779
S'.137'
p827
sg38
S'24'
p828
sg40
S'FLO'
p829
sg42
S'82'
p830
sg783
S'23.7'
p831
sg785
S'18.2'
p832
sg787
S'8.5'
p833
sg61
S'2977'
p834
sg789
g3
sg54
S'1971-72'
p835
sg791
g3
sba(isrc.gp1.models.Advanced
Advanced
p836
(dp837
g753
S'4.5'
p838
sg755
S'8.3'
p839
sg757
g3
sg758
S'17.1'
p840
sg760
S'2.1'
p841
sg762
S'5.0'
p842
sg764
g3
sg21
S'PG'
p843
sg766
g3
sg767
S'.611'
p844
sg769
S'5.5'
p845
sg771
S'.617'
p846
sg773
S'.030'
p847
sg27
S'ABA'
p848
sg776
g3
sg777
S'18.6'
p849
sg779
S'.224'
p850
sg38
S'25'
p851
sg40
S'CAR'
p852
sg42
S'84'
p853
sg783
S'24.4'
p854
sg785
S'19.6'
p855
sg787
S'10.4'
p856
sg61
S'2228'
p857
sg789
g3
sg54
S'1972-73'
p858
sg791
g3
sba(isrc.gp1.models.Advanced
Advanced
p859
(dp860
g753
S'3.2'
p861
sg755
S'15.0'
p862
sg757
S'.163'
p863
sg758
S'2.4'
p864
sg760
S'23.6'
p865
sg762
S'5.0'
p866
sg764
S'-1.4'
p867
sg21
S'PG'
p868
sg766
S'2.0'
p869
sg767
S'.565'
p870
sg769
S'6.8'
p871
sg771
S'.519'
p872
sg773
S'.040'
p873
sg27
S'ABA'
p874
sg776
S'2.4'
p875
sg777
S'18.6'
p876
sg779
S'2.2'
p877
sg38
S'26'
p878
sg40
S'CAR'
p879
sg42
S'83'
p880
sg783
S'0.2'
p881
sg785
S'18.5'
p882
sg787
S'6.7'
p883
sg61
S'2592'
p884
sg789
S'1.0'
p885
sg54
S'1973-74'
p886
sg791
S'8.8'
p887
sba(isrc.gp1.models.Advanced
Advanced
p888
(dp889
g753
S'1.6'
p890
sg755
S'18.5'
p891
sg757
S'.176'
p892
sg758
S'2.5'
p893
sg760
S'23.3'
p894
sg762
S'4.6'
p895
sg764
S'-1.3'
p896
sg21
S'PG'
p897
sg766
S'2.0'
p898
sg767
S'.587'
p899
sg769
S'7.2'
p900
sg771
S'.532'
p901
sg773
S'.016'
p902
sg27
S'ABA'
p903
sg776
S'2.5'
p904
sg777
S'29.8'
p905
sg779
S'2.5'
p906
sg38
S'27'
p907
sg40
S'DNA'
p908
sg42
S'74'
p909
sg783
S'0.2'
p910
sg785
S'19.2'
p911
sg787
S'6.5'
p912
sg61
S'2463'
p913
sg789
S'1.3'
p914
sg54
S'1974-75'
p915
sg791
S'9.0'
p916
sba(isrc.gp1.models.Advanced
Advanced
p917
(dp918
g753
S'2.2'
p919
sg755
S'18.6'
p920
sg757
S'.043'
p921
sg758
S'1.9'
p922
sg760
S'23.4'
p923
sg762
S'3.8'
p924
sg764
S'-2.4'
p925
sg21
S'PG'
p926
sg766
S'-0.1'
p927
sg767
S'.518'
p928
sg769
S'5.7'
p929
sg771
S'.397'
p930
sg773
S'.036'
p931
sg27
S'ABA'
p932
sg776
S'0.1'
p933
sg777
S'24.5'
p934
sg779
S'0.3'
p935
sg38
S'28'
p936
sg40
S'VIR'
p937
sg42
S'45'
p938
sg783
S'0.0'
p939
sg785
S'14.2'
p940
sg787
S'1.2'
p941
sg61
S'1658'
p942
sg789
S'-2.3'
p943
sg54
S'1975-76'
p944
sg791
S'1.5'
p945
sba(isrc.gp1.models.Advanced
Advanced
p946
(dp947
g753
S'4.2'
p948
sg755
S'0.9'
p949
sg757
S'-2.7'
p950
sg758
S'0.1'
p951
sg760
S'2.8'
p952
sg762
S'21.7'
p953
sg764
g3
sg21
S'PG'
p954
sg766
g3
sg767
S'.525'
p955
sg769
S'3.4'
p956
sg771
S'2.6'
p957
sg773
S'.621'
p958
sg27
S'NBA'
p959
sg776
S'-0.3'
p960
sg777
S'1.8'
p961
sg779
S'0.3'
p962
sg38
S'29'
p963
sg40
S'TOT'
p964
sg42
S'76'
p965
sg783
S'1.9'
p966
sg785
S'15.5'
p967
sg787
S'.092'
p968
sg61
S'1438'
p969
sg789
g3
sg54
S'1976-77'
p970
sg791
S'-3.0'
p971
sba(isrc.gp1.models.Advanced
Advanced
p972
(dp973
g753
S'4.8'
p974
sg755
S'0.2'
p975
sg757
S'-4.5'
p976
sg758
S'0.2'
p977
sg760
S'0.2'
p978
sg762
S'12.8'
p979
sg764
g3
sg21
S'PG'
p980
sg766
g3
sg767
S'.461'
p981
sg769
S'3.9'
p982
sg771
S'3.0'
p983
sg773
S'.585'
p984
sg27
S'NBA'
p985
sg776
S'-0.1'
p986
sg777
S'2.4'
p987
sg779
S'-2.2'
p988
sg38
S'29'
p989
sg40
S'LAL'
p990
sg42
S'12'
p991
sg783
S'0.1'
p992
sg785
S'13.1'
p993
sg787
S'.052'
p994
sg61
S'207'
p995
sg789
g3
sg54
S'1976-77'
p996
sg791
S'-2.3'
p997
sba(isrc.gp1.models.Advanced
Advanced
p998
(dp999
g753
S'3.4'
p1000
sg755
S'0.1'
p1001
sg757
S'-4.5'
p1002
sg758
S'0.1'
p1003
sg760
S'0.7'
p1004
sg762
S'21.8'
p1005
sg764
g3
sg21
S'PG'
p1006
sg766
g3
sg767
S'.513'
p1007
sg769
S'2.6'
p1008
sg771
S'1.9'
p1009
sg773
S'.616'
p1010
sg27
S'NBA'
p1011
sg776
S'-0.4'
p1012
sg777
S'1.6'
p1013
sg779
S'-0.2'
p1014
sg38
S'29'
p1015
sg40
S'SAS'
p1016
sg42
S'35'
p1017
sg783
S'0.6'
p1018
sg785
S'14.9'
p1019
sg787
S'.056'
p1020
sg61
S'606'
p1021
sg789
g3
sg54
S'1976-77'
p1022
sg791
S'-4.4'
p1023
sba(isrc.gp1.models.Advanced
Advanced
p1024
(dp1025
g753
S'4.8'
p1026
sg755
S'0.6'
p1027
sg757
S'-0.4'
p1028
sg758
S'0.1'
p1029
sg760
S'1.8'
p1030
sg762
S'24.6'
p1031
sg764
g3
sg21
S'PG'
p1032
sg766
g3
sg767
S'.560'
p1033
sg769
S'4.0'
p1034
sg771
S'3.2'
p1035
sg773
S'.640'
p1036
sg27
S'NBA'
p1037
sg776
S'0.3'
p1038
sg777
S'1.9'
p1039
sg779
S'1.6'
p1040
sg38
S'29'
p1041
sg40
S'DEN'
p1042
sg42
S'29'
p1043
sg783
S'1.2'
p1044
sg785
S'17.0'
p1045
sg787
S'.140'
p1046
sg61
S'625'
p1047
sg789
g3
sg54
S'1976-77'
p1048
sg791
S'-2.0'
p1049
sba(isrc.gp1.models.Advanced
Advanced
p1050
(dp1051
g753
S'7.3'
p1052
sg755
S'20.6'
p1053
sg757
S'-1.6'
p1054
sg758
S'0.3'
p1055
sg760
S'1.2'
p1056
sg762
S'20.1'
p1057
sg764
S'-4.1'
p1058
sg21
S'PG'
p1059
sg766
g3
sg767
S'.551'
p1060
sg769
S'4.4'
p1061
sg771
S'1.2'
p1062
sg773
S'.619'
p1063
sg27
S'NBA'
p1064
sg776
S'-2.5'
p1065
sg777
S'2.1'
p1066
sg779
S'1.8'
p1067
sg38
S'30'
p1068
sg40
S'DEN'
p1069
sg42
S'77'
p1070
sg783
S'20.3'
p1071
sg785
S'14.0'
p1072
sg787
S'0.7'
p1073
sg61
S'988'
p1074
sg789
S'-0.5'
p1075
sg54
S'1977-78'
p1076
sg791
S'.090'
p1077
sba(isrc.gp1.models.Advanced
Advanced
p1078
(dp1079
g753
S'2.0'
p1080
sg755
S'17.0'
p1081
sg757
S'.085'
p1082
sg758
S'1.7'
p1083
sg760
S'18.7'
p1084
sg762
S'6.4'
p1085
sg764
S'-2.7'
p1086
sg21
S'PG'
p1087
sg766
S'-0.3'
p1088
sg767
S'.549'
p1089
sg769
S'10.4'
p1090
sg771
S'.515'
p1091
sg773
S'.048'
p1092
sg27
S'NBA'
p1093
sg776
S'-0.7'
p1094
sg777
S'24.0'
p1095
sg779
S'0.2'
p1096
sg38
S'32'
p1097
sg40
S'UTA'
p1098
sg42
S'48'
p1099
sg783
S'0.0'
p1100
sg785
S'14.5'
p1101
sg787
S'1.2'
p1102
sg61
S'772'
p1103
sg789
S'-3.5'
p1104
sg54
S'1979-80'
p1105
sg791
S'1.4'
p1106
sba(isrc.gp1.models.Advanced
Advanced
p1107
(dp1108
g753
S'1.6'
p1109
sg755
S'23.8'
p1110
sg757
S'-0.010'
p1111
sg758
S'1.9'
p1112
sg760
S'22.4'
p1113
sg762
S'5.2'
p1114
sg764
S'-3.1'
p1115
sg21
S'PG'
p1116
sg766
S'-0.2'
p1117
sg767
S'.478'
p1118
sg769
S'9.1'
p1119
sg771
S'.897'
p1120
sg773
S'.128'
p1121
sg27
S'NBA'
p1122
sg776
S'-3.8'
p1123
sg777
S'27.4'
p1124
sg779
S'0.1'
p1125
sg38
S'33'
p1126
sg40
S'CLE'
p1127
sg42
S'21'
p1128
sg783
S'0.0'
p1129
sg785
S'11.0'
p1130
sg787
S'-0.1'
p1131
sg61
S'128'
p1132
sg789
S'-6.9'
p1133
sg54
S'1980-81'
p1134
sg791
S'0.0'
p1135
sbasS'_per36Minutes'
p1136
(lp1137
(isrc.gp1.models.Per36Minutes
Per36Minutes
p1138
(dp1139
g8
S'2.4'
p1140
sg10
S'.120'
p1141
sg12
S'0.0'
p1142
sg14
S'3.2'
p1143
sg16
S'5.3'
p1144
sg18
S'0.3'
p1145
sg20
g3
sg21
S'PG'
p1146
sg23
S'1.2'
p1147
sg27
S'ABA'
p1148
sg29
S'3.5'
p1149
sg31
S'.421'
p1150
sg33
g3
sg34
S'.824'
p1151
sg36
S'5.8'
p1152
sg38
S'22'
p1153
sg40
S'LAS'
p1154
sg42
S'84'
p1155
sg44
S'17.2'
p1156
sg46
S'12.5'
p1157
sg48
S'7.8'
p1158
sg50
S'.429'
p1159
sg52
S'3.6'
p1160
sg54
S'1969-70'
p1161
sg56
S'12.8'
p1162
sg58
g3
sg59
S'6.4'
p1163
sg61
S'5.4'
p1164
sg63
S'2955'
p1165
sba(isrc.gp1.models.Per36Minutes
Per36Minutes
p1166
(dp1167
g8
S'1.9'
p1168
sg10
S'.288'
p1169
sg12
S'0.2'
p1170
sg14
S'3.8'
p1171
sg16
S'7.7'
p1172
sg18
S'0.6'
p1173
sg20
g3
sg21
S'PG'
p1174
sg23
S'1.1'
p1175
sg27
S'ABA'
p1176
sg29
S'2.8'
p1177
sg31
S'.431'
p1178
sg33
g3
sg34
S'.865'
p1179
sg36
S'6.6'
p1180
sg38
S'23'
p1181
sg40
S'FLO'
p1182
sg42
S'81'
p1183
sg44
S'23.3'
p1184
sg46
S'17.7'
p1185
sg48
S'8.5'
p1186
sg50
S'.436'
p1187
sg52
S'3.0'
p1188
sg54
S'1970-71'
p1189
sg56
S'18.3'
p1190
sg58
g3
sg59
S'7.4'
p1191
sg61
S'7.9'
p1192
sg63
S'3394'
p1193
sba(isrc.gp1.models.Per36Minutes
Per36Minutes
p1194
(dp1195
g8
S'1.9'
p1196
sg10
S'.229'
p1197
sg12
S'0.1'
p1198
sg14
S'3.2'
p1199
sg16
S'6.5'
p1200
sg18
S'0.6'
p1201
sg20
g3
sg21
S'PG'
p1202
sg23
S'1.4'
p1203
sg27
S'ABA'
p1204
sg29
S'3.3'
p1205
sg31
S'.441'
p1206
sg33
g3
sg34
S'.872'
p1207
sg36
S'5.8'
p1208
sg38
S'24'
p1209
sg40
S'FLO'
p1210
sg42
S'82'
p1211
sg44
S'20.9'
p1212
sg46
S'14.6'
p1213
sg48
S'8.5'
p1214
sg50
S'.449'
p1215
sg52
S'3.3'
p1216
sg54
S'1971-72'
p1217
sg56
S'15.2'
p1218
sg58
g3
sg59
S'7.4'
p1219
sg61
S'6.7'
p1220
sg63
S'2977'
p1221
sba(isrc.gp1.models.Per36Minutes
Per36Minutes
p1222
(dp1223
g8
S'1.9'
p1224
sg10
S'.393'
p1225
sg12
S'0.2'
p1226
sg14
S'4.0'
p1227
sg16
S'7.5'
p1228
sg18
S'0.5'
p1229
sg20
g3
sg21
S'PG'
p1230
sg23
S'1.6'
p1231
sg27
S'ABA'
p1232
sg29
S'3.5'
p1233
sg31
S'.506'
p1234
sg33
g3
sg34
S'.859'
p1235
sg36
S'4.9'
p1236
sg38
S'25'
p1237
sg40
S'CAR'
p1238
sg42
S'84'
p1239
sg44
S'23.7'
p1240
sg46
S'14.8'
p1241
sg48
S'9.4'
p1242
sg50
S'.510'
p1243
sg52
S'3.5'
p1244
sg54
S'1972-73'
p1245
sg56
S'15.3'
p1246
sg58
g3
sg59
S'8.1'
p1247
sg61
S'7.7'
p1248
sg63
S'2228'
p1249
sba(isrc.gp1.models.Per36Minutes
Per36Minutes
p1250
(dp1251
g8
S'2.3'
p1252
sg10
S'.233'
p1253
sg12
S'0.1'
p1254
sg14
S'1.9'
p1255
sg16
S'6.8'
p1256
sg18
S'0.6'
p1257
sg20
g3
sg21
S'PG'
p1258
sg23
S'1.1'
p1259
sg27
S'ABA'
p1260
sg29
S'0.1'
p1261
sg31
S'.462'
p1262
sg33
S'20.8'
p1263
sg34
S'.875'
p1264
sg36
S'4.8'
p1265
sg38
S'26'
p1266
sg40
S'CAR'
p1267
sg42
S'83'
p1268
sg44
S'3.2'
p1269
sg46
S'14.4'
p1270
sg48
S'7.8'
p1271
sg50
S'.471'
p1272
sg52
S'3.4'
p1273
sg54
S'1973-74'
p1274
sg56
S'15.0'
p1275
sg58
S'3.4'
p1276
sg59
S'6.8'
p1277
sg61
S'6.9'
p1278
sg63
S'2592'
p1279
sba(isrc.gp1.models.Per36Minutes
Per36Minutes
p1280
(dp1281
g8
S'2.5'
p1282
sg10
S'.188'
p1283
sg12
S'0.0'
p1284
sg14
S'2.0'
p1285
sg16
S'7.0'
p1286
sg18
S'0.2'
p1287
sg20
g3
sg21
S'PG'
p1288
sg23
S'0.5'
p1289
sg27
S'ABA'
p1290
sg29
S'0.1'
p1291
sg31
S'.485'
p1292
sg33
S'21.1'
p1293
sg34
S'.896'
p1294
sg36
S'8.3'
p1295
sg38
S'27'
p1296
sg40
S'DNA'
p1297
sg42
S'74'
p1298
sg44
S'4.1'
p1299
sg46
S'14.3'
p1300
sg48
S'7.7'
p1301
sg50
S'.490'
p1302
sg52
S'3.1'
p1303
sg54
S'1974-75'
p1304
sg56
S'14.6'
p1305
sg58
S'3.0'
p1306
sg59
S'6.9'
p1307
sg61
S'7.1'
p1308
sg63
S'2463'
p1309
sba(isrc.gp1.models.Per36Minutes
Per36Minutes
p1310
(dp1311
g8
S'2.0'
p1312
sg10
S'.269'
p1313
sg12
S'0.2'
p1314
sg14
S'1.5'
p1315
sg16
S'6.5'
p1316
sg18
S'0.6'
p1317
sg20
g3
sg21
S'PG'
p1318
sg23
S'0.8'
p1319
sg27
S'ABA'
p1320
sg29
S'0.0'
p1321
sg31
S'.427'
p1322
sg33
S'18.9'
p1323
sg34
S'.888'
p1324
sg36
S'5.9'
p1325
sg38
S'28'
p1326
sg40
S'VIR'
p1327
sg42
S'45'
p1328
sg44
S'4.2'
p1329
sg46
S'15.0'
p1330
sg48
S'6.2'
p1331
sg50
S'.433'
p1332
sg52
S'2.8'
p1333
sg54
S'1975-76'
p1334
sg56
S'15.6'
p1335
sg58
S'2.6'
p1336
sg59
S'5.5'
p1337
sg61
S'6.6'
p1338
sg63
S'1658'
p1339
sba(isrc.gp1.models.Per36Minutes
Per36Minutes
p1340
(dp1341
g8
S'1.5'
p1342
sg10
S'.404'
p1343
sg12
S'5.5'
p1344
sg14
S'18.2'
p1345
sg16
S'7.2'
p1346
sg18
S'13.6'
p1347
sg20
g3
sg21
S'PG'
p1348
sg23
S'6.0'
p1349
sg27
S'NBA'
p1350
sg29
g3
sg31
S'.404'
p1351
sg33
g3
sg34
S'2.4'
p1352
sg36
S'3.2'
p1353
sg38
S'29'
p1354
sg40
S'TOT'
p1355
sg42
S'76'
p1356
sg44
g3
sg46
S'8.5'
p1357
sg48
S'1.5'
p1358
sg50
S'.849'
p1359
sg52
S'0.1'
p1360
sg54
S'1976-77'
p1361
sg56
S'13.6'
p1362
sg58
g3
sg59
S'0.9'
p1363
sg61
S'5.5'
p1364
sg63
S'1438'
p1365
sba(isrc.gp1.models.Per36Minutes
Per36Minutes
p1366
(dp1367
g8
S'1.9'
p1368
sg10
S'.329'
p1369
sg12
S'4.7'
p1370
sg14
S'16.5'
p1371
sg16
S'7.1'
p1372
sg18
S'14.3'
p1373
sg20
g3
sg21
S'PG'
p1374
sg23
S'3.7'
p1375
sg27
S'NBA'
p1376
sg29
g3
sg31
S'.329'
p1377
sg33
g3
sg34
S'2.8'
p1378
sg36
S'2.8'
p1379
sg38
S'29'
p1380
sg40
S'LAL'
p1381
sg42
S'12'
p1382
sg44
g3
sg46
S'8.3'
p1383
sg48
S'1.7'
p1384
sg50
S'.854'
p1385
sg52
S'0.2'
p1386
sg54
S'1976-77'
p1387
sg56
S'14.3'
p1388
sg58
g3
sg59
S'1.0'
p1389
sg61
S'4.7'
p1390
sg63
S'207'
p1391
sba(isrc.gp1.models.Per36Minutes
Per36Minutes
p1392
(dp1393
g8
S'1.4'
p1394
sg10
S'.392'
p1395
sg12
S'5.5'
p1396
sg14
S'18.4'
p1397
sg16
S'7.3'
p1398
sg18
S'14.1'
p1399
sg20
g3
sg21
S'PG'
p1400
sg23
S'6.2'
p1401
sg27
S'NBA'
p1402
sg29
g3
sg31
S'.392'
p1403
sg33
g3
sg34
S'1.8'
p1404
sg36
S'3.4'
p1405
sg38
S'29'
p1406
sg40
S'SAS'
p1407
sg42
S'35'
p1408
sg44
g3
sg46
S'8.7'
p1409
sg48
S'1.2'
p1410
sg50
S'.842'
p1411
sg52
S'0.1'
p1412
sg54
S'1976-77'
p1413
sg56
S'14.1'
p1414
sg58
g3
sg59
S'0.7'
p1415
sg61
S'5.5'
p1416
sg63
S'606'
p1417
sba(isrc.gp1.models.Per36Minutes
Per36Minutes
p1418
(dp1419
g8
S'1.6'
p1420
sg10
S'.444'
p1421
sg12
S'5.8'
p1422
sg14
S'18.6'
p1423
sg16
S'7.1'
p1424
sg18
S'13.0'
p1425
sg20
g3
sg21
S'PG'
p1426
sg23
S'6.6'
p1427
sg27
S'NBA'
p1428
sg29
g3
sg31
S'.444'
p1429
sg33
g3
sg34
S'2.8'
p1430
sg36
S'3.1'
p1431
sg38
S'29'
p1432
sg40
S'DEN'
p1433
sg42
S'29'
p1434
sg44
g3
sg46
S'8.3'
p1435
sg48
S'1.7'
p1436
sg50
S'.854'
p1437
sg52
S'0.1'
p1438
sg54
S'1976-77'
p1439
sg56
S'13.0'
p1440
sg58
g3
sg59
S'1.1'
p1441
sg61
S'5.8'
p1442
sg63
S'625'
p1443
sba(isrc.gp1.models.Per36Minutes
Per36Minutes
p1444
(dp1445
g8
S'1.7'
p1446
sg10
S'.441'
p1447
sg12
S'5.4'
p1448
sg14
S'3.2'
p1449
sg16
S'6.3'
p1450
sg18
S'12.1'
p1451
sg20
g3
sg21
S'PG'
p1452
sg23
S'5.4'
p1453
sg27
S'NBA'
p1454
sg29
S'17.0'
p1455
sg31
S'.441'
p1456
sg33
g3
sg34
S'3.1'
p1457
sg36
S'3.9'
p1458
sg38
S'30'
p1459
sg40
S'DEN'
p1460
sg42
S'77'
p1461
sg44
g3
sg46
S'7.5'
p1462
sg48
S'2.7'
p1463
sg50
S'.840'
p1464
sg52
S'0.2'
p1465
sg54
S'1977-78'
p1466
sg56
S'12.1'
p1467
sg58
g3
sg59
S'0.4'
p1468
sg61
S'5.4'
p1469
sg63
S'988'
p1470
sba(isrc.gp1.models.Per36Minutes
Per36Minutes
p1471
(dp1472
g8
S'3.3'
p1473
sg10
S'.091'
p1474
sg12
S'0.0'
p1475
sg14
S'1.3'
p1476
sg16
S'4.6'
p1477
sg18
S'0.5'
p1478
sg20
g3
sg21
S'PG'
p1479
sg23
S'0.6'
p1480
sg27
S'NBA'
p1481
sg29
S'0.0'
p1482
sg31
S'.441'
p1483
sg33
S'14.3'
p1484
sg34
S'.897'
p1485
sg36
S'6.2'
p1486
sg38
S'32'
p1487
sg40
S'UTA'
p1488
sg42
S'48'
p1489
sg44
S'2.7'
p1490
sg46
S'10.1'
p1491
sg48
S'5.5'
p1492
sg50
S'.458'
p1493
sg52
S'3.9'
p1494
sg54
S'1979-80'
p1495
sg56
S'10.6'
p1496
sg58
S'3.4'
p1497
sg59
S'4.9'
p1498
sg61
S'4.7'
p1499
sg63
S'772'
p1500
sba(isrc.gp1.models.Per36Minutes
Per36Minutes
p1501
(dp1502
g8
S'2.8'
p1503
sg10
S'.200'
p1504
sg12
S'0.3'
p1505
sg14
S'1.4'
p1506
sg16
S'3.4'
p1507
sg18
S'1.4'
p1508
sg20
g3
sg21
S'PG'
p1509
sg23
S'0.6'
p1510
sg27
S'NBA'
p1511
sg29
S'0.0'
p1512
sg31
S'.333'
p1513
sg33
S'14.6'
p1514
sg34
S'.714'
p1515
sg36
S'7.9'
p1516
sg38
S'33'
p1517
sg40
S'CLE'
p1518
sg42
S'21'
p1519
sg44
S'4.8'
p1520
sg46
S'9.6'
p1521
sg48
S'9.8'
p1522
sg50
S'.353'
p1523
sg52
S'3.4'
p1524
sg54
S'1980-81'
p1525
sg56
S'11.0'
p1526
sg58
S'3.7'
p1527
sg59
S'7.0'
p1528
sg61
S'3.7'
p1529
sg63
S'128'
p1530
sbasS'_fromYear'
p1531
S'1970'
p1532
sS'_url'
p1533
S'http://www.basketball-reference.com/players/c/calvima01.html'
p1534
sS'_perGame'
p1535
(isrc.gp1.models.PerGame
PerGame
p1536
(dp1537
g8
S'0.5'
p1538
sg10
S'.200'
p1539
sg12
S'0.0'
p1540
sS'_effectiveFieldGalPercentage'
p1541
S'1.2'
p1542
sg14
S'0.2'
p1543
sg16
S'0.6'
p1544
sg18
S'0.2'
p1545
sg20
g3
sg21
S'PG'
p1546
sg23
S'0.1'
p1547
sg27
S'NBA'
p1548
sg29
S'0.0'
p1549
sg33
S'2.5'
p1550
sS'_fieldGoalsttempted'
p1551
S'.333'
p1552
sg34
S'.714'
p1553
sg36
S'1.3'
p1554
sg38
S'33'
p1555
sg40
S'CLE'
p1556
sg42
S'21'
p1557
sg44
S'0.8'
p1558
sg46
S'1.6'
p1559
sg48
S'1.7'
p1560
sg50
S'.353'
p1561
sg52
S'0.6'
p1562
sg54
S'1980-81'
p1563
sg56
S'1.9'
p1564
sg58
S'0.6'
p1565
sg59
S'.346'
p1566
sg61
S'0.6'
p1567
sg63
S'6.1'
p1568
sbsS'_weight'
p1569
S'165'
p1570
sS'_dob'
p1571
S'27-7-1947'
p1572
sS'_salary'
p1573
(lp1574
sg21
S'G'
p1575
sb.