(isrc.gp1.models.Player
Player
p0
(dp1
S'_experience'
p2
S'NA'
p3
sS'_totals'
p4
(lp5
(isrc.gp1.models.Totals
Totals
p6
(dp7
S'_offensiveRebounds'
p8
S'34'
p9
sS'_threePointsAttempted'
p10
S'100'
p11
sS'_fieldGoalsPercentage'
p12
S'.413'
p13
sS'_assist'
p14
S'206'
p15
sS'_threePointsPercentage'
p16
S'.240'
p17
sS'_threePoints'
p18
S'24'
p19
sS'_points'
p20
S'942'
p21
sS'_position'
p22
S'PG'
p23
sS'_freeThrowsPercentage'
p24
S'.857'
p25
sS'_effectiveFieldGoalPercentage'
p26
S'.425'
p27
sS'_league'
p28
S'NBA'
p29
sS'_steals'
p30
S'55'
p31
sS'_fieldGoalsAttempted'
p32
S'1009'
p33
sS'_personalFouls'
p34
S'149'
p35
sS'_freeThrowsAttempted'
p36
S'98'
p37
sS'_totalRebounds'
p38
S'121'
p39
sS'_age'
p40
S'21'
p41
sS'_team'
p42
S'DEN'
p43
sS'_games'
p44
S'67'
p45
sS'_blocks'
p46
S'4'
p47
sS'_twoPoints'
p48
S'393'
p49
sS'_freeThrows'
p50
S'84'
p51
sS'_twoPointsAttempted'
p52
S'909'
p53
sS'_defensiveRebounds'
p54
S'87'
p55
sS'_season'
p56
S'1990-91'
p57
sS'_fieldGoals'
p58
S'417'
p59
sS'_turnOvers'
p60
S'110'
p61
sS'_twoPointsPercentage'
p62
S'.432'
p63
sS'_minutesPlayed'
p64
S'1505'
p65
sS'_gamesStarted'
p66
S'19'
p67
sba(isrc.gp1.models.Totals
Totals
p68
(dp69
g8
S'22'
p70
sg10
S'94'
p71
sg12
S'.421'
p72
sg14
S'192'
p73
sg16
S'.330'
p74
sg18
S'31'
p75
sg20
S'837'
p76
sg22
S'PG'
p77
sg24
S'.870'
p78
sg26
S'.440'
p79
sg28
S'NBA'
p80
sg30
S'44'
p81
sg32
S'845'
p82
sg34
S'130'
p83
sg36
S'108'
p84
sg38
S'114'
p85
sg40
S'22'
p86
sg42
S'DEN'
p87
sg44
S'81'
p88
sg46
g47
sg48
S'325'
p89
sg50
S'94'
p90
sg52
S'751'
p91
sg54
S'92'
p92
sg56
S'1991-92'
p93
sg58
S'356'
p94
sg60
S'117'
p95
sg62
S'.433'
p96
sg64
S'1538'
p97
sg66
S'11'
p98
sba(isrc.gp1.models.Totals
Totals
p99
(dp100
g8
S'51'
p101
sg10
S'197'
p102
sg12
S'.450'
p103
sg14
S'344'
p104
sg16
S'.355'
p105
sg18
S'70'
p106
sg20
S'1553'
p107
sg22
S'PG'
p108
sg24
S'.935'
p109
sg26
S'.475'
p110
sg28
S'NBA'
p111
sg30
S'84'
p112
sg32
S'1407'
p113
sg34
S'179'
p114
sg36
S'232'
p115
sg38
S'225'
p116
sg40
S'23'
p117
sg42
S'DEN'
p118
sg44
S'81'
p119
sg46
S'8'
p120
sg48
S'563'
p121
sg50
S'217'
p122
sg52
S'1210'
p123
sg54
S'174'
p124
sg56
S'1992-93'
p125
sg58
S'633'
p126
sg60
S'187'
p127
sg62
S'.465'
p128
sg64
S'2710'
p129
sg66
S'81'
p130
sba(isrc.gp1.models.Totals
Totals
p131
(dp132
g8
S'27'
p133
sg10
S'133'
p134
sg12
S'.460'
p135
sg14
S'362'
p136
sg16
S'.316'
p137
sg18
S'42'
p138
sg20
S'1437'
p139
sg22
S'PG'
p140
sg24
S'.956'
p141
sg26
S'.476'
p142
sg28
S'NBA'
p143
sg30
S'82'
p144
sg32
S'1279'
p145
sg34
S'150'
p146
sg36
S'229'
p147
sg38
S'168'
p148
sg40
S'24'
p149
sg42
S'DEN'
p150
sg44
S'80'
p151
sg46
S'10'
p152
sg48
S'546'
p153
sg50
S'219'
p154
sg52
S'1146'
p155
sg54
S'141'
p156
sg56
S'1993-94'
p157
sg58
S'588'
p158
sg60
S'151'
p159
sg62
S'.476'
p160
sg64
S'2617'
p161
sg66
S'78'
p162
sba(isrc.gp1.models.Totals
Totals
p163
(dp164
g8
S'32'
p165
sg10
S'215'
p166
sg12
S'.470'
p167
sg14
S'263'
p168
sg16
S'.386'
p169
sg18
S'83'
p170
sg20
S'1165'
p171
sg22
S'PG'
p172
sg24
S'.885'
p173
sg26
S'.511'
p174
sg28
S'NBA'
p175
sg30
S'77'
p176
sg32
S'1005'
p177
sg34
S'126'
p178
sg36
S'156'
p179
sg38
S'137'
p180
sg40
S'25'
p181
sg42
S'DEN'
p182
sg44
S'73'
p183
sg46
S'9'
p184
sg48
S'389'
p185
sg50
S'138'
p186
sg52
S'790'
p187
sg54
S'105'
p188
sg56
S'1994-95'
p189
sg58
S'472'
p190
sg60
S'119'
p191
sg62
S'.492'
p192
sg64
S'2082'
p193
sg66
S'43'
p194
sba(isrc.gp1.models.Totals
Totals
p195
(dp196
g8
S'26'
p197
sg10
S'309'
p198
sg12
S'.434'
p199
sg14
S'389'
p200
sg16
S'.392'
p201
sg18
S'121'
p202
sg20
S'1095'
p203
sg22
S'PG'
p204
sg24
S'.930'
p205
sg26
S'.497'
p206
sg28
S'NBA'
p207
sg30
S'64'
p208
sg32
S'955'
p209
sg34
S'117'
p210
sg36
S'157'
p211
sg38
S'138'
p212
sg40
S'26'
p213
sg42
S'DEN'
p214
sg44
S'57'
p215
sg46
S'3'
p216
sg48
S'293'
p217
sg50
S'146'
p218
sg52
S'646'
p219
sg54
S'112'
p220
sg56
S'1995-96'
p221
sg58
S'414'
p222
sg60
S'115'
p223
sg62
S'.454'
p224
sg64
S'2029'
p225
sg66
S'53'
p226
sba(isrc.gp1.models.Totals
Totals
p227
(dp228
g8
S'16'
p229
sg10
S'246'
p230
sg12
S'.445'
p231
sg14
S'189'
p232
sg16
S'.382'
p233
sg18
S'94'
p234
sg20
S'1031'
p235
sg22
S'PG'
p236
sg24
S'.846'
p237
sg26
S'.496'
p238
sg28
S'NBA'
p239
sg30
S'56'
p240
sg32
S'924'
p241
sg34
S'174'
p242
sg36
S'136'
p243
sg38
S'122'
p244
sg40
S'27'
p245
sg42
S'SAC'
p246
sg44
S'75'
p247
sg46
S'6'
p248
sg48
S'317'
p249
sg50
S'115'
p250
sg52
S'678'
p251
sg54
S'106'
p252
sg56
S'1996-97'
p253
sg58
S'411'
p254
sg60
S'119'
p255
sg62
S'.468'
p256
sg64
S'2131'
p257
sg66
S'51'
p258
sba(isrc.gp1.models.Totals
Totals
p259
(dp260
g8
g248
sg10
S'31'
p261
sg12
S'.377'
p262
sg14
S'58'
p263
sg16
S'.161'
p264
sg18
S'5'
p265
sg20
S'227'
p266
sg22
S'PG'
p267
sg24
S'1.000'
p268
sg26
S'.386'
p269
sg28
S'NBA'
p270
sg30
S'16'
p271
sg32
S'273'
p272
sg34
S'31'
p273
sg36
S'16'
p274
sg38
S'37'
p275
sg40
S'28'
p276
sg42
S'SAC'
p277
sg44
S'31'
p278
sg46
S'1'
p279
sg48
S'98'
p280
sg50
S'16'
p281
sg52
S'242'
p282
sg54
S'31'
p283
sg56
S'1997-98'
p284
sg58
S'103'
p285
sg60
S'19'
p286
sg62
S'.405'
p287
sg64
S'530'
p288
sg66
S'0'
p289
sba(isrc.gp1.models.Totals
Totals
p290
(dp291
g8
g3
sg10
g3
sg12
g3
sg14
g3
sg16
g3
sg18
g3
sg20
g3
sg22
g3
sg24
g3
sg26
g3
sg28
g3
sg30
g3
sg32
g3
sg34
g3
sg36
g3
sg38
g3
sg40
S'29'
p292
sg42
S'Did Not Play\xc2\xa0(other pro league\xe2\x80\x94Turkey)'
p293
sg44
g3
sg46
g3
sg48
g3
sg50
g3
sg52
g3
sg54
g3
sg56
S'1998-99'
p294
sg58
g3
sg60
g3
sg62
g3
sg64
g3
sg66
g3
sba(isrc.gp1.models.Totals
Totals
p295
(dp296
g8
g3
sg10
g3
sg12
g3
sg14
g3
sg16
g3
sg18
g3
sg20
g3
sg22
g3
sg24
g3
sg26
g3
sg28
g3
sg30
g3
sg32
g3
sg34
g3
sg36
g3
sg38
g3
sg40
S'30'
p297
sg42
S'Did Not Play\xc2\xa0(retired)'
p298
sg44
g3
sg46
g3
sg48
g3
sg50
g3
sg52
g3
sg54
g3
sg56
S'1999-00'
p299
sg58
g3
sg60
g3
sg62
g3
sg64
g3
sg66
g3
sba(isrc.gp1.models.Totals
Totals
p300
(dp301
g8
g265
sg10
S'14'
p302
sg12
S'.488'
p303
sg14
S'76'
p304
sg16
S'.286'
p305
sg18
g47
sg20
S'266'
p306
sg22
S'PG'
p307
sg24
S'.759'
p308
sg26
S'.496'
p309
sg28
S'NBA'
p310
sg30
g184
sg32
S'246'
p311
sg34
S'50'
p312
sg36
S'29'
p313
sg38
S'25'
p314
sg40
S'31'
p315
sg42
S'VAN'
p316
sg44
S'41'
p317
sg46
g279
sg48
S'116'
p318
sg50
S'22'
p319
sg52
S'232'
p320
sg54
S'20'
p321
sg56
S'2000-01'
p322
sg58
S'120'
p323
sg60
S'26'
p324
sg62
S'.500'
p325
sg64
S'486'
p326
sg66
g289
sbasS'_college'
p327
S'Louisiana State University'
p328
sS'_toYear'
p329
S'2001'
p330
sS'_height'
p331
S'6-1'
p332
sS'_active'
p333
I00
sS'_shootingHand'
p334
VRight
p335
sS'_name'
p336
S'Mahmoud Abdul-Rauf'
p337
sS'_per100Possessions'
p338
(lp339
(isrc.gp1.models.Per100Possession
Per100Possession
p340
(dp341
g8
S'1.0'
p342
sg10
S'2.8'
p343
sg12
S'.413'
p344
sS'_offensiveRating'
p345
S'96'
p346
sg14
S'5.8'
p347
sg16
S'.240'
p348
sg18
S'0.7'
p349
sg20
S'26.4'
p350
sg22
S'PG'
p351
sS'_defensiveRating'
p352
S'118'
p353
sg24
S'.857'
p354
sg28
S'NBA'
p355
sg30
S'1.5'
p356
sg32
S'28.3'
p357
sg34
S'4.2'
p358
sg36
S'2.7'
p359
sg38
S'3.4'
p360
sg40
S'21'
p361
sg42
S'DEN'
p362
sg44
S'67'
p363
sg46
S'0.1'
p364
sg48
S'11.0'
p365
sg50
S'2.4'
p366
sg52
S'25.5'
p367
sg54
S'2.4'
p368
sg56
S'1990-91'
p369
sg58
S'11.7'
p370
sg60
S'3.1'
p371
sg62
S'.432'
p372
sg64
S'1505'
p373
sg66
S'19'
p374
sba(isrc.gp1.models.Per100Possession
Per100Possession
p375
(dp376
g8
S'0.7'
p377
sg10
S'3.0'
p378
sg12
S'.421'
p379
sg345
S'99'
p380
sg14
S'6.1'
p381
sg16
S'.330'
p382
sg18
S'1.0'
p383
sg20
S'26.5'
p384
sg22
S'PG'
p385
sg352
S'113'
p386
sg24
S'.870'
p387
sg28
S'NBA'
p388
sg30
S'1.4'
p389
sg32
S'26.8'
p390
sg34
S'4.1'
p391
sg36
S'3.4'
p392
sg38
S'3.6'
p393
sg40
S'22'
p394
sg42
S'DEN'
p395
sg44
S'81'
p396
sg46
S'0.1'
p397
sg48
S'10.3'
p398
sg50
S'3.0'
p399
sg52
S'23.8'
p400
sg54
S'2.9'
p401
sg56
S'1991-92'
p402
sg58
S'11.3'
p403
sg60
S'3.7'
p404
sg62
S'.433'
p405
sg64
S'1538'
p406
sg66
S'11'
p407
sba(isrc.gp1.models.Per100Possession
Per100Possession
p408
(dp409
g8
S'0.9'
p410
sg10
S'3.5'
p411
sg12
S'.450'
p412
sg345
S'107'
p413
sg14
S'6.1'
p414
sg16
S'.355'
p415
sg18
S'1.2'
p416
sg20
S'27.6'
p417
sg22
S'PG'
p418
sg352
S'110'
p419
sg24
S'.935'
p420
sg28
S'NBA'
p421
sg30
S'1.5'
p422
sg32
S'25.0'
p423
sg34
S'3.2'
p424
sg36
S'4.1'
p425
sg38
S'4.0'
p426
sg40
S'23'
p427
sg42
S'DEN'
p428
sg44
S'81'
p429
sg46
S'0.1'
p430
sg48
S'10.0'
p431
sg50
S'3.9'
p432
sg52
S'21.5'
p433
sg54
S'3.1'
p434
sg56
S'1992-93'
p435
sg58
S'11.2'
p436
sg60
S'3.3'
p437
sg62
S'.465'
p438
sg64
S'2710'
p439
sg66
S'81'
p440
sba(isrc.gp1.models.Per100Possession
Per100Possession
p441
(dp442
g8
S'0.5'
p443
sg10
S'2.5'
p444
sg12
S'.460'
p445
sg345
S'109'
p446
sg14
S'6.9'
p447
sg16
S'.316'
p448
sg18
S'0.8'
p449
sg20
S'27.4'
p450
sg22
S'PG'
p451
sg352
S'107'
p452
sg24
S'.956'
p453
sg28
S'NBA'
p454
sg30
S'1.6'
p455
sg32
S'24.4'
p456
sg34
S'2.9'
p457
sg36
S'4.4'
p458
sg38
S'3.2'
p459
sg40
S'24'
p460
sg42
S'DEN'
p461
sg44
S'80'
p462
sg46
S'0.2'
p463
sg48
S'10.4'
p464
sg50
S'4.2'
p465
sg52
S'21.9'
p466
sg54
S'2.7'
p467
sg56
S'1993-94'
p468
sg58
S'11.2'
p469
sg60
S'2.9'
p470
sg62
S'.476'
p471
sg64
S'2617'
p472
sg66
S'78'
p473
sba(isrc.gp1.models.Per100Possession
Per100Possession
p474
(dp475
g8
S'0.8'
p476
sg10
S'5.4'
p477
sg12
S'.470'
p478
sg345
S'112'
p479
sg14
S'6.6'
p480
sg16
S'.386'
p481
sg18
S'2.1'
p482
sg20
S'29.4'
p483
sg22
S'PG'
p484
sg352
S'112'
p485
sg24
S'.885'
p486
sg28
S'NBA'
p487
sg30
S'1.9'
p488
sg32
S'25.3'
p489
sg34
S'3.2'
p490
sg36
S'3.9'
p491
sg38
S'3.5'
p492
sg40
S'25'
p493
sg42
S'DEN'
p494
sg44
S'73'
p495
sg46
S'0.2'
p496
sg48
S'9.8'
p497
sg50
S'3.5'
p498
sg52
S'19.9'
p499
sg54
S'2.6'
p500
sg56
S'1994-95'
p501
sg58
S'11.9'
p502
sg60
S'3.0'
p503
sg62
S'.492'
p504
sg64
S'2082'
p505
sg66
S'43'
p506
sba(isrc.gp1.models.Per100Possession
Per100Possession
p507
(dp508
g8
S'0.7'
p509
sg10
S'7.9'
p510
sg12
S'.434'
p511
sg345
S'114'
p512
sg14
S'10.0'
p513
sg16
S'.392'
p514
sg18
S'3.1'
p515
sg20
S'28.1'
p516
sg22
S'PG'
p517
sg352
S'112'
p518
sg24
S'.930'
p519
sg28
S'NBA'
p520
sg30
S'1.6'
p521
sg32
S'24.5'
p522
sg34
S'3.0'
p523
sg36
S'4.0'
p524
sg38
S'3.5'
p525
sg40
S'26'
p526
sg42
S'DEN'
p527
sg44
S'57'
p528
sg46
S'0.1'
p529
sg48
S'7.5'
p530
sg50
S'3.7'
p531
sg52
S'16.6'
p532
sg54
S'2.9'
p533
sg56
S'1995-96'
p534
sg58
S'10.6'
p535
sg60
S'3.0'
p536
sg62
S'.454'
p537
sg64
S'2029'
p538
sg66
S'53'
p539
sba(isrc.gp1.models.Per100Possession
Per100Possession
p540
(dp541
g8
S'0.4'
p542
sg10
S'6.1'
p543
sg12
S'.445'
p544
sg345
S'105'
p545
sg14
S'4.7'
p546
sg16
S'.382'
p547
sg18
S'2.3'
p548
sg20
S'25.5'
p549
sg22
S'PG'
p550
sg352
S'112'
p551
sg24
S'.846'
p552
sg28
S'NBA'
p553
sg30
S'1.4'
p554
sg32
S'22.9'
p555
sg34
S'4.3'
p556
sg36
S'3.4'
p557
sg38
S'3.0'
p558
sg40
S'27'
p559
sg42
S'SAC'
p560
sg44
S'75'
p561
sg46
S'0.1'
p562
sg48
S'7.8'
p563
sg50
S'2.8'
p564
sg52
S'16.8'
p565
sg54
S'2.6'
p566
sg56
S'1996-97'
p567
sg58
S'10.2'
p568
sg60
S'2.9'
p569
sg62
S'.468'
p570
sg64
S'2131'
p571
sg66
S'51'
p572
sba(isrc.gp1.models.Per100Possession
Per100Possession
p573
(dp574
g8
S'0.6'
p575
sg10
S'3.0'
p576
sg12
S'.377'
p577
sg345
S'90'
p578
sg14
S'5.7'
p579
sg16
S'.161'
p580
sg18
S'0.5'
p581
sg20
S'22.3'
p582
sg22
S'PG'
p583
sg352
S'110'
p584
sg24
S'1.000'
p585
sg28
S'NBA'
p586
sg30
S'1.6'
p587
sg32
S'26.8'
p588
sg34
S'3.0'
p589
sg36
S'1.6'
p590
sg38
S'3.6'
p591
sg40
S'28'
p592
sg42
S'SAC'
p593
sg44
S'31'
p594
sg46
S'0.1'
p595
sg48
S'9.6'
p596
sg50
S'1.6'
p597
sg52
S'23.8'
p598
sg54
S'3.0'
p599
sg56
S'1997-98'
p600
sg58
S'10.1'
p601
sg60
S'1.9'
p602
sg62
S'.405'
p603
sg64
S'530'
p604
sg66
g289
sba(isrc.gp1.models.Per100Possession
Per100Possession
p605
(dp606
g8
S'0.5'
p607
sg10
S'1.5'
p608
sg12
S'.488'
p609
sg345
S'104'
p610
sg14
S'8.2'
p611
sg16
S'.286'
p612
sg18
S'0.4'
p613
sg20
S'28.7'
p614
sg22
S'PG'
p615
sg352
S'111'
p616
sg24
S'.759'
p617
sg28
S'NBA'
p618
sg30
S'1.0'
p619
sg32
S'26.5'
p620
sg34
S'5.4'
p621
sg36
S'3.1'
p622
sg38
S'2.7'
p623
sg40
S'31'
p624
sg42
S'VAN'
p625
sg44
S'41'
p626
sg46
S'0.1'
p627
sg48
S'12.5'
p628
sg50
S'2.4'
p629
sg52
S'25.0'
p630
sg54
S'2.2'
p631
sg56
S'2000-01'
p632
sg58
S'12.9'
p633
sg60
S'2.8'
p634
sg62
S'.500'
p635
sg64
S'486'
p636
sg66
g289
sbasS'_advanced'
p637
(lp638
(isrc.gp1.models.Advanced
Advanced
p639
(dp640
S'_offensiveReboundPercentage'
p641
S'1.9'
p642
sS'_turnOverPercentage'
p643
S'9.5'
p644
sS'_winSharesPer48Minutes'
p645
S'-0.031'
p646
sS'_stealPercentage'
p647
S'1.5'
p648
sS'_usagePercentage'
p649
S'27.2'
p650
sS'_totalReboundsPercentage'
p651
S'3.8'
p652
sS'_defensiveBoxPlusMinus'
p653
S'-4.4'
p654
sg22
S'PG'
p655
sS'_valueOverReplacementPlayer'
p656
S'-1.6'
p657
sS'_trueShootingPercentage'
p658
S'.448'
p659
sS'_defensiveReboundPercentage'
p660
S'6.0'
p661
sS'_freeThrowsAttempRate'
p662
S'.097'
p663
sS'_threePointsAttempRate'
p664
S'.099'
p665
sg28
S'NBA'
p666
sS'_offensiveBoxPlusMinues'
p667
S'-1.7'
p668
sS'_assistPercentage'
p669
S'19.2'
p670
sS'_defensiveWinShares'
p671
S'-0.3'
p672
sg40
S'21'
p673
sg42
S'DEN'
p674
sg44
S'67'
p675
sS'_blockPercentage'
p676
S'0.1'
p677
sS'_playerEfficiencyRating'
p678
S'12.2'
p679
sS'_offensiveWinShares'
p680
S'-0.7'
p681
sg64
S'1505'
p682
sS'_boxPlusMinus'
p683
S'-6.1'
p684
sg56
S'1990-91'
p685
sS'_winShares'
p686
S'-1.0'
p687
sba(isrc.gp1.models.Advanced
Advanced
p688
(dp689
g641
S'1.5'
p690
sg643
S'11.6'
p691
sg645
S'.018'
p692
sg647
S'1.4'
p693
sg649
S'26.7'
p694
sg651
S'4.0'
p695
sg653
S'-3.5'
p696
sg22
S'PG'
p697
sg656
S'-1.3'
p698
sg658
S'.469'
p699
sg660
S'6.8'
p700
sg662
S'.128'
p701
sg664
S'.111'
p702
sg28
S'NBA'
p703
sg667
S'-1.7'
p704
sg669
S'21.0'
p705
sg671
S'0.8'
p706
sg40
S'22'
p707
sg42
S'DEN'
p708
sg44
S'81'
p709
sg676
S'0.2'
p710
sg678
S'12.6'
p711
sg680
S'-0.2'
p712
sg64
S'1538'
p713
sg683
S'-5.2'
p714
sg56
S'1991-92'
p715
sg686
S'0.6'
p716
sba(isrc.gp1.models.Advanced
Advanced
p717
(dp718
g641
S'2.0'
p719
sg643
S'11.0'
p720
sg645
S'.091'
p721
sg647
S'1.5'
p722
sg649
S'25.5'
p723
sg651
S'4.4'
p724
sg653
S'-2.1'
p725
sg22
S'PG'
p726
sg656
S'0.7'
p727
sg658
S'.515'
p728
sg660
S'6.8'
p729
sg662
S'.165'
p730
sg664
S'.140'
p731
sg28
S'NBA'
p732
sg667
S'1.1'
p733
sg669
S'20.8'
p734
sg671
S'2.2'
p735
sg40
S'23'
p736
sg42
S'DEN'
p737
sg44
S'81'
p738
sg676
S'0.2'
p739
sg678
S'15.6'
p740
sg680
S'3.0'
p741
sg64
S'2710'
p742
sg683
S'-1.0'
p743
sg56
S'1992-93'
p744
sg686
S'5.1'
p745
sba(isrc.gp1.models.Advanced
Advanced
p746
(dp747
g641
S'1.2'
p748
sg643
S'9.9'
p749
sg645
S'.125'
p750
sg647
S'1.6'
p751
sg649
S'24.9'
p752
sg651
S'3.6'
p753
sg653
S'-2.1'
p754
sg22
S'PG'
p755
sg656
S'0.9'
p756
sg658
S'.521'
p757
sg660
S'5.8'
p758
sg662
S'.179'
p759
sg664
S'.104'
p760
sg28
S'NBA'
p761
sg667
S'1.6'
p762
sg669
S'24.1'
p763
sg671
S'2.4'
p764
sg40
S'24'
p765
sg42
S'DEN'
p766
sg44
S'80'
p767
sg676
S'0.2'
p768
sg678
S'16.7'
p769
sg680
S'4.4'
p770
sg64
S'2617'
p771
sg683
S'-0.6'
p772
sg56
S'1993-94'
p773
sg686
S'6.8'
p774
sba(isrc.gp1.models.Advanced
Advanced
p775
(dp776
g641
S'1.9'
p777
sg643
S'10.0'
p778
sg645
S'.115'
p779
sg647
S'1.9'
p780
sg649
S'25.8'
p781
sg651
S'3.9'
p782
sg653
S'-2.8'
p783
sg22
S'PG'
p784
sg656
S'0.7'
p785
sg658
S'.543'
p786
sg660
S'5.9'
p787
sg662
S'.155'
p788
sg664
S'.214'
p789
sg28
S'NBA'
p790
sg667
S'2.2'
p791
sg669
S'23.0'
p792
sg671
S'1.3'
p793
sg40
S'25'
p794
sg42
S'DEN'
p795
sg44
S'73'
p796
sg676
S'0.3'
p797
sg678
S'17.8'
p798
sg680
S'3.8'
p799
sg64
S'2082'
p800
sg683
S'-0.6'
p801
sg56
S'1994-95'
p802
sg686
S'5.0'
p803
sba(isrc.gp1.models.Advanced
Advanced
p804
(dp805
g641
S'1.5'
p806
sg643
S'10.1'
p807
sg645
S'.131'
p808
sg647
S'1.6'
p809
sg649
S'25.1'
p810
sg651
S'3.9'
p811
sg653
S'-3.1'
p812
sg22
S'PG'
p813
sg656
S'1.6'
p814
sg658
S'.535'
p815
sg660
S'6.4'
p816
sg662
S'.164'
p817
sg664
S'.324'
p818
sg28
S'NBA'
p819
sg667
S'4.3'
p820
sg669
S'34.7'
p821
sg671
S'1.1'
p822
sg40
S'26'
p823
sg42
S'DEN'
p824
sg44
S'57'
p825
sg676
S'0.1'
p826
sg678
S'18.6'
p827
sg680
S'4.4'
p828
sg64
S'2029'
p829
sg683
S'1.1'
p830
sg56
S'1995-96'
p831
sg686
S'5.5'
p832
sba(isrc.gp1.models.Advanced
Advanced
p833
(dp834
g641
S'0.9'
p835
sg643
S'10.8'
p836
sg645
S'.060'
p837
sg647
S'1.4'
p838
sg649
S'23.2'
p839
sg651
S'3.3'
p840
sg653
S'-3.4'
p841
sg22
S'PG'
p842
sg656
S'-0.8'
p843
sg658
S'.524'
p844
sg660
S'5.9'
p845
sg662
S'.147'
p846
sg664
S'.266'
p847
sg28
S'NBA'
p848
sg667
S'-0.2'
p849
sg669
S'15.8'
p850
sg671
S'0.7'
p851
sg40
S'27'
p852
sg42
S'SAC'
p853
sg44
S'75'
p854
sg676
S'0.2'
p855
sg678
S'13.2'
p856
sg680
S'2.0'
p857
sg64
S'2131'
p858
sg683
S'-3.5'
p859
sg56
S'1996-97'
p860
sg686
S'2.7'
p861
sba(isrc.gp1.models.Advanced
Advanced
p862
(dp863
g641
S'1.2'
p864
sg643
S'6.4'
p865
sg645
S'-0.025'
p866
sg647
S'1.6'
p867
sg649
S'25.1'
p868
sg651
S'3.9'
p869
sg653
S'-3.7'
p870
sg22
S'PG'
p871
sg656
S'-0.7'
p872
sg658
S'.405'
p873
sg660
S'6.7'
p874
sg662
S'.059'
p875
sg664
S'.114'
p876
sg28
S'NBA'
p877
sg667
S'-3.4'
p878
sg669
S'19.7'
p879
sg671
S'0.2'
p880
sg40
S'28'
p881
sg42
S'SAC'
p882
sg44
S'31'
p883
sg676
S'0.1'
p884
sg678
S'10.5'
p885
sg680
S'-0.5'
p886
sg64
S'530'
p887
sg683
S'-7.1'
p888
sg56
S'1997-98'
p889
sg686
S'-0.3'
p890
sba(isrc.gp1.models.Advanced
Advanced
p891
(dp892
g641
S'1.2'
p893
sg643
S'9.1'
p894
sg645
S'.070'
p895
sg647
S'1.0'
p896
sg649
S'26.8'
p897
sg651
S'2.9'
p898
sg653
S'-5.3'
p899
sg22
S'PG'
p900
sg656
S'-0.3'
p901
sg658
S'.514'
p902
sg660
S'4.7'
p903
sg662
S'.118'
p904
sg664
S'.057'
p905
sg28
S'NBA'
p906
sg667
S'0.8'
p907
sg669
S'32.7'
p908
sg671
S'0.0'
p909
sg40
S'31'
p910
sg42
S'VAN'
p911
sg44
S'41'
p912
sg676
S'0.1'
p913
sg678
S'16.7'
p914
sg680
S'0.7'
p915
sg64
S'486'
p916
sg683
S'-4.5'
p917
sg56
S'2000-01'
p918
sg686
S'0.7'
p919
sbasS'_per36Minutes'
p920
(lp921
(isrc.gp1.models.Per36Minutes
Per36Minutes
p922
(dp923
g8
S'0.8'
p924
sg10
S'2.4'
p925
sg12
S'.413'
p926
sg14
S'4.9'
p927
sg16
S'.240'
p928
sg18
S'0.6'
p929
sg20
S'22.5'
p930
sg22
S'PG'
p931
sg24
S'.857'
p932
sg28
S'NBA'
p933
sg30
S'1.3'
p934
sg32
S'24.1'
p935
sg34
S'3.6'
p936
sg36
S'2.3'
p937
sg38
S'2.9'
p938
sg40
S'21'
p939
sg42
S'DEN'
p940
sg44
S'67'
p941
sg46
S'0.1'
p942
sg48
S'9.4'
p943
sg50
S'2.0'
p944
sg52
S'21.7'
p945
sg54
S'2.1'
p946
sg56
S'1990-91'
p947
sg58
S'10.0'
p948
sg60
S'2.6'
p949
sg62
S'.432'
p950
sg64
S'1505'
p951
sg66
S'19'
p952
sba(isrc.gp1.models.Per36Minutes
Per36Minutes
p953
(dp954
g8
S'0.5'
p955
sg10
S'2.2'
p956
sg12
S'.421'
p957
sg14
S'4.5'
p958
sg16
S'.330'
p959
sg18
S'0.7'
p960
sg20
S'19.6'
p961
sg22
S'PG'
p962
sg24
S'.870'
p963
sg28
S'NBA'
p964
sg30
S'1.0'
p965
sg32
S'19.8'
p966
sg34
S'3.0'
p967
sg36
S'2.5'
p968
sg38
S'2.7'
p969
sg40
S'22'
p970
sg42
S'DEN'
p971
sg44
S'81'
p972
sg46
S'0.1'
p973
sg48
S'7.6'
p974
sg50
S'2.2'
p975
sg52
S'17.6'
p976
sg54
S'2.2'
p977
sg56
S'1991-92'
p978
sg58
S'8.3'
p979
sg60
S'2.7'
p980
sg62
S'.433'
p981
sg64
S'1538'
p982
sg66
S'11'
p983
sba(isrc.gp1.models.Per36Minutes
Per36Minutes
p984
(dp985
g8
S'0.7'
p986
sg10
S'2.6'
p987
sg12
S'.450'
p988
sg14
S'4.6'
p989
sg16
S'.355'
p990
sg18
S'0.9'
p991
sg20
S'20.6'
p992
sg22
S'PG'
p993
sg24
S'.935'
p994
sg28
S'NBA'
p995
sg30
S'1.1'
p996
sg32
S'18.7'
p997
sg34
S'2.4'
p998
sg36
S'3.1'
p999
sg38
S'3.0'
p1000
sg40
S'23'
p1001
sg42
S'DEN'
p1002
sg44
S'81'
p1003
sg46
S'0.1'
p1004
sg48
S'7.5'
p1005
sg50
S'2.9'
p1006
sg52
S'16.1'
p1007
sg54
S'2.3'
p1008
sg56
S'1992-93'
p1009
sg58
S'8.4'
p1010
sg60
S'2.5'
p1011
sg62
S'.465'
p1012
sg64
S'2710'
p1013
sg66
S'81'
p1014
sba(isrc.gp1.models.Per36Minutes
Per36Minutes
p1015
(dp1016
g8
S'0.4'
p1017
sg10
S'1.8'
p1018
sg12
S'.460'
p1019
sg14
S'5.0'
p1020
sg16
S'.316'
p1021
sg18
S'0.6'
p1022
sg20
S'19.8'
p1023
sg22
S'PG'
p1024
sg24
S'.956'
p1025
sg28
S'NBA'
p1026
sg30
S'1.1'
p1027
sg32
S'17.6'
p1028
sg34
S'2.1'
p1029
sg36
S'3.2'
p1030
sg38
S'2.3'
p1031
sg40
S'24'
p1032
sg42
S'DEN'
p1033
sg44
S'80'
p1034
sg46
S'0.1'
p1035
sg48
S'7.5'
p1036
sg50
S'3.0'
p1037
sg52
S'15.8'
p1038
sg54
S'1.9'
p1039
sg56
S'1993-94'
p1040
sg58
S'8.1'
p1041
sg60
S'2.1'
p1042
sg62
S'.476'
p1043
sg64
S'2617'
p1044
sg66
S'78'
p1045
sba(isrc.gp1.models.Per36Minutes
Per36Minutes
p1046
(dp1047
g8
S'0.6'
p1048
sg10
S'3.7'
p1049
sg12
S'.470'
p1050
sg14
S'4.5'
p1051
sg16
S'.386'
p1052
sg18
S'1.4'
p1053
sg20
S'20.1'
p1054
sg22
S'PG'
p1055
sg24
S'.885'
p1056
sg28
S'NBA'
p1057
sg30
S'1.3'
p1058
sg32
S'17.4'
p1059
sg34
S'2.2'
p1060
sg36
S'2.7'
p1061
sg38
S'2.4'
p1062
sg40
S'25'
p1063
sg42
S'DEN'
p1064
sg44
S'73'
p1065
sg46
S'0.2'
p1066
sg48
S'6.7'
p1067
sg50
S'2.4'
p1068
sg52
S'13.7'
p1069
sg54
S'1.8'
p1070
sg56
S'1994-95'
p1071
sg58
S'8.2'
p1072
sg60
S'2.1'
p1073
sg62
S'.492'
p1074
sg64
S'2082'
p1075
sg66
S'43'
p1076
sba(isrc.gp1.models.Per36Minutes
Per36Minutes
p1077
(dp1078
g8
S'0.5'
p1079
sg10
S'5.5'
p1080
sg12
S'.434'
p1081
sg14
S'6.9'
p1082
sg16
S'.392'
p1083
sg18
S'2.1'
p1084
sg20
S'19.4'
p1085
sg22
S'PG'
p1086
sg24
S'.930'
p1087
sg28
S'NBA'
p1088
sg30
S'1.1'
p1089
sg32
S'16.9'
p1090
sg34
S'2.1'
p1091
sg36
S'2.8'
p1092
sg38
S'2.4'
p1093
sg40
S'26'
p1094
sg42
S'DEN'
p1095
sg44
S'57'
p1096
sg46
S'0.1'
p1097
sg48
S'5.2'
p1098
sg50
S'2.6'
p1099
sg52
S'11.5'
p1100
sg54
S'2.0'
p1101
sg56
S'1995-96'
p1102
sg58
S'7.3'
p1103
sg60
S'2.0'
p1104
sg62
S'.454'
p1105
sg64
S'2029'
p1106
sg66
S'53'
p1107
sba(isrc.gp1.models.Per36Minutes
Per36Minutes
p1108
(dp1109
g8
S'0.3'
p1110
sg10
S'4.2'
p1111
sg12
S'.445'
p1112
sg14
S'3.2'
p1113
sg16
S'.382'
p1114
sg18
S'1.6'
p1115
sg20
S'17.4'
p1116
sg22
S'PG'
p1117
sg24
S'.846'
p1118
sg28
S'NBA'
p1119
sg30
S'0.9'
p1120
sg32
S'15.6'
p1121
sg34
S'2.9'
p1122
sg36
S'2.3'
p1123
sg38
S'2.1'
p1124
sg40
S'27'
p1125
sg42
S'SAC'
p1126
sg44
S'75'
p1127
sg46
S'0.1'
p1128
sg48
S'5.4'
p1129
sg50
S'1.9'
p1130
sg52
S'11.5'
p1131
sg54
S'1.8'
p1132
sg56
S'1996-97'
p1133
sg58
S'6.9'
p1134
sg60
S'2.0'
p1135
sg62
S'.468'
p1136
sg64
S'2131'
p1137
sg66
S'51'
p1138
sba(isrc.gp1.models.Per36Minutes
Per36Minutes
p1139
(dp1140
g8
S'0.4'
p1141
sg10
S'2.1'
p1142
sg12
S'.377'
p1143
sg14
S'3.9'
p1144
sg16
S'.161'
p1145
sg18
S'0.3'
p1146
sg20
S'15.4'
p1147
sg22
S'PG'
p1148
sg24
S'1.000'
p1149
sg28
S'NBA'
p1150
sg30
S'1.1'
p1151
sg32
S'18.5'
p1152
sg34
S'2.1'
p1153
sg36
S'1.1'
p1154
sg38
S'2.5'
p1155
sg40
S'28'
p1156
sg42
S'SAC'
p1157
sg44
S'31'
p1158
sg46
S'0.1'
p1159
sg48
S'6.7'
p1160
sg50
S'1.1'
p1161
sg52
S'16.4'
p1162
sg54
S'2.1'
p1163
sg56
S'1997-98'
p1164
sg58
S'7.0'
p1165
sg60
S'1.3'
p1166
sg62
S'.405'
p1167
sg64
S'530'
p1168
sg66
g289
sba(isrc.gp1.models.Per36Minutes
Per36Minutes
p1169
(dp1170
g8
S'0.4'
p1171
sg10
S'1.0'
p1172
sg12
S'.488'
p1173
sg14
S'5.6'
p1174
sg16
S'.286'
p1175
sg18
S'0.3'
p1176
sg20
S'19.7'
p1177
sg22
S'PG'
p1178
sg24
S'.759'
p1179
sg28
S'NBA'
p1180
sg30
S'0.7'
p1181
sg32
S'18.2'
p1182
sg34
S'3.7'
p1183
sg36
S'2.1'
p1184
sg38
S'1.9'
p1185
sg40
S'31'
p1186
sg42
S'VAN'
p1187
sg44
S'41'
p1188
sg46
S'0.1'
p1189
sg48
S'8.6'
p1190
sg50
S'1.6'
p1191
sg52
S'17.2'
p1192
sg54
S'1.5'
p1193
sg56
S'2000-01'
p1194
sg58
S'8.9'
p1195
sg60
S'1.9'
p1196
sg62
S'.500'
p1197
sg64
S'486'
p1198
sg66
g289
sbasS'_fromYear'
p1199
S'1991'
p1200
sS'_url'
p1201
S'http://www.basketball-reference.com/players/a/abdulma02.html'
p1202
sS'_perGame'
p1203
(isrc.gp1.models.PerGame
PerGame
p1204
(dp1205
g8
S'0.1'
p1206
sg10
S'0.3'
p1207
sg12
S'.488'
p1208
sS'_effectiveFieldGalPercentage'
p1209
S'.496'
p1210
sg14
S'1.9'
p1211
sg16
S'.286'
p1212
sg18
S'0.1'
p1213
sg20
S'6.5'
p1214
sg22
S'PG'
p1215
sg24
S'.759'
p1216
sg28
S'NBA'
p1217
sg30
S'0.2'
p1218
sg34
S'1.2'
p1219
sS'_fieldGoalsttempted'
p1220
S'6.0'
p1221
sg36
S'0.7'
p1222
sg38
S'0.6'
p1223
sg40
S'31'
p1224
sg42
S'VAN'
p1225
sg44
S'41'
p1226
sg46
S'0.0'
p1227
sg48
S'2.8'
p1228
sg50
S'0.5'
p1229
sg52
S'5.7'
p1230
sg54
S'0.5'
p1231
sg56
S'2000-01'
p1232
sg58
S'2.9'
p1233
sg60
S'0.6'
p1234
sg62
S'.500'
p1235
sg64
S'11.9'
p1236
sg66
g289
sbsS'_weight'
p1237
S'162'
p1238
sS'_dob'
p1239
S'9-3-1969'
p1240
sS'_salary'
p1241
(lp1242
(isrc.gp1.models.Salary
Salary
p1243
(dp1244
g42
S'Denver Nuggets'
p1245
sg28
S'NBA'
p1246
sg1241
S'$1,660,000'
p1247
sg56
S'1990-91'
p1248
sba(isrc.gp1.models.Salary
Salary
p1249
(dp1250
g42
S'Denver Nuggets'
p1251
sg28
S'NBA'
p1252
sg1241
S'$2,008,000'
p1253
sg56
S'1991-92'
p1254
sba(isrc.gp1.models.Salary
Salary
p1255
(dp1256
g42
S'Denver Nuggets'
p1257
sg28
S'NBA'
p1258
sg1241
S'$2,358,000'
p1259
sg56
S'1992-93'
p1260
sba(isrc.gp1.models.Salary
Salary
p1261
(dp1262
g42
S'Denver Nuggets'
p1263
sg28
S'NBA'
p1264
sg1241
S'$1,825,000'
p1265
sg56
S'1993-94'
p1266
sba(isrc.gp1.models.Salary
Salary
p1267
(dp1268
g42
S'Denver Nuggets'
p1269
sg28
S'NBA'
p1270
sg1241
S'$2,200,000'
p1271
sg56
S'1994-95'
p1272
sba(isrc.gp1.models.Salary
Salary
p1273
(dp1274
g42
S'Denver Nuggets'
p1275
sg28
S'NBA'
p1276
sg1241
S'$2,600,000'
p1277
sg56
S'1995-96'
p1278
sba(isrc.gp1.models.Salary
Salary
p1279
(dp1280
g42
S'Sacramento Kings'
p1281
sg28
S'NBA'
p1282
sg1241
S'$3,100,000'
p1283
sg56
S'1996-97'
p1284
sba(isrc.gp1.models.Salary
Salary
p1285
(dp1286
g42
S'Sacramento Kings'
p1287
sg28
S'NBA'
p1288
sg1241
S'$3,300,000'
p1289
sg56
S'1997-98'
p1290
sba(isrc.gp1.models.Salary
Salary
p1291
(dp1292
g42
S'Vancouver Grizzlies'
p1293
sg28
S'NBA'
p1294
sg1241
S'$798,500'
p1295
sg56
S'2000-01'
p1296
sbasg22
S'G'
p1297
sb.