(isrc.gp1.models.Player
Player
p0
(dp1
S'_experience'
p2
V4
p3
sS'_totals'
p4
(lp5
(isrc.gp1.models.Totals
Totals
p6
(dp7
S'_offensiveRebounds'
p8
S'2'
p9
sS'_threePointsAttempted'
p10
S'0'
p11
sS'_fieldGoalsPercentage'
p12
S'.000'
p13
sS'_assist'
p14
S'1'
p15
sS'_threePointsPercentage'
p16
g11
sS'_threePoints'
p17
g11
sS'_points'
p18
S'NA'
p19
sS'_position'
p20
S'PF'
p21
sS'_freeThrowsPercentage'
p22
g15
sS'_effectiveFieldGoalPercentage'
p23
g15
sS'_league'
p24
S'NBA'
p25
sS'_steals'
p26
g15
sS'_fieldGoalsAttempted'
p27
S'3'
p28
sS'_personalFouls'
p29
g15
sS'_freeThrowsAttempted'
p30
S'.500'
p31
sS'_totalRebounds'
p32
g15
sS'_age'
p33
S'23'
p34
sS'_team'
p35
S'SAS'
p36
sS'_games'
p37
g28
sS'_blocks'
p38
g11
sS'_twoPoints'
p39
g28
sS'_freeThrows'
p40
g9
sS'_twoPointsAttempted'
p41
S'.000'
p42
sS'_defensiveRebounds'
p43
g28
sS'_season'
p44
S'2011-12'
p45
sS'_fieldGoals'
p46
g11
sS'_turnOvers'
p47
g11
sS'_twoPointsPercentage'
p48
S'.000'
p49
sS'_minutesPlayed'
p50
S'15'
p51
sS'_gamesStarted'
p52
g11
sba(isrc.gp1.models.Totals
Totals
p53
(dp54
g8
S'11'
p55
sg10
g11
sg12
S'.500'
p56
sg14
g9
sg16
S'5'
p57
sg17
g11
sg18
g19
sg20
S'PF'
p58
sg22
g57
sg23
g57
sg24
S'NBA'
p59
sg26
g9
sg27
S'10'
p60
sg29
S'15'
p61
sg30
S'.625'
p62
sg32
S'4'
p63
sg33
S'24'
p64
sg35
S'TOT'
p65
sg37
S'12'
p66
sg38
g28
sg39
S'10'
p67
sg40
S'8'
p68
sg41
S'.500'
p69
sg43
S'16'
p70
sg44
S'2012-13'
p71
sg46
g57
sg47
g68
sg48
S'.500'
p72
sg50
S'57'
p73
sg52
g11
sba(isrc.gp1.models.Totals
Totals
p74
(dp75
g8
g57
sg10
g11
sg12
S'.000'
p76
sg14
g11
sg16
g11
sg17
g11
sg18
g19
sg20
S'PF'
p77
sg22
g11
sg23
g28
sg24
S'NBA'
p78
sg26
g15
sg27
g15
sg29
g28
sg30
S'.750'
p79
sg32
g9
sg33
S'24'
p80
sg35
S'GSW'
p81
sg37
g57
sg38
g15
sg39
g15
sg40
g63
sg41
S'.000'
p82
sg43
g57
sg44
S'2012-13'
p83
sg46
g11
sg47
g15
sg48
S'.000'
p84
sg50
S'21'
p85
sg52
g11
sba(isrc.gp1.models.Totals
Totals
p86
(dp87
g8
S'6'
p88
sg10
g11
sg12
S'.556'
p89
sg14
g9
sg16
g57
sg17
g11
sg18
g19
sg20
S'PF'
p90
sg22
g57
sg23
g9
sg24
S'NBA'
p91
sg26
g15
sg27
S'9'
p92
sg29
S'12'
p93
sg30
S'.500'
p94
sg32
g9
sg33
S'24'
p95
sg35
S'CHI'
p96
sg37
S'7'
p97
sg38
g9
sg39
g92
sg40
g63
sg41
S'.556'
p98
sg43
S'11'
p99
sg44
S'2012-13'
p100
sg46
g57
sg47
g97
sg48
S'.556'
p101
sg50
S'36'
p102
sg52
g11
sba(isrc.gp1.models.Totals
Totals
p103
(dp104
g8
g57
sg10
g63
sg12
S'.438'
p105
sg14
g9
sg16
S'.250'
p106
sg17
g15
sg18
S'15'
p107
sg20
S'PF'
p108
sg22
S'.000'
p109
sg23
S'.469'
p110
sg24
S'NBA'
p111
sg26
g11
sg27
S'16'
p112
sg29
g57
sg30
g9
sg32
S'21'
p113
sg33
S'25'
p114
sg35
S'TOT'
p115
sg37
g68
sg38
g28
sg39
g88
sg40
g11
sg41
S'12'
p116
sg43
S'16'
p117
sg44
S'2013-14'
p118
sg46
g97
sg47
g92
sg48
S'.500'
p119
sg50
S'63'
p120
sg52
g11
sba(isrc.gp1.models.Totals
Totals
p121
(dp122
g8
g68
sg10
g11
sg12
S'.250'
p123
sg14
g11
sg16
g15
sg17
g11
sg18
g19
sg20
S'PF'
p124
sg22
g15
sg23
g11
sg24
S'NBA'
p125
sg26
g9
sg27
g63
sg29
g9
sg30
S'.000'
p126
sg32
g11
sg33
S'25'
p127
sg35
S'SAS'
p128
sg37
g15
sg38
g15
sg39
g63
sg40
g9
sg41
S'.250'
p129
sg43
g92
sg44
S'2013-14'
p130
sg46
g15
sg47
g11
sg48
S'.250'
p131
sg50
S'15'
p132
sg52
g11
sba(isrc.gp1.models.Totals
Totals
p133
(dp134
g8
g68
sg10
g63
sg12
S'.500'
p135
sg14
g11
sg16
S'.250'
p136
sg17
g15
sg18
g19
sg20
S'PF'
p137
sg22
g63
sg23
S'.542'
p138
sg24
S'NBA'
p139
sg26
g15
sg27
S'12'
p140
sg29
S'13'
p141
sg30
g11
sg32
g9
sg33
S'25'
p142
sg35
S'UTA'
p143
sg37
g97
sg38
g68
sg39
g57
sg40
g11
sg41
g68
sg43
S'12'
p144
sg44
S'2013-14'
p145
sg46
g88
sg47
g57
sg48
S'.625'
p146
sg50
S'48'
p147
sg52
g11
sba(isrc.gp1.models.Totals
Totals
p148
(dp149
g8
S'16'
p150
sg10
g97
sg12
S'.450'
p151
sg14
g97
sg16
S'.000'
p152
sg17
g11
sg18
S'45'
p153
sg20
S'PF'
p154
sg22
S'.692'
p155
sg23
S'.450'
p156
sg24
S'NBA'
p157
sg26
g28
sg27
S'40'
p158
sg29
S'17'
p159
sg30
S'13'
p160
sg32
S'56'
p161
sg33
S'26'
p162
sg35
S'PHI'
p163
sg37
S'17'
p164
sg38
g15
sg39
S'18'
p165
sg40
g92
sg41
S'33'
p166
sg43
S'40'
p167
sg44
S'2014-15'
p168
sg46
S'18'
p169
sg47
S'13'
p170
sg48
S'.545'
p171
sg50
S'194'
p172
sg52
g11
sbasS'_college'
p173
S'San Diego State University'
p174
sS'_toYear'
p175
S'2015'
p176
sS'_height'
p177
S'6-9'
p178
sS'_active'
p179
I01
sS'_shootingHand'
p180
VRight
p181
sS'_name'
p182
S'Malcolm Thomas'
p183
sS'_per100Possessions'
p184
(lp185
(isrc.gp1.models.Per100Possession
Per100Possession
p186
(dp187
g8
S'6.9'
p188
sg10
S'0.0'
p189
sg12
S'.000'
p190
sS'_offensiveRating'
p191
S'97'
p192
sg14
S'3.4'
p193
sg16
S'0.0'
p194
sg17
S'0.0'
p195
sg18
S'62'
p196
sg20
S'PF'
p197
sS'_defensiveRating'
p198
g19
sg22
S'3.4'
p199
sg24
S'NBA'
p200
sg26
S'3.4'
p201
sg27
S'10.3'
p202
sg29
S'3.4'
p203
sg30
S'.500'
p204
sg32
S'3.4'
p205
sg33
S'23'
p206
sg35
S'SAS'
p207
sg37
g28
sg38
S'0.0'
p208
sg39
S'10.3'
p209
sg40
S'6.9'
p210
sg41
S'.000'
p211
sg43
S'10.3'
p212
sg44
S'2011-12'
p213
sg46
S'0.0'
p214
sg47
S'0.0'
p215
sg48
S'3.4'
p216
sg50
S'15'
p217
sg52
g11
sba(isrc.gp1.models.Per100Possession
Per100Possession
p218
(dp219
g8
S'10.2'
p220
sg10
S'0.0'
p221
sg12
S'.500'
p222
sg191
S'100'
p223
sg14
S'1.8'
p224
sg16
S'4.6'
p225
sg17
S'0.0'
p226
sg18
S'109'
p227
sg20
S'PF'
p228
sg198
g19
sg22
S'4.6'
p229
sg24
S'NBA'
p230
sg26
S'1.8'
p231
sg27
S'9.2'
p232
sg29
S'13.8'
p233
sg30
S'.625'
p234
sg32
S'3.7'
p235
sg33
S'24'
p236
sg35
S'TOT'
p237
sg37
S'12'
p238
sg38
S'2.8'
p239
sg39
S'9.2'
p240
sg40
S'7.4'
p241
sg41
S'.500'
p242
sg43
S'14.8'
p243
sg44
S'2012-13'
p244
sg46
S'4.6'
p245
sg47
S'7.4'
p246
sg48
S'4.6'
p247
sg50
S'57'
p248
sg52
g11
sba(isrc.gp1.models.Per100Possession
Per100Possession
p249
(dp250
g8
S'12.1'
p251
sg10
S'0.0'
p252
sg12
S'.000'
p253
sg191
S'104'
p254
sg14
S'0.0'
p255
sg16
S'0.0'
p256
sg17
S'0.0'
p257
sg18
S'104'
p258
sg20
S'PF'
p259
sg198
g19
sg22
S'0.0'
p260
sg24
S'NBA'
p261
sg26
S'2.4'
p262
sg27
S'2.4'
p263
sg29
S'7.3'
p264
sg30
S'.750'
p265
sg32
S'4.8'
p266
sg33
S'24'
p267
sg35
S'GSW'
p268
sg37
g57
sg38
S'2.4'
p269
sg39
S'2.4'
p270
sg40
S'9.7'
p271
sg41
S'.000'
p272
sg43
S'12.1'
p273
sg44
S'2012-13'
p274
sg46
S'0.0'
p275
sg47
S'2.4'
p276
sg48
S'7.3'
p277
sg50
S'21'
p278
sg52
g11
sba(isrc.gp1.models.Per100Possession
Per100Possession
p279
(dp280
g8
S'9.0'
p281
sg10
S'0.0'
p282
sg12
S'.556'
p283
sg191
S'98'
p284
sg14
S'3.0'
p285
sg16
S'7.5'
p286
sg17
S'0.0'
p287
sg18
S'111'
p288
sg20
S'PF'
p289
sg198
g19
sg22
S'7.5'
p290
sg24
S'NBA'
p291
sg26
S'1.5'
p292
sg27
S'13.4'
p293
sg29
S'17.9'
p294
sg30
S'.500'
p295
sg32
S'3.0'
p296
sg33
S'24'
p297
sg35
S'CHI'
p298
sg37
g97
sg38
S'3.0'
p299
sg39
S'13.4'
p300
sg40
S'6.0'
p301
sg41
S'.556'
p302
sg43
S'16.4'
p303
sg44
S'2012-13'
p304
sg46
S'7.5'
p305
sg47
S'10.4'
p306
sg48
S'3.0'
p307
sg50
S'36'
p308
sg52
g11
sba(isrc.gp1.models.Per100Possession
Per100Possession
p309
(dp310
g8
S'4.1'
p311
sg10
S'3.3'
p312
sg12
S'.438'
p313
sg191
S'67'
p314
sg14
S'1.7'
p315
sg16
S'.250'
p316
sg17
S'0.8'
p317
sg18
S'12.4'
p318
sg20
S'PF'
p319
sg198
S'107'
p320
sg22
S'.000'
p321
sg24
S'NBA'
p322
sg26
S'0.0'
p323
sg27
S'13.2'
p324
sg29
S'4.1'
p325
sg30
S'1.7'
p326
sg32
S'17.3'
p327
sg33
S'25'
p328
sg35
S'TOT'
p329
sg37
g68
sg38
S'2.5'
p330
sg39
S'5.0'
p331
sg40
S'0.0'
p332
sg41
S'9.9'
p333
sg43
S'13.2'
p334
sg44
S'2013-14'
p335
sg46
S'5.8'
p336
sg47
S'7.4'
p337
sg48
S'.500'
p338
sg50
S'63'
p339
sg52
g11
sba(isrc.gp1.models.Per100Possession
Per100Possession
p340
(dp341
g8
S'27.0'
p342
sg10
S'0.0'
p343
sg12
S'.250'
p344
sg191
S'88'
p345
sg14
S'0.0'
p346
sg16
S'3.4'
p347
sg17
S'0.0'
p348
sg18
S'47'
p349
sg20
S'PF'
p350
sg198
g19
sg22
S'3.4'
p351
sg24
S'NBA'
p352
sg26
S'6.7'
p353
sg27
S'13.5'
p354
sg29
S'6.7'
p355
sg30
S'.000'
p356
sg32
S'0.0'
p357
sg33
S'25'
p358
sg35
S'SAS'
p359
sg37
g15
sg38
S'3.4'
p360
sg39
S'13.5'
p361
sg40
S'6.7'
p362
sg41
S'.250'
p363
sg43
S'30.3'
p364
sg44
S'2013-14'
p365
sg46
S'3.4'
p366
sg47
S'0.0'
p367
sg48
S'0.0'
p368
sg50
S'15'
p369
sg52
g11
sba(isrc.gp1.models.Per100Possession
Per100Possession
p370
(dp371
g8
S'8.8'
p372
sg10
S'4.4'
p373
sg12
S'.500'
p374
sg191
S'113'
p375
sg14
S'0.0'
p376
sg16
S'.250'
p377
sg17
S'1.1'
p378
sg18
S'73'
p379
sg20
S'PF'
p380
sg198
g19
sg22
S'4.4'
p381
sg24
S'NBA'
p382
sg26
S'1.1'
p383
sg27
S'13.1'
p384
sg29
S'14.2'
p385
sg30
S'0.0'
p386
sg32
S'2.2'
p387
sg33
S'25'
p388
sg35
S'UTA'
p389
sg37
g97
sg38
S'8.8'
p390
sg39
S'5.5'
p391
sg40
S'0.0'
p392
sg41
S'8.8'
p393
sg43
S'13.1'
p394
sg44
S'2013-14'
p395
sg46
S'6.6'
p396
sg47
S'5.5'
p397
sg48
S'.625'
p398
sg50
S'48'
p399
sg52
g11
sba(isrc.gp1.models.Per100Possession
Per100Possession
p400
(dp401
g8
S'4.1'
p402
sg10
S'1.8'
p403
sg12
S'.450'
p404
sg191
S'91'
p405
sg14
S'1.8'
p406
sg16
S'.000'
p407
sg17
S'0.0'
p408
sg18
S'11.6'
p409
sg20
S'PF'
p410
sg198
S'106'
p411
sg22
S'.692'
p412
sg24
S'NBA'
p413
sg26
S'0.8'
p414
sg27
S'10.3'
p415
sg29
S'4.4'
p416
sg30
S'3.4'
p417
sg32
S'14.5'
p418
sg33
S'26'
p419
sg35
S'PHI'
p420
sg37
S'17'
p421
sg38
S'0.3'
p422
sg39
S'4.7'
p423
sg40
S'2.3'
p424
sg41
S'8.5'
p425
sg43
S'10.3'
p426
sg44
S'2014-15'
p427
sg46
S'4.7'
p428
sg47
S'3.4'
p429
sg48
S'.545'
p430
sg50
S'194'
p431
sg52
g11
sbasS'_advanced'
p432
(lp433
(isrc.gp1.models.Advanced
Advanced
p434
(dp435
S'_offensiveReboundPercentage'
p436
S'7.8'
p437
sS'_turnOverPercentage'
p438
S'0.0'
p439
sS'_winSharesPer48Minutes'
p440
S'-0.028'
p441
sS'_stealPercentage'
p442
S'3.4'
p443
sS'_usagePercentage'
p444
S'11.8'
p445
sS'_totalReboundsPercentage'
p446
S'11.5'
p447
sS'_defensiveBoxPlusMinus'
p448
S'5.0'
p449
sg20
S'PF'
p450
sS'_valueOverReplacementPlayer'
p451
S'0.0'
p452
sS'_trueShootingPercentage'
p453
S'.129'
p454
sS'_defensiveReboundPercentage'
p455
S'15.0'
p456
sS'_freeThrowsAttempRate'
p457
S'.667'
p458
sS'_threePointsAttempRate'
p459
S'.000'
p460
sg24
S'NBA'
p461
sS'_offensiveBoxPlusMinues'
p462
S'-7.1'
p463
sS'_assistPercentage'
p464
S'8.1'
p465
sS'_defensiveWinShares'
p466
S'0.0'
p467
sg33
S'23'
p468
sg35
S'SAS'
p469
sg37
g28
sS'_blockPercentage'
p470
S'4.8'
p471
sS'_playerEfficiencyRating'
p472
S'7.1'
p473
sS'_offensiveWinShares'
p474
S'0.0'
p475
sg50
S'15'
p476
sS'_boxPlusMinus'
p477
S'-2.1'
p478
sg44
S'2011-12'
p479
sS'_winShares'
p480
S'0.0'
p481
sba(isrc.gp1.models.Advanced
Advanced
p482
(dp483
g436
S'10.0'
p484
sg438
S'18.2'
p485
sg440
S'.133'
p486
sg442
S'1.9'
p487
sg444
S'13.2'
p488
sg446
S'15.9'
p489
sg448
S'2.2'
p490
sg20
S'PF'
p491
sg451
S'0.0'
p492
sg453
S'.555'
p493
sg455
S'21.6'
p494
sg457
S'.800'
p495
sg459
S'.000'
p496
sg24
S'NBA'
p497
sg462
S'-2.7'
p498
sg464
S'10.3'
p499
sg466
S'0.1'
p500
sg33
S'24'
p501
sg35
S'TOT'
p502
sg37
S'12'
p503
sg470
S'2.7'
p504
sg472
S'13.8'
p505
sg474
S'0.1'
p506
sg50
S'57'
p507
sg477
S'-0.5'
p508
sg44
S'2012-13'
p509
sg480
S'0.2'
p510
sba(isrc.gp1.models.Advanced
Advanced
p511
(dp512
g436
S'0.0'
p513
sg438
S'26.6'
p514
sg440
S'.077'
p515
sg442
S'0.0'
p516
sg444
S'8.0'
p517
sg446
S'13.1'
p518
sg448
S'2.3'
p519
sg20
S'PF'
p520
sg451
S'0.0'
p521
sg453
S'.543'
p522
sg455
S'25.4'
p523
sg457
S'4.000'
p524
sg459
S'.000'
p525
sg24
S'NBA'
p526
sg462
S'-6.3'
p527
sg464
S'12.1'
p528
sg466
S'0.0'
p529
sg33
S'24'
p530
sg35
S'GSW'
p531
sg37
g57
sg470
S'3.7'
p532
sg472
S'8.8'
p533
sg474
S'0.0'
p534
sg50
S'21'
p535
sg477
S'-4.0'
p536
sg44
S'2012-13'
p537
sg480
S'0.0'
p538
sba(isrc.gp1.models.Advanced
Advanced
p539
(dp540
g436
S'15.8'
p541
sg438
S'15.7'
p542
sg440
S'.166'
p543
sg442
S'3.0'
p544
sg444
S'16.3'
p545
sg446
S'17.5'
p546
sg448
S'2.1'
p547
sg20
S'PF'
p548
sg451
S'0.0'
p549
sg453
S'.558'
p550
sg455
S'19.4'
p551
sg457
S'.444'
p552
sg459
S'.000'
p553
sg24
S'NBA'
p554
sg462
S'-0.6'
p555
sg464
S'9.3'
p556
sg466
S'0.1'
p557
sg33
S'24'
p558
sg35
S'CHI'
p559
sg37
g97
sg470
S'2.1'
p560
sg472
S'16.7'
p561
sg474
S'0.1'
p562
sg50
S'36'
p563
sg477
S'1.5'
p564
sg44
S'2012-13'
p565
sg480
S'0.1'
p566
sba(isrc.gp1.models.Advanced
Advanced
p567
(dp568
g436
S'9.0'
p569
sg438
S'34.8'
p570
sg440
S'-0.132'
p571
sg442
S'0.0'
p572
sg444
S'18.7'
p573
sg446
S'19.0'
p574
sg448
S'-1.6'
p575
sg20
S'PF'
p576
sg451
S'-0.2'
p577
sg453
S'.444'
p578
sg455
S'28.9'
p579
sg457
S'.125'
p580
sg459
S'.250'
p581
sg24
S'NBA'
p582
sg462
S'-10.4'
p583
sg464
S'5.1'
p584
sg466
S'0.1'
p585
sg33
S'25'
p586
sg35
S'TOT'
p587
sg37
g68
sg470
S'3.5'
p588
sg472
S'4.6'
p589
sg474
S'-0.2'
p590
sg50
S'63'
p591
sg477
S'-12.0'
p592
sg44
S'2013-14'
p593
sg480
S'-0.2'
p594
sba(isrc.gp1.models.Advanced
Advanced
p595
(dp596
g436
S'7.8'
p597
sg438
S'17.0'
p598
sg440
S'-0.107'
p599
sg442
S'0.0'
p600
sg444
S'17.7'
p601
sg446
S'33.8'
p602
sg448
S'-0.7'
p603
sg20
S'PF'
p604
sg451
S'-0.1'
p605
sg453
S'.205'
p606
sg455
S'57.8'
p607
sg457
S'.500'
p608
sg459
S'.000'
p609
sg24
S'NBA'
p610
sg462
S'-18.9'
p611
sg464
S'0.0'
p612
sg466
S'0.0'
p613
sg33
S'25'
p614
sg35
S'SAS'
p615
sg37
g15
sg470
S'9.6'
p616
sg472
S'6.6'
p617
sg474
S'-0.1'
p618
sg50
S'15'
p619
sg477
S'-19.6'
p620
sg44
S'2013-14'
p621
sg480
S'0.0'
p622
sba(isrc.gp1.models.Advanced
Advanced
p623
(dp624
g436
S'9.3'
p625
sg438
S'40.0'
p626
sg440
S'-0.140'
p627
sg442
S'0.0'
p628
sg444
S'19.1'
p629
sg446
S'14.4'
p630
sg448
S'-2.0'
p631
sg20
S'PF'
p632
sg451
S'-0.1'
p633
sg453
S'.542'
p634
sg455
S'19.8'
p635
sg457
S'.000'
p636
sg459
S'.333'
p637
sg24
S'NBA'
p638
sg462
S'-7.7'
p639
sg464
S'6.7'
p640
sg466
S'0.0'
p641
sg33
S'25'
p642
sg35
S'UTA'
p643
sg37
g97
sg470
S'1.6'
p644
sg472
S'4.0'
p645
sg474
S'-0.2'
p646
sg50
S'48'
p647
sg477
S'-9.7'
p648
sg44
S'2013-14'
p649
sg480
S'-0.1'
p650
sba(isrc.gp1.models.Advanced
Advanced
p651
(dp652
g436
S'8.5'
p653
sg438
S'22.1'
p654
sg440
S'.023'
p655
sg442
S'0.8'
p656
sg444
S'13.2'
p657
sg446
S'15.6'
p658
sg448
S'-1.0'
p659
sg20
S'PF'
p660
sg451
S'-0.3'
p661
sg453
S'.492'
p662
sg455
S'23.5'
p663
sg457
S'.325'
p664
sg459
S'.175'
p665
sg24
S'NBA'
p666
sg462
S'-6.4'
p667
sg464
S'6.0'
p668
sg466
S'0.2'
p669
sg33
S'26'
p670
sg35
S'PHI'
p671
sg37
S'17'
p672
sg470
S'0.4'
p673
sg472
S'8.2'
p674
sg474
S'-0.1'
p675
sg50
S'194'
p676
sg477
S'-7.4'
p677
sg44
S'2014-15'
p678
sg480
S'0.1'
p679
sbasS'_per36Minutes'
p680
(lp681
(isrc.gp1.models.Per36Minutes
Per36Minutes
p682
(dp683
g8
S'4.8'
p684
sg10
S'0.0'
p685
sg12
S'.000'
p686
sg14
S'2.4'
p687
sg16
S'0.0'
p688
sg17
S'0.0'
p689
sg18
g19
sg20
S'PF'
p690
sg22
S'2.4'
p691
sg24
S'NBA'
p692
sg26
S'2.4'
p693
sg27
S'7.2'
p694
sg29
S'2.4'
p695
sg30
S'.500'
p696
sg32
S'2.4'
p697
sg33
S'23'
p698
sg35
S'SAS'
p699
sg37
g28
sg38
S'0.0'
p700
sg39
S'7.2'
p701
sg40
S'4.8'
p702
sg41
S'.000'
p703
sg43
S'7.2'
p704
sg44
S'2011-12'
p705
sg46
S'0.0'
p706
sg47
S'0.0'
p707
sg48
S'2.4'
p708
sg50
S'15'
p709
sg52
g11
sba(isrc.gp1.models.Per36Minutes
Per36Minutes
p710
(dp711
g8
S'6.9'
p712
sg10
S'0.0'
p713
sg12
S'.500'
p714
sg14
S'1.3'
p715
sg16
S'3.2'
p716
sg17
S'0.0'
p717
sg18
g19
sg20
S'PF'
p718
sg22
S'3.2'
p719
sg24
S'NBA'
p720
sg26
S'1.3'
p721
sg27
S'6.3'
p722
sg29
S'9.5'
p723
sg30
S'.625'
p724
sg32
S'2.5'
p725
sg33
S'24'
p726
sg35
S'TOT'
p727
sg37
S'12'
p728
sg38
S'1.9'
p729
sg39
S'6.3'
p730
sg40
S'5.1'
p731
sg41
S'.500'
p732
sg43
S'10.1'
p733
sg44
S'2012-13'
p734
sg46
S'3.2'
p735
sg47
S'5.1'
p736
sg48
S'3.2'
p737
sg50
S'57'
p738
sg52
g11
sba(isrc.gp1.models.Per36Minutes
Per36Minutes
p739
(dp740
g8
S'8.6'
p741
sg10
S'0.0'
p742
sg12
S'.000'
p743
sg14
S'0.0'
p744
sg16
S'0.0'
p745
sg17
S'0.0'
p746
sg18
g19
sg20
S'PF'
p747
sg22
S'0.0'
p748
sg24
S'NBA'
p749
sg26
S'1.7'
p750
sg27
S'1.7'
p751
sg29
S'5.1'
p752
sg30
S'.750'
p753
sg32
S'3.4'
p754
sg33
S'24'
p755
sg35
S'GSW'
p756
sg37
g57
sg38
S'1.7'
p757
sg39
S'1.7'
p758
sg40
S'6.9'
p759
sg41
S'.000'
p760
sg43
S'8.6'
p761
sg44
S'2012-13'
p762
sg46
S'0.0'
p763
sg47
S'1.7'
p764
sg48
S'5.1'
p765
sg50
S'21'
p766
sg52
g11
sba(isrc.gp1.models.Per36Minutes
Per36Minutes
p767
(dp768
g8
S'6.0'
p769
sg10
S'0.0'
p770
sg12
S'.556'
p771
sg14
S'2.0'
p772
sg16
S'5.0'
p773
sg17
S'0.0'
p774
sg18
g19
sg20
S'PF'
p775
sg22
S'5.0'
p776
sg24
S'NBA'
p777
sg26
S'1.0'
p778
sg27
S'9.0'
p779
sg29
S'12.0'
p780
sg30
S'.500'
p781
sg32
S'2.0'
p782
sg33
S'24'
p783
sg35
S'CHI'
p784
sg37
g97
sg38
S'2.0'
p785
sg39
S'9.0'
p786
sg40
S'4.0'
p787
sg41
S'.556'
p788
sg43
S'11.0'
p789
sg44
S'2012-13'
p790
sg46
S'5.0'
p791
sg47
S'7.0'
p792
sg48
S'2.0'
p793
sg50
S'36'
p794
sg52
g11
sba(isrc.gp1.models.Per36Minutes
Per36Minutes
p795
(dp796
g8
S'2.9'
p797
sg10
S'2.3'
p798
sg12
S'.438'
p799
sg14
S'1.1'
p800
sg16
S'.250'
p801
sg17
S'0.6'
p802
sg18
S'8.6'
p803
sg20
S'PF'
p804
sg22
S'.000'
p805
sg24
S'NBA'
p806
sg26
S'0.0'
p807
sg27
S'9.1'
p808
sg29
S'2.9'
p809
sg30
S'1.1'
p810
sg32
S'12.0'
p811
sg33
S'25'
p812
sg35
S'TOT'
p813
sg37
g68
sg38
S'1.7'
p814
sg39
S'3.4'
p815
sg40
S'0.0'
p816
sg41
S'6.9'
p817
sg43
S'9.1'
p818
sg44
S'2013-14'
p819
sg46
S'4.0'
p820
sg47
S'5.1'
p821
sg48
S'.500'
p822
sg50
S'63'
p823
sg52
g11
sba(isrc.gp1.models.Per36Minutes
Per36Minutes
p824
(dp825
g8
S'19.2'
p826
sg10
S'0.0'
p827
sg12
S'.250'
p828
sg14
S'0.0'
p829
sg16
S'2.4'
p830
sg17
S'0.0'
p831
sg18
g19
sg20
S'PF'
p832
sg22
S'2.4'
p833
sg24
S'NBA'
p834
sg26
S'4.8'
p835
sg27
S'9.6'
p836
sg29
S'4.8'
p837
sg30
S'.000'
p838
sg32
S'0.0'
p839
sg33
S'25'
p840
sg35
S'SAS'
p841
sg37
g15
sg38
S'2.4'
p842
sg39
S'9.6'
p843
sg40
S'4.8'
p844
sg41
S'.250'
p845
sg43
S'21.6'
p846
sg44
S'2013-14'
p847
sg46
S'2.4'
p848
sg47
S'0.0'
p849
sg48
S'0.0'
p850
sg50
S'15'
p851
sg52
g11
sba(isrc.gp1.models.Per36Minutes
Per36Minutes
p852
(dp853
g8
S'6.0'
p854
sg10
S'3.0'
p855
sg12
S'.500'
p856
sg14
S'0.0'
p857
sg16
S'.250'
p858
sg17
S'0.7'
p859
sg18
g19
sg20
S'PF'
p860
sg22
S'3.0'
p861
sg24
S'NBA'
p862
sg26
S'0.7'
p863
sg27
S'9.0'
p864
sg29
S'9.7'
p865
sg30
S'0.0'
p866
sg32
S'1.5'
p867
sg33
S'25'
p868
sg35
S'UTA'
p869
sg37
g97
sg38
S'6.0'
p870
sg39
S'3.7'
p871
sg40
S'0.0'
p872
sg41
S'6.0'
p873
sg43
S'9.0'
p874
sg44
S'2013-14'
p875
sg46
S'4.5'
p876
sg47
S'3.7'
p877
sg48
S'.625'
p878
sg50
S'48'
p879
sg52
g11
sba(isrc.gp1.models.Per36Minutes
Per36Minutes
p880
(dp881
g8
S'3.0'
p882
sg10
S'1.3'
p883
sg12
S'.450'
p884
sg14
S'1.3'
p885
sg16
S'.000'
p886
sg17
S'0.0'
p887
sg18
S'8.4'
p888
sg20
S'PF'
p889
sg22
S'.692'
p890
sg24
S'NBA'
p891
sg26
S'0.6'
p892
sg27
S'7.4'
p893
sg29
S'3.2'
p894
sg30
S'2.4'
p895
sg32
S'10.4'
p896
sg33
S'26'
p897
sg35
S'PHI'
p898
sg37
S'17'
p899
sg38
S'0.2'
p900
sg39
S'3.3'
p901
sg40
S'1.7'
p902
sg41
S'6.1'
p903
sg43
S'7.4'
p904
sg44
S'2014-15'
p905
sg46
S'3.3'
p906
sg47
S'2.4'
p907
sg48
S'.545'
p908
sg50
S'194'
p909
sg52
g11
sbasS'_fromYear'
p910
S'2012'
p911
sS'_url'
p912
S'http://www.basketball-reference.com/players/t/thomama01.html'
p913
sS'_perGame'
p914
(isrc.gp1.models.PerGame
PerGame
p915
(dp916
g8
S'0.9'
p917
sg10
S'0.4'
p918
sg12
S'.450'
p919
sS'_effectiveFieldGalPercentage'
p920
S'.450'
p921
sg14
S'0.4'
p922
sg16
S'.000'
p923
sg17
S'0.0'
p924
sg18
S'2.6'
p925
sg20
S'PF'
p926
sg22
S'.692'
p927
sg24
S'NBA'
p928
sg26
S'0.2'
p929
sg29
S'1.0'
p930
sS'_fieldGoalsttempted'
p931
S'2.4'
p932
sg30
S'0.8'
p933
sg32
S'3.3'
p934
sg33
S'26'
p935
sg35
S'PHI'
p936
sg37
S'17'
p937
sg38
S'0.1'
p938
sg39
S'1.1'
p939
sg40
S'0.5'
p940
sg41
S'1.9'
p941
sg43
S'2.4'
p942
sg44
S'2014-15'
p943
sg46
S'1.1'
p944
sg47
S'0.8'
p945
sg48
S'.545'
p946
sg50
S'11.4'
p947
sg52
g11
sbsS'_weight'
p948
S'225'
p949
sS'_dob'
p950
S'8-11-1988'
p951
sS'_salary'
p952
(lp953
(isrc.gp1.models.Salary
Salary
p954
(dp955
g35
S'San Antonio Spurs'
p956
sg24
S'NBA'
p957
sg952
S'$103,104'
p958
sg44
S'2011-12'
p959
sba(isrc.gp1.models.Salary
Salary
p960
(dp961
g35
S'Philadelphia 76ers'
p962
sg24
S'NBA'
p963
sg952
S'$474,000'
p964
sg44
S'2014-15'
p965
sbasg20
S'F'
p966
sb.