(isrc.gp1.models.Player
Player
p0
(dp1
S'_experience'
p2
S'NA'
p3
sS'_totals'
p4
(lp5
(isrc.gp1.models.Totals
Totals
p6
(dp7
S'_offensiveRebounds'
p8
S'57'
p9
sS'_threePointsAttempted'
p10
S'74'
p11
sS'_fieldGoalsPercentage'
p12
S'.444'
p13
sS'_assist'
p14
S'151'
p15
sS'_threePointsPercentage'
p16
S'.324'
p17
sS'_threePoints'
p18
S'24'
p19
sS'_points'
p20
S'982'
p21
sS'_position'
p22
S'SG'
p23
sS'_freeThrowsPercentage'
p24
S'.826'
p25
sS'_effectiveFieldGoalPercentage'
p26
S'.458'
p27
sS'_league'
p28
S'NBA'
p29
sS'_steals'
p30
S'23'
p31
sS'_fieldGoalsAttempted'
p32
S'918'
p33
sS'_personalFouls'
p34
S'162'
p35
sS'_freeThrowsAttempted'
p36
S'172'
p37
sS'_totalRebounds'
p38
S'155'
p39
sS'_age'
p40
S'22'
p41
sS'_team'
p42
S'WSB'
p43
sS'_games'
p44
S'81'
p45
sS'_blocks'
p46
S'13'
p47
sS'_twoPoints'
p48
S'384'
p49
sS'_freeThrows'
p50
S'142'
p51
sS'_twoPointsAttempted'
p52
S'844'
p53
sS'_defensiveRebounds'
p54
S'98'
p55
sS'_season'
p56
S'1983-84'
p57
sS'_fieldGoals'
p58
S'408'
p59
sS'_turnOvers'
p60
S'110'
p61
sS'_twoPointsPercentage'
p62
S'.455'
p63
sS'_minutesPlayed'
p64
S'1976'
p65
sS'_gamesStarted'
p66
S'2'
p67
sba(isrc.gp1.models.Totals
Totals
p68
(dp69
g8
S'60'
p70
sg10
S'72'
p71
sg12
S'.499'
p72
sg14
S'184'
p73
sg16
S'.208'
p74
sg18
S'15'
p75
sg20
S'1436'
p76
sg22
S'SG'
p77
sg24
S'.844'
p78
sg26
S'.505'
p79
sg28
S'NBA'
p80
sg30
S'52'
p81
sg32
S'1213'
p82
sg34
S'176'
p83
sg36
S'250'
p84
sg38
S'206'
p85
sg40
S'23'
p86
sg42
S'WSB'
p87
sg44
S'76'
p88
sg46
S'9'
p89
sg48
S'590'
p90
sg50
S'211'
p91
sg52
S'1141'
p92
sg54
S'146'
p93
sg56
S'1984-85'
p94
sg58
S'605'
p95
sg60
S'107'
p96
sg62
S'.517'
p97
sg64
S'2613'
p98
sg66
S'61'
p99
sba(isrc.gp1.models.Totals
Totals
p100
(dp101
g8
S'66'
p102
sg10
S'17'
p103
sg12
S'.483'
p104
sg14
S'191'
p105
sg16
S'.176'
p106
sg18
S'3'
p107
sg20
S'1795'
p108
sg22
S'SG'
p109
sg24
S'.868'
p110
sg26
S'.484'
p111
sg28
S'NBA'
p112
sg30
S'70'
p113
sg32
S'1522'
p114
sg34
S'180'
p115
sg36
S'371'
p116
sg38
S'288'
p117
sg40
S'24'
p118
sg42
S'WSB'
p119
sg44
S'80'
p120
sg46
S'12'
p121
sg48
S'732'
p122
sg50
S'322'
p123
sg52
S'1505'
p124
sg54
S'222'
p125
sg56
S'1985-86'
p126
sg58
S'735'
p127
sg60
S'168'
p128
sg62
S'.486'
p129
sg64
S'2992'
p130
sg66
S'80'
p131
sba(isrc.gp1.models.Totals
Totals
p132
(dp133
g8
S'50'
p134
sg10
S'26'
p135
sg12
S'.457'
p136
sg14
S'298'
p137
sg16
S'.154'
p138
sg18
S'4'
p139
sg20
S'1758'
p140
sg22
S'SG'
p141
sg24
S'.885'
p142
sg26
S'.458'
p143
sg28
S'NBA'
p144
sg30
S'75'
p145
sg32
S'1509'
p146
sg34
S'154'
p147
sg36
S'425'
p148
sg38
S'218'
p149
sg40
S'25'
p150
sg42
S'WSB'
p151
sg44
S'80'
p152
sg46
S'13'
p153
sg48
S'685'
p154
sg50
S'376'
p155
sg52
S'1483'
p156
sg54
S'168'
p157
sg56
S'1986-87'
p158
sg58
S'689'
p159
sg60
S'182'
p160
sg62
S'.462'
p161
sg64
S'2763'
p162
sg66
S'79'
p163
sba(isrc.gp1.models.Totals
Totals
p164
(dp165
g8
S'44'
p166
sg10
S'24'
p167
sg12
S'.476'
p168
sg14
S'237'
p169
sg16
S'.417'
p170
sg18
S'10'
p171
sg20
S'1641'
p172
sg22
S'SG'
p173
sg24
S'.882'
p174
sg26
S'.480'
p175
sg28
S'NBA'
p176
sg30
S'51'
p177
sg32
S'1360'
p178
sg34
S'198'
p179
sg36
S'380'
p180
sg38
S'206'
p181
sg40
S'26'
p182
sg42
S'WSB'
p183
sg44
S'80'
p184
sg46
S'13'
p185
sg48
S'638'
p186
sg50
S'335'
p187
sg52
S'1336'
p188
sg54
S'162'
p189
sg56
S'1987-88'
p190
sg58
S'648'
p191
sg60
S'172'
p192
sg62
S'.478'
p193
sg64
S'2655'
p194
sg66
S'80'
p195
sba(isrc.gp1.models.Totals
Totals
p196
(dp197
g8
S'55'
p198
sg10
S'19'
p199
sg12
S'.480'
p200
sg14
S'219'
p201
sg16
S'.053'
p202
sg18
S'1'
p203
sg20
S'1651'
p204
sg22
S'SG'
p205
sg24
S'.871'
p206
sg26
S'.480'
p207
sg28
S'NBA'
p208
sg30
S'39'
p209
sg32
S'1410'
p210
sg34
S'155'
p211
sg36
S'340'
p212
sg38
S'179'
p213
sg40
S'27'
p214
sg42
S'WSB'
p215
sg44
S'76'
p216
sg46
S'14'
p217
sg48
S'676'
p218
sg50
S'296'
p219
sg52
S'1391'
p220
sg54
S'124'
p221
sg56
S'1988-89'
p222
sg58
S'677'
p223
sg60
S'165'
p224
sg62
S'.486'
p225
sg64
S'2418'
p226
sg66
S'75'
p227
sba(isrc.gp1.models.Totals
Totals
p228
(dp229
g8
S'54'
p230
sg10
S'6'
p231
sg12
S'.491'
p232
sg14
S'243'
p233
sg16
S'.167'
p234
sg18
g203
sg20
S'1820'
p235
sg22
S'SG'
p236
sg24
S'.877'
p237
sg26
S'.491'
p238
sg28
S'NBA'
p239
sg30
S'48'
p240
sg32
S'1592'
p241
sg34
S'116'
p242
sg36
S'293'
p243
sg38
S'206'
p244
sg40
S'28'
p245
sg42
S'WSB'
p246
sg44
S'75'
p247
sg46
g231
sg48
S'780'
p248
sg50
S'257'
p249
sg52
S'1586'
p250
sg54
S'152'
p251
sg56
S'1989-90'
p252
sg58
S'781'
p253
sg60
S'125'
p254
sg62
S'.492'
p255
sg64
S'2567'
p256
sg66
S'74'
p257
sba(isrc.gp1.models.Totals
Totals
p258
(dp259
g8
S'36'
p260
sg10
g231
sg12
S'.508'
p261
sg14
S'143'
p262
sg16
S'.167'
p263
sg18
g203
sg20
S'1282'
p264
sg22
S'SG'
p265
sg24
S'.917'
p266
sg26
S'.508'
p267
sg28
S'NBA'
p268
sg30
S'50'
p269
sg32
S'1034'
p270
sg34
S'128'
p271
sg36
S'252'
p272
sg38
S'206'
p273
sg40
S'29'
p274
sg42
S'UTA'
p275
sg44
S'69'
p276
sg46
g231
sg48
S'524'
p277
sg50
S'231'
p278
sg52
S'1028'
p279
sg54
S'170'
p280
sg56
S'1990-91'
p281
sg58
S'525'
p282
sg60
S'108'
p283
sg62
S'.510'
p284
sg64
S'2466'
p285
sg66
S'69'
p286
sba(isrc.gp1.models.Totals
Totals
p287
(dp288
g8
S'49'
p289
sg10
S'12'
p290
sg12
S'.511'
p291
sg14
S'180'
p292
sg16
S'.083'
p293
sg18
g203
sg20
S'1639'
p294
sg22
S'SG'
p295
sg24
S'.898'
p296
sg26
S'.511'
p297
sg28
S'NBA'
p298
sg30
S'56'
p299
sg32
S'1353'
p300
sg34
S'126'
p301
sg36
S'285'
p302
sg38
S'233'
p303
sg40
S'30'
p304
sg42
S'UTA'
p305
sg44
S'81'
p306
sg46
S'5'
p307
sg48
S'690'
p308
sg50
S'256'
p309
sg52
S'1341'
p310
sg54
S'184'
p311
sg56
S'1991-92'
p312
sg58
S'691'
p313
sg60
S'140'
p314
sg62
S'.515'
p315
sg64
S'2922'
p316
sg66
S'81'
p317
sba(isrc.gp1.models.Totals
Totals
p318
(dp319
g8
S'31'
p320
sg10
g89
sg12
S'.494'
p321
sg14
S'128'
p322
sg16
S'.333'
p323
sg18
g107
sg20
S'1429'
p324
sg22
S'SG'
p325
sg24
S'.852'
p326
sg26
S'.495'
p327
sg28
S'NBA'
p328
sg30
S'42'
p329
sg32
S'1205'
p330
sg34
S'117'
p331
sg36
S'277'
p332
sg38
S'173'
p333
sg40
S'31'
p334
sg42
S'UTA'
p335
sg44
S'79'
p336
sg46
g139
sg48
S'592'
p337
sg50
S'236'
p338
sg52
S'1196'
p339
sg54
S'142'
p340
sg56
S'1992-93'
p341
sg58
S'595'
p342
sg60
S'125'
p343
sg62
S'.495'
p344
sg64
S'2558'
p345
sg66
S'59'
p346
sba(isrc.gp1.models.Totals
Totals
p347
(dp348
g8
S'51'
p349
sg10
S'12'
p350
sg12
S'.486'
p351
sg14
S'125'
p352
sg16
S'.583'
p353
sg18
S'7'
p354
sg20
S'1262'
p355
sg22
S'SG'
p356
sg24
S'.830'
p357
sg26
S'.489'
p358
sg28
S'NBA'
p359
sg30
S'40'
p360
sg32
S'1081'
p361
sg34
S'123'
p362
sg36
S'247'
p363
sg38
S'199'
p364
sg40
S'32'
p365
sg42
S'TOT'
p366
sg44
S'77'
p367
sg46
g307
sg48
S'518'
p368
sg50
S'205'
p369
sg52
S'1069'
p370
sg54
S'148'
p371
sg56
S'1993-94'
p372
sg58
S'525'
p373
sg60
S'85'
p374
sg62
S'.485'
p375
sg64
S'2560'
p376
sg66
S'73'
p377
sba(isrc.gp1.models.Totals
Totals
p378
(dp379
g8
S'28'
p380
sg10
g231
sg12
S'.488'
p381
sg14
S'66'
p382
sg16
S'.500'
p383
sg18
g107
sg20
S'808'
p384
sg22
S'SG'
p385
sg24
S'.843'
p386
sg26
S'.491'
p387
sg28
S'NBA'
p388
sg30
S'26'
p389
sg32
S'692'
p390
sg34
S'77'
p391
sg36
S'153'
p392
sg38
S'115'
p393
sg40
S'32'
p394
sg42
S'UTA'
p395
sg44
S'50'
p396
sg46
g307
sg48
S'335'
p397
sg50
S'129'
p398
sg52
S'686'
p399
sg54
S'87'
p400
sg56
S'1993-94'
p401
sg58
S'338'
p402
sg60
S'57'
p403
sg62
S'.488'
p404
sg64
S'1657'
p405
sg66
S'50'
p406
sba(isrc.gp1.models.Totals
Totals
p407
(dp408
g8
S'23'
p409
sg10
g231
sg12
S'.481'
p410
sg14
S'59'
p411
sg16
S'.667'
p412
sg18
g139
sg20
S'454'
p413
sg22
S'SG'
p414
sg24
S'.809'
p415
sg26
S'.486'
p416
sg28
S'NBA'
p417
sg30
S'14'
p418
sg32
S'389'
p419
sg34
S'46'
p420
sg36
S'94'
p421
sg38
S'84'
p422
sg40
S'32'
p423
sg42
S'PHI'
p424
sg44
S'27'
p425
sg46
S'0'
p426
sg48
S'183'
p427
sg50
S'76'
p428
sg52
S'383'
p429
sg54
S'61'
p430
sg56
S'1993-94'
p431
sg58
S'187'
p432
sg60
S'28'
p433
sg62
S'.478'
p434
sg64
S'903'
p435
sg66
S'23'
p436
sba(isrc.gp1.models.Totals
Totals
p437
(dp438
g8
S'11'
p439
sg10
S'28'
p440
sg12
S'.507'
p441
sg14
S'29'
p442
sg16
S'.393'
p443
sg18
S'11'
p444
sg20
S'350'
p445
sg22
S'SG'
p446
sg24
S'.864'
p447
sg26
S'.526'
p448
sg28
S'NBA'
p449
sg30
S'15'
p450
sg32
S'284'
p451
sg34
S'35'
p452
sg36
S'59'
p453
sg38
S'55'
p454
sg40
S'33'
p455
sg42
S'PHI'
p456
sg44
S'19'
p457
sg46
g426
sg48
S'133'
p458
sg50
S'51'
p459
sg52
S'256'
p460
sg54
S'44'
p461
sg56
S'1994-95'
p462
sg58
S'144'
p463
sg60
S'29'
p464
sg62
S'.520'
p465
sg64
S'660'
p466
sg66
S'19'
p467
sba(isrc.gp1.models.Totals
Totals
p468
(dp469
g8
S'8'
p470
sg10
S'16'
p471
sg12
S'.394'
p472
sg14
S'26'
p473
sg16
S'.313'
p474
sg18
g307
sg20
S'186'
p475
sg22
S'SG'
p476
sg24
S'.906'
p477
sg26
S'.407'
p478
sg28
S'NBA'
p479
sg30
S'16'
p480
sg32
S'193'
p481
sg34
S'25'
p482
sg36
S'32'
p483
sg38
S'40'
p484
sg40
S'34'
p485
sg42
S'TOT'
p486
sg44
S'32'
p487
sg46
g426
sg48
S'71'
p488
sg50
S'29'
p489
sg52
S'177'
p490
sg54
S'32'
p491
sg56
S'1995-96'
p492
sg58
S'76'
p493
sg60
S'22'
p494
sg62
S'.401'
p495
sg64
S'510'
p496
sg66
g107
sba(isrc.gp1.models.Totals
Totals
p497
(dp498
g8
g470
sg10
S'16'
p499
sg12
S'.394'
p500
sg14
S'19'
p501
sg16
S'.313'
p502
sg18
g307
sg20
S'155'
p503
sg22
S'SG'
p504
sg24
S'.923'
p505
sg26
S'.409'
p506
sg28
S'NBA'
p507
sg30
S'13'
p508
sg32
S'160'
p509
sg34
S'19'
p510
sg36
S'26'
p511
sg38
S'32'
p512
sg40
S'34'
p513
sg42
S'PHI'
p514
sg44
S'25'
p515
sg46
g426
sg48
S'58'
p516
sg50
S'24'
p517
sg52
S'144'
p518
sg54
S'24'
p519
sg56
S'1995-96'
p520
sg58
S'63'
p521
sg60
S'19'
p522
sg62
S'.403'
p523
sg64
S'407'
p524
sg66
g107
sba(isrc.gp1.models.Totals
Totals
p525
(dp526
g8
g426
sg10
g426
sg12
S'.394'
p527
sg14
g354
sg16
g3
sg18
g426
sg20
S'31'
p528
sg22
S'SG'
p529
sg24
S'.833'
p530
sg26
S'.394'
p531
sg28
S'NBA'
p532
sg30
g107
sg32
S'33'
p533
sg34
g231
sg36
g231
sg38
g470
sg40
S'34'
p534
sg42
S'MIA'
p535
sg44
g354
sg46
g426
sg48
S'13'
p536
sg50
g307
sg52
S'33'
p537
sg54
g470
sg56
S'1995-96'
p538
sg58
S'13'
p539
sg60
g107
sg62
S'.394'
p540
sg64
S'103'
p541
sg66
g426
sbasS'_college'
p542
S'Mississippi State University'
p543
sS'_toYear'
p544
S'1996'
p545
sS'_height'
p546
S'6-4'
p547
sS'_active'
p548
I00
sS'_shootingHand'
p549
VRight
p550
sS'_name'
p551
S'Jeff Malone'
p552
sS'_per100Possessions'
p553
(lp554
(isrc.gp1.models.Per100Possession
Per100Possession
p555
(dp556
g8
S'1.4'
p557
sg10
S'1.8'
p558
sg12
S'.444'
p559
sS'_offensiveRating'
p560
S'100'
p561
sg14
S'3.8'
p562
sg16
S'.324'
p563
sg18
S'0.6'
p564
sg20
S'24.5'
p565
sg22
S'SG'
p566
sS'_defensiveRating'
p567
S'112'
p568
sg24
S'.826'
p569
sg28
S'NBA'
p570
sg30
S'0.6'
p571
sg32
S'22.9'
p572
sg34
S'4.0'
p573
sg36
S'4.3'
p574
sg38
S'3.9'
p575
sg40
S'22'
p576
sg42
S'WSB'
p577
sg44
S'81'
p578
sg46
S'0.3'
p579
sg48
S'9.6'
p580
sg50
S'3.5'
p581
sg52
S'21.0'
p582
sg54
S'2.4'
p583
sg56
S'1983-84'
p584
sg58
S'10.2'
p585
sg60
S'2.7'
p586
sg62
S'.455'
p587
sg64
S'1976'
p588
sg66
g67
sba(isrc.gp1.models.Per100Possession
Per100Possession
p589
(dp590
g8
S'1.1'
p591
sg10
S'1.3'
p592
sg12
S'.499'
p593
sg560
S'109'
p594
sg14
S'3.4'
p595
sg16
S'.208'
p596
sg18
S'0.3'
p597
sg20
S'26.3'
p598
sg22
S'SG'
p599
sg567
S'109'
p600
sg24
S'.844'
p601
sg28
S'NBA'
p602
sg30
S'1.0'
p603
sg32
S'22.2'
p604
sg34
S'3.2'
p605
sg36
S'4.6'
p606
sg38
S'3.8'
p607
sg40
S'23'
p608
sg42
S'WSB'
p609
sg44
S'76'
p610
sg46
S'0.2'
p611
sg48
S'10.8'
p612
sg50
S'3.9'
p613
sg52
S'20.9'
p614
sg54
S'2.7'
p615
sg56
S'1984-85'
p616
sg58
S'11.1'
p617
sg60
S'2.0'
p618
sg62
S'.517'
p619
sg64
S'2613'
p620
sg66
S'61'
p621
sba(isrc.gp1.models.Per100Possession
Per100Possession
p622
(dp623
g8
S'1.1'
p624
sg10
S'0.3'
p625
sg12
S'.483'
p626
sg560
S'107'
p627
sg14
S'3.1'
p628
sg16
S'.176'
p629
sg18
S'0.0'
p630
sg20
S'29.1'
p631
sg22
S'SG'
p632
sg567
S'109'
p633
sg24
S'.868'
p634
sg28
S'NBA'
p635
sg30
S'1.1'
p636
sg32
S'24.6'
p637
sg34
S'2.9'
p638
sg36
S'6.0'
p639
sg38
S'4.7'
p640
sg40
S'24'
p641
sg42
S'WSB'
p642
sg44
S'80'
p643
sg46
S'0.2'
p644
sg48
S'11.9'
p645
sg50
S'5.2'
p646
sg52
S'24.4'
p647
sg54
S'3.6'
p648
sg56
S'1985-86'
p649
sg58
S'11.9'
p650
sg60
S'2.7'
p651
sg62
S'.486'
p652
sg64
S'2992'
p653
sg66
S'80'
p654
sba(isrc.gp1.models.Per100Possession
Per100Possession
p655
(dp656
g8
S'0.9'
p657
sg10
S'0.5'
p658
sg12
S'.457'
p659
sg560
S'109'
p660
sg14
S'5.2'
p661
sg16
S'.154'
p662
sg18
S'0.1'
p663
sg20
S'30.5'
p664
sg22
S'SG'
p665
sg567
S'112'
p666
sg24
S'.885'
p667
sg28
S'NBA'
p668
sg30
S'1.3'
p669
sg32
S'26.2'
p670
sg34
S'2.7'
p671
sg36
S'7.4'
p672
sg38
S'3.8'
p673
sg40
S'25'
p674
sg42
S'WSB'
p675
sg44
S'80'
p676
sg46
S'0.2'
p677
sg48
S'11.9'
p678
sg50
S'6.5'
p679
sg52
S'25.7'
p680
sg54
S'2.9'
p681
sg56
S'1986-87'
p682
sg58
S'11.9'
p683
sg60
S'3.2'
p684
sg62
S'.462'
p685
sg64
S'2763'
p686
sg66
S'79'
p687
sba(isrc.gp1.models.Per100Possession
Per100Possession
p688
(dp689
g8
S'0.8'
p690
sg10
S'0.4'
p691
sg12
S'.476'
p692
sg560
S'110'
p693
sg14
S'4.4'
p694
sg16
S'.417'
p695
sg18
S'0.2'
p696
sg20
S'30.2'
p697
sg22
S'SG'
p698
sg567
S'112'
p699
sg24
S'.882'
p700
sg28
S'NBA'
p701
sg30
S'0.9'
p702
sg32
S'25.1'
p703
sg34
S'3.6'
p704
sg36
S'7.0'
p705
sg38
S'3.8'
p706
sg40
S'26'
p707
sg42
S'WSB'
p708
sg44
S'80'
p709
sg46
S'0.2'
p710
sg48
S'11.8'
p711
sg50
S'6.2'
p712
sg52
S'24.6'
p713
sg54
S'3.0'
p714
sg56
S'1987-88'
p715
sg58
S'11.9'
p716
sg60
S'3.2'
p717
sg62
S'.478'
p718
sg64
S'2655'
p719
sg66
S'80'
p720
sba(isrc.gp1.models.Per100Possession
Per100Possession
p721
(dp722
g8
S'1.1'
p723
sg10
S'0.4'
p724
sg12
S'.480'
p725
sg560
S'107'
p726
sg14
S'4.3'
p727
sg16
S'.053'
p728
sg18
S'0.0'
p729
sg20
S'32.5'
p730
sg22
S'SG'
p731
sg567
S'113'
p732
sg24
S'.871'
p733
sg28
S'NBA'
p734
sg30
S'0.8'
p735
sg32
S'27.8'
p736
sg34
S'3.1'
p737
sg36
S'6.7'
p738
sg38
S'3.5'
p739
sg40
S'27'
p740
sg42
S'WSB'
p741
sg44
S'76'
p742
sg46
S'0.3'
p743
sg48
S'13.3'
p744
sg50
S'5.8'
p745
sg52
S'27.4'
p746
sg54
S'2.4'
p747
sg56
S'1988-89'
p748
sg58
S'13.3'
p749
sg60
S'3.2'
p750
sg62
S'.486'
p751
sg64
S'2418'
p752
sg66
S'75'
p753
sba(isrc.gp1.models.Per100Possession
Per100Possession
p754
(dp755
g8
S'1.0'
p756
sg10
S'0.1'
p757
sg12
S'.491'
p758
sg560
S'110'
p759
sg14
S'4.6'
p760
sg16
S'.167'
p761
sg18
S'0.0'
p762
sg20
S'34.2'
p763
sg22
S'SG'
p764
sg567
S'114'
p765
sg24
S'.877'
p766
sg28
S'NBA'
p767
sg30
S'0.9'
p768
sg32
S'29.9'
p769
sg34
S'2.2'
p770
sg36
S'5.5'
p771
sg38
S'3.9'
p772
sg40
S'28'
p773
sg42
S'WSB'
p774
sg44
S'75'
p775
sg46
S'0.1'
p776
sg48
S'14.7'
p777
sg50
S'4.8'
p778
sg52
S'29.8'
p779
sg54
S'2.9'
p780
sg56
S'1989-90'
p781
sg58
S'14.7'
p782
sg60
S'2.4'
p783
sg62
S'.492'
p784
sg64
S'2567'
p785
sg66
S'74'
p786
sba(isrc.gp1.models.Per100Possession
Per100Possession
p787
(dp788
g8
S'0.7'
p789
sg10
S'0.1'
p790
sg12
S'.508'
p791
sg560
S'110'
p792
sg14
S'2.9'
p793
sg16
S'.167'
p794
sg18
S'0.0'
p795
sg20
S'26.2'
p796
sg22
S'SG'
p797
sg567
S'110'
p798
sg24
S'.917'
p799
sg28
S'NBA'
p800
sg30
S'1.0'
p801
sg32
S'21.1'
p802
sg34
S'2.6'
p803
sg36
S'5.1'
p804
sg38
S'4.2'
p805
sg40
S'29'
p806
sg42
S'UTA'
p807
sg44
S'69'
p808
sg46
S'0.1'
p809
sg48
S'10.7'
p810
sg50
S'4.7'
p811
sg52
S'21.0'
p812
sg54
S'3.5'
p813
sg56
S'1990-91'
p814
sg58
S'10.7'
p815
sg60
S'2.2'
p816
sg62
S'.510'
p817
sg64
S'2466'
p818
sg66
S'69'
p819
sba(isrc.gp1.models.Per100Possession
Per100Possession
p820
(dp821
g8
S'0.8'
p822
sg10
S'0.2'
p823
sg12
S'.511'
p824
sg560
S'111'
p825
sg14
S'3.1'
p826
sg16
S'.083'
p827
sg18
S'0.0'
p828
sg20
S'28.2'
p829
sg22
S'SG'
p830
sg567
S'111'
p831
sg24
S'.898'
p832
sg28
S'NBA'
p833
sg30
S'1.0'
p834
sg32
S'23.3'
p835
sg34
S'2.2'
p836
sg36
S'4.9'
p837
sg38
S'4.0'
p838
sg40
S'30'
p839
sg42
S'UTA'
p840
sg44
S'81'
p841
sg46
S'0.1'
p842
sg48
S'11.9'
p843
sg50
S'4.4'
p844
sg52
S'23.1'
p845
sg54
S'3.2'
p846
sg56
S'1991-92'
p847
sg58
S'11.9'
p848
sg60
S'2.4'
p849
sg62
S'.515'
p850
sg64
S'2922'
p851
sg66
S'81'
p852
sba(isrc.gp1.models.Per100Possession
Per100Possession
p853
(dp854
g8
S'0.6'
p855
sg10
S'0.2'
p856
sg12
S'.494'
p857
sg560
S'107'
p858
sg14
S'2.5'
p859
sg16
S'.333'
p860
sg18
S'0.1'
p861
sg20
S'27.8'
p862
sg22
S'SG'
p863
sg567
S'113'
p864
sg24
S'.852'
p865
sg28
S'NBA'
p866
sg30
S'0.8'
p867
sg32
S'23.4'
p868
sg34
S'2.3'
p869
sg36
S'5.4'
p870
sg38
S'3.4'
p871
sg40
S'31'
p872
sg42
S'UTA'
p873
sg44
S'79'
p874
sg46
S'0.1'
p875
sg48
S'11.5'
p876
sg50
S'4.6'
p877
sg52
S'23.2'
p878
sg54
S'2.8'
p879
sg56
S'1992-93'
p880
sg58
S'11.6'
p881
sg60
S'2.4'
p882
sg62
S'.495'
p883
sg64
S'2558'
p884
sg66
S'59'
p885
sba(isrc.gp1.models.Per100Possession
Per100Possession
p886
(dp887
g8
S'1.0'
p888
sg10
S'0.2'
p889
sg12
S'.486'
p890
sg560
S'108'
p891
sg14
S'2.5'
p892
sg16
S'.583'
p893
sg18
S'0.1'
p894
sg20
S'25.2'
p895
sg22
S'SG'
p896
sg567
S'112'
p897
sg24
S'.830'
p898
sg28
S'NBA'
p899
sg30
S'0.8'
p900
sg32
S'21.6'
p901
sg34
S'2.5'
p902
sg36
S'4.9'
p903
sg38
S'4.0'
p904
sg40
S'32'
p905
sg42
S'TOT'
p906
sg44
S'77'
p907
sg46
S'0.1'
p908
sg48
S'10.3'
p909
sg50
S'4.1'
p910
sg52
S'21.3'
p911
sg54
S'3.0'
p912
sg56
S'1993-94'
p913
sg58
S'10.5'
p914
sg60
S'1.7'
p915
sg62
S'.485'
p916
sg64
S'2560'
p917
sg66
S'73'
p918
sba(isrc.gp1.models.Per100Possession
Per100Possession
p919
(dp920
g8
S'0.9'
p921
sg10
S'0.2'
p922
sg12
S'.488'
p923
sg560
S'108'
p924
sg14
S'2.1'
p925
sg16
S'.500'
p926
sg18
S'0.1'
p927
sg20
S'25.1'
p928
sg22
S'SG'
p929
sg567
S'110'
p930
sg24
S'.843'
p931
sg28
S'NBA'
p932
sg30
S'0.8'
p933
sg32
S'21.5'
p934
sg34
S'2.4'
p935
sg36
S'4.8'
p936
sg38
S'3.6'
p937
sg40
S'32'
p938
sg42
S'UTA'
p939
sg44
S'50'
p940
sg46
S'0.2'
p941
sg48
S'10.4'
p942
sg50
S'4.0'
p943
sg52
S'21.3'
p944
sg54
S'2.7'
p945
sg56
S'1993-94'
p946
sg58
S'10.5'
p947
sg60
S'1.8'
p948
sg62
S'.488'
p949
sg64
S'1657'
p950
sg66
S'50'
p951
sba(isrc.gp1.models.Per100Possession
Per100Possession
p952
(dp953
g8
S'1.3'
p954
sg10
S'0.3'
p955
sg12
S'.481'
p956
sg560
S'110'
p957
sg14
S'3.3'
p958
sg16
S'.667'
p959
sg18
S'0.2'
p960
sg20
S'25.2'
p961
sg22
S'SG'
p962
sg567
S'115'
p963
sg24
S'.809'
p964
sg28
S'NBA'
p965
sg30
S'0.8'
p966
sg32
S'21.6'
p967
sg34
S'2.6'
p968
sg36
S'5.2'
p969
sg38
S'4.7'
p970
sg40
S'32'
p971
sg42
S'PHI'
p972
sg44
S'27'
p973
sg46
S'0.0'
p974
sg48
S'10.2'
p975
sg50
S'4.2'
p976
sg52
S'21.3'
p977
sg54
S'3.4'
p978
sg56
S'1993-94'
p979
sg58
S'10.4'
p980
sg60
S'1.6'
p981
sg62
S'.478'
p982
sg64
S'903'
p983
sg66
S'23'
p984
sba(isrc.gp1.models.Per100Possession
Per100Possession
p985
(dp986
g8
S'0.9'
p987
sg10
S'2.2'
p988
sg12
S'.507'
p989
sg560
S'113'
p990
sg14
S'2.3'
p991
sg16
S'.393'
p992
sg18
S'0.9'
p993
sg20
S'28.0'
p994
sg22
S'SG'
p995
sg567
S'114'
p996
sg24
S'.864'
p997
sg28
S'NBA'
p998
sg30
S'1.2'
p999
sg32
S'22.7'
p1000
sg34
S'2.8'
p1001
sg36
S'4.7'
p1002
sg38
S'4.4'
p1003
sg40
S'33'
p1004
sg42
S'PHI'
p1005
sg44
S'19'
p1006
sg46
S'0.0'
p1007
sg48
S'10.6'
p1008
sg50
S'4.1'
p1009
sg52
S'20.5'
p1010
sg54
S'3.5'
p1011
sg56
S'1994-95'
p1012
sg58
S'11.5'
p1013
sg60
S'2.3'
p1014
sg62
S'.520'
p1015
sg64
S'660'
p1016
sg66
S'19'
p1017
sba(isrc.gp1.models.Per100Possession
Per100Possession
p1018
(dp1019
g8
S'0.8'
p1020
sg10
S'1.6'
p1021
sg12
S'.394'
p1022
sg560
S'93'
p1023
sg14
S'2.7'
p1024
sg16
S'.313'
p1025
sg18
S'0.5'
p1026
sg20
S'19.0'
p1027
sg22
S'SG'
p1028
sg567
S'114'
p1029
sg24
S'.906'
p1030
sg28
S'NBA'
p1031
sg30
S'1.6'
p1032
sg32
S'19.7'
p1033
sg34
S'2.6'
p1034
sg36
S'3.3'
p1035
sg38
S'4.1'
p1036
sg40
S'34'
p1037
sg42
S'TOT'
p1038
sg44
S'32'
p1039
sg46
S'0.0'
p1040
sg48
S'7.3'
p1041
sg50
S'3.0'
p1042
sg52
S'18.1'
p1043
sg54
S'3.3'
p1044
sg56
S'1995-96'
p1045
sg58
S'7.8'
p1046
sg60
S'2.3'
p1047
sg62
S'.401'
p1048
sg64
S'510'
p1049
sg66
g107
sba(isrc.gp1.models.Per100Possession
Per100Possession
p1050
(dp1051
g8
S'1.0'
p1052
sg10
S'2.0'
p1053
sg12
S'.394'
p1054
sg560
S'93'
p1055
sg14
S'2.4'
p1056
sg16
S'.313'
p1057
sg18
S'0.6'
p1058
sg20
S'19.8'
p1059
sg22
S'SG'
p1060
sg567
S'116'
p1061
sg24
S'.923'
p1062
sg28
S'NBA'
p1063
sg30
S'1.7'
p1064
sg32
S'20.5'
p1065
sg34
S'2.4'
p1066
sg36
S'3.3'
p1067
sg38
S'4.1'
p1068
sg40
S'34'
p1069
sg42
S'PHI'
p1070
sg44
S'25'
p1071
sg46
S'0.0'
p1072
sg48
S'7.4'
p1073
sg50
S'3.1'
p1074
sg52
S'18.4'
p1075
sg54
S'3.1'
p1076
sg56
S'1995-96'
p1077
sg58
S'8.1'
p1078
sg60
S'2.4'
p1079
sg62
S'.403'
p1080
sg64
S'407'
p1081
sg66
g107
sba(isrc.gp1.models.Per100Possession
Per100Possession
p1082
(dp1083
g8
S'0.0'
p1084
sg10
S'0.0'
p1085
sg12
S'.394'
p1086
sg560
S'95'
p1087
sg14
S'3.6'
p1088
sg16
g3
sg18
S'0.0'
p1089
sg20
S'15.9'
p1090
sg22
S'SG'
p1091
sg567
S'107'
p1092
sg24
S'.833'
p1093
sg28
S'NBA'
p1094
sg30
S'1.5'
p1095
sg32
S'16.9'
p1096
sg34
S'3.1'
p1097
sg36
S'3.1'
p1098
sg38
S'4.1'
p1099
sg40
S'34'
p1100
sg42
S'MIA'
p1101
sg44
g354
sg46
S'0.0'
p1102
sg48
S'6.6'
p1103
sg50
S'2.6'
p1104
sg52
S'16.9'
p1105
sg54
S'4.1'
p1106
sg56
S'1995-96'
p1107
sg58
S'6.6'
p1108
sg60
S'1.5'
p1109
sg62
S'.394'
p1110
sg64
S'103'
p1111
sg66
g426
sbasS'_advanced'
p1112
(lp1113
(isrc.gp1.models.Advanced
Advanced
p1114
(dp1115
S'_offensiveReboundPercentage'
p1116
S'3.4'
p1117
sS'_turnOverPercentage'
p1118
S'10.0'
p1119
sS'_winSharesPer48Minutes'
p1120
S'.032'
p1121
sS'_stealPercentage'
p1122
S'0.6'
p1123
sS'_usagePercentage'
p1124
S'23.8'
p1125
sS'_totalReboundsPercentage'
p1126
S'4.6'
p1127
sS'_defensiveBoxPlusMinus'
p1128
S'-2.7'
p1129
sg22
S'SG'
p1130
sS'_valueOverReplacementPlayer'
p1131
S'-1.3'
p1132
sS'_trueShootingPercentage'
p1133
S'.494'
p1134
sS'_defensiveReboundPercentage'
p1135
S'5.8'
p1136
sS'_freeThrowsAttempRate'
p1137
S'.187'
p1138
sS'_threePointsAttempRate'
p1139
S'.081'
p1140
sg28
S'NBA'
p1141
sS'_offensiveBoxPlusMinues'
p1142
S'-2.0'
p1143
sS'_assistPercentage'
p1144
S'12.1'
p1145
sS'_defensiveWinShares'
p1146
S'1.1'
p1147
sg40
S'22'
p1148
sg42
S'WSB'
p1149
sg44
S'81'
p1150
sS'_blockPercentage'
p1151
S'0.4'
p1152
sS'_playerEfficiencyRating'
p1153
S'11.3'
p1154
sS'_offensiveWinShares'
p1155
S'0.2'
p1156
sg64
S'1976'
p1157
sS'_boxPlusMinus'
p1158
S'-4.7'
p1159
sg56
S'1983-84'
p1160
sS'_winShares'
p1161
S'1.3'
p1162
sba(isrc.gp1.models.Advanced
Advanced
p1163
(dp1164
g1116
S'2.5'
p1165
sg1118
S'7.5'
p1166
sg1120
S'.105'
p1167
sg1122
S'1.0'
p1168
sg1124
S'22.8'
p1169
sg1126
S'4.3'
p1170
sg1128
S'-1.6'
p1171
sg22
S'SG'
p1172
sg1131
S'0.6'
p1173
sg1133
S'.543'
p1174
sg1135
S'6.3'
p1175
sg1137
S'.206'
p1176
sg1139
S'.059'
p1177
sg28
S'NBA'
p1178
sg1142
S'0.6'
p1179
sg1144
S'10.7'
p1180
sg1146
S'2.3'
p1181
sg40
S'23'
p1182
sg42
S'WSB'
p1183
sg44
S'76'
p1184
sg1151
S'0.2'
p1185
sg1153
S'15.0'
p1186
sg1155
S'3.4'
p1187
sg64
S'2613'
p1188
sg1158
S'-1.0'
p1189
sg56
S'1984-85'
p1190
sg1161
S'5.7'
p1191
sba(isrc.gp1.models.Advanced
Advanced
p1192
(dp1193
g1116
S'2.4'
p1194
sg1118
S'9.1'
p1195
sg1120
S'.098'
p1196
sg1122
S'1.1'
p1197
sg1124
S'25.9'
p1198
sg1126
S'5.2'
p1199
sg1128
S'-1.9'
p1200
sg22
S'SG'
p1201
sg1131
S'0.5'
p1202
sg1133
S'.533'
p1203
sg1135
S'8.0'
p1204
sg1137
S'.244'
p1205
sg1139
S'.011'
p1206
sg28
S'NBA'
p1207
sg1142
S'0.6'
p1208
sg1144
S'10.9'
p1209
sg1146
S'2.5'
p1210
sg40
S'24'
p1211
sg42
S'WSB'
p1212
sg44
S'80'
p1213
sg1151
S'0.2'
p1214
sg1153
S'16.3'
p1215
sg1155
S'3.6'
p1216
sg64
S'2992'
p1217
sg1158
S'-1.4'
p1218
sg56
S'1985-86'
p1219
sg1161
S'6.1'
p1220
sba(isrc.gp1.models.Advanced
Advanced
p1221
(dp1222
g1116
S'1.9'
p1223
sg1118
S'9.7'
p1224
sg1120
S'.097'
p1225
sg1122
S'1.3'
p1226
sg1124
S'27.3'
p1227
sg1126
S'4.2'
p1228
sg1128
S'-2.2'
p1229
sg22
S'SG'
p1230
sg1131
S'0.8'
p1231
sg1133
S'.518'
p1232
sg1135
S'6.6'
p1233
sg1137
S'.282'
p1234
sg1139
S'.017'
p1235
sg28
S'NBA'
p1236
sg1142
S'1.3'
p1237
sg1144
S'17.9'
p1238
sg1146
S'1.8'
p1239
sg40
S'25'
p1240
sg42
S'WSB'
p1241
sg44
S'80'
p1242
sg1151
S'0.3'
p1243
sg1153
S'17.0'
p1244
sg1155
S'3.8'
p1245
sg64
S'2763'
p1246
sg1158
S'-0.9'
p1247
sg56
S'1986-87'
p1248
sg1161
S'5.6'
p1249
sba(isrc.gp1.models.Advanced
Advanced
p1250
(dp1251
g1116
S'1.8'
p1252
sg1118
S'10.1'
p1253
sg1120
S'.101'
p1254
sg1122
S'0.9'
p1255
sg1124
S'26.4'
p1256
sg1126
S'4.3'
p1257
sg1128
S'-2.4'
p1258
sg22
S'SG'
p1259
sg1131
S'0.5'
p1260
sg1133
S'.537'
p1261
sg1135
S'6.9'
p1262
sg1137
S'.279'
p1263
sg1139
S'.018'
p1264
sg28
S'NBA'
p1265
sg1142
S'1.1'
p1266
sg1144
S'14.9'
p1267
sg1146
S'1.5'
p1268
sg40
S'26'
p1269
sg42
S'WSB'
p1270
sg44
S'80'
p1271
sg1151
S'0.3'
p1272
sg1153
S'16.1'
p1273
sg1155
S'4.0'
p1274
sg64
S'2655'
p1275
sg1158
S'-1.3'
p1276
sg56
S'1987-88'
p1277
sg1161
S'5.6'
p1278
sba(isrc.gp1.models.Advanced
Advanced
p1279
(dp1280
g1116
S'2.4'
p1281
sg1118
S'9.6'
p1282
sg1120
S'.081'
p1283
sg1122
S'0.8'
p1284
sg1124
S'28.6'
p1285
sg1126
S'4.0'
p1286
sg1128
S'-3.4'
p1287
sg22
S'SG'
p1288
sg1131
S'-0.3'
p1289
sg1133
S'.529'
p1290
sg1135
S'5.8'
p1291
sg1137
S'.241'
p1292
sg1139
S'.013'
p1293
sg28
S'NBA'
p1294
sg1142
S'0.8'
p1295
sg1144
S'14.9'
p1296
sg1146
S'0.9'
p1297
sg40
S'27'
p1298
sg42
S'WSB'
p1299
sg44
S'76'
p1300
sg1151
S'0.3'
p1301
sg1153
S'16.7'
p1302
sg1155
S'3.2'
p1303
sg64
S'2418'
p1304
sg1158
S'-2.6'
p1305
sg56
S'1988-89'
p1306
sg1161
S'4.1'
p1307
sba(isrc.gp1.models.Advanced
Advanced
p1308
(dp1309
g1116
S'2.3'
p1310
sg1118
S'6.8'
p1311
sg1120
S'.098'
p1312
sg1122
S'0.9'
p1313
sg1124
S'29.4'
p1314
sg1126
S'4.3'
p1315
sg1128
S'-3.8'
p1316
sg22
S'SG'
p1317
sg1131
S'0.0'
p1318
sg1133
S'.529'
p1319
sg1135
S'6.4'
p1320
sg1137
S'.184'
p1321
sg1139
S'.004'
p1322
sg28
S'NBA'
p1323
sg1142
S'1.7'
p1324
sg1144
S'15.7'
p1325
sg1146
S'0.8'
p1326
sg40
S'28'
p1327
sg42
S'WSB'
p1328
sg44
S'75'
p1329
sg1151
S'0.1'
p1330
sg1153
S'18.5'
p1331
sg1155
S'4.4'
p1332
sg64
S'2567'
p1333
sg1158
S'-2.1'
p1334
sg56
S'1989-90'
p1335
sg1161
S'5.2'
p1336
sba(isrc.gp1.models.Advanced
Advanced
p1337
(dp1338
g1116
S'1.8'
p1339
sg1118
S'8.6'
p1340
sg1120
S'.100'
p1341
sg1122
S'1.0'
p1342
sg1124
S'22.5'
p1343
sg1126
S'4.9'
p1344
sg1128
S'-1.1'
p1345
sg22
S'SG'
p1346
sg1131
S'0.5'
p1347
sg1133
S'.560'
p1348
sg1135
S'7.6'
p1349
sg1137
S'.244'
p1350
sg1139
S'.006'
p1351
sg28
S'NBA'
p1352
sg1142
S'-0.1'
p1353
sg1144
S'9.7'
p1354
sg1146
S'2.0'
p1355
sg40
S'29'
p1356
sg42
S'UTA'
p1357
sg44
S'69'
p1358
sg1151
S'0.2'
p1359
sg1153
S'14.4'
p1360
sg1155
S'3.1'
p1361
sg64
S'2466'
p1362
sg1158
S'-1.2'
p1363
sg56
S'1990-91'
p1364
sg1161
S'5.1'
p1365
sba(isrc.gp1.models.Advanced
Advanced
p1366
(dp1367
g1116
S'2.0'
p1368
sg1118
S'8.7'
p1369
sg1120
S'.108'
p1370
sg1122
S'1.0'
p1371
sg1124
S'23.9'
p1372
sg1126
S'4.5'
p1373
sg1128
S'-1.7'
p1374
sg22
S'SG'
p1375
sg1131
S'0.5'
p1376
sg1133
S'.554'
p1377
sg1135
S'6.8'
p1378
sg1137
S'.211'
p1379
sg1139
S'.009'
p1380
sg28
S'NBA'
p1381
sg1142
S'0.5'
p1382
sg1144
S'10.0'
p1383
sg1146
S'2.1'
p1384
sg40
S'30'
p1385
sg42
S'UTA'
p1386
sg44
S'81'
p1387
sg1151
S'0.1'
p1388
sg1153
S'15.1'
p1389
sg1155
S'4.5'
p1390
sg64
S'2922'
p1391
sg1158
S'-1.3'
p1392
sg56
S'1991-92'
p1393
sg1161
S'6.6'
p1394
sba(isrc.gp1.models.Advanced
Advanced
p1395
(dp1396
g1116
S'1.4'
p1397
sg1118
S'8.6'
p1398
sg1120
S'.068'
p1399
sg1122
S'0.8'
p1400
sg1124
S'24.4'
p1401
sg1126
S'3.9'
p1402
sg1128
S'-2.6'
p1403
sg22
S'SG'
p1404
sg1131
S'-1.1'
p1405
sg1133
S'.538'
p1406
sg1135
S'6.1'
p1407
sg1137
S'.230'
p1408
sg1139
S'.007'
p1409
sg28
S'NBA'
p1410
sg1142
S'-1.1'
p1411
sg1144
S'8.2'
p1412
sg1146
S'1.2'
p1413
sg40
S'31'
p1414
sg42
S'UTA'
p1415
sg44
S'79'
p1416
sg1151
S'0.1'
p1417
sg1153
S'13.7'
p1418
sg1155
S'2.4'
p1419
sg64
S'2558'
p1420
sg1158
S'-3.6'
p1421
sg56
S'1992-93'
p1422
sg1161
S'3.6'
p1423
sba(isrc.gp1.models.Advanced
Advanced
p1424
(dp1425
g1116
S'2.3'
p1426
sg1118
S'6.7'
p1427
sg1120
S'.079'
p1428
sg1122
S'0.8'
p1429
sg1124
S'21.9'
p1430
sg1126
S'4.4'
p1431
sg1128
S'-2.4'
p1432
sg22
S'SG'
p1433
sg1131
S'-0.6'
p1434
sg1133
S'.530'
p1435
sg1135
S'6.5'
p1436
sg1137
S'.228'
p1437
sg1139
S'.011'
p1438
sg28
S'NBA'
p1439
sg1142
S'-0.6'
p1440
sg1144
S'8.3'
p1441
sg1146
S'0.9'
p1442
sg40
S'32'
p1443
sg42
S'TOT'
p1444
sg44
S'77'
p1445
sg1151
S'0.1'
p1446
sg1153
S'13.5'
p1447
sg1155
S'3.2'
p1448
sg64
S'2560'
p1449
sg1158
S'-3.0'
p1450
sg56
S'1993-94'
p1451
sg1161
S'4.2'
p1452
sba(isrc.gp1.models.Advanced
Advanced
p1453
(dp1454
g1116
S'2.0'
p1455
sg1118
S'7.0'
p1456
sg1120
S'.083'
p1457
sg1122
S'0.8'
p1458
sg1124
S'21.8'
p1459
sg1126
S'4.0'
p1460
sg1128
S'-1.9'
p1461
sg22
S'SG'
p1462
sg1131
S'-0.3'
p1463
sg1133
S'.532'
p1464
sg1135
S'6.0'
p1465
sg1137
S'.221'
p1466
sg1139
S'.009'
p1467
sg28
S'NBA'
p1468
sg1142
S'-0.8'
p1469
sg1144
S'6.6'
p1470
sg1146
S'1.0'
p1471
sg40
S'32'
p1472
sg42
S'UTA'
p1473
sg44
S'50'
p1474
sg1151
S'0.2'
p1475
sg1153
S'12.9'
p1476
sg1155
S'1.9'
p1477
sg64
S'1657'
p1478
sg1158
S'-2.7'
p1479
sg56
S'1993-94'
p1480
sg1161
S'2.9'
p1481
sba(isrc.gp1.models.Advanced
Advanced
p1482
(dp1483
g1116
S'2.8'
p1484
sg1118
S'6.1'
p1485
sg1120
S'.070'
p1486
sg1122
S'0.8'
p1487
sg1124
S'22.1'
p1488
sg1126
S'5.1'
p1489
sg1128
S'-3.3'
p1490
sg22
S'SG'
p1491
sg1131
S'-0.3'
p1492
sg1133
S'.527'
p1493
sg1135
S'7.4'
p1494
sg1137
S'.242'
p1495
sg1139
S'.015'
p1496
sg28
S'NBA'
p1497
sg1142
S'-0.2'
p1498
sg1144
S'11.3'
p1499
sg1146
S'0.0'
p1500
sg40
S'32'
p1501
sg42
S'PHI'
p1502
sg44
S'27'
p1503
sg1151
S'0.0'
p1504
sg1153
S'14.7'
p1505
sg1155
S'1.3'
p1506
sg64
S'903'
p1507
sg1158
S'-3.5'
p1508
sg56
S'1993-94'
p1509
sg1161
S'1.3'
p1510
sba(isrc.gp1.models.Advanced
Advanced
p1511
(dp1512
g1116
S'1.9'
p1513
sg1118
S'8.6'
p1514
sg1120
S'.094'
p1515
sg1122
S'1.2'
p1516
sg1124
S'22.9'
p1517
sg1126
S'4.9'
p1518
sg1128
S'-2.9'
p1519
sg22
S'SG'
p1520
sg1131
S'-0.1'
p1521
sg1133
S'.565'
p1522
sg1135
S'7.8'
p1523
sg1137
S'.208'
p1524
sg1139
S'.099'
p1525
sg28
S'NBA'
p1526
sg1142
S'0.3'
p1527
sg1144
S'8.3'
p1528
sg1146
S'0.2'
p1529
sg40
S'33'
p1530
sg42
S'PHI'
p1531
sg44
S'19'
p1532
sg1151
S'0.0'
p1533
sg1153
S'15.9'
p1534
sg1155
S'1.1'
p1535
sg64
S'660'
p1536
sg1158
S'-2.7'
p1537
sg56
S'1994-95'
p1538
sg1161
S'1.3'
p1539
sba(isrc.gp1.models.Advanced
Advanced
p1540
(dp1541
g1116
S'1.8'
p1542
sg1118
S'9.6'
p1543
sg1120
S'-0.022'
p1544
sg1122
S'1.6'
p1545
sg1124
S'20.1'
p1546
sg1126
S'4.5'
p1547
sg1128
S'-3.0'
p1548
sg22
S'SG'
p1549
sg1131
S'-0.8'
p1550
sg1133
S'.449'
p1551
sg1135
S'7.4'
p1552
sg1137
S'.166'
p1553
sg1139
S'.083'
p1554
sg28
S'NBA'
p1555
sg1142
S'-5.0'
p1556
sg1144
S'9.0'
p1557
sg1146
S'0.1'
p1558
sg40
S'34'
p1559
sg42
S'TOT'
p1560
sg44
S'32'
p1561
sg1151
S'0.0'
p1562
sg1153
S'8.8'
p1563
sg1155
S'-0.3'
p1564
sg64
S'510'
p1565
sg1158
S'-8.0'
p1566
sg56
S'1995-96'
p1567
sg1161
S'-0.2'
p1568
sba(isrc.gp1.models.Advanced
Advanced
p1569
(dp1570
g1116
S'2.2'
p1571
sg1118
S'10.0'
p1572
sg1120
S'-0.036'
p1573
sg1122
S'1.7'
p1574
sg1124
S'20.9'
p1575
sg1126
S'4.5'
p1576
sg1128
S'-3.5'
p1577
sg22
S'SG'
p1578
sg1131
S'-0.7'
p1579
sg1133
S'.452'
p1580
sg1135
S'7.0'
p1581
sg1137
S'.163'
p1582
sg1139
S'.100'
p1583
sg28
S'NBA'
p1584
sg1142
S'-4.9'
p1585
sg1144
S'8.4'
p1586
sg1146
S'0.0'
p1587
sg40
S'34'
p1588
sg42
S'PHI'
p1589
sg44
S'25'
p1590
sg1151
S'0.0'
p1591
sg1153
S'9.0'
p1592
sg1155
S'-0.3'
p1593
sg64
S'407'
p1594
sg1158
S'-8.4'
p1595
sg56
S'1995-96'
p1596
sg1161
S'-0.3'
p1597
sba(isrc.gp1.models.Advanced
Advanced
p1598
(dp1599
g1116
S'0.0'
p1600
sg1118
S'7.8'
p1601
sg1120
S'.034'
p1602
sg1122
S'1.5'
p1603
sg1124
S'17.0'
p1604
sg1126
S'4.5'
p1605
sg1128
S'-0.9'
p1606
sg22
S'SG'
p1607
sg1131
S'-0.1'
p1608
sg1133
S'.435'
p1609
sg1135
S'8.8'
p1610
sg1137
S'.182'
p1611
sg1139
S'.000'
p1612
sg28
S'NBA'
p1613
sg1142
S'-5.5'
p1614
sg1144
S'11.2'
p1615
sg1146
S'0.1'
p1616
sg40
S'34'
p1617
sg42
S'MIA'
p1618
sg44
g354
sg1151
S'0.0'
p1619
sg1153
S'8.0'
p1620
sg1155
S'0.0'
p1621
sg64
S'103'
p1622
sg1158
S'-6.5'
p1623
sg56
S'1995-96'
p1624
sg1161
S'0.1'
p1625
sbasS'_per36Minutes'
p1626
(lp1627
(isrc.gp1.models.Per36Minutes
Per36Minutes
p1628
(dp1629
g8
S'1.0'
p1630
sg10
S'1.3'
p1631
sg12
S'.444'
p1632
sg14
S'2.8'
p1633
sg16
S'.324'
p1634
sg18
S'0.4'
p1635
sg20
S'17.9'
p1636
sg22
S'SG'
p1637
sg24
S'.826'
p1638
sg28
S'NBA'
p1639
sg30
S'0.4'
p1640
sg32
S'16.7'
p1641
sg34
S'3.0'
p1642
sg36
S'3.1'
p1643
sg38
S'2.8'
p1644
sg40
S'22'
p1645
sg42
S'WSB'
p1646
sg44
S'81'
p1647
sg46
S'0.2'
p1648
sg48
S'7.0'
p1649
sg50
S'2.6'
p1650
sg52
S'15.4'
p1651
sg54
S'1.8'
p1652
sg56
S'1983-84'
p1653
sg58
S'7.4'
p1654
sg60
S'2.0'
p1655
sg62
S'.455'
p1656
sg64
S'1976'
p1657
sg66
g67
sba(isrc.gp1.models.Per36Minutes
Per36Minutes
p1658
(dp1659
g8
S'0.8'
p1660
sg10
S'1.0'
p1661
sg12
S'.499'
p1662
sg14
S'2.5'
p1663
sg16
S'.208'
p1664
sg18
S'0.2'
p1665
sg20
S'19.8'
p1666
sg22
S'SG'
p1667
sg24
S'.844'
p1668
sg28
S'NBA'
p1669
sg30
S'0.7'
p1670
sg32
S'16.7'
p1671
sg34
S'2.4'
p1672
sg36
S'3.4'
p1673
sg38
S'2.8'
p1674
sg40
S'23'
p1675
sg42
S'WSB'
p1676
sg44
S'76'
p1677
sg46
S'0.1'
p1678
sg48
S'8.1'
p1679
sg50
S'2.9'
p1680
sg52
S'15.7'
p1681
sg54
S'2.0'
p1682
sg56
S'1984-85'
p1683
sg58
S'8.3'
p1684
sg60
S'1.5'
p1685
sg62
S'.517'
p1686
sg64
S'2613'
p1687
sg66
S'61'
p1688
sba(isrc.gp1.models.Per36Minutes
Per36Minutes
p1689
(dp1690
g8
S'0.8'
p1691
sg10
S'0.2'
p1692
sg12
S'.483'
p1693
sg14
S'2.3'
p1694
sg16
S'.176'
p1695
sg18
S'0.0'
p1696
sg20
S'21.6'
p1697
sg22
S'SG'
p1698
sg24
S'.868'
p1699
sg28
S'NBA'
p1700
sg30
S'0.8'
p1701
sg32
S'18.3'
p1702
sg34
S'2.2'
p1703
sg36
S'4.5'
p1704
sg38
S'3.5'
p1705
sg40
S'24'
p1706
sg42
S'WSB'
p1707
sg44
S'80'
p1708
sg46
S'0.1'
p1709
sg48
S'8.8'
p1710
sg50
S'3.9'
p1711
sg52
S'18.1'
p1712
sg54
S'2.7'
p1713
sg56
S'1985-86'
p1714
sg58
S'8.8'
p1715
sg60
S'2.0'
p1716
sg62
S'.486'
p1717
sg64
S'2992'
p1718
sg66
S'80'
p1719
sba(isrc.gp1.models.Per36Minutes
Per36Minutes
p1720
(dp1721
g8
S'0.7'
p1722
sg10
S'0.3'
p1723
sg12
S'.457'
p1724
sg14
S'3.9'
p1725
sg16
S'.154'
p1726
sg18
S'0.1'
p1727
sg20
S'22.9'
p1728
sg22
S'SG'
p1729
sg24
S'.885'
p1730
sg28
S'NBA'
p1731
sg30
S'1.0'
p1732
sg32
S'19.7'
p1733
sg34
S'2.0'
p1734
sg36
S'5.5'
p1735
sg38
S'2.8'
p1736
sg40
S'25'
p1737
sg42
S'WSB'
p1738
sg44
S'80'
p1739
sg46
S'0.2'
p1740
sg48
S'8.9'
p1741
sg50
S'4.9'
p1742
sg52
S'19.3'
p1743
sg54
S'2.2'
p1744
sg56
S'1986-87'
p1745
sg58
S'9.0'
p1746
sg60
S'2.4'
p1747
sg62
S'.462'
p1748
sg64
S'2763'
p1749
sg66
S'79'
p1750
sba(isrc.gp1.models.Per36Minutes
Per36Minutes
p1751
(dp1752
g8
S'0.6'
p1753
sg10
S'0.3'
p1754
sg12
S'.476'
p1755
sg14
S'3.2'
p1756
sg16
S'.417'
p1757
sg18
S'0.1'
p1758
sg20
S'22.3'
p1759
sg22
S'SG'
p1760
sg24
S'.882'
p1761
sg28
S'NBA'
p1762
sg30
S'0.7'
p1763
sg32
S'18.4'
p1764
sg34
S'2.7'
p1765
sg36
S'5.2'
p1766
sg38
S'2.8'
p1767
sg40
S'26'
p1768
sg42
S'WSB'
p1769
sg44
S'80'
p1770
sg46
S'0.2'
p1771
sg48
S'8.7'
p1772
sg50
S'4.5'
p1773
sg52
S'18.1'
p1774
sg54
S'2.2'
p1775
sg56
S'1987-88'
p1776
sg58
S'8.8'
p1777
sg60
S'2.3'
p1778
sg62
S'.478'
p1779
sg64
S'2655'
p1780
sg66
S'80'
p1781
sba(isrc.gp1.models.Per36Minutes
Per36Minutes
p1782
(dp1783
g8
S'0.8'
p1784
sg10
S'0.3'
p1785
sg12
S'.480'
p1786
sg14
S'3.3'
p1787
sg16
S'.053'
p1788
sg18
S'0.0'
p1789
sg20
S'24.6'
p1790
sg22
S'SG'
p1791
sg24
S'.871'
p1792
sg28
S'NBA'
p1793
sg30
S'0.6'
p1794
sg32
S'21.0'
p1795
sg34
S'2.3'
p1796
sg36
S'5.1'
p1797
sg38
S'2.7'
p1798
sg40
S'27'
p1799
sg42
S'WSB'
p1800
sg44
S'76'
p1801
sg46
S'0.2'
p1802
sg48
S'10.1'
p1803
sg50
S'4.4'
p1804
sg52
S'20.7'
p1805
sg54
S'1.8'
p1806
sg56
S'1988-89'
p1807
sg58
S'10.1'
p1808
sg60
S'2.5'
p1809
sg62
S'.486'
p1810
sg64
S'2418'
p1811
sg66
S'75'
p1812
sba(isrc.gp1.models.Per36Minutes
Per36Minutes
p1813
(dp1814
g8
S'0.8'
p1815
sg10
S'0.1'
p1816
sg12
S'.491'
p1817
sg14
S'3.4'
p1818
sg16
S'.167'
p1819
sg18
S'0.0'
p1820
sg20
S'25.5'
p1821
sg22
S'SG'
p1822
sg24
S'.877'
p1823
sg28
S'NBA'
p1824
sg30
S'0.7'
p1825
sg32
S'22.3'
p1826
sg34
S'1.6'
p1827
sg36
S'4.1'
p1828
sg38
S'2.9'
p1829
sg40
S'28'
p1830
sg42
S'WSB'
p1831
sg44
S'75'
p1832
sg46
S'0.1'
p1833
sg48
S'10.9'
p1834
sg50
S'3.6'
p1835
sg52
S'22.2'
p1836
sg54
S'2.1'
p1837
sg56
S'1989-90'
p1838
sg58
S'11.0'
p1839
sg60
S'1.8'
p1840
sg62
S'.492'
p1841
sg64
S'2567'
p1842
sg66
S'74'
p1843
sba(isrc.gp1.models.Per36Minutes
Per36Minutes
p1844
(dp1845
g8
S'0.5'
p1846
sg10
S'0.1'
p1847
sg12
S'.508'
p1848
sg14
S'2.1'
p1849
sg16
S'.167'
p1850
sg18
S'0.0'
p1851
sg20
S'18.7'
p1852
sg22
S'SG'
p1853
sg24
S'.917'
p1854
sg28
S'NBA'
p1855
sg30
S'0.7'
p1856
sg32
S'15.1'
p1857
sg34
S'1.9'
p1858
sg36
S'3.7'
p1859
sg38
S'3.0'
p1860
sg40
S'29'
p1861
sg42
S'UTA'
p1862
sg44
S'69'
p1863
sg46
S'0.1'
p1864
sg48
S'7.6'
p1865
sg50
S'3.4'
p1866
sg52
S'15.0'
p1867
sg54
S'2.5'
p1868
sg56
S'1990-91'
p1869
sg58
S'7.7'
p1870
sg60
S'1.6'
p1871
sg62
S'.510'
p1872
sg64
S'2466'
p1873
sg66
S'69'
p1874
sba(isrc.gp1.models.Per36Minutes
Per36Minutes
p1875
(dp1876
g8
S'0.6'
p1877
sg10
S'0.1'
p1878
sg12
S'.511'
p1879
sg14
S'2.2'
p1880
sg16
S'.083'
p1881
sg18
S'0.0'
p1882
sg20
S'20.2'
p1883
sg22
S'SG'
p1884
sg24
S'.898'
p1885
sg28
S'NBA'
p1886
sg30
S'0.7'
p1887
sg32
S'16.7'
p1888
sg34
S'1.6'
p1889
sg36
S'3.5'
p1890
sg38
S'2.9'
p1891
sg40
S'30'
p1892
sg42
S'UTA'
p1893
sg44
S'81'
p1894
sg46
S'0.1'
p1895
sg48
S'8.5'
p1896
sg50
S'3.2'
p1897
sg52
S'16.5'
p1898
sg54
S'2.3'
p1899
sg56
S'1991-92'
p1900
sg58
S'8.5'
p1901
sg60
S'1.7'
p1902
sg62
S'.515'
p1903
sg64
S'2922'
p1904
sg66
S'81'
p1905
sba(isrc.gp1.models.Per36Minutes
Per36Minutes
p1906
(dp1907
g8
S'0.4'
p1908
sg10
S'0.1'
p1909
sg12
S'.494'
p1910
sg14
S'1.8'
p1911
sg16
S'.333'
p1912
sg18
S'0.0'
p1913
sg20
S'20.1'
p1914
sg22
S'SG'
p1915
sg24
S'.852'
p1916
sg28
S'NBA'
p1917
sg30
S'0.6'
p1918
sg32
S'17.0'
p1919
sg34
S'1.6'
p1920
sg36
S'3.9'
p1921
sg38
S'2.4'
p1922
sg40
S'31'
p1923
sg42
S'UTA'
p1924
sg44
S'79'
p1925
sg46
S'0.1'
p1926
sg48
S'8.3'
p1927
sg50
S'3.3'
p1928
sg52
S'16.8'
p1929
sg54
S'2.0'
p1930
sg56
S'1992-93'
p1931
sg58
S'8.4'
p1932
sg60
S'1.8'
p1933
sg62
S'.495'
p1934
sg64
S'2558'
p1935
sg66
S'59'
p1936
sba(isrc.gp1.models.Per36Minutes
Per36Minutes
p1937
(dp1938
g8
S'0.7'
p1939
sg10
S'0.2'
p1940
sg12
S'.486'
p1941
sg14
S'1.8'
p1942
sg16
S'.583'
p1943
sg18
S'0.1'
p1944
sg20
S'17.7'
p1945
sg22
S'SG'
p1946
sg24
S'.830'
p1947
sg28
S'NBA'
p1948
sg30
S'0.6'
p1949
sg32
S'15.2'
p1950
sg34
S'1.7'
p1951
sg36
S'3.5'
p1952
sg38
S'2.8'
p1953
sg40
S'32'
p1954
sg42
S'TOT'
p1955
sg44
S'77'
p1956
sg46
S'0.1'
p1957
sg48
S'7.3'
p1958
sg50
S'2.9'
p1959
sg52
S'15.0'
p1960
sg54
S'2.1'
p1961
sg56
S'1993-94'
p1962
sg58
S'7.4'
p1963
sg60
S'1.2'
p1964
sg62
S'.485'
p1965
sg64
S'2560'
p1966
sg66
S'73'
p1967
sba(isrc.gp1.models.Per36Minutes
Per36Minutes
p1968
(dp1969
g8
S'0.6'
p1970
sg10
S'0.1'
p1971
sg12
S'.488'
p1972
sg14
S'1.4'
p1973
sg16
S'.500'
p1974
sg18
S'0.1'
p1975
sg20
S'17.6'
p1976
sg22
S'SG'
p1977
sg24
S'.843'
p1978
sg28
S'NBA'
p1979
sg30
S'0.6'
p1980
sg32
S'15.0'
p1981
sg34
S'1.7'
p1982
sg36
S'3.3'
p1983
sg38
S'2.5'
p1984
sg40
S'32'
p1985
sg42
S'UTA'
p1986
sg44
S'50'
p1987
sg46
S'0.1'
p1988
sg48
S'7.3'
p1989
sg50
S'2.8'
p1990
sg52
S'14.9'
p1991
sg54
S'1.9'
p1992
sg56
S'1993-94'
p1993
sg58
S'7.3'
p1994
sg60
S'1.2'
p1995
sg62
S'.488'
p1996
sg64
S'1657'
p1997
sg66
S'50'
p1998
sba(isrc.gp1.models.Per36Minutes
Per36Minutes
p1999
(dp2000
g8
S'0.9'
p2001
sg10
S'0.2'
p2002
sg12
S'.481'
p2003
sg14
S'2.4'
p2004
sg16
S'.667'
p2005
sg18
S'0.2'
p2006
sg20
S'18.1'
p2007
sg22
S'SG'
p2008
sg24
S'.809'
p2009
sg28
S'NBA'
p2010
sg30
S'0.6'
p2011
sg32
S'15.5'
p2012
sg34
S'1.8'
p2013
sg36
S'3.7'
p2014
sg38
S'3.3'
p2015
sg40
S'32'
p2016
sg42
S'PHI'
p2017
sg44
S'27'
p2018
sg46
S'0.0'
p2019
sg48
S'7.3'
p2020
sg50
S'3.0'
p2021
sg52
S'15.3'
p2022
sg54
S'2.4'
p2023
sg56
S'1993-94'
p2024
sg58
S'7.5'
p2025
sg60
S'1.1'
p2026
sg62
S'.478'
p2027
sg64
S'903'
p2028
sg66
S'23'
p2029
sba(isrc.gp1.models.Per36Minutes
Per36Minutes
p2030
(dp2031
g8
S'0.6'
p2032
sg10
S'1.5'
p2033
sg12
S'.507'
p2034
sg14
S'1.6'
p2035
sg16
S'.393'
p2036
sg18
S'0.6'
p2037
sg20
S'19.1'
p2038
sg22
S'SG'
p2039
sg24
S'.864'
p2040
sg28
S'NBA'
p2041
sg30
S'0.8'
p2042
sg32
S'15.5'
p2043
sg34
S'1.9'
p2044
sg36
S'3.2'
p2045
sg38
S'3.0'
p2046
sg40
S'33'
p2047
sg42
S'PHI'
p2048
sg44
S'19'
p2049
sg46
S'0.0'
p2050
sg48
S'7.3'
p2051
sg50
S'2.8'
p2052
sg52
S'14.0'
p2053
sg54
S'2.4'
p2054
sg56
S'1994-95'
p2055
sg58
S'7.9'
p2056
sg60
S'1.6'
p2057
sg62
S'.520'
p2058
sg64
S'660'
p2059
sg66
S'19'
p2060
sba(isrc.gp1.models.Per36Minutes
Per36Minutes
p2061
(dp2062
g8
S'0.6'
p2063
sg10
S'1.1'
p2064
sg12
S'.394'
p2065
sg14
S'1.8'
p2066
sg16
S'.313'
p2067
sg18
S'0.4'
p2068
sg20
S'13.1'
p2069
sg22
S'SG'
p2070
sg24
S'.906'
p2071
sg28
S'NBA'
p2072
sg30
S'1.1'
p2073
sg32
S'13.6'
p2074
sg34
S'1.8'
p2075
sg36
S'2.3'
p2076
sg38
S'2.8'
p2077
sg40
S'34'
p2078
sg42
S'TOT'
p2079
sg44
S'32'
p2080
sg46
S'0.0'
p2081
sg48
S'5.0'
p2082
sg50
S'2.0'
p2083
sg52
S'12.5'
p2084
sg54
S'2.3'
p2085
sg56
S'1995-96'
p2086
sg58
S'5.4'
p2087
sg60
S'1.6'
p2088
sg62
S'.401'
p2089
sg64
S'510'
p2090
sg66
g107
sba(isrc.gp1.models.Per36Minutes
Per36Minutes
p2091
(dp2092
g8
S'0.7'
p2093
sg10
S'1.4'
p2094
sg12
S'.394'
p2095
sg14
S'1.7'
p2096
sg16
S'.313'
p2097
sg18
S'0.4'
p2098
sg20
S'13.7'
p2099
sg22
S'SG'
p2100
sg24
S'.923'
p2101
sg28
S'NBA'
p2102
sg30
S'1.1'
p2103
sg32
S'14.2'
p2104
sg34
S'1.7'
p2105
sg36
S'2.3'
p2106
sg38
S'2.8'
p2107
sg40
S'34'
p2108
sg42
S'PHI'
p2109
sg44
S'25'
p2110
sg46
S'0.0'
p2111
sg48
S'5.1'
p2112
sg50
S'2.1'
p2113
sg52
S'12.7'
p2114
sg54
S'2.1'
p2115
sg56
S'1995-96'
p2116
sg58
S'5.6'
p2117
sg60
S'1.7'
p2118
sg62
S'.403'
p2119
sg64
S'407'
p2120
sg66
g107
sba(isrc.gp1.models.Per36Minutes
Per36Minutes
p2121
(dp2122
g8
S'0.0'
p2123
sg10
S'0.0'
p2124
sg12
S'.394'
p2125
sg14
S'2.4'
p2126
sg16
g3
sg18
S'0.0'
p2127
sg20
S'10.8'
p2128
sg22
S'SG'
p2129
sg24
S'.833'
p2130
sg28
S'NBA'
p2131
sg30
S'1.0'
p2132
sg32
S'11.5'
p2133
sg34
S'2.1'
p2134
sg36
S'2.1'
p2135
sg38
S'2.8'
p2136
sg40
S'34'
p2137
sg42
S'MIA'
p2138
sg44
g354
sg46
S'0.0'
p2139
sg48
S'4.5'
p2140
sg50
S'1.7'
p2141
sg52
S'11.5'
p2142
sg54
S'2.8'
p2143
sg56
S'1995-96'
p2144
sg58
S'4.5'
p2145
sg60
S'1.0'
p2146
sg62
S'.394'
p2147
sg64
S'103'
p2148
sg66
g426
sbasS'_fromYear'
p2149
S'1984'
p2150
sS'_url'
p2151
S'http://www.basketball-reference.com/players/m/malonje01.html'
p2152
sS'_perGame'
p2153
(isrc.gp1.models.PerGame
PerGame
p2154
(dp2155
g8
S'0.0'
p2156
sg10
S'0.0'
p2157
sg12
S'.394'
p2158
sS'_effectiveFieldGalPercentage'
p2159
S'.394'
p2160
sg14
S'1.0'
p2161
sg16
g3
sg18
S'0.0'
p2162
sg20
S'4.4'
p2163
sg22
S'SG'
p2164
sg24
S'.833'
p2165
sg28
S'NBA'
p2166
sg30
S'0.4'
p2167
sg34
S'0.9'
p2168
sS'_fieldGoalsttempted'
p2169
S'4.7'
p2170
sg36
S'0.9'
p2171
sg38
S'1.1'
p2172
sg40
S'34'
p2173
sg42
S'MIA'
p2174
sg44
g354
sg46
S'0.0'
p2175
sg48
S'1.9'
p2176
sg50
S'0.7'
p2177
sg52
S'4.7'
p2178
sg54
S'1.1'
p2179
sg56
S'1995-96'
p2180
sg58
S'1.9'
p2181
sg60
S'0.4'
p2182
sg62
S'.394'
p2183
sg64
S'14.7'
p2184
sg66
g426
sbsS'_weight'
p2185
S'205'
p2186
sS'_dob'
p2187
S'28-6-1961'
p2188
sS'_salary'
p2189
(lp2190
(isrc.gp1.models.Salary
Salary
p2191
(dp2192
g42
S'Washington Bullets'
p2193
sg28
S'NBA'
p2194
sg2189
S'$231,000'
p2195
sg56
S'1985-86'
p2196
sba(isrc.gp1.models.Salary
Salary
p2197
(dp2198
g42
S'Washington Bullets'
p2199
sg28
S'NBA'
p2200
sg2189
S'$600,000'
p2201
sg56
S'1987-88'
p2202
sba(isrc.gp1.models.Salary
Salary
p2203
(dp2204
g42
S'Washington Bullets'
p2205
sg28
S'NBA'
p2206
sg2189
S'$816,666'
p2207
sg56
S'1988-89'
p2208
sba(isrc.gp1.models.Salary
Salary
p2209
(dp2210
g42
S'Utah Jazz'
p2211
sg28
S'NBA'
p2212
sg2189
S'$915,000'
p2213
sg56
S'1990-91'
p2214
sba(isrc.gp1.models.Salary
Salary
p2215
(dp2216
g42
S'Utah Jazz'
p2217
sg28
S'NBA'
p2218
sg2189
S'$1,580,000'
p2219
sg56
S'1991-92'
p2220
sba(isrc.gp1.models.Salary
Salary
p2221
(dp2222
g42
S'Utah Jazz'
p2223
sg28
S'NBA'
p2224
sg2189
S'$1,980,000'
p2225
sg56
S'1992-93'
p2226
sba(isrc.gp1.models.Salary
Salary
p2227
(dp2228
g42
S'Utah Jazz'
p2229
sg28
S'NBA'
p2230
sg2189
S'$2,380,000'
p2231
sg56
S'1993-94'
p2232
sba(isrc.gp1.models.Salary
Salary
p2233
(dp2234
g42
S'Philadelphia 76ers'
p2235
sg28
S'NBA'
p2236
sg2189
S'$1,930,000'
p2237
sg56
S'1994-95'
p2238
sba(isrc.gp1.models.Salary
Salary
p2239
(dp2240
g42
S'Philadelphia 76ers'
p2241
sg28
S'NBA'
p2242
sg2189
S'$2,380,000'
p2243
sg56
S'1995-96'
p2244
sbasg22
S'G'
p2245
sb.