(isrc.gp1.models.Player
Player
p0
(dp1
S'_experience'
p2
V1 year
p3
sS'_totals'
p4
(lp5
(isrc.gp1.models.Totals
Totals
p6
(dp7
S'_offensiveRebounds'
p8
S'5'
p9
sS'_threePointsAttempted'
p10
S'22'
p11
sS'_fieldGoalsPercentage'
p12
S'.318'
p13
sS'_assist'
p14
S'17'
p15
sS'_threePointsPercentage'
p16
S'.182'
p17
sS'_threePoints'
p18
S'4'
p19
sS'_points'
p20
S'37'
p21
sS'_position'
p22
S'SG'
p23
sS'_freeThrowsPercentage'
p24
S'.313'
p25
sS'_effectiveFieldGoalPercentage'
p26
S'.364'
p27
sS'_league'
p28
S'NBA'
p29
sS'_steals'
p30
S'9'
p31
sS'_fieldGoalsAttempted'
p32
S'44'
p33
sS'_personalFouls'
p34
S'14'
p35
sS'_freeThrowsAttempted'
p36
S'16'
p37
sS'_totalRebounds'
p38
S'31'
p39
sS'_age'
p40
S'22'
p41
sS'_team'
p42
S'ORL'
p43
sS'_games'
p44
S'16'
p45
sS'_blocks'
p46
S'2'
p47
sS'_twoPoints'
p48
S'10'
p49
sS'_freeThrows'
p50
g9
sS'_twoPointsAttempted'
p51
S'22'
p52
sS'_defensiveRebounds'
p53
S'26'
p54
sS'_season'
p55
S'2014-15'
p56
sS'_fieldGoals'
p57
S'14'
p58
sS'_turnOvers'
p59
g31
sS'_twoPointsPercentage'
p60
S'.455'
p61
sS'_minutesPlayed'
p62
S'208'
p63
sS'_gamesStarted'
p64
S'7'
p65
sba(isrc.gp1.models.Totals
Totals
p66
(dp67
g8
S'1'
p68
sg10
g47
sg12
S'.167'
p69
sg14
S'0'
p70
sg16
S'.000'
p71
sg18
g70
sg20
g47
sg22
S'SG'
p72
sg24
S'.000'
p73
sg26
S'.167'
p74
sg28
S'NBA'
p75
sg30
g68
sg32
S'6'
p76
sg34
g47
sg36
g68
sg38
S'3'
p77
sg40
S'23'
p78
sg42
S'ORL'
p79
sg44
S'8'
p80
sg46
g70
sg48
g68
sg50
g70
sg51
g19
sg53
g47
sg55
S'2015-16'
p81
sg57
g68
sg59
g68
sg60
S'.250'
p82
sg62
S'20'
p83
sg64
g70
sbasS'_college'
p84
S'University of Iowa'
p85
sS'_toYear'
p86
S'2016'
p87
sS'_height'
p88
S'6-6'
p89
sS'_active'
p90
I01
sS'_shootingHand'
p91
VRight
p92
sS'_name'
p93
S'Devyn Marble'
p94
sS'_per100Possessions'
p95
(lp96
(isrc.gp1.models.Per100Possession
Per100Possession
p97
(dp98
g8
S'1.2'
p99
sg10
S'5.4'
p100
sg12
S'.318'
p101
sS'_offensiveRating'
p102
S'79'
p103
sg14
S'4.2'
p104
sg16
S'.182'
p105
sg18
S'1.0'
p106
sg20
S'9.1'
p107
sg22
S'SG'
p108
sS'_defensiveRating'
p109
S'107'
p110
sg24
S'.313'
p111
sg28
S'NBA'
p112
sg30
S'2.2'
p113
sg32
S'10.8'
p114
sg34
S'3.4'
p115
sg36
S'3.9'
p116
sg38
S'7.6'
p117
sg40
S'22'
p118
sg42
S'ORL'
p119
sg44
S'16'
p120
sg46
S'0.5'
p121
sg48
S'2.5'
p122
sg50
S'1.2'
p123
sg51
S'5.4'
p124
sg53
S'6.4'
p125
sg55
S'2014-15'
p126
sg57
S'3.4'
p127
sg59
S'2.2'
p128
sg60
S'.455'
p129
sg62
S'208'
p130
sg64
g65
sba(isrc.gp1.models.Per100Possession
Per100Possession
p131
(dp132
g8
S'2.5'
p133
sg10
S'5.1'
p134
sg12
S'.167'
p135
sg102
S'38'
p136
sg14
S'0.0'
p137
sg16
S'.000'
p138
sg18
S'0.0'
p139
sg20
S'5.1'
p140
sg22
S'SG'
p141
sg109
S'106'
p142
sg24
S'.000'
p143
sg28
S'NBA'
p144
sg30
S'2.5'
p145
sg32
S'15.3'
p146
sg34
S'5.1'
p147
sg36
S'2.5'
p148
sg38
S'7.6'
p149
sg40
S'23'
p150
sg42
S'ORL'
p151
sg44
g80
sg46
S'0.0'
p152
sg48
S'2.5'
p153
sg50
S'0.0'
p154
sg51
S'10.2'
p155
sg53
S'5.1'
p156
sg55
S'2015-16'
p157
sg57
S'2.5'
p158
sg59
S'2.5'
p159
sg60
S'.250'
p160
sg62
S'20'
p161
sg64
g70
sbasS'_advanced'
p162
(lp163
(isrc.gp1.models.Advanced
Advanced
p164
(dp165
S'_offensiveReboundPercentage'
p166
S'2.7'
p167
sS'_turnOverPercentage'
p168
S'15.0'
p169
sS'_winSharesPer48Minutes'
p170
S'-0.031'
p171
sS'_stealPercentage'
p172
S'2.2'
p173
sS'_usagePercentage'
p174
S'13.1'
p175
sS'_totalReboundsPercentage'
p176
S'8.4'
p177
sS'_defensiveBoxPlusMinus'
p178
S'0.2'
p179
sg22
S'SG'
p180
sS'_valueOverReplacementPlayer'
p181
S'-0.1'
p182
sS'_trueShootingPercentage'
p183
S'.362'
p184
sS'_defensiveReboundPercentage'
p185
S'14.4'
p186
sS'_freeThrowsAttempRate'
p187
S'.364'
p188
sS'_threePointsAttempRate'
p189
S'.500'
p190
sg28
S'NBA'
p191
sS'_offensiveBoxPlusMinues'
p192
S'-4.7'
p193
sS'_assistPercentage'
p194
S'11.5'
p195
sS'_defensiveWinShares'
p196
S'0.2'
p197
sg40
S'22'
p198
sg42
S'ORL'
p199
sg44
S'16'
p200
sS'_blockPercentage'
p201
S'0.8'
p202
sS'_playerEfficiencyRating'
p203
S'5.9'
p204
sS'_offensiveWinShares'
p205
S'-0.3'
p206
sg62
S'208'
p207
sS'_boxPlusMinus'
p208
S'-4.5'
p209
sg55
S'2014-15'
p210
sS'_winShares'
p211
S'-0.1'
p212
sba(isrc.gp1.models.Advanced
Advanced
p213
(dp214
g166
S'5.5'
p215
sg168
S'13.4'
p216
sg170
S'-0.231'
p217
sg172
S'2.5'
p218
sg174
S'16.7'
p219
sg176
S'8.3'
p220
sg178
S'-3.4'
p221
sg22
S'SG'
p222
sg181
S'-0.1'
p223
sg183
S'.155'
p224
sg185
S'11.2'
p225
sg187
S'.167'
p226
sg189
S'.333'
p227
sg28
S'NBA'
p228
sg192
S'-12.3'
p229
sg194
S'0.0'
p230
sg196
S'0.0'
p231
sg40
S'23'
p232
sg42
S'ORL'
p233
sg44
g80
sg201
S'0.0'
p234
sg203
S'-5.5'
p235
sg205
S'-0.1'
p236
sg62
S'20'
p237
sg208
S'-15.7'
p238
sg55
S'2015-16'
p239
sg211
S'-0.1'
p240
sbasS'_per36Minutes'
p241
(lp242
(isrc.gp1.models.Per36Minutes
Per36Minutes
p243
(dp244
g8
S'0.9'
p245
sg10
S'3.8'
p246
sg12
S'.318'
p247
sg14
S'2.9'
p248
sg16
S'.182'
p249
sg18
S'0.7'
p250
sg20
S'6.4'
p251
sg22
S'SG'
p252
sg24
S'.313'
p253
sg28
S'NBA'
p254
sg30
S'1.6'
p255
sg32
S'7.6'
p256
sg34
S'2.4'
p257
sg36
S'2.8'
p258
sg38
S'5.4'
p259
sg40
S'22'
p260
sg42
S'ORL'
p261
sg44
S'16'
p262
sg46
S'0.3'
p263
sg48
S'1.7'
p264
sg50
S'0.9'
p265
sg51
S'3.8'
p266
sg53
S'4.5'
p267
sg55
S'2014-15'
p268
sg57
S'2.4'
p269
sg59
S'1.6'
p270
sg60
S'.455'
p271
sg62
S'208'
p272
sg64
g65
sba(isrc.gp1.models.Per36Minutes
Per36Minutes
p273
(dp274
g8
S'1.8'
p275
sg10
S'3.6'
p276
sg12
S'.167'
p277
sg14
S'0.0'
p278
sg16
S'.000'
p279
sg18
S'0.0'
p280
sg20
S'3.6'
p281
sg22
S'SG'
p282
sg24
S'.000'
p283
sg28
S'NBA'
p284
sg30
S'1.8'
p285
sg32
S'10.8'
p286
sg34
S'3.6'
p287
sg36
S'1.8'
p288
sg38
S'5.4'
p289
sg40
S'23'
p290
sg42
S'ORL'
p291
sg44
g80
sg46
S'0.0'
p292
sg48
S'1.8'
p293
sg50
S'0.0'
p294
sg51
S'7.2'
p295
sg53
S'3.6'
p296
sg55
S'2015-16'
p297
sg57
S'1.8'
p298
sg59
S'1.8'
p299
sg60
S'.250'
p300
sg62
S'20'
p301
sg64
g70
sbasS'_fromYear'
p302
S'2015'
p303
sS'_url'
p304
S'http://www.basketball-reference.com/players/m/marblde01.html'
p305
sS'_perGame'
p306
(isrc.gp1.models.PerGame
PerGame
p307
(dp308
g8
S'0.1'
p309
sg10
S'0.3'
p310
sg12
S'.167'
p311
sS'_effectiveFieldGalPercentage'
p312
S'.167'
p313
sg14
S'0.0'
p314
sg16
S'.000'
p315
sg18
S'0.0'
p316
sg20
S'0.3'
p317
sg22
S'SG'
p318
sg24
S'.000'
p319
sg28
S'NBA'
p320
sg30
S'0.1'
p321
sg34
S'0.3'
p322
sS'_fieldGoalsttempted'
p323
S'0.8'
p324
sg36
S'0.1'
p325
sg38
S'0.4'
p326
sg40
S'23'
p327
sg42
S'ORL'
p328
sg44
g80
sg46
S'0.0'
p329
sg48
S'0.1'
p330
sg50
S'0.0'
p331
sg51
S'0.5'
p332
sg53
S'0.3'
p333
sg55
S'2015-16'
p334
sg57
S'0.1'
p335
sg59
S'0.1'
p336
sg60
S'.250'
p337
sg62
S'2.5'
p338
sg64
g70
sbsS'_weight'
p339
S'200'
p340
sS'_dob'
p341
S'21-9-1992'
p342
sS'_salary'
p343
(lp344
(isrc.gp1.models.Salary
Salary
p345
(dp346
g42
S'Orlando Magic'
p347
sg28
S'NBA'
p348
sg343
S'$884,879'
p349
sg55
S'2014-15'
p350
sbasg22
S'G-F'
p351
sb.