(isrc.gp1.models.Player
Player
p0
(dp1
S'_experience'
p2
V8
p3
sS'_totals'
p4
(lp5
(isrc.gp1.models.Totals
Totals
p6
(dp7
S'_offensiveRebounds'
p8
S'8'
p9
sS'_threePointsAttempted'
p10
S'0'
p11
sS'_fieldGoalsPercentage'
p12
S'.471'
p13
sS'_assist'
p14
S'1'
p15
sS'_threePointsPercentage'
p16
g9
sS'_threePoints'
p17
g11
sS'_points'
p18
S'NA'
p19
sS'_position'
p20
S'C'
p21
sS'_freeThrowsPercentage'
p22
g9
sS'_effectiveFieldGoalPercentage'
p23
S'2'
p24
sS'_league'
p25
S'NBA'
p26
sS'_steals'
p27
g15
sS'_fieldGoalsAttempted'
p28
S'17'
p29
sS'_personalFouls'
p30
S'18'
p31
sS'_freeThrowsAttempted'
p32
S'.667'
p33
sS'_totalRebounds'
p34
g24
sS'_age'
p35
S'23'
p36
sS'_team'
p37
S'ORL'
p38
sS'_games'
p39
S'6'
p40
sS'_blocks'
p41
g24
sS'_twoPoints'
p42
S'17'
p43
sS'_freeThrows'
p44
S'3'
p45
sS'_twoPointsAttempted'
p46
S'.471'
p47
sS'_defensiveRebounds'
p48
S'16'
p49
sS'_season'
p50
S'2007-08'
p51
sS'_fieldGoals'
p52
g9
sS'_turnOvers'
p53
S'4'
p54
sS'_twoPointsPercentage'
p55
S'.471'
p56
sS'_minutesPlayed'
p57
S'41'
p58
sS'_gamesStarted'
p59
g11
sba(isrc.gp1.models.Totals
Totals
p60
(dp61
g8
S'96'
p62
sg10
g15
sg12
S'.567'
p63
sg14
S'14'
p64
sg16
S'1.000'
p65
sg17
g15
sg18
S'239'
p66
sg20
S'PF'
p67
sg22
S'.578'
p68
sg23
S'.570'
p69
sg25
S'NBA'
p70
sg27
S'18'
p71
sg28
S'187'
p72
sg30
S'111'
p73
sg32
S'45'
p74
sg34
S'286'
p75
sg35
S'24'
p76
sg37
S'ORL'
p77
sg39
S'63'
p78
sg41
S'53'
p79
sg42
S'105'
p80
sg44
S'26'
p81
sg46
S'186'
p82
sg48
S'190'
p83
sg50
S'2008-09'
p84
sg52
S'106'
p85
sg53
S'25'
p86
sg55
S'.565'
p87
sg57
S'794'
p88
sg59
g45
sba(isrc.gp1.models.Totals
Totals
p89
(dp90
g8
S'104'
p91
sg10
g45
sg12
S'.533'
p92
sg14
S'17'
p93
sg16
S'.000'
p94
sg17
g11
sg18
S'293'
p95
sg20
g21
sg22
S'.680'
p96
sg23
S'.533'
p97
sg25
S'NBA'
p98
sg27
S'17'
p99
sg28
S'227'
p100
sg30
S'138'
p101
sg32
S'75'
p102
sg34
S'341'
p103
sg35
S'25'
p104
sg37
S'ORL'
p105
sg39
S'81'
p106
sg41
S'70'
p107
sg42
S'121'
p108
sg44
S'51'
p109
sg46
S'224'
p110
sg48
S'237'
p111
sg50
S'2009-10'
p112
sg52
S'121'
p113
sg53
S'46'
p114
sg55
S'.540'
p115
sg57
S'1088'
p116
sg59
g11
sba(isrc.gp1.models.Totals
Totals
p117
(dp118
g8
S'148'
p119
sg10
g54
sg12
S'.561'
p120
sg14
S'70'
p121
sg16
S'.250'
p122
sg17
g15
sg18
S'817'
p123
sg20
g21
sg22
S'.725'
p124
sg23
S'.561'
p125
sg25
S'NBA'
p126
sg27
S'36'
p127
sg28
S'603'
p128
sg30
S'188'
p129
sg32
S'193'
p130
sg34
S'631'
p131
sg35
S'26'
p132
sg37
S'TOT'
p133
sg39
S'80'
p134
sg41
S'91'
p135
sg42
S'337'
p136
sg44
S'140'
p137
sg46
S'599'
p138
sg48
S'483'
p139
sg50
S'2010-11'
p140
sg52
S'338'
p141
sg53
S'81'
p142
sg55
S'.563'
p143
sg57
S'2032'
p144
sg59
S'14'
p145
sba(isrc.gp1.models.Totals
Totals
p146
(dp147
g8
S'80'
p148
sg10
g11
sg12
S'.543'
p149
sg14
S'7'
p150
sg16
S'44'
p151
sg17
g11
sg18
g19
sg20
g21
sg22
S'38'
p152
sg23
S'12'
p153
sg25
S'NBA'
p154
sg27
S'21'
p155
sg28
S'81'
p156
sg30
S'100'
p157
sg32
S'.667'
p158
sg34
S'17'
p159
sg35
S'26'
p160
sg37
S'ORL'
p161
sg39
S'25'
p162
sg41
S'17'
p163
sg42
S'81'
p164
sg44
S'18'
p165
sg46
S'.543'
p166
sg48
S'118'
p167
sg50
S'2010-11'
p168
sg52
S'44'
p169
sg53
S'52'
p170
sg55
S'.543'
p171
sg57
S'396'
p172
sg59
g24
sba(isrc.gp1.models.Totals
Totals
p173
(dp174
g8
S'110'
p175
sg10
g54
sg12
S'.563'
p176
sg14
S'53'
p177
sg16
S'.250'
p178
sg17
g15
sg18
S'717'
p179
sg20
g21
sg22
S'.731'
p180
sg23
S'.564'
p181
sg25
S'NBA'
p182
sg27
S'29'
p183
sg28
S'522'
p184
sg30
S'136'
p185
sg32
S'175'
p186
sg34
S'513'
p187
sg35
S'26'
p188
sg37
S'PHO'
p189
sg39
S'55'
p190
sg41
S'70'
p191
sg42
S'293'
p192
sg44
S'128'
p193
sg46
S'518'
p194
sg48
S'403'
p195
sg50
S'2010-11'
p196
sg52
S'294'
p197
sg53
S'64'
p198
sg55
S'.566'
p199
sg57
S'1636'
p200
sg59
S'12'
p201
sba(isrc.gp1.models.Totals
Totals
p202
(dp203
g8
S'185'
p204
sg10
g24
sg12
S'.555'
p205
sg14
S'59'
p206
sg16
S'.000'
p207
sg17
g11
sg18
S'1017'
p208
sg20
g21
sg22
S'.649'
p209
sg23
S'.555'
p210
sg25
S'NBA'
p211
sg27
S'48'
p212
sg28
S'769'
p213
sg30
S'142'
p214
sg32
S'251'
p215
sg34
S'659'
p216
sg35
S'27'
p217
sg37
S'PHO'
p218
sg39
S'66'
p219
sg41
S'99'
p220
sg42
S'427'
p221
sg44
S'163'
p222
sg46
S'767'
p223
sg48
S'474'
p224
sg50
S'2011-12'
p225
sg52
S'427'
p226
sg53
S'90'
p227
sg55
S'.557'
p228
sg57
S'2114'
p229
sg59
S'66'
p230
sba(isrc.gp1.models.Totals
Totals
p231
(dp232
g8
S'128'
p233
sg10
g45
sg12
S'.521'
p234
sg14
S'75'
p235
sg16
S'.000'
p236
sg17
g11
sg18
S'680'
p237
sg20
g21
sg22
S'.652'
p238
sg23
S'.521'
p239
sg25
S'NBA'
p240
sg27
S'40'
p241
sg28
S'566'
p242
sg30
S'127'
p243
sg32
S'138'
p244
sg34
S'516'
p245
sg35
S'28'
p246
sg37
S'PHO'
p247
sg39
S'61'
p248
sg41
S'98'
p249
sg42
S'295'
p250
sg44
S'90'
p251
sg46
S'563'
p252
sg48
S'388'
p253
sg50
S'2012-13'
p254
sg52
S'295'
p255
sg53
S'99'
p256
sg55
S'.524'
p257
sg57
S'1876'
p258
sg59
S'61'
p259
sba(isrc.gp1.models.Totals
Totals
p260
(dp261
g8
S'202'
p262
sg10
g15
sg12
S'.542'
p263
sg14
S'138'
p264
sg16
S'1.000'
p265
sg17
g15
sg18
S'1068'
p266
sg20
g21
sg22
S'.686'
p267
sg23
S'.542'
p268
sg25
S'NBA'
p269
sg27
S'41'
p270
sg28
S'840'
p271
sg30
S'201'
p272
sg32
S'229'
p273
sg34
S'767'
p274
sg35
S'29'
p275
sg37
S'WAS'
p276
sg39
S'81'
p277
sg41
S'121'
p278
sg42
S'454'
p279
sg44
S'157'
p280
sg46
S'839'
p281
sg48
S'565'
p282
sg50
S'2013-14'
p283
sg52
S'455'
p284
sg53
S'126'
p285
sg55
S'.541'
p286
sg57
S'2655'
p287
sg59
S'80'
p288
sba(isrc.gp1.models.Totals
Totals
p289
(dp290
g8
S'180'
p291
sg10
g45
sg12
S'.566'
p292
sg14
S'97'
p293
sg16
S'.000'
p294
sg17
g11
sg18
S'1001'
p295
sg20
g21
sg22
S'.703'
p296
sg23
S'.566'
p297
sg25
S'NBA'
p298
sg27
S'49'
p299
sg28
S'775'
p300
sg30
S'191'
p301
sg32
S'175'
p302
sg34
S'717'
p303
sg35
S'30'
p304
sg37
S'WAS'
p305
sg39
S'82'
p306
sg41
S'110'
p307
sg42
S'439'
p308
sg44
S'123'
p309
sg46
S'772'
p310
sg48
S'537'
p311
sg50
S'2014-15'
p312
sg52
S'439'
p313
sg53
S'100'
p314
sg55
S'.569'
p315
sg57
S'2453'
p316
sg59
S'82'
p317
sba(isrc.gp1.models.Totals
Totals
p318
(dp319
g8
S'294'
p320
sg10
g11
sg12
S'.541'
p321
sg14
S'31'
p322
sg16
S'240'
p323
sg17
g11
sg18
g19
sg20
g21
sg22
S'120'
p324
sg23
S'88'
p325
sg25
S'NBA'
p326
sg27
S'55'
p327
sg28
S'444'
p328
sg30
S'568'
p329
sg32
S'.733'
p330
sg34
S'65'
p331
sg35
S'31'
p332
sg37
S'WAS'
p333
sg39
S'42'
p334
sg41
S'81'
p335
sg42
S'444'
p336
sg44
S'120'
p337
sg46
S'.541'
p338
sg48
S'414'
p339
sg50
S'2015-16'
p340
sg52
S'240'
p341
sg53
S'109'
p342
sg55
S'.541'
p343
sg57
S'1318'
p344
sg59
S'42'
p345
sbasS'_college'
p346
S'NA'
p347
sS'_toYear'
p348
S'2016'
p349
sS'_height'
p350
S'6-11'
p351
sS'_active'
p352
I01
sS'_shootingHand'
p353
VRight
p354
sS'_name'
p355
S'Marcin Gortat'
p356
sS'_per100Possessions'
p357
(lp358
(isrc.gp1.models.Per100Possession
Per100Possession
p359
(dp360
g8
S'10.0'
p361
sg10
S'0.0'
p362
sg12
S'.471'
p363
sS'_offensiveRating'
p364
S'103'
p365
sg14
S'1.3'
p366
sg16
S'10.0'
p367
sg17
S'0.0'
p368
sg18
S'111'
p369
sg20
g21
sS'_defensiveRating'
p370
g19
sg22
S'10.0'
p371
sg25
S'NBA'
p372
sg27
S'1.3'
p373
sg28
S'21.3'
p374
sg30
S'22.6'
p375
sg32
S'.667'
p376
sg34
S'2.5'
p377
sg35
S'23'
p378
sg37
S'ORL'
p379
sg39
g40
sg41
S'2.5'
p380
sg42
S'21.3'
p381
sg44
S'3.8'
p382
sg46
S'.471'
p383
sg48
S'20.1'
p384
sg50
S'2007-08'
p385
sg52
S'10.0'
p386
sg53
S'5.0'
p387
sg55
S'2.5'
p388
sg57
S'41'
p389
sg59
g11
sba(isrc.gp1.models.Per100Possession
Per100Possession
p390
(dp391
g8
S'6.3'
p392
sg10
S'0.1'
p393
sg12
S'.567'
p394
sg364
S'121'
p395
sg14
S'0.9'
p396
sg16
S'1.000'
p397
sg17
S'0.1'
p398
sg18
S'15.6'
p399
sg20
S'PF'
p400
sg370
S'97'
p401
sg22
S'.578'
p402
sg25
S'NBA'
p403
sg27
S'1.2'
p404
sg28
S'12.2'
p405
sg30
S'7.3'
p406
sg32
S'2.9'
p407
sg34
S'18.7'
p408
sg35
S'24'
p409
sg37
S'ORL'
p410
sg39
S'63'
p411
sg41
S'3.5'
p412
sg42
S'6.9'
p413
sg44
S'1.7'
p414
sg46
S'12.2'
p415
sg48
S'12.4'
p416
sg50
S'2008-09'
p417
sg52
S'6.9'
p418
sg53
S'1.6'
p419
sg55
S'.565'
p420
sg57
S'794'
p421
sg59
g45
sba(isrc.gp1.models.Per100Possession
Per100Possession
p422
(dp423
g8
S'5.0'
p424
sg10
S'0.1'
p425
sg12
S'.533'
p426
sg364
S'113'
p427
sg14
S'0.8'
p428
sg16
S'.000'
p429
sg17
S'0.0'
p430
sg18
S'14.0'
p431
sg20
g21
sg370
S'99'
p432
sg22
S'.680'
p433
sg25
S'NBA'
p434
sg27
S'0.8'
p435
sg28
S'10.9'
p436
sg30
S'6.6'
p437
sg32
S'3.6'
p438
sg34
S'16.3'
p439
sg35
S'25'
p440
sg37
S'ORL'
p441
sg39
S'81'
p442
sg41
S'3.4'
p443
sg42
S'5.8'
p444
sg44
S'2.4'
p445
sg46
S'10.7'
p446
sg48
S'11.4'
p447
sg50
S'2009-10'
p448
sg52
S'5.8'
p449
sg53
S'2.2'
p450
sg55
S'.540'
p451
sg57
S'1088'
p452
sg59
g11
sba(isrc.gp1.models.Per100Possession
Per100Possession
p453
(dp454
g8
S'3.7'
p455
sg10
S'0.1'
p456
sg12
S'.561'
p457
sg364
S'117'
p458
sg14
S'1.8'
p459
sg16
S'.250'
p460
sg17
S'0.0'
p461
sg18
S'20.6'
p462
sg20
g21
sg370
S'105'
p463
sg22
S'.725'
p464
sg25
S'NBA'
p465
sg27
S'0.9'
p466
sg28
S'15.2'
p467
sg30
S'4.7'
p468
sg32
S'4.9'
p469
sg34
S'15.9'
p470
sg35
S'26'
p471
sg37
S'TOT'
p472
sg39
S'80'
p473
sg41
S'2.3'
p474
sg42
S'8.5'
p475
sg44
S'3.5'
p476
sg46
S'15.1'
p477
sg48
S'12.2'
p478
sg50
S'2010-11'
p479
sg52
S'8.5'
p480
sg53
S'2.0'
p481
sg55
S'.563'
p482
sg57
S'2032'
p483
sg59
S'14'
p484
sba(isrc.gp1.models.Per100Possession
Per100Possession
p485
(dp486
g8
S'10.6'
p487
sg10
S'0.0'
p488
sg12
S'.543'
p489
sg364
S'99'
p490
sg14
S'0.9'
p491
sg16
S'5.8'
p492
sg17
S'0.0'
p493
sg18
S'114'
p494
sg20
g21
sg370
g19
sg22
S'5.0'
p495
sg25
S'NBA'
p496
sg27
S'2.8'
p497
sg28
S'10.8'
p498
sg30
S'13.3'
p499
sg32
S'.667'
p500
sg34
S'2.3'
p501
sg35
S'26'
p502
sg37
S'ORL'
p503
sg39
S'25'
p504
sg41
S'2.3'
p505
sg42
S'10.8'
p506
sg44
S'2.4'
p507
sg46
S'.543'
p508
sg48
S'15.7'
p509
sg50
S'2010-11'
p510
sg52
S'5.8'
p511
sg53
S'6.9'
p512
sg55
S'1.6'
p513
sg57
S'396'
p514
sg59
g24
sba(isrc.gp1.models.Per100Possession
Per100Possession
p515
(dp516
g8
S'3.4'
p517
sg10
S'0.1'
p518
sg12
S'.563'
p519
sg364
S'117'
p520
sg14
S'1.6'
p521
sg16
S'.250'
p522
sg17
S'0.0'
p523
sg18
S'22.3'
p524
sg20
g21
sg370
S'106'
p525
sg22
S'.731'
p526
sg25
S'NBA'
p527
sg27
S'0.9'
p528
sg28
S'16.2'
p529
sg30
S'4.2'
p530
sg32
S'5.4'
p531
sg34
S'15.9'
p532
sg35
S'26'
p533
sg37
S'PHO'
p534
sg39
S'55'
p535
sg41
S'2.2'
p536
sg42
S'9.1'
p537
sg44
S'4.0'
p538
sg46
S'16.1'
p539
sg48
S'12.5'
p540
sg50
S'2010-11'
p541
sg52
S'9.1'
p542
sg53
S'2.0'
p543
sg55
S'.566'
p544
sg57
S'1636'
p545
sg59
S'12'
p546
sba(isrc.gp1.models.Per100Possession
Per100Possession
p547
(dp548
g8
S'4.5'
p549
sg10
S'0.0'
p550
sg12
S'.555'
p551
sg364
S'115'
p552
sg14
S'1.4'
p553
sg16
S'.000'
p554
sg17
S'0.0'
p555
sg18
S'24.9'
p556
sg20
g21
sg370
S'103'
p557
sg22
S'.649'
p558
sg25
S'NBA'
p559
sg27
S'1.2'
p560
sg28
S'18.9'
p561
sg30
S'3.5'
p562
sg32
S'6.2'
p563
sg34
S'16.2'
p564
sg35
S'27'
p565
sg37
S'PHO'
p566
sg39
S'66'
p567
sg41
S'2.4'
p568
sg42
S'10.5'
p569
sg44
S'4.0'
p570
sg46
S'18.8'
p571
sg48
S'11.6'
p572
sg50
S'2011-12'
p573
sg52
S'10.5'
p574
sg53
S'2.2'
p575
sg55
S'.557'
p576
sg57
S'2114'
p577
sg59
S'66'
p578
sba(isrc.gp1.models.Per100Possession
Per100Possession
p579
(dp580
g8
S'3.5'
p581
sg10
S'0.1'
p582
sg12
S'.521'
p583
sg364
S'104'
p584
sg14
S'2.1'
p585
sg16
S'.000'
p586
sg17
S'0.0'
p587
sg18
S'18.6'
p588
sg20
g21
sg370
S'105'
p589
sg22
S'.652'
p590
sg25
S'NBA'
p591
sg27
S'1.1'
p592
sg28
S'15.5'
p593
sg30
S'3.5'
p594
sg32
S'3.8'
p595
sg34
S'14.1'
p596
sg35
S'28'
p597
sg37
S'PHO'
p598
sg39
S'61'
p599
sg41
S'2.7'
p600
sg42
S'8.1'
p601
sg44
S'2.5'
p602
sg46
S'15.4'
p603
sg48
S'10.6'
p604
sg50
S'2012-13'
p605
sg52
S'8.1'
p606
sg53
S'2.7'
p607
sg55
S'.524'
p608
sg57
S'1876'
p609
sg59
S'61'
p610
sba(isrc.gp1.models.Per100Possession
Per100Possession
p611
(dp612
g8
S'3.9'
p613
sg10
S'0.0'
p614
sg12
S'.542'
p615
sg364
S'112'
p616
sg14
S'2.7'
p617
sg16
S'1.000'
p618
sg17
S'0.0'
p619
sg18
S'20.7'
p620
sg20
g21
sg370
S'103'
p621
sg22
S'.686'
p622
sg25
S'NBA'
p623
sg27
S'0.8'
p624
sg28
S'16.3'
p625
sg30
S'3.9'
p626
sg32
S'4.4'
p627
sg34
S'14.9'
p628
sg35
S'29'
p629
sg37
S'WAS'
p630
sg39
S'81'
p631
sg41
S'2.3'
p632
sg42
S'8.8'
p633
sg44
S'3.0'
p634
sg46
S'16.3'
p635
sg48
S'11.0'
p636
sg50
S'2013-14'
p637
sg52
S'8.8'
p638
sg53
S'2.4'
p639
sg55
S'.541'
p640
sg57
S'2655'
p641
sg59
S'80'
p642
sba(isrc.gp1.models.Per100Possession
Per100Possession
p643
(dp644
g8
S'3.8'
p645
sg10
S'0.1'
p646
sg12
S'.566'
p647
sg364
S'114'
p648
sg14
S'2.0'
p649
sg16
S'.000'
p650
sg17
S'0.0'
p651
sg18
S'20.9'
p652
sg20
g21
sg370
S'100'
p653
sg22
S'.703'
p654
sg25
S'NBA'
p655
sg27
S'1.0'
p656
sg28
S'16.2'
p657
sg30
S'4.0'
p658
sg32
S'3.7'
p659
sg34
S'15.0'
p660
sg35
S'30'
p661
sg37
S'WAS'
p662
sg39
S'82'
p663
sg41
S'2.3'
p664
sg42
S'9.2'
p665
sg44
S'2.6'
p666
sg46
S'16.1'
p667
sg48
S'11.2'
p668
sg50
S'2014-15'
p669
sg52
S'9.2'
p670
sg53
S'2.1'
p671
sg55
S'.569'
p672
sg57
S'2453'
p673
sg59
S'82'
p674
sba(isrc.gp1.models.Per100Possession
Per100Possession
p675
(dp676
g8
S'10.9'
p677
sg10
S'0.0'
p678
sg12
S'.541'
p679
sg364
S'105'
p680
sg14
S'1.2'
p681
sg16
S'8.9'
p682
sg17
S'0.0'
p683
sg18
S'109'
p684
sg20
g21
sg370
g19
sg22
S'4.5'
p685
sg25
S'NBA'
p686
sg27
S'2.0'
p687
sg28
S'16.5'
p688
sg30
S'21.1'
p689
sg32
S'.733'
p690
sg34
S'2.4'
p691
sg35
S'31'
p692
sg37
S'WAS'
p693
sg39
S'42'
p694
sg41
S'3.0'
p695
sg42
S'16.5'
p696
sg44
S'4.5'
p697
sg46
S'.541'
p698
sg48
S'15.4'
p699
sg50
S'2015-16'
p700
sg52
S'8.9'
p701
sg53
S'4.1'
p702
sg55
S'3.3'
p703
sg57
S'1318'
p704
sg59
S'42'
p705
sbasS'_advanced'
p706
(lp707
(isrc.gp1.models.Advanced
Advanced
p708
(dp709
S'_offensiveReboundPercentage'
p710
S'23.5'
p711
sS'_turnOverPercentage'
p712
S'9.8'
p713
sS'_winSharesPer48Minutes'
p714
S'.158'
p715
sS'_stealPercentage'
p716
S'1.3'
p717
sS'_usagePercentage'
p718
S'22.7'
p719
sS'_totalReboundsPercentage'
p720
S'22.5'
p721
sS'_defensiveBoxPlusMinus'
p722
S'-0.6'
p723
sg20
g21
sS'_valueOverReplacementPlayer'
p724
S'0.0'
p725
sS'_trueShootingPercentage'
p726
S'.491'
p727
sS'_defensiveReboundPercentage'
p728
S'21.6'
p729
sS'_freeThrowsAttempRate'
p730
S'.176'
p731
sS'_threePointsAttempRate'
p732
S'.000'
p733
sg25
S'NBA'
p734
sS'_offensiveBoxPlusMinues'
p735
S'-0.3'
p736
sS'_assistPercentage'
p737
S'8.4'
p738
sS'_defensiveWinShares'
p739
S'0.1'
p740
sg35
S'23'
p741
sg37
S'ORL'
p742
sg39
g40
sS'_blockPercentage'
p743
S'1.8'
p744
sS'_playerEfficiencyRating'
p745
S'19.8'
p746
sS'_offensiveWinShares'
p747
S'0.1'
p748
sg57
S'41'
p749
sS'_boxPlusMinus'
p750
S'-0.8'
p751
sg50
S'2007-08'
p752
sS'_winShares'
p753
S'0.1'
p754
sba(isrc.gp1.models.Advanced
Advanced
p755
(dp756
g710
S'14.0'
p757
sg712
S'10.8'
p758
sg714
S'.202'
p759
sg716
S'1.2'
p760
sg718
S'13.5'
p761
sg720
S'20.3'
p762
sg722
S'2.9'
p763
sg20
S'PF'
p764
sg724
S'0.5'
p765
sg726
S'.578'
p766
sg728
S'26.3'
p767
sg730
S'.241'
p768
sg732
S'.005'
p769
sg25
S'NBA'
p770
sg735
S'-2.3'
p771
sg737
S'2.9'
p772
sg739
S'1.9'
p773
sg35
S'24'
p774
sg37
S'ORL'
p775
sg39
S'63'
p776
sg743
S'4.8'
p777
sg745
S'17.0'
p778
sg747
S'1.4'
p779
sg57
S'794'
p780
sg750
S'0.6'
p781
sg50
S'2008-09'
p782
sg753
S'3.3'
p783
sba(isrc.gp1.models.Advanced
Advanced
p784
(dp785
g710
S'11.5'
p786
sg712
S'15.0'
p787
sg714
S'.151'
p788
sg716
S'0.8'
p789
sg718
S'13.0'
p790
sg720
S'18.1'
p791
sg722
S'2.5'
p792
sg20
g21
sg724
S'0.4'
p793
sg726
S'.563'
p794
sg728
S'24.3'
p795
sg730
S'.330'
p796
sg732
S'.013'
p797
sg25
S'NBA'
p798
sg735
S'-3.0'
p799
sg737
S'2.4'
p800
sg739
S'2.2'
p801
sg35
S'25'
p802
sg37
S'ORL'
p803
sg39
S'81'
p804
sg743
S'4.8'
p805
sg745
S'13.9'
p806
sg747
S'1.2'
p807
sg57
S'1088'
p808
sg750
S'-0.5'
p809
sg50
S'2009-10'
p810
sg753
S'3.4'
p811
sba(isrc.gp1.models.Advanced
Advanced
p812
(dp813
g710
S'8.5'
p814
sg712
S'10.5'
p815
sg714
S'.152'
p816
sg716
S'0.9'
p817
sg718
S'17.1'
p818
sg720
S'18.0'
p819
sg722
S'1.7'
p820
sg20
g21
sg724
S'1.4'
p821
sg726
S'.594'
p822
sg728
S'27.4'
p823
sg730
S'.320'
p824
sg732
S'.007'
p825
sg25
S'NBA'
p826
sg735
S'-1.0'
p827
sg737
S'5.5'
p828
sg739
S'2.7'
p829
sg35
S'26'
p830
sg37
S'TOT'
p831
sg39
S'80'
p832
sg743
S'3.3'
p833
sg745
S'17.8'
p834
sg747
S'3.7'
p835
sg57
S'2032'
p836
sg750
S'0.7'
p837
sg50
S'2010-11'
p838
sg753
S'6.4'
p839
sba(isrc.gp1.models.Advanced
Advanced
p840
(dp841
g710
S'11.5'
p842
sg712
S'16.0'
p843
sg714
S'.157'
p844
sg716
S'0.9'
p845
sg718
S'12.4'
p846
sg720
S'17.4'
p847
sg722
S'3.8'
p848
sg20
g21
sg724
S'0.4'
p849
sg726
S'.562'
p850
sg728
S'23.0'
p851
sg730
S'.222'
p852
sg732
S'.000'
p853
sg25
S'NBA'
p854
sg735
S'-2.1'
p855
sg737
S'6.8'
p856
sg739
S'0.8'
p857
sg35
S'26'
p858
sg37
S'ORL'
p859
sg39
S'25'
p860
sg743
S'4.1'
p861
sg745
S'13.7'
p862
sg747
S'0.5'
p863
sg57
S'396'
p864
sg750
S'1.7'
p865
sg50
S'2010-11'
p866
sg753
S'1.3'
p867
sba(isrc.gp1.models.Advanced
Advanced
p868
(dp869
g710
S'7.8'
p870
sg712
S'9.7'
p871
sg714
S'.151'
p872
sg716
S'0.9'
p873
sg718
S'18.3'
p874
sg720
S'18.1'
p875
sg722
S'1.2'
p876
sg20
g21
sg724
S'1.0'
p877
sg726
S'.598'
p878
sg728
S'28.5'
p879
sg730
S'.335'
p880
sg732
S'.008'
p881
sg25
S'NBA'
p882
sg735
S'-0.7'
p883
sg737
S'5.2'
p884
sg739
S'1.9'
p885
sg35
S'26'
p886
sg37
S'PHO'
p887
sg39
S'55'
p888
sg743
S'3.2'
p889
sg745
S'18.8'
p890
sg747
S'3.2'
p891
sg57
S'1636'
p892
sg750
S'0.5'
p893
sg50
S'2010-11'
p894
sg753
S'5.1'
p895
sba(isrc.gp1.models.Advanced
Advanced
p896
(dp897
g710
S'10.0'
p898
sg712
S'9.3'
p899
sg714
S'.172'
p900
sg716
S'1.2'
p901
sg718
S'20.8'
p902
sg720
S'17.6'
p903
sg722
S'1.2'
p904
sg20
g21
sg724
S'2.1'
p905
sg726
S'.578'
p906
sg728
S'25.0'
p907
sg730
S'.326'
p908
sg732
S'.003'
p909
sg25
S'NBA'
p910
sg735
S'0.8'
p911
sg737
S'4.8'
p912
sg739
S'2.7'
p913
sg35
S'27'
p914
sg37
S'PHO'
p915
sg39
S'66'
p916
sg743
S'3.4'
p917
sg745
S'21.2'
p918
sg747
S'4.9'
p919
sg57
S'2114'
p920
sg750
S'2.0'
p921
sg50
S'2011-12'
p922
sg753
S'7.6'
p923
sba(isrc.gp1.models.Advanced
Advanced
p924
(dp925
g710
S'7.6'
p926
sg712
S'13.6'
p927
sg714
S'.086'
p928
sg716
S'1.1'
p929
sg718
S'17.2'
p930
sg720
S'15.6'
p931
sg722
S'1.8'
p932
sg20
g21
sg724
S'0.7'
p933
sg726
S'.543'
p934
sg728
S'24.0'
p935
sg730
S'.244'
p936
sg732
S'.005'
p937
sg25
S'NBA'
p938
sg735
S'-2.4'
p939
sg737
S'6.5'
p940
sg739
S'2.1'
p941
sg35
S'28'
p942
sg37
S'PHO'
p943
sg39
S'61'
p944
sg743
S'3.9'
p945
sg745
S'15.4'
p946
sg747
S'1.3'
p947
sg57
S'1876'
p948
sg750
S'-0.6'
p949
sg50
S'2012-13'
p950
sg753
S'3.4'
p951
sba(isrc.gp1.models.Advanced
Advanced
p952
(dp953
g710
S'8.7'
p954
sg712
S'11.8'
p955
sg714
S'.146'
p956
sg716
S'0.8'
p957
sg718
S'18.2'
p958
sg720
S'16.7'
p959
sg722
S'2.1'
p960
sg20
g21
sg724
S'2.0'
p961
sg726
S'.568'
p962
sg728
S'25.1'
p963
sg730
S'.273'
p964
sg732
S'.001'
p965
sg25
S'NBA'
p966
sg735
S'-1.1'
p967
sg737
S'8.4'
p968
sg739
S'4.0'
p969
sg35
S'29'
p970
sg37
S'WAS'
p971
sg39
S'81'
p972
sg743
S'3.8'
p973
sg745
S'17.6'
p974
sg747
S'4.1'
p975
sg57
S'2655'
p976
sg750
S'1.0'
p977
sg50
S'2013-14'
p978
sg753
S'8.1'
p979
sba(isrc.gp1.models.Advanced
Advanced
p980
(dp981
g710
S'8.5'
p982
sg712
S'10.5'
p983
sg714
S'.168'
p984
sg716
S'1.0'
p985
sg718
S'17.6'
p986
sg720
S'16.5'
p987
sg722
S'2.3'
p988
sg20
g21
sg724
S'2.4'
p989
sg726
S'.587'
p990
sg728
S'24.1'
p991
sg730
S'.226'
p992
sg732
S'.004'
p993
sg25
S'NBA'
p994
sg735
S'-0.4'
p995
sg737
S'6.5'
p996
sg739
S'4.2'
p997
sg35
S'30'
p998
sg37
S'WAS'
p999
sg39
S'82'
p1000
sg743
S'3.6'
p1001
sg745
S'18.2'
p1002
sg747
S'4.4'
p1003
sg57
S'2453'
p1004
sg750
S'1.8'
p1005
sg50
S'2014-15'
p1006
sg753
S'8.6'
p1007
sba(isrc.gp1.models.Advanced
Advanced
p1008
(dp1009
g710
S'10.1'
p1010
sg712
S'14.0'
p1011
sg714
S'.119'
p1012
sg716
S'1.2'
p1013
sg718
S'19.3'
p1014
sg720
S'18.0'
p1015
sg722
S'1.4'
p1016
sg20
g21
sg724
S'0.7'
p1017
sg726
S'.572'
p1018
sg728
S'26.2'
p1019
sg730
S'.270'
p1020
sg732
S'.000'
p1021
sg25
S'NBA'
p1022
sg735
S'-1.2'
p1023
sg737
S'7.9'
p1024
sg739
S'1.4'
p1025
sg35
S'31'
p1026
sg37
S'WAS'
p1027
sg39
S'42'
p1028
sg743
S'3.4'
p1029
sg745
S'17.8'
p1030
sg747
S'1.8'
p1031
sg57
S'1318'
p1032
sg750
S'0.2'
p1033
sg50
S'2015-16'
p1034
sg753
S'3.3'
p1035
sbasS'_per36Minutes'
p1036
(lp1037
(isrc.gp1.models.Per36Minutes
Per36Minutes
p1038
(dp1039
g8
S'7.0'
p1040
sg10
S'0.0'
p1041
sg12
S'.471'
p1042
sg14
S'0.9'
p1043
sg16
S'7.0'
p1044
sg17
S'0.0'
p1045
sg18
g19
sg20
g21
sg22
S'7.0'
p1046
sg25
S'NBA'
p1047
sg27
S'0.9'
p1048
sg28
S'14.9'
p1049
sg30
S'15.8'
p1050
sg32
S'.667'
p1051
sg34
S'1.8'
p1052
sg35
S'23'
p1053
sg37
S'ORL'
p1054
sg39
g40
sg41
S'1.8'
p1055
sg42
S'14.9'
p1056
sg44
S'2.6'
p1057
sg46
S'.471'
p1058
sg48
S'14.0'
p1059
sg50
S'2007-08'
p1060
sg52
S'7.0'
p1061
sg53
S'3.5'
p1062
sg55
S'1.8'
p1063
sg57
S'41'
p1064
sg59
g11
sba(isrc.gp1.models.Per36Minutes
Per36Minutes
p1065
(dp1066
g8
S'4.4'
p1067
sg10
S'0.0'
p1068
sg12
S'.567'
p1069
sg14
S'0.6'
p1070
sg16
S'1.000'
p1071
sg17
S'0.0'
p1072
sg18
S'10.8'
p1073
sg20
S'PF'
p1074
sg22
S'.578'
p1075
sg25
S'NBA'
p1076
sg27
S'0.8'
p1077
sg28
S'8.5'
p1078
sg30
S'5.0'
p1079
sg32
S'2.0'
p1080
sg34
S'13.0'
p1081
sg35
S'24'
p1082
sg37
S'ORL'
p1083
sg39
S'63'
p1084
sg41
S'2.4'
p1085
sg42
S'4.8'
p1086
sg44
S'1.2'
p1087
sg46
S'8.4'
p1088
sg48
S'8.6'
p1089
sg50
S'2008-09'
p1090
sg52
S'4.8'
p1091
sg53
S'1.1'
p1092
sg55
S'.565'
p1093
sg57
S'794'
p1094
sg59
g45
sba(isrc.gp1.models.Per36Minutes
Per36Minutes
p1095
(dp1096
g8
S'3.4'
p1097
sg10
S'0.1'
p1098
sg12
S'.533'
p1099
sg14
S'0.6'
p1100
sg16
S'.000'
p1101
sg17
S'0.0'
p1102
sg18
S'9.7'
p1103
sg20
g21
sg22
S'.680'
p1104
sg25
S'NBA'
p1105
sg27
S'0.6'
p1106
sg28
S'7.5'
p1107
sg30
S'4.6'
p1108
sg32
S'2.5'
p1109
sg34
S'11.3'
p1110
sg35
S'25'
p1111
sg37
S'ORL'
p1112
sg39
S'81'
p1113
sg41
S'2.3'
p1114
sg42
S'4.0'
p1115
sg44
S'1.7'
p1116
sg46
S'7.4'
p1117
sg48
S'7.8'
p1118
sg50
S'2009-10'
p1119
sg52
S'4.0'
p1120
sg53
S'1.5'
p1121
sg55
S'.540'
p1122
sg57
S'1088'
p1123
sg59
g11
sba(isrc.gp1.models.Per36Minutes
Per36Minutes
p1124
(dp1125
g8
S'2.6'
p1126
sg10
S'0.1'
p1127
sg12
S'.561'
p1128
sg14
S'1.2'
p1129
sg16
S'.250'
p1130
sg17
S'0.0'
p1131
sg18
S'14.5'
p1132
sg20
g21
sg22
S'.725'
p1133
sg25
S'NBA'
p1134
sg27
S'0.6'
p1135
sg28
S'10.7'
p1136
sg30
S'3.3'
p1137
sg32
S'3.4'
p1138
sg34
S'11.2'
p1139
sg35
S'26'
p1140
sg37
S'TOT'
p1141
sg39
S'80'
p1142
sg41
S'1.6'
p1143
sg42
S'6.0'
p1144
sg44
S'2.5'
p1145
sg46
S'10.6'
p1146
sg48
S'8.6'
p1147
sg50
S'2010-11'
p1148
sg52
S'6.0'
p1149
sg53
S'1.4'
p1150
sg55
S'.563'
p1151
sg57
S'2032'
p1152
sg59
S'14'
p1153
sba(isrc.gp1.models.Per36Minutes
Per36Minutes
p1154
(dp1155
g8
S'7.3'
p1156
sg10
S'0.0'
p1157
sg12
S'.543'
p1158
sg14
S'0.6'
p1159
sg16
S'4.0'
p1160
sg17
S'0.0'
p1161
sg18
g19
sg20
g21
sg22
S'3.5'
p1162
sg25
S'NBA'
p1163
sg27
S'1.9'
p1164
sg28
S'7.4'
p1165
sg30
S'9.1'
p1166
sg32
S'.667'
p1167
sg34
S'1.5'
p1168
sg35
S'26'
p1169
sg37
S'ORL'
p1170
sg39
S'25'
p1171
sg41
S'1.5'
p1172
sg42
S'7.4'
p1173
sg44
S'1.6'
p1174
sg46
S'.543'
p1175
sg48
S'10.7'
p1176
sg50
S'2010-11'
p1177
sg52
S'4.0'
p1178
sg53
S'4.7'
p1179
sg55
S'1.1'
p1180
sg57
S'396'
p1181
sg59
g24
sba(isrc.gp1.models.Per36Minutes
Per36Minutes
p1182
(dp1183
g8
S'2.4'
p1184
sg10
S'0.1'
p1185
sg12
S'.563'
p1186
sg14
S'1.2'
p1187
sg16
S'.250'
p1188
sg17
S'0.0'
p1189
sg18
S'15.8'
p1190
sg20
g21
sg22
S'.731'
p1191
sg25
S'NBA'
p1192
sg27
S'0.6'
p1193
sg28
S'11.5'
p1194
sg30
S'3.0'
p1195
sg32
S'3.9'
p1196
sg34
S'11.3'
p1197
sg35
S'26'
p1198
sg37
S'PHO'
p1199
sg39
S'55'
p1200
sg41
S'1.5'
p1201
sg42
S'6.4'
p1202
sg44
S'2.8'
p1203
sg46
S'11.4'
p1204
sg48
S'8.9'
p1205
sg50
S'2010-11'
p1206
sg52
S'6.5'
p1207
sg53
S'1.4'
p1208
sg55
S'.566'
p1209
sg57
S'1636'
p1210
sg59
S'12'
p1211
sba(isrc.gp1.models.Per36Minutes
Per36Minutes
p1212
(dp1213
g8
S'3.2'
p1214
sg10
S'0.0'
p1215
sg12
S'.555'
p1216
sg14
S'1.0'
p1217
sg16
S'.000'
p1218
sg17
S'0.0'
p1219
sg18
S'17.3'
p1220
sg20
g21
sg22
S'.649'
p1221
sg25
S'NBA'
p1222
sg27
S'0.8'
p1223
sg28
S'13.1'
p1224
sg30
S'2.4'
p1225
sg32
S'4.3'
p1226
sg34
S'11.2'
p1227
sg35
S'27'
p1228
sg37
S'PHO'
p1229
sg39
S'66'
p1230
sg41
S'1.7'
p1231
sg42
S'7.3'
p1232
sg44
S'2.8'
p1233
sg46
S'13.1'
p1234
sg48
S'8.1'
p1235
sg50
S'2011-12'
p1236
sg52
S'7.3'
p1237
sg53
S'1.5'
p1238
sg55
S'.557'
p1239
sg57
S'2114'
p1240
sg59
S'66'
p1241
sba(isrc.gp1.models.Per36Minutes
Per36Minutes
p1242
(dp1243
g8
S'2.5'
p1244
sg10
S'0.1'
p1245
sg12
S'.521'
p1246
sg14
S'1.4'
p1247
sg16
S'.000'
p1248
sg17
S'0.0'
p1249
sg18
S'13.0'
p1250
sg20
g21
sg22
S'.652'
p1251
sg25
S'NBA'
p1252
sg27
S'0.8'
p1253
sg28
S'10.9'
p1254
sg30
S'2.4'
p1255
sg32
S'2.6'
p1256
sg34
S'9.9'
p1257
sg35
S'28'
p1258
sg37
S'PHO'
p1259
sg39
S'61'
p1260
sg41
S'1.9'
p1261
sg42
S'5.7'
p1262
sg44
S'1.7'
p1263
sg46
S'10.8'
p1264
sg48
S'7.4'
p1265
sg50
S'2012-13'
p1266
sg52
S'5.7'
p1267
sg53
S'1.9'
p1268
sg55
S'.524'
p1269
sg57
S'1876'
p1270
sg59
S'61'
p1271
sba(isrc.gp1.models.Per36Minutes
Per36Minutes
p1272
(dp1273
g8
S'2.7'
p1274
sg10
S'0.0'
p1275
sg12
S'.542'
p1276
sg14
S'1.9'
p1277
sg16
S'1.000'
p1278
sg17
S'0.0'
p1279
sg18
S'14.5'
p1280
sg20
g21
sg22
S'.686'
p1281
sg25
S'NBA'
p1282
sg27
S'0.6'
p1283
sg28
S'11.4'
p1284
sg30
S'2.7'
p1285
sg32
S'3.1'
p1286
sg34
S'10.4'
p1287
sg35
S'29'
p1288
sg37
S'WAS'
p1289
sg39
S'81'
p1290
sg41
S'1.6'
p1291
sg42
S'6.2'
p1292
sg44
S'2.1'
p1293
sg46
S'11.4'
p1294
sg48
S'7.7'
p1295
sg50
S'2013-14'
p1296
sg52
S'6.2'
p1297
sg53
S'1.7'
p1298
sg55
S'.541'
p1299
sg57
S'2655'
p1300
sg59
S'80'
p1301
sba(isrc.gp1.models.Per36Minutes
Per36Minutes
p1302
(dp1303
g8
S'2.6'
p1304
sg10
S'0.0'
p1305
sg12
S'.566'
p1306
sg14
S'1.4'
p1307
sg16
S'.000'
p1308
sg17
S'0.0'
p1309
sg18
S'14.7'
p1310
sg20
g21
sg22
S'.703'
p1311
sg25
S'NBA'
p1312
sg27
S'0.7'
p1313
sg28
S'11.4'
p1314
sg30
S'2.8'
p1315
sg32
S'2.6'
p1316
sg34
S'10.5'
p1317
sg35
S'30'
p1318
sg37
S'WAS'
p1319
sg39
S'82'
p1320
sg41
S'1.6'
p1321
sg42
S'6.4'
p1322
sg44
S'1.8'
p1323
sg46
S'11.3'
p1324
sg48
S'7.9'
p1325
sg50
S'2014-15'
p1326
sg52
S'6.4'
p1327
sg53
S'1.5'
p1328
sg55
S'.569'
p1329
sg57
S'2453'
p1330
sg59
S'82'
p1331
sba(isrc.gp1.models.Per36Minutes
Per36Minutes
p1332
(dp1333
g8
S'8.0'
p1334
sg10
S'0.0'
p1335
sg12
S'.541'
p1336
sg14
S'0.8'
p1337
sg16
S'6.6'
p1338
sg17
S'0.0'
p1339
sg18
g19
sg20
g21
sg22
S'3.3'
p1340
sg25
S'NBA'
p1341
sg27
S'1.5'
p1342
sg28
S'12.1'
p1343
sg30
S'15.5'
p1344
sg32
S'.733'
p1345
sg34
S'1.8'
p1346
sg35
S'31'
p1347
sg37
S'WAS'
p1348
sg39
S'42'
p1349
sg41
S'2.2'
p1350
sg42
S'12.1'
p1351
sg44
S'3.3'
p1352
sg46
S'.541'
p1353
sg48
S'11.3'
p1354
sg50
S'2015-16'
p1355
sg52
S'6.6'
p1356
sg53
S'3.0'
p1357
sg55
S'2.4'
p1358
sg57
S'1318'
p1359
sg59
S'42'
p1360
sbasS'_fromYear'
p1361
S'2008'
p1362
sS'_url'
p1363
S'http://www.basketball-reference.com/players/g/gortama01.html'
p1364
sS'_perGame'
p1365
(isrc.gp1.models.PerGame
PerGame
p1366
(dp1367
g8
S'7.0'
p1368
sg10
S'0.0'
p1369
sg12
S'.541'
p1370
sS'_effectiveFieldGalPercentage'
p1371
S'2.1'
p1372
sg14
S'0.7'
p1373
sg16
S'5.7'
p1374
sg17
S'0.0'
p1375
sg18
g19
sg20
g21
sg22
S'2.9'
p1376
sg25
S'NBA'
p1377
sg27
S'1.3'
p1378
sg30
S'13.5'
p1379
sS'_fieldGoalsttempted'
p1380
S'10.6'
p1381
sg32
S'.733'
p1382
sg34
S'1.5'
p1383
sg35
S'31'
p1384
sg37
S'WAS'
p1385
sg39
S'42'
p1386
sg41
S'1.9'
p1387
sg42
S'10.6'
p1388
sg44
S'2.9'
p1389
sg46
S'.541'
p1390
sg48
S'9.9'
p1391
sg50
S'2015-16'
p1392
sg52
S'5.7'
p1393
sg53
S'2.6'
p1394
sg55
S'.541'
p1395
sg57
S'31.4'
p1396
sg59
S'42'
p1397
sbsS'_weight'
p1398
S'240'
p1399
sS'_dob'
p1400
S'17-2-1984'
p1401
sS'_salary'
p1402
(lp1403
(isrc.gp1.models.Salary
Salary
p1404
(dp1405
g37
S'Orlando Magic'
p1406
sg25
S'NBA'
p1407
sg1402
S'$427,163'
p1408
sg50
S'2007-08'
p1409
sba(isrc.gp1.models.Salary
Salary
p1410
(dp1411
g37
S'Orlando Magic'
p1412
sg25
S'NBA'
p1413
sg1402
S'$711,517'
p1414
sg50
S'2008-09'
p1415
sba(isrc.gp1.models.Salary
Salary
p1416
(dp1417
g37
S'Orlando Magic'
p1418
sg25
S'NBA'
p1419
sg1402
S'$5,854,000'
p1420
sg50
S'2009-10'
p1421
sba(isrc.gp1.models.Salary
Salary
p1422
(dp1423
g37
S'Phoenix Suns'
p1424
sg25
S'NBA'
p1425
sg1402
S'$6,322,320'
p1426
sg50
S'2010-11'
p1427
sba(isrc.gp1.models.Salary
Salary
p1428
(dp1429
g37
S'Phoenix Suns'
p1430
sg25
S'NBA'
p1431
sg1402
S'$6,790,640'
p1432
sg50
S'2011-12'
p1433
sba(isrc.gp1.models.Salary
Salary
p1434
(dp1435
g37
S'Phoenix Suns'
p1436
sg25
S'NBA'
p1437
sg1402
S'$7,258,960'
p1438
sg50
S'2012-13'
p1439
sba(isrc.gp1.models.Salary
Salary
p1440
(dp1441
g37
S'Washington Wizards'
p1442
sg25
S'NBA'
p1443
sg1402
S'$7,727,280'
p1444
sg50
S'2013-14'
p1445
sba(isrc.gp1.models.Salary
Salary
p1446
(dp1447
g37
S'Washington Wizards'
p1448
sg25
S'NBA'
p1449
sg1402
S'$10,434,782'
p1450
sg50
S'2014-15'
p1451
sbasg20
S'C-F'
p1452
sb.