(isrc.gp1.models.Player
Player
p0
(dp1
S'_experience'
p2
S'NA'
p3
sS'_totals'
p4
(lp5
(isrc.gp1.models.Totals
Totals
p6
(dp7
S'_offensiveRebounds'
p8
S'46'
p9
sS'_threePointsAttempted'
p10
S'10'
p11
sS'_fieldGoalsPercentage'
p12
S'.497'
p13
sS'_assist'
p14
S'45'
p15
sS'_threePointsPercentage'
p16
S'.400'
p17
sS'_threePoints'
p18
S'4'
p19
sS'_points'
p20
S'237'
p21
sS'_position'
p22
S'SF-SG'
p23
sS'_freeThrowsPercentage'
p24
S'.843'
p25
sS'_effectiveFieldGoalPercentage'
p26
S'.509'
p27
sS'_league'
p28
S'NBA'
p29
sS'_steals'
p30
S'19'
p31
sS'_fieldGoalsAttempted'
p32
S'159'
p33
sS'_personalFouls'
p34
S'85'
p35
sS'_freeThrowsAttempted'
p36
S'89'
p37
sS'_totalRebounds'
p38
S'110'
p39
sS'_age'
p40
S'27'
p41
sS'_team'
p42
S'TOT'
p43
sS'_games'
p44
S'33'
p45
sS'_blocks'
p46
S'10'
p47
sS'_twoPoints'
p48
S'75'
p49
sS'_freeThrows'
p50
S'75'
p51
sS'_twoPointsAttempted'
p52
S'149'
p53
sS'_defensiveRebounds'
p54
S'64'
p55
sS'_season'
p56
S'1990-91'
p57
sS'_fieldGoals'
p58
S'79'
p59
sS'_turnOvers'
p60
S'30'
p61
sS'_twoPointsPercentage'
p62
S'.503'
p63
sS'_minutesPlayed'
p64
S'644'
p65
sS'_gamesStarted'
p66
S'0'
p67
sba(isrc.gp1.models.Totals
Totals
p68
(dp69
g8
g67
sg10
S'2'
p70
sg12
S'.286'
p71
sg14
S'1'
p72
sg16
S'.500'
p73
sg18
g72
sg20
S'6'
p74
sg22
S'SG'
p75
sg24
S'.500'
p76
sg26
S'.357'
p77
sg28
S'NBA'
p78
sg30
g67
sg32
S'7'
p79
sg34
g70
sg36
g70
sg38
g72
sg40
S'27'
p80
sg42
S'PHI'
p81
sg44
S'3'
p82
sg46
g67
sg48
g72
sg50
g72
sg52
S'5'
p83
sg54
g72
sg56
S'1990-91'
p84
sg58
g70
sg60
g82
sg62
S'.200'
p85
sg64
S'20'
p86
sg66
g67
sba(isrc.gp1.models.Totals
Totals
p87
(dp88
g8
S'46'
p89
sg10
S'8'
p90
sg12
S'.507'
p91
sg14
S'44'
p92
sg16
S'.375'
p93
sg18
g82
sg20
S'231'
p94
sg22
S'SF'
p95
sg24
S'.851'
p96
sg26
S'.516'
p97
sg28
S'NBA'
p98
sg30
S'19'
p99
sg32
S'152'
p100
sg34
S'83'
p101
sg36
S'87'
p102
sg38
S'109'
p103
sg40
S'27'
p104
sg42
S'GSW'
p105
sg44
S'30'
p106
sg46
S'10'
p107
sg48
S'74'
p108
sg50
S'74'
p109
sg52
S'144'
p110
sg54
S'63'
p111
sg56
S'1990-91'
p112
sg58
S'77'
p113
sg60
S'27'
p114
sg62
S'.514'
p115
sg64
S'624'
p116
sg66
g67
sba(isrc.gp1.models.Totals
Totals
p117
(dp118
g8
S'69'
p119
sg10
S'70'
p120
sg12
S'.521'
p121
sg14
S'174'
p122
sg16
S'.329'
p123
sg18
S'23'
p124
sg20
S'620'
p125
sg22
S'SG'
p126
sg24
S'.852'
p127
sg26
S'.548'
p128
sg28
S'NBA'
p129
sg30
S'68'
p130
sg32
S'424'
p131
sg34
S'159'
p132
sg36
S'182'
p133
sg38
S'227'
p134
sg40
S'28'
p135
sg42
S'GSW'
p136
sg44
S'79'
p137
sg46
S'15'
p138
sg48
S'198'
p139
sg50
S'155'
p140
sg52
S'354'
p141
sg54
S'158'
p142
sg56
S'1991-92'
p143
sg58
S'221'
p144
sg60
S'83'
p145
sg62
S'.559'
p146
sg64
S'1677'
p147
sg66
S'32'
p148
sba(isrc.gp1.models.Totals
Totals
p149
(dp150
g8
S'59'
p151
sg10
S'129'
p152
sg12
S'.458'
p153
sg14
S'177'
p154
sg16
S'.349'
p155
sg18
S'45'
p156
sg20
S'708'
p157
sg22
S'SF'
p158
sg24
S'.855'
p159
sg26
S'.501'
p160
sg28
S'NBA'
p161
sg30
S'74'
p162
sg32
S'524'
p163
sg34
S'145'
p164
sg36
S'214'
p165
sg38
S'216'
p166
sg40
S'29'
p167
sg42
S'POR'
p168
sg44
S'82'
p169
sg46
S'20'
p170
sg48
S'195'
p171
sg50
S'183'
p172
sg52
S'395'
p173
sg54
S'157'
p174
sg56
S'1992-93'
p175
sg58
S'240'
p176
sg60
S'89'
p177
sg62
S'.494'
p178
sg64
S'1757'
p179
sg66
g79
sba(isrc.gp1.models.Totals
Totals
p180
(dp181
g8
S'28'
p182
sg10
S'167'
p183
sg12
S'.446'
p184
sg14
S'208'
p185
sg16
S'.335'
p186
sg18
S'56'
p187
sg20
S'626'
p188
sg22
S'SF'
p189
sg24
S'.860'
p190
sg26
S'.506'
p191
sg28
S'NBA'
p192
sg30
S'50'
p193
sg32
S'466'
p194
sg34
S'124'
p195
sg36
S'179'
p196
sg38
S'181'
p197
sg40
S'30'
p198
sg42
S'HOU'
p199
sg44
S'67'
p200
sg46
g90
sg48
S'152'
p201
sg50
S'154'
p202
sg52
S'299'
p203
sg54
S'153'
p204
sg56
S'1993-94'
p205
sg58
S'208'
p206
sg60
S'109'
p207
sg62
S'.508'
p208
sg64
S'1606'
p209
sg66
g90
sba(isrc.gp1.models.Totals
Totals
p210
(dp211
g8
S'50'
p212
sg10
S'201'
p213
sg12
S'.499'
p214
sg14
S'189'
p215
sg16
S'.398'
p216
sg18
S'80'
p217
sg20
S'710'
p218
sg22
S'SF'
p219
sg24
S'.842'
p220
sg26
S'.581'
p221
sg28
S'NBA'
p222
sg30
S'65'
p223
sg32
S'487'
p224
sg34
S'158'
p225
sg36
S'171'
p226
sg38
S'196'
p227
sg40
S'31'
p228
sg42
S'HOU'
p229
sg44
S'81'
p230
sg46
S'12'
p231
sg48
S'163'
p232
sg50
S'144'
p233
sg52
S'286'
p234
sg54
S'146'
p235
sg56
S'1994-95'
p236
sg58
S'243'
p237
sg60
S'104'
p238
sg62
S'.570'
p239
sg64
S'1896'
p240
sg66
S'13'
p241
sba(isrc.gp1.models.Totals
Totals
p242
(dp243
g8
S'47'
p244
sg10
S'127'
p245
sg12
S'.504'
p246
sg14
S'138'
p247
sg16
S'.323'
p248
sg18
S'41'
p249
sg20
S'499'
p250
sg22
S'SF'
p251
sg24
S'.852'
p252
sg26
S'.562'
p253
sg28
S'NBA'
p254
sg30
S'45'
p255
sg32
S'357'
p256
sg34
S'93'
p257
sg36
S'115'
p258
sg38
S'155'
p259
sg40
S'32'
p260
sg42
S'HOU'
p261
sg44
S'45'
p262
sg46
S'11'
p263
sg48
S'139'
p264
sg50
S'98'
p265
sg52
S'230'
p266
sg54
S'108'
p267
sg56
S'1995-96'
p268
sg58
S'180'
p269
sg60
S'59'
p270
sg62
S'.604'
p271
sg64
S'1385'
p272
sg66
S'16'
p273
sba(isrc.gp1.models.Totals
Totals
p274
(dp275
g8
S'60'
p276
sg10
S'286'
p277
sg12
S'.497'
p278
sg14
S'310'
p279
sg16
S'.420'
p280
sg18
S'120'
p281
sg20
S'909'
p282
sg22
S'SF'
p283
sg24
S'.896'
p284
sg26
S'.600'
p285
sg28
S'NBA'
p286
sg30
S'92'
p287
sg32
S'585'
p288
sg34
S'200'
p289
sg36
S'231'
p290
sg38
S'235'
p291
sg40
S'33'
p292
sg42
S'HOU'
p293
sg44
S'78'
p294
sg46
S'12'
p295
sg48
S'171'
p296
sg50
S'207'
p297
sg52
S'299'
p298
sg54
S'175'
p299
sg56
S'1996-97'
p300
sg58
S'291'
p301
sg60
S'135'
p302
sg62
S'.572'
p303
sg64
S'2687'
p304
sg66
S'77'
p305
sba(isrc.gp1.models.Totals
Totals
p306
(dp307
g8
S'39'
p308
sg10
S'189'
p309
sg12
S'.452'
p310
sg14
S'221'
p311
sg16
S'.291'
p312
sg18
S'55'
p313
sg20
S'612'
p314
sg22
S'SF'
p315
sg24
S'.833'
p316
sg26
S'.512'
p317
sg28
S'NBA'
p318
sg30
S'81'
p319
sg32
S'456'
p320
sg34
S'115'
p321
sg36
S'174'
p322
sg38
S'156'
p323
sg40
S'34'
p324
sg42
S'HOU'
p325
sg44
S'73'
p326
sg46
g90
sg48
S'151'
p327
sg50
S'145'
p328
sg52
S'267'
p329
sg54
S'117'
p330
sg56
S'1997-98'
p331
sg58
S'206'
p332
sg60
S'100'
p333
sg62
S'.566'
p334
sg64
S'1988'
p335
sg66
S'59'
p336
sba(isrc.gp1.models.Totals
Totals
p337
(dp338
g8
S'36'
p339
sg10
S'107'
p340
sg12
S'.471'
p341
sg14
S'89'
p342
sg16
S'.374'
p343
sg18
S'40'
p344
sg20
S'455'
p345
sg22
S'SG'
p346
sg24
S'.866'
p347
sg26
S'.532'
p348
sg28
S'NBA'
p349
sg30
S'46'
p350
sg32
S'331'
p351
sg34
S'91'
p352
sg36
S'119'
p353
sg38
S'137'
p354
sg40
S'35'
p355
sg42
S'SAS'
p356
sg44
S'47'
p357
sg46
S'12'
p358
sg48
S'116'
p359
sg50
S'103'
p360
sg52
S'224'
p361
sg54
S'101'
p362
sg56
S'1998-99'
p363
sg58
S'156'
p364
sg60
S'61'
p365
sg62
S'.518'
p366
sg64
S'1291'
p367
sg66
S'37'
p368
sba(isrc.gp1.models.Totals
Totals
p369
(dp370
g8
S'48'
p371
sg10
S'186'
p372
sg12
S'.427'
p373
sg14
S'193'
p374
sg16
S'.398'
p375
sg18
S'74'
p376
sg20
S'590'
p377
sg22
S'SF'
p378
sg24
S'.846'
p379
sg26
S'.508'
p380
sg28
S'NBA'
p381
sg30
S'73'
p382
sg32
S'457'
p383
sg34
S'156'
p384
sg36
S'149'
p385
sg38
S'249'
p386
sg40
S'36'
p387
sg42
S'SAS'
p388
sg44
S'79'
p389
sg46
S'9'
p390
sg48
S'121'
p391
sg50
S'126'
p392
sg52
S'271'
p393
sg54
S'201'
p394
sg56
S'1999-00'
p395
sg58
S'195'
p396
sg60
S'130'
p397
sg62
S'.446'
p398
sg64
S'2217'
p399
sg66
S'79'
p400
sba(isrc.gp1.models.Totals
Totals
p401
(dp402
g8
S'38'
p403
sg10
S'100'
p404
sg12
S'.423'
p405
sg14
S'131'
p406
sg16
S'.360'
p407
sg18
S'36'
p408
sg20
S'299'
p409
sg22
S'SG'
p410
sg24
S'.797'
p411
sg26
S'.496'
p412
sg28
S'NBA'
p413
sg30
S'58'
p414
sg32
S'246'
p415
sg34
S'112'
p416
sg36
S'69'
p417
sg38
S'155'
p418
sg40
S'37'
p419
sg42
S'PHO'
p420
sg44
S'68'
p421
sg46
S'12'
p422
sg48
S'68'
p423
sg50
S'55'
p424
sg52
S'146'
p425
sg54
S'117'
p426
sg56
S'2000-01'
p427
sg58
S'104'
p428
sg60
S'60'
p429
sg62
S'.466'
p430
sg64
S'1506'
p431
sg66
S'67'
p432
sbasS'_college'
p433
S'American International College'
p434
sS'_toYear'
p435
S'2001'
p436
sS'_height'
p437
S'6-5'
p438
sS'_active'
p439
I00
sS'_shootingHand'
p440
VRight
p441
sS'_name'
p442
S'Mario Elie'
p443
sS'_per100Possessions'
p444
(lp445
(isrc.gp1.models.Per100Possession
Per100Possession
p446
(dp447
g8
S'3.3'
p448
sg10
S'0.7'
p449
sg12
S'.497'
p450
sS'_offensiveRating'
p451
S'122'
p452
sg14
S'3.2'
p453
sg16
S'.400'
p454
sg18
S'0.3'
p455
sg20
S'17.1'
p456
sg22
S'SF-SG'
p457
sS'_defensiveRating'
p458
S'112'
p459
sg24
S'.843'
p460
sg28
S'NBA'
p461
sg30
S'1.4'
p462
sg32
S'11.5'
p463
sg34
S'6.1'
p464
sg36
S'6.4'
p465
sg38
S'7.9'
p466
sg40
S'27'
p467
sg42
S'TOT'
p468
sg44
S'33'
p469
sg46
S'0.7'
p470
sg48
S'5.4'
p471
sg50
S'5.4'
p472
sg52
S'10.7'
p473
sg54
S'4.6'
p474
sg56
S'1990-91'
p475
sg58
S'5.7'
p476
sg60
S'2.2'
p477
sg62
S'.503'
p478
sg64
S'644'
p479
sg66
g67
sba(isrc.gp1.models.Per100Possession
Per100Possession
p480
(dp481
g8
S'0.0'
p482
sg10
S'5.0'
p483
sg12
S'.286'
p484
sg451
S'61'
p485
sg14
S'2.5'
p486
sg16
S'.500'
p487
sg18
S'2.5'
p488
sg20
S'15.0'
p489
sg22
S'SG'
p490
sg458
S'115'
p491
sg24
S'.500'
p492
sg28
S'NBA'
p493
sg30
S'0.0'
p494
sg32
S'17.6'
p495
sg34
S'5.0'
p496
sg36
S'5.0'
p497
sg38
S'2.5'
p498
sg40
S'27'
p499
sg42
S'PHI'
p500
sg44
g82
sg46
S'0.0'
p501
sg48
S'2.5'
p502
sg50
S'2.5'
p503
sg52
S'12.5'
p504
sg54
S'2.5'
p505
sg56
S'1990-91'
p506
sg58
S'5.0'
p507
sg60
S'7.5'
p508
sg62
S'.200'
p509
sg64
S'20'
p510
sg66
g67
sba(isrc.gp1.models.Per100Possession
Per100Possession
p511
(dp512
g8
S'3.4'
p513
sg10
S'0.6'
p514
sg12
S'.507'
p515
sg451
S'125'
p516
sg14
S'3.3'
p517
sg16
S'.375'
p518
sg18
S'0.2'
p519
sg20
S'17.2'
p520
sg22
S'SF'
p521
sg458
S'112'
p522
sg24
S'.851'
p523
sg28
S'NBA'
p524
sg30
S'1.4'
p525
sg32
S'11.3'
p526
sg34
S'6.2'
p527
sg36
S'6.5'
p528
sg38
S'8.1'
p529
sg40
S'27'
p530
sg42
S'GSW'
p531
sg44
S'30'
p532
sg46
S'0.7'
p533
sg48
S'5.5'
p534
sg50
S'5.5'
p535
sg52
S'10.7'
p536
sg54
S'4.7'
p537
sg56
S'1990-91'
p538
sg58
S'5.7'
p539
sg60
S'2.0'
p540
sg62
S'.514'
p541
sg64
S'624'
p542
sg66
g67
sba(isrc.gp1.models.Per100Possession
Per100Possession
p543
(dp544
g8
S'1.9'
p545
sg10
S'1.9'
p546
sg12
S'.521'
p547
sg451
S'123'
p548
sg14
S'4.8'
p549
sg16
S'.329'
p550
sg18
S'0.6'
p551
sg20
S'17.2'
p552
sg22
S'SG'
p553
sg458
S'111'
p554
sg24
S'.852'
p555
sg28
S'NBA'
p556
sg30
S'1.9'
p557
sg32
S'11.7'
p558
sg34
S'4.4'
p559
sg36
S'5.0'
p560
sg38
S'6.3'
p561
sg40
S'28'
p562
sg42
S'GSW'
p563
sg44
S'79'
p564
sg46
S'0.4'
p565
sg48
S'5.5'
p566
sg50
S'4.3'
p567
sg52
S'9.8'
p568
sg54
S'4.4'
p569
sg56
S'1991-92'
p570
sg58
S'6.1'
p571
sg60
S'2.3'
p572
sg62
S'.559'
p573
sg64
S'1677'
p574
sg66
S'32'
p575
sba(isrc.gp1.models.Per100Possession
Per100Possession
p576
(dp577
g8
S'1.6'
p578
sg10
S'3.6'
p579
sg12
S'.458'
p580
sg451
S'117'
p581
sg14
S'4.9'
p582
sg16
S'.349'
p583
sg18
S'1.2'
p584
sg20
S'19.5'
p585
sg22
S'SF'
p586
sg458
S'107'
p587
sg24
S'.855'
p588
sg28
S'NBA'
p589
sg30
S'2.0'
p590
sg32
S'14.5'
p591
sg34
S'4.0'
p592
sg36
S'5.9'
p593
sg38
S'6.0'
p594
sg40
S'29'
p595
sg42
S'POR'
p596
sg44
S'82'
p597
sg46
S'0.6'
p598
sg48
S'5.4'
p599
sg50
S'5.0'
p600
sg52
S'10.9'
p601
sg54
S'4.3'
p602
sg56
S'1992-93'
p603
sg58
S'6.6'
p604
sg60
S'2.5'
p605
sg62
S'.494'
p606
sg64
S'1757'
p607
sg66
g79
sba(isrc.gp1.models.Per100Possession
Per100Possession
p608
(dp609
g8
S'0.9'
p610
sg10
S'5.3'
p611
sg12
S'.446'
p612
sg451
S'110'
p613
sg14
S'6.5'
p614
sg16
S'.335'
p615
sg18
S'1.8'
p616
sg20
S'19.7'
p617
sg22
S'SF'
p618
sg458
S'104'
p619
sg24
S'.860'
p620
sg28
S'NBA'
p621
sg30
S'1.6'
p622
sg32
S'14.7'
p623
sg34
S'3.9'
p624
sg36
S'5.6'
p625
sg38
S'5.7'
p626
sg40
S'30'
p627
sg42
S'HOU'
p628
sg44
S'67'
p629
sg46
S'0.3'
p630
sg48
S'4.8'
p631
sg50
S'4.8'
p632
sg52
S'9.4'
p633
sg54
S'4.8'
p634
sg56
S'1993-94'
p635
sg58
S'6.5'
p636
sg60
S'3.4'
p637
sg62
S'.508'
p638
sg64
S'1606'
p639
sg66
g90
sba(isrc.gp1.models.Per100Possession
Per100Possession
p640
(dp641
g8
S'1.3'
p642
sg10
S'5.4'
p643
sg12
S'.499'
p644
sg451
S'119'
p645
sg14
S'5.1'
p646
sg16
S'.398'
p647
sg18
S'2.2'
p648
sg20
S'19.1'
p649
sg22
S'SF'
p650
sg458
S'111'
p651
sg24
S'.842'
p652
sg28
S'NBA'
p653
sg30
S'1.7'
p654
sg32
S'13.1'
p655
sg34
S'4.2'
p656
sg36
S'4.6'
p657
sg38
S'5.3'
p658
sg40
S'31'
p659
sg42
S'HOU'
p660
sg44
S'81'
p661
sg46
S'0.3'
p662
sg48
S'4.4'
p663
sg50
S'3.9'
p664
sg52
S'7.7'
p665
sg54
S'3.9'
p666
sg56
S'1994-95'
p667
sg58
S'6.5'
p668
sg60
S'2.8'
p669
sg62
S'.570'
p670
sg64
S'1896'
p671
sg66
S'13'
p672
sba(isrc.gp1.models.Per100Possession
Per100Possession
p673
(dp674
g8
S'1.7'
p675
sg10
S'4.7'
p676
sg12
S'.504'
p677
sg451
S'121'
p678
sg14
S'5.1'
p679
sg16
S'.323'
p680
sg18
S'1.5'
p681
sg20
S'18.6'
p682
sg22
S'SF'
p683
sg458
S'110'
p684
sg24
S'.852'
p685
sg28
S'NBA'
p686
sg30
S'1.7'
p687
sg32
S'13.3'
p688
sg34
S'3.5'
p689
sg36
S'4.3'
p690
sg38
S'5.8'
p691
sg40
S'32'
p692
sg42
S'HOU'
p693
sg44
S'45'
p694
sg46
S'0.4'
p695
sg48
S'5.2'
p696
sg50
S'3.6'
p697
sg52
S'8.6'
p698
sg54
S'4.0'
p699
sg56
S'1995-96'
p700
sg58
S'6.7'
p701
sg60
S'2.2'
p702
sg62
S'.604'
p703
sg64
S'1385'
p704
sg66
S'16'
p705
sba(isrc.gp1.models.Per100Possession
Per100Possession
p706
(dp707
g8
S'1.2'
p708
sg10
S'5.6'
p709
sg12
S'.497'
p710
sg451
S'125'
p711
sg14
S'6.0'
p712
sg16
S'.420'
p713
sg18
S'2.3'
p714
sg20
S'17.7'
p715
sg22
S'SF'
p716
sg458
S'107'
p717
sg24
S'.896'
p718
sg28
S'NBA'
p719
sg30
S'1.8'
p720
sg32
S'11.4'
p721
sg34
S'3.9'
p722
sg36
S'4.5'
p723
sg38
S'4.6'
p724
sg40
S'33'
p725
sg42
S'HOU'
p726
sg44
S'78'
p727
sg46
S'0.2'
p728
sg48
S'3.3'
p729
sg50
S'4.0'
p730
sg52
S'5.8'
p731
sg54
S'3.4'
p732
sg56
S'1996-97'
p733
sg58
S'5.7'
p734
sg60
S'2.6'
p735
sg62
S'.572'
p736
sg64
S'2687'
p737
sg66
S'77'
p738
sba(isrc.gp1.models.Per100Possession
Per100Possession
p739
(dp740
g8
S'1.0'
p741
sg10
S'5.0'
p742
sg12
S'.452'
p743
sg451
S'114'
p744
sg14
S'5.9'
p745
sg16
S'.291'
p746
sg18
S'1.5'
p747
sg20
S'16.2'
p748
sg22
S'SF'
p749
sg458
S'111'
p750
sg24
S'.833'
p751
sg28
S'NBA'
p752
sg30
S'2.1'
p753
sg32
S'12.1'
p754
sg34
S'3.1'
p755
sg36
S'4.6'
p756
sg38
S'4.1'
p757
sg40
S'34'
p758
sg42
S'HOU'
p759
sg44
S'73'
p760
sg46
S'0.2'
p761
sg48
S'4.0'
p762
sg50
S'3.8'
p763
sg52
S'7.1'
p764
sg54
S'3.1'
p765
sg56
S'1997-98'
p766
sg58
S'5.5'
p767
sg60
S'2.7'
p768
sg62
S'.566'
p769
sg64
S'1988'
p770
sg66
S'59'
p771
sba(isrc.gp1.models.Per100Possession
Per100Possession
p772
(dp773
g8
S'1.5'
p774
sg10
S'4.5'
p775
sg12
S'.471'
p776
sg451
S'114'
p777
sg14
S'3.7'
p778
sg16
S'.374'
p779
sg18
S'1.7'
p780
sg20
S'19.1'
p781
sg22
S'SG'
p782
sg458
S'98'
p783
sg24
S'.866'
p784
sg28
S'NBA'
p785
sg30
S'1.9'
p786
sg32
S'13.9'
p787
sg34
S'3.8'
p788
sg36
S'5.0'
p789
sg38
S'5.7'
p790
sg40
S'35'
p791
sg42
S'SAS'
p792
sg44
S'47'
p793
sg46
S'0.5'
p794
sg48
S'4.9'
p795
sg50
S'4.3'
p796
sg52
S'9.4'
p797
sg54
S'4.2'
p798
sg56
S'1998-99'
p799
sg58
S'6.5'
p800
sg60
S'2.6'
p801
sg62
S'.518'
p802
sg64
S'1291'
p803
sg66
S'37'
p804
sba(isrc.gp1.models.Per100Possession
Per100Possession
p805
(dp806
g8
S'1.1'
p807
sg10
S'4.4'
p808
sg12
S'.427'
p809
sg451
S'104'
p810
sg14
S'4.6'
p811
sg16
S'.398'
p812
sg18
S'1.8'
p813
sg20
S'14.1'
p814
sg22
S'SF'
p815
sg458
S'101'
p816
sg24
S'.846'
p817
sg28
S'NBA'
p818
sg30
S'1.7'
p819
sg32
S'10.9'
p820
sg34
S'3.7'
p821
sg36
S'3.6'
p822
sg38
S'5.9'
p823
sg40
S'36'
p824
sg42
S'SAS'
p825
sg44
S'79'
p826
sg46
S'0.2'
p827
sg48
S'2.9'
p828
sg50
S'3.0'
p829
sg52
S'6.5'
p830
sg54
S'4.8'
p831
sg56
S'1999-00'
p832
sg58
S'4.7'
p833
sg60
S'3.1'
p834
sg62
S'.446'
p835
sg64
S'2217'
p836
sg66
S'79'
p837
sba(isrc.gp1.models.Per100Possession
Per100Possession
p838
(dp839
g8
S'1.3'
p840
sg10
S'3.4'
p841
sg12
S'.423'
p842
sg451
S'105'
p843
sg14
S'4.5'
p844
sg16
S'.360'
p845
sg18
S'1.2'
p846
sg20
S'10.2'
p847
sg22
S'SG'
p848
sg458
S'101'
p849
sg24
S'.797'
p850
sg28
S'NBA'
p851
sg30
S'2.0'
p852
sg32
S'8.4'
p853
sg34
S'3.8'
p854
sg36
S'2.4'
p855
sg38
S'5.3'
p856
sg40
S'37'
p857
sg42
S'PHO'
p858
sg44
S'68'
p859
sg46
S'0.4'
p860
sg48
S'2.3'
p861
sg50
S'1.9'
p862
sg52
S'5.0'
p863
sg54
S'4.0'
p864
sg56
S'2000-01'
p865
sg58
S'3.6'
p866
sg60
S'2.1'
p867
sg62
S'.466'
p868
sg64
S'1506'
p869
sg66
S'67'
p870
sbasS'_advanced'
p871
(lp872
(isrc.gp1.models.Advanced
Advanced
p873
(dp874
S'_offensiveReboundPercentage'
p875
S'7.9'
p876
sS'_turnOverPercentage'
p877
S'13.1'
p878
sS'_winSharesPer48Minutes'
p879
S'.122'
p880
sS'_stealPercentage'
p881
S'1.4'
p882
sS'_usagePercentage'
p883
S'14.2'
p884
sS'_totalReboundsPercentage'
p885
S'9.4'
p886
sS'_defensiveBoxPlusMinus'
p887
S'-0.5'
p888
sg22
S'SF-SG'
p889
sS'_valueOverReplacementPlayer'
p890
S'0.3'
p891
sS'_trueShootingPercentage'
p892
S'.598'
p893
sS'_defensiveReboundPercentage'
p894
S'10.9'
p895
sS'_freeThrowsAttempRate'
p896
S'.560'
p897
sS'_threePointsAttempRate'
p898
S'.063'
p899
sg28
S'NBA'
p900
sS'_offensiveBoxPlusMinues'
p901
S'0.5'
p902
sS'_assistPercentage'
p903
S'9.0'
p904
sS'_defensiveWinShares'
p905
S'0.3'
p906
sg40
S'27'
p907
sg42
S'TOT'
p908
sg44
S'33'
p909
sS'_blockPercentage'
p910
S'0.9'
p911
sS'_playerEfficiencyRating'
p912
S'12.9'
p913
sS'_offensiveWinShares'
p914
S'1.3'
p915
sg64
S'644'
p916
sS'_boxPlusMinus'
p917
S'-0.1'
p918
sg56
S'1990-91'
p919
sS'_winShares'
p920
S'1.6'
p921
sba(isrc.gp1.models.Advanced
Advanced
p922
(dp923
g875
S'0.0'
p924
sg877
S'27.6'
p925
sg879
S'-0.247'
p926
sg881
S'0.0'
p927
sg883
S'23.8'
p928
sg885
S'2.8'
p929
sg887
S'-4.8'
p930
sg22
S'SG'
p931
sg890
S'-0.1'
p932
sg892
S'.381'
p933
sg894
S'5.5'
p934
sg896
S'.286'
p935
sg898
S'.286'
p936
sg28
S'NBA'
p937
sg901
S'-11.3'
p938
sg903
S'7.0'
p939
sg905
S'0.0'
p940
sg40
S'27'
p941
sg42
S'PHI'
p942
sg44
g82
sg910
S'0.0'
p943
sg912
S'-3.6'
p944
sg914
S'-0.1'
p945
sg64
S'20'
p946
sg917
S'-16.1'
p947
sg56
S'1990-91'
p948
sg920
S'-0.1'
p949
sba(isrc.gp1.models.Advanced
Advanced
p950
(dp951
g875
S'8.1'
p952
sg877
S'12.4'
p953
sg879
S'.134'
p954
sg881
S'1.4'
p955
sg883
S'13.9'
p956
sg885
S'9.6'
p957
sg887
S'-0.4'
p958
sg22
S'SF'
p959
sg890
S'0.4'
p960
sg892
S'.607'
p961
sg894
S'11.1'
p962
sg896
S'.572'
p963
sg898
S'.053'
p964
sg28
S'NBA'
p965
sg901
S'0.9'
p966
sg903
S'9.1'
p967
sg905
S'0.3'
p968
sg40
S'27'
p969
sg42
S'GSW'
p970
sg44
S'30'
p971
sg910
S'1.0'
p972
sg912
S'13.4'
p973
sg914
S'1.4'
p974
sg64
S'624'
p975
sg917
S'0.5'
p976
sg56
S'1990-91'
p977
sg920
S'1.7'
p978
sba(isrc.gp1.models.Advanced
Advanced
p979
(dp980
g875
S'4.6'
p981
sg877
S'14.1'
p982
sg879
S'.127'
p983
sg881
S'1.9'
p984
sg883
S'14.0'
p985
sg885
S'7.4'
p986
sg887
S'-0.3'
p987
sg22
S'SG'
p988
sg890
S'1.3'
p989
sg892
S'.615'
p990
sg894
S'10.1'
p991
sg896
S'.429'
p992
sg898
S'.165'
p993
sg28
S'NBA'
p994
sg901
S'1.3'
p995
sg903
S'12.7'
p996
sg905
S'1.1'
p997
sg40
S'28'
p998
sg42
S'GSW'
p999
sg44
S'79'
p1000
sg910
S'0.5'
p1001
sg912
S'13.7'
p1002
sg914
S'3.4'
p1003
sg64
S'1677'
p1004
sg917
S'1.0'
p1005
sg56
S'1991-92'
p1006
sg920
S'4.4'
p1007
sba(isrc.gp1.models.Advanced
Advanced
p1008
(dp1009
g875
S'3.6'
p1010
sg877
S'12.6'
p1011
sg879
S'.139'
p1012
sg881
S'2.0'
p1013
sg883
S'16.6'
p1014
sg885
S'6.7'
p1015
sg887
S'0.3'
p1016
sg22
S'SF'
p1017
sg890
S'1.2'
p1018
sg892
S'.573'
p1019
sg894
S'10.1'
p1020
sg896
S'.408'
p1021
sg898
S'.246'
p1022
sg28
S'NBA'
p1023
sg901
S'0.5'
p1024
sg903
S'14.2'
p1025
sg905
S'2.1'
p1026
sg40
S'29'
p1027
sg42
S'POR'
p1028
sg44
S'82'
p1029
sg910
S'0.7'
p1030
sg912
S'14.2'
p1031
sg914
S'3.0'
p1032
sg64
S'1757'
p1033
sg917
S'0.8'
p1034
sg56
S'1992-93'
p1035
sg920
S'5.1'
p1036
sba(isrc.gp1.models.Advanced
Advanced
p1037
(dp1038
g875
S'2.1'
p1039
sg877
S'16.7'
p1040
sg879
S'.125'
p1041
sg881
S'1.6'
p1042
sg883
S'18.0'
p1043
sg885
S'6.3'
p1044
sg887
S'-0.2'
p1045
sg22
S'SF'
p1046
sg890
S'0.7'
p1047
sg892
S'.575'
p1048
sg894
S'10.0'
p1049
sg896
S'.384'
p1050
sg898
S'.358'
p1051
sg28
S'NBA'
p1052
sg901
S'0.0'
p1053
sg903
S'19.1'
p1054
sg905
S'2.0'
p1055
sg40
S'30'
p1056
sg42
S'HOU'
p1057
sg44
S'67'
p1058
sg910
S'0.3'
p1059
sg912
S'13.4'
p1060
sg914
S'2.1'
p1061
sg64
S'1606'
p1062
sg917
S'-0.2'
p1063
sg56
S'1993-94'
p1064
sg920
S'4.2'
p1065
sba(isrc.gp1.models.Advanced
Advanced
p1066
(dp1067
g875
S'3.2'
p1068
sg877
S'15.6'
p1069
sg879
S'.122'
p1070
sg881
S'1.7'
p1071
sg883
S'15.8'
p1072
sg885
S'5.9'
p1073
sg887
S'-0.9'
p1074
sg22
S'SF'
p1075
sg890
S'1.1'
p1076
sg892
S'.631'
p1077
sg894
S'8.4'
p1078
sg896
S'.351'
p1079
sg898
S'.413'
p1080
sg28
S'NBA'
p1081
sg901
S'1.1'
p1082
sg903
S'14.8'
p1083
sg905
S'1.4'
p1084
sg40
S'31'
p1085
sg42
S'HOU'
p1086
sg44
S'81'
p1087
sg910
S'0.4'
p1088
sg912
S'13.7'
p1089
sg914
S'3.4'
p1090
sg64
S'1896'
p1091
sg917
S'0.2'
p1092
sg56
S'1994-95'
p1093
sg920
S'4.8'
p1094
sba(isrc.gp1.models.Advanced
Advanced
p1095
(dp1096
g875
S'3.9'
p1097
sg877
S'12.6'
p1098
sg879
S'.133'
p1099
sg881
S'1.7'
p1100
sg883
S'15.1'
p1101
sg885
S'6.3'
p1102
sg887
S'-0.5'
p1103
sg22
S'SF'
p1104
sg890
S'1.1'
p1105
sg892
S'.612'
p1106
sg894
S'8.6'
p1107
sg896
S'.322'
p1108
sg898
S'.356'
p1109
sg28
S'NBA'
p1110
sg901
S'1.6'
p1111
sg903
S'15.4'
p1112
sg905
S'1.0'
p1113
sg40
S'32'
p1114
sg42
S'HOU'
p1115
sg44
S'45'
p1116
sg910
S'0.6'
p1117
sg912
S'14.6'
p1118
sg914
S'2.8'
p1119
sg64
S'1385'
p1120
sg917
S'1.1'
p1121
sg56
S'1995-96'
p1122
sg920
S'3.8'
p1123
sba(isrc.gp1.models.Advanced
Advanced
p1124
(dp1125
g875
S'2.7'
p1126
sg877
S'16.4'
p1127
sg879
S'.159'
p1128
sg881
S'1.8'
p1129
sg883
S'13.9'
p1130
sg885
S'5.1'
p1131
sg887
S'0.1'
p1132
sg22
S'SF'
p1133
sg890
S'3.1'
p1134
sg892
S'.662'
p1135
sg894
S'7.2'
p1136
sg896
S'.395'
p1137
sg898
S'.489'
p1138
sg28
S'NBA'
p1139
sg901
S'2.4'
p1140
sg903
S'17.6'
p1141
sg905
S'2.6'
p1142
sg40
S'33'
p1143
sg42
S'HOU'
p1144
sg44
S'78'
p1145
sg910
S'0.3'
p1146
sg912
S'14.3'
p1147
sg914
S'6.3'
p1148
sg64
S'2687'
p1149
sg917
S'2.5'
p1150
sg56
S'1996-97'
p1151
sg920
S'8.9'
p1152
sba(isrc.gp1.models.Advanced
Advanced
p1153
(dp1154
g875
S'2.3'
p1155
sg877
S'15.8'
p1156
sg879
S'.092'
p1157
sg881
S'2.1'
p1158
sg883
S'14.4'
p1159
sg885
S'4.6'
p1160
sg887
S'-1.2'
p1161
sg22
S'SF'
p1162
sg890
S'0.8'
p1163
sg892
S'.575'
p1164
sg894
S'6.9'
p1165
sg896
S'.382'
p1166
sg898
S'.414'
p1167
sg28
S'NBA'
p1168
sg901
S'0.8'
p1169
sg903
S'17.4'
p1170
sg905
S'0.6'
p1171
sg40
S'34'
p1172
sg42
S'HOU'
p1173
sg44
S'73'
p1174
sg910
S'0.3'
p1175
sg912
S'12.9'
p1176
sg914
S'3.2'
p1177
sg64
S'1988'
p1178
sg917
S'-0.4'
p1179
sg56
S'1997-98'
p1180
sg920
S'3.8'
p1181
sba(isrc.gp1.models.Advanced
Advanced
p1182
(dp1183
g875
S'3.3'
p1184
sg877
S'13.7'
p1185
sg879
S'.169'
p1186
sg881
S'1.9'
p1187
sg883
S'16.0'
p1188
sg885
S'6.0'
p1189
sg887
S'1.1'
p1190
sg22
S'SG'
p1191
sg890
S'1.6'
p1192
sg892
S'.593'
p1193
sg894
S'8.3'
p1194
sg896
S'.360'
p1195
sg898
S'.323'
p1196
sg28
S'NBA'
p1197
sg901
S'1.7'
p1198
sg903
S'11.5'
p1199
sg905
S'1.9'
p1200
sg40
S'35'
p1201
sg42
S'SAS'
p1202
sg44
S'47'
p1203
sg910
S'0.6'
p1204
sg912
S'14.5'
p1205
sg914
S'2.6'
p1206
sg64
S'1291'
p1207
sg917
S'2.8'
p1208
sg56
S'1998-99'
p1209
sg920
S'4.5'
p1210
sba(isrc.gp1.models.Advanced
Advanced
p1211
(dp1212
g875
S'2.6'
p1213
sg877
S'19.9'
p1214
sg879
S'.099'
p1215
sg881
S'1.7'
p1216
sg883
S'13.6'
p1217
sg885
S'6.4'
p1218
sg887
S'1.3'
p1219
sg22
S'SF'
p1220
sg890
S'1.8'
p1221
sg892
S'.565'
p1222
sg894
S'9.9'
p1223
sg896
S'.326'
p1224
sg898
S'.407'
p1225
sg28
S'NBA'
p1226
sg901
S'0.0'
p1227
sg903
S'13.3'
p1228
sg905
S'3.0'
p1229
sg40
S'36'
p1230
sg42
S'SAS'
p1231
sg44
S'79'
p1232
sg910
S'0.3'
p1233
sg912
S'10.4'
p1234
sg914
S'1.5'
p1235
sg64
S'2217'
p1236
sg917
S'1.3'
p1237
sg56
S'1999-00'
p1238
sg920
S'4.6'
p1239
sba(isrc.gp1.models.Advanced
Advanced
p1240
(dp1241
g875
S'2.8'
p1242
sg877
S'17.8'
p1243
sg879
S'.097'
p1244
sg881
S'2.0'
p1245
sg883
S'10.0'
p1246
sg885
S'5.8'
p1247
sg887
S'1.5'
p1248
sg22
S'SG'
p1249
sg890
S'0.7'
p1250
sg892
S'.541'
p1251
sg894
S'9.0'
p1252
sg896
S'.280'
p1253
sg898
S'.407'
p1254
sg28
S'NBA'
p1255
sg901
S'-1.6'
p1256
sg903
S'12.9'
p1257
sg905
S'2.0'
p1258
sg40
S'37'
p1259
sg42
S'PHO'
p1260
sg44
S'68'
p1261
sg910
S'0.6'
p1262
sg912
S'9.3'
p1263
sg914
S'1.1'
p1264
sg64
S'1506'
p1265
sg917
S'-0.2'
p1266
sg56
S'2000-01'
p1267
sg920
S'3.1'
p1268
sbasS'_per36Minutes'
p1269
(lp1270
(isrc.gp1.models.Per36Minutes
Per36Minutes
p1271
(dp1272
g8
S'2.6'
p1273
sg10
S'0.6'
p1274
sg12
S'.497'
p1275
sg14
S'2.5'
p1276
sg16
S'.400'
p1277
sg18
S'0.2'
p1278
sg20
S'13.2'
p1279
sg22
S'SF-SG'
p1280
sg24
S'.843'
p1281
sg28
S'NBA'
p1282
sg30
S'1.1'
p1283
sg32
S'8.9'
p1284
sg34
S'4.8'
p1285
sg36
S'5.0'
p1286
sg38
S'6.1'
p1287
sg40
S'27'
p1288
sg42
S'TOT'
p1289
sg44
S'33'
p1290
sg46
S'0.6'
p1291
sg48
S'4.2'
p1292
sg50
S'4.2'
p1293
sg52
S'8.3'
p1294
sg54
S'3.6'
p1295
sg56
S'1990-91'
p1296
sg58
S'4.4'
p1297
sg60
S'1.7'
p1298
sg62
S'.503'
p1299
sg64
S'644'
p1300
sg66
g67
sba(isrc.gp1.models.Per36Minutes
Per36Minutes
p1301
(dp1302
g8
S'0.0'
p1303
sg10
S'3.6'
p1304
sg12
S'.286'
p1305
sg14
S'1.8'
p1306
sg16
S'.500'
p1307
sg18
S'1.8'
p1308
sg20
S'10.8'
p1309
sg22
S'SG'
p1310
sg24
S'.500'
p1311
sg28
S'NBA'
p1312
sg30
S'0.0'
p1313
sg32
S'12.6'
p1314
sg34
S'3.6'
p1315
sg36
S'3.6'
p1316
sg38
S'1.8'
p1317
sg40
S'27'
p1318
sg42
S'PHI'
p1319
sg44
g82
sg46
S'0.0'
p1320
sg48
S'1.8'
p1321
sg50
S'1.8'
p1322
sg52
S'9.0'
p1323
sg54
S'1.8'
p1324
sg56
S'1990-91'
p1325
sg58
S'3.6'
p1326
sg60
S'5.4'
p1327
sg62
S'.200'
p1328
sg64
S'20'
p1329
sg66
g67
sba(isrc.gp1.models.Per36Minutes
Per36Minutes
p1330
(dp1331
g8
S'2.7'
p1332
sg10
S'0.5'
p1333
sg12
S'.507'
p1334
sg14
S'2.5'
p1335
sg16
S'.375'
p1336
sg18
S'0.2'
p1337
sg20
S'13.3'
p1338
sg22
S'SF'
p1339
sg24
S'.851'
p1340
sg28
S'NBA'
p1341
sg30
S'1.1'
p1342
sg32
S'8.8'
p1343
sg34
S'4.8'
p1344
sg36
S'5.0'
p1345
sg38
S'6.3'
p1346
sg40
S'27'
p1347
sg42
S'GSW'
p1348
sg44
S'30'
p1349
sg46
S'0.6'
p1350
sg48
S'4.3'
p1351
sg50
S'4.3'
p1352
sg52
S'8.3'
p1353
sg54
S'3.6'
p1354
sg56
S'1990-91'
p1355
sg58
S'4.4'
p1356
sg60
S'1.6'
p1357
sg62
S'.514'
p1358
sg64
S'624'
p1359
sg66
g67
sba(isrc.gp1.models.Per36Minutes
Per36Minutes
p1360
(dp1361
g8
S'1.5'
p1362
sg10
S'1.5'
p1363
sg12
S'.521'
p1364
sg14
S'3.7'
p1365
sg16
S'.329'
p1366
sg18
S'0.5'
p1367
sg20
S'13.3'
p1368
sg22
S'SG'
p1369
sg24
S'.852'
p1370
sg28
S'NBA'
p1371
sg30
S'1.5'
p1372
sg32
S'9.1'
p1373
sg34
S'3.4'
p1374
sg36
S'3.9'
p1375
sg38
S'4.9'
p1376
sg40
S'28'
p1377
sg42
S'GSW'
p1378
sg44
S'79'
p1379
sg46
S'0.3'
p1380
sg48
S'4.3'
p1381
sg50
S'3.3'
p1382
sg52
S'7.6'
p1383
sg54
S'3.4'
p1384
sg56
S'1991-92'
p1385
sg58
S'4.7'
p1386
sg60
S'1.8'
p1387
sg62
S'.559'
p1388
sg64
S'1677'
p1389
sg66
S'32'
p1390
sba(isrc.gp1.models.Per36Minutes
Per36Minutes
p1391
(dp1392
g8
S'1.2'
p1393
sg10
S'2.6'
p1394
sg12
S'.458'
p1395
sg14
S'3.6'
p1396
sg16
S'.349'
p1397
sg18
S'0.9'
p1398
sg20
S'14.5'
p1399
sg22
S'SF'
p1400
sg24
S'.855'
p1401
sg28
S'NBA'
p1402
sg30
S'1.5'
p1403
sg32
S'10.7'
p1404
sg34
S'3.0'
p1405
sg36
S'4.4'
p1406
sg38
S'4.4'
p1407
sg40
S'29'
p1408
sg42
S'POR'
p1409
sg44
S'82'
p1410
sg46
S'0.4'
p1411
sg48
S'4.0'
p1412
sg50
S'3.7'
p1413
sg52
S'8.1'
p1414
sg54
S'3.2'
p1415
sg56
S'1992-93'
p1416
sg58
S'4.9'
p1417
sg60
S'1.8'
p1418
sg62
S'.494'
p1419
sg64
S'1757'
p1420
sg66
g79
sba(isrc.gp1.models.Per36Minutes
Per36Minutes
p1421
(dp1422
g8
S'0.6'
p1423
sg10
S'3.7'
p1424
sg12
S'.446'
p1425
sg14
S'4.7'
p1426
sg16
S'.335'
p1427
sg18
S'1.3'
p1428
sg20
S'14.0'
p1429
sg22
S'SF'
p1430
sg24
S'.860'
p1431
sg28
S'NBA'
p1432
sg30
S'1.1'
p1433
sg32
S'10.4'
p1434
sg34
S'2.8'
p1435
sg36
S'4.0'
p1436
sg38
S'4.1'
p1437
sg40
S'30'
p1438
sg42
S'HOU'
p1439
sg44
S'67'
p1440
sg46
S'0.2'
p1441
sg48
S'3.4'
p1442
sg50
S'3.5'
p1443
sg52
S'6.7'
p1444
sg54
S'3.4'
p1445
sg56
S'1993-94'
p1446
sg58
S'4.7'
p1447
sg60
S'2.4'
p1448
sg62
S'.508'
p1449
sg64
S'1606'
p1450
sg66
g90
sba(isrc.gp1.models.Per36Minutes
Per36Minutes
p1451
(dp1452
g8
S'0.9'
p1453
sg10
S'3.8'
p1454
sg12
S'.499'
p1455
sg14
S'3.6'
p1456
sg16
S'.398'
p1457
sg18
S'1.5'
p1458
sg20
S'13.5'
p1459
sg22
S'SF'
p1460
sg24
S'.842'
p1461
sg28
S'NBA'
p1462
sg30
S'1.2'
p1463
sg32
S'9.2'
p1464
sg34
S'3.0'
p1465
sg36
S'3.2'
p1466
sg38
S'3.7'
p1467
sg40
S'31'
p1468
sg42
S'HOU'
p1469
sg44
S'81'
p1470
sg46
S'0.2'
p1471
sg48
S'3.1'
p1472
sg50
S'2.7'
p1473
sg52
S'5.4'
p1474
sg54
S'2.8'
p1475
sg56
S'1994-95'
p1476
sg58
S'4.6'
p1477
sg60
S'2.0'
p1478
sg62
S'.570'
p1479
sg64
S'1896'
p1480
sg66
S'13'
p1481
sba(isrc.gp1.models.Per36Minutes
Per36Minutes
p1482
(dp1483
g8
S'1.2'
p1484
sg10
S'3.3'
p1485
sg12
S'.504'
p1486
sg14
S'3.6'
p1487
sg16
S'.323'
p1488
sg18
S'1.1'
p1489
sg20
S'13.0'
p1490
sg22
S'SF'
p1491
sg24
S'.852'
p1492
sg28
S'NBA'
p1493
sg30
S'1.2'
p1494
sg32
S'9.3'
p1495
sg34
S'2.4'
p1496
sg36
S'3.0'
p1497
sg38
S'4.0'
p1498
sg40
S'32'
p1499
sg42
S'HOU'
p1500
sg44
S'45'
p1501
sg46
S'0.3'
p1502
sg48
S'3.6'
p1503
sg50
S'2.5'
p1504
sg52
S'6.0'
p1505
sg54
S'2.8'
p1506
sg56
S'1995-96'
p1507
sg58
S'4.7'
p1508
sg60
S'1.5'
p1509
sg62
S'.604'
p1510
sg64
S'1385'
p1511
sg66
S'16'
p1512
sba(isrc.gp1.models.Per36Minutes
Per36Minutes
p1513
(dp1514
g8
S'0.8'
p1515
sg10
S'3.8'
p1516
sg12
S'.497'
p1517
sg14
S'4.2'
p1518
sg16
S'.420'
p1519
sg18
S'1.6'
p1520
sg20
S'12.2'
p1521
sg22
S'SF'
p1522
sg24
S'.896'
p1523
sg28
S'NBA'
p1524
sg30
S'1.2'
p1525
sg32
S'7.8'
p1526
sg34
S'2.7'
p1527
sg36
S'3.1'
p1528
sg38
S'3.1'
p1529
sg40
S'33'
p1530
sg42
S'HOU'
p1531
sg44
S'78'
p1532
sg46
S'0.2'
p1533
sg48
S'2.3'
p1534
sg50
S'2.8'
p1535
sg52
S'4.0'
p1536
sg54
S'2.3'
p1537
sg56
S'1996-97'
p1538
sg58
S'3.9'
p1539
sg60
S'1.8'
p1540
sg62
S'.572'
p1541
sg64
S'2687'
p1542
sg66
S'77'
p1543
sba(isrc.gp1.models.Per36Minutes
Per36Minutes
p1544
(dp1545
g8
S'0.7'
p1546
sg10
S'3.4'
p1547
sg12
S'.452'
p1548
sg14
S'4.0'
p1549
sg16
S'.291'
p1550
sg18
S'1.0'
p1551
sg20
S'11.1'
p1552
sg22
S'SF'
p1553
sg24
S'.833'
p1554
sg28
S'NBA'
p1555
sg30
S'1.5'
p1556
sg32
S'8.3'
p1557
sg34
S'2.1'
p1558
sg36
S'3.2'
p1559
sg38
S'2.8'
p1560
sg40
S'34'
p1561
sg42
S'HOU'
p1562
sg44
S'73'
p1563
sg46
S'0.1'
p1564
sg48
S'2.7'
p1565
sg50
S'2.6'
p1566
sg52
S'4.8'
p1567
sg54
S'2.1'
p1568
sg56
S'1997-98'
p1569
sg58
S'3.7'
p1570
sg60
S'1.8'
p1571
sg62
S'.566'
p1572
sg64
S'1988'
p1573
sg66
S'59'
p1574
sba(isrc.gp1.models.Per36Minutes
Per36Minutes
p1575
(dp1576
g8
S'1.0'
p1577
sg10
S'3.0'
p1578
sg12
S'.471'
p1579
sg14
S'2.5'
p1580
sg16
S'.374'
p1581
sg18
S'1.1'
p1582
sg20
S'12.7'
p1583
sg22
S'SG'
p1584
sg24
S'.866'
p1585
sg28
S'NBA'
p1586
sg30
S'1.3'
p1587
sg32
S'9.2'
p1588
sg34
S'2.5'
p1589
sg36
S'3.3'
p1590
sg38
S'3.8'
p1591
sg40
S'35'
p1592
sg42
S'SAS'
p1593
sg44
S'47'
p1594
sg46
S'0.3'
p1595
sg48
S'3.2'
p1596
sg50
S'2.9'
p1597
sg52
S'6.2'
p1598
sg54
S'2.8'
p1599
sg56
S'1998-99'
p1600
sg58
S'4.4'
p1601
sg60
S'1.7'
p1602
sg62
S'.518'
p1603
sg64
S'1291'
p1604
sg66
S'37'
p1605
sba(isrc.gp1.models.Per36Minutes
Per36Minutes
p1606
(dp1607
g8
S'0.8'
p1608
sg10
S'3.0'
p1609
sg12
S'.427'
p1610
sg14
S'3.1'
p1611
sg16
S'.398'
p1612
sg18
S'1.2'
p1613
sg20
S'9.6'
p1614
sg22
S'SF'
p1615
sg24
S'.846'
p1616
sg28
S'NBA'
p1617
sg30
S'1.2'
p1618
sg32
S'7.4'
p1619
sg34
S'2.5'
p1620
sg36
S'2.4'
p1621
sg38
S'4.0'
p1622
sg40
S'36'
p1623
sg42
S'SAS'
p1624
sg44
S'79'
p1625
sg46
S'0.1'
p1626
sg48
S'2.0'
p1627
sg50
S'2.0'
p1628
sg52
S'4.4'
p1629
sg54
S'3.3'
p1630
sg56
S'1999-00'
p1631
sg58
S'3.2'
p1632
sg60
S'2.1'
p1633
sg62
S'.446'
p1634
sg64
S'2217'
p1635
sg66
S'79'
p1636
sba(isrc.gp1.models.Per36Minutes
Per36Minutes
p1637
(dp1638
g8
S'0.9'
p1639
sg10
S'2.4'
p1640
sg12
S'.423'
p1641
sg14
S'3.1'
p1642
sg16
S'.360'
p1643
sg18
S'0.9'
p1644
sg20
S'7.1'
p1645
sg22
S'SG'
p1646
sg24
S'.797'
p1647
sg28
S'NBA'
p1648
sg30
S'1.4'
p1649
sg32
S'5.9'
p1650
sg34
S'2.7'
p1651
sg36
S'1.6'
p1652
sg38
S'3.7'
p1653
sg40
S'37'
p1654
sg42
S'PHO'
p1655
sg44
S'68'
p1656
sg46
S'0.3'
p1657
sg48
S'1.6'
p1658
sg50
S'1.3'
p1659
sg52
S'3.5'
p1660
sg54
S'2.8'
p1661
sg56
S'2000-01'
p1662
sg58
S'2.5'
p1663
sg60
S'1.4'
p1664
sg62
S'.466'
p1665
sg64
S'1506'
p1666
sg66
S'67'
p1667
sbasS'_fromYear'
p1668
S'1991'
p1669
sS'_url'
p1670
S'http://www.basketball-reference.com/players/e/eliema01.html'
p1671
sS'_perGame'
p1672
(isrc.gp1.models.PerGame
PerGame
p1673
(dp1674
g8
S'0.6'
p1675
sg10
S'1.5'
p1676
sg12
S'.423'
p1677
sS'_effectiveFieldGalPercentage'
p1678
S'.496'
p1679
sg14
S'1.9'
p1680
sg16
S'.360'
p1681
sg18
S'0.5'
p1682
sg20
S'4.4'
p1683
sg22
S'SG'
p1684
sg24
S'.797'
p1685
sg28
S'NBA'
p1686
sg30
S'0.9'
p1687
sg34
S'1.6'
p1688
sS'_fieldGoalsttempted'
p1689
S'3.6'
p1690
sg36
S'1.0'
p1691
sg38
S'2.3'
p1692
sg40
S'37'
p1693
sg42
S'PHO'
p1694
sg44
S'68'
p1695
sg46
S'0.2'
p1696
sg48
S'1.0'
p1697
sg50
S'0.8'
p1698
sg52
S'2.1'
p1699
sg54
S'1.7'
p1700
sg56
S'2000-01'
p1701
sg58
S'1.5'
p1702
sg60
S'0.9'
p1703
sg62
S'.466'
p1704
sg64
S'22.1'
p1705
sg66
S'67'
p1706
sbsS'_weight'
p1707
S'210'
p1708
sS'_dob'
p1709
S'26-11-1963'
p1710
sS'_salary'
p1711
(lp1712
(isrc.gp1.models.Salary
Salary
p1713
(dp1714
g42
S'Golden State Warriors'
p1715
sg28
S'NBA'
p1716
sg1711
S'$50,000'
p1717
sg56
S'1990-91'
p1718
sba(isrc.gp1.models.Salary
Salary
p1719
(dp1720
g42
S'Golden State Warriors'
p1721
sg28
S'NBA'
p1722
sg1711
S'$130,000'
p1723
sg56
S'1991-92'
p1724
sba(isrc.gp1.models.Salary
Salary
p1725
(dp1726
g42
S'Portland Trail Blazers'
p1727
sg28
S'NBA'
p1728
sg1711
S'$608,000'
p1729
sg56
S'1992-93'
p1730
sba(isrc.gp1.models.Salary
Salary
p1731
(dp1732
g42
S'Houston Rockets'
p1733
sg28
S'NBA'
p1734
sg1711
S'$790,000'
p1735
sg56
S'1993-94'
p1736
sba(isrc.gp1.models.Salary
Salary
p1737
(dp1738
g42
S'Houston Rockets'
p1739
sg28
S'NBA'
p1740
sg1711
S'$1,450,000'
p1741
sg56
S'1994-95'
p1742
sba(isrc.gp1.models.Salary
Salary
p1743
(dp1744
g42
S'Houston Rockets'
p1745
sg28
S'NBA'
p1746
sg1711
S'$1,400,000'
p1747
sg56
S'1996-97'
p1748
sba(isrc.gp1.models.Salary
Salary
p1749
(dp1750
g42
S'Houston Rockets'
p1751
sg28
S'NBA'
p1752
sg1711
S'$2,430,000'
p1753
sg56
S'1997-98'
p1754
sba(isrc.gp1.models.Salary
Salary
p1755
(dp1756
g42
S'San Antonio Spurs'
p1757
sg28
S'NBA'
p1758
sg1711
S'$1,750,000'
p1759
sg56
S'1998-99'
p1760
sba(isrc.gp1.models.Salary
Salary
p1761
(dp1762
g42
S'San Antonio Spurs'
p1763
sg28
S'NBA'
p1764
sg1711
S'$1,925,000'
p1765
sg56
S'1999-00'
p1766
sba(isrc.gp1.models.Salary
Salary
p1767
(dp1768
g42
S'Phoenix Suns'
p1769
sg28
S'NBA'
p1770
sg1711
S'$1,000,000'
p1771
sg56
S'2000-01'
p1772
sbasg22
S'G-F'
p1773
sb.