(isrc.gp1.models.Player
Player
p0
(dp1
S'_experience'
p2
S'NA'
p3
sS'_totals'
p4
(lp5
(isrc.gp1.models.Totals
Totals
p6
(dp7
S'_offensiveRebounds'
p8
S'33'
p9
sS'_threePointsAttempted'
p10
S'70'
p11
sS'_fieldGoalsPercentage'
p12
S'.408'
p13
sS'_assist'
p14
S'202'
p15
sS'_threePointsPercentage'
p16
S'.329'
p17
sS'_threePoints'
p18
S'23'
p19
sS'_points'
p20
S'464'
p21
sS'_position'
p22
S'PG'
p23
sS'_freeThrowsPercentage'
p24
S'.833'
p25
sS'_effectiveFieldGoalPercentage'
p26
S'.435'
p27
sS'_league'
p28
S'NBA'
p29
sS'_steals'
p30
S'43'
p31
sS'_fieldGoalsAttempted'
p32
S'424'
p33
sS'_personalFouls'
p34
S'75'
p35
sS'_freeThrowsAttempted'
p36
S'114'
p37
sS'_totalRebounds'
p38
S'117'
p39
sS'_age'
p40
S'22'
p41
sS'_team'
p42
S'CLE'
p43
sS'_games'
p44
S'67'
p45
sS'_blocks'
p46
S'4'
p47
sS'_twoPoints'
p48
S'150'
p49
sS'_freeThrows'
p50
S'95'
p51
sS'_twoPointsAttempted'
p52
S'354'
p53
sS'_defensiveRebounds'
p54
S'84'
p55
sS'_season'
p56
S'1986-87'
p57
sS'_fieldGoals'
p58
S'173'
p59
sS'_turnOvers'
p60
S'105'
p61
sS'_twoPointsPercentage'
p62
S'.424'
p63
sS'_minutesPlayed'
p64
S'1217'
p65
sS'_gamesStarted'
p66
S'0'
p67
sba(isrc.gp1.models.Totals
Totals
p68
(dp69
g8
S'54'
p70
sg10
S'148'
p71
sg12
S'.506'
p72
sg14
S'480'
p73
sg16
S'.486'
p74
sg18
S'72'
p75
sg20
S'1279'
p76
sg22
S'PG'
p77
sg24
S'.877'
p78
sg26
S'.543'
p79
sg28
S'NBA'
p80
sg30
S'99'
p81
sg32
S'974'
p82
sg34
S'119'
p83
sg36
S'252'
p84
sg38
S'180'
p85
sg40
S'23'
p86
sg42
S'CLE'
p87
sg44
S'80'
p88
sg46
S'12'
p89
sg48
S'421'
p90
sg50
S'221'
p91
sg52
S'826'
p92
sg54
S'126'
p93
sg56
S'1987-88'
p94
sg58
S'493'
p95
sg60
S'184'
p96
sg62
S'.510'
p97
sg64
S'2626'
p98
sg66
S'79'
p99
sba(isrc.gp1.models.Totals
Totals
p100
(dp101
g8
S'48'
p102
sg10
S'211'
p103
sg12
S'.526'
p104
sg14
S'631'
p105
sg16
S'.441'
p106
sg18
S'93'
p107
sg20
S'1414'
p108
sg22
S'PG'
p109
sg24
S'.901'
p110
sg26
S'.572'
p111
sg28
S'NBA'
p112
sg30
S'115'
p113
sg32
S'1006'
p114
sg34
S'98'
p115
sg36
S'292'
p116
sg38
S'226'
p117
sg40
S'24'
p118
sg42
S'CLE'
p119
sg44
S'75'
p120
sg46
S'7'
p121
sg48
S'436'
p122
sg50
S'263'
p123
sg52
S'795'
p124
sg54
S'178'
p125
sg56
S'1988-89'
p126
sg58
S'529'
p127
sg60
S'212'
p128
sg62
S'.548'
p129
sg64
S'2728'
p130
sg66
S'74'
p131
sba(isrc.gp1.models.Totals
Totals
p132
(dp133
g8
S'66'
p134
sg10
S'374'
p135
sg12
S'.459'
p136
sg14
S'666'
p137
sg16
S'.406'
p138
sg18
S'152'
p139
sg20
S'1430'
p140
sg22
S'PG'
p141
sg24
S'.888'
p142
sg26
S'.530'
p143
sg28
S'NBA'
p144
sg30
S'114'
p145
sg32
S'1066'
p146
sg34
S'89'
p147
sg36
S'338'
p148
sg38
S'251'
p149
sg40
S'25'
p150
sg42
S'CLE'
p151
sg44
S'73'
p152
sg46
S'5'
p153
sg48
S'337'
p154
sg50
S'300'
p155
sg52
S'692'
p156
sg54
S'185'
p157
sg56
S'1989-90'
p158
sg58
S'489'
p159
sg60
S'214'
p160
sg62
S'.487'
p161
sg64
S'2706'
p162
sg66
S'73'
p163
sba(isrc.gp1.models.Totals
Totals
p164
(dp165
g8
S'8'
p166
sg10
S'53'
p167
sg12
S'.497'
p168
sg14
S'166'
p169
sg16
S'.340'
p170
sg18
S'18'
p171
sg20
S'271'
p172
sg22
S'PG'
p173
sg24
S'.952'
p174
sg26
S'.544'
p175
sg28
S'NBA'
p176
sg30
S'42'
p177
sg32
S'195'
p178
sg34
S'23'
p179
sg36
S'62'
p180
sg38
S'45'
p181
sg40
S'26'
p182
sg42
S'CLE'
p183
sg44
S'16'
p184
sg46
S'2'
p185
sg48
S'79'
p186
sg50
S'59'
p187
sg52
S'142'
p188
sg54
S'37'
p189
sg56
S'1990-91'
p190
sg58
S'97'
p191
sg60
S'56'
p192
sg62
S'.556'
p193
sg64
S'571'
p194
sg66
S'16'
p195
sba(isrc.gp1.models.Totals
Totals
p196
(dp197
g8
S'38'
p198
sg10
S'261'
p199
sg12
S'.488'
p200
sg14
S'535'
p201
sg16
S'.387'
p202
sg18
S'101'
p203
sg20
S'1247'
p204
sg22
S'PG'
p205
sg24
S'.947'
p206
sg26
S'.545'
p207
sg28
S'NBA'
p208
sg30
S'94'
p209
sg32
S'897'
p210
sg34
S'113'
p211
sg36
S'285'
p212
sg38
S'173'
p213
sg40
S'27'
p214
sg42
S'CLE'
p215
sg44
S'72'
p216
sg46
S'12'
p217
sg48
S'337'
p218
sg50
S'270'
p219
sg52
S'636'
p220
sg54
S'135'
p221
sg56
S'1991-92'
p222
sg58
S'438'
p223
sg60
S'159'
p224
sg62
S'.530'
p225
sg64
S'2138'
p226
sg66
S'72'
p227
sba(isrc.gp1.models.Totals
Totals
p228
(dp229
g8
S'37'
p230
sg10
S'293'
p231
sg12
S'.484'
p232
sg14
S'602'
p233
sg16
S'.416'
p234
sg18
S'122'
p235
sg20
S'1365'
p236
sg22
S'PG'
p237
sg24
S'.948'
p238
sg26
S'.546'
p239
sg28
S'NBA'
p240
sg30
S'89'
p241
sg32
S'986'
p242
sg34
S'105'
p243
sg36
S'305'
p244
sg38
S'201'
p245
sg40
S'28'
p246
sg42
S'CLE'
p247
sg44
S'75'
p248
sg46
S'11'
p249
sg48
S'355'
p250
sg50
S'289'
p251
sg52
S'693'
p252
sg54
S'164'
p253
sg56
S'1992-93'
p254
sg58
S'477'
p255
sg60
S'196'
p256
sg62
S'.512'
p257
sg64
S'2380'
p258
sg66
S'74'
p259
sba(isrc.gp1.models.Totals
Totals
p260
(dp261
g8
S'39'
p262
sg10
S'297'
p263
sg12
S'.478'
p264
sg14
S'589'
p265
sg16
S'.397'
p266
sg18
S'118'
p267
sg20
S'1316'
p268
sg22
S'PG'
p269
sg24
S'.888'
p270
sg26
S'.536'
p271
sg28
S'NBA'
p272
sg30
S'103'
p273
sg32
S'1005'
p274
sg34
S'93'
p275
sg36
S'268'
p276
sg38
S'228'
p277
sg40
S'29'
p278
sg42
S'CLE'
p279
sg44
S'76'
p280
sg46
S'11'
p281
sg48
S'362'
p282
sg50
S'238'
p283
sg52
S'708'
p284
sg54
S'189'
p285
sg56
S'1993-94'
p286
sg58
S'480'
p287
sg60
S'189'
p288
sg62
S'.511'
p289
sg64
S'2386'
p290
sg66
S'73'
p291
sba(isrc.gp1.models.Totals
Totals
p292
(dp293
g8
S'25'
p294
sg10
S'253'
p295
sg12
S'.413'
p296
sg14
S'335'
p297
sg16
S'.407'
p298
sg18
S'103'
p299
sg20
S'757'
p300
sg22
S'PG'
p301
sg24
S'.914'
p302
sg26
S'.498'
p303
sg28
S'NBA'
p304
sg30
S'35'
p305
sg32
S'612'
p306
sg34
S'50'
p307
sg36
S'162'
p308
sg38
S'112'
p309
sg40
S'30'
p310
sg42
S'CLE'
p311
sg44
S'48'
p312
sg46
g47
sg48
S'150'
p313
sg50
S'148'
p314
sg52
S'359'
p315
sg54
S'87'
p316
sg56
S'1994-95'
p317
sg58
S'253'
p318
sg60
S'142'
p319
sg62
S'.418'
p320
sg64
S'1375'
p321
sg66
S'34'
p322
sba(isrc.gp1.models.Totals
Totals
p323
(dp324
g8
S'1'
p325
sg10
S'30'
p326
sg12
S'.300'
p327
sg14
S'18'
p328
sg16
S'.333'
p329
sg18
S'10'
p330
sg20
S'56'
p331
sg22
S'PG'
p332
sg24
S'1.000'
p333
sg26
S'.383'
p334
sg28
S'NBA'
p335
sg30
S'6'
p336
sg32
S'60'
p337
sg34
g121
sg36
S'10'
p338
sg38
g121
sg40
S'31'
p339
sg42
S'WSB'
p340
sg44
g121
sg46
g67
sg48
g166
sg50
S'10'
p341
sg52
S'30'
p342
sg54
g336
sg56
S'1995-96'
p343
sg58
S'18'
p344
sg60
S'10'
p345
sg62
S'.267'
p346
sg64
S'127'
p347
sg66
g325
sba(isrc.gp1.models.Totals
Totals
p348
(dp349
g8
S'36'
p350
sg10
S'283'
p351
sg12
S'.447'
p352
sg14
S'342'
p353
sg16
S'.396'
p354
sg18
S'112'
p355
sg20
S'793'
p356
sg22
S'PG'
p357
sg24
S'.906'
p358
sg26
S'.542'
p359
sg28
S'NBA'
p360
sg30
S'67'
p361
sg32
S'589'
p362
sg34
S'100'
p363
sg36
S'171'
p364
sg38
S'179'
p365
sg40
S'32'
p366
sg42
S'GSW'
p367
sg44
S'70'
p368
sg46
S'3'
p369
sg48
S'151'
p370
sg50
S'155'
p371
sg52
S'306'
p372
sg54
S'143'
p373
sg56
S'1996-97'
p374
sg58
S'263'
p375
sg60
S'161'
p376
sg62
S'.493'
p377
sg64
S'1876'
p378
sg66
S'49'
p379
sba(isrc.gp1.models.Totals
Totals
p380
(dp381
g8
S'24'
p382
sg10
S'155'
p383
sg12
S'.431'
p384
sg14
S'297'
p385
sg16
S'.335'
p386
sg18
S'52'
p387
sg20
S'597'
p388
sg22
S'PG'
p389
sg24
S'.845'
p390
sg26
S'.480'
p391
sg28
S'NBA'
p392
sg30
S'53'
p393
sg32
S'531'
p394
sg34
S'92'
p395
sg36
S'103'
p396
sg38
S'129'
p397
sg40
S'33'
p398
sg42
S'ORL'
p399
sg44
S'63'
p400
sg46
g153
sg48
S'177'
p401
sg50
S'87'
p402
sg52
S'376'
p403
sg54
S'105'
p404
sg56
S'1997-98'
p405
sg58
S'229'
p406
sg60
S'162'
p407
sg62
S'.471'
p408
sg64
S'1430'
p409
sg66
S'33'
p410
sbasS'_college'
p411
S'Georgia Institute of Technology'
p412
sS'_toYear'
p413
S'1998'
p414
sS'_height'
p415
S'6-0'
p416
sS'_active'
p417
I00
sS'_shootingHand'
p418
VRight
p419
sS'_name'
p420
S'Mark Price'
p421
sS'_per100Possessions'
p422
(lp423
(isrc.gp1.models.Per100Possession
Per100Possession
p424
(dp425
g8
S'1.3'
p426
sg10
S'2.7'
p427
sg12
S'.408'
p428
sS'_offensiveRating'
p429
S'100'
p430
sg14
S'7.9'
p431
sg16
S'.329'
p432
sg18
S'0.9'
p433
sg20
S'18.1'
p434
sg22
S'PG'
p435
sS'_defensiveRating'
p436
S'109'
p437
sg24
S'.833'
p438
sg28
S'NBA'
p439
sg30
S'1.7'
p440
sg32
S'16.5'
p441
sg34
S'2.9'
p442
sg36
S'4.4'
p443
sg38
S'4.6'
p444
sg40
S'22'
p445
sg42
S'CLE'
p446
sg44
S'67'
p447
sg46
S'0.2'
p448
sg48
S'5.8'
p449
sg50
S'3.7'
p450
sg52
S'13.8'
p451
sg54
S'3.3'
p452
sg56
S'1986-87'
p453
sg58
S'6.7'
p454
sg60
S'4.1'
p455
sg62
S'.424'
p456
sg64
S'1217'
p457
sg66
g67
sba(isrc.gp1.models.Per100Possession
Per100Possession
p458
(dp459
g8
S'1.0'
p460
sg10
S'2.8'
p461
sg12
S'.506'
p462
sg429
S'116'
p463
sg14
S'9.0'
p464
sg16
S'.486'
p465
sg18
S'1.4'
p466
sg20
S'24.0'
p467
sg22
S'PG'
p468
sg436
S'110'
p469
sg24
S'.877'
p470
sg28
S'NBA'
p471
sg30
S'1.9'
p472
sg32
S'18.3'
p473
sg34
S'2.2'
p474
sg36
S'4.7'
p475
sg38
S'3.4'
p476
sg40
S'23'
p477
sg42
S'CLE'
p478
sg44
S'80'
p479
sg46
S'0.2'
p480
sg48
S'7.9'
p481
sg50
S'4.1'
p482
sg52
S'15.5'
p483
sg54
S'2.4'
p484
sg56
S'1987-88'
p485
sg58
S'9.3'
p486
sg60
S'3.5'
p487
sg62
S'.510'
p488
sg64
S'2626'
p489
sg66
S'79'
p490
sba(isrc.gp1.models.Per100Possession
Per100Possession
p491
(dp492
g8
S'0.9'
p493
sg10
S'3.8'
p494
sg12
S'.526'
p495
sg429
S'121'
p496
sg14
S'11.3'
p497
sg16
S'.441'
p498
sg18
S'1.7'
p499
sg20
S'25.4'
p500
sg22
S'PG'
p501
sg436
S'106'
p502
sg24
S'.901'
p503
sg28
S'NBA'
p504
sg30
S'2.1'
p505
sg32
S'18.1'
p506
sg34
S'1.8'
p507
sg36
S'5.2'
p508
sg38
S'4.1'
p509
sg40
S'24'
p510
sg42
S'CLE'
p511
sg44
S'75'
p512
sg46
S'0.1'
p513
sg48
S'7.8'
p514
sg50
S'4.7'
p515
sg52
S'14.3'
p516
sg54
S'3.2'
p517
sg56
S'1988-89'
p518
sg58
S'9.5'
p519
sg60
S'3.8'
p520
sg62
S'.548'
p521
sg64
S'2728'
p522
sg66
S'74'
p523
sba(isrc.gp1.models.Per100Possession
Per100Possession
p524
(dp525
g8
S'1.2'
p526
sg10
S'7.0'
p527
sg12
S'.459'
p528
sg429
S'119'
p529
sg14
S'12.4'
p530
sg16
S'.406'
p531
sg18
S'2.8'
p532
sg20
S'26.7'
p533
sg22
S'PG'
p534
sg436
S'109'
p535
sg24
S'.888'
p536
sg28
S'NBA'
p537
sg30
S'2.1'
p538
sg32
S'19.9'
p539
sg34
S'1.7'
p540
sg36
S'6.3'
p541
sg38
S'4.7'
p542
sg40
S'25'
p543
sg42
S'CLE'
p544
sg44
S'73'
p545
sg46
S'0.1'
p546
sg48
S'6.3'
p547
sg50
S'5.6'
p548
sg52
S'12.9'
p549
sg54
S'3.5'
p550
sg56
S'1989-90'
p551
sg58
S'9.1'
p552
sg60
S'4.0'
p553
sg62
S'.487'
p554
sg64
S'2706'
p555
sg66
S'73'
p556
sba(isrc.gp1.models.Per100Possession
Per100Possession
p557
(dp558
g8
S'0.7'
p559
sg10
S'4.7'
p560
sg12
S'.497'
p561
sg429
S'116'
p562
sg14
S'14.7'
p563
sg16
S'.340'
p564
sg18
S'1.6'
p565
sg20
S'23.9'
p566
sg22
S'PG'
p567
sg436
S'107'
p568
sg24
S'.952'
p569
sg28
S'NBA'
p570
sg30
S'3.7'
p571
sg32
S'17.2'
p572
sg34
S'2.0'
p573
sg36
S'5.5'
p574
sg38
S'4.0'
p575
sg40
S'26'
p576
sg42
S'CLE'
p577
sg44
S'16'
p578
sg46
S'0.2'
p579
sg48
S'7.0'
p580
sg50
S'5.2'
p581
sg52
S'12.5'
p582
sg54
S'3.3'
p583
sg56
S'1990-91'
p584
sg58
S'8.6'
p585
sg60
S'4.9'
p586
sg62
S'.556'
p587
sg64
S'571'
p588
sg66
S'16'
p589
sba(isrc.gp1.models.Per100Possession
Per100Possession
p590
(dp591
g8
S'0.9'
p592
sg10
S'6.2'
p593
sg12
S'.488'
p594
sg429
S'123'
p595
sg14
S'12.6'
p596
sg16
S'.387'
p597
sg18
S'2.4'
p598
sg20
S'29.5'
p599
sg22
S'PG'
p600
sg436
S'110'
p601
sg24
S'.947'
p602
sg28
S'NBA'
p603
sg30
S'2.2'
p604
sg32
S'21.2'
p605
sg34
S'2.7'
p606
sg36
S'6.7'
p607
sg38
S'4.1'
p608
sg40
S'27'
p609
sg42
S'CLE'
p610
sg44
S'72'
p611
sg46
S'0.3'
p612
sg48
S'8.0'
p613
sg50
S'6.4'
p614
sg52
S'15.0'
p615
sg54
S'3.2'
p616
sg56
S'1991-92'
p617
sg58
S'10.4'
p618
sg60
S'3.8'
p619
sg62
S'.530'
p620
sg64
S'2138'
p621
sg66
S'72'
p622
sba(isrc.gp1.models.Per100Possession
Per100Possession
p623
(dp624
g8
S'0.8'
p625
sg10
S'6.2'
p626
sg12
S'.484'
p627
sg429
S'120'
p628
sg14
S'12.8'
p629
sg16
S'.416'
p630
sg18
S'2.6'
p631
sg20
S'29.0'
p632
sg22
S'PG'
p633
sg436
S'109'
p634
sg24
S'.948'
p635
sg28
S'NBA'
p636
sg30
S'1.9'
p637
sg32
S'21.0'
p638
sg34
S'2.2'
p639
sg36
S'6.5'
p640
sg38
S'4.3'
p641
sg40
S'28'
p642
sg42
S'CLE'
p643
sg44
S'75'
p644
sg46
S'0.2'
p645
sg48
S'7.6'
p646
sg50
S'6.1'
p647
sg52
S'14.7'
p648
sg54
S'3.5'
p649
sg56
S'1992-93'
p650
sg58
S'10.1'
p651
sg60
S'4.2'
p652
sg62
S'.512'
p653
sg64
S'2380'
p654
sg66
S'74'
p655
sba(isrc.gp1.models.Per100Possession
Per100Possession
p656
(dp657
g8
S'0.9'
p658
sg10
S'6.5'
p659
sg12
S'.478'
p660
sg429
S'118'
p661
sg14
S'12.9'
p662
sg16
S'.397'
p663
sg18
S'2.6'
p664
sg20
S'28.9'
p665
sg22
S'PG'
p666
sg436
S'107'
p667
sg24
S'.888'
p668
sg28
S'NBA'
p669
sg30
S'2.3'
p670
sg32
S'22.1'
p671
sg34
S'2.0'
p672
sg36
S'5.9'
p673
sg38
S'5.0'
p674
sg40
S'29'
p675
sg42
S'CLE'
p676
sg44
S'76'
p677
sg46
S'0.2'
p678
sg48
S'7.9'
p679
sg50
S'5.2'
p680
sg52
S'15.5'
p681
sg54
S'4.1'
p682
sg56
S'1993-94'
p683
sg58
S'10.5'
p684
sg60
S'4.1'
p685
sg62
S'.511'
p686
sg64
S'2386'
p687
sg66
S'73'
p688
sba(isrc.gp1.models.Per100Possession
Per100Possession
p689
(dp690
g8
S'1.0'
p691
sg10
S'10.4'
p692
sg12
S'.413'
p693
sg429
S'111'
p694
sg14
S'13.8'
p695
sg16
S'.407'
p696
sg18
S'4.2'
p697
sg20
S'31.2'
p698
sg22
S'PG'
p699
sg436
S'108'
p700
sg24
S'.914'
p701
sg28
S'NBA'
p702
sg30
S'1.4'
p703
sg32
S'25.2'
p704
sg34
S'2.1'
p705
sg36
S'6.7'
p706
sg38
S'4.6'
p707
sg40
S'30'
p708
sg42
S'CLE'
p709
sg44
S'48'
p710
sg46
S'0.2'
p711
sg48
S'6.2'
p712
sg50
S'6.1'
p713
sg52
S'14.8'
p714
sg54
S'3.6'
p715
sg56
S'1994-95'
p716
sg58
S'10.4'
p717
sg60
S'5.8'
p718
sg62
S'.418'
p719
sg64
S'1375'
p720
sg66
S'34'
p721
sba(isrc.gp1.models.Per100Possession
Per100Possession
p722
(dp723
g8
S'0.4'
p724
sg10
S'12.1'
p725
sg12
S'.300'
p726
sg429
S'92'
p727
sg14
S'7.3'
p728
sg16
S'.333'
p729
sg18
S'4.0'
p730
sg20
S'22.6'
p731
sg22
S'PG'
p732
sg436
S'110'
p733
sg24
S'1.000'
p734
sg28
S'NBA'
p735
sg30
S'2.4'
p736
sg32
S'24.2'
p737
sg34
S'2.8'
p738
sg36
S'4.0'
p739
sg38
S'2.8'
p740
sg40
S'31'
p741
sg42
S'WSB'
p742
sg44
g121
sg46
S'0.0'
p743
sg48
S'3.2'
p744
sg50
S'4.0'
p745
sg52
S'12.1'
p746
sg54
S'2.4'
p747
sg56
S'1995-96'
p748
sg58
S'7.3'
p749
sg60
S'4.0'
p750
sg62
S'.267'
p751
sg64
S'127'
p752
sg66
g325
sba(isrc.gp1.models.Per100Possession
Per100Possession
p753
(dp754
g8
S'1.0'
p755
sg10
S'7.9'
p756
sg12
S'.447'
p757
sg429
S'114'
p758
sg14
S'9.5'
p759
sg16
S'.396'
p760
sg18
S'3.1'
p761
sg20
S'22.1'
p762
sg22
S'PG'
p763
sg436
S'114'
p764
sg24
S'.906'
p765
sg28
S'NBA'
p766
sg30
S'1.9'
p767
sg32
S'16.4'
p768
sg34
S'2.8'
p769
sg36
S'4.8'
p770
sg38
S'5.0'
p771
sg40
S'32'
p772
sg42
S'GSW'
p773
sg44
S'70'
p774
sg46
S'0.1'
p775
sg48
S'4.2'
p776
sg50
S'4.3'
p777
sg52
S'8.5'
p778
sg54
S'4.0'
p779
sg56
S'1996-97'
p780
sg58
S'7.3'
p781
sg60
S'4.5'
p782
sg62
S'.493'
p783
sg64
S'1876'
p784
sg66
S'49'
p785
sba(isrc.gp1.models.Per100Possession
Per100Possession
p786
(dp787
g8
S'0.9'
p788
sg10
S'6.0'
p789
sg12
S'.431'
p790
sg429
S'99'
p791
sg14
S'11.4'
p792
sg16
S'.335'
p793
sg18
S'2.0'
p794
sg20
S'23.0'
p795
sg22
S'PG'
p796
sg436
S'106'
p797
sg24
S'.845'
p798
sg28
S'NBA'
p799
sg30
S'2.0'
p800
sg32
S'20.5'
p801
sg34
S'3.5'
p802
sg36
S'4.0'
p803
sg38
S'5.0'
p804
sg40
S'33'
p805
sg42
S'ORL'
p806
sg44
S'63'
p807
sg46
S'0.2'
p808
sg48
S'6.8'
p809
sg50
S'3.4'
p810
sg52
S'14.5'
p811
sg54
S'4.0'
p812
sg56
S'1997-98'
p813
sg58
S'8.8'
p814
sg60
S'6.2'
p815
sg62
S'.471'
p816
sg64
S'1430'
p817
sg66
S'33'
p818
sbasS'_advanced'
p819
(lp820
(isrc.gp1.models.Advanced
Advanced
p821
(dp822
S'_offensiveReboundPercentage'
p823
S'2.9'
p824
sS'_turnOverPercentage'
p825
S'18.1'
p826
sS'_winSharesPer48Minutes'
p827
S'.043'
p828
sS'_stealPercentage'
p829
S'1.7'
p830
sS'_usagePercentage'
p831
S'19.1'
p832
sS'_totalReboundsPercentage'
p833
S'5.2'
p834
sS'_defensiveBoxPlusMinus'
p835
S'-1.6'
p836
sg22
S'PG'
p837
sS'_valueOverReplacementPlayer'
p838
S'-0.6'
p839
sS'_trueShootingPercentage'
p840
S'.489'
p841
sS'_defensiveReboundPercentage'
p842
S'7.4'
p843
sS'_freeThrowsAttempRate'
p844
S'.269'
p845
sS'_threePointsAttempRate'
p846
S'.165'
p847
sg28
S'NBA'
p848
sS'_offensiveBoxPlusMinues'
p849
S'-2.2'
p850
sS'_assistPercentage'
p851
S'23.5'
p852
sS'_defensiveWinShares'
p853
S'1.1'
p854
sg40
S'22'
p855
sg42
S'CLE'
p856
sg44
S'67'
p857
sS'_blockPercentage'
p858
S'0.2'
p859
sS'_playerEfficiencyRating'
p860
S'11.3'
p861
sS'_offensiveWinShares'
p862
S'0.0'
p863
sg64
S'1217'
p864
sS'_boxPlusMinus'
p865
S'-3.8'
p866
sg56
S'1986-87'
p867
sS'_winShares'
p868
S'1.1'
p869
sba(isrc.gp1.models.Advanced
Advanced
p870
(dp871
g823
S'2.5'
p872
sg825
S'14.5'
p873
sg827
S'.143'
p874
sg829
S'1.9'
p875
sg831
S'20.6'
p876
sg833
S'4.0'
p877
sg835
S'-1.7'
p878
sg22
S'PG'
p879
sg838
S'2.1'
p880
sg840
S'.589'
p881
sg842
S'5.5'
p882
sg844
S'.259'
p883
sg846
S'.152'
p884
sg28
S'NBA'
p885
sg849
S'2.9'
p886
sg851
S'28.1'
p887
sg853
S'2.2'
p888
sg40
S'23'
p889
sg42
S'CLE'
p890
sg44
S'80'
p891
sg858
S'0.3'
p892
sg860
S'17.6'
p893
sg862
S'5.6'
p894
sg64
S'2626'
p895
sg865
S'1.2'
p896
sg56
S'1987-88'
p897
sg868
S'7.8'
p898
sba(isrc.gp1.models.Advanced
Advanced
p899
(dp900
g823
S'2.1'
p901
sg825
S'15.7'
p902
sg827
S'.199'
p903
sg829
S'2.1'
p904
sg831
S'21.0'
p905
sg833
S'4.7'
p906
sg835
S'-1.1'
p907
sg22
S'PG'
p908
sg838
S'3.8'
p909
sg840
S'.623'
p910
sg842
S'7.0'
p911
sg844
S'.290'
p912
sg846
S'.210'
p913
sg28
S'NBA'
p914
sg849
S'4.6'
p915
sg851
S'33.8'
p916
sg853
S'3.3'
p917
sg40
S'24'
p918
sg42
S'CLE'
p919
sg44
S'75'
p920
sg858
S'0.1'
p921
sg860
S'20.6'
p922
sg862
S'8.0'
p923
sg64
S'2728'
p924
sg865
S'3.5'
p925
sg56
S'1988-89'
p926
sg868
S'11.3'
p927
sba(isrc.gp1.models.Advanced
Advanced
p928
(dp929
g823
S'2.7'
p930
sg825
S'15.0'
p931
sg827
S'.179'
p932
sg829
S'2.1'
p933
sg831
S'22.8'
p934
sg833
S'5.2'
p935
sg835
S'-1.6'
p936
sg22
S'PG'
p937
sg838
S'4.0'
p938
sg840
S'.589'
p939
sg842
S'7.7'
p940
sg844
S'.317'
p941
sg846
S'.351'
p942
sg28
S'NBA'
p943
sg849
S'5.5'
p944
sg851
S'39.2'
p945
sg853
S'2.5'
p946
sg40
S'25'
p947
sg42
S'CLE'
p948
sg44
S'73'
p949
sg858
S'0.1'
p950
sg860
S'21.1'
p951
sg862
S'7.6'
p952
sg64
S'2706'
p953
sg865
S'3.9'
p954
sg56
S'1989-90'
p955
sg868
S'10.1'
p956
sba(isrc.gp1.models.Advanced
Advanced
p957
(dp958
g823
S'1.6'
p959
sg825
S'20.1'
p960
sg827
S'.167'
p961
sg829
S'3.7'
p962
sg831
S'21.3'
p963
sg833
S'4.6'
p964
sg835
S'-1.6'
p965
sg22
S'PG'
p966
sg838
S'0.6'
p967
sg840
S'.610'
p968
sg842
S'7.5'
p969
sg844
S'.318'
p970
sg846
S'.272'
p971
sg28
S'NBA'
p972
sg849
S'3.9'
p973
sg851
S'44.6'
p974
sg853
S'0.6'
p975
sg40
S'26'
p976
sg42
S'CLE'
p977
sg44
S'16'
p978
sg858
S'0.2'
p979
sg860
S'21.7'
p980
sg862
S'1.4'
p981
sg64
S'571'
p982
sg865
S'2.4'
p983
sg56
S'1990-91'
p984
sg868
S'2.0'
p985
sba(isrc.gp1.models.Advanced
Advanced
p986
(dp987
g823
S'2.1'
p988
sg825
S'13.5'
p989
sg827
S'.205'
p990
sg829
S'2.2'
p991
sg831
S'24.1'
p992
sg833
S'4.5'
p993
sg835
S'-2.6'
p994
sg22
S'PG'
p995
sg838
S'3.1'
p996
sg840
S'.610'
p997
sg842
S'6.8'
p998
sg844
S'.318'
p999
sg846
S'.291'
p1000
sg28
S'NBA'
p1001
sg849
S'6.3'
p1002
sg851
S'37.9'
p1003
sg853
S'1.6'
p1004
sg40
S'27'
p1005
sg42
S'CLE'
p1006
sg44
S'72'
p1007
sg858
S'0.3'
p1008
sg860
S'22.7'
p1009
sg862
S'7.5'
p1010
sg64
S'2138'
p1011
sg865
S'3.8'
p1012
sg56
S'1991-92'
p1013
sg868
S'9.1'
p1014
sba(isrc.gp1.models.Advanced
Advanced
p1015
(dp1016
g823
S'1.9'
p1017
sg825
S'14.9'
p1018
sg827
S'.197'
p1019
sg829
S'1.9'
p1020
sg831
S'24.5'
p1021
sg833
S'4.8'
p1022
sg835
S'-2.3'
p1023
sg22
S'PG'
p1024
sg838
S'3.1'
p1025
sg840
S'.609'
p1026
sg842
S'7.6'
p1027
sg844
S'.309'
p1028
sg846
S'.297'
p1029
sg28
S'NBA'
p1030
sg849
S'5.5'
p1031
sg851
S'38.1'
p1032
sg853
S'2.3'
p1033
sg40
S'28'
p1034
sg42
S'CLE'
p1035
sg44
S'75'
p1036
sg858
S'0.3'
p1037
sg860
S'22.1'
p1038
sg862
S'7.4'
p1039
sg64
S'2380'
p1040
sg865
S'3.2'
p1041
sg56
S'1992-93'
p1042
sg868
S'9.8'
p1043
sba(isrc.gp1.models.Advanced
Advanced
p1044
(dp1045
g823
S'1.9'
p1046
sg825
S'14.4'
p1047
sg827
S'.201'
p1048
sg829
S'2.3'
p1049
sg831
S'24.6'
p1050
sg833
S'5.6'
p1051
sg835
S'-1.7'
p1052
sg22
S'PG'
p1053
sg838
S'3.9'
p1054
sg840
S'.586'
p1055
sg842
S'9.2'
p1056
sg844
S'.267'
p1057
sg846
S'.296'
p1058
sg28
S'NBA'
p1059
sg849
S'6.2'
p1060
sg851
S'42.0'
p1061
sg853
S'2.4'
p1062
sg40
S'29'
p1063
sg42
S'CLE'
p1064
sg44
S'76'
p1065
sg858
S'0.3'
p1066
sg860
S'22.7'
p1067
sg862
S'7.6'
p1068
sg64
S'2386'
p1069
sg865
S'4.6'
p1070
sg56
S'1993-94'
p1071
sg868
S'10.0'
p1072
sba(isrc.gp1.models.Advanced
Advanced
p1073
(dp1074
g823
S'2.2'
p1075
sg825
S'17.2'
p1076
sg827
S'.147'
p1077
sg829
S'1.4'
p1078
sg831
S'28.8'
p1079
sg833
S'5.1'
p1080
sg835
S'-2.7'
p1081
sg22
S'PG'
p1082
sg838
S'1.6'
p1083
sg840
S'.554'
p1084
sg842
S'8.2'
p1085
sg844
S'.265'
p1086
sg846
S'.413'
p1087
sg28
S'NBA'
p1088
sg849
S'5.4'
p1089
sg851
S'48.0'
p1090
sg853
S'1.4'
p1091
sg40
S'30'
p1092
sg42
S'CLE'
p1093
sg44
S'48'
p1094
sg858
S'0.2'
p1095
sg860
S'20.6'
p1096
sg862
S'2.8'
p1097
sg64
S'1375'
p1098
sg865
S'2.7'
p1099
sg56
S'1994-95'
p1100
sg868
S'4.2'
p1101
sba(isrc.gp1.models.Advanced
Advanced
p1102
(dp1103
g823
S'0.9'
p1104
sg825
S'13.4'
p1105
sg827
S'-0.011'
p1106
sg829
S'2.4'
p1107
sg831
S'26.2'
p1108
sg833
S'3.2'
p1109
sg835
S'-3.7'
p1110
sg22
S'PG'
p1111
sg838
S'-0.1'
p1112
sg840
S'.435'
p1113
sg842
S'5.5'
p1114
sg844
S'.167'
p1115
sg846
S'.500'
p1116
sg28
S'NBA'
p1117
sg849
S'-2.0'
p1118
sg851
S'21.3'
p1119
sg853
S'0.1'
p1120
sg40
S'31'
p1121
sg42
S'WSB'
p1122
sg44
g121
sg858
S'0.0'
p1123
sg860
S'10.3'
p1124
sg862
S'-0.1'
p1125
sg64
S'127'
p1126
sg865
S'-5.7'
p1127
sg56
S'1995-96'
p1128
sg868
S'0.0'
p1129
sba(isrc.gp1.models.Advanced
Advanced
p1130
(dp1131
g823
S'2.3'
p1132
sg825
S'19.5'
p1133
sg827
S'.102'
p1134
sg829
S'1.9'
p1135
sg831
S'19.6'
p1136
sg833
S'5.7'
p1137
sg835
S'-2.8'
p1138
sg22
S'PG'
p1139
sg838
S'0.9'
p1140
sg840
S'.597'
p1141
sg842
S'9.1'
p1142
sg844
S'.290'
p1143
sg846
S'.480'
p1144
sg28
S'NBA'
p1145
sg849
S'2.7'
p1146
sg851
S'29.8'
p1147
sg853
S'0.3'
p1148
sg40
S'32'
p1149
sg42
S'GSW'
p1150
sg44
S'70'
p1151
sg858
S'0.1'
p1152
sg860
S'16.5'
p1153
sg862
S'3.7'
p1154
sg64
S'1876'
p1155
sg865
S'-0.1'
p1156
sg56
S'1996-97'
p1157
sg868
S'4.0'
p1158
sba(isrc.gp1.models.Advanced
Advanced
p1159
(dp1160
g823
S'1.9'
p1161
sg825
S'21.9'
p1162
sg827
S'.058'
p1163
sg829
S'2.0'
p1164
sg831
S'23.7'
p1165
sg833
S'5.3'
p1166
sg835
S'-2.2'
p1167
sg22
S'PG'
p1168
sg838
S'0.1'
p1169
sg840
S'.518'
p1170
sg842
S'8.8'
p1171
sg844
S'.194'
p1172
sg846
S'.292'
p1173
sg28
S'NBA'
p1174
sg849
S'0.5'
p1175
sg851
S'38.6'
p1176
sg853
S'1.3'
p1177
sg40
S'33'
p1178
sg42
S'ORL'
p1179
sg44
S'63'
p1180
sg858
S'0.3'
p1181
sg860
S'14.9'
p1182
sg862
S'0.5'
p1183
sg64
S'1430'
p1184
sg865
S'-1.6'
p1185
sg56
S'1997-98'
p1186
sg868
S'1.7'
p1187
sbasS'_per36Minutes'
p1188
(lp1189
(isrc.gp1.models.Per36Minutes
Per36Minutes
p1190
(dp1191
g8
S'1.0'
p1192
sg10
S'2.1'
p1193
sg12
S'.408'
p1194
sg14
S'6.0'
p1195
sg16
S'.329'
p1196
sg18
S'0.7'
p1197
sg20
S'13.7'
p1198
sg22
S'PG'
p1199
sg24
S'.833'
p1200
sg28
S'NBA'
p1201
sg30
S'1.3'
p1202
sg32
S'12.5'
p1203
sg34
S'2.2'
p1204
sg36
S'3.4'
p1205
sg38
S'3.5'
p1206
sg40
S'22'
p1207
sg42
S'CLE'
p1208
sg44
S'67'
p1209
sg46
S'0.1'
p1210
sg48
S'4.4'
p1211
sg50
S'2.8'
p1212
sg52
S'10.5'
p1213
sg54
S'2.5'
p1214
sg56
S'1986-87'
p1215
sg58
S'5.1'
p1216
sg60
S'3.1'
p1217
sg62
S'.424'
p1218
sg64
S'1217'
p1219
sg66
g67
sba(isrc.gp1.models.Per36Minutes
Per36Minutes
p1220
(dp1221
g8
S'0.7'
p1222
sg10
S'2.0'
p1223
sg12
S'.506'
p1224
sg14
S'6.6'
p1225
sg16
S'.486'
p1226
sg18
S'1.0'
p1227
sg20
S'17.5'
p1228
sg22
S'PG'
p1229
sg24
S'.877'
p1230
sg28
S'NBA'
p1231
sg30
S'1.4'
p1232
sg32
S'13.4'
p1233
sg34
S'1.6'
p1234
sg36
S'3.5'
p1235
sg38
S'2.5'
p1236
sg40
S'23'
p1237
sg42
S'CLE'
p1238
sg44
S'80'
p1239
sg46
S'0.2'
p1240
sg48
S'5.8'
p1241
sg50
S'3.0'
p1242
sg52
S'11.3'
p1243
sg54
S'1.7'
p1244
sg56
S'1987-88'
p1245
sg58
S'6.8'
p1246
sg60
S'2.5'
p1247
sg62
S'.510'
p1248
sg64
S'2626'
p1249
sg66
S'79'
p1250
sba(isrc.gp1.models.Per36Minutes
Per36Minutes
p1251
(dp1252
g8
S'0.6'
p1253
sg10
S'2.8'
p1254
sg12
S'.526'
p1255
sg14
S'8.3'
p1256
sg16
S'.441'
p1257
sg18
S'1.2'
p1258
sg20
S'18.7'
p1259
sg22
S'PG'
p1260
sg24
S'.901'
p1261
sg28
S'NBA'
p1262
sg30
S'1.5'
p1263
sg32
S'13.3'
p1264
sg34
S'1.3'
p1265
sg36
S'3.9'
p1266
sg38
S'3.0'
p1267
sg40
S'24'
p1268
sg42
S'CLE'
p1269
sg44
S'75'
p1270
sg46
S'0.1'
p1271
sg48
S'5.8'
p1272
sg50
S'3.5'
p1273
sg52
S'10.5'
p1274
sg54
S'2.3'
p1275
sg56
S'1988-89'
p1276
sg58
S'7.0'
p1277
sg60
S'2.8'
p1278
sg62
S'.548'
p1279
sg64
S'2728'
p1280
sg66
S'74'
p1281
sba(isrc.gp1.models.Per36Minutes
Per36Minutes
p1282
(dp1283
g8
S'0.9'
p1284
sg10
S'5.0'
p1285
sg12
S'.459'
p1286
sg14
S'8.9'
p1287
sg16
S'.406'
p1288
sg18
S'2.0'
p1289
sg20
S'19.0'
p1290
sg22
S'PG'
p1291
sg24
S'.888'
p1292
sg28
S'NBA'
p1293
sg30
S'1.5'
p1294
sg32
S'14.2'
p1295
sg34
S'1.2'
p1296
sg36
S'4.5'
p1297
sg38
S'3.3'
p1298
sg40
S'25'
p1299
sg42
S'CLE'
p1300
sg44
S'73'
p1301
sg46
S'0.1'
p1302
sg48
S'4.5'
p1303
sg50
S'4.0'
p1304
sg52
S'9.2'
p1305
sg54
S'2.5'
p1306
sg56
S'1989-90'
p1307
sg58
S'6.5'
p1308
sg60
S'2.8'
p1309
sg62
S'.487'
p1310
sg64
S'2706'
p1311
sg66
S'73'
p1312
sba(isrc.gp1.models.Per36Minutes
Per36Minutes
p1313
(dp1314
g8
S'0.5'
p1315
sg10
S'3.3'
p1316
sg12
S'.497'
p1317
sg14
S'10.5'
p1318
sg16
S'.340'
p1319
sg18
S'1.1'
p1320
sg20
S'17.1'
p1321
sg22
S'PG'
p1322
sg24
S'.952'
p1323
sg28
S'NBA'
p1324
sg30
S'2.6'
p1325
sg32
S'12.3'
p1326
sg34
S'1.5'
p1327
sg36
S'3.9'
p1328
sg38
S'2.8'
p1329
sg40
S'26'
p1330
sg42
S'CLE'
p1331
sg44
S'16'
p1332
sg46
S'0.1'
p1333
sg48
S'5.0'
p1334
sg50
S'3.7'
p1335
sg52
S'9.0'
p1336
sg54
S'2.3'
p1337
sg56
S'1990-91'
p1338
sg58
S'6.1'
p1339
sg60
S'3.5'
p1340
sg62
S'.556'
p1341
sg64
S'571'
p1342
sg66
S'16'
p1343
sba(isrc.gp1.models.Per36Minutes
Per36Minutes
p1344
(dp1345
g8
S'0.6'
p1346
sg10
S'4.4'
p1347
sg12
S'.488'
p1348
sg14
S'9.0'
p1349
sg16
S'.387'
p1350
sg18
S'1.7'
p1351
sg20
S'21.0'
p1352
sg22
S'PG'
p1353
sg24
S'.947'
p1354
sg28
S'NBA'
p1355
sg30
S'1.6'
p1356
sg32
S'15.1'
p1357
sg34
S'1.9'
p1358
sg36
S'4.8'
p1359
sg38
S'2.9'
p1360
sg40
S'27'
p1361
sg42
S'CLE'
p1362
sg44
S'72'
p1363
sg46
S'0.2'
p1364
sg48
S'5.7'
p1365
sg50
S'4.5'
p1366
sg52
S'10.7'
p1367
sg54
S'2.3'
p1368
sg56
S'1991-92'
p1369
sg58
S'7.4'
p1370
sg60
S'2.7'
p1371
sg62
S'.530'
p1372
sg64
S'2138'
p1373
sg66
S'72'
p1374
sba(isrc.gp1.models.Per36Minutes
Per36Minutes
p1375
(dp1376
g8
S'0.6'
p1377
sg10
S'4.4'
p1378
sg12
S'.484'
p1379
sg14
S'9.1'
p1380
sg16
S'.416'
p1381
sg18
S'1.8'
p1382
sg20
S'20.6'
p1383
sg22
S'PG'
p1384
sg24
S'.948'
p1385
sg28
S'NBA'
p1386
sg30
S'1.3'
p1387
sg32
S'14.9'
p1388
sg34
S'1.6'
p1389
sg36
S'4.6'
p1390
sg38
S'3.0'
p1391
sg40
S'28'
p1392
sg42
S'CLE'
p1393
sg44
S'75'
p1394
sg46
S'0.2'
p1395
sg48
S'5.4'
p1396
sg50
S'4.4'
p1397
sg52
S'10.5'
p1398
sg54
S'2.5'
p1399
sg56
S'1992-93'
p1400
sg58
S'7.2'
p1401
sg60
S'3.0'
p1402
sg62
S'.512'
p1403
sg64
S'2380'
p1404
sg66
S'74'
p1405
sba(isrc.gp1.models.Per36Minutes
Per36Minutes
p1406
(dp1407
g8
S'0.6'
p1408
sg10
S'4.5'
p1409
sg12
S'.478'
p1410
sg14
S'8.9'
p1411
sg16
S'.397'
p1412
sg18
S'1.8'
p1413
sg20
S'19.9'
p1414
sg22
S'PG'
p1415
sg24
S'.888'
p1416
sg28
S'NBA'
p1417
sg30
S'1.6'
p1418
sg32
S'15.2'
p1419
sg34
S'1.4'
p1420
sg36
S'4.0'
p1421
sg38
S'3.4'
p1422
sg40
S'29'
p1423
sg42
S'CLE'
p1424
sg44
S'76'
p1425
sg46
S'0.2'
p1426
sg48
S'5.5'
p1427
sg50
S'3.6'
p1428
sg52
S'10.7'
p1429
sg54
S'2.9'
p1430
sg56
S'1993-94'
p1431
sg58
S'7.2'
p1432
sg60
S'2.9'
p1433
sg62
S'.511'
p1434
sg64
S'2386'
p1435
sg66
S'73'
p1436
sba(isrc.gp1.models.Per36Minutes
Per36Minutes
p1437
(dp1438
g8
S'0.7'
p1439
sg10
S'6.6'
p1440
sg12
S'.413'
p1441
sg14
S'8.8'
p1442
sg16
S'.407'
p1443
sg18
S'2.7'
p1444
sg20
S'19.8'
p1445
sg22
S'PG'
p1446
sg24
S'.914'
p1447
sg28
S'NBA'
p1448
sg30
S'0.9'
p1449
sg32
S'16.0'
p1450
sg34
S'1.3'
p1451
sg36
S'4.2'
p1452
sg38
S'2.9'
p1453
sg40
S'30'
p1454
sg42
S'CLE'
p1455
sg44
S'48'
p1456
sg46
S'0.1'
p1457
sg48
S'3.9'
p1458
sg50
S'3.9'
p1459
sg52
S'9.4'
p1460
sg54
S'2.3'
p1461
sg56
S'1994-95'
p1462
sg58
S'6.6'
p1463
sg60
S'3.7'
p1464
sg62
S'.418'
p1465
sg64
S'1375'
p1466
sg66
S'34'
p1467
sba(isrc.gp1.models.Per36Minutes
Per36Minutes
p1468
(dp1469
g8
S'0.3'
p1470
sg10
S'8.5'
p1471
sg12
S'.300'
p1472
sg14
S'5.1'
p1473
sg16
S'.333'
p1474
sg18
S'2.8'
p1475
sg20
S'15.9'
p1476
sg22
S'PG'
p1477
sg24
S'1.000'
p1478
sg28
S'NBA'
p1479
sg30
S'1.7'
p1480
sg32
S'17.0'
p1481
sg34
S'2.0'
p1482
sg36
S'2.8'
p1483
sg38
S'2.0'
p1484
sg40
S'31'
p1485
sg42
S'WSB'
p1486
sg44
g121
sg46
S'0.0'
p1487
sg48
S'2.3'
p1488
sg50
S'2.8'
p1489
sg52
S'8.5'
p1490
sg54
S'1.7'
p1491
sg56
S'1995-96'
p1492
sg58
S'5.1'
p1493
sg60
S'2.8'
p1494
sg62
S'.267'
p1495
sg64
S'127'
p1496
sg66
g325
sba(isrc.gp1.models.Per36Minutes
Per36Minutes
p1497
(dp1498
g8
S'0.7'
p1499
sg10
S'5.4'
p1500
sg12
S'.447'
p1501
sg14
S'6.6'
p1502
sg16
S'.396'
p1503
sg18
S'2.1'
p1504
sg20
S'15.2'
p1505
sg22
S'PG'
p1506
sg24
S'.906'
p1507
sg28
S'NBA'
p1508
sg30
S'1.3'
p1509
sg32
S'11.3'
p1510
sg34
S'1.9'
p1511
sg36
S'3.3'
p1512
sg38
S'3.4'
p1513
sg40
S'32'
p1514
sg42
S'GSW'
p1515
sg44
S'70'
p1516
sg46
S'0.1'
p1517
sg48
S'2.9'
p1518
sg50
S'3.0'
p1519
sg52
S'5.9'
p1520
sg54
S'2.7'
p1521
sg56
S'1996-97'
p1522
sg58
S'5.0'
p1523
sg60
S'3.1'
p1524
sg62
S'.493'
p1525
sg64
S'1876'
p1526
sg66
S'49'
p1527
sba(isrc.gp1.models.Per36Minutes
Per36Minutes
p1528
(dp1529
g8
S'0.6'
p1530
sg10
S'3.9'
p1531
sg12
S'.431'
p1532
sg14
S'7.5'
p1533
sg16
S'.335'
p1534
sg18
S'1.3'
p1535
sg20
S'15.0'
p1536
sg22
S'PG'
p1537
sg24
S'.845'
p1538
sg28
S'NBA'
p1539
sg30
S'1.3'
p1540
sg32
S'13.4'
p1541
sg34
S'2.3'
p1542
sg36
S'2.6'
p1543
sg38
S'3.2'
p1544
sg40
S'33'
p1545
sg42
S'ORL'
p1546
sg44
S'63'
p1547
sg46
S'0.1'
p1548
sg48
S'4.5'
p1549
sg50
S'2.2'
p1550
sg52
S'9.5'
p1551
sg54
S'2.6'
p1552
sg56
S'1997-98'
p1553
sg58
S'5.8'
p1554
sg60
S'4.1'
p1555
sg62
S'.471'
p1556
sg64
S'1430'
p1557
sg66
S'33'
p1558
sbasS'_fromYear'
p1559
S'1987'
p1560
sS'_url'
p1561
S'http://www.basketball-reference.com/players/p/pricema01.html'
p1562
sS'_perGame'
p1563
(isrc.gp1.models.PerGame
PerGame
p1564
(dp1565
g8
S'0.4'
p1566
sg10
S'2.5'
p1567
sg12
S'.431'
p1568
sS'_effectiveFieldGalPercentage'
p1569
S'.480'
p1570
sg14
S'4.7'
p1571
sg16
S'.335'
p1572
sg18
S'0.8'
p1573
sg20
S'9.5'
p1574
sg22
S'PG'
p1575
sg24
S'.845'
p1576
sg28
S'NBA'
p1577
sg30
S'0.8'
p1578
sg34
S'1.5'
p1579
sS'_fieldGoalsttempted'
p1580
S'8.4'
p1581
sg36
S'1.6'
p1582
sg38
S'2.0'
p1583
sg40
S'33'
p1584
sg42
S'ORL'
p1585
sg44
S'63'
p1586
sg46
S'0.1'
p1587
sg48
S'2.8'
p1588
sg50
S'1.4'
p1589
sg52
S'6.0'
p1590
sg54
S'1.7'
p1591
sg56
S'1997-98'
p1592
sg58
S'3.6'
p1593
sg60
S'2.6'
p1594
sg62
S'.471'
p1595
sg64
S'22.7'
p1596
sg66
S'33'
p1597
sbsS'_weight'
p1598
S'170'
p1599
sS'_dob'
p1600
S'15-2-1964'
p1601
sS'_salary'
p1602
(lp1603
(isrc.gp1.models.Salary
Salary
p1604
(dp1605
g42
S'Cleveland Cavaliers'
p1606
sg28
S'NBA'
p1607
sg1602
S'$175,000'
p1608
sg56
S'1987-88'
p1609
sba(isrc.gp1.models.Salary
Salary
p1610
(dp1611
g42
S'Cleveland Cavaliers'
p1612
sg28
S'NBA'
p1613
sg1602
S'$1,200,000'
p1614
sg56
S'1988-89'
p1615
sba(isrc.gp1.models.Salary
Salary
p1616
(dp1617
g42
S'Cleveland Cavaliers'
p1618
sg28
S'NBA'
p1619
sg1602
S'$1,400,000'
p1620
sg56
S'1990-91'
p1621
sba(isrc.gp1.models.Salary
Salary
p1622
(dp1623
g42
S'Cleveland Cavaliers'
p1624
sg28
S'NBA'
p1625
sg1602
S'$1,520,000'
p1626
sg56
S'1991-92'
p1627
sba(isrc.gp1.models.Salary
Salary
p1628
(dp1629
g42
S'Cleveland Cavaliers'
p1630
sg28
S'NBA'
p1631
sg1602
S'$1,690,000'
p1632
sg56
S'1992-93'
p1633
sba(isrc.gp1.models.Salary
Salary
p1634
(dp1635
g42
S'Cleveland Cavaliers'
p1636
sg28
S'NBA'
p1637
sg1602
S'$2,850,000'
p1638
sg56
S'1993-94'
p1639
sba(isrc.gp1.models.Salary
Salary
p1640
(dp1641
g42
S'Cleveland Cavaliers'
p1642
sg28
S'NBA'
p1643
sg1602
S'$3,200,000'
p1644
sg56
S'1994-95'
p1645
sba(isrc.gp1.models.Salary
Salary
p1646
(dp1647
g42
S'Washington Bullets'
p1648
sg28
S'NBA'
p1649
sg1602
S'$3,687,000'
p1650
sg56
S'1995-96'
p1651
sba(isrc.gp1.models.Salary
Salary
p1652
(dp1653
g42
S'Golden State Warriors'
p1654
sg28
S'NBA'
p1655
sg1602
S'$3,409,000'
p1656
sg56
S'1996-97'
p1657
sba(isrc.gp1.models.Salary
Salary
p1658
(dp1659
g42
S'Orlando Magic'
p1660
sg28
S'NBA'
p1661
sg1602
S'$4,090,920'
p1662
sg56
S'1997-98'
p1663
sba(isrc.gp1.models.Salary
Salary
p1664
(dp1665
g42
S'Orlando Magic'
p1666
sg28
S'NBA'
p1667
sg1602
S'$5,488,000'
p1668
sg56
S'1998-99'
p1669
sbasg22
S'G'
p1670
sb.