(isrc.gp1.models.Player
Player
p0
(dp1
S'_experience'
p2
S'NA'
p3
sS'_totals'
p4
(lp5
(isrc.gp1.models.Totals
Totals
p6
(dp7
S'_offensiveRebounds'
p8
S'34'
p9
sS'_threePointsAttempted'
p10
S'0'
p11
sS'_fieldGoalsPercentage'
p12
S'.453'
p13
sS'_assist'
p14
S'7'
p15
sS'_threePointsPercentage'
p16
g3
sS'_threePoints'
p17
g11
sS'_points'
p18
S'78'
p19
sS'_position'
p20
S'C'
p21
sS'_freeThrowsPercentage'
p22
S'.444'
p23
sS'_effectiveFieldGoalPercentage'
p24
S'.453'
p25
sS'_league'
p26
S'NBA'
p27
sS'_steals'
p28
S'3'
p29
sS'_fieldGoalsAttempted'
p30
S'64'
p31
sS'_personalFouls'
p32
S'42'
p33
sS'_freeThrowsAttempted'
p34
S'45'
p35
sS'_totalRebounds'
p36
S'76'
p37
sS'_age'
p38
S'23'
p39
sS'_team'
p40
S'PHI'
p41
sS'_games'
p42
S'36'
p43
sS'_blocks'
p44
g29
sS'_twoPoints'
p45
S'29'
p46
sS'_freeThrows'
p47
S'20'
p48
sS'_twoPointsAttempted'
p49
S'64'
p50
sS'_defensiveRebounds'
p51
S'42'
p52
sS'_season'
p53
S'1982-83'
p54
sS'_fieldGoals'
p55
S'29'
p56
sS'_turnOvers'
p57
S'36'
p58
sS'_twoPointsPercentage'
p59
S'.453'
p60
sS'_minutesPlayed'
p61
S'182'
p62
sS'_gamesStarted'
p63
S'2'
p64
sba(isrc.gp1.models.Totals
Totals
p65
(dp66
g8
S'137'
p67
sg10
g11
sg12
S'.621'
p68
sg14
S'31'
p69
sg16
g3
sg17
g11
sg18
S'388'
p70
sg20
g21
sg22
S'.471'
p71
sg24
S'.621'
p72
sg26
S'NBA'
p73
sg28
S'14'
p74
sg30
S'253'
p75
sg32
S'138'
p76
sg34
S'157'
p77
sg36
S'317'
p78
sg38
S'24'
p79
sg40
S'SAS'
p80
sg42
S'70'
p81
sg44
S'12'
p82
sg45
S'157'
p83
sg47
S'74'
p84
sg49
S'253'
p85
sg51
S'180'
p86
sg53
S'1983-84'
p87
sg55
S'157'
p88
sg57
S'89'
p89
sg59
S'.621'
p90
sg61
S'1037'
p91
sg63
g29
sba(isrc.gp1.models.Totals
Totals
p92
(dp93
g8
S'31'
p94
sg10
g11
sg12
S'.526'
p95
sg14
S'6'
p96
sg16
g3
sg17
g11
sg18
S'112'
p97
sg20
g21
sg22
S'.516'
p98
sg24
S'.526'
p99
sg26
S'NBA'
p100
sg28
g15
sg30
S'76'
p101
sg32
S'27'
p102
sg34
S'62'
p103
sg36
S'74'
p104
sg38
S'25'
p105
sg40
S'TOT'
p106
sg42
S'45'
p107
sg44
S'8'
p108
sg45
S'40'
p109
sg47
S'32'
p110
sg49
S'76'
p111
sg51
S'43'
p112
sg53
S'1984-85'
p113
sg55
S'40'
p114
sg57
S'19'
p115
sg59
S'.526'
p116
sg61
S'273'
p117
sg63
g11
sba(isrc.gp1.models.Totals
Totals
p118
(dp119
g8
g15
sg10
g11
sg12
S'.667'
p120
sg14
g11
sg16
g3
sg17
g11
sg18
S'33'
p121
sg20
g21
sg22
S'.500'
p122
sg24
S'.667'
p123
sg26
S'NBA'
p124
sg28
g64
sg30
S'18'
p125
sg32
S'5'
p126
sg34
S'18'
p127
sg36
S'17'
p128
sg38
S'25'
p129
sg40
S'SAS'
p130
sg42
S'12'
p131
sg44
S'1'
p132
sg45
S'12'
p133
sg47
S'9'
p134
sg49
S'18'
p135
sg51
S'10'
p136
sg53
S'1984-85'
p137
sg55
S'12'
p138
sg57
g96
sg59
S'.667'
p139
sg61
S'63'
p140
sg63
g11
sba(isrc.gp1.models.Totals
Totals
p141
(dp142
g8
S'24'
p143
sg10
g11
sg12
S'.483'
p144
sg14
g96
sg16
g3
sg17
g11
sg18
S'79'
p145
sg20
g21
sg22
S'.523'
p146
sg24
S'.483'
p147
sg26
S'NBA'
p148
sg28
g126
sg30
S'58'
p149
sg32
S'22'
p150
sg34
S'44'
p151
sg36
S'57'
p152
sg38
S'25'
p153
sg40
S'KCK'
p154
sg42
S'33'
p155
sg44
g15
sg45
S'28'
p156
sg47
S'23'
p157
sg49
S'58'
p158
sg51
S'33'
p159
sg53
S'1984-85'
p160
sg55
S'28'
p161
sg57
S'13'
p162
sg59
S'.483'
p163
sg61
S'210'
p164
sg63
g11
sba(isrc.gp1.models.Totals
Totals
p165
(dp166
g8
g3
sg10
g3
sg12
g3
sg14
g3
sg16
g3
sg17
g3
sg18
g3
sg20
g3
sg22
g3
sg24
g3
sg26
g3
sg28
g3
sg30
g3
sg32
g3
sg34
g3
sg36
g3
sg38
S'26'
p167
sg40
S'Did Not Play\xc2\xa0(other pro league\xe2\x80\x94Italy)'
p168
sg42
g3
sg44
g3
sg45
g3
sg47
g3
sg49
g3
sg51
g3
sg53
S'1985-86'
p169
sg55
g3
sg57
g3
sg59
g3
sg61
g3
sg63
g3
sba(isrc.gp1.models.Totals
Totals
p170
(dp171
g8
S'17'
p172
sg10
g11
sg12
S'.467'
p173
sg14
g64
sg16
g3
sg17
g11
sg18
S'35'
p174
sg20
g21
sg22
S'.368'
p175
sg24
S'.467'
p176
sg26
S'NBA'
p177
sg28
g132
sg30
S'30'
p178
sg32
S'17'
p179
sg34
S'19'
p180
sg36
S'36'
p181
sg38
S'27'
p182
sg40
S'PHI'
p183
sg42
S'11'
p184
sg44
g11
sg45
S'14'
p185
sg47
g15
sg49
S'30'
p186
sg51
S'19'
p187
sg53
S'1986-87'
p188
sg55
S'14'
p189
sg57
g108
sg59
S'.467'
p190
sg61
S'113'
p191
sg63
g132
sba(isrc.gp1.models.Totals
Totals
p192
(dp193
g8
S'66'
p194
sg10
g11
sg12
S'.391'
p195
sg14
S'18'
p196
sg16
g3
sg17
g11
sg18
S'152'
p197
sg20
g21
sg22
S'.727'
p198
sg24
S'.391'
p199
sg26
S'NBA'
p200
sg28
S'4'
p201
sg30
S'133'
p202
sg32
S'67'
p203
sg34
S'66'
p204
sg36
S'157'
p205
sg38
S'28'
p206
sg40
S'PHI'
p207
sg42
S'42'
p208
sg44
S'12'
p209
sg45
S'52'
p210
sg47
S'48'
p211
sg49
S'133'
p212
sg51
S'91'
p213
sg53
S'1987-88'
p214
sg55
S'52'
p215
sg57
S'26'
p216
sg59
S'.391'
p217
sg61
S'581'
p218
sg63
S'18'
p219
sba(isrc.gp1.models.Totals
Totals
p220
(dp221
g8
S'38'
p222
sg10
g11
sg12
S'.500'
p223
sg14
S'10'
p224
sg16
g3
sg17
g11
sg18
S'113'
p225
sg20
g21
sg22
S'.628'
p226
sg24
S'.500'
p227
sg26
S'NBA'
p228
sg28
g201
sg30
S'64'
p229
sg32
S'51'
p230
sg34
S'78'
p231
sg36
S'100'
p232
sg38
S'29'
p233
sg40
S'LAL'
p234
sg42
S'39'
p235
sg44
g29
sg45
S'32'
p236
sg47
S'49'
p237
sg49
S'64'
p238
sg51
S'62'
p239
sg53
S'1988-89'
p240
sg55
S'32'
p241
sg57
S'24'
p242
sg59
S'.500'
p243
sg61
S'318'
p244
sg63
g11
sba(isrc.gp1.models.Totals
Totals
p245
(dp246
g8
S'22'
p247
sg10
g11
sg12
S'.442'
p248
sg14
g29
sg16
g3
sg17
g11
sg18
S'102'
p249
sg20
g21
sg22
S'.650'
p250
sg24
S'.442'
p251
sg26
S'NBA'
p252
sg28
g64
sg30
S'86'
p253
sg32
S'31'
p254
sg34
S'40'
p255
sg36
S'63'
p256
sg38
S'30'
p257
sg40
S'LAL'
p258
sg42
S'33'
p259
sg44
g132
sg45
S'38'
p260
sg47
S'26'
p261
sg49
S'86'
p262
sg51
S'41'
p263
sg53
S'1989-90'
p264
sg55
S'38'
p265
sg57
S'21'
p266
sg59
S'.442'
p267
sg61
S'190'
p268
sg63
g132
sba(isrc.gp1.models.Totals
Totals
p269
(dp270
g8
g11
sg10
g11
sg12
S'.000'
p271
sg14
g11
sg16
g3
sg17
g11
sg18
g11
sg20
g21
sg22
g3
sg24
S'.000'
p272
sg26
S'NBA'
p273
sg28
g11
sg30
g132
sg32
g132
sg34
g11
sg36
g201
sg38
S'31'
p274
sg40
S'ORL'
p275
sg42
g64
sg44
g11
sg45
g11
sg47
g11
sg49
g132
sg51
g201
sg53
S'1990-91'
p276
sg55
g11
sg57
g11
sg59
S'.000'
p277
sg61
S'13'
p278
sg63
g11
sbasS'_college'
p279
S'University of California'
p280
sS'_toYear'
p281
S'1991'
p282
sS'_height'
p283
S'6-11'
p284
sS'_active'
p285
I00
sS'_shootingHand'
p286
VRight
p287
sS'_name'
p288
S'Mark McNamara'
p289
sS'_per100Possessions'
p290
(lp291
(isrc.gp1.models.Per100Possession
Per100Possession
p292
(dp293
g8
S'8.7'
p294
sg10
S'0.0'
p295
sg12
S'.453'
p296
sS'_offensiveRating'
p297
S'80'
p298
sg14
S'1.8'
p299
sg16
g3
sg17
S'0.0'
p300
sg18
S'20.0'
p301
sg20
g21
sS'_defensiveRating'
p302
S'100'
p303
sg22
S'.444'
p304
sg26
S'NBA'
p305
sg28
S'0.8'
p306
sg30
S'16.4'
p307
sg32
S'10.8'
p308
sg34
S'11.6'
p309
sg36
S'19.5'
p310
sg38
S'23'
p311
sg40
S'PHI'
p312
sg42
S'36'
p313
sg44
S'0.8'
p314
sg45
S'7.4'
p315
sg47
S'5.1'
p316
sg49
S'16.4'
p317
sg51
S'10.8'
p318
sg53
S'1982-83'
p319
sg55
S'7.4'
p320
sg57
S'9.2'
p321
sg59
S'.453'
p322
sg61
S'182'
p323
sg63
g64
sba(isrc.gp1.models.Per100Possession
Per100Possession
p324
(dp325
g8
S'6.0'
p326
sg10
S'0.0'
p327
sg12
S'.621'
p328
sg297
S'106'
p329
sg14
S'1.3'
p330
sg16
g3
sg17
S'0.0'
p331
sg18
S'16.9'
p332
sg20
g21
sg302
S'112'
p333
sg22
S'.471'
p334
sg26
S'NBA'
p335
sg28
S'0.6'
p336
sg30
S'11.0'
p337
sg32
S'6.0'
p338
sg34
S'6.8'
p339
sg36
S'13.8'
p340
sg38
S'24'
p341
sg40
S'SAS'
p342
sg42
S'70'
p343
sg44
S'0.5'
p344
sg45
S'6.8'
p345
sg47
S'3.2'
p346
sg49
S'11.0'
p347
sg51
S'7.8'
p348
sg53
S'1983-84'
p349
sg55
S'6.8'
p350
sg57
S'3.9'
p351
sg59
S'.621'
p352
sg61
S'1037'
p353
sg63
g29
sba(isrc.gp1.models.Per100Possession
Per100Possession
p354
(dp355
g8
S'5.2'
p356
sg10
S'0.0'
p357
sg12
S'.526'
p358
sg297
S'105'
p359
sg14
S'1.0'
p360
sg16
g3
sg17
S'0.0'
p361
sg18
S'18.9'
p362
sg20
g21
sg302
S'111'
p363
sg22
S'.516'
p364
sg26
S'NBA'
p365
sg28
S'1.2'
p366
sg30
S'12.8'
p367
sg32
S'4.6'
p368
sg34
S'10.5'
p369
sg36
S'12.5'
p370
sg38
S'25'
p371
sg40
S'TOT'
p372
sg42
S'45'
p373
sg44
S'1.3'
p374
sg45
S'6.7'
p375
sg47
S'5.4'
p376
sg49
S'12.8'
p377
sg51
S'7.2'
p378
sg53
S'1984-85'
p379
sg55
S'6.7'
p380
sg57
S'3.2'
p381
sg59
S'.526'
p382
sg61
S'273'
p383
sg63
g11
sba(isrc.gp1.models.Per100Possession
Per100Possession
p384
(dp385
g8
S'5.1'
p386
sg10
S'0.0'
p387
sg12
S'.667'
p388
sg297
S'108'
p389
sg14
S'0.0'
p390
sg16
g3
sg17
S'0.0'
p391
sg18
S'24.2'
p392
sg20
g21
sg302
S'109'
p393
sg22
S'.500'
p394
sg26
S'NBA'
p395
sg28
S'1.5'
p396
sg30
S'13.2'
p397
sg32
S'3.7'
p398
sg34
S'13.2'
p399
sg36
S'12.5'
p400
sg38
S'25'
p401
sg40
S'SAS'
p402
sg42
S'12'
p403
sg44
S'0.7'
p404
sg45
S'8.8'
p405
sg47
S'6.6'
p406
sg49
S'13.2'
p407
sg51
S'7.3'
p408
sg53
S'1984-85'
p409
sg55
S'8.8'
p410
sg57
S'4.4'
p411
sg59
S'.667'
p412
sg61
S'63'
p413
sg63
g11
sba(isrc.gp1.models.Per100Possession
Per100Possession
p414
(dp415
g8
S'5.3'
p416
sg10
S'0.0'
p417
sg12
S'.483'
p418
sg297
S'104'
p419
sg14
S'1.3'
p420
sg16
g3
sg17
S'0.0'
p421
sg18
S'17.3'
p422
sg20
g21
sg302
S'111'
p423
sg22
S'.523'
p424
sg26
S'NBA'
p425
sg28
S'1.1'
p426
sg30
S'12.7'
p427
sg32
S'4.8'
p428
sg34
S'9.6'
p429
sg36
S'12.5'
p430
sg38
S'25'
p431
sg40
S'KCK'
p432
sg42
S'33'
p433
sg44
S'1.5'
p434
sg45
S'6.1'
p435
sg47
S'5.0'
p436
sg49
S'12.7'
p437
sg51
S'7.2'
p438
sg53
S'1984-85'
p439
sg55
S'6.1'
p440
sg57
S'2.8'
p441
sg59
S'.483'
p442
sg61
S'210'
p443
sg63
g11
sba(isrc.gp1.models.Per100Possession
Per100Possession
p444
(dp445
g8
S'7.4'
p446
sg10
S'0.0'
p447
sg12
S'.467'
p448
sg297
S'94'
p449
sg14
S'0.9'
p450
sg16
g3
sg17
S'0.0'
p451
sg18
S'15.3'
p452
sg20
g21
sg302
S'111'
p453
sg22
S'.368'
p454
sg26
S'NBA'
p455
sg28
S'0.4'
p456
sg30
S'13.1'
p457
sg32
S'7.4'
p458
sg34
S'8.3'
p459
sg36
S'15.7'
p460
sg38
S'27'
p461
sg40
S'PHI'
p462
sg42
S'11'
p463
sg44
S'0.0'
p464
sg45
S'6.1'
p465
sg47
S'3.1'
p466
sg49
S'13.1'
p467
sg51
S'8.3'
p468
sg53
S'1986-87'
p469
sg55
S'6.1'
p470
sg57
S'3.5'
p471
sg59
S'.467'
p472
sg61
S'113'
p473
sg63
g132
sba(isrc.gp1.models.Per100Possession
Per100Possession
p474
(dp475
g8
S'5.7'
p476
sg10
S'0.0'
p477
sg12
S'.391'
p478
sg297
S'105'
p479
sg14
S'1.5'
p480
sg16
g3
sg17
S'0.0'
p481
sg18
S'13.1'
p482
sg20
g21
sg302
S'112'
p483
sg22
S'.727'
p484
sg26
S'NBA'
p485
sg28
S'0.3'
p486
sg30
S'11.4'
p487
sg32
S'5.8'
p488
sg34
S'5.7'
p489
sg36
S'13.5'
p490
sg38
S'28'
p491
sg40
S'PHI'
p492
sg42
S'42'
p493
sg44
S'1.0'
p494
sg45
S'4.5'
p495
sg47
S'4.1'
p496
sg49
S'11.4'
p497
sg51
S'7.8'
p498
sg53
S'1987-88'
p499
sg55
S'4.5'
p500
sg57
S'2.2'
p501
sg59
S'.391'
p502
sg61
S'581'
p503
sg63
S'18'
p504
sba(isrc.gp1.models.Per100Possession
Per100Possession
p505
(dp506
g8
S'5.7'
p507
sg10
S'0.0'
p508
sg12
S'.500'
p509
sg297
S'110'
p510
sg14
S'1.5'
p511
sg16
g3
sg17
S'0.0'
p512
sg18
S'17.0'
p513
sg20
g21
sg302
S'107'
p514
sg22
S'.628'
p515
sg26
S'NBA'
p516
sg28
S'0.6'
p517
sg30
S'9.6'
p518
sg32
S'7.7'
p519
sg34
S'11.8'
p520
sg36
S'15.1'
p521
sg38
S'29'
p522
sg40
S'LAL'
p523
sg42
S'39'
p524
sg44
S'0.5'
p525
sg45
S'4.8'
p526
sg47
S'7.4'
p527
sg49
S'9.6'
p528
sg51
S'9.3'
p529
sg53
S'1988-89'
p530
sg55
S'4.8'
p531
sg57
S'3.6'
p532
sg59
S'.500'
p533
sg61
S'318'
p534
sg63
g11
sba(isrc.gp1.models.Per100Possession
Per100Possession
p535
(dp536
g8
S'5.8'
p537
sg10
S'0.0'
p538
sg12
S'.442'
p539
sg297
S'94'
p540
sg14
S'0.8'
p541
sg16
g3
sg17
S'0.0'
p542
sg18
S'26.8'
p543
sg20
g21
sg302
S'107'
p544
sg22
S'.650'
p545
sg26
S'NBA'
p546
sg28
S'0.5'
p547
sg30
S'22.6'
p548
sg32
S'8.1'
p549
sg34
S'10.5'
p550
sg36
S'16.5'
p551
sg38
S'30'
p552
sg40
S'LAL'
p553
sg42
S'33'
p554
sg44
S'0.3'
p555
sg45
S'10.0'
p556
sg47
S'6.8'
p557
sg49
S'22.6'
p558
sg51
S'10.8'
p559
sg53
S'1989-90'
p560
sg55
S'10.0'
p561
sg57
S'5.5'
p562
sg59
S'.442'
p563
sg61
S'190'
p564
sg63
g132
sba(isrc.gp1.models.Per100Possession
Per100Possession
p565
(dp566
g8
S'0.0'
p567
sg10
S'0.0'
p568
sg12
S'.000'
p569
sg297
g11
sg14
S'0.0'
p570
sg16
g3
sg17
S'0.0'
p571
sg18
S'0.0'
p572
sg20
g21
sg302
S'108'
p573
sg22
g3
sg26
S'NBA'
p574
sg28
S'0.0'
p575
sg30
S'3.7'
p576
sg32
S'3.7'
p577
sg34
S'0.0'
p578
sg36
S'14.8'
p579
sg38
S'31'
p580
sg40
S'ORL'
p581
sg42
g64
sg44
S'0.0'
p582
sg45
S'0.0'
p583
sg47
S'0.0'
p584
sg49
S'3.7'
p585
sg51
S'14.8'
p586
sg53
S'1990-91'
p587
sg55
S'0.0'
p588
sg57
S'0.0'
p589
sg59
S'.000'
p590
sg61
S'13'
p591
sg63
g11
sbasS'_advanced'
p592
(lp593
(isrc.gp1.models.Advanced
Advanced
p594
(dp595
S'_offensiveReboundPercentage'
p596
S'20.6'
p597
sS'_turnOverPercentage'
p598
S'30.1'
p599
sS'_winSharesPer48Minutes'
p600
S'-0.056'
p601
sS'_stealPercentage'
p602
S'0.8'
p603
sS'_usagePercentage'
p604
S'26.1'
p605
sS'_totalReboundsPercentage'
p606
S'22.0'
p607
sS'_defensiveBoxPlusMinus'
p608
S'-2.1'
p609
sg20
g21
sS'_valueOverReplacementPlayer'
p610
S'-0.3'
p611
sS'_trueShootingPercentage'
p612
S'.465'
p613
sS'_defensiveReboundPercentage'
p614
S'23.3'
p615
sS'_freeThrowsAttempRate'
p616
S'.703'
p617
sS'_threePointsAttempRate'
p618
S'.000'
p619
sg26
S'NBA'
p620
sS'_offensiveBoxPlusMinues'
p621
S'-6.2'
p622
sS'_assistPercentage'
p623
S'5.1'
p624
sS'_defensiveWinShares'
p625
S'0.3'
p626
sg38
S'23'
p627
sg40
S'PHI'
p628
sg42
S'36'
p629
sS'_blockPercentage'
p630
S'0.9'
p631
sS'_playerEfficiencyRating'
p632
S'7.6'
p633
sS'_offensiveWinShares'
p634
S'-0.5'
p635
sg61
S'182'
p636
sS'_boxPlusMinus'
p637
S'-8.2'
p638
sg53
S'1982-83'
p639
sS'_winShares'
p640
S'-0.2'
p641
sba(isrc.gp1.models.Advanced
Advanced
p642
(dp643
g596
S'14.3'
p644
sg598
S'21.7'
p645
sg600
S'.057'
p646
sg602
S'0.6'
p647
sg604
S'15.4'
p648
sg606
S'16.3'
p649
sg608
S'-1.7'
p650
sg20
g21
sg610
S'-0.1'
p651
sg612
S'.602'
p652
sg614
S'18.2'
p653
sg616
S'.621'
p654
sg618
S'.000'
p655
sg26
S'NBA'
p656
sg621
S'-0.8'
p657
sg623
S'3.6'
p658
sg625
S'0.5'
p659
sg38
S'24'
p660
sg40
S'SAS'
p661
sg42
S'70'
p662
sg630
S'0.6'
p663
sg632
S'11.9'
p664
sg634
S'0.7'
p665
sg61
S'1037'
p666
sg637
S'-2.5'
p667
sg53
S'1983-84'
p668
sg640
S'1.2'
p669
sba(isrc.gp1.models.Advanced
Advanced
p670
(dp671
g596
S'13.1'
p672
sg598
S'15.5'
p673
sg600
S'.062'
p674
sg602
S'1.2'
p675
sg604
S'17.7'
p676
sg606
S'15.4'
p677
sg608
S'-2.7'
p678
sg20
g21
sg610
S'-0.2'
p679
sg612
S'.542'
p680
sg614
S'17.7'
p681
sg616
S'.816'
p682
sg618
S'.000'
p683
sg26
S'NBA'
p684
sg621
S'-2.7'
p685
sg623
S'2.8'
p686
sg625
S'0.2'
p687
sg38
S'25'
p688
sg40
S'TOT'
p689
sg42
S'45'
p690
sg630
S'1.6'
p691
sg632
S'12.9'
p692
sg634
S'0.2'
p693
sg61
S'273'
p694
sg637
S'-5.4'
p695
sg53
S'1984-85'
p696
sg640
S'0.4'
p697
sba(isrc.gp1.models.Advanced
Advanced
p698
(dp699
g596
S'13.0'
p700
sg598
S'18.8'
p701
sg600
S'.092'
p702
sg602
S'1.5'
p703
sg604
S'20.3'
p704
sg606
S'15.3'
p705
sg608
S'-5.6'
p706
sg20
g21
sg610
S'-0.1'
p707
sg612
S'.637'
p708
sg614
S'17.4'
p709
sg616
S'1.000'
p710
sg618
S'.000'
p711
sg26
S'NBA'
p712
sg621
S'-2.7'
p713
sg623
S'0.0'
p714
sg625
S'0.1'
p715
sg38
S'25'
p716
sg40
S'SAS'
p717
sg42
S'12'
p718
sg630
S'0.9'
p719
sg632
S'16.0'
p720
sg634
S'0.1'
p721
sg61
S'63'
p722
sg637
S'-8.3'
p723
sg53
S'1984-85'
p724
sg640
S'0.1'
p725
sba(isrc.gp1.models.Advanced
Advanced
p726
(dp727
g596
S'13.1'
p728
sg598
S'14.4'
p729
sg600
S'.053'
p730
sg602
S'1.1'
p731
sg604
S'17.0'
p732
sg606
S'15.5'
p733
sg608
S'-1.8'
p734
sg20
g21
sg610
S'-0.1'
p735
sg612
S'.511'
p736
sg614
S'17.8'
p737
sg616
S'.759'
p738
sg618
S'.000'
p739
sg26
S'NBA'
p740
sg621
S'-2.7'
p741
sg623
S'3.6'
p742
sg625
S'0.1'
p743
sg38
S'25'
p744
sg40
S'KCK'
p745
sg42
S'33'
p746
sg630
S'1.8'
p747
sg632
S'12.0'
p748
sg634
S'0.1'
p749
sg61
S'210'
p750
sg637
S'-4.5'
p751
sg53
S'1984-85'
p752
sg640
S'0.2'
p753
sba(isrc.gp1.models.Advanced
Advanced
p754
(dp755
g596
S'17.7'
p756
sg598
S'17.3'
p757
sg600
S'.007'
p758
sg602
S'0.4'
p759
sg604
S'17.2'
p760
sg606
S'18.3'
p761
sg608
S'-4.1'
p762
sg20
g21
sg610
S'-0.2'
p763
sg612
S'.456'
p764
sg614
S'18.9'
p765
sg616
S'.633'
p766
sg618
S'.000'
p767
sg26
S'NBA'
p768
sg621
S'-4.2'
p769
sg623
S'2.5'
p770
sg625
S'0.1'
p771
sg38
S'27'
p772
sg40
S'PHI'
p773
sg42
S'11'
p774
sg630
S'0.0'
p775
sg632
S'8.2'
p776
sg634
S'-0.1'
p777
sg61
S'113'
p778
sg637
S'-8.2'
p779
sg53
S'1986-87'
p780
sg640
S'0.0'
p781
sba(isrc.gp1.models.Advanced
Advanced
p782
(dp783
g596
S'13.1'
p784
sg598
S'13.8'
p785
sg600
S'.052'
p786
sg602
S'0.3'
p787
sg604
S'13.7'
p788
sg606
S'15.7'
p789
sg608
S'-1.6'
p790
sg20
g21
sg610
S'-0.4'
p791
sg612
S'.469'
p792
sg614
S'18.3'
p793
sg616
S'.496'
p794
sg618
S'.000'
p795
sg26
S'NBA'
p796
sg621
S'-3.1'
p797
sg623
S'4.3'
p798
sg625
S'0.3'
p799
sg38
S'28'
p800
sg40
S'PHI'
p801
sg42
S'42'
p802
sg630
S'1.2'
p803
sg632
S'9.4'
p804
sg634
S'0.3'
p805
sg61
S'581'
p806
sg637
S'-4.6'
p807
sg53
S'1987-88'
p808
sg640
S'0.6'
p809
sba(isrc.gp1.models.Advanced
Advanced
p810
(dp811
g596
S'14.3'
p812
sg598
S'19.6'
p813
sg600
S'.106'
p814
sg602
S'0.6'
p815
sg604
S'15.9'
p816
sg606
S'17.5'
p817
sg608
S'-2.1'
p818
sg20
g21
sg610
S'-0.2'
p819
sg612
S'.575'
p820
sg614
S'20.4'
p821
sg616
S'1.219'
p822
sg618
S'.000'
p823
sg26
S'NBA'
p824
sg621
S'-2.2'
p825
sg623
S'3.9'
p826
sg625
S'0.3'
p827
sg38
S'29'
p828
sg40
S'LAL'
p829
sg42
S'39'
p830
sg630
S'0.5'
p831
sg632
S'11.2'
p832
sg634
S'0.4'
p833
sg61
S'318'
p834
sg637
S'-4.2'
p835
sg53
S'1988-89'
p836
sg640
S'0.7'
p837
sba(isrc.gp1.models.Advanced
Advanced
p838
(dp839
g596
S'13.8'
p840
sg598
S'16.9'
p841
sg600
S'.015'
p842
sg602
S'0.5'
p843
sg604
S'28.0'
p844
sg606
S'19.0'
p845
sg608
S'-5.4'
p846
sg20
g21
sg610
S'-0.5'
p847
sg612
S'.492'
p848
sg614
S'23.9'
p849
sg616
S'.465'
p850
sg618
S'.000'
p851
sg26
S'NBA'
p852
sg621
S'-6.2'
p853
sg623
S'2.4'
p854
sg625
S'0.2'
p855
sg38
S'30'
p856
sg40
S'LAL'
p857
sg42
S'33'
p858
sg630
S'0.3'
p859
sg632
S'11.3'
p860
sg634
S'-0.2'
p861
sg61
S'190'
p862
sg637
S'-11.6'
p863
sg53
S'1989-90'
p864
sg640
S'0.1'
p865
sba(isrc.gp1.models.Advanced
Advanced
p866
(dp867
g596
S'0.0'
p868
sg598
S'0.0'
p869
sg600
S'-0.019'
p870
sg602
S'0.0'
p871
sg604
S'3.1'
p872
sg606
S'16.8'
p873
sg608
S'-1.9'
p874
sg20
g21
sg610
S'0.0'
p875
sg612
S'.000'
p876
sg614
S'34.5'
p877
sg616
S'.000'
p878
sg618
S'.000'
p879
sg26
S'NBA'
p880
sg621
S'-11.9'
p881
sg623
S'0.0'
p882
sg625
S'0.0'
p883
sg38
S'31'
p884
sg40
S'ORL'
p885
sg42
g64
sg630
S'0.0'
p886
sg632
S'1.0'
p887
sg634
S'0.0'
p888
sg61
S'13'
p889
sg637
S'-13.8'
p890
sg53
S'1990-91'
p891
sg640
S'0.0'
p892
sbasS'_per36Minutes'
p893
(lp894
(isrc.gp1.models.Per36Minutes
Per36Minutes
p895
(dp896
g8
S'6.7'
p897
sg10
S'0.0'
p898
sg12
S'.453'
p899
sg14
S'1.4'
p900
sg16
g3
sg17
S'0.0'
p901
sg18
S'15.4'
p902
sg20
g21
sg22
S'.444'
p903
sg26
S'NBA'
p904
sg28
S'0.6'
p905
sg30
S'12.7'
p906
sg32
S'8.3'
p907
sg34
S'8.9'
p908
sg36
S'15.0'
p909
sg38
S'23'
p910
sg40
S'PHI'
p911
sg42
S'36'
p912
sg44
S'0.6'
p913
sg45
S'5.7'
p914
sg47
S'4.0'
p915
sg49
S'12.7'
p916
sg51
S'8.3'
p917
sg53
S'1982-83'
p918
sg55
S'5.7'
p919
sg57
S'7.1'
p920
sg59
S'.453'
p921
sg61
S'182'
p922
sg63
g64
sba(isrc.gp1.models.Per36Minutes
Per36Minutes
p923
(dp924
g8
S'4.8'
p925
sg10
S'0.0'
p926
sg12
S'.621'
p927
sg14
S'1.1'
p928
sg16
g3
sg17
S'0.0'
p929
sg18
S'13.5'
p930
sg20
g21
sg22
S'.471'
p931
sg26
S'NBA'
p932
sg28
S'0.5'
p933
sg30
S'8.8'
p934
sg32
S'4.8'
p935
sg34
S'5.5'
p936
sg36
S'11.0'
p937
sg38
S'24'
p938
sg40
S'SAS'
p939
sg42
S'70'
p940
sg44
S'0.4'
p941
sg45
S'5.5'
p942
sg47
S'2.6'
p943
sg49
S'8.8'
p944
sg51
S'6.2'
p945
sg53
S'1983-84'
p946
sg55
S'5.5'
p947
sg57
S'3.1'
p948
sg59
S'.621'
p949
sg61
S'1037'
p950
sg63
g29
sba(isrc.gp1.models.Per36Minutes
Per36Minutes
p951
(dp952
g8
S'4.1'
p953
sg10
S'0.0'
p954
sg12
S'.526'
p955
sg14
S'0.8'
p956
sg16
g3
sg17
S'0.0'
p957
sg18
S'14.8'
p958
sg20
g21
sg22
S'.516'
p959
sg26
S'NBA'
p960
sg28
S'0.9'
p961
sg30
S'10.0'
p962
sg32
S'3.6'
p963
sg34
S'8.2'
p964
sg36
S'9.8'
p965
sg38
S'25'
p966
sg40
S'TOT'
p967
sg42
S'45'
p968
sg44
S'1.1'
p969
sg45
S'5.3'
p970
sg47
S'4.2'
p971
sg49
S'10.0'
p972
sg51
S'5.7'
p973
sg53
S'1984-85'
p974
sg55
S'5.3'
p975
sg57
S'2.5'
p976
sg59
S'.526'
p977
sg61
S'273'
p978
sg63
g11
sba(isrc.gp1.models.Per36Minutes
Per36Minutes
p979
(dp980
g8
S'4.0'
p981
sg10
S'0.0'
p982
sg12
S'.667'
p983
sg14
S'0.0'
p984
sg16
g3
sg17
S'0.0'
p985
sg18
S'18.9'
p986
sg20
g21
sg22
S'.500'
p987
sg26
S'NBA'
p988
sg28
S'1.1'
p989
sg30
S'10.3'
p990
sg32
S'2.9'
p991
sg34
S'10.3'
p992
sg36
S'9.7'
p993
sg38
S'25'
p994
sg40
S'SAS'
p995
sg42
S'12'
p996
sg44
S'0.6'
p997
sg45
S'6.9'
p998
sg47
S'5.1'
p999
sg49
S'10.3'
p1000
sg51
S'5.7'
p1001
sg53
S'1984-85'
p1002
sg55
S'6.9'
p1003
sg57
S'3.4'
p1004
sg59
S'.667'
p1005
sg61
S'63'
p1006
sg63
g11
sba(isrc.gp1.models.Per36Minutes
Per36Minutes
p1007
(dp1008
g8
S'4.1'
p1009
sg10
S'0.0'
p1010
sg12
S'.483'
p1011
sg14
S'1.0'
p1012
sg16
g3
sg17
S'0.0'
p1013
sg18
S'13.5'
p1014
sg20
g21
sg22
S'.523'
p1015
sg26
S'NBA'
p1016
sg28
S'0.9'
p1017
sg30
S'9.9'
p1018
sg32
S'3.8'
p1019
sg34
S'7.5'
p1020
sg36
S'9.8'
p1021
sg38
S'25'
p1022
sg40
S'KCK'
p1023
sg42
S'33'
p1024
sg44
S'1.2'
p1025
sg45
S'4.8'
p1026
sg47
S'3.9'
p1027
sg49
S'9.9'
p1028
sg51
S'5.7'
p1029
sg53
S'1984-85'
p1030
sg55
S'4.8'
p1031
sg57
S'2.2'
p1032
sg59
S'.483'
p1033
sg61
S'210'
p1034
sg63
g11
sba(isrc.gp1.models.Per36Minutes
Per36Minutes
p1035
(dp1036
g8
S'5.4'
p1037
sg10
S'0.0'
p1038
sg12
S'.467'
p1039
sg14
S'0.6'
p1040
sg16
g3
sg17
S'0.0'
p1041
sg18
S'11.2'
p1042
sg20
g21
sg22
S'.368'
p1043
sg26
S'NBA'
p1044
sg28
S'0.3'
p1045
sg30
S'9.6'
p1046
sg32
S'5.4'
p1047
sg34
S'6.1'
p1048
sg36
S'11.5'
p1049
sg38
S'27'
p1050
sg40
S'PHI'
p1051
sg42
S'11'
p1052
sg44
S'0.0'
p1053
sg45
S'4.5'
p1054
sg47
S'2.2'
p1055
sg49
S'9.6'
p1056
sg51
S'6.1'
p1057
sg53
S'1986-87'
p1058
sg55
S'4.5'
p1059
sg57
S'2.5'
p1060
sg59
S'.467'
p1061
sg61
S'113'
p1062
sg63
g132
sba(isrc.gp1.models.Per36Minutes
Per36Minutes
p1063
(dp1064
g8
S'4.1'
p1065
sg10
S'0.0'
p1066
sg12
S'.391'
p1067
sg14
S'1.1'
p1068
sg16
g3
sg17
S'0.0'
p1069
sg18
S'9.4'
p1070
sg20
g21
sg22
S'.727'
p1071
sg26
S'NBA'
p1072
sg28
S'0.2'
p1073
sg30
S'8.2'
p1074
sg32
S'4.2'
p1075
sg34
S'4.1'
p1076
sg36
S'9.7'
p1077
sg38
S'28'
p1078
sg40
S'PHI'
p1079
sg42
S'42'
p1080
sg44
S'0.7'
p1081
sg45
S'3.2'
p1082
sg47
S'3.0'
p1083
sg49
S'8.2'
p1084
sg51
S'5.6'
p1085
sg53
S'1987-88'
p1086
sg55
S'3.2'
p1087
sg57
S'1.6'
p1088
sg59
S'.391'
p1089
sg61
S'581'
p1090
sg63
S'18'
p1091
sba(isrc.gp1.models.Per36Minutes
Per36Minutes
p1092
(dp1093
g8
S'4.3'
p1094
sg10
S'0.0'
p1095
sg12
S'.500'
p1096
sg14
S'1.1'
p1097
sg16
g3
sg17
S'0.0'
p1098
sg18
S'12.8'
p1099
sg20
g21
sg22
S'.628'
p1100
sg26
S'NBA'
p1101
sg28
S'0.5'
p1102
sg30
S'7.2'
p1103
sg32
S'5.8'
p1104
sg34
S'8.8'
p1105
sg36
S'11.3'
p1106
sg38
S'29'
p1107
sg40
S'LAL'
p1108
sg42
S'39'
p1109
sg44
S'0.3'
p1110
sg45
S'3.6'
p1111
sg47
S'5.5'
p1112
sg49
S'7.2'
p1113
sg51
S'7.0'
p1114
sg53
S'1988-89'
p1115
sg55
S'3.6'
p1116
sg57
S'2.7'
p1117
sg59
S'.500'
p1118
sg61
S'318'
p1119
sg63
g11
sba(isrc.gp1.models.Per36Minutes
Per36Minutes
p1120
(dp1121
g8
S'4.2'
p1122
sg10
S'0.0'
p1123
sg12
S'.442'
p1124
sg14
S'0.6'
p1125
sg16
g3
sg17
S'0.0'
p1126
sg18
S'19.3'
p1127
sg20
g21
sg22
S'.650'
p1128
sg26
S'NBA'
p1129
sg28
S'0.4'
p1130
sg30
S'16.3'
p1131
sg32
S'5.9'
p1132
sg34
S'7.6'
p1133
sg36
S'11.9'
p1134
sg38
S'30'
p1135
sg40
S'LAL'
p1136
sg42
S'33'
p1137
sg44
S'0.2'
p1138
sg45
S'7.2'
p1139
sg47
S'4.9'
p1140
sg49
S'16.3'
p1141
sg51
S'7.8'
p1142
sg53
S'1989-90'
p1143
sg55
S'7.2'
p1144
sg57
S'4.0'
p1145
sg59
S'.442'
p1146
sg61
S'190'
p1147
sg63
g132
sba(isrc.gp1.models.Per36Minutes
Per36Minutes
p1148
(dp1149
g8
S'0.0'
p1150
sg10
S'0.0'
p1151
sg12
S'.000'
p1152
sg14
S'0.0'
p1153
sg16
g3
sg17
S'0.0'
p1154
sg18
S'0.0'
p1155
sg20
g21
sg22
g3
sg26
S'NBA'
p1156
sg28
S'0.0'
p1157
sg30
S'2.8'
p1158
sg32
S'2.8'
p1159
sg34
S'0.0'
p1160
sg36
S'11.1'
p1161
sg38
S'31'
p1162
sg40
S'ORL'
p1163
sg42
g64
sg44
S'0.0'
p1164
sg45
S'0.0'
p1165
sg47
S'0.0'
p1166
sg49
S'2.8'
p1167
sg51
S'11.1'
p1168
sg53
S'1990-91'
p1169
sg55
S'0.0'
p1170
sg57
S'0.0'
p1171
sg59
S'.000'
p1172
sg61
S'13'
p1173
sg63
g11
sbasS'_fromYear'
p1174
S'1983'
p1175
sS'_url'
p1176
S'http://www.basketball-reference.com/players/m/mcnamma01.html'
p1177
sS'_perGame'
p1178
(isrc.gp1.models.PerGame
PerGame
p1179
(dp1180
g8
S'0.0'
p1181
sg10
S'0.0'
p1182
sg12
S'.000'
p1183
sS'_effectiveFieldGalPercentage'
p1184
S'.000'
p1185
sg14
S'0.0'
p1186
sg16
g3
sg17
S'0.0'
p1187
sg18
S'0.0'
p1188
sg20
g21
sg22
g3
sg26
S'NBA'
p1189
sg28
S'0.0'
p1190
sg32
S'0.5'
p1191
sS'_fieldGoalsttempted'
p1192
S'0.5'
p1193
sg34
S'0.0'
p1194
sg36
S'2.0'
p1195
sg38
S'31'
p1196
sg40
S'ORL'
p1197
sg42
g64
sg44
S'0.0'
p1198
sg45
S'0.0'
p1199
sg47
S'0.0'
p1200
sg49
S'0.5'
p1201
sg51
S'2.0'
p1202
sg53
S'1990-91'
p1203
sg55
S'0.0'
p1204
sg57
S'0.0'
p1205
sg59
S'.000'
p1206
sg61
S'6.5'
p1207
sg63
g11
sbsS'_weight'
p1208
S'235'
p1209
sS'_dob'
p1210
S'8-6-1959'
p1211
sS'_salary'
p1212
(lp1213
(isrc.gp1.models.Salary
Salary
p1214
(dp1215
g40
S'Milwaukee Bucks'
p1216
sg26
S'NBA'
p1217
sg1212
S'$100,000'
p1218
sg53
S'1985-86'
p1219
sba(isrc.gp1.models.Salary
Salary
p1220
(dp1221
g40
S'Philadelphia 76ers'
p1222
sg26
S'NBA'
p1223
sg1212
S'$100,000'
p1224
sg53
S'1987-88'
p1225
sba(isrc.gp1.models.Salary
Salary
p1226
(dp1227
g40
S'Los Angeles Lakers'
p1228
sg26
S'NBA'
p1229
sg1212
S'$100,000'
p1230
sg53
S'1988-89'
p1231
sbasg20
S'C-F'
p1232
sb.