(isrc.gp1.models.Player
Player
p0
(dp1
S'_experience'
p2
S'NA'
p3
sS'_totals'
p4
(lp5
(isrc.gp1.models.Totals
Totals
p6
(dp7
S'_offensiveRebounds'
p8
g3
sS'_threePointsAttempted'
p9
S'.319'
p10
sS'_fieldGoalsPercentage'
p11
S'130'
p12
sS'_assist'
p13
g3
sS'_threePointsPercentage'
p14
S'.319'
p15
sS'_threePoints'
p16
S'408'
p17
sS'_points'
p18
g3
sS'_position'
p19
S'PF'
p20
sS'_freeThrowsPercentage'
p21
S'330'
p22
sS'_effectiveFieldGoalPercentage'
p23
S'193'
p24
sS'_league'
p25
S'NBA'
p26
sS'_steals'
p27
g3
sS'_fieldGoalsAttempted'
p28
S'.319'
p29
sS'_personalFouls'
p30
g3
sS'_freeThrowsAttempted'
p31
S'166'
p32
sS'_totalRebounds'
p33
g3
sS'_age'
p34
S'22'
p35
sS'_team'
p36
S'TOT'
p37
sS'_games'
p38
S'65'
p39
sS'_blocks'
p40
g3
sS'_twoPoints'
p41
S'70'
p42
sS'_freeThrows'
p43
S'37'
p44
sS'_twoPointsAttempted'
p45
S'113'
p46
sS'_defensiveRebounds'
p47
g3
sS'_season'
p48
S'1952-53'
p49
sS'_fieldGoals'
p50
S'408'
p51
sS'_turnOvers'
p52
g3
sS'_twoPointsPercentage'
p53
S'.619'
p54
sS'_minutesPlayed'
p55
S'130'
p56
sS'_gamesStarted'
p57
S'1030'
p58
sba(isrc.gp1.models.Totals
Totals
p59
(dp60
g8
g3
sg9
S'.294'
p61
sg11
S'5'
p62
sg13
g3
sg14
S'.294'
p63
sg16
S'17'
p64
sg18
g3
sg19
S'PF'
p65
sg21
S'11'
p66
sg23
S'6'
p67
sg25
S'NBA'
p68
sg27
g3
sg28
S'.294'
p69
sg30
g3
sg31
S'7'
p70
sg33
g3
sg34
S'22'
p71
sg36
S'MLH'
p72
sg38
g62
sg40
g3
sg41
S'1'
p73
sg43
g73
sg45
S'2'
p74
sg47
g3
sg48
S'1952-53'
p75
sg50
S'17'
p76
sg52
g3
sg53
S'.500'
p77
sg55
g62
sg57
S'29'
p78
sba(isrc.gp1.models.Totals
Totals
p79
(dp80
g8
g3
sg9
S'.320'
p81
sg11
S'391'
p82
sg13
g3
sg14
S'69'
p83
sg16
S'.320'
p84
sg18
g3
sg19
S'60'
p85
sg21
g3
sg23
S'36'
p86
sg25
S'NBA'
p87
sg27
g3
sg28
S'125'
p88
sg30
g3
sg31
S'319'
p89
sg33
g3
sg34
S'22'
p90
sg36
S'PHW'
p91
sg38
S'1001'
p92
sg40
g3
sg41
S'111'
p93
sg43
S'159'
p94
sg45
S'.622'
p95
sg47
g3
sg48
S'1952-53'
p96
sg50
S'.320'
p97
sg52
g3
sg53
S'187'
p98
sg55
S'391'
p99
sg57
S'125'
p100
sba(isrc.gp1.models.Totals
Totals
p101
(dp102
g8
g3
sg9
S'.417'
p103
sg11
S'60'
p104
sg13
g3
sg14
g67
sg16
S'.417'
p105
sg18
g3
sg19
S'14'
p106
sg21
g3
sg23
g70
sg25
S'NBA'
p107
sg27
g3
sg28
S'25'
p108
sg30
g3
sg31
S'56'
p109
sg33
g3
sg34
S'23'
p110
sg36
S'BLB'
p111
sg38
S'151'
p112
sg40
g3
sg41
S'10'
p113
sg43
S'31'
p114
sg45
S'.600'
p115
sg47
g3
sg48
S'1953-54'
p116
sg50
S'.417'
p117
sg52
g3
sg53
S'37'
p118
sg55
S'60'
p119
sg57
S'25'
p120
sbasS'_college'
p121
S'West Virginia University'
p122
sS'_toYear'
p123
S'1954'
p124
sS'_height'
p125
S'6-9'
p126
sS'_active'
p127
I00
sS'_shootingHand'
p128
VRight
p129
sS'_name'
p130
S'Mark Workman'
p131
sS'_per100Possessions'
p132
(lp133
sS'_advanced'
p134
(lp135
(isrc.gp1.models.Advanced
Advanced
p136
(dp137
S'_offensiveReboundPercentage'
p138
S'0.5'
p139
sS'_turnOverPercentage'
p140
g3
sS'_winSharesPer48Minutes'
p141
g3
sS'_stealPercentage'
p142
g3
sS'_usagePercentage'
p143
g3
sS'_totalReboundsPercentage'
p144
S'-0.063'
p145
sS'_defensiveBoxPlusMinus'
p146
g3
sg19
S'PF'
p147
sS'_valueOverReplacementPlayer'
p148
g3
sS'_trueShootingPercentage'
p149
S'.360'
p150
sS'_defensiveReboundPercentage'
p151
S'-1.4'
p152
sS'_freeThrowsAttempRate'
p153
S'-1.9'
p154
sS'_threePointsAttempRate'
p155
S'.277'
p156
sg25
S'NBA'
p157
sS'_offensiveBoxPlusMinues'
p158
g3
sS'_assistPercentage'
p159
g3
sS'_defensiveWinShares'
p160
g3
sg34
S'22'
p161
sg36
S'TOT'
p162
sg38
S'65'
p163
sS'_blockPercentage'
p164
g3
sS'_playerEfficiencyRating'
p165
S'7.0'
p166
sS'_offensiveWinShares'
p167
g3
sg55
S'1030'
p168
sS'_boxPlusMinus'
p169
g3
sg48
S'1952-53'
p170
sS'_winShares'
p171
g3
sba(isrc.gp1.models.Advanced
Advanced
p172
(dp173
g138
S'0.0'
p174
sg140
g3
sg141
g3
sg142
g3
sg143
g3
sg144
S'-0.195'
p175
sg146
g3
sg19
S'PF'
p176
sg148
g3
sg149
S'.308'
p177
sg151
S'-0.1'
p178
sg153
S'-0.2'
p179
sg155
S'.118'
p180
sg25
S'NBA'
p181
sg158
g3
sg159
g3
sg160
g3
sg34
S'22'
p182
sg36
S'MLH'
p183
sg38
g62
sg164
g3
sg165
S'2.4'
p184
sg167
g3
sg55
S'29'
p185
sg169
g3
sg48
S'1952-53'
p186
sg171
g3
sba(isrc.gp1.models.Advanced
Advanced
p187
(dp188
g138
S'-1.2'
p189
sg140
g3
sg141
g3
sg142
g3
sg143
g3
sg144
g3
sg146
g3
sg19
S'60'
p190
sg148
g3
sg149
S'.284'
p191
sg151
S'-0.059'
p192
sg153
S'0.5'
p193
sg155
S'-1.7'
p194
sg25
S'NBA'
p195
sg158
g3
sg159
g3
sg160
g3
sg34
S'22'
p196
sg36
S'PHW'
p197
sg38
S'1001'
p198
sg164
g3
sg165
S'.363'
p199
sg167
g3
sg55
S'7.2'
p200
sg169
g3
sg48
S'1952-53'
p201
sg171
g3
sba(isrc.gp1.models.Advanced
Advanced
p202
(dp203
g138
S'0.1'
p204
sg140
g3
sg141
g3
sg142
g3
sg143
g3
sg144
g3
sg146
g3
sg19
S'14'
p205
sg148
g3
sg149
S'.167'
p206
sg151
S'.047'
p207
sg153
S'0.0'
p208
sg155
S'0.1'
p209
sg25
S'NBA'
p210
sg158
g3
sg159
g3
sg160
g3
sg34
S'23'
p211
sg36
S'BLB'
p212
sg38
S'151'
p213
sg164
g3
sg165
S'.435'
p214
sg167
g3
sg55
S'12.8'
p215
sg169
g3
sg48
S'1953-54'
p216
sg171
g3
sbasS'_per36Minutes'
p217
(lp218
(isrc.gp1.models.Per36Minutes
Per36Minutes
p219
(dp220
g8
g3
sg9
S'.319'
p221
sg11
S'4.5'
p222
sg13
g3
sg14
S'2.4'
p223
sg16
S'14.3'
p224
sg18
g3
sg19
S'PF'
p225
sg21
S'11.5'
p226
sg25
S'NBA'
p227
sg27
g3
sg28
S'.319'
p228
sg30
g3
sg31
S'5.8'
p229
sg33
g3
sg34
S'22'
p230
sg36
S'TOT'
p231
sg38
S'65'
p232
sg40
g3
sg41
S'3.9'
p233
sg43
S'1.3'
p234
sg45
S'.619'
p235
sg47
g3
sg48
S'1952-53'
p236
sg50
S'14.3'
p237
sg52
g3
sg53
S'6.7'
p238
sg55
S'4.5'
p239
sg57
S'1030'
p240
sba(isrc.gp1.models.Per36Minutes
Per36Minutes
p241
(dp242
g8
g3
sg9
S'.294'
p243
sg11
S'6.2'
p244
sg13
g3
sg14
S'1.2'
p245
sg16
S'21.1'
p246
sg18
g3
sg19
S'PF'
p247
sg21
S'13.7'
p248
sg25
S'NBA'
p249
sg27
g3
sg28
S'.294'
p250
sg30
g3
sg31
S'8.7'
p251
sg33
g3
sg34
S'22'
p252
sg36
S'MLH'
p253
sg38
g62
sg40
g3
sg41
S'2.5'
p254
sg43
S'1.2'
p255
sg45
S'.500'
p256
sg47
g3
sg48
S'1952-53'
p257
sg50
S'21.1'
p258
sg52
g3
sg53
S'7.4'
p259
sg55
S'6.2'
p260
sg57
S'29'
p261
sba(isrc.gp1.models.Per36Minutes
Per36Minutes
p262
(dp263
g8
g3
sg9
S'2.5'
p264
sg11
S'14.1'
p265
sg13
g3
sg14
S'4.0'
p266
sg16
S'.320'
p267
sg18
g3
sg19
S'60'
p268
sg21
g3
sg25
S'NBA'
p269
sg27
g3
sg28
S'4.5'
p270
sg30
g3
sg31
S'11.5'
p271
sg33
g3
sg34
S'22'
p272
sg36
S'PHW'
p273
sg38
S'1001'
p274
sg40
g3
sg41
S'.622'
p275
sg43
S'5.7'
p276
sg45
S'6.7'
p277
sg47
g3
sg48
S'1952-53'
p278
sg50
S'.320'
p279
sg52
g3
sg53
S'1.3'
p280
sg55
S'14.1'
p281
sg57
S'4.5'
p282
sba(isrc.gp1.models.Per36Minutes
Per36Minutes
p283
(dp284
g8
g3
sg9
S'1.4'
p285
sg11
S'14.3'
p286
sg13
g3
sg14
S'2.4'
p287
sg16
S'.417'
p288
sg18
g3
sg19
S'14'
p289
sg21
g3
sg25
S'NBA'
p290
sg27
g3
sg28
S'6.0'
p291
sg30
g3
sg31
S'13.4'
p292
sg33
g3
sg34
S'23'
p293
sg36
S'BLB'
p294
sg38
S'151'
p295
sg40
g3
sg41
S'.600'
p296
sg43
S'7.4'
p297
sg45
S'8.8'
p298
sg47
g3
sg48
S'1953-54'
p299
sg50
S'.417'
p300
sg52
g3
sg53
S'1.7'
p301
sg55
S'14.3'
p302
sg57
S'6.0'
p303
sbasS'_fromYear'
p304
S'1953'
p305
sS'_url'
p306
S'http://www.basketball-reference.com/players/w/workmma01.html'
p307
sS'_perGame'
p308
(isrc.gp1.models.PerGame
PerGame
p309
(dp310
g8
g3
sg9
S'.417'
p311
sg11
S'4.3'
p312
sS'_effectiveFieldGalPercentage'
p313
S'0.5'
p314
sg13
g3
sg14
S'0.4'
p315
sg16
S'.417'
p316
sg18
g3
sg19
S'14'
p317
sg21
g3
sg25
S'NBA'
p318
sg27
g3
sg30
g3
sS'_fieldGoalsttempted'
p319
S'1.8'
p320
sg31
S'4.0'
p321
sg33
g3
sg34
S'23'
p322
sg36
S'BLB'
p323
sg38
S'10.8'
p324
sg40
g3
sg41
S'0.7'
p325
sg43
S'2.2'
p326
sg45
S'.600'
p327
sg47
g3
sg48
S'1953-54'
p328
sg50
S'.417'
p329
sg52
g3
sg53
S'2.6'
p330
sg55
S'4.3'
p331
sg57
S'1.8'
p332
sbsS'_weight'
p333
S'215'
p334
sS'_dob'
p335
S'10-3-1930'
p336
sS'_salary'
p337
(lp338
sg19
S'F-C'
p339
sb.