(isrc.gp1.models.Player
Player
p0
(dp1
S'_experience'
p2
S'NA'
p3
sS'_totals'
p4
(lp5
(isrc.gp1.models.Totals
Totals
p6
(dp7
S'_offensiveRebounds'
p8
S'42'
p9
sS'_threePointsAttempted'
p10
S'0'
p11
sS'_fieldGoalsPercentage'
p12
S'.431'
p13
sS'_assist'
p14
S'5'
p15
sS'_threePointsPercentage'
p16
S'25'
p17
sS'_threePoints'
p18
g11
sS'_points'
p19
g3
sS'_position'
p20
S'C'
p21
sS'_freeThrowsPercentage'
p22
S'26'
p23
sS'_effectiveFieldGoalPercentage'
p24
S'9'
p25
sS'_league'
p26
S'NBA'
p27
sS'_steals'
p28
g15
sS'_fieldGoalsAttempted'
p29
S'58'
p30
sS'_personalFouls'
p31
S'59'
p32
sS'_freeThrowsAttempted'
p33
S'.692'
p34
sS'_totalRebounds'
p35
S'7'
p36
sS'_age'
p37
S'28'
p38
sS'_team'
p39
S'PHI'
p40
sS'_games'
p41
S'36'
p42
sS'_blocks'
p43
g25
sS'_twoPoints'
p44
S'58'
p45
sS'_freeThrows'
p46
S'13'
p47
sS'_twoPointsAttempted'
p48
S'.431'
p49
sS'_defensiveRebounds'
p50
S'68'
p51
sS'_season'
p52
S'1996-97'
p53
sS'_fieldGoals'
p54
S'25'
p55
sS'_turnOvers'
p56
S'34'
p57
sS'_twoPointsPercentage'
p58
S'.431'
p59
sS'_minutesPlayed'
p60
S'251'
p61
sS'_gamesStarted'
p62
g11
sbasS'_college'
p63
S'NA'
p64
sS'_toYear'
p65
S'1997'
p66
sS'_height'
p67
S'6-10'
p68
sS'_active'
p69
I00
sS'_shootingHand'
p70
VRight
p71
sS'_name'
p72
S'Mark Bradtke'
p73
sS'_per100Possessions'
p74
(lp75
(isrc.gp1.models.Per100Possession
Per100Possession
p76
(dp77
g8
S'8.4'
p78
sg10
S'0.0'
p79
sg12
S'.431'
p80
sS'_offensiveRating'
p81
S'111'
p82
sg14
S'1.0'
p83
sg16
S'5.0'
p84
sg18
S'0.0'
p85
sg19
S'104'
p86
sg20
g21
sS'_defensiveRating'
p87
g3
sg22
S'5.2'
p88
sg26
S'NBA'
p89
sg28
S'1.0'
p90
sg29
S'11.6'
p91
sg31
S'11.8'
p92
sg33
S'.692'
p93
sg35
S'1.4'
p94
sg37
S'28'
p95
sg39
S'PHI'
p96
sg41
S'36'
p97
sg43
S'1.8'
p98
sg44
S'11.6'
p99
sg46
S'2.6'
p100
sg48
S'.431'
p101
sg50
S'13.6'
p102
sg52
S'1996-97'
p103
sg54
S'5.0'
p104
sg56
S'6.8'
p105
sg58
S'1.8'
p106
sg60
S'251'
p107
sg62
g11
sbasS'_advanced'
p108
(lp109
(isrc.gp1.models.Advanced
Advanced
p110
(dp111
S'_offensiveReboundPercentage'
p112
S'11.0'
p113
sS'_turnOverPercentage'
p114
S'12.4'
p115
sS'_winSharesPer48Minutes'
p116
S'.044'
p117
sS'_stealPercentage'
p118
S'1.0'
p119
sS'_usagePercentage'
p120
S'12.2'
p121
sS'_totalReboundsPercentage'
p122
S'14.8'
p123
sS'_defensiveBoxPlusMinus'
p124
S'-1.8'
p125
sg20
g21
sS'_valueOverReplacementPlayer'
p126
S'-0.3'
p127
sS'_trueShootingPercentage'
p128
S'.463'
p129
sS'_defensiveReboundPercentage'
p130
S'18.7'
p131
sS'_freeThrowsAttempRate'
p132
S'.224'
p133
sS'_threePointsAttempRate'
p134
S'.000'
p135
sg26
S'NBA'
p136
sS'_offensiveBoxPlusMinues'
p137
S'-4.3'
p138
sS'_assistPercentage'
p139
S'4.2'
p140
sS'_defensiveWinShares'
p141
S'0.1'
p142
sg37
S'28'
p143
sg39
S'PHI'
p144
sg41
S'36'
p145
sS'_blockPercentage'
p146
S'1.4'
p147
sS'_playerEfficiencyRating'
p148
S'9.6'
p149
sS'_offensiveWinShares'
p150
S'0.1'
p151
sg60
S'251'
p152
sS'_boxPlusMinus'
p153
S'-6.1'
p154
sg52
S'1996-97'
p155
sS'_winShares'
p156
S'0.2'
p157
sbasS'_per36Minutes'
p158
(lp159
(isrc.gp1.models.Per36Minutes
Per36Minutes
p160
(dp161
g8
S'6.0'
p162
sg10
S'0.0'
p163
sg12
S'.431'
p164
sg14
S'0.7'
p165
sg16
S'3.6'
p166
sg18
S'0.0'
p167
sg19
g3
sg20
g21
sg22
S'3.7'
p168
sg26
S'NBA'
p169
sg28
S'0.7'
p170
sg29
S'8.3'
p171
sg31
S'8.5'
p172
sg33
S'.692'
p173
sg35
S'1.0'
p174
sg37
S'28'
p175
sg39
S'PHI'
p176
sg41
S'36'
p177
sg43
S'1.3'
p178
sg44
S'8.3'
p179
sg46
S'1.9'
p180
sg48
S'.431'
p181
sg50
S'9.8'
p182
sg52
S'1996-97'
p183
sg54
S'3.6'
p184
sg56
S'4.9'
p185
sg58
S'1.3'
p186
sg60
S'251'
p187
sg62
g11
sbasS'_fromYear'
p188
S'1997'
p189
sS'_url'
p190
S'http://www.basketball-reference.com/players/b/bradtma01.html'
p191
sS'_perGame'
p192
(isrc.gp1.models.PerGame
PerGame
p193
(dp194
g8
S'1.2'
p195
sg10
S'0.0'
p196
sg12
S'.431'
p197
sS'_effectiveFieldGalPercentage'
p198
S'0.3'
p199
sg14
S'0.1'
p200
sg16
S'0.7'
p201
sg18
S'0.0'
p202
sg19
g3
sg20
g21
sg22
S'0.7'
p203
sg26
S'NBA'
p204
sg28
S'0.1'
p205
sg31
S'1.6'
p206
sS'_fieldGoalsttempted'
p207
S'1.6'
p208
sg33
S'.692'
p209
sg35
S'0.2'
p210
sg37
S'28'
p211
sg39
S'PHI'
p212
sg41
S'36'
p213
sg43
S'0.3'
p214
sg44
S'1.6'
p215
sg46
S'0.4'
p216
sg48
S'.431'
p217
sg50
S'1.9'
p218
sg52
S'1996-97'
p219
sg54
S'0.7'
p220
sg56
S'0.9'
p221
sg58
S'.431'
p222
sg60
S'7.0'
p223
sg62
g11
sbsS'_weight'
p224
S'265'
p225
sS'_dob'
p226
S'27-9-1968'
p227
sS'_salary'
p228
(lp229
(isrc.gp1.models.Salary
Salary
p230
(dp231
g39
S'Philadelphia 76ers'
p232
sg26
S'NBA'
p233
sg228
S'$247,500'
p234
sg52
S'1996-97'
p235
sbasg20
S'C-F'
p236
sb.