(isrc.gp1.models.Player
Player
p0
(dp1
S'_experience'
p2
S'NA'
p3
sS'_totals'
p4
(lp5
(isrc.gp1.models.Totals
Totals
p6
(dp7
S'_offensiveRebounds'
p8
S'530'
p9
sS'_threePointsAttempted'
p10
S'302'
p11
sS'_fieldGoalsPercentage'
p12
S'0'
p13
sS'_assist'
p14
S'37'
p15
sS'_threePointsPercentage'
p16
S'607'
p17
sS'_threePoints'
p18
g13
sS'_points'
p19
g3
sS'_position'
p20
S'PF-SF'
p21
sS'_freeThrowsPercentage'
p22
S'346'
p23
sS'_effectiveFieldGoalPercentage'
p24
S'247'
p25
sS'_league'
p26
S'ABA'
p27
sS'_steals'
p28
S'141'
p29
sS'_fieldGoalsAttempted'
p30
S'.498'
p31
sS'_personalFouls'
p32
g3
sS'_freeThrowsAttempted'
p33
S'184'
p34
sS'_totalRebounds'
p35
S'50'
p36
sS'_age'
p37
S'19'
p38
sS'_team'
p39
S'TOT'
p40
sS'_games'
p41
S'81'
p42
sS'_blocks'
p43
S'249'
p44
sS'_twoPoints'
p45
S'.498'
p46
sS'_freeThrows'
p47
S'.773'
p48
sS'_twoPointsAttempted'
p49
S'.498'
p50
sS'_defensiveRebounds'
p51
S'142'
p52
sS'_season'
p53
S'1975-76'
p54
sS'_fieldGoals'
p55
S'607'
p56
sS'_turnOvers'
p57
S'795'
p58
sS'_twoPointsPercentage'
p59
S'191'
p60
sS'_minutesPlayed'
p61
S'302'
p62
sS'_gamesStarted'
p63
S'2055'
p64
sba(isrc.gp1.models.Totals
Totals
p65
(dp66
g8
S'105'
p67
sg10
S'69'
p68
sg12
g13
sg14
S'7'
p69
sg16
S'144'
p70
sg18
g13
sg19
g3
sg20
S'SF'
p71
sg22
S'70'
p72
sg24
S'43'
p73
sg26
S'ABA'
p74
sg28
S'27'
p75
sg30
S'.479'
p76
sg32
g3
sg33
S'35'
p77
sg35
S'10'
p78
sg37
S'19'
p79
sg39
S'SDS'
p80
sg41
S'11'
p81
sg43
S'52'
p82
sg45
S'.479'
p83
sg47
S'.698'
p84
sg49
S'.479'
p85
sg51
S'18'
p86
sg53
S'1975-76'
p87
sg55
S'144'
p88
sg57
S'168'
p89
sg59
S'30'
p90
sg61
S'69'
p91
sg63
S'434'
p92
sba(isrc.gp1.models.Totals
Totals
p93
(dp94
g8
S'425'
p95
sg10
S'233'
p96
sg12
g13
sg14
S'30'
p97
sg16
S'463'
p98
sg18
g13
sg19
g3
sg20
S'PF'
p99
sg22
S'276'
p100
sg24
S'204'
p101
sg26
S'ABA'
p102
sg28
S'114'
p103
sg30
S'.503'
p104
sg32
g3
sg33
S'149'
p105
sg35
S'40'
p106
sg37
S'19'
p107
sg39
S'SAA'
p108
sg41
S'70'
p109
sg43
S'197'
p110
sg45
S'.503'
p111
sg47
S'.789'
p112
sg49
S'.503'
p113
sg51
S'124'
p114
sg53
S'1975-76'
p115
sg55
S'463'
p116
sg57
S'627'
p117
sg59
S'161'
p118
sg61
S'233'
p119
sg63
S'1621'
p120
sba(isrc.gp1.models.Totals
Totals
p121
(dp122
g8
S'59'
p123
sg10
S'.503'
p124
sg12
S'301'
p125
sg14
S'853'
p126
sg16
S'.503'
p127
sg18
S'598'
p128
sg19
g3
sg20
S'PF'
p129
sg22
S'119'
p130
sg24
S'162'
p131
sg26
S'NBA'
p132
sg28
g3
sg30
S'.503'
p133
sg32
g3
sg33
S'449'
p134
sg35
S'277'
p135
sg37
S'20'
p136
sg39
S'SAS'
p137
sg41
S'82'
p138
sg43
g3
sg45
S'251'
p139
sg47
S'287'
p140
sg49
S'316'
p141
sg51
S'29'
p142
sg53
S'1976-77'
p143
sg55
S'598'
p144
sg57
g3
sg59
S'.794'
p145
sg61
S'301'
p146
sg63
S'1949'
p147
sba(isrc.gp1.models.Totals
Totals
p148
(dp149
g8
S'45'
p150
sg10
S'.481'
p151
sg12
S'231'
p152
sg14
S'235'
p153
sg16
S'.481'
p154
sg18
S'480'
p155
sg19
g3
sg20
S'PF'
p156
sg22
S'131'
p157
sg24
S'104'
p158
sg26
S'NBA'
p159
sg28
S'646'
p160
sg30
S'.481'
p161
sg32
g3
sg33
S'373'
p162
sg35
S'118'
p163
sg37
S'21'
p164
sg39
S'SAS'
p165
sg41
S'79'
p166
sg43
g3
sg45
S'184'
p167
sg47
S'269'
p168
sg49
S'227'
p169
sg51
S'26'
p170
sg53
S'1977-78'
p171
sg55
S'480'
p172
sg57
g3
sg59
S'.811'
p173
sg61
S'231'
p174
sg63
S'1773'
p175
sba(isrc.gp1.models.Totals
Totals
p176
(dp177
g8
S'53'
p178
sg10
S'.474'
p179
sg12
S'261'
p180
sg14
S'282'
p181
sg16
S'.474'
p182
sg18
S'551'
p183
sg19
g3
sg20
S'PF'
p184
sg22
S'211'
p185
sg24
S'96'
p186
sg26
S'NBA'
p187
sg28
S'755'
p188
sg30
S'.474'
p189
sg32
g3
sg33
S'429'
p190
sg35
S'163'
p191
sg37
S'22'
p192
sg39
S'SAS'
p193
sg41
S'80'
p194
sg43
g3
sg45
S'233'
p195
sg47
S'333'
p196
sg49
S'290'
p197
sg51
S'18'
p198
sg53
S'1978-79'
p199
sg55
S'551'
p200
sg57
g3
sg59
S'.803'
p201
sg61
S'261'
p202
sg63
S'1885'
p203
sba(isrc.gp1.models.Totals
Totals
p204
(dp205
g8
S'335'
p206
sg10
S'.000'
p207
sg12
g13
sg14
S'67'
p208
sg16
S'291'
p209
sg18
S'3'
p210
sg19
g3
sg20
S'SF'
p211
sg22
S'83'
p212
sg24
S'210'
p213
sg26
S'NBA'
p214
sg28
S'22'
p215
sg30
S'.478'
p216
sg32
S'792'
p217
sg33
S'.795'
p218
sg35
S'327'
p219
sg37
S'23'
p220
sg39
S'SAS'
p221
sg41
S'75'
p222
sg43
S'180'
p223
sg45
S'606'
p224
sg47
S'264'
p225
sg49
S'.480'
p226
sg51
S'418'
p227
sg53
S'1979-80'
p228
sg55
S'609'
p229
sg57
S'274'
p230
sg59
S'.478'
p231
sg61
S'291'
p232
sg63
S'2111'
p233
sba(isrc.gp1.models.Totals
Totals
p234
(dp235
g8
S'325'
p236
sg10
S'.143'
p237
sg12
S'1'
p238
sg14
S'75'
p239
sg16
S'347'
p240
sg18
g69
sg19
g3
sg20
S'SF'
p241
sg22
S'146'
p242
sg24
S'315'
p243
sg26
S'NBA'
p244
sg28
S'31'
p245
sg30
S'.508'
p246
sg32
S'1012'
p247
sg33
S'.829'
p248
sg35
S'277'
p249
sg37
S'24'
p250
sg39
S'SAS'
p251
sg41
S'82'
p252
sg43
S'202'
p253
sg45
S'678'
p254
sg47
S'380'
p255
sg49
S'.512'
p256
sg51
S'471'
p257
sg53
S'1980-81'
p258
sg55
S'685'
p259
sg57
S'307'
p260
sg59
S'.509'
p261
sg61
S'348'
p262
sg63
S'2408'
p263
sba(isrc.gp1.models.Totals
Totals
p264
(dp265
g8
S'118'
p266
sg10
S'12'
p267
sg12
S'.472'
p268
sg14
S'202'
p269
sg16
S'.167'
p270
sg18
S'2'
p271
sg19
S'941'
p272
sg20
S'PF'
p273
sg22
S'.808'
p274
sg24
S'.474'
p275
sg26
S'NBA'
p276
sg28
S'57'
p277
sg30
S'705'
p278
sg32
S'253'
p279
sg33
S'338'
p280
sg35
S'439'
p281
sg37
S'25'
p282
sg39
S'SAS'
p283
sg41
S'68'
p284
sg43
S'29'
p285
sg45
S'331'
p286
sg47
S'273'
p287
sg49
S'693'
p288
sg51
S'321'
p289
sg53
S'1981-82'
p290
sg55
S'333'
p291
sg57
S'139'
p292
sg59
S'.478'
p293
sg61
S'2098'
p294
sg63
S'63'
p295
sba(isrc.gp1.models.Totals
Totals
p296
(dp297
g8
S'108'
p298
sg10
S'12'
p299
sg12
S'.481'
p300
sg14
S'131'
p301
sg16
S'.167'
p302
sg18
g271
sg19
S'698'
p303
sg20
S'PF'
p304
sg22
S'.782'
p305
sg24
S'.483'
p306
sg26
S'NBA'
p307
sg28
S'50'
p308
sg30
S'522'
p309
sg32
S'246'
p310
sg33
S'248'
p311
sg35
S'358'
p312
sg37
S'26'
p313
sg39
S'CHI'
p314
sg41
S'80'
p315
sg43
S'9'
p316
sg45
S'249'
p317
sg47
S'194'
p318
sg49
S'510'
p319
sg51
S'250'
p320
sg53
S'1982-83'
p321
sg55
S'251'
p322
sg57
S'152'
p323
sg59
S'.488'
p324
sg61
S'1817'
p325
sg63
S'31'
p326
sba(isrc.gp1.models.Totals
Totals
p327
(dp328
g8
S'119'
p329
sg10
g238
sg12
S'.494'
p330
sg14
S'192'
p331
sg16
S'.000'
p332
sg18
g13
sg19
S'759'
p333
sg20
S'PF'
p334
sg22
S'.821'
p335
sg24
S'.494'
p336
sg26
S'NBA'
p337
sg28
S'50'
p338
sg30
S'504'
p339
sg32
S'291'
p340
sg33
S'318'
p341
sg35
S'445'
p342
sg37
S'27'
p343
sg39
S'KCK'
p344
sg41
S'81'
p345
sg43
S'28'
p346
sg45
S'249'
p347
sg47
S'261'
p348
sg49
S'503'
p349
sg51
S'326'
p350
sg53
S'1983-84'
p351
sg55
S'249'
p352
sg57
S'166'
p353
sg59
S'.495'
p354
sg61
S'2160'
p355
sg63
S'81'
p356
sba(isrc.gp1.models.Totals
Totals
p357
(dp358
g8
S'139'
p359
sg10
g210
sg12
S'.502'
p360
sg14
S'243'
p361
sg16
S'.000'
p362
sg18
g13
sg19
S'823'
p363
sg20
S'PF'
p364
sg22
S'.832'
p365
sg24
S'.502'
p366
sg26
S'NBA'
p367
sg28
S'56'
p368
sg30
S'528'
p369
sg32
S'298'
p370
sg33
S'352'
p371
sg35
S'513'
p372
sg37
S'28'
p373
sg39
S'KCK'
p374
sg41
S'81'
p375
sg43
S'11'
p376
sg45
S'265'
p377
sg47
S'293'
p378
sg49
S'525'
p379
sg51
S'374'
p380
sg53
S'1984-85'
p381
sg55
S'265'
p382
sg57
S'185'
p383
sg59
S'.505'
p384
sg61
S'2277'
p385
sg63
S'62'
p386
sba(isrc.gp1.models.Totals
Totals
p387
(dp388
g8
S'113'
p389
sg10
g271
sg12
S'.558'
p390
sg14
S'266'
p391
sg16
S'.000'
p392
sg18
g13
sg19
S'612'
p393
sg20
S'PF'
p394
sg22
S'.771'
p395
sg24
S'.558'
p396
sg26
S'NBA'
p397
sg28
S'43'
p398
sg30
S'403'
p399
sg32
S'276'
p400
sg33
S'210'
p401
sg35
S'423'
p402
sg37
S'29'
p403
sg39
S'SAC'
p404
sg41
S'81'
p405
sg43
S'23'
p406
sg45
S'225'
p407
sg47
S'162'
p408
sg49
S'401'
p409
sg51
S'310'
p410
sg53
S'1985-86'
p411
sg55
S'225'
p412
sg57
S'148'
p413
sg59
S'.561'
p414
sg61
S'2157'
p415
sg63
S'64'
p416
sba(isrc.gp1.models.Totals
Totals
p417
(dp418
g8
S'50'
p419
sg10
g238
sg12
S'.418'
p420
sg14
S'91'
p421
sg16
S'.000'
p422
sg18
g13
sg19
S'254'
p423
sg20
S'PF'
p424
sg22
S'.885'
p425
sg24
S'.418'
p426
sg26
S'NBA'
p427
sg28
S'18'
p428
sg30
S'165'
p429
sg32
S'144'
p430
sg33
S'131'
p431
sg35
S'185'
p432
sg37
S'30'
p433
sg39
S'SAC'
p434
sg41
S'76'
p435
sg43
g316
sg45
S'69'
p436
sg47
S'116'
p437
sg49
S'164'
p438
sg51
S'135'
p439
sg53
S'1986-87'
p440
sg55
S'69'
p441
sg57
S'56'
p442
sg59
S'.421'
p443
sg61
S'1002'
p444
sg63
g13
sbasS'_college'
p445
S'University of Minnesota'
p446
sS'_toYear'
p447
S'1987'
p448
sS'_height'
p449
S'6-8'
p450
sS'_active'
p451
I00
sS'_shootingHand'
p452
VRight
p453
sS'_name'
p454
S'Mark Olberding'
p455
sS'_per100Possessions'
p456
(lp457
(isrc.gp1.models.Per100Possession
Per100Possession
p458
(dp459
g8
S'11.7'
p460
sg10
S'6.7'
p461
sg12
S'0.0'
p462
sS'_offensiveRating'
p463
g3
sg14
S'0.8'
p464
sg16
S'13.5'
p465
sg18
S'0.0'
p466
sg19
S'104'
p467
sg20
S'PF-SF'
p468
sS'_defensiveRating'
p469
g3
sg22
S'7.7'
p470
sg26
S'ABA'
p471
sg28
S'3.1'
p472
sg30
S'.498'
p473
sg32
S'110'
p474
sg33
S'4.1'
p475
sg35
S'1.1'
p476
sg37
S'19'
p477
sg39
S'TOT'
p478
sg41
S'81'
p479
sg43
S'5.5'
p480
sg45
S'.498'
p481
sg47
S'.773'
p482
sg49
S'4.2'
p483
sg51
S'3.1'
p484
sg53
S'1975-76'
p485
sg55
S'13.5'
p486
sg57
S'17.6'
p487
sg59
S'5.5'
p488
sg61
S'6.7'
p489
sg63
S'2055'
p490
sba(isrc.gp1.models.Per100Possession
Per100Possession
p491
(dp492
g8
S'11.6'
p493
sg10
S'7.6'
p494
sg12
S'0.0'
p495
sg463
g3
sg14
S'0.8'
p496
sg16
S'15.9'
p497
sg18
S'0.0'
p498
sg19
S'103'
p499
sg20
S'SF'
p500
sg469
g3
sg22
S'7.7'
p501
sg26
S'ABA'
p502
sg28
S'3.0'
p503
sg30
S'.479'
p504
sg32
S'103'
p505
sg33
S'3.9'
p506
sg35
S'1.1'
p507
sg37
S'19'
p508
sg39
S'SDS'
p509
sg41
S'11'
p510
sg43
S'5.7'
p511
sg45
S'.479'
p512
sg47
S'.698'
p513
sg49
S'3.3'
p514
sg51
S'2.0'
p515
sg53
S'1975-76'
p516
sg55
S'15.9'
p517
sg57
S'18.5'
p518
sg59
S'4.7'
p519
sg61
S'7.6'
p520
sg63
S'434'
p521
sba(isrc.gp1.models.Per100Possession
Per100Possession
p522
(dp523
g8
S'11.8'
p524
sg10
S'6.5'
p525
sg12
S'0.0'
p526
sg463
g3
sg14
S'0.8'
p527
sg16
S'12.8'
p528
sg18
S'0.0'
p529
sg19
S'104'
p530
sg20
S'PF'
p531
sg469
g3
sg22
S'7.7'
p532
sg26
S'ABA'
p533
sg28
S'3.2'
p534
sg30
S'.503'
p535
sg32
S'111'
p536
sg33
S'4.1'
p537
sg35
S'1.1'
p538
sg37
S'19'
p539
sg39
S'SAA'
p540
sg41
S'70'
p541
sg43
S'5.5'
p542
sg45
S'.503'
p543
sg47
S'.789'
p544
sg49
S'4.5'
p545
sg51
S'3.4'
p546
sg53
S'1975-76'
p547
sg55
S'12.8'
p548
sg57
S'17.4'
p549
sg59
S'5.7'
p550
sg61
S'6.5'
p551
sg63
S'1621'
p552
sba(isrc.gp1.models.Per100Possession
Per100Possession
p553
(dp554
g8
S'1.3'
p555
sg10
S'.503'
p556
sg12
S'6.6'
p557
sg463
g3
sg14
S'18.8'
p558
sg16
S'5.5'
p559
sg18
S'13.2'
p560
sg19
g3
sg20
S'PF'
p561
sg469
g3
sg22
S'2.6'
p562
sg26
S'NBA'
p563
sg28
S'103'
p564
sg30
S'.503'
p565
sg32
g3
sg33
S'9.9'
p566
sg35
S'6.1'
p567
sg37
S'20'
p568
sg39
S'SAS'
p569
sg41
S'82'
p570
sg43
g3
sg45
S'7.0'
p571
sg47
S'6.3'
p572
sg49
S'.794'
p573
sg51
S'0.6'
p574
sg53
S'1976-77'
p575
sg55
S'13.2'
p576
sg57
g3
sg59
S'3.6'
p577
sg61
S'6.6'
p578
sg63
S'1949'
p579
sba(isrc.gp1.models.Per100Possession
Per100Possession
p580
(dp581
g8
S'1.1'
p582
sg10
S'.481'
p583
sg12
S'5.7'
p584
sg463
g3
sg14
S'5.8'
p585
sg16
S'4.6'
p586
sg18
S'11.9'
p587
sg19
g3
sg20
S'PF'
p588
sg469
g3
sg22
S'3.3'
p589
sg26
S'NBA'
p590
sg28
S'16.1'
p591
sg30
S'.481'
p592
sg32
g3
sg33
S'9.3'
p593
sg35
S'2.9'
p594
sg37
S'21'
p595
sg39
S'SAS'
p596
sg41
S'79'
p597
sg43
S'107'
p598
sg45
S'5.6'
p599
sg47
S'6.7'
p600
sg49
S'.811'
p601
sg51
S'0.6'
p602
sg53
S'1977-78'
p603
sg55
S'11.9'
p604
sg57
S'103'
p605
sg59
S'2.6'
p606
sg61
S'5.7'
p607
sg63
S'1773'
p608
sba(isrc.gp1.models.Per100Possession
Per100Possession
p609
(dp610
g8
S'1.2'
p611
sg10
S'.474'
p612
sg12
S'6.0'
p613
sg463
g3
sg14
S'6.5'
p614
sg16
S'5.4'
p615
sg18
S'12.7'
p616
sg19
g3
sg20
S'PF'
p617
sg469
g3
sg22
S'4.9'
p618
sg26
S'NBA'
p619
sg28
S'17.4'
p620
sg30
S'.474'
p621
sg32
g3
sg33
S'9.9'
p622
sg35
S'3.8'
p623
sg37
S'22'
p624
sg39
S'SAS'
p625
sg41
S'80'
p626
sg43
S'105'
p627
sg45
S'6.7'
p628
sg47
S'7.7'
p629
sg49
S'.803'
p630
sg51
S'0.4'
p631
sg53
S'1978-79'
p632
sg55
S'12.7'
p633
sg57
S'103'
p634
sg59
S'2.2'
p635
sg61
S'6.0'
p636
sg63
S'1885'
p637
sba(isrc.gp1.models.Per100Possession
Per100Possession
p638
(dp639
g8
S'7.0'
p640
sg10
S'.000'
p641
sg12
S'0.0'
p642
sg463
S'109'
p643
sg14
S'1.4'
p644
sg16
S'6.0'
p645
sg18
S'0.1'
p646
sg19
S'105'
p647
sg20
S'SF'
p648
sg469
g3
sg22
S'1.7'
p649
sg26
S'NBA'
p650
sg28
S'0.5'
p651
sg30
S'.478'
p652
sg32
S'16.5'
p653
sg33
S'.795'
p654
sg35
S'6.8'
p655
sg37
S'23'
p656
sg39
S'SAS'
p657
sg41
S'75'
p658
sg43
S'3.7'
p659
sg45
S'12.6'
p660
sg47
S'5.5'
p661
sg49
S'.480'
p662
sg51
S'8.7'
p663
sg53
S'1979-80'
p664
sg55
S'12.6'
p665
sg57
S'5.7'
p666
sg59
S'4.4'
p667
sg61
S'6.0'
p668
sg63
S'2111'
p669
sba(isrc.gp1.models.Per100Possession
Per100Possession
p670
(dp671
g8
S'6.3'
p672
sg10
S'.143'
p673
sg12
S'0.0'
p674
sg463
S'106'
p675
sg14
S'1.5'
p676
sg16
S'6.7'
p677
sg18
S'0.1'
p678
sg19
S'114'
p679
sg20
S'SF'
p680
sg469
g3
sg22
S'2.8'
p681
sg26
S'NBA'
p682
sg28
S'0.6'
p683
sg30
S'.508'
p684
sg32
S'19.6'
p685
sg33
S'.829'
p686
sg35
S'5.4'
p687
sg37
S'24'
p688
sg39
S'SAS'
p689
sg41
S'82'
p690
sg43
S'3.9'
p691
sg45
S'13.1'
p692
sg47
S'7.4'
p693
sg49
S'.512'
p694
sg51
S'9.1'
p695
sg53
S'1980-81'
p696
sg55
S'13.3'
p697
sg57
S'5.9'
p698
sg59
S'6.1'
p699
sg61
S'6.7'
p700
sg63
S'2408'
p701
sba(isrc.gp1.models.Per100Possession
Per100Possession
p702
(dp703
g8
S'2.6'
p704
sg10
S'0.3'
p705
sg12
S'.472'
p706
sg463
S'111'
p707
sg14
S'4.5'
p708
sg16
S'.167'
p709
sg18
S'0.0'
p710
sg19
S'21.0'
p711
sg20
S'PF'
p712
sg469
S'108'
p713
sg22
S'.808'
p714
sg26
S'NBA'
p715
sg28
S'1.3'
p716
sg30
S'15.7'
p717
sg32
S'5.6'
p718
sg33
S'7.5'
p719
sg35
S'9.8'
p720
sg37
S'25'
p721
sg39
S'SAS'
p722
sg41
S'68'
p723
sg43
S'0.6'
p724
sg45
S'7.4'
p725
sg47
S'6.1'
p726
sg49
S'15.5'
p727
sg51
S'7.2'
p728
sg53
S'1981-82'
p729
sg55
S'7.4'
p730
sg57
S'3.1'
p731
sg59
S'.478'
p732
sg61
S'2098'
p733
sg63
S'63'
p734
sba(isrc.gp1.models.Per100Possession
Per100Possession
p735
(dp736
g8
S'2.7'
p737
sg10
S'0.3'
p738
sg12
S'.481'
p739
sg463
S'103'
p740
sg14
S'3.3'
p741
sg16
S'.167'
p742
sg18
S'0.0'
p743
sg19
S'17.4'
p744
sg20
S'PF'
p745
sg469
S'109'
p746
sg22
S'.782'
p747
sg26
S'NBA'
p748
sg28
S'1.2'
p749
sg30
S'13.0'
p750
sg32
S'6.1'
p751
sg33
S'6.2'
p752
sg35
S'8.9'
p753
sg37
S'26'
p754
sg39
S'CHI'
p755
sg41
S'80'
p756
sg43
S'0.2'
p757
sg45
S'6.2'
p758
sg47
S'4.8'
p759
sg49
S'12.7'
p760
sg51
S'6.2'
p761
sg53
S'1982-83'
p762
sg55
S'6.2'
p763
sg57
S'3.8'
p764
sg59
S'.488'
p765
sg61
S'1817'
p766
sg63
S'31'
p767
sba(isrc.gp1.models.Per100Possession
Per100Possession
p768
(dp769
g8
S'2.6'
p770
sg10
S'0.0'
p771
sg12
S'.494'
p772
sg463
S'109'
p773
sg14
S'4.1'
p774
sg16
S'.000'
p775
sg18
S'0.0'
p776
sg19
S'16.4'
p777
sg20
S'PF'
p778
sg469
S'108'
p779
sg22
S'.821'
p780
sg26
S'NBA'
p781
sg28
S'1.1'
p782
sg30
S'10.9'
p783
sg32
S'6.3'
p784
sg33
S'6.9'
p785
sg35
S'9.6'
p786
sg37
S'27'
p787
sg39
S'KCK'
p788
sg41
S'81'
p789
sg43
S'0.6'
p790
sg45
S'5.4'
p791
sg47
S'5.6'
p792
sg49
S'10.9'
p793
sg51
S'7.0'
p794
sg53
S'1983-84'
p795
sg55
S'5.4'
p796
sg57
S'3.6'
p797
sg59
S'.495'
p798
sg61
S'2160'
p799
sg63
S'81'
p800
sba(isrc.gp1.models.Per100Possession
Per100Possession
p801
(dp802
g8
S'2.8'
p803
sg10
S'0.1'
p804
sg12
S'.502'
p805
sg463
S'112'
p806
sg14
S'4.9'
p807
sg16
S'.000'
p808
sg18
S'0.0'
p809
sg19
S'16.6'
p810
sg20
S'PF'
p811
sg469
S'112'
p812
sg22
S'.832'
p813
sg26
S'NBA'
p814
sg28
S'1.1'
p815
sg30
S'10.7'
p816
sg32
S'6.0'
p817
sg33
S'7.1'
p818
sg35
S'10.4'
p819
sg37
S'28'
p820
sg39
S'KCK'
p821
sg41
S'81'
p822
sg43
S'0.2'
p823
sg45
S'5.3'
p824
sg47
S'5.9'
p825
sg49
S'10.6'
p826
sg51
S'7.6'
p827
sg53
S'1984-85'
p828
sg55
S'5.3'
p829
sg57
S'3.7'
p830
sg59
S'.505'
p831
sg61
S'2277'
p832
sg63
S'62'
p833
sba(isrc.gp1.models.Per100Possession
Per100Possession
p834
(dp835
g8
S'2.5'
p836
sg10
S'0.0'
p837
sg12
S'.558'
p838
sg463
S'112'
p839
sg14
S'5.8'
p840
sg16
S'.000'
p841
sg18
S'0.0'
p842
sg19
S'13.4'
p843
sg20
S'PF'
p844
sg469
S'110'
p845
sg22
S'.771'
p846
sg26
S'NBA'
p847
sg28
S'0.9'
p848
sg30
S'8.8'
p849
sg32
S'6.0'
p850
sg33
S'4.6'
p851
sg35
S'9.2'
p852
sg37
S'29'
p853
sg39
S'SAC'
p854
sg41
S'81'
p855
sg43
S'0.5'
p856
sg45
S'4.9'
p857
sg47
S'3.5'
p858
sg49
S'8.8'
p859
sg51
S'6.8'
p860
sg53
S'1985-86'
p861
sg55
S'4.9'
p862
sg57
S'3.2'
p863
sg59
S'.561'
p864
sg61
S'2157'
p865
sg63
S'64'
p866
sba(isrc.gp1.models.Per100Possession
Per100Possession
p867
(dp868
g8
S'2.4'
p869
sg10
S'0.0'
p870
sg12
S'.418'
p871
sg463
S'113'
p872
sg14
S'4.3'
p873
sg16
S'.000'
p874
sg18
S'0.0'
p875
sg19
S'12.0'
p876
sg20
S'PF'
p877
sg469
S'113'
p878
sg22
S'.885'
p879
sg26
S'NBA'
p880
sg28
S'0.9'
p881
sg30
S'7.8'
p882
sg32
S'6.8'
p883
sg33
S'6.2'
p884
sg35
S'8.7'
p885
sg37
S'30'
p886
sg39
S'SAC'
p887
sg41
S'76'
p888
sg43
S'0.4'
p889
sg45
S'3.3'
p890
sg47
S'5.5'
p891
sg49
S'7.8'
p892
sg51
S'6.4'
p893
sg53
S'1986-87'
p894
sg55
S'3.3'
p895
sg57
S'2.6'
p896
sg59
S'.421'
p897
sg61
S'1002'
p898
sg63
g13
sbasS'_advanced'
p899
(lp900
(isrc.gp1.models.Advanced
Advanced
p901
(dp902
S'_offensiveReboundPercentage'
p903
S'9.1'
p904
sS'_turnOverPercentage'
p905
S'16.5'
p906
sS'_winSharesPer48Minutes'
p907
S'.118'
p908
sS'_stealPercentage'
p909
S'1.1'
p910
sS'_usagePercentage'
p911
S'16.1'
p912
sS'_totalReboundsPercentage'
p913
S'12.8'
p914
sS'_defensiveBoxPlusMinus'
p915
S'0.3'
p916
sg20
S'PF-SF'
p917
sS'_valueOverReplacementPlayer'
p918
S'2.8'
p919
sS'_trueShootingPercentage'
p920
S'.555'
p921
sS'_defensiveReboundPercentage'
p922
S'16.3'
p923
sS'_freeThrowsAttempRate'
p924
S'.407'
p925
sS'_threePointsAttempRate'
p926
S'.000'
p927
sg26
S'ABA'
p928
sS'_offensiveBoxPlusMinues'
p929
S'0.1'
p930
sS'_assistPercentage'
p931
S'8.7'
p932
sS'_defensiveWinShares'
p933
S'2.2'
p934
sg37
S'19'
p935
sg39
S'TOT'
p936
sg41
S'81'
p937
sS'_blockPercentage'
p938
S'1.0'
p939
sS'_playerEfficiencyRating'
p940
S'13.7'
p941
sS'_offensiveWinShares'
p942
S'2.9'
p943
sg61
S'2055'
p944
sS'_boxPlusMinus'
p945
S'0.4'
p946
sg53
S'1975-76'
p947
sS'_winShares'
p948
S'5.1'
p949
sba(isrc.gp1.models.Advanced
Advanced
p950
(dp951
g903
S'7.6'
p952
sg905
S'14.2'
p953
sg907
S'.096'
p954
sg909
S'1.1'
p955
sg911
S'17.3'
p956
sg913
S'11.8'
p957
sg915
S'1.0'
p958
sg20
S'SF'
p959
sg918
S'1.7'
p960
sg920
S'.516'
p961
sg922
S'16.3'
p962
sg924
S'.299'
p963
sg926
S'.000'
p964
sg26
S'ABA'
p965
sg929
S'-0.9'
p966
sg931
S'6.3'
p967
sg933
S'0.5'
p968
sg37
S'19'
p969
sg39
S'SDS'
p970
sg41
S'11'
p971
sg938
S'0.9'
p972
sg940
S'12.6'
p973
sg942
S'0.3'
p974
sg61
S'434'
p975
sg945
S'0.1'
p976
sg53
S'1975-76'
p977
sg948
S'0.9'
p978
sba(isrc.gp1.models.Advanced
Advanced
p979
(dp980
g903
S'9.5'
p981
sg905
S'17.1'
p982
sg907
S'.124'
p983
sg909
S'1.1'
p984
sg911
S'15.8'
p985
sg913
S'13.0'
p986
sg915
S'0.1'
p987
sg20
S'PF'
p988
sg918
S'1.0'
p989
sg920
S'.567'
p990
sg922
S'16.3'
p991
sg924
S'.441'
p992
sg926
S'.000'
p993
sg26
S'ABA'
p994
sg929
S'0.4'
p995
sg931
S'9.4'
p996
sg933
S'1.6'
p997
sg37
S'19'
p998
sg39
S'SAA'
p999
sg41
S'70'
p1000
sg938
S'1.0'
p1001
sg940
S'13.9'
p1002
sg942
S'2.6'
p1003
sg61
S'1621'
p1004
sg945
S'0.5'
p1005
sg53
S'1975-76'
p1006
sg948
S'4.2'
p1007
sba(isrc.gp1.models.Advanced
Advanced
p1008
(dp1009
g903
S'15.0'
p1010
sg905
S'1.2'
p1011
sg907
S'-0.5'
p1012
sg909
S'0.7'
p1013
sg911
S'4.3'
p1014
sg913
S'7.8'
p1015
sg915
g3
sg20
S'PF'
p1016
sg918
g3
sg920
S'.579'
p1017
sg922
S'11.9'
p1018
sg924
S'8.6'
p1019
sg926
S'.528'
p1020
sg26
S'NBA'
p1021
sg929
S'0.8'
p1022
sg931
S'1.3'
p1023
sg933
S'0.7'
p1024
sg37
S'20'
p1025
sg39
S'SAS'
p1026
sg41
S'82'
p1027
sg938
S'3.1'
p1028
sg940
S'14.2'
p1029
sg942
S'.106'
p1030
sg61
S'1949'
p1031
sg945
g3
sg53
S'1976-77'
p1032
sg948
S'-1.1'
p1033
sba(isrc.gp1.models.Advanced
Advanced
p1034
(dp1035
g903
S'15.2'
p1036
sg905
S'15.2'
p1037
sg907
S'-0.3'
p1038
sg909
S'0.7'
p1039
sg911
S'2.5'
p1040
sg913
S'8.9'
p1041
sg915
S'-0.7'
p1042
sg20
S'PF'
p1043
sg918
g3
sg920
S'.557'
p1044
sg922
S'11.0'
p1045
sg924
S'6.4'
p1046
sg926
S'.473'
p1047
sg26
S'NBA'
p1048
sg929
S'-0.4'
p1049
sg931
S'1.1'
p1050
sg933
S'3.9'
p1051
sg37
S'21'
p1052
sg39
S'SAS'
p1053
sg41
S'79'
p1054
sg938
S'16.9'
p1055
sg940
S'12.1'
p1056
sg942
S'1.4'
p1057
sg61
S'1773'
p1058
sg945
S'0.6'
p1059
sg53
S'1977-78'
p1060
sg948
S'.105'
p1061
sba(isrc.gp1.models.Advanced
Advanced
p1062
(dp1063
g903
S'17.9'
p1064
sg905
S'16.9'
p1065
sg907
S'-0.8'
p1066
sg909
S'0.5'
p1067
sg911
S'2.0'
p1068
sg913
S'13.1'
p1069
sg915
S'-0.4'
p1070
sg20
S'PF'
p1071
sg918
g3
sg920
S'.556'
p1072
sg922
S'12.0'
p1073
sg924
S'5.6'
p1074
sg926
S'.526'
p1075
sg26
S'NBA'
p1076
sg929
S'0.4'
p1077
sg931
S'1.2'
p1078
sg933
S'4.2'
p1079
sg37
S'22'
p1080
sg39
S'SAS'
p1081
sg41
S'80'
p1082
sg938
S'19.4'
p1083
sg940
S'12.4'
p1084
sg942
S'2.2'
p1085
sg61
S'1885'
p1086
sg945
S'0.8'
p1087
sg53
S'1978-79'
p1088
sg948
S'.106'
p1089
sba(isrc.gp1.models.Advanced
Advanced
p1090
(dp1091
g903
S'4.3'
p1092
sg905
S'19.9'
p1093
sg907
S'.071'
p1094
sg909
S'1.4'
p1095
sg911
S'16.2'
p1096
sg913
S'10.6'
p1097
sg915
S'0.1'
p1098
sg20
S'SF'
p1099
sg918
S'0.9'
p1100
sg920
S'.546'
p1101
sg922
S'16.7'
p1102
sg924
S'.433'
p1103
sg926
S'.005'
p1104
sg26
S'NBA'
p1105
sg929
S'-0.5'
p1106
sg931
S'18.5'
p1107
sg933
S'1.2'
p1108
sg37
S'23'
p1109
sg39
S'SAS'
p1110
sg41
S'75'
p1111
sg938
S'0.5'
p1112
sg940
S'12.4'
p1113
sg942
S'1.9'
p1114
sg61
S'2111'
p1115
sg945
S'-0.4'
p1116
sg53
S'1979-80'
p1117
sg948
S'3.1'
p1118
sba(isrc.gp1.models.Advanced
Advanced
p1119
(dp1120
g903
S'6.9'
p1121
sg905
S'19.2'
p1122
sg907
S'.132'
p1123
sg909
S'1.5'
p1124
sg911
S'17.4'
p1125
sg913
S'10.6'
p1126
sg915
S'0.4'
p1127
sg20
S'SF'
p1128
sg918
S'2.3'
p1129
sg920
S'.594'
p1130
sg922
S'14.1'
p1131
sg924
S'.555'
p1132
sg926
S'.010'
p1133
sg26
S'NBA'
p1134
sg929
S'1.3'
p1135
sg931
S'15.2'
p1136
sg933
S'2.3'
p1137
sg37
S'24'
p1138
sg39
S'SAS'
p1139
sg41
S'82'
p1140
sg938
S'0.7'
p1141
sg940
S'14.8'
p1142
sg942
S'4.4'
p1143
sg61
S'2408'
p1144
sg945
S'1.7'
p1145
sg53
S'1980-81'
p1146
sg948
S'6.6'
p1147
sba(isrc.gp1.models.Advanced
Advanced
p1148
(dp1149
g903
S'6.0'
p1150
sg905
S'14.0'
p1151
sg907
S'.116'
p1152
sg909
S'1.3'
p1153
sg911
S'18.8'
p1154
sg913
S'11.2'
p1155
sg915
S'0.6'
p1156
sg20
S'PF'
p1157
sg918
S'1.7'
p1158
sg920
S'.551'
p1159
sg922
S'16.4'
p1160
sg924
S'.479'
p1161
sg926
S'.017'
p1162
sg26
S'NBA'
p1163
sg929
S'0.6'
p1164
sg931
S'12.4'
p1165
sg933
S'2.0'
p1166
sg37
S'25'
p1167
sg39
S'SAS'
p1168
sg41
S'68'
p1169
sg938
S'0.8'
p1170
sg940
S'14.6'
p1171
sg942
S'3.1'
p1172
sg61
S'2098'
p1173
sg945
S'1.2'
p1174
sg53
S'1981-82'
p1175
sg948
S'5.1'
p1176
sba(isrc.gp1.models.Advanced
Advanced
p1177
(dp1178
g903
S'6.4'
p1179
sg905
S'19.4'
p1180
sg907
S'.060'
p1181
sg909
S'1.2'
p1182
sg911
S'16.7'
p1183
sg913
S'10.5'
p1184
sg915
S'-0.9'
p1185
sg20
S'PF'
p1186
sg918
S'-0.1'
p1187
sg920
S'.553'
p1188
sg922
S'14.7'
p1189
sg924
S'.475'
p1190
sg926
S'.023'
p1191
sg26
S'NBA'
p1192
sg929
S'-1.5'
p1193
sg931
S'9.6'
p1194
sg933
S'1.0'
p1195
sg37
S'26'
p1196
sg39
S'CHI'
p1197
sg41
S'80'
p1198
sg938
S'0.3'
p1199
sg940
S'11.0'
p1200
sg942
S'1.3'
p1201
sg61
S'1817'
p1202
sg945
S'-2.3'
p1203
sg53
S'1982-83'
p1204
sg948
S'2.3'
p1205
sba(isrc.gp1.models.Advanced
Advanced
p1206
(dp1207
g903
S'6.2'
p1208
sg905
S'20.5'
p1209
sg907
S'.091'
p1210
sg909
S'1.1'
p1211
sg911
S'15.1'
p1212
sg913
S'11.7'
p1213
sg915
S'1.0'
p1214
sg20
S'PF'
p1215
sg918
S'1.0'
p1216
sg920
S'.589'
p1217
sg922
S'17.5'
p1218
sg924
S'.631'
p1219
sg926
S'.002'
p1220
sg26
S'NBA'
p1221
sg929
S'-1.1'
p1222
sg931
S'11.5'
p1223
sg933
S'2.1'
p1224
sg37
S'27'
p1225
sg39
S'KCK'
p1226
sg41
S'81'
p1227
sg938
S'0.7'
p1228
sg940
S'11.5'
p1229
sg942
S'2.0'
p1230
sg61
S'2160'
p1231
sg945
S'-0.1'
p1232
sg53
S'1983-84'
p1233
sg948
S'4.1'
p1234
sba(isrc.gp1.models.Advanced
Advanced
p1235
(dp1236
g903
S'7.0'
p1237
sg905
S'21.3'
p1238
sg907
S'.085'
p1239
sg909
S'1.1'
p1240
sg911
S'15.0'
p1241
sg913
S'12.9'
p1242
sg915
S'0.5'
p1243
sg20
S'PF'
p1244
sg918
S'1.4'
p1245
sg920
S'.603'
p1246
sg922
S'18.6'
p1247
sg924
S'.667'
p1248
sg926
S'.006'
p1249
sg26
S'NBA'
p1250
sg929
S'-0.1'
p1251
sg931
S'13.2'
p1252
sg933
S'1.3'
p1253
sg37
S'28'
p1254
sg39
S'KCK'
p1255
sg41
S'81'
p1256
sg938
S'0.3'
p1257
sg940
S'12.2'
p1258
sg942
S'2.8'
p1259
sg61
S'2277'
p1260
sg945
S'0.4'
p1261
sg53
S'1984-85'
p1262
sg948
S'4.1'
p1263
sba(isrc.gp1.models.Advanced
Advanced
p1264
(dp1265
g903
S'6.0'
p1266
sg905
S'23.0'
p1267
sg907
S'.087'
p1268
sg909
S'0.9'
p1269
sg911
S'12.1'
p1270
sg913
S'11.1'
p1271
sg915
S'0.9'
p1272
sg20
S'PF'
p1273
sg918
S'1.3'
p1274
sg920
S'.618'
p1275
sg922
S'16.2'
p1276
sg924
S'.521'
p1277
sg926
S'.005'
p1278
sg26
S'NBA'
p1279
sg929
S'-0.6'
p1280
sg931
S'15.6'
p1281
sg933
S'1.6'
p1282
sg37
S'29'
p1283
sg39
S'SAC'
p1284
sg41
S'81'
p1285
sg938
S'0.6'
p1286
sg940
S'11.2'
p1287
sg942
S'2.3'
p1288
sg61
S'2157'
p1289
sg945
S'0.3'
p1290
sg53
S'1985-86'
p1291
sg948
S'3.9'
p1292
sba(isrc.gp1.models.Advanced
Advanced
p1293
(dp1294
g903
S'5.4'
p1295
sg905
S'20.1'
p1296
sg907
S'.070'
p1297
sg909
S'0.9'
p1298
sg911
S'11.1'
p1299
sg913
S'10.1'
p1300
sg915
S'-0.2'
p1301
sg20
S'PF'
p1302
sg918
S'-0.1'
p1303
sg920
S'.570'
p1304
sg922
S'14.8'
p1305
sg924
S'.794'
p1306
sg926
S'.006'
p1307
sg26
S'NBA'
p1308
sg929
S'-2.4'
p1309
sg931
S'11.1'
p1310
sg933
S'0.5'
p1311
sg37
S'30'
p1312
sg39
S'SAC'
p1313
sg41
S'76'
p1314
sg938
S'0.5'
p1315
sg940
S'8.8'
p1316
sg942
S'1.0'
p1317
sg61
S'1002'
p1318
sg945
S'-2.6'
p1319
sg53
S'1986-87'
p1320
sg948
S'1.5'
p1321
sbasS'_per36Minutes'
p1322
(lp1323
(isrc.gp1.models.Per36Minutes
Per36Minutes
p1324
(dp1325
g8
S'9.3'
p1326
sg10
S'5.3'
p1327
sg12
S'0.0'
p1328
sg14
S'0.6'
p1329
sg16
S'10.6'
p1330
sg18
S'0.0'
p1331
sg19
g3
sg20
S'PF-SF'
p1332
sg22
S'6.1'
p1333
sg26
S'ABA'
p1334
sg28
S'2.5'
p1335
sg30
S'.498'
p1336
sg32
g3
sg33
S'3.2'
p1337
sg35
S'0.9'
p1338
sg37
S'19'
p1339
sg39
S'TOT'
p1340
sg41
S'81'
p1341
sg43
S'4.4'
p1342
sg45
S'.498'
p1343
sg47
S'.773'
p1344
sg49
S'3.3'
p1345
sg51
S'2.5'
p1346
sg53
S'1975-76'
p1347
sg55
S'10.6'
p1348
sg57
S'13.9'
p1349
sg59
S'4.3'
p1350
sg61
S'5.3'
p1351
sg63
S'2055'
p1352
sba(isrc.gp1.models.Per36Minutes
Per36Minutes
p1353
(dp1354
g8
S'8.7'
p1355
sg10
S'5.7'
p1356
sg12
S'0.0'
p1357
sg14
S'0.6'
p1358
sg16
S'11.9'
p1359
sg18
S'0.0'
p1360
sg19
g3
sg20
S'SF'
p1361
sg22
S'5.8'
p1362
sg26
S'ABA'
p1363
sg28
S'2.2'
p1364
sg30
S'.479'
p1365
sg32
g3
sg33
S'2.9'
p1366
sg35
S'0.8'
p1367
sg37
S'19'
p1368
sg39
S'SDS'
p1369
sg41
S'11'
p1370
sg43
S'4.3'
p1371
sg45
S'.479'
p1372
sg47
S'.698'
p1373
sg49
S'2.5'
p1374
sg51
S'1.5'
p1375
sg53
S'1975-76'
p1376
sg55
S'11.9'
p1377
sg57
S'13.9'
p1378
sg59
S'3.6'
p1379
sg61
S'5.7'
p1380
sg63
S'434'
p1381
sba(isrc.gp1.models.Per36Minutes
Per36Minutes
p1382
(dp1383
g8
S'9.4'
p1384
sg10
S'5.2'
p1385
sg12
S'0.0'
p1386
sg14
S'0.7'
p1387
sg16
S'10.3'
p1388
sg18
S'0.0'
p1389
sg19
g3
sg20
S'PF'
p1390
sg22
S'6.1'
p1391
sg26
S'ABA'
p1392
sg28
S'2.5'
p1393
sg30
S'.503'
p1394
sg32
g3
sg33
S'3.3'
p1395
sg35
S'0.9'
p1396
sg37
S'19'
p1397
sg39
S'SAA'
p1398
sg41
S'70'
p1399
sg43
S'4.4'
p1400
sg45
S'.503'
p1401
sg47
S'.789'
p1402
sg49
S'3.6'
p1403
sg51
S'2.8'
p1404
sg53
S'1975-76'
p1405
sg55
S'10.3'
p1406
sg57
S'13.9'
p1407
sg59
S'4.5'
p1408
sg61
S'5.2'
p1409
sg63
S'1621'
p1410
sba(isrc.gp1.models.Per36Minutes
Per36Minutes
p1411
(dp1412
g8
S'1.1'
p1413
sg10
S'.503'
p1414
sg12
S'5.6'
p1415
sg14
S'15.8'
p1416
sg16
S'4.6'
p1417
sg18
S'11.0'
p1418
sg19
g3
sg20
S'PF'
p1419
sg22
S'2.2'
p1420
sg26
S'NBA'
p1421
sg28
g3
sg30
S'.503'
p1422
sg32
g3
sg33
S'8.3'
p1423
sg35
S'5.1'
p1424
sg37
S'20'
p1425
sg39
S'SAS'
p1426
sg41
S'82'
p1427
sg43
g3
sg45
S'5.8'
p1428
sg47
S'5.3'
p1429
sg49
S'.794'
p1430
sg51
S'0.5'
p1431
sg53
S'1976-77'
p1432
sg55
S'11.0'
p1433
sg57
g3
sg59
S'3.0'
p1434
sg61
S'5.6'
p1435
sg63
S'1949'
p1436
sba(isrc.gp1.models.Per36Minutes
Per36Minutes
p1437
(dp1438
g8
S'0.9'
p1439
sg10
S'.481'
p1440
sg12
S'4.7'
p1441
sg14
S'4.8'
p1442
sg16
S'3.7'
p1443
sg18
S'9.7'
p1444
sg19
g3
sg20
S'PF'
p1445
sg22
S'2.7'
p1446
sg26
S'NBA'
p1447
sg28
S'13.1'
p1448
sg30
S'.481'
p1449
sg32
g3
sg33
S'7.6'
p1450
sg35
S'2.4'
p1451
sg37
S'21'
p1452
sg39
S'SAS'
p1453
sg41
S'79'
p1454
sg43
g3
sg45
S'4.6'
p1455
sg47
S'5.5'
p1456
sg49
S'.811'
p1457
sg51
S'0.5'
p1458
sg53
S'1977-78'
p1459
sg55
S'9.7'
p1460
sg57
g3
sg59
S'2.1'
p1461
sg61
S'4.7'
p1462
sg63
S'1773'
p1463
sba(isrc.gp1.models.Per36Minutes
Per36Minutes
p1464
(dp1465
g8
S'1.0'
p1466
sg10
S'.474'
p1467
sg12
S'5.0'
p1468
sg14
S'5.4'
p1469
sg16
S'4.4'
p1470
sg18
S'10.5'
p1471
sg19
g3
sg20
S'PF'
p1472
sg22
S'4.0'
p1473
sg26
S'NBA'
p1474
sg28
S'14.4'
p1475
sg30
S'.474'
p1476
sg32
g3
sg33
S'8.2'
p1477
sg35
S'3.1'
p1478
sg37
S'22'
p1479
sg39
S'SAS'
p1480
sg41
S'80'
p1481
sg43
g3
sg45
S'5.5'
p1482
sg47
S'6.4'
p1483
sg49
S'.803'
p1484
sg51
S'0.3'
p1485
sg53
S'1978-79'
p1486
sg55
S'10.5'
p1487
sg57
g3
sg59
S'1.8'
p1488
sg61
S'5.0'
p1489
sg63
S'1885'
p1490
sba(isrc.gp1.models.Per36Minutes
Per36Minutes
p1491
(dp1492
g8
S'5.7'
p1493
sg10
S'.000'
p1494
sg12
S'0.0'
p1495
sg14
S'1.1'
p1496
sg16
S'5.0'
p1497
sg18
S'0.1'
p1498
sg19
g3
sg20
S'SF'
p1499
sg22
S'1.4'
p1500
sg26
S'NBA'
p1501
sg28
S'0.4'
p1502
sg30
S'.478'
p1503
sg32
S'13.5'
p1504
sg33
S'.795'
p1505
sg35
S'5.6'
p1506
sg37
S'23'
p1507
sg39
S'SAS'
p1508
sg41
S'75'
p1509
sg43
S'3.1'
p1510
sg45
S'10.3'
p1511
sg47
S'4.5'
p1512
sg49
S'.480'
p1513
sg51
S'7.1'
p1514
sg53
S'1979-80'
p1515
sg55
S'10.4'
p1516
sg57
S'4.7'
p1517
sg59
S'3.6'
p1518
sg61
S'5.0'
p1519
sg63
S'2111'
p1520
sba(isrc.gp1.models.Per36Minutes
Per36Minutes
p1521
(dp1522
g8
S'4.9'
p1523
sg10
S'.143'
p1524
sg12
S'0.0'
p1525
sg14
S'1.1'
p1526
sg16
S'5.2'
p1527
sg18
S'0.1'
p1528
sg19
g3
sg20
S'SF'
p1529
sg22
S'2.2'
p1530
sg26
S'NBA'
p1531
sg28
S'0.5'
p1532
sg30
S'.508'
p1533
sg32
S'15.1'
p1534
sg33
S'.829'
p1535
sg35
S'4.1'
p1536
sg37
S'24'
p1537
sg39
S'SAS'
p1538
sg41
S'82'
p1539
sg43
S'3.0'
p1540
sg45
S'10.1'
p1541
sg47
S'5.7'
p1542
sg49
S'.512'
p1543
sg51
S'7.0'
p1544
sg53
S'1980-81'
p1545
sg55
S'10.2'
p1546
sg57
S'4.6'
p1547
sg59
S'4.7'
p1548
sg61
S'5.2'
p1549
sg63
S'2408'
p1550
sba(isrc.gp1.models.Per36Minutes
Per36Minutes
p1551
(dp1552
g8
S'2.0'
p1553
sg10
S'0.2'
p1554
sg12
S'.472'
p1555
sg14
S'3.5'
p1556
sg16
S'.167'
p1557
sg18
S'0.0'
p1558
sg19
S'16.1'
p1559
sg20
S'PF'
p1560
sg22
S'.808'
p1561
sg26
S'NBA'
p1562
sg28
S'1.0'
p1563
sg30
S'12.1'
p1564
sg32
S'4.3'
p1565
sg33
S'5.8'
p1566
sg35
S'7.5'
p1567
sg37
S'25'
p1568
sg39
S'SAS'
p1569
sg41
S'68'
p1570
sg43
S'0.5'
p1571
sg45
S'5.7'
p1572
sg47
S'4.7'
p1573
sg49
S'11.9'
p1574
sg51
S'5.5'
p1575
sg53
S'1981-82'
p1576
sg55
S'5.7'
p1577
sg57
S'2.4'
p1578
sg59
S'.478'
p1579
sg61
S'2098'
p1580
sg63
S'63'
p1581
sba(isrc.gp1.models.Per36Minutes
Per36Minutes
p1582
(dp1583
g8
S'2.1'
p1584
sg10
S'0.2'
p1585
sg12
S'.481'
p1586
sg14
S'2.6'
p1587
sg16
S'.167'
p1588
sg18
S'0.0'
p1589
sg19
S'13.8'
p1590
sg20
S'PF'
p1591
sg22
S'.782'
p1592
sg26
S'NBA'
p1593
sg28
S'1.0'
p1594
sg30
S'10.3'
p1595
sg32
S'4.9'
p1596
sg33
S'4.9'
p1597
sg35
S'7.1'
p1598
sg37
S'26'
p1599
sg39
S'CHI'
p1600
sg41
S'80'
p1601
sg43
S'0.2'
p1602
sg45
S'4.9'
p1603
sg47
S'3.8'
p1604
sg49
S'10.1'
p1605
sg51
S'5.0'
p1606
sg53
S'1982-83'
p1607
sg55
S'5.0'
p1608
sg57
S'3.0'
p1609
sg59
S'.488'
p1610
sg61
S'1817'
p1611
sg63
S'31'
p1612
sba(isrc.gp1.models.Per36Minutes
Per36Minutes
p1613
(dp1614
g8
S'2.0'
p1615
sg10
S'0.0'
p1616
sg12
S'.494'
p1617
sg14
S'3.2'
p1618
sg16
S'.000'
p1619
sg18
S'0.0'
p1620
sg19
S'12.6'
p1621
sg20
S'PF'
p1622
sg22
S'.821'
p1623
sg26
S'NBA'
p1624
sg28
S'0.8'
p1625
sg30
S'8.4'
p1626
sg32
S'4.8'
p1627
sg33
S'5.3'
p1628
sg35
S'7.4'
p1629
sg37
S'27'
p1630
sg39
S'KCK'
p1631
sg41
S'81'
p1632
sg43
S'0.5'
p1633
sg45
S'4.1'
p1634
sg47
S'4.3'
p1635
sg49
S'8.4'
p1636
sg51
S'5.4'
p1637
sg53
S'1983-84'
p1638
sg55
S'4.1'
p1639
sg57
S'2.8'
p1640
sg59
S'.495'
p1641
sg61
S'2160'
p1642
sg63
S'81'
p1643
sba(isrc.gp1.models.Per36Minutes
Per36Minutes
p1644
(dp1645
g8
S'2.2'
p1646
sg10
S'0.0'
p1647
sg12
S'.502'
p1648
sg14
S'3.8'
p1649
sg16
S'.000'
p1650
sg18
S'0.0'
p1651
sg19
S'13.0'
p1652
sg20
S'PF'
p1653
sg22
S'.832'
p1654
sg26
S'NBA'
p1655
sg28
S'0.9'
p1656
sg30
S'8.3'
p1657
sg32
S'4.7'
p1658
sg33
S'5.6'
p1659
sg35
S'8.1'
p1660
sg37
S'28'
p1661
sg39
S'KCK'
p1662
sg41
S'81'
p1663
sg43
S'0.2'
p1664
sg45
S'4.2'
p1665
sg47
S'4.6'
p1666
sg49
S'8.3'
p1667
sg51
S'5.9'
p1668
sg53
S'1984-85'
p1669
sg55
S'4.2'
p1670
sg57
S'2.9'
p1671
sg59
S'.505'
p1672
sg61
S'2277'
p1673
sg63
S'62'
p1674
sba(isrc.gp1.models.Per36Minutes
Per36Minutes
p1675
(dp1676
g8
S'1.9'
p1677
sg10
S'0.0'
p1678
sg12
S'.558'
p1679
sg14
S'4.4'
p1680
sg16
S'.000'
p1681
sg18
S'0.0'
p1682
sg19
S'10.2'
p1683
sg20
S'PF'
p1684
sg22
S'.771'
p1685
sg26
S'NBA'
p1686
sg28
S'0.7'
p1687
sg30
S'6.7'
p1688
sg32
S'4.6'
p1689
sg33
S'3.5'
p1690
sg35
S'7.1'
p1691
sg37
S'29'
p1692
sg39
S'SAC'
p1693
sg41
S'81'
p1694
sg43
S'0.4'
p1695
sg45
S'3.8'
p1696
sg47
S'2.7'
p1697
sg49
S'6.7'
p1698
sg51
S'5.2'
p1699
sg53
S'1985-86'
p1700
sg55
S'3.8'
p1701
sg57
S'2.5'
p1702
sg59
S'.561'
p1703
sg61
S'2157'
p1704
sg63
S'64'
p1705
sba(isrc.gp1.models.Per36Minutes
Per36Minutes
p1706
(dp1707
g8
S'1.8'
p1708
sg10
S'0.0'
p1709
sg12
S'.418'
p1710
sg14
S'3.3'
p1711
sg16
S'.000'
p1712
sg18
S'0.0'
p1713
sg19
S'9.1'
p1714
sg20
S'PF'
p1715
sg22
S'.885'
p1716
sg26
S'NBA'
p1717
sg28
S'0.6'
p1718
sg30
S'5.9'
p1719
sg32
S'5.2'
p1720
sg33
S'4.7'
p1721
sg35
S'6.6'
p1722
sg37
S'30'
p1723
sg39
S'SAC'
p1724
sg41
S'76'
p1725
sg43
S'0.3'
p1726
sg45
S'2.5'
p1727
sg47
S'4.2'
p1728
sg49
S'5.9'
p1729
sg51
S'4.9'
p1730
sg53
S'1986-87'
p1731
sg55
S'2.5'
p1732
sg57
S'2.0'
p1733
sg59
S'.421'
p1734
sg61
S'1002'
p1735
sg63
g13
sbasS'_fromYear'
p1736
S'1976'
p1737
sS'_url'
p1738
S'http://www.basketball-reference.com/players/o/olberma01.html'
p1739
sS'_perGame'
p1740
(isrc.gp1.models.PerGame
PerGame
p1741
(dp1742
g8
S'0.7'
p1743
sg10
S'0.0'
p1744
sg12
S'.418'
p1745
sS'_effectiveFieldGalPercentage'
p1746
S'.418'
p1747
sg14
S'1.2'
p1748
sg16
S'.000'
p1749
sg18
S'0.0'
p1750
sg19
S'3.3'
p1751
sg20
S'PF'
p1752
sg22
S'.885'
p1753
sg26
S'NBA'
p1754
sg28
S'0.2'
p1755
sg32
S'1.9'
p1756
sS'_fieldGoalsttempted'
p1757
S'2.2'
p1758
sg33
S'1.7'
p1759
sg35
S'2.4'
p1760
sg37
S'30'
p1761
sg39
S'SAC'
p1762
sg41
S'76'
p1763
sg43
S'0.1'
p1764
sg45
S'0.9'
p1765
sg47
S'1.5'
p1766
sg49
S'2.2'
p1767
sg51
S'1.8'
p1768
sg53
S'1986-87'
p1769
sg55
S'0.9'
p1770
sg57
S'0.7'
p1771
sg59
S'.421'
p1772
sg61
S'13.2'
p1773
sg63
g13
sbsS'_weight'
p1774
S'225'
p1775
sS'_dob'
p1776
S'21-4-1956'
p1777
sS'_salary'
p1778
(lp1779
(isrc.gp1.models.Salary
Salary
p1780
(dp1781
g39
S'Sacramento Kings'
p1782
sg26
S'NBA'
p1783
sg1778
S'$347,500'
p1784
sg53
S'1985-86'
p1785
sbasg20
S'F'
p1786
sb.