(isrc.gp1.models.Player
Player
p0
(dp1
S'_experience'
p2
S'NA'
p3
sS'_totals'
p4
(lp5
(isrc.gp1.models.Totals
Totals
p6
(dp7
S'_offensiveRebounds'
p8
S'18'
p9
sS'_threePointsAttempted'
p10
S'27'
p11
sS'_fieldGoalsPercentage'
p12
S'0'
p13
sS'_assist'
p14
g3
sS'_threePointsPercentage'
p15
S'60'
p16
sS'_threePoints'
p17
g13
sS'_points'
p18
g3
sS'_position'
p19
S'SG'
p20
sS'_freeThrowsPercentage'
p21
S'3'
p22
sS'_effectiveFieldGoalPercentage'
p23
S'27'
p24
sS'_league'
p25
S'ABA'
p26
sS'_steals'
p27
g3
sS'_fieldGoalsAttempted'
p28
S'.450'
p29
sS'_personalFouls'
p30
g3
sS'_freeThrowsAttempted'
p31
S'26'
p32
sS'_totalRebounds'
p33
S'74'
p34
sS'_age'
p35
S'23'
p36
sS'_team'
p37
S'NOB'
p38
sS'_games'
p39
S'29'
p40
sS'_blocks'
p41
g3
sS'_twoPoints'
p42
S'.450'
p43
sS'_freeThrows'
p44
S'.741'
p45
sS'_twoPointsAttempted'
p46
S'.450'
p47
sS'_defensiveRebounds'
p48
S'22'
p49
sS'_season'
p50
S'1967-68'
p51
sS'_fieldGoals'
p52
S'60'
p53
sS'_turnOvers'
p54
g3
sS'_twoPointsPercentage'
p55
S'20'
p56
sS'_minutesPlayed'
p57
S'27'
p58
sS'_gamesStarted'
p59
S'125'
p60
sba(isrc.gp1.models.Totals
Totals
p61
(dp62
g8
S'16'
p63
sg10
S'.231'
p64
sg12
g22
sg14
S'34'
p65
sg15
S'78'
p66
sg17
S'13'
p67
sg18
g3
sg19
S'SG'
p68
sg21
S'34'
p69
sg23
S'93'
p70
sg25
S'ABA'
p71
sg27
S'60'
p72
sg28
S'.435'
p73
sg30
g3
sg31
S'.782'
p74
sg33
S'23'
p75
sg35
S'24'
p76
sg37
S'NOB'
p77
sg39
S'50'
p78
sg41
S'258'
p79
sg42
S'173'
p80
sg44
S'119'
p81
sg46
S'.451'
p82
sg48
S'50'
p83
sg50
S'1968-69'
p84
sg52
S'186'
p85
sg54
g3
sg55
S'.444'
p86
sg57
S'81'
p87
sg59
S'323'
p88
sbasS'_college'
p89
S'Dillard University'
p90
sS'_toYear'
p91
S'1969'
p92
sS'_height'
p93
S'6-3'
p94
sS'_active'
p95
I00
sS'_shootingHand'
p96
VRight
p97
sS'_name'
p98
S'Marlbert Pradd'
p99
sS'_per100Possessions'
p100
(lp101
sS'_advanced'
p102
(lp103
(isrc.gp1.models.Advanced
Advanced
p104
(dp105
S'_offensiveReboundPercentage'
p106
S'8.9'
p107
sS'_turnOverPercentage'
p108
S'0.4'
p109
sS'_winSharesPer48Minutes'
p110
g3
sS'_stealPercentage'
p111
S'0.3'
p112
sS'_usagePercentage'
p113
S'.156'
p114
sS'_totalReboundsPercentage'
p115
S'20.0'
p116
sS'_defensiveBoxPlusMinus'
p117
g3
sg19
S'SG'
p118
sS'_valueOverReplacementPlayer'
p119
g3
sS'_trueShootingPercentage'
p120
S'.515'
p121
sS'_defensiveReboundPercentage'
p122
S'3.8'
p123
sS'_freeThrowsAttempRate'
p124
S'.450'
p125
sS'_threePointsAttempRate'
p126
S'.000'
p127
sg25
S'ABA'
p128
sS'_offensiveBoxPlusMinues'
p129
g3
sS'_assistPercentage'
p130
S'26.4'
p131
sS'_defensiveWinShares'
p132
g3
sg35
S'23'
p133
sg37
S'NOB'
p134
sg39
S'29'
p135
sS'_blockPercentage'
p136
S'0.1'
p137
sS'_playerEfficiencyRating'
p138
S'12.3'
p139
sS'_offensiveWinShares'
p140
g3
sg57
S'125'
p141
sS'_boxPlusMinus'
p142
g3
sg50
S'1967-68'
p143
sS'_winShares'
p144
g3
sba(isrc.gp1.models.Advanced
Advanced
p145
(dp146
g106
S'6.8'
p147
sg108
S'1.3'
p148
sg110
g3
sg111
S'1.0'
p149
sg113
S'.193'
p150
sg115
S'12.5'
p151
sg117
g3
sg19
S'SG'
p152
sg119
g3
sg120
S'.541'
p153
sg122
S'11.0'
p154
sg124
S'.640'
p155
sg126
S'.070'
p156
sg25
S'ABA'
p157
sg129
g3
sg130
S'30.8'
p158
sg132
g3
sg35
S'24'
p159
sg37
S'NOB'
p160
sg39
S'50'
p161
sg136
S'0.3'
p162
sg138
S'21.7'
p163
sg140
g3
sg57
S'323'
p164
sg142
g3
sg50
S'1968-69'
p165
sg144
g3
sbasS'_per36Minutes'
p166
(lp167
(isrc.gp1.models.Per36Minutes
Per36Minutes
p168
(dp169
g8
S'5.2'
p170
sg10
S'7.8'
p171
sg12
S'0.0'
p172
sg14
g3
sg15
S'17.3'
p173
sg17
S'0.0'
p174
sg18
g3
sg19
S'SG'
p175
sg21
S'0.9'
p176
sg25
S'ABA'
p177
sg27
g3
sg28
S'.450'
p178
sg30
g3
sg31
S'7.5'
p179
sg33
S'21.3'
p180
sg35
S'23'
p181
sg37
S'NOB'
p182
sg39
S'29'
p183
sg41
g3
sg42
S'.450'
p184
sg44
S'.741'
p185
sg46
S'5.8'
p186
sg48
S'6.3'
p187
sg50
S'1967-68'
p188
sg52
S'17.3'
p189
sg54
g3
sg55
S'7.8'
p190
sg57
S'7.8'
p191
sg59
S'125'
p192
sba(isrc.gp1.models.Per36Minutes
Per36Minutes
p193
(dp194
g8
S'1.8'
p195
sg10
S'.231'
p196
sg12
S'0.3'
p197
sg14
S'3.8'
p198
sg15
S'8.7'
p199
sg17
S'1.4'
p200
sg18
g3
sg19
S'SG'
p201
sg21
S'3.8'
p202
sg25
S'ABA'
p203
sg27
S'6.7'
p204
sg28
S'.435'
p205
sg30
g3
sg31
S'.782'
p206
sg33
S'2.6'
p207
sg35
S'24'
p208
sg37
S'NOB'
p209
sg39
S'50'
p210
sg41
S'28.8'
p211
sg42
S'19.3'
p212
sg44
S'13.3'
p213
sg46
S'.451'
p214
sg48
S'5.6'
p215
sg50
S'1968-69'
p216
sg52
S'20.7'
p217
sg54
g3
sg55
S'10.4'
p218
sg57
S'9.0'
p219
sg59
S'323'
p220
sbasS'_fromYear'
p221
S'1968'
p222
sS'_url'
p223
S'http://www.basketball-reference.com/players/p/praddma01.html'
p224
sS'_perGame'
p225
(isrc.gp1.models.PerGame
PerGame
p226
(dp227
g8
S'0.3'
p228
sg10
S'.231'
p229
sg12
S'0.1'
p230
sS'_effectiveFieldGalPercentage'
p231
S'1.9'
p232
sg14
S'0.7'
p233
sg15
S'1.6'
p234
sg17
S'0.3'
p235
sg18
g3
sg19
S'SG'
p236
sg21
S'0.7'
p237
sg25
S'ABA'
p238
sg27
S'1.2'
p239
sg30
g3
sS'_fieldGoalsttempted'
p240
S'.435'
p241
sg31
S'.782'
p242
sg33
S'0.5'
p243
sg35
S'24'
p244
sg37
S'NOB'
p245
sg39
S'50'
p246
sg41
S'5.2'
p247
sg42
S'3.5'
p248
sg44
S'2.4'
p249
sg46
S'.451'
p250
sg48
S'1.0'
p251
sg50
S'1968-69'
p252
sg52
S'3.7'
p253
sg54
g3
sg55
S'.444'
p254
sg57
S'1.6'
p255
sg59
S'6.5'
p256
sbsS'_weight'
p257
S'170'
p258
sS'_dob'
p259
S'17-11-1944'
p260
sS'_salary'
p261
(lp262
sg19
S'G'
p263
sb.