(isrc.gp1.models.Player
Player
p0
(dp1
S'_experience'
p2
S'NA'
p3
sS'_totals'
p4
(lp5
(isrc.gp1.models.Totals
Totals
p6
(dp7
S'_offensiveRebounds'
p8
S'292'
p9
sS'_threePointsAttempted'
p10
g3
sS'_fieldGoalsPercentage'
p11
S'.522'
p12
sS'_assist'
p13
S'190'
p14
sS'_threePointsPercentage'
p15
g3
sS'_threePoints'
p16
g3
sS'_points'
p17
S'1557'
p18
sS'_position'
p19
S'SF'
p20
sS'_freeThrowsPercentage'
p21
S'.736'
p22
sS'_effectiveFieldGoalPercentage'
p23
S'.522'
p24
sS'_league'
p25
S'NBA'
p26
sS'_steals'
p27
S'92'
p28
sS'_fieldGoalsAttempted'
p29
S'1204'
p30
sS'_personalFouls'
p31
S'221'
p32
sS'_freeThrowsAttempted'
p33
S'409'
p34
sS'_totalRebounds'
p35
S'847'
p36
sS'_age'
p37
S'21'
p38
sS'_team'
p39
S'MIL'
p40
sS'_games'
p41
S'80'
p42
sS'_blocks'
p43
S'103'
p44
sS'_twoPoints'
p45
S'628'
p46
sS'_freeThrows'
p47
S'301'
p48
sS'_twoPointsAttempted'
p49
S'1204'
p50
sS'_defensiveRebounds'
p51
S'555'
p52
sS'_season'
p53
S'1977-78'
p54
sS'_fieldGoals'
p55
S'628'
p56
sS'_turnOvers'
p57
S'175'
p58
sS'_twoPointsPercentage'
p59
S'.522'
p60
sS'_minutesPlayed'
p61
S'2765'
p62
sS'_gamesStarted'
p63
g3
sba(isrc.gp1.models.Totals
Totals
p64
(dp65
g8
S'212'
p66
sg10
g3
sg11
S'.550'
p67
sg13
S'234'
p68
sg15
g3
sg16
g3
sg17
S'1972'
p69
sg19
S'SF'
p70
sg21
S'.760'
p71
sg23
S'.550'
p72
sg25
S'NBA'
p73
sg27
S'116'
p74
sg29
S'1491'
p75
sg31
S'186'
p76
sg33
S'437'
p77
sg35
S'586'
p78
sg37
S'22'
p79
sg39
S'MIL'
p80
sg41
S'77'
p81
sg43
S'89'
p82
sg45
S'820'
p83
sg47
S'332'
p84
sg49
S'1491'
p85
sg51
S'374'
p86
sg53
S'1978-79'
p87
sg55
S'820'
p88
sg57
S'170'
p89
sg59
S'.550'
p90
sg61
S'2779'
p91
sg63
g3
sba(isrc.gp1.models.Totals
Totals
p92
(dp93
g8
S'217'
p94
sg10
S'9'
p95
sg11
S'.544'
p96
sg13
S'273'
p97
sg15
S'.222'
p98
sg16
S'2'
p99
sg17
S'1671'
p100
sg19
S'SF'
p101
sg21
S'.791'
p102
sg23
S'.545'
p103
sg25
S'NBA'
p104
sg27
S'100'
p105
sg29
S'1267'
p106
sg31
S'173'
p107
sg33
S'368'
p108
sg35
S'566'
p109
sg37
S'23'
p110
sg39
S'MIL'
p111
sg41
S'77'
p112
sg43
S'70'
p113
sg45
S'687'
p114
sg47
S'291'
p115
sg49
S'1258'
p116
sg51
S'349'
p117
sg53
S'1979-80'
p118
sg55
S'689'
p119
sg57
S'185'
p120
sg59
S'.546'
p121
sg61
S'2686'
p122
sg63
g3
sba(isrc.gp1.models.Totals
Totals
p123
(dp124
g8
S'225'
p125
sg10
g95
sg11
S'.552'
p126
sg13
S'346'
p127
sg15
S'.000'
p128
sg16
S'0'
p129
sg17
S'1541'
p130
sg19
S'SF'
p131
sg21
S'.706'
p132
sg23
S'.552'
p133
sg25
S'NBA'
p134
sg27
S'115'
p135
sg29
S'1153'
p136
sg31
S'196'
p137
sg33
S'381'
p138
sg35
S'518'
p139
sg37
S'24'
p140
sg39
S'MIL'
p141
sg41
S'76'
p142
sg43
S'41'
p143
sg45
S'636'
p144
sg47
S'269'
p145
sg49
S'1144'
p146
sg51
S'293'
p147
sg53
S'1980-81'
p148
sg55
S'636'
p149
sg57
S'190'
p150
sg59
S'.556'
p151
sg61
S'2542'
p152
sg63
g3
sba(isrc.gp1.models.Totals
Totals
p153
(dp154
g8
S'153'
p155
sg10
S'4'
p156
sg11
S'.532'
p157
sg13
S'213'
p158
sg15
S'.000'
p159
sg16
g129
sg17
S'990'
p160
sg19
S'SF'
p161
sg21
S'.700'
p162
sg23
S'.532'
p163
sg25
S'NBA'
p164
sg27
S'59'
p165
sg29
S'760'
p166
sg31
S'142'
p167
sg33
S'260'
p168
sg35
S'364'
p169
sg37
S'25'
p170
sg39
S'MIL'
p171
sg41
S'60'
p172
sg43
S'35'
p173
sg45
S'404'
p174
sg47
S'182'
p175
sg49
S'756'
p176
sg51
S'211'
p177
sg53
S'1981-82'
p178
sg55
S'404'
p179
sg57
S'145'
p180
sg59
S'.534'
p181
sg61
S'1900'
p182
sg63
S'52'
p183
sba(isrc.gp1.models.Totals
Totals
p184
(dp185
g8
S'196'
p186
sg10
S'20'
p187
sg11
S'.509'
p188
sg13
S'363'
p189
sg15
S'.200'
p190
sg16
g156
sg17
S'1714'
p191
sg19
S'SF'
p192
sg21
S'.735'
p193
sg23
S'.511'
p194
sg25
S'NBA'
p195
sg27
S'100'
p196
sg29
S'1420'
p197
sg31
S'211'
p198
sg33
S'359'
p199
sg35
S'562'
p200
sg37
S'26'
p201
sg39
S'MIL'
p202
sg41
S'80'
p203
sg43
S'56'
p204
sg45
S'719'
p205
sg47
S'264'
p206
sg49
S'1400'
p207
sg51
S'366'
p208
sg53
S'1982-83'
p209
sg55
S'723'
p210
sg57
S'196'
p211
sg59
S'.514'
p212
sg61
S'2853'
p213
sg63
S'80'
p214
sba(isrc.gp1.models.Totals
Totals
p215
(dp216
g8
S'173'
p217
sg10
S'13'
p218
sg11
S'.502'
p219
sg13
S'315'
p220
sg15
S'.154'
p221
sg16
g99
sg17
S'1535'
p222
sg19
S'SF'
p223
sg21
S'.709'
p224
sg23
S'.502'
p225
sg25
S'NBA'
p226
sg27
S'115'
p227
sg29
S'1288'
p228
sg31
S'194'
p229
sg33
S'340'
p230
sg35
S'480'
p231
sg37
S'27'
p232
sg39
S'MIL'
p233
sg41
S'74'
p234
sg43
S'45'
p235
sg45
S'644'
p236
sg47
S'241'
p237
sg49
S'1275'
p238
sg51
S'307'
p239
sg53
S'1983-84'
p240
sg55
S'646'
p241
sg57
S'180'
p242
sg59
S'.505'
p243
sg61
S'2715'
p244
sg63
S'74'
p245
sba(isrc.gp1.models.Totals
Totals
p246
(dp247
g8
S'188'
p248
sg10
S'13'
p249
sg11
S'.452'
p250
sg13
S'248'
p251
sg15
S'.231'
p252
sg16
S'3'
p253
sg17
S'1181'
p254
sg19
S'SF'
p255
sg21
S'.731'
p256
sg23
S'.453'
p257
sg25
S'NBA'
p258
sg27
S'72'
p259
sg29
S'1094'
p260
sg31
S'193'
p261
sg33
S'260'
p262
sg35
S'428'
p263
sg37
S'28'
p264
sg39
S'LAC'
p265
sg41
S'72'
p266
sg43
S'30'
p267
sg45
S'491'
p268
sg47
S'190'
p269
sg49
S'1081'
p270
sg51
S'240'
p271
sg53
S'1984-85'
p272
sg55
S'494'
p273
sg57
S'176'
p274
sg59
S'.454'
p275
sg61
S'2448'
p276
sg63
S'68'
p277
sba(isrc.gp1.models.Totals
Totals
p278
(dp279
g8
S'156'
p280
sg10
S'15'
p281
sg11
S'.510'
p282
sg13
S'283'
p283
sg15
S'.067'
p284
sg16
S'1'
p285
sg17
S'1525'
p286
sg19
S'SG'
p287
sg21
S'.760'
p288
sg23
S'.511'
p289
sg25
S'NBA'
p290
sg27
S'107'
p291
sg29
S'1201'
p292
sg31
S'214'
p293
sg33
S'392'
p294
sg35
S'416'
p295
sg37
S'29'
p296
sg39
S'LAC'
p297
sg41
S'75'
p298
sg43
S'50'
p299
sg45
S'612'
p300
sg47
S'298'
p301
sg49
S'1186'
p302
sg51
S'260'
p303
sg53
S'1985-86'
p304
sg55
S'613'
p305
sg57
S'183'
p306
sg59
S'.516'
p307
sg61
S'2605'
p308
sg63
S'75'
p309
sba(isrc.gp1.models.Totals
Totals
p310
(dp311
g8
g95
sg10
S'6'
p312
sg11
S'.439'
p313
sg13
S'28'
p314
sg15
S'.000'
p315
sg16
g129
sg17
S'166'
p316
sg19
S'SF'
p317
sg21
S'.714'
p318
sg23
S'.439'
p319
sg25
S'NBA'
p320
sg27
S'12'
p321
sg29
S'155'
p322
sg31
S'24'
p323
sg33
S'42'
p324
sg35
S'33'
p325
sg37
S'30'
p326
sg39
S'LAC'
p327
sg41
S'10'
p328
sg43
S'5'
p329
sg45
S'68'
p330
sg47
S'30'
p331
sg49
S'149'
p332
sg51
S'24'
p333
sg53
S'1986-87'
p334
sg55
S'68'
p335
sg57
S'17'
p336
sg59
S'.456'
p337
sg61
S'302'
p338
sg63
S'10'
p339
sba(isrc.gp1.models.Totals
Totals
p340
(dp341
g8
g3
sg10
g3
sg11
g3
sg13
g3
sg15
g3
sg16
g3
sg17
g3
sg19
g3
sg21
g3
sg23
g3
sg25
g3
sg27
g3
sg29
g3
sg31
g3
sg33
g3
sg35
g3
sg37
S'31'
p342
sg39
S'Did Not Play\xc2\xa0(injury\xe2\x80\x94neck)'
p343
sg41
g3
sg43
g3
sg45
g3
sg47
g3
sg49
g3
sg51
g3
sg53
S'1987-88'
p344
sg55
g3
sg57
g3
sg59
g3
sg61
g3
sg63
g3
sba(isrc.gp1.models.Totals
Totals
p345
(dp346
g8
g3
sg10
g3
sg11
g3
sg13
g3
sg15
g3
sg16
g3
sg17
g3
sg19
g3
sg21
g3
sg23
g3
sg25
g3
sg27
g3
sg29
g3
sg31
g3
sg33
g3
sg35
g3
sg37
S'32'
p347
sg39
S'Did Not Play\xc2\xa0(injury\xe2\x80\x94neck)'
p348
sg41
g3
sg43
g3
sg45
g3
sg47
g3
sg49
g3
sg51
g3
sg53
S'1988-89'
p349
sg55
g3
sg57
g3
sg59
g3
sg61
g3
sg63
g3
sba(isrc.gp1.models.Totals
Totals
p350
(dp351
g8
S'8'
p352
sg10
g253
sg11
S'.375'
p353
sg13
g95
sg15
S'.667'
p354
sg16
g99
sg17
S'40'
p355
sg19
S'SF'
p356
sg21
S'.824'
p357
sg23
S'.406'
p358
sg25
S'NBA'
p359
sg27
g129
sg29
S'32'
p360
sg31
S'12'
p361
sg33
S'17'
p362
sg35
S'17'
p363
sg37
S'33'
p364
sg39
S'GSW'
p365
sg41
S'10'
p366
sg43
g285
sg45
S'10'
p367
sg47
S'14'
p368
sg49
S'29'
p369
sg51
g95
sg53
S'1989-90'
p370
sg55
S'12'
p371
sg57
S'10'
p372
sg59
S'.345'
p373
sg61
S'99'
p374
sg63
g129
sbasS'_college'
p375
S'University of California, Los Angeles'
p376
sS'_toYear'
p377
S'1990'
p378
sS'_height'
p379
S'6-7'
p380
sS'_active'
p381
I00
sS'_shootingHand'
p382
VRight
p383
sS'_name'
p384
S'Marques Johnson'
p385
sS'_per100Possessions'
p386
(lp387
(isrc.gp1.models.Per100Possession
Per100Possession
p388
(dp389
g8
S'4.7'
p390
sg10
g3
sg11
S'.522'
p391
sS'_offensiveRating'
p392
S'114'
p393
sg13
S'3.0'
p394
sg15
g3
sg16
g3
sg17
S'24.9'
p395
sg19
S'SF'
p396
sS'_defensiveRating'
p397
S'101'
p398
sg21
S'.736'
p399
sg25
S'NBA'
p400
sg27
S'1.5'
p401
sg29
S'19.2'
p402
sg31
S'3.5'
p403
sg33
S'6.5'
p404
sg35
S'13.5'
p405
sg37
S'21'
p406
sg39
S'MIL'
p407
sg41
S'80'
p408
sg43
S'1.6'
p409
sg45
S'10.0'
p410
sg47
S'4.8'
p411
sg49
S'19.2'
p412
sg51
S'8.9'
p413
sg53
S'1977-78'
p414
sg55
S'10.0'
p415
sg57
S'2.8'
p416
sg59
S'.522'
p417
sg61
S'2765'
p418
sg63
g3
sba(isrc.gp1.models.Per100Possession
Per100Possession
p419
(dp420
g8
S'3.4'
p421
sg10
g3
sg11
S'.550'
p422
sg392
S'117'
p423
sg13
S'3.8'
p424
sg15
g3
sg16
g3
sg17
S'32.0'
p425
sg19
S'SF'
p426
sg397
S'103'
p427
sg21
S'.760'
p428
sg25
S'NBA'
p429
sg27
S'1.9'
p430
sg29
S'24.2'
p431
sg31
S'3.0'
p432
sg33
S'7.1'
p433
sg35
S'9.5'
p434
sg37
S'22'
p435
sg39
S'MIL'
p436
sg41
S'77'
p437
sg43
S'1.4'
p438
sg45
S'13.3'
p439
sg47
S'5.4'
p440
sg49
S'24.2'
p441
sg51
S'6.1'
p442
sg53
S'1978-79'
p443
sg55
S'13.3'
p444
sg57
S'2.8'
p445
sg59
S'.550'
p446
sg61
S'2779'
p447
sg63
g3
sba(isrc.gp1.models.Per100Possession
Per100Possession
p448
(dp449
g8
S'3.8'
p450
sg10
S'0.2'
p451
sg11
S'.544'
p452
sg392
S'118'
p453
sg13
S'4.8'
p454
sg15
S'.222'
p455
sg16
S'0.0'
p456
sg17
S'29.2'
p457
sg19
S'SF'
p458
sg397
S'103'
p459
sg21
S'.791'
p460
sg25
S'NBA'
p461
sg27
S'1.7'
p462
sg29
S'22.1'
p463
sg31
S'3.0'
p464
sg33
S'6.4'
p465
sg35
S'9.9'
p466
sg37
S'23'
p467
sg39
S'MIL'
p468
sg41
S'77'
p469
sg43
S'1.2'
p470
sg45
S'12.0'
p471
sg47
S'5.1'
p472
sg49
S'21.9'
p473
sg51
S'6.1'
p474
sg53
S'1979-80'
p475
sg55
S'12.0'
p476
sg57
S'3.2'
p477
sg59
S'.546'
p478
sg61
S'2686'
p479
sg63
g3
sba(isrc.gp1.models.Per100Possession
Per100Possession
p480
(dp481
g8
S'4.1'
p482
sg10
S'0.2'
p483
sg11
S'.552'
p484
sg392
S'118'
p485
sg13
S'6.3'
p486
sg15
S'.000'
p487
sg16
S'0.0'
p488
sg17
S'28.1'
p489
sg19
S'SF'
p490
sg397
S'102'
p491
sg21
S'.706'
p492
sg25
S'NBA'
p493
sg27
S'2.1'
p494
sg29
S'21.0'
p495
sg31
S'3.6'
p496
sg33
S'6.9'
p497
sg35
S'9.4'
p498
sg37
S'24'
p499
sg39
S'MIL'
p500
sg41
S'76'
p501
sg43
S'0.7'
p502
sg45
S'11.6'
p503
sg47
S'4.9'
p504
sg49
S'20.8'
p505
sg51
S'5.3'
p506
sg53
S'1980-81'
p507
sg55
S'11.6'
p508
sg57
S'3.5'
p509
sg59
S'.556'
p510
sg61
S'2542'
p511
sg63
g3
sba(isrc.gp1.models.Per100Possession
Per100Possession
p512
(dp513
g8
S'3.9'
p514
sg10
S'0.1'
p515
sg11
S'.532'
p516
sg392
S'112'
p517
sg13
S'5.4'
p518
sg15
S'.000'
p519
sg16
S'0.0'
p520
sg17
S'25.0'
p521
sg19
S'SF'
p522
sg397
S'104'
p523
sg21
S'.700'
p524
sg25
S'NBA'
p525
sg27
S'1.5'
p526
sg29
S'19.2'
p527
sg31
S'3.6'
p528
sg33
S'6.6'
p529
sg35
S'9.2'
p530
sg37
S'25'
p531
sg39
S'MIL'
p532
sg41
S'60'
p533
sg43
S'0.9'
p534
sg45
S'10.2'
p535
sg47
S'4.6'
p536
sg49
S'19.1'
p537
sg51
S'5.3'
p538
sg53
S'1981-82'
p539
sg55
S'10.2'
p540
sg57
S'3.7'
p541
sg59
S'.534'
p542
sg61
S'1900'
p543
sg63
S'52'
p544
sba(isrc.gp1.models.Per100Possession
Per100Possession
p545
(dp546
g8
S'3.3'
p547
sg10
S'0.3'
p548
sg11
S'.509'
p549
sg392
S'111'
p550
sg13
S'6.1'
p551
sg15
S'.200'
p552
sg16
S'0.1'
p553
sg17
S'28.8'
p554
sg19
S'SF'
p555
sg397
S'102'
p556
sg21
S'.735'
p557
sg25
S'NBA'
p558
sg27
S'1.7'
p559
sg29
S'23.9'
p560
sg31
S'3.5'
p561
sg33
S'6.0'
p562
sg35
S'9.5'
p563
sg37
S'26'
p564
sg39
S'MIL'
p565
sg41
S'80'
p566
sg43
S'0.9'
p567
sg45
S'12.1'
p568
sg47
S'4.4'
p569
sg49
S'23.6'
p570
sg51
S'6.2'
p571
sg53
S'1982-83'
p572
sg55
S'12.2'
p573
sg57
S'3.3'
p574
sg59
S'.514'
p575
sg61
S'2853'
p576
sg63
S'80'
p577
sba(isrc.gp1.models.Per100Possession
Per100Possession
p578
(dp579
g8
S'3.2'
p580
sg10
S'0.2'
p581
sg11
S'.502'
p582
sg392
S'110'
p583
sg13
S'5.7'
p584
sg15
S'.154'
p585
sg16
S'0.0'
p586
sg17
S'28.0'
p587
sg19
S'SF'
p588
sg397
S'103'
p589
sg21
S'.709'
p590
sg25
S'NBA'
p591
sg27
S'2.1'
p592
sg29
S'23.5'
p593
sg31
S'3.5'
p594
sg33
S'6.2'
p595
sg35
S'8.8'
p596
sg37
S'27'
p597
sg39
S'MIL'
p598
sg41
S'74'
p599
sg43
S'0.8'
p600
sg45
S'11.7'
p601
sg47
S'4.4'
p602
sg49
S'23.3'
p603
sg51
S'5.6'
p604
sg53
S'1983-84'
p605
sg55
S'11.8'
p606
sg57
S'3.3'
p607
sg59
S'.505'
p608
sg61
S'2715'
p609
sg63
S'74'
p610
sba(isrc.gp1.models.Per100Possession
Per100Possession
p611
(dp612
g8
S'3.7'
p613
sg10
S'0.3'
p614
sg11
S'.452'
p615
sg392
S'103'
p616
sg13
S'4.8'
p617
sg15
S'.231'
p618
sg16
S'0.1'
p619
sg17
S'22.9'
p620
sg19
S'SF'
p621
sg397
S'112'
p622
sg21
S'.731'
p623
sg25
S'NBA'
p624
sg27
S'1.4'
p625
sg29
S'21.2'
p626
sg31
S'3.7'
p627
sg33
S'5.1'
p628
sg35
S'8.3'
p629
sg37
S'28'
p630
sg39
S'LAC'
p631
sg41
S'72'
p632
sg43
S'0.6'
p633
sg45
S'9.5'
p634
sg47
S'3.7'
p635
sg49
S'21.0'
p636
sg51
S'4.7'
p637
sg53
S'1984-85'
p638
sg55
S'9.6'
p639
sg57
S'3.4'
p640
sg59
S'.454'
p641
sg61
S'2448'
p642
sg63
S'68'
p643
sba(isrc.gp1.models.Per100Possession
Per100Possession
p644
(dp645
g8
S'2.8'
p646
sg10
S'0.3'
p647
sg11
S'.510'
p648
sg392
S'112'
p649
sg13
S'5.1'
p650
sg15
S'.067'
p651
sg16
S'0.0'
p652
sg17
S'27.4'
p653
sg19
S'SG'
p654
sg397
S'112'
p655
sg21
S'.760'
p656
sg25
S'NBA'
p657
sg27
S'1.9'
p658
sg29
S'21.5'
p659
sg31
S'3.8'
p660
sg33
S'7.0'
p661
sg35
S'7.5'
p662
sg37
S'29'
p663
sg39
S'LAC'
p664
sg41
S'75'
p665
sg43
S'0.9'
p666
sg45
S'11.0'
p667
sg47
S'5.3'
p668
sg49
S'21.3'
p669
sg51
S'4.7'
p670
sg53
S'1985-86'
p671
sg55
S'11.0'
p672
sg57
S'3.3'
p673
sg59
S'.516'
p674
sg61
S'2605'
p675
sg63
S'75'
p676
sba(isrc.gp1.models.Per100Possession
Per100Possession
p677
(dp678
g8
S'1.4'
p679
sg10
S'0.9'
p680
sg11
S'.439'
p681
sg392
S'100'
p682
sg13
S'4.3'
p683
sg15
S'.000'
p684
sg16
S'0.0'
p685
sg17
S'25.7'
p686
sg19
S'SF'
p687
sg397
S'113'
p688
sg21
S'.714'
p689
sg25
S'NBA'
p690
sg27
S'1.9'
p691
sg29
S'24.0'
p692
sg31
S'3.7'
p693
sg33
S'6.5'
p694
sg35
S'5.1'
p695
sg37
S'30'
p696
sg39
S'LAC'
p697
sg41
S'10'
p698
sg43
S'0.8'
p699
sg45
S'10.5'
p700
sg47
S'4.6'
p701
sg49
S'23.1'
p702
sg51
S'3.7'
p703
sg53
S'1986-87'
p704
sg55
S'10.5'
p705
sg57
S'2.6'
p706
sg59
S'.456'
p707
sg61
S'302'
p708
sg63
S'10'
p709
sba(isrc.gp1.models.Per100Possession
Per100Possession
p710
(dp711
g8
S'3.7'
p712
sg10
S'1.4'
p713
sg11
S'.375'
p714
sg392
S'98'
p715
sg13
S'4.1'
p716
sg15
S'.667'
p717
sg16
S'0.9'
p718
sg17
S'18.3'
p719
sg19
S'SF'
p720
sg397
S'118'
p721
sg21
S'.824'
p722
sg25
S'NBA'
p723
sg27
S'0.0'
p724
sg29
S'14.6'
p725
sg31
S'5.5'
p726
sg33
S'7.8'
p727
sg35
S'7.8'
p728
sg37
S'33'
p729
sg39
S'GSW'
p730
sg41
S'10'
p731
sg43
S'0.5'
p732
sg45
S'4.6'
p733
sg47
S'6.4'
p734
sg49
S'13.3'
p735
sg51
S'4.1'
p736
sg53
S'1989-90'
p737
sg55
S'5.5'
p738
sg57
S'4.6'
p739
sg59
S'.345'
p740
sg61
S'99'
p741
sg63
g129
sbasS'_advanced'
p742
(lp743
(isrc.gp1.models.Advanced
Advanced
p744
(dp745
S'_offensiveReboundPercentage'
p746
S'10.9'
p747
sS'_turnOverPercentage'
p748
S'11.2'
p749
sS'_winSharesPer48Minutes'
p750
S'.185'
p751
sS'_stealPercentage'
p752
S'1.5'
p753
sS'_usagePercentage'
p754
S'21.4'
p755
sS'_totalReboundsPercentage'
p756
S'16.2'
p757
sS'_defensiveBoxPlusMinus'
p758
S'0.3'
p759
sg19
S'SF'
p760
sS'_valueOverReplacementPlayer'
p761
S'3.7'
p762
sS'_trueShootingPercentage'
p763
S'.563'
p764
sS'_defensiveReboundPercentage'
p765
S'21.6'
p766
sS'_freeThrowsAttempRate'
p767
S'.340'
p768
sS'_threePointsAttempRate'
p769
g3
sg25
S'NBA'
p770
sS'_offensiveBoxPlusMinues'
p771
S'3.1'
p772
sS'_assistPercentage'
p773
S'9.5'
p774
sS'_defensiveWinShares'
p775
S'3.0'
p776
sg37
S'21'
p777
sg39
S'MIL'
p778
sg41
S'80'
p779
sS'_blockPercentage'
p780
S'1.9'
p781
sS'_playerEfficiencyRating'
p782
S'21.3'
p783
sS'_offensiveWinShares'
p784
S'7.7'
p785
sg61
S'2765'
p786
sS'_boxPlusMinus'
p787
S'3.4'
p788
sg53
S'1977-78'
p789
sS'_winShares'
p790
S'10.6'
p791
sba(isrc.gp1.models.Advanced
Advanced
p792
(dp793
g746
S'8.4'
p794
sg748
S'9.2'
p795
sg750
S'.211'
p796
sg752
S'1.9'
p797
sg754
S'25.9'
p798
sg756
S'11.7'
p799
sg758
S'0.2'
p800
sg19
S'SF'
p801
sg761
S'5.1'
p802
sg763
S'.586'
p803
sg765
S'14.9'
p804
sg767
S'.293'
p805
sg769
g3
sg25
S'NBA'
p806
sg771
S'5.1'
p807
sg773
S'12.3'
p808
sg775
S'3.0'
p809
sg37
S'22'
p810
sg39
S'MIL'
p811
sg41
S'77'
p812
sg780
S'1.7'
p813
sg782
S'23.9'
p814
sg784
S'9.2'
p815
sg61
S'2779'
p816
sg787
S'5.3'
p817
sg53
S'1978-79'
p818
sg790
S'12.2'
p819
sba(isrc.gp1.models.Advanced
Advanced
p820
(dp821
g746
S'9.0'
p822
sg748
S'11.5'
p823
sg750
S'.206'
p824
sg752
S'1.7'
p825
sg754
S'23.9'
p826
sg756
S'11.4'
p827
sg758
S'0.7'
p828
sg19
S'SF'
p829
sg761
S'4.8'
p830
sg763
S'.585'
p831
sg765
S'13.7'
p832
sg767
S'.290'
p833
sg769
S'.007'
p834
sg25
S'NBA'
p835
sg771
S'4.4'
p836
sg773
S'15.1'
p837
sg775
S'3.5'
p838
sg37
S'23'
p839
sg39
S'MIL'
p840
sg41
S'77'
p841
sg780
S'1.4'
p842
sg782
S'22.0'
p843
sg784
S'8.0'
p844
sg61
S'2686'
p845
sg787
S'5.1'
p846
sg53
S'1979-80'
p847
sg790
S'11.5'
p848
sba(isrc.gp1.models.Advanced
Advanced
p849
(dp850
g746
S'10.1'
p851
sg748
S'12.6'
p852
sg750
S'.211'
p853
sg752
S'2.1'
p854
sg754
S'23.3'
p855
sg756
S'11.3'
p856
sg758
S'0.9'
p857
sg19
S'SF'
p858
sg761
S'5.1'
p859
sg763
S'.583'
p860
sg765
S'12.4'
p861
sg767
S'.330'
p862
sg769
S'.008'
p863
sg25
S'NBA'
p864
sg771
S'5.0'
p865
sg773
S'19.7'
p866
sg775
S'3.6'
p867
sg37
S'24'
p868
sg39
S'MIL'
p869
sg41
S'76'
p870
sg780
S'0.9'
p871
sg782
S'22.0'
p872
sg784
S'7.6'
p873
sg61
S'2542'
p874
sg787
S'5.9'
p875
sg53
S'1980-81'
p876
sg790
S'11.2'
p877
sba(isrc.gp1.models.Advanced
Advanced
p878
(dp879
g746
S'9.6'
p880
sg748
S'14.2'
p881
sg750
S'.158'
p882
sg752
S'1.5'
p883
sg754
S'22.1'
p884
sg756
S'11.0'
p885
sg758
S'0.7'
p886
sg19
S'SF'
p887
sg761
S'2.4'
p888
sg763
S'.566'
p889
sg765
S'12.3'
p890
sg767
S'.342'
p891
sg769
S'.005'
p892
sg25
S'NBA'
p893
sg771
S'2.2'
p894
sg773
S'16.4'
p895
sg775
S'2.7'
p896
sg37
S'25'
p897
sg39
S'MIL'
p898
sg41
S'60'
p899
sg780
S'1.1'
p900
sg782
S'18.0'
p901
sg784
S'3.5'
p902
sg61
S'1900'
p903
sg787
S'2.9'
p904
sg53
S'1981-82'
p905
sg790
S'6.2'
p906
sba(isrc.gp1.models.Advanced
Advanced
p907
(dp908
g746
S'7.9'
p909
sg748
S'11.0'
p910
sg750
S'.180'
p911
sg752
S'1.7'
p912
sg754
S'25.7'
p913
sg756
S'10.8'
p914
sg758
S'0.9'
p915
sg19
S'SF'
p916
sg761
S'4.9'
p917
sg763
S'.543'
p918
sg765
S'13.5'
p919
sg767
S'.253'
p920
sg769
S'.014'
p921
sg25
S'NBA'
p922
sg771
S'3.9'
p923
sg773
S'20.3'
p924
sg775
S'4.1'
p925
sg37
S'26'
p926
sg39
S'MIL'
p927
sg41
S'80'
p928
sg780
S'1.1'
p929
sg782
S'21.1'
p930
sg784
S'6.6'
p931
sg61
S'2853'
p932
sg787
S'4.8'
p933
sg53
S'1982-83'
p934
sg790
S'10.7'
p935
sba(isrc.gp1.models.Advanced
Advanced
p936
(dp937
g746
S'7.5'
p938
sg748
S'11.1'
p939
sg750
S'.152'
p940
sg752
S'2.1'
p941
sg754
S'25.2'
p942
sg756
S'10.0'
p943
sg758
S'1.3'
p944
sg19
S'SF'
p945
sg761
S'4.0'
p946
sg763
S'.534'
p947
sg765
S'12.4'
p948
sg767
S'.264'
p949
sg769
S'.010'
p950
sg25
S'NBA'
p951
sg771
S'2.6'
p952
sg773
S'18.6'
p953
sg775
S'4.2'
p954
sg37
S'27'
p955
sg39
S'MIL'
p956
sg41
S'74'
p957
sg780
S'1.0'
p958
sg782
S'19.4'
p959
sg784
S'4.4'
p960
sg61
S'2715'
p961
sg787
S'3.8'
p962
sg53
S'1983-84'
p963
sg790
S'8.6'
p964
sba(isrc.gp1.models.Advanced
Advanced
p965
(dp966
g746
S'8.8'
p967
sg748
S'12.7'
p968
sg750
S'.053'
p969
sg752
S'1.4'
p970
sg754
S'23.1'
p971
sg756
S'9.7'
p972
sg758
S'-0.3'
p973
sg19
S'SF'
p974
sg761
S'1.1'
p975
sg763
S'.489'
p976
sg765
S'10.5'
p977
sg767
S'.238'
p978
sg769
S'.012'
p979
sg25
S'NBA'
p980
sg771
S'0.1'
p981
sg773
S'14.6'
p982
sg775
S'1.5'
p983
sg37
S'28'
p984
sg39
S'LAC'
p985
sg41
S'72'
p986
sg780
S'0.7'
p987
sg782
S'14.3'
p988
sg784
S'1.2'
p989
sg61
S'2448'
p990
sg787
S'-0.2'
p991
sg53
S'1984-85'
p992
sg790
S'2.7'
p993
sba(isrc.gp1.models.Advanced
Advanced
p994
(dp995
g746
S'6.5'
p996
sg748
S'11.8'
p997
sg750
S'.108'
p998
sg752
S'1.9'
p999
sg754
S'24.0'
p1000
sg756
S'8.8'
p1001
sg758
S'-0.6'
p1002
sg19
S'SG'
p1003
sg761
S'2.7'
p1004
sg763
S'.555'
p1005
sg765
S'11.2'
p1006
sg767
S'.326'
p1007
sg769
S'.012'
p1008
sg25
S'NBA'
p1009
sg771
S'2.7'
p1010
sg773
S'17.5'
p1011
sg775
S'1.1'
p1012
sg37
S'29'
p1013
sg39
S'LAC'
p1014
sg41
S'75'
p1015
sg780
S'1.0'
p1016
sg782
S'18.9'
p1017
sg784
S'4.8'
p1018
sg61
S'2605'
p1019
sg787
S'2.1'
p1020
sg53
S'1985-86'
p1021
sg790
S'5.9'
p1022
sba(isrc.gp1.models.Advanced
Advanced
p1023
(dp1024
g746
S'3.0'
p1025
sg748
S'8.9'
p1026
sg750
S'.022'
p1027
sg752
S'1.9'
p1028
sg754
S'25.1'
p1029
sg756
S'6.0'
p1030
sg758
S'-2.0'
p1031
sg19
S'SF'
p1032
sg761
S'-0.1'
p1033
sg763
S'.478'
p1034
sg765
S'9.5'
p1035
sg767
S'.271'
p1036
sg769
S'.039'
p1037
sg25
S'NBA'
p1038
sg771
S'-1.6'
p1039
sg773
S'15.2'
p1040
sg775
S'0.1'
p1041
sg37
S'30'
p1042
sg39
S'LAC'
p1043
sg41
S'10'
p1044
sg780
S'0.9'
p1045
sg782
S'14.0'
p1046
sg784
S'0.0'
p1047
sg61
S'302'
p1048
sg787
S'-3.6'
p1049
sg53
S'1986-87'
p1050
sg790
S'0.1'
p1051
sba(isrc.gp1.models.Advanced
Advanced
p1052
(dp1053
g746
S'9.1'
p1054
sg748
S'20.2'
p1055
sg750
S'-0.016'
p1056
sg752
S'0.0'
p1057
sg754
S'19.9'
p1058
sg756
S'9.2'
p1059
sg758
S'-3.6'
p1060
sg19
S'SF'
p1061
sg761
S'-0.1'
p1062
sg763
S'.507'
p1063
sg765
S'9.2'
p1064
sg767
S'.531'
p1065
sg769
S'.094'
p1066
sg25
S'NBA'
p1067
sg771
S'-3.1'
p1068
sg773
S'11.9'
p1069
sg775
S'0.0'
p1070
sg37
S'33'
p1071
sg39
S'GSW'
p1072
sg41
S'10'
p1073
sg780
S'0.6'
p1074
sg782
S'8.5'
p1075
sg784
S'0.0'
p1076
sg61
S'99'
p1077
sg787
S'-6.7'
p1078
sg53
S'1989-90'
p1079
sg790
S'0.0'
p1080
sbasS'_per36Minutes'
p1081
(lp1082
(isrc.gp1.models.Per36Minutes
Per36Minutes
p1083
(dp1084
g8
S'3.8'
p1085
sg10
g3
sg11
S'.522'
p1086
sg13
S'2.5'
p1087
sg15
g3
sg16
g3
sg17
S'20.3'
p1088
sg19
S'SF'
p1089
sg21
S'.736'
p1090
sg25
S'NBA'
p1091
sg27
S'1.2'
p1092
sg29
S'15.7'
p1093
sg31
S'2.9'
p1094
sg33
S'5.3'
p1095
sg35
S'11.0'
p1096
sg37
S'21'
p1097
sg39
S'MIL'
p1098
sg41
S'80'
p1099
sg43
S'1.3'
p1100
sg45
S'8.2'
p1101
sg47
S'3.9'
p1102
sg49
S'15.7'
p1103
sg51
S'7.2'
p1104
sg53
S'1977-78'
p1105
sg55
S'8.2'
p1106
sg57
S'2.3'
p1107
sg59
S'.522'
p1108
sg61
S'2765'
p1109
sg63
g3
sba(isrc.gp1.models.Per36Minutes
Per36Minutes
p1110
(dp1111
g8
S'2.7'
p1112
sg10
g3
sg11
S'.550'
p1113
sg13
S'3.0'
p1114
sg15
g3
sg16
g3
sg17
S'25.5'
p1115
sg19
S'SF'
p1116
sg21
S'.760'
p1117
sg25
S'NBA'
p1118
sg27
S'1.5'
p1119
sg29
S'19.3'
p1120
sg31
S'2.4'
p1121
sg33
S'5.7'
p1122
sg35
S'7.6'
p1123
sg37
S'22'
p1124
sg39
S'MIL'
p1125
sg41
S'77'
p1126
sg43
S'1.2'
p1127
sg45
S'10.6'
p1128
sg47
S'4.3'
p1129
sg49
S'19.3'
p1130
sg51
S'4.8'
p1131
sg53
S'1978-79'
p1132
sg55
S'10.6'
p1133
sg57
S'2.2'
p1134
sg59
S'.550'
p1135
sg61
S'2779'
p1136
sg63
g3
sba(isrc.gp1.models.Per36Minutes
Per36Minutes
p1137
(dp1138
g8
S'2.9'
p1139
sg10
S'0.1'
p1140
sg11
S'.544'
p1141
sg13
S'3.7'
p1142
sg15
S'.222'
p1143
sg16
S'0.0'
p1144
sg17
S'22.4'
p1145
sg19
S'SF'
p1146
sg21
S'.791'
p1147
sg25
S'NBA'
p1148
sg27
S'1.3'
p1149
sg29
S'17.0'
p1150
sg31
S'2.3'
p1151
sg33
S'4.9'
p1152
sg35
S'7.6'
p1153
sg37
S'23'
p1154
sg39
S'MIL'
p1155
sg41
S'77'
p1156
sg43
S'0.9'
p1157
sg45
S'9.2'
p1158
sg47
S'3.9'
p1159
sg49
S'16.9'
p1160
sg51
S'4.7'
p1161
sg53
S'1979-80'
p1162
sg55
S'9.2'
p1163
sg57
S'2.5'
p1164
sg59
S'.546'
p1165
sg61
S'2686'
p1166
sg63
g3
sba(isrc.gp1.models.Per36Minutes
Per36Minutes
p1167
(dp1168
g8
S'3.2'
p1169
sg10
S'0.1'
p1170
sg11
S'.552'
p1171
sg13
S'4.9'
p1172
sg15
S'.000'
p1173
sg16
S'0.0'
p1174
sg17
S'21.8'
p1175
sg19
S'SF'
p1176
sg21
S'.706'
p1177
sg25
S'NBA'
p1178
sg27
S'1.6'
p1179
sg29
S'16.3'
p1180
sg31
S'2.8'
p1181
sg33
S'5.4'
p1182
sg35
S'7.3'
p1183
sg37
S'24'
p1184
sg39
S'MIL'
p1185
sg41
S'76'
p1186
sg43
S'0.6'
p1187
sg45
S'9.0'
p1188
sg47
S'3.8'
p1189
sg49
S'16.2'
p1190
sg51
S'4.1'
p1191
sg53
S'1980-81'
p1192
sg55
S'9.0'
p1193
sg57
S'2.7'
p1194
sg59
S'.556'
p1195
sg61
S'2542'
p1196
sg63
g3
sba(isrc.gp1.models.Per36Minutes
Per36Minutes
p1197
(dp1198
g8
S'2.9'
p1199
sg10
S'0.1'
p1200
sg11
S'.532'
p1201
sg13
S'4.0'
p1202
sg15
S'.000'
p1203
sg16
S'0.0'
p1204
sg17
S'18.8'
p1205
sg19
S'SF'
p1206
sg21
S'.700'
p1207
sg25
S'NBA'
p1208
sg27
S'1.1'
p1209
sg29
S'14.4'
p1210
sg31
S'2.7'
p1211
sg33
S'4.9'
p1212
sg35
S'6.9'
p1213
sg37
S'25'
p1214
sg39
S'MIL'
p1215
sg41
S'60'
p1216
sg43
S'0.7'
p1217
sg45
S'7.7'
p1218
sg47
S'3.4'
p1219
sg49
S'14.3'
p1220
sg51
S'4.0'
p1221
sg53
S'1981-82'
p1222
sg55
S'7.7'
p1223
sg57
S'2.7'
p1224
sg59
S'.534'
p1225
sg61
S'1900'
p1226
sg63
S'52'
p1227
sba(isrc.gp1.models.Per36Minutes
Per36Minutes
p1228
(dp1229
g8
S'2.5'
p1230
sg10
S'0.3'
p1231
sg11
S'.509'
p1232
sg13
S'4.6'
p1233
sg15
S'.200'
p1234
sg16
S'0.1'
p1235
sg17
S'21.6'
p1236
sg19
S'SF'
p1237
sg21
S'.735'
p1238
sg25
S'NBA'
p1239
sg27
S'1.3'
p1240
sg29
S'17.9'
p1241
sg31
S'2.7'
p1242
sg33
S'4.5'
p1243
sg35
S'7.1'
p1244
sg37
S'26'
p1245
sg39
S'MIL'
p1246
sg41
S'80'
p1247
sg43
S'0.7'
p1248
sg45
S'9.1'
p1249
sg47
S'3.3'
p1250
sg49
S'17.7'
p1251
sg51
S'4.6'
p1252
sg53
S'1982-83'
p1253
sg55
S'9.1'
p1254
sg57
S'2.5'
p1255
sg59
S'.514'
p1256
sg61
S'2853'
p1257
sg63
S'80'
p1258
sba(isrc.gp1.models.Per36Minutes
Per36Minutes
p1259
(dp1260
g8
S'2.3'
p1261
sg10
S'0.2'
p1262
sg11
S'.502'
p1263
sg13
S'4.2'
p1264
sg15
S'.154'
p1265
sg16
S'0.0'
p1266
sg17
S'20.4'
p1267
sg19
S'SF'
p1268
sg21
S'.709'
p1269
sg25
S'NBA'
p1270
sg27
S'1.5'
p1271
sg29
S'17.1'
p1272
sg31
S'2.6'
p1273
sg33
S'4.5'
p1274
sg35
S'6.4'
p1275
sg37
S'27'
p1276
sg39
S'MIL'
p1277
sg41
S'74'
p1278
sg43
S'0.6'
p1279
sg45
S'8.5'
p1280
sg47
S'3.2'
p1281
sg49
S'16.9'
p1282
sg51
S'4.1'
p1283
sg53
S'1983-84'
p1284
sg55
S'8.6'
p1285
sg57
S'2.4'
p1286
sg59
S'.505'
p1287
sg61
S'2715'
p1288
sg63
S'74'
p1289
sba(isrc.gp1.models.Per36Minutes
Per36Minutes
p1290
(dp1291
g8
S'2.8'
p1292
sg10
S'0.2'
p1293
sg11
S'.452'
p1294
sg13
S'3.6'
p1295
sg15
S'.231'
p1296
sg16
S'0.0'
p1297
sg17
S'17.4'
p1298
sg19
S'SF'
p1299
sg21
S'.731'
p1300
sg25
S'NBA'
p1301
sg27
S'1.1'
p1302
sg29
S'16.1'
p1303
sg31
S'2.8'
p1304
sg33
S'3.8'
p1305
sg35
S'6.3'
p1306
sg37
S'28'
p1307
sg39
S'LAC'
p1308
sg41
S'72'
p1309
sg43
S'0.4'
p1310
sg45
S'7.2'
p1311
sg47
S'2.8'
p1312
sg49
S'15.9'
p1313
sg51
S'3.5'
p1314
sg53
S'1984-85'
p1315
sg55
S'7.3'
p1316
sg57
S'2.6'
p1317
sg59
S'.454'
p1318
sg61
S'2448'
p1319
sg63
S'68'
p1320
sba(isrc.gp1.models.Per36Minutes
Per36Minutes
p1321
(dp1322
g8
S'2.2'
p1323
sg10
S'0.2'
p1324
sg11
S'.510'
p1325
sg13
S'3.9'
p1326
sg15
S'.067'
p1327
sg16
S'0.0'
p1328
sg17
S'21.1'
p1329
sg19
S'SG'
p1330
sg21
S'.760'
p1331
sg25
S'NBA'
p1332
sg27
S'1.5'
p1333
sg29
S'16.6'
p1334
sg31
S'3.0'
p1335
sg33
S'5.4'
p1336
sg35
S'5.7'
p1337
sg37
S'29'
p1338
sg39
S'LAC'
p1339
sg41
S'75'
p1340
sg43
S'0.7'
p1341
sg45
S'8.5'
p1342
sg47
S'4.1'
p1343
sg49
S'16.4'
p1344
sg51
S'3.6'
p1345
sg53
S'1985-86'
p1346
sg55
S'8.5'
p1347
sg57
S'2.5'
p1348
sg59
S'.516'
p1349
sg61
S'2605'
p1350
sg63
S'75'
p1351
sba(isrc.gp1.models.Per36Minutes
Per36Minutes
p1352
(dp1353
g8
S'1.1'
p1354
sg10
S'0.7'
p1355
sg11
S'.439'
p1356
sg13
S'3.3'
p1357
sg15
S'.000'
p1358
sg16
S'0.0'
p1359
sg17
S'19.8'
p1360
sg19
S'SF'
p1361
sg21
S'.714'
p1362
sg25
S'NBA'
p1363
sg27
S'1.4'
p1364
sg29
S'18.5'
p1365
sg31
S'2.9'
p1366
sg33
S'5.0'
p1367
sg35
S'3.9'
p1368
sg37
S'30'
p1369
sg39
S'LAC'
p1370
sg41
S'10'
p1371
sg43
S'0.6'
p1372
sg45
S'8.1'
p1373
sg47
S'3.6'
p1374
sg49
S'17.8'
p1375
sg51
S'2.9'
p1376
sg53
S'1986-87'
p1377
sg55
S'8.1'
p1378
sg57
S'2.0'
p1379
sg59
S'.456'
p1380
sg61
S'302'
p1381
sg63
S'10'
p1382
sba(isrc.gp1.models.Per36Minutes
Per36Minutes
p1383
(dp1384
g8
S'2.9'
p1385
sg10
S'1.1'
p1386
sg11
S'.375'
p1387
sg13
S'3.3'
p1388
sg15
S'.667'
p1389
sg16
S'0.7'
p1390
sg17
S'14.5'
p1391
sg19
S'SF'
p1392
sg21
S'.824'
p1393
sg25
S'NBA'
p1394
sg27
S'0.0'
p1395
sg29
S'11.6'
p1396
sg31
S'4.4'
p1397
sg33
S'6.2'
p1398
sg35
S'6.2'
p1399
sg37
S'33'
p1400
sg39
S'GSW'
p1401
sg41
S'10'
p1402
sg43
S'0.4'
p1403
sg45
S'3.6'
p1404
sg47
S'5.1'
p1405
sg49
S'10.5'
p1406
sg51
S'3.3'
p1407
sg53
S'1989-90'
p1408
sg55
S'4.4'
p1409
sg57
S'3.6'
p1410
sg59
S'.345'
p1411
sg61
S'99'
p1412
sg63
g129
sbasS'_fromYear'
p1413
S'1978'
p1414
sS'_url'
p1415
S'http://www.basketball-reference.com/players/j/johnsma01.html'
p1416
sS'_perGame'
p1417
(isrc.gp1.models.PerGame
PerGame
p1418
(dp1419
g8
S'0.8'
p1420
sg10
S'0.3'
p1421
sg11
S'.375'
p1422
sS'_effectiveFieldGalPercentage'
p1423
S'.406'
p1424
sg13
S'0.9'
p1425
sg15
S'.667'
p1426
sg16
S'0.2'
p1427
sg17
S'4.0'
p1428
sg19
S'SF'
p1429
sg21
S'.824'
p1430
sg25
S'NBA'
p1431
sg27
S'0.0'
p1432
sg31
S'1.2'
p1433
sS'_fieldGoalsttempted'
p1434
S'3.2'
p1435
sg33
S'1.7'
p1436
sg35
S'1.7'
p1437
sg37
S'33'
p1438
sg39
S'GSW'
p1439
sg41
S'10'
p1440
sg43
S'0.1'
p1441
sg45
S'1.0'
p1442
sg47
S'1.4'
p1443
sg49
S'2.9'
p1444
sg51
S'0.9'
p1445
sg53
S'1989-90'
p1446
sg55
S'1.2'
p1447
sg57
S'1.0'
p1448
sg59
S'.345'
p1449
sg61
S'9.9'
p1450
sg63
g129
sbsS'_weight'
p1451
S'218'
p1452
sS'_dob'
p1453
S'8-2-1956'
p1454
sS'_salary'
p1455
(lp1456
(isrc.gp1.models.Salary
Salary
p1457
(dp1458
g39
S'Los Angeles Clippers'
p1459
sg25
S'NBA'
p1460
sg1455
S'$1,100,000'
p1461
sg53
S'1985-86'
p1462
sbasg19
S'F-G'
p1463
sb.