(isrc.gp1.models.Player
Player
p0
(dp1
S'_experience'
p2
V7
p3
sS'_totals'
p4
(lp5
(isrc.gp1.models.Totals
Totals
p6
(dp7
S'_offensiveRebounds'
p8
S'123'
p9
sS'_threePointsAttempted'
p10
S'8'
p11
sS'_fieldGoalsPercentage'
p12
S'.502'
p13
sS'_assist'
p14
S'30'
p15
sS'_threePointsPercentage'
p16
S'.250'
p17
sS'_threePoints'
p18
S'2'
p19
sS'_points'
p20
S'608'
p21
sS'_position'
p22
S'C'
p23
sS'_freeThrowsPercentage'
p24
S'.773'
p25
sS'_effectiveFieldGoalPercentage'
p26
S'.504'
p27
sS'_league'
p28
S'NBA'
p29
sS'_steals'
p30
S'27'
p31
sS'_fieldGoalsAttempted'
p32
S'502'
p33
sS'_personalFouls'
p34
S'181'
p35
sS'_freeThrowsAttempted'
p36
S'132'
p37
sS'_totalRebounds'
p38
S'293'
p39
sS'_age'
p40
S'21'
p41
sS'_team'
p42
S'PHI'
p43
sS'_games'
p44
S'79'
p45
sS'_blocks'
p46
S'56'
p47
sS'_twoPoints'
p48
S'250'
p49
sS'_freeThrows'
p50
S'102'
p51
sS'_twoPointsAttempted'
p52
S'494'
p53
sS'_defensiveRebounds'
p54
S'170'
p55
sS'_season'
p56
S'2008-09'
p57
sS'_fieldGoals'
p58
S'252'
p59
sS'_turnOvers'
p60
S'46'
p61
sS'_twoPointsPercentage'
p62
S'.506'
p63
sS'_minutesPlayed'
p64
S'1263'
p65
sS'_gamesStarted'
p66
g19
sba(isrc.gp1.models.Totals
Totals
p67
(dp68
g8
S'85'
p69
sg10
S'5'
p70
sg12
S'.477'
p71
sg14
S'36'
p72
sg16
S'.000'
p73
sg18
S'0'
p74
sg20
S'532'
p75
sg22
g23
sg24
S'.745'
p76
sg26
S'.477'
p77
sg28
S'NBA'
p78
sg30
S'29'
p79
sg32
S'444'
p80
sg34
S'152'
p81
sg36
S'145'
p82
sg38
S'252'
p83
sg40
S'22'
p84
sg42
S'PHI'
p85
sg44
S'62'
p86
sg46
S'34'
p87
sg48
S'212'
p88
sg50
S'108'
p89
sg52
S'439'
p90
sg54
S'167'
p91
sg56
S'2009-10'
p92
sg58
S'212'
p93
sg60
S'51'
p94
sg62
S'.483'
p95
sg64
S'1016'
p96
sg66
S'1'
p97
sba(isrc.gp1.models.Totals
Totals
p98
(dp99
g8
S'64'
p100
sg10
S'4'
p101
sg12
S'.495'
p102
sg14
S'30'
p103
sg16
S'.250'
p104
sg18
g97
sg20
S'344'
p105
sg22
g23
sg24
S'.753'
p106
sg26
S'.497'
p107
sg28
S'NBA'
p108
sg30
g11
sg32
S'291'
p109
sg34
S'120'
p110
sg36
S'73'
p111
sg38
S'210'
p112
sg40
S'23'
p113
sg42
S'PHI'
p114
sg44
S'64'
p115
sg46
S'19'
p116
sg48
S'143'
p117
sg50
S'55'
p118
sg52
S'287'
p119
sg54
S'146'
p120
sg56
S'2010-11'
p121
sg58
S'144'
p122
sg60
S'40'
p123
sg62
S'.498'
p124
sg64
S'734'
p125
sg66
g97
sba(isrc.gp1.models.Totals
Totals
p126
(dp127
g8
S'133'
p128
sg10
S'3'
p129
sg12
S'.453'
p130
sg14
S'48'
p131
sg16
S'.000'
p132
sg18
g74
sg20
S'526'
p133
sg22
S'PF'
p134
sg24
S'.771'
p135
sg26
S'.453'
p136
sg28
S'NBA'
p137
sg30
S'21'
p138
sg32
S'488'
p139
sg34
S'147'
p140
sg36
S'109'
p141
sg38
S'374'
p142
sg40
S'24'
p143
sg42
S'MEM'
p144
sg44
S'60'
p145
sg46
S'29'
p146
sg48
S'221'
p147
sg50
S'84'
p148
sg52
S'485'
p149
sg54
S'241'
p150
sg56
S'2011-12'
p151
sg58
S'221'
p152
sg60
S'74'
p153
sg62
S'.456'
p154
sg64
S'1345'
p155
sg66
S'54'
p156
sba(isrc.gp1.models.Totals
Totals
p157
(dp158
g8
S'146'
p159
sg10
S'10'
p160
sg12
S'.445'
p161
sg14
S'47'
p162
sg16
S'.300'
p163
sg18
g129
sg20
S'658'
p164
sg22
g23
sg24
S'.771'
p165
sg26
S'.448'
p166
sg28
S'NBA'
p167
sg30
S'24'
p168
sg32
S'584'
p169
sg34
S'175'
p170
sg36
S'175'
p171
sg38
S'386'
p172
sg40
S'25'
p173
sg42
S'TOT'
p174
sg44
S'79'
p175
sg46
S'53'
p176
sg48
S'257'
p177
sg50
S'135'
p178
sg52
S'574'
p179
sg54
S'240'
p180
sg56
S'2012-13'
p181
sg58
S'260'
p182
sg60
S'80'
p183
sg62
S'.448'
p184
sg64
S'1300'
p185
sg66
g129
sba(isrc.gp1.models.Totals
Totals
p186
(dp187
g8
S'76'
p188
sg10
g70
sg12
S'.429'
p189
sg14
S'18'
p190
sg16
S'.400'
p191
sg18
g19
sg20
S'262'
p192
sg22
g23
sg24
S'.716'
p193
sg26
S'.433'
p194
sg28
S'NBA'
p195
sg30
S'10'
p196
sg32
S'247'
p197
sg34
S'86'
p198
sg36
S'67'
p199
sg38
S'189'
p200
sg40
S'25'
p201
sg42
S'MEM'
p202
sg44
S'40'
p203
sg46
S'27'
p204
sg48
S'104'
p205
sg50
S'48'
p206
sg52
S'242'
p207
sg54
S'113'
p208
sg56
S'2012-13'
p209
sg58
S'106'
p210
sg60
S'35'
p211
sg62
S'.430'
p212
sg64
S'579'
p213
sg66
g19
sba(isrc.gp1.models.Totals
Totals
p214
(dp215
g8
S'70'
p216
sg10
g70
sg12
S'.457'
p217
sg14
S'29'
p218
sg16
S'.200'
p219
sg18
g97
sg20
S'396'
p220
sg22
g23
sg24
S'.806'
p221
sg26
S'.458'
p222
sg28
S'NBA'
p223
sg30
S'14'
p224
sg32
S'337'
p225
sg34
S'89'
p226
sg36
S'108'
p227
sg38
S'197'
p228
sg40
S'25'
p229
sg42
S'CLE'
p230
sg44
S'39'
p231
sg46
S'26'
p232
sg48
S'153'
p233
sg50
S'87'
p234
sg52
S'332'
p235
sg54
S'127'
p236
sg56
S'2012-13'
p237
sg58
S'154'
p238
sg60
S'45'
p239
sg62
S'.461'
p240
sg64
S'721'
p241
sg66
g97
sba(isrc.gp1.models.Totals
Totals
p242
(dp243
g8
S'101'
p244
sg10
S'31'
p245
sg12
S'.441'
p246
sg14
S'32'
p247
sg16
S'.258'
p248
sg18
g11
sg20
S'508'
p249
sg22
g23
sg24
S'.821'
p250
sg26
S'.450'
p251
sg28
S'NBA'
p252
sg30
S'10'
p253
sg32
S'442'
p254
sg34
S'148'
p255
sg36
S'134'
p256
sg38
S'290'
p257
sg40
S'26'
p258
sg42
S'GSW'
p259
sg44
S'79'
p260
sg46
S'34'
p261
sg48
S'187'
p262
sg50
S'110'
p263
sg52
S'411'
p264
sg54
S'189'
p265
sg56
S'2013-14'
p266
sg58
S'195'
p267
sg60
S'66'
p268
sg62
S'.455'
p269
sg64
S'982'
p270
sg66
g129
sba(isrc.gp1.models.Totals
Totals
p271
(dp272
g8
S'109'
p273
sg10
S'18'
p274
sg12
S'.492'
p275
sg14
S'72'
p276
sg16
S'.278'
p277
sg18
g70
sg20
S'791'
p278
sg22
S'PF'
p279
sg24
S'.843'
p280
sg26
S'.496'
p281
sg28
S'NBA'
p282
sg30
S'20'
p283
sg32
S'646'
p284
sg34
S'189'
p285
sg36
S'178'
p286
sg38
S'325'
p287
sg40
S'27'
p288
sg42
S'GSW'
p289
sg44
S'76'
p290
sg46
S'34'
p291
sg48
S'313'
p292
sg50
S'150'
p293
sg52
S'628'
p294
sg54
S'216'
p295
sg56
S'2014-15'
p296
sg58
S'318'
p297
sg60
S'82'
p298
sg62
S'.498'
p299
sg64
S'1207'
p300
sg66
S'9'
p301
sba(isrc.gp1.models.Totals
Totals
p302
(dp303
g8
S'45'
p304
sg10
S'18'
p305
sg12
S'.378'
p306
sg14
S'30'
p307
sg16
S'.333'
p308
sg18
S'6'
p309
sg20
S'232'
p310
sg22
S'PF'
p311
sg24
S'.793'
p312
sg26
S'.391'
p313
sg28
S'NBA'
p314
sg30
g11
sg32
S'238'
p315
sg34
S'62'
p316
sg36
S'58'
p317
sg38
S'135'
p318
sg40
S'28'
p319
sg42
S'GSW'
p320
sg44
S'40'
p321
sg46
S'13'
p322
sg48
S'84'
p323
sg50
S'46'
p324
sg52
S'220'
p325
sg54
S'90'
p326
sg56
S'2015-16'
p327
sg58
S'90'
p328
sg60
S'36'
p329
sg62
S'.382'
p330
sg64
S'431'
p331
sg66
g74
sbasS'_college'
p332
S'University of Florida'
p333
sS'_toYear'
p334
S'2016'
p335
sS'_height'
p336
S'6-10'
p337
sS'_active'
p338
I01
sS'_shootingHand'
p339
VRight
p340
sS'_name'
p341
S'Marreese Speights'
p342
sS'_per100Possessions'
p343
(lp344
(isrc.gp1.models.Per100Possession
Per100Possession
p345
(dp346
g8
S'5.2'
p347
sg10
S'0.3'
p348
sg12
S'.502'
p349
sS'_offensiveRating'
p350
S'115'
p351
sg14
S'1.3'
p352
sg16
S'.250'
p353
sg18
S'0.1'
p354
sg20
S'25.7'
p355
sg22
g23
sS'_defensiveRating'
p356
S'107'
p357
sg24
S'.773'
p358
sg28
S'NBA'
p359
sg30
S'1.1'
p360
sg32
S'21.2'
p361
sg34
S'7.6'
p362
sg36
S'5.6'
p363
sg38
S'12.4'
p364
sg40
S'21'
p365
sg42
S'PHI'
p366
sg44
S'79'
p367
sg46
S'2.4'
p368
sg48
S'10.6'
p369
sg50
S'4.3'
p370
sg52
S'20.9'
p371
sg54
S'7.2'
p372
sg56
S'2008-09'
p373
sg58
S'10.6'
p374
sg60
S'1.9'
p375
sg62
S'.506'
p376
sg64
S'1263'
p377
sg66
g19
sba(isrc.gp1.models.Per100Possession
Per100Possession
p378
(dp379
g8
S'4.4'
p380
sg10
S'0.3'
p381
sg12
S'.477'
p382
sg350
S'107'
p383
sg14
S'1.9'
p384
sg16
S'.000'
p385
sg18
S'0.0'
p386
sg20
S'27.4'
p387
sg22
g23
sg356
S'109'
p388
sg24
S'.745'
p389
sg28
S'NBA'
p390
sg30
S'1.5'
p391
sg32
S'22.9'
p392
sg34
S'7.8'
p393
sg36
S'7.5'
p394
sg38
S'13.0'
p395
sg40
S'22'
p396
sg42
S'PHI'
p397
sg44
S'62'
p398
sg46
S'1.8'
p399
sg48
S'10.9'
p400
sg50
S'5.6'
p401
sg52
S'22.7'
p402
sg54
S'8.6'
p403
sg56
S'2009-10'
p404
sg58
S'10.9'
p405
sg60
S'2.6'
p406
sg62
S'.483'
p407
sg64
S'1016'
p408
sg66
g97
sba(isrc.gp1.models.Per100Possession
Per100Possession
p409
(dp410
g8
S'4.6'
p411
sg10
S'0.3'
p412
sg12
S'.495'
p413
sg350
S'105'
p414
sg14
S'2.1'
p415
sg16
S'.250'
p416
sg18
S'0.1'
p417
sg20
S'24.5'
p418
sg22
g23
sg356
S'104'
p419
sg24
S'.753'
p420
sg28
S'NBA'
p421
sg30
S'0.6'
p422
sg32
S'20.8'
p423
sg34
S'8.6'
p424
sg36
S'5.2'
p425
sg38
S'15.0'
p426
sg40
S'23'
p427
sg42
S'PHI'
p428
sg44
S'64'
p429
sg46
S'1.4'
p430
sg48
S'10.2'
p431
sg50
S'3.9'
p432
sg52
S'20.5'
p433
sg54
S'10.4'
p434
sg56
S'2010-11'
p435
sg58
S'10.3'
p436
sg60
S'2.9'
p437
sg62
S'.498'
p438
sg64
S'734'
p439
sg66
g97
sba(isrc.gp1.models.Per100Possession
Per100Possession
p440
(dp441
g8
S'5.2'
p442
sg10
S'0.1'
p443
sg12
S'.453'
p444
sg350
S'102'
p445
sg14
S'1.9'
p446
sg16
S'.000'
p447
sg18
S'0.0'
p448
sg20
S'20.7'
p449
sg22
S'PF'
p450
sg356
S'102'
p451
sg24
S'.771'
p452
sg28
S'NBA'
p453
sg30
S'0.8'
p454
sg32
S'19.2'
p455
sg34
S'5.8'
p456
sg36
S'4.3'
p457
sg38
S'14.7'
p458
sg40
S'24'
p459
sg42
S'MEM'
p460
sg44
S'60'
p461
sg46
S'1.1'
p462
sg48
S'8.7'
p463
sg50
S'3.3'
p464
sg52
S'19.1'
p465
sg54
S'9.5'
p466
sg56
S'2011-12'
p467
sg58
S'8.7'
p468
sg60
S'2.9'
p469
sg62
S'.456'
p470
sg64
S'1345'
p471
sg66
S'54'
p472
sba(isrc.gp1.models.Per100Possession
Per100Possession
p473
(dp474
g8
S'6.0'
p475
sg10
S'0.4'
p476
sg12
S'.445'
p477
sg350
S'103'
p478
sg14
S'1.9'
p479
sg16
S'.300'
p480
sg18
S'0.1'
p481
sg20
S'26.8'
p482
sg22
g23
sg356
S'104'
p483
sg24
S'.771'
p484
sg28
S'NBA'
p485
sg30
S'1.0'
p486
sg32
S'23.8'
p487
sg34
S'7.1'
p488
sg36
S'7.1'
p489
sg38
S'15.7'
p490
sg40
S'25'
p491
sg42
S'TOT'
p492
sg44
S'79'
p493
sg46
S'2.2'
p494
sg48
S'10.5'
p495
sg50
S'5.5'
p496
sg52
S'23.4'
p497
sg54
S'9.8'
p498
sg56
S'2012-13'
p499
sg58
S'10.6'
p500
sg60
S'3.3'
p501
sg62
S'.448'
p502
sg64
S'1300'
p503
sg66
g129
sba(isrc.gp1.models.Per100Possession
Per100Possession
p504
(dp505
g8
S'7.1'
p506
sg10
S'0.5'
p507
sg12
S'.429'
p508
sg350
S'101'
p509
sg14
S'1.7'
p510
sg16
S'.400'
p511
sg18
S'0.2'
p512
sg20
S'24.6'
p513
sg22
g23
sg356
S'98'
p514
sg24
S'.716'
p515
sg28
S'NBA'
p516
sg30
S'0.9'
p517
sg32
S'23.2'
p518
sg34
S'8.1'
p519
sg36
S'6.3'
p520
sg38
S'17.7'
p521
sg40
S'25'
p522
sg42
S'MEM'
p523
sg44
S'40'
p524
sg46
S'2.5'
p525
sg48
S'9.7'
p526
sg50
S'4.5'
p527
sg52
S'22.7'
p528
sg54
S'10.6'
p529
sg56
S'2012-13'
p530
sg58
S'9.9'
p531
sg60
S'3.3'
p532
sg62
S'.430'
p533
sg64
S'579'
p534
sg66
g19
sba(isrc.gp1.models.Per100Possession
Per100Possession
p535
(dp536
g8
S'5.0'
p537
sg10
S'0.4'
p538
sg12
S'.457'
p539
sg350
S'105'
p540
sg14
S'2.1'
p541
sg16
S'.200'
p542
sg18
S'0.1'
p543
sg20
S'28.6'
p544
sg22
g23
sg356
S'108'
p545
sg24
S'.806'
p546
sg28
S'NBA'
p547
sg30
S'1.0'
p548
sg32
S'24.3'
p549
sg34
S'6.4'
p550
sg36
S'7.8'
p551
sg38
S'14.2'
p552
sg40
S'25'
p553
sg42
S'CLE'
p554
sg44
S'39'
p555
sg46
S'1.9'
p556
sg48
S'11.0'
p557
sg50
S'6.3'
p558
sg52
S'24.0'
p559
sg54
S'9.2'
p560
sg56
S'2012-13'
p561
sg58
S'11.1'
p562
sg60
S'3.2'
p563
sg62
S'.461'
p564
sg64
S'721'
p565
sg66
g97
sba(isrc.gp1.models.Per100Possession
Per100Possession
p566
(dp567
g8
S'5.1'
p568
sg10
S'1.6'
p569
sg12
S'.441'
p570
sg350
S'102'
p571
sg14
S'1.6'
p572
sg16
S'.258'
p573
sg18
S'0.4'
p574
sg20
S'25.8'
p575
sg22
g23
sg356
S'103'
p576
sg24
S'.821'
p577
sg28
S'NBA'
p578
sg30
S'0.5'
p579
sg32
S'22.5'
p580
sg34
S'7.5'
p581
sg36
S'6.8'
p582
sg38
S'14.7'
p583
sg40
S'26'
p584
sg42
S'GSW'
p585
sg44
S'79'
p586
sg46
S'1.7'
p587
sg48
S'9.5'
p588
sg50
S'5.6'
p589
sg52
S'20.9'
p590
sg54
S'9.6'
p591
sg56
S'2013-14'
p592
sg58
S'9.9'
p593
sg60
S'3.4'
p594
sg62
S'.455'
p595
sg64
S'982'
p596
sg66
g129
sba(isrc.gp1.models.Per100Possession
Per100Possession
p597
(dp598
g8
S'4.4'
p599
sg10
S'0.7'
p600
sg12
S'.492'
p601
sg350
S'108'
p602
sg14
S'2.9'
p603
sg16
S'.278'
p604
sg18
S'0.2'
p605
sg20
S'32.0'
p606
sg22
S'PF'
p607
sg356
S'102'
p608
sg24
S'.843'
p609
sg28
S'NBA'
p610
sg30
S'0.8'
p611
sg32
S'26.1'
p612
sg34
S'7.6'
p613
sg36
S'7.2'
p614
sg38
S'13.2'
p615
sg40
S'27'
p616
sg42
S'GSW'
p617
sg44
S'76'
p618
sg46
S'1.4'
p619
sg48
S'12.7'
p620
sg50
S'6.1'
p621
sg52
S'25.4'
p622
sg54
S'8.7'
p623
sg56
S'2014-15'
p624
sg58
S'12.9'
p625
sg60
S'3.3'
p626
sg62
S'.498'
p627
sg64
S'1207'
p628
sg66
g301
sba(isrc.gp1.models.Per100Possession
Per100Possession
p629
(dp630
g8
S'5.0'
p631
sg10
S'2.0'
p632
sg12
S'.378'
p633
sg350
S'93'
p634
sg14
S'3.4'
p635
sg16
S'.333'
p636
sg18
S'0.7'
p637
sg20
S'26.0'
p638
sg22
S'PF'
p639
sg356
S'102'
p640
sg24
S'.793'
p641
sg28
S'NBA'
p642
sg30
S'0.9'
p643
sg32
S'26.6'
p644
sg34
S'6.9'
p645
sg36
S'6.5'
p646
sg38
S'15.1'
p647
sg40
S'28'
p648
sg42
S'GSW'
p649
sg44
S'40'
p650
sg46
S'1.5'
p651
sg48
S'9.4'
p652
sg50
S'5.1'
p653
sg52
S'24.6'
p654
sg54
S'10.1'
p655
sg56
S'2015-16'
p656
sg58
S'10.1'
p657
sg60
S'4.0'
p658
sg62
S'.382'
p659
sg64
S'431'
p660
sg66
g74
sbasS'_advanced'
p661
(lp662
(isrc.gp1.models.Advanced
Advanced
p663
(dp664
S'_offensiveReboundPercentage'
p665
S'11.6'
p666
sS'_turnOverPercentage'
p667
S'7.6'
p668
sS'_winSharesPer48Minutes'
p669
S'.146'
p670
sS'_stealPercentage'
p671
S'1.1'
p672
sS'_usagePercentage'
p673
S'21.9'
p674
sS'_totalReboundsPercentage'
p675
S'13.9'
p676
sS'_defensiveBoxPlusMinus'
p677
S'-1.0'
p678
sg22
g23
sS'_valueOverReplacementPlayer'
p679
S'0.1'
p680
sS'_trueShootingPercentage'
p681
S'.543'
p682
sS'_defensiveReboundPercentage'
p683
S'16.3'
p684
sS'_freeThrowsAttempRate'
p685
S'.263'
p686
sS'_threePointsAttempRate'
p687
S'.016'
p688
sg28
S'NBA'
p689
sS'_offensiveBoxPlusMinues'
p690
S'-0.7'
p691
sS'_assistPercentage'
p692
S'4.2'
p693
sS'_defensiveWinShares'
p694
S'1.5'
p695
sg40
S'21'
p696
sg42
S'PHI'
p697
sg44
S'79'
p698
sS'_blockPercentage'
p699
S'3.6'
p700
sS'_playerEfficiencyRating'
p701
S'17.9'
p702
sS'_offensiveWinShares'
p703
S'2.4'
p704
sg64
S'1263'
p705
sS'_boxPlusMinus'
p706
S'-1.7'
p707
sg56
S'2008-09'
p708
sS'_winShares'
p709
S'3.8'
p710
sba(isrc.gp1.models.Advanced
Advanced
p711
(dp712
g665
S'9.7'
p713
sg667
S'9.1'
p714
sg669
S'.101'
p715
sg671
S'1.5'
p716
sg673
S'25.1'
p717
sg675
S'14.6'
p718
sg677
S'-2.0'
p719
sg22
g23
sg679
S'-0.5'
p720
sg681
S'.524'
p721
sg683
S'19.7'
p722
sg685
S'.327'
p723
sg687
S'.011'
p724
sg28
S'NBA'
p725
sg690
S'-1.9'
p726
sg692
S'6.2'
p727
sg694
S'0.9'
p728
sg40
S'22'
p729
sg42
S'PHI'
p730
sg44
S'62'
p731
sg699
S'2.6'
p732
sg701
S'17.6'
p733
sg703
S'1.2'
p734
sg64
S'1016'
p735
sg706
S'-3.9'
p736
sg56
S'2009-10'
p737
sg709
S'2.1'
p738
sba(isrc.gp1.models.Advanced
Advanced
p739
(dp740
g665
S'10.1'
p741
sg667
S'11.0'
p742
sg669
S'.110'
p743
sg671
S'0.6'
p744
sg673
S'22.8'
p745
sg675
S'16.5'
p746
sg677
S'-1.3'
p747
sg22
g23
sg679
S'-0.4'
p748
sg681
S'.532'
p749
sg683
S'22.9'
p750
sg685
S'.251'
p751
sg687
S'.014'
p752
sg28
S'NBA'
p753
sg690
S'-2.7'
p754
sg692
S'7.0'
p755
sg694
S'1.0'
p756
sg40
S'23'
p757
sg42
S'PHI'
p758
sg44
S'64'
p759
sg699
S'2.0'
p760
sg701
S'15.3'
p761
sg703
S'0.7'
p762
sg64
S'734'
p763
sg706
S'-3.9'
p764
sg56
S'2010-11'
p765
sg709
S'1.7'
p766
sba(isrc.gp1.models.Advanced
Advanced
p767
(dp768
g665
S'11.3'
p769
sg667
S'12.1'
p770
sg669
S'.096'
p771
sg671
S'0.8'
p772
sg673
S'20.5'
p773
sg675
S'16.2'
p774
sg677
S'-0.5'
p775
sg22
S'PF'
p776
sg679
S'-0.3'
p777
sg681
S'.491'
p778
sg683
S'21.4'
p779
sg685
S'.223'
p780
sg687
S'.006'
p781
sg28
S'NBA'
p782
sg690
S'-2.4'
p783
sg692
S'6.0'
p784
sg694
S'1.7'
p785
sg40
S'24'
p786
sg42
S'MEM'
p787
sg44
S'60'
p788
sg699
S'1.8'
p789
sg701
S'14.1'
p790
sg703
S'0.9'
p791
sg64
S'1345'
p792
sg706
S'-2.9'
p793
sg56
S'2011-12'
p794
sg709
S'2.7'
p795
sba(isrc.gp1.models.Advanced
Advanced
p796
(dp797
g665
S'12.7'
p798
sg667
S'10.8'
p799
sg669
S'.104'
p800
sg671
S'1.0'
p801
sg673
S'25.8'
p802
sg675
S'17.4'
p803
sg677
S'-1.1'
p804
sg22
g23
sg679
S'-0.5'
p805
sg681
S'.498'
p806
sg683
S'22.3'
p807
sg685
S'.300'
p808
sg687
S'.017'
p809
sg28
S'NBA'
p810
sg690
S'-2.4'
p811
sg692
S'6.5'
p812
sg694
S'1.7'
p813
sg40
S'25'
p814
sg42
S'TOT'
p815
sg44
S'79'
p816
sg699
S'3.3'
p817
sg701
S'17.3'
p818
sg703
S'1.1'
p819
sg64
S'1300'
p820
sg706
S'-3.5'
p821
sg56
S'2012-13'
p822
sg709
S'2.8'
p823
sba(isrc.gp1.models.Advanced
Advanced
p824
(dp825
g665
S'15.2'
p826
sg667
S'11.2'
p827
sg669
S'.116'
p828
sg671
S'0.9'
p829
sg673
S'24.8'
p830
sg675
S'19.3'
p831
sg677
S'-0.1'
p832
sg22
g23
sg679
S'-0.2'
p833
sg681
S'.474'
p834
sg683
S'23.5'
p835
sg685
S'.271'
p836
sg687
S'.020'
p837
sg28
S'NBA'
p838
sg690
S'-3.1'
p839
sg692
S'5.5'
p840
sg694
S'1.1'
p841
sg40
S'25'
p842
sg42
S'MEM'
p843
sg44
S'40'
p844
sg699
S'3.8'
p845
sg701
S'16.1'
p846
sg703
S'0.3'
p847
sg64
S'579'
p848
sg706
S'-3.2'
p849
sg56
S'2012-13'
p850
sg709
S'1.4'
p851
sba(isrc.gp1.models.Advanced
Advanced
p852
(dp853
g665
S'10.7'
p854
sg667
S'10.5'
p855
sg669
S'.094'
p856
sg671
S'1.0'
p857
sg673
S'26.6'
p858
sg675
S'15.8'
p859
sg677
S'-2.0'
p860
sg22
g23
sg679
S'-0.3'
p861
sg681
S'.515'
p862
sg683
S'21.4'
p863
sg685
S'.320'
p864
sg687
S'.015'
p865
sg28
S'NBA'
p866
sg690
S'-1.9'
p867
sg692
S'7.4'
p868
sg694
S'0.6'
p869
sg40
S'25'
p870
sg42
S'CLE'
p871
sg44
S'39'
p872
sg699
S'2.9'
p873
sg701
S'18.2'
p874
sg703
S'0.9'
p875
sg64
S'721'
p876
sg706
S'-3.8'
p877
sg56
S'2012-13'
p878
sg709
S'1.4'
p879
sba(isrc.gp1.models.Advanced
Advanced
p880
(dp881
g665
S'11.4'
p882
sg667
S'11.6'
p883
sg669
S'.103'
p884
sg671
S'0.5'
p885
sg673
S'25.4'
p886
sg675
S'16.1'
p887
sg677
S'-1.3'
p888
sg22
g23
sg679
S'-0.8'
p889
sg681
S'.507'
p890
sg683
S'20.6'
p891
sg685
S'.303'
p892
sg687
S'.070'
p893
sg28
S'NBA'
p894
sg690
S'-3.9'
p895
sg692
S'5.3'
p896
sg694
S'1.5'
p897
sg40
S'26'
p898
sg42
S'GSW'
p899
sg44
S'79'
p900
sg699
S'2.6'
p901
sg701
S'15.2'
p902
sg703
S'0.6'
p903
sg64
S'982'
p904
sg706
S'-5.2'
p905
sg56
S'2013-14'
p906
sg709
S'2.1'
p907
sba(isrc.gp1.models.Advanced
Advanced
p908
(dp909
g665
S'10.1'
p910
sg667
S'10.2'
p911
sg669
S'.158'
p912
sg671
S'0.8'
p913
sg673
S'29.1'
p914
sg675
S'14.5'
p915
sg677
S'-1.3'
p916
sg22
S'PF'
p917
sg679
S'-0.2'
p918
sg681
S'.546'
p919
sg683
S'18.7'
p920
sg685
S'.276'
p921
sg687
S'.028'
p922
sg28
S'NBA'
p923
sg690
S'-1.3'
p924
sg692
S'9.9'
p925
sg694
S'1.8'
p926
sg40
S'27'
p927
sg42
S'GSW'
p928
sg44
S'76'
p929
sg699
S'2.1'
p930
sg701
S'19.5'
p931
sg703
S'2.2'
p932
sg64
S'1207'
p933
sg706
S'-2.6'
p934
sg56
S'2014-15'
p935
sg709
S'4.0'
p936
sba(isrc.gp1.models.Advanced
Advanced
p937
(dp938
g665
S'12.1'
p939
sg667
S'12.0'
p940
sg669
S'.035'
p941
sg671
S'0.9'
p942
sg673
S'30.0'
p943
sg675
S'16.8'
p944
sg677
S'-1.7'
p945
sg22
S'PF'
p946
sg679
S'-0.6'
p947
sg681
S'.440'
p948
sg683
S'21.0'
p949
sg685
S'.244'
p950
sg687
S'.076'
p951
sg28
S'NBA'
p952
sg690
S'-5.9'
p953
sg692
S'10.4'
p954
sg694
S'0.6'
p955
sg40
S'28'
p956
sg42
S'GSW'
p957
sg44
S'40'
p958
sg699
S'2.2'
p959
sg701
S'12.3'
p960
sg703
S'-0.3'
p961
sg64
S'431'
p962
sg706
S'-7.6'
p963
sg56
S'2015-16'
p964
sg709
S'0.3'
p965
sbasS'_per36Minutes'
p966
(lp967
(isrc.gp1.models.Per36Minutes
Per36Minutes
p968
(dp969
g8
S'3.5'
p970
sg10
S'0.2'
p971
sg12
S'.502'
p972
sg14
S'0.9'
p973
sg16
S'.250'
p974
sg18
S'0.1'
p975
sg20
S'17.3'
p976
sg22
g23
sg24
S'.773'
p977
sg28
S'NBA'
p978
sg30
S'0.8'
p979
sg32
S'14.3'
p980
sg34
S'5.2'
p981
sg36
S'3.8'
p982
sg38
S'8.4'
p983
sg40
S'21'
p984
sg42
S'PHI'
p985
sg44
S'79'
p986
sg46
S'1.6'
p987
sg48
S'7.1'
p988
sg50
S'2.9'
p989
sg52
S'14.1'
p990
sg54
S'4.8'
p991
sg56
S'2008-09'
p992
sg58
S'7.2'
p993
sg60
S'1.3'
p994
sg62
S'.506'
p995
sg64
S'1263'
p996
sg66
g19
sba(isrc.gp1.models.Per36Minutes
Per36Minutes
p997
(dp998
g8
S'3.0'
p999
sg10
S'0.2'
p1000
sg12
S'.477'
p1001
sg14
S'1.3'
p1002
sg16
S'.000'
p1003
sg18
S'0.0'
p1004
sg20
S'18.9'
p1005
sg22
g23
sg24
S'.745'
p1006
sg28
S'NBA'
p1007
sg30
S'1.0'
p1008
sg32
S'15.7'
p1009
sg34
S'5.4'
p1010
sg36
S'5.1'
p1011
sg38
S'8.9'
p1012
sg40
S'22'
p1013
sg42
S'PHI'
p1014
sg44
S'62'
p1015
sg46
S'1.2'
p1016
sg48
S'7.5'
p1017
sg50
S'3.8'
p1018
sg52
S'15.6'
p1019
sg54
S'5.9'
p1020
sg56
S'2009-10'
p1021
sg58
S'7.5'
p1022
sg60
S'1.8'
p1023
sg62
S'.483'
p1024
sg64
S'1016'
p1025
sg66
g97
sba(isrc.gp1.models.Per36Minutes
Per36Minutes
p1026
(dp1027
g8
S'3.1'
p1028
sg10
S'0.2'
p1029
sg12
S'.495'
p1030
sg14
S'1.5'
p1031
sg16
S'.250'
p1032
sg18
S'0.0'
p1033
sg20
S'16.9'
p1034
sg22
g23
sg24
S'.753'
p1035
sg28
S'NBA'
p1036
sg30
S'0.4'
p1037
sg32
S'14.3'
p1038
sg34
S'5.9'
p1039
sg36
S'3.6'
p1040
sg38
S'10.3'
p1041
sg40
S'23'
p1042
sg42
S'PHI'
p1043
sg44
S'64'
p1044
sg46
S'0.9'
p1045
sg48
S'7.0'
p1046
sg50
S'2.7'
p1047
sg52
S'14.1'
p1048
sg54
S'7.2'
p1049
sg56
S'2010-11'
p1050
sg58
S'7.1'
p1051
sg60
S'2.0'
p1052
sg62
S'.498'
p1053
sg64
S'734'
p1054
sg66
g97
sba(isrc.gp1.models.Per36Minutes
Per36Minutes
p1055
(dp1056
g8
S'3.6'
p1057
sg10
S'0.1'
p1058
sg12
S'.453'
p1059
sg14
S'1.3'
p1060
sg16
S'.000'
p1061
sg18
S'0.0'
p1062
sg20
S'14.1'
p1063
sg22
S'PF'
p1064
sg24
S'.771'
p1065
sg28
S'NBA'
p1066
sg30
S'0.6'
p1067
sg32
S'13.1'
p1068
sg34
S'3.9'
p1069
sg36
S'2.9'
p1070
sg38
S'10.0'
p1071
sg40
S'24'
p1072
sg42
S'MEM'
p1073
sg44
S'60'
p1074
sg46
S'0.8'
p1075
sg48
S'5.9'
p1076
sg50
S'2.2'
p1077
sg52
S'13.0'
p1078
sg54
S'6.5'
p1079
sg56
S'2011-12'
p1080
sg58
S'5.9'
p1081
sg60
S'2.0'
p1082
sg62
S'.456'
p1083
sg64
S'1345'
p1084
sg66
S'54'
p1085
sba(isrc.gp1.models.Per36Minutes
Per36Minutes
p1086
(dp1087
g8
S'4.0'
p1088
sg10
S'0.3'
p1089
sg12
S'.445'
p1090
sg14
S'1.3'
p1091
sg16
S'.300'
p1092
sg18
S'0.1'
p1093
sg20
S'18.2'
p1094
sg22
g23
sg24
S'.771'
p1095
sg28
S'NBA'
p1096
sg30
S'0.7'
p1097
sg32
S'16.2'
p1098
sg34
S'4.8'
p1099
sg36
S'4.8'
p1100
sg38
S'10.7'
p1101
sg40
S'25'
p1102
sg42
S'TOT'
p1103
sg44
S'79'
p1104
sg46
S'1.5'
p1105
sg48
S'7.1'
p1106
sg50
S'3.7'
p1107
sg52
S'15.9'
p1108
sg54
S'6.6'
p1109
sg56
S'2012-13'
p1110
sg58
S'7.2'
p1111
sg60
S'2.2'
p1112
sg62
S'.448'
p1113
sg64
S'1300'
p1114
sg66
g129
sba(isrc.gp1.models.Per36Minutes
Per36Minutes
p1115
(dp1116
g8
S'4.7'
p1117
sg10
S'0.3'
p1118
sg12
S'.429'
p1119
sg14
S'1.1'
p1120
sg16
S'.400'
p1121
sg18
S'0.1'
p1122
sg20
S'16.3'
p1123
sg22
g23
sg24
S'.716'
p1124
sg28
S'NBA'
p1125
sg30
S'0.6'
p1126
sg32
S'15.4'
p1127
sg34
S'5.3'
p1128
sg36
S'4.2'
p1129
sg38
S'11.8'
p1130
sg40
S'25'
p1131
sg42
S'MEM'
p1132
sg44
S'40'
p1133
sg46
S'1.7'
p1134
sg48
S'6.5'
p1135
sg50
S'3.0'
p1136
sg52
S'15.0'
p1137
sg54
S'7.0'
p1138
sg56
S'2012-13'
p1139
sg58
S'6.6'
p1140
sg60
S'2.2'
p1141
sg62
S'.430'
p1142
sg64
S'579'
p1143
sg66
g19
sba(isrc.gp1.models.Per36Minutes
Per36Minutes
p1144
(dp1145
g8
S'3.5'
p1146
sg10
S'0.2'
p1147
sg12
S'.457'
p1148
sg14
S'1.4'
p1149
sg16
S'.200'
p1150
sg18
S'0.0'
p1151
sg20
S'19.8'
p1152
sg22
g23
sg24
S'.806'
p1153
sg28
S'NBA'
p1154
sg30
S'0.7'
p1155
sg32
S'16.8'
p1156
sg34
S'4.4'
p1157
sg36
S'5.4'
p1158
sg38
S'9.8'
p1159
sg40
S'25'
p1160
sg42
S'CLE'
p1161
sg44
S'39'
p1162
sg46
S'1.3'
p1163
sg48
S'7.6'
p1164
sg50
S'4.3'
p1165
sg52
S'16.6'
p1166
sg54
S'6.3'
p1167
sg56
S'2012-13'
p1168
sg58
S'7.7'
p1169
sg60
S'2.2'
p1170
sg62
S'.461'
p1171
sg64
S'721'
p1172
sg66
g97
sba(isrc.gp1.models.Per36Minutes
Per36Minutes
p1173
(dp1174
g8
S'3.7'
p1175
sg10
S'1.1'
p1176
sg12
S'.441'
p1177
sg14
S'1.2'
p1178
sg16
S'.258'
p1179
sg18
S'0.3'
p1180
sg20
S'18.6'
p1181
sg22
g23
sg24
S'.821'
p1182
sg28
S'NBA'
p1183
sg30
S'0.4'
p1184
sg32
S'16.2'
p1185
sg34
S'5.4'
p1186
sg36
S'4.9'
p1187
sg38
S'10.6'
p1188
sg40
S'26'
p1189
sg42
S'GSW'
p1190
sg44
S'79'
p1191
sg46
S'1.2'
p1192
sg48
S'6.9'
p1193
sg50
S'4.0'
p1194
sg52
S'15.1'
p1195
sg54
S'6.9'
p1196
sg56
S'2013-14'
p1197
sg58
S'7.1'
p1198
sg60
S'2.4'
p1199
sg62
S'.455'
p1200
sg64
S'982'
p1201
sg66
g129
sba(isrc.gp1.models.Per36Minutes
Per36Minutes
p1202
(dp1203
g8
S'3.3'
p1204
sg10
S'0.5'
p1205
sg12
S'.492'
p1206
sg14
S'2.1'
p1207
sg16
S'.278'
p1208
sg18
S'0.1'
p1209
sg20
S'23.6'
p1210
sg22
S'PF'
p1211
sg24
S'.843'
p1212
sg28
S'NBA'
p1213
sg30
S'0.6'
p1214
sg32
S'19.3'
p1215
sg34
S'5.6'
p1216
sg36
S'5.3'
p1217
sg38
S'9.7'
p1218
sg40
S'27'
p1219
sg42
S'GSW'
p1220
sg44
S'76'
p1221
sg46
S'1.0'
p1222
sg48
S'9.3'
p1223
sg50
S'4.5'
p1224
sg52
S'18.7'
p1225
sg54
S'6.4'
p1226
sg56
S'2014-15'
p1227
sg58
S'9.5'
p1228
sg60
S'2.4'
p1229
sg62
S'.498'
p1230
sg64
S'1207'
p1231
sg66
g301
sba(isrc.gp1.models.Per36Minutes
Per36Minutes
p1232
(dp1233
g8
S'3.8'
p1234
sg10
S'1.5'
p1235
sg12
S'.378'
p1236
sg14
S'2.5'
p1237
sg16
S'.333'
p1238
sg18
S'0.5'
p1239
sg20
S'19.4'
p1240
sg22
S'PF'
p1241
sg24
S'.793'
p1242
sg28
S'NBA'
p1243
sg30
S'0.7'
p1244
sg32
S'19.9'
p1245
sg34
S'5.2'
p1246
sg36
S'4.8'
p1247
sg38
S'11.3'
p1248
sg40
S'28'
p1249
sg42
S'GSW'
p1250
sg44
S'40'
p1251
sg46
S'1.1'
p1252
sg48
S'7.0'
p1253
sg50
S'3.8'
p1254
sg52
S'18.4'
p1255
sg54
S'7.5'
p1256
sg56
S'2015-16'
p1257
sg58
S'7.5'
p1258
sg60
S'3.0'
p1259
sg62
S'.382'
p1260
sg64
S'431'
p1261
sg66
g74
sbasS'_fromYear'
p1262
S'2009'
p1263
sS'_url'
p1264
S'http://www.basketball-reference.com/players/s/speigma01.html'
p1265
sS'_perGame'
p1266
(isrc.gp1.models.PerGame
PerGame
p1267
(dp1268
g8
S'1.1'
p1269
sg10
S'0.5'
p1270
sg12
S'.378'
p1271
sS'_effectiveFieldGalPercentage'
p1272
S'.391'
p1273
sg14
S'0.8'
p1274
sg16
S'.333'
p1275
sg18
S'0.2'
p1276
sg20
S'5.8'
p1277
sg22
S'PF'
p1278
sg24
S'.793'
p1279
sg28
S'NBA'
p1280
sg30
S'0.2'
p1281
sg34
S'1.6'
p1282
sS'_fieldGoalsttempted'
p1283
S'6.0'
p1284
sg36
S'1.5'
p1285
sg38
S'3.4'
p1286
sg40
S'28'
p1287
sg42
S'GSW'
p1288
sg44
S'40'
p1289
sg46
S'0.3'
p1290
sg48
S'2.1'
p1291
sg50
S'1.2'
p1292
sg52
S'5.5'
p1293
sg54
S'2.3'
p1294
sg56
S'2015-16'
p1295
sg58
S'2.3'
p1296
sg60
S'0.9'
p1297
sg62
S'.382'
p1298
sg64
S'10.8'
p1299
sg66
g74
sbsS'_weight'
p1300
S'255'
p1301
sS'_dob'
p1302
S'4-8-1987'
p1303
sS'_salary'
p1304
(lp1305
(isrc.gp1.models.Salary
Salary
p1306
(dp1307
g42
S'Philadelphia 76ers'
p1308
sg28
S'NBA'
p1309
sg1304
S'$1,542,600'
p1310
sg56
S'2008-09'
p1311
sba(isrc.gp1.models.Salary
Salary
p1312
(dp1313
g42
S'Philadelphia 76ers'
p1314
sg28
S'NBA'
p1315
sg1304
S'$1,658,280'
p1316
sg56
S'2009-10'
p1317
sba(isrc.gp1.models.Salary
Salary
p1318
(dp1319
g42
S'Philadelphia 76ers'
p1320
sg28
S'NBA'
p1321
sg1304
S'$1,773,960'
p1322
sg56
S'2010-11'
p1323
sba(isrc.gp1.models.Salary
Salary
p1324
(dp1325
g42
S'Memphis Grizzlies'
p1326
sg28
S'NBA'
p1327
sg1304
S'$2,721,255'
p1328
sg56
S'2011-12'
p1329
sba(isrc.gp1.models.Salary
Salary
p1330
(dp1331
g42
S'Cleveland Cavaliers'
p1332
sg28
S'NBA'
p1333
sg1304
S'$4,200,000'
p1334
sg56
S'2012-13'
p1335
sba(isrc.gp1.models.Salary
Salary
p1336
(dp1337
g42
S'Golden State Warriors'
p1338
sg28
S'NBA'
p1339
sg1304
S'$3,500,000'
p1340
sg56
S'2013-14'
p1341
sba(isrc.gp1.models.Salary
Salary
p1342
(dp1343
g42
S'Golden State Warriors'
p1344
sg28
S'NBA'
p1345
sg1304
S'$3,657,500'
p1346
sg56
S'2014-15'
p1347
sbasg22
S'C-F'
p1348
sb.