(isrc.gp1.models.Player
Player
p0
(dp1
S'_experience'
p2
S'NA'
p3
sS'_totals'
p4
(lp5
(isrc.gp1.models.Totals
Totals
p6
(dp7
S'_offensiveRebounds'
p8
S'230'
p9
sS'_threePointsAttempted'
p10
S'.176'
p11
sS'_fieldGoalsPercentage'
p12
S'3'
p13
sS'_assist'
p14
S'888'
p15
sS'_threePointsPercentage'
p16
S'327'
p17
sS'_threePoints'
p18
S'17'
p19
sS'_points'
p20
g3
sS'_position'
p21
S'PG'
p22
sS'_freeThrowsPercentage'
p23
S'273'
p24
sS'_effectiveFieldGoalPercentage'
p25
S'225'
p26
sS'_league'
p27
S'ABA'
p28
sS'_steals'
p29
g3
sS'_fieldGoalsAttempted'
p30
S'.400'
p31
sS'_personalFouls'
p32
g3
sS'_freeThrowsAttempted'
p33
S'.694'
p34
sS'_totalRebounds'
p35
S'216'
p36
sS'_age'
p37
S'25'
p38
sS'_team'
p39
S'DLC'
p40
sS'_games'
p41
S'58'
p42
sS'_blocks'
p43
g3
sS'_twoPoints'
p44
S'808'
p45
sS'_freeThrows'
p46
S'324'
p47
sS'_twoPointsAttempted'
p48
S'.405'
p49
sS'_defensiveRebounds'
p50
S'241'
p51
sS'_season'
p52
S'1967-68'
p53
sS'_fieldGoals'
p54
S'825'
p55
sS'_turnOvers'
p56
g3
sS'_twoPointsPercentage'
p57
S'.402'
p58
sS'_minutesPlayed'
p59
S'330'
p60
sS'_gamesStarted'
p61
S'2175'
p62
sba(isrc.gp1.models.Totals
Totals
p63
(dp64
g8
S'146'
p65
sg10
S'.222'
p66
sg12
S'6'
p67
sg14
S'269'
p68
sg16
S'384'
p69
sg18
S'27'
p70
sg20
g3
sg21
S'PG-SG'
p71
sg23
S'65'
p72
sg25
S'263'
p73
sg27
S'ABA'
p74
sg29
S'251'
p75
sg30
S'.405'
p76
sg32
g3
sg33
S'.795'
p77
sg35
S'269'
p78
sg37
S'26'
p79
sg39
S'TOT'
p80
sg41
S'76'
p81
sg43
S'1049'
p82
sg44
S'935'
p83
sg46
S'331'
p84
sg48
S'.411'
p85
sg50
S'211'
p86
sg52
S'1968-69'
p87
sg54
S'962'
p88
sg56
g3
sg57
S'.409'
p89
sg59
S'390'
p90
sg61
S'2148'
p91
sba(isrc.gp1.models.Totals
Totals
p92
(dp93
g8
S'49'
p94
sg10
S'.000'
p95
sg12
S'0'
p96
sg14
S'80'
p97
sg16
S'107'
p98
sg18
S'4'
p99
sg20
g3
sg21
S'SG'
p100
sg23
S'27'
p101
sg25
S'83'
p102
sg27
S'ABA'
p103
sg29
S'86'
p104
sg30
S'.402'
p105
sg32
g3
sg33
S'.776'
p106
sg35
S'76'
p107
sg37
S'26'
p108
sg39
S'NYA'
p109
sg41
S'24'
p110
sg43
S'297'
p111
sg44
S'262'
p112
sg46
S'107'
p113
sg48
S'.408'
p114
sg50
S'76'
p115
sg52
S'1968-69'
p116
sg54
S'266'
p117
sg56
g3
sg57
S'.402'
p118
sg59
S'107'
p119
sg61
S'645'
p120
sba(isrc.gp1.models.Totals
Totals
p121
(dp122
g8
S'97'
p123
sg10
S'.261'
p124
sg12
g67
sg14
S'189'
p125
sg16
S'277'
p126
sg18
S'23'
p127
sg20
g3
sg21
S'PG'
p128
sg23
S'38'
p129
sg25
S'180'
p130
sg27
S'ABA'
p131
sg29
S'165'
p132
sg30
S'.407'
p133
sg32
g3
sg33
S'.804'
p134
sg35
S'193'
p135
sg37
S'26'
p136
sg39
S'MMF'
p137
sg41
S'52'
p138
sg43
S'752'
p139
sg44
S'673'
p140
sg46
S'224'
p141
sg48
S'.412'
p142
sg50
S'135'
p143
sg52
S'1968-69'
p144
sg54
S'696'
p145
sg56
g3
sg57
S'.411'
p146
sg59
S'283'
p147
sg61
S'1503'
p148
sba(isrc.gp1.models.Totals
Totals
p149
(dp150
g8
S'73'
p151
sg10
S'.167'
p152
sg12
g67
sg14
S'149'
p153
sg16
S'149'
p154
sg18
S'36'
p155
sg20
g3
sg21
S'SG-PG'
p156
sg23
S'42'
p157
sg25
S'98'
p158
sg27
S'ABA'
p159
sg29
S'158'
p160
sg30
S'.399'
p161
sg32
g3
sg33
S'.754'
p162
sg35
S'142'
p163
sg37
S'27'
p164
sg39
S'TOT'
p165
sg41
S'55'
p166
sg43
S'414'
p167
sg44
S'352'
p168
sg46
S'130'
p169
sg48
S'.423'
p170
sg50
S'115'
p171
sg52
S'1969-70'
p172
sg54
S'388'
p173
sg56
g3
sg57
S'.407'
p174
sg59
S'155'
p175
sg61
S'992'
p176
sba(isrc.gp1.models.Totals
Totals
p177
(dp178
g8
S'21'
p179
sg10
S'.000'
p180
sg12
g96
sg14
S'46'
p181
sg16
S'42'
p182
sg18
g13
sg20
g3
sg21
S'PG'
p183
sg23
S'11'
p184
sg25
S'27'
p185
sg27
S'ABA'
p186
sg29
S'51'
p187
sg30
S'.356'
p188
sg32
g3
sg33
S'.730'
p189
sg35
S'45'
p190
sg37
S'27'
p191
sg39
S'MMF'
p192
sg41
S'11'
p193
sg43
S'111'
p194
sg44
S'115'
p195
sg46
S'37'
p196
sg48
S'.365'
p197
sg50
S'32'
p198
sg52
S'1969-70'
p199
sg54
S'118'
p200
sg56
g3
sg57
S'.356'
p201
sg59
S'42'
p202
sg61
S'319'
p203
sba(isrc.gp1.models.Totals
Totals
p204
(dp205
g8
S'23'
p206
sg10
S'.400'
p207
sg12
S'2'
p208
sg14
S'59'
p209
sg16
S'55'
p210
sg18
S'5'
p211
sg20
g3
sg21
S'SG'
p212
sg23
S'16'
p213
sg25
S'40'
p214
sg27
S'ABA'
p215
sg29
S'48'
p216
sg30
S'.432'
p217
sg32
g3
sg33
S'.769'
p218
sg35
S'55'
p219
sg37
S'27'
p220
sg39
S'PTP'
p221
sg41
S'17'
p222
sg43
S'156'
p223
sg44
S'127'
p224
sg46
S'52'
p225
sg48
S'.433'
p226
sg50
S'39'
p227
sg52
S'1969-70'
p228
sg54
S'132'
p229
sg56
g3
sg57
S'.439'
p230
sg59
S'57'
p231
sg61
S'380'
p232
sba(isrc.gp1.models.Totals
Totals
p233
(dp234
g8
S'29'
p235
sg10
S'.143'
p236
sg12
g99
sg14
S'44'
p237
sg16
S'52'
p238
sg18
S'28'
p239
sg20
g3
sg21
S'SG'
p240
sg23
S'15'
p241
sg25
S'31'
p242
sg27
S'ABA'
p243
sg29
S'59'
p244
sg30
S'.406'
p245
sg32
g3
sg33
S'.756'
p246
sg35
S'42'
p247
sg37
S'27'
p248
sg39
S'DLC'
p249
sg41
S'27'
p250
sg43
S'147'
p251
sg44
S'110'
p252
sg46
S'41'
p253
sg48
S'.473'
p254
sg50
S'44'
p255
sg52
S'1969-70'
p256
sg54
S'138'
p257
sg56
g3
sg57
S'.420'
p258
sg59
S'56'
p259
sg61
S'293'
p260
sbasS'_college'
p261
S'North Carolina Agricultural and Technical State University'
p262
sS'_toYear'
p263
S'1970'
p264
sS'_height'
p265
S'6-3'
p266
sS'_active'
p267
I00
sS'_shootingHand'
p268
VRight
p269
sS'_name'
p270
S'Maurice McHartley'
p271
sS'_per100Possessions'
p272
(lp273
sS'_advanced'
p274
(lp275
(isrc.gp1.models.Advanced
Advanced
p276
(dp277
S'_offensiveReboundPercentage'
p278
S'5.9'
p279
sS'_turnOverPercentage'
p280
S'1.8'
p281
sS'_winSharesPer48Minutes'
p282
g3
sS'_stealPercentage'
p283
S'1.0'
p284
sS'_usagePercentage'
p285
S'.041'
p286
sS'_totalReboundsPercentage'
p287
S'19.9'
p288
sS'_defensiveBoxPlusMinus'
p289
g3
sg21
S'PG'
p290
sS'_valueOverReplacementPlayer'
p291
g3
sS'_trueShootingPercentage'
p292
S'.459'
p293
sS'_defensiveReboundPercentage'
p294
S'14.9'
p295
sS'_freeThrowsAttempRate'
p296
S'.393'
p297
sS'_threePointsAttempRate'
p298
S'.021'
p299
sg27
S'ABA'
p300
sS'_offensiveBoxPlusMinues'
p301
g3
sS'_assistPercentage'
p302
S'21.4'
p303
sS'_defensiveWinShares'
p304
g3
sg37
S'25'
p305
sg39
S'DLC'
p306
sg41
S'58'
p307
sS'_blockPercentage'
p308
S'0.9'
p309
sS'_playerEfficiencyRating'
p310
S'9.4'
p311
sS'_offensiveWinShares'
p312
g3
sg59
S'2175'
p313
sS'_boxPlusMinus'
p314
g3
sg52
S'1967-68'
p315
sS'_winShares'
p316
g3
sba(isrc.gp1.models.Advanced
Advanced
p317
(dp318
g278
S'4.5'
p319
sg280
S'2.4'
p320
sg282
g3
sg283
S'0.8'
p321
sg285
S'.053'
p322
sg287
S'19.5'
p323
sg289
g3
sg21
S'PG-SG'
p324
sg291
g3
sg292
S'.474'
p325
sg294
S'17.9'
p326
sg296
S'.344'
p327
sg298
S'.028'
p328
sg27
S'ABA'
p329
sg301
g3
sg302
S'23.2'
p330
sg304
g3
sg37
S'26'
p331
sg39
S'TOT'
p332
sg41
S'76'
p333
sg308
S'1.6'
p334
sg310
S'10.5'
p335
sg312
g3
sg59
S'2148'
p336
sg314
g3
sg52
S'1968-69'
p337
sg316
g3
sba(isrc.gp1.models.Advanced
Advanced
p338
(dp339
g278
S'5.3'
p340
sg280
S'0.6'
p341
sg282
g3
sg283
S'0.2'
p342
sg285
S'.042'
p343
sg287
S'20.4'
p344
sg289
g3
sg21
S'SG'
p345
sg291
g3
sg292
S'.474'
p346
sg294
S'17.6'
p347
sg296
S'.402'
p348
sg298
S'.015'
p349
sg27
S'ABA'
p350
sg301
g3
sg302
S'22.2'
p351
sg304
g3
sg37
S'26'
p352
sg39
S'NYA'
p353
sg41
S'24'
p354
sg308
S'0.3'
p355
sg310
S'9.9'
p356
sg312
g3
sg59
S'645'
p357
sg314
g3
sg52
S'1968-69'
p358
sg316
g3
sba(isrc.gp1.models.Advanced
Advanced
p359
(dp360
g278
S'4.2'
p361
sg280
S'1.8'
p362
sg282
g3
sg283
S'0.5'
p363
sg285
S'.058'
p364
sg287
S'19.2'
p365
sg289
g3
sg21
S'PG'
p366
sg291
g3
sg292
S'.473'
p367
sg294
S'18.0'
p368
sg296
S'.322'
p369
sg298
S'.033'
p370
sg27
S'ABA'
p371
sg301
g3
sg302
S'23.6'
p372
sg304
g3
sg37
S'26'
p373
sg39
S'MMF'
p374
sg41
S'52'
p375
sg308
S'1.3'
p376
sg310
S'10.7'
p377
sg312
g3
sg59
S'1503'
p378
sg314
g3
sg52
S'1968-69'
p379
sg316
g3
sba(isrc.gp1.models.Advanced
Advanced
p380
(dp381
g278
S'5.1'
p382
sg280
S'0.8'
p383
sg282
g3
sg283
S'0.1'
p384
sg285
S'.039'
p385
sg287
S'25.1'
p386
sg289
g3
sg21
S'SG-PG'
p387
sg291
g3
sg292
S'.465'
p388
sg294
S'19.0'
p389
sg296
S'.335'
p390
sg298
S'.093'
p391
sg27
S'ABA'
p392
sg301
g3
sg302
S'21.6'
p393
sg304
g3
sg37
S'27'
p394
sg39
S'TOT'
p395
sg41
S'55'
p396
sg308
S'0.8'
p397
sg310
S'7.3'
p398
sg312
g3
sg59
S'992'
p399
sg314
g3
sg52
S'1969-70'
p400
sg316
g3
sba(isrc.gp1.models.Advanced
Advanced
p401
(dp402
g278
S'4.6'
p403
sg280
S'-0.1'
p404
sg282
g3
sg283
S'-0.3'
p405
sg285
S'-0.011'
p406
sg287
S'25.5'
p407
sg289
g3
sg21
S'PG'
p408
sg291
g3
sg292
S'.413'
p409
sg294
S'18.6'
p410
sg296
S'.314'
p411
sg298
S'.025'
p412
sg27
S'ABA'
p413
sg301
g3
sg302
S'20.3'
p414
sg304
g3
sg37
S'27'
p415
sg39
S'MMF'
p416
sg41
S'11'
p417
sg308
S'0.3'
p418
sg310
S'4.1'
p419
sg312
g3
sg59
S'319'
p420
sg314
g3
sg52
S'1969-70'
p421
sg316
g3
sba(isrc.gp1.models.Advanced
Advanced
p422
(dp423
g278
S'4.4'
p424
sg280
S'0.6'
p425
sg282
g3
sg283
S'0.3'
p426
sg285
S'.078'
p427
sg287
S'27.6'
p428
sg289
g3
sg21
S'SG'
p429
sg291
g3
sg292
S'.504'
p430
sg294
S'18.9'
p431
sg296
S'.394'
p432
sg298
S'.038'
p433
sg27
S'ABA'
p434
sg301
g3
sg302
S'20.2'
p435
sg304
g3
sg37
S'27'
p436
sg39
S'PTP'
p437
sg41
S'17'
p438
sg308
S'0.3'
p439
sg310
S'8.5'
p440
sg312
g3
sg59
S'380'
p441
sg314
g3
sg52
S'1969-70'
p442
sg316
g3
sba(isrc.gp1.models.Advanced
Advanced
p443
(dp444
g278
S'6.6'
p445
sg280
S'0.3'
p446
sg282
g3
sg283
S'0.1'
p447
sg285
S'.043'
p448
sg287
S'22.0'
p449
sg289
g3
sg21
S'SG'
p450
sg291
g3
sg292
S'.471'
p451
sg294
S'19.4'
p452
sg296
S'.297'
p453
sg298
S'.203'
p454
sg27
S'ABA'
p455
sg301
g3
sg302
S'24.6'
p456
sg304
g3
sg37
S'27'
p457
sg39
S'DLC'
p458
sg41
S'27'
p459
sg308
S'0.2'
p460
sg310
S'9.2'
p461
sg312
g3
sg59
S'293'
p462
sg314
g3
sg52
S'1969-70'
p463
sg316
g3
sbasS'_per36Minutes'
p464
(lp465
(isrc.gp1.models.Per36Minutes
Per36Minutes
p466
(dp467
g8
S'3.8'
p468
sg10
S'.176'
p469
sg12
S'0.0'
p470
sg14
S'14.7'
p471
sg16
S'5.4'
p472
sg18
S'0.3'
p473
sg20
g3
sg21
S'PG'
p474
sg23
S'4.5'
p475
sg27
S'ABA'
p476
sg29
g3
sg30
S'.400'
p477
sg32
g3
sg33
S'.694'
p478
sg35
S'3.6'
p479
sg37
S'25'
p480
sg39
S'DLC'
p481
sg41
S'58'
p482
sg43
g3
sg44
S'13.4'
p483
sg46
S'5.4'
p484
sg48
S'.405'
p485
sg50
S'4.0'
p486
sg52
S'1967-68'
p487
sg54
S'13.7'
p488
sg56
g3
sg57
S'3.7'
p489
sg59
S'5.5'
p490
sg61
S'2175'
p491
sba(isrc.gp1.models.Per36Minutes
Per36Minutes
p492
(dp493
g8
S'2.4'
p494
sg10
S'.222'
p495
sg12
S'0.1'
p496
sg14
S'4.5'
p497
sg16
S'6.4'
p498
sg18
S'0.5'
p499
sg20
g3
sg21
S'PG-SG'
p500
sg23
S'1.1'
p501
sg27
S'ABA'
p502
sg29
S'4.2'
p503
sg30
S'.405'
p504
sg32
g3
sg33
S'.795'
p505
sg35
S'4.5'
p506
sg37
S'26'
p507
sg39
S'TOT'
p508
sg41
S'76'
p509
sg43
S'17.6'
p510
sg44
S'15.7'
p511
sg46
S'5.5'
p512
sg48
S'.411'
p513
sg50
S'3.5'
p514
sg52
S'1968-69'
p515
sg54
S'16.1'
p516
sg56
g3
sg57
S'4.4'
p517
sg59
S'6.5'
p518
sg61
S'2148'
p519
sba(isrc.gp1.models.Per36Minutes
Per36Minutes
p520
(dp521
g8
S'2.7'
p522
sg10
S'.000'
p523
sg12
S'0.0'
p524
sg14
S'4.5'
p525
sg16
S'6.0'
p526
sg18
S'0.2'
p527
sg20
g3
sg21
S'SG'
p528
sg23
S'1.5'
p529
sg27
S'ABA'
p530
sg29
S'4.8'
p531
sg30
S'.402'
p532
sg32
g3
sg33
S'.776'
p533
sg35
S'4.2'
p534
sg37
S'26'
p535
sg39
S'NYA'
p536
sg41
S'24'
p537
sg43
S'16.6'
p538
sg44
S'14.6'
p539
sg46
S'6.0'
p540
sg48
S'.408'
p541
sg50
S'4.2'
p542
sg52
S'1968-69'
p543
sg54
S'14.8'
p544
sg56
g3
sg57
S'4.6'
p545
sg59
S'6.0'
p546
sg61
S'645'
p547
sba(isrc.gp1.models.Per36Minutes
Per36Minutes
p548
(dp549
g8
S'2.3'
p550
sg10
S'.261'
p551
sg12
S'0.1'
p552
sg14
S'4.5'
p553
sg16
S'6.6'
p554
sg18
S'0.6'
p555
sg20
g3
sg21
S'PG'
p556
sg23
S'0.9'
p557
sg27
S'ABA'
p558
sg29
S'4.0'
p559
sg30
S'.407'
p560
sg32
g3
sg33
S'.804'
p561
sg35
S'4.6'
p562
sg37
S'26'
p563
sg39
S'MMF'
p564
sg41
S'52'
p565
sg43
S'18.0'
p566
sg44
S'16.1'
p567
sg46
S'5.4'
p568
sg48
S'.412'
p569
sg50
S'3.2'
p570
sg52
S'1968-69'
p571
sg54
S'16.7'
p572
sg56
g3
sg57
S'4.3'
p573
sg59
S'6.8'
p574
sg61
S'1503'
p575
sba(isrc.gp1.models.Per36Minutes
Per36Minutes
p576
(dp577
g8
S'2.6'
p578
sg10
S'.167'
p579
sg12
S'0.2'
p580
sg14
S'5.4'
p581
sg16
S'5.4'
p582
sg18
S'1.3'
p583
sg20
g3
sg21
S'SG-PG'
p584
sg23
S'1.5'
p585
sg27
S'ABA'
p586
sg29
S'5.7'
p587
sg30
S'.399'
p588
sg32
g3
sg33
S'.754'
p589
sg35
S'5.2'
p590
sg37
S'27'
p591
sg39
S'TOT'
p592
sg41
S'55'
p593
sg43
S'15.0'
p594
sg44
S'12.8'
p595
sg46
S'4.7'
p596
sg48
S'.423'
p597
sg50
S'4.2'
p598
sg52
S'1969-70'
p599
sg54
S'14.1'
p600
sg56
g3
sg57
S'3.6'
p601
sg59
S'5.6'
p602
sg61
S'992'
p603
sba(isrc.gp1.models.Per36Minutes
Per36Minutes
p604
(dp605
g8
S'2.4'
p606
sg10
S'.000'
p607
sg12
S'0.0'
p608
sg14
S'5.2'
p609
sg16
S'4.7'
p610
sg18
S'0.3'
p611
sg20
g3
sg21
S'PG'
p612
sg23
S'1.2'
p613
sg27
S'ABA'
p614
sg29
S'5.8'
p615
sg30
S'.356'
p616
sg32
g3
sg33
S'.730'
p617
sg35
S'5.1'
p618
sg37
S'27'
p619
sg39
S'MMF'
p620
sg41
S'11'
p621
sg43
S'12.5'
p622
sg44
S'13.0'
p623
sg46
S'4.2'
p624
sg48
S'.365'
p625
sg50
S'3.6'
p626
sg52
S'1969-70'
p627
sg54
S'13.3'
p628
sg56
g3
sg57
S'3.0'
p629
sg59
S'4.7'
p630
sg61
S'319'
p631
sba(isrc.gp1.models.Per36Minutes
Per36Minutes
p632
(dp633
g8
S'2.2'
p634
sg10
S'.400'
p635
sg12
S'0.2'
p636
sg14
S'5.6'
p637
sg16
S'5.2'
p638
sg18
S'0.5'
p639
sg20
g3
sg21
S'SG'
p640
sg23
S'1.5'
p641
sg27
S'ABA'
p642
sg29
S'4.5'
p643
sg30
S'.432'
p644
sg32
g3
sg33
S'.769'
p645
sg35
S'5.2'
p646
sg37
S'27'
p647
sg39
S'PTP'
p648
sg41
S'17'
p649
sg43
S'14.8'
p650
sg44
S'12.0'
p651
sg46
S'4.9'
p652
sg48
S'.433'
p653
sg50
S'3.7'
p654
sg52
S'1969-70'
p655
sg54
S'12.5'
p656
sg56
g3
sg57
S'3.8'
p657
sg59
S'5.4'
p658
sg61
S'380'
p659
sba(isrc.gp1.models.Per36Minutes
Per36Minutes
p660
(dp661
g8
S'3.6'
p662
sg10
S'.143'
p663
sg12
S'0.5'
p664
sg14
S'5.4'
p665
sg16
S'6.4'
p666
sg18
S'3.4'
p667
sg20
g3
sg21
S'SG'
p668
sg23
S'1.8'
p669
sg27
S'ABA'
p670
sg29
S'7.2'
p671
sg30
S'.406'
p672
sg32
g3
sg33
S'.756'
p673
sg35
S'5.2'
p674
sg37
S'27'
p675
sg39
S'DLC'
p676
sg41
S'27'
p677
sg43
S'18.1'
p678
sg44
S'13.5'
p679
sg46
S'5.0'
p680
sg48
S'.473'
p681
sg50
S'5.4'
p682
sg52
S'1969-70'
p683
sg54
S'17.0'
p684
sg56
g3
sg57
S'3.8'
p685
sg59
S'6.9'
p686
sg61
S'293'
p687
sbasS'_fromYear'
p688
S'1968'
p689
sS'_url'
p690
S'http://www.basketball-reference.com/players/m/mcharma01.html'
p691
sS'_perGame'
p692
(isrc.gp1.models.PerGame
PerGame
p693
(dp694
g8
S'1.1'
p695
sg10
S'.143'
p696
sg12
S'0.1'
p697
sS'_effectiveFieldGalPercentage'
p698
S'1.1'
p699
sg14
S'1.6'
p700
sg16
S'1.9'
p701
sg18
S'1.0'
p702
sg20
g3
sg21
S'SG'
p703
sg23
S'0.6'
p704
sg27
S'ABA'
p705
sg29
S'2.2'
p706
sg32
g3
sS'_fieldGoalsttempted'
p707
S'.406'
p708
sg33
S'.756'
p709
sg35
S'1.6'
p710
sg37
S'27'
p711
sg39
S'DLC'
p712
sg41
S'27'
p713
sg43
S'5.4'
p714
sg44
S'4.1'
p715
sg46
S'1.5'
p716
sg48
S'.473'
p717
sg50
S'1.6'
p718
sg52
S'1969-70'
p719
sg54
S'5.1'
p720
sg56
g3
sg57
S'.420'
p721
sg59
S'2.1'
p722
sg61
S'10.9'
p723
sbsS'_weight'
p724
S'185'
p725
sS'_dob'
p726
S'1-8-1942'
p727
sS'_salary'
p728
(lp729
sg21
S'G-F'
p730
sb.