(isrc.gp1.models.Player
Player
p0
(dp1
S'_experience'
p2
S'NA'
p3
sS'_totals'
p4
(lp5
(isrc.gp1.models.Totals
Totals
p6
(dp7
S'_offensiveRebounds'
p8
g3
sS'_threePointsAttempted'
p9
g3
sS'_fieldGoalsPercentage'
p10
S'.354'
p11
sS'_assist'
p12
S'328'
p13
sS'_threePointsPercentage'
p14
g3
sS'_threePoints'
p15
g3
sS'_points'
p16
S'1125'
p17
sS'_position'
p18
S'C'
p19
sS'_freeThrowsPercentage'
p20
S'.714'
p21
sS'_effectiveFieldGoalPercentage'
p22
S'.354'
p23
sS'_league'
p24
S'NBA'
p25
sS'_steals'
p26
g3
sS'_fieldGoalsAttempted'
p27
S'1137'
p28
sS'_personalFouls'
p29
S'276'
p30
sS'_freeThrowsAttempted'
p31
S'447'
p32
sS'_totalRebounds'
p33
S'1094'
p34
sS'_age'
p35
S'22'
p36
sS'_team'
p37
S'ROC'
p38
sS'_games'
p39
S'67'
p40
sS'_blocks'
p41
g3
sS'_twoPoints'
p42
S'403'
p43
sS'_freeThrows'
p44
S'319'
p45
sS'_twoPointsAttempted'
p46
S'1137'
p47
sS'_defensiveRebounds'
p48
g3
sS'_season'
p49
S'1955-56'
p50
sS'_fieldGoals'
p51
S'403'
p52
sS'_turnOvers'
p53
g3
sS'_twoPointsPercentage'
p54
S'.354'
p55
sS'_minutesPlayed'
p56
S'2323'
p57
sS'_gamesStarted'
p58
g3
sba(isrc.gp1.models.Totals
Totals
p59
(dp60
g8
g3
sg9
g3
sg10
S'.347'
p61
sg12
S'331'
p62
sg14
g3
sg15
g3
sg16
S'1124'
p63
sg18
S'PF'
p64
sg20
S'.665'
p65
sg22
S'.347'
p66
sg24
S'NBA'
p67
sg26
g3
sg27
S'1249'
p68
sg29
S'287'
p69
sg31
S'385'
p70
sg33
S'1256'
p71
sg35
S'23'
p72
sg37
S'ROC'
p73
sg39
S'72'
p74
sg41
g3
sg42
S'434'
p75
sg44
S'256'
p76
sg46
S'1249'
p77
sg48
g3
sg49
S'1956-57'
p78
sg51
S'434'
p79
sg53
g3
sg54
S'.347'
p80
sg56
S'2761'
p81
sg58
g3
sba(isrc.gp1.models.Totals
Totals
p82
(dp83
g8
g3
sg9
g3
sg10
S'.351'
p84
sg12
S'403'
p85
sg14
g3
sg15
g3
sg16
S'1066'
p86
sg18
S'PF'
p87
sg20
S'.715'
p88
sg22
S'.351'
p89
sg24
S'NBA'
p90
sg26
g3
sg27
S'1181'
p91
sg29
S'226'
p92
sg31
S'333'
p93
sg33
S'1142'
p94
sg35
S'24'
p95
sg37
S'CIN'
p96
sg39
S'63'
p97
sg41
g3
sg42
S'414'
p98
sg44
S'238'
p99
sg46
S'1181'
p100
sg48
g3
sg49
S'1957-58'
p101
sg51
S'414'
p102
sg53
g3
sg54
S'.351'
p103
sg56
S'2460'
p104
sg58
g3
sbasS'_college'
p105
S'Saint Francis University'
p106
sS'_toYear'
p107
S'1958'
p108
sS'_height'
p109
S'6-7'
p110
sS'_active'
p111
I00
sS'_shootingHand'
p112
VRight
p113
sS'_name'
p114
S'Maurice Stokes'
p115
sS'_per100Possessions'
p116
(lp117
sS'_advanced'
p118
(lp119
(isrc.gp1.models.Advanced
Advanced
p120
(dp121
S'_offensiveReboundPercentage'
p122
g3
sS'_turnOverPercentage'
p123
g3
sS'_winSharesPer48Minutes'
p124
S'.125'
p125
sS'_stealPercentage'
p126
g3
sS'_usagePercentage'
p127
g3
sS'_totalReboundsPercentage'
p128
g3
sS'_defensiveBoxPlusMinus'
p129
g3
sg18
g19
sS'_valueOverReplacementPlayer'
p130
g3
sS'_trueShootingPercentage'
p131
S'.422'
p132
sS'_defensiveReboundPercentage'
p133
g3
sS'_freeThrowsAttempRate'
p134
S'.393'
p135
sS'_threePointsAttempRate'
p136
g3
sg24
S'NBA'
p137
sS'_offensiveBoxPlusMinues'
p138
g3
sS'_assistPercentage'
p139
g3
sS'_defensiveWinShares'
p140
S'5.9'
p141
sg35
S'22'
p142
sg37
S'ROC'
p143
sg39
S'67'
p144
sS'_blockPercentage'
p145
g3
sS'_playerEfficiencyRating'
p146
S'22.1'
p147
sS'_offensiveWinShares'
p148
S'0.2'
p149
sg56
S'2323'
p150
sS'_boxPlusMinus'
p151
g3
sg49
S'1955-56'
p152
sS'_winShares'
p153
S'6.0'
p154
sba(isrc.gp1.models.Advanced
Advanced
p155
(dp156
g122
g3
sg123
g3
sg124
S'.096'
p157
sg126
g3
sg127
g3
sg128
g3
sg129
g3
sg18
S'PF'
p158
sg130
g3
sg131
S'.396'
p159
sg133
g3
sg134
S'.308'
p160
sg136
g3
sg24
S'NBA'
p161
sg138
g3
sg139
g3
sg140
S'6.8'
p162
sg35
S'23'
p163
sg37
S'ROC'
p164
sg39
S'72'
p165
sg145
g3
sg146
S'20.0'
p166
sg148
S'-1.3'
p167
sg56
S'2761'
p168
sg151
g3
sg49
S'1956-57'
p169
sg153
S'5.5'
p170
sba(isrc.gp1.models.Advanced
Advanced
p171
(dp172
g122
g3
sg123
g3
sg124
S'.088'
p173
sg126
g3
sg127
g3
sg128
g3
sg129
g3
sg18
S'PF'
p174
sg130
g3
sg131
S'.402'
p175
sg133
g3
sg134
S'.282'
p176
sg136
g3
sg24
S'NBA'
p177
sg138
g3
sg139
g3
sg140
S'5.0'
p178
sg35
S'24'
p179
sg37
S'CIN'
p180
sg39
S'63'
p181
sg145
g3
sg146
S'20.6'
p182
sg148
S'-0.5'
p183
sg56
S'2460'
p184
sg151
g3
sg49
S'1957-58'
p185
sg153
S'4.5'
p186
sbasS'_per36Minutes'
p187
(lp188
(isrc.gp1.models.Per36Minutes
Per36Minutes
p189
(dp190
g8
g3
sg9
g3
sg10
S'.354'
p191
sg12
S'5.1'
p192
sg14
g3
sg15
g3
sg16
S'17.4'
p193
sg18
g19
sg20
S'.714'
p194
sg24
S'NBA'
p195
sg26
g3
sg27
S'17.6'
p196
sg29
S'4.3'
p197
sg31
S'6.9'
p198
sg33
S'17.0'
p199
sg35
S'22'
p200
sg37
S'ROC'
p201
sg39
S'67'
p202
sg41
g3
sg42
S'6.2'
p203
sg44
S'4.9'
p204
sg46
S'17.6'
p205
sg48
g3
sg49
S'1955-56'
p206
sg51
S'6.2'
p207
sg53
g3
sg54
S'.354'
p208
sg56
S'2323'
p209
sg58
g3
sba(isrc.gp1.models.Per36Minutes
Per36Minutes
p210
(dp211
g8
g3
sg9
g3
sg10
S'.347'
p212
sg12
S'4.3'
p213
sg14
g3
sg15
g3
sg16
S'14.7'
p214
sg18
S'PF'
p215
sg20
S'.665'
p216
sg24
S'NBA'
p217
sg26
g3
sg27
S'16.3'
p218
sg29
S'3.7'
p219
sg31
S'5.0'
p220
sg33
S'16.4'
p221
sg35
S'23'
p222
sg37
S'ROC'
p223
sg39
S'72'
p224
sg41
g3
sg42
S'5.7'
p225
sg44
S'3.3'
p226
sg46
S'16.3'
p227
sg48
g3
sg49
S'1956-57'
p228
sg51
S'5.7'
p229
sg53
g3
sg54
S'.347'
p230
sg56
S'2761'
p231
sg58
g3
sba(isrc.gp1.models.Per36Minutes
Per36Minutes
p232
(dp233
g8
g3
sg9
g3
sg10
S'.351'
p234
sg12
S'5.9'
p235
sg14
g3
sg15
g3
sg16
S'15.6'
p236
sg18
S'PF'
p237
sg20
S'.715'
p238
sg24
S'NBA'
p239
sg26
g3
sg27
S'17.3'
p240
sg29
S'3.3'
p241
sg31
S'4.9'
p242
sg33
S'16.7'
p243
sg35
S'24'
p244
sg37
S'CIN'
p245
sg39
S'63'
p246
sg41
g3
sg42
S'6.1'
p247
sg44
S'3.5'
p248
sg46
S'17.3'
p249
sg48
g3
sg49
S'1957-58'
p250
sg51
S'6.1'
p251
sg53
g3
sg54
S'.351'
p252
sg56
S'2460'
p253
sg58
g3
sbasS'_fromYear'
p254
S'1956'
p255
sS'_url'
p256
S'http://www.basketball-reference.com/players/s/stokema01.html'
p257
sS'_perGame'
p258
(isrc.gp1.models.PerGame
PerGame
p259
(dp260
g8
g3
sg9
g3
sg10
S'.351'
p261
sS'_effectiveFieldGalPercentage'
p262
S'.351'
p263
sg12
S'6.4'
p264
sg14
g3
sg15
g3
sg16
S'16.9'
p265
sg18
S'PF'
p266
sg20
S'.715'
p267
sg24
S'NBA'
p268
sg26
g3
sg29
S'3.6'
p269
sS'_fieldGoalsttempted'
p270
S'18.7'
p271
sg31
S'5.3'
p272
sg33
S'18.1'
p273
sg35
S'24'
p274
sg37
S'CIN'
p275
sg39
S'63'
p276
sg41
g3
sg42
S'6.6'
p277
sg44
S'3.8'
p278
sg46
S'18.7'
p279
sg48
g3
sg49
S'1957-58'
p280
sg51
S'6.6'
p281
sg53
g3
sg54
S'.351'
p282
sg56
S'39.0'
p283
sg58
g3
sbsS'_weight'
p284
S'232'
p285
sS'_dob'
p286
S'17-6-1933'
p287
sS'_salary'
p288
(lp289
sg18
S'F-C'
p290
sb.