(isrc.gp1.models.Player
Player
p0
(dp1
S'_experience'
p2
S'NA'
p3
sS'_totals'
p4
(lp5
(isrc.gp1.models.Totals
Totals
p6
(dp7
S'_offensiveRebounds'
p8
S'1'
p9
sS'_threePointsAttempted'
p10
S'15'
p11
sS'_fieldGoalsPercentage'
p12
S'.314'
p13
sS'_assist'
p14
S'7'
p15
sS'_threePointsPercentage'
p16
S'.333'
p17
sS'_threePoints'
p18
S'5'
p19
sS'_points'
p20
S'69'
p21
sS'_position'
p22
S'SG'
p23
sS'_freeThrowsPercentage'
p24
S'.606'
p25
sS'_effectiveFieldGoalPercentage'
p26
S'.350'
p27
sS'_league'
p28
S'NBA'
p29
sS'_steals'
p30
S'4'
p31
sS'_fieldGoalsAttempted'
p32
S'70'
p33
sS'_personalFouls'
p34
S'27'
p35
sS'_freeThrowsAttempted'
p36
S'33'
p37
sS'_totalRebounds'
p38
S'21'
p39
sS'_age'
p40
S'22'
p41
sS'_team'
p42
S'DAL'
p43
sS'_games'
p44
S'32'
p45
sS'_blocks'
p46
S'3'
p47
sS'_twoPoints'
p48
S'17'
p49
sS'_freeThrows'
p50
S'20'
p51
sS'_twoPointsAttempted'
p52
S'55'
p53
sS'_defensiveRebounds'
p54
S'20'
p55
sS'_season'
p56
S'2006-07'
p57
sS'_fieldGoals'
p58
S'22'
p59
sS'_turnOvers'
p60
S'15'
p61
sS'_twoPointsPercentage'
p62
S'.309'
p63
sS'_minutesPlayed'
p64
S'214'
p65
sS'_gamesStarted'
p66
g9
sba(isrc.gp1.models.Totals
Totals
p67
(dp68
g8
g31
sg10
S'19'
p69
sg12
S'.323'
p70
sg14
S'8'
p71
sg16
S'.158'
p72
sg18
g47
sg20
S'51'
p73
sg22
S'SG'
p74
sg24
S'.500'
p75
sg26
S'.346'
p76
sg28
S'NBA'
p77
sg30
S'0'
p78
sg32
S'65'
p79
sg34
S'17'
p80
sg36
S'12'
p81
sg38
S'13'
p82
sg40
S'23'
p83
sg42
S'TOT'
p84
sg44
S'26'
p85
sg46
g9
sg48
S'18'
p86
sg50
S'6'
p87
sg52
S'46'
p88
sg54
S'9'
p89
sg56
S'2007-08'
p90
sg58
S'21'
p91
sg60
g87
sg62
S'.391'
p92
sg64
S'165'
p93
sg66
g47
sba(isrc.gp1.models.Totals
Totals
p94
(dp95
g8
g9
sg10
g71
sg12
S'.185'
p96
sg14
g31
sg16
S'.000'
p97
sg18
g78
sg20
S'15'
p98
sg22
S'SG'
p99
sg24
S'.833'
p100
sg26
S'.185'
p101
sg28
S'NBA'
p102
sg30
g78
sg32
S'27'
p103
sg34
S'11'
p104
sg36
g87
sg38
g31
sg40
S'23'
p105
sg42
S'DAL'
p106
sg44
S'12'
p107
sg46
g9
sg48
g19
sg50
g19
sg52
S'19'
p108
sg54
g47
sg56
S'2007-08'
p109
sg58
g19
sg60
g47
sg62
S'.263'
p110
sg64
S'77'
p111
sg66
g47
sba(isrc.gp1.models.Totals
Totals
p112
(dp113
g8
g47
sg10
S'11'
p114
sg12
S'.421'
p115
sg14
g31
sg16
S'.273'
p116
sg18
g47
sg20
S'36'
p117
sg22
S'SG'
p118
sg24
S'.167'
p119
sg26
S'.461'
p120
sg28
S'NBA'
p121
sg30
g78
sg32
S'38'
p122
sg34
g87
sg36
g87
sg38
g89
sg40
S'23'
p123
sg42
S'NJN'
p124
sg44
S'14'
p125
sg46
g78
sg48
S'13'
p126
sg50
g9
sg52
S'27'
p127
sg54
g87
sg56
S'2007-08'
p128
sg58
S'16'
p129
sg60
g47
sg62
S'.481'
p130
sg64
S'88'
p131
sg66
g78
sba(isrc.gp1.models.Totals
Totals
p132
(dp133
g8
g47
sg10
g87
sg12
S'.349'
p134
sg14
g47
sg16
S'.000'
p135
sg18
g78
sg20
S'34'
p136
sg22
S'SG'
p137
sg24
S'.500'
p138
sg26
S'.349'
p139
sg28
S'NBA'
p140
sg30
g9
sg32
S'43'
p141
sg34
S'17'
p142
sg36
g71
sg38
S'10'
p143
sg40
S'24'
p144
sg42
S'NJN'
p145
sg44
S'20'
p146
sg46
S'2'
p147
sg48
S'15'
p148
sg50
g31
sg52
S'37'
p149
sg54
g15
sg56
S'2008-09'
p150
sg58
S'15'
p151
sg60
g31
sg62
S'.405'
p152
sg64
S'97'
p153
sg66
g78
sba(isrc.gp1.models.Totals
Totals
p154
(dp155
g8
g3
sg10
g3
sg12
g3
sg14
g3
sg16
g3
sg18
g3
sg20
g3
sg22
g3
sg24
g3
sg26
g3
sg28
g3
sg30
g3
sg32
g3
sg34
g3
sg36
g3
sg38
g3
sg40
S'25'
p156
sg42
S'other pro league\xe2\x80\x94Spain, D-League'
p157
sg44
g3
sg46
g3
sg48
g3
sg50
g3
sg52
g3
sg54
g3
sg56
S'2009-10'
p158
sg58
g3
sg60
g3
sg62
g3
sg64
g3
sg66
g3
sba(isrc.gp1.models.Totals
Totals
p159
(dp160
g8
g147
sg10
g31
sg12
S'.545'
p161
sg14
g9
sg16
S'.750'
p162
sg18
g47
sg20
g3
sg22
S'SG'
p163
sg24
g78
sg26
S'.682'
p164
sg28
S'NBA'
p165
sg30
g78
sg32
S'11'
p166
sg34
S'15'
p167
sg36
g78
sg38
g9
sg40
S'26'
p168
sg42
S'MIN'
p169
sg44
g31
sg46
g31
sg48
g47
sg50
g78
sg52
g15
sg54
g147
sg56
S'2010-11'
p170
sg58
g87
sg60
g31
sg62
S'.429'
p171
sg64
S'29'
p172
sg66
g78
sbasS'_college'
p173
S'Michigan State University'
p174
sS'_toYear'
p175
S'2011'
p176
sS'_height'
p177
S'6-5'
p178
sS'_active'
p179
I00
sS'_shootingHand'
p180
VRight
p181
sS'_name'
p182
S'Maurice Ager'
p183
sS'_per100Possessions'
p184
(lp185
(isrc.gp1.models.Per100Possession
Per100Possession
p186
(dp187
g8
S'0.3'
p188
sg10
S'3.8'
p189
sg12
S'.314'
p190
sS'_offensiveRating'
p191
S'79'
p192
sg14
S'1.8'
p193
sg16
S'.333'
p194
sg18
S'1.3'
p195
sg20
S'17.3'
p196
sg22
S'SG'
p197
sS'_defensiveRating'
p198
S'106'
p199
sg24
S'.606'
p200
sg28
S'NBA'
p201
sg30
S'1.0'
p202
sg32
S'17.5'
p203
sg34
S'6.8'
p204
sg36
S'8.3'
p205
sg38
S'5.3'
p206
sg40
S'22'
p207
sg42
S'DAL'
p208
sg44
S'32'
p209
sg46
S'0.8'
p210
sg48
S'4.3'
p211
sg50
S'5.0'
p212
sg52
S'13.8'
p213
sg54
S'5.0'
p214
sg56
S'2006-07'
p215
sg58
S'5.5'
p216
sg60
S'3.8'
p217
sg62
S'.309'
p218
sg64
S'214'
p219
sg66
g9
sba(isrc.gp1.models.Per100Possession
Per100Possession
p220
(dp221
g8
S'1.3'
p222
sg10
S'6.1'
p223
sg12
S'.323'
p224
sg191
S'77'
p225
sg14
S'2.6'
p226
sg16
S'.158'
p227
sg18
S'1.0'
p228
sg20
S'16.3'
p229
sg22
S'SG'
p230
sg198
S'114'
p231
sg24
S'.500'
p232
sg28
S'NBA'
p233
sg30
S'0.0'
p234
sg32
S'20.8'
p235
sg34
S'5.4'
p236
sg36
S'3.8'
p237
sg38
S'4.2'
p238
sg40
S'23'
p239
sg42
S'TOT'
p240
sg44
S'26'
p241
sg46
S'0.3'
p242
sg48
S'5.8'
p243
sg50
S'1.9'
p244
sg52
S'14.7'
p245
sg54
S'2.9'
p246
sg56
S'2007-08'
p247
sg58
S'6.7'
p248
sg60
S'1.9'
p249
sg62
S'.391'
p250
sg64
S'165'
p251
sg66
g47
sba(isrc.gp1.models.Per100Possession
Per100Possession
p252
(dp253
g8
S'0.7'
p254
sg10
S'5.5'
p255
sg12
S'.185'
p256
sg191
S'61'
p257
sg14
S'2.8'
p258
sg16
S'.000'
p259
sg18
S'0.0'
p260
sg20
S'10.4'
p261
sg22
S'SG'
p262
sg198
S'112'
p263
sg24
S'.833'
p264
sg28
S'NBA'
p265
sg30
S'0.0'
p266
sg32
S'18.7'
p267
sg34
S'7.6'
p268
sg36
S'4.1'
p269
sg38
S'2.8'
p270
sg40
S'23'
p271
sg42
S'DAL'
p272
sg44
S'12'
p273
sg46
S'0.7'
p274
sg48
S'3.5'
p275
sg50
S'3.5'
p276
sg52
S'13.1'
p277
sg54
S'2.1'
p278
sg56
S'2007-08'
p279
sg58
S'3.5'
p280
sg60
S'2.1'
p281
sg62
S'.263'
p282
sg64
S'77'
p283
sg66
g47
sba(isrc.gp1.models.Per100Possession
Per100Possession
p284
(dp285
g8
S'1.8'
p286
sg10
S'6.6'
p287
sg12
S'.421'
p288
sg191
S'89'
p289
sg14
S'2.4'
p290
sg16
S'.273'
p291
sg18
S'1.8'
p292
sg20
S'21.5'
p293
sg22
S'SG'
p294
sg198
S'116'
p295
sg24
S'.167'
p296
sg28
S'NBA'
p297
sg30
S'0.0'
p298
sg32
S'22.7'
p299
sg34
S'3.6'
p300
sg36
S'3.6'
p301
sg38
S'5.4'
p302
sg40
S'23'
p303
sg42
S'NJN'
p304
sg44
S'14'
p305
sg46
S'0.0'
p306
sg48
S'7.8'
p307
sg50
S'0.6'
p308
sg52
S'16.1'
p309
sg54
S'3.6'
p310
sg56
S'2007-08'
p311
sg58
S'9.5'
p312
sg60
S'1.8'
p313
sg62
S'.481'
p314
sg64
S'88'
p315
sg66
g78
sba(isrc.gp1.models.Per100Possession
Per100Possession
p316
(dp317
g8
S'1.7'
p318
sg10
S'3.3'
p319
sg12
S'.349'
p320
sg191
S'77'
p321
sg14
S'1.7'
p322
sg16
S'.000'
p323
sg18
S'0.0'
p324
sg20
S'18.7'
p325
sg22
S'SG'
p326
sg198
S'115'
p327
sg24
S'.500'
p328
sg28
S'NBA'
p329
sg30
S'0.6'
p330
sg32
S'23.7'
p331
sg34
S'9.4'
p332
sg36
S'4.4'
p333
sg38
S'5.5'
p334
sg40
S'24'
p335
sg42
S'NJN'
p336
sg44
S'20'
p337
sg46
S'1.1'
p338
sg48
S'8.3'
p339
sg50
S'2.2'
p340
sg52
S'20.4'
p341
sg54
S'3.9'
p342
sg56
S'2008-09'
p343
sg58
S'8.3'
p344
sg60
S'2.2'
p345
sg62
S'.405'
p346
sg64
S'97'
p347
sg66
g78
sba(isrc.gp1.models.Per100Possession
Per100Possession
p348
(dp349
g8
S'3.4'
p350
sg10
S'6.9'
p351
sg12
S'.545'
p352
sg191
S'114'
p353
sg14
S'1.7'
p354
sg16
S'.750'
p355
sg18
S'5.1'
p356
sg20
S'94'
p357
sg22
S'SG'
p358
sg198
g3
sg24
S'0.0'
p359
sg28
S'NBA'
p360
sg30
S'0.0'
p361
sg32
S'18.9'
p362
sg34
S'25.7'
p363
sg36
S'0.0'
p364
sg38
S'1.7'
p365
sg40
S'26'
p366
sg42
S'MIN'
p367
sg44
g31
sg46
S'6.9'
p368
sg48
S'5.1'
p369
sg50
S'0.0'
p370
sg52
S'12.0'
p371
sg54
S'3.4'
p372
sg56
S'2010-11'
p373
sg58
S'10.3'
p374
sg60
S'6.9'
p375
sg62
S'.429'
p376
sg64
S'29'
p377
sg66
g78
sbasS'_advanced'
p378
(lp379
(isrc.gp1.models.Advanced
Advanced
p380
(dp381
S'_offensiveReboundPercentage'
p382
S'0.6'
p383
sS'_turnOverPercentage'
p384
S'15.1'
p385
sS'_winSharesPer48Minutes'
p386
S'-0.060'
p387
sS'_stealPercentage'
p388
S'1.0'
p389
sS'_usagePercentage'
p390
S'21.7'
p391
sS'_totalReboundsPercentage'
p392
S'5.9'
p393
sS'_defensiveBoxPlusMinus'
p394
S'-1.8'
p395
sg22
S'SG'
p396
sS'_valueOverReplacementPlayer'
p397
S'-0.4'
p398
sS'_trueShootingPercentage'
p399
S'.408'
p400
sS'_defensiveReboundPercentage'
p401
S'11.0'
p402
sS'_freeThrowsAttempRate'
p403
S'.471'
p404
sS'_threePointsAttempRate'
p405
S'.214'
p406
sg28
S'NBA'
p407
sS'_offensiveBoxPlusMinues'
p408
S'-7.5'
p409
sS'_assistPercentage'
p410
S'5.0'
p411
sS'_defensiveWinShares'
p412
S'0.2'
p413
sg40
S'22'
p414
sg42
S'DAL'
p415
sg44
S'32'
p416
sS'_blockPercentage'
p417
S'1.1'
p418
sS'_playerEfficiencyRating'
p419
S'2.9'
p420
sS'_offensiveWinShares'
p421
S'-0.5'
p422
sg64
S'214'
p423
sS'_boxPlusMinus'
p424
S'-9.3'
p425
sg56
S'2006-07'
p426
sS'_winShares'
p427
S'-0.3'
p428
sba(isrc.gp1.models.Advanced
Advanced
p429
(dp430
g382
S'2.8'
p431
sg384
S'7.9'
p432
sg386
S'-0.114'
p433
sg388
S'0.0'
p434
sg390
S'21.3'
p435
sg392
S'4.6'
p436
sg394
S'-4.5'
p437
sg22
S'SG'
p438
sg397
S'-0.4'
p439
sg399
S'.363'
p440
sg401
S'6.3'
p441
sg403
S'.185'
p442
sg405
S'.292'
p443
sg28
S'NBA'
p444
sg408
S'-6.8'
p445
sg410
S'8.0'
p446
sg412
S'0.0'
p447
sg40
S'23'
p448
sg42
S'TOT'
p449
sg44
S'26'
p450
sg417
S'0.4'
p451
sg419
S'1.8'
p452
sg421
S'-0.4'
p453
sg64
S'165'
p454
sg424
S'-11.3'
p455
sg56
S'2007-08'
p456
sg427
S'-0.4'
p457
sba(isrc.gp1.models.Advanced
Advanced
p458
(dp459
g382
S'1.6'
p460
sg384
S'9.2'
p461
sg386
S'-0.181'
p462
sg388
S'0.0'
p463
sg390
S'19.8'
p464
sg392
S'3.0'
p465
sg394
S'-3.5'
p466
sg22
S'SG'
p467
sg397
S'-0.2'
p468
sg399
S'.253'
p469
sg401
S'4.4'
p470
sg403
S'.222'
p471
sg405
S'.296'
p472
sg28
S'NBA'
p473
sg408
S'-9.6'
p474
sg410
S'7.4'
p475
sg412
S'0.0'
p476
sg40
S'23'
p477
sg42
S'DAL'
p478
sg44
S'12'
p479
sg417
S'1.0'
p480
sg419
S'-4.4'
p481
sg421
S'-0.3'
p482
sg64
S'77'
p483
sg424
S'-13.1'
p484
sg56
S'2007-08'
p485
sg427
S'-0.3'
p486
sba(isrc.gp1.models.Advanced
Advanced
p487
(dp488
g382
S'3.9'
p489
sg384
S'6.9'
p490
sg386
S'-0.056'
p491
sg388
S'0.0'
p492
sg390
S'22.7'
p493
sg392
S'5.9'
p494
sg394
S'-5.4'
p495
sg22
S'SG'
p496
sg397
S'-0.2'
p497
sg399
S'.443'
p498
sg401
S'7.9'
p499
sg403
S'.158'
p500
sg405
S'.289'
p501
sg28
S'NBA'
p502
sg408
S'-4.4'
p503
sg410
S'8.4'
p504
sg412
S'0.0'
p505
sg40
S'23'
p506
sg42
S'NJN'
p507
sg44
S'14'
p508
sg417
S'0.0'
p509
sg419
S'7.1'
p510
sg421
S'-0.1'
p511
sg64
S'88'
p512
sg424
S'-9.8'
p513
sg56
S'2007-08'
p514
sg427
S'-0.1'
p515
sba(isrc.gp1.models.Advanced
Advanced
p516
(dp517
g382
S'3.6'
p518
sg384
S'7.9'
p519
sg386
S'-0.133'
p520
sg388
S'0.6'
p521
sg390
S'24.4'
p522
sg392
S'6.1'
p523
sg394
S'-4.3'
p524
sg22
S'SG'
p525
sg397
S'-0.3'
p526
sg399
S'.365'
p527
sg401
S'8.7'
p528
sg403
S'.186'
p529
sg405
S'.140'
p530
sg28
S'NBA'
p531
sg408
S'-8.5'
p532
sg410
S'5.3'
p533
sg412
S'0.0'
p534
sg40
S'24'
p535
sg42
S'NJN'
p536
sg44
S'20'
p537
sg417
S'1.7'
p538
sg419
S'2.2'
p539
sg421
S'-0.3'
p540
sg64
S'97'
p541
sg424
S'-12.8'
p542
sg56
S'2008-09'
p543
sg427
S'-0.3'
p544
sba(isrc.gp1.models.Advanced
Advanced
p545
(dp546
g382
S'0.0'
p547
sg384
S'26.7'
p548
sg386
S'-0.015'
p549
sg388
S'1.7'
p550
sg390
S'22.0'
p551
sg392
S'3.8'
p552
sg394
S'-3.6'
p553
sg22
S'SG'
p554
sg397
S'0.0'
p555
sg399
S'.682'
p556
sg401
S'7.9'
p557
sg403
S'.000'
p558
sg405
S'.364'
p559
sg28
S'NBA'
p560
sg408
S'-2.7'
p561
sg410
S'6.0'
p562
sg412
S'0.0'
p563
sg40
S'26'
p564
sg42
S'MIN'
p565
sg44
g31
sg417
S'0.0'
p566
sg419
S'10.1'
p567
sg421
S'0.0'
p568
sg64
S'29'
p569
sg424
S'-6.3'
p570
sg56
S'2010-11'
p571
sg427
S'0.0'
p572
sbasS'_per36Minutes'
p573
(lp574
(isrc.gp1.models.Per36Minutes
Per36Minutes
p575
(dp576
g8
S'0.2'
p577
sg10
S'2.5'
p578
sg12
S'.314'
p579
sg14
S'1.2'
p580
sg16
S'.333'
p581
sg18
S'0.8'
p582
sg20
S'11.6'
p583
sg22
S'SG'
p584
sg24
S'.606'
p585
sg28
S'NBA'
p586
sg30
S'0.7'
p587
sg32
S'11.8'
p588
sg34
S'4.5'
p589
sg36
S'5.6'
p590
sg38
S'3.5'
p591
sg40
S'22'
p592
sg42
S'DAL'
p593
sg44
S'32'
p594
sg46
S'0.5'
p595
sg48
S'2.9'
p596
sg50
S'3.4'
p597
sg52
S'9.3'
p598
sg54
S'3.4'
p599
sg56
S'2006-07'
p600
sg58
S'3.7'
p601
sg60
S'2.5'
p602
sg62
S'.309'
p603
sg64
S'214'
p604
sg66
g9
sba(isrc.gp1.models.Per36Minutes
Per36Minutes
p605
(dp606
g8
S'0.9'
p607
sg10
S'4.1'
p608
sg12
S'.323'
p609
sg14
S'1.7'
p610
sg16
S'.158'
p611
sg18
S'0.7'
p612
sg20
S'11.1'
p613
sg22
S'SG'
p614
sg24
S'.500'
p615
sg28
S'NBA'
p616
sg30
S'0.0'
p617
sg32
S'14.2'
p618
sg34
S'3.7'
p619
sg36
S'2.6'
p620
sg38
S'2.8'
p621
sg40
S'23'
p622
sg42
S'TOT'
p623
sg44
S'26'
p624
sg46
S'0.2'
p625
sg48
S'3.9'
p626
sg50
S'1.3'
p627
sg52
S'10.0'
p628
sg54
S'2.0'
p629
sg56
S'2007-08'
p630
sg58
S'4.6'
p631
sg60
S'1.3'
p632
sg62
S'.391'
p633
sg64
S'165'
p634
sg66
g47
sba(isrc.gp1.models.Per36Minutes
Per36Minutes
p635
(dp636
g8
S'0.5'
p637
sg10
S'3.7'
p638
sg12
S'.185'
p639
sg14
S'1.9'
p640
sg16
S'.000'
p641
sg18
S'0.0'
p642
sg20
S'7.0'
p643
sg22
S'SG'
p644
sg24
S'.833'
p645
sg28
S'NBA'
p646
sg30
S'0.0'
p647
sg32
S'12.6'
p648
sg34
S'5.1'
p649
sg36
S'2.8'
p650
sg38
S'1.9'
p651
sg40
S'23'
p652
sg42
S'DAL'
p653
sg44
S'12'
p654
sg46
S'0.5'
p655
sg48
S'2.3'
p656
sg50
S'2.3'
p657
sg52
S'8.9'
p658
sg54
S'1.4'
p659
sg56
S'2007-08'
p660
sg58
S'2.3'
p661
sg60
S'1.4'
p662
sg62
S'.263'
p663
sg64
S'77'
p664
sg66
g47
sba(isrc.gp1.models.Per36Minutes
Per36Minutes
p665
(dp666
g8
S'1.2'
p667
sg10
S'4.5'
p668
sg12
S'.421'
p669
sg14
S'1.6'
p670
sg16
S'.273'
p671
sg18
S'1.2'
p672
sg20
S'14.7'
p673
sg22
S'SG'
p674
sg24
S'.167'
p675
sg28
S'NBA'
p676
sg30
S'0.0'
p677
sg32
S'15.5'
p678
sg34
S'2.5'
p679
sg36
S'2.5'
p680
sg38
S'3.7'
p681
sg40
S'23'
p682
sg42
S'NJN'
p683
sg44
S'14'
p684
sg46
S'0.0'
p685
sg48
S'5.3'
p686
sg50
S'0.4'
p687
sg52
S'11.0'
p688
sg54
S'2.5'
p689
sg56
S'2007-08'
p690
sg58
S'6.5'
p691
sg60
S'1.2'
p692
sg62
S'.481'
p693
sg64
S'88'
p694
sg66
g78
sba(isrc.gp1.models.Per36Minutes
Per36Minutes
p695
(dp696
g8
S'1.1'
p697
sg10
S'2.2'
p698
sg12
S'.349'
p699
sg14
S'1.1'
p700
sg16
S'.000'
p701
sg18
S'0.0'
p702
sg20
S'12.6'
p703
sg22
S'SG'
p704
sg24
S'.500'
p705
sg28
S'NBA'
p706
sg30
S'0.4'
p707
sg32
S'16.0'
p708
sg34
S'6.3'
p709
sg36
S'3.0'
p710
sg38
S'3.7'
p711
sg40
S'24'
p712
sg42
S'NJN'
p713
sg44
S'20'
p714
sg46
S'0.7'
p715
sg48
S'5.6'
p716
sg50
S'1.5'
p717
sg52
S'13.7'
p718
sg54
S'2.6'
p719
sg56
S'2008-09'
p720
sg58
S'5.6'
p721
sg60
S'1.5'
p722
sg62
S'.405'
p723
sg64
S'97'
p724
sg66
g78
sba(isrc.gp1.models.Per36Minutes
Per36Minutes
p725
(dp726
g8
S'2.5'
p727
sg10
S'5.0'
p728
sg12
S'.545'
p729
sg14
S'1.2'
p730
sg16
S'.750'
p731
sg18
S'3.7'
p732
sg20
g3
sg22
S'SG'
p733
sg24
S'0.0'
p734
sg28
S'NBA'
p735
sg30
S'0.0'
p736
sg32
S'13.7'
p737
sg34
S'18.6'
p738
sg36
S'0.0'
p739
sg38
S'1.2'
p740
sg40
S'26'
p741
sg42
S'MIN'
p742
sg44
g31
sg46
S'5.0'
p743
sg48
S'3.7'
p744
sg50
S'0.0'
p745
sg52
S'8.7'
p746
sg54
S'2.5'
p747
sg56
S'2010-11'
p748
sg58
S'7.4'
p749
sg60
S'5.0'
p750
sg62
S'.429'
p751
sg64
S'29'
p752
sg66
g78
sbasS'_fromYear'
p753
S'2007'
p754
sS'_url'
p755
S'http://www.basketball-reference.com/players/a/agerma01.html'
p756
sS'_perGame'
p757
(isrc.gp1.models.PerGame
PerGame
p758
(dp759
g8
S'0.5'
p760
sg10
S'1.0'
p761
sg12
S'.545'
p762
sS'_effectiveFieldGalPercentage'
p763
S'.682'
p764
sg14
S'0.3'
p765
sg16
S'.750'
p766
sg18
S'0.8'
p767
sg20
g3
sg22
S'SG'
p768
sg24
S'0.0'
p769
sg28
S'NBA'
p770
sg30
S'0.0'
p771
sg34
S'3.8'
p772
sS'_fieldGoalsttempted'
p773
S'2.8'
p774
sg36
S'0.0'
p775
sg38
S'0.3'
p776
sg40
S'26'
p777
sg42
S'MIN'
p778
sg44
g31
sg46
S'1.0'
p779
sg48
S'0.8'
p780
sg50
S'0.0'
p781
sg52
S'1.8'
p782
sg54
S'0.5'
p783
sg56
S'2010-11'
p784
sg58
S'1.5'
p785
sg60
S'1.0'
p786
sg62
S'.429'
p787
sg64
S'7.3'
p788
sg66
g78
sbsS'_weight'
p789
S'202'
p790
sS'_dob'
p791
S'9-2-1984'
p792
sS'_salary'
p793
(lp794
(isrc.gp1.models.Salary
Salary
p795
(dp796
g42
S'Dallas Mavericks'
p797
sg28
S'NBA'
p798
sg793
S'$906,480'
p799
sg56
S'2006-07'
p800
sba(isrc.gp1.models.Salary
Salary
p801
(dp802
g42
S'New Jersey Nets'
p803
sg28
S'NBA'
p804
sg793
S'$974,400'
p805
sg56
S'2007-08'
p806
sba(isrc.gp1.models.Salary
Salary
p807
(dp808
g42
S'New Jersey Nets'
p809
sg28
S'NBA'
p810
sg793
S'$1,042,440'
p811
sg56
S'2008-09'
p812
sba(isrc.gp1.models.Salary
Salary
p813
(dp814
g42
S'Minnesota Timberwolves'
p815
sg28
S'NBA'
p816
sg793
S'$83,305'
p817
sg56
S'2010-11'
p818
sbasg22
S'G'
p819
sb.