(isrc.gp1.models.Player
Player
p0
(dp1
S'_experience'
p2
S'NA'
p3
sS'_totals'
p4
(lp5
(isrc.gp1.models.Totals
Totals
p6
(dp7
S'_offensiveRebounds'
p8
S'66'
p9
sS'_threePointsAttempted'
p10
S'1'
p11
sS'_fieldGoalsPercentage'
p12
S'.550'
p13
sS'_assist'
p14
S'12'
p15
sS'_threePointsPercentage'
p16
S'.000'
p17
sS'_threePoints'
p18
S'0'
p19
sS'_points'
p20
S'231'
p21
sS'_position'
p22
S'PF'
p23
sS'_freeThrowsPercentage'
p24
S'.643'
p25
sS'_effectiveFieldGoalPercentage'
p26
S'.550'
p27
sS'_league'
p28
S'NBA'
p29
sS'_steals'
p30
S'11'
p31
sS'_fieldGoalsAttempted'
p32
S'169'
p33
sS'_personalFouls'
p34
S'75'
p35
sS'_freeThrowsAttempted'
p36
S'70'
p37
sS'_totalRebounds'
p38
S'164'
p39
sS'_age'
p40
S'23'
p41
sS'_team'
p42
S'MIN'
p43
sS'_games'
p44
S'43'
p45
sS'_blocks'
p46
S'18'
p47
sS'_twoPoints'
p48
S'93'
p49
sS'_freeThrows'
p50
S'45'
p51
sS'_twoPointsAttempted'
p52
S'168'
p53
sS'_defensiveRebounds'
p54
S'98'
p55
sS'_season'
p56
S'1992-93'
p57
sS'_fieldGoals'
p58
S'93'
p59
sS'_turnOvers'
p60
S'38'
p61
sS'_twoPointsPercentage'
p62
S'.554'
p63
sS'_minutesPlayed'
p64
S'520'
p65
sS'_gamesStarted'
p66
S'3'
p67
sba(isrc.gp1.models.Totals
Totals
p68
(dp69
g8
S'75'
p70
sg10
S'2'
p71
sg12
S'.533'
p72
sg14
S'10'
p73
sg16
S'.000'
p74
sg18
g19
sg20
S'248'
p75
sg22
S'PF'
p76
sg24
S'.714'
p77
sg26
S'.533'
p78
sg28
S'NBA'
p79
sg30
S'16'
p80
sg32
S'167'
p81
sg34
S'113'
p82
sg36
S'98'
p83
sg38
S'199'
p84
sg40
S'24'
p85
sg42
S'MIN'
p86
sg44
S'55'
p87
sg46
S'33'
p88
sg48
S'89'
p89
sg50
S'70'
p90
sg52
S'165'
p91
sg54
S'124'
p92
sg56
S'1993-94'
p93
sg58
S'89'
p94
sg60
S'40'
p95
sg62
S'.539'
p96
sg64
S'626'
p97
sg66
g71
sbasS'_college'
p98
S'University of Texas at El Paso'
p99
sS'_toYear'
p100
S'1994'
p101
sS'_height'
p102
S'6-8'
p103
sS'_active'
p104
I00
sS'_shootingHand'
p105
VRight
p106
sS'_name'
p107
S'Marlon Maxey'
p108
sS'_per100Possessions'
p109
(lp110
(isrc.gp1.models.Per100Possession
Per100Possession
p111
(dp112
g8
S'6.5'
p113
sg10
S'0.1'
p114
sg12
S'.550'
p115
sS'_offensiveRating'
p116
S'107'
p117
sg14
S'1.2'
p118
sg16
S'.000'
p119
sg18
S'0.0'
p120
sg20
S'22.7'
p121
sg22
S'PF'
p122
sS'_defensiveRating'
p123
S'110'
p124
sg24
S'.643'
p125
sg28
S'NBA'
p126
sg30
S'1.1'
p127
sg32
S'16.6'
p128
sg34
S'7.4'
p129
sg36
S'6.9'
p130
sg38
S'16.1'
p131
sg40
S'23'
p132
sg42
S'MIN'
p133
sg44
S'43'
p134
sg46
S'1.8'
p135
sg48
S'9.1'
p136
sg50
S'4.4'
p137
sg52
S'16.5'
p138
sg54
S'9.6'
p139
sg56
S'1992-93'
p140
sg58
S'9.1'
p141
sg60
S'3.7'
p142
sg62
S'.554'
p143
sg64
S'520'
p144
sg66
g67
sba(isrc.gp1.models.Per100Possession
Per100Possession
p145
(dp146
g8
S'6.1'
p147
sg10
S'0.2'
p148
sg12
S'.533'
p149
sg116
S'112'
p150
sg14
S'0.8'
p151
sg16
S'.000'
p152
sg18
S'0.0'
p153
sg20
S'20.1'
p154
sg22
S'PF'
p155
sg123
S'105'
p156
sg24
S'.714'
p157
sg28
S'NBA'
p158
sg30
S'1.3'
p159
sg32
S'13.5'
p160
sg34
S'9.2'
p161
sg36
S'7.9'
p162
sg38
S'16.1'
p163
sg40
S'24'
p164
sg42
S'MIN'
p165
sg44
S'55'
p166
sg46
S'2.7'
p167
sg48
S'7.2'
p168
sg50
S'5.7'
p169
sg52
S'13.4'
p170
sg54
S'10.0'
p171
sg56
S'1993-94'
p172
sg58
S'7.2'
p173
sg60
S'3.2'
p174
sg62
S'.539'
p175
sg64
S'626'
p176
sg66
g71
sbasS'_advanced'
p177
(lp178
(isrc.gp1.models.Advanced
Advanced
p179
(dp180
S'_offensiveReboundPercentage'
p181
S'15.4'
p182
sS'_turnOverPercentage'
p183
S'16.0'
p184
sS'_winSharesPer48Minutes'
p185
S'.087'
p186
sS'_stealPercentage'
p187
S'1.1'
p188
sS'_usagePercentage'
p189
S'20.3'
p190
sS'_totalReboundsPercentage'
p191
S'19.0'
p192
sS'_defensiveBoxPlusMinus'
p193
S'-2.5'
p194
sg22
S'PF'
p195
sS'_valueOverReplacementPlayer'
p196
S'-0.3'
p197
sS'_trueShootingPercentage'
p198
S'.578'
p199
sS'_defensiveReboundPercentage'
p200
S'22.5'
p201
sS'_freeThrowsAttempRate'
p202
S'.414'
p203
sS'_threePointsAttempRate'
p204
S'.006'
p205
sg28
S'NBA'
p206
sS'_offensiveBoxPlusMinues'
p207
S'-2.0'
p208
sS'_assistPercentage'
p209
S'3.9'
p210
sS'_defensiveWinShares'
p211
S'0.4'
p212
sg40
S'23'
p213
sg42
S'MIN'
p214
sg44
S'43'
p215
sS'_blockPercentage'
p216
S'2.2'
p217
sS'_playerEfficiencyRating'
p218
S'15.8'
p219
sS'_offensiveWinShares'
p220
S'0.5'
p221
sg64
S'520'
p222
sS'_boxPlusMinus'
p223
S'-4.5'
p224
sg56
S'1992-93'
p225
sS'_winShares'
p226
S'0.9'
p227
sba(isrc.gp1.models.Advanced
Advanced
p228
(dp229
g181
S'14.4'
p230
sg183
S'16.0'
p231
sg185
S'.127'
p232
sg187
S'1.3'
p233
sg189
S'17.5'
p234
sg191
S'18.6'
p235
sg193
S'-1.2'
p236
sg22
S'PF'
p237
sg196
S'-0.2'
p238
sg198
S'.590'
p239
sg200
S'22.7'
p240
sg202
S'.587'
p241
sg204
S'.012'
p242
sg28
S'NBA'
p243
sg207
S'-1.9'
p244
sg209
S'2.6'
p245
sg211
S'0.7'
p246
sg40
S'24'
p247
sg42
S'MIN'
p248
sg44
S'55'
p249
sg216
S'3.4'
p250
sg218
S'15.4'
p251
sg220
S'0.9'
p252
sg64
S'626'
p253
sg223
S'-3.2'
p254
sg56
S'1993-94'
p255
sg226
S'1.7'
p256
sbasS'_per36Minutes'
p257
(lp258
(isrc.gp1.models.Per36Minutes
Per36Minutes
p259
(dp260
g8
S'4.6'
p261
sg10
S'0.1'
p262
sg12
S'.550'
p263
sg14
S'0.8'
p264
sg16
S'.000'
p265
sg18
S'0.0'
p266
sg20
S'16.0'
p267
sg22
S'PF'
p268
sg24
S'.643'
p269
sg28
S'NBA'
p270
sg30
S'0.8'
p271
sg32
S'11.7'
p272
sg34
S'5.2'
p273
sg36
S'4.8'
p274
sg38
S'11.4'
p275
sg40
S'23'
p276
sg42
S'MIN'
p277
sg44
S'43'
p278
sg46
S'1.2'
p279
sg48
S'6.4'
p280
sg50
S'3.1'
p281
sg52
S'11.6'
p282
sg54
S'6.8'
p283
sg56
S'1992-93'
p284
sg58
S'6.4'
p285
sg60
S'2.6'
p286
sg62
S'.554'
p287
sg64
S'520'
p288
sg66
g67
sba(isrc.gp1.models.Per36Minutes
Per36Minutes
p289
(dp290
g8
S'4.3'
p291
sg10
S'0.1'
p292
sg12
S'.533'
p293
sg14
S'0.6'
p294
sg16
S'.000'
p295
sg18
S'0.0'
p296
sg20
S'14.3'
p297
sg22
S'PF'
p298
sg24
S'.714'
p299
sg28
S'NBA'
p300
sg30
S'0.9'
p301
sg32
S'9.6'
p302
sg34
S'6.5'
p303
sg36
S'5.6'
p304
sg38
S'11.4'
p305
sg40
S'24'
p306
sg42
S'MIN'
p307
sg44
S'55'
p308
sg46
S'1.9'
p309
sg48
S'5.1'
p310
sg50
S'4.0'
p311
sg52
S'9.5'
p312
sg54
S'7.1'
p313
sg56
S'1993-94'
p314
sg58
S'5.1'
p315
sg60
S'2.3'
p316
sg62
S'.539'
p317
sg64
S'626'
p318
sg66
g71
sbasS'_fromYear'
p319
S'1993'
p320
sS'_url'
p321
S'http://www.basketball-reference.com/players/m/maxeyma01.html'
p322
sS'_perGame'
p323
(isrc.gp1.models.PerGame
PerGame
p324
(dp325
g8
S'1.4'
p326
sg10
S'0.0'
p327
sg12
S'.533'
p328
sS'_effectiveFieldGalPercentage'
p329
S'.533'
p330
sg14
S'0.2'
p331
sg16
S'.000'
p332
sg18
S'0.0'
p333
sg20
S'4.5'
p334
sg22
S'PF'
p335
sg24
S'.714'
p336
sg28
S'NBA'
p337
sg30
S'0.3'
p338
sg34
S'2.1'
p339
sS'_fieldGoalsttempted'
p340
S'3.0'
p341
sg36
S'1.8'
p342
sg38
S'3.6'
p343
sg40
S'24'
p344
sg42
S'MIN'
p345
sg44
S'55'
p346
sg46
S'0.6'
p347
sg48
S'1.6'
p348
sg50
S'1.3'
p349
sg52
S'3.0'
p350
sg54
S'2.3'
p351
sg56
S'1993-94'
p352
sg58
S'1.6'
p353
sg60
S'0.7'
p354
sg62
S'.539'
p355
sg64
S'11.4'
p356
sg66
g71
sbsS'_weight'
p357
S'250'
p358
sS'_dob'
p359
S'19-2-1969'
p360
sS'_salary'
p361
(lp362
(isrc.gp1.models.Salary
Salary
p363
(dp364
g42
S'Minnesota Timberwolves'
p365
sg28
S'NBA'
p366
sg361
S'$325,000'
p367
sg56
S'1992-93'
p368
sba(isrc.gp1.models.Salary
Salary
p369
(dp370
g42
S'Minnesota Timberwolves'
p371
sg28
S'NBA'
p372
sg361
S'$375,000'
p373
sg56
S'1993-94'
p374
sba(isrc.gp1.models.Salary
Salary
p375
(dp376
g42
S'Minnesota Timberwolves'
p377
sg28
S'NBA'
p378
sg361
S'$275,000'
p379
sg56
S'1994-95'
p380
sbasg22
S'F'
p381
sb.