(isrc.gp1.models.Player
Player
p0
(dp1
S'_experience'
p2
V5
p3
sS'_totals'
p4
(lp5
(isrc.gp1.models.Totals
Totals
p6
(dp7
S'_offensiveRebounds'
p8
S'21'
p9
sS'_threePointsAttempted'
p10
S'71'
p11
sS'_fieldGoalsPercentage'
p12
S'.418'
p13
sS'_assist'
p14
S'266'
p15
sS'_threePointsPercentage'
p16
S'.310'
p17
sS'_threePoints'
p18
S'22'
p19
sS'_points'
p20
S'382'
p21
sS'_position'
p22
S'PG'
p23
sS'_freeThrowsPercentage'
p24
S'.722'
p25
sS'_effectiveFieldGoalPercentage'
p26
S'.448'
p27
sS'_league'
p28
S'NBA'
p29
sS'_steals'
p30
S'40'
p31
sS'_fieldGoalsAttempted'
p32
S'368'
p33
sS'_personalFouls'
p34
S'115'
p35
sS'_freeThrowsAttempted'
p36
S'72'
p37
sS'_totalRebounds'
p38
S'129'
p39
sS'_age'
p40
S'22'
p41
sS'_team'
p42
S'TOT'
p43
sS'_games'
p44
S'81'
p45
sS'_blocks'
p46
S'10'
p47
sS'_twoPoints'
p48
S'132'
p49
sS'_freeThrows'
p50
S'52'
p51
sS'_twoPointsAttempted'
p52
S'297'
p53
sS'_defensiveRebounds'
p54
S'108'
p55
sS'_season'
p56
S'2009-10'
p57
sS'_fieldGoals'
p58
S'154'
p59
sS'_turnOvers'
p60
S'85'
p61
sS'_twoPointsPercentage'
p62
S'.444'
p63
sS'_minutesPlayed'
p64
S'1269'
p65
sS'_gamesStarted'
p66
S'2'
p67
sba(isrc.gp1.models.Totals
Totals
p68
(dp69
g8
S'10'
p70
sg10
S'24'
p71
sg12
S'.391'
p72
sg14
S'81'
p73
sg16
S'.208'
p74
sg18
S'5'
p75
sg20
S'134'
p76
sg22
S'PG'
p77
sg24
S'.758'
p78
sg26
S'.410'
p79
sg28
S'NBA'
p80
sg30
S'13'
p81
sg32
S'133'
p82
sg34
S'33'
p83
sg36
S'33'
p84
sg38
S'38'
p85
sg40
S'22'
p86
sg42
S'UTA'
p87
sg44
S'26'
p88
sg46
g67
sg48
S'47'
p89
sg50
S'25'
p90
sg52
S'109'
p91
sg54
S'28'
p92
sg56
S'2009-10'
p93
sg58
S'52'
p94
sg60
S'28'
p95
sg62
S'.431'
p96
sg64
S'363'
p97
sg66
g67
sba(isrc.gp1.models.Totals
Totals
p98
(dp99
g8
S'11'
p100
sg10
S'47'
p101
sg12
S'.434'
p102
sg14
S'185'
p103
sg16
S'.362'
p104
sg18
S'17'
p105
sg20
S'248'
p106
sg22
S'PG'
p107
sg24
S'.692'
p108
sg26
S'.470'
p109
sg28
S'NBA'
p110
sg30
S'27'
p111
sg32
S'235'
p112
sg34
S'82'
p113
sg36
S'39'
p114
sg38
S'91'
p115
sg40
S'22'
p116
sg42
S'OKC'
p117
sg44
S'55'
p118
sg46
S'8'
p119
sg48
S'85'
p120
sg50
S'27'
p121
sg52
S'188'
p122
sg54
S'80'
p123
sg56
S'2009-10'
p124
sg58
S'102'
p125
sg60
S'57'
p126
sg62
S'.452'
p127
sg64
S'906'
p128
sg66
S'0'
p129
sba(isrc.gp1.models.Totals
Totals
p130
(dp131
g8
S'25'
p132
sg10
S'96'
p133
sg12
S'.402'
p134
sg14
S'238'
p135
sg16
S'.385'
p136
sg18
S'37'
p137
sg20
S'348'
p138
sg22
S'PG'
p139
sg24
S'.729'
p140
sg26
S'.458'
p141
sg28
S'NBA'
p142
sg30
S'35'
p143
sg32
S'333'
p144
sg34
S'96'
p145
sg36
S'59'
p146
sg38
S'121'
p147
sg40
S'23'
p148
sg42
S'OKC'
p149
sg44
S'82'
p150
sg46
S'6'
p151
sg48
S'97'
p152
sg50
S'43'
p153
sg52
S'237'
p154
sg54
S'96'
p155
sg56
S'2010-11'
p156
sg58
S'134'
p157
sg60
S'77'
p158
sg62
S'.409'
p159
sg64
S'1200'
p160
sg66
g129
sba(isrc.gp1.models.Totals
Totals
p161
(dp162
g8
S'3'
p163
sg10
S'17'
p164
sg12
S'.359'
p165
sg14
S'22'
p166
sg16
S'.353'
p167
sg18
g151
sg20
S'38'
p168
sg22
S'PG'
p169
sg24
S'1.000'
p170
sg26
S'.436'
p171
sg28
S'NBA'
p172
sg30
g75
sg32
S'39'
p173
sg34
S'13'
p174
sg36
S'4'
p175
sg38
S'13'
p176
sg40
S'24'
p177
sg42
S'OKC'
p178
sg44
S'9'
p179
sg46
g129
sg48
g119
sg50
g175
sg52
S'22'
p180
sg54
S'10'
p181
sg56
S'2011-12'
p182
sg58
S'14'
p183
sg60
S'11'
p184
sg62
S'.364'
p185
sg64
S'137'
p186
sg66
g129
sba(isrc.gp1.models.Totals
Totals
p187
(dp188
g8
g179
sg10
S'96'
p189
sg12
S'.377'
p190
sg14
S'182'
p191
sg16
S'.354'
p192
sg18
S'34'
p193
sg20
S'291'
p194
sg22
S'PG-SG'
p195
sg24
S'.726'
p196
sg26
S'.438'
p197
sg28
S'NBA'
p198
sg30
S'22'
p199
sg32
S'281'
p200
sg34
S'55'
p201
sg36
S'62'
p202
sg38
S'46'
p203
sg40
S'25'
p204
sg42
S'TOT'
p205
sg44
S'64'
p206
sg46
S'1'
p207
sg48
S'72'
p208
sg50
S'45'
p209
sg52
S'185'
p210
sg54
S'37'
p211
sg56
S'2012-13'
p212
sg58
S'106'
p213
sg60
S'79'
p214
sg62
S'.389'
p215
sg64
S'963'
p216
sg66
g129
sba(isrc.gp1.models.Totals
Totals
p217
(dp218
g8
g75
sg10
S'46'
p219
sg12
S'.313'
p220
sg14
S'73'
p221
sg16
S'.326'
p222
sg18
S'15'
p223
sg20
S'104'
p224
sg22
S'PG'
p225
sg24
S'.810'
p226
sg26
S'.378'
p227
sg28
S'NBA'
p228
sg30
S'10'
p229
sg32
S'115'
p230
sg34
S'19'
p231
sg36
S'21'
p232
sg38
S'18'
p233
sg40
S'25'
p234
sg42
S'OKC'
p235
sg44
S'37'
p236
sg46
g129
sg48
S'21'
p237
sg50
S'17'
p238
sg52
S'69'
p239
sg54
S'13'
p240
sg56
S'2012-13'
p241
sg58
S'36'
p242
sg60
S'31'
p243
sg62
S'.304'
p244
sg64
S'391'
p245
sg66
g129
sba(isrc.gp1.models.Totals
Totals
p246
(dp247
g8
g175
sg10
S'50'
p248
sg12
S'.422'
p249
sg14
S'109'
p250
sg16
S'.380'
p251
sg18
S'19'
p252
sg20
S'187'
p253
sg22
S'SG'
p254
sg24
S'.683'
p255
sg26
S'.479'
p256
sg28
S'NBA'
p257
sg30
S'12'
p258
sg32
S'166'
p259
sg34
S'36'
p260
sg36
S'41'
p261
sg38
S'28'
p262
sg40
S'25'
p263
sg42
S'POR'
p264
sg44
S'27'
p265
sg46
g207
sg48
S'51'
p266
sg50
S'28'
p267
sg52
S'116'
p268
sg54
S'24'
p269
sg56
S'2012-13'
p270
sg58
S'70'
p271
sg60
S'48'
p272
sg62
S'.440'
p273
sg64
S'572'
p274
sg66
g129
sba(isrc.gp1.models.Totals
Totals
p275
(dp276
g8
g179
sg10
S'37'
p277
sg12
S'.317'
p278
sg14
S'52'
p279
sg16
S'.324'
p280
sg18
S'12'
p281
sg20
S'82'
p282
sg22
S'PG'
p283
sg24
S'.545'
p284
sg26
S'.376'
p285
sg28
S'NBA'
p286
sg30
g179
sg32
S'101'
p287
sg34
S'17'
p288
sg36
S'11'
p289
sg38
S'39'
p290
sg40
S'26'
p291
sg42
S'TOT'
p292
sg44
S'31'
p293
sg46
g163
sg48
S'20'
p294
sg50
g151
sg52
S'64'
p295
sg54
S'30'
p296
sg56
S'2013-14'
p297
sg58
S'32'
p298
sg60
S'29'
p299
sg62
S'.313'
p300
sg64
S'327'
p301
sg66
g129
sba(isrc.gp1.models.Totals
Totals
p302
(dp303
g8
S'7'
p304
sg10
S'25'
p305
sg12
S'.292'
p306
sg14
S'40'
p307
sg16
S'.320'
p308
sg18
g119
sg20
S'52'
p309
sg22
S'PG'
p310
sg24
S'.667'
p311
sg26
S'.347'
p312
sg28
S'NBA'
p313
sg30
g75
sg32
S'72'
p314
sg34
S'13'
p315
sg36
g163
sg38
S'24'
p316
sg40
S'26'
p317
sg42
S'WAS'
p318
sg44
S'23'
p319
sg46
g207
sg48
S'13'
p320
sg50
g67
sg52
S'47'
p321
sg54
S'17'
p322
sg56
S'2013-14'
p323
sg58
S'21'
p324
sg60
S'17'
p325
sg62
S'.277'
p326
sg64
S'215'
p327
sg66
g129
sba(isrc.gp1.models.Totals
Totals
p328
(dp329
g8
g67
sg10
S'12'
p330
sg12
S'.379'
p331
sg14
S'12'
p332
sg16
S'.333'
p333
sg18
g175
sg20
S'30'
p334
sg22
S'PG'
p335
sg24
S'.500'
p336
sg26
S'.448'
p337
sg28
S'NBA'
p338
sg30
g175
sg32
S'29'
p339
sg34
g175
sg36
g119
sg38
S'15'
p340
sg40
S'26'
p341
sg42
S'PHI'
p342
sg44
g119
sg46
g67
sg48
g304
sg50
g175
sg52
S'17'
p343
sg54
S'13'
p344
sg56
S'2013-14'
p345
sg58
S'11'
p346
sg60
S'12'
p347
sg62
S'.412'
p348
sg64
S'112'
p349
sg66
g129
sbasS'_college'
p350
S'Virginia Commonwealth University'
p351
sS'_toYear'
p352
S'2014'
p353
sS'_height'
p354
S'6-3'
p355
sS'_active'
p356
I01
sS'_shootingHand'
p357
VRight
p358
sS'_name'
p359
S'Eric Maynor'
p360
sS'_per100Possessions'
p361
(lp362
(isrc.gp1.models.Per100Possession
Per100Possession
p363
(dp364
g8
S'0.9'
p365
sg10
S'2.9'
p366
sg12
S'.418'
p367
sS'_offensiveRating'
p368
S'103'
p369
sg14
S'10.8'
p370
sg16
S'.310'
p371
sg18
S'0.9'
p372
sg20
S'15.5'
p373
sg22
S'PG'
p374
sS'_defensiveRating'
p375
S'107'
p376
sg24
S'.722'
p377
sg28
S'NBA'
p378
sg30
S'1.6'
p379
sg32
S'14.9'
p380
sg34
S'4.7'
p381
sg36
S'2.9'
p382
sg38
S'5.2'
p383
sg40
S'22'
p384
sg42
S'TOT'
p385
sg44
S'81'
p386
sg46
S'0.4'
p387
sg48
S'5.4'
p388
sg50
S'2.1'
p389
sg52
S'12.0'
p390
sg54
S'4.4'
p391
sg56
S'2009-10'
p392
sg58
S'6.2'
p393
sg60
S'3.4'
p394
sg62
S'.444'
p395
sg64
S'1269'
p396
sg66
g67
sba(isrc.gp1.models.Per100Possession
Per100Possession
p397
(dp398
g8
S'1.4'
p399
sg10
S'3.4'
p400
sg12
S'.391'
p401
sg368
S'99'
p402
sg14
S'11.4'
p403
sg16
S'.208'
p404
sg18
S'0.7'
p405
sg20
S'18.9'
p406
sg22
S'PG'
p407
sg375
S'108'
p408
sg24
S'.758'
p409
sg28
S'NBA'
p410
sg30
S'1.8'
p411
sg32
S'18.7'
p412
sg34
S'4.7'
p413
sg36
S'4.7'
p414
sg38
S'5.4'
p415
sg40
S'22'
p416
sg42
S'UTA'
p417
sg44
S'26'
p418
sg46
S'0.3'
p419
sg48
S'6.6'
p420
sg50
S'3.5'
p421
sg52
S'15.4'
p422
sg54
S'3.9'
p423
sg56
S'2009-10'
p424
sg58
S'7.3'
p425
sg60
S'3.9'
p426
sg62
S'.431'
p427
sg64
S'363'
p428
sg66
g67
sba(isrc.gp1.models.Per100Possession
Per100Possession
p429
(dp430
g8
S'0.6'
p431
sg10
S'2.7'
p432
sg12
S'.434'
p433
sg368
S'105'
p434
sg14
S'10.5'
p435
sg16
S'.362'
p436
sg18
S'1.0'
p437
sg20
S'14.1'
p438
sg22
S'PG'
p439
sg375
S'107'
p440
sg24
S'.692'
p441
sg28
S'NBA'
p442
sg30
S'1.5'
p443
sg32
S'13.4'
p444
sg34
S'4.7'
p445
sg36
S'2.2'
p446
sg38
S'5.2'
p447
sg40
S'22'
p448
sg42
S'OKC'
p449
sg44
S'55'
p450
sg46
S'0.5'
p451
sg48
S'4.8'
p452
sg50
S'1.5'
p453
sg52
S'10.7'
p454
sg54
S'4.6'
p455
sg56
S'2009-10'
p456
sg58
S'5.8'
p457
sg60
S'3.2'
p458
sg62
S'.452'
p459
sg64
S'906'
p460
sg66
g129
sba(isrc.gp1.models.Per100Possession
Per100Possession
p461
(dp462
g8
S'1.1'
p463
sg10
S'4.1'
p464
sg12
S'.402'
p465
sg368
S'104'
p466
sg14
S'10.3'
p467
sg16
S'.385'
p468
sg18
S'1.6'
p469
sg20
S'15.0'
p470
sg22
S'PG'
p471
sg375
S'110'
p472
sg24
S'.729'
p473
sg28
S'NBA'
p474
sg30
S'1.5'
p475
sg32
S'14.4'
p476
sg34
S'4.1'
p477
sg36
S'2.5'
p478
sg38
S'5.2'
p479
sg40
S'23'
p480
sg42
S'OKC'
p481
sg44
S'82'
p482
sg46
S'0.3'
p483
sg48
S'4.2'
p484
sg50
S'1.9'
p485
sg52
S'10.2'
p486
sg54
S'4.1'
p487
sg56
S'2010-11'
p488
sg58
S'5.8'
p489
sg60
S'3.3'
p490
sg62
S'.409'
p491
sg64
S'1200'
p492
sg66
g129
sba(isrc.gp1.models.Per100Possession
Per100Possession
p493
(dp494
g8
S'1.1'
p495
sg10
S'6.4'
p496
sg12
S'.359'
p497
sg368
S'96'
p498
sg14
S'8.3'
p499
sg16
S'.353'
p500
sg18
S'2.3'
p501
sg20
S'14.3'
p502
sg22
S'PG'
p503
sg375
S'107'
p504
sg24
S'1.000'
p505
sg28
S'NBA'
p506
sg30
S'1.9'
p507
sg32
S'14.7'
p508
sg34
S'4.9'
p509
sg36
S'1.5'
p510
sg38
S'4.9'
p511
sg40
S'24'
p512
sg42
S'OKC'
p513
sg44
g179
sg46
S'0.0'
p514
sg48
S'3.0'
p515
sg50
S'1.5'
p516
sg52
S'8.3'
p517
sg54
S'3.8'
p518
sg56
S'2011-12'
p519
sg58
S'5.3'
p520
sg60
S'4.1'
p521
sg62
S'.364'
p522
sg64
S'137'
p523
sg66
g129
sba(isrc.gp1.models.Per100Possession
Per100Possession
p524
(dp525
g8
S'0.5'
p526
sg10
S'5.2'
p527
sg12
S'.377'
p528
sg368
S'96'
p529
sg14
S'9.8'
p530
sg16
S'.354'
p531
sg18
S'1.8'
p532
sg20
S'15.7'
p533
sg22
S'PG-SG'
p534
sg375
S'112'
p535
sg24
S'.726'
p536
sg28
S'NBA'
p537
sg30
S'1.2'
p538
sg32
S'15.2'
p539
sg34
S'3.0'
p540
sg36
S'3.4'
p541
sg38
S'2.5'
p542
sg40
S'25'
p543
sg42
S'TOT'
p544
sg44
S'64'
p545
sg46
S'0.1'
p546
sg48
S'3.9'
p547
sg50
S'2.4'
p548
sg52
S'10.0'
p549
sg54
S'2.0'
p550
sg56
S'2012-13'
p551
sg58
S'5.7'
p552
sg60
S'4.3'
p553
sg62
S'.389'
p554
sg64
S'963'
p555
sg66
g129
sba(isrc.gp1.models.Per100Possession
Per100Possession
p556
(dp557
g8
S'0.7'
p558
sg10
S'6.0'
p559
sg12
S'.313'
p560
sg368
S'92'
p561
sg14
S'9.6'
p562
sg16
S'.326'
p563
sg18
S'2.0'
p564
sg20
S'13.7'
p565
sg22
S'PG'
p566
sg375
S'109'
p567
sg24
S'.810'
p568
sg28
S'NBA'
p569
sg30
S'1.3'
p570
sg32
S'15.1'
p571
sg34
S'2.5'
p572
sg36
S'2.8'
p573
sg38
S'2.4'
p574
sg40
S'25'
p575
sg42
S'OKC'
p576
sg44
S'37'
p577
sg46
S'0.0'
p578
sg48
S'2.8'
p579
sg50
S'2.2'
p580
sg52
S'9.1'
p581
sg54
S'1.7'
p582
sg56
S'2012-13'
p583
sg58
S'4.7'
p584
sg60
S'4.1'
p585
sg62
S'.304'
p586
sg64
S'391'
p587
sg66
g129
sba(isrc.gp1.models.Per100Possession
Per100Possession
p588
(dp589
g8
S'0.4'
p590
sg10
S'4.6'
p591
sg12
S'.422'
p592
sg368
S'100'
p593
sg14
S'10.0'
p594
sg16
S'.380'
p595
sg18
S'1.7'
p596
sg20
S'17.2'
p597
sg22
S'SG'
p598
sg375
S'114'
p599
sg24
S'.683'
p600
sg28
S'NBA'
p601
sg30
S'1.1'
p602
sg32
S'15.2'
p603
sg34
S'3.3'
p604
sg36
S'3.8'
p605
sg38
S'2.6'
p606
sg40
S'25'
p607
sg42
S'POR'
p608
sg44
S'27'
p609
sg46
S'0.1'
p610
sg48
S'4.7'
p611
sg50
S'2.6'
p612
sg52
S'10.7'
p613
sg54
S'2.2'
p614
sg56
S'2012-13'
p615
sg58
S'6.4'
p616
sg60
S'4.4'
p617
sg62
S'.440'
p618
sg64
S'572'
p619
sg66
g129
sba(isrc.gp1.models.Per100Possession
Per100Possession
p620
(dp621
g8
S'1.4'
p622
sg10
S'5.7'
p623
sg12
S'.317'
p624
sg368
S'82'
p625
sg14
S'8.0'
p626
sg16
S'.324'
p627
sg18
S'1.8'
p628
sg20
S'12.6'
p629
sg22
S'PG'
p630
sg375
S'109'
p631
sg24
S'.545'
p632
sg28
S'NBA'
p633
sg30
S'1.4'
p634
sg32
S'15.6'
p635
sg34
S'2.6'
p636
sg36
S'1.7'
p637
sg38
S'6.0'
p638
sg40
S'26'
p639
sg42
S'TOT'
p640
sg44
S'31'
p641
sg46
S'0.5'
p642
sg48
S'3.1'
p643
sg50
S'0.9'
p644
sg52
S'9.9'
p645
sg54
S'4.6'
p646
sg56
S'2013-14'
p647
sg58
S'4.9'
p648
sg60
S'4.5'
p649
sg62
S'.313'
p650
sg64
S'327'
p651
sg66
g129
sba(isrc.gp1.models.Per100Possession
Per100Possession
p652
(dp653
g8
S'1.7'
p654
sg10
S'6.0'
p655
sg12
S'.292'
p656
sg368
S'83'
p657
sg14
S'9.6'
p658
sg16
S'.320'
p659
sg18
S'1.9'
p660
sg20
S'12.5'
p661
sg22
S'PG'
p662
sg375
S'108'
p663
sg24
S'.667'
p664
sg28
S'NBA'
p665
sg30
S'1.2'
p666
sg32
S'17.2'
p667
sg34
S'3.1'
p668
sg36
S'0.7'
p669
sg38
S'5.7'
p670
sg40
S'26'
p671
sg42
S'WAS'
p672
sg44
S'23'
p673
sg46
S'0.2'
p674
sg48
S'3.1'
p675
sg50
S'0.5'
p676
sg52
S'11.3'
p677
sg54
S'4.1'
p678
sg56
S'2013-14'
p679
sg58
S'5.0'
p680
sg60
S'4.1'
p681
sg62
S'.277'
p682
sg64
S'215'
p683
sg66
g129
sba(isrc.gp1.models.Per100Possession
Per100Possession
p684
(dp685
g8
S'0.9'
p686
sg10
S'5.2'
p687
sg12
S'.379'
p688
sg368
S'79'
p689
sg14
S'5.2'
p690
sg16
S'.333'
p691
sg18
S'1.7'
p692
sg20
S'13.0'
p693
sg22
S'PG'
p694
sg375
S'111'
p695
sg24
S'.500'
p696
sg28
S'NBA'
p697
sg30
S'1.7'
p698
sg32
S'12.5'
p699
sg34
S'1.7'
p700
sg36
S'3.5'
p701
sg38
S'6.5'
p702
sg40
S'26'
p703
sg42
S'PHI'
p704
sg44
g119
sg46
S'0.9'
p705
sg48
S'3.0'
p706
sg50
S'1.7'
p707
sg52
S'7.3'
p708
sg54
S'5.6'
p709
sg56
S'2013-14'
p710
sg58
S'4.8'
p711
sg60
S'5.2'
p712
sg62
S'.412'
p713
sg64
S'112'
p714
sg66
g129
sbasS'_advanced'
p715
(lp716
(isrc.gp1.models.Advanced
Advanced
p717
(dp718
S'_offensiveReboundPercentage'
p719
S'2.0'
p720
sS'_turnOverPercentage'
p721
S'17.5'
p722
sS'_winSharesPer48Minutes'
p723
S'.071'
p724
sS'_stealPercentage'
p725
S'1.6'
p726
sS'_usagePercentage'
p727
S'17.1'
p728
sS'_totalReboundsPercentage'
p729
S'5.9'
p730
sS'_defensiveBoxPlusMinus'
p731
S'-1.4'
p732
sg22
S'PG'
p733
sS'_valueOverReplacementPlayer'
p734
S'-0.4'
p735
sS'_trueShootingPercentage'
p736
S'.478'
p737
sS'_defensiveReboundPercentage'
p738
S'9.6'
p739
sS'_freeThrowsAttempRate'
p740
S'.196'
p741
sS'_threePointsAttempRate'
p742
S'.193'
p743
sg28
S'NBA'
p744
sS'_offensiveBoxPlusMinues'
p745
S'-2.0'
p746
sS'_assistPercentage'
p747
S'31.5'
p748
sS'_defensiveWinShares'
p749
S'1.4'
p750
sg40
S'22'
p751
sg42
S'TOT'
p752
sg44
S'81'
p753
sS'_blockPercentage'
p754
S'0.6'
p755
sS'_playerEfficiencyRating'
p756
S'11.8'
p757
sS'_offensiveWinShares'
p758
S'0.5'
p759
sg64
S'1269'
p760
sS'_boxPlusMinus'
p761
S'-3.3'
p762
sg56
S'2009-10'
p763
sS'_winShares'
p764
S'1.9'
p765
sba(isrc.gp1.models.Advanced
Advanced
p766
(dp767
g719
S'3.4'
p768
sg721
S'16.0'
p769
sg723
S'.051'
p770
sg725
S'1.8'
p771
sg727
S'21.7'
p772
sg729
S'6.2'
p773
sg731
S'-1.8'
p774
sg22
S'PG'
p775
sg734
S'-0.2'
p776
sg736
S'.454'
p777
sg738
S'8.9'
p778
sg740
S'.248'
p779
sg742
S'.180'
p780
sg28
S'NBA'
p781
sg745
S'-1.9'
p782
sg747
S'33.1'
p783
sg749
S'0.4'
p784
sg40
S'22'
p785
sg42
S'UTA'
p786
sg44
S'26'
p787
sg754
S'0.4'
p788
sg756
S'12.3'
p789
sg758
S'0.0'
p790
sg64
S'363'
p791
sg761
S'-3.7'
p792
sg56
S'2009-10'
p793
sg764
S'0.4'
p794
sba(isrc.gp1.models.Advanced
Advanced
p795
(dp796
g719
S'1.4'
p797
sg721
S'18.4'
p798
sg723
S'.079'
p799
sg725
S'1.5'
p800
sg727
S'15.3'
p801
sg729
S'5.8'
p802
sg731
S'-1.2'
p803
sg22
S'PG'
p804
sg734
S'-0.3'
p805
sg736
S'.492'
p806
sg738
S'9.9'
p807
sg740
S'.166'
p808
sg742
S'.200'
p809
sg28
S'NBA'
p810
sg745
S'-2.0'
p811
sg747
S'30.9'
p812
sg749
S'1.0'
p813
sg40
S'22'
p814
sg42
S'OKC'
p815
sg44
S'55'
p816
sg754
S'0.7'
p817
sg756
S'11.6'
p818
sg758
S'0.5'
p819
sg64
S'906'
p820
sg761
S'-3.2'
p821
sg56
S'2009-10'
p822
sg764
S'1.5'
p823
sba(isrc.gp1.models.Advanced
Advanced
p824
(dp825
g719
S'2.5'
p826
sg721
S'17.7'
p827
sg723
S'.061'
p828
sg725
S'1.5'
p829
sg727
S'16.5'
p830
sg729
S'5.9'
p831
sg731
S'-2.1'
p832
sg22
S'PG'
p833
sg734
S'-0.4'
p834
sg736
S'.485'
p835
sg738
S'9.1'
p836
sg740
S'.177'
p837
sg742
S'.288'
p838
sg28
S'NBA'
p839
sg745
S'-1.2'
p840
sg747
S'30.3'
p841
sg749
S'0.8'
p842
sg40
S'23'
p843
sg42
S'OKC'
p844
sg44
S'82'
p845
sg754
S'0.4'
p846
sg756
S'11.7'
p847
sg758
S'0.7'
p848
sg64
S'1200'
p849
sg761
S'-3.4'
p850
sg56
S'2010-11'
p851
sg764
S'1.5'
p852
sba(isrc.gp1.models.Advanced
Advanced
p853
(dp854
g719
S'2.7'
p855
sg721
S'21.3'
p856
sg723
S'.037'
p857
sg725
S'1.9'
p858
sg727
S'17.1'
p859
sg729
S'5.4'
p860
sg731
S'-2.2'
p861
sg22
S'PG'
p862
sg734
S'-0.1'
p863
sg736
S'.466'
p864
sg738
S'7.8'
p865
sg740
S'.103'
p866
sg742
S'.436'
p867
sg28
S'NBA'
p868
sg745
S'-1.8'
p869
sg747
S'24.1'
p870
sg749
S'0.1'
p871
sg40
S'24'
p872
sg42
S'OKC'
p873
sg44
g179
sg754
S'0.0'
p874
sg756
S'9.1'
p875
sg758
S'0.0'
p876
sg64
S'137'
p877
sg761
S'-4.0'
p878
sg56
S'2011-12'
p879
sg764
S'0.1'
p880
sba(isrc.gp1.models.Advanced
Advanced
p881
(dp882
g719
S'1.1'
p883
sg721
S'20.4'
p884
sg723
S'.008'
p885
sg725
S'1.2'
p886
sg727
S'18.4'
p887
sg729
S'2.8'
p888
sg731
S'-4.4'
p889
sg22
S'PG-SG'
p890
sg734
S'-1.3'
p891
sg736
S'.472'
p892
sg738
S'4.4'
p893
sg740
S'.221'
p894
sg742
S'.342'
p895
sg28
S'NBA'
p896
sg745
S'-3.0'
p897
sg747
S'28.7'
p898
sg749
S'0.3'
p899
sg40
S'25'
p900
sg42
S'TOT'
p901
sg44
S'64'
p902
sg754
S'0.1'
p903
sg756
S'9.3'
p904
sg758
S'-0.1'
p905
sg64
S'963'
p906
sg761
S'-7.4'
p907
sg56
S'2012-13'
p908
sg764
S'0.2'
p909
sba(isrc.gp1.models.Advanced
Advanced
p910
(dp911
g719
S'1.6'
p912
sg721
S'20.0'
p913
sg723
S'-0.003'
p914
sg725
S'1.3'
p915
sg727
S'18.1'
p916
sg729
S'2.6'
p917
sg731
S'-4.5'
p918
sg22
S'PG'
p919
sg734
S'-0.6'
p920
sg736
S'.419'
p921
sg738
S'3.6'
p922
sg740
S'.183'
p923
sg742
S'.400'
p924
sg28
S'NBA'
p925
sg745
S'-3.9'
p926
sg747
S'26.8'
p927
sg749
S'0.2'
p928
sg40
S'25'
p929
sg42
S'OKC'
p930
sg44
S'37'
p931
sg754
S'0.0'
p932
sg756
S'7.5'
p933
sg758
S'-0.3'
p934
sg64
S'391'
p935
sg761
S'-8.4'
p936
sg56
S'2012-13'
p937
sg764
S'0.0'
p938
sba(isrc.gp1.models.Advanced
Advanced
p939
(dp940
g719
S'0.8'
p941
sg721
S'20.7'
p942
sg723
S'.016'
p943
sg725
S'1.1'
p944
sg727
S'18.6'
p945
sg729
S'2.8'
p946
sg731
S'-4.3'
p947
sg22
S'SG'
p948
sg734
S'-0.7'
p949
sg736
S'.508'
p950
sg738
S'4.9'
p951
sg740
S'.247'
p952
sg742
S'.301'
p953
sg28
S'NBA'
p954
sg745
S'-2.4'
p955
sg747
S'30.0'
p956
sg749
S'0.0'
p957
sg40
S'25'
p958
sg42
S'POR'
p959
sg44
S'27'
p960
sg754
S'0.1'
p961
sg756
S'10.6'
p962
sg758
S'0.2'
p963
sg64
S'572'
p964
sg761
S'-6.7'
p965
sg56
S'2012-13'
p966
sg764
S'0.2'
p967
sba(isrc.gp1.models.Advanced
Advanced
p968
(dp969
g719
S'3.1'
p970
sg721
S'21.5'
p971
sg723
S'-0.058'
p972
sg725
S'1.4'
p973
sg727
S'18.2'
p974
sg729
S'6.7'
p975
sg731
S'-1.9'
p976
sg22
S'PG'
p977
sg734
S'-0.5'
p978
sg736
S'.387'
p979
sg738
S'10.6'
p980
sg740
S'.109'
p981
sg742
S'.366'
p982
sg28
S'NBA'
p983
sg745
S'-5.8'
p984
sg747
S'23.0'
p985
sg749
S'0.2'
p986
sg40
S'26'
p987
sg42
S'TOT'
p988
sg44
S'31'
p989
sg754
S'0.7'
p990
sg756
S'6.2'
p991
sg758
S'-0.6'
p992
sg64
S'327'
p993
sg761
S'-7.6'
p994
sg56
S'2013-14'
p995
sg764
S'-0.4'
p996
sba(isrc.gp1.models.Advanced
Advanced
p997
(dp998
g719
S'3.7'
p999
sg721
S'18.8'
p1000
sg723
S'-0.052'
p1001
sg725
S'1.2'
p1002
sg727
S'19.0'
p1003
sg729
S'6.5'
p1004
sg731
S'-2.1'
p1005
sg22
S'PG'
p1006
sg734
S'-0.3'
p1007
sg736
S'.355'
p1008
sg738
S'9.3'
p1009
sg740
S'.042'
p1010
sg742
S'.347'
p1011
sg28
S'NBA'
p1012
sg745
S'-5.4'
p1013
sg747
S'26.8'
p1014
sg749
S'0.2'
p1015
sg40
S'26'
p1016
sg42
S'WAS'
p1017
sg44
S'23'
p1018
sg754
S'0.4'
p1019
sg756
S'6.0'
p1020
sg758
S'-0.4'
p1021
sg64
S'215'
p1022
sg761
S'-7.5'
p1023
sg56
S'2013-14'
p1024
sg764
S'-0.2'
p1025
sba(isrc.gp1.models.Advanced
Advanced
p1026
(dp1027
g719
S'1.9'
p1028
sg721
S'27.0'
p1029
sg723
S'-0.070'
p1030
sg725
S'1.7'
p1031
sg727
S'16.8'
p1032
sg729
S'7.2'
p1033
sg731
S'-1.4'
p1034
sg22
S'PG'
p1035
sg734
S'-0.2'
p1036
sg736
S'.461'
p1037
sg738
S'13.0'
p1038
sg740
S'.276'
p1039
sg742
S'.414'
p1040
sg28
S'NBA'
p1041
sg745
S'-6.5'
p1042
sg747
S'15.7'
p1043
sg749
S'0.1'
p1044
sg40
S'26'
p1045
sg42
S'PHI'
p1046
sg44
g119
sg754
S'1.4'
p1047
sg756
S'6.6'
p1048
sg758
S'-0.2'
p1049
sg64
S'112'
p1050
sg761
S'-7.8'
p1051
sg56
S'2013-14'
p1052
sg764
S'-0.2'
p1053
sbasS'_per36Minutes'
p1054
(lp1055
(isrc.gp1.models.Per36Minutes
Per36Minutes
p1056
(dp1057
g8
S'0.6'
p1058
sg10
S'2.0'
p1059
sg12
S'.418'
p1060
sg14
S'7.5'
p1061
sg16
S'.310'
p1062
sg18
S'0.6'
p1063
sg20
S'10.8'
p1064
sg22
S'PG'
p1065
sg24
S'.722'
p1066
sg28
S'NBA'
p1067
sg30
S'1.1'
p1068
sg32
S'10.4'
p1069
sg34
S'3.3'
p1070
sg36
S'2.0'
p1071
sg38
S'3.7'
p1072
sg40
S'22'
p1073
sg42
S'TOT'
p1074
sg44
S'81'
p1075
sg46
S'0.3'
p1076
sg48
S'3.7'
p1077
sg50
S'1.5'
p1078
sg52
S'8.4'
p1079
sg54
S'3.1'
p1080
sg56
S'2009-10'
p1081
sg58
S'4.4'
p1082
sg60
S'2.4'
p1083
sg62
S'.444'
p1084
sg64
S'1269'
p1085
sg66
g67
sba(isrc.gp1.models.Per36Minutes
Per36Minutes
p1086
(dp1087
g8
S'1.0'
p1088
sg10
S'2.4'
p1089
sg12
S'.391'
p1090
sg14
S'8.0'
p1091
sg16
S'.208'
p1092
sg18
S'0.5'
p1093
sg20
S'13.3'
p1094
sg22
S'PG'
p1095
sg24
S'.758'
p1096
sg28
S'NBA'
p1097
sg30
S'1.3'
p1098
sg32
S'13.2'
p1099
sg34
S'3.3'
p1100
sg36
S'3.3'
p1101
sg38
S'3.8'
p1102
sg40
S'22'
p1103
sg42
S'UTA'
p1104
sg44
S'26'
p1105
sg46
S'0.2'
p1106
sg48
S'4.7'
p1107
sg50
S'2.5'
p1108
sg52
S'10.8'
p1109
sg54
S'2.8'
p1110
sg56
S'2009-10'
p1111
sg58
S'5.2'
p1112
sg60
S'2.8'
p1113
sg62
S'.431'
p1114
sg64
S'363'
p1115
sg66
g67
sba(isrc.gp1.models.Per36Minutes
Per36Minutes
p1116
(dp1117
g8
S'0.4'
p1118
sg10
S'1.9'
p1119
sg12
S'.434'
p1120
sg14
S'7.4'
p1121
sg16
S'.362'
p1122
sg18
S'0.7'
p1123
sg20
S'9.9'
p1124
sg22
S'PG'
p1125
sg24
S'.692'
p1126
sg28
S'NBA'
p1127
sg30
S'1.1'
p1128
sg32
S'9.3'
p1129
sg34
S'3.3'
p1130
sg36
S'1.5'
p1131
sg38
S'3.6'
p1132
sg40
S'22'
p1133
sg42
S'OKC'
p1134
sg44
S'55'
p1135
sg46
S'0.3'
p1136
sg48
S'3.4'
p1137
sg50
S'1.1'
p1138
sg52
S'7.5'
p1139
sg54
S'3.2'
p1140
sg56
S'2009-10'
p1141
sg58
S'4.1'
p1142
sg60
S'2.3'
p1143
sg62
S'.452'
p1144
sg64
S'906'
p1145
sg66
g129
sba(isrc.gp1.models.Per36Minutes
Per36Minutes
p1146
(dp1147
g8
S'0.7'
p1148
sg10
S'2.9'
p1149
sg12
S'.402'
p1150
sg14
S'7.1'
p1151
sg16
S'.385'
p1152
sg18
S'1.1'
p1153
sg20
S'10.4'
p1154
sg22
S'PG'
p1155
sg24
S'.729'
p1156
sg28
S'NBA'
p1157
sg30
S'1.0'
p1158
sg32
S'10.0'
p1159
sg34
S'2.9'
p1160
sg36
S'1.8'
p1161
sg38
S'3.6'
p1162
sg40
S'23'
p1163
sg42
S'OKC'
p1164
sg44
S'82'
p1165
sg46
S'0.2'
p1166
sg48
S'2.9'
p1167
sg50
S'1.3'
p1168
sg52
S'7.1'
p1169
sg54
S'2.9'
p1170
sg56
S'2010-11'
p1171
sg58
S'4.0'
p1172
sg60
S'2.3'
p1173
sg62
S'.409'
p1174
sg64
S'1200'
p1175
sg66
g129
sba(isrc.gp1.models.Per36Minutes
Per36Minutes
p1176
(dp1177
g8
S'0.8'
p1178
sg10
S'4.5'
p1179
sg12
S'.359'
p1180
sg14
S'5.8'
p1181
sg16
S'.353'
p1182
sg18
S'1.6'
p1183
sg20
S'10.0'
p1184
sg22
S'PG'
p1185
sg24
S'1.000'
p1186
sg28
S'NBA'
p1187
sg30
S'1.3'
p1188
sg32
S'10.2'
p1189
sg34
S'3.4'
p1190
sg36
S'1.1'
p1191
sg38
S'3.4'
p1192
sg40
S'24'
p1193
sg42
S'OKC'
p1194
sg44
g179
sg46
S'0.0'
p1195
sg48
S'2.1'
p1196
sg50
S'1.1'
p1197
sg52
S'5.8'
p1198
sg54
S'2.6'
p1199
sg56
S'2011-12'
p1200
sg58
S'3.7'
p1201
sg60
S'2.9'
p1202
sg62
S'.364'
p1203
sg64
S'137'
p1204
sg66
g129
sba(isrc.gp1.models.Per36Minutes
Per36Minutes
p1205
(dp1206
g8
S'0.3'
p1207
sg10
S'3.6'
p1208
sg12
S'.377'
p1209
sg14
S'6.8'
p1210
sg16
S'.354'
p1211
sg18
S'1.3'
p1212
sg20
S'10.9'
p1213
sg22
S'PG-SG'
p1214
sg24
S'.726'
p1215
sg28
S'NBA'
p1216
sg30
S'0.8'
p1217
sg32
S'10.5'
p1218
sg34
S'2.1'
p1219
sg36
S'2.3'
p1220
sg38
S'1.7'
p1221
sg40
S'25'
p1222
sg42
S'TOT'
p1223
sg44
S'64'
p1224
sg46
S'0.0'
p1225
sg48
S'2.7'
p1226
sg50
S'1.7'
p1227
sg52
S'6.9'
p1228
sg54
S'1.4'
p1229
sg56
S'2012-13'
p1230
sg58
S'4.0'
p1231
sg60
S'3.0'
p1232
sg62
S'.389'
p1233
sg64
S'963'
p1234
sg66
g129
sba(isrc.gp1.models.Per36Minutes
Per36Minutes
p1235
(dp1236
g8
S'0.5'
p1237
sg10
S'4.2'
p1238
sg12
S'.313'
p1239
sg14
S'6.7'
p1240
sg16
S'.326'
p1241
sg18
S'1.4'
p1242
sg20
S'9.6'
p1243
sg22
S'PG'
p1244
sg24
S'.810'
p1245
sg28
S'NBA'
p1246
sg30
S'0.9'
p1247
sg32
S'10.6'
p1248
sg34
S'1.7'
p1249
sg36
S'1.9'
p1250
sg38
S'1.7'
p1251
sg40
S'25'
p1252
sg42
S'OKC'
p1253
sg44
S'37'
p1254
sg46
S'0.0'
p1255
sg48
S'1.9'
p1256
sg50
S'1.6'
p1257
sg52
S'6.4'
p1258
sg54
S'1.2'
p1259
sg56
S'2012-13'
p1260
sg58
S'3.3'
p1261
sg60
S'2.9'
p1262
sg62
S'.304'
p1263
sg64
S'391'
p1264
sg66
g129
sba(isrc.gp1.models.Per36Minutes
Per36Minutes
p1265
(dp1266
g8
S'0.3'
p1267
sg10
S'3.1'
p1268
sg12
S'.422'
p1269
sg14
S'6.9'
p1270
sg16
S'.380'
p1271
sg18
S'1.2'
p1272
sg20
S'11.8'
p1273
sg22
S'SG'
p1274
sg24
S'.683'
p1275
sg28
S'NBA'
p1276
sg30
S'0.8'
p1277
sg32
S'10.4'
p1278
sg34
S'2.3'
p1279
sg36
S'2.6'
p1280
sg38
S'1.8'
p1281
sg40
S'25'
p1282
sg42
S'POR'
p1283
sg44
S'27'
p1284
sg46
S'0.1'
p1285
sg48
S'3.2'
p1286
sg50
S'1.8'
p1287
sg52
S'7.3'
p1288
sg54
S'1.5'
p1289
sg56
S'2012-13'
p1290
sg58
S'4.4'
p1291
sg60
S'3.0'
p1292
sg62
S'.440'
p1293
sg64
S'572'
p1294
sg66
g129
sba(isrc.gp1.models.Per36Minutes
Per36Minutes
p1295
(dp1296
g8
S'1.0'
p1297
sg10
S'4.1'
p1298
sg12
S'.317'
p1299
sg14
S'5.7'
p1300
sg16
S'.324'
p1301
sg18
S'1.3'
p1302
sg20
S'9.0'
p1303
sg22
S'PG'
p1304
sg24
S'.545'
p1305
sg28
S'NBA'
p1306
sg30
S'1.0'
p1307
sg32
S'11.1'
p1308
sg34
S'1.9'
p1309
sg36
S'1.2'
p1310
sg38
S'4.3'
p1311
sg40
S'26'
p1312
sg42
S'TOT'
p1313
sg44
S'31'
p1314
sg46
S'0.3'
p1315
sg48
S'2.2'
p1316
sg50
S'0.7'
p1317
sg52
S'7.0'
p1318
sg54
S'3.3'
p1319
sg56
S'2013-14'
p1320
sg58
S'3.5'
p1321
sg60
S'3.2'
p1322
sg62
S'.313'
p1323
sg64
S'327'
p1324
sg66
g129
sba(isrc.gp1.models.Per36Minutes
Per36Minutes
p1325
(dp1326
g8
S'1.2'
p1327
sg10
S'4.2'
p1328
sg12
S'.292'
p1329
sg14
S'6.7'
p1330
sg16
S'.320'
p1331
sg18
S'1.3'
p1332
sg20
S'8.7'
p1333
sg22
S'PG'
p1334
sg24
S'.667'
p1335
sg28
S'NBA'
p1336
sg30
S'0.8'
p1337
sg32
S'12.1'
p1338
sg34
S'2.2'
p1339
sg36
S'0.5'
p1340
sg38
S'4.0'
p1341
sg40
S'26'
p1342
sg42
S'WAS'
p1343
sg44
S'23'
p1344
sg46
S'0.2'
p1345
sg48
S'2.2'
p1346
sg50
S'0.3'
p1347
sg52
S'7.9'
p1348
sg54
S'2.8'
p1349
sg56
S'2013-14'
p1350
sg58
S'3.5'
p1351
sg60
S'2.8'
p1352
sg62
S'.277'
p1353
sg64
S'215'
p1354
sg66
g129
sba(isrc.gp1.models.Per36Minutes
Per36Minutes
p1355
(dp1356
g8
S'0.6'
p1357
sg10
S'3.9'
p1358
sg12
S'.379'
p1359
sg14
S'3.9'
p1360
sg16
S'.333'
p1361
sg18
S'1.3'
p1362
sg20
S'9.6'
p1363
sg22
S'PG'
p1364
sg24
S'.500'
p1365
sg28
S'NBA'
p1366
sg30
S'1.3'
p1367
sg32
S'9.3'
p1368
sg34
S'1.3'
p1369
sg36
S'2.6'
p1370
sg38
S'4.8'
p1371
sg40
S'26'
p1372
sg42
S'PHI'
p1373
sg44
g119
sg46
S'0.6'
p1374
sg48
S'2.3'
p1375
sg50
S'1.3'
p1376
sg52
S'5.5'
p1377
sg54
S'4.2'
p1378
sg56
S'2013-14'
p1379
sg58
S'3.5'
p1380
sg60
S'3.9'
p1381
sg62
S'.412'
p1382
sg64
S'112'
p1383
sg66
g129
sbasS'_fromYear'
p1384
S'2010'
p1385
sS'_url'
p1386
S'http://www.basketball-reference.com/players/m/maynoer01.html'
p1387
sS'_perGame'
p1388
(isrc.gp1.models.PerGame
PerGame
p1389
(dp1390
g8
S'0.3'
p1391
sg10
S'1.5'
p1392
sg12
S'.379'
p1393
sS'_effectiveFieldGalPercentage'
p1394
S'.448'
p1395
sg14
S'1.5'
p1396
sg16
S'.333'
p1397
sg18
S'0.5'
p1398
sg20
S'3.8'
p1399
sg22
S'PG'
p1400
sg24
S'.500'
p1401
sg28
S'NBA'
p1402
sg30
S'0.5'
p1403
sg34
S'0.5'
p1404
sS'_fieldGoalsttempted'
p1405
S'3.6'
p1406
sg36
S'1.0'
p1407
sg38
S'1.9'
p1408
sg40
S'26'
p1409
sg42
S'PHI'
p1410
sg44
g119
sg46
S'0.3'
p1411
sg48
S'0.9'
p1412
sg50
S'0.5'
p1413
sg52
S'2.1'
p1414
sg54
S'1.6'
p1415
sg56
S'2013-14'
p1416
sg58
S'1.4'
p1417
sg60
S'1.5'
p1418
sg62
S'.412'
p1419
sg64
S'14.0'
p1420
sg66
g129
sbsS'_weight'
p1421
S'175'
p1422
sS'_dob'
p1423
S'11-6-1987'
p1424
sS'_salary'
p1425
(lp1426
(isrc.gp1.models.Salary
Salary
p1427
(dp1428
g42
S'Oklahoma City Thunder'
p1429
sg28
S'NBA'
p1430
sg1425
S'$1,318,920'
p1431
sg56
S'2009-10'
p1432
sba(isrc.gp1.models.Salary
Salary
p1433
(dp1434
g42
S'Oklahoma City Thunder'
p1435
sg28
S'NBA'
p1436
sg1425
S'$1,417,800'
p1437
sg56
S'2010-11'
p1438
sba(isrc.gp1.models.Salary
Salary
p1439
(dp1440
g42
S'Oklahoma City Thunder'
p1441
sg28
S'NBA'
p1442
sg1425
S'$1,516,680'
p1443
sg56
S'2011-12'
p1444
sba(isrc.gp1.models.Salary
Salary
p1445
(dp1446
g42
S'Portland Trail Blazers'
p1447
sg28
S'NBA'
p1448
sg1425
S'$2,338,721'
p1449
sg56
S'2012-13'
p1450
sba(isrc.gp1.models.Salary
Salary
p1451
(dp1452
g42
S'Washington Wizards'
p1453
sg28
S'NBA'
p1454
sg1425
S'$2,016,000'
p1455
sg56
S'2013-14'
p1456
sba(isrc.gp1.models.Salary
Salary
p1457
(dp1458
g42
S'Philadelphia 76ers'
p1459
sg28
S'NBA'
p1460
sg1425
S'$2,106,720'
p1461
sg56
S'2014-15'
p1462
sbasg22
S'G'
p1463
sb.