(isrc.gp1.models.Player
Player
p0
(dp1
S'_experience'
p2
S'NA'
p3
sS'_totals'
p4
(lp5
(isrc.gp1.models.Totals
Totals
p6
(dp7
S'_offensiveRebounds'
p8
g3
sS'_threePointsAttempted'
p9
g3
sS'_fieldGoalsPercentage'
p10
S'.300'
p11
sS'_assist'
p12
S'29'
p13
sS'_threePointsPercentage'
p14
g3
sS'_threePoints'
p15
g3
sS'_points'
p16
S'98'
p17
sS'_position'
p18
g3
sS'_freeThrowsPercentage'
p19
S'.711'
p20
sS'_effectiveFieldGoalPercentage'
p21
S'.300'
p22
sS'_league'
p23
S'NBA'
p24
sS'_steals'
p25
g3
sS'_fieldGoalsAttempted'
p26
S'110'
p27
sS'_personalFouls'
p28
S'34'
p29
sS'_freeThrowsAttempted'
p30
S'45'
p31
sS'_totalRebounds'
p32
g3
sS'_age'
p33
S'26'
p34
sS'_team'
p35
S'SHE'
p36
sS'_games'
p37
S'26'
p38
sS'_blocks'
p39
g3
sS'_twoPoints'
p40
S'33'
p41
sS'_freeThrows'
p42
S'32'
p43
sS'_twoPointsAttempted'
p44
S'110'
p45
sS'_defensiveRebounds'
p46
g3
sS'_season'
p47
S'1949-50'
p48
sS'_fieldGoals'
p49
S'33'
p50
sS'_turnOvers'
p51
g3
sS'_twoPointsPercentage'
p52
S'.300'
p53
sS'_minutesPlayed'
p54
g3
sS'_gamesStarted'
p55
g3
sbasS'_college'
p56
S'Michigan State University'
p57
sS'_toYear'
p58
S'1950'
p59
sS'_height'
p60
S'6-3'
p61
sS'_active'
p62
I00
sS'_shootingHand'
p63
VRight
p64
sS'_name'
p65
S'Matt Mazza'
p66
sS'_per100Possessions'
p67
(lp68
sS'_advanced'
p69
(lp70
(isrc.gp1.models.Advanced
Advanced
p71
(dp72
S'_offensiveReboundPercentage'
p73
g3
sS'_turnOverPercentage'
p74
g3
sS'_winSharesPer48Minutes'
p75
g3
sS'_stealPercentage'
p76
g3
sS'_usagePercentage'
p77
g3
sS'_totalReboundsPercentage'
p78
g3
sS'_defensiveBoxPlusMinus'
p79
g3
sg18
g3
sS'_valueOverReplacementPlayer'
p80
g3
sS'_trueShootingPercentage'
p81
S'.378'
p82
sS'_defensiveReboundPercentage'
p83
g3
sS'_freeThrowsAttempRate'
p84
S'.409'
p85
sS'_threePointsAttempRate'
p86
g3
sg23
S'NBA'
p87
sS'_offensiveBoxPlusMinues'
p88
g3
sS'_assistPercentage'
p89
g3
sS'_defensiveWinShares'
p90
S'-0.1'
p91
sg33
S'26'
p92
sg35
S'SHE'
p93
sg37
S'26'
p94
sS'_blockPercentage'
p95
g3
sS'_playerEfficiencyRating'
p96
g3
sS'_offensiveWinShares'
p97
S'0.0'
p98
sg54
g3
sS'_boxPlusMinus'
p99
g3
sg47
S'1949-50'
p100
sS'_winShares'
p101
S'0.0'
p102
sbasS'_per36Minutes'
p103
(lp104
(isrc.gp1.models.Per36Minutes
Per36Minutes
p105
(dp106
g8
g3
sg9
g3
sg10
S'.300'
p107
sg12
g3
sg14
g3
sg15
g3
sg16
g3
sg18
g3
sg19
S'.711'
p108
sg23
S'NBA'
p109
sg25
g3
sg26
g3
sg28
g3
sg30
g3
sg32
g3
sg33
S'26'
p110
sg35
S'SHE'
p111
sg37
S'26'
p112
sg39
g3
sg40
g3
sg42
g3
sg44
g3
sg46
g3
sg47
S'1949-50'
p113
sg49
g3
sg51
g3
sg52
S'.300'
p114
sg54
g3
sg55
g3
sbasS'_fromYear'
p115
S'1950'
p116
sS'_url'
p117
S'http://www.basketball-reference.com/players/m/mazzama01.html'
p118
sS'_perGame'
p119
(isrc.gp1.models.PerGame
PerGame
p120
(dp121
g8
g3
sg9
g3
sg10
S'.300'
p122
sS'_effectiveFieldGalPercentage'
p123
S'.300'
p124
sg12
S'1.1'
p125
sg14
g3
sg15
g3
sg16
S'3.8'
p126
sg18
g3
sg19
S'.711'
p127
sg23
S'NBA'
p128
sg25
g3
sg28
S'1.3'
p129
sS'_fieldGoalsttempted'
p130
S'4.2'
p131
sg30
S'1.7'
p132
sg32
g3
sg33
S'26'
p133
sg35
S'SHE'
p134
sg37
S'26'
p135
sg39
g3
sg40
S'1.3'
p136
sg42
S'1.2'
p137
sg44
S'4.2'
p138
sg46
g3
sg47
S'1949-50'
p139
sg49
S'1.3'
p140
sg51
g3
sg52
S'.300'
p141
sg54
g3
sg55
g3
sbsS'_weight'
p142
S'210'
p143
sS'_dob'
p144
S'23-9-1923'
p145
sS'_salary'
p146
(lp147
sg18
S'F'
p148
sb.