(isrc.gp1.models.Player
Player
p0
(dp1
S'_experience'
p2
S'NA'
p3
sS'_totals'
p4
(lp5
(isrc.gp1.models.Totals
Totals
p6
(dp7
S'_offensiveRebounds'
p8
g3
sS'_threePointsAttempted'
p9
g3
sS'_fieldGoalsPercentage'
p10
S'.220'
p11
sS'_assist'
p12
S'54'
p13
sS'_threePointsPercentage'
p14
g3
sS'_threePoints'
p15
g3
sS'_points'
p16
S'69'
p17
sS'_position'
p18
S'PG'
p19
sS'_freeThrowsPercentage'
p20
S'.676'
p21
sS'_effectiveFieldGoalPercentage'
p22
S'.220'
p23
sS'_league'
p24
S'NBA'
p25
sS'_steals'
p26
g3
sS'_fieldGoalsAttempted'
p27
S'100'
p28
sS'_personalFouls'
p29
S'34'
p30
sS'_freeThrowsAttempted'
p31
S'37'
p32
sS'_totalRebounds'
p33
S'45'
p34
sS'_age'
p35
S'22'
p36
sS'_team'
p37
S'NYK'
p38
sS'_games'
p39
S'36'
p40
sS'_blocks'
p41
g3
sS'_twoPoints'
p42
S'22'
p43
sS'_freeThrows'
p44
S'25'
p45
sS'_twoPointsAttempted'
p46
S'100'
p47
sS'_defensiveRebounds'
p48
g3
sS'_season'
p49
S'1957-58'
p50
sS'_fieldGoals'
p51
S'22'
p52
sS'_turnOvers'
p53
g3
sS'_twoPointsPercentage'
p54
S'.220'
p55
sS'_minutesPlayed'
p56
S'295'
p57
sS'_gamesStarted'
p58
g3
sba(isrc.gp1.models.Totals
Totals
p59
(dp60
g8
g3
sg9
g3
sg10
S'.000'
p61
sg12
S'1'
p62
sg14
g3
sg15
g3
sg16
S'0'
p63
sg18
S'PG'
p64
sg20
g3
sg22
S'.000'
p65
sg24
S'NBA'
p66
sg26
g3
sg27
S'3'
p67
sg29
g62
sg31
g63
sg33
g62
sg35
S'23'
p68
sg37
S'NYK'
p69
sg39
g62
sg41
g3
sg42
g63
sg44
g63
sg46
g67
sg48
g3
sg49
S'1958-59'
p70
sg51
g63
sg53
g3
sg54
S'.000'
p71
sg56
S'7'
p72
sg58
g3
sba(isrc.gp1.models.Totals
Totals
p73
(dp74
g8
g3
sg9
g3
sg10
S'.100'
p75
sg12
S'10'
p76
sg14
g3
sg15
g3
sg16
S'5'
p77
sg18
S'PG'
p78
sg20
S'1.000'
p79
sg22
S'.100'
p80
sg24
S'NBA'
p81
sg26
g3
sg27
S'10'
p82
sg29
S'2'
p83
sg31
g67
sg33
S'4'
p84
sg35
S'24'
p85
sg37
S'NYK'
p86
sg39
g84
sg41
g3
sg42
g62
sg44
g67
sg46
S'10'
p87
sg48
g3
sg49
S'1959-60'
p88
sg51
g62
sg53
g3
sg54
S'.100'
p89
sg56
S'29'
p90
sg58
g3
sbasS'_college'
p91
S'St. Bonaventure University'
p92
sS'_toYear'
p93
S'1960'
p94
sS'_height'
p95
S'6-2'
p96
sS'_active'
p97
I00
sS'_shootingHand'
p98
VRight
p99
sS'_name'
p100
S'Brendan McCann'
p101
sS'_per100Possessions'
p102
(lp103
sS'_advanced'
p104
(lp105
(isrc.gp1.models.Advanced
Advanced
p106
(dp107
S'_offensiveReboundPercentage'
p108
g3
sS'_turnOverPercentage'
p109
g3
sS'_winSharesPer48Minutes'
p110
S'-0.071'
p111
sS'_stealPercentage'
p112
g3
sS'_usagePercentage'
p113
g3
sS'_totalReboundsPercentage'
p114
g3
sS'_defensiveBoxPlusMinus'
p115
g3
sg18
S'PG'
p116
sS'_valueOverReplacementPlayer'
p117
g3
sS'_trueShootingPercentage'
p118
S'.297'
p119
sS'_defensiveReboundPercentage'
p120
g3
sS'_freeThrowsAttempRate'
p121
S'.370'
p122
sS'_threePointsAttempRate'
p123
g3
sg24
S'NBA'
p124
sS'_offensiveBoxPlusMinues'
p125
g3
sS'_assistPercentage'
p126
g3
sS'_defensiveWinShares'
p127
S'0.2'
p128
sg35
S'22'
p129
sg37
S'NYK'
p130
sg39
S'36'
p131
sS'_blockPercentage'
p132
g3
sS'_playerEfficiencyRating'
p133
S'6.6'
p134
sS'_offensiveWinShares'
p135
S'-0.7'
p136
sg56
S'295'
p137
sS'_boxPlusMinus'
p138
g3
sg49
S'1957-58'
p139
sS'_winShares'
p140
S'-0.4'
p141
sba(isrc.gp1.models.Advanced
Advanced
p142
(dp143
g108
g3
sg109
g3
sg110
S'-0.447'
p144
sg112
g3
sg113
g3
sg114
g3
sg115
g3
sg18
S'PG'
p145
sg117
g3
sg118
S'.000'
p146
sg120
g3
sg121
S'.000'
p147
sg123
g3
sg24
S'NBA'
p148
sg125
g3
sg126
g3
sg127
S'0.0'
p149
sg35
S'23'
p150
sg37
S'NYK'
p151
sg39
g62
sg132
g3
sg133
S'-9.9'
p152
sg135
S'-0.1'
p153
sg56
g72
sg138
g3
sg49
S'1958-59'
p154
sg140
S'-0.1'
p155
sba(isrc.gp1.models.Advanced
Advanced
p156
(dp157
g108
g3
sg109
g3
sg110
S'-0.141'
p158
sg112
g3
sg113
g3
sg114
g3
sg115
g3
sg18
S'PG'
p159
sg117
g3
sg118
S'.221'
p160
sg120
g3
sg121
S'.300'
p161
sg123
g3
sg24
S'NBA'
p162
sg125
g3
sg126
g3
sg127
S'0.0'
p163
sg35
S'24'
p164
sg37
S'NYK'
p165
sg39
g84
sg132
g3
sg133
S'8.3'
p166
sg135
S'-0.1'
p167
sg56
S'29'
p168
sg138
g3
sg49
S'1959-60'
p169
sg140
S'-0.1'
p170
sbasS'_per36Minutes'
p171
(lp172
(isrc.gp1.models.Per36Minutes
Per36Minutes
p173
(dp174
g8
g3
sg9
g3
sg10
S'.220'
p175
sg12
S'6.6'
p176
sg14
g3
sg15
g3
sg16
S'8.4'
p177
sg18
S'PG'
p178
sg20
S'.676'
p179
sg24
S'NBA'
p180
sg26
g3
sg27
S'12.2'
p181
sg29
S'4.1'
p182
sg31
S'4.5'
p183
sg33
S'5.5'
p184
sg35
S'22'
p185
sg37
S'NYK'
p186
sg39
S'36'
p187
sg41
g3
sg42
S'2.7'
p188
sg44
S'3.1'
p189
sg46
S'12.2'
p190
sg48
g3
sg49
S'1957-58'
p191
sg51
S'2.7'
p192
sg53
g3
sg54
S'.220'
p193
sg56
S'295'
p194
sg58
g3
sba(isrc.gp1.models.Per36Minutes
Per36Minutes
p195
(dp196
g8
g3
sg9
g3
sg10
S'.000'
p197
sg12
S'5.1'
p198
sg14
g3
sg15
g3
sg16
S'0.0'
p199
sg18
S'PG'
p200
sg20
g3
sg24
S'NBA'
p201
sg26
g3
sg27
S'15.4'
p202
sg29
S'5.1'
p203
sg31
S'0.0'
p204
sg33
S'5.1'
p205
sg35
S'23'
p206
sg37
S'NYK'
p207
sg39
g62
sg41
g3
sg42
S'0.0'
p208
sg44
S'0.0'
p209
sg46
S'15.4'
p210
sg48
g3
sg49
S'1958-59'
p211
sg51
S'0.0'
p212
sg53
g3
sg54
S'.000'
p213
sg56
g72
sg58
g3
sba(isrc.gp1.models.Per36Minutes
Per36Minutes
p214
(dp215
g8
g3
sg9
g3
sg10
S'.100'
p216
sg12
S'12.4'
p217
sg14
g3
sg15
g3
sg16
S'6.2'
p218
sg18
S'PG'
p219
sg20
S'1.000'
p220
sg24
S'NBA'
p221
sg26
g3
sg27
S'12.4'
p222
sg29
S'2.5'
p223
sg31
S'3.7'
p224
sg33
S'5.0'
p225
sg35
S'24'
p226
sg37
S'NYK'
p227
sg39
g84
sg41
g3
sg42
S'1.2'
p228
sg44
S'3.7'
p229
sg46
S'12.4'
p230
sg48
g3
sg49
S'1959-60'
p231
sg51
S'1.2'
p232
sg53
g3
sg54
S'.100'
p233
sg56
S'29'
p234
sg58
g3
sbasS'_fromYear'
p235
S'1958'
p236
sS'_url'
p237
S'http://www.basketball-reference.com/players/m/mccanbr01.html'
p238
sS'_perGame'
p239
(isrc.gp1.models.PerGame
PerGame
p240
(dp241
g8
g3
sg9
g3
sg10
S'.100'
p242
sS'_effectiveFieldGalPercentage'
p243
S'.100'
p244
sg12
S'2.5'
p245
sg14
g3
sg15
g3
sg16
S'1.3'
p246
sg18
S'PG'
p247
sg20
S'1.000'
p248
sg24
S'NBA'
p249
sg26
g3
sg29
S'0.5'
p250
sS'_fieldGoalsttempted'
p251
S'2.5'
p252
sg31
S'0.8'
p253
sg33
S'1.0'
p254
sg35
S'24'
p255
sg37
S'NYK'
p256
sg39
g84
sg41
g3
sg42
S'0.3'
p257
sg44
S'0.8'
p258
sg46
S'2.5'
p259
sg48
g3
sg49
S'1959-60'
p260
sg51
S'0.3'
p261
sg53
g3
sg54
S'.100'
p262
sg56
S'7.3'
p263
sg58
g3
sbsS'_weight'
p264
S'178'
p265
sS'_dob'
p266
S'5-7-1935'
p267
sS'_salary'
p268
(lp269
sg18
S'G'
p270
sb.