(isrc.gp1.models.Player
Player
p0
(dp1
S'_experience'
p2
S'NA'
p3
sS'_totals'
p4
(lp5
(isrc.gp1.models.Totals
Totals
p6
(dp7
S'_offensiveRebounds'
p8
S'290'
p9
sS'_threePointsAttempted'
p10
S'38'
p11
sS'_fieldGoalsPercentage'
p12
S'.465'
p13
sS'_assist'
p14
S'137'
p15
sS'_threePointsPercentage'
p16
S'.158'
p17
sS'_threePoints'
p18
S'6'
p19
sS'_points'
p20
S'1234'
p21
sS'_position'
p22
S'SF'
p23
sS'_freeThrowsPercentage'
p24
S'.645'
p25
sS'_effectiveFieldGoalPercentage'
p26
S'.468'
p27
sS'_league'
p28
S'ABA'
p29
sS'_steals'
p30
g3
sS'_fieldGoalsAttempted'
p31
S'999'
p32
sS'_personalFouls'
p33
S'260'
p34
sS'_freeThrowsAttempted'
p35
S'462'
p36
sS'_totalRebounds'
p37
S'711'
p38
sS'_age'
p39
S'21'
p40
sS'_team'
p41
S'INA'
p42
sS'_games'
p43
S'73'
p44
sS'_blocks'
p45
g3
sS'_twoPoints'
p46
S'459'
p47
sS'_freeThrows'
p48
S'298'
p49
sS'_twoPointsAttempted'
p50
S'961'
p51
sS'_defensiveRebounds'
p52
S'421'
p53
sS'_season'
p54
S'1971-72'
p55
sS'_fieldGoals'
p56
S'465'
p57
sS'_turnOvers'
p58
S'256'
p59
sS'_twoPointsPercentage'
p60
S'.478'
p61
sS'_minutesPlayed'
p62
S'2179'
p63
sS'_gamesStarted'
p64
g3
sba(isrc.gp1.models.Totals
Totals
p65
(dp66
g8
S'434'
p67
sg10
S'32'
p68
sg12
S'.495'
p69
sg14
S'205'
p70
sg16
S'.250'
p71
sg18
S'8'
p72
sg20
S'2261'
p73
sg22
S'PF'
p74
sg24
S'.665'
p75
sg26
S'.497'
p76
sg28
S'ABA'
p77
sg30
S'160'
p78
sg31
S'1755'
p79
sg33
S'348'
p80
sg35
S'778'
p81
sg37
S'1022'
p82
sg39
S'22'
p83
sg41
S'INA'
p84
sg43
S'82'
p85
sg45
g3
sg46
S'860'
p86
sg48
S'517'
p87
sg50
S'1723'
p88
sg52
S'588'
p89
sg54
S'1972-73'
p90
sg56
S'868'
p91
sg58
S'401'
p92
sg60
S'.499'
p93
sg62
S'3347'
p94
sg64
g3
sba(isrc.gp1.models.Totals
Totals
p95
(dp96
g8
S'422'
p97
sg10
S'34'
p98
sg12
S'.468'
p99
sg14
S'267'
p100
sg16
S'.147'
p101
sg18
S'5'
p102
sg20
S'2071'
p103
sg22
S'PF'
p104
sg24
S'.683'
p105
sg26
S'.469'
p106
sg28
S'ABA'
p107
sg30
S'159'
p108
sg31
S'1686'
p109
sg33
S'325'
p110
sg35
S'715'
p111
sg37
S'1197'
p112
sg39
S'23'
p113
sg41
S'INA'
p114
sg43
S'80'
p115
sg45
S'40'
p116
sg46
S'784'
p117
sg48
S'488'
p118
sg50
S'1652'
p119
sg52
S'775'
p120
sg54
S'1973-74'
p121
sg56
S'789'
p122
sg58
S'393'
p123
sg60
S'.475'
p124
sg62
S'3266'
p125
sg64
g3
sba(isrc.gp1.models.Totals
Totals
p126
(dp127
g8
S'396'
p128
sg10
S'175'
p129
sg12
S'.451'
p130
sg14
S'495'
p131
sg16
S'.354'
p132
sg18
S'62'
p133
sg20
S'2353'
p134
sg22
S'PF'
p135
sg24
S'.724'
p136
sg26
S'.467'
p137
sg28
S'ABA'
p138
sg30
S'206'
p139
sg31
S'1934'
p140
sg33
S'303'
p141
sg35
S'753'
p142
sg37
S'1126'
p143
sg39
S'24'
p144
sg41
S'INA'
p145
sg43
S'79'
p146
sg45
S'56'
p147
sg46
S'811'
p148
sg48
S'545'
p149
sg50
S'1759'
p150
sg52
S'730'
p151
sg54
S'1974-75'
p152
sg56
S'873'
p153
sg58
S'422'
p154
sg60
S'.461'
p155
sg62
S'3193'
p156
sg64
g3
sba(isrc.gp1.models.Totals
Totals
p157
(dp158
g8
S'260'
p159
sg10
g3
sg12
S'.417'
p160
sg14
S'359'
p161
sg16
g3
sg18
g3
sg20
S'1769'
p162
sg22
S'PF'
p163
sg24
S'.740'
p164
sg26
S'.417'
p165
sg28
S'NBA'
p166
sg30
S'198'
p167
sg31
S'1552'
p168
sg33
S'334'
p169
sg35
S'642'
p170
sg37
S'967'
p171
sg39
S'25'
p172
sg41
S'PHI'
p173
sg43
S'77'
p174
sg45
S'41'
p175
sg46
S'647'
p176
sg48
S'475'
p177
sg50
S'1552'
p178
sg52
S'707'
p179
sg54
S'1975-76'
p180
sg56
S'647'
p181
sg58
g3
sg60
S'.417'
p182
sg62
S'2946'
p183
sg64
g3
sba(isrc.gp1.models.Totals
Totals
p184
(dp185
g8
S'324'
p186
sg10
g3
sg12
S'.458'
p187
sg14
S'302'
p188
sg16
g3
sg18
g3
sg20
S'1690'
p189
sg22
S'PF'
p190
sg24
S'.681'
p191
sg26
S'.458'
p192
sg28
S'NBA'
p193
sg30
S'163'
p194
sg31
S'1439'
p195
sg33
S'299'
p196
sg35
S'546'
p197
sg37
S'911'
p198
sg39
S'26'
p199
sg41
S'PHI'
p200
sg43
S'79'
p201
sg45
S'37'
p202
sg46
S'659'
p203
sg48
S'372'
p204
sg50
S'1439'
p205
sg52
S'587'
p206
sg54
S'1976-77'
p207
sg56
S'659'
p208
sg58
g3
sg60
S'.458'
p209
sg62
S'2769'
p210
sg64
g3
sba(isrc.gp1.models.Totals
Totals
p211
(dp212
g8
S'282'
p213
sg10
g3
sg12
S'.463'
p214
sg14
S'294'
p215
sg16
g3
sg18
g3
sg20
S'1587'
p216
sg22
S'PF'
p217
sg24
S'.716'
p218
sg26
S'.463'
p219
sg28
S'NBA'
p220
sg30
S'137'
p221
sg31
S'1270'
p222
sg33
S'287'
p223
sg35
S'574'
p224
sg37
S'810'
p225
sg39
S'27'
p226
sg41
S'PHI'
p227
sg43
S'78'
p228
sg45
S'27'
p229
sg46
S'588'
p230
sg48
S'411'
p231
sg50
S'1270'
p232
sg52
S'528'
p233
sg54
S'1977-78'
p234
sg56
S'588'
p235
sg58
S'312'
p236
sg60
S'.463'
p237
sg62
S'2533'
p238
sg64
g3
sba(isrc.gp1.models.Totals
Totals
p239
(dp240
g8
S'256'
p241
sg10
g3
sg12
S'.474'
p242
sg14
S'283'
p243
sg16
g3
sg18
g3
sg20
S'1715'
p244
sg22
S'PF'
p245
sg24
S'.665'
p246
sg26
S'.474'
p247
sg28
S'NBA'
p248
sg30
S'129'
p249
sg31
S'1273'
p250
sg33
S'321'
p251
sg35
S'765'
p252
sg37
S'864'
p253
sg39
S'28'
p254
sg41
S'DEN'
p255
sg43
S'76'
p256
sg45
S'52'
p257
sg46
S'603'
p258
sg48
S'509'
p259
sg50
S'1273'
p260
sg52
S'608'
p261
sg54
S'1978-79'
p262
sg56
S'603'
p263
sg58
S'346'
p264
sg60
S'.474'
p265
sg62
S'2552'
p266
sg64
g3
sba(isrc.gp1.models.Totals
Totals
p267
(dp268
g8
S'222'
p269
sg10
S'15'
p270
sg12
S'.451'
p271
sg14
S'333'
p272
sg16
S'.133'
p273
sg18
S'2'
p274
sg20
S'1072'
p275
sg22
S'PF'
p276
sg24
S'.553'
p277
sg26
S'.453'
p278
sg28
S'NBA'
p279
sg30
S'101'
p280
sg31
S'886'
p281
sg33
S'303'
p282
sg35
S'488'
p283
sg37
S'699'
p284
sg39
S'29'
p285
sg41
S'TOT'
p286
sg43
S'73'
p287
sg45
S'23'
p288
sg46
S'398'
p289
sg48
S'270'
p290
sg50
S'871'
p291
sg52
S'477'
p292
sg54
S'1979-80'
p293
sg56
S'400'
p294
sg58
S'281'
p295
sg60
S'.457'
p296
sg62
S'2208'
p297
sg64
g3
sba(isrc.gp1.models.Totals
Totals
p298
(dp299
g8
S'134'
p300
sg10
S'7'
p301
sg12
S'.459'
p302
sg14
S'221'
p303
sg16
S'.143'
p304
sg18
S'1'
p305
sg20
S'703'
p306
sg22
S'PF'
p307
sg24
S'.541'
p308
sg26
S'.460'
p309
sg28
S'NBA'
p310
sg30
S'69'
p311
sg31
S'584'
p312
sg33
S'187'
p313
sg35
S'307'
p314
sg37
S'462'
p315
sg39
S'29'
p316
sg41
S'DEN'
p317
sg43
S'45'
p318
sg45
S'17'
p319
sg46
S'267'
p320
sg48
S'166'
p321
sg50
S'577'
p322
sg52
S'328'
p323
sg54
S'1979-80'
p324
sg56
S'268'
p325
sg58
S'188'
p326
sg60
S'.463'
p327
sg62
S'1424'
p328
sg64
g3
sba(isrc.gp1.models.Totals
Totals
p329
(dp330
g8
S'88'
p331
sg10
g72
sg12
S'.437'
p332
sg14
S'112'
p333
sg16
S'.125'
p334
sg18
g305
sg20
S'369'
p335
sg22
S'PF'
p336
sg24
S'.575'
p337
sg26
S'.439'
p338
sg28
S'NBA'
p339
sg30
S'32'
p340
sg31
S'302'
p341
sg33
S'116'
p342
sg35
S'181'
p343
sg37
S'237'
p344
sg39
S'29'
p345
sg41
S'IND'
p346
sg43
S'28'
p347
sg45
g19
sg46
S'131'
p348
sg48
S'104'
p349
sg50
S'294'
p350
sg52
S'149'
p351
sg54
S'1979-80'
p352
sg56
S'132'
p353
sg58
S'93'
p354
sg60
S'.446'
p355
sg62
S'784'
p356
sg64
g3
sba(isrc.gp1.models.Totals
Totals
p357
(dp358
g8
S'164'
p359
sg10
g301
sg12
S'.453'
p360
sg14
S'210'
p361
sg16
S'.000'
p362
sg18
S'0'
p363
sg20
S'903'
p364
sg22
S'PF'
p365
sg24
S'.538'
p366
sg26
S'.453'
p367
sg28
S'NBA'
p368
sg30
S'99'
p369
sg31
S'768'
p370
sg33
S'242'
p371
sg35
S'385'
p372
sg37
S'528'
p373
sg39
S'30'
p374
sg41
S'IND'
p375
sg43
S'69'
p376
sg45
S'28'
p377
sg46
S'348'
p378
sg48
S'207'
p379
sg50
S'761'
p380
sg52
S'364'
p381
sg54
S'1980-81'
p382
sg56
S'348'
p383
sg58
S'221'
p384
sg60
S'.457'
p385
sg62
S'1845'
p386
sg64
g3
sba(isrc.gp1.models.Totals
Totals
p387
(dp388
g8
S'93'
p389
sg10
S'3'
p390
sg12
S'.373'
p391
sg14
S'204'
p392
sg16
S'.000'
p393
sg18
g363
sg20
S'354'
p394
sg22
S'PF'
p395
sg24
S'.453'
p396
sg26
S'.373'
p397
sg28
S'NBA'
p398
sg30
S'96'
p399
sg31
S'378'
p400
sg33
S'198'
p401
sg35
S'159'
p402
sg37
S'398'
p403
sg39
S'31'
p404
sg41
S'IND'
p405
sg43
S'76'
p406
sg45
S'28'
p407
sg46
S'141'
p408
sg48
S'72'
p409
sg50
S'375'
p410
sg52
S'305'
p411
sg54
S'1981-82'
p412
sg56
S'141'
p413
sg58
S'131'
p414
sg60
S'.376'
p415
sg62
S'1341'
p416
sg64
S'4'
p417
sbasS'_college'
p418
S'Indiana University'
p419
sS'_toYear'
p420
S'1982'
p421
sS'_height'
p422
S'6-8'
p423
sS'_active'
p424
I00
sS'_shootingHand'
p425
VRight
p426
sS'_name'
p427
S'George McGinnis'
p428
sS'_per100Possessions'
p429
(lp430
(isrc.gp1.models.Per100Possession
Per100Possession
p431
(dp432
g8
S'6.0'
p433
sg10
S'0.5'
p434
sg12
S'.468'
p435
sS'_offensiveRating'
p436
S'102'
p437
sg14
S'3.8'
p438
sg16
S'.147'
p439
sg18
S'0.1'
p440
sg20
S'29.5'
p441
sg22
S'PF'
p442
sS'_defensiveRating'
p443
S'97'
p444
sg24
S'.683'
p445
sg28
S'ABA'
p446
sg30
S'2.3'
p447
sg31
S'24.1'
p448
sg33
S'4.6'
p449
sg35
S'10.2'
p450
sg37
S'17.1'
p451
sg39
S'23'
p452
sg41
S'INA'
p453
sg43
S'80'
p454
sg45
S'0.6'
p455
sg46
S'11.2'
p456
sg48
S'7.0'
p457
sg50
S'23.6'
p458
sg52
S'11.1'
p459
sg54
S'1973-74'
p460
sg56
S'11.3'
p461
sg58
S'5.6'
p462
sg60
S'.475'
p463
sg62
S'3266'
p464
sg64
g3
sba(isrc.gp1.models.Per100Possession
Per100Possession
p465
(dp466
g8
S'5.7'
p467
sg10
S'2.5'
p468
sg12
S'.451'
p469
sg436
S'107'
p470
sg14
S'7.1'
p471
sg16
S'.354'
p472
sg18
S'0.9'
p473
sg20
S'33.7'
p474
sg22
S'PF'
p475
sg443
S'100'
p476
sg24
S'.724'
p477
sg28
S'ABA'
p478
sg30
S'2.9'
p479
sg31
S'27.7'
p480
sg33
S'4.3'
p481
sg35
S'10.8'
p482
sg37
S'16.1'
p483
sg39
S'24'
p484
sg41
S'INA'
p485
sg43
S'79'
p486
sg45
S'0.8'
p487
sg46
S'11.6'
p488
sg48
S'7.8'
p489
sg50
S'25.2'
p490
sg52
S'10.4'
p491
sg54
S'1974-75'
p492
sg56
S'12.5'
p493
sg58
S'6.0'
p494
sg60
S'.461'
p495
sg62
S'3193'
p496
sg64
g3
sba(isrc.gp1.models.Per100Possession
Per100Possession
p497
(dp498
g8
S'3.9'
p499
sg10
g3
sg12
S'.417'
p500
sg436
g3
sg14
S'5.4'
p501
sg16
g3
sg18
g3
sg20
S'26.8'
p502
sg22
S'PF'
p503
sg443
S'92'
p504
sg24
S'.740'
p505
sg28
S'NBA'
p506
sg30
S'3.0'
p507
sg31
S'23.5'
p508
sg33
S'5.1'
p509
sg35
S'9.7'
p510
sg37
S'14.7'
p511
sg39
S'25'
p512
sg41
S'PHI'
p513
sg43
S'77'
p514
sg45
S'0.6'
p515
sg46
S'9.8'
p516
sg48
S'7.2'
p517
sg50
S'23.5'
p518
sg52
S'10.7'
p519
sg54
S'1975-76'
p520
sg56
S'9.8'
p521
sg58
g3
sg60
S'.417'
p522
sg62
S'2946'
p523
sg64
g3
sba(isrc.gp1.models.Per100Possession
Per100Possession
p524
(dp525
g8
S'5.2'
p526
sg10
g3
sg12
S'.458'
p527
sg436
g3
sg14
S'4.8'
p528
sg16
g3
sg18
g3
sg20
S'27.0'
p529
sg22
S'PF'
p530
sg443
S'94'
p531
sg24
S'.681'
p532
sg28
S'NBA'
p533
sg30
S'2.6'
p534
sg31
S'23.0'
p535
sg33
S'4.8'
p536
sg35
S'8.7'
p537
sg37
S'14.6'
p538
sg39
S'26'
p539
sg41
S'PHI'
p540
sg43
S'79'
p541
sg45
S'0.6'
p542
sg46
S'10.5'
p543
sg48
S'6.0'
p544
sg50
S'23.0'
p545
sg52
S'9.4'
p546
sg54
S'1976-77'
p547
sg56
S'10.5'
p548
sg58
g3
sg60
S'.458'
p549
sg62
S'2769'
p550
sg64
g3
sba(isrc.gp1.models.Per100Possession
Per100Possession
p551
(dp552
g8
S'4.9'
p553
sg10
g3
sg12
S'.463'
p554
sg436
S'102'
p555
sg14
S'5.1'
p556
sg16
g3
sg18
g3
sg20
S'27.7'
p557
sg22
S'PF'
p558
sg443
S'97'
p559
sg24
S'.716'
p560
sg28
S'NBA'
p561
sg30
S'2.4'
p562
sg31
S'22.2'
p563
sg33
S'5.0'
p564
sg35
S'10.0'
p565
sg37
S'14.2'
p566
sg39
S'27'
p567
sg41
S'PHI'
p568
sg43
S'78'
p569
sg45
S'0.5'
p570
sg46
S'10.3'
p571
sg48
S'7.2'
p572
sg50
S'22.2'
p573
sg52
S'9.2'
p574
sg54
S'1977-78'
p575
sg56
S'10.3'
p576
sg58
S'5.5'
p577
sg60
S'.463'
p578
sg62
S'2533'
p579
sg64
g3
sba(isrc.gp1.models.Per100Possession
Per100Possession
p580
(dp581
g8
S'4.5'
p582
sg10
g3
sg12
S'.474'
p583
sg436
S'101'
p584
sg14
S'5.0'
p585
sg16
g3
sg18
g3
sg20
S'30.5'
p586
sg22
S'PF'
p587
sg443
S'98'
p588
sg24
S'.665'
p589
sg28
S'NBA'
p590
sg30
S'2.3'
p591
sg31
S'22.6'
p592
sg33
S'5.7'
p593
sg35
S'13.6'
p594
sg37
S'15.3'
p595
sg39
S'28'
p596
sg41
S'DEN'
p597
sg43
S'76'
p598
sg45
S'0.9'
p599
sg46
S'10.7'
p600
sg48
S'9.0'
p601
sg50
S'22.6'
p602
sg52
S'10.8'
p603
sg54
S'1978-79'
p604
sg56
S'10.7'
p605
sg58
S'6.1'
p606
sg60
S'.474'
p607
sg62
S'2552'
p608
sg64
g3
sba(isrc.gp1.models.Per100Possession
Per100Possession
p609
(dp610
g8
S'4.6'
p611
sg10
S'0.3'
p612
sg12
S'.451'
p613
sg436
S'95'
p614
sg14
S'7.0'
p615
sg16
S'.133'
p616
sg18
S'0.0'
p617
sg20
S'22.4'
p618
sg22
S'PF'
p619
sg443
S'104'
p620
sg24
S'.553'
p621
sg28
S'NBA'
p622
sg30
S'2.1'
p623
sg31
S'18.5'
p624
sg33
S'6.3'
p625
sg35
S'10.2'
p626
sg37
S'14.6'
p627
sg39
S'29'
p628
sg41
S'TOT'
p629
sg43
S'73'
p630
sg45
S'0.5'
p631
sg46
S'8.3'
p632
sg48
S'5.6'
p633
sg50
S'18.2'
p634
sg52
S'10.0'
p635
sg54
S'1979-80'
p636
sg56
S'8.4'
p637
sg58
S'5.9'
p638
sg60
S'.457'
p639
sg62
S'2208'
p640
sg64
g3
sba(isrc.gp1.models.Per100Possession
Per100Possession
p641
(dp642
g8
S'4.3'
p643
sg10
S'0.2'
p644
sg12
S'.459'
p645
sg436
S'94'
p646
sg14
S'7.2'
p647
sg16
S'.143'
p648
sg18
S'0.0'
p649
sg20
S'22.8'
p650
sg22
S'PF'
p651
sg443
S'104'
p652
sg24
S'.541'
p653
sg28
S'NBA'
p654
sg30
S'2.2'
p655
sg31
S'18.9'
p656
sg33
S'6.1'
p657
sg35
S'10.0'
p658
sg37
S'15.0'
p659
sg39
S'29'
p660
sg41
S'DEN'
p661
sg43
S'45'
p662
sg45
S'0.6'
p663
sg46
S'8.7'
p664
sg48
S'5.4'
p665
sg50
S'18.7'
p666
sg52
S'10.6'
p667
sg54
S'1979-80'
p668
sg56
S'8.7'
p669
sg58
S'6.1'
p670
sg60
S'.463'
p671
sg62
S'1424'
p672
sg64
g3
sba(isrc.gp1.models.Per100Possession
Per100Possession
p673
(dp674
g8
S'5.2'
p675
sg10
S'0.5'
p676
sg12
S'.437'
p677
sg436
S'97'
p678
sg14
S'6.6'
p679
sg16
S'.125'
p680
sg18
S'0.1'
p681
sg20
S'21.6'
p682
sg22
S'PF'
p683
sg443
S'104'
p684
sg24
S'.575'
p685
sg28
S'NBA'
p686
sg30
S'1.9'
p687
sg31
S'17.7'
p688
sg33
S'6.8'
p689
sg35
S'10.6'
p690
sg37
S'13.9'
p691
sg39
S'29'
p692
sg41
S'IND'
p693
sg43
S'28'
p694
sg45
S'0.4'
p695
sg46
S'7.7'
p696
sg48
S'6.1'
p697
sg50
S'17.2'
p698
sg52
S'8.7'
p699
sg54
S'1979-80'
p700
sg56
S'7.7'
p701
sg58
S'5.5'
p702
sg60
S'.446'
p703
sg62
S'784'
p704
sg64
g3
sba(isrc.gp1.models.Per100Possession
Per100Possession
p705
(dp706
g8
S'4.2'
p707
sg10
S'0.2'
p708
sg12
S'.453'
p709
sg436
S'93'
p710
sg14
S'5.4'
p711
sg16
S'.000'
p712
sg18
S'0.0'
p713
sg20
S'23.3'
p714
sg22
S'PF'
p715
sg443
S'101'
p716
sg24
S'.538'
p717
sg28
S'NBA'
p718
sg30
S'2.6'
p719
sg31
S'19.8'
p720
sg33
S'6.2'
p721
sg35
S'9.9'
p722
sg37
S'13.6'
p723
sg39
S'30'
p724
sg41
S'IND'
p725
sg43
S'69'
p726
sg45
S'0.7'
p727
sg46
S'9.0'
p728
sg48
S'5.3'
p729
sg50
S'19.6'
p730
sg52
S'9.4'
p731
sg54
S'1980-81'
p732
sg56
S'9.0'
p733
sg58
S'5.7'
p734
sg60
S'.457'
p735
sg62
S'1845'
p736
sg64
g3
sba(isrc.gp1.models.Per100Possession
Per100Possession
p737
(dp738
g8
S'3.4'
p739
sg10
S'0.1'
p740
sg12
S'.373'
p741
sg436
S'83'
p742
sg14
S'7.4'
p743
sg16
S'.000'
p744
sg18
S'0.0'
p745
sg20
S'12.8'
p746
sg22
S'PF'
p747
sg443
S'98'
p748
sg24
S'.453'
p749
sg28
S'NBA'
p750
sg30
S'3.5'
p751
sg31
S'13.7'
p752
sg33
S'7.2'
p753
sg35
S'5.8'
p754
sg37
S'14.4'
p755
sg39
S'31'
p756
sg41
S'IND'
p757
sg43
S'76'
p758
sg45
S'1.0'
p759
sg46
S'5.1'
p760
sg48
S'2.6'
p761
sg50
S'13.6'
p762
sg52
S'11.1'
p763
sg54
S'1981-82'
p764
sg56
S'5.1'
p765
sg58
S'4.7'
p766
sg60
S'.376'
p767
sg62
S'1341'
p768
sg64
g417
sbasS'_advanced'
p769
(lp770
(isrc.gp1.models.Advanced
Advanced
p771
(dp772
S'_offensiveReboundPercentage'
p773
S'12.6'
p774
sS'_turnOverPercentage'
p775
S'17.6'
p776
sS'_winSharesPer48Minutes'
p777
S'.118'
p778
sS'_stealPercentage'
p779
g3
sS'_usagePercentage'
p780
S'25.9'
p781
sS'_totalReboundsPercentage'
p782
S'14.9'
p783
sS'_defensiveBoxPlusMinus'
p784
g3
sg22
S'SF'
p785
sS'_valueOverReplacementPlayer'
p786
g3
sS'_trueShootingPercentage'
p787
S'.513'
p788
sS'_defensiveReboundPercentage'
p789
S'17.0'
p790
sS'_freeThrowsAttempRate'
p791
S'.462'
p792
sS'_threePointsAttempRate'
p793
S'.038'
p794
sg28
S'ABA'
p795
sS'_offensiveBoxPlusMinues'
p796
g3
sS'_assistPercentage'
p797
S'9.4'
p798
sS'_defensiveWinShares'
p799
S'3.0'
p800
sg39
S'21'
p801
sg41
S'INA'
p802
sg43
S'73'
p803
sS'_blockPercentage'
p804
g3
sS'_playerEfficiencyRating'
p805
S'17.4'
p806
sS'_offensiveWinShares'
p807
S'2.4'
p808
sg62
S'2179'
p809
sS'_boxPlusMinus'
p810
g3
sg54
S'1971-72'
p811
sS'_winShares'
p812
S'5.3'
p813
sba(isrc.gp1.models.Advanced
Advanced
p814
(dp815
g773
S'12.3'
p816
sg775
S'16.1'
p817
sg777
S'.164'
p818
sg779
S'2.2'
p819
sg780
S'28.1'
p820
sg782
S'14.0'
p821
sg784
g3
sg22
S'PF'
p822
sg786
g3
sg787
S'.539'
p823
sg789
S'15.6'
p824
sg791
S'.443'
p825
sg793
S'.018'
p826
sg28
S'ABA'
p827
sg796
g3
sg797
S'9.5'
p828
sg799
S'5.2'
p829
sg39
S'22'
p830
sg41
S'INA'
p831
sg43
S'82'
p832
sg804
g3
sg805
S'22.7'
p833
sg807
S'6.2'
p834
sg62
S'3347'
p835
sg810
g3
sg54
S'1972-73'
p836
sg812
S'11.4'
p837
sba(isrc.gp1.models.Advanced
Advanced
p838
(dp839
g773
S'12.3'
p840
sg775
S'16.4'
p841
sg777
S'.148'
p842
sg779
S'2.3'
p843
sg780
S'28.6'
p844
sg782
S'17.3'
p845
sg784
S'1.6'
p846
sg22
S'PF'
p847
sg786
S'4.8'
p848
sg787
S'.518'
p849
sg789
S'22.1'
p850
sg791
S'.424'
p851
sg793
S'.020'
p852
sg28
S'ABA'
p853
sg796
S'2.2'
p854
sg797
S'13.0'
p855
sg799
S'6.0'
p856
sg39
S'23'
p857
sg41
S'INA'
p858
sg43
S'80'
p859
sg804
S'0.6'
p860
sg805
S'21.5'
p861
sg807
S'4.0'
p862
sg62
S'3266'
p863
sg810
S'3.8'
p864
sg54
S'1973-74'
p865
sg812
S'10.1'
p866
sba(isrc.gp1.models.Advanced
Advanced
p867
(dp868
g773
S'11.4'
p869
sg775
S'15.7'
p870
sg777
S'.174'
p871
sg779
S'2.9'
p872
sg780
S'31.7'
p873
sg782
S'16.9'
p874
sg784
S'1.9'
p875
sg22
S'PF'
p876
sg786
S'7.0'
p877
sg787
S'.519'
p878
sg789
S'23.1'
p879
sg791
S'.389'
p880
sg793
S'.090'
p881
sg28
S'ABA'
p882
sg796
S'4.8'
p883
sg797
S'22.6'
p884
sg799
S'5.0'
p885
sg39
S'24'
p886
sg41
S'INA'
p887
sg43
S'79'
p888
sg804
S'0.9'
p889
sg805
S'25.1'
p890
sg807
S'6.6'
p891
sg62
S'3193'
p892
sg810
S'6.7'
p893
sg54
S'1974-75'
p894
sg812
S'11.6'
p895
sba(isrc.gp1.models.Advanced
Advanced
p896
(dp897
g773
S'8.5'
p898
sg775
g3
sg777
S'.139'
p899
sg779
S'3.0'
p900
sg780
g3
sg782
S'15.9'
p901
sg784
S'2.0'
p902
sg22
S'PF'
p903
sg786
S'5.5'
p904
sg787
S'.482'
p905
sg789
S'23.1'
p906
sg791
S'.414'
p907
sg793
g3
sg28
S'NBA'
p908
sg796
S'3.4'
p909
sg797
S'18.7'
p910
sg799
S'5.5'
p911
sg39
S'25'
p912
sg41
S'PHI'
p913
sg43
S'77'
p914
sg804
S'0.7'
p915
sg805
S'21.3'
p916
sg807
S'3.1'
p917
sg62
S'2946'
p918
sg810
S'5.4'
p919
sg54
S'1975-76'
p920
sg812
S'8.5'
p921
sba(isrc.gp1.models.Advanced
Advanced
p922
(dp923
g773
S'12.4'
p924
sg775
g3
sg777
S'.149'
p925
sg779
S'2.6'
p926
sg780
g3
sg782
S'16.5'
p927
sg784
S'1.2'
p928
sg22
S'PF'
p929
sg786
S'4.5'
p930
sg787
S'.503'
p931
sg789
S'20.1'
p932
sg791
S'.379'
p933
sg793
g3
sg28
S'NBA'
p934
sg796
S'3.2'
p935
sg797
S'16.8'
p936
sg799
S'4.9'
p937
sg39
S'26'
p938
sg41
S'PHI'
p939
sg43
S'79'
p940
sg804
S'0.7'
p941
sg805
S'20.8'
p942
sg807
S'3.7'
p943
sg62
S'2769'
p944
sg810
S'4.5'
p945
sg54
S'1976-77'
p946
sg812
S'8.6'
p947
sba(isrc.gp1.models.Advanced
Advanced
p948
(dp949
g773
S'11.7'
p950
sg775
S'17.0'
p951
sg777
S'.150'
p952
sg779
S'2.4'
p953
sg780
S'27.4'
p954
sg782
S'16.2'
p955
sg784
S'0.9'
p956
sg22
S'PF'
p957
sg786
S'3.4'
p958
sg787
S'.521'
p959
sg789
S'20.4'
p960
sg791
S'.452'
p961
sg793
g3
sg28
S'NBA'
p962
sg796
S'2.4'
p963
sg797
S'17.0'
p964
sg799
S'3.8'
p965
sg39
S'27'
p966
sg41
S'PHI'
p967
sg43
S'78'
p968
sg804
S'0.5'
p969
sg805
S'20.3'
p970
sg807
S'4.1'
p971
sg62
S'2533'
p972
sg810
S'3.3'
p973
sg54
S'1977-78'
p974
sg812
S'7.9'
p975
sba(isrc.gp1.models.Advanced
Advanced
p976
(dp977
g773
S'10.6'
p978
sg775
S'17.7'
p979
sg777
S'.134'
p980
sg779
S'2.3'
p981
sg780
S'29.5'
p982
sg782
S'17.7'
p983
sg784
S'1.4'
p984
sg22
S'PF'
p985
sg786
S'3.2'
p986
sg787
S'.533'
p987
sg789
S'24.6'
p988
sg791
S'.601'
p989
sg793
g3
sg28
S'NBA'
p990
sg796
S'1.5'
p991
sg797
S'16.9'
p992
sg799
S'4.4'
p993
sg39
S'28'
p994
sg41
S'DEN'
p995
sg43
S'76'
p996
sg804
S'1.1'
p997
sg805
S'20.6'
p998
sg807
S'2.8'
p999
sg62
S'2552'
p1000
sg810
S'2.9'
p1001
sg54
S'1978-79'
p1002
sg812
S'7.1'
p1003
sba(isrc.gp1.models.Advanced
Advanced
p1004
(dp1005
g773
S'10.2'
p1006
sg775
S'20.3'
p1007
sg777
S'.041'
p1008
sg779
S'2.1'
p1009
sg780
S'24.4'
p1010
sg782
S'16.4'
p1011
sg784
S'1.0'
p1012
sg22
S'PF'
p1013
sg786
S'1.4'
p1014
sg787
S'.487'
p1015
sg789
S'23.0'
p1016
sg791
S'.551'
p1017
sg793
S'.017'
p1018
sg28
S'NBA'
p1019
sg796
S'-0.6'
p1020
sg797
S'21.4'
p1021
sg799
S'2.6'
p1022
sg39
S'29'
p1023
sg41
S'TOT'
p1024
sg43
S'73'
p1025
sg804
S'0.6'
p1026
sg805
S'15.2'
p1027
sg807
S'-0.8'
p1028
sg62
S'2208'
p1029
sg810
S'0.4'
p1030
sg54
S'1979-80'
p1031
sg812
S'1.9'
p1032
sba(isrc.gp1.models.Advanced
Advanced
p1033
(dp1034
g773
S'9.6'
p1035
sg775
S'20.7'
p1036
sg777
S'.034'
p1037
sg779
S'2.2'
p1038
sg780
S'25.0'
p1039
sg782
S'16.9'
p1040
sg784
S'1.5'
p1041
sg22
S'PF'
p1042
sg786
S'1.1'
p1043
sg787
S'.489'
p1044
sg789
S'24.6'
p1045
sg791
S'.526'
p1046
sg793
S'.012'
p1047
sg28
S'NBA'
p1048
sg796
S'-0.6'
p1049
sg797
S'22.7'
p1050
sg799
S'1.7'
p1051
sg39
S'29'
p1052
sg41
S'DEN'
p1053
sg43
S'45'
p1054
sg804
S'0.6'
p1055
sg805
S'15.6'
p1056
sg807
S'-0.7'
p1057
sg62
S'1424'
p1058
sg810
S'1.0'
p1059
sg54
S'1979-80'
p1060
sg812
S'1.0'
p1061
sba(isrc.gp1.models.Advanced
Advanced
p1062
(dp1063
g773
S'11.3'
p1064
sg775
S'19.6'
p1065
sg777
S'.053'
p1066
sg779
S'1.9'
p1067
sg780
S'23.5'
p1068
sg782
S'15.7'
p1069
sg784
S'0.2'
p1070
sg22
S'PF'
p1071
sg786
S'0.3'
p1072
sg787
S'.483'
p1073
sg789
S'20.3'
p1074
sg791
S'.599'
p1075
sg793
S'.026'
p1076
sg28
S'NBA'
p1077
sg796
S'-0.7'
p1078
sg797
S'19.1'
p1079
sg799
S'0.9'
p1080
sg39
S'29'
p1081
sg41
S'IND'
p1082
sg43
S'28'
p1083
sg804
S'0.4'
p1084
sg805
S'14.4'
p1085
sg807
S'0.0'
p1086
sg62
S'784'
p1087
sg810
S'-0.5'
p1088
sg54
S'1979-80'
p1089
sg812
S'0.9'
p1090
sba(isrc.gp1.models.Advanced
Advanced
p1091
(dp1092
g773
S'9.4'
p1093
sg775
S'19.1'
p1094
sg777
S'.045'
p1095
sg779
S'2.6'
p1096
sg780
S'25.1'
p1097
sg782
S'15.6'
p1098
sg784
S'1.3'
p1099
sg22
S'PF'
p1100
sg786
S'0.9'
p1101
sg787
S'.482'
p1102
sg789
S'22.2'
p1103
sg791
S'.501'
p1104
sg793
S'.009'
p1105
sg28
S'NBA'
p1106
sg796
S'-1.5'
p1107
sg797
S'16.4'
p1108
sg799
S'2.9'
p1109
sg39
S'30'
p1110
sg41
S'IND'
p1111
sg43
S'69'
p1112
sg804
S'0.9'
p1113
sg805
S'14.9'
p1114
sg807
S'-1.1'
p1115
sg62
S'1845'
p1116
sg810
S'-0.1'
p1117
sg54
S'1980-81'
p1118
sg812
S'1.7'
p1119
sba(isrc.gp1.models.Advanced
Advanced
p1120
(dp1121
g773
S'7.4'
p1122
sg775
S'22.6'
p1123
sg777
S'.015'
p1124
sg779
S'3.5'
p1125
sg780
S'18.0'
p1126
sg782
S'16.1'
p1127
sg784
S'4.3'
p1128
sg22
S'PF'
p1129
sg786
S'0.7'
p1130
sg787
S'.395'
p1131
sg789
S'25.2'
p1132
sg791
S'.421'
p1133
sg793
S'.008'
p1134
sg28
S'NBA'
p1135
sg796
S'-4.3'
p1136
sg797
S'20.7'
p1137
sg799
S'2.9'
p1138
sg39
S'31'
p1139
sg41
S'IND'
p1140
sg43
S'76'
p1141
sg804
S'1.2'
p1142
sg805
S'11.3'
p1143
sg807
S'-2.5'
p1144
sg62
S'1341'
p1145
sg810
S'-0.1'
p1146
sg54
S'1981-82'
p1147
sg812
S'0.4'
p1148
sbasS'_per36Minutes'
p1149
(lp1150
(isrc.gp1.models.Per36Minutes
Per36Minutes
p1151
(dp1152
g8
S'4.8'
p1153
sg10
S'0.6'
p1154
sg12
S'.465'
p1155
sg14
S'2.3'
p1156
sg16
S'.158'
p1157
sg18
S'0.1'
p1158
sg20
S'20.4'
p1159
sg22
S'SF'
p1160
sg24
S'.645'
p1161
sg28
S'ABA'
p1162
sg30
g3
sg31
S'16.5'
p1163
sg33
S'4.3'
p1164
sg35
S'7.6'
p1165
sg37
S'11.7'
p1166
sg39
S'21'
p1167
sg41
S'INA'
p1168
sg43
S'73'
p1169
sg45
g3
sg46
S'7.6'
p1170
sg48
S'4.9'
p1171
sg50
S'15.9'
p1172
sg52
S'7.0'
p1173
sg54
S'1971-72'
p1174
sg56
S'7.7'
p1175
sg58
S'4.2'
p1176
sg60
S'.478'
p1177
sg62
S'2179'
p1178
sg64
g3
sba(isrc.gp1.models.Per36Minutes
Per36Minutes
p1179
(dp1180
g8
S'4.7'
p1181
sg10
S'0.3'
p1182
sg12
S'.495'
p1183
sg14
S'2.2'
p1184
sg16
S'.250'
p1185
sg18
S'0.1'
p1186
sg20
S'24.3'
p1187
sg22
S'PF'
p1188
sg24
S'.665'
p1189
sg28
S'ABA'
p1190
sg30
S'1.7'
p1191
sg31
S'18.9'
p1192
sg33
S'3.7'
p1193
sg35
S'8.4'
p1194
sg37
S'11.0'
p1195
sg39
S'22'
p1196
sg41
S'INA'
p1197
sg43
S'82'
p1198
sg45
g3
sg46
S'9.3'
p1199
sg48
S'5.6'
p1200
sg50
S'18.5'
p1201
sg52
S'6.3'
p1202
sg54
S'1972-73'
p1203
sg56
S'9.3'
p1204
sg58
S'4.3'
p1205
sg60
S'.499'
p1206
sg62
S'3347'
p1207
sg64
g3
sba(isrc.gp1.models.Per36Minutes
Per36Minutes
p1208
(dp1209
g8
S'4.7'
p1210
sg10
S'0.4'
p1211
sg12
S'.468'
p1212
sg14
S'2.9'
p1213
sg16
S'.147'
p1214
sg18
S'0.1'
p1215
sg20
S'22.8'
p1216
sg22
S'PF'
p1217
sg24
S'.683'
p1218
sg28
S'ABA'
p1219
sg30
S'1.8'
p1220
sg31
S'18.6'
p1221
sg33
S'3.6'
p1222
sg35
S'7.9'
p1223
sg37
S'13.2'
p1224
sg39
S'23'
p1225
sg41
S'INA'
p1226
sg43
S'80'
p1227
sg45
S'0.4'
p1228
sg46
S'8.6'
p1229
sg48
S'5.4'
p1230
sg50
S'18.2'
p1231
sg52
S'8.5'
p1232
sg54
S'1973-74'
p1233
sg56
S'8.7'
p1234
sg58
S'4.3'
p1235
sg60
S'.475'
p1236
sg62
S'3266'
p1237
sg64
g3
sba(isrc.gp1.models.Per36Minutes
Per36Minutes
p1238
(dp1239
g8
S'4.5'
p1240
sg10
S'2.0'
p1241
sg12
S'.451'
p1242
sg14
S'5.6'
p1243
sg16
S'.354'
p1244
sg18
S'0.7'
p1245
sg20
S'26.5'
p1246
sg22
S'PF'
p1247
sg24
S'.724'
p1248
sg28
S'ABA'
p1249
sg30
S'2.3'
p1250
sg31
S'21.8'
p1251
sg33
S'3.4'
p1252
sg35
S'8.5'
p1253
sg37
S'12.7'
p1254
sg39
S'24'
p1255
sg41
S'INA'
p1256
sg43
S'79'
p1257
sg45
S'0.6'
p1258
sg46
S'9.1'
p1259
sg48
S'6.1'
p1260
sg50
S'19.8'
p1261
sg52
S'8.2'
p1262
sg54
S'1974-75'
p1263
sg56
S'9.8'
p1264
sg58
S'4.8'
p1265
sg60
S'.461'
p1266
sg62
S'3193'
p1267
sg64
g3
sba(isrc.gp1.models.Per36Minutes
Per36Minutes
p1268
(dp1269
g8
S'3.2'
p1270
sg10
g3
sg12
S'.417'
p1271
sg14
S'4.4'
p1272
sg16
g3
sg18
g3
sg20
S'21.6'
p1273
sg22
S'PF'
p1274
sg24
S'.740'
p1275
sg28
S'NBA'
p1276
sg30
S'2.4'
p1277
sg31
S'19.0'
p1278
sg33
S'4.1'
p1279
sg35
S'7.8'
p1280
sg37
S'11.8'
p1281
sg39
S'25'
p1282
sg41
S'PHI'
p1283
sg43
S'77'
p1284
sg45
S'0.5'
p1285
sg46
S'7.9'
p1286
sg48
S'5.8'
p1287
sg50
S'19.0'
p1288
sg52
S'8.6'
p1289
sg54
S'1975-76'
p1290
sg56
S'7.9'
p1291
sg58
g3
sg60
S'.417'
p1292
sg62
S'2946'
p1293
sg64
g3
sba(isrc.gp1.models.Per36Minutes
Per36Minutes
p1294
(dp1295
g8
S'4.2'
p1296
sg10
g3
sg12
S'.458'
p1297
sg14
S'3.9'
p1298
sg16
g3
sg18
g3
sg20
S'22.0'
p1299
sg22
S'PF'
p1300
sg24
S'.681'
p1301
sg28
S'NBA'
p1302
sg30
S'2.1'
p1303
sg31
S'18.7'
p1304
sg33
S'3.9'
p1305
sg35
S'7.1'
p1306
sg37
S'11.8'
p1307
sg39
S'26'
p1308
sg41
S'PHI'
p1309
sg43
S'79'
p1310
sg45
S'0.5'
p1311
sg46
S'8.6'
p1312
sg48
S'4.8'
p1313
sg50
S'18.7'
p1314
sg52
S'7.6'
p1315
sg54
S'1976-77'
p1316
sg56
S'8.6'
p1317
sg58
g3
sg60
S'.458'
p1318
sg62
S'2769'
p1319
sg64
g3
sba(isrc.gp1.models.Per36Minutes
Per36Minutes
p1320
(dp1321
g8
S'4.0'
p1322
sg10
g3
sg12
S'.463'
p1323
sg14
S'4.2'
p1324
sg16
g3
sg18
g3
sg20
S'22.6'
p1325
sg22
S'PF'
p1326
sg24
S'.716'
p1327
sg28
S'NBA'
p1328
sg30
S'1.9'
p1329
sg31
S'18.0'
p1330
sg33
S'4.1'
p1331
sg35
S'8.2'
p1332
sg37
S'11.5'
p1333
sg39
S'27'
p1334
sg41
S'PHI'
p1335
sg43
S'78'
p1336
sg45
S'0.4'
p1337
sg46
S'8.4'
p1338
sg48
S'5.8'
p1339
sg50
S'18.0'
p1340
sg52
S'7.5'
p1341
sg54
S'1977-78'
p1342
sg56
S'8.4'
p1343
sg58
S'4.4'
p1344
sg60
S'.463'
p1345
sg62
S'2533'
p1346
sg64
g3
sba(isrc.gp1.models.Per36Minutes
Per36Minutes
p1347
(dp1348
g8
S'3.6'
p1349
sg10
g3
sg12
S'.474'
p1350
sg14
S'4.0'
p1351
sg16
g3
sg18
g3
sg20
S'24.2'
p1352
sg22
S'PF'
p1353
sg24
S'.665'
p1354
sg28
S'NBA'
p1355
sg30
S'1.8'
p1356
sg31
S'18.0'
p1357
sg33
S'4.5'
p1358
sg35
S'10.8'
p1359
sg37
S'12.2'
p1360
sg39
S'28'
p1361
sg41
S'DEN'
p1362
sg43
S'76'
p1363
sg45
S'0.7'
p1364
sg46
S'8.5'
p1365
sg48
S'7.2'
p1366
sg50
S'18.0'
p1367
sg52
S'8.6'
p1368
sg54
S'1978-79'
p1369
sg56
S'8.5'
p1370
sg58
S'4.9'
p1371
sg60
S'.474'
p1372
sg62
S'2552'
p1373
sg64
g3
sba(isrc.gp1.models.Per36Minutes
Per36Minutes
p1374
(dp1375
g8
S'3.6'
p1376
sg10
S'0.2'
p1377
sg12
S'.451'
p1378
sg14
S'5.4'
p1379
sg16
S'.133'
p1380
sg18
S'0.0'
p1381
sg20
S'17.5'
p1382
sg22
S'PF'
p1383
sg24
S'.553'
p1384
sg28
S'NBA'
p1385
sg30
S'1.6'
p1386
sg31
S'14.4'
p1387
sg33
S'4.9'
p1388
sg35
S'8.0'
p1389
sg37
S'11.4'
p1390
sg39
S'29'
p1391
sg41
S'TOT'
p1392
sg43
S'73'
p1393
sg45
S'0.4'
p1394
sg46
S'6.5'
p1395
sg48
S'4.4'
p1396
sg50
S'14.2'
p1397
sg52
S'7.8'
p1398
sg54
S'1979-80'
p1399
sg56
S'6.5'
p1400
sg58
S'4.6'
p1401
sg60
S'.457'
p1402
sg62
S'2208'
p1403
sg64
g3
sba(isrc.gp1.models.Per36Minutes
Per36Minutes
p1404
(dp1405
g8
S'3.4'
p1406
sg10
S'0.2'
p1407
sg12
S'.459'
p1408
sg14
S'5.6'
p1409
sg16
S'.143'
p1410
sg18
S'0.0'
p1411
sg20
S'17.8'
p1412
sg22
S'PF'
p1413
sg24
S'.541'
p1414
sg28
S'NBA'
p1415
sg30
S'1.7'
p1416
sg31
S'14.8'
p1417
sg33
S'4.7'
p1418
sg35
S'7.8'
p1419
sg37
S'11.7'
p1420
sg39
S'29'
p1421
sg41
S'DEN'
p1422
sg43
S'45'
p1423
sg45
S'0.4'
p1424
sg46
S'6.8'
p1425
sg48
S'4.2'
p1426
sg50
S'14.6'
p1427
sg52
S'8.3'
p1428
sg54
S'1979-80'
p1429
sg56
S'6.8'
p1430
sg58
S'4.8'
p1431
sg60
S'.463'
p1432
sg62
S'1424'
p1433
sg64
g3
sba(isrc.gp1.models.Per36Minutes
Per36Minutes
p1434
(dp1435
g8
S'4.0'
p1436
sg10
S'0.4'
p1437
sg12
S'.437'
p1438
sg14
S'5.1'
p1439
sg16
S'.125'
p1440
sg18
S'0.0'
p1441
sg20
S'16.9'
p1442
sg22
S'PF'
p1443
sg24
S'.575'
p1444
sg28
S'NBA'
p1445
sg30
S'1.5'
p1446
sg31
S'13.9'
p1447
sg33
S'5.3'
p1448
sg35
S'8.3'
p1449
sg37
S'10.9'
p1450
sg39
S'29'
p1451
sg41
S'IND'
p1452
sg43
S'28'
p1453
sg45
S'0.3'
p1454
sg46
S'6.0'
p1455
sg48
S'4.8'
p1456
sg50
S'13.5'
p1457
sg52
S'6.8'
p1458
sg54
S'1979-80'
p1459
sg56
S'6.1'
p1460
sg58
S'4.3'
p1461
sg60
S'.446'
p1462
sg62
S'784'
p1463
sg64
g3
sba(isrc.gp1.models.Per36Minutes
Per36Minutes
p1464
(dp1465
g8
S'3.2'
p1466
sg10
S'0.1'
p1467
sg12
S'.453'
p1468
sg14
S'4.1'
p1469
sg16
S'.000'
p1470
sg18
S'0.0'
p1471
sg20
S'17.6'
p1472
sg22
S'PF'
p1473
sg24
S'.538'
p1474
sg28
S'NBA'
p1475
sg30
S'1.9'
p1476
sg31
S'15.0'
p1477
sg33
S'4.7'
p1478
sg35
S'7.5'
p1479
sg37
S'10.3'
p1480
sg39
S'30'
p1481
sg41
S'IND'
p1482
sg43
S'69'
p1483
sg45
S'0.5'
p1484
sg46
S'6.8'
p1485
sg48
S'4.0'
p1486
sg50
S'14.8'
p1487
sg52
S'7.1'
p1488
sg54
S'1980-81'
p1489
sg56
S'6.8'
p1490
sg58
S'4.3'
p1491
sg60
S'.457'
p1492
sg62
S'1845'
p1493
sg64
g3
sba(isrc.gp1.models.Per36Minutes
Per36Minutes
p1494
(dp1495
g8
S'2.5'
p1496
sg10
S'0.1'
p1497
sg12
S'.373'
p1498
sg14
S'5.5'
p1499
sg16
S'.000'
p1500
sg18
S'0.0'
p1501
sg20
S'9.5'
p1502
sg22
S'PF'
p1503
sg24
S'.453'
p1504
sg28
S'NBA'
p1505
sg30
S'2.6'
p1506
sg31
S'10.1'
p1507
sg33
S'5.3'
p1508
sg35
S'4.3'
p1509
sg37
S'10.7'
p1510
sg39
S'31'
p1511
sg41
S'IND'
p1512
sg43
S'76'
p1513
sg45
S'0.8'
p1514
sg46
S'3.8'
p1515
sg48
S'1.9'
p1516
sg50
S'10.1'
p1517
sg52
S'8.2'
p1518
sg54
S'1981-82'
p1519
sg56
S'3.8'
p1520
sg58
S'3.5'
p1521
sg60
S'.376'
p1522
sg62
S'1341'
p1523
sg64
g417
sbasS'_fromYear'
p1524
S'1972'
p1525
sS'_url'
p1526
S'http://www.basketball-reference.com/players/m/mcginge01.html'
p1527
sS'_perGame'
p1528
(isrc.gp1.models.PerGame
PerGame
p1529
(dp1530
g8
S'1.2'
p1531
sg10
S'0.0'
p1532
sg12
S'.373'
p1533
sS'_effectiveFieldGalPercentage'
p1534
S'.373'
p1535
sg14
S'2.7'
p1536
sg16
S'.000'
p1537
sg18
S'0.0'
p1538
sg20
S'4.7'
p1539
sg22
S'PF'
p1540
sg24
S'.453'
p1541
sg28
S'NBA'
p1542
sg30
S'1.3'
p1543
sg33
S'2.6'
p1544
sS'_fieldGoalsttempted'
p1545
S'5.0'
p1546
sg35
S'2.1'
p1547
sg37
S'5.2'
p1548
sg39
S'31'
p1549
sg41
S'IND'
p1550
sg43
S'76'
p1551
sg45
S'0.4'
p1552
sg46
S'1.9'
p1553
sg48
S'0.9'
p1554
sg50
S'4.9'
p1555
sg52
S'4.0'
p1556
sg54
S'1981-82'
p1557
sg56
S'1.9'
p1558
sg58
S'1.7'
p1559
sg60
S'.376'
p1560
sg62
S'17.6'
p1561
sg64
g417
sbsS'_weight'
p1562
S'235'
p1563
sS'_dob'
p1564
S'12-8-1950'
p1565
sS'_salary'
p1566
(lp1567
sg22
S'F-C'
p1568
sb.