(isrc.gp1.models.Player
Player
p0
(dp1
S'_experience'
p2
S'NA'
p3
sS'_totals'
p4
(lp5
(isrc.gp1.models.Totals
Totals
p6
(dp7
S'_offensiveRebounds'
p8
S'0'
p9
sS'_threePointsAttempted'
p10
S'1'
p11
sS'_fieldGoalsPercentage'
p12
S'.667'
p13
sS'_assist'
p14
g9
sS'_threePointsPercentage'
p15
S'.000'
p16
sS'_threePoints'
p17
g9
sS'_points'
p18
g3
sS'_position'
p19
S'PG'
p20
sS'_freeThrowsPercentage'
p21
g9
sS'_effectiveFieldGoalPercentage'
p22
S'.667'
p23
sS'_league'
p24
S'NBA'
p25
sS'_steals'
p26
g9
sS'_fieldGoalsAttempted'
p27
S'3'
p28
sS'_personalFouls'
p29
S'4'
p30
sS'_freeThrowsAttempted'
p31
g9
sS'_totalRebounds'
p32
g11
sS'_age'
p33
S'25'
p34
sS'_team'
p35
S'NYK'
p36
sS'_games'
p37
S'2'
p38
sS'_blocks'
p39
g9
sS'_twoPoints'
p40
g38
sS'_freeThrows'
p41
g9
sS'_twoPointsAttempted'
p42
g38
sS'_defensiveRebounds'
p43
g9
sS'_season'
p44
S'1986-87'
p45
sS'_fieldGoals'
p46
g38
sS'_turnOvers'
p47
g11
sS'_twoPointsPercentage'
p48
S'1.000'
p49
sS'_minutesPlayed'
p50
S'10'
p51
sS'_gamesStarted'
p52
g9
sbasS'_college'
p53
S'University of Alabama at Birmingham'
p54
sS'_toYear'
p55
S'1987'
p56
sS'_height'
p57
S'6-5'
p58
sS'_active'
p59
I00
sS'_shootingHand'
p60
VRight
p61
sS'_name'
p62
S'McKinley Singleton'
p63
sS'_per100Possessions'
p64
(lp65
(isrc.gp1.models.Per100Possession
Per100Possession
p66
(dp67
g8
S'0.0'
p68
sg10
S'4.9'
p69
sg12
S'.667'
p70
sS'_offensiveRating'
p71
S'120'
p72
sg14
S'0.0'
p73
sg15
S'.000'
p74
sg17
S'0.0'
p75
sg18
S'144'
p76
sg19
S'PG'
p77
sS'_defensiveRating'
p78
g3
sg21
S'0.0'
p79
sg24
S'NBA'
p80
sg26
S'0.0'
p81
sg27
S'14.6'
p82
sg29
S'19.5'
p83
sg31
S'0.0'
p84
sg32
S'4.9'
p85
sg33
S'25'
p86
sg35
S'NYK'
p87
sg37
g38
sg39
S'0.0'
p88
sg40
S'9.7'
p89
sg41
S'0.0'
p90
sg42
S'9.7'
p91
sg43
S'0.0'
p92
sg44
S'1986-87'
p93
sg46
S'9.7'
p94
sg47
S'4.9'
p95
sg48
S'1.000'
p96
sg50
S'10'
p97
sg52
g9
sbasS'_advanced'
p98
(lp99
(isrc.gp1.models.Advanced
Advanced
p100
(dp101
S'_offensiveReboundPercentage'
p102
S'0.0'
p103
sS'_turnOverPercentage'
p104
S'0.0'
p105
sS'_winSharesPer48Minutes'
p106
S'.131'
p107
sS'_stealPercentage'
p108
S'0.0'
p109
sS'_usagePercentage'
p110
S'12.5'
p111
sS'_totalReboundsPercentage'
p112
S'0.0'
p113
sS'_defensiveBoxPlusMinus'
p114
S'-7.7'
p115
sg19
S'PG'
p116
sS'_valueOverReplacementPlayer'
p117
S'0.0'
p118
sS'_trueShootingPercentage'
p119
S'.667'
p120
sS'_defensiveReboundPercentage'
p121
S'0.0'
p122
sS'_freeThrowsAttempRate'
p123
S'.000'
p124
sS'_threePointsAttempRate'
p125
S'.333'
p126
sg24
S'NBA'
p127
sS'_offensiveBoxPlusMinues'
p128
S'0.5'
p129
sS'_assistPercentage'
p130
S'15.6'
p131
sS'_defensiveWinShares'
p132
S'0.0'
p133
sg33
S'25'
p134
sg35
S'NYK'
p135
sg37
g38
sS'_blockPercentage'
p136
S'0.0'
p137
sS'_playerEfficiencyRating'
p138
S'13.3'
p139
sS'_offensiveWinShares'
p140
S'0.0'
p141
sg50
S'10'
p142
sS'_boxPlusMinus'
p143
S'-7.3'
p144
sg44
S'1986-87'
p145
sS'_winShares'
p146
S'0.0'
p147
sbasS'_per36Minutes'
p148
(lp149
(isrc.gp1.models.Per36Minutes
Per36Minutes
p150
(dp151
g8
S'0.0'
p152
sg10
S'3.6'
p153
sg12
S'.667'
p154
sg14
S'0.0'
p155
sg15
S'.000'
p156
sg17
S'0.0'
p157
sg18
g3
sg19
S'PG'
p158
sg21
S'0.0'
p159
sg24
S'NBA'
p160
sg26
S'0.0'
p161
sg27
S'10.8'
p162
sg29
S'14.4'
p163
sg31
S'0.0'
p164
sg32
S'3.6'
p165
sg33
S'25'
p166
sg35
S'NYK'
p167
sg37
g38
sg39
S'0.0'
p168
sg40
S'7.2'
p169
sg41
S'0.0'
p170
sg42
S'7.2'
p171
sg43
S'0.0'
p172
sg44
S'1986-87'
p173
sg46
S'7.2'
p174
sg47
S'3.6'
p175
sg48
S'1.000'
p176
sg50
S'10'
p177
sg52
g9
sbasS'_fromYear'
p178
S'1987'
p179
sS'_url'
p180
S'http://www.basketball-reference.com/players/s/singlmc01.html'
p181
sS'_perGame'
p182
(isrc.gp1.models.PerGame
PerGame
p183
(dp184
g8
S'0.0'
p185
sg10
S'0.5'
p186
sg12
S'.667'
p187
sS'_effectiveFieldGalPercentage'
p188
S'.667'
p189
sg14
S'0.0'
p190
sg15
S'.000'
p191
sg17
S'0.0'
p192
sg18
g3
sg19
S'PG'
p193
sg21
S'0.0'
p194
sg24
S'NBA'
p195
sg26
S'0.0'
p196
sg29
S'2.0'
p197
sS'_fieldGoalsttempted'
p198
S'1.5'
p199
sg31
S'0.0'
p200
sg32
S'0.5'
p201
sg33
S'25'
p202
sg35
S'NYK'
p203
sg37
g38
sg39
S'0.0'
p204
sg40
S'1.0'
p205
sg41
S'0.0'
p206
sg42
S'1.0'
p207
sg43
S'0.0'
p208
sg44
S'1986-87'
p209
sg46
S'1.0'
p210
sg47
S'0.5'
p211
sg48
S'1.000'
p212
sg50
S'5.0'
p213
sg52
g9
sbsS'_weight'
p214
S'175'
p215
sS'_dob'
p216
S'29-10-1961'
p217
sS'_salary'
p218
(lp219
sg19
S'G'
p220
sb.