(isrc.gp1.models.Player
Player
p0
(dp1
S'_experience'
p2
S'NA'
p3
sS'_totals'
p4
(lp5
(isrc.gp1.models.Totals
Totals
p6
(dp7
S'_offensiveRebounds'
p8
g3
sS'_threePointsAttempted'
p9
g3
sS'_fieldGoalsPercentage'
p10
S'.389'
p11
sS'_assist'
p12
S'238'
p13
sS'_threePointsPercentage'
p14
g3
sS'_threePoints'
p15
g3
sS'_points'
p16
S'437'
p17
sS'_position'
p18
S'PG'
p19
sS'_freeThrowsPercentage'
p20
S'.833'
p21
sS'_effectiveFieldGoalPercentage'
p22
S'.389'
p23
sS'_league'
p24
S'NBA'
p25
sS'_steals'
p26
g3
sS'_fieldGoalsAttempted'
p27
S'427'
p28
sS'_personalFouls'
p29
S'148'
p30
sS'_freeThrowsAttempted'
p31
S'126'
p32
sS'_totalRebounds'
p33
S'123'
p34
sS'_age'
p35
S'22'
p36
sS'_team'
p37
S'NYK'
p38
sS'_games'
p39
S'75'
p40
sS'_blocks'
p41
g3
sS'_twoPoints'
p42
S'166'
p43
sS'_freeThrows'
p44
S'105'
p45
sS'_twoPointsAttempted'
p46
S'427'
p47
sS'_defensiveRebounds'
p48
g3
sS'_season'
p49
S'1960-61'
p50
sS'_fieldGoals'
p51
S'166'
p52
sS'_turnOvers'
p53
g3
sS'_twoPointsPercentage'
p54
S'.389'
p55
sS'_minutesPlayed'
p56
S'1387'
p57
sS'_gamesStarted'
p58
g3
sba(isrc.gp1.models.Totals
Totals
p59
(dp60
g8
g3
sg9
g3
sg10
S'.412'
p61
sg12
S'89'
p62
sg14
g3
sg15
g3
sg16
S'138'
p63
sg18
S'PG'
p64
sg20
S'.765'
p65
sg22
S'.412'
p66
sg24
S'NBA'
p67
sg26
g3
sg27
S'136'
p68
sg29
S'56'
p69
sg31
S'34'
p70
sg33
S'56'
p71
sg35
S'23'
p72
sg37
S'TOT'
p73
sg39
S'50'
p74
sg41
g3
sg42
S'56'
p75
sg44
S'26'
p76
sg46
S'136'
p77
sg48
g3
sg49
S'1961-62'
p78
sg51
S'56'
p79
sg53
g3
sg54
S'.412'
p80
sg56
S'441'
p81
sg58
g3
sba(isrc.gp1.models.Totals
Totals
p82
(dp83
g8
g3
sg9
g3
sg10
S'.447'
p84
sg12
S'49'
p85
sg14
g3
sg15
g3
sg16
S'86'
p86
sg18
S'PG'
p87
sg20
S'.818'
p88
sg22
S'.447'
p89
sg24
S'NBA'
p90
sg26
g3
sg27
S'76'
p91
sg29
S'31'
p92
sg31
S'22'
p93
sg33
S'33'
p94
sg35
S'23'
p95
sg37
S'PHW'
p96
sg39
S'21'
p97
sg41
g3
sg42
S'34'
p98
sg44
S'18'
p99
sg46
S'76'
p100
sg48
g3
sg49
S'1961-62'
p101
sg51
S'34'
p102
sg53
g3
sg54
S'.447'
p103
sg56
S'212'
p104
sg58
g3
sba(isrc.gp1.models.Totals
Totals
p105
(dp106
g8
g3
sg9
g3
sg10
S'.367'
p107
sg12
S'40'
p108
sg14
g3
sg15
g3
sg16
S'52'
p109
sg18
S'PG'
p110
sg20
S'.667'
p111
sg22
S'.367'
p112
sg24
S'NBA'
p113
sg26
g3
sg27
S'60'
p114
sg29
S'25'
p115
sg31
S'12'
p116
sg33
S'23'
p117
sg35
S'23'
p118
sg37
S'LAL'
p119
sg39
S'29'
p120
sg41
g3
sg42
S'22'
p121
sg44
S'8'
p122
sg46
S'60'
p123
sg48
g3
sg49
S'1961-62'
p124
sg51
S'22'
p125
sg53
g3
sg54
S'.367'
p126
sg56
S'229'
p127
sg58
g3
sbasS'_college'
p128
S"Saint Joseph's University"
p129
sS'_toYear'
p130
S'1962'
p131
sS'_height'
p132
S'6-1'
p133
sS'_active'
p134
I00
sS'_shootingHand'
p135
VLeft
p136
sS'_name'
p137
S'Bob McNeill'
p138
sS'_per100Possessions'
p139
(lp140
sS'_advanced'
p141
(lp142
(isrc.gp1.models.Advanced
Advanced
p143
(dp144
S'_offensiveReboundPercentage'
p145
g3
sS'_turnOverPercentage'
p146
g3
sS'_winSharesPer48Minutes'
p147
S'.043'
p148
sS'_stealPercentage'
p149
g3
sS'_usagePercentage'
p150
g3
sS'_totalReboundsPercentage'
p151
g3
sS'_defensiveBoxPlusMinus'
p152
g3
sg18
S'PG'
p153
sS'_valueOverReplacementPlayer'
p154
g3
sS'_trueShootingPercentage'
p155
S'.453'
p156
sS'_defensiveReboundPercentage'
p157
g3
sS'_freeThrowsAttempRate'
p158
S'.295'
p159
sS'_threePointsAttempRate'
p160
g3
sg24
S'NBA'
p161
sS'_offensiveBoxPlusMinues'
p162
g3
sS'_assistPercentage'
p163
g3
sS'_defensiveWinShares'
p164
S'0.4'
p165
sg35
S'22'
p166
sg37
S'NYK'
p167
sg39
S'75'
p168
sS'_blockPercentage'
p169
g3
sS'_playerEfficiencyRating'
p170
S'10.4'
p171
sS'_offensiveWinShares'
p172
S'0.8'
p173
sg56
S'1387'
p174
sS'_boxPlusMinus'
p175
g3
sg49
S'1960-61'
p176
sS'_winShares'
p177
S'1.2'
p178
sba(isrc.gp1.models.Advanced
Advanced
p179
(dp180
g145
g3
sg146
g3
sg147
S'.075'
p181
sg149
g3
sg150
g3
sg151
g3
sg152
g3
sg18
S'PG'
p182
sg154
g3
sg155
S'.457'
p183
sg157
g3
sg158
S'.250'
p184
sg160
g3
sg24
S'NBA'
p185
sg162
g3
sg163
g3
sg164
S'0.5'
p186
sg35
S'23'
p187
sg37
S'TOT'
p188
sg39
S'50'
p189
sg169
g3
sg170
S'10.9'
p190
sg172
S'0.2'
p191
sg56
S'441'
p192
sg175
g3
sg49
S'1961-62'
p193
sg177
S'0.7'
p194
sba(isrc.gp1.models.Advanced
Advanced
p195
(dp196
g145
g3
sg146
g3
sg147
S'.130'
p197
sg149
g3
sg150
g3
sg151
g3
sg152
g3
sg18
S'PG'
p198
sg154
g3
sg155
S'.502'
p199
sg157
g3
sg158
S'.289'
p200
sg160
g3
sg24
S'NBA'
p201
sg162
g3
sg163
g3
sg164
S'0.3'
p202
sg35
S'23'
p203
sg37
S'PHW'
p204
sg39
S'21'
p205
sg169
g3
sg170
S'14.3'
p206
sg172
S'0.3'
p207
sg56
S'212'
p208
sg175
g3
sg49
S'1961-62'
p209
sg177
S'0.6'
p210
sba(isrc.gp1.models.Advanced
Advanced
p211
(dp212
g145
g3
sg146
g3
sg147
S'.024'
p213
sg149
g3
sg150
g3
sg151
g3
sg152
g3
sg18
S'PG'
p214
sg154
g3
sg155
S'.398'
p215
sg157
g3
sg158
S'.200'
p216
sg160
g3
sg24
S'NBA'
p217
sg162
g3
sg163
g3
sg164
S'0.2'
p218
sg35
S'23'
p219
sg37
S'LAL'
p220
sg39
S'29'
p221
sg169
g3
sg170
S'7.8'
p222
sg172
S'-0.1'
p223
sg56
S'229'
p224
sg175
g3
sg49
S'1961-62'
p225
sg177
S'0.1'
p226
sbasS'_per36Minutes'
p227
(lp228
(isrc.gp1.models.Per36Minutes
Per36Minutes
p229
(dp230
g8
g3
sg9
g3
sg10
S'.389'
p231
sg12
S'6.2'
p232
sg14
g3
sg15
g3
sg16
S'11.3'
p233
sg18
S'PG'
p234
sg20
S'.833'
p235
sg24
S'NBA'
p236
sg26
g3
sg27
S'11.1'
p237
sg29
S'3.8'
p238
sg31
S'3.3'
p239
sg33
S'3.2'
p240
sg35
S'22'
p241
sg37
S'NYK'
p242
sg39
S'75'
p243
sg41
g3
sg42
S'4.3'
p244
sg44
S'2.7'
p245
sg46
S'11.1'
p246
sg48
g3
sg49
S'1960-61'
p247
sg51
S'4.3'
p248
sg53
g3
sg54
S'.389'
p249
sg56
S'1387'
p250
sg58
g3
sba(isrc.gp1.models.Per36Minutes
Per36Minutes
p251
(dp252
g8
g3
sg9
g3
sg10
S'.412'
p253
sg12
S'7.3'
p254
sg14
g3
sg15
g3
sg16
S'11.3'
p255
sg18
S'PG'
p256
sg20
S'.765'
p257
sg24
S'NBA'
p258
sg26
g3
sg27
S'11.1'
p259
sg29
S'4.6'
p260
sg31
S'2.8'
p261
sg33
S'4.6'
p262
sg35
S'23'
p263
sg37
S'TOT'
p264
sg39
S'50'
p265
sg41
g3
sg42
S'4.6'
p266
sg44
S'2.1'
p267
sg46
S'11.1'
p268
sg48
g3
sg49
S'1961-62'
p269
sg51
S'4.6'
p270
sg53
g3
sg54
S'.412'
p271
sg56
S'441'
p272
sg58
g3
sba(isrc.gp1.models.Per36Minutes
Per36Minutes
p273
(dp274
g8
g3
sg9
g3
sg10
S'.447'
p275
sg12
S'8.3'
p276
sg14
g3
sg15
g3
sg16
S'14.6'
p277
sg18
S'PG'
p278
sg20
S'.818'
p279
sg24
S'NBA'
p280
sg26
g3
sg27
S'12.9'
p281
sg29
S'5.3'
p282
sg31
S'3.7'
p283
sg33
S'5.6'
p284
sg35
S'23'
p285
sg37
S'PHW'
p286
sg39
S'21'
p287
sg41
g3
sg42
S'5.8'
p288
sg44
S'3.1'
p289
sg46
S'12.9'
p290
sg48
g3
sg49
S'1961-62'
p291
sg51
S'5.8'
p292
sg53
g3
sg54
S'.447'
p293
sg56
S'212'
p294
sg58
g3
sba(isrc.gp1.models.Per36Minutes
Per36Minutes
p295
(dp296
g8
g3
sg9
g3
sg10
S'.367'
p297
sg12
S'6.3'
p298
sg14
g3
sg15
g3
sg16
S'8.2'
p299
sg18
S'PG'
p300
sg20
S'.667'
p301
sg24
S'NBA'
p302
sg26
g3
sg27
S'9.4'
p303
sg29
S'3.9'
p304
sg31
S'1.9'
p305
sg33
S'3.6'
p306
sg35
S'23'
p307
sg37
S'LAL'
p308
sg39
S'29'
p309
sg41
g3
sg42
S'3.5'
p310
sg44
S'1.3'
p311
sg46
S'9.4'
p312
sg48
g3
sg49
S'1961-62'
p313
sg51
S'3.5'
p314
sg53
g3
sg54
S'.367'
p315
sg56
S'229'
p316
sg58
g3
sbasS'_fromYear'
p317
S'1961'
p318
sS'_url'
p319
S'http://www.basketball-reference.com/players/m/mcneibo01.html'
p320
sS'_perGame'
p321
(isrc.gp1.models.PerGame
PerGame
p322
(dp323
g8
g3
sg9
g3
sg10
S'.367'
p324
sS'_effectiveFieldGalPercentage'
p325
S'.367'
p326
sg12
S'1.4'
p327
sg14
g3
sg15
g3
sg16
S'1.8'
p328
sg18
S'PG'
p329
sg20
S'.667'
p330
sg24
S'NBA'
p331
sg26
g3
sg29
S'0.9'
p332
sS'_fieldGoalsttempted'
p333
S'2.1'
p334
sg31
S'0.4'
p335
sg33
S'0.8'
p336
sg35
S'23'
p337
sg37
S'LAL'
p338
sg39
S'29'
p339
sg41
g3
sg42
S'0.8'
p340
sg44
S'0.3'
p341
sg46
S'2.1'
p342
sg48
g3
sg49
S'1961-62'
p343
sg51
S'0.8'
p344
sg53
g3
sg54
S'.367'
p345
sg56
S'7.9'
p346
sg58
g3
sbsS'_weight'
p347
S'170'
p348
sS'_dob'
p349
S'22-10-1938'
p350
sS'_salary'
p351
(lp352
sg18
S'G'
p353
sb.