(isrc.gp1.models.Player
Player
p0
(dp1
S'_experience'
p2
VRookie
p3
sS'_totals'
p4
(lp5
(isrc.gp1.models.Totals
Totals
p6
(dp7
S'_offensiveRebounds'
p8
S'14'
p9
sS'_threePointsAttempted'
p10
S'0'
p11
sS'_fieldGoalsPercentage'
p12
S'.667'
p13
sS'_assist'
p14
S'2'
p15
sS'_threePointsPercentage'
p16
S'NA'
p17
sS'_threePoints'
p18
g11
sS'_points'
p19
S'53'
p20
sS'_position'
p21
S'C'
p22
sS'_freeThrowsPercentage'
p23
S'.684'
p24
sS'_effectiveFieldGoalPercentage'
p25
S'.667'
p26
sS'_league'
p27
S'NBA'
p28
sS'_steals'
p29
g15
sS'_fieldGoalsAttempted'
p30
S'30'
p31
sS'_personalFouls'
p32
S'18'
p33
sS'_freeThrowsAttempted'
p34
S'19'
p35
sS'_totalRebounds'
p36
S'39'
p37
sS'_age'
p38
S'29'
p39
sS'_team'
p40
S'DAL'
p41
sS'_games'
p42
S'13'
p43
sS'_blocks'
p44
S'8'
p45
sS'_twoPoints'
p46
S'20'
p47
sS'_freeThrows'
p48
S'13'
p49
sS'_twoPointsAttempted'
p50
S'30'
p51
sS'_defensiveRebounds'
p52
S'25'
p53
sS'_season'
p54
S'2015-16'
p55
sS'_fieldGoals'
p56
S'20'
p57
sS'_turnOvers'
p58
g45
sS'_twoPointsPercentage'
p59
S'.667'
p60
sS'_minutesPlayed'
p61
S'146'
p62
sS'_gamesStarted'
p63
S'3'
p64
sbasS'_college'
p65
S'NA'
p66
sS'_toYear'
p67
S'2016'
p68
sS'_height'
p69
S'7-1'
p70
sS'_active'
p71
I01
sS'_shootingHand'
p72
VRight
p73
sS'_name'
p74
S'Salah Mejri'
p75
sS'_per100Possessions'
p76
(lp77
(isrc.gp1.models.Per100Possession
Per100Possession
p78
(dp79
g8
S'4.9'
p80
sg10
S'0.0'
p81
sg12
S'.667'
p82
sS'_offensiveRating'
p83
S'123'
p84
sg14
S'0.7'
p85
sg16
g17
sg18
S'0.0'
p86
sg19
S'18.4'
p87
sg21
g22
sS'_defensiveRating'
p88
S'104'
p89
sg23
S'.684'
p90
sg27
S'NBA'
p91
sg29
S'0.7'
p92
sg30
S'10.4'
p93
sg32
S'6.3'
p94
sg34
S'6.6'
p95
sg36
S'13.6'
p96
sg38
S'29'
p97
sg40
S'DAL'
p98
sg42
S'13'
p99
sg44
S'2.8'
p100
sg46
S'7.0'
p101
sg48
S'4.5'
p102
sg50
S'10.4'
p103
sg52
S'8.7'
p104
sg54
S'2015-16'
p105
sg56
S'7.0'
p106
sg58
S'2.8'
p107
sg59
S'.667'
p108
sg61
S'146'
p109
sg63
g64
sbasS'_advanced'
p110
(lp111
(isrc.gp1.models.Advanced
Advanced
p112
(dp113
S'_offensiveReboundPercentage'
p114
S'10.5'
p115
sS'_turnOverPercentage'
p116
S'17.3'
p117
sS'_winSharesPer48Minutes'
p118
S'.172'
p119
sS'_stealPercentage'
p120
S'0.7'
p121
sS'_usagePercentage'
p122
S'14.5'
p123
sS'_totalReboundsPercentage'
p124
S'14.6'
p125
sS'_defensiveBoxPlusMinus'
p126
S'0.9'
p127
sg21
g22
sS'_valueOverReplacementPlayer'
p128
S'0.0'
p129
sS'_trueShootingPercentage'
p130
S'.691'
p131
sS'_defensiveReboundPercentage'
p132
S'18.8'
p133
sS'_freeThrowsAttempRate'
p134
S'.633'
p135
sS'_threePointsAttempRate'
p136
S'.000'
p137
sg27
S'NBA'
p138
sS'_offensiveBoxPlusMinues'
p139
S'-1.8'
p140
sS'_assistPercentage'
p141
S'2.2'
p142
sS'_defensiveWinShares'
p143
S'0.2'
p144
sg38
S'29'
p145
sg40
S'DAL'
p146
sg42
S'13'
p147
sS'_blockPercentage'
p148
S'4.5'
p149
sS'_playerEfficiencyRating'
p150
S'17.0'
p151
sS'_offensiveWinShares'
p152
S'0.3'
p153
sg61
S'146'
p154
sS'_boxPlusMinus'
p155
S'-0.8'
p156
sg54
S'2015-16'
p157
sS'_winShares'
p158
S'0.5'
p159
sbasS'_per36Minutes'
p160
(lp161
(isrc.gp1.models.Per36Minutes
Per36Minutes
p162
(dp163
g8
S'3.5'
p164
sg10
S'0.0'
p165
sg12
S'.667'
p166
sg14
S'0.5'
p167
sg16
g17
sg18
S'0.0'
p168
sg19
S'13.1'
p169
sg21
g22
sg23
S'.684'
p170
sg27
S'NBA'
p171
sg29
S'0.5'
p172
sg30
S'7.4'
p173
sg32
S'4.4'
p174
sg34
S'4.7'
p175
sg36
S'9.6'
p176
sg38
S'29'
p177
sg40
S'DAL'
p178
sg42
S'13'
p179
sg44
S'2.0'
p180
sg46
S'4.9'
p181
sg48
S'3.2'
p182
sg50
S'7.4'
p183
sg52
S'6.2'
p184
sg54
S'2015-16'
p185
sg56
S'4.9'
p186
sg58
S'2.0'
p187
sg59
S'.667'
p188
sg61
S'146'
p189
sg63
g64
sbasS'_fromYear'
p190
S'2016'
p191
sS'_url'
p192
S'http://www.basketball-reference.com/players/m/mejrisa01.html'
p193
sS'_perGame'
p194
(isrc.gp1.models.PerGame
PerGame
p195
(dp196
g8
S'1.1'
p197
sg10
S'0.0'
p198
sg12
S'.667'
p199
sS'_effectiveFieldGalPercentage'
p200
S'.667'
p201
sg14
S'0.2'
p202
sg16
g17
sg18
S'0.0'
p203
sg19
S'4.1'
p204
sg21
g22
sg23
S'.684'
p205
sg27
S'NBA'
p206
sg29
S'0.2'
p207
sg32
S'1.4'
p208
sS'_fieldGoalsttempted'
p209
S'2.3'
p210
sg34
S'1.5'
p211
sg36
S'3.0'
p212
sg38
S'29'
p213
sg40
S'DAL'
p214
sg42
S'13'
p215
sg44
S'0.6'
p216
sg46
S'1.5'
p217
sg48
S'1.0'
p218
sg50
S'2.3'
p219
sg52
S'1.9'
p220
sg54
S'2015-16'
p221
sg56
S'1.5'
p222
sg58
S'0.6'
p223
sg59
S'.667'
p224
sg61
S'11.2'
p225
sg63
g64
sbsS'_weight'
p226
S'245'
p227
sS'_dob'
p228
S'15-6-1986'
p229
sS'_salary'
p230
(lp231
sg21
g22
sb.