(isrc.gp1.models.Player
Player
p0
(dp1
S'_experience'
p2
V1 year
p3
sS'_totals'
p4
(lp5
(isrc.gp1.models.Totals
Totals
p6
(dp7
S'_offensiveRebounds'
p8
S'0'
p9
sS'_threePointsAttempted'
p10
g9
sS'_fieldGoalsPercentage'
p11
S'.500'
p12
sS'_assist'
p13
g9
sS'_threePointsPercentage'
p14
S'NA'
p15
sS'_threePoints'
p16
g9
sS'_points'
p17
S'7'
p18
sS'_position'
p19
S'C'
p20
sS'_freeThrowsPercentage'
p21
S'.250'
p22
sS'_effectiveFieldGoalPercentage'
p23
S'.500'
p24
sS'_league'
p25
S'NBA'
p26
sS'_steals'
p27
S'2'
p28
sS'_fieldGoalsAttempted'
p29
S'6'
p30
sS'_personalFouls'
p31
g18
sS'_freeThrowsAttempted'
p32
S'4'
p33
sS'_totalRebounds'
p34
S'3'
p35
sS'_age'
p36
S'22'
p37
sS'_team'
p38
S'BOS'
p39
sS'_games'
p40
g30
sS'_blocks'
p41
g28
sS'_twoPoints'
p42
g35
sS'_freeThrows'
p43
S'1'
p44
sS'_twoPointsAttempted'
p45
g30
sS'_defensiveRebounds'
p46
g35
sS'_season'
p47
S'2012-13'
p48
sS'_fieldGoals'
p49
g35
sS'_turnOvers'
p50
g44
sS'_twoPointsPercentage'
p51
S'.500'
p52
sS'_minutesPlayed'
p53
S'36'
p54
sS'_gamesStarted'
p55
g9
sbasS'_college'
p56
S'Syracuse University'
p57
sS'_toYear'
p58
S'2013'
p59
sS'_height'
p60
S'7-0'
p61
sS'_active'
p62
I01
sS'_shootingHand'
p63
VRight
p64
sS'_name'
p65
S'Fab Melo'
p66
sS'_per100Possessions'
p67
(lp68
(isrc.gp1.models.Per100Possession
Per100Possession
p69
(dp70
g8
S'0.0'
p71
sg10
S'0.0'
p72
sg11
S'.500'
p73
sS'_offensiveRating'
p74
S'77'
p75
sg13
S'0.0'
p76
sg14
g15
sg16
S'0.0'
p77
sg17
S'10.2'
p78
sg19
g20
sS'_defensiveRating'
p79
S'100'
p80
sg21
S'.250'
p81
sg25
S'NBA'
p82
sg27
S'2.9'
p83
sg29
S'8.7'
p84
sg31
S'10.2'
p85
sg32
S'5.8'
p86
sg34
S'4.4'
p87
sg36
S'22'
p88
sg38
S'BOS'
p89
sg40
g30
sg41
S'2.9'
p90
sg42
S'4.4'
p91
sg43
S'1.5'
p92
sg45
S'8.7'
p93
sg46
S'4.4'
p94
sg47
S'2012-13'
p95
sg49
S'4.4'
p96
sg50
S'1.5'
p97
sg51
S'.500'
p98
sg53
S'36'
p99
sg55
g9
sbasS'_advanced'
p100
(lp101
(isrc.gp1.models.Advanced
Advanced
p102
(dp103
S'_offensiveReboundPercentage'
p104
S'0.0'
p105
sS'_turnOverPercentage'
p106
S'11.4'
p107
sS'_winSharesPer48Minutes'
p108
S'.021'
p109
sS'_stealPercentage'
p110
S'2.9'
p111
sS'_usagePercentage'
p112
S'11.5'
p113
sS'_totalReboundsPercentage'
p114
S'4.9'
p115
sS'_defensiveBoxPlusMinus'
p116
S'1.7'
p117
sg19
g20
sS'_valueOverReplacementPlayer'
p118
S'0.0'
p119
sS'_trueShootingPercentage'
p120
S'.451'
p121
sS'_defensiveReboundPercentage'
p122
S'9.6'
p123
sS'_freeThrowsAttempRate'
p124
S'.667'
p125
sS'_threePointsAttempRate'
p126
S'.000'
p127
sg25
S'NBA'
p128
sS'_offensiveBoxPlusMinues'
p129
S'-7.5'
p130
sS'_assistPercentage'
p131
S'0.0'
p132
sS'_defensiveWinShares'
p133
S'0.1'
p134
sg36
S'22'
p135
sg38
S'BOS'
p136
sg40
g30
sS'_blockPercentage'
p137
S'4.4'
p138
sS'_playerEfficiencyRating'
p139
S'4.9'
p140
sS'_offensiveWinShares'
p141
S'0.0'
p142
sg53
S'36'
p143
sS'_boxPlusMinus'
p144
S'-5.8'
p145
sg47
S'2012-13'
p146
sS'_winShares'
p147
S'0.0'
p148
sbasS'_per36Minutes'
p149
(lp150
(isrc.gp1.models.Per36Minutes
Per36Minutes
p151
(dp152
g8
S'0.0'
p153
sg10
S'0.0'
p154
sg11
S'.500'
p155
sg13
S'0.0'
p156
sg14
g15
sg16
S'0.0'
p157
sg17
S'7.0'
p158
sg19
g20
sg21
S'.250'
p159
sg25
S'NBA'
p160
sg27
S'2.0'
p161
sg29
S'6.0'
p162
sg31
S'7.0'
p163
sg32
S'4.0'
p164
sg34
S'3.0'
p165
sg36
S'22'
p166
sg38
S'BOS'
p167
sg40
g30
sg41
S'2.0'
p168
sg42
S'3.0'
p169
sg43
S'1.0'
p170
sg45
S'6.0'
p171
sg46
S'3.0'
p172
sg47
S'2012-13'
p173
sg49
S'3.0'
p174
sg50
S'1.0'
p175
sg51
S'.500'
p176
sg53
S'36'
p177
sg55
g9
sbasS'_fromYear'
p178
S'2013'
p179
sS'_url'
p180
S'http://www.basketball-reference.com/players/m/melofa01.html'
p181
sS'_perGame'
p182
(isrc.gp1.models.PerGame
PerGame
p183
(dp184
g8
S'0.0'
p185
sg10
S'0.0'
p186
sg11
S'.500'
p187
sS'_effectiveFieldGalPercentage'
p188
S'.500'
p189
sg13
S'0.0'
p190
sg14
g15
sg16
S'0.0'
p191
sg17
S'1.2'
p192
sg19
g20
sg21
S'.250'
p193
sg25
S'NBA'
p194
sg27
S'0.3'
p195
sg31
S'1.2'
p196
sS'_fieldGoalsttempted'
p197
S'1.0'
p198
sg32
S'0.7'
p199
sg34
S'0.5'
p200
sg36
S'22'
p201
sg38
S'BOS'
p202
sg40
g30
sg41
S'0.3'
p203
sg42
S'0.5'
p204
sg43
S'0.2'
p205
sg45
S'1.0'
p206
sg46
S'0.5'
p207
sg47
S'2012-13'
p208
sg49
S'0.5'
p209
sg50
S'0.2'
p210
sg51
S'.500'
p211
sg53
S'6.0'
p212
sg55
g9
sbsS'_weight'
p213
S'255'
p214
sS'_dob'
p215
S'20-6-1990'
p216
sS'_salary'
p217
(lp218
(isrc.gp1.models.Salary
Salary
p219
(dp220
g38
S'Boston Celtics'
p221
sg25
S'NBA'
p222
sg217
S'$1,254,720'
p223
sg47
S'2012-13'
p224
sba(isrc.gp1.models.Salary
Salary
p225
(dp226
g38
S'Memphis Grizzlies'
p227
sg25
S'NBA'
p228
sg217
S'$1,311,240'
p229
sg47
S'2013-14'
p230
sba(isrc.gp1.models.Salary
Salary
p231
(dp232
g38
S'Dallas Mavericks'
p233
sg25
S'NBA'
p234
sg217
S'$788,872'
p235
sg47
S'2013-14'
p236
sba(isrc.gp1.models.Salary
Salary
p237
(dp238
g38
S'Memphis Grizzlies'
p239
sg25
S'NBA'
p240
sg217
S'$437,080'
p241
sg47
S'2014-15'
p242
sbasg19
g20
sb.