(isrc.gp1.models.Player
Player
p0
(dp1
S'_experience'
p2
S'NA'
p3
sS'_totals'
p4
(lp5
(isrc.gp1.models.Totals
Totals
p6
(dp7
S'_offensiveRebounds'
p8
S'109'
p9
sS'_threePointsAttempted'
p10
S'28'
p11
sS'_fieldGoalsPercentage'
p12
S'.450'
p13
sS'_assist'
p14
S'176'
p15
sS'_threePointsPercentage'
p16
S'.107'
p17
sS'_threePoints'
p18
S'3'
p19
sS'_points'
p20
S'1221'
p21
sS'_position'
p22
S'SG'
p23
sS'_freeThrowsPercentage'
p24
S'.839'
p25
sS'_effectiveFieldGoalPercentage'
p26
S'.451'
p27
sS'_league'
p28
S'NBA'
p29
sS'_steals'
p30
S'125'
p31
sS'_fieldGoalsAttempted'
p32
S'1145'
p33
sS'_personalFouls'
p34
S'213'
p35
sS'_freeThrowsAttempted'
p36
S'224'
p37
sS'_totalRebounds'
p38
S'280'
p39
sS'_age'
p40
S'21'
p41
sS'_team'
p42
S'BOS'
p43
sS'_games'
p44
S'80'
p45
sS'_blocks'
p46
S'17'
p47
sS'_twoPoints'
p48
S'512'
p49
sS'_freeThrows'
p50
S'188'
p51
sS'_twoPointsAttempted'
p52
S'1117'
p53
sS'_defensiveRebounds'
p54
S'171'
p55
sS'_season'
p56
S'1997-98'
p57
sS'_fieldGoals'
p58
S'515'
p59
sS'_turnOvers'
p60
S'132'
p61
sS'_twoPointsPercentage'
p62
S'.458'
p63
sS'_minutesPlayed'
p64
S'2662'
p65
sS'_gamesStarted'
p66
S'62'
p67
sba(isrc.gp1.models.Totals
Totals
p68
(dp69
g8
S'37'
p70
sg10
S'30'
p71
sg12
S'.431'
p72
sg14
S'104'
p73
sg16
S'.167'
p74
sg18
S'5'
p75
sg20
S'698'
p76
sg22
S'SG'
p77
sg24
S'.790'
p78
sg26
S'.435'
p79
sg28
S'NBA'
p80
sg30
S'67'
p81
sg32
S'707'
p82
sg34
S'81'
p83
sg36
S'105'
p84
sg38
S'155'
p85
sg40
S'22'
p86
sg42
S'BOS'
p87
sg44
S'41'
p88
sg46
S'12'
p89
sg48
S'300'
p90
sg50
S'83'
p91
sg52
S'677'
p92
sg54
S'118'
p93
sg56
S'1998-99'
p94
sg58
S'305'
p95
sg60
S'89'
p96
sg62
S'.443'
p97
sg64
S'1551'
p98
sg66
S'40'
p99
sba(isrc.gp1.models.Totals
Totals
p100
(dp101
g8
S'64'
p102
sg10
S'48'
p103
sg12
S'.426'
p104
sg14
S'158'
p105
sg16
S'.313'
p106
sg18
S'15'
p107
sg20
S'1148'
p108
sg22
S'SG'
p109
sg24
S'.789'
p110
sg26
S'.433'
p111
sg28
S'NBA'
p112
sg30
S'75'
p113
sg32
S'1080'
p114
sg34
S'151'
p115
sg36
S'270'
p116
sg38
S'250'
p117
sg40
S'23'
p118
sg42
S'TOT'
p119
sg44
S'68'
p120
sg46
S'23'
p121
sg48
S'445'
p122
sg50
S'213'
p123
sg52
S'1032'
p124
sg54
S'186'
p125
sg56
S'1999-00'
p126
sg58
S'460'
p127
sg60
S'151'
p128
sg62
S'.431'
p129
sg64
S'2377'
p130
sg66
S'68'
p131
sba(isrc.gp1.models.Totals
Totals
p132
(dp133
g8
S'29'
p134
sg10
S'39'
p135
sg12
S'.444'
p136
sg14
S'104'
p137
sg16
S'.385'
p138
sg18
S'15'
p139
sg20
S'678'
p140
sg22
S'SG'
p141
sg24
S'.788'
p142
sg26
S'.457'
p143
sg28
S'NBA'
p144
sg30
S'33'
p145
sg32
S'612'
p146
sg34
S'75'
p147
sg36
S'151'
p148
sg38
S'152'
p149
sg40
S'23'
p150
sg42
S'DEN'
p151
sg44
S'37'
p152
sg46
S'15'
p153
sg48
S'257'
p154
sg50
S'119'
p155
sg52
S'573'
p156
sg54
S'123'
p157
sg56
S'1999-00'
p158
sg58
S'272'
p159
sg60
S'87'
p160
sg62
S'.449'
p161
sg64
S'1408'
p162
sg66
S'37'
p163
sba(isrc.gp1.models.Totals
Totals
p164
(dp165
g8
S'35'
p166
sg10
S'9'
p167
sg12
S'.402'
p168
sg14
S'54'
p169
sg16
S'.000'
p170
sg18
S'0'
p171
sg20
S'470'
p172
sg22
S'SG'
p173
sg24
S'.790'
p174
sg26
S'.402'
p175
sg28
S'NBA'
p176
sg30
S'42'
p177
sg32
S'468'
p178
sg34
S'76'
p179
sg36
S'119'
p180
sg38
S'98'
p181
sg40
S'23'
p182
sg42
S'ORL'
p183
sg44
S'31'
p184
sg46
S'8'
p185
sg48
S'188'
p186
sg50
S'94'
p187
sg52
S'459'
p188
sg54
S'63'
p189
sg56
S'1999-00'
p190
sg58
S'188'
p191
sg60
S'64'
p192
sg62
S'.410'
p193
sg64
S'969'
p194
sg66
S'31'
p195
sba(isrc.gp1.models.Totals
Totals
p196
(dp197
g8
S'72'
p198
sg10
S'46'
p199
sg12
S'.446'
p200
sg14
S'201'
p201
sg16
S'.304'
p202
sg18
S'14'
p203
sg20
S'1202'
p204
sg22
S'SG'
p205
sg24
S'.825'
p206
sg26
S'.452'
p207
sg28
S'NBA'
p208
sg30
S'78'
p209
sg32
S'1121'
p210
sg34
S'148'
p211
sg36
S'228'
p212
sg38
S'236'
p213
sg40
S'24'
p214
sg42
S'CHI'
p215
sg44
S'61'
p216
sg46
S'27'
p217
sg48
S'486'
p218
sg50
S'188'
p219
sg52
S'1075'
p220
sg54
S'164'
p221
sg56
S'2000-01'
p222
sg58
S'500'
p223
sg60
S'129'
p224
sg62
S'.452'
p225
sg64
S'2535'
p226
sg66
S'61'
p227
sba(isrc.gp1.models.Totals
Totals
p228
(dp229
g8
S'50'
p230
sg10
S'62'
p231
sg12
S'.397'
p232
sg14
S'128'
p233
sg16
S'.290'
p234
sg18
S'18'
p235
sg20
S'735'
p236
sg22
S'SG'
p237
sg24
S'.798'
p238
sg26
S'.408'
p239
sg28
S'NBA'
p240
sg30
S'32'
p241
sg32
S'784'
p242
sg34
S'108'
p243
sg36
S'119'
p244
sg38
S'178'
p245
sg40
S'25'
p246
sg42
S'TOT'
p247
sg44
S'53'
p248
sg46
S'13'
p249
sg48
S'293'
p250
sg50
S'95'
p251
sg52
S'722'
p252
sg54
S'128'
p253
sg56
S'2001-02'
p254
sg58
S'311'
p255
sg60
S'88'
p256
sg62
S'.406'
p257
sg64
S'1716'
p258
sg66
S'41'
p259
sba(isrc.gp1.models.Totals
Totals
p260
(dp261
g8
S'44'
p262
sg10
S'57'
p263
sg12
S'.399'
p264
sg14
S'118'
p265
sg16
S'.298'
p266
sg18
S'17'
p267
sg20
S'673'
p268
sg22
S'SG'
p269
sg24
S'.778'
p270
sg26
S'.411'
p271
sg28
S'NBA'
p272
sg30
S'30'
p273
sg32
S'717'
p274
sg34
S'86'
p275
sg36
S'108'
p276
sg38
S'155'
p277
sg40
S'25'
p278
sg42
S'CHI'
p279
sg44
S'40'
p280
sg46
S'10'
p281
sg48
S'269'
p282
sg50
S'84'
p283
sg52
S'660'
p284
sg54
S'111'
p285
sg56
S'2001-02'
p286
sg58
S'286'
p287
sg60
S'79'
p288
sg62
S'.408'
p289
sg64
S'1503'
p290
sg66
S'40'
p291
sba(isrc.gp1.models.Totals
Totals
p292
(dp293
g8
S'6'
p294
sg10
g75
sg12
S'.373'
p295
sg14
S'10'
p296
sg16
S'.200'
p297
sg18
S'1'
p298
sg20
S'62'
p299
sg22
S'SG'
p300
sg24
S'1.000'
p301
sg26
S'.381'
p302
sg28
S'NBA'
p303
sg30
S'2'
p304
sg32
S'67'
p305
sg34
S'22'
p306
sg36
S'11'
p307
sg38
S'23'
p308
sg40
S'25'
p309
sg42
S'IND'
p310
sg44
S'13'
p311
sg46
g19
sg48
S'24'
p312
sg50
S'11'
p313
sg52
S'62'
p314
sg54
S'17'
p315
sg56
S'2001-02'
p316
sg58
S'25'
p317
sg60
g167
sg62
S'.387'
p318
sg64
S'213'
p319
sg66
g298
sba(isrc.gp1.models.Totals
Totals
p320
(dp321
g8
S'32'
p322
sg10
S'16'
p323
sg12
S'.409'
p324
sg14
S'112'
p325
sg16
S'.188'
p326
sg18
g19
sg20
S'556'
p327
sg22
S'SG'
p328
sg24
S'.802'
p329
sg26
S'.411'
p330
sg28
S'NBA'
p331
sg30
S'49'
p332
sg32
S'597'
p333
sg34
S'123'
p334
sg36
S'81'
p335
sg38
S'154'
p336
sg40
S'26'
p337
sg42
S'IND'
p338
sg44
S'72'
p339
sg46
S'14'
p340
sg48
S'241'
p341
sg50
S'65'
p342
sg52
S'581'
p343
sg54
S'122'
p344
sg56
S'2002-03'
p345
sg58
S'244'
p346
sg60
S'54'
p347
sg62
S'.415'
p348
sg64
S'1671'
p349
sg66
g19
sba(isrc.gp1.models.Totals
Totals
p350
(dp351
g8
S'10'
p352
sg10
S'7'
p353
sg12
S'.427'
p354
sg14
S'22'
p355
sg16
S'.286'
p356
sg18
g304
sg20
S'195'
p357
sg22
S'SG'
p358
sg24
S'.765'
p359
sg26
S'.431'
p360
sg28
S'NBA'
p361
sg30
S'14'
p362
sg32
S'211'
p363
sg34
S'37'
p364
sg36
S'17'
p365
sg38
S'49'
p366
sg40
S'27'
p367
sg42
S'SAS'
p368
sg44
S'39'
p369
sg46
g75
sg48
S'88'
p370
sg50
S'13'
p371
sg52
S'204'
p372
sg54
S'39'
p373
sg56
S'2003-04'
p374
sg58
S'90'
p375
sg60
S'26'
p376
sg62
S'.431'
p377
sg64
S'516'
p378
sg66
g171
sba(isrc.gp1.models.Totals
Totals
p379
(dp380
g8
g167
sg10
g19
sg12
S'.411'
p381
sg14
S'20'
p382
sg16
S'.000'
p383
sg18
g171
sg20
S'137'
p384
sg22
S'SF'
p385
sg24
S'.700'
p386
sg26
S'.411'
p387
sg28
S'NBA'
p388
sg30
S'16'
p389
sg32
S'158'
p390
sg34
S'20'
p391
sg36
S'10'
p392
sg38
S'40'
p393
sg40
S'28'
p394
sg42
S'NJN'
p395
sg44
S'18'
p396
sg46
g304
sg48
S'65'
p397
sg50
g353
sg52
S'155'
p398
sg54
S'31'
p399
sg56
S'2004-05'
p400
sg58
S'65'
p401
sg60
S'14'
p402
sg62
S'.419'
p403
sg64
S'390'
p404
sg66
g19
sbasS'_college'
p405
S'University of Kentucky'
p406
sS'_toYear'
p407
S'2005'
p408
sS'_height'
p409
S'6-7'
p410
sS'_active'
p411
I00
sS'_shootingHand'
p412
VRight
p413
sS'_name'
p414
S'Ron Mercer'
p415
sS'_per100Possessions'
p416
(lp417
(isrc.gp1.models.Per100Possession
Per100Possession
p418
(dp419
g8
S'2.1'
p420
sg10
S'0.5'
p421
sg12
S'.450'
p422
sS'_offensiveRating'
p423
S'103'
p424
sg14
S'3.4'
p425
sg16
S'.107'
p426
sg18
S'0.1'
p427
sg20
S'23.6'
p428
sg22
S'SG'
p429
sS'_defensiveRating'
p430
S'108'
p431
sg24
S'.839'
p432
sg28
S'NBA'
p433
sg30
S'2.4'
p434
sg32
S'22.1'
p435
sg34
S'4.1'
p436
sg36
S'4.3'
p437
sg38
S'5.4'
p438
sg40
S'21'
p439
sg42
S'BOS'
p440
sg44
S'80'
p441
sg46
S'0.3'
p442
sg48
S'9.9'
p443
sg50
S'3.6'
p444
sg52
S'21.6'
p445
sg54
S'3.3'
p446
sg56
S'1997-98'
p447
sg58
S'10.0'
p448
sg60
S'2.6'
p449
sg62
S'.458'
p450
sg64
S'2662'
p451
sg66
S'62'
p452
sba(isrc.gp1.models.Per100Possession
Per100Possession
p453
(dp454
g8
S'1.3'
p455
sg10
S'1.0'
p456
sg12
S'.431'
p457
sg423
S'94'
p458
sg14
S'3.5'
p459
sg16
S'.167'
p460
sg18
S'0.2'
p461
sg20
S'23.6'
p462
sg22
S'SG'
p463
sg430
S'104'
p464
sg24
S'.790'
p465
sg28
S'NBA'
p466
sg30
S'2.3'
p467
sg32
S'23.9'
p468
sg34
S'2.7'
p469
sg36
S'3.6'
p470
sg38
S'5.2'
p471
sg40
S'22'
p472
sg42
S'BOS'
p473
sg44
S'41'
p474
sg46
S'0.4'
p475
sg48
S'10.1'
p476
sg50
S'2.8'
p477
sg52
S'22.9'
p478
sg54
S'4.0'
p479
sg56
S'1998-99'
p480
sg58
S'10.3'
p481
sg60
S'3.0'
p482
sg62
S'.443'
p483
sg64
S'1551'
p484
sg66
S'40'
p485
sba(isrc.gp1.models.Per100Possession
Per100Possession
p486
(dp487
g8
S'1.3'
p488
sg10
S'1.0'
p489
sg12
S'.426'
p490
sg423
S'96'
p491
sg14
S'3.3'
p492
sg16
S'.313'
p493
sg18
S'0.3'
p494
sg20
S'24.2'
p495
sg22
S'SG'
p496
sg430
S'107'
p497
sg24
S'.789'
p498
sg28
S'NBA'
p499
sg30
S'1.6'
p500
sg32
S'22.8'
p501
sg34
S'3.2'
p502
sg36
S'5.7'
p503
sg38
S'5.3'
p504
sg40
S'23'
p505
sg42
S'TOT'
p506
sg44
S'68'
p507
sg46
S'0.5'
p508
sg48
S'9.4'
p509
sg50
S'4.5'
p510
sg52
S'21.8'
p511
sg54
S'3.9'
p512
sg56
S'1999-00'
p513
sg58
S'9.7'
p514
sg60
S'3.2'
p515
sg62
S'.431'
p516
sg64
S'2377'
p517
sg66
S'68'
p518
sba(isrc.gp1.models.Per100Possession
Per100Possession
p519
(dp520
g8
S'1.0'
p521
sg10
S'1.4'
p522
sg12
S'.444'
p523
sg423
S'99'
p524
sg14
S'3.7'
p525
sg16
S'.385'
p526
sg18
S'0.5'
p527
sg20
S'24.4'
p528
sg22
S'SG'
p529
sg430
S'109'
p530
sg24
S'.788'
p531
sg28
S'NBA'
p532
sg30
S'1.2'
p533
sg32
S'22.0'
p534
sg34
S'2.7'
p535
sg36
S'5.4'
p536
sg38
S'5.5'
p537
sg40
S'23'
p538
sg42
S'DEN'
p539
sg44
S'37'
p540
sg46
S'0.5'
p541
sg48
S'9.2'
p542
sg50
S'4.3'
p543
sg52
S'20.6'
p544
sg54
S'4.4'
p545
sg56
S'1999-00'
p546
sg58
S'9.8'
p547
sg60
S'3.1'
p548
sg62
S'.449'
p549
sg64
S'1408'
p550
sg66
S'37'
p551
sba(isrc.gp1.models.Per100Possession
Per100Possession
p552
(dp553
g8
S'1.8'
p554
sg10
S'0.5'
p555
sg12
S'.402'
p556
sg423
S'93'
p557
sg14
S'2.7'
p558
sg16
S'.000'
p559
sg18
S'0.0'
p560
sg20
S'23.9'
p561
sg22
S'SG'
p562
sg430
S'104'
p563
sg24
S'.790'
p564
sg28
S'NBA'
p565
sg30
S'2.1'
p566
sg32
S'23.8'
p567
sg34
S'3.9'
p568
sg36
S'6.1'
p569
sg38
S'5.0'
p570
sg40
S'23'
p571
sg42
S'ORL'
p572
sg44
S'31'
p573
sg46
S'0.4'
p574
sg48
S'9.6'
p575
sg50
S'4.8'
p576
sg52
S'23.4'
p577
sg54
S'3.2'
p578
sg56
S'1999-00'
p579
sg58
S'9.6'
p580
sg60
S'3.3'
p581
sg62
S'.410'
p582
sg64
S'969'
p583
sg66
S'31'
p584
sba(isrc.gp1.models.Per100Possession
Per100Possession
p585
(dp586
g8
S'1.5'
p587
sg10
S'1.0'
p588
sg12
S'.446'
p589
sg423
S'99'
p590
sg14
S'4.3'
p591
sg16
S'.304'
p592
sg18
S'0.3'
p593
sg20
S'25.5'
p594
sg22
S'SG'
p595
sg430
S'110'
p596
sg24
S'.825'
p597
sg28
S'NBA'
p598
sg30
S'1.7'
p599
sg32
S'23.8'
p600
sg34
S'3.1'
p601
sg36
S'4.8'
p602
sg38
S'5.0'
p603
sg40
S'24'
p604
sg42
S'CHI'
p605
sg44
S'61'
p606
sg46
S'0.6'
p607
sg48
S'10.3'
p608
sg50
S'4.0'
p609
sg52
S'22.8'
p610
sg54
S'3.5'
p611
sg56
S'2000-01'
p612
sg58
S'10.6'
p613
sg60
S'2.7'
p614
sg62
S'.452'
p615
sg64
S'2535'
p616
sg66
S'61'
p617
sba(isrc.gp1.models.Per100Possession
Per100Possession
p618
(dp619
g8
S'1.5'
p620
sg10
S'1.9'
p621
sg12
S'.397'
p622
sg423
S'90'
p623
sg14
S'3.9'
p624
sg16
S'.290'
p625
sg18
S'0.6'
p626
sg20
S'22.7'
p627
sg22
S'SG'
p628
sg430
S'111'
p629
sg24
S'.798'
p630
sg28
S'NBA'
p631
sg30
S'1.0'
p632
sg32
S'24.2'
p633
sg34
S'3.3'
p634
sg36
S'3.7'
p635
sg38
S'5.5'
p636
sg40
S'25'
p637
sg42
S'TOT'
p638
sg44
S'53'
p639
sg46
S'0.4'
p640
sg48
S'9.0'
p641
sg50
S'2.9'
p642
sg52
S'22.3'
p643
sg54
S'3.9'
p644
sg56
S'2001-02'
p645
sg58
S'9.6'
p646
sg60
S'2.7'
p647
sg62
S'.406'
p648
sg64
S'1716'
p649
sg66
S'41'
p650
sba(isrc.gp1.models.Per100Possession
Per100Possession
p651
(dp652
g8
S'1.6'
p653
sg10
S'2.0'
p654
sg12
S'.399'
p655
sg423
S'90'
p656
sg14
S'4.2'
p657
sg16
S'.298'
p658
sg18
S'0.6'
p659
sg20
S'23.7'
p660
sg22
S'SG'
p661
sg430
S'111'
p662
sg24
S'.778'
p663
sg28
S'NBA'
p664
sg30
S'1.1'
p665
sg32
S'25.3'
p666
sg34
S'3.0'
p667
sg36
S'3.8'
p668
sg38
S'5.5'
p669
sg40
S'25'
p670
sg42
S'CHI'
p671
sg44
S'40'
p672
sg46
S'0.4'
p673
sg48
S'9.5'
p674
sg50
S'3.0'
p675
sg52
S'23.3'
p676
sg54
S'3.9'
p677
sg56
S'2001-02'
p678
sg58
S'10.1'
p679
sg60
S'2.8'
p680
sg62
S'.408'
p681
sg64
S'1503'
p682
sg66
S'40'
p683
sba(isrc.gp1.models.Per100Possession
Per100Possession
p684
(dp685
g8
S'1.5'
p686
sg10
S'1.2'
p687
sg12
S'.373'
p688
sg423
S'89'
p689
sg14
S'2.5'
p690
sg16
S'.200'
p691
sg18
S'0.2'
p692
sg20
S'15.2'
p693
sg22
S'SG'
p694
sg430
S'109'
p695
sg24
S'1.000'
p696
sg28
S'NBA'
p697
sg30
S'0.5'
p698
sg32
S'16.4'
p699
sg34
S'5.4'
p700
sg36
S'2.7'
p701
sg38
S'5.6'
p702
sg40
S'25'
p703
sg42
S'IND'
p704
sg44
S'13'
p705
sg46
S'0.7'
p706
sg48
S'5.9'
p707
sg50
S'2.7'
p708
sg52
S'15.2'
p709
sg54
S'4.2'
p710
sg56
S'2001-02'
p711
sg58
S'6.1'
p712
sg60
S'2.2'
p713
sg62
S'.387'
p714
sg64
S'213'
p715
sg66
g298
sba(isrc.gp1.models.Per100Possession
Per100Possession
p716
(dp717
g8
S'1.0'
p718
sg10
S'0.5'
p719
sg12
S'.409'
p720
sg423
S'94'
p721
sg14
S'3.5'
p722
sg16
S'.188'
p723
sg18
S'0.1'
p724
sg20
S'17.4'
p725
sg22
S'SG'
p726
sg430
S'104'
p727
sg24
S'.802'
p728
sg28
S'NBA'
p729
sg30
S'1.5'
p730
sg32
S'18.7'
p731
sg34
S'3.9'
p732
sg36
S'2.5'
p733
sg38
S'4.8'
p734
sg40
S'26'
p735
sg42
S'IND'
p736
sg44
S'72'
p737
sg46
S'0.4'
p738
sg48
S'7.6'
p739
sg50
S'2.0'
p740
sg52
S'18.2'
p741
sg54
S'3.8'
p742
sg56
S'2002-03'
p743
sg58
S'7.7'
p744
sg60
S'1.7'
p745
sg62
S'.415'
p746
sg64
S'1671'
p747
sg66
g19
sba(isrc.gp1.models.Per100Possession
Per100Possession
p748
(dp749
g8
S'1.0'
p750
sg10
S'0.7'
p751
sg12
S'.427'
p752
sg423
S'88'
p753
sg14
S'2.3'
p754
sg16
S'.286'
p755
sg18
S'0.2'
p756
sg20
S'20.3'
p757
sg22
S'SG'
p758
sg430
S'98'
p759
sg24
S'.765'
p760
sg28
S'NBA'
p761
sg30
S'1.5'
p762
sg32
S'22.0'
p763
sg34
S'3.9'
p764
sg36
S'1.8'
p765
sg38
S'5.1'
p766
sg40
S'27'
p767
sg42
S'SAS'
p768
sg44
S'39'
p769
sg46
S'0.5'
p770
sg48
S'9.2'
p771
sg50
S'1.4'
p772
sg52
S'21.3'
p773
sg54
S'4.1'
p774
sg56
S'2003-04'
p775
sg58
S'9.4'
p776
sg60
S'2.7'
p777
sg62
S'.431'
p778
sg64
S'516'
p779
sg66
g171
sba(isrc.gp1.models.Per100Possession
Per100Possession
p780
(dp781
g8
S'1.2'
p782
sg10
S'0.4'
p783
sg12
S'.411'
p784
sg423
S'86'
p785
sg14
S'2.8'
p786
sg16
S'.000'
p787
sg18
S'0.0'
p788
sg20
S'18.9'
p789
sg22
S'SF'
p790
sg430
S'105'
p791
sg24
S'.700'
p792
sg28
S'NBA'
p793
sg30
S'2.2'
p794
sg32
S'21.8'
p795
sg34
S'2.8'
p796
sg36
S'1.4'
p797
sg38
S'5.5'
p798
sg40
S'28'
p799
sg42
S'NJN'
p800
sg44
S'18'
p801
sg46
S'0.3'
p802
sg48
S'9.0'
p803
sg50
S'1.0'
p804
sg52
S'21.4'
p805
sg54
S'4.3'
p806
sg56
S'2004-05'
p807
sg58
S'9.0'
p808
sg60
S'1.9'
p809
sg62
S'.419'
p810
sg64
S'390'
p811
sg66
g19
sbasS'_advanced'
p812
(lp813
(isrc.gp1.models.Advanced
Advanced
p814
(dp815
S'_offensiveReboundPercentage'
p816
S'4.4'
p817
sS'_turnOverPercentage'
p818
S'9.6'
p819
sS'_winSharesPer48Minutes'
p820
S'.073'
p821
sS'_stealPercentage'
p822
S'2.4'
p823
sS'_usagePercentage'
p824
S'22.3'
p825
sS'_totalReboundsPercentage'
p826
S'6.2'
p827
sS'_defensiveBoxPlusMinus'
p828
S'-1.1'
p829
sg22
S'SG'
p830
sS'_valueOverReplacementPlayer'
p831
S'0.0'
p832
sS'_trueShootingPercentage'
p833
S'.491'
p834
sS'_defensiveReboundPercentage'
p835
S'8.3'
p836
sS'_freeThrowsAttempRate'
p837
S'.196'
p838
sS'_threePointsAttempRate'
p839
S'.024'
p840
sg28
S'NBA'
p841
sS'_offensiveBoxPlusMinues'
p842
S'-0.9'
p843
sS'_assistPercentage'
p844
S'11.6'
p845
sS'_defensiveWinShares'
p846
S'1.9'
p847
sg40
S'21'
p848
sg42
S'BOS'
p849
sg44
S'80'
p850
sS'_blockPercentage'
p851
S'0.5'
p852
sS'_playerEfficiencyRating'
p853
S'14.1'
p854
sS'_offensiveWinShares'
p855
S'2.2'
p856
sg64
S'2662'
p857
sS'_boxPlusMinus'
p858
S'-2.0'
p859
sg56
S'1997-98'
p860
sS'_winShares'
p861
S'4.0'
p862
sba(isrc.gp1.models.Advanced
Advanced
p863
(dp864
g816
S'2.6'
p865
sg818
S'10.6'
p866
sg820
S'.039'
p867
sg822
S'2.3'
p868
sg824
S'24.2'
p869
sg826
S'5.6'
p870
sg828
S'-1.0'
p871
sg22
S'SG'
p872
sg831
S'-0.3'
p873
sg833
S'.463'
p874
sg835
S'8.8'
p875
sg837
S'.149'
p876
sg839
S'.042'
p877
sg28
S'NBA'
p878
sg842
S'-1.7'
p879
sg844
S'12.2'
p880
sg846
S'1.2'
p881
sg40
S'22'
p882
sg42
S'BOS'
p883
sg44
S'41'
p884
sg851
S'0.6'
p885
sg853
S'13.5'
p886
sg855
S'0.1'
p887
sg64
S'1551'
p888
sg858
S'-2.7'
p889
sg56
S'1998-99'
p890
sg861
S'1.3'
p891
sba(isrc.gp1.models.Advanced
Advanced
p892
(dp893
g816
S'2.9'
p894
sg818
S'11.2'
p895
sg820
S'.036'
p896
sg822
S'1.6'
p897
sg824
S'24.4'
p898
sg826
S'5.7'
p899
sg828
S'-1.3'
p900
sg22
S'SG'
p901
sg831
S'-0.6'
p902
sg833
S'.479'
p903
sg835
S'8.6'
p904
sg837
S'.250'
p905
sg839
S'.044'
p906
sg28
S'NBA'
p907
sg842
S'-1.7'
p908
sg844
S'11.3'
p909
sg846
S'1.6'
p910
sg40
S'23'
p911
sg42
S'TOT'
p912
sg44
S'68'
p913
sg851
S'0.7'
p914
sg853
S'12.7'
p915
sg855
S'0.2'
p916
sg64
S'2377'
p917
sg858
S'-3.0'
p918
sg56
S'1999-00'
p919
sg861
S'1.8'
p920
sba(isrc.gp1.models.Advanced
Advanced
p921
(dp922
g816
S'2.2'
p923
sg818
S'11.4'
p924
sg820
S'.040'
p925
sg822
S'1.2'
p926
sg824
S'23.7'
p927
sg826
S'5.9'
p928
sg828
S'-1.6'
p929
sg22
S'SG'
p930
sg831
S'-0.3'
p931
sg833
S'.500'
p932
sg835
S'9.6'
p933
sg837
S'.247'
p934
sg839
S'.064'
p935
sg28
S'NBA'
p936
sg842
S'-1.2'
p937
sg844
S'12.8'
p938
sg846
S'0.6'
p939
sg40
S'23'
p940
sg42
S'DEN'
p941
sg44
S'37'
p942
sg851
S'0.7'
p943
sg853
S'13.4'
p944
sg855
S'0.6'
p945
sg64
S'1408'
p946
sg858
S'-2.7'
p947
sg56
S'1999-00'
p948
sg861
S'1.2'
p949
sba(isrc.gp1.models.Advanced
Advanced
p950
(dp951
g816
S'3.9'
p952
sg818
S'11.0'
p953
sg820
S'.031'
p954
sg822
S'2.1'
p955
sg824
S'25.3'
p956
sg826
S'5.5'
p957
sg828
S'-0.9'
p958
sg22
S'SG'
p959
sg831
S'-0.3'
p960
sg833
S'.452'
p961
sg835
S'7.1'
p962
sg837
S'.254'
p963
sg839
S'.019'
p964
sg28
S'NBA'
p965
sg842
S'-2.5'
p966
sg844
S'9.2'
p967
sg846
S'1.0'
p968
sg40
S'23'
p969
sg42
S'ORL'
p970
sg44
S'31'
p971
sg851
S'0.6'
p972
sg853
S'11.8'
p973
sg855
S'-0.3'
p974
sg64
S'969'
p975
sg858
S'-3.4'
p976
sg56
S'1999-00'
p977
sg861
S'0.6'
p978
sba(isrc.gp1.models.Advanced
Advanced
p979
(dp980
g816
S'3.2'
p981
sg818
S'9.6'
p982
sg820
S'.035'
p983
sg822
S'1.7'
p984
sg824
S'24.8'
p985
sg826
S'5.5'
p986
sg828
S'-2.2'
p987
sg22
S'SG'
p988
sg831
S'-0.2'
p989
sg833
S'.492'
p990
sg835
S'8.0'
p991
sg837
S'.203'
p992
sg839
S'.041'
p993
sg28
S'NBA'
p994
sg842
S'-0.2'
p995
sg844
S'16.2'
p996
sg846
S'0.4'
p997
sg40
S'24'
p998
sg42
S'CHI'
p999
sg44
S'61'
p1000
sg851
S'0.8'
p1001
sg853
S'14.8'
p1002
sg855
S'1.5'
p1003
sg64
S'2535'
p1004
sg858
S'-2.3'
p1005
sg56
S'2000-01'
p1006
sg861
S'1.8'
p1007
sba(isrc.gp1.models.Advanced
Advanced
p1008
(dp1009
g816
S'3.3'
p1010
sg818
S'9.5'
p1011
sg820
S'-0.032'
p1012
sg822
S'1.0'
p1013
sg824
S'24.8'
p1014
sg826
S'6.0'
p1015
sg828
S'-2.4'
p1016
sg22
S'SG'
p1017
sg831
S'-1.3'
p1018
sg833
S'.439'
p1019
sg835
S'8.8'
p1020
sg837
S'.152'
p1021
sg839
S'.079'
p1022
sg28
S'NBA'
p1023
sg842
S'-2.7'
p1024
sg844
S'14.2'
p1025
sg846
S'0.4'
p1026
sg40
S'25'
p1027
sg42
S'TOT'
p1028
sg44
S'53'
p1029
sg851
S'0.6'
p1030
sg853
S'10.2'
p1031
sg855
S'-1.5'
p1032
sg64
S'1716'
p1033
sg858
S'-5.1'
p1034
sg56
S'2001-02'
p1035
sg861
S'-1.1'
p1036
sba(isrc.gp1.models.Advanced
Advanced
p1037
(dp1038
g816
S'3.3'
p1039
sg818
S'9.4'
p1040
sg820
S'-0.035'
p1041
sg822
S'1.1'
p1042
sg824
S'25.8'
p1043
sg826
S'6.0'
p1044
sg828
S'-2.5'
p1045
sg22
S'SG'
p1046
sg831
S'-1.1'
p1047
sg833
S'.440'
p1048
sg835
S'8.9'
p1049
sg837
S'.151'
p1050
sg839
S'.079'
p1051
sg28
S'NBA'
p1052
sg842
S'-2.4'
p1053
sg844
S'15.1'
p1054
sg846
S'0.3'
p1055
sg40
S'25'
p1056
sg42
S'CHI'
p1057
sg44
S'40'
p1058
sg851
S'0.5'
p1059
sg853
S'10.8'
p1060
sg855
S'-1.4'
p1061
sg64
S'1503'
p1062
sg858
S'-4.9'
p1063
sg56
S'2001-02'
p1064
sg861
S'-1.1'
p1065
sba(isrc.gp1.models.Advanced
Advanced
p1066
(dp1067
g816
S'3.3'
p1068
sg818
S'11.1'
p1069
sg820
S'-0.010'
p1070
sg822
S'0.5'
p1071
sg824
S'17.2'
p1072
sg826
S'6.1'
p1073
sg828
S'-1.8'
p1074
sg22
S'SG'
p1075
sg831
S'-0.3'
p1076
sg833
S'.432'
p1077
sg835
S'8.8'
p1078
sg837
S'.164'
p1079
sg839
S'.075'
p1080
sg28
S'NBA'
p1081
sg842
S'-4.9'
p1082
sg844
S'7.6'
p1083
sg846
S'0.1'
p1084
sg40
S'25'
p1085
sg42
S'IND'
p1086
sg44
S'13'
p1087
sg851
S'1.0'
p1088
sg853
S'6.0'
p1089
sg855
S'-0.2'
p1090
sg64
S'213'
p1091
sg858
S'-6.7'
p1092
sg56
S'2001-02'
p1093
sg861
S'0.0'
p1094
sba(isrc.gp1.models.Advanced
Advanced
p1095
(dp1096
g816
S'2.2'
p1097
sg818
S'7.9'
p1098
sg820
S'.037'
p1099
sg822
S'1.5'
p1100
sg824
S'18.6'
p1101
sg826
S'5.2'
p1102
sg828
S'-0.8'
p1103
sg22
S'SG'
p1104
sg831
S'-0.9'
p1105
sg833
S'.439'
p1106
sg835
S'8.0'
p1107
sg837
S'.136'
p1108
sg839
S'.027'
p1109
sg28
S'NBA'
p1110
sg842
S'-3.4'
p1111
sg844
S'11.5'
p1112
sg846
S'1.6'
p1113
sg40
S'26'
p1114
sg42
S'IND'
p1115
sg44
S'72'
p1116
sg851
S'0.6'
p1117
sg853
S'9.3'
p1118
sg855
S'-0.3'
p1119
sg64
S'1671'
p1120
sg858
S'-4.2'
p1121
sg56
S'2002-03'
p1122
sg861
S'1.3'
p1123
sba(isrc.gp1.models.Advanced
Advanced
p1124
(dp1125
g816
S'2.2'
p1126
sg818
S'10.6'
p1127
sg820
S'.040'
p1128
sg822
S'1.5'
p1129
sg824
S'21.9'
p1130
sg826
S'5.3'
p1131
sg828
S'-0.7'
p1132
sg22
S'SG'
p1133
sg831
S'-0.5'
p1134
sg833
S'.446'
p1135
sg835
S'8.3'
p1136
sg837
S'.081'
p1137
sg839
S'.033'
p1138
sg28
S'NBA'
p1139
sg842
S'-5.0'
p1140
sg844
S'7.8'
p1141
sg846
S'0.8'
p1142
sg40
S'27'
p1143
sg42
S'SAS'
p1144
sg44
S'39'
p1145
sg851
S'0.7'
p1146
sg853
S'9.3'
p1147
sg855
S'-0.4'
p1148
sg64
S'516'
p1149
sg858
S'-5.7'
p1150
sg56
S'2003-04'
p1151
sg861
S'0.4'
p1152
sba(isrc.gp1.models.Advanced
Advanced
p1153
(dp1154
g816
S'2.7'
p1155
sg818
S'7.9'
p1156
sg820
S'-0.007'
p1157
sg822
S'2.2'
p1158
sg824
S'21.2'
p1159
sg826
S'6.2'
p1160
sg828
S'-0.8'
p1161
sg22
S'SF'
p1162
sg831
S'-0.4'
p1163
sg833
S'.422'
p1164
sg835
S'9.7'
p1165
sg837
S'.063'
p1166
sg839
S'.019'
p1167
sg28
S'NBA'
p1168
sg842
S'-5.3'
p1169
sg844
S'9.8'
p1170
sg846
S'0.5'
p1171
sg40
S'28'
p1172
sg42
S'NJN'
p1173
sg44
S'18'
p1174
sg851
S'0.4'
p1175
sg853
S'9.4'
p1176
sg855
S'-0.5'
p1177
sg64
S'390'
p1178
sg858
S'-6.2'
p1179
sg56
S'2004-05'
p1180
sg861
S'-0.1'
p1181
sbasS'_per36Minutes'
p1182
(lp1183
(isrc.gp1.models.Per36Minutes
Per36Minutes
p1184
(dp1185
g8
S'1.5'
p1186
sg10
S'0.4'
p1187
sg12
S'.450'
p1188
sg14
S'2.4'
p1189
sg16
S'.107'
p1190
sg18
S'0.0'
p1191
sg20
S'16.5'
p1192
sg22
S'SG'
p1193
sg24
S'.839'
p1194
sg28
S'NBA'
p1195
sg30
S'1.7'
p1196
sg32
S'15.5'
p1197
sg34
S'2.9'
p1198
sg36
S'3.0'
p1199
sg38
S'3.8'
p1200
sg40
S'21'
p1201
sg42
S'BOS'
p1202
sg44
S'80'
p1203
sg46
S'0.2'
p1204
sg48
S'6.9'
p1205
sg50
S'2.5'
p1206
sg52
S'15.1'
p1207
sg54
S'2.3'
p1208
sg56
S'1997-98'
p1209
sg58
S'7.0'
p1210
sg60
S'1.8'
p1211
sg62
S'.458'
p1212
sg64
S'2662'
p1213
sg66
S'62'
p1214
sba(isrc.gp1.models.Per36Minutes
Per36Minutes
p1215
(dp1216
g8
S'0.9'
p1217
sg10
S'0.7'
p1218
sg12
S'.431'
p1219
sg14
S'2.4'
p1220
sg16
S'.167'
p1221
sg18
S'0.1'
p1222
sg20
S'16.2'
p1223
sg22
S'SG'
p1224
sg24
S'.790'
p1225
sg28
S'NBA'
p1226
sg30
S'1.6'
p1227
sg32
S'16.4'
p1228
sg34
S'1.9'
p1229
sg36
S'2.4'
p1230
sg38
S'3.6'
p1231
sg40
S'22'
p1232
sg42
S'BOS'
p1233
sg44
S'41'
p1234
sg46
S'0.3'
p1235
sg48
S'7.0'
p1236
sg50
S'1.9'
p1237
sg52
S'15.7'
p1238
sg54
S'2.7'
p1239
sg56
S'1998-99'
p1240
sg58
S'7.1'
p1241
sg60
S'2.1'
p1242
sg62
S'.443'
p1243
sg64
S'1551'
p1244
sg66
S'40'
p1245
sba(isrc.gp1.models.Per36Minutes
Per36Minutes
p1246
(dp1247
g8
S'1.0'
p1248
sg10
S'0.7'
p1249
sg12
S'.426'
p1250
sg14
S'2.4'
p1251
sg16
S'.313'
p1252
sg18
S'0.2'
p1253
sg20
S'17.4'
p1254
sg22
S'SG'
p1255
sg24
S'.789'
p1256
sg28
S'NBA'
p1257
sg30
S'1.1'
p1258
sg32
S'16.4'
p1259
sg34
S'2.3'
p1260
sg36
S'4.1'
p1261
sg38
S'3.8'
p1262
sg40
S'23'
p1263
sg42
S'TOT'
p1264
sg44
S'68'
p1265
sg46
S'0.3'
p1266
sg48
S'6.7'
p1267
sg50
S'3.2'
p1268
sg52
S'15.6'
p1269
sg54
S'2.8'
p1270
sg56
S'1999-00'
p1271
sg58
S'7.0'
p1272
sg60
S'2.3'
p1273
sg62
S'.431'
p1274
sg64
S'2377'
p1275
sg66
S'68'
p1276
sba(isrc.gp1.models.Per36Minutes
Per36Minutes
p1277
(dp1278
g8
S'0.7'
p1279
sg10
S'1.0'
p1280
sg12
S'.444'
p1281
sg14
S'2.7'
p1282
sg16
S'.385'
p1283
sg18
S'0.4'
p1284
sg20
S'17.3'
p1285
sg22
S'SG'
p1286
sg24
S'.788'
p1287
sg28
S'NBA'
p1288
sg30
S'0.8'
p1289
sg32
S'15.6'
p1290
sg34
S'1.9'
p1291
sg36
S'3.9'
p1292
sg38
S'3.9'
p1293
sg40
S'23'
p1294
sg42
S'DEN'
p1295
sg44
S'37'
p1296
sg46
S'0.4'
p1297
sg48
S'6.6'
p1298
sg50
S'3.0'
p1299
sg52
S'14.7'
p1300
sg54
S'3.1'
p1301
sg56
S'1999-00'
p1302
sg58
S'7.0'
p1303
sg60
S'2.2'
p1304
sg62
S'.449'
p1305
sg64
S'1408'
p1306
sg66
S'37'
p1307
sba(isrc.gp1.models.Per36Minutes
Per36Minutes
p1308
(dp1309
g8
S'1.3'
p1310
sg10
S'0.3'
p1311
sg12
S'.402'
p1312
sg14
S'2.0'
p1313
sg16
S'.000'
p1314
sg18
S'0.0'
p1315
sg20
S'17.5'
p1316
sg22
S'SG'
p1317
sg24
S'.790'
p1318
sg28
S'NBA'
p1319
sg30
S'1.6'
p1320
sg32
S'17.4'
p1321
sg34
S'2.8'
p1322
sg36
S'4.4'
p1323
sg38
S'3.6'
p1324
sg40
S'23'
p1325
sg42
S'ORL'
p1326
sg44
S'31'
p1327
sg46
S'0.3'
p1328
sg48
S'7.0'
p1329
sg50
S'3.5'
p1330
sg52
S'17.1'
p1331
sg54
S'2.3'
p1332
sg56
S'1999-00'
p1333
sg58
S'7.0'
p1334
sg60
S'2.4'
p1335
sg62
S'.410'
p1336
sg64
S'969'
p1337
sg66
S'31'
p1338
sba(isrc.gp1.models.Per36Minutes
Per36Minutes
p1339
(dp1340
g8
S'1.0'
p1341
sg10
S'0.7'
p1342
sg12
S'.446'
p1343
sg14
S'2.9'
p1344
sg16
S'.304'
p1345
sg18
S'0.2'
p1346
sg20
S'17.1'
p1347
sg22
S'SG'
p1348
sg24
S'.825'
p1349
sg28
S'NBA'
p1350
sg30
S'1.1'
p1351
sg32
S'15.9'
p1352
sg34
S'2.1'
p1353
sg36
S'3.2'
p1354
sg38
S'3.4'
p1355
sg40
S'24'
p1356
sg42
S'CHI'
p1357
sg44
S'61'
p1358
sg46
S'0.4'
p1359
sg48
S'6.9'
p1360
sg50
S'2.7'
p1361
sg52
S'15.3'
p1362
sg54
S'2.3'
p1363
sg56
S'2000-01'
p1364
sg58
S'7.1'
p1365
sg60
S'1.8'
p1366
sg62
S'.452'
p1367
sg64
S'2535'
p1368
sg66
S'61'
p1369
sba(isrc.gp1.models.Per36Minutes
Per36Minutes
p1370
(dp1371
g8
S'1.0'
p1372
sg10
S'1.3'
p1373
sg12
S'.397'
p1374
sg14
S'2.7'
p1375
sg16
S'.290'
p1376
sg18
S'0.4'
p1377
sg20
S'15.4'
p1378
sg22
S'SG'
p1379
sg24
S'.798'
p1380
sg28
S'NBA'
p1381
sg30
S'0.7'
p1382
sg32
S'16.4'
p1383
sg34
S'2.3'
p1384
sg36
S'2.5'
p1385
sg38
S'3.7'
p1386
sg40
S'25'
p1387
sg42
S'TOT'
p1388
sg44
S'53'
p1389
sg46
S'0.3'
p1390
sg48
S'6.1'
p1391
sg50
S'2.0'
p1392
sg52
S'15.1'
p1393
sg54
S'2.7'
p1394
sg56
S'2001-02'
p1395
sg58
S'6.5'
p1396
sg60
S'1.8'
p1397
sg62
S'.406'
p1398
sg64
S'1716'
p1399
sg66
S'41'
p1400
sba(isrc.gp1.models.Per36Minutes
Per36Minutes
p1401
(dp1402
g8
S'1.1'
p1403
sg10
S'1.4'
p1404
sg12
S'.399'
p1405
sg14
S'2.8'
p1406
sg16
S'.298'
p1407
sg18
S'0.4'
p1408
sg20
S'16.1'
p1409
sg22
S'SG'
p1410
sg24
S'.778'
p1411
sg28
S'NBA'
p1412
sg30
S'0.7'
p1413
sg32
S'17.2'
p1414
sg34
S'2.1'
p1415
sg36
S'2.6'
p1416
sg38
S'3.7'
p1417
sg40
S'25'
p1418
sg42
S'CHI'
p1419
sg44
S'40'
p1420
sg46
S'0.2'
p1421
sg48
S'6.4'
p1422
sg50
S'2.0'
p1423
sg52
S'15.8'
p1424
sg54
S'2.7'
p1425
sg56
S'2001-02'
p1426
sg58
S'6.9'
p1427
sg60
S'1.9'
p1428
sg62
S'.408'
p1429
sg64
S'1503'
p1430
sg66
S'40'
p1431
sba(isrc.gp1.models.Per36Minutes
Per36Minutes
p1432
(dp1433
g8
S'1.0'
p1434
sg10
S'0.8'
p1435
sg12
S'.373'
p1436
sg14
S'1.7'
p1437
sg16
S'.200'
p1438
sg18
S'0.2'
p1439
sg20
S'10.5'
p1440
sg22
S'SG'
p1441
sg24
S'1.000'
p1442
sg28
S'NBA'
p1443
sg30
S'0.3'
p1444
sg32
S'11.3'
p1445
sg34
S'3.7'
p1446
sg36
S'1.9'
p1447
sg38
S'3.9'
p1448
sg40
S'25'
p1449
sg42
S'IND'
p1450
sg44
S'13'
p1451
sg46
S'0.5'
p1452
sg48
S'4.1'
p1453
sg50
S'1.9'
p1454
sg52
S'10.5'
p1455
sg54
S'2.9'
p1456
sg56
S'2001-02'
p1457
sg58
S'4.2'
p1458
sg60
S'1.5'
p1459
sg62
S'.387'
p1460
sg64
S'213'
p1461
sg66
g298
sba(isrc.gp1.models.Per36Minutes
Per36Minutes
p1462
(dp1463
g8
S'0.7'
p1464
sg10
S'0.3'
p1465
sg12
S'.409'
p1466
sg14
S'2.4'
p1467
sg16
S'.188'
p1468
sg18
S'0.1'
p1469
sg20
S'12.0'
p1470
sg22
S'SG'
p1471
sg24
S'.802'
p1472
sg28
S'NBA'
p1473
sg30
S'1.1'
p1474
sg32
S'12.9'
p1475
sg34
S'2.6'
p1476
sg36
S'1.7'
p1477
sg38
S'3.3'
p1478
sg40
S'26'
p1479
sg42
S'IND'
p1480
sg44
S'72'
p1481
sg46
S'0.3'
p1482
sg48
S'5.2'
p1483
sg50
S'1.4'
p1484
sg52
S'12.5'
p1485
sg54
S'2.6'
p1486
sg56
S'2002-03'
p1487
sg58
S'5.3'
p1488
sg60
S'1.2'
p1489
sg62
S'.415'
p1490
sg64
S'1671'
p1491
sg66
g19
sba(isrc.gp1.models.Per36Minutes
Per36Minutes
p1492
(dp1493
g8
S'0.7'
p1494
sg10
S'0.5'
p1495
sg12
S'.427'
p1496
sg14
S'1.5'
p1497
sg16
S'.286'
p1498
sg18
S'0.1'
p1499
sg20
S'13.6'
p1500
sg22
S'SG'
p1501
sg24
S'.765'
p1502
sg28
S'NBA'
p1503
sg30
S'1.0'
p1504
sg32
S'14.7'
p1505
sg34
S'2.6'
p1506
sg36
S'1.2'
p1507
sg38
S'3.4'
p1508
sg40
S'27'
p1509
sg42
S'SAS'
p1510
sg44
S'39'
p1511
sg46
S'0.3'
p1512
sg48
S'6.1'
p1513
sg50
S'0.9'
p1514
sg52
S'14.2'
p1515
sg54
S'2.7'
p1516
sg56
S'2003-04'
p1517
sg58
S'6.3'
p1518
sg60
S'1.8'
p1519
sg62
S'.431'
p1520
sg64
S'516'
p1521
sg66
g171
sba(isrc.gp1.models.Per36Minutes
Per36Minutes
p1522
(dp1523
g8
S'0.8'
p1524
sg10
S'0.3'
p1525
sg12
S'.411'
p1526
sg14
S'1.8'
p1527
sg16
S'.000'
p1528
sg18
S'0.0'
p1529
sg20
S'12.6'
p1530
sg22
S'SF'
p1531
sg24
S'.700'
p1532
sg28
S'NBA'
p1533
sg30
S'1.5'
p1534
sg32
S'14.6'
p1535
sg34
S'1.8'
p1536
sg36
S'0.9'
p1537
sg38
S'3.7'
p1538
sg40
S'28'
p1539
sg42
S'NJN'
p1540
sg44
S'18'
p1541
sg46
S'0.2'
p1542
sg48
S'6.0'
p1543
sg50
S'0.6'
p1544
sg52
S'14.3'
p1545
sg54
S'2.9'
p1546
sg56
S'2004-05'
p1547
sg58
S'6.0'
p1548
sg60
S'1.3'
p1549
sg62
S'.419'
p1550
sg64
S'390'
p1551
sg66
g19
sbasS'_fromYear'
p1552
S'1998'
p1553
sS'_url'
p1554
S'http://www.basketball-reference.com/players/m/mercero01.html'
p1555
sS'_perGame'
p1556
(isrc.gp1.models.PerGame
PerGame
p1557
(dp1558
g8
S'0.5'
p1559
sg10
S'0.2'
p1560
sg12
S'.411'
p1561
sS'_effectiveFieldGalPercentage'
p1562
S'.411'
p1563
sg14
S'1.1'
p1564
sg16
S'.000'
p1565
sg18
S'0.0'
p1566
sg20
S'7.6'
p1567
sg22
S'SF'
p1568
sg24
S'.700'
p1569
sg28
S'NBA'
p1570
sg30
S'0.9'
p1571
sg34
S'1.1'
p1572
sS'_fieldGoalsttempted'
p1573
S'8.8'
p1574
sg36
S'0.6'
p1575
sg38
S'2.2'
p1576
sg40
S'28'
p1577
sg42
S'NJN'
p1578
sg44
S'18'
p1579
sg46
S'0.1'
p1580
sg48
S'3.6'
p1581
sg50
S'0.4'
p1582
sg52
S'8.6'
p1583
sg54
S'1.7'
p1584
sg56
S'2004-05'
p1585
sg58
S'3.6'
p1586
sg60
S'0.8'
p1587
sg62
S'.419'
p1588
sg64
S'21.7'
p1589
sg66
g19
sbsS'_weight'
p1590
S'210'
p1591
sS'_dob'
p1592
S'18-5-1976'
p1593
sS'_salary'
p1594
(lp1595
(isrc.gp1.models.Salary
Salary
p1596
(dp1597
g42
S'Boston Celtics'
p1598
sg28
S'NBA'
p1599
sg1594
S'$1,768,320'
p1600
sg56
S'1997-98'
p1601
sba(isrc.gp1.models.Salary
Salary
p1602
(dp1603
g42
S'Boston Celtics'
p1604
sg28
S'NBA'
p1605
sg1594
S'$2,033,000'
p1606
sg56
S'1998-99'
p1607
sba(isrc.gp1.models.Salary
Salary
p1608
(dp1609
g42
S'Orlando Magic'
p1610
sg28
S'NBA'
p1611
sg1594
S'$2,298,840'
p1612
sg56
S'1999-00'
p1613
sba(isrc.gp1.models.Salary
Salary
p1614
(dp1615
g42
S'Chicago Bulls'
p1616
sg28
S'NBA'
p1617
sg1594
S'$5,520,000'
p1618
sg56
S'2000-01'
p1619
sba(isrc.gp1.models.Salary
Salary
p1620
(dp1621
g42
S'Chicago Bulls'
p1622
sg28
S'NBA'
p1623
sg1594
S'$6,750,000'
p1624
sg56
S'2001-02'
p1625
sba(isrc.gp1.models.Salary
Salary
p1626
(dp1627
g42
S'Indiana Pacers'
p1628
sg28
S'NBA'
p1629
sg1594
S'$6,750,000'
p1630
sg56
S'2002-03'
p1631
sba(isrc.gp1.models.Salary
Salary
p1632
(dp1633
g42
S'San Antonio Spurs'
p1634
sg28
S'NBA'
p1635
sg1594
S'$6,750,000'
p1636
sg56
S'2003-04'
p1637
sba(isrc.gp1.models.Salary
Salary
p1638
(dp1639
g42
S'New Jersey Nets'
p1640
sg28
S'NBA'
p1641
sg1594
S'$1,600,000'
p1642
sg56
S'2004-05'
p1643
sba(isrc.gp1.models.Salary
Salary
p1644
(dp1645
g42
S'New Jersey Nets'
p1646
sg28
S'NBA'
p1647
sg1594
S'$1,760,000'
p1648
sg56
S'2005-06'
p1649
sbasg22
S'G-F'
p1650
sb.