(isrc.gp1.models.Player
Player
p0
(dp1
S'_experience'
p2
S'NA'
p3
sS'_totals'
p4
(lp5
(isrc.gp1.models.Totals
Totals
p6
(dp7
S'_offensiveRebounds'
p8
S'266'
p9
sS'_threePointsAttempted'
p10
S'0'
p11
sS'_fieldGoalsPercentage'
p12
S'.543'
p13
sS'_assist'
p14
S'41'
p15
sS'_threePointsPercentage'
p16
S'216'
p17
sS'_threePoints'
p18
g11
sS'_points'
p19
g3
sS'_position'
p20
S'PF'
p21
sS'_freeThrowsPercentage'
p22
S'126'
p23
sS'_effectiveFieldGoalPercentage'
p24
S'101'
p25
sS'_league'
p26
S'NBA'
p27
sS'_steals'
p28
S'32'
p29
sS'_fieldGoalsAttempted'
p30
S'398'
p31
sS'_personalFouls'
p32
S'533'
p33
sS'_freeThrowsAttempted'
p34
S'.737'
p35
sS'_totalRebounds'
p36
S'51'
p37
sS'_age'
p38
S'23'
p39
sS'_team'
p40
S'LAC'
p41
sS'_games'
p42
S'75'
p43
sS'_blocks'
p44
S'81'
p45
sS'_twoPoints'
p46
S'398'
p47
sS'_freeThrows'
p48
S'137'
p49
sS'_twoPointsAttempted'
p50
S'.543'
p51
sS'_defensiveRebounds'
p52
S'392'
p53
sS'_season'
p54
S'1984-85'
p55
sS'_fieldGoals'
p56
S'216'
p57
sS'_turnOvers'
p58
S'164'
p59
sS'_twoPointsPercentage'
p60
S'.543'
p61
sS'_minutesPlayed'
p62
S'1610'
p63
sS'_gamesStarted'
p64
S'41'
p65
sba(isrc.gp1.models.Totals
Totals
p66
(dp67
g8
S'168'
p68
sg10
S'3'
p69
sg12
S'.479'
p70
sg14
S'81'
p71
sg16
S'.000'
p72
sg18
g11
sg19
S'521'
p73
sg20
S'PF'
p74
sg22
S'.649'
p75
sg24
S'.479'
p76
sg26
S'NBA'
p77
sg28
S'62'
p78
sg30
S'426'
p79
sg32
S'176'
p80
sg34
S'174'
p81
sg36
S'417'
p82
sg38
S'24'
p83
sg40
S'LAC'
p84
sg42
S'78'
p85
sg44
S'34'
p86
sg46
S'204'
p87
sg48
S'113'
p88
sg50
S'423'
p89
sg52
S'249'
p90
sg54
S'1985-86'
p91
sg56
S'204'
p92
sg58
S'106'
p93
sg60
S'.482'
p94
sg62
S'1566'
p95
sg64
S'12'
p96
sba(isrc.gp1.models.Totals
Totals
p97
(dp98
g8
S'354'
p99
sg10
g69
sg12
S'.521'
p100
sg14
S'131'
p101
sg16
S'.000'
p102
sg18
g11
sg19
S'1255'
p103
sg20
S'PF'
p104
sg22
S'.730'
p105
sg24
S'.521'
p106
sg26
S'NBA'
p107
sg28
S'99'
p108
sg30
S'878'
p109
sg32
S'221'
p110
sg34
S'467'
p111
sg36
S'922'
p112
sg38
S'25'
p113
sg40
S'LAC'
p114
sg42
S'80'
p115
sg44
S'67'
p116
sg46
S'457'
p117
sg48
S'341'
p118
sg50
S'875'
p119
sg52
S'568'
p120
sg54
S'1986-87'
p121
sg56
S'457'
p122
sg58
S'171'
p123
sg60
S'.522'
p124
sg62
S'2922'
p125
sg64
S'76'
p126
sba(isrc.gp1.models.Totals
Totals
p127
(dp128
g8
S'371'
p129
sg10
S'1'
p130
sg12
S'.470'
p131
sg14
S'110'
p132
sg16
S'.000'
p133
sg18
g11
sg19
S'1046'
p134
sg20
S'PF'
p135
sg22
S'.688'
p136
sg24
S'.470'
p137
sg26
S'NBA'
p138
sg28
S'91'
p139
sg30
S'766'
p140
sg32
S'194'
p141
sg34
S'474'
p142
sg36
S'938'
p143
sg38
S'26'
p144
sg40
S'LAC'
p145
sg42
S'72'
p146
sg44
S'58'
p147
sg46
S'360'
p148
sg48
S'326'
p149
sg50
S'765'
p150
sg52
S'567'
p151
sg54
S'1987-88'
p152
sg56
S'360'
p153
sg58
S'160'
p154
sg60
S'.471'
p155
sg62
S'2660'
p156
sg64
S'70'
p157
sba(isrc.gp1.models.Totals
Totals
p158
(dp159
g8
S'276'
p160
sg10
S'4'
p161
sg12
S'.498'
p162
sg14
S'126'
p163
sg16
S'.000'
p164
sg18
g11
sg19
S'825'
p165
sg20
S'PF'
p166
sg22
S'.743'
p167
sg24
S'.498'
p168
sg26
S'NBA'
p169
sg28
S'92'
p170
sg30
S'630'
p171
sg32
S'184'
p172
sg34
S'265'
p173
sg36
S'765'
p174
sg38
S'27'
p175
sg40
S'SEA'
p176
sg42
S'80'
p177
sg44
S'52'
p178
sg46
S'314'
p179
sg48
S'197'
p180
sg50
S'626'
p181
sg52
S'489'
p182
sg54
S'1988-89'
p183
sg56
S'314'
p184
sg58
S'124'
p185
sg60
S'.502'
p186
sg62
S'2536'
p187
sg64
S'71'
p188
sba(isrc.gp1.models.Totals
Totals
p189
(dp190
g8
S'515'
p191
sg10
g11
sg12
S'.504'
p192
sg14
S'79'
p193
sg16
S'325'
p194
sg18
g11
sg19
g3
sg20
S'C'
p195
sg22
S'306'
p196
sg24
S'148'
p197
sg26
S'NBA'
p198
sg28
S'45'
p199
sg30
S'645'
p200
sg32
S'798'
p201
sg34
S'.698'
p202
sg36
S'70'
p203
sg38
S'28'
p204
sg40
S'SEA'
p205
sg42
S'82'
p206
sg44
S'94'
p207
sg46
S'645'
p208
sg48
S'212'
p209
sg50
S'.504'
p210
sg52
S'821'
p211
sg54
S'1989-90'
p212
sg56
S'325'
p213
sg58
S'232'
p214
sg60
S'.504'
p215
sg62
S'2595'
p216
sg64
S'82'
p217
sba(isrc.gp1.models.Totals
Totals
p218
(dp219
g8
S'177'
p220
sg10
g69
sg12
S'.508'
p221
sg14
S'89'
p222
sg16
S'.000'
p223
sg18
g11
sg19
S'522'
p224
sg20
g195
sg22
S'.625'
p225
sg24
S'.508'
p226
sg26
S'NBA'
p227
sg28
S'85'
p228
sg30
S'445'
p229
sg32
S'194'
p230
sg34
S'112'
p231
sg36
S'558'
p232
sg38
S'29'
p233
sg40
S'SEA'
p234
sg42
S'82'
p235
sg44
S'58'
p236
sg46
S'226'
p237
sg48
S'70'
p238
sg50
S'442'
p239
sg52
S'381'
p240
sg54
S'1990-91'
p241
sg56
S'226'
p242
sg58
S'83'
p243
sg60
S'.511'
p244
sg62
S'2141'
p245
sg64
S'55'
p246
sba(isrc.gp1.models.Totals
Totals
p247
(dp248
g8
S'266'
p249
sg10
S'5'
p250
sg12
S'.566'
p251
sg14
S'92'
p252
sg16
S'.000'
p253
sg18
g11
sg19
S'720'
p254
sg20
S'PF'
p255
sg22
S'.620'
p256
sg24
S'.566'
p257
sg26
S'NBA'
p258
sg28
S'99'
p259
sg30
S'542'
p260
sg32
S'237'
p261
sg34
S'171'
p262
sg36
S'728'
p263
sg38
S'30'
p264
sg40
S'SEA'
p265
sg42
S'82'
p266
sg44
S'55'
p267
sg46
S'307'
p268
sg48
S'106'
p269
sg50
S'537'
p270
sg52
S'462'
p271
sg54
S'1991-92'
p272
sg56
S'307'
p273
sg58
S'78'
p274
sg60
S'.572'
p275
sg62
S'2461'
p276
sg64
S'69'
p277
sba(isrc.gp1.models.Totals
Totals
p278
(dp279
g8
S'268'
p280
sg10
g130
sg12
S'.526'
p281
sg14
S'69'
p282
sg16
S'.000'
p283
sg18
g11
sg19
S'499'
p284
sg20
g195
sg22
S'.469'
p285
sg24
S'.526'
p286
sg26
S'NBA'
p287
sg28
S'76'
p288
sg30
S'416'
p289
sg32
S'183'
p290
sg34
S'130'
p291
sg36
S'659'
p292
sg38
S'31'
p293
sg40
S'SEA'
p294
sg42
S'82'
p295
sg44
S'46'
p296
sg46
S'219'
p297
sg48
S'61'
p298
sg50
S'415'
p299
sg52
S'391'
p300
sg54
S'1992-93'
p301
sg56
S'219'
p302
sg58
S'59'
p303
sg60
S'.528'
p304
sg62
S'2156'
p305
sg64
S'66'
p306
sba(isrc.gp1.models.Totals
Totals
p307
(dp308
g8
S'164'
p309
sg10
g130
sg12
S'.545'
p310
sg14
S'45'
p311
sg16
S'.000'
p312
sg18
g11
sg19
S'378'
p313
sg20
g195
sg22
S'.486'
p314
sg24
S'.545'
p315
sg26
S'NBA'
p316
sg28
S'77'
p317
sg30
S'314'
p318
sg32
S'179'
p319
sg34
S'74'
p320
sg36
S'444'
p321
sg38
S'32'
p322
sg40
S'SEA'
p323
sg42
S'82'
p324
sg44
S'38'
p325
sg46
S'171'
p326
sg48
S'36'
p327
sg50
S'313'
p328
sg52
S'280'
p329
sg54
S'1993-94'
p330
sg56
S'171'
p331
sg58
S'51'
p332
sg60
S'.546'
p333
sg62
S'1708'
p334
sg64
S'42'
p335
sba(isrc.gp1.models.Totals
Totals
p336
(dp337
g8
S'203'
p338
sg10
S'2'
p339
sg12
S'.521'
p340
sg14
S'56'
p341
sg16
S'.000'
p342
sg18
g11
sg19
S'407'
p343
sg20
g195
sg22
S'.602'
p344
sg24
S'.521'
p345
sg26
S'NBA'
p346
sg28
S'61'
p347
sg30
S'340'
p348
sg32
S'149'
p349
sg34
S'88'
p350
sg36
S'564'
p351
sg38
S'33'
p352
sg40
S'CLE'
p353
sg42
S'82'
p354
sg44
S'67'
p355
sg46
S'177'
p356
sg48
S'53'
p357
sg50
S'338'
p358
sg52
S'361'
p359
sg54
S'1994-95'
p360
sg56
S'177'
p361
sg58
S'56'
p362
sg60
S'.524'
p363
sg62
S'2040'
p364
sg64
S'21'
p365
sba(isrc.gp1.models.Totals
Totals
p366
(dp367
g8
S'288'
p368
sg10
g130
sg12
S'.556'
p369
sg14
S'53'
p370
sg16
S'.000'
p371
sg18
g11
sg19
S'490'
p372
sg20
g195
sg22
S'.543'
p373
sg24
S'.556'
p374
sg26
S'NBA'
p375
sg28
S'87'
p376
sg30
S'396'
p377
sg32
S'215'
p378
sg34
S'92'
p379
sg36
S'729'
p380
sg38
S'34'
p381
sg40
S'CLE'
p382
sg42
S'82'
p383
sg44
S'79'
p384
sg46
S'220'
p385
sg48
S'50'
p386
sg50
S'395'
p387
sg52
S'441'
p388
sg54
S'1995-96'
p389
sg56
S'220'
p390
sg58
S'54'
p391
sg60
S'.557'
p392
sg62
S'2631'
p393
sg64
S'80'
p394
sba(isrc.gp1.models.Totals
Totals
p395
(dp396
g8
S'208'
p397
sg10
g11
sg12
S'.468'
p398
sg14
S'48'
p399
sg16
S'66'
p400
sg18
g11
sg19
g3
sg20
g195
sg22
S'112'
p401
sg24
S'19'
p402
sg26
S'NBA'
p403
sg28
S'42'
p404
sg30
S'141'
p405
sg32
S'151'
p406
sg34
S'.463'
p407
sg36
S'43'
p408
sg38
S'35'
p409
sg40
S'PHI'
p410
sg42
S'82'
p411
sg44
S'17'
p412
sg46
S'141'
p413
sg48
S'41'
p414
sg50
S'.468'
p415
sg52
S'320'
p416
sg54
S'1996-97'
p417
sg56
S'66'
p418
sg58
S'118'
p419
sg60
S'.468'
p420
sg62
S'1247'
p421
sg64
S'24'
p422
sba(isrc.gp1.models.Totals
Totals
p423
(dp424
g8
S'115'
p425
sg10
g130
sg12
S'.512'
p426
sg14
S'32'
p427
sg16
S'.000'
p428
sg18
g11
sg19
S'106'
p429
sg20
g195
sg22
S'.556'
p430
sg24
S'.512'
p431
sg26
S'NBA'
p432
sg28
S'45'
p433
sg30
S'84'
p434
sg32
S'105'
p435
sg34
S'36'
p436
sg36
S'308'
p437
sg38
S'36'
p438
sg40
S'NJN'
p439
sg42
S'79'
p440
sg44
S'44'
p441
sg46
S'43'
p442
sg48
S'20'
p443
sg50
S'83'
p444
sg52
S'193'
p445
sg54
S'1997-98'
p446
sg56
S'43'
p447
sg58
S'23'
p448
sg60
S'.518'
p449
sg62
S'1201'
p450
sg64
S'17'
p451
sba(isrc.gp1.models.Totals
Totals
p452
(dp453
g8
g3
sg10
g3
sg12
g3
sg14
g3
sg16
g3
sg18
g3
sg19
g3
sg20
g3
sg22
g3
sg24
g3
sg26
g3
sg28
g3
sg30
g3
sg32
g3
sg34
g3
sg36
g3
sg38
S'37'
p454
sg40
S'Did Not Play\xc2\xa0(retired)'
p455
sg42
g3
sg44
g3
sg46
g3
sg48
g3
sg50
g3
sg52
g3
sg54
S'1998-99'
p456
sg56
g3
sg58
g3
sg60
g3
sg62
g3
sg64
g3
sba(isrc.gp1.models.Totals
Totals
p457
(dp458
g8
S'48'
p459
sg10
g11
sg12
S'.500'
p460
sg14
S'8'
p461
sg16
S'12'
p462
sg18
g11
sg19
g3
sg20
g195
sg22
S'33'
p463
sg24
g69
sg26
S'NBA'
p464
sg28
g461
sg30
S'24'
p465
sg32
S'27'
p466
sg34
S'1.000'
p467
sg36
S'9'
p468
sg38
S'38'
p469
sg40
S'NJN'
p470
sg42
S'20'
p471
sg44
g161
sg46
S'24'
p472
sg48
g69
sg50
S'.500'
p473
sg52
S'81'
p474
sg54
S'1999-00'
p475
sg56
S'12'
p476
sg58
S'30'
p477
sg60
S'.500'
p478
sg62
S'242'
p479
sg64
S'7'
p480
sbasS'_college'
p481
S'San Diego State University'
p482
sS'_toYear'
p483
S'2000'
p484
sS'_height'
p485
S'6-9'
p486
sS'_active'
p487
I00
sS'_shootingHand'
p488
VLeft
p489
sS'_name'
p490
S'Michael Cage'
p491
sS'_per100Possessions'
p492
(lp493
(isrc.gp1.models.Per100Possession
Per100Possession
p494
(dp495
g8
S'7.9'
p496
sg10
S'0.0'
p497
sg12
S'.543'
p498
sS'_offensiveRating'
p499
S'109'
p500
sg14
S'1.2'
p501
sg16
S'6.4'
p502
sg18
S'0.0'
p503
sg19
S'113'
p504
sg20
S'PF'
p505
sS'_defensiveRating'
p506
g3
sg22
S'3.7'
p507
sg26
S'NBA'
p508
sg28
S'0.9'
p509
sg30
S'11.8'
p510
sg32
S'15.7'
p511
sg34
S'.737'
p512
sg36
S'1.5'
p513
sg38
S'23'
p514
sg40
S'LAC'
p515
sg42
S'75'
p516
sg44
S'2.4'
p517
sg46
S'11.8'
p518
sg48
S'4.0'
p519
sg50
S'.543'
p520
sg52
S'11.6'
p521
sg54
S'1984-85'
p522
sg56
S'6.4'
p523
sg58
S'4.8'
p524
sg60
S'3.0'
p525
sg62
S'1610'
p526
sg64
S'41'
p527
sba(isrc.gp1.models.Per100Possession
Per100Possession
p528
(dp529
g8
S'5.0'
p530
sg10
S'0.1'
p531
sg12
S'.479'
p532
sg499
S'103'
p533
sg14
S'2.4'
p534
sg16
S'.000'
p535
sg18
S'0.0'
p536
sg19
S'15.5'
p537
sg20
S'PF'
p538
sg506
S'110'
p539
sg22
S'.649'
p540
sg26
S'NBA'
p541
sg28
S'1.9'
p542
sg30
S'12.7'
p543
sg32
S'5.3'
p544
sg34
S'5.2'
p545
sg36
S'12.4'
p546
sg38
S'24'
p547
sg40
S'LAC'
p548
sg42
S'78'
p549
sg44
S'1.0'
p550
sg46
S'6.1'
p551
sg48
S'3.4'
p552
sg50
S'12.6'
p553
sg52
S'7.4'
p554
sg54
S'1985-86'
p555
sg56
S'6.1'
p556
sg58
S'3.2'
p557
sg60
S'.482'
p558
sg62
S'1566'
p559
sg64
S'12'
p560
sba(isrc.gp1.models.Per100Possession
Per100Possession
p561
(dp562
g8
S'5.7'
p563
sg10
S'0.0'
p564
sg12
S'.521'
p565
sg499
S'115'
p566
sg14
S'2.1'
p567
sg16
S'.000'
p568
sg18
S'0.0'
p569
sg19
S'20.1'
p570
sg20
S'PF'
p571
sg506
S'110'
p572
sg22
S'.730'
p573
sg26
S'NBA'
p574
sg28
S'1.6'
p575
sg30
S'14.0'
p576
sg32
S'3.5'
p577
sg34
S'7.5'
p578
sg36
S'14.8'
p579
sg38
S'25'
p580
sg40
S'LAC'
p581
sg42
S'80'
p582
sg44
S'1.1'
p583
sg46
S'7.3'
p584
sg48
S'5.5'
p585
sg50
S'14.0'
p586
sg52
S'9.1'
p587
sg54
S'1986-87'
p588
sg56
S'7.3'
p589
sg58
S'2.7'
p590
sg60
S'.522'
p591
sg62
S'2922'
p592
sg64
S'76'
p593
sba(isrc.gp1.models.Per100Possession
Per100Possession
p594
(dp595
g8
S'6.6'
p596
sg10
S'0.0'
p597
sg12
S'.470'
p598
sg499
S'109'
p599
sg14
S'2.0'
p600
sg16
S'.000'
p601
sg18
S'0.0'
p602
sg19
S'18.7'
p603
sg20
S'PF'
p604
sg506
S'105'
p605
sg22
S'.688'
p606
sg26
S'NBA'
p607
sg28
S'1.6'
p608
sg30
S'13.7'
p609
sg32
S'3.5'
p610
sg34
S'8.5'
p611
sg36
S'16.8'
p612
sg38
S'26'
p613
sg40
S'LAC'
p614
sg42
S'72'
p615
sg44
S'1.0'
p616
sg46
S'6.4'
p617
sg48
S'5.8'
p618
sg50
S'13.7'
p619
sg52
S'10.1'
p620
sg54
S'1987-88'
p621
sg56
S'6.4'
p622
sg58
S'2.9'
p623
sg60
S'.471'
p624
sg62
S'2660'
p625
sg64
S'70'
p626
sba(isrc.gp1.models.Per100Possession
Per100Possession
p627
(dp628
g8
S'5.2'
p629
sg10
S'0.1'
p630
sg12
S'.498'
p631
sg499
S'116'
p632
sg14
S'2.4'
p633
sg16
S'.000'
p634
sg18
S'0.0'
p635
sg19
S'15.6'
p636
sg20
S'PF'
p637
sg506
S'107'
p638
sg22
S'.743'
p639
sg26
S'NBA'
p640
sg28
S'1.7'
p641
sg30
S'11.9'
p642
sg32
S'3.5'
p643
sg34
S'5.0'
p644
sg36
S'14.5'
p645
sg38
S'27'
p646
sg40
S'SEA'
p647
sg42
S'80'
p648
sg44
S'1.0'
p649
sg46
S'5.9'
p650
sg48
S'3.7'
p651
sg50
S'11.8'
p652
sg52
S'9.2'
p653
sg54
S'1988-89'
p654
sg56
S'5.9'
p655
sg58
S'2.3'
p656
sg60
S'.502'
p657
sg62
S'2536'
p658
sg64
S'71'
p659
sba(isrc.gp1.models.Per100Possession
Per100Possession
p660
(dp661
g8
S'10.0'
p662
sg10
S'0.0'
p663
sg12
S'.504'
p664
sg499
S'108'
p665
sg14
S'1.5'
p666
sg16
S'6.3'
p667
sg18
S'0.0'
p668
sg19
S'118'
p669
sg20
g195
sg506
g3
sg22
S'5.9'
p670
sg26
S'NBA'
p671
sg28
S'0.9'
p672
sg30
S'12.5'
p673
sg32
S'15.5'
p674
sg34
S'.698'
p675
sg36
S'1.4'
p676
sg38
S'28'
p677
sg40
S'SEA'
p678
sg42
S'82'
p679
sg44
S'1.8'
p680
sg46
S'12.5'
p681
sg48
S'4.1'
p682
sg50
S'.504'
p683
sg52
S'15.9'
p684
sg54
S'1989-90'
p685
sg56
S'6.3'
p686
sg58
S'4.5'
p687
sg60
S'2.9'
p688
sg62
S'2595'
p689
sg64
S'82'
p690
sba(isrc.gp1.models.Per100Possession
Per100Possession
p691
(dp692
g8
S'4.1'
p693
sg10
S'0.1'
p694
sg12
S'.508'
p695
sg499
S'110'
p696
sg14
S'2.1'
p697
sg16
S'.000'
p698
sg18
S'0.0'
p699
sg19
S'12.2'
p700
sg20
g195
sg506
S'106'
p701
sg22
S'.625'
p702
sg26
S'NBA'
p703
sg28
S'2.0'
p704
sg30
S'10.4'
p705
sg32
S'4.5'
p706
sg34
S'2.6'
p707
sg36
S'13.0'
p708
sg38
S'29'
p709
sg40
S'SEA'
p710
sg42
S'82'
p711
sg44
S'1.4'
p712
sg46
S'5.3'
p713
sg48
S'1.6'
p714
sg50
S'10.3'
p715
sg52
S'8.9'
p716
sg54
S'1990-91'
p717
sg56
S'5.3'
p718
sg58
S'1.9'
p719
sg60
S'.511'
p720
sg62
S'2141'
p721
sg64
S'55'
p722
sba(isrc.gp1.models.Per100Possession
Per100Possession
p723
(dp724
g8
S'5.4'
p725
sg10
S'0.1'
p726
sg12
S'.566'
p727
sg499
S'124'
p728
sg14
S'1.9'
p729
sg16
S'.000'
p730
sg18
S'0.0'
p731
sg19
S'14.7'
p732
sg20
S'PF'
p733
sg506
S'106'
p734
sg22
S'.620'
p735
sg26
S'NBA'
p736
sg28
S'2.0'
p737
sg30
S'11.1'
p738
sg32
S'4.8'
p739
sg34
S'3.5'
p740
sg36
S'14.9'
p741
sg38
S'30'
p742
sg40
S'SEA'
p743
sg42
S'82'
p744
sg44
S'1.1'
p745
sg46
S'6.3'
p746
sg48
S'2.2'
p747
sg50
S'11.0'
p748
sg52
S'9.4'
p749
sg54
S'1991-92'
p750
sg56
S'6.3'
p751
sg58
S'1.6'
p752
sg60
S'.572'
p753
sg62
S'2461'
p754
sg64
S'69'
p755
sba(isrc.gp1.models.Per100Possession
Per100Possession
p756
(dp757
g8
S'6.2'
p758
sg10
S'0.0'
p759
sg12
S'.526'
p760
sg499
S'119'
p761
sg14
S'1.6'
p762
sg16
S'.000'
p763
sg18
S'0.0'
p764
sg19
S'11.6'
p765
sg20
g195
sg506
S'104'
p766
sg22
S'.469'
p767
sg26
S'NBA'
p768
sg28
S'1.8'
p769
sg30
S'9.6'
p770
sg32
S'4.2'
p771
sg34
S'3.0'
p772
sg36
S'15.3'
p773
sg38
S'31'
p774
sg40
S'SEA'
p775
sg42
S'82'
p776
sg44
S'1.1'
p777
sg46
S'5.1'
p778
sg48
S'1.4'
p779
sg50
S'9.6'
p780
sg52
S'9.1'
p781
sg54
S'1992-93'
p782
sg56
S'5.1'
p783
sg58
S'1.4'
p784
sg60
S'.528'
p785
sg62
S'2156'
p786
sg64
S'66'
p787
sba(isrc.gp1.models.Per100Possession
Per100Possession
p788
(dp789
g8
S'4.8'
p790
sg10
S'0.0'
p791
sg12
S'.545'
p792
sg499
S'115'
p793
sg14
S'1.3'
p794
sg16
S'.000'
p795
sg18
S'0.0'
p796
sg19
S'11.2'
p797
sg20
g195
sg506
S'100'
p798
sg22
S'.486'
p799
sg26
S'NBA'
p800
sg28
S'2.3'
p801
sg30
S'9.3'
p802
sg32
S'5.3'
p803
sg34
S'2.2'
p804
sg36
S'13.1'
p805
sg38
S'32'
p806
sg40
S'SEA'
p807
sg42
S'82'
p808
sg44
S'1.1'
p809
sg46
S'5.1'
p810
sg48
S'1.1'
p811
sg50
S'9.2'
p812
sg52
S'8.3'
p813
sg54
S'1993-94'
p814
sg56
S'5.1'
p815
sg58
S'1.5'
p816
sg60
S'.546'
p817
sg62
S'1708'
p818
sg64
S'42'
p819
sba(isrc.gp1.models.Per100Possession
Per100Possession
p820
(dp821
g8
S'5.6'
p822
sg10
S'0.1'
p823
sg12
S'.521'
p824
sg499
S'115'
p825
sg14
S'1.6'
p826
sg16
S'.000'
p827
sg18
S'0.0'
p828
sg19
S'11.3'
p829
sg20
g195
sg506
S'102'
p830
sg22
S'.602'
p831
sg26
S'NBA'
p832
sg28
S'1.7'
p833
sg30
S'9.4'
p834
sg32
S'4.1'
p835
sg34
S'2.4'
p836
sg36
S'15.6'
p837
sg38
S'33'
p838
sg40
S'CLE'
p839
sg42
S'82'
p840
sg44
S'1.9'
p841
sg46
S'4.9'
p842
sg48
S'1.5'
p843
sg50
S'9.4'
p844
sg52
S'10.0'
p845
sg54
S'1994-95'
p846
sg56
S'4.9'
p847
sg58
S'1.6'
p848
sg60
S'.524'
p849
sg62
S'2040'
p850
sg64
S'21'
p851
sba(isrc.gp1.models.Per100Possession
Per100Possession
p852
(dp853
g8
S'6.4'
p854
sg10
S'0.0'
p855
sg12
S'.556'
p856
sg499
S'124'
p857
sg14
S'1.2'
p858
sg16
S'.000'
p859
sg18
S'0.0'
p860
sg19
S'10.9'
p861
sg20
g195
sg506
S'104'
p862
sg22
S'.543'
p863
sg26
S'NBA'
p864
sg28
S'1.9'
p865
sg30
S'8.8'
p866
sg32
S'4.8'
p867
sg34
S'2.0'
p868
sg36
S'16.2'
p869
sg38
S'34'
p870
sg40
S'CLE'
p871
sg42
S'82'
p872
sg44
S'1.8'
p873
sg46
S'4.9'
p874
sg48
S'1.1'
p875
sg50
S'8.8'
p876
sg52
S'9.8'
p877
sg54
S'1995-96'
p878
sg56
S'4.9'
p879
sg58
S'1.2'
p880
sg60
S'.557'
p881
sg62
S'2631'
p882
sg64
S'80'
p883
sba(isrc.gp1.models.Per100Possession
Per100Possession
p884
(dp885
g8
S'8.4'
p886
sg10
S'0.0'
p887
sg12
S'.468'
p888
sg499
S'109'
p889
sg14
S'1.9'
p890
sg16
S'2.7'
p891
sg18
S'0.0'
p892
sg19
S'118'
p893
sg20
g195
sg506
g3
sg22
S'4.5'
p894
sg26
S'NBA'
p895
sg28
S'1.7'
p896
sg30
S'5.7'
p897
sg32
S'6.1'
p898
sg34
S'.463'
p899
sg36
S'1.7'
p900
sg38
S'35'
p901
sg40
S'PHI'
p902
sg42
S'82'
p903
sg44
S'0.7'
p904
sg46
S'5.7'
p905
sg48
S'1.7'
p906
sg50
S'.468'
p907
sg52
S'12.9'
p908
sg54
S'1996-97'
p909
sg56
S'2.7'
p910
sg58
S'4.8'
p911
sg60
S'0.8'
p912
sg62
S'1247'
p913
sg64
S'24'
p914
sba(isrc.gp1.models.Per100Possession
Per100Possession
p915
(dp916
g8
S'5.0'
p917
sg10
S'0.0'
p918
sg12
S'.512'
p919
sg499
S'122'
p920
sg14
S'1.4'
p921
sg16
S'.000'
p922
sg18
S'0.0'
p923
sg19
S'4.7'
p924
sg20
g195
sg506
S'104'
p925
sg22
S'.556'
p926
sg26
S'NBA'
p927
sg28
S'2.0'
p928
sg30
S'3.7'
p929
sg32
S'4.6'
p930
sg34
S'1.6'
p931
sg36
S'13.5'
p932
sg38
S'36'
p933
sg40
S'NJN'
p934
sg42
S'79'
p935
sg44
S'1.9'
p936
sg46
S'1.9'
p937
sg48
S'0.9'
p938
sg50
S'3.6'
p939
sg52
S'8.5'
p940
sg54
S'1997-98'
p941
sg56
S'1.9'
p942
sg58
S'1.0'
p943
sg60
S'.518'
p944
sg62
S'1201'
p945
sg64
S'17'
p946
sba(isrc.gp1.models.Per100Possession
Per100Possession
p947
(dp948
g8
S'10.3'
p949
sg10
S'0.0'
p950
sg12
S'.500'
p951
sg499
S'103'
p952
sg14
S'1.7'
p953
sg16
S'2.6'
p954
sg18
S'0.0'
p955
sg19
S'134'
p956
sg20
g195
sg506
g3
sg22
S'7.1'
p957
sg26
S'NBA'
p958
sg28
S'1.7'
p959
sg30
S'5.1'
p960
sg32
S'5.8'
p961
sg34
S'1.000'
p962
sg36
S'1.9'
p963
sg38
S'38'
p964
sg40
S'NJN'
p965
sg42
S'20'
p966
sg44
S'0.9'
p967
sg46
S'5.1'
p968
sg48
S'0.6'
p969
sg50
S'.500'
p970
sg52
S'17.4'
p971
sg54
S'1999-00'
p972
sg56
S'2.6'
p973
sg58
S'6.4'
p974
sg60
S'0.6'
p975
sg62
S'242'
p976
sg64
g480
sbasS'_advanced'
p977
(lp978
(isrc.gp1.models.Advanced
Advanced
p979
(dp980
S'_offensiveReboundPercentage'
p981
S'9.0'
p982
sS'_turnOverPercentage'
p983
S'15.0'
p984
sS'_winSharesPer48Minutes'
p985
S'.096'
p986
sS'_stealPercentage'
p987
S'1.2'
p988
sS'_usagePercentage'
p989
S'13.7'
p990
sS'_totalReboundsPercentage'
p991
S'13.5'
p992
sS'_defensiveBoxPlusMinus'
p993
S'0.0'
p994
sg20
S'PF'
p995
sS'_valueOverReplacementPlayer'
p996
S'0.4'
p997
sS'_trueShootingPercentage'
p998
S'.582'
p999
sS'_defensiveReboundPercentage'
p1000
S'17.7'
p1001
sS'_freeThrowsAttempRate'
p1002
S'.344'
p1003
sS'_threePointsAttempRate'
p1004
S'.000'
p1005
sg26
S'NBA'
p1006
sS'_offensiveBoxPlusMinues'
p1007
S'-1.1'
p1008
sS'_assistPercentage'
p1009
S'4.2'
p1010
sS'_defensiveWinShares'
p1011
S'1.4'
p1012
sg38
S'23'
p1013
sg40
S'LAC'
p1014
sg42
S'75'
p1015
sS'_blockPercentage'
p1016
S'1.1'
p1017
sS'_playerEfficiencyRating'
p1018
S'12.5'
p1019
sS'_offensiveWinShares'
p1020
S'1.8'
p1021
sg62
S'1610'
p1022
sS'_boxPlusMinus'
p1023
S'-1.1'
p1024
sg54
S'1984-85'
p1025
sS'_winShares'
p1026
S'3.2'
p1027
sba(isrc.gp1.models.Advanced
Advanced
p1028
(dp1029
g981
S'11.7'
p1030
sg983
S'17.4'
p1031
sg985
S'.052'
p1032
sg987
S'1.9'
p1033
sg989
S'15.6'
p1034
sg991
S'14.7'
p1035
sg993
S'0.2'
p1036
sg20
S'PF'
p1037
sg996
S'0.3'
p1038
sg998
S'.518'
p1039
sg1000
S'17.8'
p1040
sg1002
S'.408'
p1041
sg1004
S'.007'
p1042
sg26
S'NBA'
p1043
sg1007
S'-1.5'
p1044
sg1009
S'7.1'
p1045
sg1011
S'1.0'
p1046
sg38
S'24'
p1047
sg40
S'LAC'
p1048
sg42
S'78'
p1049
sg1016
S'1.2'
p1050
sg1018
S'12.3'
p1051
sg1020
S'0.7'
p1052
sg62
S'1566'
p1053
sg1023
S'-1.3'
p1054
sg54
S'1985-86'
p1055
sg1026
S'1.7'
p1056
sba(isrc.gp1.models.Advanced
Advanced
p1057
(dp1058
g981
S'12.4'
p1059
sg983
S'13.6'
p1060
sg985
S'.119'
p1061
sg987
S'1.6'
p1062
sg989
S'17.1'
p1063
sg991
S'17.3'
p1064
sg993
S'0.6'
p1065
sg20
S'PF'
p1066
sg996
S'2.3'
p1067
sg998
S'.579'
p1068
sg1000
S'23.1'
p1069
sg1002
S'.532'
p1070
sg1004
S'.003'
p1071
sg26
S'NBA'
p1072
sg1007
S'0.5'
p1073
sg1009
S'6.6'
p1074
sg1011
S'2.4'
p1075
sg38
S'25'
p1076
sg40
S'LAC'
p1077
sg42
S'80'
p1078
sg1016
S'1.3'
p1079
sg1018
S'17.1'
p1080
sg1020
S'4.8'
p1081
sg62
S'2922'
p1082
sg1023
S'1.1'
p1083
sg54
S'1986-87'
p1084
sg1026
S'7.2'
p1085
sba(isrc.gp1.models.Advanced
Advanced
p1086
(dp1087
g981
S'14.3'
p1088
sg983
S'14.1'
p1089
sg985
S'.121'
p1090
sg987
S'1.6'
p1091
sg989
S'17.3'
p1092
sg991
S'18.8'
p1093
sg993
S'1.5'
p1094
sg20
S'PF'
p1095
sg996
S'1.9'
p1096
sg998
S'.537'
p1097
sg1000
S'23.5'
p1098
sg1002
S'.619'
p1099
sg1004
S'.001'
p1100
sg26
S'NBA'
p1101
sg1007
S'-0.7'
p1102
sg1009
S'6.2'
p1103
sg1011
S'3.8'
p1104
sg38
S'26'
p1105
sg40
S'LAC'
p1106
sg42
S'72'
p1107
sg1016
S'1.2'
p1108
sg1018
S'16.4'
p1109
sg1020
S'2.9'
p1110
sg62
S'2660'
p1111
sg1023
S'0.8'
p1112
sg54
S'1987-88'
p1113
sg1026
S'6.7'
p1114
sba(isrc.gp1.models.Advanced
Advanced
p1115
(dp1116
g981
S'11.8'
p1117
sg983
S'14.2'
p1118
sg985
S'.126'
p1119
sg987
S'1.7'
p1120
sg989
S'13.7'
p1121
sg991
S'16.9'
p1122
sg993
S'1.3'
p1123
sg20
S'PF'
p1124
sg996
S'2.3'
p1125
sg998
S'.553'
p1126
sg1000
S'22.3'
p1127
sg1002
S'.421'
p1128
sg1004
S'.006'
p1129
sg26
S'NBA'
p1130
sg1007
S'0.3'
p1131
sg1009
S'6.4'
p1132
sg1011
S'2.9'
p1133
sg38
S'27'
p1134
sg40
S'SEA'
p1135
sg42
S'80'
p1136
sg1016
S'1.2'
p1137
sg1018
S'14.7'
p1138
sg1020
S'3.7'
p1139
sg62
S'2536'
p1140
sg1023
S'1.6'
p1141
sg54
S'1988-89'
p1142
sg1026
S'6.7'
p1143
sba(isrc.gp1.models.Advanced
Advanced
p1144
(dp1145
g981
S'13.3'
p1146
sg983
S'11.3'
p1147
sg985
S'.125'
p1148
sg987
S'1.5'
p1149
sg989
S'13.4'
p1150
sg991
S'18.6'
p1151
sg993
S'0.7'
p1152
sg20
g195
sg996
S'2.0'
p1153
sg998
S'.540'
p1154
sg1000
S'24.2'
p1155
sg1002
S'.329'
p1156
sg1004
S'.000'
p1157
sg26
S'NBA'
p1158
sg1007
S'0.3'
p1159
sg1009
S'3.6'
p1160
sg1011
S'2.8'
p1161
sg38
S'28'
p1162
sg40
S'SEA'
p1163
sg42
S'82'
p1164
sg1016
S'1.1'
p1165
sg1018
S'14.5'
p1166
sg1020
S'3.9'
p1167
sg62
S'2595'
p1168
sg1023
S'1.0'
p1169
sg54
S'1989-90'
p1170
sg1026
S'6.8'
p1171
sba(isrc.gp1.models.Advanced
Advanced
p1172
(dp1173
g981
S'9.8'
p1174
sg983
S'14.4'
p1175
sg985
S'.097'
p1176
sg987
S'2.0'
p1177
sg989
S'11.3'
p1178
sg991
S'15.6'
p1179
sg993
S'2.0'
p1180
sg20
g195
sg996
S'1.6'
p1181
sg998
S'.528'
p1182
sg1000
S'21.6'
p1183
sg1002
S'.252'
p1184
sg1004
S'.007'
p1185
sg26
S'NBA'
p1186
sg1007
S'-1.0'
p1187
sg1009
S'5.4'
p1188
sg1011
S'2.7'
p1189
sg38
S'29'
p1190
sg40
S'SEA'
p1191
sg42
S'82'
p1192
sg1016
S'1.8'
p1193
sg1018
S'12.0'
p1194
sg1020
S'1.7'
p1195
sg62
S'2141'
p1196
sg1023
S'1.0'
p1197
sg54
S'1990-91'
p1198
sg1026
S'4.3'
p1199
sba(isrc.gp1.models.Advanced
Advanced
p1200
(dp1201
g981
S'12.2'
p1202
sg983
S'11.2'
p1203
sg985
S'.148'
p1204
sg987
S'2.0'
p1205
sg989
S'11.9'
p1206
sg991
S'17.1'
p1207
sg993
S'1.6'
p1208
sg20
S'PF'
p1209
sg996
S'2.9'
p1210
sg998
S'.583'
p1211
sg1000
S'22.1'
p1212
sg1002
S'.315'
p1213
sg1004
S'.009'
p1214
sg26
S'NBA'
p1215
sg1007
S'1.0'
p1216
sg1009
S'5.1'
p1217
sg1011
S'3.2'
p1218
sg38
S'30'
p1219
sg40
S'SEA'
p1220
sg42
S'82'
p1221
sg1016
S'1.4'
p1222
sg1018
S'15.0'
p1223
sg1020
S'4.4'
p1224
sg62
S'2461'
p1225
sg1023
S'2.6'
p1226
sg54
S'1991-92'
p1227
sg1026
S'7.6'
p1228
sba(isrc.gp1.models.Advanced
Advanced
p1229
(dp1230
g981
S'14.3'
p1231
sg983
S'11.1'
p1232
sg985
S'.137'
p1233
sg987
S'1.8'
p1234
sg989
S'10.4'
p1235
sg991
S'17.9'
p1236
sg993
S'1.7'
p1237
sg20
g195
sg996
S'2.0'
p1238
sg998
S'.527'
p1239
sg1000
S'21.6'
p1240
sg1002
S'.313'
p1241
sg1004
S'.002'
p1242
sg26
S'NBA'
p1243
sg1007
S'0.0'
p1244
sg1009
S'4.1'
p1245
sg1011
S'3.3'
p1246
sg38
S'31'
p1247
sg40
S'SEA'
p1248
sg42
S'82'
p1249
sg1016
S'1.4'
p1250
sg1018
S'13.2'
p1251
sg1020
S'2.9'
p1252
sg62
S'2156'
p1253
sg1023
S'1.7'
p1254
sg54
S'1992-93'
p1255
sg1026
S'6.2'
p1256
sba(isrc.gp1.models.Advanced
Advanced
p1257
(dp1258
g981
S'11.3'
p1259
sg983
S'12.8'
p1260
sg985
S'.137'
p1261
sg987
S'2.3'
p1262
sg989
S'10.0'
p1263
sg991
S'15.4'
p1264
sg993
S'1.9'
p1265
sg20
g195
sg996
S'1.2'
p1266
sg998
S'.545'
p1267
sg1000
S'19.5'
p1268
sg1002
S'.236'
p1269
sg1004
S'.003'
p1270
sg26
S'NBA'
p1271
sg1007
S'-1.2'
p1272
sg1009
S'3.5'
p1273
sg1011
S'3.0'
p1274
sg38
S'32'
p1275
sg40
S'SEA'
p1276
sg42
S'82'
p1277
sg1016
S'1.6'
p1278
sg1018
S'11.9'
p1279
sg1020
S'1.9'
p1280
sg62
S'1708'
p1281
sg1023
S'0.7'
p1282
sg54
S'1993-94'
p1283
sg1026
S'4.9'
p1284
sba(isrc.gp1.models.Advanced
Advanced
p1285
(dp1286
g981
S'12.1'
p1287
sg983
S'12.9'
p1288
sg985
S'.137'
p1289
sg987
S'1.7'
p1290
sg989
S'10.2'
p1291
sg991
S'17.3'
p1292
sg993
S'3.1'
p1293
sg20
g195
sg996
S'1.6'
p1294
sg998
S'.537'
p1295
sg1000
S'22.8'
p1296
sg1002
S'.259'
p1297
sg1004
S'.006'
p1298
sg26
S'NBA'
p1299
sg1007
S'-2.0'
p1300
sg1009
S'4.5'
p1301
sg1011
S'3.7'
p1302
sg38
S'33'
p1303
sg40
S'CLE'
p1304
sg42
S'82'
p1305
sg1016
S'2.6'
p1306
sg1018
S'13.5'
p1307
sg1020
S'2.1'
p1308
sg62
S'2040'
p1309
sg1023
S'1.1'
p1310
sg54
S'1994-95'
p1311
sg1026
S'5.8'
p1312
sba(isrc.gp1.models.Advanced
Advanced
p1313
(dp1314
g981
S'14.3'
p1315
sg983
S'11.0'
p1316
sg985
S'.148'
p1317
sg987
S'1.9'
p1318
sg989
S'9.4'
p1319
sg991
S'18.4'
p1320
sg993
S'2.4'
p1321
sg20
g195
sg996
S'2.3'
p1322
sg998
S'.561'
p1323
sg1000
S'22.7'
p1324
sg1002
S'.232'
p1325
sg1004
S'.003'
p1326
sg26
S'NBA'
p1327
sg1007
S'-0.9'
p1328
sg1009
S'3.3'
p1329
sg1011
S'4.0'
p1330
sg38
S'34'
p1331
sg40
S'CLE'
p1332
sg42
S'82'
p1333
sg1016
S'2.7'
p1334
sg1018
S'14.1'
p1335
sg1020
S'4.1'
p1336
sg62
S'2631'
p1337
sg1023
S'1.5'
p1338
sg54
S'1995-96'
p1339
sg1026
S'8.1'
p1340
sba(isrc.gp1.models.Advanced
Advanced
p1341
(dp1342
g981
S'9.6'
p1343
sg983
S'9.7'
p1344
sg985
S'.078'
p1345
sg987
S'1.9'
p1346
sg989
S'6.0'
p1347
sg991
S'14.0'
p1348
sg993
S'1.5'
p1349
sg20
g195
sg996
S'0.2'
p1350
sg998
S'.475'
p1351
sg1000
S'18.6'
p1352
sg1002
S'.291'
p1353
sg1004
S'.000'
p1354
sg26
S'NBA'
p1355
sg1007
S'-2.8'
p1356
sg1009
S'4.9'
p1357
sg1011
S'1.0'
p1358
sg38
S'35'
p1359
sg40
S'PHI'
p1360
sg42
S'82'
p1361
sg1016
S'2.4'
p1362
sg1018
S'10.3'
p1363
sg1020
S'1.0'
p1364
sg62
S'1247'
p1365
sg1023
S'-1.3'
p1366
sg54
S'1996-97'
p1367
sg1026
S'2.0'
p1368
sba(isrc.gp1.models.Advanced
Advanced
p1369
(dp1370
g981
S'10.4'
p1371
sg983
S'18.7'
p1372
sg985
S'.100'
p1373
sg987
S'2.0'
p1374
sg989
S'4.4'
p1375
sg991
S'14.8'
p1376
sg993
S'2.9'
p1377
sg20
g195
sg996
S'0.9'
p1378
sg998
S'.531'
p1379
sg1000
S'19.9'
p1380
sg1002
S'.429'
p1381
sg1004
S'.012'
p1382
sg26
S'NBA'
p1383
sg1007
S'-1.9'
p1384
sg1009
S'3.6'
p1385
sg1011
S'1.4'
p1386
sg38
S'36'
p1387
sg40
S'NJN'
p1388
sg42
S'79'
p1389
sg1016
S'2.7'
p1390
sg1018
S'10.1'
p1391
sg1020
S'1.1'
p1392
sg62
S'1201'
p1393
sg1023
S'0.9'
p1394
sg54
S'1997-98'
p1395
sg1026
S'2.5'
p1396
sba(isrc.gp1.models.Advanced
Advanced
p1397
(dp1398
g981
S'14.6'
p1399
sg983
S'13.6'
p1400
sg985
S'.140'
p1401
sg987
S'1.7'
p1402
sg989
S'5.4'
p1403
sg991
S'18.6'
p1404
sg993
S'2.0'
p1405
sg20
g195
sg996
S'0.2'
p1406
sg998
S'.533'
p1407
sg1000
S'22.8'
p1408
sg1002
S'.125'
p1409
sg1004
S'.000'
p1410
sg26
S'NBA'
p1411
sg1007
S'-1.5'
p1412
sg1009
S'5.3'
p1413
sg1011
S'0.3'
p1414
sg38
S'38'
p1415
sg40
S'NJN'
p1416
sg42
S'20'
p1417
sg1016
S'2.3'
p1418
sg1018
S'12.6'
p1419
sg1020
S'0.4'
p1420
sg62
S'242'
p1421
sg1023
S'0.5'
p1422
sg54
S'1999-00'
p1423
sg1026
S'0.7'
p1424
sbasS'_per36Minutes'
p1425
(lp1426
(isrc.gp1.models.Per36Minutes
Per36Minutes
p1427
(dp1428
g8
S'5.9'
p1429
sg10
S'0.0'
p1430
sg12
S'.543'
p1431
sg14
S'0.9'
p1432
sg16
S'4.8'
p1433
sg18
S'0.0'
p1434
sg19
g3
sg20
S'PF'
p1435
sg22
S'2.8'
p1436
sg26
S'NBA'
p1437
sg28
S'0.7'
p1438
sg30
S'8.9'
p1439
sg32
S'11.9'
p1440
sg34
S'.737'
p1441
sg36
S'1.1'
p1442
sg38
S'23'
p1443
sg40
S'LAC'
p1444
sg42
S'75'
p1445
sg44
S'1.8'
p1446
sg46
S'8.9'
p1447
sg48
S'3.1'
p1448
sg50
S'.543'
p1449
sg52
S'8.8'
p1450
sg54
S'1984-85'
p1451
sg56
S'4.8'
p1452
sg58
S'3.7'
p1453
sg60
S'2.3'
p1454
sg62
S'1610'
p1455
sg64
S'41'
p1456
sba(isrc.gp1.models.Per36Minutes
Per36Minutes
p1457
(dp1458
g8
S'3.9'
p1459
sg10
S'0.1'
p1460
sg12
S'.479'
p1461
sg14
S'1.9'
p1462
sg16
S'.000'
p1463
sg18
S'0.0'
p1464
sg19
S'12.0'
p1465
sg20
S'PF'
p1466
sg22
S'.649'
p1467
sg26
S'NBA'
p1468
sg28
S'1.4'
p1469
sg30
S'9.8'
p1470
sg32
S'4.0'
p1471
sg34
S'4.0'
p1472
sg36
S'9.6'
p1473
sg38
S'24'
p1474
sg40
S'LAC'
p1475
sg42
S'78'
p1476
sg44
S'0.8'
p1477
sg46
S'4.7'
p1478
sg48
S'2.6'
p1479
sg50
S'9.7'
p1480
sg52
S'5.7'
p1481
sg54
S'1985-86'
p1482
sg56
S'4.7'
p1483
sg58
S'2.4'
p1484
sg60
S'.482'
p1485
sg62
S'1566'
p1486
sg64
S'12'
p1487
sba(isrc.gp1.models.Per36Minutes
Per36Minutes
p1488
(dp1489
g8
S'4.4'
p1490
sg10
S'0.0'
p1491
sg12
S'.521'
p1492
sg14
S'1.6'
p1493
sg16
S'.000'
p1494
sg18
S'0.0'
p1495
sg19
S'15.5'
p1496
sg20
S'PF'
p1497
sg22
S'.730'
p1498
sg26
S'NBA'
p1499
sg28
S'1.2'
p1500
sg30
S'10.8'
p1501
sg32
S'2.7'
p1502
sg34
S'5.8'
p1503
sg36
S'11.4'
p1504
sg38
S'25'
p1505
sg40
S'LAC'
p1506
sg42
S'80'
p1507
sg44
S'0.8'
p1508
sg46
S'5.6'
p1509
sg48
S'4.2'
p1510
sg50
S'10.8'
p1511
sg52
S'7.0'
p1512
sg54
S'1986-87'
p1513
sg56
S'5.6'
p1514
sg58
S'2.1'
p1515
sg60
S'.522'
p1516
sg62
S'2922'
p1517
sg64
S'76'
p1518
sba(isrc.gp1.models.Per36Minutes
Per36Minutes
p1519
(dp1520
g8
S'5.0'
p1521
sg10
S'0.0'
p1522
sg12
S'.470'
p1523
sg14
S'1.5'
p1524
sg16
S'.000'
p1525
sg18
S'0.0'
p1526
sg19
S'14.2'
p1527
sg20
S'PF'
p1528
sg22
S'.688'
p1529
sg26
S'NBA'
p1530
sg28
S'1.2'
p1531
sg30
S'10.4'
p1532
sg32
S'2.6'
p1533
sg34
S'6.4'
p1534
sg36
S'12.7'
p1535
sg38
S'26'
p1536
sg40
S'LAC'
p1537
sg42
S'72'
p1538
sg44
S'0.8'
p1539
sg46
S'4.9'
p1540
sg48
S'4.4'
p1541
sg50
S'10.4'
p1542
sg52
S'7.7'
p1543
sg54
S'1987-88'
p1544
sg56
S'4.9'
p1545
sg58
S'2.2'
p1546
sg60
S'.471'
p1547
sg62
S'2660'
p1548
sg64
S'70'
p1549
sba(isrc.gp1.models.Per36Minutes
Per36Minutes
p1550
(dp1551
g8
S'3.9'
p1552
sg10
S'0.1'
p1553
sg12
S'.498'
p1554
sg14
S'1.8'
p1555
sg16
S'.000'
p1556
sg18
S'0.0'
p1557
sg19
S'11.7'
p1558
sg20
S'PF'
p1559
sg22
S'.743'
p1560
sg26
S'NBA'
p1561
sg28
S'1.3'
p1562
sg30
S'8.9'
p1563
sg32
S'2.6'
p1564
sg34
S'3.8'
p1565
sg36
S'10.9'
p1566
sg38
S'27'
p1567
sg40
S'SEA'
p1568
sg42
S'80'
p1569
sg44
S'0.7'
p1570
sg46
S'4.5'
p1571
sg48
S'2.8'
p1572
sg50
S'8.9'
p1573
sg52
S'6.9'
p1574
sg54
S'1988-89'
p1575
sg56
S'4.5'
p1576
sg58
S'1.8'
p1577
sg60
S'.502'
p1578
sg62
S'2536'
p1579
sg64
S'71'
p1580
sba(isrc.gp1.models.Per36Minutes
Per36Minutes
p1581
(dp1582
g8
S'7.1'
p1583
sg10
S'0.0'
p1584
sg12
S'.504'
p1585
sg14
S'1.1'
p1586
sg16
S'4.5'
p1587
sg18
S'0.0'
p1588
sg19
g3
sg20
g195
sg22
S'4.2'
p1589
sg26
S'NBA'
p1590
sg28
S'0.6'
p1591
sg30
S'8.9'
p1592
sg32
S'11.1'
p1593
sg34
S'.698'
p1594
sg36
S'1.0'
p1595
sg38
S'28'
p1596
sg40
S'SEA'
p1597
sg42
S'82'
p1598
sg44
S'1.3'
p1599
sg46
S'8.9'
p1600
sg48
S'2.9'
p1601
sg50
S'.504'
p1602
sg52
S'11.4'
p1603
sg54
S'1989-90'
p1604
sg56
S'4.5'
p1605
sg58
S'3.2'
p1606
sg60
S'2.1'
p1607
sg62
S'2595'
p1608
sg64
S'82'
p1609
sba(isrc.gp1.models.Per36Minutes
Per36Minutes
p1610
(dp1611
g8
S'3.0'
p1612
sg10
S'0.1'
p1613
sg12
S'.508'
p1614
sg14
S'1.5'
p1615
sg16
S'.000'
p1616
sg18
S'0.0'
p1617
sg19
S'8.8'
p1618
sg20
g195
sg22
S'.625'
p1619
sg26
S'NBA'
p1620
sg28
S'1.4'
p1621
sg30
S'7.5'
p1622
sg32
S'3.3'
p1623
sg34
S'1.9'
p1624
sg36
S'9.4'
p1625
sg38
S'29'
p1626
sg40
S'SEA'
p1627
sg42
S'82'
p1628
sg44
S'1.0'
p1629
sg46
S'3.8'
p1630
sg48
S'1.2'
p1631
sg50
S'7.4'
p1632
sg52
S'6.4'
p1633
sg54
S'1990-91'
p1634
sg56
S'3.8'
p1635
sg58
S'1.4'
p1636
sg60
S'.511'
p1637
sg62
S'2141'
p1638
sg64
S'55'
p1639
sba(isrc.gp1.models.Per36Minutes
Per36Minutes
p1640
(dp1641
g8
S'3.9'
p1642
sg10
S'0.1'
p1643
sg12
S'.566'
p1644
sg14
S'1.3'
p1645
sg16
S'.000'
p1646
sg18
S'0.0'
p1647
sg19
S'10.5'
p1648
sg20
S'PF'
p1649
sg22
S'.620'
p1650
sg26
S'NBA'
p1651
sg28
S'1.4'
p1652
sg30
S'7.9'
p1653
sg32
S'3.5'
p1654
sg34
S'2.5'
p1655
sg36
S'10.6'
p1656
sg38
S'30'
p1657
sg40
S'SEA'
p1658
sg42
S'82'
p1659
sg44
S'0.8'
p1660
sg46
S'4.5'
p1661
sg48
S'1.6'
p1662
sg50
S'7.9'
p1663
sg52
S'6.8'
p1664
sg54
S'1991-92'
p1665
sg56
S'4.5'
p1666
sg58
S'1.1'
p1667
sg60
S'.572'
p1668
sg62
S'2461'
p1669
sg64
S'69'
p1670
sba(isrc.gp1.models.Per36Minutes
Per36Minutes
p1671
(dp1672
g8
S'4.5'
p1673
sg10
S'0.0'
p1674
sg12
S'.526'
p1675
sg14
S'1.2'
p1676
sg16
S'.000'
p1677
sg18
S'0.0'
p1678
sg19
S'8.3'
p1679
sg20
g195
sg22
S'.469'
p1680
sg26
S'NBA'
p1681
sg28
S'1.3'
p1682
sg30
S'6.9'
p1683
sg32
S'3.1'
p1684
sg34
S'2.2'
p1685
sg36
S'11.0'
p1686
sg38
S'31'
p1687
sg40
S'SEA'
p1688
sg42
S'82'
p1689
sg44
S'0.8'
p1690
sg46
S'3.7'
p1691
sg48
S'1.0'
p1692
sg50
S'6.9'
p1693
sg52
S'6.5'
p1694
sg54
S'1992-93'
p1695
sg56
S'3.7'
p1696
sg58
S'1.0'
p1697
sg60
S'.528'
p1698
sg62
S'2156'
p1699
sg64
S'66'
p1700
sba(isrc.gp1.models.Per36Minutes
Per36Minutes
p1701
(dp1702
g8
S'3.5'
p1703
sg10
S'0.0'
p1704
sg12
S'.545'
p1705
sg14
S'0.9'
p1706
sg16
S'.000'
p1707
sg18
S'0.0'
p1708
sg19
S'8.0'
p1709
sg20
g195
sg22
S'.486'
p1710
sg26
S'NBA'
p1711
sg28
S'1.6'
p1712
sg30
S'6.6'
p1713
sg32
S'3.8'
p1714
sg34
S'1.6'
p1715
sg36
S'9.4'
p1716
sg38
S'32'
p1717
sg40
S'SEA'
p1718
sg42
S'82'
p1719
sg44
S'0.8'
p1720
sg46
S'3.6'
p1721
sg48
S'0.8'
p1722
sg50
S'6.6'
p1723
sg52
S'5.9'
p1724
sg54
S'1993-94'
p1725
sg56
S'3.6'
p1726
sg58
S'1.1'
p1727
sg60
S'.546'
p1728
sg62
S'1708'
p1729
sg64
S'42'
p1730
sba(isrc.gp1.models.Per36Minutes
Per36Minutes
p1731
(dp1732
g8
S'3.6'
p1733
sg10
S'0.0'
p1734
sg12
S'.521'
p1735
sg14
S'1.0'
p1736
sg16
S'.000'
p1737
sg18
S'0.0'
p1738
sg19
S'7.2'
p1739
sg20
g195
sg22
S'.602'
p1740
sg26
S'NBA'
p1741
sg28
S'1.1'
p1742
sg30
S'6.0'
p1743
sg32
S'2.6'
p1744
sg34
S'1.6'
p1745
sg36
S'10.0'
p1746
sg38
S'33'
p1747
sg40
S'CLE'
p1748
sg42
S'82'
p1749
sg44
S'1.2'
p1750
sg46
S'3.1'
p1751
sg48
S'0.9'
p1752
sg50
S'6.0'
p1753
sg52
S'6.4'
p1754
sg54
S'1994-95'
p1755
sg56
S'3.1'
p1756
sg58
S'1.0'
p1757
sg60
S'.524'
p1758
sg62
S'2040'
p1759
sg64
S'21'
p1760
sba(isrc.gp1.models.Per36Minutes
Per36Minutes
p1761
(dp1762
g8
S'3.9'
p1763
sg10
S'0.0'
p1764
sg12
S'.556'
p1765
sg14
S'0.7'
p1766
sg16
S'.000'
p1767
sg18
S'0.0'
p1768
sg19
S'6.7'
p1769
sg20
g195
sg22
S'.543'
p1770
sg26
S'NBA'
p1771
sg28
S'1.2'
p1772
sg30
S'5.4'
p1773
sg32
S'2.9'
p1774
sg34
S'1.3'
p1775
sg36
S'10.0'
p1776
sg38
S'34'
p1777
sg40
S'CLE'
p1778
sg42
S'82'
p1779
sg44
S'1.1'
p1780
sg46
S'3.0'
p1781
sg48
S'0.7'
p1782
sg50
S'5.4'
p1783
sg52
S'6.0'
p1784
sg54
S'1995-96'
p1785
sg56
S'3.0'
p1786
sg58
S'0.7'
p1787
sg60
S'.557'
p1788
sg62
S'2631'
p1789
sg64
S'80'
p1790
sba(isrc.gp1.models.Per36Minutes
Per36Minutes
p1791
(dp1792
g8
S'6.0'
p1793
sg10
S'0.0'
p1794
sg12
S'.468'
p1795
sg14
S'1.4'
p1796
sg16
S'1.9'
p1797
sg18
S'0.0'
p1798
sg19
g3
sg20
g195
sg22
S'3.2'
p1799
sg26
S'NBA'
p1800
sg28
S'1.2'
p1801
sg30
S'4.1'
p1802
sg32
S'4.4'
p1803
sg34
S'.463'
p1804
sg36
S'1.2'
p1805
sg38
S'35'
p1806
sg40
S'PHI'
p1807
sg42
S'82'
p1808
sg44
S'0.5'
p1809
sg46
S'4.1'
p1810
sg48
S'1.2'
p1811
sg50
S'.468'
p1812
sg52
S'9.2'
p1813
sg54
S'1996-97'
p1814
sg56
S'1.9'
p1815
sg58
S'3.4'
p1816
sg60
S'0.5'
p1817
sg62
S'1247'
p1818
sg64
S'24'
p1819
sba(isrc.gp1.models.Per36Minutes
Per36Minutes
p1820
(dp1821
g8
S'3.4'
p1822
sg10
S'0.0'
p1823
sg12
S'.512'
p1824
sg14
S'1.0'
p1825
sg16
S'.000'
p1826
sg18
S'0.0'
p1827
sg19
S'3.2'
p1828
sg20
g195
sg22
S'.556'
p1829
sg26
S'NBA'
p1830
sg28
S'1.3'
p1831
sg30
S'2.5'
p1832
sg32
S'3.1'
p1833
sg34
S'1.1'
p1834
sg36
S'9.2'
p1835
sg38
S'36'
p1836
sg40
S'NJN'
p1837
sg42
S'79'
p1838
sg44
S'1.3'
p1839
sg46
S'1.3'
p1840
sg48
S'0.6'
p1841
sg50
S'2.5'
p1842
sg52
S'5.8'
p1843
sg54
S'1997-98'
p1844
sg56
S'1.3'
p1845
sg58
S'0.7'
p1846
sg60
S'.518'
p1847
sg62
S'1201'
p1848
sg64
S'17'
p1849
sba(isrc.gp1.models.Per36Minutes
Per36Minutes
p1850
(dp1851
g8
S'7.1'
p1852
sg10
S'0.0'
p1853
sg12
S'.500'
p1854
sg14
S'1.2'
p1855
sg16
S'1.8'
p1856
sg18
S'0.0'
p1857
sg19
g3
sg20
g195
sg22
S'4.9'
p1858
sg26
S'NBA'
p1859
sg28
S'1.2'
p1860
sg30
S'3.6'
p1861
sg32
S'4.0'
p1862
sg34
S'1.000'
p1863
sg36
S'1.3'
p1864
sg38
S'38'
p1865
sg40
S'NJN'
p1866
sg42
S'20'
p1867
sg44
S'0.6'
p1868
sg46
S'3.6'
p1869
sg48
S'0.4'
p1870
sg50
S'.500'
p1871
sg52
S'12.0'
p1872
sg54
S'1999-00'
p1873
sg56
S'1.8'
p1874
sg58
S'4.5'
p1875
sg60
S'0.4'
p1876
sg62
S'242'
p1877
sg64
g480
sbasS'_fromYear'
p1878
S'1985'
p1879
sS'_url'
p1880
S'http://www.basketball-reference.com/players/c/cagemi01.html'
p1881
sS'_perGame'
p1882
(isrc.gp1.models.PerGame
PerGame
p1883
(dp1884
g8
S'2.4'
p1885
sg10
S'0.0'
p1886
sg12
S'.500'
p1887
sS'_effectiveFieldGalPercentage'
p1888
S'0.2'
p1889
sg14
S'0.4'
p1890
sg16
S'0.6'
p1891
sg18
S'0.0'
p1892
sg19
g3
sg20
g195
sg22
S'1.7'
p1893
sg26
S'NBA'
p1894
sg28
S'0.4'
p1895
sg32
S'1.4'
p1896
sS'_fieldGoalsttempted'
p1897
S'1.2'
p1898
sg34
S'1.000'
p1899
sg36
S'0.5'
p1900
sg38
S'38'
p1901
sg40
S'NJN'
p1902
sg42
S'20'
p1903
sg44
S'0.2'
p1904
sg46
S'1.2'
p1905
sg48
S'0.2'
p1906
sg50
S'.500'
p1907
sg52
S'4.1'
p1908
sg54
S'1999-00'
p1909
sg56
S'0.6'
p1910
sg58
S'1.5'
p1911
sg60
S'.500'
p1912
sg62
S'12.1'
p1913
sg64
g480
sbsS'_weight'
p1914
S'224'
p1915
sS'_dob'
p1916
S'28-1-1962'
p1917
sS'_salary'
p1918
(lp1919
(isrc.gp1.models.Salary
Salary
p1920
(dp1921
g40
S'Los Angeles Clippers'
p1922
sg26
S'NBA'
p1923
sg1918
S'$250,000'
p1924
sg54
S'1985-86'
p1925
sba(isrc.gp1.models.Salary
Salary
p1926
(dp1927
g40
S'Los Angeles Clippers'
p1928
sg26
S'NBA'
p1929
sg1918
S'$810,000'
p1930
sg54
S'1987-88'
p1931
sba(isrc.gp1.models.Salary
Salary
p1932
(dp1933
g40
S'Seattle SuperSonics'
p1934
sg26
S'NBA'
p1935
sg1918
S'$810,000'
p1936
sg54
S'1988-89'
p1937
sba(isrc.gp1.models.Salary
Salary
p1938
(dp1939
g40
S'Seattle SuperSonics'
p1940
sg26
S'NBA'
p1941
sg1918
S'$910,000'
p1942
sg54
S'1990-91'
p1943
sba(isrc.gp1.models.Salary
Salary
p1944
(dp1945
g40
S'Seattle SuperSonics'
p1946
sg26
S'NBA'
p1947
sg1918
S'$1,390,000'
p1948
sg54
S'1991-92'
p1949
sba(isrc.gp1.models.Salary
Salary
p1950
(dp1951
g40
S'Seattle SuperSonics'
p1952
sg26
S'NBA'
p1953
sg1918
S'$1,390,000'
p1954
sg54
S'1992-93'
p1955
sba(isrc.gp1.models.Salary
Salary
p1956
(dp1957
g40
S'Seattle SuperSonics'
p1958
sg26
S'NBA'
p1959
sg1918
S'$1,502,000'
p1960
sg54
S'1993-94'
p1961
sba(isrc.gp1.models.Salary
Salary
p1962
(dp1963
g40
S'Cleveland Cavaliers'
p1964
sg26
S'NBA'
p1965
sg1918
S'$1,635,000'
p1966
sg54
S'1994-95'
p1967
sba(isrc.gp1.models.Salary
Salary
p1968
(dp1969
g40
S'Cleveland Cavaliers'
p1970
sg26
S'NBA'
p1971
sg1918
S'$2,126,000'
p1972
sg54
S'1995-96'
p1973
sba(isrc.gp1.models.Salary
Salary
p1974
(dp1975
g40
S'Philadelphia 76ers'
p1976
sg26
S'NBA'
p1977
sg1918
S'$1,473,000'
p1978
sg54
S'1996-97'
p1979
sba(isrc.gp1.models.Salary
Salary
p1980
(dp1981
g40
S'New Jersey Nets'
p1982
sg26
S'NBA'
p1983
sg1918
S'$2,055,421'
p1984
sg54
S'1997-98'
p1985
sba(isrc.gp1.models.Salary
Salary
p1986
(dp1987
g40
S'New Jersey Nets'
p1988
sg26
S'NBA'
p1989
sg1918
S'$2,350,000'
p1990
sg54
S'1998-99'
p1991
sba(isrc.gp1.models.Salary
Salary
p1992
(dp1993
g40
S'New Jersey Nets'
p1994
sg26
S'NBA'
p1995
sg1918
S'$510,000'
p1996
sg54
S'1999-00'
p1997
sbasg20
S'F-C'
p1998
sb.