(isrc.gp1.models.Player
Player
p0
(dp1
S'_experience'
p2
S'NA'
p3
sS'_totals'
p4
(lp5
(isrc.gp1.models.Totals
Totals
p6
(dp7
S'_offensiveRebounds'
p8
S'237'
p9
sS'_threePointsAttempted'
p10
S'0'
p11
sS'_fieldGoalsPercentage'
p12
S'.431'
p13
sS'_assist'
p14
S'27'
p15
sS'_threePointsPercentage'
p16
S'172'
p17
sS'_threePoints'
p18
g11
sS'_points'
p19
g3
sS'_position'
p20
S'C'
p21
sS'_freeThrowsPercentage'
p22
S'120'
p23
sS'_effectiveFieldGoalPercentage'
p24
S'57'
p25
sS'_league'
p26
S'NBA'
p27
sS'_steals'
p28
S'55'
p29
sS'_fieldGoalsAttempted'
p30
S'399'
p31
sS'_personalFouls'
p32
S'401'
p33
sS'_freeThrowsAttempted'
p34
S'.483'
p35
sS'_totalRebounds'
p36
S'25'
p37
sS'_age'
p38
S'23'
p39
sS'_team'
p40
S'LAC'
p41
sS'_games'
p42
S'45'
p43
sS'_blocks'
p44
S'85'
p45
sS'_twoPoints'
p46
S'399'
p47
sS'_freeThrows'
p48
S'118'
p49
sS'_twoPointsAttempted'
p50
S'.431'
p51
sS'_defensiveRebounds'
p52
S'357'
p53
sS'_season'
p54
S'1998-99'
p55
sS'_fieldGoals'
p56
S'172'
p57
sS'_turnOvers'
p58
S'137'
p59
sS'_twoPointsPercentage'
p60
S'.431'
p61
sS'_minutesPlayed'
p62
S'1279'
p63
sS'_gamesStarted'
p64
S'36'
p65
sba(isrc.gp1.models.Totals
Totals
p66
(dp67
g8
S'462'
p68
sg10
g11
sg12
S'.437'
p69
sg14
S'35'
p70
sg16
S'330'
p71
sg18
g11
sg19
g3
sg20
g21
sg22
S'194'
p72
sg24
S'123'
p73
sg26
S'NBA'
p74
sg28
S'140'
p75
sg30
S'756'
p76
sg32
S'783'
p77
sg34
S'.651'
p78
sg36
S'38'
p79
sg38
S'24'
p80
sg40
S'LAC'
p81
sg42
S'80'
p82
sg44
S'177'
p83
sg46
S'756'
p84
sg48
S'189'
p85
sg50
S'.437'
p86
sg52
S'656'
p87
sg54
S'1999-00'
p88
sg56
S'330'
p89
sg58
S'304'
p90
sg60
S'.437'
p91
sg62
S'2493'
p92
sg64
S'77'
p93
sba(isrc.gp1.models.Totals
Totals
p94
(dp95
g8
S'357'
p96
sg10
g11
sg12
S'.435'
p97
sg14
S'30'
p98
sg16
S'308'
p99
sg18
g11
sg19
g3
sg20
g21
sg22
S'168'
p100
sg24
S'85'
p101
sg26
S'NBA'
p102
sg28
S'108'
p103
sg30
S'708'
p104
sg32
S'701'
p105
sg34
S'.545'
p106
sg36
S'46'
p107
sg38
S'25'
p108
sg40
S'LAC'
p109
sg42
S'82'
p110
sg44
S'169'
p111
sg46
S'708'
p112
sg48
S'156'
p113
sg50
S'.435'
p114
sg52
S'525'
p115
sg54
S'2000-01'
p116
sg56
S'308'
p117
sg58
S'250'
p118
sg60
S'.435'
p119
sg62
S'2127'
p120
sg64
S'82'
p121
sba(isrc.gp1.models.Totals
Totals
p122
(dp123
g8
S'547'
p124
sg10
g11
sg12
S'.433'
p125
sg14
S'55'
p126
sg16
S'384'
p127
sg18
g11
sg19
g3
sg20
g21
sg22
S'164'
p128
sg24
S'117'
p129
sg26
S'NBA'
p130
sg28
S'145'
p131
sg30
S'886'
p132
sg32
S'885'
p133
sg34
S'.622'
p134
sg36
S'90'
p135
sg38
S'26'
p136
sg40
S'LAC'
p137
sg42
S'80'
p138
sg44
S'175'
p139
sg46
S'886'
p140
sg48
S'188'
p141
sg50
S'.433'
p142
sg52
S'711'
p143
sg54
S'2001-02'
p144
sg56
S'384'
p145
sg58
S'217'
p146
sg60
S'.433'
p147
sg62
S'2568'
p148
sg64
S'79'
p149
sba(isrc.gp1.models.Totals
Totals
p150
(dp151
g8
S'271'
p152
sg10
g11
sg12
S'.427'
p153
sg14
S'18'
p154
sg16
S'186'
p155
sg18
g11
sg19
g3
sg20
g21
sg22
S'57'
p156
sg24
S'69'
p157
sg26
S'NBA'
p158
sg28
S'79'
p159
sg30
S'436'
p160
sg32
S'441'
p161
sg34
S'.657'
p162
sg36
S'47'
p163
sg38
S'27'
p164
sg40
S'LAC'
p165
sg42
S'36'
p166
sg44
S'98'
p167
sg46
S'436'
p168
sg48
S'105'
p169
sg50
S'.427'
p170
sg52
S'328'
p171
sg54
S'2002-03'
p172
sg56
S'186'
p173
sg58
S'110'
p174
sg60
S'.427'
p175
sg62
S'1369'
p176
sg64
S'36'
p177
sba(isrc.gp1.models.Totals
Totals
p178
(dp179
g8
S'167'
p180
sg10
g11
sg12
S'.425'
p181
sg14
S'16'
p182
sg16
S'121'
p183
sg18
g11
sg19
g3
sg20
g21
sg22
S'78'
p184
sg24
S'36'
p185
sg26
S'NBA'
p186
sg28
S'68'
p187
sg30
S'285'
p188
sg32
S'278'
p189
sg34
S'.590'
p190
sg36
S'24'
p191
sg38
S'28'
p192
sg40
S'MIN'
p193
sg42
S'43'
p194
sg44
S'54'
p195
sg46
S'285'
p196
sg48
S'61'
p197
sg50
S'.425'
p198
sg52
S'245'
p199
sg54
S'2003-04'
p200
sg56
S'121'
p201
sg58
S'137'
p202
sg60
S'.425'
p203
sg62
S'925'
p204
sg64
S'25'
p205
sba(isrc.gp1.models.Totals
Totals
p206
(dp207
g8
S'218'
p208
sg10
g11
sg12
S'.456'
p209
sg14
S'15'
p210
sg16
S'161'
p211
sg18
g11
sg19
g3
sg20
g21
sg22
S'106'
p212
sg24
S'46'
p213
sg26
S'NBA'
p214
sg28
S'56'
p215
sg30
S'353'
p216
sg32
S'368'
p217
sg34
S'.667'
p218
sg36
S'29'
p219
sg38
S'29'
p220
sg40
S'MIN'
p221
sg42
S'62'
p222
sg44
S'68'
p223
sg46
S'353'
p224
sg48
S'69'
p225
sg50
S'.456'
p226
sg52
S'324'
p227
sg54
S'2004-05'
p228
sg56
S'161'
p229
sg58
S'193'
p230
sg60
S'.456'
p231
sg62
S'1215'
p232
sg64
S'34'
p233
sba(isrc.gp1.models.Totals
Totals
p234
(dp235
g8
S'170'
p236
sg10
g11
sg12
S'.446'
p237
sg14
S'22'
p238
sg16
S'107'
p239
sg18
g11
sg19
g3
sg20
g21
sg22
S'50'
p240
sg24
S'24'
p241
sg26
S'NBA'
p242
sg28
S'33'
p243
sg30
S'240'
p244
sg32
S'238'
p245
sg34
S'.511'
p246
sg36
S'23'
p247
sg38
S'30'
p248
sg40
S'TOT'
p249
sg42
S'48'
p250
sg44
S'55'
p251
sg46
S'240'
p252
sg48
S'47'
p253
sg50
S'.446'
p254
sg52
S'220'
p255
sg54
S'2005-06'
p256
sg56
S'107'
p257
sg58
S'122'
p258
sg60
S'.446'
p259
sg62
S'919'
p260
sg64
S'24'
p261
sba(isrc.gp1.models.Totals
Totals
p262
(dp263
g8
S'134'
p264
sg10
g11
sg12
S'.446'
p265
sg14
S'19'
p266
sg16
S'87'
p267
sg18
g11
sg19
g3
sg20
g21
sg22
S'45'
p268
sg24
S'19'
p269
sg26
S'NBA'
p270
sg28
S'27'
p271
sg30
S'195'
p272
sg32
S'193'
p273
sg34
S'.487'
p274
sg36
S'17'
p275
sg38
S'30'
p276
sg40
S'MIN'
p277
sg42
S'32'
p278
sg44
S'41'
p279
sg46
S'195'
p280
sg48
S'39'
p281
sg50
S'.446'
p282
sg52
S'179'
p283
sg54
S'2005-06'
p284
sg56
S'87'
p285
sg58
S'100'
p286
sg60
S'.446'
p287
sg62
S'752'
p288
sg64
S'24'
p289
sba(isrc.gp1.models.Totals
Totals
p290
(dp291
g8
S'36'
p292
sg10
g11
sg12
S'.444'
p293
sg14
S'3'
p294
sg16
S'20'
p295
sg18
g11
sg19
g3
sg20
g21
sg22
S'5'
p296
sg24
g296
sg26
S'NBA'
p297
sg28
S'6'
p298
sg30
S'45'
p299
sg32
S'45'
p300
sg34
S'.625'
p301
sg36
g298
sg38
S'30'
p302
sg40
S'BOS'
p303
sg42
S'16'
p304
sg44
S'14'
p305
sg46
S'45'
p306
sg48
S'8'
p307
sg50
S'.444'
p308
sg52
S'41'
p309
sg54
S'2005-06'
p310
sg56
S'20'
p311
sg58
S'22'
p312
sg60
S'.444'
p313
sg62
S'167'
p314
sg64
g11
sba(isrc.gp1.models.Totals
Totals
p315
(dp316
g8
S'34'
p317
sg10
g11
sg12
S'.413'
p318
sg14
g307
sg16
S'19'
p319
sg18
g11
sg19
g3
sg20
g21
sg22
S'14'
p320
sg24
S'2'
p321
sg26
S'NBA'
p322
sg28
S'13'
p323
sg30
S'46'
p324
sg32
S'40'
p325
sg34
S'.667'
p326
sg36
g296
sg38
S'31'
p327
sg40
S'BOS'
p328
sg42
S'24'
p329
sg44
S'17'
p330
sg46
S'46'
p331
sg48
g294
sg50
S'.413'
p332
sg52
S'48'
p333
sg54
S'2006-07'
p334
sg56
S'19'
p335
sg58
S'48'
p336
sg60
S'.413'
p337
sg62
S'234'
p338
sg64
g11
sbasS'_college'
p339
S'University of the Pacific'
p340
sS'_toYear'
p341
S'2007'
p342
sS'_height'
p343
S'7-0'
p344
sS'_active'
p345
I00
sS'_shootingHand'
p346
VRight
p347
sS'_name'
p348
S'Michael Olowokandi'
p349
sS'_per100Possessions'
p350
(lp351
(isrc.gp1.models.Per100Possession
Per100Possession
p352
(dp353
g8
S'9.9'
p354
sg10
S'0.0'
p355
sg12
S'.431'
p356
sS'_offensiveRating'
p357
S'107'
p358
sg14
S'1.1'
p359
sg16
S'7.2'
p360
sg18
S'0.0'
p361
sg19
S'89'
p362
sg20
g21
sS'_defensiveRating'
p363
g3
sg22
S'5.0'
p364
sg26
S'NBA'
p365
sg28
S'2.3'
p366
sg30
S'16.7'
p367
sg32
S'16.8'
p368
sg34
S'.483'
p369
sg36
S'1.0'
p370
sg38
S'23'
p371
sg40
S'LAC'
p372
sg42
S'45'
p373
sg44
S'3.6'
p374
sg46
S'16.7'
p375
sg48
S'4.9'
p376
sg50
S'.431'
p377
sg52
S'15.0'
p378
sg54
S'1998-99'
p379
sg56
S'7.2'
p380
sg58
S'5.7'
p381
sg60
S'2.4'
p382
sg62
S'1279'
p383
sg64
S'36'
p384
sba(isrc.gp1.models.Per100Possession
Per100Possession
p385
(dp386
g8
S'9.5'
p387
sg10
S'0.0'
p388
sg12
S'.437'
p389
sg357
S'108'
p390
sg14
S'0.7'
p391
sg16
S'6.8'
p392
sg18
S'0.0'
p393
sg19
S'88'
p394
sg20
g21
sg363
g3
sg22
S'4.0'
p395
sg26
S'NBA'
p396
sg28
S'2.9'
p397
sg30
S'15.5'
p398
sg32
S'16.0'
p399
sg34
S'.651'
p400
sg36
S'0.8'
p401
sg38
S'24'
p402
sg40
S'LAC'
p403
sg42
S'80'
p404
sg44
S'3.6'
p405
sg46
S'15.5'
p406
sg48
S'3.9'
p407
sg50
S'.437'
p408
sg52
S'13.4'
p409
sg54
S'1999-00'
p410
sg56
S'6.8'
p411
sg58
S'6.2'
p412
sg60
S'2.5'
p413
sg62
S'2493'
p414
sg64
S'77'
p415
sba(isrc.gp1.models.Per100Possession
Per100Possession
p416
(dp417
g8
S'9.0'
p418
sg10
S'0.0'
p419
sg12
S'.435'
p420
sg357
S'103'
p421
sg14
S'0.8'
p422
sg16
S'7.8'
p423
sg18
S'0.0'
p424
sg19
S'85'
p425
sg20
g21
sg363
g3
sg22
S'4.2'
p426
sg26
S'NBA'
p427
sg28
S'2.7'
p428
sg30
S'17.8'
p429
sg32
S'17.6'
p430
sg34
S'.545'
p431
sg36
S'1.2'
p432
sg38
S'25'
p433
sg40
S'LAC'
p434
sg42
S'82'
p435
sg44
S'4.3'
p436
sg46
S'17.8'
p437
sg48
S'3.9'
p438
sg50
S'.435'
p439
sg52
S'13.2'
p440
sg54
S'2000-01'
p441
sg56
S'7.8'
p442
sg58
S'6.3'
p443
sg60
S'2.1'
p444
sg62
S'2127'
p445
sg64
S'82'
p446
sba(isrc.gp1.models.Per100Possession
Per100Possession
p447
(dp448
g8
S'11.3'
p449
sg10
S'0.0'
p450
sg12
S'.433'
p451
sg357
S'102'
p452
sg14
S'1.1'
p453
sg16
S'8.0'
p454
sg18
S'0.0'
p455
sg19
S'90'
p456
sg20
g21
sg363
g3
sg22
S'3.4'
p457
sg26
S'NBA'
p458
sg28
S'3.0'
p459
sg30
S'18.4'
p460
sg32
S'18.4'
p461
sg34
S'.622'
p462
sg36
S'1.9'
p463
sg38
S'26'
p464
sg40
S'LAC'
p465
sg42
S'80'
p466
sg44
S'3.6'
p467
sg46
S'18.4'
p468
sg48
S'3.9'
p469
sg50
S'.433'
p470
sg52
S'14.8'
p471
sg54
S'2001-02'
p472
sg56
S'8.0'
p473
sg58
S'4.5'
p474
sg60
S'2.4'
p475
sg62
S'2568'
p476
sg64
S'79'
p477
sba(isrc.gp1.models.Per100Possession
Per100Possession
p478
(dp479
g8
S'10.4'
p480
sg10
S'0.0'
p481
sg12
S'.427'
p482
sg357
S'104'
p483
sg14
S'0.7'
p484
sg16
S'7.1'
p485
sg18
S'0.0'
p486
sg19
S'86'
p487
sg20
g21
sg363
g3
sg22
S'2.2'
p488
sg26
S'NBA'
p489
sg28
S'3.0'
p490
sg30
S'16.7'
p491
sg32
S'16.9'
p492
sg34
S'.657'
p493
sg36
S'1.8'
p494
sg38
S'27'
p495
sg40
S'LAC'
p496
sg42
S'36'
p497
sg44
S'3.8'
p498
sg46
S'16.7'
p499
sg48
S'4.0'
p500
sg50
S'.427'
p501
sg52
S'12.6'
p502
sg54
S'2002-03'
p503
sg56
S'7.1'
p504
sg58
S'4.2'
p505
sg60
S'2.6'
p506
sg62
S'1369'
p507
sg64
S'36'
p508
sba(isrc.gp1.models.Per100Possession
Per100Possession
p509
(dp510
g8
S'9.7'
p511
sg10
S'0.0'
p512
sg12
S'.425'
p513
sg357
S'96'
p514
sg14
S'0.9'
p515
sg16
S'7.1'
p516
sg18
S'0.0'
p517
sg19
S'90'
p518
sg20
g21
sg363
g3
sg22
S'4.5'
p519
sg26
S'NBA'
p520
sg28
S'4.0'
p521
sg30
S'16.6'
p522
sg32
S'16.2'
p523
sg34
S'.590'
p524
sg36
S'1.4'
p525
sg38
S'28'
p526
sg40
S'MIN'
p527
sg42
S'43'
p528
sg44
S'3.1'
p529
sg46
S'16.6'
p530
sg48
S'3.6'
p531
sg50
S'.425'
p532
sg52
S'14.3'
p533
sg54
S'2003-04'
p534
sg56
S'7.1'
p535
sg58
S'8.0'
p536
sg60
S'2.1'
p537
sg62
S'925'
p538
sg64
S'25'
p539
sba(isrc.gp1.models.Per100Possession
Per100Possession
p540
(dp541
g8
S'9.7'
p542
sg10
S'0.0'
p543
sg12
S'.456'
p544
sg357
S'105'
p545
sg14
S'0.7'
p546
sg16
S'7.1'
p547
sg18
S'0.0'
p548
sg19
S'96'
p549
sg20
g21
sg363
g3
sg22
S'4.7'
p550
sg26
S'NBA'
p551
sg28
S'2.5'
p552
sg30
S'15.7'
p553
sg32
S'16.3'
p554
sg34
S'.667'
p555
sg36
S'1.3'
p556
sg38
S'29'
p557
sg40
S'MIN'
p558
sg42
S'62'
p559
sg44
S'3.0'
p560
sg46
S'15.7'
p561
sg48
S'3.1'
p562
sg50
S'.456'
p563
sg52
S'14.4'
p564
sg54
S'2004-05'
p565
sg56
S'7.1'
p566
sg58
S'8.6'
p567
sg60
S'2.0'
p568
sg62
S'1215'
p569
sg64
S'34'
p570
sba(isrc.gp1.models.Per100Possession
Per100Possession
p571
(dp572
g8
S'9.9'
p573
sg10
S'0.0'
p574
sg12
S'.446'
p575
sg357
S'102'
p576
sg14
S'1.3'
p577
sg16
S'6.3'
p578
sg18
S'0.0'
p579
sg19
S'85'
p580
sg20
g21
sg363
g3
sg22
S'2.9'
p581
sg26
S'NBA'
p582
sg28
S'1.9'
p583
sg30
S'14.0'
p584
sg32
S'13.9'
p585
sg34
S'.511'
p586
sg36
S'1.3'
p587
sg38
S'30'
p588
sg40
S'TOT'
p589
sg42
S'48'
p590
sg44
S'3.2'
p591
sg46
S'14.0'
p592
sg48
S'2.7'
p593
sg50
S'.446'
p594
sg52
S'12.9'
p595
sg54
S'2005-06'
p596
sg56
S'6.3'
p597
sg58
S'7.1'
p598
sg60
S'1.4'
p599
sg62
S'919'
p600
sg64
S'24'
p601
sba(isrc.gp1.models.Per100Possession
Per100Possession
p602
(dp603
g8
S'9.6'
p604
sg10
S'0.0'
p605
sg12
S'.446'
p606
sg357
S'102'
p607
sg14
S'1.4'
p608
sg16
S'6.3'
p609
sg18
S'0.0'
p610
sg19
S'87'
p611
sg20
g21
sg363
g3
sg22
S'3.2'
p612
sg26
S'NBA'
p613
sg28
S'1.9'
p614
sg30
S'14.0'
p615
sg32
S'13.9'
p616
sg34
S'.487'
p617
sg36
S'1.2'
p618
sg38
S'30'
p619
sg40
S'MIN'
p620
sg42
S'32'
p621
sg44
S'2.9'
p622
sg46
S'14.0'
p623
sg48
S'2.8'
p624
sg50
S'.446'
p625
sg52
S'12.9'
p626
sg54
S'2005-06'
p627
sg56
S'6.3'
p628
sg58
S'7.2'
p629
sg60
S'1.4'
p630
sg62
S'752'
p631
sg64
S'24'
p632
sba(isrc.gp1.models.Per100Possession
Per100Possession
p633
(dp634
g8
S'11.2'
p635
sg10
S'0.0'
p636
sg12
S'.444'
p637
sg357
S'104'
p638
sg14
S'0.9'
p639
sg16
S'6.2'
p640
sg18
S'0.0'
p641
sg19
S'79'
p642
sg20
g21
sg363
g3
sg22
S'1.6'
p643
sg26
S'NBA'
p644
sg28
S'1.9'
p645
sg30
S'14.0'
p646
sg32
S'14.0'
p647
sg34
S'.625'
p648
sg36
S'1.9'
p649
sg38
S'30'
p650
sg40
S'BOS'
p651
sg42
S'16'
p652
sg44
S'4.4'
p653
sg46
S'14.0'
p654
sg48
S'2.5'
p655
sg50
S'.444'
p656
sg52
S'12.8'
p657
sg54
S'2005-06'
p658
sg56
S'6.2'
p659
sg58
S'6.9'
p660
sg60
S'1.6'
p661
sg62
S'167'
p662
sg64
g11
sba(isrc.gp1.models.Per100Possession
Per100Possession
p663
(dp664
g8
S'7.6'
p665
sg10
S'0.0'
p666
sg12
S'.413'
p667
sg357
S'103'
p668
sg14
S'1.8'
p669
sg16
S'4.2'
p670
sg18
S'0.0'
p671
sg19
S'75'
p672
sg20
g21
sg363
g3
sg22
S'3.1'
p673
sg26
S'NBA'
p674
sg28
S'2.9'
p675
sg30
S'10.3'
p676
sg32
S'8.9'
p677
sg34
S'.667'
p678
sg36
S'1.1'
p679
sg38
S'31'
p680
sg40
S'BOS'
p681
sg42
S'24'
p682
sg44
S'3.8'
p683
sg46
S'10.3'
p684
sg48
S'0.7'
p685
sg50
S'.413'
p686
sg52
S'10.7'
p687
sg54
S'2006-07'
p688
sg56
S'4.2'
p689
sg58
S'10.7'
p690
sg60
S'0.4'
p691
sg62
S'234'
p692
sg64
g11
sbasS'_advanced'
p693
(lp694
(isrc.gp1.models.Advanced
Advanced
p695
(dp696
S'_offensiveReboundPercentage'
p697
S'10.5'
p698
sS'_turnOverPercentage'
p699
S'15.9'
p700
sS'_winSharesPer48Minutes'
p701
S'-0.010'
p702
sS'_stealPercentage'
p703
S'1.1'
p704
sS'_usagePercentage'
p705
S'19.0'
p706
sS'_totalReboundsPercentage'
p707
S'16.5'
p708
sS'_defensiveBoxPlusMinus'
p709
S'-1.0'
p710
sg20
g21
sS'_valueOverReplacementPlayer'
p711
S'-1.0'
p712
sS'_trueShootingPercentage'
p713
S'.445'
p714
sS'_defensiveReboundPercentage'
p715
S'23.2'
p716
sS'_freeThrowsAttempRate'
p717
S'.296'
p718
sS'_threePointsAttempRate'
p719
S'.000'
p720
sg26
S'NBA'
p721
sS'_offensiveBoxPlusMinues'
p722
S'-4.1'
p723
sS'_assistPercentage'
p724
S'3.4'
p725
sS'_defensiveWinShares'
p726
S'0.5'
p727
sg38
S'23'
p728
sg40
S'LAC'
p729
sg42
S'45'
p730
sS'_blockPercentage'
p731
S'3.2'
p732
sS'_playerEfficiencyRating'
p733
S'11.8'
p734
sS'_offensiveWinShares'
p735
S'-0.8'
p736
sg62
S'1279'
p737
sS'_boxPlusMinus'
p738
S'-5.1'
p739
sg54
S'1998-99'
p740
sS'_winShares'
p741
S'-0.3'
p742
sba(isrc.gp1.models.Advanced
Advanced
p743
(dp744
g697
S'8.4'
p745
sg699
S'17.4'
p746
sg701
S'-0.016'
p747
sg703
S'0.7'
p748
sg705
S'18.1'
p749
sg707
S'14.7'
p750
sg709
S'-0.7'
p751
sg20
g21
sg711
S'-2.6'
p752
sg713
S'.467'
p753
sg715
S'21.4'
p754
sg717
S'.250'
p755
sg719
S'.000'
p756
sg26
S'NBA'
p757
sg722
S'-5.4'
p758
sg724
S'2.6'
p759
sg726
S'1.4'
p760
sg38
S'24'
p761
sg40
S'LAC'
p762
sg42
S'80'
p763
sg731
S'3.8'
p764
sg733
S'10.4'
p765
sg735
S'-2.2'
p766
sg62
S'2493'
p767
sg738
S'-6.2'
p768
sg54
S'1999-00'
p769
sg741
S'-0.8'
p770
sba(isrc.gp1.models.Advanced
Advanced
p771
(dp772
g697
S'9.3'
p773
sg699
S'17.9'
p774
sg701
S'-0.008'
p775
sg703
S'0.8'
p776
sg705
S'20.5'
p777
sg707
S'14.1'
p778
sg709
S'0.2'
p779
sg20
g21
sg711
S'-1.6'
p780
sg713
S'.451'
p781
sg715
S'18.7'
p782
sg717
S'.220'
p783
sg719
S'.000'
p784
sg26
S'NBA'
p785
sg722
S'-5.1'
p786
sg724
S'3.7'
p787
sg726
S'2.2'
p788
sg38
S'25'
p789
sg40
S'LAC'
p790
sg42
S'82'
p791
sg731
S'3.6'
p792
sg733
S'10.0'
p793
sg735
S'-2.6'
p794
sg62
S'2127'
p795
sg738
S'-4.9'
p796
sg54
S'2000-01'
p797
sg741
S'-0.4'
p798
sba(isrc.gp1.models.Advanced
Advanced
p799
(dp800
g697
S'7.3'
p801
sg699
S'15.3'
p802
sg701
S'.029'
p803
sg703
S'1.1'
p804
sg705
S'20.1'
p805
sg707
S'15.7'
p806
sg709
S'1.4'
p807
sg20
g21
sg711
S'-0.7'
p808
sg713
S'.457'
p809
sg715
S'23.8'
p810
sg717
S'.212'
p811
sg719
S'.000'
p812
sg26
S'NBA'
p813
sg722
S'-4.5'
p814
sg724
S'5.8'
p815
sg726
S'3.5'
p816
sg38
S'26'
p817
sg40
S'LAC'
p818
sg42
S'80'
p819
sg731
S'3.9'
p820
sg733
S'12.4'
p821
sg735
S'-1.9'
p822
sg62
S'2568'
p823
sg738
S'-3.1'
p824
sg54
S'2001-02'
p825
sg741
S'1.6'
p826
sba(isrc.gp1.models.Advanced
Advanced
p827
(dp828
g697
S'4.7'
p829
sg699
S'16.9'
p830
sg701
S'-0.006'
p831
sg703
S'0.7'
p832
sg705
S'19.2'
p833
sg707
S'13.6'
p834
sg709
S'1.2'
p835
sg20
g21
sg711
S'-0.7'
p836
sg713
S'.457'
p837
sg715
S'22.3'
p838
sg717
S'.241'
p839
sg719
S'.000'
p840
sg26
S'NBA'
p841
sg722
S'-5.1'
p842
sg724
S'5.9'
p843
sg726
S'1.3'
p844
sg38
S'27'
p845
sg40
S'LAC'
p846
sg42
S'36'
p847
sg731
S'4.1'
p848
sg733
S'10.5'
p849
sg735
S'-1.5'
p850
sg62
S'1369'
p851
sg738
S'-3.9'
p852
sg54
S'2002-03'
p853
sg741
S'-0.2'
p854
sba(isrc.gp1.models.Advanced
Advanced
p855
(dp856
g697
S'10.2'
p857
sg699
S'14.8'
p858
sg701
S'.061'
p859
sg703
S'0.9'
p860
sg705
S'18.6'
p861
sg707
S'15.1'
p862
sg709
S'1.8'
p863
sg20
g21
sg711
S'-0.3'
p864
sg713
S'.446'
p865
sg715
S'19.6'
p866
sg717
S'.214'
p867
sg719
S'.000'
p868
sg26
S'NBA'
p869
sg722
S'-5.0'
p870
sg724
S'4.1'
p871
sg726
S'1.7'
p872
sg38
S'28'
p873
sg40
S'MIN'
p874
sg42
S'43'
p875
sg731
S'5.3'
p876
sg733
S'11.2'
p877
sg735
S'-0.5'
p878
sg62
S'925'
p879
sg738
S'-3.1'
p880
sg54
S'2003-04'
p881
sg741
S'1.2'
p882
sba(isrc.gp1.models.Advanced
Advanced
p883
(dp884
g697
S'10.4'
p885
sg699
S'15.1'
p886
sg701
S'.048'
p887
sg703
S'0.7'
p888
sg705
S'17.2'
p889
sg707
S'15.2'
p890
sg709
S'0.2'
p891
sg20
g21
sg711
S'-0.6'
p892
sg713
S'.480'
p893
sg715
S'19.6'
p894
sg717
S'.195'
p895
sg719
S'.000'
p896
sg26
S'NBA'
p897
sg722
S'-4.2'
p898
sg724
S'3.7'
p899
sg726
S'1.5'
p900
sg38
S'29'
p901
sg40
S'MIN'
p902
sg42
S'62'
p903
sg731
S'3.3'
p904
sg733
S'10.4'
p905
sg735
S'-0.3'
p906
sg62
S'1215'
p907
sg738
S'-4.0'
p908
sg54
S'2004-05'
p909
sg741
S'1.2'
p910
sba(isrc.gp1.models.Advanced
Advanced
p911
(dp912
g697
S'6.7'
p913
sg699
S'17.4'
p914
sg701
S'.014'
p915
sg703
S'1.3'
p916
sg705
S'16.2'
p917
sg707
S'14.4'
p918
sg709
S'0.8'
p919
sg20
g21
sg711
S'-0.7'
p920
sg713
S'.456'
p921
sg715
S'21.7'
p922
sg717
S'.196'
p923
sg719
S'.000'
p924
sg26
S'NBA'
p925
sg722
S'-6.0'
p926
sg724
S'4.1'
p927
sg726
S'1.4'
p928
sg38
S'30'
p929
sg40
S'TOT'
p930
sg42
S'48'
p931
sg731
S'2.7'
p932
sg733
S'8.3'
p933
sg735
S'-1.1'
p934
sg62
S'919'
p935
sg738
S'-5.2'
p936
sg54
S'2005-06'
p937
sg741
S'0.3'
p938
sba(isrc.gp1.models.Advanced
Advanced
p939
(dp940
g697
S'7.4'
p941
sg699
S'16.2'
p942
sg701
S'.023'
p943
sg703
S'1.4'
p944
sg705
S'16.0'
p945
sg707
S'14.3'
p946
sg709
S'1.0'
p947
sg20
g21
sg711
S'-0.5'
p948
sg713
S'.455'
p949
sg715
S'20.8'
p950
sg717
S'.200'
p951
sg719
S'.000'
p952
sg26
S'NBA'
p953
sg722
S'-5.6'
p954
sg724
S'3.7'
p955
sg726
S'1.2'
p956
sg38
S'30'
p957
sg40
S'MIN'
p958
sg42
S'32'
p959
sg731
S'2.7'
p960
sg733
S'8.6'
p961
sg735
S'-0.8'
p962
sg62
S'752'
p963
sg738
S'-4.6'
p964
sg54
S'2005-06'
p965
sg741
S'0.4'
p966
sba(isrc.gp1.models.Advanced
Advanced
p967
(dp968
g697
S'3.7'
p969
sg699
S'22.4'
p970
sg701
S'-0.028'
p971
sg703
S'0.9'
p972
sg705
S'17.2'
p973
sg707
S'15.0'
p974
sg709
S'0.1'
p975
sg20
g21
sg711
S'-0.3'
p976
sg713
S'.464'
p977
sg715
S'25.6'
p978
sg717
S'.178'
p979
sg719
S'.000'
p980
sg26
S'NBA'
p981
sg722
S'-8.1'
p982
sg724
S'5.8'
p983
sg726
S'0.2'
p984
sg38
S'30'
p985
sg40
S'BOS'
p986
sg42
S'16'
p987
sg731
S'2.7'
p988
sg733
S'6.8'
p989
sg735
S'-0.3'
p990
sg62
S'167'
p991
sg738
S'-8.1'
p992
sg54
S'2005-06'
p993
sg741
S'-0.1'
p994
sba(isrc.gp1.models.Advanced
Advanced
p995
(dp996
g697
S'7.0'
p997
sg699
S'26.4'
p998
sg701
S'-0.017'
p999
sg703
S'1.8'
p1000
sg705
S'12.5'
p1001
sg707
S'12.3'
p1002
sg709
S'2.3'
p1003
sg20
g21
sg711
S'-0.2'
p1004
sg713
S'.423'
p1005
sg715
S'17.8'
p1006
sg717
S'.065'
p1007
sg719
S'.000'
p1008
sg26
S'NBA'
p1009
sg722
S'-7.1'
p1010
sg724
S'3.3'
p1011
sg726
S'0.3'
p1012
sg38
S'31'
p1013
sg40
S'BOS'
p1014
sg42
S'24'
p1015
sg731
S'4.3'
p1016
sg733
S'4.5'
p1017
sg735
S'-0.4'
p1018
sg62
S'234'
p1019
sg738
S'-4.8'
p1020
sg54
S'2006-07'
p1021
sg741
S'-0.1'
p1022
sbasS'_per36Minutes'
p1023
(lp1024
(isrc.gp1.models.Per36Minutes
Per36Minutes
p1025
(dp1026
g8
S'6.7'
p1027
sg10
S'0.0'
p1028
sg12
S'.431'
p1029
sg14
S'0.8'
p1030
sg16
S'4.8'
p1031
sg18
S'0.0'
p1032
sg19
g3
sg20
g21
sg22
S'3.4'
p1033
sg26
S'NBA'
p1034
sg28
S'1.5'
p1035
sg30
S'11.2'
p1036
sg32
S'11.3'
p1037
sg34
S'.483'
p1038
sg36
S'0.7'
p1039
sg38
S'23'
p1040
sg40
S'LAC'
p1041
sg42
S'45'
p1042
sg44
S'2.4'
p1043
sg46
S'11.2'
p1044
sg48
S'3.3'
p1045
sg50
S'.431'
p1046
sg52
S'10.0'
p1047
sg54
S'1998-99'
p1048
sg56
S'4.8'
p1049
sg58
S'3.9'
p1050
sg60
S'1.6'
p1051
sg62
S'1279'
p1052
sg64
S'36'
p1053
sba(isrc.gp1.models.Per36Minutes
Per36Minutes
p1054
(dp1055
g8
S'6.7'
p1056
sg10
S'0.0'
p1057
sg12
S'.437'
p1058
sg14
S'0.5'
p1059
sg16
S'4.8'
p1060
sg18
S'0.0'
p1061
sg19
g3
sg20
g21
sg22
S'2.8'
p1062
sg26
S'NBA'
p1063
sg28
S'2.0'
p1064
sg30
S'10.9'
p1065
sg32
S'11.3'
p1066
sg34
S'.651'
p1067
sg36
S'0.5'
p1068
sg38
S'24'
p1069
sg40
S'LAC'
p1070
sg42
S'80'
p1071
sg44
S'2.6'
p1072
sg46
S'10.9'
p1073
sg48
S'2.7'
p1074
sg50
S'.437'
p1075
sg52
S'9.5'
p1076
sg54
S'1999-00'
p1077
sg56
S'4.8'
p1078
sg58
S'4.4'
p1079
sg60
S'1.8'
p1080
sg62
S'2493'
p1081
sg64
S'77'
p1082
sba(isrc.gp1.models.Per36Minutes
Per36Minutes
p1083
(dp1084
g8
S'6.0'
p1085
sg10
S'0.0'
p1086
sg12
S'.435'
p1087
sg14
S'0.5'
p1088
sg16
S'5.2'
p1089
sg18
S'0.0'
p1090
sg19
g3
sg20
g21
sg22
S'2.8'
p1091
sg26
S'NBA'
p1092
sg28
S'1.8'
p1093
sg30
S'12.0'
p1094
sg32
S'11.9'
p1095
sg34
S'.545'
p1096
sg36
S'0.8'
p1097
sg38
S'25'
p1098
sg40
S'LAC'
p1099
sg42
S'82'
p1100
sg44
S'2.9'
p1101
sg46
S'12.0'
p1102
sg48
S'2.6'
p1103
sg50
S'.435'
p1104
sg52
S'8.9'
p1105
sg54
S'2000-01'
p1106
sg56
S'5.2'
p1107
sg58
S'4.2'
p1108
sg60
S'1.4'
p1109
sg62
S'2127'
p1110
sg64
S'82'
p1111
sba(isrc.gp1.models.Per36Minutes
Per36Minutes
p1112
(dp1113
g8
S'7.7'
p1114
sg10
S'0.0'
p1115
sg12
S'.433'
p1116
sg14
S'0.8'
p1117
sg16
S'5.4'
p1118
sg18
S'0.0'
p1119
sg19
g3
sg20
g21
sg22
S'2.3'
p1120
sg26
S'NBA'
p1121
sg28
S'2.0'
p1122
sg30
S'12.4'
p1123
sg32
S'12.4'
p1124
sg34
S'.622'
p1125
sg36
S'1.3'
p1126
sg38
S'26'
p1127
sg40
S'LAC'
p1128
sg42
S'80'
p1129
sg44
S'2.5'
p1130
sg46
S'12.4'
p1131
sg48
S'2.6'
p1132
sg50
S'.433'
p1133
sg52
S'10.0'
p1134
sg54
S'2001-02'
p1135
sg56
S'5.4'
p1136
sg58
S'3.0'
p1137
sg60
S'1.6'
p1138
sg62
S'2568'
p1139
sg64
S'79'
p1140
sba(isrc.gp1.models.Per36Minutes
Per36Minutes
p1141
(dp1142
g8
S'7.1'
p1143
sg10
S'0.0'
p1144
sg12
S'.427'
p1145
sg14
S'0.5'
p1146
sg16
S'4.9'
p1147
sg18
S'0.0'
p1148
sg19
g3
sg20
g21
sg22
S'1.5'
p1149
sg26
S'NBA'
p1150
sg28
S'2.1'
p1151
sg30
S'11.5'
p1152
sg32
S'11.6'
p1153
sg34
S'.657'
p1154
sg36
S'1.2'
p1155
sg38
S'27'
p1156
sg40
S'LAC'
p1157
sg42
S'36'
p1158
sg44
S'2.6'
p1159
sg46
S'11.5'
p1160
sg48
S'2.8'
p1161
sg50
S'.427'
p1162
sg52
S'8.6'
p1163
sg54
S'2002-03'
p1164
sg56
S'4.9'
p1165
sg58
S'2.9'
p1166
sg60
S'1.8'
p1167
sg62
S'1369'
p1168
sg64
S'36'
p1169
sba(isrc.gp1.models.Per36Minutes
Per36Minutes
p1170
(dp1171
g8
S'6.5'
p1172
sg10
S'0.0'
p1173
sg12
S'.425'
p1174
sg14
S'0.6'
p1175
sg16
S'4.7'
p1176
sg18
S'0.0'
p1177
sg19
g3
sg20
g21
sg22
S'3.0'
p1178
sg26
S'NBA'
p1179
sg28
S'2.6'
p1180
sg30
S'11.1'
p1181
sg32
S'10.8'
p1182
sg34
S'.590'
p1183
sg36
S'0.9'
p1184
sg38
S'28'
p1185
sg40
S'MIN'
p1186
sg42
S'43'
p1187
sg44
S'2.1'
p1188
sg46
S'11.1'
p1189
sg48
S'2.4'
p1190
sg50
S'.425'
p1191
sg52
S'9.5'
p1192
sg54
S'2003-04'
p1193
sg56
S'4.7'
p1194
sg58
S'5.3'
p1195
sg60
S'1.4'
p1196
sg62
S'925'
p1197
sg64
S'25'
p1198
sba(isrc.gp1.models.Per36Minutes
Per36Minutes
p1199
(dp1200
g8
S'6.5'
p1201
sg10
S'0.0'
p1202
sg12
S'.456'
p1203
sg14
S'0.4'
p1204
sg16
S'4.8'
p1205
sg18
S'0.0'
p1206
sg19
g3
sg20
g21
sg22
S'3.1'
p1207
sg26
S'NBA'
p1208
sg28
S'1.7'
p1209
sg30
S'10.5'
p1210
sg32
S'10.9'
p1211
sg34
S'.667'
p1212
sg36
S'0.9'
p1213
sg38
S'29'
p1214
sg40
S'MIN'
p1215
sg42
S'62'
p1216
sg44
S'2.0'
p1217
sg46
S'10.5'
p1218
sg48
S'2.0'
p1219
sg50
S'.456'
p1220
sg52
S'9.6'
p1221
sg54
S'2004-05'
p1222
sg56
S'4.8'
p1223
sg58
S'5.7'
p1224
sg60
S'1.4'
p1225
sg62
S'1215'
p1226
sg64
S'34'
p1227
sba(isrc.gp1.models.Per36Minutes
Per36Minutes
p1228
(dp1229
g8
S'6.7'
p1230
sg10
S'0.0'
p1231
sg12
S'.446'
p1232
sg14
S'0.9'
p1233
sg16
S'4.2'
p1234
sg18
S'0.0'
p1235
sg19
g3
sg20
g21
sg22
S'2.0'
p1236
sg26
S'NBA'
p1237
sg28
S'1.3'
p1238
sg30
S'9.4'
p1239
sg32
S'9.3'
p1240
sg34
S'.511'
p1241
sg36
S'0.9'
p1242
sg38
S'30'
p1243
sg40
S'TOT'
p1244
sg42
S'48'
p1245
sg44
S'2.2'
p1246
sg46
S'9.4'
p1247
sg48
S'1.8'
p1248
sg50
S'.446'
p1249
sg52
S'8.6'
p1250
sg54
S'2005-06'
p1251
sg56
S'4.2'
p1252
sg58
S'4.8'
p1253
sg60
S'0.9'
p1254
sg62
S'919'
p1255
sg64
S'24'
p1256
sba(isrc.gp1.models.Per36Minutes
Per36Minutes
p1257
(dp1258
g8
S'6.4'
p1259
sg10
S'0.0'
p1260
sg12
S'.446'
p1261
sg14
S'0.9'
p1262
sg16
S'4.2'
p1263
sg18
S'0.0'
p1264
sg19
g3
sg20
g21
sg22
S'2.2'
p1265
sg26
S'NBA'
p1266
sg28
S'1.3'
p1267
sg30
S'9.3'
p1268
sg32
S'9.2'
p1269
sg34
S'.487'
p1270
sg36
S'0.8'
p1271
sg38
S'30'
p1272
sg40
S'MIN'
p1273
sg42
S'32'
p1274
sg44
S'2.0'
p1275
sg46
S'9.3'
p1276
sg48
S'1.9'
p1277
sg50
S'.446'
p1278
sg52
S'8.6'
p1279
sg54
S'2005-06'
p1280
sg56
S'4.2'
p1281
sg58
S'4.8'
p1282
sg60
S'0.9'
p1283
sg62
S'752'
p1284
sg64
S'24'
p1285
sba(isrc.gp1.models.Per36Minutes
Per36Minutes
p1286
(dp1287
g8
S'7.8'
p1288
sg10
S'0.0'
p1289
sg12
S'.444'
p1290
sg14
S'0.6'
p1291
sg16
S'4.3'
p1292
sg18
S'0.0'
p1293
sg19
g3
sg20
g21
sg22
S'1.1'
p1294
sg26
S'NBA'
p1295
sg28
S'1.3'
p1296
sg30
S'9.7'
p1297
sg32
S'9.7'
p1298
sg34
S'.625'
p1299
sg36
S'1.3'
p1300
sg38
S'30'
p1301
sg40
S'BOS'
p1302
sg42
S'16'
p1303
sg44
S'3.0'
p1304
sg46
S'9.7'
p1305
sg48
S'1.7'
p1306
sg50
S'.444'
p1307
sg52
S'8.8'
p1308
sg54
S'2005-06'
p1309
sg56
S'4.3'
p1310
sg58
S'4.7'
p1311
sg60
S'1.1'
p1312
sg62
S'167'
p1313
sg64
g11
sba(isrc.gp1.models.Per36Minutes
Per36Minutes
p1314
(dp1315
g8
S'5.2'
p1316
sg10
S'0.0'
p1317
sg12
S'.413'
p1318
sg14
S'1.2'
p1319
sg16
S'2.9'
p1320
sg18
S'0.0'
p1321
sg19
g3
sg20
g21
sg22
S'2.2'
p1322
sg26
S'NBA'
p1323
sg28
S'2.0'
p1324
sg30
S'7.1'
p1325
sg32
S'6.2'
p1326
sg34
S'.667'
p1327
sg36
S'0.8'
p1328
sg38
S'31'
p1329
sg40
S'BOS'
p1330
sg42
S'24'
p1331
sg44
S'2.6'
p1332
sg46
S'7.1'
p1333
sg48
S'0.5'
p1334
sg50
S'.413'
p1335
sg52
S'7.4'
p1336
sg54
S'2006-07'
p1337
sg56
S'2.9'
p1338
sg58
S'7.4'
p1339
sg60
S'0.3'
p1340
sg62
S'234'
p1341
sg64
g11
sbasS'_fromYear'
p1342
S'1999'
p1343
sS'_url'
p1344
S'http://www.basketball-reference.com/players/o/olowomi01.html'
p1345
sS'_perGame'
p1346
(isrc.gp1.models.PerGame
PerGame
p1347
(dp1348
g8
S'1.4'
p1349
sg10
S'0.0'
p1350
sg12
S'.413'
p1351
sS'_effectiveFieldGalPercentage'
p1352
S'0.1'
p1353
sg14
S'0.3'
p1354
sg16
S'0.8'
p1355
sg18
S'0.0'
p1356
sg19
g3
sg20
g21
sg22
S'0.6'
p1357
sg26
S'NBA'
p1358
sg28
S'0.5'
p1359
sg32
S'1.7'
p1360
sS'_fieldGoalsttempted'
p1361
S'1.9'
p1362
sg34
S'.667'
p1363
sg36
S'0.2'
p1364
sg38
S'31'
p1365
sg40
S'BOS'
p1366
sg42
S'24'
p1367
sg44
S'0.7'
p1368
sg46
S'1.9'
p1369
sg48
S'0.1'
p1370
sg50
S'.413'
p1371
sg52
S'2.0'
p1372
sg54
S'2006-07'
p1373
sg56
S'0.8'
p1374
sg58
S'2.0'
p1375
sg60
S'.413'
p1376
sg62
S'9.8'
p1377
sg64
g11
sbsS'_weight'
p1378
S'269'
p1379
sS'_dob'
p1380
S'3-4-1975'
p1381
sS'_salary'
p1382
(lp1383
(isrc.gp1.models.Salary
Salary
p1384
(dp1385
g40
S'Los Angeles Clippers'
p1386
sg26
S'NBA'
p1387
sg1382
S'$2,700,000'
p1388
sg54
S'1998-99'
p1389
sba(isrc.gp1.models.Salary
Salary
p1390
(dp1391
g40
S'Los Angeles Clippers'
p1392
sg26
S'NBA'
p1393
sg1382
S'$3,456,240'
p1394
sg54
S'1999-00'
p1395
sba(isrc.gp1.models.Salary
Salary
p1396
(dp1397
g40
S'Los Angeles Clippers'
p1398
sg26
S'NBA'
p1399
sg1382
S'$3,697,440'
p1400
sg54
S'2000-01'
p1401
sba(isrc.gp1.models.Salary
Salary
p1402
(dp1403
g40
S'Los Angeles Clippers'
p1404
sg26
S'NBA'
p1405
sg1382
S'$4,662,472'
p1406
sg54
S'2001-02'
p1407
sba(isrc.gp1.models.Salary
Salary
p1408
(dp1409
g40
S'Los Angeles Clippers'
p1410
sg26
S'NBA'
p1411
sg1382
S'$6,061,213'
p1412
sg54
S'2002-03'
p1413
sba(isrc.gp1.models.Salary
Salary
p1414
(dp1415
g40
S'Minnesota Timberwolves'
p1416
sg26
S'NBA'
p1417
sg1382
S'$4,917,000'
p1418
sg54
S'2003-04'
p1419
sba(isrc.gp1.models.Salary
Salary
p1420
(dp1421
g40
S'Minnesota Timberwolves'
p1422
sg26
S'NBA'
p1423
sg1382
S'$5,408,700'
p1424
sg54
S'2004-05'
p1425
sba(isrc.gp1.models.Salary
Salary
p1426
(dp1427
g40
S'Minnesota Timberwolves'
p1428
sg26
S'NBA'
p1429
sg1382
S'$5,900,400'
p1430
sg54
S'2005-06'
p1431
sba(isrc.gp1.models.Salary
Salary
p1432
(dp1433
g40
S'Boston Celtics'
p1434
sg26
S'NBA'
p1435
sg1382
S'$1,103,225'
p1436
sg54
S'2006-07'
p1437
sbasg20
g21
sb.