(isrc.gp1.models.Player
Player
p0
(dp1
S'_experience'
p2
VRookie
p3
sS'_totals'
p4
(lp5
(isrc.gp1.models.Totals
Totals
p6
(dp7
S'_offensiveRebounds'
p8
S'2'
p9
sS'_threePointsAttempted'
p10
S'0'
p11
sS'_fieldGoalsPercentage'
p12
S'.667'
p13
sS'_assist'
p14
S'1'
p15
sS'_threePointsPercentage'
p16
S'NA'
p17
sS'_threePoints'
p18
g11
sS'_points'
p19
S'7'
p20
sS'_position'
p21
S'PF'
p22
sS'_freeThrowsPercentage'
p23
S'1.000'
p24
sS'_effectiveFieldGoalPercentage'
p25
S'.667'
p26
sS'_league'
p27
S'NBA'
p28
sS'_steals'
p29
g11
sS'_fieldGoalsAttempted'
p30
S'3'
p31
sS'_personalFouls'
p32
g15
sS'_freeThrowsAttempted'
p33
g31
sS'_totalRebounds'
p34
g31
sS'_age'
p35
S'21'
p36
sS'_team'
p37
S'BOS'
p38
sS'_games'
p39
g31
sS'_blocks'
p40
g15
sS'_twoPoints'
p41
g9
sS'_freeThrows'
p42
g31
sS'_twoPointsAttempted'
p43
g31
sS'_defensiveRebounds'
p44
g15
sS'_season'
p45
S'2015-16'
p46
sS'_fieldGoals'
p47
g9
sS'_turnOvers'
p48
g11
sS'_twoPointsPercentage'
p49
S'.667'
p50
sS'_minutesPlayed'
p51
S'6'
p52
sS'_gamesStarted'
p53
g11
sbasS'_college'
p54
S'Louisiana State University'
p55
sS'_toYear'
p56
S'2016'
p57
sS'_height'
p58
S'6-8'
p59
sS'_active'
p60
I01
sS'_shootingHand'
p61
VRight
p62
sS'_name'
p63
S'Jordan Mickey'
p64
sS'_per100Possessions'
p65
(lp66
(isrc.gp1.models.Per100Possession
Per100Possession
p67
(dp68
g8
S'16.3'
p69
sg10
S'0.0'
p70
sg12
S'.667'
p71
sS'_offensiveRating'
p72
S'182'
p73
sg14
S'8.1'
p74
sg16
g17
sg18
S'0.0'
p75
sg19
S'56.9'
p76
sg21
S'PF'
p77
sS'_defensiveRating'
p78
S'97'
p79
sg23
S'1.000'
p80
sg27
S'NBA'
p81
sg29
S'0.0'
p82
sg30
S'24.4'
p83
sg32
S'8.1'
p84
sg33
S'24.4'
p85
sg34
S'24.4'
p86
sg35
S'21'
p87
sg37
S'BOS'
p88
sg39
g31
sg40
S'8.1'
p89
sg41
S'16.3'
p90
sg42
S'24.4'
p91
sg43
S'24.4'
p92
sg44
S'8.1'
p93
sg45
S'2015-16'
p94
sg47
S'16.3'
p95
sg48
S'0.0'
p96
sg49
S'.667'
p97
sg51
g52
sg53
g11
sbasS'_advanced'
p98
(lp99
(isrc.gp1.models.Advanced
Advanced
p100
(dp101
S'_offensiveReboundPercentage'
p102
S'34.6'
p103
sS'_turnOverPercentage'
p104
S'0.0'
p105
sS'_winSharesPer48Minutes'
p106
S'.926'
p107
sS'_stealPercentage'
p108
S'0.0'
p109
sS'_usagePercentage'
p110
S'30.6'
p111
sS'_totalReboundsPercentage'
p112
S'26.4'
p113
sS'_defensiveBoxPlusMinus'
p114
S'7.5'
p115
sg21
S'PF'
p116
sS'_valueOverReplacementPlayer'
p117
S'0.1'
p118
sS'_trueShootingPercentage'
p119
S'.810'
p120
sS'_defensiveReboundPercentage'
p121
S'17.9'
p122
sS'_freeThrowsAttempRate'
p123
S'1.000'
p124
sS'_threePointsAttempRate'
p125
S'.000'
p126
sg27
S'NBA'
p127
sS'_offensiveBoxPlusMinues'
p128
S'25.3'
p129
sS'_assistPercentage'
p130
S'35.1'
p131
sS'_defensiveWinShares'
p132
S'0.0'
p133
sg35
S'21'
p134
sg37
S'BOS'
p135
sg39
g31
sS'_blockPercentage'
p136
S'13.0'
p137
sS'_playerEfficiencyRating'
p138
S'67.9'
p139
sS'_offensiveWinShares'
p140
S'0.1'
p141
sg51
g52
sS'_boxPlusMinus'
p142
S'32.8'
p143
sg45
S'2015-16'
p144
sS'_winShares'
p145
S'0.1'
p146
sbasS'_per36Minutes'
p147
(lp148
(isrc.gp1.models.Per36Minutes
Per36Minutes
p149
(dp150
g8
S'12.0'
p151
sg10
S'0.0'
p152
sg12
S'.667'
p153
sg14
S'6.0'
p154
sg16
g17
sg18
S'0.0'
p155
sg19
S'42.0'
p156
sg21
S'PF'
p157
sg23
S'1.000'
p158
sg27
S'NBA'
p159
sg29
S'0.0'
p160
sg30
S'18.0'
p161
sg32
S'6.0'
p162
sg33
S'18.0'
p163
sg34
S'18.0'
p164
sg35
S'21'
p165
sg37
S'BOS'
p166
sg39
g31
sg40
S'6.0'
p167
sg41
S'12.0'
p168
sg42
S'18.0'
p169
sg43
S'18.0'
p170
sg44
S'6.0'
p171
sg45
S'2015-16'
p172
sg47
S'12.0'
p173
sg48
S'0.0'
p174
sg49
S'.667'
p175
sg51
g52
sg53
g11
sbasS'_fromYear'
p176
S'2016'
p177
sS'_url'
p178
S'http://www.basketball-reference.com/players/m/mickejo01.html'
p179
sS'_perGame'
p180
(isrc.gp1.models.PerGame
PerGame
p181
(dp182
g8
S'0.7'
p183
sg10
S'0.0'
p184
sg12
S'.667'
p185
sS'_effectiveFieldGalPercentage'
p186
S'.667'
p187
sg14
S'0.3'
p188
sg16
g17
sg18
S'0.0'
p189
sg19
S'2.3'
p190
sg21
S'PF'
p191
sg23
S'1.000'
p192
sg27
S'NBA'
p193
sg29
S'0.0'
p194
sg32
S'0.3'
p195
sS'_fieldGoalsttempted'
p196
S'1.0'
p197
sg33
S'1.0'
p198
sg34
S'1.0'
p199
sg35
S'21'
p200
sg37
S'BOS'
p201
sg39
g31
sg40
S'0.3'
p202
sg41
S'0.7'
p203
sg42
S'1.0'
p204
sg43
S'1.0'
p205
sg44
S'0.3'
p206
sg45
S'2015-16'
p207
sg47
S'0.7'
p208
sg48
S'0.0'
p209
sg49
S'.667'
p210
sg51
S'2.0'
p211
sg53
g11
sbsS'_weight'
p212
S'235'
p213
sS'_dob'
p214
S'9-7-1994'
p215
sS'_salary'
p216
(lp217
sg21
S'F'
p218
sb.