(isrc.gp1.models.Player
Player
p0
(dp1
S'_experience'
p2
S'NA'
p3
sS'_totals'
p4
(lp5
(isrc.gp1.models.Totals
Totals
p6
(dp7
S'_offensiveRebounds'
p8
S'5'
p9
sS'_threePointsAttempted'
p10
S'1'
p11
sS'_fieldGoalsPercentage'
p12
S'.333'
p13
sS'_assist'
p14
S'2'
p15
sS'_threePointsPercentage'
p16
S'.000'
p17
sS'_threePoints'
p18
S'0'
p19
sS'_points'
p20
S'15'
p21
sS'_position'
p22
S'PF-SF'
p23
sS'_freeThrowsPercentage'
p24
S'.500'
p25
sS'_effectiveFieldGoalPercentage'
p26
S'.333'
p27
sS'_league'
p28
S'NBA'
p29
sS'_steals'
p30
S'3'
p31
sS'_fieldGoalsAttempted'
p32
S'18'
p33
sS'_personalFouls'
p34
S'30'
p35
sS'_freeThrowsAttempted'
p36
S'6'
p37
sS'_totalRebounds'
p38
S'23'
p39
sS'_age'
p40
S'26'
p41
sS'_team'
p42
S'TOT'
p43
sS'_games'
p44
S'21'
p45
sS'_blocks'
p46
S'7'
p47
sS'_twoPoints'
p48
g37
sS'_freeThrows'
p49
g31
sS'_twoPointsAttempted'
p50
S'17'
p51
sS'_defensiveRebounds'
p52
S'18'
p53
sS'_season'
p54
S'1989-90'
p55
sS'_fieldGoals'
p56
g37
sS'_turnOvers'
p57
g31
sS'_twoPointsPercentage'
p58
S'.353'
p59
sS'_minutesPlayed'
p60
S'102'
p61
sS'_gamesStarted'
p62
g19
sba(isrc.gp1.models.Totals
Totals
p63
(dp64
g8
g9
sg10
g11
sg12
S'.429'
p65
sg14
g15
sg16
S'.000'
p66
sg18
g19
sg20
S'15'
p67
sg22
S'PF'
p68
sg24
S'.500'
p69
sg26
S'.429'
p70
sg28
S'NBA'
p71
sg30
g31
sg32
S'14'
p72
sg34
S'28'
p73
sg36
g37
sg38
S'22'
p74
sg40
S'26'
p75
sg42
S'SAC'
p76
sg44
S'16'
p77
sg46
g47
sg48
g37
sg49
g31
sg50
S'13'
p78
sg52
S'17'
p79
sg54
S'1989-90'
p80
sg56
g37
sg57
g31
sg58
S'.462'
p81
sg60
S'88'
p82
sg62
g19
sba(isrc.gp1.models.Totals
Totals
p83
(dp84
g8
g11
sg10
g19
sg12
S'.000'
p85
sg14
g19
sg16
g19
sg18
g19
sg20
g3
sg22
S'SF'
p86
sg24
g11
sg26
g19
sg28
S'NBA'
p87
sg30
g19
sg32
S'4'
p88
sg34
g3
sg36
g19
sg38
g19
sg40
S'26'
p89
sg42
S'ATL'
p90
sg44
g9
sg46
g15
sg48
g88
sg49
g19
sg50
S'.000'
p91
sg52
g19
sg54
S'1989-90'
p92
sg56
g19
sg57
g19
sg58
S'.000'
p93
sg60
S'14'
p94
sg62
g19
sbasS'_college'
p95
S'Bradley University'
p96
sS'_toYear'
p97
S'1990'
p98
sS'_height'
p99
S'6-8'
p100
sS'_active'
p101
I00
sS'_shootingHand'
p102
VLeft
p103
sS'_name'
p104
S'Mike Williams'
p105
sS'_per100Possessions'
p106
(lp107
(isrc.gp1.models.Per100Possession
Per100Possession
p108
(dp109
g8
S'2.4'
p110
sg10
S'0.5'
p111
sg12
S'.333'
p112
sS'_offensiveRating'
p113
S'82'
p114
sg14
S'1.0'
p115
sg16
S'.000'
p116
sg18
S'0.0'
p117
sg20
S'7.3'
p118
sg22
S'PF-SF'
p119
sS'_defensiveRating'
p120
S'106'
p121
sg24
S'.500'
p122
sg28
S'NBA'
p123
sg30
S'1.5'
p124
sg32
S'8.8'
p125
sg34
S'14.6'
p126
sg36
S'2.9'
p127
sg38
S'11.2'
p128
sg40
S'26'
p129
sg42
S'TOT'
p130
sg44
S'21'
p131
sg46
S'3.4'
p132
sg48
S'2.9'
p133
sg49
S'1.5'
p134
sg50
S'8.3'
p135
sg52
S'8.8'
p136
sg54
S'1989-90'
p137
sg56
S'2.9'
p138
sg57
S'1.5'
p139
sg58
S'.353'
p140
sg60
S'102'
p141
sg62
g19
sba(isrc.gp1.models.Per100Possession
Per100Possession
p142
(dp143
g8
S'2.8'
p144
sg10
S'0.6'
p145
sg12
S'.429'
p146
sg113
S'93'
p147
sg14
S'1.1'
p148
sg16
S'.000'
p149
sg18
S'0.0'
p150
sg20
S'8.5'
p151
sg22
S'PF'
p152
sg120
S'104'
p153
sg24
S'.500'
p154
sg28
S'NBA'
p155
sg30
S'1.7'
p156
sg32
S'7.9'
p157
sg34
S'15.8'
p158
sg36
S'3.4'
p159
sg38
S'12.4'
p160
sg40
S'26'
p161
sg42
S'SAC'
p162
sg44
S'16'
p163
sg46
S'3.9'
p164
sg48
S'3.4'
p165
sg49
S'1.7'
p166
sg50
S'7.3'
p167
sg52
S'9.6'
p168
sg54
S'1989-90'
p169
sg56
S'3.4'
p170
sg57
S'1.7'
p171
sg58
S'.462'
p172
sg60
S'88'
p173
sg62
g19
sba(isrc.gp1.models.Per100Possession
Per100Possession
p174
(dp175
g8
S'3.6'
p176
sg10
S'0.0'
p177
sg12
S'.000'
p178
sg113
g3
sg14
S'0.0'
p179
sg16
S'0.0'
p180
sg18
S'0.0'
p181
sg20
S'118'
p182
sg22
S'SF'
p183
sg120
g3
sg24
S'3.6'
p184
sg28
S'NBA'
p185
sg30
S'0.0'
p186
sg32
S'14.3'
p187
sg34
g19
sg36
S'0.0'
p188
sg38
S'0.0'
p189
sg40
S'26'
p190
sg42
S'ATL'
p191
sg44
g9
sg46
S'7.2'
p192
sg48
S'14.3'
p193
sg49
S'0.0'
p194
sg50
S'.000'
p195
sg52
S'0.0'
p196
sg54
S'1989-90'
p197
sg56
S'0.0'
p198
sg57
S'0.0'
p199
sg58
S'0.0'
p200
sg60
S'14'
p201
sg62
g19
sbasS'_advanced'
p202
(lp203
(isrc.gp1.models.Advanced
Advanced
p204
(dp205
S'_offensiveReboundPercentage'
p206
S'5.6'
p207
sS'_turnOverPercentage'
p208
S'12.7'
p209
sS'_winSharesPer48Minutes'
p210
S'.012'
p211
sS'_stealPercentage'
p212
S'1.5'
p213
sS'_usagePercentage'
p214
S'10.0'
p215
sS'_totalReboundsPercentage'
p216
S'12.8'
p217
sS'_defensiveBoxPlusMinus'
p218
S'1.4'
p219
sg22
S'PF-SF'
p220
sS'_valueOverReplacementPlayer'
p221
S'-0.1'
p222
sS'_trueShootingPercentage'
p223
S'.363'
p224
sS'_defensiveReboundPercentage'
p225
S'19.9'
p226
sS'_freeThrowsAttempRate'
p227
S'.333'
p228
sS'_threePointsAttempRate'
p229
S'.056'
p230
sg28
S'NBA'
p231
sS'_offensiveBoxPlusMinues'
p232
S'-7.3'
p233
sS'_assistPercentage'
p234
S'2.6'
p235
sS'_defensiveWinShares'
p236
S'0.1'
p237
sg40
S'26'
p238
sg42
S'TOT'
p239
sg44
S'21'
p240
sS'_blockPercentage'
p241
S'4.1'
p242
sS'_playerEfficiencyRating'
p243
S'3.5'
p244
sS'_offensiveWinShares'
p245
S'-0.1'
p246
sg60
S'102'
p247
sS'_boxPlusMinus'
p248
S'-5.9'
p249
sg54
S'1989-90'
p250
sS'_winShares'
p251
S'0.0'
p252
sba(isrc.gp1.models.Advanced
Advanced
p253
(dp254
g206
S'6.4'
p255
sg208
S'15.3'
p256
sg210
S'.055'
p257
sg212
S'1.7'
p258
sg214
S'9.6'
p259
sg216
S'14.1'
p260
sg218
S'2.3'
p261
sg22
S'PF'
p262
sg221
S'0.0'
p263
sg223
S'.451'
p264
sg225
S'21.8'
p265
sg227
S'.429'
p266
sg229
S'.071'
p267
sg28
S'NBA'
p268
sg232
S'-6.2'
p269
sg234
S'3.0'
p270
sg236
S'0.1'
p271
sg40
S'26'
p272
sg42
S'SAC'
p273
sg44
S'16'
p274
sg241
S'4.7'
p275
sg243
S'5.8'
p276
sg245
S'0.0'
p277
sg60
S'88'
p278
sg248
S'-4.0'
p279
sg54
S'1989-90'
p280
sg251
S'0.1'
p281
sba(isrc.gp1.models.Advanced
Advanced
p282
(dp283
g206
S'0.0'
p284
sg208
S'0.0'
p285
sg210
S'-0.256'
p286
sg212
S'0.0'
p287
sg214
S'12.0'
p288
sg216
S'4.1'
p289
sg218
S'-4.2'
p290
sg22
S'SF'
p291
sg221
S'-0.1'
p292
sg223
S'.000'
p293
sg225
S'8.4'
p294
sg227
S'.000'
p295
sg229
S'.000'
p296
sg28
S'NBA'
p297
sg232
S'-13.7'
p298
sg234
S'0.0'
p299
sg236
S'0.0'
p300
sg40
S'26'
p301
sg42
S'ATL'
p302
sg44
g9
sg241
S'0.0'
p303
sg243
S'-11.0'
p304
sg245
S'-0.1'
p305
sg60
S'14'
p306
sg248
S'-17.9'
p307
sg54
S'1989-90'
p308
sg251
S'-0.1'
p309
sbasS'_per36Minutes'
p310
(lp311
(isrc.gp1.models.Per36Minutes
Per36Minutes
p312
(dp313
g8
S'1.8'
p314
sg10
S'0.4'
p315
sg12
S'.333'
p316
sg14
S'0.7'
p317
sg16
S'.000'
p318
sg18
S'0.0'
p319
sg20
S'5.3'
p320
sg22
S'PF-SF'
p321
sg24
S'.500'
p322
sg28
S'NBA'
p323
sg30
S'1.1'
p324
sg32
S'6.4'
p325
sg34
S'10.6'
p326
sg36
S'2.1'
p327
sg38
S'8.1'
p328
sg40
S'26'
p329
sg42
S'TOT'
p330
sg44
S'21'
p331
sg46
S'2.5'
p332
sg48
S'2.1'
p333
sg49
S'1.1'
p334
sg50
S'6.0'
p335
sg52
S'6.4'
p336
sg54
S'1989-90'
p337
sg56
S'2.1'
p338
sg57
S'1.1'
p339
sg58
S'.353'
p340
sg60
S'102'
p341
sg62
g19
sba(isrc.gp1.models.Per36Minutes
Per36Minutes
p342
(dp343
g8
S'2.0'
p344
sg10
S'0.4'
p345
sg12
S'.429'
p346
sg14
S'0.8'
p347
sg16
S'.000'
p348
sg18
S'0.0'
p349
sg20
S'6.1'
p350
sg22
S'PF'
p351
sg24
S'.500'
p352
sg28
S'NBA'
p353
sg30
S'1.2'
p354
sg32
S'5.7'
p355
sg34
S'11.5'
p356
sg36
S'2.5'
p357
sg38
S'9.0'
p358
sg40
S'26'
p359
sg42
S'SAC'
p360
sg44
S'16'
p361
sg46
S'2.9'
p362
sg48
S'2.5'
p363
sg49
S'1.2'
p364
sg50
S'5.3'
p365
sg52
S'7.0'
p366
sg54
S'1989-90'
p367
sg56
S'2.5'
p368
sg57
S'1.2'
p369
sg58
S'.462'
p370
sg60
S'88'
p371
sg62
g19
sba(isrc.gp1.models.Per36Minutes
Per36Minutes
p372
(dp373
g8
S'2.6'
p374
sg10
S'0.0'
p375
sg12
S'.000'
p376
sg14
S'0.0'
p377
sg16
S'0.0'
p378
sg18
S'0.0'
p379
sg20
g3
sg22
S'SF'
p380
sg24
S'2.6'
p381
sg28
S'NBA'
p382
sg30
S'0.0'
p383
sg32
S'10.3'
p384
sg34
g3
sg36
S'0.0'
p385
sg38
S'0.0'
p386
sg40
S'26'
p387
sg42
S'ATL'
p388
sg44
g9
sg46
S'5.1'
p389
sg48
S'10.3'
p390
sg49
S'0.0'
p391
sg50
S'.000'
p392
sg52
S'0.0'
p393
sg54
S'1989-90'
p394
sg56
S'0.0'
p395
sg57
S'0.0'
p396
sg58
S'0.0'
p397
sg60
S'14'
p398
sg62
g19
sbasS'_fromYear'
p399
S'1990'
p400
sS'_url'
p401
S'http://www.basketball-reference.com/players/w/willimi03.html'
p402
sS'_perGame'
p403
(isrc.gp1.models.PerGame
PerGame
p404
(dp405
g8
S'0.2'
p406
sg10
S'0.0'
p407
sg12
S'.000'
p408
sS'_effectiveFieldGalPercentage'
p409
S'0.0'
p410
sg14
S'0.0'
p411
sg16
S'0.0'
p412
sg18
S'0.0'
p413
sg20
g3
sg22
S'SF'
p414
sg24
S'0.2'
p415
sg28
S'NBA'
p416
sg30
S'0.0'
p417
sg34
g3
sS'_fieldGoalsttempted'
p418
S'0.8'
p419
sg36
S'0.0'
p420
sg38
S'0.0'
p421
sg40
S'26'
p422
sg42
S'ATL'
p423
sg44
g9
sg46
S'0.4'
p424
sg48
S'0.8'
p425
sg49
S'0.0'
p426
sg50
S'.000'
p427
sg52
S'0.0'
p428
sg54
S'1989-90'
p429
sg56
S'0.0'
p430
sg57
S'0.0'
p431
sg58
S'.000'
p432
sg60
S'2.8'
p433
sg62
g19
sbsS'_weight'
p434
S'255'
p435
sS'_dob'
p436
S'14-8-1963'
p437
sS'_salary'
p438
(lp439
sg22
S'F'
p440
sb.