(isrc.gp1.models.Player
Player
p0
(dp1
S'_experience'
p2
V4
p3
sS'_totals'
p4
(lp5
(isrc.gp1.models.Totals
Totals
p6
(dp7
S'_offensiveRebounds'
p8
S'24'
p9
sS'_threePointsAttempted'
p10
S'2'
p11
sS'_fieldGoalsPercentage'
p12
S'.500'
p13
sS'_assist'
p14
S'3'
p15
sS'_threePointsPercentage'
p16
S'.000'
p17
sS'_threePoints'
p18
S'0'
p19
sS'_points'
p20
S'62'
p21
sS'_position'
p22
S'PF'
p23
sS'_freeThrowsPercentage'
p24
S'.615'
p25
sS'_effectiveFieldGoalPercentage'
p26
S'.500'
p27
sS'_league'
p28
S'NBA'
p29
sS'_steals'
p30
S'6'
p31
sS'_fieldGoalsAttempted'
p32
S'54'
p33
sS'_personalFouls'
p34
S'16'
p35
sS'_freeThrowsAttempted'
p36
S'13'
p37
sS'_totalRebounds'
p38
S'54'
p39
sS'_age'
p40
S'24'
p41
sS'_team'
p42
S'HOU'
p43
sS'_games'
p44
S'17'
p45
sS'_blocks'
p46
g15
sS'_twoPoints'
p47
S'27'
p48
sS'_freeThrows'
p49
S'8'
p50
sS'_twoPointsAttempted'
p51
S'52'
p52
sS'_defensiveRebounds'
p53
S'30'
p54
sS'_season'
p55
S'2007-08'
p56
sS'_fieldGoals'
p57
S'27'
p58
sS'_turnOvers'
p59
S'9'
p60
sS'_twoPointsPercentage'
p61
S'.519'
p62
sS'_minutesPlayed'
p63
S'159'
p64
sS'_gamesStarted'
p65
g19
sba(isrc.gp1.models.Totals
Totals
p66
(dp67
g8
S'NA'
p68
sg10
g68
sg12
g68
sg14
g68
sg16
g68
sg18
g68
sg20
g68
sg22
g68
sg24
g68
sg26
g68
sg28
g68
sg30
g68
sg32
g68
sg34
g68
sg36
g68
sg38
g68
sg40
S'25'
p69
sg42
S'Did Not Play\xc2\xa0(other pro league\xe2\x80\x94China)'
p70
sg44
g68
sg46
g68
sg47
g68
sg49
g68
sg51
g68
sg53
g68
sg55
S'2008-09'
p71
sg57
g68
sg59
g68
sg61
g68
sg63
g68
sg65
g68
sba(isrc.gp1.models.Totals
Totals
p72
(dp73
g8
S'10'
p74
sg10
S'1'
p75
sg12
S'.367'
p76
sg14
g15
sg16
S'.000'
p77
sg18
g19
sg20
S'29'
p78
sg22
S'PF'
p79
sg24
S'.636'
p80
sg26
S'.367'
p81
sg28
S'NBA'
p82
sg30
S'5'
p83
sg32
S'30'
p84
sg34
S'14'
p85
sg36
S'11'
p86
sg38
S'24'
p87
sg40
S'26'
p88
sg42
S'TOT'
p89
sg44
S'13'
p90
sg46
g75
sg47
S'11'
p91
sg49
S'7'
p92
sg51
S'29'
p93
sg53
S'14'
p94
sg55
S'2009-10'
p95
sg57
S'11'
p96
sg59
g60
sg61
S'.379'
p97
sg63
S'96'
p98
sg65
g19
sba(isrc.gp1.models.Totals
Totals
p99
(dp100
g8
g60
sg10
g75
sg12
S'.370'
p101
sg14
g15
sg16
S'.000'
p102
sg18
g19
sg20
S'25'
p103
sg22
S'PF'
p104
sg24
S'.556'
p105
sg26
S'.370'
p106
sg28
S'NBA'
p107
sg30
S'4'
p108
sg32
S'27'
p109
sg34
S'10'
p110
sg36
g60
sg38
S'20'
p111
sg40
S'26'
p112
sg42
S'HOU'
p113
sg44
g50
sg46
g75
sg47
S'10'
p114
sg49
g83
sg51
S'26'
p115
sg53
S'11'
p116
sg55
S'2009-10'
p117
sg57
S'10'
p118
sg59
g60
sg61
S'.385'
p119
sg63
S'82'
p120
sg65
g19
sba(isrc.gp1.models.Totals
Totals
p121
(dp122
g8
g75
sg10
g19
sg12
S'.333'
p123
sg14
g19
sg16
g68
sg18
g19
sg20
g108
sg22
S'PF'
p124
sg24
S'1.000'
p125
sg26
S'.333'
p126
sg28
S'NBA'
p127
sg30
g75
sg32
g15
sg34
g108
sg36
g11
sg38
g108
sg40
S'26'
p128
sg42
S'WAS'
p129
sg44
g83
sg46
g19
sg47
g75
sg49
g11
sg51
g15
sg53
g15
sg55
S'2009-10'
p130
sg57
g75
sg59
g19
sg61
S'.333'
p131
sg63
S'14'
p132
sg65
g19
sba(isrc.gp1.models.Totals
Totals
p133
(dp134
g8
g11
sg10
g19
sg12
S'.500'
p135
sg14
g75
sg16
g68
sg18
g19
sg20
g50
sg22
S'PF'
p136
sg24
S'.500'
p137
sg26
S'.500'
p138
sg28
S'NBA'
p139
sg30
g19
sg32
g31
sg34
g11
sg36
g108
sg38
g83
sg40
S'27'
p140
sg42
S'HOU'
p141
sg44
g108
sg46
g75
sg47
g15
sg49
g11
sg51
g31
sg53
g15
sg55
S'2010-11'
p142
sg57
g15
sg59
g75
sg61
S'.500'
p143
sg63
S'16'
p144
sg65
g19
sba(isrc.gp1.models.Totals
Totals
p145
(dp146
g8
g68
sg10
g68
sg12
g68
sg14
g68
sg16
g68
sg18
g68
sg20
g68
sg22
g68
sg24
g68
sg26
g68
sg28
g68
sg30
g68
sg32
g68
sg34
g68
sg36
g68
sg38
g68
sg40
S'28'
p147
sg42
S'Did Not Play'
p148
sg44
g68
sg46
g68
sg47
g68
sg49
g68
sg51
g68
sg53
g68
sg55
S'2011-12'
p149
sg57
g68
sg59
g68
sg61
g68
sg63
g68
sg65
g68
sba(isrc.gp1.models.Totals
Totals
p150
(dp151
g8
g68
sg10
g68
sg12
g68
sg14
g68
sg16
g68
sg18
g68
sg20
g68
sg22
g68
sg24
g68
sg26
g68
sg28
g68
sg30
g68
sg32
g68
sg34
g68
sg36
g68
sg38
g68
sg40
S'29'
p152
sg42
S'Did Not Play'
p153
sg44
g68
sg46
g68
sg47
g68
sg49
g68
sg51
g68
sg53
g68
sg55
S'2012-13'
p154
sg57
g68
sg59
g68
sg61
g68
sg63
g68
sg65
g68
sba(isrc.gp1.models.Totals
Totals
p155
(dp156
g8
S'15'
p157
sg10
g11
sg12
S'.475'
p158
sg14
g83
sg16
S'.000'
p159
sg18
g19
sg20
S'84'
p160
sg22
S'PF'
p161
sg24
S'.963'
p162
sg26
S'.475'
p163
sg28
S'NBA'
p164
sg30
S'16'
p165
sg32
S'61'
p166
sg34
S'36'
p167
sg36
S'27'
p168
sg38
S'33'
p169
sg40
S'30'
p170
sg42
S'UTA'
p171
sg44
S'20'
p172
sg46
g92
sg47
S'29'
p173
sg49
S'26'
p174
sg51
S'59'
p175
sg53
S'18'
p176
sg55
S'2013-14'
p177
sg57
S'29'
p178
sg59
S'11'
p179
sg61
S'.492'
p180
sg63
S'225'
p181
sg65
g19
sbasS'_college'
p182
S'Rice University'
p183
sS'_toYear'
p184
S'2014'
p185
sS'_height'
p186
S'6-6'
p187
sS'_active'
p188
I01
sS'_shootingHand'
p189
VRight
p190
sS'_name'
p191
S'Mike Harris'
p192
sS'_per100Possessions'
p193
(lp194
(isrc.gp1.models.Per100Possession
Per100Possession
p195
(dp196
g8
S'8.0'
p197
sg10
S'0.7'
p198
sg12
S'.500'
p199
sS'_offensiveRating'
p200
S'107'
p201
sg14
S'1.0'
p202
sg16
S'.000'
p203
sg18
S'0.0'
p204
sg20
S'20.7'
p205
sg22
S'PF'
p206
sS'_defensiveRating'
p207
S'99'
p208
sg24
S'.615'
p209
sg28
S'NBA'
p210
sg30
S'2.0'
p211
sg32
S'18.0'
p212
sg34
S'5.3'
p213
sg36
S'4.3'
p214
sg38
S'18.0'
p215
sg40
S'24'
p216
sg42
S'HOU'
p217
sg44
S'17'
p218
sg46
S'1.0'
p219
sg47
S'9.0'
p220
sg49
S'2.7'
p221
sg51
S'17.4'
p222
sg53
S'10.0'
p223
sg55
S'2007-08'
p224
sg57
S'9.0'
p225
sg59
S'3.0'
p226
sg61
S'.519'
p227
sg63
S'159'
p228
sg65
g19
sba(isrc.gp1.models.Per100Possession
Per100Possession
p229
(dp230
g8
S'5.3'
p231
sg10
S'0.5'
p232
sg12
S'.367'
p233
sg200
S'82'
p234
sg14
S'1.6'
p235
sg16
S'.000'
p236
sg18
S'0.0'
p237
sg20
S'15.5'
p238
sg22
S'PF'
p239
sg207
S'105'
p240
sg24
S'.636'
p241
sg28
S'NBA'
p242
sg30
S'2.7'
p243
sg32
S'16.0'
p244
sg34
S'7.5'
p245
sg36
S'5.9'
p246
sg38
S'12.8'
p247
sg40
S'26'
p248
sg42
S'TOT'
p249
sg44
S'13'
p250
sg46
S'0.5'
p251
sg47
S'5.9'
p252
sg49
S'3.7'
p253
sg51
S'15.5'
p254
sg53
S'7.5'
p255
sg55
S'2009-10'
p256
sg57
S'5.9'
p257
sg59
S'4.8'
p258
sg61
S'.379'
p259
sg63
S'96'
p260
sg65
g19
sba(isrc.gp1.models.Per100Possession
Per100Possession
p261
(dp262
g8
S'5.6'
p263
sg10
S'0.6'
p264
sg12
S'.370'
p265
sg200
S'78'
p266
sg14
S'1.9'
p267
sg16
S'.000'
p268
sg18
S'0.0'
p269
sg20
S'15.6'
p270
sg22
S'PF'
p271
sg207
S'106'
p272
sg24
S'.556'
p273
sg28
S'NBA'
p274
sg30
S'2.5'
p275
sg32
S'16.8'
p276
sg34
S'6.2'
p277
sg36
S'5.6'
p278
sg38
S'12.4'
p279
sg40
S'26'
p280
sg42
S'HOU'
p281
sg44
g50
sg46
S'0.6'
p282
sg47
S'6.2'
p283
sg49
S'3.1'
p284
sg51
S'16.2'
p285
sg53
S'6.8'
p286
sg55
S'2009-10'
p287
sg57
S'6.2'
p288
sg59
S'5.6'
p289
sg61
S'.385'
p290
sg63
S'82'
p291
sg65
g19
sba(isrc.gp1.models.Per100Possession
Per100Possession
p292
(dp293
g8
S'3.7'
p294
sg10
S'0.0'
p295
sg12
S'.333'
p296
sg200
S'126'
p297
sg14
S'0.0'
p298
sg16
g68
sg18
S'0.0'
p299
sg20
S'15.0'
p300
sg22
S'PF'
p301
sg207
S'102'
p302
sg24
S'1.000'
p303
sg28
S'NBA'
p304
sg30
S'3.7'
p305
sg32
S'11.2'
p306
sg34
S'15.0'
p307
sg36
S'7.5'
p308
sg38
S'15.0'
p309
sg40
S'26'
p310
sg42
S'WAS'
p311
sg44
g83
sg46
S'0.0'
p312
sg47
S'3.7'
p313
sg49
S'7.5'
p314
sg51
S'11.2'
p315
sg53
S'11.2'
p316
sg55
S'2009-10'
p317
sg57
S'3.7'
p318
sg59
S'0.0'
p319
sg61
S'.333'
p320
sg63
S'14'
p321
sg65
g19
sba(isrc.gp1.models.Per100Possession
Per100Possession
p322
(dp323
g8
S'6.4'
p324
sg10
S'0.0'
p325
sg12
S'.500'
p326
sg200
S'107'
p327
sg14
S'3.2'
p328
sg16
g68
sg18
S'0.0'
p329
sg20
S'25.5'
p330
sg22
S'PF'
p331
sg207
S'108'
p332
sg24
S'.500'
p333
sg28
S'NBA'
p334
sg30
S'0.0'
p335
sg32
S'19.1'
p336
sg34
S'6.4'
p337
sg36
S'12.7'
p338
sg38
S'15.9'
p339
sg40
S'27'
p340
sg42
S'HOU'
p341
sg44
g108
sg46
S'3.2'
p342
sg47
S'9.6'
p343
sg49
S'6.4'
p344
sg51
S'19.1'
p345
sg53
S'9.6'
p346
sg55
S'2010-11'
p347
sg57
S'9.6'
p348
sg59
S'3.2'
p349
sg61
S'.500'
p350
sg63
S'16'
p351
sg65
g19
sba(isrc.gp1.models.Per100Possession
Per100Possession
p352
(dp353
g8
S'3.5'
p354
sg10
S'0.5'
p355
sg12
S'.475'
p356
sg200
S'112'
p357
sg14
S'1.2'
p358
sg16
S'.000'
p359
sg18
S'0.0'
p360
sg20
S'19.6'
p361
sg22
S'PF'
p362
sg207
S'107'
p363
sg24
S'.963'
p364
sg28
S'NBA'
p365
sg30
S'3.7'
p366
sg32
S'14.2'
p367
sg34
S'8.4'
p368
sg36
S'6.3'
p369
sg38
S'7.7'
p370
sg40
S'30'
p371
sg42
S'UTA'
p372
sg44
S'20'
p373
sg46
S'1.6'
p374
sg47
S'6.8'
p375
sg49
S'6.1'
p376
sg51
S'13.8'
p377
sg53
S'4.2'
p378
sg55
S'2013-14'
p379
sg57
S'6.8'
p380
sg59
S'2.6'
p381
sg61
S'.492'
p382
sg63
S'225'
p383
sg65
g19
sbasS'_advanced'
p384
(lp385
(isrc.gp1.models.Advanced
Advanced
p386
(dp387
S'_offensiveReboundPercentage'
p388
S'17.3'
p389
sS'_turnOverPercentage'
p390
S'13.1'
p391
sS'_winSharesPer48Minutes'
p392
S'.143'
p393
sS'_stealPercentage'
p394
S'2.0'
p395
sS'_usagePercentage'
p396
S'19.7'
p397
sS'_totalReboundsPercentage'
p398
S'19.2'
p399
sS'_defensiveBoxPlusMinus'
p400
S'-0.3'
p401
sg22
S'PF'
p402
sS'_valueOverReplacementPlayer'
p403
S'0.0'
p404
sS'_trueShootingPercentage'
p405
S'.519'
p406
sS'_defensiveReboundPercentage'
p407
S'21.0'
p408
sS'_freeThrowsAttempRate'
p409
S'.241'
p410
sS'_threePointsAttempRate'
p411
S'.037'
p412
sg28
S'NBA'
p413
sS'_offensiveBoxPlusMinues'
p414
S'-2.5'
p415
sS'_assistPercentage'
p416
S'3.2'
p417
sS'_defensiveWinShares'
p418
S'0.3'
p419
sg40
S'24'
p420
sg42
S'HOU'
p421
sg44
S'17'
p422
sS'_blockPercentage'
p423
S'1.4'
p424
sS'_playerEfficiencyRating'
p425
S'17.1'
p426
sS'_offensiveWinShares'
p427
S'0.1'
p428
sg63
S'159'
p429
sS'_boxPlusMinus'
p430
S'-2.8'
p431
sg55
S'2007-08'
p432
sS'_winShares'
p433
S'0.5'
p434
sba(isrc.gp1.models.Advanced
Advanced
p435
(dp436
g388
S'11.5'
p437
sg390
S'20.5'
p438
sg392
S'-0.037'
p439
sg394
S'2.7'
p440
sg396
S'20.2'
p441
sg398
S'14.3'
p442
sg400
S'-0.6'
p443
sg22
S'PF'
p444
sg403
S'-0.1'
p445
sg405
S'.416'
p446
sg407
S'17.3'
p447
sg409
S'.367'
p448
sg411
S'.033'
p449
sg28
S'NBA'
p450
sg414
S'-6.9'
p451
sg416
S'4.8'
p452
sg418
S'0.1'
p453
sg40
S'26'
p454
sg42
S'TOT'
p455
sg44
S'13'
p456
sg423
S'0.8'
p457
sg425
S'7.2'
p458
sg427
S'-0.2'
p459
sg63
S'96'
p460
sg430
S'-7.5'
p461
sg55
S'2009-10'
p462
sg433
S'-0.1'
p463
sba(isrc.gp1.models.Advanced
Advanced
p464
(dp465
g388
S'12.1'
p466
sg390
S'22.5'
p467
sg392
S'-0.073'
p468
sg394
S'2.5'
p469
sg396
S'21.6'
p470
sg398
S'14.0'
p471
sg400
S'-0.2'
p472
sg22
S'PF'
p473
sg403
S'-0.1'
p474
sg405
S'.404'
p475
sg407
S'16.0'
p476
sg409
S'.333'
p477
sg411
S'.037'
p478
sg28
S'NBA'
p479
sg414
S'-7.4'
p480
sg416
S'5.6'
p481
sg418
S'0.1'
p482
sg40
S'26'
p483
sg42
S'HOU'
p484
sg44
g50
sg423
S'0.9'
p485
sg425
S'6.4'
p486
sg427
S'-0.2'
p487
sg63
S'82'
p488
sg430
S'-7.6'
p489
sg55
S'2009-10'
p490
sg433
S'-0.1'
p491
sba(isrc.gp1.models.Advanced
Advanced
p492
(dp493
g388
S'8.1'
p494
sg390
S'0.0'
p495
sg392
S'.179'
p496
sg394
S'3.7'
p497
sg396
S'12.6'
p498
sg398
S'16.4'
p499
sg400
S'-2.7'
p500
sg22
S'PF'
p501
sg403
S'0.0'
p502
sg405
S'.515'
p503
sg407
S'25.0'
p504
sg409
S'.667'
p505
sg411
S'.000'
p506
sg28
S'NBA'
p507
sg414
S'-4.0'
p508
sg416
S'0.0'
p509
sg418
S'0.0'
p510
sg40
S'26'
p511
sg42
S'WAS'
p512
sg44
g83
sg423
S'0.0'
p513
sg425
S'11.9'
p514
sg427
S'0.0'
p515
sg63
S'14'
p516
sg430
S'-6.7'
p517
sg55
S'2009-10'
p518
sg433
S'0.1'
p519
sba(isrc.gp1.models.Advanced
Advanced
p520
(dp521
g388
S'14.1'
p522
sg390
S'11.4'
p523
sg392
S'.102'
p524
sg394
S'0.0'
p525
sg396
S'24.2'
p526
sg398
S'17.7'
p527
sg400
S'-1.1'
p528
sg22
S'PF'
p529
sg403
S'0.0'
p530
sg405
S'.515'
p531
sg407
S'21.3'
p532
sg409
S'.667'
p533
sg411
S'.000'
p534
sg28
S'NBA'
p535
sg414
S'-2.3'
p536
sg416
S'10.2'
p537
sg418
S'0.0'
p538
sg40
S'27'
p539
sg42
S'HOU'
p540
sg44
g108
sg423
S'4.3'
p541
sg425
S'17.9'
p542
sg427
S'0.0'
p543
sg63
S'16'
p544
sg430
S'-3.4'
p545
sg55
S'2010-11'
p546
sg433
S'0.0'
p547
sba(isrc.gp1.models.Advanced
Advanced
p548
(dp549
g388
S'7.4'
p550
sg390
S'13.1'
p551
sg392
S'.116'
p552
sg394
S'3.7'
p553
sg396
S'17.1'
p554
sg398
S'8.4'
p555
sg400
S'0.6'
p556
sg22
S'PF'
p557
sg403
S'0.1'
p558
sg405
S'.576'
p559
sg407
S'9.5'
p560
sg409
S'.443'
p561
sg411
S'.033'
p562
sg28
S'NBA'
p563
sg414
S'-1.4'
p564
sg416
S'3.6'
p565
sg418
S'0.2'
p566
sg40
S'30'
p567
sg42
S'UTA'
p568
sg44
S'20'
p569
sg423
S'2.4'
p570
sg425
S'15.3'
p571
sg427
S'0.3'
p572
sg63
S'225'
p573
sg430
S'-0.7'
p574
sg55
S'2013-14'
p575
sg433
S'0.5'
p576
sbasS'_per36Minutes'
p577
(lp578
(isrc.gp1.models.Per36Minutes
Per36Minutes
p579
(dp580
g8
S'5.4'
p581
sg10
S'0.5'
p582
sg12
S'.500'
p583
sg14
S'0.7'
p584
sg16
S'.000'
p585
sg18
S'0.0'
p586
sg20
S'14.0'
p587
sg22
S'PF'
p588
sg24
S'.615'
p589
sg28
S'NBA'
p590
sg30
S'1.4'
p591
sg32
S'12.2'
p592
sg34
S'3.6'
p593
sg36
S'2.9'
p594
sg38
S'12.2'
p595
sg40
S'24'
p596
sg42
S'HOU'
p597
sg44
S'17'
p598
sg46
S'0.7'
p599
sg47
S'6.1'
p600
sg49
S'1.8'
p601
sg51
S'11.8'
p602
sg53
S'6.8'
p603
sg55
S'2007-08'
p604
sg57
S'6.1'
p605
sg59
S'2.0'
p606
sg61
S'.519'
p607
sg63
S'159'
p608
sg65
g19
sba(isrc.gp1.models.Per36Minutes
Per36Minutes
p609
(dp610
g8
S'3.7'
p611
sg10
S'0.4'
p612
sg12
S'.367'
p613
sg14
S'1.1'
p614
sg16
S'.000'
p615
sg18
S'0.0'
p616
sg20
S'10.9'
p617
sg22
S'PF'
p618
sg24
S'.636'
p619
sg28
S'NBA'
p620
sg30
S'1.9'
p621
sg32
S'11.3'
p622
sg34
S'5.2'
p623
sg36
S'4.1'
p624
sg38
S'9.0'
p625
sg40
S'26'
p626
sg42
S'TOT'
p627
sg44
S'13'
p628
sg46
S'0.4'
p629
sg47
S'4.1'
p630
sg49
S'2.6'
p631
sg51
S'10.9'
p632
sg53
S'5.2'
p633
sg55
S'2009-10'
p634
sg57
S'4.1'
p635
sg59
S'3.4'
p636
sg61
S'.379'
p637
sg63
S'96'
p638
sg65
g19
sba(isrc.gp1.models.Per36Minutes
Per36Minutes
p639
(dp640
g8
S'4.0'
p641
sg10
S'0.4'
p642
sg12
S'.370'
p643
sg14
S'1.3'
p644
sg16
S'.000'
p645
sg18
S'0.0'
p646
sg20
S'11.0'
p647
sg22
S'PF'
p648
sg24
S'.556'
p649
sg28
S'NBA'
p650
sg30
S'1.8'
p651
sg32
S'11.9'
p652
sg34
S'4.4'
p653
sg36
S'4.0'
p654
sg38
S'8.8'
p655
sg40
S'26'
p656
sg42
S'HOU'
p657
sg44
g50
sg46
S'0.4'
p658
sg47
S'4.4'
p659
sg49
S'2.2'
p660
sg51
S'11.4'
p661
sg53
S'4.8'
p662
sg55
S'2009-10'
p663
sg57
S'4.4'
p664
sg59
S'4.0'
p665
sg61
S'.385'
p666
sg63
S'82'
p667
sg65
g19
sba(isrc.gp1.models.Per36Minutes
Per36Minutes
p668
(dp669
g8
S'2.6'
p670
sg10
S'0.0'
p671
sg12
S'.333'
p672
sg14
S'0.0'
p673
sg16
g68
sg18
S'0.0'
p674
sg20
S'10.3'
p675
sg22
S'PF'
p676
sg24
S'1.000'
p677
sg28
S'NBA'
p678
sg30
S'2.6'
p679
sg32
S'7.7'
p680
sg34
S'10.3'
p681
sg36
S'5.1'
p682
sg38
S'10.3'
p683
sg40
S'26'
p684
sg42
S'WAS'
p685
sg44
g83
sg46
S'0.0'
p686
sg47
S'2.6'
p687
sg49
S'5.1'
p688
sg51
S'7.7'
p689
sg53
S'7.7'
p690
sg55
S'2009-10'
p691
sg57
S'2.6'
p692
sg59
S'0.0'
p693
sg61
S'.333'
p694
sg63
S'14'
p695
sg65
g19
sba(isrc.gp1.models.Per36Minutes
Per36Minutes
p696
(dp697
g8
S'4.5'
p698
sg10
S'0.0'
p699
sg12
S'.500'
p700
sg14
S'2.3'
p701
sg16
g68
sg18
S'0.0'
p702
sg20
S'18.0'
p703
sg22
S'PF'
p704
sg24
S'.500'
p705
sg28
S'NBA'
p706
sg30
S'0.0'
p707
sg32
S'13.5'
p708
sg34
S'4.5'
p709
sg36
S'9.0'
p710
sg38
S'11.3'
p711
sg40
S'27'
p712
sg42
S'HOU'
p713
sg44
g108
sg46
S'2.3'
p714
sg47
S'6.8'
p715
sg49
S'4.5'
p716
sg51
S'13.5'
p717
sg53
S'6.8'
p718
sg55
S'2010-11'
p719
sg57
S'6.8'
p720
sg59
S'2.3'
p721
sg61
S'.500'
p722
sg63
S'16'
p723
sg65
g19
sba(isrc.gp1.models.Per36Minutes
Per36Minutes
p724
(dp725
g8
S'2.4'
p726
sg10
S'0.3'
p727
sg12
S'.475'
p728
sg14
S'0.8'
p729
sg16
S'.000'
p730
sg18
S'0.0'
p731
sg20
S'13.4'
p732
sg22
S'PF'
p733
sg24
S'.963'
p734
sg28
S'NBA'
p735
sg30
S'2.6'
p736
sg32
S'9.8'
p737
sg34
S'5.8'
p738
sg36
S'4.3'
p739
sg38
S'5.3'
p740
sg40
S'30'
p741
sg42
S'UTA'
p742
sg44
S'20'
p743
sg46
S'1.1'
p744
sg47
S'4.6'
p745
sg49
S'4.2'
p746
sg51
S'9.4'
p747
sg53
S'2.9'
p748
sg55
S'2013-14'
p749
sg57
S'4.6'
p750
sg59
S'1.8'
p751
sg61
S'.492'
p752
sg63
S'225'
p753
sg65
g19
sbasS'_fromYear'
p754
S'2008'
p755
sS'_url'
p756
S'http://www.basketball-reference.com/players/h/harrimi01.html'
p757
sS'_perGame'
p758
(isrc.gp1.models.PerGame
PerGame
p759
(dp760
g8
S'0.8'
p761
sg10
S'0.1'
p762
sg12
S'.475'
p763
sS'_effectiveFieldGalPercentage'
p764
S'.475'
p765
sg14
S'0.3'
p766
sg16
S'.000'
p767
sg18
S'0.0'
p768
sg20
S'4.2'
p769
sg22
S'PF'
p770
sg24
S'.963'
p771
sg28
S'NBA'
p772
sg30
S'0.8'
p773
sg34
S'1.8'
p774
sS'_fieldGoalsttempted'
p775
S'3.1'
p776
sg36
S'1.4'
p777
sg38
S'1.7'
p778
sg40
S'30'
p779
sg42
S'UTA'
p780
sg44
S'20'
p781
sg46
S'0.4'
p782
sg47
S'1.5'
p783
sg49
S'1.3'
p784
sg51
S'3.0'
p785
sg53
S'0.9'
p786
sg55
S'2013-14'
p787
sg57
S'1.5'
p788
sg59
S'0.6'
p789
sg61
S'.492'
p790
sg63
S'11.3'
p791
sg65
g19
sbsS'_weight'
p792
S'240'
p793
sS'_dob'
p794
S'15-6-1983'
p795
sS'_salary'
p796
(lp797
(isrc.gp1.models.Salary
Salary
p798
(dp799
g42
S'Houston Rockets'
p800
sg28
S'NBA'
p801
sg796
S'$64,978'
p802
sg55
S'2009-10'
p803
sbasg22
S'F'
p804
sb.