(isrc.gp1.models.Player
Player
p0
(dp1
S'_experience'
p2
S'NA'
p3
sS'_totals'
p4
(lp5
(isrc.gp1.models.Totals
Totals
p6
(dp7
S'_offensiveRebounds'
p8
S'134'
p9
sS'_threePointsAttempted'
p10
S'.273'
p11
sS'_fieldGoalsPercentage'
p12
S'3'
p13
sS'_assist'
p14
S'124'
p15
sS'_threePointsPercentage'
p16
S'170'
p17
sS'_threePoints'
p18
S'11'
p19
sS'_points'
p20
g3
sS'_position'
p21
S'SG'
p22
sS'_freeThrowsPercentage'
p23
S'91'
p24
sS'_effectiveFieldGoalPercentage'
p25
S'91'
p26
sS'_league'
p27
S'ABA'
p28
sS'_steals'
p29
S'135'
p30
sS'_fieldGoalsAttempted'
p31
S'.416'
p32
sS'_personalFouls'
p33
g3
sS'_freeThrowsAttempted'
p34
S'.752'
p35
sS'_totalRebounds'
p36
S'188'
p37
sS'_age'
p38
S'22'
p39
sS'_team'
p40
S'KEN'
p41
sS'_games'
p42
S'78'
p43
sS'_blocks'
p44
S'440'
p45
sS'_twoPoints'
p46
S'405'
p47
sS'_freeThrows'
p48
S'121'
p49
sS'_twoPointsAttempted'
p50
S'.420'
p51
sS'_defensiveRebounds'
p52
S'225'
p53
sS'_season'
p54
S'1970-71'
p55
sS'_fieldGoals'
p56
S'416'
p57
sS'_turnOvers'
p58
g3
sS'_twoPointsPercentage'
p59
S'.419'
p60
sS'_minutesPlayed'
p61
S'173'
p62
sS'_gamesStarted'
p63
S'1213'
p64
sba(isrc.gp1.models.Totals
Totals
p65
(dp66
g8
S'91'
p67
sg10
S'.400'
p68
sg12
S'16'
p69
sg14
S'81'
p70
sg16
S'117'
p71
sg18
S'40'
p72
sg20
g3
sg21
S'SG'
p73
sg23
S'67'
p74
sg25
S'84'
p75
sg27
S'ABA'
p76
sg29
S'151'
p77
sg31
S'.442'
p78
sg33
g3
sg34
S'.857'
p79
sg36
S'98'
p80
sg38
S'23'
p81
sg40
S'KEN'
p82
sg42
S'65'
p83
sg44
S'366'
p84
sg46
S'261'
p85
sg48
S'98'
p86
sg50
S'.448'
p87
sg52
S'158'
p88
sg54
S'1971-72'
p89
sg56
S'301'
p90
sg58
g3
sg59
S'.468'
p91
sg61
S'133'
p92
sg63
S'889'
p93
sbasS'_college'
p94
S'University of Kentucky'
p95
sS'_toYear'
p96
S'1972'
p97
sS'_height'
p98
S'6-4'
p99
sS'_active'
p100
I00
sS'_shootingHand'
p101
VRight
p102
sS'_name'
p103
S'Mike Pratt'
p104
sS'_per100Possessions'
p105
(lp106
sS'_advanced'
p107
(lp108
(isrc.gp1.models.Advanced
Advanced
p109
(dp110
S'_offensiveReboundPercentage'
p111
S'8.0'
p112
sS'_turnOverPercentage'
p113
S'0.9'
p114
sS'_winSharesPer48Minutes'
p115
g3
sS'_stealPercentage'
p116
S'0.0'
p117
sS'_usagePercentage'
p118
S'.037'
p119
sS'_totalReboundsPercentage'
p120
S'20.9'
p121
sS'_defensiveBoxPlusMinus'
p122
g3
sg21
S'SG'
p123
sS'_valueOverReplacementPlayer'
p124
g3
sS'_trueShootingPercentage'
p125
S'.469'
p126
sS'_defensiveReboundPercentage'
p127
S'18.7'
p128
sS'_freeThrowsAttempRate'
p129
S'.291'
p130
sS'_threePointsAttempRate'
p131
S'.026'
p132
sg27
S'ABA'
p133
sS'_offensiveBoxPlusMinues'
p134
g3
sS'_assistPercentage'
p135
S'17.4'
p136
sS'_defensiveWinShares'
p137
g3
sg38
S'22'
p138
sg40
S'KEN'
p139
sg42
S'78'
p140
sS'_blockPercentage'
p141
S'0.9'
p142
sS'_playerEfficiencyRating'
p143
S'10.4'
p144
sS'_offensiveWinShares'
p145
g3
sg61
S'1213'
p146
sS'_boxPlusMinus'
p147
g3
sg54
S'1970-71'
p148
sS'_winShares'
p149
g3
sba(isrc.gp1.models.Advanced
Advanced
p150
(dp151
g111
S'7.3'
p152
sg113
S'1.0'
p153
sg115
g3
sg116
S'19.1'
p154
sg118
S'1.2'
p155
sg120
S'8.2'
p156
sg122
g3
sg21
S'SG'
p157
sg124
g3
sg125
S'.532'
p158
sg127
S'9.0'
p159
sg129
S'.326'
p160
sg131
S'.133'
p161
sg27
S'ABA'
p162
sg134
g3
sg135
S'14.0'
p163
sg137
S'.121'
p164
sg38
S'23'
p165
sg40
S'KEN'
p166
sg42
S'65'
p167
sg141
S'18.4'
p168
sg143
S'11.3'
p169
sg145
S'2.2'
p170
sg61
S'889'
p171
sg147
g3
sg54
S'1971-72'
p172
sg149
g3
sbasS'_per36Minutes'
p173
(lp174
(isrc.gp1.models.Per36Minutes
Per36Minutes
p175
(dp176
g8
S'4.0'
p177
sg10
S'.273'
p178
sg12
S'0.1'
p179
sg14
S'3.7'
p180
sg16
S'5.0'
p181
sg18
S'0.3'
p182
sg20
g3
sg21
S'SG'
p183
sg23
S'2.7'
p184
sg27
S'ABA'
p185
sg29
S'4.0'
p186
sg31
S'.416'
p187
sg33
g3
sg34
S'.752'
p188
sg36
S'5.6'
p189
sg38
S'22'
p190
sg40
S'KEN'
p191
sg42
S'78'
p192
sg44
S'13.1'
p193
sg46
S'12.0'
p194
sg48
S'3.6'
p195
sg50
S'.420'
p196
sg52
S'6.7'
p197
sg54
S'1970-71'
p198
sg56
S'12.3'
p199
sg58
g3
sg59
S'2.7'
p200
sg61
S'5.1'
p201
sg63
S'1213'
p202
sba(isrc.gp1.models.Per36Minutes
Per36Minutes
p203
(dp204
g8
S'3.7'
p205
sg10
S'.400'
p206
sg12
S'0.6'
p207
sg14
S'3.3'
p208
sg16
S'4.7'
p209
sg18
S'1.6'
p210
sg20
g3
sg21
S'SG'
p211
sg23
S'2.7'
p212
sg27
S'ABA'
p213
sg29
S'6.1'
p214
sg31
S'.442'
p215
sg33
g3
sg34
S'.857'
p216
sg36
S'4.0'
p217
sg38
S'23'
p218
sg40
S'KEN'
p219
sg42
S'65'
p220
sg44
S'14.8'
p221
sg46
S'10.6'
p222
sg48
S'4.0'
p223
sg50
S'.448'
p224
sg52
S'6.4'
p225
sg54
S'1971-72'
p226
sg56
S'12.2'
p227
sg58
g3
sg59
S'3.4'
p228
sg61
S'5.4'
p229
sg63
S'889'
p230
sbasS'_fromYear'
p231
S'1971'
p232
sS'_url'
p233
S'http://www.basketball-reference.com/players/p/prattmi01.html'
p234
sS'_perGame'
p235
(isrc.gp1.models.PerGame
PerGame
p236
(dp237
g8
S'1.4'
p238
sg10
S'.400'
p239
sg12
S'0.2'
p240
sS'_effectiveFieldGalPercentage'
p241
S'1.3'
p242
sg14
S'1.2'
p243
sg16
S'1.8'
p244
sg18
S'0.6'
p245
sg20
g3
sg21
S'SG'
p246
sg23
S'1.0'
p247
sg27
S'ABA'
p248
sg29
S'2.3'
p249
sg33
g3
sS'_fieldGoalsttempted'
p250
S'.442'
p251
sg34
S'.857'
p252
sg36
S'1.5'
p253
sg38
S'23'
p254
sg40
S'KEN'
p255
sg42
S'65'
p256
sg44
S'5.6'
p257
sg46
S'4.0'
p258
sg48
S'1.5'
p259
sg50
S'.448'
p260
sg52
S'2.4'
p261
sg54
S'1971-72'
p262
sg56
S'4.6'
p263
sg58
g3
sg59
S'.468'
p264
sg61
S'2.0'
p265
sg63
S'13.7'
p266
sbsS'_weight'
p267
S'195'
p268
sS'_dob'
p269
S'4-8-1948'
p270
sS'_salary'
p271
(lp272
sg21
S'G-F'
p273
sb.