(isrc.gp1.models.Player
Player
p0
(dp1
S'_experience'
p2
S'NA'
p3
sS'_totals'
p4
(lp5
(isrc.gp1.models.Totals
Totals
p6
(dp7
S'_offensiveRebounds'
p8
S'151'
p9
sS'_threePointsAttempted'
p10
S'.250'
p11
sS'_fieldGoalsPercentage'
p12
S'1'
p13
sS'_assist'
p14
S'185'
p15
sS'_threePointsPercentage'
p16
S'288'
p17
sS'_threePoints'
p18
S'4'
p19
sS'_points'
p20
g3
sS'_position'
p21
S'SG'
p22
sS'_freeThrowsPercentage'
p23
S'76'
p24
sS'_effectiveFieldGoalPercentage'
p25
S'141'
p26
sS'_league'
p27
S'ABA'
p28
sS'_steals'
p29
S'220'
p30
sS'_fieldGoalsAttempted'
p31
S'.472'
p32
sS'_personalFouls'
p33
g3
sS'_freeThrowsAttempted'
p34
S'.750'
p35
sS'_totalRebounds'
p36
S'254'
p37
sS'_age'
p38
S'22'
p39
sS'_team'
p40
S'VIR'
p41
sS'_games'
p42
S'79'
p43
sS'_blocks'
p44
S'720'
p45
sS'_twoPoints'
p46
S'608'
p47
sS'_freeThrows'
p48
S'188'
p49
sS'_twoPointsAttempted'
p50
S'.474'
p51
sS'_defensiveRebounds'
p52
S'227'
p53
sS'_season'
p54
S'1972-73'
p55
sS'_fieldGoals'
p56
S'612'
p57
sS'_turnOvers'
p58
g3
sS'_twoPointsPercentage'
p59
S'.473'
p60
sS'_minutesPlayed'
p61
S'289'
p62
sS'_gamesStarted'
p63
S'2076'
p64
sba(isrc.gp1.models.Totals
Totals
p65
(dp66
g8
S'49'
p67
sg10
S'.400'
p68
sg12
S'2'
p69
sg14
S'27'
p70
sg16
S'80'
p71
sg18
S'5'
p72
sg20
g3
sg21
S'SG'
p73
sg23
S'22'
p74
sg25
S'33'
p75
sg27
S'ABA'
p76
sg29
g19
sg31
S'.480'
p77
sg33
S'199'
p78
sg34
S'.767'
p79
sg36
S'82'
p80
sg38
S'23'
p81
sg40
S'VIR'
p82
sg42
S'45'
p83
sg44
S'60'
p84
sg46
S'166'
p85
sg48
S'43'
p86
sg50
S'.482'
p87
sg52
S'71'
p88
sg54
S'1973-74'
p89
sg56
S'171'
p90
sg58
S'80'
p91
sg59
S'.485'
p92
sg61
S'82'
p93
sg63
S'652'
p94
sba(isrc.gp1.models.Totals
Totals
p95
(dp96
g8
S'75'
p97
sg10
S'.000'
p98
sg12
S'0'
p99
sg14
S'67'
p100
sg16
S'136'
p101
sg18
g69
sg20
g3
sg21
S'SG'
p102
sg23
S'20'
p103
sg25
S'28'
p104
sg27
S'ABA'
p105
sg29
S'14'
p106
sg31
S'.506'
p107
sg33
S'300'
p108
sg34
S'.683'
p109
sg36
S'176'
p110
sg38
S'24'
p111
sg40
S'SSL'
p112
sg42
S'54'
p113
sg44
S'100'
p114
sg46
S'267'
p115
sg48
S'41'
p116
sg50
S'.509'
p117
sg52
S'95'
p118
sg54
S'1974-75'
p119
sg56
S'269'
p120
sg58
S'117'
p121
sg59
S'.506'
p122
sg61
S'136'
p123
sg63
S'1341'
p124
sba(isrc.gp1.models.Totals
Totals
p125
(dp126
g8
S'80'
p127
sg10
S'.375'
p128
sg12
S'6'
p129
sg14
S'64'
p130
sg16
S'118'
p131
sg18
S'16'
p132
sg20
g3
sg21
S'SG'
p133
sg23
S'29'
p134
sg25
S'46'
p135
sg27
S'ABA'
p136
sg29
S'7'
p137
sg31
S'.517'
p138
sg33
S'300'
p139
sg34
S'.836'
p140
sg36
S'174'
p141
sg38
S'25'
p142
sg40
S'SSL'
p143
sg42
S'56'
p144
sg44
S'83'
p145
sg46
S'224'
p146
sg48
S'55'
p147
sg50
S'.527'
p148
sg52
S'109'
p149
sg54
S'1975-76'
p150
sg56
S'240'
p151
sg58
S'76'
p152
sg59
S'.529'
p153
sg61
S'124'
p154
sg63
S'1048'
p155
sba(isrc.gp1.models.Totals
Totals
p156
(dp157
g8
S'52'
p158
sg10
S'.437'
p159
sg12
S'122'
p160
sg14
S'285'
p161
sg16
S'.437'
p162
sg18
S'279'
p163
sg20
g3
sg21
S'SG'
p164
sg23
S'175'
p165
sg25
S'33'
p166
sg27
S'NBA'
p167
sg29
g3
sg31
S'.437'
p168
sg33
g3
sg34
S'130'
p169
sg36
S'96'
p170
sg38
S'26'
p171
sg40
S'KCK'
p172
sg42
S'73'
p173
sg44
g3
sg46
S'41'
p174
sg48
S'97'
p175
sg50
S'57'
p176
sg52
S'18'
p177
sg54
S'1976-77'
p178
sg56
S'279'
p179
sg58
g3
sg59
S'.719'
p180
sg61
S'122'
p181
sg63
S'1224'
p182
sbasS'_college'
p183
S'Duquesne University'
p184
sS'_toYear'
p185
S'1977'
p186
sS'_height'
p187
S'6-3'
p188
sS'_active'
p189
I00
sS'_shootingHand'
p190
VRight
p191
sS'_name'
p192
S'Mike Barr'
p193
sS'_per100Possessions'
p194
(lp195
(isrc.gp1.models.Per100Possession
Per100Possession
p196
(dp197
g8
S'3.4'
p198
sg10
S'.400'
p199
sg12
S'0.1'
p200
sS'_offensiveRating'
p201
S'107'
p202
sg14
S'1.9'
p203
sg16
S'5.6'
p204
sg18
S'0.4'
p205
sg20
S'96'
p206
sg21
S'SG'
p207
sS'_defensiveRating'
p208
g3
sg23
S'1.5'
p209
sg27
S'ABA'
p210
sg29
S'0.3'
p211
sg31
S'.480'
p212
sg33
S'14.0'
p213
sg34
S'.767'
p214
sg36
S'5.8'
p215
sg38
S'23'
p216
sg40
S'VIR'
p217
sg42
S'45'
p218
sg44
S'4.2'
p219
sg46
S'11.7'
p220
sg48
S'3.0'
p221
sg50
S'.482'
p222
sg52
S'5.0'
p223
sg54
S'1973-74'
p224
sg56
S'12.0'
p225
sg58
S'5.6'
p226
sg59
S'2.3'
p227
sg61
S'5.8'
p228
sg63
S'652'
p229
sba(isrc.gp1.models.Per100Possession
Per100Possession
p230
(dp231
g8
S'2.5'
p232
sg10
S'.000'
p233
sg12
S'0.0'
p234
sg201
S'108'
p235
sg14
S'2.3'
p236
sg16
S'4.6'
p237
sg18
S'0.1'
p238
sg20
S'95'
p239
sg21
S'SG'
p240
sg208
g3
sg23
S'0.7'
p241
sg27
S'ABA'
p242
sg29
S'0.5'
p243
sg31
S'.506'
p244
sg33
S'10.2'
p245
sg34
S'.683'
p246
sg36
S'6.0'
p247
sg38
S'24'
p248
sg40
S'SSL'
p249
sg42
S'54'
p250
sg44
S'3.4'
p251
sg46
S'9.1'
p252
sg48
S'1.4'
p253
sg50
S'.509'
p254
sg52
S'3.2'
p255
sg54
S'1974-75'
p256
sg56
S'9.1'
p257
sg58
S'4.0'
p258
sg59
S'0.9'
p259
sg61
S'4.6'
p260
sg63
S'1341'
p261
sba(isrc.gp1.models.Per100Possession
Per100Possession
p262
(dp263
g8
S'3.5'
p264
sg10
S'.375'
p265
sg12
S'0.3'
p266
sg201
S'106'
p267
sg14
S'2.8'
p268
sg16
S'5.1'
p269
sg18
S'0.7'
p270
sg20
S'105'
p271
sg21
S'SG'
p272
sg208
g3
sg23
S'1.3'
p273
sg27
S'ABA'
p274
sg29
S'0.3'
p275
sg31
S'.517'
p276
sg33
S'13.0'
p277
sg34
S'.836'
p278
sg36
S'7.5'
p279
sg38
S'25'
p280
sg40
S'SSL'
p281
sg42
S'56'
p282
sg44
S'3.6'
p283
sg46
S'9.7'
p284
sg48
S'2.4'
p285
sg50
S'.527'
p286
sg52
S'4.7'
p287
sg54
S'1975-76'
p288
sg56
S'10.4'
p289
sg58
S'3.3'
p290
sg59
S'2.0'
p291
sg61
S'5.4'
p292
sg63
S'1048'
p293
sba(isrc.gp1.models.Per100Possession
Per100Possession
p294
(dp295
g8
S'1.9'
p296
sg10
S'.437'
p297
sg12
S'4.5'
p298
sg201
g3
sg14
S'10.5'
p299
sg16
S'1.5'
p300
sg18
S'10.3'
p301
sg20
g3
sg21
S'SG'
p302
sg208
g3
sg23
S'6.5'
p303
sg27
S'NBA'
p304
sg29
S'101'
p305
sg31
S'.437'
p306
sg33
g3
sg34
S'4.8'
p307
sg36
S'3.5'
p308
sg38
S'26'
p309
sg40
S'KCK'
p310
sg42
S'73'
p311
sg44
g3
sg46
S'2.1'
p312
sg48
S'3.6'
p313
sg50
S'.719'
p314
sg52
S'0.7'
p315
sg54
S'1976-77'
p316
sg56
S'10.3'
p317
sg58
g3
sg59
S'1.2'
p318
sg61
S'4.5'
p319
sg63
S'1224'
p320
sbasS'_advanced'
p321
(lp322
(isrc.gp1.models.Advanced
Advanced
p323
(dp324
S'_offensiveReboundPercentage'
p325
S'3.6'
p326
sS'_turnOverPercentage'
p327
S'1.3'
p328
sS'_winSharesPer48Minutes'
p329
g3
sS'_stealPercentage'
p330
S'21.0'
p331
sS'_usagePercentage'
p332
S'1.4'
p333
sS'_totalReboundsPercentage'
p334
S'5.3'
p335
sS'_defensiveBoxPlusMinus'
p336
g3
sg21
S'SG'
p337
sS'_valueOverReplacementPlayer'
p338
g3
sS'_trueShootingPercentage'
p339
S'.518'
p340
sS'_defensiveReboundPercentage'
p341
S'7.0'
p342
sS'_freeThrowsAttempRate'
p343
S'.307'
p344
sS'_threePointsAttempRate'
p345
S'.007'
p346
sg27
S'ABA'
p347
sS'_offensiveBoxPlusMinues'
p348
g3
sS'_assistPercentage'
p349
S'15.4'
p350
sS'_defensiveWinShares'
p351
S'.062'
p352
sg38
S'22'
p353
sg40
S'VIR'
p354
sg42
S'79'
p355
sS'_blockPercentage'
p356
S'15.7'
p357
sS'_playerEfficiencyRating'
p358
S'8.8'
p359
sS'_offensiveWinShares'
p360
S'2.7'
p361
sg61
S'2076'
p362
sS'_boxPlusMinus'
p363
g3
sg54
S'1972-73'
p364
sS'_winShares'
p365
g3
sba(isrc.gp1.models.Advanced
Advanced
p366
(dp367
g325
S'3.4'
p368
sg327
S'24.0'
p369
sg329
S'.027'
p370
sg330
S'1.9'
p371
sg332
S'14.9'
p372
sg334
S'5.5'
p373
sg336
S'-1.0'
p374
sg21
S'SG'
p375
sg338
S'-0.2'
p376
sg339
S'.524'
p377
sg341
S'7.5'
p378
sg343
S'.251'
p379
sg345
S'.029'
p380
sg27
S'ABA'
p381
sg348
S'-2.2'
p382
sg349
S'17.5'
p383
sg351
S'0.3'
p384
sg38
S'23'
p385
sg40
S'VIR'
p386
sg42
S'45'
p387
sg356
S'0.3'
p388
sg358
S'9.6'
p389
sg360
S'0.1'
p390
sg61
S'652'
p391
sg363
S'-3.2'
p392
sg54
S'1973-74'
p393
sg365
S'0.4'
p394
sba(isrc.gp1.models.Advanced
Advanced
p395
(dp396
g325
S'1.5'
p397
sg327
S'25.8'
p398
sg329
S'.025'
p399
sg330
S'2.3'
p400
sg332
S'10.9'
p401
sg334
S'3.5'
p402
sg336
S'-0.3'
p403
sg21
S'SG'
p404
sg338
S'-0.4'
p405
sg339
S'.523'
p406
sg341
S'5.7'
p407
sg343
S'.152'
p408
sg345
S'.007'
p409
sg27
S'ABA'
p410
sg348
S'-3.0'
p411
sg349
S'15.8'
p412
sg351
S'0.8'
p413
sg38
S'24'
p414
sg40
S'SSL'
p415
sg42
S'54'
p416
sg356
S'0.5'
p417
sg358
S'8.2'
p418
sg360
S'-0.1'
p419
sg61
S'1341'
p420
sg363
S'-3.3'
p421
sg54
S'1974-75'
p422
sg365
S'0.7'
p423
sba(isrc.gp1.models.Advanced
Advanced
p424
(dp425
g325
S'2.7'
p426
sg327
S'23.9'
p427
sg329
S'.080'
p428
sg330
S'2.8'
p429
sg332
S'12.6'
p430
sg334
S'5.0'
p431
sg336
S'-0.3'
p432
sg21
S'SG'
p433
sg338
S'0.1'
p434
sg339
S'.568'
p435
sg341
S'7.4'
p436
sg343
S'.229'
p437
sg345
S'.067'
p438
sg27
S'ABA'
p439
sg348
S'-1.4'
p440
sg349
S'20.6'
p441
sg351
S'0.9'
p442
sg38
S'25'
p443
sg40
S'SSL'
p444
sg42
S'56'
p445
sg356
S'0.4'
p446
sg358
S'12.5'
p447
sg360
S'0.9'
p448
sg61
S'1048'
p449
sg363
S'-1.7'
p450
sg54
S'1975-76'
p451
sg365
S'1.7'
p452
sba(isrc.gp1.models.Advanced
Advanced
p453
(dp454
g325
S'8.5'
p455
sg327
S'1.0'
p456
sg329
S'-3.0'
p457
sg330
S'0.8'
p458
sg332
S'1.4'
p459
sg334
S'17.9'
p460
sg336
g3
sg21
S'SG'
p461
sg338
g3
sg339
S'.469'
p462
sg341
S'5.5'
p463
sg343
S'2.7'
p464
sg345
S'.204'
p465
sg27
S'NBA'
p466
sg348
S'-0.3'
p467
sg349
S'1.9'
p468
sg351
S'-3.1'
p469
sg38
S'26'
p470
sg40
S'KCK'
p471
sg42
S'73'
p472
sg356
S'0.4'
p473
sg358
S'10.3'
p474
sg360
S'.054'
p475
sg61
S'1224'
p476
sg363
g3
sg54
S'1976-77'
p477
sg365
S'0.0'
p478
sbasS'_per36Minutes'
p479
(lp480
(isrc.gp1.models.Per36Minutes
Per36Minutes
p481
(dp482
g8
S'2.6'
p483
sg10
S'.250'
p484
sg12
S'0.0'
p485
sg14
S'3.2'
p486
sg16
S'5.0'
p487
sg18
S'0.1'
p488
sg20
g3
sg21
S'SG'
p489
sg23
S'1.3'
p490
sg27
S'ABA'
p491
sg29
S'3.8'
p492
sg31
S'.472'
p493
sg33
g3
sg34
S'.750'
p494
sg36
S'4.4'
p495
sg38
S'22'
p496
sg40
S'VIR'
p497
sg42
S'79'
p498
sg44
S'12.5'
p499
sg46
S'10.5'
p500
sg48
S'3.3'
p501
sg50
S'.474'
p502
sg52
S'3.9'
p503
sg54
S'1972-73'
p504
sg56
S'10.6'
p505
sg58
g3
sg59
S'2.4'
p506
sg61
S'5.0'
p507
sg63
S'2076'
p508
sba(isrc.gp1.models.Per36Minutes
Per36Minutes
p509
(dp510
g8
S'2.7'
p511
sg10
S'.400'
p512
sg12
S'0.1'
p513
sg14
S'1.5'
p514
sg16
S'4.4'
p515
sg18
S'0.3'
p516
sg20
g3
sg21
S'SG'
p517
sg23
S'1.2'
p518
sg27
S'ABA'
p519
sg29
S'0.2'
p520
sg31
S'.480'
p521
sg33
S'11.0'
p522
sg34
S'.767'
p523
sg36
S'4.5'
p524
sg38
S'23'
p525
sg40
S'VIR'
p526
sg42
S'45'
p527
sg44
S'3.3'
p528
sg46
S'9.2'
p529
sg48
S'2.4'
p530
sg50
S'.482'
p531
sg52
S'3.9'
p532
sg54
S'1973-74'
p533
sg56
S'9.4'
p534
sg58
S'4.4'
p535
sg59
S'1.8'
p536
sg61
S'4.5'
p537
sg63
S'652'
p538
sba(isrc.gp1.models.Per36Minutes
Per36Minutes
p539
(dp540
g8
S'2.0'
p541
sg10
S'.000'
p542
sg12
S'0.0'
p543
sg14
S'1.8'
p544
sg16
S'3.7'
p545
sg18
S'0.1'
p546
sg20
g3
sg21
S'SG'
p547
sg23
S'0.5'
p548
sg27
S'ABA'
p549
sg29
S'0.4'
p550
sg31
S'.506'
p551
sg33
S'8.1'
p552
sg34
S'.683'
p553
sg36
S'4.7'
p554
sg38
S'24'
p555
sg40
S'SSL'
p556
sg42
S'54'
p557
sg44
S'2.7'
p558
sg46
S'7.2'
p559
sg48
S'1.1'
p560
sg50
S'.509'
p561
sg52
S'2.6'
p562
sg54
S'1974-75'
p563
sg56
S'7.2'
p564
sg58
S'3.1'
p565
sg59
S'0.8'
p566
sg61
S'3.7'
p567
sg63
S'1341'
p568
sba(isrc.gp1.models.Per36Minutes
Per36Minutes
p569
(dp570
g8
S'2.7'
p571
sg10
S'.375'
p572
sg12
S'0.2'
p573
sg14
S'2.2'
p574
sg16
S'4.1'
p575
sg18
S'0.5'
p576
sg20
g3
sg21
S'SG'
p577
sg23
S'1.0'
p578
sg27
S'ABA'
p579
sg29
S'0.2'
p580
sg31
S'.517'
p581
sg33
S'10.3'
p582
sg34
S'.836'
p583
sg36
S'6.0'
p584
sg38
S'25'
p585
sg40
S'SSL'
p586
sg42
S'56'
p587
sg44
S'2.9'
p588
sg46
S'7.7'
p589
sg48
S'1.9'
p590
sg50
S'.527'
p591
sg52
S'3.7'
p592
sg54
S'1975-76'
p593
sg56
S'8.2'
p594
sg58
S'2.6'
p595
sg59
S'1.6'
p596
sg61
S'4.3'
p597
sg63
S'1048'
p598
sba(isrc.gp1.models.Per36Minutes
Per36Minutes
p599
(dp600
g8
S'1.5'
p601
sg10
S'.437'
p602
sg12
S'3.6'
p603
sg14
S'8.4'
p604
sg16
S'1.2'
p605
sg18
S'8.2'
p606
sg20
g3
sg21
S'SG'
p607
sg23
S'5.1'
p608
sg27
S'NBA'
p609
sg29
g3
sg31
S'.437'
p610
sg33
g3
sg34
S'3.8'
p611
sg36
S'2.8'
p612
sg38
S'26'
p613
sg40
S'KCK'
p614
sg42
S'73'
p615
sg44
g3
sg46
S'1.7'
p616
sg48
S'2.9'
p617
sg50
S'.719'
p618
sg52
S'0.5'
p619
sg54
S'1976-77'
p620
sg56
S'8.2'
p621
sg58
g3
sg59
S'1.0'
p622
sg61
S'3.6'
p623
sg63
S'1224'
p624
sbasS'_fromYear'
p625
S'1973'
p626
sS'_url'
p627
S'http://www.basketball-reference.com/players/b/barrmi01.html'
p628
sS'_perGame'
p629
(isrc.gp1.models.PerGame
PerGame
p630
(dp631
g8
S'0.7'
p632
sg10
S'.437'
p633
sg12
S'1.7'
p634
sS'_effectiveFieldGalPercentage'
p635
S'0.5'
p636
sg14
S'3.9'
p637
sg16
S'.437'
p638
sg18
S'3.8'
p639
sg20
g3
sg21
S'SG'
p640
sg23
S'2.4'
p641
sg27
S'NBA'
p642
sg29
g3
sg33
g3
sS'_fieldGoalsttempted'
p643
S'.437'
p644
sg34
S'1.8'
p645
sg36
S'1.3'
p646
sg38
S'26'
p647
sg40
S'KCK'
p648
sg42
S'73'
p649
sg44
g3
sg46
S'0.6'
p650
sg48
S'1.3'
p651
sg50
S'0.8'
p652
sg52
S'0.2'
p653
sg54
S'1976-77'
p654
sg56
S'3.8'
p655
sg58
g3
sg59
S'.719'
p656
sg61
S'1.7'
p657
sg63
S'16.8'
p658
sbsS'_weight'
p659
S'180'
p660
sS'_dob'
p661
S'19-10-1950'
p662
sS'_salary'
p663
(lp664
sg21
S'G'
p665
sb.