(isrc.gp1.models.Player
Player
p0
(dp1
S'_experience'
p2
S'NA'
p3
sS'_totals'
p4
(lp5
(isrc.gp1.models.Totals
Totals
p6
(dp7
S'_offensiveRebounds'
p8
S'51'
p9
sS'_threePointsAttempted'
p10
S'.513'
p11
sS'_fieldGoalsPercentage'
p12
S'362'
p13
sS'_assist'
p14
S'215'
p15
sS'_threePointsPercentage'
p16
S'.513'
p17
sS'_threePoints'
p18
S'706'
p19
sS'_points'
p20
g3
sS'_position'
p21
S'SF'
p22
sS'_freeThrowsPercentage'
p23
S'60'
p24
sS'_effectiveFieldGoalPercentage'
p25
S'127'
p26
sS'_league'
p27
S'NBA'
p28
sS'_steals'
p29
S'855'
p30
sS'_fieldGoalsAttempted'
p31
S'.513'
p32
sS'_personalFouls'
p33
g3
sS'_freeThrowsAttempted'
p34
S'329'
p35
sS'_totalRebounds'
p36
S'102'
p37
sS'_age'
p38
S'23'
p39
sS'_team'
p40
S'CLE'
p41
sS'_games'
p42
S'80'
p43
sS'_blocks'
p44
g3
sS'_twoPoints'
p45
S'131'
p46
sS'_freeThrows'
p47
S'202'
p48
sS'_twoPointsAttempted'
p49
S'178'
p50
sS'_defensiveRebounds'
p51
S'29'
p52
sS'_season'
p53
S'1978-79'
p54
sS'_fieldGoals'
p55
S'706'
p56
sS'_turnOvers'
p57
g3
sS'_twoPointsPercentage'
p58
S'.736'
p59
sS'_minutesPlayed'
p60
S'362'
p61
sS'_gamesStarted'
p62
S'1576'
p63
sba(isrc.gp1.models.Totals
Totals
p64
(dp65
g8
S'385'
p66
sg10
S'.000'
p67
sg12
S'0'
p68
sg14
S'70'
p69
sg16
S'775'
p70
sg18
S'6'
p71
sg20
g3
sg21
S'SF'
p72
sg23
S'206'
p73
sg25
S'270'
p74
sg27
S'NBA'
p75
sg29
S'77'
p76
sg31
S'.523'
p77
sg33
S'1820'
p78
sg34
S'.787'
p79
sg36
S'93'
p80
sg38
S'24'
p81
sg40
S'CLE'
p82
sg42
S'82'
p83
sg44
S'172'
p84
sg45
S'1476'
p85
sg47
S'343'
p86
sg49
S'.525'
p87
sg51
S'591'
p88
sg53
S'1979-80'
p89
sg55
S'1482'
p90
sg57
S'259'
p91
sg58
S'.523'
p92
sg60
S'775'
p93
sg62
S'2802'
p94
sba(isrc.gp1.models.Totals
Totals
p95
(dp96
g8
S'287'
p97
sg10
S'.444'
p98
sg12
S'4'
p99
sg14
S'63'
p100
sg16
S'849'
p101
sg18
S'9'
p102
sg20
g3
sg21
S'SF'
p103
sg23
S'215'
p104
sg25
S'302'
p105
sg27
S'NBA'
p106
sg29
S'52'
p107
sg31
S'.476'
p108
sg33
S'2012'
p109
sg34
S'.784'
p110
sg36
S'139'
p111
sg38
S'25'
p112
sg40
S'CLE'
p113
sg42
S'82'
p114
sg44
S'175'
p115
sg45
S'1782'
p116
sg47
S'385'
p117
sg49
S'.476'
p118
sg51
S'502'
p119
sg53
S'1980-81'
p120
sg55
S'1791'
p121
sg57
S'199'
p122
sg58
S'.477'
p123
sg60
S'853'
p124
sg62
S'3194'
p125
sba(isrc.gp1.models.Totals
Totals
p126
(dp127
g8
S'244'
p128
sg10
S'7'
p129
sg12
S'.510'
p130
sg14
S'82'
p131
sg16
S'.000'
p132
sg18
g68
sg20
S'1726'
p133
sg21
S'SF'
p134
sg23
S'.728'
p135
sg25
S'.510'
p136
sg27
S'NBA'
p137
sg29
S'60'
p138
sg31
S'1477'
p139
sg33
S'277'
p140
sg34
S'302'
p141
sg36
S'590'
p142
sg38
S'26'
p143
sg40
S'TOT'
p144
sg42
S'84'
p145
sg44
S'43'
p146
sg45
S'753'
p147
sg47
S'220'
p148
sg49
S'1470'
p149
sg51
S'346'
p150
sg53
S'1981-82'
p151
sg55
S'753'
p152
sg57
S'153'
p153
sg58
S'.512'
p154
sg60
S'3063'
p155
sg62
S'83'
p156
sba(isrc.gp1.models.Totals
Totals
p157
(dp158
g8
S'71'
p159
sg10
g71
sg12
S'.454'
p160
sg14
S'39'
p161
sg16
S'.000'
p162
sg18
g68
sg20
S'530'
p163
sg21
S'SF'
p164
sg23
S'.720'
p165
sg25
S'.454'
p166
sg27
S'NBA'
p167
sg29
S'27'
p168
sg31
S'504'
p169
sg33
S'77'
p170
sg34
S'100'
p171
sg36
S'141'
p172
sg38
S'26'
p173
sg40
S'CLE'
p174
sg42
S'27'
p175
sg44
S'15'
p176
sg45
S'229'
p177
sg47
S'72'
p178
sg49
S'498'
p179
sg51
S'70'
p180
sg53
S'1981-82'
p181
sg55
S'229'
p182
sg57
S'55'
p183
sg58
S'.460'
p184
sg60
S'973'
p185
sg62
S'26'
p186
sba(isrc.gp1.models.Totals
Totals
p187
(dp188
g8
S'173'
p189
sg10
S'1'
p190
sg12
S'.539'
p191
sg14
S'43'
p192
sg16
S'.000'
p193
sg18
g68
sg20
S'1196'
p194
sg21
S'SF'
p195
sg23
S'.733'
p196
sg25
S'.539'
p197
sg27
S'NBA'
p198
sg29
S'33'
p199
sg31
S'973'
p200
sg33
S'200'
p201
sg34
S'202'
p202
sg36
S'449'
p203
sg38
S'26'
p204
sg40
S'SAS'
p205
sg42
S'57'
p206
sg44
S'28'
p207
sg45
S'524'
p208
sg47
S'148'
p209
sg49
S'972'
p210
sg51
S'276'
p211
sg53
S'1981-82'
p212
sg55
S'524'
p213
sg57
S'98'
p214
sg58
S'.539'
p215
sg60
S'2090'
p216
sg62
S'57'
p217
sba(isrc.gp1.models.Totals
Totals
p218
(dp219
g8
S'188'
p220
sg10
S'3'
p221
sg12
S'.511'
p222
sg14
S'98'
p223
sg16
S'.000'
p224
sg18
g68
sg20
S'1591'
p225
sg21
S'SF'
p226
sg23
S'.758'
p227
sg25
S'.511'
p228
sg27
S'NBA'
p229
sg29
S'57'
p230
sg31
S'1342'
p231
sg33
S'248'
p232
sg34
S'289'
p233
sg36
S'537'
p234
sg38
S'27'
p235
sg40
S'SAS'
p236
sg42
S'80'
p237
sg44
S'52'
p238
sg45
S'686'
p239
sg47
S'219'
p240
sg49
S'1339'
p241
sg51
S'349'
p242
sg53
S'1982-83'
p243
sg55
S'686'
p244
sg57
S'126'
p245
sg58
S'.512'
p246
sg60
S'2803'
p247
sg62
S'79'
p248
sba(isrc.gp1.models.Totals
Totals
p249
(dp250
g8
S'188'
p251
sg10
S'14'
p252
sg12
S'.488'
p253
sg14
S'93'
p254
sg16
S'.429'
p255
sg18
g71
sg20
S'1839'
p256
sg21
S'SF'
p257
sg23
S'.779'
p258
sg25
S'.490'
p259
sg27
S'NBA'
p260
sg29
S'62'
p261
sg31
S'1597'
p262
sg33
S'251'
p263
sg34
S'353'
p264
sg36
S'570'
p265
sg38
S'28'
p266
sg40
S'SAS'
p267
sg42
S'79'
p268
sg44
S'73'
p269
sg45
S'773'
p270
sg47
S'275'
p271
sg49
S'1583'
p272
sg51
S'382'
p273
sg53
S'1983-84'
p274
sg55
S'779'
p275
sg57
S'141'
p276
sg58
S'.488'
p277
sg60
S'2853'
p278
sg62
S'79'
p279
sba(isrc.gp1.models.Totals
Totals
p280
(dp281
g8
S'145'
p282
sg10
S'23'
p283
sg12
S'.497'
p284
sg14
S'151'
p285
sg16
S'.217'
p286
sg18
S'5'
p287
sg20
S'1824'
p288
sg21
S'SF'
p289
sg23
S'.777'
p290
sg25
S'.499'
p291
sg27
S'NBA'
p292
sg29
S'61'
p293
sg31
S'1558'
p294
sg33
S'219'
p295
sg34
S'346'
p296
sg36
S'417'
p297
sg38
S'29'
p298
sg40
S'SAS'
p299
sg42
S'82'
p300
sg44
S'27'
p301
sg45
S'770'
p302
sg47
S'269'
p303
sg49
S'1535'
p304
sg51
S'272'
p305
sg53
S'1984-85'
p306
sg55
S'775'
p307
sg57
S'144'
p308
sg58
S'.502'
p309
sg60
S'2853'
p310
sg62
S'82'
p311
sba(isrc.gp1.models.Totals
Totals
p312
(dp313
g8
S'134'
p314
sg10
S'12'
p315
sg12
S'.473'
p316
sg14
S'188'
p317
sg16
S'.000'
p318
sg18
g68
sg20
S'1921'
p319
sg21
S'SF'
p320
sg23
S'.809'
p321
sg25
S'.473'
p322
sg27
S'NBA'
p323
sg29
S'56'
p324
sg31
S'1697'
p325
sg33
S'175'
p326
sg34
S'392'
p327
sg36
S'409'
p328
sg38
S'30'
p329
sg40
S'SAS'
p330
sg42
S'82'
p331
sg44
S'25'
p332
sg45
S'802'
p333
sg47
S'317'
p334
sg49
S'1685'
p335
sg51
S'275'
p336
sg53
S'1985-86'
p337
sg55
S'802'
p338
sg57
S'184'
p339
sg58
S'.476'
p340
sg60
S'2970'
p341
sg62
S'82'
p342
sba(isrc.gp1.models.Totals
Totals
p343
(dp344
g8
S'38'
p345
sg10
S'2'
p346
sg12
S'.435'
p347
sg14
S'38'
p348
sg16
S'.500'
p349
sg18
g190
sg20
S'509'
p350
sg21
S'SF'
p351
sg23
S'.821'
p352
sg25
S'.436'
p353
sg27
S'NBA'
p354
sg29
S'19'
p355
sg31
S'478'
p356
sg33
S'68'
p357
sg34
S'112'
p358
sg36
S'103'
p359
sg38
S'31'
p360
sg40
S'SAS'
p361
sg42
S'40'
p362
sg44
g102
sg45
S'207'
p363
sg47
S'92'
p364
sg49
S'476'
p365
sg51
S'65'
p366
sg53
S'1986-87'
p367
sg55
S'208'
p368
sg57
S'51'
p369
sg58
S'.435'
p370
sg60
S'922'
p371
sg62
S'18'
p372
sba(isrc.gp1.models.Totals
Totals
p373
(dp374
g8
S'54'
p375
sg10
S'12'
p376
sg12
S'.482'
p377
sg14
S'68'
p378
sg16
S'.250'
p379
sg18
g221
sg20
S'919'
p380
sg21
S'SF'
p381
sg23
S'.825'
p382
sg25
S'.484'
p383
sg27
S'NBA'
p384
sg29
S'31'
p385
sg31
S'784'
p386
sg33
S'101'
p387
sg34
S'194'
p388
sg36
S'198'
p389
sg38
S'32'
p390
sg40
S'SAS'
p391
sg42
S'68'
p392
sg44
S'13'
p393
sg45
S'375'
p394
sg47
S'160'
p395
sg49
S'772'
p396
sg51
S'144'
p397
sg53
S'1987-88'
p398
sg55
S'378'
p399
sg57
S'52'
p400
sg58
S'.486'
p401
sg60
S'1501'
p402
sg62
S'20'
p403
sbasS'_college'
p404
S'Auburn University'
p405
sS'_toYear'
p406
S'1988'
p407
sS'_height'
p408
S'6-7'
p409
sS'_active'
p410
I00
sS'_shootingHand'
p411
VRight
p412
sS'_name'
p413
S'Mike Mitchell'
p414
sS'_per100Possessions'
p415
(lp416
(isrc.gp1.models.Per100Possession
Per100Possession
p417
(dp418
g8
S'1.5'
p419
sg10
S'.513'
p420
sg12
S'10.7'
p421
sS'_offensiveRating'
p422
g3
sg14
S'6.4'
p423
sg16
S'3.9'
p424
sg18
S'20.9'
p425
sg20
g3
sg21
S'SF'
p426
sS'_defensiveRating'
p427
g3
sg23
S'1.8'
p428
sg27
S'NBA'
p429
sg29
S'25.4'
p430
sg31
S'.513'
p431
sg33
g3
sg34
S'9.8'
p432
sg36
S'3.0'
p433
sg38
S'23'
p434
sg40
S'CLE'
p435
sg42
S'80'
p436
sg44
S'108'
p437
sg45
S'5.3'
p438
sg47
S'6.0'
p439
sg49
S'.736'
p440
sg51
S'0.9'
p441
sg53
S'1978-79'
p442
sg55
S'20.9'
p443
sg57
S'107'
p444
sg58
S'3.8'
p445
sg60
S'10.7'
p446
sg62
S'1576'
p447
sba(isrc.gp1.models.Per100Possession
Per100Possession
p448
(dp449
g8
S'6.2'
p450
sg10
S'.000'
p451
sg12
S'0.0'
p452
sg422
S'107'
p453
sg14
S'1.1'
p454
sg16
S'12.6'
p455
sg18
S'0.1'
p456
sg20
S'112'
p457
sg21
S'SF'
p458
sg427
g3
sg23
S'3.3'
p459
sg27
S'NBA'
p460
sg29
S'1.2'
p461
sg31
S'.523'
p462
sg33
S'29.5'
p463
sg34
S'.787'
p464
sg36
S'1.5'
p465
sg38
S'24'
p466
sg40
S'CLE'
p467
sg42
S'82'
p468
sg44
S'2.8'
p469
sg45
S'23.9'
p470
sg47
S'5.6'
p471
sg49
S'.525'
p472
sg51
S'9.6'
p473
sg53
S'1979-80'
p474
sg55
S'24.0'
p475
sg57
S'4.2'
p476
sg58
S'4.4'
p477
sg60
S'12.6'
p478
sg62
S'2802'
p479
sba(isrc.gp1.models.Per100Possession
Per100Possession
p480
(dp481
g8
S'4.3'
p482
sg10
S'.444'
p483
sg12
S'0.1'
p484
sg422
S'111'
p485
sg14
S'0.9'
p486
sg16
S'12.7'
p487
sg18
S'0.1'
p488
sg20
S'107'
p489
sg21
S'SF'
p490
sg427
g3
sg23
S'3.2'
p491
sg27
S'NBA'
p492
sg29
S'0.8'
p493
sg31
S'.476'
p494
sg33
S'30.0'
p495
sg34
S'.784'
p496
sg36
S'2.1'
p497
sg38
S'25'
p498
sg40
S'CLE'
p499
sg42
S'82'
p500
sg44
S'2.6'
p501
sg45
S'26.6'
p502
sg47
S'5.7'
p503
sg49
S'.476'
p504
sg51
S'7.5'
p505
sg53
S'1980-81'
p506
sg55
S'26.7'
p507
sg57
S'3.0'
p508
sg58
S'4.5'
p509
sg60
S'12.7'
p510
sg62
S'3194'
p511
sba(isrc.gp1.models.Per100Possession
Per100Possession
p512
(dp513
g8
S'3.8'
p514
sg10
S'0.1'
p515
sg12
S'.510'
p516
sg422
S'109'
p517
sg14
S'1.3'
p518
sg16
S'.000'
p519
sg18
S'0.0'
p520
sg20
S'26.7'
p521
sg21
S'SF'
p522
sg427
S'111'
p523
sg23
S'.728'
p524
sg27
S'NBA'
p525
sg29
S'0.9'
p526
sg31
S'22.8'
p527
sg33
S'4.3'
p528
sg34
S'4.7'
p529
sg36
S'9.1'
p530
sg38
S'26'
p531
sg40
S'TOT'
p532
sg42
S'84'
p533
sg44
S'0.7'
p534
sg45
S'11.6'
p535
sg47
S'3.4'
p536
sg49
S'22.7'
p537
sg51
S'5.3'
p538
sg53
S'1981-82'
p539
sg55
S'11.6'
p540
sg57
S'2.4'
p541
sg58
S'.512'
p542
sg60
S'3063'
p543
sg62
S'83'
p544
sba(isrc.gp1.models.Per100Possession
Per100Possession
p545
(dp546
g8
S'3.5'
p547
sg10
S'0.3'
p548
sg12
S'.454'
p549
sg422
S'100'
p550
sg14
S'1.9'
p551
sg16
S'.000'
p552
sg18
S'0.0'
p553
sg20
S'26.3'
p554
sg21
S'SF'
p555
sg427
S'114'
p556
sg23
S'.720'
p557
sg27
S'NBA'
p558
sg29
S'1.3'
p559
sg31
S'25.0'
p560
sg33
S'3.8'
p561
sg34
S'5.0'
p562
sg36
S'7.0'
p563
sg38
S'26'
p564
sg40
S'CLE'
p565
sg42
S'27'
p566
sg44
S'0.7'
p567
sg45
S'11.4'
p568
sg47
S'3.6'
p569
sg49
S'24.7'
p570
sg51
S'3.5'
p571
sg53
S'1981-82'
p572
sg55
S'11.4'
p573
sg57
S'2.7'
p574
sg58
S'.460'
p575
sg60
S'973'
p576
sg62
S'26'
p577
sba(isrc.gp1.models.Per100Possession
Per100Possession
p578
(dp579
g8
S'3.9'
p580
sg10
S'0.0'
p581
sg12
S'.539'
p582
sg422
S'114'
p583
sg14
S'1.0'
p584
sg16
S'.000'
p585
sg18
S'0.0'
p586
sg20
S'26.8'
p587
sg21
S'SF'
p588
sg427
S'110'
p589
sg23
S'.733'
p590
sg27
S'NBA'
p591
sg29
S'0.7'
p592
sg31
S'21.8'
p593
sg33
S'4.5'
p594
sg34
S'4.5'
p595
sg36
S'10.1'
p596
sg38
S'26'
p597
sg40
S'SAS'
p598
sg42
S'57'
p599
sg44
S'0.6'
p600
sg45
S'11.7'
p601
sg47
S'3.3'
p602
sg49
S'21.8'
p603
sg51
S'6.2'
p604
sg53
S'1981-82'
p605
sg55
S'11.7'
p606
sg57
S'2.2'
p607
sg58
S'.539'
p608
sg60
S'2090'
p609
sg62
S'57'
p610
sba(isrc.gp1.models.Per100Possession
Per100Possession
p611
(dp612
g8
S'3.1'
p613
sg10
S'0.0'
p614
sg12
S'.511'
p615
sg422
S'113'
p616
sg14
S'1.6'
p617
sg16
S'.000'
p618
sg18
S'0.0'
p619
sg20
S'26.4'
p620
sg21
S'SF'
p621
sg427
S'108'
p622
sg23
S'.758'
p623
sg27
S'NBA'
p624
sg29
S'0.9'
p625
sg31
S'22.2'
p626
sg33
S'4.1'
p627
sg34
S'4.8'
p628
sg36
S'8.9'
p629
sg38
S'27'
p630
sg40
S'SAS'
p631
sg42
S'80'
p632
sg44
S'0.9'
p633
sg45
S'11.4'
p634
sg47
S'3.6'
p635
sg49
S'22.2'
p636
sg51
S'5.8'
p637
sg53
S'1982-83'
p638
sg55
S'11.4'
p639
sg57
S'2.1'
p640
sg58
S'.512'
p641
sg60
S'2803'
p642
sg62
S'79'
p643
sba(isrc.gp1.models.Per100Possession
Per100Possession
p644
(dp645
g8
S'3.0'
p646
sg10
S'0.2'
p647
sg12
S'.488'
p648
sg422
S'109'
p649
sg14
S'1.5'
p650
sg16
S'.429'
p651
sg18
S'0.1'
p652
sg20
S'29.0'
p653
sg21
S'SF'
p654
sg427
S'112'
p655
sg23
S'.779'
p656
sg27
S'NBA'
p657
sg29
S'1.0'
p658
sg31
S'25.2'
p659
sg33
S'4.0'
p660
sg34
S'5.6'
p661
sg36
S'9.0'
p662
sg38
S'28'
p663
sg40
S'SAS'
p664
sg42
S'79'
p665
sg44
S'1.2'
p666
sg45
S'12.2'
p667
sg47
S'4.3'
p668
sg49
S'25.0'
p669
sg51
S'6.0'
p670
sg53
S'1983-84'
p671
sg55
S'12.3'
p672
sg57
S'2.2'
p673
sg58
S'.488'
p674
sg60
S'2853'
p675
sg62
S'79'
p676
sba(isrc.gp1.models.Per100Possession
Per100Possession
p677
(dp678
g8
S'2.3'
p679
sg10
S'0.4'
p680
sg12
S'.497'
p681
sg422
S'110'
p682
sg14
S'2.4'
p683
sg16
S'.217'
p684
sg18
S'0.1'
p685
sg20
S'29.5'
p686
sg21
S'SF'
p687
sg427
S'112'
p688
sg23
S'.777'
p689
sg27
S'NBA'
p690
sg29
S'1.0'
p691
sg31
S'25.2'
p692
sg33
S'3.5'
p693
sg34
S'5.6'
p694
sg36
S'6.7'
p695
sg38
S'29'
p696
sg40
S'SAS'
p697
sg42
S'82'
p698
sg44
S'0.4'
p699
sg45
S'12.5'
p700
sg47
S'4.4'
p701
sg49
S'24.8'
p702
sg51
S'4.4'
p703
sg53
S'1984-85'
p704
sg55
S'12.5'
p705
sg57
S'2.3'
p706
sg58
S'.502'
p707
sg60
S'2853'
p708
sg62
S'82'
p709
sba(isrc.gp1.models.Per100Possession
Per100Possession
p710
(dp711
g8
S'2.1'
p712
sg10
S'0.2'
p713
sg12
S'.473'
p714
sg422
S'105'
p715
sg14
S'2.9'
p716
sg16
S'.000'
p717
sg18
S'0.0'
p718
sg20
S'29.9'
p719
sg21
S'SF'
p720
sg427
S'112'
p721
sg23
S'.809'
p722
sg27
S'NBA'
p723
sg29
S'0.9'
p724
sg31
S'26.4'
p725
sg33
S'2.7'
p726
sg34
S'6.1'
p727
sg36
S'6.4'
p728
sg38
S'30'
p729
sg40
S'SAS'
p730
sg42
S'82'
p731
sg44
S'0.4'
p732
sg45
S'12.5'
p733
sg47
S'4.9'
p734
sg49
S'26.2'
p735
sg51
S'4.3'
p736
sg53
S'1985-86'
p737
sg55
S'12.5'
p738
sg57
S'2.9'
p739
sg58
S'.476'
p740
sg60
S'2970'
p741
sg62
S'82'
p742
sba(isrc.gp1.models.Per100Possession
Per100Possession
p743
(dp744
g8
S'1.9'
p745
sg10
S'0.1'
p746
sg12
S'.435'
p747
sg422
S'100'
p748
sg14
S'1.9'
p749
sg16
S'.500'
p750
sg18
S'0.1'
p751
sg20
S'26.1'
p752
sg21
S'SF'
p753
sg427
S'114'
p754
sg23
S'.821'
p755
sg27
S'NBA'
p756
sg29
S'1.0'
p757
sg31
S'24.5'
p758
sg33
S'3.5'
p759
sg34
S'5.7'
p760
sg36
S'5.3'
p761
sg38
S'31'
p762
sg40
S'SAS'
p763
sg42
S'40'
p764
sg44
S'0.5'
p765
sg45
S'10.6'
p766
sg47
S'4.7'
p767
sg49
S'24.4'
p768
sg51
S'3.3'
p769
sg53
S'1986-87'
p770
sg55
S'10.7'
p771
sg57
S'2.6'
p772
sg58
S'.435'
p773
sg60
S'922'
p774
sg62
S'18'
p775
sba(isrc.gp1.models.Per100Possession
Per100Possession
p776
(dp777
g8
S'1.7'
p778
sg10
S'0.4'
p779
sg12
S'.482'
p780
sg422
S'111'
p781
sg14
S'2.1'
p782
sg16
S'.250'
p783
sg18
S'0.1'
p784
sg20
S'28.2'
p785
sg21
S'SF'
p786
sg427
S'116'
p787
sg23
S'.825'
p788
sg27
S'NBA'
p789
sg29
S'0.9'
p790
sg31
S'24.0'
p791
sg33
S'3.1'
p792
sg34
S'5.9'
p793
sg36
S'6.1'
p794
sg38
S'32'
p795
sg40
S'SAS'
p796
sg42
S'68'
p797
sg44
S'0.4'
p798
sg45
S'11.5'
p799
sg47
S'4.9'
p800
sg49
S'23.7'
p801
sg51
S'4.4'
p802
sg53
S'1987-88'
p803
sg55
S'11.6'
p804
sg57
S'1.6'
p805
sg58
S'.486'
p806
sg60
S'1501'
p807
sg62
S'20'
p808
sbasS'_advanced'
p809
(lp810
(isrc.gp1.models.Advanced
Advanced
p811
(dp812
S'_offensiveReboundPercentage'
p813
S'14.9'
p814
sS'_turnOverPercentage'
p815
S'22.4'
p816
sS'_winSharesPer48Minutes'
p817
S'0.4'
p818
sS'_stealPercentage'
p819
S'1.0'
p820
sS'_usagePercentage'
p821
S'2.6'
p822
sS'_totalReboundsPercentage'
p823
S'5.7'
p824
sS'_defensiveBoxPlusMinus'
p825
S'-1.8'
p826
sg21
S'SF'
p827
sS'_valueOverReplacementPlayer'
p828
g3
sS'_trueShootingPercentage'
p829
S'.545'
p830
sS'_defensiveReboundPercentage'
p831
S'11.4'
p832
sS'_freeThrowsAttempRate'
p833
S'8.3'
p834
sS'_threePointsAttempRate'
p835
S'.252'
p836
sg27
S'NBA'
p837
sS'_offensiveBoxPlusMinues'
p838
S'-2.1'
p839
sS'_assistPercentage'
p840
S'1.5'
p841
sS'_defensiveWinShares'
p842
S'3.6'
p843
sg38
S'23'
p844
sg40
S'CLE'
p845
sg42
S'80'
p846
sS'_blockPercentage'
p847
S'11.5'
p848
sS'_playerEfficiencyRating'
p849
S'16.8'
p850
sS'_offensiveWinShares'
p851
S'1.0'
p852
sg60
S'1576'
p853
sS'_boxPlusMinus'
p854
S'0.1'
p855
sg53
S'1978-79'
p856
sS'_winShares'
p857
S'.111'
p858
sba(isrc.gp1.models.Advanced
Advanced
p859
(dp860
g813
S'7.4'
p861
sg815
S'9.5'
p862
sg817
S'.142'
p863
sg819
S'1.1'
p864
sg821
S'24.7'
p865
sg823
S'11.1'
p866
sg825
S'-1.4'
p867
sg21
S'SF'
p868
sg828
S'1.6'
p869
sg829
S'.557'
p870
sg831
S'15.2'
p871
sg833
S'.231'
p872
sg835
S'.004'
p873
sg27
S'NBA'
p874
sg838
S'1.7'
p875
sg840
S'4.9'
p876
sg842
S'2.4'
p877
sg38
S'24'
p878
sg40
S'CLE'
p879
sg42
S'82'
p880
sg847
S'1.5'
p881
sg849
S'19.1'
p882
sg851
S'5.9'
p883
sg60
S'2802'
p884
sg854
S'0.3'
p885
sg53
S'1979-80'
p886
sg857
S'8.3'
p887
sba(isrc.gp1.models.Advanced
Advanced
p888
(dp889
g813
S'7.1'
p890
sg815
S'8.2'
p891
sg817
S'.091'
p892
sg819
S'0.9'
p893
sg821
S'26.9'
p894
sg823
S'8.7'
p895
sg825
S'-2.6'
p896
sg21
S'SF'
p897
sg828
S'0.4'
p898
sg829
S'.513'
p899
sg831
S'10.5'
p900
sg833
S'.215'
p901
sg835
S'.005'
p902
sg27
S'NBA'
p903
sg838
S'1.1'
p904
sg840
S'6.9'
p905
sg842
S'1.1'
p906
sg38
S'25'
p907
sg40
S'CLE'
p908
sg42
S'82'
p909
sg847
S'0.9'
p910
sg849
S'17.5'
p911
sg851
S'5.0'
p912
sg60
S'3194'
p913
sg854
S'-1.5'
p914
sg53
S'1980-81'
p915
sg857
S'6.0'
p916
sba(isrc.gp1.models.Advanced
Advanced
p917
(dp918
g813
S'8.5'
p919
sg815
S'8.7'
p920
sg817
S'.093'
p921
sg819
S'0.9'
p922
sg821
S'23.2'
p923
sg823
S'10.5'
p924
sg825
S'-2.3'
p925
sg21
S'SF'
p926
sg828
S'0.4'
p927
sg829
S'.536'
p928
sg831
S'12.4'
p929
sg833
S'.204'
p930
sg835
S'.005'
p931
sg27
S'NBA'
p932
sg838
S'0.8'
p933
sg840
S'4.1'
p934
sg842
S'1.7'
p935
sg38
S'26'
p936
sg40
S'TOT'
p937
sg42
S'84'
p938
sg847
S'0.8'
p939
sg849
S'15.9'
p940
sg851
S'4.2'
p941
sg60
S'3063'
p942
sg854
S'-1.5'
p943
sg53
S'1981-82'
p944
sg857
S'5.9'
p945
sba(isrc.gp1.models.Advanced
Advanced
p946
(dp947
g813
S'7.8'
p948
sg815
S'9.1'
p949
sg817
S'.023'
p950
sg819
S'1.3'
p951
sg821
S'25.5'
p952
sg823
S'8.2'
p953
sg825
S'-2.4'
p954
sg21
S'SF'
p955
sg828
S'-0.2'
p956
sg829
S'.484'
p957
sg831
S'8.6'
p958
sg833
S'.198'
p959
sg835
S'.012'
p960
sg27
S'NBA'
p961
sg838
S'-0.4'
p962
sg840
S'6.4'
p963
sg842
S'0.2'
p964
sg38
S'26'
p965
sg40
S'CLE'
p966
sg42
S'27'
p967
sg847
S'0.9'
p968
sg849
S'14.2'
p969
sg851
S'0.2'
p970
sg60
S'973'
p971
sg854
S'-2.8'
p972
sg53
S'1981-82'
p973
sg857
S'0.5'
p974
sba(isrc.gp1.models.Advanced
Advanced
p975
(dp976
g813
S'8.9'
p977
sg815
S'8.4'
p978
sg817
S'.126'
p979
sg819
S'0.7'
p980
sg821
S'22.1'
p981
sg823
S'11.5'
p982
sg825
S'-2.2'
p983
sg21
S'SF'
p984
sg828
S'0.6'
p985
sg829
S'.563'
p986
sg831
S'14.1'
p987
sg833
S'.208'
p988
sg835
S'.001'
p989
sg27
S'NBA'
p990
sg838
S'1.4'
p991
sg840
S'3.0'
p992
sg842
S'1.5'
p993
sg38
S'26'
p994
sg40
S'SAS'
p995
sg42
S'57'
p996
sg847
S'0.7'
p997
sg849
S'16.7'
p998
sg851
S'4.0'
p999
sg60
S'2090'
p1000
sg854
S'-0.8'
p1001
sg53
S'1981-82'
p1002
sg857
S'5.5'
p1003
sba(isrc.gp1.models.Advanced
Advanced
p1004
(dp1005
g813
S'7.6'
p1006
sg815
S'7.9'
p1007
sg817
S'.131'
p1008
sg819
S'0.9'
p1009
sg821
S'22.7'
p1010
sg823
S'10.4'
p1011
sg825
S'-1.9'
p1012
sg21
S'SF'
p1013
sg828
S'0.9'
p1014
sg829
S'.541'
p1015
sg831
S'13.1'
p1016
sg833
S'.215'
p1017
sg835
S'.002'
p1018
sg27
S'NBA'
p1019
sg838
S'1.1'
p1020
sg840
S'5.1'
p1021
sg842
S'1.7'
p1022
sg38
S'27'
p1023
sg40
S'SAS'
p1024
sg42
S'80'
p1025
sg847
S'1.0'
p1026
sg849
S'16.9'
p1027
sg851
S'5.9'
p1028
sg60
S'2803'
p1029
sg854
S'-0.8'
p1030
sg53
S'1982-83'
p1031
sg857
S'7.6'
p1032
sba(isrc.gp1.models.Advanced
Advanced
p1033
(dp1034
g813
S'7.1'
p1035
sg815
S'7.4'
p1036
sg817
S'.092'
p1037
sg819
S'1.0'
p1038
sg821
S'25.7'
p1039
sg823
S'10.6'
p1040
sg825
S'-2.3'
p1041
sg21
S'SF'
p1042
sg828
S'0.0'
p1043
sg829
S'.525'
p1044
sg831
S'14.0'
p1045
sg833
S'.221'
p1046
sg835
S'.009'
p1047
sg27
S'NBA'
p1048
sg838
S'0.3'
p1049
sg840
S'4.6'
p1050
sg842
S'1.4'
p1051
sg38
S'28'
p1052
sg40
S'SAS'
p1053
sg42
S'79'
p1054
sg847
S'1.3'
p1055
sg849
S'17.1'
p1056
sg851
S'4.1'
p1057
sg60
S'2853'
p1058
sg854
S'-2.0'
p1059
sg53
S'1983-84'
p1060
sg857
S'5.5'
p1061
sba(isrc.gp1.models.Advanced
Advanced
p1062
(dp1063
g813
S'5.9'
p1064
sg815
S'7.8'
p1065
sg817
S'.101'
p1066
sg819
S'1.0'
p1067
sg821
S'26.0'
p1068
sg823
S'8.3'
p1069
sg825
S'-2.6'
p1070
sg21
S'SF'
p1071
sg828
S'-0.1'
p1072
sg829
S'.533'
p1073
sg831
S'10.5'
p1074
sg833
S'.222'
p1075
sg835
S'.015'
p1076
sg27
S'NBA'
p1077
sg838
S'0.5'
p1078
sg840
S'8.0'
p1079
sg842
S'1.6'
p1080
sg38
S'29'
p1081
sg40
S'SAS'
p1082
sg42
S'82'
p1083
sg847
S'0.5'
p1084
sg849
S'16.5'
p1085
sg851
S'4.4'
p1086
sg60
S'2853'
p1087
sg854
S'-2.1'
p1088
sg53
S'1984-85'
p1089
sg857
S'6.0'
p1090
sba(isrc.gp1.models.Advanced
Advanced
p1091
(dp1092
g813
S'5.3'
p1093
sg815
S'9.0'
p1094
sg817
S'.071'
p1095
sg819
S'0.9'
p1096
sg821
S'27.8'
p1097
sg823
S'7.9'
p1098
sg825
S'-2.5'
p1099
sg21
S'SF'
p1100
sg828
S'-0.8'
p1101
sg829
S'.514'
p1102
sg831
S'10.3'
p1103
sg833
S'.231'
p1104
sg835
S'.007'
p1105
sg27
S'NBA'
p1106
sg838
S'-0.5'
p1107
sg840
S'9.9'
p1108
sg842
S'1.5'
p1109
sg38
S'30'
p1110
sg40
S'SAS'
p1111
sg42
S'82'
p1112
sg847
S'0.5'
p1113
sg849
S'15.9'
p1114
sg851
S'2.9'
p1115
sg60
S'2970'
p1116
sg854
S'-3.0'
p1117
sg53
S'1985-86'
p1118
sg857
S'4.4'
p1119
sba(isrc.gp1.models.Advanced
Advanced
p1120
(dp1121
g813
S'4.4'
p1122
sg815
S'8.8'
p1123
sg817
S'.019'
p1124
sg819
S'1.0'
p1125
sg821
S'25.2'
p1126
sg823
S'6.2'
p1127
sg825
S'-3.6'
p1128
sg21
S'SF'
p1129
sg828
S'-1.1'
p1130
sg829
S'.483'
p1131
sg831
S'8.1'
p1132
sg833
S'.234'
p1133
sg835
S'.004'
p1134
sg27
S'NBA'
p1135
sg838
S'-3.3'
p1136
sg840
S'6.2'
p1137
sg842
S'0.3'
p1138
sg38
S'31'
p1139
sg40
S'SAS'
p1140
sg42
S'40'
p1141
sg847
S'0.6'
p1142
sg849
S'11.9'
p1143
sg851
S'0.1'
p1144
sg60
S'922'
p1145
sg854
S'-6.9'
p1146
sg53
S'1986-87'
p1147
sg857
S'0.4'
p1148
sba(isrc.gp1.models.Advanced
Advanced
p1149
(dp1150
g813
S'3.9'
p1151
sg815
S'5.6'
p1152
sg817
S'.076'
p1153
sg819
S'0.9'
p1154
sg821
S'24.2'
p1155
sg823
S'7.1'
p1156
sg825
S'-4.1'
p1157
sg21
S'SF'
p1158
sg828
S'-1.1'
p1159
sg829
S'.529'
p1160
sg831
S'10.5'
p1161
sg833
S'.247'
p1162
sg835
S'.015'
p1163
sg27
S'NBA'
p1164
sg838
S'-0.7'
p1165
sg840
S'6.6'
p1166
sg842
S'0.2'
p1167
sg38
S'32'
p1168
sg40
S'SAS'
p1169
sg42
S'68'
p1170
sg847
S'0.5'
p1171
sg849
S'15.7'
p1172
sg851
S'2.2'
p1173
sg60
S'1501'
p1174
sg854
S'-4.8'
p1175
sg53
S'1987-88'
p1176
sg857
S'2.4'
p1177
sbasS'_per36Minutes'
p1178
(lp1179
(isrc.gp1.models.Per36Minutes
Per36Minutes
p1180
(dp1181
g8
S'1.2'
p1182
sg10
S'.513'
p1183
sg12
S'8.3'
p1184
sg14
S'4.9'
p1185
sg16
S'3.0'
p1186
sg18
S'16.1'
p1187
sg20
g3
sg21
S'SF'
p1188
sg23
S'1.4'
p1189
sg27
S'NBA'
p1190
sg29
S'19.5'
p1191
sg31
S'.513'
p1192
sg33
g3
sg34
S'7.5'
p1193
sg36
S'2.3'
p1194
sg38
S'23'
p1195
sg40
S'CLE'
p1196
sg42
S'80'
p1197
sg44
g3
sg45
S'4.1'
p1198
sg47
S'4.6'
p1199
sg49
S'.736'
p1200
sg51
S'0.7'
p1201
sg53
S'1978-79'
p1202
sg55
S'16.1'
p1203
sg57
g3
sg58
S'2.9'
p1204
sg60
S'8.3'
p1205
sg62
S'1576'
p1206
sba(isrc.gp1.models.Per36Minutes
Per36Minutes
p1207
(dp1208
g8
S'4.9'
p1209
sg10
S'.000'
p1210
sg12
S'0.0'
p1211
sg14
S'0.9'
p1212
sg16
S'10.0'
p1213
sg18
S'0.1'
p1214
sg20
g3
sg21
S'SF'
p1215
sg23
S'2.6'
p1216
sg27
S'NBA'
p1217
sg29
S'1.0'
p1218
sg31
S'.523'
p1219
sg33
S'23.4'
p1220
sg34
S'.787'
p1221
sg36
S'1.2'
p1222
sg38
S'24'
p1223
sg40
S'CLE'
p1224
sg42
S'82'
p1225
sg44
S'2.2'
p1226
sg45
S'19.0'
p1227
sg47
S'4.4'
p1228
sg49
S'.525'
p1229
sg51
S'7.6'
p1230
sg53
S'1979-80'
p1231
sg55
S'19.0'
p1232
sg57
S'3.3'
p1233
sg58
S'3.5'
p1234
sg60
S'10.0'
p1235
sg62
S'2802'
p1236
sba(isrc.gp1.models.Per36Minutes
Per36Minutes
p1237
(dp1238
g8
S'3.2'
p1239
sg10
S'.444'
p1240
sg12
S'0.0'
p1241
sg14
S'0.7'
p1242
sg16
S'9.6'
p1243
sg18
S'0.1'
p1244
sg20
g3
sg21
S'SF'
p1245
sg23
S'2.4'
p1246
sg27
S'NBA'
p1247
sg29
S'0.6'
p1248
sg31
S'.476'
p1249
sg33
S'22.7'
p1250
sg34
S'.784'
p1251
sg36
S'1.6'
p1252
sg38
S'25'
p1253
sg40
S'CLE'
p1254
sg42
S'82'
p1255
sg44
S'2.0'
p1256
sg45
S'20.1'
p1257
sg47
S'4.3'
p1258
sg49
S'.476'
p1259
sg51
S'5.7'
p1260
sg53
S'1980-81'
p1261
sg55
S'20.2'
p1262
sg57
S'2.2'
p1263
sg58
S'3.4'
p1264
sg60
S'9.6'
p1265
sg62
S'3194'
p1266
sba(isrc.gp1.models.Per36Minutes
Per36Minutes
p1267
(dp1268
g8
S'2.9'
p1269
sg10
S'0.1'
p1270
sg12
S'.510'
p1271
sg14
S'1.0'
p1272
sg16
S'.000'
p1273
sg18
S'0.0'
p1274
sg20
S'20.3'
p1275
sg21
S'SF'
p1276
sg23
S'.728'
p1277
sg27
S'NBA'
p1278
sg29
S'0.7'
p1279
sg31
S'17.4'
p1280
sg33
S'3.3'
p1281
sg34
S'3.5'
p1282
sg36
S'6.9'
p1283
sg38
S'26'
p1284
sg40
S'TOT'
p1285
sg42
S'84'
p1286
sg44
S'0.5'
p1287
sg45
S'8.9'
p1288
sg47
S'2.6'
p1289
sg49
S'17.3'
p1290
sg51
S'4.1'
p1291
sg53
S'1981-82'
p1292
sg55
S'8.9'
p1293
sg57
S'1.8'
p1294
sg58
S'.512'
p1295
sg60
S'3063'
p1296
sg62
S'83'
p1297
sba(isrc.gp1.models.Per36Minutes
Per36Minutes
p1298
(dp1299
g8
S'2.6'
p1300
sg10
S'0.2'
p1301
sg12
S'.454'
p1302
sg14
S'1.4'
p1303
sg16
S'.000'
p1304
sg18
S'0.0'
p1305
sg20
S'19.6'
p1306
sg21
S'SF'
p1307
sg23
S'.720'
p1308
sg27
S'NBA'
p1309
sg29
S'1.0'
p1310
sg31
S'18.6'
p1311
sg33
S'2.8'
p1312
sg34
S'3.7'
p1313
sg36
S'5.2'
p1314
sg38
S'26'
p1315
sg40
S'CLE'
p1316
sg42
S'27'
p1317
sg44
S'0.6'
p1318
sg45
S'8.5'
p1319
sg47
S'2.7'
p1320
sg49
S'18.4'
p1321
sg51
S'2.6'
p1322
sg53
S'1981-82'
p1323
sg55
S'8.5'
p1324
sg57
S'2.0'
p1325
sg58
S'.460'
p1326
sg60
S'973'
p1327
sg62
S'26'
p1328
sba(isrc.gp1.models.Per36Minutes
Per36Minutes
p1329
(dp1330
g8
S'3.0'
p1331
sg10
S'0.0'
p1332
sg12
S'.539'
p1333
sg14
S'0.7'
p1334
sg16
S'.000'
p1335
sg18
S'0.0'
p1336
sg20
S'20.6'
p1337
sg21
S'SF'
p1338
sg23
S'.733'
p1339
sg27
S'NBA'
p1340
sg29
S'0.6'
p1341
sg31
S'16.8'
p1342
sg33
S'3.4'
p1343
sg34
S'3.5'
p1344
sg36
S'7.7'
p1345
sg38
S'26'
p1346
sg40
S'SAS'
p1347
sg42
S'57'
p1348
sg44
S'0.5'
p1349
sg45
S'9.0'
p1350
sg47
S'2.5'
p1351
sg49
S'16.7'
p1352
sg51
S'4.8'
p1353
sg53
S'1981-82'
p1354
sg55
S'9.0'
p1355
sg57
S'1.7'
p1356
sg58
S'.539'
p1357
sg60
S'2090'
p1358
sg62
S'57'
p1359
sba(isrc.gp1.models.Per36Minutes
Per36Minutes
p1360
(dp1361
g8
S'2.4'
p1362
sg10
S'0.0'
p1363
sg12
S'.511'
p1364
sg14
S'1.3'
p1365
sg16
S'.000'
p1366
sg18
S'0.0'
p1367
sg20
S'20.4'
p1368
sg21
S'SF'
p1369
sg23
S'.758'
p1370
sg27
S'NBA'
p1371
sg29
S'0.7'
p1372
sg31
S'17.2'
p1373
sg33
S'3.2'
p1374
sg34
S'3.7'
p1375
sg36
S'6.9'
p1376
sg38
S'27'
p1377
sg40
S'SAS'
p1378
sg42
S'80'
p1379
sg44
S'0.7'
p1380
sg45
S'8.8'
p1381
sg47
S'2.8'
p1382
sg49
S'17.2'
p1383
sg51
S'4.5'
p1384
sg53
S'1982-83'
p1385
sg55
S'8.8'
p1386
sg57
S'1.6'
p1387
sg58
S'.512'
p1388
sg60
S'2803'
p1389
sg62
S'79'
p1390
sba(isrc.gp1.models.Per36Minutes
Per36Minutes
p1391
(dp1392
g8
S'2.4'
p1393
sg10
S'0.2'
p1394
sg12
S'.488'
p1395
sg14
S'1.2'
p1396
sg16
S'.429'
p1397
sg18
S'0.1'
p1398
sg20
S'23.2'
p1399
sg21
S'SF'
p1400
sg23
S'.779'
p1401
sg27
S'NBA'
p1402
sg29
S'0.8'
p1403
sg31
S'20.2'
p1404
sg33
S'3.2'
p1405
sg34
S'4.5'
p1406
sg36
S'7.2'
p1407
sg38
S'28'
p1408
sg40
S'SAS'
p1409
sg42
S'79'
p1410
sg44
S'0.9'
p1411
sg45
S'9.8'
p1412
sg47
S'3.5'
p1413
sg49
S'20.0'
p1414
sg51
S'4.8'
p1415
sg53
S'1983-84'
p1416
sg55
S'9.8'
p1417
sg57
S'1.8'
p1418
sg58
S'.488'
p1419
sg60
S'2853'
p1420
sg62
S'79'
p1421
sba(isrc.gp1.models.Per36Minutes
Per36Minutes
p1422
(dp1423
g8
S'1.8'
p1424
sg10
S'0.3'
p1425
sg12
S'.497'
p1426
sg14
S'1.9'
p1427
sg16
S'.217'
p1428
sg18
S'0.1'
p1429
sg20
S'23.0'
p1430
sg21
S'SF'
p1431
sg23
S'.777'
p1432
sg27
S'NBA'
p1433
sg29
S'0.8'
p1434
sg31
S'19.7'
p1435
sg33
S'2.8'
p1436
sg34
S'4.4'
p1437
sg36
S'5.3'
p1438
sg38
S'29'
p1439
sg40
S'SAS'
p1440
sg42
S'82'
p1441
sg44
S'0.3'
p1442
sg45
S'9.7'
p1443
sg47
S'3.4'
p1444
sg49
S'19.4'
p1445
sg51
S'3.4'
p1446
sg53
S'1984-85'
p1447
sg55
S'9.8'
p1448
sg57
S'1.8'
p1449
sg58
S'.502'
p1450
sg60
S'2853'
p1451
sg62
S'82'
p1452
sba(isrc.gp1.models.Per36Minutes
Per36Minutes
p1453
(dp1454
g8
S'1.6'
p1455
sg10
S'0.1'
p1456
sg12
S'.473'
p1457
sg14
S'2.3'
p1458
sg16
S'.000'
p1459
sg18
S'0.0'
p1460
sg20
S'23.3'
p1461
sg21
S'SF'
p1462
sg23
S'.809'
p1463
sg27
S'NBA'
p1464
sg29
S'0.7'
p1465
sg31
S'20.6'
p1466
sg33
S'2.1'
p1467
sg34
S'4.8'
p1468
sg36
S'5.0'
p1469
sg38
S'30'
p1470
sg40
S'SAS'
p1471
sg42
S'82'
p1472
sg44
S'0.3'
p1473
sg45
S'9.7'
p1474
sg47
S'3.8'
p1475
sg49
S'20.4'
p1476
sg51
S'3.3'
p1477
sg53
S'1985-86'
p1478
sg55
S'9.7'
p1479
sg57
S'2.2'
p1480
sg58
S'.476'
p1481
sg60
S'2970'
p1482
sg62
S'82'
p1483
sba(isrc.gp1.models.Per36Minutes
Per36Minutes
p1484
(dp1485
g8
S'1.5'
p1486
sg10
S'0.1'
p1487
sg12
S'.435'
p1488
sg14
S'1.5'
p1489
sg16
S'.500'
p1490
sg18
S'0.0'
p1491
sg20
S'19.9'
p1492
sg21
S'SF'
p1493
sg23
S'.821'
p1494
sg27
S'NBA'
p1495
sg29
S'0.7'
p1496
sg31
S'18.7'
p1497
sg33
S'2.7'
p1498
sg34
S'4.4'
p1499
sg36
S'4.0'
p1500
sg38
S'31'
p1501
sg40
S'SAS'
p1502
sg42
S'40'
p1503
sg44
S'0.4'
p1504
sg45
S'8.1'
p1505
sg47
S'3.6'
p1506
sg49
S'18.6'
p1507
sg51
S'2.5'
p1508
sg53
S'1986-87'
p1509
sg55
S'8.1'
p1510
sg57
S'2.0'
p1511
sg58
S'.435'
p1512
sg60
S'922'
p1513
sg62
S'18'
p1514
sba(isrc.gp1.models.Per36Minutes
Per36Minutes
p1515
(dp1516
g8
S'1.3'
p1517
sg10
S'0.3'
p1518
sg12
S'.482'
p1519
sg14
S'1.6'
p1520
sg16
S'.250'
p1521
sg18
S'0.1'
p1522
sg20
S'22.0'
p1523
sg21
S'SF'
p1524
sg23
S'.825'
p1525
sg27
S'NBA'
p1526
sg29
S'0.7'
p1527
sg31
S'18.8'
p1528
sg33
S'2.4'
p1529
sg34
S'4.7'
p1530
sg36
S'4.7'
p1531
sg38
S'32'
p1532
sg40
S'SAS'
p1533
sg42
S'68'
p1534
sg44
S'0.3'
p1535
sg45
S'9.0'
p1536
sg47
S'3.8'
p1537
sg49
S'18.5'
p1538
sg51
S'3.5'
p1539
sg53
S'1987-88'
p1540
sg55
S'9.1'
p1541
sg57
S'1.2'
p1542
sg58
S'.486'
p1543
sg60
S'1501'
p1544
sg62
S'20'
p1545
sbasS'_fromYear'
p1546
S'1979'
p1547
sS'_url'
p1548
S'http://www.basketball-reference.com/players/m/mitchmi01.html'
p1549
sS'_perGame'
p1550
(isrc.gp1.models.PerGame
PerGame
p1551
(dp1552
g8
S'0.8'
p1553
sg10
S'0.2'
p1554
sg12
S'.482'
p1555
sS'_effectiveFieldGalPercentage'
p1556
S'.484'
p1557
sg14
S'1.0'
p1558
sg16
S'.250'
p1559
sg18
S'0.0'
p1560
sg20
S'13.5'
p1561
sg21
S'SF'
p1562
sg23
S'.825'
p1563
sg27
S'NBA'
p1564
sg29
S'0.5'
p1565
sg33
S'1.5'
p1566
sS'_fieldGoalsttempted'
p1567
S'11.5'
p1568
sg34
S'2.9'
p1569
sg36
S'2.9'
p1570
sg38
S'32'
p1571
sg40
S'SAS'
p1572
sg42
S'68'
p1573
sg44
S'0.2'
p1574
sg45
S'5.5'
p1575
sg47
S'2.4'
p1576
sg49
S'11.4'
p1577
sg51
S'2.1'
p1578
sg53
S'1987-88'
p1579
sg55
S'5.6'
p1580
sg57
S'0.8'
p1581
sg58
S'.486'
p1582
sg60
S'22.1'
p1583
sg62
S'20'
p1584
sbsS'_weight'
p1585
S'215'
p1586
sS'_dob'
p1587
S'1-1-1956'
p1588
sS'_salary'
p1589
(lp1590
(isrc.gp1.models.Salary
Salary
p1591
(dp1592
g40
S'San Antonio Spurs'
p1593
sg27
S'NBA'
p1594
sg1589
S'$700,000'
p1595
sg53
S'1985-86'
p1596
sba(isrc.gp1.models.Salary
Salary
p1597
(dp1598
g40
S'San Antonio Spurs'
p1599
sg27
S'NBA'
p1600
sg1589
S'$750,000'
p1601
sg53
S'1987-88'
p1602
sbasg21
S'F'
p1603
sb.