(isrc.gp1.models.Player
Player
p0
(dp1
S'_experience'
p2
S'NA'
p3
sS'_totals'
p4
(lp5
(isrc.gp1.models.Totals
Totals
p6
(dp7
S'_offensiveRebounds'
p8
S'1'
p9
sS'_threePointsAttempted'
p10
S'0'
p11
sS'_fieldGoalsPercentage'
p12
S'.000'
p13
sS'_assist'
p14
g11
sS'_threePointsPercentage'
p15
g11
sS'_threePoints'
p16
g11
sS'_points'
p17
g3
sS'_position'
p18
S'C'
p19
sS'_freeThrowsPercentage'
p20
g9
sS'_effectiveFieldGoalPercentage'
p21
g11
sS'_league'
p22
S'NBA'
p23
sS'_steals'
p24
S'3'
p25
sS'_fieldGoalsAttempted'
p26
g25
sS'_personalFouls'
p27
g3
sS'_freeThrowsAttempted'
p28
g11
sS'_totalRebounds'
p29
g11
sS'_age'
p30
S'22'
p31
sS'_team'
p32
S'NJN'
p33
sS'_games'
p34
S'5'
p35
sS'_blocks'
p36
g9
sS'_twoPoints'
p37
g25
sS'_freeThrows'
p38
g11
sS'_twoPointsAttempted'
p39
S'.000'
p40
sS'_defensiveRebounds'
p41
g11
sS'_season'
p42
S'2006-07'
p43
sS'_fieldGoals'
p44
g11
sS'_turnOvers'
p45
g11
sS'_twoPointsPercentage'
p46
S'.000'
p47
sS'_minutesPlayed'
p48
S'6'
p49
sS'_gamesStarted'
p50
g11
sbasS'_college'
p51
S'NA'
p52
sS'_toYear'
p53
S'2007'
p54
sS'_height'
p55
S'7-1'
p56
sS'_active'
p57
I00
sS'_shootingHand'
p58
VRight
p59
sS'_name'
p60
S'Mile Ilic'
p61
sS'_per100Possessions'
p62
(lp63
(isrc.gp1.models.Per100Possession
Per100Possession
p64
(dp65
g8
S'8.8'
p66
sg10
S'0.0'
p67
sg12
S'.000'
p68
sS'_offensiveRating'
p69
g3
sg14
S'0.0'
p70
sg15
S'0.0'
p71
sg16
S'0.0'
p72
sg17
S'109'
p73
sg18
g19
sS'_defensiveRating'
p74
g3
sg20
S'8.8'
p75
sg22
S'NBA'
p76
sg24
S'26.3'
p77
sg26
S'26.3'
p78
sg27
g11
sg28
S'0.0'
p79
sg29
S'0.0'
p80
sg30
S'22'
p81
sg32
S'NJN'
p82
sg34
g35
sg36
S'8.8'
p83
sg37
S'26.3'
p84
sg38
S'0.0'
p85
sg39
S'.000'
p86
sg41
S'0.0'
p87
sg42
S'2006-07'
p88
sg44
S'0.0'
p89
sg45
S'0.0'
p90
sg46
S'0.0'
p91
sg48
g49
sg50
g11
sbasS'_advanced'
p92
(lp93
(isrc.gp1.models.Advanced
Advanced
p94
(dp95
S'_offensiveReboundPercentage'
p96
S'0.0'
p97
sS'_turnOverPercentage'
p98
S'50.0'
p99
sS'_winSharesPer48Minutes'
p100
S'-1.264'
p101
sS'_stealPercentage'
p102
S'0.0'
p103
sS'_usagePercentage'
p104
S'46.6'
p105
sS'_totalReboundsPercentage'
p106
S'9.8'
p107
sS'_defensiveBoxPlusMinus'
p108
S'-7.2'
p109
sg18
g19
sS'_valueOverReplacementPlayer'
p110
S'-0.1'
p111
sS'_trueShootingPercentage'
p112
S'.000'
p113
sS'_defensiveReboundPercentage'
p114
S'19.5'
p115
sS'_freeThrowsAttempRate'
p116
S'.000'
p117
sS'_threePointsAttempRate'
p118
S'.000'
p119
sg22
S'NBA'
p120
sS'_offensiveBoxPlusMinues'
p121
S'-46.4'
p122
sS'_assistPercentage'
p123
S'0.0'
p124
sS'_defensiveWinShares'
p125
S'0.0'
p126
sg30
S'22'
p127
sg32
S'NJN'
p128
sg34
g35
sS'_blockPercentage'
p129
S'0.0'
p130
sS'_playerEfficiencyRating'
p131
S'-48.6'
p132
sS'_offensiveWinShares'
p133
S'-0.2'
p134
sg48
g49
sS'_boxPlusMinus'
p135
S'-53.6'
p136
sg42
S'2006-07'
p137
sS'_winShares'
p138
S'-0.2'
p139
sbasS'_per36Minutes'
p140
(lp141
(isrc.gp1.models.Per36Minutes
Per36Minutes
p142
(dp143
g8
S'6.0'
p144
sg10
S'0.0'
p145
sg12
S'.000'
p146
sg14
S'0.0'
p147
sg15
S'0.0'
p148
sg16
S'0.0'
p149
sg17
g3
sg18
g19
sg20
S'6.0'
p150
sg22
S'NBA'
p151
sg24
S'18.0'
p152
sg26
S'18.0'
p153
sg27
g3
sg28
S'0.0'
p154
sg29
S'0.0'
p155
sg30
S'22'
p156
sg32
S'NJN'
p157
sg34
g35
sg36
S'6.0'
p158
sg37
S'18.0'
p159
sg38
S'0.0'
p160
sg39
S'.000'
p161
sg41
S'0.0'
p162
sg42
S'2006-07'
p163
sg44
S'0.0'
p164
sg45
S'0.0'
p165
sg46
S'0.0'
p166
sg48
g49
sg50
g11
sbasS'_fromYear'
p167
S'2007'
p168
sS'_url'
p169
S'http://www.basketball-reference.com/players/i/ilicmi01.html'
p170
sS'_perGame'
p171
(isrc.gp1.models.PerGame
PerGame
p172
(dp173
g8
S'0.2'
p174
sg10
S'0.0'
p175
sg12
S'.000'
p176
sS'_effectiveFieldGalPercentage'
p177
S'0.0'
p178
sg14
S'0.0'
p179
sg15
S'0.0'
p180
sg16
S'0.0'
p181
sg17
g3
sg18
g19
sg20
S'0.2'
p182
sg22
S'NBA'
p183
sg24
S'0.6'
p184
sg27
g3
sS'_fieldGoalsttempted'
p185
S'0.6'
p186
sg28
S'0.0'
p187
sg29
S'0.0'
p188
sg30
S'22'
p189
sg32
S'NJN'
p190
sg34
g35
sg36
S'0.2'
p191
sg37
S'0.6'
p192
sg38
S'0.0'
p193
sg39
S'.000'
p194
sg41
S'0.0'
p195
sg42
S'2006-07'
p196
sg44
S'0.0'
p197
sg45
S'0.0'
p198
sg46
S'.000'
p199
sg48
S'1.2'
p200
sg50
g11
sbsS'_weight'
p201
S'230'
p202
sS'_dob'
p203
S'2-6-1984'
p204
sS'_salary'
p205
(lp206
(isrc.gp1.models.Salary
Salary
p207
(dp208
g32
S'New Jersey Nets'
p209
sg22
S'NBA'
p210
sg205
S'$800,000'
p211
sg42
S'2006-07'
p212
sba(isrc.gp1.models.Salary
Salary
p213
(dp214
g32
S'New Orleans Hornets'
p215
sg22
S'NBA'
p216
sg205
S'$864,000'
p217
sg42
S'2007-08'
p218
sbasg18
g19
sb.