(isrc.gp1.models.Player
Player
p0
(dp1
S'_experience'
p2
S'NA'
p3
sS'_totals'
p4
(lp5
(isrc.gp1.models.Totals
Totals
p6
(dp7
S'_offensiveRebounds'
p8
S'95'
p9
sS'_threePointsAttempted'
p10
S'172'
p11
sS'_fieldGoalsPercentage'
p12
S'.488'
p13
sS'_assist'
p14
S'132'
p15
sS'_threePointsPercentage'
p16
S'.355'
p17
sS'_threePoints'
p18
S'61'
p19
sS'_points'
p20
S'822'
p21
sS'_position'
p22
S'SG'
p23
sS'_freeThrowsPercentage'
p24
S'.801'
p25
sS'_effectiveFieldGoalPercentage'
p26
S'.537'
p27
sS'_league'
p28
S'NBA'
p29
sS'_steals'
p30
S'53'
p31
sS'_fieldGoalsAttempted'
p32
S'627'
p33
sS'_personalFouls'
p34
S'157'
p35
sS'_freeThrowsAttempted'
p36
S'186'
p37
sS'_totalRebounds'
p38
S'190'
p39
sS'_age'
p40
S'22'
p41
sS'_team'
p42
S'IND'
p43
sS'_games'
p44
S'82'
p45
sS'_blocks'
p46
S'19'
p47
sS'_twoPoints'
p48
S'245'
p49
sS'_freeThrows'
p50
S'149'
p51
sS'_twoPointsAttempted'
p52
S'455'
p53
sS'_defensiveRebounds'
p54
S'95'
p55
sS'_season'
p56
S'1987-88'
p57
sS'_fieldGoals'
p58
S'306'
p59
sS'_turnOvers'
p60
S'101'
p61
sS'_twoPointsPercentage'
p62
S'.538'
p63
sS'_minutesPlayed'
p64
S'1840'
p65
sS'_gamesStarted'
p66
S'1'
p67
sba(isrc.gp1.models.Totals
Totals
p68
(dp69
g8
S'73'
p70
sg10
S'244'
p71
sg12
S'.479'
p72
sg14
S'227'
p73
sg16
S'.402'
p74
sg18
S'98'
p75
sg20
S'1181'
p76
sg22
S'SG'
p77
sg24
S'.844'
p78
sg26
S'.538'
p79
sg28
S'NBA'
p80
sg30
S'93'
p81
sg32
S'831'
p82
sg34
S'170'
p83
sg36
S'340'
p84
sg38
S'292'
p85
sg40
S'23'
p86
sg42
S'IND'
p87
sg44
S'74'
p88
sg46
S'29'
p89
sg48
S'300'
p90
sg50
S'287'
p91
sg52
S'587'
p92
sg54
S'219'
p93
sg56
S'1988-89'
p94
sg58
S'398'
p95
sg60
S'143'
p96
sg62
S'.511'
p97
sg64
S'2536'
p98
sg66
S'70'
p99
sba(isrc.gp1.models.Totals
Totals
p100
(dp101
g8
S'95'
p102
sg10
S'362'
p103
sg12
S'.514'
p104
sg14
S'311'
p105
sg16
S'.414'
p106
sg18
S'150'
p107
sg20
S'2016'
p108
sg22
S'SG'
p109
sg24
S'.868'
p110
sg26
S'.572'
p111
sg28
S'NBA'
p112
sg30
S'110'
p113
sg32
S'1287'
p114
sg34
S'175'
p115
sg36
S'627'
p116
sg38
S'295'
p117
sg40
S'24'
p118
sg42
S'IND'
p119
sg44
S'82'
p120
sg46
S'18'
p121
sg48
S'511'
p122
sg50
S'544'
p123
sg52
S'925'
p124
sg54
S'200'
p125
sg56
S'1989-90'
p126
sg58
S'661'
p127
sg60
S'222'
p128
sg62
S'.552'
p129
sg64
S'3192'
p130
sg66
S'82'
p131
sba(isrc.gp1.models.Totals
Totals
p132
(dp133
g8
S'81'
p134
sg10
S'322'
p135
sg12
S'.512'
p136
sg14
S'331'
p137
sg16
S'.348'
p138
sg18
S'112'
p139
sg20
S'1855'
p140
sg22
S'SG'
p141
sg24
S'.918'
p142
sg26
S'.560'
p143
sg28
S'NBA'
p144
sg30
S'109'
p145
sg32
S'1164'
p146
sg34
S'165'
p147
sg36
S'600'
p148
sg38
S'281'
p149
sg40
S'25'
p150
sg42
S'IND'
p151
sg44
S'82'
p152
sg46
S'13'
p153
sg48
S'484'
p154
sg50
S'551'
p155
sg52
S'842'
p156
sg54
S'200'
p157
sg56
S'1990-91'
p158
sg58
S'596'
p159
sg60
S'163'
p160
sg62
S'.575'
p161
sg64
S'2972'
p162
sg66
S'82'
p163
sba(isrc.gp1.models.Totals
Totals
p164
(dp165
g8
S'82'
p166
sg10
S'341'
p167
sg12
S'.501'
p168
sg14
S'314'
p169
sg16
S'.378'
p170
sg18
S'129'
p171
sg20
S'1695'
p172
sg22
S'SG'
p173
sg24
S'.858'
p174
sg26
S'.559'
p175
sg28
S'NBA'
p176
sg30
S'105'
p177
sg32
S'1121'
p178
sg34
S'210'
p179
sg36
S'515'
p180
sg38
S'318'
p181
sg40
S'26'
p182
sg42
S'IND'
p183
sg44
S'82'
p184
sg46
S'26'
p185
sg48
S'433'
p186
sg50
S'442'
p187
sg52
S'780'
p188
sg54
S'236'
p189
sg56
S'1991-92'
p190
sg58
S'562'
p191
sg60
S'157'
p192
sg62
S'.555'
p193
sg64
S'3120'
p194
sg66
S'82'
p195
sba(isrc.gp1.models.Totals
Totals
p196
(dp197
g8
S'67'
p198
sg10
S'419'
p199
sg12
S'.479'
p200
sg14
S'262'
p201
sg16
S'.399'
p202
sg18
S'167'
p203
sg20
S'1736'
p204
sg22
S'SG'
p205
sg24
S'.880'
p206
sg26
S'.549'
p207
sg28
S'NBA'
p208
sg30
S'120'
p209
sg32
S'1193'
p210
sg34
S'182'
p211
sg36
S'485'
p212
sg38
S'258'
p213
sg40
S'27'
p214
sg42
S'IND'
p215
sg44
S'82'
p216
sg46
S'26'
p217
sg48
S'404'
p218
sg50
S'427'
p219
sg52
S'774'
p220
sg54
S'191'
p221
sg56
S'1992-93'
p222
sg58
S'571'
p223
sg60
S'145'
p224
sg62
S'.522'
p225
sg64
S'2954'
p226
sg66
S'82'
p227
sba(isrc.gp1.models.Totals
Totals
p228
(dp229
g8
S'30'
p230
sg10
S'292'
p231
sg12
S'.503'
p232
sg14
S'248'
p233
sg16
S'.421'
p234
sg18
S'123'
p235
sg20
S'1574'
p236
sg22
S'SG'
p237
sg24
S'.908'
p238
sg26
S'.562'
p239
sg28
S'NBA'
p240
sg30
S'119'
p241
sg32
S'1042'
p242
sg34
S'193'
p243
sg36
S'444'
p244
sg38
S'212'
p245
sg40
S'28'
p246
sg42
S'IND'
p247
sg44
S'79'
p248
sg46
S'24'
p249
sg48
S'401'
p250
sg50
S'403'
p251
sg52
S'750'
p252
sg54
S'182'
p253
sg56
S'1993-94'
p254
sg58
S'524'
p255
sg60
S'175'
p256
sg62
S'.535'
p257
sg64
S'2638'
p258
sg66
S'79'
p259
sba(isrc.gp1.models.Totals
Totals
p260
(dp261
g8
S'30'
p262
sg10
S'470'
p263
sg12
S'.462'
p264
sg14
S'242'
p265
sg16
S'.415'
p266
sg18
S'195'
p267
sg20
S'1588'
p268
sg22
S'SG'
p269
sg24
S'.897'
p270
sg26
S'.552'
p271
sg28
S'NBA'
p272
sg30
S'98'
p273
sg32
S'1092'
p274
sg34
S'157'
p275
sg36
S'427'
p276
sg38
S'210'
p277
sg40
S'29'
p278
sg42
S'IND'
p279
sg44
S'81'
p280
sg46
S'16'
p281
sg48
S'310'
p282
sg50
S'383'
p283
sg52
S'622'
p284
sg54
S'180'
p285
sg56
S'1994-95'
p286
sg58
S'505'
p287
sg60
S'151'
p288
sg62
S'.498'
p289
sg64
S'2665'
p290
sg66
S'81'
p291
sba(isrc.gp1.models.Totals
Totals
p292
(dp293
g8
S'38'
p294
sg10
S'410'
p295
sg12
S'.473'
p296
sg14
S'253'
p297
sg16
S'.410'
p298
sg18
S'168'
p299
sg20
S'1606'
p300
sg22
S'SG'
p301
sg24
S'.863'
p302
sg26
S'.552'
p303
sg28
S'NBA'
p304
sg30
S'77'
p305
sg32
S'1066'
p306
sg34
S'175'
p307
sg36
S'498'
p308
sg38
S'214'
p309
sg40
S'30'
p310
sg42
S'IND'
p311
sg44
S'76'
p312
sg46
S'13'
p313
sg48
S'336'
p314
sg50
S'430'
p315
sg52
S'656'
p316
sg54
S'176'
p317
sg56
S'1995-96'
p318
sg58
S'504'
p319
sg60
S'189'
p320
sg62
S'.512'
p321
sg64
S'2621'
p322
sg66
S'76'
p323
sba(isrc.gp1.models.Totals
Totals
p324
(dp325
g8
S'53'
p326
sg10
S'536'
p327
sg12
S'.444'
p328
sg14
S'273'
p329
sg16
S'.427'
p330
sg18
S'229'
p331
sg20
S'1751'
p332
sg22
S'SG'
p333
sg24
S'.880'
p334
sg26
S'.536'
p335
sg28
S'NBA'
p336
sg30
S'75'
p337
sg32
S'1244'
p338
sg34
S'172'
p339
sg36
S'475'
p340
sg38
S'286'
p341
sg40
S'31'
p342
sg42
S'IND'
p343
sg44
S'81'
p344
sg46
S'25'
p345
sg48
S'323'
p346
sg50
S'418'
p347
sg52
S'708'
p348
sg54
S'233'
p349
sg56
S'1996-97'
p350
sg58
S'552'
p351
sg60
S'166'
p352
sg62
S'.456'
p353
sg64
S'2966'
p354
sg66
S'81'
p355
sba(isrc.gp1.models.Totals
Totals
p356
(dp357
g8
S'46'
p358
sg10
S'382'
p359
sg12
S'.477'
p360
sg14
S'171'
p361
sg16
S'.429'
p362
sg18
S'164'
p363
sg20
S'1578'
p364
sg22
S'SG'
p365
sg24
S'.868'
p366
sg26
S'.553'
p367
sg28
S'NBA'
p368
sg30
S'78'
p369
sg32
S'1081'
p370
sg34
S'148'
p371
sg36
S'440'
p372
sg38
S'232'
p373
sg40
S'32'
p374
sg42
S'IND'
p375
sg44
S'81'
p376
sg46
S'11'
p377
sg48
S'352'
p378
sg50
S'382'
p379
sg52
S'699'
p380
sg54
S'186'
p381
sg56
S'1997-98'
p382
sg58
S'516'
p383
sg60
S'128'
p384
sg62
S'.504'
p385
sg64
S'2795'
p386
sg66
S'81'
p387
sba(isrc.gp1.models.Totals
Totals
p388
(dp389
g8
S'25'
p390
sg10
S'275'
p391
sg12
S'.438'
p392
sg14
S'112'
p393
sg16
S'.385'
p394
sg18
S'106'
p395
sg20
S'920'
p396
sg22
S'SG'
p397
sg24
S'.915'
p398
sg26
S'.517'
p399
sg28
S'NBA'
p400
sg30
S'37'
p401
sg32
S'671'
p402
sg34
S'101'
p403
sg36
S'247'
p404
sg38
S'135'
p405
sg40
S'33'
p406
sg42
S'IND'
p407
sg44
S'50'
p408
sg46
S'9'
p409
sg48
S'188'
p410
sg50
S'226'
p411
sg52
S'396'
p412
sg54
S'110'
p413
sg56
S'1998-99'
p414
sg58
S'294'
p415
sg60
S'76'
p416
sg62
S'.475'
p417
sg64
S'1787'
p418
sg66
S'50'
p419
sba(isrc.gp1.models.Totals
Totals
p420
(dp421
g8
S'50'
p422
sg10
S'404'
p423
sg12
S'.448'
p424
sg14
S'187'
p425
sg16
S'.408'
p426
sg18
S'165'
p427
sg20
S'1470'
p428
sg22
S'SG'
p429
sg24
S'.919'
p430
sg26
S'.527'
p431
sg28
S'NBA'
p432
sg30
S'85'
p433
sg32
S'1041'
p434
sg34
S'126'
p435
sg36
S'406'
p436
sg38
S'239'
p437
sg40
S'34'
p438
sg42
S'IND'
p439
sg44
S'81'
p440
sg46
S'25'
p441
sg48
S'301'
p442
sg50
S'373'
p443
sg52
S'637'
p444
sg54
S'189'
p445
sg56
S'1999-00'
p446
sg58
S'466'
p447
sg60
S'129'
p448
sg62
S'.473'
p449
sg64
S'2987'
p450
sg66
S'81'
p451
sba(isrc.gp1.models.Totals
Totals
p452
(dp453
g8
S'38'
p454
sg10
S'464'
p455
sg12
S'.440'
p456
sg14
S'260'
p457
sg16
S'.366'
p458
sg18
S'170'
p459
sg20
S'1527'
p460
sg22
S'SG'
p461
sg24
S'.928'
p462
sg26
S'.512'
p463
sg28
S'NBA'
p464
sg30
S'81'
p465
sg32
S'1176'
p466
sg34
S'162'
p467
sg36
S'348'
p468
sg38
S'285'
p469
sg40
S'35'
p470
sg42
S'IND'
p471
sg44
S'81'
p472
sg46
S'15'
p473
sg48
S'347'
p474
sg50
S'323'
p475
sg52
S'712'
p476
sg54
S'247'
p477
sg56
S'2000-01'
p478
sg58
S'517'
p479
sg60
S'133'
p480
sg62
S'.487'
p481
sg64
S'3181'
p482
sg66
S'81'
p483
sba(isrc.gp1.models.Totals
Totals
p484
(dp485
g8
S'23'
p486
sg10
S'443'
p487
sg12
S'.453'
p488
sg14
S'253'
p489
sg16
S'.406'
p490
sg18
S'180'
p491
sg20
S'1304'
p492
sg22
S'SG'
p493
sg24
S'.911'
p494
sg26
S'.552'
p495
sg28
S'NBA'
p496
sg30
S'88'
p497
sg32
S'913'
p498
sg34
S'143'
p499
sg36
S'325'
p500
sg38
S'219'
p501
sg40
S'36'
p502
sg42
S'IND'
p503
sg44
S'79'
p504
sg46
S'10'
p505
sg48
S'234'
p506
sg50
S'296'
p507
sg52
S'470'
p508
sg54
S'196'
p509
sg56
S'2001-02'
p510
sg58
S'414'
p511
sg60
S'120'
p512
sg62
S'.498'
p513
sg64
S'2889'
p514
sg66
S'79'
p515
sba(isrc.gp1.models.Totals
Totals
p516
(dp517
g8
S'21'
p518
sg10
S'318'
p519
sg12
S'.441'
p520
sg14
S'170'
p521
sg16
S'.355'
p522
sg18
S'113'
p523
sg20
S'882'
p524
sg22
S'SG'
p525
sg24
S'.900'
p526
sg26
S'.530'
p527
sg28
S'NBA'
p528
sg30
S'62'
p529
sg32
S'637'
p530
sg34
S'89'
p531
sg36
S'230'
p532
sg38
S'172'
p533
sg40
S'37'
p534
sg42
S'IND'
p535
sg44
S'70'
p536
sg46
S'4'
p537
sg48
S'168'
p538
sg50
S'207'
p539
sg52
S'319'
p540
sg54
S'151'
p541
sg56
S'2002-03'
p542
sg58
S'281'
p543
sg60
S'66'
p544
sg62
S'.527'
p545
sg64
S'2117'
p546
sg66
S'70'
p547
sba(isrc.gp1.models.Totals
Totals
p548
(dp549
g8
S'18'
p550
sg10
S'334'
p551
sg12
S'.438'
p552
sg14
S'249'
p553
sg16
S'.401'
p554
sg18
S'134'
p555
sg20
S'800'
p556
sg22
S'SG'
p557
sg24
S'.885'
p558
sg26
S'.551'
p559
sg28
S'NBA'
p560
sg30
S'65'
p561
sg32
S'594'
p562
sg34
S'96'
p563
sg36
S'165'
p564
sg38
S'188'
p565
sg40
S'38'
p566
sg42
S'IND'
p567
sg44
S'80'
p568
sg46
S'11'
p569
sg48
S'126'
p570
sg50
S'146'
p571
sg52
S'260'
p572
sg54
S'170'
p573
sg56
S'2003-04'
p574
sg58
S'260'
p575
sg60
S'68'
p576
sg62
S'.485'
p577
sg64
S'2254'
p578
sg66
S'80'
p579
sba(isrc.gp1.models.Totals
Totals
p580
(dp581
g8
S'18'
p582
sg10
S'298'
p583
sg12
S'.437'
p584
sg14
S'146'
p585
sg16
S'.322'
p586
sg18
S'96'
p587
sg20
S'974'
p588
sg22
S'SG'
p589
sg24
S'.933'
p590
sg26
S'.503'
p591
sg28
S'NBA'
p592
sg30
S'50'
p593
sg32
S'719'
p594
sg34
S'109'
p595
sg36
S'268'
p596
sg38
S'156'
p597
sg40
S'39'
p598
sg42
S'IND'
p599
sg44
S'66'
p600
sg46
S'5'
p601
sg48
S'218'
p602
sg50
S'250'
p603
sg52
S'421'
p604
sg54
S'138'
p605
sg56
S'2004-05'
p606
sg58
S'314'
p607
sg60
S'77'
p608
sg62
S'.518'
p609
sg64
S'2105'
p610
sg66
S'66'
p611
sbasS'_college'
p612
S'University of California, Los Angeles'
p613
sS'_toYear'
p614
S'2005'
p615
sS'_height'
p616
S'6-7'
p617
sS'_active'
p618
I00
sS'_shootingHand'
p619
VRight
p620
sS'_name'
p621
S'Reggie Miller'
p622
sS'_per100Possessions'
p623
(lp624
(isrc.gp1.models.Per100Possession
Per100Possession
p625
(dp626
g8
S'2.5'
p627
sg10
S'4.6'
p628
sg12
S'.488'
p629
sS'_offensiveRating'
p630
S'114'
p631
sg14
S'3.5'
p632
sg16
S'.355'
p633
sg18
S'1.6'
p634
sg20
S'21.9'
p635
sg22
S'SG'
p636
sS'_defensiveRating'
p637
S'111'
p638
sg24
S'.801'
p639
sg28
S'NBA'
p640
sg30
S'1.4'
p641
sg32
S'16.7'
p642
sg34
S'4.2'
p643
sg36
S'5.0'
p644
sg38
S'5.1'
p645
sg40
S'22'
p646
sg42
S'IND'
p647
sg44
S'82'
p648
sg46
S'0.5'
p649
sg48
S'6.5'
p650
sg50
S'4.0'
p651
sg52
S'12.1'
p652
sg54
S'2.5'
p653
sg56
S'1987-88'
p654
sg58
S'8.1'
p655
sg60
S'2.7'
p656
sg62
S'.538'
p657
sg64
S'1840'
p658
sg66
g67
sba(isrc.gp1.models.Per100Possession
Per100Possession
p659
(dp660
g8
S'1.4'
p661
sg10
S'4.7'
p662
sg12
S'.479'
p663
sg630
S'118'
p664
sg14
S'4.3'
p665
sg16
S'.402'
p666
sg18
S'1.9'
p667
sg20
S'22.5'
p668
sg22
S'SG'
p669
sg637
S'112'
p670
sg24
S'.844'
p671
sg28
S'NBA'
p672
sg30
S'1.8'
p673
sg32
S'15.9'
p674
sg34
S'3.2'
p675
sg36
S'6.5'
p676
sg38
S'5.6'
p677
sg40
S'23'
p678
sg42
S'IND'
p679
sg44
S'74'
p680
sg46
S'0.6'
p681
sg48
S'5.7'
p682
sg50
S'5.5'
p683
sg52
S'11.2'
p684
sg54
S'4.2'
p685
sg56
S'1988-89'
p686
sg58
S'7.6'
p687
sg60
S'2.7'
p688
sg62
S'.511'
p689
sg64
S'2536'
p690
sg66
S'70'
p691
sba(isrc.gp1.models.Per100Possession
Per100Possession
p692
(dp693
g8
S'1.5'
p694
sg10
S'5.6'
p695
sg12
S'.514'
p696
sg630
S'124'
p697
sg14
S'4.8'
p698
sg16
S'.414'
p699
sg18
S'2.3'
p700
sg20
S'31.2'
p701
sg22
S'SG'
p702
sg637
S'113'
p703
sg24
S'.868'
p704
sg28
S'NBA'
p705
sg30
S'1.7'
p706
sg32
S'19.9'
p707
sg34
S'2.7'
p708
sg36
S'9.7'
p709
sg38
S'4.6'
p710
sg40
S'24'
p711
sg42
S'IND'
p712
sg44
S'82'
p713
sg46
S'0.3'
p714
sg48
S'7.9'
p715
sg50
S'8.4'
p716
sg52
S'14.3'
p717
sg54
S'3.1'
p718
sg56
S'1989-90'
p719
sg58
S'10.2'
p720
sg60
S'3.4'
p721
sg62
S'.552'
p722
sg64
S'3192'
p723
sg66
S'82'
p724
sba(isrc.gp1.models.Per100Possession
Per100Possession
p725
(dp726
g8
S'1.3'
p727
sg10
S'5.2'
p728
sg12
S'.512'
p729
sg630
S'130'
p730
sg14
S'5.4'
p731
sg16
S'.348'
p732
sg18
S'1.8'
p733
sg20
S'30.2'
p734
sg22
S'SG'
p735
sg637
S'114'
p736
sg24
S'.918'
p737
sg28
S'NBA'
p738
sg30
S'1.8'
p739
sg32
S'18.9'
p740
sg34
S'2.7'
p741
sg36
S'9.8'
p742
sg38
S'4.6'
p743
sg40
S'25'
p744
sg42
S'IND'
p745
sg44
S'82'
p746
sg46
S'0.2'
p747
sg48
S'7.9'
p748
sg50
S'9.0'
p749
sg52
S'13.7'
p750
sg54
S'3.3'
p751
sg56
S'1990-91'
p752
sg58
S'9.7'
p753
sg60
S'2.6'
p754
sg62
S'.575'
p755
sg64
S'2972'
p756
sg66
S'82'
p757
sba(isrc.gp1.models.Per100Possession
Per100Possession
p758
(dp759
g8
S'1.3'
p760
sg10
S'5.3'
p761
sg12
S'.501'
p762
sg630
S'125'
p763
sg14
S'4.9'
p764
sg16
S'.378'
p765
sg18
S'2.0'
p766
sg20
S'26.3'
p767
sg22
S'SG'
p768
sg637
S'112'
p769
sg24
S'.858'
p770
sg28
S'NBA'
p771
sg30
S'1.6'
p772
sg32
S'17.4'
p773
sg34
S'3.3'
p774
sg36
S'8.0'
p775
sg38
S'4.9'
p776
sg40
S'26'
p777
sg42
S'IND'
p778
sg44
S'82'
p779
sg46
S'0.4'
p780
sg48
S'6.7'
p781
sg50
S'6.9'
p782
sg52
S'12.1'
p783
sg54
S'3.7'
p784
sg56
S'1991-92'
p785
sg58
S'8.7'
p786
sg60
S'2.4'
p787
sg62
S'.555'
p788
sg64
S'3120'
p789
sg66
S'82'
p790
sba(isrc.gp1.models.Per100Possession
Per100Possession
p791
(dp792
g8
S'1.1'
p793
sg10
S'7.1'
p794
sg12
S'.479'
p795
sg630
S'125'
p796
sg14
S'4.4'
p797
sg16
S'.399'
p798
sg18
S'2.8'
p799
sg20
S'29.4'
p800
sg22
S'SG'
p801
sg637
S'112'
p802
sg24
S'.880'
p803
sg28
S'NBA'
p804
sg30
S'2.0'
p805
sg32
S'20.2'
p806
sg34
S'3.1'
p807
sg36
S'8.2'
p808
sg38
S'4.4'
p809
sg40
S'27'
p810
sg42
S'IND'
p811
sg44
S'82'
p812
sg46
S'0.4'
p813
sg48
S'6.8'
p814
sg50
S'7.2'
p815
sg52
S'13.1'
p816
sg54
S'3.2'
p817
sg56
S'1992-93'
p818
sg58
S'9.7'
p819
sg60
S'2.5'
p820
sg62
S'.522'
p821
sg64
S'2954'
p822
sg66
S'82'
p823
sba(isrc.gp1.models.Per100Possession
Per100Possession
p824
(dp825
g8
S'0.6'
p826
sg10
S'5.7'
p827
sg12
S'.503'
p828
sg630
S'123'
p829
sg14
S'4.8'
p830
sg16
S'.421'
p831
sg18
S'2.4'
p832
sg20
S'30.7'
p833
sg22
S'SG'
p834
sg637
S'106'
p835
sg24
S'.908'
p836
sg28
S'NBA'
p837
sg30
S'2.3'
p838
sg32
S'20.3'
p839
sg34
S'3.8'
p840
sg36
S'8.7'
p841
sg38
S'4.1'
p842
sg40
S'28'
p843
sg42
S'IND'
p844
sg44
S'79'
p845
sg46
S'0.5'
p846
sg48
S'7.8'
p847
sg50
S'7.9'
p848
sg52
S'14.6'
p849
sg54
S'3.6'
p850
sg56
S'1993-94'
p851
sg58
S'10.2'
p852
sg60
S'3.4'
p853
sg62
S'.535'
p854
sg64
S'2638'
p855
sg66
S'79'
p856
sba(isrc.gp1.models.Per100Possession
Per100Possession
p857
(dp858
g8
S'0.6'
p859
sg10
S'9.4'
p860
sg12
S'.462'
p861
sg630
S'123'
p862
sg14
S'4.8'
p863
sg16
S'.415'
p864
sg18
S'3.9'
p865
sg20
S'31.8'
p866
sg22
S'SG'
p867
sg637
S'108'
p868
sg24
S'.897'
p869
sg28
S'NBA'
p870
sg30
S'2.0'
p871
sg32
S'21.8'
p872
sg34
S'3.1'
p873
sg36
S'8.5'
p874
sg38
S'4.2'
p875
sg40
S'29'
p876
sg42
S'IND'
p877
sg44
S'81'
p878
sg46
S'0.3'
p879
sg48
S'6.2'
p880
sg50
S'7.7'
p881
sg52
S'12.4'
p882
sg54
S'3.6'
p883
sg56
S'1994-95'
p884
sg58
S'10.1'
p885
sg60
S'3.0'
p886
sg62
S'.498'
p887
sg64
S'2665'
p888
sg66
S'81'
p889
sba(isrc.gp1.models.Per100Possession
Per100Possession
p890
(dp891
g8
S'0.8'
p892
sg10
S'8.4'
p893
sg12
S'.473'
p894
sg630
S'121'
p895
sg14
S'5.2'
p896
sg16
S'.410'
p897
sg18
S'3.4'
p898
sg20
S'32.9'
p899
sg22
S'SG'
p900
sg637
S'110'
p901
sg24
S'.863'
p902
sg28
S'NBA'
p903
sg30
S'1.6'
p904
sg32
S'21.9'
p905
sg34
S'3.6'
p906
sg36
S'10.2'
p907
sg38
S'4.4'
p908
sg40
S'30'
p909
sg42
S'IND'
p910
sg44
S'76'
p911
sg46
S'0.3'
p912
sg48
S'6.9'
p913
sg50
S'8.8'
p914
sg52
S'13.5'
p915
sg54
S'3.6'
p916
sg56
S'1995-96'
p917
sg58
S'10.3'
p918
sg60
S'3.9'
p919
sg62
S'.512'
p920
sg64
S'2621'
p921
sg66
S'76'
p922
sba(isrc.gp1.models.Per100Possession
Per100Possession
p923
(dp924
g8
S'1.0'
p925
sg10
S'9.7'
p926
sg12
S'.444'
p927
sg630
S'121'
p928
sg14
S'5.0'
p929
sg16
S'.427'
p930
sg18
S'4.2'
p931
sg20
S'31.8'
p932
sg22
S'SG'
p933
sg637
S'108'
p934
sg24
S'.880'
p935
sg28
S'NBA'
p936
sg30
S'1.4'
p937
sg32
S'22.6'
p938
sg34
S'3.1'
p939
sg36
S'8.6'
p940
sg38
S'5.2'
p941
sg40
S'31'
p942
sg42
S'IND'
p943
sg44
S'81'
p944
sg46
S'0.5'
p945
sg48
S'5.9'
p946
sg50
S'7.6'
p947
sg52
S'12.9'
p948
sg54
S'4.2'
p949
sg56
S'1996-97'
p950
sg58
S'10.0'
p951
sg60
S'3.0'
p952
sg62
S'.456'
p953
sg64
S'2966'
p954
sg66
S'81'
p955
sba(isrc.gp1.models.Per100Possession
Per100Possession
p956
(dp957
g8
S'0.9'
p958
sg10
S'7.5'
p959
sg12
S'.477'
p960
sg630
S'121'
p961
sg14
S'3.3'
p962
sg16
S'.429'
p963
sg18
S'3.2'
p964
sg20
S'30.8'
p965
sg22
S'SG'
p966
sg637
S'105'
p967
sg24
S'.868'
p968
sg28
S'NBA'
p969
sg30
S'1.5'
p970
sg32
S'21.1'
p971
sg34
S'2.9'
p972
sg36
S'8.6'
p973
sg38
S'4.5'
p974
sg40
S'32'
p975
sg42
S'IND'
p976
sg44
S'81'
p977
sg46
S'0.2'
p978
sg48
S'6.9'
p979
sg50
S'7.5'
p980
sg52
S'13.7'
p981
sg54
S'3.6'
p982
sg56
S'1997-98'
p983
sg58
S'10.1'
p984
sg60
S'2.5'
p985
sg62
S'.504'
p986
sg64
S'2795'
p987
sg66
S'81'
p988
sba(isrc.gp1.models.Per100Possession
Per100Possession
p989
(dp990
g8
S'0.8'
p991
sg10
S'8.6'
p992
sg12
S'.438'
p993
sg630
S'119'
p994
sg14
S'3.5'
p995
sg16
S'.385'
p996
sg18
S'3.3'
p997
sg20
S'28.6'
p998
sg22
S'SG'
p999
sg637
S'108'
p1000
sg24
S'.915'
p1001
sg28
S'NBA'
p1002
sg30
S'1.2'
p1003
sg32
S'20.9'
p1004
sg34
S'3.1'
p1005
sg36
S'7.7'
p1006
sg38
S'4.2'
p1007
sg40
S'33'
p1008
sg42
S'IND'
p1009
sg44
S'50'
p1010
sg46
S'0.3'
p1011
sg48
S'5.8'
p1012
sg50
S'7.0'
p1013
sg52
S'12.3'
p1014
sg54
S'3.4'
p1015
sg56
S'1998-99'
p1016
sg58
S'9.1'
p1017
sg60
S'2.4'
p1018
sg62
S'.475'
p1019
sg64
S'1787'
p1020
sg66
S'50'
p1021
sba(isrc.gp1.models.Per100Possession
Per100Possession
p1022
(dp1023
g8
S'0.9'
p1024
sg10
S'7.0'
p1025
sg12
S'.448'
p1026
sg630
S'118'
p1027
sg14
S'3.2'
p1028
sg16
S'.408'
p1029
sg18
S'2.8'
p1030
sg20
S'25.4'
p1031
sg22
S'SG'
p1032
sg637
S'107'
p1033
sg24
S'.919'
p1034
sg28
S'NBA'
p1035
sg30
S'1.5'
p1036
sg32
S'18.0'
p1037
sg34
S'2.2'
p1038
sg36
S'7.0'
p1039
sg38
S'4.1'
p1040
sg40
S'34'
p1041
sg42
S'IND'
p1042
sg44
S'81'
p1043
sg46
S'0.4'
p1044
sg48
S'5.2'
p1045
sg50
S'6.4'
p1046
sg52
S'11.0'
p1047
sg54
S'3.3'
p1048
sg56
S'1999-00'
p1049
sg58
S'8.0'
p1050
sg60
S'2.2'
p1051
sg62
S'.473'
p1052
sg64
S'2987'
p1053
sg66
S'81'
p1054
sba(isrc.gp1.models.Per100Possession
Per100Possession
p1055
(dp1056
g8
S'0.6'
p1057
sg10
S'7.8'
p1058
sg12
S'.440'
p1059
sg630
S'115'
p1060
sg14
S'4.4'
p1061
sg16
S'.366'
p1062
sg18
S'2.9'
p1063
sg20
S'25.8'
p1064
sg22
S'SG'
p1065
sg637
S'106'
p1066
sg24
S'.928'
p1067
sg28
S'NBA'
p1068
sg30
S'1.4'
p1069
sg32
S'19.8'
p1070
sg34
S'2.7'
p1071
sg36
S'5.9'
p1072
sg38
S'4.8'
p1073
sg40
S'35'
p1074
sg42
S'IND'
p1075
sg44
S'81'
p1076
sg46
S'0.3'
p1077
sg48
S'5.9'
p1078
sg50
S'5.5'
p1079
sg52
S'12.0'
p1080
sg54
S'4.2'
p1081
sg56
S'2000-01'
p1082
sg58
S'8.7'
p1083
sg60
S'2.2'
p1084
sg62
S'.487'
p1085
sg64
S'3181'
p1086
sg66
S'81'
p1087
sba(isrc.gp1.models.Per100Possession
Per100Possession
p1088
(dp1089
g8
S'0.4'
p1090
sg10
S'8.0'
p1091
sg12
S'.453'
p1092
sg630
S'121'
p1093
sg14
S'4.6'
p1094
sg16
S'.406'
p1095
sg18
S'3.3'
p1096
sg20
S'23.6'
p1097
sg22
S'SG'
p1098
sg637
S'108'
p1099
sg24
S'.911'
p1100
sg28
S'NBA'
p1101
sg30
S'1.6'
p1102
sg32
S'16.5'
p1103
sg34
S'2.6'
p1104
sg36
S'5.9'
p1105
sg38
S'4.0'
p1106
sg40
S'36'
p1107
sg42
S'IND'
p1108
sg44
S'79'
p1109
sg46
S'0.2'
p1110
sg48
S'4.2'
p1111
sg50
S'5.3'
p1112
sg52
S'8.5'
p1113
sg54
S'3.5'
p1114
sg56
S'2001-02'
p1115
sg58
S'7.5'
p1116
sg60
S'2.2'
p1117
sg62
S'.498'
p1118
sg64
S'2889'
p1119
sg66
S'79'
p1120
sba(isrc.gp1.models.Per100Possession
Per100Possession
p1121
(dp1122
g8
S'0.5'
p1123
sg10
S'7.9'
p1124
sg12
S'.441'
p1125
sg630
S'122'
p1126
sg14
S'4.2'
p1127
sg16
S'.355'
p1128
sg18
S'2.8'
p1129
sg20
S'21.8'
p1130
sg22
S'SG'
p1131
sg637
S'105'
p1132
sg24
S'.900'
p1133
sg28
S'NBA'
p1134
sg30
S'1.5'
p1135
sg32
S'15.8'
p1136
sg34
S'2.2'
p1137
sg36
S'5.7'
p1138
sg38
S'4.3'
p1139
sg40
S'37'
p1140
sg42
S'IND'
p1141
sg44
S'70'
p1142
sg46
S'0.1'
p1143
sg48
S'4.2'
p1144
sg50
S'5.1'
p1145
sg52
S'7.9'
p1146
sg54
S'3.7'
p1147
sg56
S'2002-03'
p1148
sg58
S'7.0'
p1149
sg60
S'1.6'
p1150
sg62
S'.527'
p1151
sg64
S'2117'
p1152
sg66
S'70'
p1153
sba(isrc.gp1.models.Per100Possession
Per100Possession
p1154
(dp1155
g8
S'0.4'
p1156
sg10
S'8.1'
p1157
sg12
S'.438'
p1158
sg630
S'123'
p1159
sg14
S'6.1'
p1160
sg16
S'.401'
p1161
sg18
S'3.3'
p1162
sg20
S'19.5'
p1163
sg22
S'SG'
p1164
sg637
S'101'
p1165
sg24
S'.885'
p1166
sg28
S'NBA'
p1167
sg30
S'1.6'
p1168
sg32
S'14.5'
p1169
sg34
S'2.3'
p1170
sg36
S'4.0'
p1171
sg38
S'4.6'
p1172
sg40
S'38'
p1173
sg42
S'IND'
p1174
sg44
S'80'
p1175
sg46
S'0.3'
p1176
sg48
S'3.1'
p1177
sg50
S'3.6'
p1178
sg52
S'6.3'
p1179
sg54
S'4.1'
p1180
sg56
S'2003-04'
p1181
sg58
S'6.3'
p1182
sg60
S'1.7'
p1183
sg62
S'.485'
p1184
sg64
S'2254'
p1185
sg66
S'80'
p1186
sba(isrc.gp1.models.Per100Possession
Per100Possession
p1187
(dp1188
g8
S'0.5'
p1189
sg10
S'7.8'
p1190
sg12
S'.437'
p1191
sg630
S'118'
p1192
sg14
S'3.8'
p1193
sg16
S'.322'
p1194
sg18
S'2.5'
p1195
sg20
S'25.5'
p1196
sg22
S'SG'
p1197
sg637
S'109'
p1198
sg24
S'.933'
p1199
sg28
S'NBA'
p1200
sg30
S'1.3'
p1201
sg32
S'18.8'
p1202
sg34
S'2.9'
p1203
sg36
S'7.0'
p1204
sg38
S'4.1'
p1205
sg40
S'39'
p1206
sg42
S'IND'
p1207
sg44
S'66'
p1208
sg46
S'0.1'
p1209
sg48
S'5.7'
p1210
sg50
S'6.5'
p1211
sg52
S'11.0'
p1212
sg54
S'3.6'
p1213
sg56
S'2004-05'
p1214
sg58
S'8.2'
p1215
sg60
S'2.0'
p1216
sg62
S'.518'
p1217
sg64
S'2105'
p1218
sg66
S'66'
p1219
sbasS'_advanced'
p1220
(lp1221
(isrc.gp1.models.Advanced
Advanced
p1222
(dp1223
S'_offensiveReboundPercentage'
p1224
S'5.7'
p1225
sS'_turnOverPercentage'
p1226
S'12.5'
p1227
sS'_winSharesPer48Minutes'
p1228
S'.110'
p1229
sS'_stealPercentage'
p1230
S'1.4'
p1231
sS'_usagePercentage'
p1232
S'18.6'
p1233
sS'_totalReboundsPercentage'
p1234
S'5.7'
p1235
sS'_defensiveBoxPlusMinus'
p1236
S'-1.1'
p1237
sg22
S'SG'
p1238
sS'_valueOverReplacementPlayer'
p1239
S'1.2'
p1240
sS'_trueShootingPercentage'
p1241
S'.580'
p1242
sS'_defensiveReboundPercentage'
p1243
S'5.6'
p1244
sS'_freeThrowsAttempRate'
p1245
S'.297'
p1246
sS'_threePointsAttempRate'
p1247
S'.274'
p1248
sg28
S'NBA'
p1249
sS'_offensiveBoxPlusMinues'
p1250
S'1.6'
p1251
sS'_assistPercentage'
p1252
S'10.2'
p1253
sS'_defensiveWinShares'
p1254
S'1.3'
p1255
sg40
S'22'
p1256
sg42
S'IND'
p1257
sg44
S'82'
p1258
sS'_blockPercentage'
p1259
S'0.6'
p1260
sS'_playerEfficiencyRating'
p1261
S'14.0'
p1262
sS'_offensiveWinShares'
p1263
S'2.9'
p1264
sg64
S'1840'
p1265
sS'_boxPlusMinus'
p1266
S'0.6'
p1267
sg56
S'1987-88'
p1268
sS'_winShares'
p1269
S'4.2'
p1270
sba(isrc.gp1.models.Advanced
Advanced
p1271
(dp1272
g1224
S'3.4'
p1273
sg1226
S'12.7'
p1274
sg1228
S'.124'
p1275
sg1230
S'1.8'
p1276
sg1232
S'18.5'
p1277
sg1234
S'6.4'
p1278
sg1236
S'-0.4'
p1279
sg22
S'SG'
p1280
sg1239
S'2.8'
p1281
sg1241
S'.602'
p1282
sg1243
S'9.1'
p1283
sg1245
S'.409'
p1284
sg1247
S'.294'
p1285
sg28
S'NBA'
p1286
sg1250
S'2.7'
p1287
sg1252
S'12.9'
p1288
sg1254
S'1.3'
p1289
sg40
S'23'
p1290
sg42
S'IND'
p1291
sg44
S'74'
p1292
sg1259
S'0.7'
p1293
sg1261
S'15.7'
p1294
sg1263
S'5.2'
p1295
sg64
S'2536'
p1296
sg1266
S'2.3'
p1297
sg56
S'1988-89'
p1298
sg1269
S'6.5'
p1299
sba(isrc.gp1.models.Advanced
Advanced
p1300
(dp1301
g1224
S'3.7'
p1302
sg1226
S'12.4'
p1303
sg1228
S'.182'
p1304
sg1230
S'1.7'
p1305
sg1232
S'24.2'
p1306
sg1234
S'5.4'
p1307
sg1236
S'-2.0'
p1308
sg22
S'SG'
p1309
sg1239
S'4.6'
p1310
sg1241
S'.645'
p1311
sg1243
S'7.0'
p1312
sg1245
S'.487'
p1313
sg1247
S'.281'
p1314
sg28
S'NBA'
p1315
sg1250
S'5.8'
p1316
sg1252
S'15.1'
p1317
sg1254
S'1.3'
p1318
sg40
S'24'
p1319
sg42
S'IND'
p1320
sg44
S'82'
p1321
sg1259
S'0.3'
p1322
sg1261
S'20.8'
p1323
sg1263
S'10.8'
p1324
sg64
S'3192'
p1325
sg1266
S'3.8'
p1326
sg56
S'1989-90'
p1327
sg1269
S'12.1'
p1328
sba(isrc.gp1.models.Advanced
Advanced
p1329
(dp1330
g1224
S'3.2'
p1331
sg1226
S'10.2'
p1332
sg1228
S'.202'
p1333
sg1230
S'1.8'
p1334
sg1232
S'22.5'
p1335
sg1234
S'5.4'
p1336
sg1236
S'-2.3'
p1337
sg22
S'SG'
p1338
sg1239
S'4.5'
p1339
sg1241
S'.650'
p1340
sg1243
S'7.4'
p1341
sg1245
S'.515'
p1342
sg1247
S'.277'
p1343
sg28
S'NBA'
p1344
sg1250
S'6.3'
p1345
sg1252
S'16.6'
p1346
sg1254
S'0.8'
p1347
sg40
S'25'
p1348
sg42
S'IND'
p1349
sg44
S'82'
p1350
sg1259
S'0.3'
p1351
sg1261
S'21.2'
p1352
sg1263
S'11.7'
p1353
sg64
S'2972'
p1354
sg1266
S'4.0'
p1355
sg56
S'1990-91'
p1356
sg1269
S'12.5'
p1357
sba(isrc.gp1.models.Advanced
Advanced
p1358
(dp1359
g1224
S'3.1'
p1360
sg1226
S'10.4'
p1361
sg1228
S'.169'
p1362
sg1230
S'1.6'
p1363
sg1232
S'20.2'
p1364
sg1234
S'5.6'
p1365
sg1236
S'-1.4'
p1366
sg22
S'SG'
p1367
sg1239
S'3.8'
p1368
sg1241
S'.629'
p1369
sg1243
S'7.9'
p1370
sg1245
S'.459'
p1371
sg1247
S'.304'
p1372
sg28
S'NBA'
p1373
sg1250
S'4.3'
p1374
sg1252
S'14.5'
p1375
sg1254
S'1.7'
p1376
sg40
S'26'
p1377
sg42
S'IND'
p1378
sg44
S'82'
p1379
sg1259
S'0.5'
p1380
sg1261
S'17.6'
p1381
sg1263
S'9.3'
p1382
sg64
S'3120'
p1383
sg1266
S'2.9'
p1384
sg56
S'1991-92'
p1385
sg1269
S'11.0'
p1386
sba(isrc.gp1.models.Advanced
Advanced
p1387
(dp1388
g1224
S'2.5'
p1389
sg1226
S'9.3'
p1390
sg1228
S'.183'
p1391
sg1230
S'2.0'
p1392
sg1232
S'22.2'
p1393
sg1234
S'4.8'
p1394
sg1236
S'-1.6'
p1395
sg22
S'SG'
p1396
sg1239
S'4.4'
p1397
sg1241
S'.617'
p1398
sg1243
S'7.0'
p1399
sg1245
S'.407'
p1400
sg1247
S'.351'
p1401
sg28
S'NBA'
p1402
sg1250
S'5.4'
p1403
sg1252
S'13.4'
p1404
sg1254
S'1.7'
p1405
sg40
S'27'
p1406
sg42
S'IND'
p1407
sg44
S'82'
p1408
sg1259
S'0.6'
p1409
sg1261
S'19.4'
p1410
sg1263
S'9.6'
p1411
sg64
S'2954'
p1412
sg1266
S'3.8'
p1413
sg56
S'1992-93'
p1414
sg1269
S'11.3'
p1415
sba(isrc.gp1.models.Advanced
Advanced
p1416
(dp1417
g1224
S'1.4'
p1418
sg1226
S'12.4'
p1419
sg1228
S'.212'
p1420
sg1230
S'2.3'
p1421
sg1232
S'23.5'
p1422
sg1234
S'4.7'
p1423
sg1236
S'-0.9'
p1424
sg22
S'SG'
p1425
sg1239
S'4.1'
p1426
sg1241
S'.636'
p1427
sg1243
S'7.7'
p1428
sg1245
S'.426'
p1429
sg1247
S'.280'
p1430
sg28
S'NBA'
p1431
sg1250
S'5.0'
p1432
sg1252
S'15.6'
p1433
sg1254
S'2.9'
p1434
sg40
S'28'
p1435
sg42
S'IND'
p1436
sg44
S'79'
p1437
sg1259
S'0.6'
p1438
sg1261
S'20.2'
p1439
sg1263
S'8.8'
p1440
sg64
S'2638'
p1441
sg1266
S'4.1'
p1442
sg56
S'1993-94'
p1443
sg1269
S'11.7'
p1444
sba(isrc.gp1.models.Advanced
Advanced
p1445
(dp1446
g1224
S'1.4'
p1447
sg1226
S'10.6'
p1448
sg1228
S'.204'
p1449
sg1230
S'2.0'
p1450
sg1232
S'24.6'
p1451
sg1234
S'4.8'
p1452
sg1236
S'-1.2'
p1453
sg22
S'SG'
p1454
sg1239
S'4.3'
p1455
sg1241
S'.620'
p1456
sg1243
S'8.0'
p1457
sg1245
S'.391'
p1458
sg1247
S'.430'
p1459
sg28
S'NBA'
p1460
sg1250
S'5.5'
p1461
sg1252
S'16.1'
p1462
sg1254
S'2.8'
p1463
sg40
S'29'
p1464
sg42
S'IND'
p1465
sg44
S'81'
p1466
sg1259
S'0.5'
p1467
sg1261
S'20.1'
p1468
sg1263
S'8.5'
p1469
sg64
S'2665'
p1470
sg1266
S'4.3'
p1471
sg56
S'1994-95'
p1472
sg1269
S'11.4'
p1473
sba(isrc.gp1.models.Advanced
Advanced
p1474
(dp1475
g1224
S'1.9'
p1476
sg1226
S'12.8'
p1477
sg1228
S'.188'
p1478
sg1230
S'1.6'
p1479
sg1232
S'25.8'
p1480
sg1234
S'5.1'
p1481
sg1236
S'-1.6'
p1482
sg22
S'SG'
p1483
sg1239
S'3.9'
p1484
sg1241
S'.625'
p1485
sg1243
S'8.1'
p1486
sg1245
S'.467'
p1487
sg1247
S'.385'
p1488
sg28
S'NBA'
p1489
sg1250
S'5.5'
p1490
sg1252
S'17.2'
p1491
sg1254
S'2.0'
p1492
sg40
S'30'
p1493
sg42
S'IND'
p1494
sg44
S'76'
p1495
sg1259
S'0.4'
p1496
sg1261
S'20.1'
p1497
sg1263
S'8.3'
p1498
sg64
S'2621'
p1499
sg1266
S'3.9'
p1500
sg56
S'1995-96'
p1501
sg1269
S'10.3'
p1502
sba(isrc.gp1.models.Advanced
Advanced
p1503
(dp1504
g1224
S'2.2'
p1505
sg1226
S'10.3'
p1506
sg1228
S'.200'
p1507
sg1230
S'1.4'
p1508
sg1232
S'25.2'
p1509
sg1234
S'5.8'
p1510
sg1236
S'-1.1'
p1511
sg22
S'SG'
p1512
sg1239
S'5.2'
p1513
sg1241
S'.603'
p1514
sg1243
S'9.2'
p1515
sg1245
S'.382'
p1516
sg1247
S'.431'
p1517
sg28
S'NBA'
p1518
sg1250
S'6.1'
p1519
sg1252
S'17.4'
p1520
sg1254
S'2.7'
p1521
sg40
S'31'
p1522
sg42
S'IND'
p1523
sg44
S'81'
p1524
sg1259
S'0.7'
p1525
sg1261
S'20.2'
p1526
sg1263
S'9.6'
p1527
sg64
S'2966'
p1528
sg1266
S'5.0'
p1529
sg56
S'1996-97'
p1530
sg1269
S'12.3'
p1531
sba(isrc.gp1.models.Advanced
Advanced
p1532
(dp1533
g1224
S'2.1'
p1534
sg1226
S'9.1'
p1535
sg1228
S'.206'
p1536
sg1230
S'1.5'
p1537
sg1232
S'23.9'
p1538
sg1234
S'5.0'
p1539
sg1236
S'-1.1'
p1540
sg22
S'SG'
p1541
sg1239
S'4.4'
p1542
sg1241
S'.619'
p1543
sg1243
S'7.6'
p1544
sg1245
S'.407'
p1545
sg1247
S'.353'
p1546
sg28
S'NBA'
p1547
sg1250
S'5.3'
p1548
sg1252
S'11.1'
p1549
sg1254
S'2.8'
p1550
sg40
S'32'
p1551
sg42
S'IND'
p1552
sg44
S'81'
p1553
sg1259
S'0.3'
p1554
sg1261
S'19.8'
p1555
sg1263
S'9.2'
p1556
sg64
S'2795'
p1557
sg1266
S'4.3'
p1558
sg56
S'1997-98'
p1559
sg1269
S'12.0'
p1560
sba(isrc.gp1.models.Advanced
Advanced
p1561
(dp1562
g1224
S'1.7'
p1563
sg1226
S'8.9'
p1564
sg1228
S'.172'
p1565
sg1230
S'1.2'
p1566
sg1232
S'22.9'
p1567
sg1234
S'4.5'
p1568
sg1236
S'-2.1'
p1569
sg22
S'SG'
p1570
sg1239
S'2.5'
p1571
sg1241
S'.590'
p1572
sg1243
S'7.2'
p1573
sg1245
S'.368'
p1574
sg1247
S'.410'
p1575
sg28
S'NBA'
p1576
sg1250
S'5.6'
p1577
sg1252
S'11.4'
p1578
sg1254
S'0.4'
p1579
sg40
S'33'
p1580
sg42
S'IND'
p1581
sg44
S'50'
p1582
sg1259
S'0.4'
p1583
sg1261
S'18.7'
p1584
sg1263
S'6.0'
p1585
sg64
S'1787'
p1586
sg1266
S'3.5'
p1587
sg56
S'1998-99'
p1588
sg1269
S'6.4'
p1589
sba(isrc.gp1.models.Advanced
Advanced
p1590
(dp1591
g1224
S'2.0'
p1592
sg1226
S'9.6'
p1593
sg1228
S'.162'
p1594
sg1230
S'1.5'
p1595
sg1232
S'20.5'
p1596
sg1234
S'4.5'
p1597
sg1236
S'-0.8'
p1598
sg22
S'SG'
p1599
sg1239
S'4.0'
p1600
sg1241
S'.603'
p1601
sg1243
S'6.8'
p1602
sg1245
S'.390'
p1603
sg1247
S'.388'
p1604
sg28
S'NBA'
p1605
sg1250
S'4.0'
p1606
sg1252
S'10.2'
p1607
sg1254
S'2.0'
p1608
sg40
S'34'
p1609
sg42
S'IND'
p1610
sg44
S'81'
p1611
sg1259
S'0.6'
p1612
sg1261
S'17.3'
p1613
sg1263
S'8.0'
p1614
sg64
S'2987'
p1615
sg1266
S'3.3'
p1616
sg56
S'1999-00'
p1617
sg1269
S'10.1'
p1618
sba(isrc.gp1.models.Advanced
Advanced
p1619
(dp1620
g1224
S'1.4'
p1621
sg1226
S'9.1'
p1622
sg1228
S'.155'
p1623
sg1230
S'1.4'
p1624
sg1232
S'21.5'
p1625
sg1234
S'5.1'
p1626
sg1236
S'-1.5'
p1627
sg22
S'SG'
p1628
sg1239
S'3.5'
p1629
sg1241
S'.574'
p1630
sg1243
S'8.5'
p1631
sg1245
S'.296'
p1632
sg1247
S'.395'
p1633
sg28
S'NBA'
p1634
sg1250
S'3.9'
p1635
sg1252
S'15.0'
p1636
sg1254
S'2.2'
p1637
sg40
S'35'
p1638
sg42
S'IND'
p1639
sg44
S'81'
p1640
sg1259
S'0.3'
p1641
sg1261
S'17.3'
p1642
sg1263
S'8.1'
p1643
sg64
S'3181'
p1644
sg1266
S'2.4'
p1645
sg56
S'2000-01'
p1646
sg1269
S'10.3'
p1647
sba(isrc.gp1.models.Advanced
Advanced
p1648
(dp1649
g1224
S'0.9'
p1650
sg1226
S'10.2'
p1651
sg1228
S'.159'
p1652
sg1230
S'1.6'
p1653
sg1232
S'18.5'
p1654
sg1234
S'4.3'
p1655
sg1236
S'-1.3'
p1656
sg22
S'SG'
p1657
sg1239
S'3.6'
p1658
sg1241
S'.617'
p1659
sg1243
S'7.5'
p1660
sg1245
S'.356'
p1661
sg1247
S'.485'
p1662
sg28
S'NBA'
p1663
sg1250
S'4.2'
p1664
sg1252
S'14.7'
p1665
sg1254
S'1.9'
p1666
sg40
S'36'
p1667
sg42
S'IND'
p1668
sg44
S'79'
p1669
sg1259
S'0.2'
p1670
sg1261
S'16.5'
p1671
sg1263
S'7.7'
p1672
sg64
S'2889'
p1673
sg1266
S'2.9'
p1674
sg56
S'2001-02'
p1675
sg1269
S'9.5'
p1676
sba(isrc.gp1.models.Advanced
Advanced
p1677
(dp1678
g1224
S'1.1'
p1679
sg1226
S'8.2'
p1680
sg1228
S'.168'
p1681
sg1230
S'1.5'
p1682
sg1232
S'17.2'
p1683
sg1234
S'4.6'
p1684
sg1236
S'-1.3'
p1685
sg22
S'SG'
p1686
sg1239
S'2.1'
p1687
sg1241
S'.597'
p1688
sg1243
S'7.8'
p1689
sg1245
S'.361'
p1690
sg1247
S'.499'
p1691
sg28
S'NBA'
p1692
sg1250
S'3.2'
p1693
sg1252
S'13.4'
p1694
sg1254
S'1.8'
p1695
sg40
S'37'
p1696
sg42
S'IND'
p1697
sg44
S'70'
p1698
sg1259
S'0.1'
p1699
sg1261
S'15.9'
p1700
sg1263
S'5.6'
p1701
sg64
S'2117'
p1702
sg1266
S'1.9'
p1703
sg56
S'2002-03'
p1704
sg1269
S'7.4'
p1705
sba(isrc.gp1.models.Advanced
Advanced
p1706
(dp1707
g1224
S'0.9'
p1708
sg1226
S'9.3'
p1709
sg1228
S'.189'
p1710
sg1230
S'1.6'
p1711
sg1232
S'15.4'
p1712
sg1234
S'4.9'
p1713
sg1236
S'-0.4'
p1714
sg22
S'SG'
p1715
sg1239
S'2.8'
p1716
sg1241
S'.600'
p1717
sg1243
S'9.0'
p1718
sg1245
S'.278'
p1719
sg1247
S'.562'
p1720
sg28
S'NBA'
p1721
sg1250
S'3.3'
p1722
sg1252
S'19.1'
p1723
sg1254
S'2.9'
p1724
sg40
S'38'
p1725
sg42
S'IND'
p1726
sg44
S'80'
p1727
sg1259
S'0.4'
p1728
sg1261
S'16.1'
p1729
sg1263
S'6.0'
p1730
sg64
S'2254'
p1731
sg1266
S'2.9'
p1732
sg56
S'2003-04'
p1733
sg1269
S'8.9'
p1734
sba(isrc.gp1.models.Advanced
Advanced
p1735
(dp1736
g1224
S'1.0'
p1737
sg1226
S'8.4'
p1738
sg1228
S'.151'
p1739
sg1230
S'1.3'
p1740
sg1232
S'20.8'
p1741
sg1234
S'4.4'
p1742
sg1236
S'-1.8'
p1743
sg22
S'SG'
p1744
sg1239
S'1.6'
p1745
sg1241
S'.582'
p1746
sg1243
S'7.7'
p1747
sg1245
S'.373'
p1748
sg1247
S'.414'
p1749
sg28
S'NBA'
p1750
sg1250
S'2.8'
p1751
sg1252
S'13.3'
p1752
sg1254
S'1.5'
p1753
sg40
S'39'
p1754
sg42
S'IND'
p1755
sg44
S'66'
p1756
sg1259
S'0.2'
p1757
sg1261
S'16.6'
p1758
sg1263
S'5.1'
p1759
sg64
S'2105'
p1760
sg1266
S'1.0'
p1761
sg56
S'2004-05'
p1762
sg1269
S'6.6'
p1763
sbasS'_per36Minutes'
p1764
(lp1765
(isrc.gp1.models.Per36Minutes
Per36Minutes
p1766
(dp1767
g8
S'1.9'
p1768
sg10
S'3.4'
p1769
sg12
S'.488'
p1770
sg14
S'2.6'
p1771
sg16
S'.355'
p1772
sg18
S'1.2'
p1773
sg20
S'16.1'
p1774
sg22
S'SG'
p1775
sg24
S'.801'
p1776
sg28
S'NBA'
p1777
sg30
S'1.0'
p1778
sg32
S'12.3'
p1779
sg34
S'3.1'
p1780
sg36
S'3.6'
p1781
sg38
S'3.7'
p1782
sg40
S'22'
p1783
sg42
S'IND'
p1784
sg44
S'82'
p1785
sg46
S'0.4'
p1786
sg48
S'4.8'
p1787
sg50
S'2.9'
p1788
sg52
S'8.9'
p1789
sg54
S'1.9'
p1790
sg56
S'1987-88'
p1791
sg58
S'6.0'
p1792
sg60
S'2.0'
p1793
sg62
S'.538'
p1794
sg64
S'1840'
p1795
sg66
g67
sba(isrc.gp1.models.Per36Minutes
Per36Minutes
p1796
(dp1797
g8
S'1.0'
p1798
sg10
S'3.5'
p1799
sg12
S'.479'
p1800
sg14
S'3.2'
p1801
sg16
S'.402'
p1802
sg18
S'1.4'
p1803
sg20
S'16.8'
p1804
sg22
S'SG'
p1805
sg24
S'.844'
p1806
sg28
S'NBA'
p1807
sg30
S'1.3'
p1808
sg32
S'11.8'
p1809
sg34
S'2.4'
p1810
sg36
S'4.8'
p1811
sg38
S'4.1'
p1812
sg40
S'23'
p1813
sg42
S'IND'
p1814
sg44
S'74'
p1815
sg46
S'0.4'
p1816
sg48
S'4.3'
p1817
sg50
S'4.1'
p1818
sg52
S'8.3'
p1819
sg54
S'3.1'
p1820
sg56
S'1988-89'
p1821
sg58
S'5.6'
p1822
sg60
S'2.0'
p1823
sg62
S'.511'
p1824
sg64
S'2536'
p1825
sg66
S'70'
p1826
sba(isrc.gp1.models.Per36Minutes
Per36Minutes
p1827
(dp1828
g8
S'1.1'
p1829
sg10
S'4.1'
p1830
sg12
S'.514'
p1831
sg14
S'3.5'
p1832
sg16
S'.414'
p1833
sg18
S'1.7'
p1834
sg20
S'22.7'
p1835
sg22
S'SG'
p1836
sg24
S'.868'
p1837
sg28
S'NBA'
p1838
sg30
S'1.2'
p1839
sg32
S'14.5'
p1840
sg34
S'2.0'
p1841
sg36
S'7.1'
p1842
sg38
S'3.3'
p1843
sg40
S'24'
p1844
sg42
S'IND'
p1845
sg44
S'82'
p1846
sg46
S'0.2'
p1847
sg48
S'5.8'
p1848
sg50
S'6.1'
p1849
sg52
S'10.4'
p1850
sg54
S'2.3'
p1851
sg56
S'1989-90'
p1852
sg58
S'7.5'
p1853
sg60
S'2.5'
p1854
sg62
S'.552'
p1855
sg64
S'3192'
p1856
sg66
S'82'
p1857
sba(isrc.gp1.models.Per36Minutes
Per36Minutes
p1858
(dp1859
g8
S'1.0'
p1860
sg10
S'3.9'
p1861
sg12
S'.512'
p1862
sg14
S'4.0'
p1863
sg16
S'.348'
p1864
sg18
S'1.4'
p1865
sg20
S'22.5'
p1866
sg22
S'SG'
p1867
sg24
S'.918'
p1868
sg28
S'NBA'
p1869
sg30
S'1.3'
p1870
sg32
S'14.1'
p1871
sg34
S'2.0'
p1872
sg36
S'7.3'
p1873
sg38
S'3.4'
p1874
sg40
S'25'
p1875
sg42
S'IND'
p1876
sg44
S'82'
p1877
sg46
S'0.2'
p1878
sg48
S'5.9'
p1879
sg50
S'6.7'
p1880
sg52
S'10.2'
p1881
sg54
S'2.4'
p1882
sg56
S'1990-91'
p1883
sg58
S'7.2'
p1884
sg60
S'2.0'
p1885
sg62
S'.575'
p1886
sg64
S'2972'
p1887
sg66
S'82'
p1888
sba(isrc.gp1.models.Per36Minutes
Per36Minutes
p1889
(dp1890
g8
S'0.9'
p1891
sg10
S'3.9'
p1892
sg12
S'.501'
p1893
sg14
S'3.6'
p1894
sg16
S'.378'
p1895
sg18
S'1.5'
p1896
sg20
S'19.6'
p1897
sg22
S'SG'
p1898
sg24
S'.858'
p1899
sg28
S'NBA'
p1900
sg30
S'1.2'
p1901
sg32
S'12.9'
p1902
sg34
S'2.4'
p1903
sg36
S'5.9'
p1904
sg38
S'3.7'
p1905
sg40
S'26'
p1906
sg42
S'IND'
p1907
sg44
S'82'
p1908
sg46
S'0.3'
p1909
sg48
S'5.0'
p1910
sg50
S'5.1'
p1911
sg52
S'9.0'
p1912
sg54
S'2.7'
p1913
sg56
S'1991-92'
p1914
sg58
S'6.5'
p1915
sg60
S'1.8'
p1916
sg62
S'.555'
p1917
sg64
S'3120'
p1918
sg66
S'82'
p1919
sba(isrc.gp1.models.Per36Minutes
Per36Minutes
p1920
(dp1921
g8
S'0.8'
p1922
sg10
S'5.1'
p1923
sg12
S'.479'
p1924
sg14
S'3.2'
p1925
sg16
S'.399'
p1926
sg18
S'2.0'
p1927
sg20
S'21.2'
p1928
sg22
S'SG'
p1929
sg24
S'.880'
p1930
sg28
S'NBA'
p1931
sg30
S'1.5'
p1932
sg32
S'14.5'
p1933
sg34
S'2.2'
p1934
sg36
S'5.9'
p1935
sg38
S'3.1'
p1936
sg40
S'27'
p1937
sg42
S'IND'
p1938
sg44
S'82'
p1939
sg46
S'0.3'
p1940
sg48
S'4.9'
p1941
sg50
S'5.2'
p1942
sg52
S'9.4'
p1943
sg54
S'2.3'
p1944
sg56
S'1992-93'
p1945
sg58
S'7.0'
p1946
sg60
S'1.8'
p1947
sg62
S'.522'
p1948
sg64
S'2954'
p1949
sg66
S'82'
p1950
sba(isrc.gp1.models.Per36Minutes
Per36Minutes
p1951
(dp1952
g8
S'0.4'
p1953
sg10
S'4.0'
p1954
sg12
S'.503'
p1955
sg14
S'3.4'
p1956
sg16
S'.421'
p1957
sg18
S'1.7'
p1958
sg20
S'21.5'
p1959
sg22
S'SG'
p1960
sg24
S'.908'
p1961
sg28
S'NBA'
p1962
sg30
S'1.6'
p1963
sg32
S'14.2'
p1964
sg34
S'2.6'
p1965
sg36
S'6.1'
p1966
sg38
S'2.9'
p1967
sg40
S'28'
p1968
sg42
S'IND'
p1969
sg44
S'79'
p1970
sg46
S'0.3'
p1971
sg48
S'5.5'
p1972
sg50
S'5.5'
p1973
sg52
S'10.2'
p1974
sg54
S'2.5'
p1975
sg56
S'1993-94'
p1976
sg58
S'7.2'
p1977
sg60
S'2.4'
p1978
sg62
S'.535'
p1979
sg64
S'2638'
p1980
sg66
S'79'
p1981
sba(isrc.gp1.models.Per36Minutes
Per36Minutes
p1982
(dp1983
g8
S'0.4'
p1984
sg10
S'6.3'
p1985
sg12
S'.462'
p1986
sg14
S'3.3'
p1987
sg16
S'.415'
p1988
sg18
S'2.6'
p1989
sg20
S'21.5'
p1990
sg22
S'SG'
p1991
sg24
S'.897'
p1992
sg28
S'NBA'
p1993
sg30
S'1.3'
p1994
sg32
S'14.8'
p1995
sg34
S'2.1'
p1996
sg36
S'5.8'
p1997
sg38
S'2.8'
p1998
sg40
S'29'
p1999
sg42
S'IND'
p2000
sg44
S'81'
p2001
sg46
S'0.2'
p2002
sg48
S'4.2'
p2003
sg50
S'5.2'
p2004
sg52
S'8.4'
p2005
sg54
S'2.4'
p2006
sg56
S'1994-95'
p2007
sg58
S'6.8'
p2008
sg60
S'2.0'
p2009
sg62
S'.498'
p2010
sg64
S'2665'
p2011
sg66
S'81'
p2012
sba(isrc.gp1.models.Per36Minutes
Per36Minutes
p2013
(dp2014
g8
S'0.5'
p2015
sg10
S'5.6'
p2016
sg12
S'.473'
p2017
sg14
S'3.5'
p2018
sg16
S'.410'
p2019
sg18
S'2.3'
p2020
sg20
S'22.1'
p2021
sg22
S'SG'
p2022
sg24
S'.863'
p2023
sg28
S'NBA'
p2024
sg30
S'1.1'
p2025
sg32
S'14.6'
p2026
sg34
S'2.4'
p2027
sg36
S'6.8'
p2028
sg38
S'2.9'
p2029
sg40
S'30'
p2030
sg42
S'IND'
p2031
sg44
S'76'
p2032
sg46
S'0.2'
p2033
sg48
S'4.6'
p2034
sg50
S'5.9'
p2035
sg52
S'9.0'
p2036
sg54
S'2.4'
p2037
sg56
S'1995-96'
p2038
sg58
S'6.9'
p2039
sg60
S'2.6'
p2040
sg62
S'.512'
p2041
sg64
S'2621'
p2042
sg66
S'76'
p2043
sba(isrc.gp1.models.Per36Minutes
Per36Minutes
p2044
(dp2045
g8
S'0.6'
p2046
sg10
S'6.5'
p2047
sg12
S'.444'
p2048
sg14
S'3.3'
p2049
sg16
S'.427'
p2050
sg18
S'2.8'
p2051
sg20
S'21.3'
p2052
sg22
S'SG'
p2053
sg24
S'.880'
p2054
sg28
S'NBA'
p2055
sg30
S'0.9'
p2056
sg32
S'15.1'
p2057
sg34
S'2.1'
p2058
sg36
S'5.8'
p2059
sg38
S'3.5'
p2060
sg40
S'31'
p2061
sg42
S'IND'
p2062
sg44
S'81'
p2063
sg46
S'0.3'
p2064
sg48
S'3.9'
p2065
sg50
S'5.1'
p2066
sg52
S'8.6'
p2067
sg54
S'2.8'
p2068
sg56
S'1996-97'
p2069
sg58
S'6.7'
p2070
sg60
S'2.0'
p2071
sg62
S'.456'
p2072
sg64
S'2966'
p2073
sg66
S'81'
p2074
sba(isrc.gp1.models.Per36Minutes
Per36Minutes
p2075
(dp2076
g8
S'0.6'
p2077
sg10
S'4.9'
p2078
sg12
S'.477'
p2079
sg14
S'2.2'
p2080
sg16
S'.429'
p2081
sg18
S'2.1'
p2082
sg20
S'20.3'
p2083
sg22
S'SG'
p2084
sg24
S'.868'
p2085
sg28
S'NBA'
p2086
sg30
S'1.0'
p2087
sg32
S'13.9'
p2088
sg34
S'1.9'
p2089
sg36
S'5.7'
p2090
sg38
S'3.0'
p2091
sg40
S'32'
p2092
sg42
S'IND'
p2093
sg44
S'81'
p2094
sg46
S'0.1'
p2095
sg48
S'4.5'
p2096
sg50
S'4.9'
p2097
sg52
S'9.0'
p2098
sg54
S'2.4'
p2099
sg56
S'1997-98'
p2100
sg58
S'6.6'
p2101
sg60
S'1.6'
p2102
sg62
S'.504'
p2103
sg64
S'2795'
p2104
sg66
S'81'
p2105
sba(isrc.gp1.models.Per36Minutes
Per36Minutes
p2106
(dp2107
g8
S'0.5'
p2108
sg10
S'5.5'
p2109
sg12
S'.438'
p2110
sg14
S'2.3'
p2111
sg16
S'.385'
p2112
sg18
S'2.1'
p2113
sg20
S'18.5'
p2114
sg22
S'SG'
p2115
sg24
S'.915'
p2116
sg28
S'NBA'
p2117
sg30
S'0.7'
p2118
sg32
S'13.5'
p2119
sg34
S'2.0'
p2120
sg36
S'5.0'
p2121
sg38
S'2.7'
p2122
sg40
S'33'
p2123
sg42
S'IND'
p2124
sg44
S'50'
p2125
sg46
S'0.2'
p2126
sg48
S'3.8'
p2127
sg50
S'4.6'
p2128
sg52
S'8.0'
p2129
sg54
S'2.2'
p2130
sg56
S'1998-99'
p2131
sg58
S'5.9'
p2132
sg60
S'1.5'
p2133
sg62
S'.475'
p2134
sg64
S'1787'
p2135
sg66
S'50'
p2136
sba(isrc.gp1.models.Per36Minutes
Per36Minutes
p2137
(dp2138
g8
S'0.6'
p2139
sg10
S'4.9'
p2140
sg12
S'.448'
p2141
sg14
S'2.3'
p2142
sg16
S'.408'
p2143
sg18
S'2.0'
p2144
sg20
S'17.7'
p2145
sg22
S'SG'
p2146
sg24
S'.919'
p2147
sg28
S'NBA'
p2148
sg30
S'1.0'
p2149
sg32
S'12.5'
p2150
sg34
S'1.5'
p2151
sg36
S'4.9'
p2152
sg38
S'2.9'
p2153
sg40
S'34'
p2154
sg42
S'IND'
p2155
sg44
S'81'
p2156
sg46
S'0.3'
p2157
sg48
S'3.6'
p2158
sg50
S'4.5'
p2159
sg52
S'7.7'
p2160
sg54
S'2.3'
p2161
sg56
S'1999-00'
p2162
sg58
S'5.6'
p2163
sg60
S'1.6'
p2164
sg62
S'.473'
p2165
sg64
S'2987'
p2166
sg66
S'81'
p2167
sba(isrc.gp1.models.Per36Minutes
Per36Minutes
p2168
(dp2169
g8
S'0.4'
p2170
sg10
S'5.3'
p2171
sg12
S'.440'
p2172
sg14
S'2.9'
p2173
sg16
S'.366'
p2174
sg18
S'1.9'
p2175
sg20
S'17.3'
p2176
sg22
S'SG'
p2177
sg24
S'.928'
p2178
sg28
S'NBA'
p2179
sg30
S'0.9'
p2180
sg32
S'13.3'
p2181
sg34
S'1.8'
p2182
sg36
S'3.9'
p2183
sg38
S'3.2'
p2184
sg40
S'35'
p2185
sg42
S'IND'
p2186
sg44
S'81'
p2187
sg46
S'0.2'
p2188
sg48
S'3.9'
p2189
sg50
S'3.7'
p2190
sg52
S'8.1'
p2191
sg54
S'2.8'
p2192
sg56
S'2000-01'
p2193
sg58
S'5.9'
p2194
sg60
S'1.5'
p2195
sg62
S'.487'
p2196
sg64
S'3181'
p2197
sg66
S'81'
p2198
sba(isrc.gp1.models.Per36Minutes
Per36Minutes
p2199
(dp2200
g8
S'0.3'
p2201
sg10
S'5.5'
p2202
sg12
S'.453'
p2203
sg14
S'3.2'
p2204
sg16
S'.406'
p2205
sg18
S'2.2'
p2206
sg20
S'16.2'
p2207
sg22
S'SG'
p2208
sg24
S'.911'
p2209
sg28
S'NBA'
p2210
sg30
S'1.1'
p2211
sg32
S'11.4'
p2212
sg34
S'1.8'
p2213
sg36
S'4.0'
p2214
sg38
S'2.7'
p2215
sg40
S'36'
p2216
sg42
S'IND'
p2217
sg44
S'79'
p2218
sg46
S'0.1'
p2219
sg48
S'2.9'
p2220
sg50
S'3.7'
p2221
sg52
S'5.9'
p2222
sg54
S'2.4'
p2223
sg56
S'2001-02'
p2224
sg58
S'5.2'
p2225
sg60
S'1.5'
p2226
sg62
S'.498'
p2227
sg64
S'2889'
p2228
sg66
S'79'
p2229
sba(isrc.gp1.models.Per36Minutes
Per36Minutes
p2230
(dp2231
g8
S'0.4'
p2232
sg10
S'5.4'
p2233
sg12
S'.441'
p2234
sg14
S'2.9'
p2235
sg16
S'.355'
p2236
sg18
S'1.9'
p2237
sg20
S'15.0'
p2238
sg22
S'SG'
p2239
sg24
S'.900'
p2240
sg28
S'NBA'
p2241
sg30
S'1.1'
p2242
sg32
S'10.8'
p2243
sg34
S'1.5'
p2244
sg36
S'3.9'
p2245
sg38
S'2.9'
p2246
sg40
S'37'
p2247
sg42
S'IND'
p2248
sg44
S'70'
p2249
sg46
S'0.1'
p2250
sg48
S'2.9'
p2251
sg50
S'3.5'
p2252
sg52
S'5.4'
p2253
sg54
S'2.6'
p2254
sg56
S'2002-03'
p2255
sg58
S'4.8'
p2256
sg60
S'1.1'
p2257
sg62
S'.527'
p2258
sg64
S'2117'
p2259
sg66
S'70'
p2260
sba(isrc.gp1.models.Per36Minutes
Per36Minutes
p2261
(dp2262
g8
S'0.3'
p2263
sg10
S'5.3'
p2264
sg12
S'.438'
p2265
sg14
S'4.0'
p2266
sg16
S'.401'
p2267
sg18
S'2.1'
p2268
sg20
S'12.8'
p2269
sg22
S'SG'
p2270
sg24
S'.885'
p2271
sg28
S'NBA'
p2272
sg30
S'1.0'
p2273
sg32
S'9.5'
p2274
sg34
S'1.5'
p2275
sg36
S'2.6'
p2276
sg38
S'3.0'
p2277
sg40
S'38'
p2278
sg42
S'IND'
p2279
sg44
S'80'
p2280
sg46
S'0.2'
p2281
sg48
S'2.0'
p2282
sg50
S'2.3'
p2283
sg52
S'4.2'
p2284
sg54
S'2.7'
p2285
sg56
S'2003-04'
p2286
sg58
S'4.2'
p2287
sg60
S'1.1'
p2288
sg62
S'.485'
p2289
sg64
S'2254'
p2290
sg66
S'80'
p2291
sba(isrc.gp1.models.Per36Minutes
Per36Minutes
p2292
(dp2293
g8
S'0.3'
p2294
sg10
S'5.1'
p2295
sg12
S'.437'
p2296
sg14
S'2.5'
p2297
sg16
S'.322'
p2298
sg18
S'1.6'
p2299
sg20
S'16.7'
p2300
sg22
S'SG'
p2301
sg24
S'.933'
p2302
sg28
S'NBA'
p2303
sg30
S'0.9'
p2304
sg32
S'12.3'
p2305
sg34
S'1.9'
p2306
sg36
S'4.6'
p2307
sg38
S'2.7'
p2308
sg40
S'39'
p2309
sg42
S'IND'
p2310
sg44
S'66'
p2311
sg46
S'0.1'
p2312
sg48
S'3.7'
p2313
sg50
S'4.3'
p2314
sg52
S'7.2'
p2315
sg54
S'2.4'
p2316
sg56
S'2004-05'
p2317
sg58
S'5.4'
p2318
sg60
S'1.3'
p2319
sg62
S'.518'
p2320
sg64
S'2105'
p2321
sg66
S'66'
p2322
sbasS'_fromYear'
p2323
S'1988'
p2324
sS'_url'
p2325
S'http://www.basketball-reference.com/players/m/millere01.html'
p2326
sS'_perGame'
p2327
(isrc.gp1.models.PerGame
PerGame
p2328
(dp2329
g8
S'0.3'
p2330
sg10
S'4.5'
p2331
sg12
S'.437'
p2332
sS'_effectiveFieldGalPercentage'
p2333
S'.503'
p2334
sg14
S'2.2'
p2335
sg16
S'.322'
p2336
sg18
S'1.5'
p2337
sg20
S'14.8'
p2338
sg22
S'SG'
p2339
sg24
S'.933'
p2340
sg28
S'NBA'
p2341
sg30
S'0.8'
p2342
sg34
S'1.7'
p2343
sS'_fieldGoalsttempted'
p2344
S'10.9'
p2345
sg36
S'4.1'
p2346
sg38
S'2.4'
p2347
sg40
S'39'
p2348
sg42
S'IND'
p2349
sg44
S'66'
p2350
sg46
S'0.1'
p2351
sg48
S'3.3'
p2352
sg50
S'3.8'
p2353
sg52
S'6.4'
p2354
sg54
S'2.1'
p2355
sg56
S'2004-05'
p2356
sg58
S'4.8'
p2357
sg60
S'1.2'
p2358
sg62
S'.518'
p2359
sg64
S'31.9'
p2360
sg66
S'66'
p2361
sbsS'_weight'
p2362
S'185'
p2363
sS'_dob'
p2364
S'24-8-1965'
p2365
sS'_salary'
p2366
(lp2367
(isrc.gp1.models.Salary
Salary
p2368
(dp2369
g42
S'Indiana Pacers'
p2370
sg28
S'NBA'
p2371
sg2366
S'$254,000'
p2372
sg56
S'1987-88'
p2373
sba(isrc.gp1.models.Salary
Salary
p2374
(dp2375
g42
S'Indiana Pacers'
p2376
sg28
S'NBA'
p2377
sg2366
S'$404,000'
p2378
sg56
S'1988-89'
p2379
sba(isrc.gp1.models.Salary
Salary
p2380
(dp2381
g42
S'Indiana Pacers'
p2382
sg28
S'NBA'
p2383
sg2366
S'$654,000'
p2384
sg56
S'1990-91'
p2385
sba(isrc.gp1.models.Salary
Salary
p2386
(dp2387
g42
S'Indiana Pacers'
p2388
sg28
S'NBA'
p2389
sg2366
S'$3,211,000'
p2390
sg56
S'1991-92'
p2391
sba(isrc.gp1.models.Salary
Salary
p2392
(dp2393
g42
S'Indiana Pacers'
p2394
sg28
S'NBA'
p2395
sg2366
S'$3,211,000'
p2396
sg56
S'1992-93'
p2397
sba(isrc.gp1.models.Salary
Salary
p2398
(dp2399
g42
S'Indiana Pacers'
p2400
sg28
S'NBA'
p2401
sg2366
S'$3,011,000'
p2402
sg56
S'1993-94'
p2403
sba(isrc.gp1.models.Salary
Salary
p2404
(dp2405
g42
S'Indiana Pacers'
p2406
sg28
S'NBA'
p2407
sg2366
S'$3,210,500'
p2408
sg56
S'1994-95'
p2409
sba(isrc.gp1.models.Salary
Salary
p2410
(dp2411
g42
S'Indiana Pacers'
p2412
sg28
S'NBA'
p2413
sg2366
S'$11,250,000'
p2414
sg56
S'1996-97'
p2415
sba(isrc.gp1.models.Salary
Salary
p2416
(dp2417
g42
S'Indiana Pacers'
p2418
sg28
S'NBA'
p2419
sg2366
S'$9,031,850'
p2420
sg56
S'1997-98'
p2421
sba(isrc.gp1.models.Salary
Salary
p2422
(dp2423
g42
S'Indiana Pacers'
p2424
sg28
S'NBA'
p2425
sg2366
S'$6,781,000'
p2426
sg56
S'1998-99'
p2427
sba(isrc.gp1.models.Salary
Salary
p2428
(dp2429
g42
S'Indiana Pacers'
p2430
sg28
S'NBA'
p2431
sg2366
S'$9,031,850'
p2432
sg56
S'1999-00'
p2433
sba(isrc.gp1.models.Salary
Salary
p2434
(dp2435
g42
S'Indiana Pacers'
p2436
sg28
S'NBA'
p2437
sg2366
S'$10,670,000'
p2438
sg56
S'2000-01'
p2439
sba(isrc.gp1.models.Salary
Salary
p2440
(dp2441
g42
S'Indiana Pacers'
p2442
sg28
S'NBA'
p2443
sg2366
S'$12,045,075'
p2444
sg56
S'2001-02'
p2445
sba(isrc.gp1.models.Salary
Salary
p2446
(dp2447
g42
S'Indiana Pacers'
p2448
sg28
S'NBA'
p2449
sg2366
S'$12,046,473'
p2450
sg56
S'2002-03'
p2451
sba(isrc.gp1.models.Salary
Salary
p2452
(dp2453
g42
S'Indiana Pacers'
p2454
sg28
S'NBA'
p2455
sg2366
S'$5,000,000'
p2456
sg56
S'2003-04'
p2457
sba(isrc.gp1.models.Salary
Salary
p2458
(dp2459
g42
S'Indiana Pacers'
p2460
sg28
S'NBA'
p2461
sg2366
S'$5,500,000'
p2462
sg56
S'2004-05'
p2463
sba(isrc.gp1.models.Salary
Salary
p2464
(dp2465
g42
S'Indiana Pacers'
p2466
sg28
S'NBA'
p2467
sg2366
S'$6,000,000'
p2468
sg56
S'2005-06'
p2469
sbasg22
S'G-F'
p2470
sb.