(isrc.gp1.models.Player
Player
p0
(dp1
S'_experience'
p2
S'NA'
p3
sS'_totals'
p4
(lp5
(isrc.gp1.models.Totals
Totals
p6
(dp7
S'_offensiveRebounds'
p8
g3
sS'_threePointsAttempted'
p9
g3
sS'_fieldGoalsPercentage'
p10
S'.350'
p11
sS'_assist'
p12
S'115'
p13
sS'_threePointsPercentage'
p14
g3
sS'_threePoints'
p15
g3
sS'_points'
p16
S'733'
p17
sS'_position'
p18
S'C'
p19
sS'_freeThrowsPercentage'
p20
S'.652'
p21
sS'_effectiveFieldGoalPercentage'
p22
S'.350'
p23
sS'_league'
p24
S'NBA'
p25
sS'_steals'
p26
g3
sS'_fieldGoalsAttempted'
p27
S'781'
p28
sS'_personalFouls'
p29
S'250'
p30
sS'_freeThrowsAttempted'
p31
S'287'
p32
sS'_totalRebounds'
p33
S'669'
p34
sS'_age'
p35
S'21'
p36
sS'_team'
p37
S'TOT'
p38
sS'_games'
p39
S'70'
p40
sS'_blocks'
p41
g3
sS'_twoPoints'
p42
S'273'
p43
sS'_freeThrows'
p44
S'187'
p45
sS'_twoPointsAttempted'
p46
S'781'
p47
sS'_defensiveRebounds'
p48
g3
sS'_season'
p49
S'1952-53'
p50
sS'_fieldGoals'
p51
S'273'
p52
sS'_turnOvers'
p53
g3
sS'_twoPointsPercentage'
p54
S'.350'
p55
sS'_minutesPlayed'
p56
S'2018'
p57
sS'_gamesStarted'
p58
g3
sba(isrc.gp1.models.Totals
Totals
p59
(dp60
g8
g3
sg9
g3
sg10
S'.268'
p61
sg12
S'6'
p62
sg14
g3
sg15
g3
sg16
S'39'
p63
sg18
g19
sg20
S'.529'
p64
sg22
S'.268'
p65
sg24
S'NBA'
p66
sg26
g3
sg27
S'56'
p67
sg29
S'26'
p68
sg31
S'17'
p69
sg33
S'60'
p70
sg35
S'21'
p71
sg37
S'MLH'
p72
sg39
S'10'
p73
sg41
g3
sg42
S'15'
p74
sg44
S'9'
p75
sg46
S'56'
p76
sg48
g3
sg49
S'1952-53'
p77
sg51
S'15'
p78
sg53
g3
sg54
S'.268'
p79
sg56
S'160'
p80
sg58
g3
sba(isrc.gp1.models.Totals
Totals
p81
(dp82
g8
g3
sg9
g3
sg10
S'.356'
p83
sg12
S'109'
p84
sg14
g3
sg15
g3
sg16
S'694'
p85
sg18
g19
sg20
S'.659'
p86
sg22
S'.356'
p87
sg24
S'NBA'
p88
sg26
g3
sg27
S'725'
p89
sg29
S'224'
p90
sg31
S'270'
p91
sg33
S'609'
p92
sg35
S'21'
p93
sg37
S'BLB'
p94
sg39
S'60'
p95
sg41
g3
sg42
S'258'
p96
sg44
S'178'
p97
sg46
S'725'
p98
sg48
g3
sg49
S'1952-53'
p99
sg51
S'258'
p100
sg53
g3
sg54
S'.356'
p101
sg56
S'1858'
p102
sg58
g3
sba(isrc.gp1.models.Totals
Totals
p103
(dp104
g8
g3
sg9
g3
sg10
S'.407'
p105
sg12
S'95'
p106
sg14
g3
sg15
g3
sg16
S'719'
p107
sg18
g19
sg20
S'.729'
p108
sg22
S'.407'
p109
sg24
S'NBA'
p110
sg26
g3
sg27
S'600'
p111
sg29
S'194'
p112
sg31
S'317'
p113
sg33
S'537'
p114
sg35
S'22'
p115
sg37
S'BLB'
p116
sg39
S'72'
p117
sg41
g3
sg42
S'244'
p118
sg44
S'231'
p119
sg46
S'600'
p120
sg48
g3
sg49
S'1953-54'
p121
sg51
S'244'
p122
sg53
g3
sg54
S'.407'
p123
sg56
S'1657'
p124
sg58
g3
sbasS'_college'
p125
S'Syracuse University'
p126
sS'_toYear'
p127
S'1954'
p128
sS'_height'
p129
S'6-8'
p130
sS'_active'
p131
I00
sS'_shootingHand'
p132
VRight
p133
sS'_name'
p134
S'Eddie Miller'
p135
sS'_per100Possessions'
p136
(lp137
sS'_advanced'
p138
(lp139
(isrc.gp1.models.Advanced
Advanced
p140
(dp141
S'_offensiveReboundPercentage'
p142
g3
sS'_turnOverPercentage'
p143
g3
sS'_winSharesPer48Minutes'
p144
S'.005'
p145
sS'_stealPercentage'
p146
g3
sS'_usagePercentage'
p147
g3
sS'_totalReboundsPercentage'
p148
g3
sS'_defensiveBoxPlusMinus'
p149
g3
sg18
g19
sS'_valueOverReplacementPlayer'
p150
g3
sS'_trueShootingPercentage'
p151
S'.404'
p152
sS'_defensiveReboundPercentage'
p153
g3
sS'_freeThrowsAttempRate'
p154
S'.367'
p155
sS'_threePointsAttempRate'
p156
g3
sg24
S'NBA'
p157
sS'_offensiveBoxPlusMinues'
p158
g3
sS'_assistPercentage'
p159
g3
sS'_defensiveWinShares'
p160
S'0.9'
p161
sg35
S'21'
p162
sg37
S'TOT'
p163
sg39
S'70'
p164
sS'_blockPercentage'
p165
g3
sS'_playerEfficiencyRating'
p166
S'15.4'
p167
sS'_offensiveWinShares'
p168
S'-0.7'
p169
sg56
S'2018'
p170
sS'_boxPlusMinus'
p171
g3
sg49
S'1952-53'
p172
sS'_winShares'
p173
S'0.2'
p174
sba(isrc.gp1.models.Advanced
Advanced
p175
(dp176
g142
g3
sg143
g3
sg144
S'-0.061'
p177
sg146
g3
sg147
g3
sg148
g3
sg149
g3
sg18
g19
sg150
g3
sg151
S'.307'
p178
sg153
g3
sg154
S'.304'
p179
sg156
g3
sg24
S'NBA'
p180
sg158
g3
sg159
g3
sg160
S'0.3'
p181
sg35
S'21'
p182
sg37
S'MLH'
p183
sg39
S'10'
p184
sg165
g3
sg166
S'9.4'
p185
sg168
S'-0.5'
p186
sg56
S'160'
p187
sg171
g3
sg49
S'1952-53'
p188
sg173
S'-0.2'
p189
sba(isrc.gp1.models.Advanced
Advanced
p190
(dp191
g142
g3
sg143
g3
sg144
S'.011'
p192
sg146
g3
sg147
g3
sg148
g3
sg149
g3
sg18
g19
sg150
g3
sg151
S'.411'
p193
sg153
g3
sg154
S'.372'
p194
sg156
g3
sg24
S'NBA'
p195
sg158
g3
sg159
g3
sg160
S'0.6'
p196
sg35
S'21'
p197
sg37
S'BLB'
p198
sg39
S'60'
p199
sg165
g3
sg166
S'15.9'
p200
sg168
S'-0.2'
p201
sg56
S'1858'
p202
sg171
g3
sg49
S'1952-53'
p203
sg173
S'0.4'
p204
sba(isrc.gp1.models.Advanced
Advanced
p205
(dp206
g142
g3
sg143
g3
sg144
S'.141'
p207
sg146
g3
sg147
g3
sg148
g3
sg149
g3
sg18
g19
sg150
g3
sg151
S'.486'
p208
sg153
g3
sg154
S'.528'
p209
sg156
g3
sg24
S'NBA'
p210
sg158
g3
sg159
g3
sg160
S'0.6'
p211
sg35
S'22'
p212
sg37
S'BLB'
p213
sg39
S'72'
p214
sg165
g3
sg166
S'21.3'
p215
sg168
S'4.2'
p216
sg56
S'1657'
p217
sg171
g3
sg49
S'1953-54'
p218
sg173
S'4.9'
p219
sbasS'_per36Minutes'
p220
(lp221
(isrc.gp1.models.Per36Minutes
Per36Minutes
p222
(dp223
g8
g3
sg9
g3
sg10
S'.350'
p224
sg12
S'2.1'
p225
sg14
g3
sg15
g3
sg16
S'13.1'
p226
sg18
g19
sg20
S'.652'
p227
sg24
S'NBA'
p228
sg26
g3
sg27
S'13.9'
p229
sg29
S'4.5'
p230
sg31
S'5.1'
p231
sg33
S'11.9'
p232
sg35
S'21'
p233
sg37
S'TOT'
p234
sg39
S'70'
p235
sg41
g3
sg42
S'4.9'
p236
sg44
S'3.3'
p237
sg46
S'13.9'
p238
sg48
g3
sg49
S'1952-53'
p239
sg51
S'4.9'
p240
sg53
g3
sg54
S'.350'
p241
sg56
S'2018'
p242
sg58
g3
sba(isrc.gp1.models.Per36Minutes
Per36Minutes
p243
(dp244
g8
g3
sg9
g3
sg10
S'.268'
p245
sg12
S'1.4'
p246
sg14
g3
sg15
g3
sg16
S'8.8'
p247
sg18
g19
sg20
S'.529'
p248
sg24
S'NBA'
p249
sg26
g3
sg27
S'12.6'
p250
sg29
S'5.9'
p251
sg31
S'3.8'
p252
sg33
S'13.5'
p253
sg35
S'21'
p254
sg37
S'MLH'
p255
sg39
S'10'
p256
sg41
g3
sg42
S'3.4'
p257
sg44
S'2.0'
p258
sg46
S'12.6'
p259
sg48
g3
sg49
S'1952-53'
p260
sg51
S'3.4'
p261
sg53
g3
sg54
S'.268'
p262
sg56
S'160'
p263
sg58
g3
sba(isrc.gp1.models.Per36Minutes
Per36Minutes
p264
(dp265
g8
g3
sg9
g3
sg10
S'.356'
p266
sg12
S'2.1'
p267
sg14
g3
sg15
g3
sg16
S'13.4'
p268
sg18
g19
sg20
S'.659'
p269
sg24
S'NBA'
p270
sg26
g3
sg27
S'14.0'
p271
sg29
S'4.3'
p272
sg31
S'5.2'
p273
sg33
S'11.8'
p274
sg35
S'21'
p275
sg37
S'BLB'
p276
sg39
S'60'
p277
sg41
g3
sg42
S'5.0'
p278
sg44
S'3.4'
p279
sg46
S'14.0'
p280
sg48
g3
sg49
S'1952-53'
p281
sg51
S'5.0'
p282
sg53
g3
sg54
S'.356'
p283
sg56
S'1858'
p284
sg58
g3
sba(isrc.gp1.models.Per36Minutes
Per36Minutes
p285
(dp286
g8
g3
sg9
g3
sg10
S'.407'
p287
sg12
S'2.1'
p288
sg14
g3
sg15
g3
sg16
S'15.6'
p289
sg18
g19
sg20
S'.729'
p290
sg24
S'NBA'
p291
sg26
g3
sg27
S'13.0'
p292
sg29
S'4.2'
p293
sg31
S'6.9'
p294
sg33
S'11.7'
p295
sg35
S'22'
p296
sg37
S'BLB'
p297
sg39
S'72'
p298
sg41
g3
sg42
S'5.3'
p299
sg44
S'5.0'
p300
sg46
S'13.0'
p301
sg48
g3
sg49
S'1953-54'
p302
sg51
S'5.3'
p303
sg53
g3
sg54
S'.407'
p304
sg56
S'1657'
p305
sg58
g3
sbasS'_fromYear'
p306
S'1953'
p307
sS'_url'
p308
S'http://www.basketball-reference.com/players/m/milleed01.html'
p309
sS'_perGame'
p310
(isrc.gp1.models.PerGame
PerGame
p311
(dp312
g8
g3
sg9
g3
sg10
S'.407'
p313
sS'_effectiveFieldGalPercentage'
p314
S'.407'
p315
sg12
S'1.3'
p316
sg14
g3
sg15
g3
sg16
S'10.0'
p317
sg18
g19
sg20
S'.729'
p318
sg24
S'NBA'
p319
sg26
g3
sg29
S'2.7'
p320
sS'_fieldGoalsttempted'
p321
S'8.3'
p322
sg31
S'4.4'
p323
sg33
S'7.5'
p324
sg35
S'22'
p325
sg37
S'BLB'
p326
sg39
S'72'
p327
sg41
g3
sg42
S'3.4'
p328
sg44
S'3.2'
p329
sg46
S'8.3'
p330
sg48
g3
sg49
S'1953-54'
p331
sg51
S'3.4'
p332
sg53
g3
sg54
S'.407'
p333
sg56
S'23.0'
p334
sg58
g3
sbsS'_weight'
p335
S'225'
p336
sS'_dob'
p337
S'18-6-1931'
p338
sS'_salary'
p339
(lp340
sg18
S'C-F'
p341
sb.