(isrc.gp1.models.Player
Player
p0
(dp1
S'_experience'
p2
S'NA'
p3
sS'_totals'
p4
(lp5
(isrc.gp1.models.Totals
Totals
p6
(dp7
S'_offensiveRebounds'
p8
S'43'
p9
sS'_threePointsAttempted'
p10
S'37'
p11
sS'_fieldGoalsPercentage'
p12
S'.481'
p13
sS'_assist'
p14
S'269'
p15
sS'_threePointsPercentage'
p16
S'.270'
p17
sS'_threePoints'
p18
S'10'
p19
sS'_points'
p20
S'417'
p21
sS'_position'
p22
S'PG'
p23
sS'_freeThrowsPercentage'
p24
S'.785'
p25
sS'_effectiveFieldGoalPercentage'
p26
S'.496'
p27
sS'_league'
p28
S'NBA'
p29
sS'_steals'
p30
S'65'
p31
sS'_fieldGoalsAttempted'
p32
S'347'
p33
sS'_personalFouls'
p34
S'165'
p35
sS'_freeThrowsAttempted'
p36
S'93'
p37
sS'_totalRebounds'
p38
S'131'
p39
sS'_age'
p40
S'25'
p41
sS'_team'
p42
S'CLE'
p43
sS'_games'
p44
S'76'
p45
sS'_blocks'
p46
S'1'
p47
sS'_twoPoints'
p48
S'157'
p49
sS'_freeThrows'
p50
S'73'
p51
sS'_twoPointsAttempted'
p52
S'310'
p53
sS'_defensiveRebounds'
p54
S'88'
p55
sS'_season'
p56
S'1985-86'
p57
sS'_fieldGoals'
p58
S'167'
p59
sS'_turnOvers'
p60
S'108'
p61
sS'_twoPointsPercentage'
p62
S'.506'
p63
sS'_minutesPlayed'
p64
S'1131'
p65
sS'_gamesStarted'
p66
S'2'
p67
sba(isrc.gp1.models.Totals
Totals
p68
(dp69
g8
S'29'
p70
sg10
S'39'
p71
sg12
S'.452'
p72
sg14
S'348'
p73
sg16
S'.282'
p74
sg18
S'11'
p75
sg20
S'509'
p76
sg22
S'PG'
p77
sg24
S'.689'
p78
sg26
S'.464'
p79
sg28
S'NBA'
p80
sg30
S'72'
p81
sg32
S'482'
p82
sg34
S'174'
p83
sg36
S'90'
p84
sg38
S'140'
p85
sg40
S'26'
p86
sg42
S'TOT'
p87
sg44
S'74'
p88
sg46
S'7'
p89
sg48
S'207'
p90
sg50
S'62'
p91
sg52
S'443'
p92
sg54
S'111'
p93
sg56
S'1986-87'
p94
sg58
S'218'
p95
sg60
S'157'
p96
sg62
S'.467'
p97
sg64
S'1600'
p98
sg66
S'52'
p99
sba(isrc.gp1.models.Totals
Totals
p100
(dp101
g8
g47
sg10
S'5'
p102
sg12
S'.310'
p103
sg14
S'13'
p104
sg16
S'.000'
p105
sg18
S'0'
p106
sg20
S'27'
p107
sg22
S'PG'
p108
sg24
S'.250'
p109
sg26
S'.310'
p110
sg28
S'NBA'
p111
sg30
S'6'
p112
sg32
S'42'
p113
sg34
S'8'
p114
sg36
S'4'
p115
sg38
S'10'
p116
sg40
S'26'
p117
sg42
S'CLE'
p118
sg44
S'11'
p119
sg46
g47
sg48
S'13'
p120
sg50
g47
sg52
S'37'
p121
sg54
S'9'
p122
sg56
S'1986-87'
p123
sg58
S'13'
p124
sg60
S'12'
p125
sg62
S'.351'
p126
sg64
S'122'
p127
sg66
g106
sba(isrc.gp1.models.Totals
Totals
p128
(dp129
g8
S'28'
p130
sg10
S'34'
p131
sg12
S'.466'
p132
sg14
S'335'
p133
sg16
S'.324'
p134
sg18
S'11'
p135
sg20
S'482'
p136
sg22
S'PG'
p137
sg24
S'.709'
p138
sg26
S'.478'
p139
sg28
S'NBA'
p140
sg30
S'66'
p141
sg32
S'440'
p142
sg34
S'166'
p143
sg36
S'86'
p144
sg38
S'130'
p145
sg40
S'26'
p146
sg42
S'HOU'
p147
sg44
S'63'
p148
sg46
g112
sg48
S'194'
p149
sg50
S'61'
p150
sg52
S'406'
p151
sg54
S'102'
p152
sg56
S'1986-87'
p153
sg58
S'205'
p154
sg60
S'145'
p155
sg62
S'.478'
p156
sg64
S'1478'
p157
sg66
S'52'
p158
sba(isrc.gp1.models.Totals
Totals
p159
(dp160
g8
S'30'
p161
sg10
S'16'
p162
sg12
S'.489'
p163
sg14
S'228'
p164
sg16
S'.250'
p165
sg18
g115
sg20
S'261'
p166
sg22
S'PG'
p167
sg24
S'.745'
p168
sg26
S'.498'
p169
sg28
S'NBA'
p170
sg30
S'59'
p171
sg32
S'221'
p172
sg34
S'133'
p173
sg36
S'55'
p174
sg38
S'96'
p175
sg40
S'27'
p176
sg42
S'TOT'
p177
sg44
S'72'
p178
sg46
S'3'
p179
sg48
S'104'
p180
sg50
S'41'
p181
sg52
S'205'
p182
sg54
S'66'
p183
sg56
S'1987-88'
p184
sg58
S'108'
p185
sg60
S'93'
p186
sg62
S'.507'
p187
sg64
S'1070'
p188
sg66
g112
sba(isrc.gp1.models.Totals
Totals
p189
(dp190
g8
g114
sg10
g102
sg12
S'.521'
p191
sg14
S'38'
p192
sg16
S'.200'
p193
sg18
g47
sg20
S'65'
p194
sg22
S'PG'
p195
sg24
S'.609'
p196
sg26
S'.531'
p197
sg28
S'NBA'
p198
sg30
S'15'
p199
sg32
S'48'
p200
sg34
S'26'
p201
sg36
S'23'
p202
sg38
S'21'
p203
sg40
S'27'
p204
sg42
S'GSW'
p205
sg44
S'11'
p206
sg46
g106
sg48
S'24'
p207
sg50
S'14'
p208
sg52
S'43'
p209
sg54
S'13'
p210
sg56
S'1987-88'
p211
sg58
S'25'
p212
sg60
S'16'
p213
sg62
S'.558'
p214
sg64
S'202'
p215
sg66
g106
sba(isrc.gp1.models.Totals
Totals
p216
(dp217
g8
S'22'
p218
sg10
S'11'
p219
sg12
S'.480'
p220
sg14
S'190'
p221
sg16
S'.273'
p222
sg18
g179
sg20
S'196'
p223
sg22
S'PG'
p224
sg24
S'.844'
p225
sg26
S'.488'
p226
sg28
S'NBA'
p227
sg30
S'44'
p228
sg32
S'173'
p229
sg34
S'107'
p230
sg36
S'32'
p231
sg38
S'75'
p232
sg40
S'27'
p233
sg42
S'BOS'
p234
sg44
S'61'
p235
sg46
g179
sg48
S'80'
p236
sg50
S'27'
p237
sg52
S'162'
p238
sg54
S'53'
p239
sg56
S'1987-88'
p240
sg58
S'83'
p241
sg60
S'77'
p242
sg62
S'.494'
p243
sg64
S'868'
p244
sg66
g112
sbasS'_college'
p245
S'University of Kentucky'
p246
sS'_toYear'
p247
S'1988'
p248
sS'_height'
p249
S'6-3'
p250
sS'_active'
p251
I00
sS'_shootingHand'
p252
VRight
p253
sS'_name'
p254
S'Dirk Minniefield'
p255
sS'_per100Possessions'
p256
(lp257
(isrc.gp1.models.Per100Possession
Per100Possession
p258
(dp259
g8
S'1.8'
p260
sg10
S'1.5'
p261
sg12
S'.481'
p262
sS'_offensiveRating'
p263
S'105'
p264
sg14
S'11.2'
p265
sg16
S'.270'
p266
sg18
S'0.4'
p267
sg20
S'17.4'
p268
sg22
S'PG'
p269
sS'_defensiveRating'
p270
S'108'
p271
sg24
S'.785'
p272
sg28
S'NBA'
p273
sg30
S'2.7'
p274
sg32
S'14.5'
p275
sg34
S'6.9'
p276
sg36
S'3.9'
p277
sg38
S'5.5'
p278
sg40
S'25'
p279
sg42
S'CLE'
p280
sg44
S'76'
p281
sg46
S'0.0'
p282
sg48
S'6.6'
p283
sg50
S'3.0'
p284
sg52
S'12.9'
p285
sg54
S'3.7'
p286
sg56
S'1985-86'
p287
sg58
S'7.0'
p288
sg60
S'4.5'
p289
sg62
S'.506'
p290
sg64
S'1131'
p291
sg66
g67
sba(isrc.gp1.models.Per100Possession
Per100Possession
p292
(dp293
g8
S'0.9'
p294
sg10
S'1.2'
p295
sg12
S'.452'
p296
sg263
S'95'
p297
sg14
S'10.4'
p298
sg16
S'.282'
p299
sg18
S'0.3'
p300
sg20
S'15.3'
p301
sg22
S'PG'
p302
sg270
S'107'
p303
sg24
S'.689'
p304
sg28
S'NBA'
p305
sg30
S'2.2'
p306
sg32
S'14.5'
p307
sg34
S'5.2'
p308
sg36
S'2.7'
p309
sg38
S'4.2'
p310
sg40
S'26'
p311
sg42
S'TOT'
p312
sg44
S'74'
p313
sg46
S'0.2'
p314
sg48
S'6.2'
p315
sg50
S'1.9'
p316
sg52
S'13.3'
p317
sg54
S'3.3'
p318
sg56
S'1986-87'
p319
sg58
S'6.5'
p320
sg60
S'4.7'
p321
sg62
S'.467'
p322
sg64
S'1600'
p323
sg66
S'52'
p324
sba(isrc.gp1.models.Per100Possession
Per100Possession
p325
(dp326
g8
S'0.4'
p327
sg10
S'1.9'
p328
sg12
S'.310'
p329
sg263
S'64'
p330
sg14
S'5.0'
p331
sg16
S'.000'
p332
sg18
S'0.0'
p333
sg20
S'10.5'
p334
sg22
S'PG'
p335
sg270
S'108'
p336
sg24
S'.250'
p337
sg28
S'NBA'
p338
sg30
S'2.3'
p339
sg32
S'16.3'
p340
sg34
S'3.1'
p341
sg36
S'1.6'
p342
sg38
S'3.9'
p343
sg40
S'26'
p344
sg42
S'CLE'
p345
sg44
S'11'
p346
sg46
S'0.4'
p347
sg48
S'5.0'
p348
sg50
S'0.4'
p349
sg52
S'14.4'
p350
sg54
S'3.5'
p351
sg56
S'1986-87'
p352
sg58
S'5.0'
p353
sg60
S'4.7'
p354
sg62
S'.351'
p355
sg64
S'122'
p356
sg66
g106
sba(isrc.gp1.models.Per100Possession
Per100Possession
p357
(dp358
g8
S'0.9'
p359
sg10
S'1.1'
p360
sg12
S'.466'
p361
sg263
S'98'
p362
sg14
S'10.9'
p363
sg16
S'.324'
p364
sg18
S'0.4'
p365
sg20
S'15.7'
p366
sg22
S'PG'
p367
sg270
S'107'
p368
sg24
S'.709'
p369
sg28
S'NBA'
p370
sg30
S'2.1'
p371
sg32
S'14.3'
p372
sg34
S'5.4'
p373
sg36
S'2.8'
p374
sg38
S'4.2'
p375
sg40
S'26'
p376
sg42
S'HOU'
p377
sg44
S'63'
p378
sg46
S'0.2'
p379
sg48
S'6.3'
p380
sg50
S'2.0'
p381
sg52
S'13.2'
p382
sg54
S'3.3'
p383
sg56
S'1986-87'
p384
sg58
S'6.7'
p385
sg60
S'4.7'
p386
sg62
S'.478'
p387
sg64
S'1478'
p388
sg66
S'52'
p389
sba(isrc.gp1.models.Per100Possession
Per100Possession
p390
(dp391
g8
S'1.4'
p392
sg10
S'0.7'
p393
sg12
S'.489'
p394
sg263
S'103'
p395
sg14
S'10.4'
p396
sg16
S'.250'
p397
sg18
S'0.2'
p398
sg20
S'11.9'
p399
sg22
S'PG'
p400
sg270
S'111'
p401
sg24
S'.745'
p402
sg28
S'NBA'
p403
sg30
S'2.7'
p404
sg32
S'10.1'
p405
sg34
S'6.0'
p406
sg36
S'2.5'
p407
sg38
S'4.4'
p408
sg40
S'27'
p409
sg42
S'TOT'
p410
sg44
S'72'
p411
sg46
S'0.1'
p412
sg48
S'4.7'
p413
sg50
S'1.9'
p414
sg52
S'9.3'
p415
sg54
S'3.0'
p416
sg56
S'1987-88'
p417
sg58
S'4.9'
p418
sg60
S'4.2'
p419
sg62
S'.507'
p420
sg64
S'1070'
p421
sg66
g112
sba(isrc.gp1.models.Per100Possession
Per100Possession
p422
(dp423
g8
S'1.9'
p424
sg10
S'1.2'
p425
sg12
S'.521'
p426
sg263
S'107'
p427
sg14
S'8.9'
p428
sg16
S'.200'
p429
sg18
S'0.2'
p430
sg20
S'15.2'
p431
sg22
S'PG'
p432
sg270
S'112'
p433
sg24
S'.609'
p434
sg28
S'NBA'
p435
sg30
S'3.5'
p436
sg32
S'11.2'
p437
sg34
S'6.1'
p438
sg36
S'5.4'
p439
sg38
S'4.9'
p440
sg40
S'27'
p441
sg42
S'GSW'
p442
sg44
S'11'
p443
sg46
S'0.0'
p444
sg48
S'5.6'
p445
sg50
S'3.3'
p446
sg52
S'10.1'
p447
sg54
S'3.0'
p448
sg56
S'1987-88'
p449
sg58
S'5.8'
p450
sg60
S'3.7'
p451
sg62
S'.558'
p452
sg64
S'202'
p453
sg66
g106
sba(isrc.gp1.models.Per100Possession
Per100Possession
p454
(dp455
g8
S'1.2'
p456
sg10
S'0.6'
p457
sg12
S'.480'
p458
sg263
S'101'
p459
sg14
S'10.7'
p460
sg16
S'.273'
p461
sg18
S'0.2'
p462
sg20
S'11.1'
p463
sg22
S'PG'
p464
sg270
S'110'
p465
sg24
S'.844'
p466
sg28
S'NBA'
p467
sg30
S'2.5'
p468
sg32
S'9.8'
p469
sg34
S'6.0'
p470
sg36
S'1.8'
p471
sg38
S'4.2'
p472
sg40
S'27'
p473
sg42
S'BOS'
p474
sg44
S'61'
p475
sg46
S'0.2'
p476
sg48
S'4.5'
p477
sg50
S'1.5'
p478
sg52
S'9.1'
p479
sg54
S'3.0'
p480
sg56
S'1987-88'
p481
sg58
S'4.7'
p482
sg60
S'4.3'
p483
sg62
S'.494'
p484
sg64
S'868'
p485
sg66
g112
sbasS'_advanced'
p486
(lp487
(isrc.gp1.models.Advanced
Advanced
p488
(dp489
S'_offensiveReboundPercentage'
p490
S'4.2'
p491
sS'_turnOverPercentage'
p492
S'21.8'
p493
sS'_winSharesPer48Minutes'
p494
S'.083'
p495
sS'_stealPercentage'
p496
S'2.7'
p497
sS'_usagePercentage'
p498
S'17.9'
p499
sS'_totalReboundsPercentage'
p500
S'6.4'
p501
sS'_defensiveBoxPlusMinus'
p502
S'-0.5'
p503
sg22
S'PG'
p504
sS'_valueOverReplacementPlayer'
p505
S'0.5'
p506
sS'_trueShootingPercentage'
p507
S'.537'
p508
sS'_defensiveReboundPercentage'
p509
S'8.6'
p510
sS'_freeThrowsAttempRate'
p511
S'.268'
p512
sS'_threePointsAttempRate'
p513
S'.107'
p514
sg28
S'NBA'
p515
sS'_offensiveBoxPlusMinues'
p516
S'0.2'
p517
sS'_assistPercentage'
p518
S'32.5'
p519
sS'_defensiveWinShares'
p520
S'1.0'
p521
sg40
S'25'
p522
sg42
S'CLE'
p523
sg44
S'76'
p524
sS'_blockPercentage'
p525
S'0.1'
p526
sS'_playerEfficiencyRating'
p527
S'14.1'
p528
sS'_offensiveWinShares'
p529
S'0.9'
p530
sg64
S'1131'
p531
sS'_boxPlusMinus'
p532
S'-0.3'
p533
sg56
S'1985-86'
p534
sS'_winShares'
p535
S'1.9'
p536
sba(isrc.gp1.models.Advanced
Advanced
p537
(dp538
g490
S'2.0'
p539
sg492
S'23.1'
p540
sg494
S'.032'
p541
sg496
S'2.2'
p542
sg498
S'17.3'
p543
sg500
S'4.8'
p544
sg502
S'-1.0'
p545
sg22
S'PG'
p546
sg505
S'-0.8'
p547
sg507
S'.488'
p548
sg509
S'7.5'
p549
sg511
S'.187'
p550
sg513
S'.081'
p551
sg28
S'NBA'
p552
sg516
S'-3.1'
p553
sg518
S'29.5'
p554
sg520
S'1.8'
p555
sg40
S'26'
p556
sg42
S'TOT'
p557
sg44
S'74'
p558
sg525
S'0.3'
p559
sg527
S'10.3'
p560
sg529
S'-0.8'
p561
sg64
S'1600'
p562
sg532
S'-4.1'
p563
sg56
S'1986-87'
p564
sg535
S'1.1'
p565
sba(isrc.gp1.models.Advanced
Advanced
p566
(dp567
g490
S'0.9'
p568
sg492
S'21.5'
p569
sg494
S'-0.131'
p570
sg496
S'2.3'
p571
sg498
S'18.3'
p572
sg500
S'4.4'
p573
sg502
S'-0.7'
p574
sg22
S'PG'
p575
sg505
S'-0.2'
p576
sg507
S'.309'
p577
sg509
S'7.9'
p578
sg511
S'.095'
p579
sg513
S'.119'
p580
sg28
S'NBA'
p581
sg516
S'-9.1'
p582
sg518
S'14.4'
p583
sg520
S'0.1'
p584
sg40
S'26'
p585
sg42
S'CLE'
p586
sg44
S'11'
p587
sg525
S'0.5'
p588
sg527
S'1.8'
p589
sg529
S'-0.5'
p590
sg64
S'122'
p591
sg532
S'-9.8'
p592
sg56
S'1986-87'
p593
sg535
S'-0.3'
p594
sba(isrc.gp1.models.Advanced
Advanced
p595
(dp596
g490
S'2.1'
p597
sg492
S'23.3'
p598
sg494
S'.045'
p599
sg496
S'2.1'
p600
sg498
S'17.2'
p601
sg500
S'4.8'
p602
sg502
S'-1.0'
p603
sg22
S'PG'
p604
sg505
S'-0.6'
p605
sg507
S'.504'
p606
sg509
S'7.5'
p607
sg511
S'.195'
p608
sg513
S'.077'
p609
sg28
S'NBA'
p610
sg516
S'-2.6'
p611
sg518
S'30.7'
p612
sg520
S'1.7'
p613
sg40
S'26'
p614
sg42
S'HOU'
p615
sg44
S'63'
p616
sg525
S'0.2'
p617
sg527
S'11.0'
p618
sg529
S'-0.3'
p619
sg64
S'1478'
p620
sg532
S'-3.6'
p621
sg56
S'1986-87'
p622
sg535
S'1.4'
p623
sba(isrc.gp1.models.Advanced
Advanced
p624
(dp625
g490
S'3.4'
p626
sg492
S'27.5'
p627
sg494
S'.050'
p628
sg496
S'2.7'
p629
sg498
S'13.4'
p630
sg500
S'5.2'
p631
sg502
S'-1.0'
p632
sg22
S'PG'
p633
sg505
S'-0.3'
p634
sg507
S'.532'
p635
sg509
S'6.9'
p636
sg511
S'.249'
p637
sg513
S'.072'
p638
sg28
S'NBA'
p639
sg516
S'-2.0'
p640
sg518
S'26.5'
p641
sg520
S'0.8'
p642
sg40
S'27'
p643
sg42
S'TOT'
p644
sg44
S'72'
p645
sg525
S'0.2'
p646
sg527
S'10.4'
p647
sg529
S'0.3'
p648
sg64
S'1070'
p649
sg532
S'-3.0'
p650
sg56
S'1987-88'
p651
sg535
S'1.1'
p652
sba(isrc.gp1.models.Advanced
Advanced
p653
(dp654
g490
S'4.3'
p655
sg492
S'21.6'
p656
sg494
S'.068'
p657
sg496
S'3.5'
p658
sg498
S'14.9'
p659
sg500
S'5.8'
p660
sg502
S'-0.8'
p661
sg22
S'PG'
p662
sg505
S'0.0'
p663
sg507
S'.559'
p664
sg509
S'7.4'
p665
sg511
S'.479'
p666
sg513
S'.104'
p667
sg28
S'NBA'
p668
sg516
S'-0.7'
p669
sg518
S'25.0'
p670
sg520
S'0.1'
p671
sg40
S'27'
p672
sg42
S'GSW'
p673
sg44
S'11'
p674
sg525
S'0.0'
p675
sg527
S'13.2'
p676
sg529
S'0.2'
p677
sg64
S'202'
p678
sg532
S'-1.4'
p679
sg56
S'1987-88'
p680
sg535
S'0.3'
p681
sba(isrc.gp1.models.Advanced
Advanced
p682
(dp683
g490
S'3.2'
p684
sg492
S'29.2'
p685
sg494
S'.046'
p686
sg496
S'2.5'
p687
sg498
S'13.1'
p688
sg500
S'5.1'
p689
sg502
S'-1.1'
p690
sg22
S'PG'
p691
sg505
S'-0.3'
p692
sg507
S'.524'
p693
sg509
S'6.8'
p694
sg511
S'.185'
p695
sg513
S'.064'
p696
sg28
S'NBA'
p697
sg516
S'-2.3'
p698
sg518
S'26.9'
p699
sg520
S'0.7'
p700
sg40
S'27'
p701
sg42
S'BOS'
p702
sg44
S'61'
p703
sg525
S'0.2'
p704
sg527
S'9.7'
p705
sg529
S'0.2'
p706
sg64
S'868'
p707
sg532
S'-3.3'
p708
sg56
S'1987-88'
p709
sg535
S'0.8'
p710
sbasS'_per36Minutes'
p711
(lp712
(isrc.gp1.models.Per36Minutes
Per36Minutes
p713
(dp714
g8
S'1.4'
p715
sg10
S'1.2'
p716
sg12
S'.481'
p717
sg14
S'8.6'
p718
sg16
S'.270'
p719
sg18
S'0.3'
p720
sg20
S'13.3'
p721
sg22
S'PG'
p722
sg24
S'.785'
p723
sg28
S'NBA'
p724
sg30
S'2.1'
p725
sg32
S'11.0'
p726
sg34
S'5.3'
p727
sg36
S'3.0'
p728
sg38
S'4.2'
p729
sg40
S'25'
p730
sg42
S'CLE'
p731
sg44
S'76'
p732
sg46
S'0.0'
p733
sg48
S'5.0'
p734
sg50
S'2.3'
p735
sg52
S'9.9'
p736
sg54
S'2.8'
p737
sg56
S'1985-86'
p738
sg58
S'5.3'
p739
sg60
S'3.4'
p740
sg62
S'.506'
p741
sg64
S'1131'
p742
sg66
g67
sba(isrc.gp1.models.Per36Minutes
Per36Minutes
p743
(dp744
g8
S'0.7'
p745
sg10
S'0.9'
p746
sg12
S'.452'
p747
sg14
S'7.8'
p748
sg16
S'.282'
p749
sg18
S'0.2'
p750
sg20
S'11.5'
p751
sg22
S'PG'
p752
sg24
S'.689'
p753
sg28
S'NBA'
p754
sg30
S'1.6'
p755
sg32
S'10.8'
p756
sg34
S'3.9'
p757
sg36
S'2.0'
p758
sg38
S'3.2'
p759
sg40
S'26'
p760
sg42
S'TOT'
p761
sg44
S'74'
p762
sg46
S'0.2'
p763
sg48
S'4.7'
p764
sg50
S'1.4'
p765
sg52
S'10.0'
p766
sg54
S'2.5'
p767
sg56
S'1986-87'
p768
sg58
S'4.9'
p769
sg60
S'3.5'
p770
sg62
S'.467'
p771
sg64
S'1600'
p772
sg66
S'52'
p773
sba(isrc.gp1.models.Per36Minutes
Per36Minutes
p774
(dp775
g8
S'0.3'
p776
sg10
S'1.5'
p777
sg12
S'.310'
p778
sg14
S'3.8'
p779
sg16
S'.000'
p780
sg18
S'0.0'
p781
sg20
S'8.0'
p782
sg22
S'PG'
p783
sg24
S'.250'
p784
sg28
S'NBA'
p785
sg30
S'1.8'
p786
sg32
S'12.4'
p787
sg34
S'2.4'
p788
sg36
S'1.2'
p789
sg38
S'3.0'
p790
sg40
S'26'
p791
sg42
S'CLE'
p792
sg44
S'11'
p793
sg46
S'0.3'
p794
sg48
S'3.8'
p795
sg50
S'0.3'
p796
sg52
S'10.9'
p797
sg54
S'2.7'
p798
sg56
S'1986-87'
p799
sg58
S'3.8'
p800
sg60
S'3.5'
p801
sg62
S'.351'
p802
sg64
S'122'
p803
sg66
g106
sba(isrc.gp1.models.Per36Minutes
Per36Minutes
p804
(dp805
g8
S'0.7'
p806
sg10
S'0.8'
p807
sg12
S'.466'
p808
sg14
S'8.2'
p809
sg16
S'.324'
p810
sg18
S'0.3'
p811
sg20
S'11.7'
p812
sg22
S'PG'
p813
sg24
S'.709'
p814
sg28
S'NBA'
p815
sg30
S'1.6'
p816
sg32
S'10.7'
p817
sg34
S'4.0'
p818
sg36
S'2.1'
p819
sg38
S'3.2'
p820
sg40
S'26'
p821
sg42
S'HOU'
p822
sg44
S'63'
p823
sg46
S'0.1'
p824
sg48
S'4.7'
p825
sg50
S'1.5'
p826
sg52
S'9.9'
p827
sg54
S'2.5'
p828
sg56
S'1986-87'
p829
sg58
S'5.0'
p830
sg60
S'3.5'
p831
sg62
S'.478'
p832
sg64
S'1478'
p833
sg66
S'52'
p834
sba(isrc.gp1.models.Per36Minutes
Per36Minutes
p835
(dp836
g8
S'1.0'
p837
sg10
S'0.5'
p838
sg12
S'.489'
p839
sg14
S'7.7'
p840
sg16
S'.250'
p841
sg18
S'0.1'
p842
sg20
S'8.8'
p843
sg22
S'PG'
p844
sg24
S'.745'
p845
sg28
S'NBA'
p846
sg30
S'2.0'
p847
sg32
S'7.4'
p848
sg34
S'4.5'
p849
sg36
S'1.9'
p850
sg38
S'3.2'
p851
sg40
S'27'
p852
sg42
S'TOT'
p853
sg44
S'72'
p854
sg46
S'0.1'
p855
sg48
S'3.5'
p856
sg50
S'1.4'
p857
sg52
S'6.9'
p858
sg54
S'2.2'
p859
sg56
S'1987-88'
p860
sg58
S'3.6'
p861
sg60
S'3.1'
p862
sg62
S'.507'
p863
sg64
S'1070'
p864
sg66
g112
sba(isrc.gp1.models.Per36Minutes
Per36Minutes
p865
(dp866
g8
S'1.4'
p867
sg10
S'0.9'
p868
sg12
S'.521'
p869
sg14
S'6.8'
p870
sg16
S'.200'
p871
sg18
S'0.2'
p872
sg20
S'11.6'
p873
sg22
S'PG'
p874
sg24
S'.609'
p875
sg28
S'NBA'
p876
sg30
S'2.7'
p877
sg32
S'8.6'
p878
sg34
S'4.6'
p879
sg36
S'4.1'
p880
sg38
S'3.7'
p881
sg40
S'27'
p882
sg42
S'GSW'
p883
sg44
S'11'
p884
sg46
S'0.0'
p885
sg48
S'4.3'
p886
sg50
S'2.5'
p887
sg52
S'7.7'
p888
sg54
S'2.3'
p889
sg56
S'1987-88'
p890
sg58
S'4.5'
p891
sg60
S'2.9'
p892
sg62
S'.558'
p893
sg64
S'202'
p894
sg66
g106
sba(isrc.gp1.models.Per36Minutes
Per36Minutes
p895
(dp896
g8
S'0.9'
p897
sg10
S'0.5'
p898
sg12
S'.480'
p899
sg14
S'7.9'
p900
sg16
S'.273'
p901
sg18
S'0.1'
p902
sg20
S'8.1'
p903
sg22
S'PG'
p904
sg24
S'.844'
p905
sg28
S'NBA'
p906
sg30
S'1.8'
p907
sg32
S'7.2'
p908
sg34
S'4.4'
p909
sg36
S'1.3'
p910
sg38
S'3.1'
p911
sg40
S'27'
p912
sg42
S'BOS'
p913
sg44
S'61'
p914
sg46
S'0.1'
p915
sg48
S'3.3'
p916
sg50
S'1.1'
p917
sg52
S'6.7'
p918
sg54
S'2.2'
p919
sg56
S'1987-88'
p920
sg58
S'3.4'
p921
sg60
S'3.2'
p922
sg62
S'.494'
p923
sg64
S'868'
p924
sg66
g112
sbasS'_fromYear'
p925
S'1986'
p926
sS'_url'
p927
S'http://www.basketball-reference.com/players/m/minnidi01.html'
p928
sS'_perGame'
p929
(isrc.gp1.models.PerGame
PerGame
p930
(dp931
g8
S'0.4'
p932
sg10
S'0.2'
p933
sg12
S'.480'
p934
sS'_effectiveFieldGalPercentage'
p935
S'.488'
p936
sg14
S'3.1'
p937
sg16
S'.273'
p938
sg18
S'0.0'
p939
sg20
S'3.2'
p940
sg22
S'PG'
p941
sg24
S'.844'
p942
sg28
S'NBA'
p943
sg30
S'0.7'
p944
sg34
S'1.8'
p945
sS'_fieldGoalsttempted'
p946
S'2.8'
p947
sg36
S'0.5'
p948
sg38
S'1.2'
p949
sg40
S'27'
p950
sg42
S'BOS'
p951
sg44
S'61'
p952
sg46
S'0.0'
p953
sg48
S'1.3'
p954
sg50
S'0.4'
p955
sg52
S'2.7'
p956
sg54
S'0.9'
p957
sg56
S'1987-88'
p958
sg58
S'1.4'
p959
sg60
S'1.3'
p960
sg62
S'.494'
p961
sg64
S'14.2'
p962
sg66
g112
sbsS'_weight'
p963
S'180'
p964
sS'_dob'
p965
S'17-1-1961'
p966
sS'_salary'
p967
(lp968
(isrc.gp1.models.Salary
Salary
p969
(dp970
g42
S'Cleveland Cavaliers'
p971
sg28
S'NBA'
p972
sg967
S'$75,000'
p973
sg56
S'1985-86'
p974
sba(isrc.gp1.models.Salary
Salary
p975
(dp976
g42
S'Boston Celtics'
p977
sg28
S'NBA'
p978
sg967
S'$100,000'
p979
sg56
S'1987-88'
p980
sbasg22
S'G'
p981
sb.