(isrc.gp1.models.Player
Player
p0
(dp1
S'_experience'
p2
S'NA'
p3
sS'_totals'
p4
(lp5
(isrc.gp1.models.Totals
Totals
p6
(dp7
S'_offensiveRebounds'
p8
S'14'
p9
sS'_threePointsAttempted'
p10
S'0'
p11
sS'_fieldGoalsPercentage'
p12
S'.333'
p13
sS'_assist'
p14
S'2'
p15
sS'_threePointsPercentage'
p16
g3
sS'_threePoints'
p17
g11
sS'_points'
p18
S'29'
p19
sS'_position'
p20
S'C'
p21
sS'_freeThrowsPercentage'
p22
S'.778'
p23
sS'_effectiveFieldGoalPercentage'
p24
S'.333'
p25
sS'_league'
p26
S'NBA'
p27
sS'_steals'
p28
S'1'
p29
sS'_fieldGoalsAttempted'
p30
S'33'
p31
sS'_personalFouls'
p32
S'24'
p33
sS'_freeThrowsAttempted'
p34
S'9'
p35
sS'_totalRebounds'
p36
S'29'
p37
sS'_age'
p38
S'23'
p39
sS'_team'
p40
S'HOU'
p41
sS'_games'
p42
S'12'
p43
sS'_blocks'
p44
S'6'
p45
sS'_twoPoints'
p46
S'11'
p47
sS'_freeThrows'
p48
S'7'
p49
sS'_twoPointsAttempted'
p50
S'33'
p51
sS'_defensiveRebounds'
p52
S'15'
p53
sS'_season'
p54
S'1979-80'
p55
sS'_fieldGoals'
p56
S'11'
p57
sS'_turnOvers'
p58
S'10'
p59
sS'_twoPointsPercentage'
p60
S'.333'
p61
sS'_minutesPlayed'
p62
S'113'
p63
sS'_gamesStarted'
p64
g3
sba(isrc.gp1.models.Totals
Totals
p65
(dp66
g8
S'141'
p67
sg10
g29
sg12
S'.489'
p68
sg14
S'135'
p69
sg16
S'.000'
p70
sg17
g11
sg18
S'568'
p71
sg20
g21
sg22
S'.600'
p72
sg24
S'.489'
p73
sg26
S'NBA'
p74
sg28
S'38'
p75
sg30
S'458'
p76
sg32
S'267'
p77
sg34
S'200'
p78
sg36
S'418'
p79
sg38
S'24'
p80
sg40
S'DET'
p81
sg42
S'80'
p82
sg44
S'73'
p83
sg46
S'224'
p84
sg48
S'120'
p85
sg50
S'457'
p86
sg52
S'277'
p87
sg54
S'1980-81'
p88
sg56
S'224'
p89
sg58
S'160'
p90
sg60
S'.490'
p91
sg62
S'1815'
p92
sg64
g3
sba(isrc.gp1.models.Totals
Totals
p93
(dp94
g8
S'59'
p95
sg10
S'3'
p96
sg12
S'.435'
p97
sg14
S'35'
p98
sg16
S'.000'
p99
sg17
g11
sg18
S'216'
p100
sg20
g21
sg22
S'.762'
p101
sg24
S'.435'
p102
sg26
S'NBA'
p103
sg28
S'33'
p104
sg30
S'193'
p105
sg32
S'171'
p106
sg34
S'63'
p107
sg36
S'208'
p108
sg38
S'25'
p109
sg40
S'TOT'
p110
sg42
S'67'
p111
sg44
S'40'
p112
sg46
S'84'
p113
sg48
S'48'
p114
sg50
S'190'
p115
sg52
S'149'
p116
sg54
S'1981-82'
p117
sg56
S'84'
p118
sg58
S'55'
p119
sg60
S'.442'
p120
sg62
S'868'
p121
sg64
S'4'
p122
sba(isrc.gp1.models.Totals
Totals
p123
(dp124
g8
S'35'
p125
sg10
g29
sg12
S'.441'
p126
sg14
S'24'
p127
sg16
S'.000'
p128
sg17
g11
sg18
S'123'
p129
sg20
g21
sg22
S'.758'
p130
sg24
S'.441'
p131
sg26
S'NBA'
p132
sg28
S'13'
p133
sg30
S'111'
p134
sg32
S'103'
p135
sg34
S'33'
p136
sg36
S'122'
p137
sg38
S'25'
p138
sg40
S'DET'
p139
sg42
S'39'
p140
sg44
S'23'
p141
sg46
S'49'
p142
sg48
S'25'
p143
sg50
S'110'
p144
sg52
S'87'
p145
sg54
S'1981-82'
p146
sg56
S'49'
p147
sg58
S'39'
p148
sg60
S'.445'
p149
sg62
S'523'
p150
sg64
g96
sba(isrc.gp1.models.Totals
Totals
p151
(dp152
g8
S'24'
p153
sg10
g15
sg12
S'.427'
p154
sg14
S'11'
p155
sg16
S'.000'
p156
sg17
g11
sg18
S'93'
p157
sg20
g21
sg22
S'.767'
p158
sg24
S'.427'
p159
sg26
S'NBA'
p160
sg28
S'20'
p161
sg30
S'82'
p162
sg32
S'68'
p163
sg34
S'30'
p164
sg36
S'86'
p165
sg38
S'25'
p166
sg40
S'CLE'
p167
sg42
S'28'
p168
sg44
S'17'
p169
sg46
S'35'
p170
sg48
S'23'
p171
sg50
S'80'
p172
sg52
S'62'
p173
sg54
S'1981-82'
p174
sg56
S'35'
p175
sg58
S'16'
p176
sg60
S'.438'
p177
sg62
S'345'
p178
sg64
g29
sba(isrc.gp1.models.Totals
Totals
p179
(dp180
g8
S'76'
p181
sg10
g29
sg12
S'.458'
p182
sg14
S'49'
p183
sg16
S'.000'
p184
sg17
g11
sg18
S'288'
p185
sg20
g21
sg22
S'.735'
p186
sg24
S'.458'
p187
sg26
S'NBA'
p188
sg28
S'21'
p189
sg30
S'260'
p190
sg32
S'223'
p191
sg34
S'68'
p192
sg36
S'260'
p193
sg38
S'26'
p194
sg40
S'TOT'
p195
sg42
S'73'
p196
sg44
S'44'
p197
sg46
S'119'
p198
sg48
S'50'
p199
sg50
S'259'
p200
sg52
S'184'
p201
sg54
S'1982-83'
p202
sg56
S'119'
p203
sg58
S'67'
p204
sg60
S'.459'
p205
sg62
S'1128'
p206
sg64
S'19'
p207
sba(isrc.gp1.models.Totals
Totals
p208
(dp209
g8
S'47'
p210
sg10
g11
sg12
S'.455'
p211
sg14
S'26'
p212
sg16
g3
sg17
g11
sg18
S'126'
p213
sg20
g21
sg22
S'.615'
p214
sg24
S'.455'
p215
sg26
S'NBA'
p216
sg28
S'12'
p217
sg30
S'121'
p218
sg32
S'85'
p219
sg34
S'26'
p220
sg36
S'138'
p221
sg38
S'26'
p222
sg40
S'CLE'
p223
sg42
S'23'
p224
sg44
S'23'
p225
sg46
S'55'
p226
sg48
S'16'
p227
sg50
S'121'
p228
sg52
S'91'
p229
sg54
S'1982-83'
p230
sg56
S'55'
p231
sg58
S'27'
p232
sg60
S'.455'
p233
sg62
S'539'
p234
sg64
S'18'
p235
sba(isrc.gp1.models.Totals
Totals
p236
(dp237
g8
S'29'
p238
sg10
g29
sg12
S'.460'
p239
sg14
S'23'
p240
sg16
S'.000'
p241
sg17
g11
sg18
S'162'
p242
sg20
g21
sg22
S'.810'
p243
sg24
S'.460'
p244
sg26
S'NBA'
p245
sg28
g35
sg30
S'139'
p246
sg32
S'138'
p247
sg34
S'42'
p248
sg36
S'122'
p249
sg38
S'26'
p250
sg40
S'MIL'
p251
sg42
S'50'
p252
sg44
S'21'
p253
sg46
S'64'
p254
sg48
S'34'
p255
sg50
S'138'
p256
sg52
S'93'
p257
sg54
S'1982-83'
p258
sg56
S'64'
p259
sg58
S'40'
p260
sg60
S'.464'
p261
sg62
S'589'
p262
sg64
g29
sba(isrc.gp1.models.Totals
Totals
p263
(dp264
g8
S'51'
p265
sg10
g96
sg12
S'.479'
p266
sg14
S'44'
p267
sg16
S'.333'
p268
sg17
g29
sg18
S'255'
p269
sg20
g21
sg22
S'.694'
p270
sg24
S'.481'
p271
sg26
S'NBA'
p272
sg28
S'11'
p273
sg30
S'213'
p274
sg32
S'168'
p275
sg34
S'72'
p276
sg36
S'166'
p277
sg38
S'27'
p278
sg40
S'MIL'
p279
sg42
S'68'
p280
sg44
S'29'
p281
sg46
S'101'
p282
sg48
S'50'
p283
sg50
S'210'
p284
sg52
S'115'
p285
sg54
S'1983-84'
p286
sg56
S'102'
p287
sg58
S'44'
p288
sg60
S'.481'
p289
sg62
S'838'
p290
sg64
g122
sba(isrc.gp1.models.Totals
Totals
p291
(dp292
g8
S'107'
p293
sg10
g15
sg12
S'.478'
p294
sg14
S'99'
p295
sg16
S'.000'
p296
sg17
g11
sg18
S'491'
p297
sg20
g21
sg22
S'.698'
p298
sg24
S'.478'
p299
sg26
S'NBA'
p300
sg28
S'28'
p301
sg30
S'429'
p302
sg32
S'266'
p303
sg34
S'116'
p304
sg36
S'410'
p305
sg38
S'28'
p306
sg40
S'MIL'
p307
sg42
S'79'
p308
sg44
S'35'
p309
sg46
S'205'
p310
sg48
S'81'
p311
sg50
S'427'
p312
sg52
S'303'
p313
sg54
S'1984-85'
p314
sg56
S'205'
p315
sg58
S'85'
p316
sg60
S'.480'
p317
sg62
S'1586'
p318
sg64
g45
sba(isrc.gp1.models.Totals
Totals
p319
(dp320
g8
S'36'
p321
sg10
g11
sg12
S'.424'
p322
sg14
S'30'
p323
sg16
g3
sg17
g11
sg18
S'143'
p324
sg20
g21
sg22
S'.735'
p325
sg24
S'.424'
p326
sg26
S'NBA'
p327
sg28
g45
sg30
S'139'
p328
sg32
S'92'
p329
sg34
S'34'
p330
sg36
S'139'
p331
sg38
S'29'
p332
sg40
S'MIL'
p333
sg42
S'45'
p334
sg44
g45
sg46
S'59'
p335
sg48
S'25'
p336
sg50
S'139'
p337
sg52
S'103'
p338
sg54
S'1985-86'
p339
sg56
S'59'
p340
sg58
S'25'
p341
sg60
S'.424'
p342
sg62
S'521'
p343
sg64
g11
sba(isrc.gp1.models.Totals
Totals
p344
(dp345
g8
S'45'
p346
sg10
g29
sg12
S'.403'
p347
sg14
S'22'
p348
sg16
S'.000'
p349
sg17
g11
sg18
S'150'
p350
sg20
g21
sg22
S'.719'
p351
sg24
S'.403'
p352
sg26
S'NBA'
p353
sg28
S'18'
p354
sg30
S'129'
p355
sg32
S'126'
p356
sg34
S'64'
p357
sg36
S'138'
p358
sg38
S'30'
p359
sg40
S'MIL'
p360
sg42
S'62'
p361
sg44
S'13'
p362
sg46
S'52'
p363
sg48
S'46'
p364
sg50
S'128'
p365
sg52
S'93'
p366
sg54
S'1986-87'
p367
sg56
S'52'
p368
sg58
S'22'
p369
sg60
S'.406'
p370
sg62
S'626'
p371
sg64
g96
sba(isrc.gp1.models.Totals
Totals
p372
(dp373
g8
S'70'
p374
sg10
g122
sg12
S'.476'
p375
sg14
S'22'
p376
sg16
S'.000'
p377
sg17
g11
sg18
S'251'
p378
sg20
g21
sg22
S'.708'
p379
sg24
S'.476'
p380
sg26
S'NBA'
p381
sg28
S'27'
p382
sg30
S'210'
p383
sg32
S'194'
p384
sg34
S'72'
p385
sg36
S'221'
p386
sg38
S'31'
p387
sg40
S'MIL'
p388
sg42
S'60'
p389
sg44
S'27'
p390
sg46
S'100'
p391
sg48
S'51'
p392
sg50
S'206'
p393
sg52
S'151'
p394
sg54
S'1987-88'
p395
sg56
S'100'
p396
sg58
S'49'
p397
sg60
S'.485'
p398
sg62
S'848'
p399
sg64
g11
sba(isrc.gp1.models.Totals
Totals
p400
(dp401
g8
S'63'
p402
sg10
S'26'
p403
sg12
S'.360'
p404
sg14
S'36'
p405
sg16
S'.269'
p406
sg17
g49
sg18
S'165'
p407
sg20
g21
sg22
S'.784'
p408
sg24
S'.381'
p409
sg26
S'NBA'
p410
sg28
S'29'
p411
sg30
S'164'
p412
sg32
S'153'
p413
sg34
S'51'
p414
sg36
S'187'
p415
sg38
S'32'
p416
sg40
S'MIL'
p417
sg42
S'74'
p418
sg44
S'21'
p419
sg46
S'52'
p420
sg48
S'40'
p421
sg50
S'138'
p422
sg52
S'124'
p423
sg54
S'1988-89'
p424
sg56
S'59'
p425
sg58
S'35'
p426
sg60
S'.377'
p427
sg62
S'690'
p428
sg64
g11
sba(isrc.gp1.models.Totals
Totals
p429
(dp430
g8
S'27'
p431
sg10
g29
sg12
S'.420'
p432
sg14
S'17'
p433
sg16
S'.000'
p434
sg17
g11
sg18
S'151'
p435
sg20
g21
sg22
S'.694'
p436
sg24
S'.420'
p437
sg26
S'NBA'
p438
sg28
S'8'
p439
sg30
S'150'
p440
sg32
S'76'
p441
sg34
S'36'
p442
sg36
S'99'
p443
sg38
S'33'
p444
sg40
S'CLE'
p445
sg42
S'38'
p446
sg44
S'10'
p447
sg46
S'63'
p448
sg48
S'25'
p449
sg50
S'149'
p450
sg52
S'72'
p451
sg54
S'1989-90'
p452
sg56
S'63'
p453
sg58
S'26'
p454
sg60
S'.423'
p455
sg62
S'449'
p456
sg64
g29
sba(isrc.gp1.models.Totals
Totals
p457
(dp458
g8
S'20'
p459
sg10
g35
sg12
S'.356'
p460
sg14
g35
sg16
S'.333'
p461
sg17
g96
sg18
S'57'
p462
sg20
g21
sg22
S'.800'
p463
sg24
S'.381'
p464
sg26
S'NBA'
p465
sg28
g439
sg30
S'59'
p466
sg32
S'58'
p467
sg34
S'15'
p468
sg36
S'67'
p469
sg38
S'34'
p470
sg40
S'GSW'
p471
sg42
S'36'
p472
sg44
g96
sg46
S'18'
p473
sg48
S'12'
p474
sg50
S'50'
p475
sg52
S'47'
p476
sg54
S'1990-91'
p477
sg56
S'21'
p478
sg58
g49
sg60
S'.360'
p479
sg62
S'257'
p480
sg64
g29
sbasS'_college'
p481
S'University of Kansas'
p482
sS'_toYear'
p483
S'1991'
p484
sS'_height'
p485
S'7-0'
p486
sS'_active'
p487
I00
sS'_shootingHand'
p488
VRight
p489
sS'_name'
p490
S'Paul Mokeski'
p491
sS'_per100Possessions'
p492
(lp493
(isrc.gp1.models.Per100Possession
Per100Possession
p494
(dp495
g8
S'5.9'
p496
sg10
S'0.0'
p497
sg12
S'.333'
p498
sS'_offensiveRating'
p499
S'83'
p500
sg14
S'0.8'
p501
sg16
g3
sg17
S'0.0'
p502
sg18
S'12.2'
p503
sg20
g21
sS'_defensiveRating'
p504
S'109'
p505
sg22
S'.778'
p506
sg26
S'NBA'
p507
sg28
S'0.4'
p508
sg30
S'13.9'
p509
sg32
S'10.1'
p510
sg34
S'3.8'
p511
sg36
S'12.2'
p512
sg38
S'23'
p513
sg40
S'HOU'
p514
sg42
S'12'
p515
sg44
S'2.5'
p516
sg46
S'4.6'
p517
sg48
S'2.9'
p518
sg50
S'13.9'
p519
sg52
S'6.3'
p520
sg54
S'1979-80'
p521
sg56
S'4.6'
p522
sg58
S'4.2'
p523
sg60
S'.333'
p524
sg62
S'113'
p525
sg64
g3
sba(isrc.gp1.models.Per100Possession
Per100Possession
p526
(dp527
g8
S'3.7'
p528
sg10
S'0.0'
p529
sg12
S'.489'
p530
sg499
S'95'
p531
sg14
S'3.5'
p532
sg16
S'.000'
p533
sg17
S'0.0'
p534
sg18
S'14.8'
p535
sg20
g21
sg504
S'105'
p536
sg22
S'.600'
p537
sg26
S'NBA'
p538
sg28
S'1.0'
p539
sg30
S'12.0'
p540
sg32
S'7.0'
p541
sg34
S'5.2'
p542
sg36
S'10.9'
p543
sg38
S'24'
p544
sg40
S'DET'
p545
sg42
S'80'
p546
sg44
S'1.9'
p547
sg46
S'5.9'
p548
sg48
S'3.1'
p549
sg50
S'11.9'
p550
sg52
S'7.2'
p551
sg54
S'1980-81'
p552
sg56
S'5.9'
p553
sg58
S'4.2'
p554
sg60
S'.490'
p555
sg62
S'1815'
p556
sg64
g3
sba(isrc.gp1.models.Per100Possession
Per100Possession
p557
(dp558
g8
S'3.2'
p559
sg10
S'0.2'
p560
sg12
S'.435'
p561
sg499
S'95'
p562
sg14
S'1.9'
p563
sg16
S'.000'
p564
sg17
S'0.0'
p565
sg18
S'11.7'
p566
sg20
g21
sg504
S'106'
p567
sg22
S'.762'
p568
sg26
S'NBA'
p569
sg28
S'1.8'
p570
sg30
S'10.4'
p571
sg32
S'9.2'
p572
sg34
S'3.4'
p573
sg36
S'11.2'
p574
sg38
S'25'
p575
sg40
S'TOT'
p576
sg42
S'67'
p577
sg44
S'2.2'
p578
sg46
S'4.5'
p579
sg48
S'2.6'
p580
sg50
S'10.3'
p581
sg52
S'8.1'
p582
sg54
S'1981-82'
p583
sg56
S'4.5'
p584
sg58
S'3.0'
p585
sg60
S'.442'
p586
sg62
S'868'
p587
sg64
g122
sba(isrc.gp1.models.Per100Possession
Per100Possession
p588
(dp589
g8
S'3.1'
p590
sg10
S'0.1'
p591
sg12
S'.441'
p592
sg499
S'91'
p593
sg14
S'2.1'
p594
sg16
S'.000'
p595
sg17
S'0.0'
p596
sg18
S'10.8'
p597
sg20
g21
sg504
S'106'
p598
sg22
S'.758'
p599
sg26
S'NBA'
p600
sg28
S'1.1'
p601
sg30
S'9.8'
p602
sg32
S'9.1'
p603
sg34
S'2.9'
p604
sg36
S'10.7'
p605
sg38
S'25'
p606
sg40
S'DET'
p607
sg42
S'39'
p608
sg44
S'2.0'
p609
sg46
S'4.3'
p610
sg48
S'2.2'
p611
sg50
S'9.7'
p612
sg52
S'7.7'
p613
sg54
S'1981-82'
p614
sg56
S'4.3'
p615
sg58
S'3.4'
p616
sg60
S'.445'
p617
sg62
S'523'
p618
sg64
g96
sba(isrc.gp1.models.Per100Possession
Per100Possession
p619
(dp620
g8
S'3.4'
p621
sg10
S'0.3'
p622
sg12
S'.427'
p623
sg499
S'101'
p624
sg14
S'1.5'
p625
sg16
S'.000'
p626
sg17
S'0.0'
p627
sg18
S'13.0'
p628
sg20
g21
sg504
S'106'
p629
sg22
S'.767'
p630
sg26
S'NBA'
p631
sg28
S'2.8'
p632
sg30
S'11.5'
p633
sg32
S'9.5'
p634
sg34
S'4.2'
p635
sg36
S'12.1'
p636
sg38
S'25'
p637
sg40
S'CLE'
p638
sg42
S'28'
p639
sg44
S'2.4'
p640
sg46
S'4.9'
p641
sg48
S'3.2'
p642
sg50
S'11.2'
p643
sg52
S'8.7'
p644
sg54
S'1981-82'
p645
sg56
S'4.9'
p646
sg58
S'2.2'
p647
sg60
S'.438'
p648
sg62
S'345'
p649
sg64
g29
sba(isrc.gp1.models.Per100Possession
Per100Possession
p650
(dp651
g8
S'3.3'
p652
sg10
S'0.0'
p653
sg12
S'.458'
p654
sg499
S'96'
p655
sg14
S'2.1'
p656
sg16
S'.000'
p657
sg17
S'0.0'
p658
sg18
S'12.4'
p659
sg20
g21
sg504
S'103'
p660
sg22
S'.735'
p661
sg26
S'NBA'
p662
sg28
S'0.9'
p663
sg30
S'11.2'
p664
sg32
S'9.6'
p665
sg34
S'2.9'
p666
sg36
S'11.2'
p667
sg38
S'26'
p668
sg40
S'TOT'
p669
sg42
S'73'
p670
sg44
S'1.9'
p671
sg46
S'5.1'
p672
sg48
S'2.2'
p673
sg50
S'11.1'
p674
sg52
S'7.9'
p675
sg54
S'1982-83'
p676
sg56
S'5.1'
p677
sg58
S'2.9'
p678
sg60
S'.459'
p679
sg62
S'1128'
p680
sg64
S'19'
p681
sba(isrc.gp1.models.Per100Possession
Per100Possession
p682
(dp683
g8
S'4.3'
p684
sg10
S'0.0'
p685
sg12
S'.455'
p686
sg499
S'98'
p687
sg14
S'2.4'
p688
sg16
g3
sg17
S'0.0'
p689
sg18
S'11.5'
p690
sg20
g21
sg504
S'105'
p691
sg22
S'.615'
p692
sg26
S'NBA'
p693
sg28
S'1.1'
p694
sg30
S'11.0'
p695
sg32
S'7.8'
p696
sg34
S'2.4'
p697
sg36
S'12.6'
p698
sg38
S'26'
p699
sg40
S'CLE'
p700
sg42
S'23'
p701
sg44
S'2.1'
p702
sg46
S'5.0'
p703
sg48
S'1.5'
p704
sg50
S'11.0'
p705
sg52
S'8.3'
p706
sg54
S'1982-83'
p707
sg56
S'5.0'
p708
sg58
S'2.5'
p709
sg60
S'.455'
p710
sg62
S'539'
p711
sg64
S'18'
p712
sba(isrc.gp1.models.Per100Possession
Per100Possession
p713
(dp714
g8
S'2.4'
p715
sg10
S'0.1'
p716
sg12
S'.460'
p717
sg499
S'95'
p718
sg14
S'1.9'
p719
sg16
S'.000'
p720
sg17
S'0.0'
p721
sg18
S'13.2'
p722
sg20
g21
sg504
S'101'
p723
sg22
S'.810'
p724
sg26
S'NBA'
p725
sg28
S'0.7'
p726
sg30
S'11.3'
p727
sg32
S'11.2'
p728
sg34
S'3.4'
p729
sg36
S'9.9'
p730
sg38
S'26'
p731
sg40
S'MIL'
p732
sg42
S'50'
p733
sg44
S'1.7'
p734
sg46
S'5.2'
p735
sg48
S'2.8'
p736
sg50
S'11.2'
p737
sg52
S'7.6'
p738
sg54
S'1982-83'
p739
sg56
S'5.2'
p740
sg58
S'3.3'
p741
sg60
S'.464'
p742
sg62
S'589'
p743
sg64
g29
sba(isrc.gp1.models.Per100Possession
Per100Possession
p744
(dp745
g8
S'3.0'
p746
sg10
S'0.2'
p747
sg12
S'.479'
p748
sg499
S'104'
p749
sg14
S'2.6'
p750
sg16
S'.333'
p751
sg17
S'0.1'
p752
sg18
S'15.1'
p753
sg20
g21
sg504
S'104'
p754
sg22
S'.694'
p755
sg26
S'NBA'
p756
sg28
S'0.7'
p757
sg30
S'12.6'
p758
sg32
S'9.9'
p759
sg34
S'4.3'
p760
sg36
S'9.8'
p761
sg38
S'27'
p762
sg40
S'MIL'
p763
sg42
S'68'
p764
sg44
S'1.7'
p765
sg46
S'6.0'
p766
sg48
S'3.0'
p767
sg50
S'12.4'
p768
sg52
S'6.8'
p769
sg54
S'1983-84'
p770
sg56
S'6.0'
p771
sg58
S'2.6'
p772
sg60
S'.481'
p773
sg62
S'838'
p774
sg64
g122
sba(isrc.gp1.models.Per100Possession
Per100Possession
p775
(dp776
g8
S'3.2'
p777
sg10
S'0.1'
p778
sg12
S'.478'
p779
sg499
S'105'
p780
sg14
S'3.0'
p781
sg16
S'.000'
p782
sg17
S'0.0'
p783
sg18
S'14.9'
p784
sg20
g21
sg504
S'103'
p785
sg22
S'.698'
p786
sg26
S'NBA'
p787
sg28
S'0.8'
p788
sg30
S'13.0'
p789
sg32
S'8.1'
p790
sg34
S'3.5'
p791
sg36
S'12.4'
p792
sg38
S'28'
p793
sg40
S'MIL'
p794
sg42
S'79'
p795
sg44
S'1.1'
p796
sg46
S'6.2'
p797
sg48
S'2.5'
p798
sg50
S'13.0'
p799
sg52
S'9.2'
p800
sg54
S'1984-85'
p801
sg56
S'6.2'
p802
sg58
S'2.6'
p803
sg60
S'.480'
p804
sg62
S'1586'
p805
sg64
g45
sba(isrc.gp1.models.Per100Possession
Per100Possession
p806
(dp807
g8
S'3.2'
p808
sg10
S'0.0'
p809
sg12
S'.424'
p810
sg499
S'100'
p811
sg14
S'2.7'
p812
sg16
g3
sg17
S'0.0'
p813
sg18
S'12.9'
p814
sg20
g21
sg504
S'103'
p815
sg22
S'.735'
p816
sg26
S'NBA'
p817
sg28
S'0.5'
p818
sg30
S'12.5'
p819
sg32
S'8.3'
p820
sg34
S'3.1'
p821
sg36
S'12.5'
p822
sg38
S'29'
p823
sg40
S'MIL'
p824
sg42
S'45'
p825
sg44
S'0.5'
p826
sg46
S'5.3'
p827
sg48
S'2.3'
p828
sg50
S'12.5'
p829
sg52
S'9.3'
p830
sg54
S'1985-86'
p831
sg56
S'5.3'
p832
sg58
S'2.3'
p833
sg60
S'.424'
p834
sg62
S'521'
p835
sg64
g11
sba(isrc.gp1.models.Per100Possession
Per100Possession
p836
(dp837
g8
S'3.4'
p838
sg10
S'0.1'
p839
sg12
S'.403'
p840
sg499
S'104'
p841
sg14
S'1.7'
p842
sg16
S'.000'
p843
sg17
S'0.0'
p844
sg18
S'11.5'
p845
sg20
g21
sg504
S'106'
p846
sg22
S'.719'
p847
sg26
S'NBA'
p848
sg28
S'1.4'
p849
sg30
S'9.9'
p850
sg32
S'9.6'
p851
sg34
S'4.9'
p852
sg36
S'10.5'
p853
sg38
S'30'
p854
sg40
S'MIL'
p855
sg42
S'62'
p856
sg44
S'1.0'
p857
sg46
S'4.0'
p858
sg48
S'3.5'
p859
sg50
S'9.8'
p860
sg52
S'7.1'
p861
sg54
S'1986-87'
p862
sg56
S'4.0'
p863
sg58
S'1.7'
p864
sg60
S'.406'
p865
sg62
S'626'
p866
sg64
g96
sba(isrc.gp1.models.Per100Possession
Per100Possession
p867
(dp868
g8
S'4.1'
p869
sg10
S'0.2'
p870
sg12
S'.476'
p871
sg499
S'101'
p872
sg14
S'1.3'
p873
sg16
S'.000'
p874
sg17
S'0.0'
p875
sg18
S'14.6'
p876
sg20
g21
sg504
S'105'
p877
sg22
S'.708'
p878
sg26
S'NBA'
p879
sg28
S'1.6'
p880
sg30
S'12.2'
p881
sg32
S'11.3'
p882
sg34
S'4.2'
p883
sg36
S'12.8'
p884
sg38
S'31'
p885
sg40
S'MIL'
p886
sg42
S'60'
p887
sg44
S'1.6'
p888
sg46
S'5.8'
p889
sg48
S'3.0'
p890
sg50
S'12.0'
p891
sg52
S'8.8'
p892
sg54
S'1987-88'
p893
sg56
S'5.8'
p894
sg58
S'2.8'
p895
sg60
S'.485'
p896
sg62
S'848'
p897
sg64
g11
sba(isrc.gp1.models.Per100Possession
Per100Possession
p898
(dp899
g8
S'4.4'
p900
sg10
S'1.8'
p901
sg12
S'.360'
p902
sg499
S'98'
p903
sg14
S'2.5'
p904
sg16
S'.269'
p905
sg17
S'0.5'
p906
sg18
S'11.6'
p907
sg20
g21
sg504
S'103'
p908
sg22
S'.784'
p909
sg26
S'NBA'
p910
sg28
S'2.0'
p911
sg30
S'11.6'
p912
sg32
S'10.8'
p913
sg34
S'3.6'
p914
sg36
S'13.2'
p915
sg38
S'32'
p916
sg40
S'MIL'
p917
sg42
S'74'
p918
sg44
S'1.5'
p919
sg46
S'3.7'
p920
sg48
S'2.8'
p921
sg50
S'9.7'
p922
sg52
S'8.8'
p923
sg54
S'1988-89'
p924
sg56
S'4.2'
p925
sg58
S'2.5'
p926
sg60
S'.377'
p927
sg62
S'690'
p928
sg64
g11
sba(isrc.gp1.models.Per100Possession
Per100Possession
p929
(dp930
g8
S'3.0'
p931
sg10
S'0.1'
p932
sg12
S'.420'
p933
sg499
S'92'
p934
sg14
S'1.9'
p935
sg16
S'.000'
p936
sg17
S'0.0'
p937
sg18
S'17.0'
p938
sg20
g21
sg504
S'107'
p939
sg22
S'.694'
p940
sg26
S'NBA'
p941
sg28
S'0.9'
p942
sg30
S'16.9'
p943
sg32
S'8.6'
p944
sg34
S'4.1'
p945
sg36
S'11.1'
p946
sg38
S'33'
p947
sg40
S'CLE'
p948
sg42
S'38'
p949
sg44
S'1.1'
p950
sg46
S'7.1'
p951
sg48
S'2.8'
p952
sg50
S'16.8'
p953
sg52
S'8.1'
p954
sg54
S'1989-90'
p955
sg56
S'7.1'
p956
sg58
S'2.9'
p957
sg60
S'.423'
p958
sg62
S'449'
p959
sg64
g29
sba(isrc.gp1.models.Per100Possession
Per100Possession
p960
(dp961
g8
S'3.6'
p962
sg10
S'1.6'
p963
sg12
S'.356'
p964
sg499
S'103'
p965
sg14
S'1.6'
p966
sg16
S'.333'
p967
sg17
S'0.5'
p968
sg18
S'10.3'
p969
sg20
g21
sg504
S'109'
p970
sg22
S'.800'
p971
sg26
S'NBA'
p972
sg28
S'1.4'
p973
sg30
S'10.6'
p974
sg32
S'10.5'
p975
sg34
S'2.7'
p976
sg36
S'12.1'
p977
sg38
S'34'
p978
sg40
S'GSW'
p979
sg42
S'36'
p980
sg44
S'0.5'
p981
sg46
S'3.2'
p982
sg48
S'2.2'
p983
sg50
S'9.0'
p984
sg52
S'8.5'
p985
sg54
S'1990-91'
p986
sg56
S'3.8'
p987
sg58
S'1.3'
p988
sg60
S'.360'
p989
sg62
S'257'
p990
sg64
g29
sbasS'_advanced'
p991
(lp992
(isrc.gp1.models.Advanced
Advanced
p993
(dp994
S'_offensiveReboundPercentage'
p995
S'13.3'
p996
sS'_turnOverPercentage'
p997
S'21.3'
p998
sS'_winSharesPer48Minutes'
p999
S'-0.041'
p1000
sS'_stealPercentage'
p1001
S'0.4'
p1002
sS'_usagePercentage'
p1003
S'16.4'
p1004
sS'_totalReboundsPercentage'
p1005
S'14.2'
p1006
sS'_defensiveBoxPlusMinus'
p1007
S'-1.6'
p1008
sg20
g21
sS'_valueOverReplacementPlayer'
p1009
S'-0.2'
p1010
sS'_trueShootingPercentage'
p1011
S'.392'
p1012
sS'_defensiveReboundPercentage'
p1013
S'15.1'
p1014
sS'_freeThrowsAttempRate'
p1015
S'.273'
p1016
sS'_threePointsAttempRate'
p1017
S'.000'
p1018
sg26
S'NBA'
p1019
sS'_offensiveBoxPlusMinues'
p1020
S'-6.1'
p1021
sS'_assistPercentage'
p1022
S'2.2'
p1023
sS'_defensiveWinShares'
p1024
S'0.1'
p1025
sg38
S'23'
p1026
sg40
S'HOU'
p1027
sg42
S'12'
p1028
sS'_blockPercentage'
p1029
S'3.0'
p1030
sS'_playerEfficiencyRating'
p1031
S'4.4'
p1032
sS'_offensiveWinShares'
p1033
S'-0.2'
p1034
sg62
S'113'
p1035
sS'_boxPlusMinus'
p1036
S'-7.7'
p1037
sg54
S'1979-80'
p1038
sS'_winShares'
p1039
S'-0.1'
p1040
sba(isrc.gp1.models.Advanced
Advanced
p1041
(dp1042
g995
S'8.5'
p1043
sg997
S'22.7'
p1044
sg999
S'.046'
p1045
sg1001
S'1.0'
p1046
sg1003
S'15.7'
p1047
sg1005
S'13.4'
p1048
sg1007
S'1.3'
p1049
sg20
g21
sg1009
S'0.1'
p1050
sg1011
S'.520'
p1051
sg1013
S'18.8'
p1052
sg1015
S'.437'
p1053
sg1017
S'.002'
p1054
sg26
S'NBA'
p1055
sg1020
S'-3.0'
p1056
sg1022
S'10.7'
p1057
sg1024
S'2.1'
p1058
sg38
S'24'
p1059
sg40
S'DET'
p1060
sg42
S'80'
p1061
sg1029
S'2.4'
p1062
sg1031
S'10.3'
p1063
sg1033
S'-0.4'
p1064
sg62
S'1815'
p1065
sg1036
S'-1.7'
p1066
sg54
S'1980-81'
p1067
sg1039
S'1.7'
p1068
sba(isrc.gp1.models.Advanced
Advanced
p1069
(dp1070
g995
S'7.2'
p1071
sg997
S'19.9'
p1072
sg999
S'.045'
p1073
sg1001
S'1.8'
p1074
sg1003
S'12.7'
p1075
sg1005
S'13.3'
p1076
sg1007
S'1.4'
p1077
sg20
g21
sg1009
S'-0.2'
p1078
sg1011
S'.489'
p1079
sg1013
S'19.9'
p1080
sg1015
S'.326'
p1081
sg1017
S'.016'
p1082
sg26
S'NBA'
p1083
sg1020
S'-4.2'
p1084
sg1022
S'5.1'
p1085
sg1024
S'1.0'
p1086
sg38
S'25'
p1087
sg40
S'TOT'
p1088
sg42
S'67'
p1089
sg1029
S'2.6'
p1090
sg1031
S'8.7'
p1091
sg1033
S'-0.2'
p1092
sg62
S'868'
p1093
sg1036
S'-2.8'
p1094
sg54
S'1981-82'
p1095
sg1039
S'0.8'
p1096
sba(isrc.gp1.models.Advanced
Advanced
p1097
(dp1098
g995
S'7.1'
p1099
sg997
S'23.7'
p1100
sg999
S'.031'
p1101
sg1001
S'1.1'
p1102
sg1003
S'12.3'
p1103
sg1005
S'12.8'
p1104
sg1007
S'1.1'
p1105
sg20
g21
sg1009
S'-0.2'
p1106
sg1011
S'.490'
p1107
sg1013
S'18.8'
p1108
sg1015
S'.297'
p1109
sg1017
S'.009'
p1110
sg26
S'NBA'
p1111
sg1020
S'-4.6'
p1112
sg1022
S'5.7'
p1113
sg1024
S'0.6'
p1114
sg38
S'25'
p1115
sg40
S'DET'
p1116
sg42
S'39'
p1117
sg1029
S'2.4'
p1118
sg1031
S'7.1'
p1119
sg1033
S'-0.3'
p1120
sg62
S'523'
p1121
sg1036
S'-3.4'
p1122
sg54
S'1981-82'
p1123
sg1039
S'0.3'
p1124
sba(isrc.gp1.models.Advanced
Advanced
p1125
(dp1126
g995
S'7.4'
p1127
sg997
S'14.4'
p1128
sg999
S'.066'
p1129
sg1001
S'2.8'
p1130
sg1003
S'13.3'
p1131
sg1005
S'14.1'
p1132
sg1007
S'1.8'
p1133
sg20
g21
sg1009
S'0.0'
p1134
sg1011
S'.488'
p1135
sg1013
S'21.6'
p1136
sg1015
S'.366'
p1137
sg1017
S'.024'
p1138
sg26
S'NBA'
p1139
sg1020
S'-3.6'
p1140
sg1022
S'4.2'
p1141
sg1024
S'0.4'
p1142
sg38
S'25'
p1143
sg40
S'CLE'
p1144
sg42
S'28'
p1145
sg1029
S'2.8'
p1146
sg1031
S'11.1'
p1147
sg1033
S'0.1'
p1148
sg62
S'345'
p1149
sg1036
S'-1.8'
p1150
sg54
S'1981-82'
p1151
sg1039
S'0.5'
p1152
sba(isrc.gp1.models.Advanced
Advanced
p1153
(dp1154
g995
S'7.6'
p1155
sg997
S'18.8'
p1156
sg999
S'.060'
p1157
sg1001
S'0.9'
p1158
sg1003
S'13.2'
p1159
sg1005
S'12.9'
p1160
sg1007
S'1.1'
p1161
sg20
g21
sg1009
S'-0.1'
p1162
sg1011
S'.497'
p1163
sg1013
S'18.1'
p1164
sg1015
S'.262'
p1165
sg1017
S'.004'
p1166
sg26
S'NBA'
p1167
sg1020
S'-3.6'
p1168
sg1022
S'5.8'
p1169
sg1024
S'1.4'
p1170
sg38
S'26'
p1171
sg40
S'TOT'
p1172
sg42
S'73'
p1173
sg1029
S'2.2'
p1174
sg1031
S'8.3'
p1175
sg1033
S'0.0'
p1176
sg62
S'1128'
p1177
sg1036
S'-2.5'
p1178
sg54
S'1982-83'
p1179
sg1039
S'1.4'
p1180
sba(isrc.gp1.models.Advanced
Advanced
p1181
(dp1182
g995
S'9.7'
p1183
sg997
S'16.9'
p1184
sg999
S'.057'
p1185
sg1001
S'1.1'
p1186
sg1003
S'12.4'
p1187
sg1005
S'14.6'
p1188
sg1007
S'1.7'
p1189
sg20
g21
sg1009
S'0.1'
p1190
sg1011
S'.476'
p1191
sg1013
S'19.7'
p1192
sg1015
S'.215'
p1193
sg1017
S'.000'
p1194
sg26
S'NBA'
p1195
sg1020
S'-2.8'
p1196
sg1022
S'6.7'
p1197
sg1024
S'0.6'
p1198
sg38
S'26'
p1199
sg40
S'CLE'
p1200
sg42
S'23'
p1201
sg1029
S'2.5'
p1202
sg1031
S'9.9'
p1203
sg1033
S'0.1'
p1204
sg62
S'539'
p1205
sg1036
S'-1.1'
p1206
sg54
S'1982-83'
p1207
sg1039
S'0.6'
p1208
sba(isrc.gp1.models.Advanced
Advanced
p1209
(dp1210
g995
S'5.7'
p1211
sg997
S'20.3'
p1212
sg999
S'.063'
p1213
sg1001
S'0.7'
p1214
sg1003
S'13.9'
p1215
sg1005
S'11.4'
p1216
sg1007
S'0.5'
p1217
sg20
g21
sg1009
S'-0.3'
p1218
sg1011
S'.514'
p1219
sg1013
S'16.6'
p1220
sg1015
S'.302'
p1221
sg1017
S'.007'
p1222
sg26
S'NBA'
p1223
sg1020
S'-4.3'
p1224
sg1022
S'5.1'
p1225
sg1024
S'0.9'
p1226
sg38
S'26'
p1227
sg40
S'MIL'
p1228
sg42
S'50'
p1229
sg1029
S'2.0'
p1230
sg1031
S'6.9'
p1231
sg1033
S'-0.1'
p1232
sg62
S'589'
p1233
sg1036
S'-3.8'
p1234
sg54
S'1982-83'
p1235
sg1039
S'0.8'
p1236
sba(isrc.gp1.models.Advanced
Advanced
p1237
(dp1238
g995
S'7.2'
p1239
sg997
S'15.2'
p1240
sg999
S'.090'
p1241
sg1001
S'0.7'
p1242
sg1003
S'14.6'
p1243
sg1005
S'11.3'
p1244
sg1007
S'0.6'
p1245
sg20
g21
sg1009
S'-0.1'
p1246
sg1011
S'.521'
p1247
sg1013
S'15.0'
p1248
sg1015
S'.338'
p1249
sg1017
S'.014'
p1250
sg26
S'NBA'
p1251
sg1020
S'-3.1'
p1252
sg1022
S'7.1'
p1253
sg1024
S'1.2'
p1254
sg38
S'27'
p1255
sg40
S'MIL'
p1256
sg42
S'68'
p1257
sg1029
S'2.0'
p1258
sg1031
S'8.9'
p1259
sg1033
S'0.4'
p1260
sg62
S'838'
p1261
sg1036
S'-2.5'
p1262
sg54
S'1983-84'
p1263
sg1039
S'1.6'
p1264
sba(isrc.gp1.models.Advanced
Advanced
p1265
(dp1266
g995
S'7.5'
p1267
sg997
S'15.0'
p1268
sg999
S'.102'
p1269
sg1001
S'0.8'
p1270
sg1003
S'14.5'
p1271
sg1005
S'14.3'
p1272
sg1007
S'1.2'
p1273
sg20
g21
sg1009
S'0.3'
p1274
sg1011
S'.511'
p1275
sg1013
S'21.1'
p1276
sg1015
S'.270'
p1277
sg1017
S'.005'
p1278
sg26
S'NBA'
p1279
sg1020
S'-2.6'
p1280
sg1022
S'8.1'
p1281
sg1024
S'2.6'
p1282
sg38
S'28'
p1283
sg40
S'MIL'
p1284
sg42
S'79'
p1285
sg1029
S'1.3'
p1286
sg1031
S'10.1'
p1287
sg1033
S'0.7'
p1288
sg62
S'1586'
p1289
sg1036
S'-1.4'
p1290
sg54
S'1984-85'
p1291
sg1039
S'3.4'
p1292
sba(isrc.gp1.models.Advanced
Advanced
p1293
(dp1294
g995
S'7.8'
p1295
sg997
S'14.0'
p1296
sg999
S'.079'
p1297
sg1001
S'0.5'
p1298
sg1003
S'13.8'
p1299
sg1005
S'14.9'
p1300
sg1007
S'0.2'
p1301
sg20
g21
sg1009
S'-0.2'
p1302
sg1011
S'.464'
p1303
sg1013
S'21.8'
p1304
sg1015
S'.245'
p1305
sg1017
S'.000'
p1306
sg26
S'NBA'
p1307
sg1020
S'-3.6'
p1308
sg1022
S'7.2'
p1309
sg1024
S'0.8'
p1310
sg38
S'29'
p1311
sg40
S'MIL'
p1312
sg42
S'45'
p1313
sg1029
S'0.7'
p1314
sg1031
S'7.9'
p1315
sg1033
S'0.1'
p1316
sg62
S'521'
p1317
sg1036
S'-3.4'
p1318
sg54
S'1985-86'
p1319
sg1039
S'0.9'
p1320
sba(isrc.gp1.models.Advanced
Advanced
p1321
(dp1322
g995
S'7.9'
p1323
sg997
S'12.3'
p1324
sg999
S'.081'
p1325
sg1001
S'1.4'
p1326
sg1003
S'11.7'
p1327
sg1005
S'12.3'
p1328
sg1007
S'0.6'
p1329
sg20
g21
sg1009
S'-0.2'
p1330
sg1011
S'.477'
p1331
sg1013
S'16.7'
p1332
sg1015
S'.496'
p1333
sg1017
S'.008'
p1334
sg26
S'NBA'
p1335
sg1020
S'-3.7'
p1336
sg1022
S'4.4'
p1337
sg1024
S'0.8'
p1338
sg38
S'30'
p1339
sg40
S'MIL'
p1340
sg42
S'62'
p1341
sg1029
S'1.3'
p1342
sg1031
S'7.4'
p1343
sg1033
S'0.2'
p1344
sg62
S'626'
p1345
sg1036
S'-3.0'
p1346
sg54
S'1986-87'
p1347
sg1039
S'1.1'
p1348
sba(isrc.gp1.models.Advanced
Advanced
p1349
(dp1350
g995
S'9.3'
p1351
sg997
S'16.9'
p1352
sg999
S'.073'
p1353
sg1001
S'1.6'
p1354
sg1003
S'14.4'
p1355
sg1005
S'14.7'
p1356
sg1007
S'0.6'
p1357
sg20
g21
sg1009
S'-0.2'
p1358
sg1011
S'.519'
p1359
sg1013
S'20.1'
p1360
sg1015
S'.343'
p1361
sg1017
S'.019'
p1362
sg26
S'NBA'
p1363
sg1020
S'-3.6'
p1364
sg1022
S'3.5'
p1365
sg1024
S'1.2'
p1366
sg38
S'31'
p1367
sg40
S'MIL'
p1368
sg42
S'60'
p1369
sg1029
S'1.9'
p1370
sg1031
S'8.8'
p1371
sg1033
S'0.1'
p1372
sg62
S'848'
p1373
sg1036
S'-3.0'
p1374
sg54
S'1987-88'
p1375
sg1039
S'1.3'
p1376
sba(isrc.gp1.models.Advanced
Advanced
p1377
(dp1378
g995
S'10.4'
p1379
sg997
S'15.8'
p1380
sg999
S'.072'
p1381
sg1001
S'2.0'
p1382
sg1003
S'13.3'
p1383
sg1005
S'15.7'
p1384
sg1007
S'1.5'
p1385
sg20
g21
sg1009
S'0.1'
p1386
sg1011
S'.443'
p1387
sg1013
S'21.1'
p1388
sg1015
S'.311'
p1389
sg1017
S'.159'
p1390
sg26
S'NBA'
p1391
sg1020
S'-3.2'
p1392
sg1022
S'6.7'
p1393
sg1024
S'1.1'
p1394
sg38
S'32'
p1395
sg40
S'MIL'
p1396
sg42
S'74'
p1397
sg1029
S'1.9'
p1398
sg1031
S'8.2'
p1399
sg1033
S'-0.1'
p1400
sg62
S'690'
p1401
sg1036
S'-1.7'
p1402
sg54
S'1988-89'
p1403
sg1039
S'1.0'
p1404
sba(isrc.gp1.models.Advanced
Advanced
p1405
(dp1406
g995
S'6.7'
p1407
sg997
S'13.6'
p1408
sg999
S'.018'
p1409
sg1001
S'0.9'
p1410
sg1003
S'18.5'
p1411
sg1005
S'12.4'
p1412
sg1007
S'-0.9'
p1413
sg20
g21
sg1009
S'-0.6'
p1414
sg1011
S'.455'
p1415
sg1013
S'18.1'
p1416
sg1015
S'.240'
p1417
sg1017
S'.007'
p1418
sg26
S'NBA'
p1419
sg1020
S'-5.9'
p1420
sg1022
S'5.7'
p1421
sg1024
S'0.5'
p1422
sg38
S'33'
p1423
sg40
S'CLE'
p1424
sg42
S'38'
p1425
sg1029
S'1.3'
p1426
sg1031
S'7.7'
p1427
sg1033
S'-0.4'
p1428
sg62
S'449'
p1429
sg1036
S'-6.9'
p1430
sg54
S'1989-90'
p1431
sg1039
S'0.2'
p1432
sba(isrc.gp1.models.Advanced
Advanced
p1433
(dp1434
g995
S'8.6'
p1435
sg997
S'9.6'
p1436
sg999
S'.056'
p1437
sg1001
S'1.4'
p1438
sg1003
S'11.3'
p1439
sg1005
S'14.4'
p1440
sg1007
S'-0.9'
p1441
sg20
g21
sg1009
S'-0.2'
p1442
sg1011
S'.434'
p1443
sg1013
S'20.1'
p1444
sg1015
S'.254'
p1445
sg1017
S'.153'
p1446
sg26
S'NBA'
p1447
sg1020
S'-3.6'
p1448
sg1022
S'4.3'
p1449
sg1024
S'0.2'
p1450
sg38
S'34'
p1451
sg40
S'GSW'
p1452
sg42
S'36'
p1453
sg1029
S'0.7'
p1454
sg1031
S'6.6'
p1455
sg1033
S'0.1'
p1456
sg62
S'257'
p1457
sg1036
S'-4.4'
p1458
sg54
S'1990-91'
p1459
sg1039
S'0.3'
p1460
sbasS'_per36Minutes'
p1461
(lp1462
(isrc.gp1.models.Per36Minutes
Per36Minutes
p1463
(dp1464
g8
S'4.5'
p1465
sg10
S'0.0'
p1466
sg12
S'.333'
p1467
sg14
S'0.6'
p1468
sg16
g3
sg17
S'0.0'
p1469
sg18
S'9.2'
p1470
sg20
g21
sg22
S'.778'
p1471
sg26
S'NBA'
p1472
sg28
S'0.3'
p1473
sg30
S'10.5'
p1474
sg32
S'7.6'
p1475
sg34
S'2.9'
p1476
sg36
S'9.2'
p1477
sg38
S'23'
p1478
sg40
S'HOU'
p1479
sg42
S'12'
p1480
sg44
S'1.9'
p1481
sg46
S'3.5'
p1482
sg48
S'2.2'
p1483
sg50
S'10.5'
p1484
sg52
S'4.8'
p1485
sg54
S'1979-80'
p1486
sg56
S'3.5'
p1487
sg58
S'3.2'
p1488
sg60
S'.333'
p1489
sg62
S'113'
p1490
sg64
g3
sba(isrc.gp1.models.Per36Minutes
Per36Minutes
p1491
(dp1492
g8
S'2.8'
p1493
sg10
S'0.0'
p1494
sg12
S'.489'
p1495
sg14
S'2.7'
p1496
sg16
S'.000'
p1497
sg17
S'0.0'
p1498
sg18
S'11.3'
p1499
sg20
g21
sg22
S'.600'
p1500
sg26
S'NBA'
p1501
sg28
S'0.8'
p1502
sg30
S'9.1'
p1503
sg32
S'5.3'
p1504
sg34
S'4.0'
p1505
sg36
S'8.3'
p1506
sg38
S'24'
p1507
sg40
S'DET'
p1508
sg42
S'80'
p1509
sg44
S'1.4'
p1510
sg46
S'4.4'
p1511
sg48
S'2.4'
p1512
sg50
S'9.1'
p1513
sg52
S'5.5'
p1514
sg54
S'1980-81'
p1515
sg56
S'4.4'
p1516
sg58
S'3.2'
p1517
sg60
S'.490'
p1518
sg62
S'1815'
p1519
sg64
g3
sba(isrc.gp1.models.Per36Minutes
Per36Minutes
p1520
(dp1521
g8
S'2.4'
p1522
sg10
S'0.1'
p1523
sg12
S'.435'
p1524
sg14
S'1.5'
p1525
sg16
S'.000'
p1526
sg17
S'0.0'
p1527
sg18
S'9.0'
p1528
sg20
g21
sg22
S'.762'
p1529
sg26
S'NBA'
p1530
sg28
S'1.4'
p1531
sg30
S'8.0'
p1532
sg32
S'7.1'
p1533
sg34
S'2.6'
p1534
sg36
S'8.6'
p1535
sg38
S'25'
p1536
sg40
S'TOT'
p1537
sg42
S'67'
p1538
sg44
S'1.7'
p1539
sg46
S'3.5'
p1540
sg48
S'2.0'
p1541
sg50
S'7.9'
p1542
sg52
S'6.2'
p1543
sg54
S'1981-82'
p1544
sg56
S'3.5'
p1545
sg58
S'2.3'
p1546
sg60
S'.442'
p1547
sg62
S'868'
p1548
sg64
g122
sba(isrc.gp1.models.Per36Minutes
Per36Minutes
p1549
(dp1550
g8
S'2.4'
p1551
sg10
S'0.1'
p1552
sg12
S'.441'
p1553
sg14
S'1.7'
p1554
sg16
S'.000'
p1555
sg17
S'0.0'
p1556
sg18
S'8.5'
p1557
sg20
g21
sg22
S'.758'
p1558
sg26
S'NBA'
p1559
sg28
S'0.9'
p1560
sg30
S'7.6'
p1561
sg32
S'7.1'
p1562
sg34
S'2.3'
p1563
sg36
S'8.4'
p1564
sg38
S'25'
p1565
sg40
S'DET'
p1566
sg42
S'39'
p1567
sg44
S'1.6'
p1568
sg46
S'3.4'
p1569
sg48
S'1.7'
p1570
sg50
S'7.6'
p1571
sg52
S'6.0'
p1572
sg54
S'1981-82'
p1573
sg56
S'3.4'
p1574
sg58
S'2.7'
p1575
sg60
S'.445'
p1576
sg62
S'523'
p1577
sg64
g96
sba(isrc.gp1.models.Per36Minutes
Per36Minutes
p1578
(dp1579
g8
S'2.5'
p1580
sg10
S'0.2'
p1581
sg12
S'.427'
p1582
sg14
S'1.1'
p1583
sg16
S'.000'
p1584
sg17
S'0.0'
p1585
sg18
S'9.7'
p1586
sg20
g21
sg22
S'.767'
p1587
sg26
S'NBA'
p1588
sg28
S'2.1'
p1589
sg30
S'8.6'
p1590
sg32
S'7.1'
p1591
sg34
S'3.1'
p1592
sg36
S'9.0'
p1593
sg38
S'25'
p1594
sg40
S'CLE'
p1595
sg42
S'28'
p1596
sg44
S'1.8'
p1597
sg46
S'3.7'
p1598
sg48
S'2.4'
p1599
sg50
S'8.3'
p1600
sg52
S'6.5'
p1601
sg54
S'1981-82'
p1602
sg56
S'3.7'
p1603
sg58
S'1.7'
p1604
sg60
S'.438'
p1605
sg62
S'345'
p1606
sg64
g29
sba(isrc.gp1.models.Per36Minutes
Per36Minutes
p1607
(dp1608
g8
S'2.4'
p1609
sg10
S'0.0'
p1610
sg12
S'.458'
p1611
sg14
S'1.6'
p1612
sg16
S'.000'
p1613
sg17
S'0.0'
p1614
sg18
S'9.2'
p1615
sg20
g21
sg22
S'.735'
p1616
sg26
S'NBA'
p1617
sg28
S'0.7'
p1618
sg30
S'8.3'
p1619
sg32
S'7.1'
p1620
sg34
S'2.2'
p1621
sg36
S'8.3'
p1622
sg38
S'26'
p1623
sg40
S'TOT'
p1624
sg42
S'73'
p1625
sg44
S'1.4'
p1626
sg46
S'3.8'
p1627
sg48
S'1.6'
p1628
sg50
S'8.3'
p1629
sg52
S'5.9'
p1630
sg54
S'1982-83'
p1631
sg56
S'3.8'
p1632
sg58
S'2.1'
p1633
sg60
S'.459'
p1634
sg62
S'1128'
p1635
sg64
S'19'
p1636
sba(isrc.gp1.models.Per36Minutes
Per36Minutes
p1637
(dp1638
g8
S'3.1'
p1639
sg10
S'0.0'
p1640
sg12
S'.455'
p1641
sg14
S'1.7'
p1642
sg16
g3
sg17
S'0.0'
p1643
sg18
S'8.4'
p1644
sg20
g21
sg22
S'.615'
p1645
sg26
S'NBA'
p1646
sg28
S'0.8'
p1647
sg30
S'8.1'
p1648
sg32
S'5.7'
p1649
sg34
S'1.7'
p1650
sg36
S'9.2'
p1651
sg38
S'26'
p1652
sg40
S'CLE'
p1653
sg42
S'23'
p1654
sg44
S'1.5'
p1655
sg46
S'3.7'
p1656
sg48
S'1.1'
p1657
sg50
S'8.1'
p1658
sg52
S'6.1'
p1659
sg54
S'1982-83'
p1660
sg56
S'3.7'
p1661
sg58
S'1.8'
p1662
sg60
S'.455'
p1663
sg62
S'539'
p1664
sg64
S'18'
p1665
sba(isrc.gp1.models.Per36Minutes
Per36Minutes
p1666
(dp1667
g8
S'1.8'
p1668
sg10
S'0.1'
p1669
sg12
S'.460'
p1670
sg14
S'1.4'
p1671
sg16
S'.000'
p1672
sg17
S'0.0'
p1673
sg18
S'9.9'
p1674
sg20
g21
sg22
S'.810'
p1675
sg26
S'NBA'
p1676
sg28
S'0.6'
p1677
sg30
S'8.5'
p1678
sg32
S'8.4'
p1679
sg34
S'2.6'
p1680
sg36
S'7.5'
p1681
sg38
S'26'
p1682
sg40
S'MIL'
p1683
sg42
S'50'
p1684
sg44
S'1.3'
p1685
sg46
S'3.9'
p1686
sg48
S'2.1'
p1687
sg50
S'8.4'
p1688
sg52
S'5.7'
p1689
sg54
S'1982-83'
p1690
sg56
S'3.9'
p1691
sg58
S'2.4'
p1692
sg60
S'.464'
p1693
sg62
S'589'
p1694
sg64
g29
sba(isrc.gp1.models.Per36Minutes
Per36Minutes
p1695
(dp1696
g8
S'2.2'
p1697
sg10
S'0.1'
p1698
sg12
S'.479'
p1699
sg14
S'1.9'
p1700
sg16
S'.333'
p1701
sg17
S'0.0'
p1702
sg18
S'11.0'
p1703
sg20
g21
sg22
S'.694'
p1704
sg26
S'NBA'
p1705
sg28
S'0.5'
p1706
sg30
S'9.2'
p1707
sg32
S'7.2'
p1708
sg34
S'3.1'
p1709
sg36
S'7.1'
p1710
sg38
S'27'
p1711
sg40
S'MIL'
p1712
sg42
S'68'
p1713
sg44
S'1.2'
p1714
sg46
S'4.3'
p1715
sg48
S'2.1'
p1716
sg50
S'9.0'
p1717
sg52
S'4.9'
p1718
sg54
S'1983-84'
p1719
sg56
S'4.4'
p1720
sg58
S'1.9'
p1721
sg60
S'.481'
p1722
sg62
S'838'
p1723
sg64
g122
sba(isrc.gp1.models.Per36Minutes
Per36Minutes
p1724
(dp1725
g8
S'2.4'
p1726
sg10
S'0.0'
p1727
sg12
S'.478'
p1728
sg14
S'2.2'
p1729
sg16
S'.000'
p1730
sg17
S'0.0'
p1731
sg18
S'11.1'
p1732
sg20
g21
sg22
S'.698'
p1733
sg26
S'NBA'
p1734
sg28
S'0.6'
p1735
sg30
S'9.7'
p1736
sg32
S'6.0'
p1737
sg34
S'2.6'
p1738
sg36
S'9.3'
p1739
sg38
S'28'
p1740
sg40
S'MIL'
p1741
sg42
S'79'
p1742
sg44
S'0.8'
p1743
sg46
S'4.7'
p1744
sg48
S'1.8'
p1745
sg50
S'9.7'
p1746
sg52
S'6.9'
p1747
sg54
S'1984-85'
p1748
sg56
S'4.7'
p1749
sg58
S'1.9'
p1750
sg60
S'.480'
p1751
sg62
S'1586'
p1752
sg64
g45
sba(isrc.gp1.models.Per36Minutes
Per36Minutes
p1753
(dp1754
g8
S'2.5'
p1755
sg10
S'0.0'
p1756
sg12
S'.424'
p1757
sg14
S'2.1'
p1758
sg16
g3
sg17
S'0.0'
p1759
sg18
S'9.9'
p1760
sg20
g21
sg22
S'.735'
p1761
sg26
S'NBA'
p1762
sg28
S'0.4'
p1763
sg30
S'9.6'
p1764
sg32
S'6.4'
p1765
sg34
S'2.3'
p1766
sg36
S'9.6'
p1767
sg38
S'29'
p1768
sg40
S'MIL'
p1769
sg42
S'45'
p1770
sg44
S'0.4'
p1771
sg46
S'4.1'
p1772
sg48
S'1.7'
p1773
sg50
S'9.6'
p1774
sg52
S'7.1'
p1775
sg54
S'1985-86'
p1776
sg56
S'4.1'
p1777
sg58
S'1.7'
p1778
sg60
S'.424'
p1779
sg62
S'521'
p1780
sg64
g11
sba(isrc.gp1.models.Per36Minutes
Per36Minutes
p1781
(dp1782
g8
S'2.6'
p1783
sg10
S'0.1'
p1784
sg12
S'.403'
p1785
sg14
S'1.3'
p1786
sg16
S'.000'
p1787
sg17
S'0.0'
p1788
sg18
S'8.6'
p1789
sg20
g21
sg22
S'.719'
p1790
sg26
S'NBA'
p1791
sg28
S'1.0'
p1792
sg30
S'7.4'
p1793
sg32
S'7.2'
p1794
sg34
S'3.7'
p1795
sg36
S'7.9'
p1796
sg38
S'30'
p1797
sg40
S'MIL'
p1798
sg42
S'62'
p1799
sg44
S'0.7'
p1800
sg46
S'3.0'
p1801
sg48
S'2.6'
p1802
sg50
S'7.4'
p1803
sg52
S'5.3'
p1804
sg54
S'1986-87'
p1805
sg56
S'3.0'
p1806
sg58
S'1.3'
p1807
sg60
S'.406'
p1808
sg62
S'626'
p1809
sg64
g96
sba(isrc.gp1.models.Per36Minutes
Per36Minutes
p1810
(dp1811
g8
S'3.0'
p1812
sg10
S'0.2'
p1813
sg12
S'.476'
p1814
sg14
S'0.9'
p1815
sg16
S'.000'
p1816
sg17
S'0.0'
p1817
sg18
S'10.7'
p1818
sg20
g21
sg22
S'.708'
p1819
sg26
S'NBA'
p1820
sg28
S'1.1'
p1821
sg30
S'8.9'
p1822
sg32
S'8.2'
p1823
sg34
S'3.1'
p1824
sg36
S'9.4'
p1825
sg38
S'31'
p1826
sg40
S'MIL'
p1827
sg42
S'60'
p1828
sg44
S'1.1'
p1829
sg46
S'4.2'
p1830
sg48
S'2.2'
p1831
sg50
S'8.7'
p1832
sg52
S'6.4'
p1833
sg54
S'1987-88'
p1834
sg56
S'4.2'
p1835
sg58
S'2.1'
p1836
sg60
S'.485'
p1837
sg62
S'848'
p1838
sg64
g11
sba(isrc.gp1.models.Per36Minutes
Per36Minutes
p1839
(dp1840
g8
S'3.3'
p1841
sg10
S'1.4'
p1842
sg12
S'.360'
p1843
sg14
S'1.9'
p1844
sg16
S'.269'
p1845
sg17
S'0.4'
p1846
sg18
S'8.6'
p1847
sg20
g21
sg22
S'.784'
p1848
sg26
S'NBA'
p1849
sg28
S'1.5'
p1850
sg30
S'8.6'
p1851
sg32
S'8.0'
p1852
sg34
S'2.7'
p1853
sg36
S'9.8'
p1854
sg38
S'32'
p1855
sg40
S'MIL'
p1856
sg42
S'74'
p1857
sg44
S'1.1'
p1858
sg46
S'2.7'
p1859
sg48
S'2.1'
p1860
sg50
S'7.2'
p1861
sg52
S'6.5'
p1862
sg54
S'1988-89'
p1863
sg56
S'3.1'
p1864
sg58
S'1.8'
p1865
sg60
S'.377'
p1866
sg62
S'690'
p1867
sg64
g11
sba(isrc.gp1.models.Per36Minutes
Per36Minutes
p1868
(dp1869
g8
S'2.2'
p1870
sg10
S'0.1'
p1871
sg12
S'.420'
p1872
sg14
S'1.4'
p1873
sg16
S'.000'
p1874
sg17
S'0.0'
p1875
sg18
S'12.1'
p1876
sg20
g21
sg22
S'.694'
p1877
sg26
S'NBA'
p1878
sg28
S'0.6'
p1879
sg30
S'12.0'
p1880
sg32
S'6.1'
p1881
sg34
S'2.9'
p1882
sg36
S'7.9'
p1883
sg38
S'33'
p1884
sg40
S'CLE'
p1885
sg42
S'38'
p1886
sg44
S'0.8'
p1887
sg46
S'5.1'
p1888
sg48
S'2.0'
p1889
sg50
S'11.9'
p1890
sg52
S'5.8'
p1891
sg54
S'1989-90'
p1892
sg56
S'5.1'
p1893
sg58
S'2.1'
p1894
sg60
S'.423'
p1895
sg62
S'449'
p1896
sg64
g29
sba(isrc.gp1.models.Per36Minutes
Per36Minutes
p1897
(dp1898
g8
S'2.8'
p1899
sg10
S'1.3'
p1900
sg12
S'.356'
p1901
sg14
S'1.3'
p1902
sg16
S'.333'
p1903
sg17
S'0.4'
p1904
sg18
S'8.0'
p1905
sg20
g21
sg22
S'.800'
p1906
sg26
S'NBA'
p1907
sg28
S'1.1'
p1908
sg30
S'8.3'
p1909
sg32
S'8.1'
p1910
sg34
S'2.1'
p1911
sg36
S'9.4'
p1912
sg38
S'34'
p1913
sg40
S'GSW'
p1914
sg42
S'36'
p1915
sg44
S'0.4'
p1916
sg46
S'2.5'
p1917
sg48
S'1.7'
p1918
sg50
S'7.0'
p1919
sg52
S'6.6'
p1920
sg54
S'1990-91'
p1921
sg56
S'2.9'
p1922
sg58
S'1.0'
p1923
sg60
S'.360'
p1924
sg62
S'257'
p1925
sg64
g29
sbasS'_fromYear'
p1926
S'1980'
p1927
sS'_url'
p1928
S'http://www.basketball-reference.com/players/m/mokespa01.html'
p1929
sS'_perGame'
p1930
(isrc.gp1.models.PerGame
PerGame
p1931
(dp1932
g8
S'0.6'
p1933
sg10
S'0.3'
p1934
sg12
S'.356'
p1935
sS'_effectiveFieldGalPercentage'
p1936
S'.381'
p1937
sg14
S'0.3'
p1938
sg16
S'.333'
p1939
sg17
S'0.1'
p1940
sg18
S'1.6'
p1941
sg20
g21
sg22
S'.800'
p1942
sg26
S'NBA'
p1943
sg28
S'0.2'
p1944
sg32
S'1.6'
p1945
sS'_fieldGoalsttempted'
p1946
S'1.6'
p1947
sg34
S'0.4'
p1948
sg36
S'1.9'
p1949
sg38
S'34'
p1950
sg40
S'GSW'
p1951
sg42
S'36'
p1952
sg44
S'0.1'
p1953
sg46
S'0.5'
p1954
sg48
S'0.3'
p1955
sg50
S'1.4'
p1956
sg52
S'1.3'
p1957
sg54
S'1990-91'
p1958
sg56
S'0.6'
p1959
sg58
S'0.2'
p1960
sg60
S'.360'
p1961
sg62
S'7.1'
p1962
sg64
g29
sbsS'_weight'
p1963
S'250'
p1964
sS'_dob'
p1965
S'3-1-1957'
p1966
sS'_salary'
p1967
(lp1968
(isrc.gp1.models.Salary
Salary
p1969
(dp1970
g40
S'Milwaukee Bucks'
p1971
sg26
S'NBA'
p1972
sg1967
S'$370,000'
p1973
sg54
S'1985-86'
p1974
sba(isrc.gp1.models.Salary
Salary
p1975
(dp1976
g40
S'Milwaukee Bucks'
p1977
sg26
S'NBA'
p1978
sg1967
S'$350,000'
p1979
sg54
S'1987-88'
p1980
sba(isrc.gp1.models.Salary
Salary
p1981
(dp1982
g40
S'Milwaukee Bucks'
p1983
sg26
S'NBA'
p1984
sg1967
S'$375,000'
p1985
sg54
S'1988-89'
p1986
sba(isrc.gp1.models.Salary
Salary
p1987
(dp1988
g40
S'Golden State Warriors'
p1989
sg26
S'NBA'
p1990
sg1967
S'$100,000'
p1991
sg54
S'1990-91'
p1992
sbasg20
S'C-F'
p1993
sb.