(isrc.gp1.models.Player
Player
p0
(dp1
S'_experience'
p2
S'NA'
p3
sS'_totals'
p4
(lp5
(isrc.gp1.models.Totals
Totals
p6
(dp7
S'_offensiveRebounds'
p8
g3
sS'_threePointsAttempted'
p9
S'.400'
p10
sS'_fieldGoalsPercentage'
p11
S'10'
p12
sS'_assist'
p13
g3
sS'_threePointsPercentage'
p14
S'4'
p15
sS'_threePoints'
p16
S'.400'
p17
sS'_points'
p18
g3
sS'_position'
p19
S'6'
p20
sS'_freeThrowsPercentage'
p21
g3
sS'_effectiveFieldGoalPercentage'
p22
S'1'
p23
sS'_league'
p24
S'NBA'
p25
sS'_steals'
p26
g3
sS'_fieldGoalsAttempted'
p27
g15
sS'_personalFouls'
p28
g3
sS'_freeThrowsAttempted'
p29
S'12'
p30
sS'_totalRebounds'
p31
g3
sS'_age'
p32
S'25'
p33
sS'_team'
p34
S'BOS'
p35
sS'_games'
p36
S'34'
p37
sS'_blocks'
p38
g3
sS'_twoPoints'
p39
S'5'
p40
sS'_freeThrows'
p41
S'7'
p42
sS'_twoPointsAttempted'
p43
S'.800'
p44
sS'_defensiveRebounds'
p45
g3
sS'_season'
p46
S'1952-53'
p47
sS'_fieldGoals'
p48
S'.400'
p49
sS'_turnOvers'
p50
g3
sS'_twoPointsPercentage'
p51
g42
sS'_minutesPlayed'
p52
S'10'
p53
sS'_gamesStarted'
p54
g15
sba(isrc.gp1.models.Totals
Totals
p55
(dp56
g8
g3
sg9
S'.000'
p57
sg11
S'2'
p58
sg13
g3
sg14
S'0'
p59
sg16
S'.000'
p60
sg18
g3
sg19
g58
sg21
g3
sg22
g59
sg24
S'NBA'
p61
sg26
g3
sg27
g59
sg28
g3
sg29
g3
sg31
g3
sg32
S'26'
p62
sg34
S'BLB'
p63
sg36
S'11'
p64
sg38
g3
sg39
g59
sg41
g59
sg43
g58
sg45
g3
sg46
S'1953-54'
p65
sg48
S'.000'
p66
sg50
g3
sg51
g23
sg52
g58
sg54
g59
sbasS'_college'
p67
S'Brown University'
p68
sS'_toYear'
p69
S'1954'
p70
sS'_height'
p71
S'6-2'
p72
sS'_active'
p73
I00
sS'_shootingHand'
p74
VRight
p75
sS'_name'
p76
S'Mo Mahoney'
p77
sS'_per100Possessions'
p78
(lp79
sS'_advanced'
p80
(lp81
(isrc.gp1.models.Advanced
Advanced
p82
(dp83
S'_offensiveReboundPercentage'
p84
S'0.1'
p85
sS'_turnOverPercentage'
p86
g3
sS'_winSharesPer48Minutes'
p87
g3
sS'_stealPercentage'
p88
g3
sS'_usagePercentage'
p89
g3
sS'_totalReboundsPercentage'
p90
g3
sS'_defensiveBoxPlusMinus'
p91
g3
sg19
g20
sS'_valueOverReplacementPlayer'
p92
g3
sS'_trueShootingPercentage'
p93
S'.500'
p94
sS'_defensiveReboundPercentage'
p95
S'.123'
p96
sS'_freeThrowsAttempRate'
p97
S'0.0'
p98
sS'_threePointsAttempRate'
p99
S'0.1'
p100
sg24
S'NBA'
p101
sS'_offensiveBoxPlusMinues'
p102
g3
sS'_assistPercentage'
p103
g3
sS'_defensiveWinShares'
p104
g3
sg32
S'25'
p105
sg34
S'BOS'
p106
sg36
S'34'
p107
sS'_blockPercentage'
p108
g3
sS'_playerEfficiencyRating'
p109
S'.492'
p110
sS'_offensiveWinShares'
p111
g3
sg52
S'12.3'
p112
sS'_boxPlusMinus'
p113
g3
sg46
S'1952-53'
p114
sS'_winShares'
p115
g3
sba(isrc.gp1.models.Advanced
Advanced
p116
(dp117
g84
S'-0.1'
p118
sg86
g3
sg87
g3
sg88
g3
sg89
g3
sg90
g3
sg91
g3
sg19
g58
sg92
g3
sg93
S'.000'
p119
sg95
S'-0.241'
p120
sg97
S'0.0'
p121
sg99
S'-0.1'
p122
sg24
S'NBA'
p123
sg102
g3
sg103
g3
sg104
g3
sg32
S'26'
p124
sg34
S'BLB'
p125
sg36
S'11'
p126
sg108
g3
sg109
S'.000'
p127
sg111
g3
sg52
S'0.6'
p128
sg113
g3
sg46
S'1953-54'
p129
sg115
g3
sbasS'_per36Minutes'
p130
(lp131
(isrc.gp1.models.Per36Minutes
Per36Minutes
p132
(dp133
g8
g3
sg9
S'4.2'
p134
sg11
S'10.6'
p135
sg13
g3
sg14
S'5.3'
p136
sg16
S'.400'
p137
sg18
g3
sg19
g20
sg21
g3
sg24
S'NBA'
p138
sg26
g3
sg27
S'4.2'
p139
sg28
g3
sg29
S'12.7'
p140
sg31
g3
sg32
S'25'
p141
sg34
S'BOS'
p142
sg36
S'34'
p143
sg38
g3
sg39
S'.800'
p144
sg41
S'7.4'
p145
sg43
S'7.4'
p146
sg45
g3
sg46
S'1952-53'
p147
sg48
S'.400'
p148
sg50
g3
sg51
S'1.1'
p149
sg52
S'10.6'
p150
sg54
S'4.2'
p151
sba(isrc.gp1.models.Per36Minutes
Per36Minutes
p152
(dp153
g8
g3
sg9
S'0.0'
p154
sg11
S'6.5'
p155
sg13
g3
sg14
S'0.0'
p156
sg16
S'.000'
p157
sg18
g3
sg19
g58
sg21
g3
sg24
S'NBA'
p158
sg26
g3
sg27
S'0.0'
p159
sg28
g3
sg29
g3
sg31
g3
sg32
S'26'
p160
sg34
S'BLB'
p161
sg36
S'11'
p162
sg38
g3
sg39
S'6.5'
p163
sg41
S'0.0'
p164
sg43
S'3.3'
p165
sg45
g3
sg46
S'1953-54'
p166
sg48
S'.000'
p167
sg50
g3
sg51
S'0.0'
p168
sg52
S'6.5'
p169
sg54
S'0.0'
p170
sbasS'_fromYear'
p171
S'1953'
p172
sS'_url'
p173
S'http://www.basketball-reference.com/players/m/mahonmo01.html'
p174
sS'_perGame'
p175
(isrc.gp1.models.PerGame
PerGame
p176
(dp177
g8
g3
sg9
S'.000'
p178
sg11
S'1.0'
p179
sS'_effectiveFieldGalPercentage'
p180
S'0.0'
p181
sg13
g3
sg14
S'0.0'
p182
sg16
S'.000'
p183
sg18
g3
sg19
g58
sg21
g3
sg24
S'NBA'
p184
sg26
g3
sg28
g3
sS'_fieldGoalsttempted'
p185
S'0.0'
p186
sg29
g3
sg31
g3
sg32
S'26'
p187
sg34
S'BLB'
p188
sg36
S'5.5'
p189
sg38
g3
sg39
S'0.0'
p190
sg41
S'0.0'
p191
sg43
S'1.0'
p192
sg45
g3
sg46
S'1953-54'
p193
sg48
S'.000'
p194
sg50
g3
sg51
S'0.5'
p195
sg52
S'1.0'
p196
sg54
S'0.0'
p197
sbsS'_weight'
p198
S'205'
p199
sS'_dob'
p200
S'20-11-1927'
p201
sS'_salary'
p202
(lp203
sg19
S'F'
p204
sb.