(isrc.gp1.models.Player
Player
p0
(dp1
S'_experience'
p2
S'NA'
p3
sS'_totals'
p4
(lp5
(isrc.gp1.models.Totals
Totals
p6
(dp7
S'_offensiveRebounds'
p8
S'11'
p9
sS'_threePointsAttempted'
p10
S'34'
p11
sS'_fieldGoalsPercentage'
p12
S'.333'
p13
sS'_assist'
p14
S'19'
p15
sS'_threePointsPercentage'
p16
S'.265'
p17
sS'_threePoints'
p18
S'9'
p19
sS'_points'
p20
S'77'
p21
sS'_position'
p22
S'SF'
p23
sS'_freeThrowsPercentage'
p24
S'.714'
p25
sS'_effectiveFieldGoalPercentage'
p26
S'.385'
p27
sS'_league'
p28
S'NBA'
p29
sS'_steals'
p30
S'7'
p31
sS'_fieldGoalsAttempted'
p32
S'87'
p33
sS'_personalFouls'
p34
S'41'
p35
sS'_freeThrowsAttempted'
p36
S'14'
p37
sS'_totalRebounds'
p38
S'52'
p39
sS'_age'
p40
S'22'
p41
sS'_team'
p42
S'TOT'
p43
sS'_games'
p44
S'26'
p45
sS'_blocks'
p46
S'5'
p47
sS'_twoPoints'
p48
S'20'
p49
sS'_freeThrows'
p50
S'10'
p51
sS'_twoPointsAttempted'
p52
S'53'
p53
sS'_defensiveRebounds'
p54
S'41'
p55
sS'_season'
p56
S'2005-06'
p57
sS'_fieldGoals'
p58
S'29'
p59
sS'_turnOvers'
p60
S'12'
p61
sS'_twoPointsPercentage'
p62
S'.377'
p63
sS'_minutesPlayed'
p64
S'343'
p65
sS'_gamesStarted'
p66
S'15'
p67
sba(isrc.gp1.models.Totals
Totals
p68
(dp69
g8
S'11'
p70
sg10
S'33'
p71
sg12
S'.341'
p72
sg14
S'19'
p73
sg16
S'.273'
p74
sg18
g19
sg20
S'75'
p75
sg22
S'SF'
p76
sg24
S'.667'
p77
sg26
S'.394'
p78
sg28
S'NBA'
p79
sg30
S'6'
p80
sg32
S'85'
p81
sg34
S'41'
p82
sg36
S'12'
p83
sg38
S'51'
p84
sg40
S'22'
p85
sg42
S'POR'
p86
sg44
S'23'
p87
sg46
g47
sg48
S'20'
p88
sg50
S'8'
p89
sg52
S'52'
p90
sg54
S'40'
p91
sg56
S'2005-06'
p92
sg58
S'29'
p93
sg60
S'12'
p94
sg62
S'.385'
p95
sg64
S'336'
p96
sg66
S'15'
p97
sba(isrc.gp1.models.Totals
Totals
p98
(dp99
g8
S'0'
p100
sg10
S'1'
p101
sg12
S'.000'
p102
sg14
g100
sg16
S'.000'
p103
sg18
g100
sg20
S'2'
p104
sg22
S'SF'
p105
sg24
S'1.000'
p106
sg26
S'.000'
p107
sg28
S'NBA'
p108
sg30
g101
sg32
g104
sg34
g100
sg36
g104
sg38
g101
sg40
S'22'
p109
sg42
S'SAC'
p110
sg44
S'3'
p111
sg46
g100
sg48
g100
sg50
g104
sg52
g101
sg54
g101
sg56
S'2005-06'
p112
sg58
g100
sg60
g100
sg62
S'.000'
p113
sg64
g31
sg66
g100
sbasS'_college'
p114
S'NA'
p115
sS'_toYear'
p116
S'2006'
p117
sS'_height'
p118
S'6-8'
p119
sS'_active'
p120
I00
sS'_shootingHand'
p121
VRight
p122
sS'_name'
p123
S'Sergei Monia'
p124
sS'_per100Possessions'
p125
(lp126
(isrc.gp1.models.Per100Possession
Per100Possession
p127
(dp128
g8
S'1.8'
p129
sg10
S'5.4'
p130
sg12
S'.333'
p131
sS'_offensiveRating'
p132
S'89'
p133
sg14
S'3.0'
p134
sg16
S'.265'
p135
sg18
S'1.4'
p136
sg20
S'12.3'
p137
sg22
S'SF'
p138
sS'_defensiveRating'
p139
S'113'
p140
sg24
S'.714'
p141
sg28
S'NBA'
p142
sg30
S'1.1'
p143
sg32
S'13.9'
p144
sg34
S'6.5'
p145
sg36
S'2.2'
p146
sg38
S'8.3'
p147
sg40
S'22'
p148
sg42
S'TOT'
p149
sg44
S'26'
p150
sg46
S'0.8'
p151
sg48
S'3.2'
p152
sg50
S'1.6'
p153
sg52
S'8.5'
p154
sg54
S'6.5'
p155
sg56
S'2005-06'
p156
sg58
S'4.6'
p157
sg60
S'1.9'
p158
sg62
S'.377'
p159
sg64
S'343'
p160
sg66
S'15'
p161
sba(isrc.gp1.models.Per100Possession
Per100Possession
p162
(dp163
g8
S'1.8'
p164
sg10
S'5.4'
p165
sg12
S'.341'
p166
sg132
S'89'
p167
sg14
S'3.1'
p168
sg16
S'.273'
p169
sg18
S'1.5'
p170
sg20
S'12.2'
p171
sg22
S'SF'
p172
sg139
S'113'
p173
sg24
S'.667'
p174
sg28
S'NBA'
p175
sg30
S'1.0'
p176
sg32
S'13.9'
p177
sg34
S'6.7'
p178
sg36
S'2.0'
p179
sg38
S'8.3'
p180
sg40
S'22'
p181
sg42
S'POR'
p182
sg44
S'23'
p183
sg46
S'0.8'
p184
sg48
S'3.3'
p185
sg50
S'1.3'
p186
sg52
S'8.5'
p187
sg54
S'6.5'
p188
sg56
S'2005-06'
p189
sg58
S'4.7'
p190
sg60
S'2.0'
p191
sg62
S'.385'
p192
sg64
S'336'
p193
sg66
S'15'
p194
sba(isrc.gp1.models.Per100Possession
Per100Possession
p195
(dp196
g8
S'0.0'
p197
sg10
S'7.5'
p198
sg12
S'.000'
p199
sg132
S'85'
p200
sg14
S'0.0'
p201
sg16
S'.000'
p202
sg18
S'0.0'
p203
sg20
S'14.9'
p204
sg22
S'SF'
p205
sg139
S'93'
p206
sg24
S'1.000'
p207
sg28
S'NBA'
p208
sg30
S'7.5'
p209
sg32
S'14.9'
p210
sg34
S'0.0'
p211
sg36
S'14.9'
p212
sg38
S'7.5'
p213
sg40
S'22'
p214
sg42
S'SAC'
p215
sg44
g111
sg46
S'0.0'
p216
sg48
S'0.0'
p217
sg50
S'14.9'
p218
sg52
S'7.5'
p219
sg54
S'7.5'
p220
sg56
S'2005-06'
p221
sg58
S'0.0'
p222
sg60
S'0.0'
p223
sg62
S'.000'
p224
sg64
g31
sg66
g100
sbasS'_advanced'
p225
(lp226
(isrc.gp1.models.Advanced
Advanced
p227
(dp228
S'_offensiveReboundPercentage'
p229
S'3.8'
p230
sS'_turnOverPercentage'
p231
S'11.4'
p232
sS'_winSharesPer48Minutes'
p233
S'-0.025'
p234
sS'_stealPercentage'
p235
S'1.1'
p236
sS'_usagePercentage'
p237
S'14.5'
p238
sS'_totalReboundsPercentage'
p239
S'9.1'
p240
sS'_defensiveBoxPlusMinus'
p241
S'-1.5'
p242
sg22
S'SF'
p243
sS'_valueOverReplacementPlayer'
p244
S'-0.3'
p245
sS'_trueShootingPercentage'
p246
S'.413'
p247
sS'_defensiveReboundPercentage'
p248
S'14.6'
p249
sS'_freeThrowsAttempRate'
p250
S'.161'
p251
sS'_threePointsAttempRate'
p252
S'.391'
p253
sg28
S'NBA'
p254
sS'_offensiveBoxPlusMinues'
p255
S'-3.7'
p256
sS'_assistPercentage'
p257
S'8.9'
p258
sS'_defensiveWinShares'
p259
S'0.1'
p260
sg40
S'22'
p261
sg42
S'TOT'
p262
sg44
S'26'
p263
sS'_blockPercentage'
p264
S'1.1'
p265
sS'_playerEfficiencyRating'
p266
S'6.3'
p267
sS'_offensiveWinShares'
p268
S'-0.3'
p269
sg64
S'343'
p270
sS'_boxPlusMinus'
p271
S'-5.1'
p272
sg56
S'2005-06'
p273
sS'_winShares'
p274
S'-0.2'
p275
sba(isrc.gp1.models.Advanced
Advanced
p276
(dp277
g229
S'3.9'
p278
sg231
S'11.7'
p279
sg233
S'-0.026'
p280
sg235
S'1.0'
p281
sg237
S'14.4'
p282
sg239
S'9.1'
p283
sg241
S'-1.5'
p284
sg22
S'SF'
p285
sg244
S'-0.3'
p286
sg246
S'.415'
p287
sg248
S'14.5'
p288
sg250
S'.141'
p289
sg252
S'.388'
p290
sg28
S'NBA'
p291
sg255
S'-3.6'
p292
sg257
S'9.1'
p293
sg259
S'0.1'
p294
sg40
S'22'
p295
sg42
S'POR'
p296
sg44
S'23'
p297
sg264
S'1.1'
p298
sg266
S'6.2'
p299
sg268
S'-0.2'
p300
sg64
S'336'
p301
sg271
S'-5.1'
p302
sg56
S'2005-06'
p303
sg274
S'-0.2'
p304
sba(isrc.gp1.models.Advanced
Advanced
p305
(dp306
g229
S'0.0'
p307
sg231
S'0.0'
p308
sg233
S'.062'
p309
sg235
S'7.5'
p310
sg237
S'18.9'
p311
sg239
S'8.4'
p312
sg241
S'-0.2'
p313
sg22
S'SF'
p314
sg244
S'0.0'
p315
sg246
S'.347'
p316
sg248
S'16.5'
p317
sg250
S'1.000'
p318
sg252
S'.500'
p319
sg28
S'NBA'
p320
sg255
S'-6.0'
p321
sg257
S'0.0'
p322
sg259
S'0.0'
p323
sg40
S'22'
p324
sg42
S'SAC'
p325
sg44
g111
sg264
S'0.0'
p326
sg266
S'12.1'
p327
sg268
S'0.0'
p328
sg64
g31
sg271
S'-6.2'
p329
sg56
S'2005-06'
p330
sg274
S'0.0'
p331
sbasS'_per36Minutes'
p332
(lp333
(isrc.gp1.models.Per36Minutes
Per36Minutes
p334
(dp335
g8
S'1.2'
p336
sg10
S'3.6'
p337
sg12
S'.333'
p338
sg14
S'2.0'
p339
sg16
S'.265'
p340
sg18
S'0.9'
p341
sg20
S'8.1'
p342
sg22
S'SF'
p343
sg24
S'.714'
p344
sg28
S'NBA'
p345
sg30
S'0.7'
p346
sg32
S'9.1'
p347
sg34
S'4.3'
p348
sg36
S'1.5'
p349
sg38
S'5.5'
p350
sg40
S'22'
p351
sg42
S'TOT'
p352
sg44
S'26'
p353
sg46
S'0.5'
p354
sg48
S'2.1'
p355
sg50
S'1.0'
p356
sg52
S'5.6'
p357
sg54
S'4.3'
p358
sg56
S'2005-06'
p359
sg58
S'3.0'
p360
sg60
S'1.3'
p361
sg62
S'.377'
p362
sg64
S'343'
p363
sg66
S'15'
p364
sba(isrc.gp1.models.Per36Minutes
Per36Minutes
p365
(dp366
g8
S'1.2'
p367
sg10
S'3.5'
p368
sg12
S'.341'
p369
sg14
S'2.0'
p370
sg16
S'.273'
p371
sg18
S'1.0'
p372
sg20
S'8.0'
p373
sg22
S'SF'
p374
sg24
S'.667'
p375
sg28
S'NBA'
p376
sg30
S'0.6'
p377
sg32
S'9.1'
p378
sg34
S'4.4'
p379
sg36
S'1.3'
p380
sg38
S'5.5'
p381
sg40
S'22'
p382
sg42
S'POR'
p383
sg44
S'23'
p384
sg46
S'0.5'
p385
sg48
S'2.1'
p386
sg50
S'0.9'
p387
sg52
S'5.6'
p388
sg54
S'4.3'
p389
sg56
S'2005-06'
p390
sg58
S'3.1'
p391
sg60
S'1.3'
p392
sg62
S'.385'
p393
sg64
S'336'
p394
sg66
S'15'
p395
sba(isrc.gp1.models.Per36Minutes
Per36Minutes
p396
(dp397
g8
S'0.0'
p398
sg10
S'5.1'
p399
sg12
S'.000'
p400
sg14
S'0.0'
p401
sg16
S'.000'
p402
sg18
S'0.0'
p403
sg20
S'10.3'
p404
sg22
S'SF'
p405
sg24
S'1.000'
p406
sg28
S'NBA'
p407
sg30
S'5.1'
p408
sg32
S'10.3'
p409
sg34
S'0.0'
p410
sg36
S'10.3'
p411
sg38
S'5.1'
p412
sg40
S'22'
p413
sg42
S'SAC'
p414
sg44
g111
sg46
S'0.0'
p415
sg48
S'0.0'
p416
sg50
S'10.3'
p417
sg52
S'5.1'
p418
sg54
S'5.1'
p419
sg56
S'2005-06'
p420
sg58
S'0.0'
p421
sg60
S'0.0'
p422
sg62
S'.000'
p423
sg64
g31
sg66
g100
sbasS'_fromYear'
p424
S'2006'
p425
sS'_url'
p426
S'http://www.basketball-reference.com/players/m/moniase01.html'
p427
sS'_perGame'
p428
(isrc.gp1.models.PerGame
PerGame
p429
(dp430
g8
S'0.0'
p431
sg10
S'0.3'
p432
sg12
S'.000'
p433
sS'_effectiveFieldGalPercentage'
p434
S'.000'
p435
sg14
S'0.0'
p436
sg16
S'.000'
p437
sg18
S'0.0'
p438
sg20
S'0.7'
p439
sg22
S'SF'
p440
sg24
S'1.000'
p441
sg28
S'NBA'
p442
sg30
S'0.3'
p443
sg34
S'0.0'
p444
sS'_fieldGoalsttempted'
p445
S'0.7'
p446
sg36
S'0.7'
p447
sg38
S'0.3'
p448
sg40
S'22'
p449
sg42
S'SAC'
p450
sg44
g111
sg46
S'0.0'
p451
sg48
S'0.0'
p452
sg50
S'0.7'
p453
sg52
S'0.3'
p454
sg54
S'0.3'
p455
sg56
S'2005-06'
p456
sg58
S'0.0'
p457
sg60
S'0.0'
p458
sg62
S'.000'
p459
sg64
S'2.3'
p460
sg66
g100
sbsS'_weight'
p461
S'220'
p462
sS'_dob'
p463
S'15-4-1983'
p464
sS'_salary'
p465
(lp466
(isrc.gp1.models.Salary
Salary
p467
(dp468
g42
S'Portland Trail Blazers'
p469
sg28
S'NBA'
p470
sg465
S'$1,016,400'
p471
sg56
S'2005-06'
p472
sba(isrc.gp1.models.Salary
Salary
p473
(dp474
g42
S'Sacramento Kings'
p475
sg28
S'NBA'
p476
sg465
S'$100,000'
p477
sg56
S'2006-07'
p478
sbasg22
S'F'
p479
sb.