(isrc.gp1.models.Player
Player
p0
(dp1
S'_experience'
p2
S'NA'
p3
sS'_totals'
p4
(lp5
(isrc.gp1.models.Totals
Totals
p6
(dp7
S'_offensiveRebounds'
p8
g3
sS'_threePointsAttempted'
p9
g3
sS'_fieldGoalsPercentage'
p10
S'.443'
p11
sS'_assist'
p12
S'68'
p13
sS'_threePointsPercentage'
p14
g3
sS'_threePoints'
p15
g3
sS'_points'
p16
S'570'
p17
sS'_position'
p18
S'C'
p19
sS'_freeThrowsPercentage'
p20
S'.524'
p21
sS'_effectiveFieldGoalPercentage'
p22
S'.443'
p23
sS'_league'
p24
S'NBA'
p25
sS'_steals'
p26
g3
sS'_fieldGoalsAttempted'
p27
S'544'
p28
sS'_personalFouls'
p29
S'182'
p30
sS'_freeThrowsAttempted'
p31
S'168'
p32
sS'_totalRebounds'
p33
S'524'
p34
sS'_age'
p35
S'22'
p36
sS'_team'
p37
S'DET'
p38
sS'_games'
p39
S'74'
p40
sS'_blocks'
p41
g3
sS'_twoPoints'
p42
S'241'
p43
sS'_freeThrows'
p44
S'88'
p45
sS'_twoPointsAttempted'
p46
S'544'
p47
sS'_defensiveRebounds'
p48
g3
sS'_season'
p49
S'1968-69'
p50
sS'_fieldGoals'
p51
S'241'
p52
sS'_turnOvers'
p53
g3
sS'_twoPointsPercentage'
p54
S'.443'
p55
sS'_minutesPlayed'
p56
S'1605'
p57
sS'_gamesStarted'
p58
g3
sba(isrc.gp1.models.Totals
Totals
p59
(dp60
g8
g3
sg9
g3
sg10
S'.476'
p61
sg12
S'104'
p62
sg14
g3
sg15
g3
sg16
S'960'
p63
sg18
g19
sg20
S'.636'
p64
sg22
S'.476'
p65
sg24
S'NBA'
p66
sg26
g3
sg27
S'805'
p67
sg29
S'232'
p68
sg31
S'305'
p69
sg33
S'900'
p70
sg35
S'23'
p71
sg37
S'DET'
p72
sg39
S'81'
p73
sg41
g3
sg42
S'383'
p74
sg44
S'194'
p75
sg46
S'805'
p76
sg48
g3
sg49
S'1969-70'
p77
sg51
S'383'
p78
sg53
g3
sg54
S'.476'
p79
sg56
S'2523'
p80
sg58
g3
sba(isrc.gp1.models.Totals
Totals
p81
(dp82
g8
g3
sg9
g3
sg10
S'.445'
p83
sg12
S'88'
p84
sg14
g3
sg15
g3
sg16
S'741'
p85
sg18
g19
sg20
S'.553'
p86
sg22
S'.445'
p87
sg24
S'NBA'
p88
sg26
g3
sg27
S'696'
p89
sg29
S'182'
p90
sg31
S'219'
p91
sg33
S'700'
p92
sg35
S'24'
p93
sg37
S'DET'
p94
sg39
S'82'
p95
sg41
g3
sg42
S'310'
p96
sg44
S'121'
p97
sg46
S'696'
p98
sg48
g3
sg49
S'1970-71'
p99
sg51
S'310'
p100
sg53
g3
sg54
S'.445'
p101
sg56
S'1926'
p102
sg58
g3
sba(isrc.gp1.models.Totals
Totals
p103
(dp104
g8
g3
sg9
g3
sg10
S'.436'
p105
sg12
S'88'
p106
sg14
g3
sg15
g3
sg16
S'614'
p107
sg18
g19
sg20
S'.603'
p108
sg22
S'.436'
p109
sg24
S'NBA'
p110
sg26
g3
sg27
S'597'
p111
sg29
S'212'
p112
sg31
S'156'
p113
sg33
S'540'
p114
sg35
S'25'
p115
sg37
S'PHO'
p116
sg39
S'81'
p117
sg41
g3
sg42
S'260'
p118
sg44
S'94'
p119
sg46
S'597'
p120
sg48
g3
sg49
S'1971-72'
p121
sg51
S'260'
p122
sg53
g3
sg54
S'.436'
p123
sg56
S'1624'
p124
sg58
g3
sba(isrc.gp1.models.Totals
Totals
p125
(dp126
g8
g3
sg9
g3
sg10
S'.487'
p127
sg12
S'167'
p128
sg14
g3
sg15
g3
sg16
S'963'
p129
sg18
g19
sg20
S'.602'
p130
sg22
S'.487'
p131
sg24
S'NBA'
p132
sg26
g3
sg27
S'859'
p133
sg29
S'239'
p134
sg31
S'211'
p135
sg33
S'868'
p136
sg35
S'26'
p137
sg37
S'HOU'
p138
sg39
S'82'
p139
sg41
g3
sg42
S'418'
p140
sg44
S'127'
p141
sg46
S'859'
p142
sg48
g3
sg49
S'1972-73'
p143
sg51
S'418'
p144
sg53
g3
sg54
S'.487'
p145
sg56
S'2712'
p146
sg58
g3
sba(isrc.gp1.models.Totals
Totals
p147
(dp148
g8
S'80'
p149
sg9
g3
sg10
S'.500'
p150
sg12
S'65'
p151
sg14
g3
sg15
g3
sg16
S'279'
p152
sg18
g19
sg20
S'.629'
p153
sg22
S'.500'
p154
sg24
S'NBA'
p155
sg26
S'26'
p156
sg27
S'240'
p157
sg29
S'99'
p158
sg31
S'62'
p159
sg33
S'284'
p160
sg35
S'27'
p161
sg37
S'TOT'
p162
sg39
S'78'
p163
sg41
S'49'
p164
sg42
S'120'
p165
sg44
S'39'
p166
sg46
S'240'
p167
sg48
S'204'
p168
sg49
S'1973-74'
p169
sg51
S'120'
p170
sg53
g3
sg54
S'.500'
p171
sg56
S'946'
p172
sg58
g3
sba(isrc.gp1.models.Totals
Totals
p173
(dp174
g8
S'20'
p175
sg9
g3
sg10
S'.464'
p176
sg12
S'18'
p177
sg14
g3
sg15
g3
sg16
S'68'
p178
sg18
g19
sg20
S'.500'
p179
sg22
S'.464'
p180
sg24
S'NBA'
p181
sg26
S'10'
p182
sg27
S'69'
p183
sg29
S'37'
p184
sg31
S'8'
p185
sg33
S'84'
p186
sg35
S'27'
p187
sg37
S'HOU'
p188
sg39
S'13'
p189
sg41
S'18'
p190
sg42
S'32'
p191
sg44
S'4'
p192
sg46
S'69'
p193
sg48
S'64'
p194
sg49
S'1973-74'
p195
sg51
S'32'
p196
sg53
g3
sg54
S'.464'
p197
sg56
S'313'
p198
sg58
g3
sba(isrc.gp1.models.Totals
Totals
p199
(dp200
g8
S'60'
p201
sg9
g3
sg10
S'.515'
p202
sg12
S'47'
p203
sg14
g3
sg15
g3
sg16
S'211'
p204
sg18
g19
sg20
S'.648'
p205
sg22
S'.515'
p206
sg24
S'NBA'
p207
sg26
S'16'
p208
sg27
S'171'
p209
sg29
S'62'
p210
sg31
S'54'
p211
sg33
S'200'
p212
sg35
S'27'
p213
sg37
S'KCO'
p214
sg39
S'65'
p215
sg41
S'31'
p216
sg42
S'88'
p217
sg44
S'35'
p218
sg46
S'171'
p219
sg48
S'140'
p220
sg49
S'1973-74'
p221
sg51
S'88'
p222
sg53
g3
sg54
S'.515'
p223
sg56
S'633'
p224
sg58
g3
sba(isrc.gp1.models.Totals
Totals
p225
(dp226
g8
S'92'
p227
sg9
g3
sg10
S'.450'
p228
sg12
S'83'
p229
sg14
g3
sg15
g3
sg16
S'282'
p230
sg18
g19
sg20
S'.667'
p231
sg22
S'.450'
p232
sg24
S'NBA'
p233
sg26
S'21'
p234
sg27
S'262'
p235
sg29
S'148'
p236
sg31
S'69'
p237
sg33
S'330'
p238
sg35
S'28'
p239
sg37
S'TOT'
p240
sg39
S'42'
p241
sg41
S'40'
p242
sg42
S'118'
p243
sg44
S'46'
p244
sg46
S'262'
p245
sg48
S'238'
p246
sg49
S'1974-75'
p247
sg51
S'118'
p248
sg53
g3
sg54
S'.450'
p249
sg56
S'1066'
p250
sg58
g3
sba(isrc.gp1.models.Totals
Totals
p251
(dp252
g8
S'0'
p253
sg9
g3
sg10
S'.250'
p254
sg12
S'1'
p255
sg14
g3
sg15
g3
sg16
S'3'
p256
sg18
g19
sg20
S'.500'
p257
sg22
S'.250'
p258
sg24
S'NBA'
p259
sg26
g253
sg27
g192
sg29
S'2'
p260
sg31
g260
sg33
g260
sg35
S'28'
p261
sg37
S'DET'
p262
sg39
g260
sg41
g255
sg42
g255
sg44
g255
sg46
g192
sg48
g260
sg49
S'1974-75'
p263
sg51
g255
sg53
g3
sg54
S'.250'
p264
sg56
S'11'
p265
sg58
g3
sba(isrc.gp1.models.Totals
Totals
p266
(dp267
g8
S'92'
p268
sg9
g3
sg10
S'.453'
p269
sg12
S'82'
p270
sg14
g3
sg15
g3
sg16
S'279'
p271
sg18
g19
sg20
S'.672'
p272
sg22
S'.453'
p273
sg24
S'NBA'
p274
sg26
S'21'
p275
sg27
S'258'
p276
sg29
S'146'
p277
sg31
S'67'
p278
sg33
S'328'
p279
sg35
S'28'
p280
sg37
S'NOJ'
p281
sg39
S'40'
p282
sg41
S'39'
p283
sg42
S'117'
p284
sg44
S'45'
p285
sg46
S'258'
p286
sg48
S'236'
p287
sg49
S'1974-75'
p288
sg51
S'117'
p289
sg53
g3
sg54
S'.453'
p290
sg56
S'1055'
p291
sg58
g3
sba(isrc.gp1.models.Totals
Totals
p292
(dp293
g8
S'162'
p294
sg9
g3
sg10
S'.436'
p295
sg12
S'216'
p296
sg14
g3
sg15
g3
sg16
S'730'
p297
sg18
g19
sg20
S'.637'
p298
sg22
S'.436'
p299
sg24
S'NBA'
p300
sg26
S'85'
p301
sg27
S'672'
p302
sg29
S'250'
p303
sg31
S'226'
p304
sg33
S'793'
p305
sg35
S'29'
p306
sg37
S'NOJ'
p307
sg39
S'81'
p308
sg41
S'136'
p309
sg42
S'293'
p310
sg44
S'144'
p311
sg46
S'672'
p312
sg48
S'631'
p313
sg49
S'1975-76'
p314
sg51
S'293'
p315
sg53
g3
sg54
S'.436'
p316
sg56
S'2407'
p317
sg58
g3
sba(isrc.gp1.models.Totals
Totals
p318
(dp319
g8
S'170'
p320
sg9
g3
sg10
S'.405'
p321
sg12
S'181'
p322
sg14
g3
sg15
g3
sg16
S'477'
p323
sg18
g19
sg20
S'.679'
p324
sg22
S'.405'
p325
sg24
S'NBA'
p326
sg26
S'54'
p327
sg27
S'477'
p328
sg29
S'231'
p329
sg31
S'134'
p330
sg33
S'636'
p331
sg35
S'30'
p332
sg37
S'NOJ'
p333
sg39
S'81'
p334
sg41
S'117'
p335
sg42
S'193'
p336
sg44
S'91'
p337
sg46
S'477'
p338
sg48
S'466'
p339
sg49
S'1976-77'
p340
sg51
S'193'
p341
sg53
g3
sg54
S'.405'
p342
sg56
S'2084'
p343
sg58
g3
sbasS'_college'
p344
S'University of Texas-Pan American'
p345
sS'_toYear'
p346
S'1977'
p347
sS'_height'
p348
S'6-11'
p349
sS'_active'
p350
I00
sS'_shootingHand'
p351
VRight
p352
sS'_name'
p353
S'Otto Moore'
p354
sS'_per100Possessions'
p355
(lp356
(isrc.gp1.models.Per100Possession
Per100Possession
p357
(dp358
g8
S'3.8'
p359
sg9
g3
sg10
S'.500'
p360
sS'_offensiveRating'
p361
g3
sg12
S'3.1'
p362
sg14
g3
sg15
g3
sg16
S'13.3'
p363
sg18
g19
sS'_defensiveRating'
p364
S'97'
p365
sg20
S'.629'
p366
sg24
S'NBA'
p367
sg26
S'1.2'
p368
sg27
S'11.5'
p369
sg29
S'4.7'
p370
sg31
S'3.0'
p371
sg33
S'13.6'
p372
sg35
S'27'
p373
sg37
S'TOT'
p374
sg39
S'78'
p375
sg41
S'2.3'
p376
sg42
S'5.7'
p377
sg44
S'1.9'
p378
sg46
S'11.5'
p379
sg48
S'9.8'
p380
sg49
S'1973-74'
p381
sg51
S'5.7'
p382
sg53
g3
sg54
S'.500'
p383
sg56
S'946'
p384
sg58
g3
sba(isrc.gp1.models.Per100Possession
Per100Possession
p385
(dp386
g8
S'2.9'
p387
sg9
g3
sg10
S'.464'
p388
sg361
g3
sg12
S'2.6'
p389
sg14
g3
sg15
g3
sg16
S'9.8'
p390
sg18
g19
sg364
S'97'
p391
sg20
S'.500'
p392
sg24
S'NBA'
p393
sg26
S'1.4'
p394
sg27
S'10.0'
p395
sg29
S'5.3'
p396
sg31
S'1.2'
p397
sg33
S'12.1'
p398
sg35
S'27'
p399
sg37
S'HOU'
p400
sg39
S'13'
p401
sg41
S'2.6'
p402
sg42
S'4.6'
p403
sg44
S'0.6'
p404
sg46
S'10.0'
p405
sg48
S'9.2'
p406
sg49
S'1973-74'
p407
sg51
S'4.6'
p408
sg53
g3
sg54
S'.464'
p409
sg56
S'313'
p410
sg58
g3
sba(isrc.gp1.models.Per100Possession
Per100Possession
p411
(dp412
g8
S'4.3'
p413
sg9
g3
sg10
S'.515'
p414
sg361
g3
sg12
S'3.4'
p415
sg14
g3
sg15
g3
sg16
S'15.1'
p416
sg18
g19
sg364
S'97'
p417
sg20
S'.648'
p418
sg24
S'NBA'
p419
sg26
S'1.1'
p420
sg27
S'12.2'
p421
sg29
S'4.4'
p422
sg31
S'3.9'
p423
sg33
S'14.3'
p424
sg35
S'27'
p425
sg37
S'KCO'
p426
sg39
S'65'
p427
sg41
S'2.2'
p428
sg42
S'6.3'
p429
sg44
S'2.5'
p430
sg46
S'12.2'
p431
sg48
S'10.0'
p432
sg49
S'1973-74'
p433
sg51
S'6.3'
p434
sg53
g3
sg54
S'.515'
p435
sg56
S'633'
p436
sg58
g3
sba(isrc.gp1.models.Per100Possession
Per100Possession
p437
(dp438
g8
S'3.8'
p439
sg9
g3
sg10
S'.450'
p440
sg361
g3
sg12
S'3.4'
p441
sg14
g3
sg15
g3
sg16
S'11.6'
p442
sg18
g19
sg364
S'97'
p443
sg20
S'.667'
p444
sg24
S'NBA'
p445
sg26
S'0.9'
p446
sg27
S'10.8'
p447
sg29
S'6.1'
p448
sg31
S'2.8'
p449
sg33
S'13.6'
p450
sg35
S'28'
p451
sg37
S'TOT'
p452
sg39
S'42'
p453
sg41
S'1.6'
p454
sg42
S'4.9'
p455
sg44
S'1.9'
p456
sg46
S'10.8'
p457
sg48
S'9.8'
p458
sg49
S'1974-75'
p459
sg51
S'4.9'
p460
sg53
g3
sg54
S'.450'
p461
sg56
S'1066'
p462
sg58
g3
sba(isrc.gp1.models.Per100Possession
Per100Possession
p463
(dp464
g8
S'0.0'
p465
sg9
g3
sg10
S'.250'
p466
sg361
g3
sg12
S'4.3'
p467
sg14
g3
sg15
g3
sg16
S'13.0'
p468
sg18
g19
sg364
S'98'
p469
sg20
S'.500'
p470
sg24
S'NBA'
p471
sg26
S'0.0'
p472
sg27
S'17.4'
p473
sg29
S'8.7'
p474
sg31
S'8.7'
p475
sg33
S'8.7'
p476
sg35
S'28'
p477
sg37
S'DET'
p478
sg39
g260
sg41
S'4.3'
p479
sg42
S'4.3'
p480
sg44
S'4.3'
p481
sg46
S'17.4'
p482
sg48
S'8.7'
p483
sg49
S'1974-75'
p484
sg51
S'4.3'
p485
sg53
g3
sg54
S'.250'
p486
sg56
S'11'
p487
sg58
g3
sba(isrc.gp1.models.Per100Possession
Per100Possession
p488
(dp489
g8
S'3.8'
p490
sg9
g3
sg10
S'.453'
p491
sg361
g3
sg12
S'3.4'
p492
sg14
g3
sg15
g3
sg16
S'11.6'
p493
sg18
g19
sg364
S'97'
p494
sg20
S'.672'
p495
sg24
S'NBA'
p496
sg26
S'0.9'
p497
sg27
S'10.7'
p498
sg29
S'6.1'
p499
sg31
S'2.8'
p500
sg33
S'13.6'
p501
sg35
S'28'
p502
sg37
S'NOJ'
p503
sg39
S'40'
p504
sg41
S'1.6'
p505
sg42
S'4.9'
p506
sg44
S'1.9'
p507
sg46
S'10.7'
p508
sg48
S'9.8'
p509
sg49
S'1974-75'
p510
sg51
S'4.9'
p511
sg53
g3
sg54
S'.453'
p512
sg56
S'1055'
p513
sg58
g3
sba(isrc.gp1.models.Per100Possession
Per100Possession
p514
(dp515
g8
S'3.0'
p516
sg9
g3
sg10
S'.436'
p517
sg361
g3
sg12
S'4.0'
p518
sg14
g3
sg15
g3
sg16
S'13.6'
p519
sg18
g19
sg364
S'92'
p520
sg20
S'.637'
p521
sg24
S'NBA'
p522
sg26
S'1.6'
p523
sg27
S'12.6'
p524
sg29
S'4.7'
p525
sg31
S'4.2'
p526
sg33
S'14.8'
p527
sg35
S'29'
p528
sg37
S'NOJ'
p529
sg39
S'81'
p530
sg41
S'2.5'
p531
sg42
S'5.5'
p532
sg44
S'2.7'
p533
sg46
S'12.6'
p534
sg48
S'11.8'
p535
sg49
S'1975-76'
p536
sg51
S'5.5'
p537
sg53
g3
sg54
S'.436'
p538
sg56
S'2407'
p539
sg58
g3
sba(isrc.gp1.models.Per100Possession
Per100Possession
p540
(dp541
g8
S'3.7'
p542
sg9
g3
sg10
S'.405'
p543
sg361
g3
sg12
S'3.9'
p544
sg14
g3
sg15
g3
sg16
S'10.2'
p545
sg18
g19
sg364
S'96'
p546
sg20
S'.679'
p547
sg24
S'NBA'
p548
sg26
S'1.2'
p549
sg27
S'10.2'
p550
sg29
S'5.0'
p551
sg31
S'2.9'
p552
sg33
S'13.7'
p553
sg35
S'30'
p554
sg37
S'NOJ'
p555
sg39
S'81'
p556
sg41
S'2.5'
p557
sg42
S'4.1'
p558
sg44
S'2.0'
p559
sg46
S'10.2'
p560
sg48
S'10.0'
p561
sg49
S'1976-77'
p562
sg51
S'4.1'
p563
sg53
g3
sg54
S'.405'
p564
sg56
S'2084'
p565
sg58
g3
sbasS'_advanced'
p566
(lp567
(isrc.gp1.models.Advanced
Advanced
p568
(dp569
S'_offensiveReboundPercentage'
p570
g3
sS'_turnOverPercentage'
p571
g3
sS'_winSharesPer48Minutes'
p572
S'.027'
p573
sS'_stealPercentage'
p574
g3
sS'_usagePercentage'
p575
g3
sS'_totalReboundsPercentage'
p576
g3
sS'_defensiveBoxPlusMinus'
p577
g3
sg18
g19
sS'_valueOverReplacementPlayer'
p578
g3
sS'_trueShootingPercentage'
p579
S'.461'
p580
sS'_defensiveReboundPercentage'
p581
g3
sS'_freeThrowsAttempRate'
p582
S'.309'
p583
sS'_threePointsAttempRate'
p584
g3
sg24
S'NBA'
p585
sS'_offensiveBoxPlusMinues'
p586
g3
sS'_assistPercentage'
p587
S'5.6'
p588
sS'_defensiveWinShares'
p589
S'0.6'
p590
sg35
S'22'
p591
sg37
S'DET'
p592
sg39
S'74'
p593
sS'_blockPercentage'
p594
g3
sS'_playerEfficiencyRating'
p595
S'11.7'
p596
sS'_offensiveWinShares'
p597
S'0.3'
p598
sg56
S'1605'
p599
sS'_boxPlusMinus'
p600
g3
sg49
S'1968-69'
p601
sS'_winShares'
p602
S'0.9'
p603
sba(isrc.gp1.models.Advanced
Advanced
p604
(dp605
g570
g3
sg571
g3
sg572
S'.067'
p606
sg574
g3
sg575
g3
sg576
g3
sg577
g3
sg18
g19
sg578
g3
sg579
S'.511'
p607
sg581
g3
sg582
S'.379'
p608
sg584
g3
sg24
S'NBA'
p609
sg586
g3
sg587
S'5.5'
p610
sg589
S'1.5'
p611
sg35
S'23'
p612
sg37
S'DET'
p613
sg39
S'81'
p614
sg594
g3
sg595
S'14.3'
p615
sg597
S'2.0'
p616
sg56
S'2523'
p617
sg600
g3
sg49
S'1969-70'
p618
sg602
S'3.5'
p619
sba(isrc.gp1.models.Advanced
Advanced
p620
(dp621
g570
g3
sg571
g3
sg572
S'.060'
p622
sg574
g3
sg575
g3
sg576
S'17.6'
p623
sg577
g3
sg18
g19
sg578
g3
sg579
S'.468'
p624
sg581
g3
sg582
S'.315'
p625
sg584
g3
sg24
S'NBA'
p626
sg586
g3
sg587
S'6.4'
p627
sg589
S'2.1'
p628
sg35
S'24'
p629
sg37
S'DET'
p630
sg39
S'82'
p631
sg594
g3
sg595
S'14.0'
p632
sg597
S'0.3'
p633
sg56
S'1926'
p634
sg600
g3
sg49
S'1970-71'
p635
sg602
S'2.4'
p636
sba(isrc.gp1.models.Advanced
Advanced
p637
(dp638
g570
g3
sg571
g3
sg572
S'.067'
p639
sg574
g3
sg575
g3
sg576
S'15.9'
p640
sg577
g3
sg18
g19
sg578
g3
sg579
S'.461'
p641
sg581
g3
sg582
S'.261'
p642
sg584
g3
sg24
S'NBA'
p643
sg586
g3
sg587
S'7.3'
p644
sg589
S'2.4'
p645
sg35
S'25'
p646
sg37
S'PHO'
p647
sg39
S'81'
p648
sg594
g3
sg595
S'12.1'
p649
sg597
S'-0.2'
p650
sg56
S'1624'
p651
sg600
g3
sg49
S'1971-72'
p652
sg602
S'2.3'
p653
sba(isrc.gp1.models.Advanced
Advanced
p654
(dp655
g570
g3
sg571
g3
sg572
S'.083'
p656
sg574
g3
sg575
g3
sg576
S'15.0'
p657
sg577
g3
sg18
g19
sg578
g3
sg579
S'.506'
p658
sg581
g3
sg582
S'.246'
p659
sg584
g3
sg24
S'NBA'
p660
sg586
g3
sg587
S'7.7'
p661
sg589
S'2.2'
p662
sg35
S'26'
p663
sg37
S'HOU'
p664
sg39
S'82'
p665
sg594
g3
sg595
S'13.5'
p666
sg597
S'2.4'
p667
sg56
S'2712'
p668
sg600
g3
sg49
S'1972-73'
p669
sg602
S'4.7'
p670
sba(isrc.gp1.models.Advanced
Advanced
p671
(dp672
g570
S'8.9'
p673
sg571
g3
sg572
S'.093'
p674
sg574
S'1.2'
p675
sg575
g3
sg576
S'15.8'
p676
sg577
S'1.2'
p677
sg18
g19
sg578
S'0.2'
p678
sg579
S'.522'
p679
sg581
S'22.7'
p680
sg582
S'.258'
p681
sg584
g3
sg24
S'NBA'
p682
sg586
S'-2.4'
p683
sg587
S'9.3'
p684
sg589
S'1.1'
p685
sg35
S'27'
p686
sg37
S'TOT'
p687
sg39
S'78'
p688
sg594
S'2.7'
p689
sg595
S'13.7'
p690
sg597
S'0.8'
p691
sg56
S'946'
p692
sg600
S'-1.3'
p693
sg49
S'1973-74'
p694
sg602
S'1.8'
p695
sba(isrc.gp1.models.Advanced
Advanced
p696
(dp697
g570
S'6.9'
p698
sg571
g3
sg572
S'.061'
p699
sg574
S'1.4'
p700
sg575
g3
sg576
S'14.3'
p701
sg577
S'2.1'
p702
sg18
g19
sg578
S'0.0'
p703
sg579
S'.469'
p704
sg581
S'21.7'
p705
sg582
S'.116'
p706
sg584
g3
sg24
S'NBA'
p707
sg586
S'-4.2'
p708
sg587
S'7.2'
p709
sg589
S'0.4'
p710
sg35
S'27'
p711
sg37
S'HOU'
p712
sg39
S'13'
p713
sg594
S'3.1'
p714
sg595
S'10.4'
p715
sg597
S'0.0'
p716
sg56
S'313'
p717
sg600
S'-2.1'
p718
sg49
S'1973-74'
p719
sg602
S'0.4'
p720
sba(isrc.gp1.models.Advanced
Advanced
p721
(dp722
g570
S'9.9'
p723
sg571
g3
sg572
S'.109'
p724
sg574
S'1.1'
p725
sg575
g3
sg576
S'16.5'
p726
sg577
S'0.7'
p727
sg18
g19
sg578
S'0.2'
p728
sg579
S'.542'
p729
sg581
S'23.2'
p730
sg582
S'.316'
p731
sg584
g3
sg24
S'NBA'
p732
sg586
S'-1.6'
p733
sg587
S'10.4'
p734
sg589
S'0.7'
p735
sg35
S'27'
p736
sg37
S'KCO'
p737
sg39
S'65'
p738
sg594
S'2.6'
p739
sg595
S'15.4'
p740
sg597
S'0.7'
p741
sg56
S'633'
p742
sg600
S'-0.8'
p743
sg49
S'1973-74'
p744
sg602
S'1.4'
p745
sba(isrc.gp1.models.Advanced
Advanced
p746
(dp747
g570
S'8.4'
p748
sg571
g3
sg572
S'.056'
p749
sg574
S'0.9'
p750
sg575
g3
sg576
S'15.5'
p751
sg577
S'1.7'
p752
sg18
g19
sg578
S'0.2'
p753
sg579
S'.482'
p754
sg581
S'23.1'
p755
sg582
S'.263'
p756
sg584
g3
sg24
S'NBA'
p757
sg586
S'-3.0'
p758
sg587
S'10.7'
p759
sg589
S'1.2'
p760
sg35
S'28'
p761
sg37
S'TOT'
p762
sg39
S'42'
p763
sg594
S'2.0'
p764
sg595
S'11.5'
p765
sg597
S'0.1'
p766
sg56
S'1066'
p767
sg600
S'-1.3'
p768
sg49
S'1974-75'
p769
sg602
S'1.3'
p770
sba(isrc.gp1.models.Advanced
Advanced
p771
(dp772
g570
S'0.0'
p773
sg571
g3
sg572
S'-0.138'
p774
sg574
S'0.0'
p775
sg575
g3
sg576
S'10.0'
p776
sg577
S'-1.1'
p777
sg18
g19
sg578
S'0.0'
p778
sg579
S'.307'
p779
sg581
S'19.8'
p780
sg582
S'.500'
p781
sg584
g3
sg24
S'NBA'
p782
sg586
S'-10.6'
p783
sg587
S'12.2'
p784
sg589
S'0.0'
p785
sg35
S'28'
p786
sg37
S'DET'
p787
sg39
g260
sg594
S'4.9'
p788
sg595
S'5.4'
p789
sg597
S'0.0'
p790
sg56
S'11'
p791
sg600
S'-11.7'
p792
sg49
S'1974-75'
p793
sg602
S'0.0'
p794
sba(isrc.gp1.models.Advanced
Advanced
p795
(dp796
g570
S'8.5'
p797
sg571
g3
sg572
S'.058'
p798
sg574
S'0.9'
p799
sg575
g3
sg576
S'15.6'
p800
sg577
S'1.8'
p801
sg18
g19
sg578
S'0.2'
p802
sg579
S'.485'
p803
sg581
S'23.2'
p804
sg582
S'.260'
p805
sg584
g3
sg24
S'NBA'
p806
sg586
S'-3.0'
p807
sg587
S'10.7'
p808
sg589
S'1.1'
p809
sg35
S'28'
p810
sg37
S'NOJ'
p811
sg39
S'40'
p812
sg594
S'2.0'
p813
sg595
S'11.6'
p814
sg597
S'0.1'
p815
sg56
S'1055'
p816
sg600
S'-1.2'
p817
sg49
S'1974-75'
p818
sg602
S'1.3'
p819
sba(isrc.gp1.models.Advanced
Advanced
p820
(dp821
g570
S'6.6'
p822
sg571
g3
sg572
S'.099'
p823
sg574
S'1.6'
p824
sg575
g3
sg576
S'16.4'
p825
sg577
S'3.6'
p826
sg18
g19
sg578
S'2.0'
p827
sg579
S'.473'
p828
sg581
S'26.3'
p829
sg582
S'.336'
p830
sg584
g3
sg24
S'NBA'
p831
sg586
S'-2.3'
p832
sg587
S'12.4'
p833
sg589
S'4.4'
p834
sg35
S'29'
p835
sg37
S'NOJ'
p836
sg39
S'81'
p837
sg594
S'3.0'
p838
sg595
S'14.2'
p839
sg597
S'0.5'
p840
sg56
S'2407'
p841
sg600
S'1.4'
p842
sg49
S'1975-76'
p843
sg602
S'5.0'
p844
sba(isrc.gp1.models.Advanced
Advanced
p845
(dp846
g570
S'8.0'
p847
sg571
g3
sg572
S'.067'
p848
sg574
S'1.2'
p849
sg575
g3
sg576
S'14.8'
p850
sg577
S'3.2'
p851
sg18
g19
sg578
S'0.9'
p852
sg579
S'.445'
p853
sg581
S'21.3'
p854
sg582
S'.281'
p855
sg584
g3
sg24
S'NBA'
p856
sg586
S'-3.5'
p857
sg587
S'11.2'
p858
sg589
S'3.2'
p859
sg35
S'30'
p860
sg37
S'NOJ'
p861
sg39
S'81'
p862
sg594
S'2.9'
p863
sg595
S'11.5'
p864
sg597
S'-0.3'
p865
sg56
S'2084'
p866
sg600
S'-0.3'
p867
sg49
S'1976-77'
p868
sg602
S'2.9'
p869
sbasS'_per36Minutes'
p870
(lp871
(isrc.gp1.models.Per36Minutes
Per36Minutes
p872
(dp873
g8
g3
sg9
g3
sg10
S'.443'
p874
sg12
S'1.5'
p875
sg14
g3
sg15
g3
sg16
S'12.8'
p876
sg18
g19
sg20
S'.524'
p877
sg24
S'NBA'
p878
sg26
g3
sg27
S'12.2'
p879
sg29
S'4.1'
p880
sg31
S'3.8'
p881
sg33
S'11.8'
p882
sg35
S'22'
p883
sg37
S'DET'
p884
sg39
S'74'
p885
sg41
g3
sg42
S'5.4'
p886
sg44
S'2.0'
p887
sg46
S'12.2'
p888
sg48
g3
sg49
S'1968-69'
p889
sg51
S'5.4'
p890
sg53
g3
sg54
S'.443'
p891
sg56
S'1605'
p892
sg58
g3
sba(isrc.gp1.models.Per36Minutes
Per36Minutes
p893
(dp894
g8
g3
sg9
g3
sg10
S'.476'
p895
sg12
S'1.5'
p896
sg14
g3
sg15
g3
sg16
S'13.7'
p897
sg18
g19
sg20
S'.636'
p898
sg24
S'NBA'
p899
sg26
g3
sg27
S'11.5'
p900
sg29
S'3.3'
p901
sg31
S'4.4'
p902
sg33
S'12.8'
p903
sg35
S'23'
p904
sg37
S'DET'
p905
sg39
S'81'
p906
sg41
g3
sg42
S'5.5'
p907
sg44
S'2.8'
p908
sg46
S'11.5'
p909
sg48
g3
sg49
S'1969-70'
p910
sg51
S'5.5'
p911
sg53
g3
sg54
S'.476'
p912
sg56
S'2523'
p913
sg58
g3
sba(isrc.gp1.models.Per36Minutes
Per36Minutes
p914
(dp915
g8
g3
sg9
g3
sg10
S'.445'
p916
sg12
S'1.6'
p917
sg14
g3
sg15
g3
sg16
S'13.9'
p918
sg18
g19
sg20
S'.553'
p919
sg24
S'NBA'
p920
sg26
g3
sg27
S'13.0'
p921
sg29
S'3.4'
p922
sg31
S'4.1'
p923
sg33
S'13.1'
p924
sg35
S'24'
p925
sg37
S'DET'
p926
sg39
S'82'
p927
sg41
g3
sg42
S'5.8'
p928
sg44
S'2.3'
p929
sg46
S'13.0'
p930
sg48
g3
sg49
S'1970-71'
p931
sg51
S'5.8'
p932
sg53
g3
sg54
S'.445'
p933
sg56
S'1926'
p934
sg58
g3
sba(isrc.gp1.models.Per36Minutes
Per36Minutes
p935
(dp936
g8
g3
sg9
g3
sg10
S'.436'
p937
sg12
S'2.0'
p938
sg14
g3
sg15
g3
sg16
S'13.6'
p939
sg18
g19
sg20
S'.603'
p940
sg24
S'NBA'
p941
sg26
g3
sg27
S'13.2'
p942
sg29
S'4.7'
p943
sg31
S'3.5'
p944
sg33
S'12.0'
p945
sg35
S'25'
p946
sg37
S'PHO'
p947
sg39
S'81'
p948
sg41
g3
sg42
S'5.8'
p949
sg44
S'2.1'
p950
sg46
S'13.2'
p951
sg48
g3
sg49
S'1971-72'
p952
sg51
S'5.8'
p953
sg53
g3
sg54
S'.436'
p954
sg56
S'1624'
p955
sg58
g3
sba(isrc.gp1.models.Per36Minutes
Per36Minutes
p956
(dp957
g8
g3
sg9
g3
sg10
S'.487'
p958
sg12
S'2.2'
p959
sg14
g3
sg15
g3
sg16
S'12.8'
p960
sg18
g19
sg20
S'.602'
p961
sg24
S'NBA'
p962
sg26
g3
sg27
S'11.4'
p963
sg29
S'3.2'
p964
sg31
S'2.8'
p965
sg33
S'11.5'
p966
sg35
S'26'
p967
sg37
S'HOU'
p968
sg39
S'82'
p969
sg41
g3
sg42
S'5.5'
p970
sg44
S'1.7'
p971
sg46
S'11.4'
p972
sg48
g3
sg49
S'1972-73'
p973
sg51
S'5.5'
p974
sg53
g3
sg54
S'.487'
p975
sg56
S'2712'
p976
sg58
g3
sba(isrc.gp1.models.Per36Minutes
Per36Minutes
p977
(dp978
g8
S'3.0'
p979
sg9
g3
sg10
S'.500'
p980
sg12
S'2.5'
p981
sg14
g3
sg15
g3
sg16
S'10.6'
p982
sg18
g19
sg20
S'.629'
p983
sg24
S'NBA'
p984
sg26
S'1.0'
p985
sg27
S'9.1'
p986
sg29
S'3.8'
p987
sg31
S'2.4'
p988
sg33
S'10.8'
p989
sg35
S'27'
p990
sg37
S'TOT'
p991
sg39
S'78'
p992
sg41
S'1.9'
p993
sg42
S'4.6'
p994
sg44
S'1.5'
p995
sg46
S'9.1'
p996
sg48
S'7.8'
p997
sg49
S'1973-74'
p998
sg51
S'4.6'
p999
sg53
g3
sg54
S'.500'
p1000
sg56
S'946'
p1001
sg58
g3
sba(isrc.gp1.models.Per36Minutes
Per36Minutes
p1002
(dp1003
g8
S'2.3'
p1004
sg9
g3
sg10
S'.464'
p1005
sg12
S'2.1'
p1006
sg14
g3
sg15
g3
sg16
S'7.8'
p1007
sg18
g19
sg20
S'.500'
p1008
sg24
S'NBA'
p1009
sg26
S'1.2'
p1010
sg27
S'7.9'
p1011
sg29
S'4.3'
p1012
sg31
S'0.9'
p1013
sg33
S'9.7'
p1014
sg35
S'27'
p1015
sg37
S'HOU'
p1016
sg39
S'13'
p1017
sg41
S'2.1'
p1018
sg42
S'3.7'
p1019
sg44
S'0.5'
p1020
sg46
S'7.9'
p1021
sg48
S'7.4'
p1022
sg49
S'1973-74'
p1023
sg51
S'3.7'
p1024
sg53
g3
sg54
S'.464'
p1025
sg56
S'313'
p1026
sg58
g3
sba(isrc.gp1.models.Per36Minutes
Per36Minutes
p1027
(dp1028
g8
S'3.4'
p1029
sg9
g3
sg10
S'.515'
p1030
sg12
S'2.7'
p1031
sg14
g3
sg15
g3
sg16
S'12.0'
p1032
sg18
g19
sg20
S'.648'
p1033
sg24
S'NBA'
p1034
sg26
S'0.9'
p1035
sg27
S'9.7'
p1036
sg29
S'3.5'
p1037
sg31
S'3.1'
p1038
sg33
S'11.4'
p1039
sg35
S'27'
p1040
sg37
S'KCO'
p1041
sg39
S'65'
p1042
sg41
S'1.8'
p1043
sg42
S'5.0'
p1044
sg44
S'2.0'
p1045
sg46
S'9.7'
p1046
sg48
S'8.0'
p1047
sg49
S'1973-74'
p1048
sg51
S'5.0'
p1049
sg53
g3
sg54
S'.515'
p1050
sg56
S'633'
p1051
sg58
g3
sba(isrc.gp1.models.Per36Minutes
Per36Minutes
p1052
(dp1053
g8
S'3.1'
p1054
sg9
g3
sg10
S'.450'
p1055
sg12
S'2.8'
p1056
sg14
g3
sg15
g3
sg16
S'9.5'
p1057
sg18
g19
sg20
S'.667'
p1058
sg24
S'NBA'
p1059
sg26
S'0.7'
p1060
sg27
S'8.8'
p1061
sg29
S'5.0'
p1062
sg31
S'2.3'
p1063
sg33
S'11.1'
p1064
sg35
S'28'
p1065
sg37
S'TOT'
p1066
sg39
S'42'
p1067
sg41
S'1.4'
p1068
sg42
S'4.0'
p1069
sg44
S'1.6'
p1070
sg46
S'8.8'
p1071
sg48
S'8.0'
p1072
sg49
S'1974-75'
p1073
sg51
S'4.0'
p1074
sg53
g3
sg54
S'.450'
p1075
sg56
S'1066'
p1076
sg58
g3
sba(isrc.gp1.models.Per36Minutes
Per36Minutes
p1077
(dp1078
g8
S'0.0'
p1079
sg9
g3
sg10
S'.250'
p1080
sg12
S'3.3'
p1081
sg14
g3
sg15
g3
sg16
S'9.8'
p1082
sg18
g19
sg20
S'.500'
p1083
sg24
S'NBA'
p1084
sg26
S'0.0'
p1085
sg27
S'13.1'
p1086
sg29
S'6.5'
p1087
sg31
S'6.5'
p1088
sg33
S'6.5'
p1089
sg35
S'28'
p1090
sg37
S'DET'
p1091
sg39
g260
sg41
S'3.3'
p1092
sg42
S'3.3'
p1093
sg44
S'3.3'
p1094
sg46
S'13.1'
p1095
sg48
S'6.5'
p1096
sg49
S'1974-75'
p1097
sg51
S'3.3'
p1098
sg53
g3
sg54
S'.250'
p1099
sg56
S'11'
p1100
sg58
g3
sba(isrc.gp1.models.Per36Minutes
Per36Minutes
p1101
(dp1102
g8
S'3.1'
p1103
sg9
g3
sg10
S'.453'
p1104
sg12
S'2.8'
p1105
sg14
g3
sg15
g3
sg16
S'9.5'
p1106
sg18
g19
sg20
S'.672'
p1107
sg24
S'NBA'
p1108
sg26
S'0.7'
p1109
sg27
S'8.8'
p1110
sg29
S'5.0'
p1111
sg31
S'2.3'
p1112
sg33
S'11.2'
p1113
sg35
S'28'
p1114
sg37
S'NOJ'
p1115
sg39
S'40'
p1116
sg41
S'1.3'
p1117
sg42
S'4.0'
p1118
sg44
S'1.5'
p1119
sg46
S'8.8'
p1120
sg48
S'8.1'
p1121
sg49
S'1974-75'
p1122
sg51
S'4.0'
p1123
sg53
g3
sg54
S'.453'
p1124
sg56
S'1055'
p1125
sg58
g3
sba(isrc.gp1.models.Per36Minutes
Per36Minutes
p1126
(dp1127
g8
S'2.4'
p1128
sg9
g3
sg10
S'.436'
p1129
sg12
S'3.2'
p1130
sg14
g3
sg15
g3
sg16
S'10.9'
p1131
sg18
g19
sg20
S'.637'
p1132
sg24
S'NBA'
p1133
sg26
S'1.3'
p1134
sg27
S'10.1'
p1135
sg29
S'3.7'
p1136
sg31
S'3.4'
p1137
sg33
S'11.9'
p1138
sg35
S'29'
p1139
sg37
S'NOJ'
p1140
sg39
S'81'
p1141
sg41
S'2.0'
p1142
sg42
S'4.4'
p1143
sg44
S'2.2'
p1144
sg46
S'10.1'
p1145
sg48
S'9.4'
p1146
sg49
S'1975-76'
p1147
sg51
S'4.4'
p1148
sg53
g3
sg54
S'.436'
p1149
sg56
S'2407'
p1150
sg58
g3
sba(isrc.gp1.models.Per36Minutes
Per36Minutes
p1151
(dp1152
g8
S'2.9'
p1153
sg9
g3
sg10
S'.405'
p1154
sg12
S'3.1'
p1155
sg14
g3
sg15
g3
sg16
S'8.2'
p1156
sg18
g19
sg20
S'.679'
p1157
sg24
S'NBA'
p1158
sg26
S'0.9'
p1159
sg27
S'8.2'
p1160
sg29
S'4.0'
p1161
sg31
S'2.3'
p1162
sg33
S'11.0'
p1163
sg35
S'30'
p1164
sg37
S'NOJ'
p1165
sg39
S'81'
p1166
sg41
S'2.0'
p1167
sg42
S'3.3'
p1168
sg44
S'1.6'
p1169
sg46
S'8.2'
p1170
sg48
S'8.0'
p1171
sg49
S'1976-77'
p1172
sg51
S'3.3'
p1173
sg53
g3
sg54
S'.405'
p1174
sg56
S'2084'
p1175
sg58
g3
sbasS'_fromYear'
p1176
S'1969'
p1177
sS'_url'
p1178
S'http://www.basketball-reference.com/players/m/mooreot01.html'
p1179
sS'_perGame'
p1180
(isrc.gp1.models.PerGame
PerGame
p1181
(dp1182
g8
S'2.1'
p1183
sg9
g3
sg10
S'.405'
p1184
sS'_effectiveFieldGalPercentage'
p1185
S'.405'
p1186
sg12
S'2.2'
p1187
sg14
g3
sg15
g3
sg16
S'5.9'
p1188
sg18
g19
sg20
S'.679'
p1189
sg24
S'NBA'
p1190
sg26
S'0.7'
p1191
sg29
S'2.9'
p1192
sS'_fieldGoalsttempted'
p1193
S'5.9'
p1194
sg31
S'1.7'
p1195
sg33
S'7.9'
p1196
sg35
S'30'
p1197
sg37
S'NOJ'
p1198
sg39
S'81'
p1199
sg41
S'1.4'
p1200
sg42
S'2.4'
p1201
sg44
S'1.1'
p1202
sg46
S'5.9'
p1203
sg48
S'5.8'
p1204
sg49
S'1976-77'
p1205
sg51
S'2.4'
p1206
sg53
g3
sg54
S'.405'
p1207
sg56
S'25.7'
p1208
sg58
g3
sbsS'_weight'
p1209
S'205'
p1210
sS'_dob'
p1211
S'27-8-1946'
p1212
sS'_salary'
p1213
(lp1214
sg18
S'C-F'
p1215
sb.