(isrc.gp1.models.Player
Player
p0
(dp1
S'_experience'
p2
S'NA'
p3
sS'_totals'
p4
(lp5
(isrc.gp1.models.Totals
Totals
p6
(dp7
S'_offensiveRebounds'
p8
S'31'
p9
sS'_threePointsAttempted'
p10
S'0'
p11
sS'_fieldGoalsPercentage'
p12
S'.476'
p13
sS'_assist'
p14
S'15'
p15
sS'_threePointsPercentage'
p16
g3
sS'_threePoints'
p17
g11
sS'_points'
p18
S'96'
p19
sS'_position'
p20
S'C'
p21
sS'_freeThrowsPercentage'
p22
S'.600'
p23
sS'_effectiveFieldGoalPercentage'
p24
S'.476'
p25
sS'_league'
p26
S'NBA'
p27
sS'_steals'
p28
S'14'
p29
sS'_fieldGoalsAttempted'
p30
S'82'
p31
sS'_personalFouls'
p32
S'70'
p33
sS'_freeThrowsAttempted'
p34
S'30'
p35
sS'_totalRebounds'
p36
S'81'
p37
sS'_age'
p38
S'24'
p39
sS'_team'
p40
S'TOT'
p41
sS'_games'
p42
S'23'
p43
sS'_blocks'
p44
S'2'
p45
sS'_twoPoints'
p46
S'39'
p47
sS'_freeThrows'
p48
S'18'
p49
sS'_twoPointsAttempted'
p50
S'82'
p51
sS'_defensiveRebounds'
p52
S'50'
p53
sS'_season'
p54
S'1993-94'
p55
sS'_fieldGoals'
p56
S'39'
p57
sS'_turnOvers'
p58
S'19'
p59
sS'_twoPointsPercentage'
p60
S'.476'
p61
sS'_minutesPlayed'
p62
S'367'
p63
sS'_gamesStarted'
p64
S'15'
p65
sba(isrc.gp1.models.Totals
Totals
p66
(dp67
g8
S'31'
p68
sg10
g11
sg12
S'.469'
p69
sg14
S'15'
p70
sg16
g3
sg17
g11
sg18
S'94'
p71
sg20
g21
sg22
S'.600'
p72
sg24
S'.469'
p73
sg26
S'NBA'
p74
sg28
S'14'
p75
sg30
S'81'
p76
sg32
S'69'
p77
sg34
S'30'
p78
sg36
S'80'
p79
sg38
S'24'
p80
sg40
S'DAL'
p81
sg42
S'22'
p82
sg44
g45
sg46
S'38'
p83
sg48
S'18'
p84
sg50
S'81'
p85
sg52
S'49'
p86
sg54
S'1993-94'
p87
sg56
S'38'
p88
sg58
S'19'
p89
sg60
S'.469'
p90
sg62
S'363'
p91
sg64
S'15'
p92
sba(isrc.gp1.models.Totals
Totals
p93
(dp94
g8
g11
sg10
g11
sg12
S'1.000'
p95
sg14
g11
sg16
g3
sg17
g11
sg18
g45
sg20
g21
sg22
g3
sg24
S'1.000'
p96
sg26
S'NBA'
p97
sg28
g11
sg30
S'1'
p98
sg32
g98
sg34
g11
sg36
g98
sg38
S'24'
p99
sg40
S'UTA'
p100
sg42
g98
sg44
g11
sg46
g98
sg48
g11
sg50
g98
sg52
g98
sg54
S'1993-94'
p101
sg56
g98
sg58
g11
sg60
S'1.000'
p102
sg62
S'4'
p103
sg64
g11
sbasS'_college'
p104
S'University of Pittsburgh'
p105
sS'_toYear'
p106
S'1994'
p107
sS'_height'
p108
S'6-10'
p109
sS'_active'
p110
I00
sS'_shootingHand'
p111
VRight
p112
sS'_name'
p113
S'Darren Morningstar'
p114
sS'_per100Possessions'
p115
(lp116
(isrc.gp1.models.Per100Possession
Per100Possession
p117
(dp118
g8
S'4.3'
p119
sg10
S'0.0'
p120
sg12
S'.476'
p121
sS'_offensiveRating'
p122
S'101'
p123
sg14
S'2.1'
p124
sg16
g3
sg17
S'0.0'
p125
sg18
S'13.3'
p126
sg20
g21
sS'_defensiveRating'
p127
S'109'
p128
sg22
S'.600'
p129
sg26
S'NBA'
p130
sg28
S'1.9'
p131
sg30
S'11.4'
p132
sg32
S'9.7'
p133
sg34
S'4.2'
p134
sg36
S'11.2'
p135
sg38
S'24'
p136
sg40
S'TOT'
p137
sg42
S'23'
p138
sg44
S'0.3'
p139
sg46
S'5.4'
p140
sg48
S'2.5'
p141
sg50
S'11.4'
p142
sg52
S'6.9'
p143
sg54
S'1993-94'
p144
sg56
S'5.4'
p145
sg58
S'2.6'
p146
sg60
S'.476'
p147
sg62
S'367'
p148
sg64
S'15'
p149
sba(isrc.gp1.models.Per100Possession
Per100Possession
p150
(dp151
g8
S'4.3'
p152
sg10
S'0.0'
p153
sg12
S'.469'
p154
sg122
S'100'
p155
sg14
S'2.1'
p156
sg16
g3
sg17
S'0.0'
p157
sg18
S'13.2'
p158
sg20
g21
sg127
S'109'
p159
sg22
S'.600'
p160
sg26
S'NBA'
p161
sg28
S'2.0'
p162
sg30
S'11.3'
p163
sg32
S'9.7'
p164
sg34
S'4.2'
p165
sg36
S'11.2'
p166
sg38
S'24'
p167
sg40
S'DAL'
p168
sg42
S'22'
p169
sg44
S'0.3'
p170
sg46
S'5.3'
p171
sg48
S'2.5'
p172
sg50
S'11.3'
p173
sg52
S'6.9'
p174
sg54
S'1993-94'
p175
sg56
S'5.3'
p176
sg58
S'2.7'
p177
sg60
S'.469'
p178
sg62
S'363'
p179
sg64
S'15'
p180
sba(isrc.gp1.models.Per100Possession
Per100Possession
p181
(dp182
g8
S'0.0'
p183
sg10
S'0.0'
p184
sg12
S'1.000'
p185
sg122
S'200'
p186
sg14
S'0.0'
p187
sg16
g3
sg17
S'0.0'
p188
sg18
S'25.8'
p189
sg20
g21
sg127
S'103'
p190
sg22
g3
sg26
S'NBA'
p191
sg28
S'0.0'
p192
sg30
S'12.9'
p193
sg32
S'12.9'
p194
sg34
S'0.0'
p195
sg36
S'12.9'
p196
sg38
S'24'
p197
sg40
S'UTA'
p198
sg42
g98
sg44
S'0.0'
p199
sg46
S'12.9'
p200
sg48
S'0.0'
p201
sg50
S'12.9'
p202
sg52
S'12.9'
p203
sg54
S'1993-94'
p204
sg56
S'12.9'
p205
sg58
S'0.0'
p206
sg60
S'1.000'
p207
sg62
g103
sg64
g11
sbasS'_advanced'
p208
(lp209
(isrc.gp1.models.Advanced
Advanced
p210
(dp211
S'_offensiveReboundPercentage'
p212
S'8.8'
p213
sS'_turnOverPercentage'
p214
S'16.6'
p215
sS'_winSharesPer48Minutes'
p216
S'.048'
p217
sS'_stealPercentage'
p218
S'1.9'
p219
sS'_usagePercentage'
p220
S'13.2'
p221
sS'_totalReboundsPercentage'
p222
S'12.4'
p223
sS'_defensiveBoxPlusMinus'
p224
S'-0.4'
p225
sg20
g21
sS'_valueOverReplacementPlayer'
p226
S'-0.2'
p227
sS'_trueShootingPercentage'
p228
S'.504'
p229
sS'_defensiveReboundPercentage'
p230
S'16.5'
p231
sS'_freeThrowsAttempRate'
p232
S'.366'
p233
sS'_threePointsAttempRate'
p234
S'.000'
p235
sg26
S'NBA'
p236
sS'_offensiveBoxPlusMinues'
p237
S'-3.3'
p238
sS'_assistPercentage'
p239
S'6.1'
p240
sS'_defensiveWinShares'
p241
S'0.3'
p242
sg38
S'24'
p243
sg40
S'TOT'
p244
sg42
S'23'
p245
sS'_blockPercentage'
p246
S'0.4'
p247
sS'_playerEfficiencyRating'
p248
S'8.9'
p249
sS'_offensiveWinShares'
p250
S'0.1'
p251
sg62
S'367'
p252
sS'_boxPlusMinus'
p253
S'-3.7'
p254
sg54
S'1993-94'
p255
sS'_winShares'
p256
S'0.4'
p257
sba(isrc.gp1.models.Advanced
Advanced
p258
(dp259
g212
S'8.9'
p260
sg214
S'16.8'
p261
sg216
S'.045'
p262
sg218
S'2.0'
p263
sg220
S'13.2'
p264
sg222
S'12.4'
p265
sg224
S'-0.4'
p266
sg20
g21
sg226
S'-0.2'
p267
sg228
S'.499'
p268
sg230
S'16.4'
p269
sg232
S'.370'
p270
sg234
S'.000'
p271
sg26
S'NBA'
p272
sg237
S'-3.3'
p273
sg239
S'6.2'
p274
sg241
S'0.3'
p275
sg38
S'24'
p276
sg40
S'DAL'
p277
sg42
S'22'
p278
sg246
S'0.4'
p279
sg248
S'8.8'
p280
sg250
S'0.1'
p281
sg62
S'363'
p282
sg253
S'-3.7'
p283
sg54
S'1993-94'
p284
sg256
S'0.3'
p285
sba(isrc.gp1.models.Advanced
Advanced
p286
(dp287
g212
S'0.0'
p288
sg214
S'0.0'
p289
sg216
S'.247'
p290
sg218
S'0.0'
p291
sg220
S'11.1'
p292
sg222
S'14.4'
p293
sg224
S'-5.1'
p294
sg20
g21
sg226
S'0.0'
p295
sg228
S'1.000'
p296
sg230
S'28.5'
p297
sg232
S'.000'
p298
sg234
S'.000'
p299
sg26
S'NBA'
p300
sg237
S'1.1'
p301
sg239
S'0.0'
p302
sg241
S'0.0'
p303
sg38
S'24'
p304
sg40
S'UTA'
p305
sg42
g98
sg246
S'0.0'
p306
sg248
S'19.4'
p307
sg250
S'0.0'
p308
sg62
g103
sg253
S'-4.0'
p309
sg54
S'1993-94'
p310
sg256
S'0.0'
p311
sbasS'_per36Minutes'
p312
(lp313
(isrc.gp1.models.Per36Minutes
Per36Minutes
p314
(dp315
g8
S'3.0'
p316
sg10
S'0.0'
p317
sg12
S'.476'
p318
sg14
S'1.5'
p319
sg16
g3
sg17
S'0.0'
p320
sg18
S'9.4'
p321
sg20
g21
sg22
S'.600'
p322
sg26
S'NBA'
p323
sg28
S'1.4'
p324
sg30
S'8.0'
p325
sg32
S'6.9'
p326
sg34
S'2.9'
p327
sg36
S'7.9'
p328
sg38
S'24'
p329
sg40
S'TOT'
p330
sg42
S'23'
p331
sg44
S'0.2'
p332
sg46
S'3.8'
p333
sg48
S'1.8'
p334
sg50
S'8.0'
p335
sg52
S'4.9'
p336
sg54
S'1993-94'
p337
sg56
S'3.8'
p338
sg58
S'1.9'
p339
sg60
S'.476'
p340
sg62
S'367'
p341
sg64
S'15'
p342
sba(isrc.gp1.models.Per36Minutes
Per36Minutes
p343
(dp344
g8
S'3.1'
p345
sg10
S'0.0'
p346
sg12
S'.469'
p347
sg14
S'1.5'
p348
sg16
g3
sg17
S'0.0'
p349
sg18
S'9.3'
p350
sg20
g21
sg22
S'.600'
p351
sg26
S'NBA'
p352
sg28
S'1.4'
p353
sg30
S'8.0'
p354
sg32
S'6.8'
p355
sg34
S'3.0'
p356
sg36
S'7.9'
p357
sg38
S'24'
p358
sg40
S'DAL'
p359
sg42
S'22'
p360
sg44
S'0.2'
p361
sg46
S'3.8'
p362
sg48
S'1.8'
p363
sg50
S'8.0'
p364
sg52
S'4.9'
p365
sg54
S'1993-94'
p366
sg56
S'3.8'
p367
sg58
S'1.9'
p368
sg60
S'.469'
p369
sg62
S'363'
p370
sg64
S'15'
p371
sba(isrc.gp1.models.Per36Minutes
Per36Minutes
p372
(dp373
g8
S'0.0'
p374
sg10
S'0.0'
p375
sg12
S'1.000'
p376
sg14
S'0.0'
p377
sg16
g3
sg17
S'0.0'
p378
sg18
S'18.0'
p379
sg20
g21
sg22
g3
sg26
S'NBA'
p380
sg28
S'0.0'
p381
sg30
S'9.0'
p382
sg32
S'9.0'
p383
sg34
S'0.0'
p384
sg36
S'9.0'
p385
sg38
S'24'
p386
sg40
S'UTA'
p387
sg42
g98
sg44
S'0.0'
p388
sg46
S'9.0'
p389
sg48
S'0.0'
p390
sg50
S'9.0'
p391
sg52
S'9.0'
p392
sg54
S'1993-94'
p393
sg56
S'9.0'
p394
sg58
S'0.0'
p395
sg60
S'1.000'
p396
sg62
g103
sg64
g11
sbasS'_fromYear'
p397
S'1994'
p398
sS'_url'
p399
S'http://www.basketball-reference.com/players/m/mornida01.html'
p400
sS'_perGame'
p401
(isrc.gp1.models.PerGame
PerGame
p402
(dp403
g8
S'0.0'
p404
sg10
S'0.0'
p405
sg12
S'1.000'
p406
sS'_effectiveFieldGalPercentage'
p407
S'1.000'
p408
sg14
S'0.0'
p409
sg16
g3
sg17
S'0.0'
p410
sg18
S'2.0'
p411
sg20
g21
sg22
g3
sg26
S'NBA'
p412
sg28
S'0.0'
p413
sg32
S'1.0'
p414
sS'_fieldGoalsttempted'
p415
S'1.0'
p416
sg34
S'0.0'
p417
sg36
S'1.0'
p418
sg38
S'24'
p419
sg40
S'UTA'
p420
sg42
g98
sg44
S'0.0'
p421
sg46
S'1.0'
p422
sg48
S'0.0'
p423
sg50
S'1.0'
p424
sg52
S'1.0'
p425
sg54
S'1993-94'
p426
sg56
S'1.0'
p427
sg58
S'0.0'
p428
sg60
S'1.000'
p429
sg62
S'4.0'
p430
sg64
g11
sbsS'_weight'
p431
S'235'
p432
sS'_dob'
p433
S'22-4-1969'
p434
sS'_salary'
p435
(lp436
(isrc.gp1.models.Salary
Salary
p437
(dp438
g40
S'Dallas Mavericks'
p439
sg26
S'NBA'
p440
sg435
S'$43,000'
p441
sg54
S'1993-94'
p442
sbasg20
g21
sb.