(isrc.gp1.models.Player
Player
p0
(dp1
S'_experience'
p2
S'NA'
p3
sS'_totals'
p4
(lp5
(isrc.gp1.models.Totals
Totals
p6
(dp7
S'_offensiveRebounds'
p8
S'36'
p9
sS'_threePointsAttempted'
p10
S'55'
p11
sS'_fieldGoalsPercentage'
p12
S'.453'
p13
sS'_assist'
p14
S'50'
p15
sS'_threePointsPercentage'
p16
S'.327'
p17
sS'_threePoints'
p18
S'18'
p19
sS'_points'
p20
S'291'
p21
sS'_position'
p22
S'SG'
p23
sS'_freeThrowsPercentage'
p24
S'.653'
p25
sS'_effectiveFieldGoalPercentage'
p26
S'.490'
p27
sS'_league'
p28
S'NBA'
p29
sS'_steals'
p30
S'29'
p31
sS'_fieldGoalsAttempted'
p32
S'247'
p33
sS'_personalFouls'
p34
S'54'
p35
sS'_freeThrowsAttempted'
p36
S'75'
p37
sS'_totalRebounds'
p38
S'61'
p39
sS'_age'
p40
S'23'
p41
sS'_team'
p42
S'VAN'
p43
sS'_games'
p44
S'44'
p45
sS'_blocks'
p46
S'8'
p47
sS'_twoPoints'
p48
S'94'
p49
sS'_freeThrows'
p50
S'49'
p51
sS'_twoPointsAttempted'
p52
S'192'
p53
sS'_defensiveRebounds'
p54
S'25'
p55
sS'_season'
p56
S'1995-96'
p57
sS'_fieldGoals'
p58
S'112'
p59
sS'_turnOvers'
p60
S'44'
p61
sS'_twoPointsPercentage'
p62
S'.490'
p63
sS'_minutesPlayed'
p64
S'573'
p65
sS'_gamesStarted'
p66
S'3'
p67
sba(isrc.gp1.models.Totals
Totals
p68
(dp69
g8
S'43'
p70
sg10
S'141'
p71
sg12
S'.388'
p72
sg14
S'129'
p73
sg16
S'.291'
p74
sg18
S'41'
p75
sg20
S'447'
p76
sg22
S'SG'
p77
sg24
S'.646'
p78
sg26
S'.434'
p79
sg28
S'NBA'
p80
sg30
S'48'
p81
sg32
S'441'
p82
sg34
S'83'
p83
sg36
S'99'
p84
sg38
S'119'
p85
sg40
S'24'
p86
sg42
S'VAN'
p87
sg44
S'67'
p88
sg46
S'24'
p89
sg48
S'130'
p90
sg50
S'64'
p91
sg52
S'300'
p92
sg54
S'76'
p93
sg56
S'1996-97'
p94
sg58
S'171'
p95
sg60
S'81'
p96
sg62
S'.433'
p97
sg64
S'1214'
p98
sg66
S'18'
p99
sba(isrc.gp1.models.Totals
Totals
p100
(dp101
g8
S'1'
p102
sg10
g102
sg12
S'.231'
p103
sg14
g67
sg16
S'.000'
p104
sg18
S'0'
p105
sg20
S'9'
p106
sg22
S'SG'
p107
sg24
S'.750'
p108
sg26
S'.231'
p109
sg28
S'NBA'
p110
sg30
g105
sg32
S'13'
p111
sg34
S'6'
p112
sg36
S'4'
p113
sg38
g102
sg40
S'25'
p114
sg42
S'WAS'
p115
sg44
g47
sg46
g105
sg48
g67
sg50
g67
sg52
S'12'
p116
sg54
g105
sg56
S'1997-98'
p117
sg58
g67
sg60
g102
sg62
S'.250'
p118
sg64
S'27'
p119
sg66
g105
sbasS'_college'
p120
S'Syracuse University'
p121
sS'_toYear'
p122
S'1998'
p123
sS'_height'
p124
S'6-5'
p125
sS'_active'
p126
I00
sS'_shootingHand'
p127
VRight
p128
sS'_name'
p129
S'Lawrence Moten'
p130
sS'_per100Possessions'
p131
(lp132
(isrc.gp1.models.Per100Possession
Per100Possession
p133
(dp134
g8
S'3.3'
p135
sg10
S'5.1'
p136
sg12
S'.453'
p137
sS'_offensiveRating'
p138
S'100'
p139
sg14
S'4.6'
p140
sg16
S'.327'
p141
sg18
S'1.7'
p142
sg20
S'26.8'
p143
sg22
S'SG'
p144
sS'_defensiveRating'
p145
S'110'
p146
sg24
S'.653'
p147
sg28
S'NBA'
p148
sg30
S'2.7'
p149
sg32
S'22.7'
p150
sg34
S'5.0'
p151
sg36
S'6.9'
p152
sg38
S'5.6'
p153
sg40
S'23'
p154
sg42
S'VAN'
p155
sg44
S'44'
p156
sg46
S'0.7'
p157
sg48
S'8.7'
p158
sg50
S'4.5'
p159
sg52
S'17.7'
p160
sg54
S'2.3'
p161
sg56
S'1995-96'
p162
sg58
S'10.3'
p163
sg60
S'4.0'
p164
sg62
S'.490'
p165
sg64
S'573'
p166
sg66
g67
sba(isrc.gp1.models.Per100Possession
Per100Possession
p167
(dp168
g8
S'1.9'
p169
sg10
S'6.3'
p170
sg12
S'.388'
p171
sg138
S'94'
p172
sg14
S'5.8'
p173
sg16
S'.291'
p174
sg18
S'1.8'
p175
sg20
S'20.0'
p176
sg22
S'SG'
p177
sg145
S'113'
p178
sg24
S'.646'
p179
sg28
S'NBA'
p180
sg30
S'2.1'
p181
sg32
S'19.7'
p182
sg34
S'3.7'
p183
sg36
S'4.4'
p184
sg38
S'5.3'
p185
sg40
S'24'
p186
sg42
S'VAN'
p187
sg44
S'67'
p188
sg46
S'1.1'
p189
sg48
S'5.8'
p190
sg50
S'2.9'
p191
sg52
S'13.4'
p192
sg54
S'3.4'
p193
sg56
S'1996-97'
p194
sg58
S'7.6'
p195
sg60
S'3.6'
p196
sg62
S'.433'
p197
sg64
S'1214'
p198
sg66
S'18'
p199
sba(isrc.gp1.models.Per100Possession
Per100Possession
p200
(dp201
g8
S'1.9'
p202
sg10
S'1.9'
p203
sg12
S'.231'
p204
sg138
S'78'
p205
sg14
S'5.8'
p206
sg16
S'.000'
p207
sg18
S'0.0'
p208
sg20
S'17.4'
p209
sg22
S'SG'
p210
sg145
S'113'
p211
sg24
S'.750'
p212
sg28
S'NBA'
p213
sg30
S'0.0'
p214
sg32
S'25.2'
p215
sg34
S'11.6'
p216
sg36
S'7.7'
p217
sg38
S'1.9'
p218
sg40
S'25'
p219
sg42
S'WAS'
p220
sg44
g47
sg46
S'0.0'
p221
sg48
S'5.8'
p222
sg50
S'5.8'
p223
sg52
S'23.2'
p224
sg54
S'0.0'
p225
sg56
S'1997-98'
p226
sg58
S'5.8'
p227
sg60
S'1.9'
p228
sg62
S'.250'
p229
sg64
S'27'
p230
sg66
g105
sbasS'_advanced'
p231
(lp232
(isrc.gp1.models.Advanced
Advanced
p233
(dp234
S'_offensiveReboundPercentage'
p235
S'7.1'
p236
sS'_turnOverPercentage'
p237
S'13.6'
p238
sS'_winSharesPer48Minutes'
p239
S'.047'
p240
sS'_stealPercentage'
p241
S'2.7'
p242
sS'_usagePercentage'
p243
S'25.8'
p244
sS'_totalReboundsPercentage'
p245
S'6.2'
p246
sS'_defensiveBoxPlusMinus'
p247
S'-1.4'
p248
sg22
S'SG'
p249
sS'_valueOverReplacementPlayer'
p250
S'0.1'
p251
sS'_trueShootingPercentage'
p252
S'.520'
p253
sS'_defensiveReboundPercentage'
p254
S'5.3'
p255
sS'_freeThrowsAttempRate'
p256
S'.304'
p257
sS'_threePointsAttempRate'
p258
S'.223'
p259
sg28
S'NBA'
p260
sS'_offensiveBoxPlusMinues'
p261
S'-0.1'
p262
sS'_assistPercentage'
p263
S'17.4'
p264
sS'_defensiveWinShares'
p265
S'0.4'
p266
sg40
S'23'
p267
sg42
S'VAN'
p268
sg44
S'44'
p269
sS'_blockPercentage'
p270
S'1.1'
p271
sS'_playerEfficiencyRating'
p272
S'15.7'
p273
sS'_offensiveWinShares'
p274
S'0.1'
p275
sg64
S'573'
p276
sS'_boxPlusMinus'
p277
S'-1.5'
p278
sg56
S'1995-96'
p279
sS'_winShares'
p280
S'0.6'
p281
sba(isrc.gp1.models.Advanced
Advanced
p282
(dp283
g235
S'4.1'
p284
sg237
S'14.3'
p285
sg239
S'-0.017'
p286
sg241
S'2.1'
p287
sg243
S'21.6'
p288
sg245
S'5.7'
p289
sg247
S'-2.3'
p290
sg22
S'SG'
p291
sg250
S'-0.8'
p292
sg252
S'.461'
p293
sg254
S'7.4'
p294
sg256
S'.224'
p295
sg258
S'.320'
p296
sg28
S'NBA'
p297
sg261
S'-2.3'
p298
sg263
S'18.6'
p299
sg265
S'0.3'
p300
sg40
S'24'
p301
sg42
S'VAN'
p302
sg44
S'67'
p303
sg270
S'1.5'
p304
sg272
S'11.4'
p305
sg274
S'-0.7'
p306
sg64
S'1214'
p307
sg277
S'-4.6'
p308
sg56
S'1996-97'
p309
sg280
S'-0.4'
p310
sba(isrc.gp1.models.Advanced
Advanced
p311
(dp312
g235
S'4.1'
p313
sg237
S'6.3'
p314
sg239
S'-0.134'
p315
sg241
S'0.0'
p316
sg243
S'25.9'
p317
sg245
S'2.1'
p318
sg247
S'-6.7'
p319
sg22
S'SG'
p320
sg250
S'-0.1'
p321
sg252
S'.305'
p322
sg254
S'0.0'
p323
sg256
S'.308'
p324
sg258
S'.077'
p325
sg28
S'NBA'
p326
sg261
S'-7.9'
p327
sg263
S'16.7'
p328
sg265
S'0.0'
p329
sg40
S'25'
p330
sg42
S'WAS'
p331
sg44
g47
sg270
S'0.0'
p332
sg272
S'-0.2'
p333
sg274
S'-0.1'
p334
sg64
S'27'
p335
sg277
S'-14.6'
p336
sg56
S'1997-98'
p337
sg280
S'-0.1'
p338
sbasS'_per36Minutes'
p339
(lp340
(isrc.gp1.models.Per36Minutes
Per36Minutes
p341
(dp342
g8
S'2.3'
p343
sg10
S'3.5'
p344
sg12
S'.453'
p345
sg14
S'3.1'
p346
sg16
S'.327'
p347
sg18
S'1.1'
p348
sg20
S'18.3'
p349
sg22
S'SG'
p350
sg24
S'.653'
p351
sg28
S'NBA'
p352
sg30
S'1.8'
p353
sg32
S'15.5'
p354
sg34
S'3.4'
p355
sg36
S'4.7'
p356
sg38
S'3.8'
p357
sg40
S'23'
p358
sg42
S'VAN'
p359
sg44
S'44'
p360
sg46
S'0.5'
p361
sg48
S'5.9'
p362
sg50
S'3.1'
p363
sg52
S'12.1'
p364
sg54
S'1.6'
p365
sg56
S'1995-96'
p366
sg58
S'7.0'
p367
sg60
S'2.8'
p368
sg62
S'.490'
p369
sg64
S'573'
p370
sg66
g67
sba(isrc.gp1.models.Per36Minutes
Per36Minutes
p371
(dp372
g8
S'1.3'
p373
sg10
S'4.2'
p374
sg12
S'.388'
p375
sg14
S'3.8'
p376
sg16
S'.291'
p377
sg18
S'1.2'
p378
sg20
S'13.3'
p379
sg22
S'SG'
p380
sg24
S'.646'
p381
sg28
S'NBA'
p382
sg30
S'1.4'
p383
sg32
S'13.1'
p384
sg34
S'2.5'
p385
sg36
S'2.9'
p386
sg38
S'3.5'
p387
sg40
S'24'
p388
sg42
S'VAN'
p389
sg44
S'67'
p390
sg46
S'0.7'
p391
sg48
S'3.9'
p392
sg50
S'1.9'
p393
sg52
S'8.9'
p394
sg54
S'2.3'
p395
sg56
S'1996-97'
p396
sg58
S'5.1'
p397
sg60
S'2.4'
p398
sg62
S'.433'
p399
sg64
S'1214'
p400
sg66
S'18'
p401
sba(isrc.gp1.models.Per36Minutes
Per36Minutes
p402
(dp403
g8
S'1.3'
p404
sg10
S'1.3'
p405
sg12
S'.231'
p406
sg14
S'4.0'
p407
sg16
S'.000'
p408
sg18
S'0.0'
p409
sg20
S'12.0'
p410
sg22
S'SG'
p411
sg24
S'.750'
p412
sg28
S'NBA'
p413
sg30
S'0.0'
p414
sg32
S'17.3'
p415
sg34
S'8.0'
p416
sg36
S'5.3'
p417
sg38
S'1.3'
p418
sg40
S'25'
p419
sg42
S'WAS'
p420
sg44
g47
sg46
S'0.0'
p421
sg48
S'4.0'
p422
sg50
S'4.0'
p423
sg52
S'16.0'
p424
sg54
S'0.0'
p425
sg56
S'1997-98'
p426
sg58
S'4.0'
p427
sg60
S'1.3'
p428
sg62
S'.250'
p429
sg64
S'27'
p430
sg66
g105
sbasS'_fromYear'
p431
S'1996'
p432
sS'_url'
p433
S'http://www.basketball-reference.com/players/m/motenla01.html'
p434
sS'_perGame'
p435
(isrc.gp1.models.PerGame
PerGame
p436
(dp437
g8
S'0.1'
p438
sg10
S'0.1'
p439
sg12
S'.231'
p440
sS'_effectiveFieldGalPercentage'
p441
S'.231'
p442
sg14
S'0.4'
p443
sg16
S'.000'
p444
sg18
S'0.0'
p445
sg20
S'1.1'
p446
sg22
S'SG'
p447
sg24
S'.750'
p448
sg28
S'NBA'
p449
sg30
S'0.0'
p450
sg34
S'0.8'
p451
sS'_fieldGoalsttempted'
p452
S'1.6'
p453
sg36
S'0.5'
p454
sg38
S'0.1'
p455
sg40
S'25'
p456
sg42
S'WAS'
p457
sg44
g47
sg46
S'0.0'
p458
sg48
S'0.4'
p459
sg50
S'0.4'
p460
sg52
S'1.5'
p461
sg54
S'0.0'
p462
sg56
S'1997-98'
p463
sg58
S'0.4'
p464
sg60
S'0.1'
p465
sg62
S'.250'
p466
sg64
S'3.4'
p467
sg66
g105
sbsS'_weight'
p468
S'185'
p469
sS'_dob'
p470
S'25-3-1972'
p471
sS'_salary'
p472
(lp473
(isrc.gp1.models.Salary
Salary
p474
(dp475
g42
S'Vancouver Grizzlies'
p476
sg28
S'NBA'
p477
sg472
S'$280,000'
p478
sg56
S'1995-96'
p479
sba(isrc.gp1.models.Salary
Salary
p480
(dp481
g42
S'Vancouver Grizzlies'
p482
sg28
S'NBA'
p483
sg472
S'$321,000'
p484
sg56
S'1996-97'
p485
sbasg22
S'G'
p486
sb.