(isrc.gp1.models.Player
Player
p0
(dp1
S'_experience'
p2
S'NA'
p3
sS'_totals'
p4
(lp5
(isrc.gp1.models.Totals
Totals
p6
(dp7
S'_offensiveRebounds'
p8
g3
sS'_threePointsAttempted'
p9
g3
sS'_fieldGoalsPercentage'
p10
S'.416'
p11
sS'_assist'
p12
S'44'
p13
sS'_threePointsPercentage'
p14
g3
sS'_threePoints'
p15
g3
sS'_points'
p16
S'215'
p17
sS'_position'
p18
S'SG'
p19
sS'_freeThrowsPercentage'
p20
S'.672'
p21
sS'_effectiveFieldGoalPercentage'
p22
S'.416'
p23
sS'_league'
p24
S'NBA'
p25
sS'_steals'
p26
g3
sS'_fieldGoalsAttempted'
p27
S'209'
p28
sS'_personalFouls'
p29
S'60'
p30
sS'_freeThrowsAttempted'
p31
S'61'
p32
sS'_totalRebounds'
p33
S'102'
p34
sS'_age'
p35
S'22'
p36
sS'_team'
p37
S'STL'
p38
sS'_games'
p39
S'44'
p40
sS'_blocks'
p41
g3
sS'_twoPoints'
p42
S'87'
p43
sS'_freeThrows'
p44
S'41'
p45
sS'_twoPointsAttempted'
p46
S'209'
p47
sS'_defensiveRebounds'
p48
g3
sS'_season'
p49
S'1964-65'
p50
sS'_fieldGoals'
p51
S'87'
p52
sS'_turnOvers'
p53
g3
sS'_twoPointsPercentage'
p54
S'.416'
p55
sS'_minutesPlayed'
p56
S'492'
p57
sS'_gamesStarted'
p58
g3
sba(isrc.gp1.models.Totals
Totals
p59
(dp60
g8
g3
sg9
g3
sg10
S'.382'
p61
sg12
S'66'
p62
sg14
g3
sg15
g3
sg16
S'255'
p63
sg18
S'SG'
p64
sg20
S'.806'
p65
sg22
S'.382'
p66
sg24
S'NBA'
p67
sg26
g3
sg27
S'296'
p68
sg29
S'68'
p69
sg31
S'36'
p70
sg33
S'69'
p71
sg35
S'23'
p72
sg37
S'STL'
p73
sg39
S'44'
p74
sg41
g3
sg42
S'113'
p75
sg44
S'29'
p76
sg46
S'296'
p77
sg48
g3
sg49
S'1965-66'
p78
sg51
S'113'
p79
sg53
g3
sg54
S'.382'
p80
sg56
S'587'
p81
sg58
g3
sba(isrc.gp1.models.Totals
Totals
p82
(dp83
g8
g3
sg9
g3
sg10
S'.458'
p84
sg12
S'226'
p85
sg14
g3
sg15
g3
sg16
S'992'
p86
sg18
S'SG'
p87
sg20
S'.701'
p88
sg22
S'.458'
p89
sg24
S'NBA'
p90
sg26
g3
sg27
S'919'
p91
sg29
S'195'
p92
sg31
S'214'
p93
sg33
S'388'
p94
sg35
S'24'
p95
sg37
S'SFW'
p96
sg39
S'77'
p97
sg41
g3
sg42
S'421'
p98
sg44
S'150'
p99
sg46
S'919'
p100
sg48
g3
sg49
S'1966-67'
p101
sg51
S'421'
p102
sg53
g3
sg54
S'.458'
p103
sg56
S'1835'
p104
sg58
g3
sba(isrc.gp1.models.Totals
Totals
p105
(dp106
g8
g3
sg9
g3
sg10
S'.439'
p107
sg12
S'351'
p108
sg14
g3
sg15
g3
sg16
S'1493'
p109
sg18
S'SG'
p110
sg20
S'.794'
p111
sg22
S'.439'
p112
sg24
S'NBA'
p113
sg26
g3
sg27
S'1391'
p114
sg29
S'271'
p115
sg31
S'344'
p116
sg33
S'447'
p117
sg35
S'25'
p118
sg37
S'SFW'
p119
sg39
S'79'
p120
sg41
g3
sg42
S'610'
p121
sg44
S'273'
p122
sg46
S'1391'
p123
sg48
g3
sg49
S'1967-68'
p124
sg51
S'610'
p125
sg53
g3
sg54
S'.439'
p126
sg56
S'2805'
p127
sg58
g3
sba(isrc.gp1.models.Totals
Totals
p128
(dp129
g8
g3
sg9
g3
sg10
S'.459'
p130
sg12
S'339'
p131
sg14
g3
sg15
g3
sg16
S'1775'
p132
sg18
S'SG'
p133
sg20
S'.843'
p134
sg22
S'.459'
p135
sg24
S'NBA'
p136
sg26
g3
sg27
S'1517'
p137
sg29
S'251'
p138
sg31
S'452'
p139
sg33
S'460'
p140
sg35
S'26'
p141
sg37
S'SFW'
p142
sg39
S'78'
p143
sg41
g3
sg42
S'697'
p144
sg44
S'381'
p145
sg46
S'1517'
p146
sg48
g3
sg49
S'1968-69'
p147
sg51
S'697'
p148
sg53
g3
sg54
S'.459'
p149
sg56
S'2916'
p150
sg58
g3
sba(isrc.gp1.models.Totals
Totals
p151
(dp152
g8
g3
sg9
g3
sg10
S'.460'
p153
sg12
S'360'
p154
sg14
g3
sg15
g3
sg16
S'1632'
p155
sg18
S'SG'
p156
sg20
S'.847'
p157
sg22
S'.460'
p158
sg24
S'NBA'
p159
sg26
g3
sg27
S'1426'
p160
sg29
S'240'
p161
sg31
S'378'
p162
sg33
S'382'
p163
sg35
S'27'
p164
sg37
S'SFW'
p165
sg39
S'74'
p166
sg41
g3
sg42
S'656'
p167
sg44
S'320'
p168
sg46
S'1426'
p169
sg48
g3
sg49
S'1969-70'
p170
sg51
S'656'
p171
sg53
g3
sg54
S'.460'
p172
sg56
S'2861'
p173
sg58
g3
sba(isrc.gp1.models.Totals
Totals
p174
(dp175
g8
g3
sg9
g3
sg10
S'.482'
p176
sg12
S'332'
p177
sg14
g3
sg15
g3
sg16
S'1562'
p178
sg18
S'SG'
p179
sg20
S'.844'
p180
sg22
S'.482'
p181
sg24
S'NBA'
p182
sg26
g3
sg27
S'1308'
p183
sg29
S'246'
p184
sg31
S'358'
p185
sg33
S'341'
p186
sg35
S'28'
p187
sg37
S'SFW'
p188
sg39
S'75'
p189
sg41
g3
sg42
S'630'
p190
sg44
S'302'
p191
sg46
S'1308'
p192
sg48
g3
sg49
S'1970-71'
p193
sg51
S'630'
p194
sg53
g3
sg54
S'.482'
p195
sg56
S'2909'
p196
sg58
g3
sba(isrc.gp1.models.Totals
Totals
p197
(dp198
g8
g3
sg9
g3
sg10
S'.467'
p199
sg12
S'471'
p200
sg14
g3
sg15
g3
sg16
S'1720'
p201
sg18
S'SG'
p202
sg20
S'.794'
p203
sg22
S'.467'
p204
sg24
S'NBA'
p205
sg26
g3
sg27
S'1466'
p206
sg29
S'260'
p207
sg31
S'441'
p208
sg33
S'444'
p209
sg35
S'29'
p210
sg37
S'GSW'
p211
sg39
S'80'
p212
sg41
g3
sg42
S'685'
p213
sg44
S'350'
p214
sg46
S'1466'
p215
sg48
g3
sg49
S'1971-72'
p216
sg51
S'685'
p217
sg53
g3
sg54
S'.467'
p218
sg56
S'3214'
p219
sg58
g3
sba(isrc.gp1.models.Totals
Totals
p220
(dp221
g8
g3
sg9
g3
sg10
S'.493'
p222
sg12
S'337'
p223
sg14
g3
sg15
g3
sg16
S'1445'
p224
sg18
S'SG'
p225
sg20
S'.831'
p226
sg22
S'.493'
p227
sg24
S'NBA'
p228
sg26
g3
sg27
S'1321'
p229
sg29
S'201'
p230
sg31
S'172'
p231
sg33
S'363'
p232
sg35
S'30'
p233
sg37
S'GSW'
p234
sg39
S'81'
p235
sg41
g3
sg42
S'651'
p236
sg44
S'143'
p237
sg46
S'1321'
p238
sg48
g3
sg49
S'1972-73'
p239
sg51
S'651'
p240
sg53
g3
sg54
S'.493'
p241
sg56
S'3005'
p242
sg58
g3
sba(isrc.gp1.models.Totals
Totals
p243
(dp244
g8
S'86'
p245
sg9
g3
sg10
S'.473'
p246
sg12
S'305'
p247
sg14
g3
sg15
g3
sg16
S'1250'
p248
sg18
S'SG'
p249
sg20
S'.875'
p250
sg22
S'.473'
p251
sg24
S'NBA'
p252
sg26
S'69'
p253
sg27
S'1144'
p254
sg29
S'214'
p255
sg31
S'192'
p256
sg33
S'276'
p257
sg35
S'31'
p258
sg37
S'GSW'
p259
sg39
S'77'
p260
sg41
S'22'
p261
sg42
S'541'
p262
sg44
S'168'
p263
sg46
S'1144'
p264
sg48
S'190'
p265
sg49
S'1973-74'
p266
sg51
S'541'
p267
sg53
g3
sg54
S'.473'
p268
sg56
S'2498'
p269
sg58
g3
sba(isrc.gp1.models.Totals
Totals
p270
(dp271
g8
S'46'
p272
sg9
g3
sg10
S'.455'
p273
sg12
S'153'
p274
sg14
g3
sg15
g3
sg16
S'539'
p275
sg18
S'SG'
p276
sg20
S'.816'
p277
sg22
S'.455'
p278
sg24
S'NBA'
p279
sg26
S'57'
p280
sg27
S'514'
p281
sg29
S'123'
p282
sg31
S'87'
p283
sg33
S'123'
p284
sg35
S'32'
p285
sg37
S'GSW'
p286
sg39
S'66'
p287
sg41
S'14'
p288
sg42
S'234'
p289
sg44
S'71'
p290
sg46
S'514'
p291
sg48
S'77'
p292
sg49
S'1974-75'
p293
sg51
S'234'
p294
sg53
g3
sg54
S'.455'
p295
sg56
S'1141'
p296
sg58
g3
sba(isrc.gp1.models.Totals
Totals
p297
(dp298
g8
S'12'
p299
sg9
g3
sg10
S'.483'
p300
sg12
S'39'
p301
sg14
g3
sg15
g3
sg16
S'139'
p302
sg18
S'SG'
p303
sg20
S'.793'
p304
sg22
S'.483'
p305
sg24
S'NBA'
p306
sg26
S'14'
p307
sg27
S'120'
p308
sg29
S'36'
p309
sg31
S'29'
p310
sg33
S'32'
p311
sg35
S'33'
p312
sg37
S'GSW'
p313
sg39
S'29'
p314
sg41
S'1'
p315
sg42
S'58'
p316
sg44
S'23'
p317
sg46
S'120'
p318
sg48
S'20'
p319
sg49
S'1975-76'
p320
sg51
S'58'
p321
sg53
g3
sg54
S'.483'
p322
sg56
S'311'
p323
sg58
g3
sbasS'_college'
p324
S'Duke University'
p325
sS'_toYear'
p326
S'1976'
p327
sS'_height'
p328
S'6-4'
p329
sS'_active'
p330
I00
sS'_shootingHand'
p331
VRight
p332
sS'_name'
p333
S'Jeff Mullins'
p334
sS'_per100Possessions'
p335
(lp336
(isrc.gp1.models.Per100Possession
Per100Possession
p337
(dp338
g8
S'1.5'
p339
sg9
g3
sg10
S'.473'
p340
sS'_offensiveRating'
p341
g3
sg12
S'5.4'
p342
sg14
g3
sg15
g3
sg16
S'22.1'
p343
sg18
S'SG'
p344
sS'_defensiveRating'
p345
S'102'
p346
sg20
S'.875'
p347
sg24
S'NBA'
p348
sg26
S'1.2'
p349
sg27
S'20.2'
p350
sg29
S'3.8'
p351
sg31
S'3.4'
p352
sg33
S'4.9'
p353
sg35
S'31'
p354
sg37
S'GSW'
p355
sg39
S'77'
p356
sg41
S'0.4'
p357
sg42
S'9.5'
p358
sg44
S'3.0'
p359
sg46
S'20.2'
p360
sg48
S'3.4'
p361
sg49
S'1973-74'
p362
sg51
S'9.5'
p363
sg53
g3
sg54
S'.473'
p364
sg56
S'2498'
p365
sg58
g3
sba(isrc.gp1.models.Per100Possession
Per100Possession
p366
(dp367
g8
S'1.8'
p368
sg9
g3
sg10
S'.455'
p369
sg341
g3
sg12
S'6.0'
p370
sg14
g3
sg15
g3
sg16
S'21.1'
p371
sg18
S'SG'
p372
sg345
S'100'
p373
sg20
S'.816'
p374
sg24
S'NBA'
p375
sg26
S'2.2'
p376
sg27
S'20.1'
p377
sg29
S'4.8'
p378
sg31
S'3.4'
p379
sg33
S'4.8'
p380
sg35
S'32'
p381
sg37
S'GSW'
p382
sg39
S'66'
p383
sg41
S'0.5'
p384
sg42
S'9.2'
p385
sg44
S'2.8'
p386
sg46
S'20.1'
p387
sg48
S'3.0'
p388
sg49
S'1974-75'
p389
sg51
S'9.2'
p390
sg53
g3
sg54
S'.455'
p391
sg56
S'1141'
p392
sg58
g3
sba(isrc.gp1.models.Per100Possession
Per100Possession
p393
(dp394
g8
S'1.7'
p395
sg9
g3
sg10
S'.483'
p396
sg341
g3
sg12
S'5.6'
p397
sg14
g3
sg15
g3
sg16
S'19.8'
p398
sg18
S'SG'
p399
sg345
S'98'
p400
sg20
S'.793'
p401
sg24
S'NBA'
p402
sg26
S'2.0'
p403
sg27
S'17.1'
p404
sg29
S'5.1'
p405
sg31
S'4.1'
p406
sg33
S'4.6'
p407
sg35
S'33'
p408
sg37
S'GSW'
p409
sg39
S'29'
p410
sg41
S'0.1'
p411
sg42
S'8.3'
p412
sg44
S'3.3'
p413
sg46
S'17.1'
p414
sg48
S'2.9'
p415
sg49
S'1975-76'
p416
sg51
S'8.3'
p417
sg53
g3
sg54
S'.483'
p418
sg56
S'311'
p419
sg58
g3
sbasS'_advanced'
p420
(lp421
(isrc.gp1.models.Advanced
Advanced
p422
(dp423
S'_offensiveReboundPercentage'
p424
g3
sS'_turnOverPercentage'
p425
g3
sS'_winSharesPer48Minutes'
p426
S'.079'
p427
sS'_stealPercentage'
p428
g3
sS'_usagePercentage'
p429
g3
sS'_totalReboundsPercentage'
p430
g3
sS'_defensiveBoxPlusMinus'
p431
g3
sg18
S'SG'
p432
sS'_valueOverReplacementPlayer'
p433
g3
sS'_trueShootingPercentage'
p434
S'.456'
p435
sS'_defensiveReboundPercentage'
p436
g3
sS'_freeThrowsAttempRate'
p437
S'.292'
p438
sS'_threePointsAttempRate'
p439
g3
sg24
S'NBA'
p440
sS'_offensiveBoxPlusMinues'
p441
g3
sS'_assistPercentage'
p442
S'13.3'
p443
sS'_defensiveWinShares'
p444
S'0.6'
p445
sg35
S'22'
p446
sg37
S'STL'
p447
sg39
S'44'
p448
sS'_blockPercentage'
p449
g3
sS'_playerEfficiencyRating'
p450
S'13.2'
p451
sS'_offensiveWinShares'
p452
S'0.2'
p453
sg56
S'492'
p454
sS'_boxPlusMinus'
p455
g3
sg49
S'1964-65'
p456
sS'_winShares'
p457
S'0.8'
p458
sba(isrc.gp1.models.Advanced
Advanced
p459
(dp460
g424
g3
sg425
g3
sg426
S'-0.021'
p461
sg428
g3
sg429
g3
sg430
g3
sg431
g3
sg18
S'SG'
p462
sg433
g3
sg434
S'.409'
p463
sg436
g3
sg437
S'.122'
p464
sg439
g3
sg24
S'NBA'
p465
sg441
g3
sg442
S'16.4'
p466
sg444
S'0.4'
p467
sg35
S'23'
p468
sg37
S'STL'
p469
sg39
S'44'
p470
sg449
g3
sg450
S'9.9'
p471
sg452
S'-0.7'
p472
sg56
S'587'
p473
sg455
g3
sg49
S'1965-66'
p474
sg457
S'-0.3'
p475
sba(isrc.gp1.models.Advanced
Advanced
p476
(dp477
g424
g3
sg425
g3
sg426
S'.119'
p478
sg428
g3
sg429
g3
sg430
g3
sg431
g3
sg18
S'SG'
p479
sg433
g3
sg434
S'.490'
p480
sg436
g3
sg437
S'.233'
p481
sg439
g3
sg24
S'NBA'
p482
sg441
g3
sg442
S'16.6'
p483
sg444
S'2.7'
p484
sg35
S'24'
p485
sg37
S'SFW'
p486
sg39
S'77'
p487
sg449
g3
sg450
S'15.8'
p488
sg452
S'1.9'
p489
sg56
S'1835'
p490
sg455
g3
sg49
S'1966-67'
p491
sg457
S'4.5'
p492
sba(isrc.gp1.models.Advanced
Advanced
p493
(dp494
g424
g3
sg425
g3
sg426
S'.098'
p495
sg428
g3
sg429
g3
sg430
g3
sg431
g3
sg18
S'SG'
p496
sg433
g3
sg434
S'.484'
p497
sg436
g3
sg437
S'.247'
p498
sg439
g3
sg24
S'NBA'
p499
sg441
g3
sg442
S'17.9'
p500
sg444
S'3.6'
p501
sg35
S'25'
p502
sg37
S'SFW'
p503
sg39
S'79'
p504
sg449
g3
sg450
S'15.1'
p505
sg452
S'2.2'
p506
sg56
S'2805'
p507
sg455
g3
sg49
S'1967-68'
p508
sg457
S'5.7'
p509
sba(isrc.gp1.models.Advanced
Advanced
p510
(dp511
g424
g3
sg425
g3
sg426
S'.165'
p512
sg428
g3
sg429
g3
sg430
g3
sg431
g3
sg18
S'SG'
p513
sg433
g3
sg434
S'.517'
p514
sg436
g3
sg437
S'.298'
p515
sg439
g3
sg24
S'NBA'
p516
sg441
g3
sg442
S'18.8'
p517
sg444
S'3.7'
p518
sg35
S'26'
p519
sg37
S'SFW'
p520
sg39
S'78'
p521
sg449
g3
sg450
S'18.9'
p522
sg452
S'6.4'
p523
sg56
S'2916'
p524
sg455
g3
sg49
S'1968-69'
p525
sg457
S'10.0'
p526
sba(isrc.gp1.models.Advanced
Advanced
p527
(dp528
g424
g3
sg425
g3
sg426
S'.114'
p529
sg428
g3
sg429
g3
sg430
g3
sg431
g3
sg18
S'SG'
p530
sg433
g3
sg434
S'.512'
p531
sg436
g3
sg437
S'.265'
p532
sg439
g3
sg24
S'NBA'
p533
sg441
g3
sg442
S'18.9'
p534
sg444
S'3.0'
p535
sg35
S'27'
p536
sg37
S'SFW'
p537
sg39
S'74'
p538
sg449
g3
sg450
S'17.0'
p539
sg452
S'3.7'
p540
sg56
S'2861'
p541
sg455
g3
sg49
S'1969-70'
p542
sg457
S'6.8'
p543
sba(isrc.gp1.models.Advanced
Advanced
p544
(dp545
g424
g3
sg425
g3
sg426
S'.135'
p546
sg428
g3
sg429
g3
sg430
S'5.2'
p547
sg431
g3
sg18
S'SG'
p548
sg433
g3
sg434
S'.533'
p549
sg436
g3
sg437
S'.274'
p550
sg439
g3
sg24
S'NBA'
p551
sg441
g3
sg442
S'17.3'
p552
sg444
S'2.0'
p553
sg35
S'28'
p554
sg37
S'SFW'
p555
sg39
S'75'
p556
sg449
g3
sg450
S'17.1'
p557
sg452
S'6.2'
p558
sg56
S'2909'
p559
sg455
g3
sg49
S'1970-71'
p560
sg457
S'8.2'
p561
sba(isrc.gp1.models.Advanced
Advanced
p562
(dp563
g424
g3
sg425
g3
sg426
S'.148'
p564
sg428
g3
sg429
g3
sg430
S'6.2'
p565
sg431
g3
sg18
S'SG'
p566
sg433
g3
sg434
S'.518'
p567
sg436
g3
sg437
S'.301'
p568
sg439
g3
sg24
S'NBA'
p569
sg441
g3
sg442
S'21.9'
p570
sg444
S'4.6'
p571
sg35
S'29'
p572
sg37
S'GSW'
p573
sg39
S'80'
p574
sg449
g3
sg450
S'18.0'
p575
sg452
S'5.3'
p576
sg56
S'3214'
p577
sg455
g3
sg49
S'1971-72'
p578
sg457
S'9.9'
p579
sba(isrc.gp1.models.Advanced
Advanced
p580
(dp581
g424
g3
sg425
g3
sg426
S'.133'
p582
sg428
g3
sg429
g3
sg430
S'5.5'
p583
sg431
g3
sg18
S'SG'
p584
sg433
g3
sg434
S'.517'
p585
sg436
g3
sg437
S'.130'
p586
sg439
g3
sg24
S'NBA'
p587
sg441
g3
sg442
S'15.5'
p588
sg444
S'3.5'
p589
sg35
S'30'
p590
sg37
S'GSW'
p591
sg39
S'81'
p592
sg449
g3
sg450
S'15.5'
p593
sg452
S'4.8'
p594
sg56
S'3005'
p595
sg455
g3
sg49
S'1972-73'
p596
sg457
S'8.3'
p597
sba(isrc.gp1.models.Advanced
Advanced
p598
(dp599
g424
S'3.3'
p600
sg425
g3
sg426
S'.107'
p601
sg428
S'1.2'
p602
sg429
g3
sg430
S'5.2'
p603
sg431
S'-1.7'
p604
sg18
S'SG'
p605
sg433
S'0.8'
p606
sg434
S'.509'
p607
sg436
S'7.0'
p608
sg437
S'.168'
p609
sg439
g3
sg24
S'NBA'
p610
sg441
S'1.0'
p611
sg442
S'16.8'
p612
sg444
S'1.2'
p613
sg35
S'31'
p614
sg37
S'GSW'
p615
sg39
S'77'
p616
sg449
S'0.4'
p617
sg450
S'15.1'
p618
sg452
S'4.3'
p619
sg56
S'2498'
p620
sg455
S'-0.7'
p621
sg49
S'1973-74'
p622
sg457
S'5.6'
p623
sba(isrc.gp1.models.Advanced
Advanced
p624
(dp625
g424
S'3.9'
p626
sg425
g3
sg426
S'.097'
p627
sg428
S'2.2'
p628
sg429
g3
sg430
S'5.3'
p629
sg431
S'-1.7'
p630
sg18
S'SG'
p631
sg433
S'0.0'
p632
sg434
S'.488'
p633
sg436
S'6.6'
p634
sg437
S'.169'
p635
sg439
g3
sg24
S'NBA'
p636
sg441
S'-0.3'
p637
sg442
S'18.3'
p638
sg444
S'0.9'
p639
sg35
S'32'
p640
sg37
S'GSW'
p641
sg39
S'66'
p642
sg449
S'0.6'
p643
sg450
S'15.2'
p644
sg452
S'1.4'
p645
sg56
S'1141'
p646
sg455
S'-2.0'
p647
sg49
S'1974-75'
p648
sg457
S'2.3'
p649
sba(isrc.gp1.models.Advanced
Advanced
p650
(dp651
g424
S'3.8'
p652
sg425
g3
sg426
S'.134'
p653
sg428
S'2.0'
p654
sg429
g3
sg430
S'4.9'
p655
sg431
S'-1.4'
p656
sg18
S'SG'
p657
sg433
S'0.0'
p658
sg434
S'.524'
p659
sg436
S'6.1'
p660
sg437
S'.242'
p661
sg439
g3
sg24
S'NBA'
p662
sg441
S'-0.3'
p663
sg442
S'16.9'
p664
sg444
S'0.3'
p665
sg35
S'33'
p666
sg37
S'GSW'
p667
sg39
S'29'
p668
sg449
S'0.2'
p669
sg450
S'14.5'
p670
sg452
S'0.5'
p671
sg56
S'311'
p672
sg455
S'-1.7'
p673
sg49
S'1975-76'
p674
sg457
S'0.9'
p675
sbasS'_per36Minutes'
p676
(lp677
(isrc.gp1.models.Per36Minutes
Per36Minutes
p678
(dp679
g8
g3
sg9
g3
sg10
S'.416'
p680
sg12
S'3.2'
p681
sg14
g3
sg15
g3
sg16
S'15.7'
p682
sg18
S'SG'
p683
sg20
S'.672'
p684
sg24
S'NBA'
p685
sg26
g3
sg27
S'15.3'
p686
sg29
S'4.4'
p687
sg31
S'4.5'
p688
sg33
S'7.5'
p689
sg35
S'22'
p690
sg37
S'STL'
p691
sg39
S'44'
p692
sg41
g3
sg42
S'6.4'
p693
sg44
S'3.0'
p694
sg46
S'15.3'
p695
sg48
g3
sg49
S'1964-65'
p696
sg51
S'6.4'
p697
sg53
g3
sg54
S'.416'
p698
sg56
S'492'
p699
sg58
g3
sba(isrc.gp1.models.Per36Minutes
Per36Minutes
p700
(dp701
g8
g3
sg9
g3
sg10
S'.382'
p702
sg12
S'4.0'
p703
sg14
g3
sg15
g3
sg16
S'15.6'
p704
sg18
S'SG'
p705
sg20
S'.806'
p706
sg24
S'NBA'
p707
sg26
g3
sg27
S'18.2'
p708
sg29
S'4.2'
p709
sg31
S'2.2'
p710
sg33
S'4.2'
p711
sg35
S'23'
p712
sg37
S'STL'
p713
sg39
S'44'
p714
sg41
g3
sg42
S'6.9'
p715
sg44
S'1.8'
p716
sg46
S'18.2'
p717
sg48
g3
sg49
S'1965-66'
p718
sg51
S'6.9'
p719
sg53
g3
sg54
S'.382'
p720
sg56
S'587'
p721
sg58
g3
sba(isrc.gp1.models.Per36Minutes
Per36Minutes
p722
(dp723
g8
g3
sg9
g3
sg10
S'.458'
p724
sg12
S'4.4'
p725
sg14
g3
sg15
g3
sg16
S'19.5'
p726
sg18
S'SG'
p727
sg20
S'.701'
p728
sg24
S'NBA'
p729
sg26
g3
sg27
S'18.0'
p730
sg29
S'3.8'
p731
sg31
S'4.2'
p732
sg33
S'7.6'
p733
sg35
S'24'
p734
sg37
S'SFW'
p735
sg39
S'77'
p736
sg41
g3
sg42
S'8.3'
p737
sg44
S'2.9'
p738
sg46
S'18.0'
p739
sg48
g3
sg49
S'1966-67'
p740
sg51
S'8.3'
p741
sg53
g3
sg54
S'.458'
p742
sg56
S'1835'
p743
sg58
g3
sba(isrc.gp1.models.Per36Minutes
Per36Minutes
p744
(dp745
g8
g3
sg9
g3
sg10
S'.439'
p746
sg12
S'4.5'
p747
sg14
g3
sg15
g3
sg16
S'19.2'
p748
sg18
S'SG'
p749
sg20
S'.794'
p750
sg24
S'NBA'
p751
sg26
g3
sg27
S'17.9'
p752
sg29
S'3.5'
p753
sg31
S'4.4'
p754
sg33
S'5.7'
p755
sg35
S'25'
p756
sg37
S'SFW'
p757
sg39
S'79'
p758
sg41
g3
sg42
S'7.8'
p759
sg44
S'3.5'
p760
sg46
S'17.9'
p761
sg48
g3
sg49
S'1967-68'
p762
sg51
S'7.8'
p763
sg53
g3
sg54
S'.439'
p764
sg56
S'2805'
p765
sg58
g3
sba(isrc.gp1.models.Per36Minutes
Per36Minutes
p766
(dp767
g8
g3
sg9
g3
sg10
S'.459'
p768
sg12
S'4.2'
p769
sg14
g3
sg15
g3
sg16
S'21.9'
p770
sg18
S'SG'
p771
sg20
S'.843'
p772
sg24
S'NBA'
p773
sg26
g3
sg27
S'18.7'
p774
sg29
S'3.1'
p775
sg31
S'5.6'
p776
sg33
S'5.7'
p777
sg35
S'26'
p778
sg37
S'SFW'
p779
sg39
S'78'
p780
sg41
g3
sg42
S'8.6'
p781
sg44
S'4.7'
p782
sg46
S'18.7'
p783
sg48
g3
sg49
S'1968-69'
p784
sg51
S'8.6'
p785
sg53
g3
sg54
S'.459'
p786
sg56
S'2916'
p787
sg58
g3
sba(isrc.gp1.models.Per36Minutes
Per36Minutes
p788
(dp789
g8
g3
sg9
g3
sg10
S'.460'
p790
sg12
S'4.5'
p791
sg14
g3
sg15
g3
sg16
S'20.5'
p792
sg18
S'SG'
p793
sg20
S'.847'
p794
sg24
S'NBA'
p795
sg26
g3
sg27
S'17.9'
p796
sg29
S'3.0'
p797
sg31
S'4.8'
p798
sg33
S'4.8'
p799
sg35
S'27'
p800
sg37
S'SFW'
p801
sg39
S'74'
p802
sg41
g3
sg42
S'8.3'
p803
sg44
S'4.0'
p804
sg46
S'17.9'
p805
sg48
g3
sg49
S'1969-70'
p806
sg51
S'8.3'
p807
sg53
g3
sg54
S'.460'
p808
sg56
S'2861'
p809
sg58
g3
sba(isrc.gp1.models.Per36Minutes
Per36Minutes
p810
(dp811
g8
g3
sg9
g3
sg10
S'.482'
p812
sg12
S'4.1'
p813
sg14
g3
sg15
g3
sg16
S'19.3'
p814
sg18
S'SG'
p815
sg20
S'.844'
p816
sg24
S'NBA'
p817
sg26
g3
sg27
S'16.2'
p818
sg29
S'3.0'
p819
sg31
S'4.4'
p820
sg33
S'4.2'
p821
sg35
S'28'
p822
sg37
S'SFW'
p823
sg39
S'75'
p824
sg41
g3
sg42
S'7.8'
p825
sg44
S'3.7'
p826
sg46
S'16.2'
p827
sg48
g3
sg49
S'1970-71'
p828
sg51
S'7.8'
p829
sg53
g3
sg54
S'.482'
p830
sg56
S'2909'
p831
sg58
g3
sba(isrc.gp1.models.Per36Minutes
Per36Minutes
p832
(dp833
g8
g3
sg9
g3
sg10
S'.467'
p834
sg12
S'5.3'
p835
sg14
g3
sg15
g3
sg16
S'19.3'
p836
sg18
S'SG'
p837
sg20
S'.794'
p838
sg24
S'NBA'
p839
sg26
g3
sg27
S'16.4'
p840
sg29
S'2.9'
p841
sg31
S'4.9'
p842
sg33
S'5.0'
p843
sg35
S'29'
p844
sg37
S'GSW'
p845
sg39
S'80'
p846
sg41
g3
sg42
S'7.7'
p847
sg44
S'3.9'
p848
sg46
S'16.4'
p849
sg48
g3
sg49
S'1971-72'
p850
sg51
S'7.7'
p851
sg53
g3
sg54
S'.467'
p852
sg56
S'3214'
p853
sg58
g3
sba(isrc.gp1.models.Per36Minutes
Per36Minutes
p854
(dp855
g8
g3
sg9
g3
sg10
S'.493'
p856
sg12
S'4.0'
p857
sg14
g3
sg15
g3
sg16
S'17.3'
p858
sg18
S'SG'
p859
sg20
S'.831'
p860
sg24
S'NBA'
p861
sg26
g3
sg27
S'15.8'
p862
sg29
S'2.4'
p863
sg31
S'2.1'
p864
sg33
S'4.3'
p865
sg35
S'30'
p866
sg37
S'GSW'
p867
sg39
S'81'
p868
sg41
g3
sg42
S'7.8'
p869
sg44
S'1.7'
p870
sg46
S'15.8'
p871
sg48
g3
sg49
S'1972-73'
p872
sg51
S'7.8'
p873
sg53
g3
sg54
S'.493'
p874
sg56
S'3005'
p875
sg58
g3
sba(isrc.gp1.models.Per36Minutes
Per36Minutes
p876
(dp877
g8
S'1.2'
p878
sg9
g3
sg10
S'.473'
p879
sg12
S'4.4'
p880
sg14
g3
sg15
g3
sg16
S'18.0'
p881
sg18
S'SG'
p882
sg20
S'.875'
p883
sg24
S'NBA'
p884
sg26
S'1.0'
p885
sg27
S'16.5'
p886
sg29
S'3.1'
p887
sg31
S'2.8'
p888
sg33
S'4.0'
p889
sg35
S'31'
p890
sg37
S'GSW'
p891
sg39
S'77'
p892
sg41
S'0.3'
p893
sg42
S'7.8'
p894
sg44
S'2.4'
p895
sg46
S'16.5'
p896
sg48
S'2.7'
p897
sg49
S'1973-74'
p898
sg51
S'7.8'
p899
sg53
g3
sg54
S'.473'
p900
sg56
S'2498'
p901
sg58
g3
sba(isrc.gp1.models.Per36Minutes
Per36Minutes
p902
(dp903
g8
S'1.5'
p904
sg9
g3
sg10
S'.455'
p905
sg12
S'4.8'
p906
sg14
g3
sg15
g3
sg16
S'17.0'
p907
sg18
S'SG'
p908
sg20
S'.816'
p909
sg24
S'NBA'
p910
sg26
S'1.8'
p911
sg27
S'16.2'
p912
sg29
S'3.9'
p913
sg31
S'2.7'
p914
sg33
S'3.9'
p915
sg35
S'32'
p916
sg37
S'GSW'
p917
sg39
S'66'
p918
sg41
S'0.4'
p919
sg42
S'7.4'
p920
sg44
S'2.2'
p921
sg46
S'16.2'
p922
sg48
S'2.4'
p923
sg49
S'1974-75'
p924
sg51
S'7.4'
p925
sg53
g3
sg54
S'.455'
p926
sg56
S'1141'
p927
sg58
g3
sba(isrc.gp1.models.Per36Minutes
Per36Minutes
p928
(dp929
g8
S'1.4'
p930
sg9
g3
sg10
S'.483'
p931
sg12
S'4.5'
p932
sg14
g3
sg15
g3
sg16
S'16.1'
p933
sg18
S'SG'
p934
sg20
S'.793'
p935
sg24
S'NBA'
p936
sg26
S'1.6'
p937
sg27
S'13.9'
p938
sg29
S'4.2'
p939
sg31
S'3.4'
p940
sg33
S'3.7'
p941
sg35
S'33'
p942
sg37
S'GSW'
p943
sg39
S'29'
p944
sg41
S'0.1'
p945
sg42
S'6.7'
p946
sg44
S'2.7'
p947
sg46
S'13.9'
p948
sg48
S'2.3'
p949
sg49
S'1975-76'
p950
sg51
S'6.7'
p951
sg53
g3
sg54
S'.483'
p952
sg56
S'311'
p953
sg58
g3
sbasS'_fromYear'
p954
S'1965'
p955
sS'_url'
p956
S'http://www.basketball-reference.com/players/m/mullije01.html'
p957
sS'_perGame'
p958
(isrc.gp1.models.PerGame
PerGame
p959
(dp960
g8
S'0.4'
p961
sg9
g3
sg10
S'.483'
p962
sS'_effectiveFieldGalPercentage'
p963
S'.483'
p964
sg12
S'1.3'
p965
sg14
g3
sg15
g3
sg16
S'4.8'
p966
sg18
S'SG'
p967
sg20
S'.793'
p968
sg24
S'NBA'
p969
sg26
S'0.5'
p970
sg29
S'1.2'
p971
sS'_fieldGoalsttempted'
p972
S'4.1'
p973
sg31
S'1.0'
p974
sg33
S'1.1'
p975
sg35
S'33'
p976
sg37
S'GSW'
p977
sg39
S'29'
p978
sg41
S'0.0'
p979
sg42
S'2.0'
p980
sg44
S'0.8'
p981
sg46
S'4.1'
p982
sg48
S'0.7'
p983
sg49
S'1975-76'
p984
sg51
S'2.0'
p985
sg53
g3
sg54
S'.483'
p986
sg56
S'10.7'
p987
sg58
g3
sbsS'_weight'
p988
S'190'
p989
sS'_dob'
p990
S'18-3-1942'
p991
sS'_salary'
p992
(lp993
sg18
S'G-F'
p994
sb.