(isrc.gp1.models.Player
Player
p0
(dp1
S'_experience'
p2
S'NA'
p3
sS'_totals'
p4
(lp5
(isrc.gp1.models.Totals
Totals
p6
(dp7
S'_offensiveRebounds'
p8
g3
sS'_threePointsAttempted'
p9
g3
sS'_fieldGoalsPercentage'
p10
S'.458'
p11
sS'_assist'
p12
S'329'
p13
sS'_threePointsPercentage'
p14
g3
sS'_threePoints'
p15
g3
sS'_points'
p16
S'1298'
p17
sS'_position'
p18
S'PG'
p19
sS'_freeThrowsPercentage'
p20
S'.820'
p21
sS'_effectiveFieldGoalPercentage'
p22
S'.458'
p23
sS'_league'
p24
S'NBA'
p25
sS'_steals'
p26
g3
sS'_fieldGoalsAttempted'
p27
S'1029'
p28
sS'_personalFouls'
p29
S'263'
p30
sS'_freeThrowsAttempted'
p31
S'434'
p32
sS'_totalRebounds'
p33
S'245'
p34
sS'_age'
p35
S'22'
p36
sS'_team'
p37
S'SDR'
p38
sS'_games'
p39
S'82'
p40
sS'_blocks'
p41
g3
sS'_twoPoints'
p42
S'471'
p43
sS'_freeThrows'
p44
S'356'
p45
sS'_twoPointsAttempted'
p46
S'1029'
p47
sS'_defensiveRebounds'
p48
g3
sS'_season'
p49
S'1970-71'
p50
sS'_fieldGoals'
p51
S'471'
p52
sS'_turnOvers'
p53
g3
sS'_twoPointsPercentage'
p54
S'.458'
p55
sS'_minutesPlayed'
p56
S'2020'
p57
sS'_gamesStarted'
p58
g3
sba(isrc.gp1.models.Totals
Totals
p59
(dp60
g8
g3
sg9
g3
sg10
S'.455'
p61
sg12
S'393'
p62
sg14
g3
sg15
g3
sg16
S'1491'
p63
sg18
S'PG'
p64
sg20
S'.890'
p65
sg22
S'.455'
p66
sg24
S'NBA'
p67
sg26
g3
sg27
S'1255'
p68
sg29
S'298'
p69
sg31
S'392'
p70
sg33
S'258'
p71
sg35
S'23'
p72
sg37
S'HOU'
p73
sg39
S'82'
p74
sg41
g3
sg42
S'571'
p75
sg44
S'349'
p76
sg46
S'1255'
p77
sg48
g3
sg49
S'1971-72'
p78
sg51
S'571'
p79
sg53
g3
sg54
S'.455'
p80
sg56
S'2538'
p81
sg58
g3
sba(isrc.gp1.models.Totals
Totals
p82
(dp83
g8
g3
sg9
g3
sg10
S'.465'
p84
sg12
S'262'
p85
sg14
g3
sg15
g3
sg16
S'1001'
p86
sg18
S'PG'
p87
sg20
S'.888'
p88
sg22
S'.465'
p89
sg24
S'NBA'
p90
sg26
g3
sg27
S'820'
p91
sg29
S'211'
p92
sg31
S'269'
p93
sg33
S'149'
p94
sg35
S'24'
p95
sg37
S'HOU'
p96
sg39
S'77'
p97
sg41
g3
sg42
S'381'
p98
sg44
S'239'
p99
sg46
S'820'
p100
sg48
g3
sg49
S'1972-73'
p101
sg51
S'381'
p102
sg53
g3
sg54
S'.465'
p103
sg56
S'1697'
p104
sg58
g3
sba(isrc.gp1.models.Totals
Totals
p105
(dp106
g8
S'51'
p107
sg9
g3
sg10
S'.522'
p108
sg12
S'603'
p109
sg14
g3
sg15
g3
sg16
S'1652'
p110
sg18
S'PG'
p111
sg20
S'.868'
p112
sg22
S'.522'
p113
sg24
S'NBA'
p114
sg26
S'157'
p115
sg27
S'1285'
p116
sg29
S'310'
p117
sg31
S'357'
p118
sg33
S'188'
p119
sg35
S'25'
p120
sg37
S'HOU'
p121
sg39
S'81'
p122
sg41
S'4'
p123
sg42
S'671'
p124
sg44
S'310'
p125
sg46
S'1285'
p126
sg48
S'137'
p127
sg49
S'1973-74'
p128
sg51
S'671'
p129
sg53
g3
sg54
S'.522'
p130
sg56
S'2922'
p131
sg58
g3
sba(isrc.gp1.models.Totals
Totals
p132
(dp133
g8
S'52'
p134
sg9
g3
sg10
S'.484'
p135
sg12
S'381'
p136
sg14
g3
sg15
g3
sg16
S'1455'
p137
sg18
S'PG'
p138
sg20
S'.883'
p139
sg22
S'.484'
p140
sg24
S'NBA'
p141
sg26
S'128'
p142
sg27
S'1152'
p143
sg29
S'281'
p144
sg31
S'386'
p145
sg33
S'173'
p146
sg35
S'26'
p147
sg37
S'HOU'
p148
sg39
S'78'
p149
sg41
g123
sg42
S'557'
p150
sg44
S'341'
p151
sg46
S'1152'
p152
sg48
S'121'
p153
sg49
S'1974-75'
p154
sg51
S'557'
p155
sg53
g3
sg54
S'.484'
p156
sg56
S'2513'
p157
sg58
g3
sba(isrc.gp1.models.Totals
Totals
p158
(dp159
g8
S'52'
p160
sg9
g3
sg10
S'.493'
p161
sg12
S'596'
p162
sg14
g3
sg15
g3
sg16
S'1722'
p163
sg18
S'PG'
p164
sg20
S'.907'
p165
sg22
S'.493'
p166
sg24
S'NBA'
p167
sg26
S'151'
p168
sg27
S'1369'
p169
sg29
S'294'
p170
sg31
S'410'
p171
sg33
S'209'
p172
sg35
S'27'
p173
sg37
S'HOU'
p174
sg39
S'82'
p175
sg41
S'6'
p176
sg42
S'675'
p177
sg44
S'372'
p178
sg46
S'1369'
p179
sg48
S'157'
p180
sg49
S'1975-76'
p181
sg51
S'675'
p182
sg53
g3
sg54
S'.493'
p183
sg56
S'2995'
p184
sg58
g3
sba(isrc.gp1.models.Totals
Totals
p185
(dp186
g8
S'54'
p187
sg9
g3
sg10
S'.490'
p188
sg12
S'386'
p189
sg14
g3
sg15
g3
sg16
S'1464'
p190
sg18
S'PG'
p191
sg20
S'.886'
p192
sg22
S'.490'
p193
sg24
S'NBA'
p194
sg26
S'144'
p195
sg27
S'1216'
p196
sg29
S'281'
p197
sg31
S'307'
p198
sg33
S'172'
p199
sg35
S'28'
p200
sg37
S'HOU'
p201
sg39
S'82'
p202
sg41
S'8'
p203
sg42
S'596'
p204
sg44
S'272'
p205
sg46
S'1216'
p206
sg48
S'118'
p207
sg49
S'1976-77'
p208
sg51
S'596'
p209
sg53
g3
sg54
S'.490'
p210
sg56
S'2764'
p211
sg58
g3
sba(isrc.gp1.models.Totals
Totals
p212
(dp213
g8
S'57'
p214
sg9
g3
sg10
S'.491'
p215
sg12
S'259'
p216
sg14
g3
sg15
g3
sg16
S'1949'
p217
sg18
S'SG'
p218
sg20
S'.918'
p219
sg22
S'.491'
p220
sg24
S'NBA'
p221
sg26
S'112'
p222
sg27
S'1737'
p223
sg29
S'241'
p224
sg31
S'267'
p225
sg33
S'164'
p226
sg35
S'29'
p227
sg37
S'HOU'
p228
sg39
S'76'
p229
sg41
S'3'
p230
sg42
S'852'
p231
sg44
S'245'
p232
sg46
S'1737'
p233
sg48
S'107'
p234
sg49
S'1977-78'
p235
sg51
S'852'
p236
sg53
S'173'
p237
sg54
S'.491'
p238
sg56
S'2900'
p239
sg58
g3
sba(isrc.gp1.models.Totals
Totals
p240
(dp241
g8
S'78'
p242
sg9
g3
sg10
S'.496'
p243
sg12
S'351'
p244
sg14
g3
sg15
g3
sg16
S'1660'
p245
sg18
S'PG'
p246
sg20
S'.928'
p247
sg22
S'.496'
p248
sg24
S'NBA'
p249
sg26
S'117'
p250
sg27
S'1424'
p251
sg29
S'288'
p252
sg31
S'265'
p253
sg33
S'173'
p254
sg35
S'30'
p255
sg37
S'HOU'
p256
sg39
S'82'
p257
sg41
g176
sg42
S'707'
p258
sg44
S'246'
p259
sg46
S'1424'
p260
sg48
S'95'
p261
sg49
S'1978-79'
p262
sg51
S'707'
p263
sg53
S'187'
p264
sg54
S'.496'
p265
sg56
S'2941'
p266
sg58
g3
sba(isrc.gp1.models.Totals
Totals
p267
(dp268
g8
S'68'
p269
sg9
S'25'
p270
sg10
S'.493'
p271
sg12
S'299'
p272
sg14
S'.040'
p273
sg15
S'1'
p274
sg16
S'1520'
p275
sg18
S'SG'
p276
sg20
S'.897'
p277
sg22
S'.493'
p278
sg24
S'NBA'
p279
sg26
S'143'
p280
sg27
S'1267'
p281
sg29
S'269'
p282
sg31
S'302'
p283
sg33
S'150'
p284
sg35
S'31'
p285
sg37
S'HOU'
p286
sg39
S'76'
p287
sg41
S'9'
p288
sg42
S'623'
p289
sg44
S'271'
p290
sg46
S'1242'
p291
sg48
S'82'
p292
sg49
S'1979-80'
p293
sg51
S'624'
p294
sg53
S'162'
p295
sg54
S'.502'
p296
sg56
S'2676'
p297
sg58
g3
sba(isrc.gp1.models.Totals
Totals
p298
(dp299
g8
S'33'
p300
sg9
S'17'
p301
sg10
S'.492'
p302
sg12
S'222'
p303
sg14
S'.235'
p304
sg15
g123
sg16
S'1266'
p305
sg18
S'PG'
p306
sg20
S'.958'
p307
sg22
S'.493'
p308
sg24
S'NBA'
p309
sg26
S'111'
p310
sg27
S'1074'
p311
sg29
S'209'
p312
sg31
S'215'
p313
sg33
S'87'
p314
sg35
S'32'
p315
sg37
S'HOU'
p316
sg39
S'76'
p317
sg41
g176
sg42
S'524'
p318
sg44
S'206'
p319
sg46
S'1057'
p320
sg48
S'54'
p321
sg49
S'1980-81'
p322
sg51
S'528'
p323
sg53
S'129'
p324
sg54
S'.496'
p325
sg56
S'2014'
p326
sg58
g3
sba(isrc.gp1.models.Totals
Totals
p327
(dp328
g8
S'20'
p329
sg9
S'16'
p330
sg10
S'.427'
p331
sg12
S'163'
p332
sg14
S'.063'
p333
sg15
g274
sg16
S'655'
p334
sg18
S'PG'
p335
sg20
S'.909'
p336
sg22
S'.428'
p337
sg24
S'NBA'
p338
sg26
S'43'
p339
sg27
S'648'
p340
sg29
S'142'
p341
sg31
S'110'
p342
sg33
S'61'
p343
sg35
S'33'
p344
sg37
S'HOU'
p345
sg39
S'64'
p346
sg41
g274
sg42
S'276'
p347
sg44
S'100'
p348
sg46
S'632'
p349
sg48
S'41'
p350
sg49
S'1981-82'
p351
sg51
S'277'
p352
sg53
S'82'
p353
sg54
S'.437'
p354
sg56
S'1204'
p355
sg58
S'0'
p356
sba(isrc.gp1.models.Totals
Totals
p357
(dp358
g8
S'34'
p359
sg9
S'14'
p360
sg10
S'.447'
p361
sg12
S'158'
p362
sg14
S'.286'
p363
sg15
g123
sg16
S'816'
p364
sg18
S'PG'
p365
sg20
S'.920'
p366
sg22
S'.450'
p367
sg24
S'NBA'
p368
sg26
S'59'
p369
sg27
S'754'
p370
sg29
S'163'
p371
sg31
S'150'
p372
sg33
S'74'
p373
sg35
S'34'
p374
sg37
S'HOU'
p375
sg39
S'64'
p376
sg41
g123
sg42
S'333'
p377
sg44
S'138'
p378
sg46
S'740'
p379
sg48
S'40'
p380
sg49
S'1982-83'
p381
sg51
S'337'
p382
sg53
S'89'
p383
sg54
S'.450'
p384
sg56
S'1423'
p385
sg58
g356
sbasS'_college'
p386
S'Niagara University'
p387
sS'_toYear'
p388
S'1983'
p389
sS'_height'
p390
S'5-9'
p391
sS'_active'
p392
I00
sS'_shootingHand'
p393
VRight
p394
sS'_name'
p395
S'Calvin Murphy'
p396
sS'_per100Possessions'
p397
(lp398
(isrc.gp1.models.Per100Possession
Per100Possession
p399
(dp400
g8
S'0.8'
p401
sg9
g3
sg10
S'.522'
p402
sS'_offensiveRating'
p403
g3
sg12
S'9.3'
p404
sg14
g3
sg15
g3
sg16
S'25.6'
p405
sg18
S'PG'
p406
sS'_defensiveRating'
p407
S'102'
p408
sg20
S'.868'
p409
sg24
S'NBA'
p410
sg26
S'2.4'
p411
sg27
S'19.9'
p412
sg29
S'4.8'
p413
sg31
S'5.5'
p414
sg33
S'2.9'
p415
sg35
S'25'
p416
sg37
S'HOU'
p417
sg39
S'81'
p418
sg41
S'0.1'
p419
sg42
S'10.4'
p420
sg44
S'4.8'
p421
sg46
S'19.9'
p422
sg48
S'2.1'
p423
sg49
S'1973-74'
p424
sg51
S'10.4'
p425
sg53
g3
sg54
S'.522'
p426
sg56
S'2922'
p427
sg58
g3
sba(isrc.gp1.models.Per100Possession
Per100Possession
p428
(dp429
g8
S'1.0'
p430
sg9
g3
sg10
S'.484'
p431
sg403
g3
sg12
S'7.1'
p432
sg14
g3
sg15
g3
sg16
S'27.0'
p433
sg18
S'PG'
p434
sg407
S'101'
p435
sg20
S'.883'
p436
sg24
S'NBA'
p437
sg26
S'2.4'
p438
sg27
S'21.4'
p439
sg29
S'5.2'
p440
sg31
S'7.2'
p441
sg33
S'3.2'
p442
sg35
S'26'
p443
sg37
S'HOU'
p444
sg39
S'78'
p445
sg41
S'0.1'
p446
sg42
S'10.3'
p447
sg44
S'6.3'
p448
sg46
S'21.4'
p449
sg48
S'2.2'
p450
sg49
S'1974-75'
p451
sg51
S'10.3'
p452
sg53
g3
sg54
S'.484'
p453
sg56
S'2513'
p454
sg58
g3
sba(isrc.gp1.models.Per100Possession
Per100Possession
p455
(dp456
g8
S'0.8'
p457
sg9
g3
sg10
S'.493'
p458
sg403
g3
sg12
S'9.1'
p459
sg14
g3
sg15
g3
sg16
S'26.4'
p460
sg18
S'PG'
p461
sg407
S'103'
p462
sg20
S'.907'
p463
sg24
S'NBA'
p464
sg26
S'2.3'
p465
sg27
S'21.0'
p466
sg29
S'4.5'
p467
sg31
S'6.3'
p468
sg33
S'3.2'
p469
sg35
S'27'
p470
sg37
S'HOU'
p471
sg39
S'82'
p472
sg41
S'0.1'
p473
sg42
S'10.3'
p474
sg44
S'5.7'
p475
sg46
S'21.0'
p476
sg48
S'2.4'
p477
sg49
S'1975-76'
p478
sg51
S'10.3'
p479
sg53
g3
sg54
S'.493'
p480
sg56
S'2995'
p481
sg58
g3
sba(isrc.gp1.models.Per100Possession
Per100Possession
p482
(dp483
g8
S'0.9'
p484
sg9
g3
sg10
S'.490'
p485
sg403
g3
sg12
S'6.6'
p486
sg14
g3
sg15
g3
sg16
S'25.1'
p487
sg18
S'PG'
p488
sg407
S'104'
p489
sg20
S'.886'
p490
sg24
S'NBA'
p491
sg26
S'2.5'
p492
sg27
S'20.8'
p493
sg29
S'4.8'
p494
sg31
S'5.3'
p495
sg33
S'2.9'
p496
sg35
S'28'
p497
sg37
S'HOU'
p498
sg39
S'82'
p499
sg41
S'0.1'
p500
sg42
S'10.2'
p501
sg44
S'4.7'
p502
sg46
S'20.8'
p503
sg48
S'2.0'
p504
sg49
S'1976-77'
p505
sg51
S'10.2'
p506
sg53
g3
sg54
S'.490'
p507
sg56
S'2764'
p508
sg58
g3
sba(isrc.gp1.models.Per100Possession
Per100Possession
p509
(dp510
g8
S'0.9'
p511
sg9
g3
sg10
S'.491'
p512
sg403
S'108'
p513
sg12
S'4.2'
p514
sg14
g3
sg15
g3
sg16
S'31.8'
p515
sg18
S'SG'
p516
sg407
S'109'
p517
sg20
S'.918'
p518
sg24
S'NBA'
p519
sg26
S'1.8'
p520
sg27
S'28.4'
p521
sg29
S'3.9'
p522
sg31
S'4.4'
p523
sg33
S'2.7'
p524
sg35
S'29'
p525
sg37
S'HOU'
p526
sg39
S'76'
p527
sg41
S'0.0'
p528
sg42
S'13.9'
p529
sg44
S'4.0'
p530
sg46
S'28.4'
p531
sg48
S'1.7'
p532
sg49
S'1977-78'
p533
sg51
S'13.9'
p534
sg53
S'2.8'
p535
sg54
S'.491'
p536
sg56
S'2900'
p537
sg58
g3
sba(isrc.gp1.models.Per100Possession
Per100Possession
p538
(dp539
g8
S'1.2'
p540
sg9
g3
sg10
S'.496'
p541
sg403
S'111'
p542
sg12
S'5.5'
p543
sg14
g3
sg15
g3
sg16
S'26.1'
p544
sg18
S'PG'
p545
sg407
S'110'
p546
sg20
S'.928'
p547
sg24
S'NBA'
p548
sg26
S'1.8'
p549
sg27
S'22.4'
p550
sg29
S'4.5'
p551
sg31
S'4.2'
p552
sg33
S'2.7'
p553
sg35
S'30'
p554
sg37
S'HOU'
p555
sg39
S'82'
p556
sg41
S'0.1'
p557
sg42
S'11.1'
p558
sg44
S'3.9'
p559
sg46
S'22.4'
p560
sg48
S'1.5'
p561
sg49
S'1978-79'
p562
sg51
S'11.1'
p563
sg53
S'2.9'
p564
sg54
S'.496'
p565
sg56
S'2941'
p566
sg58
g3
sba(isrc.gp1.models.Per100Possession
Per100Possession
p567
(dp568
g8
S'1.2'
p569
sg9
S'0.4'
p570
sg10
S'.493'
p571
sg403
S'114'
p572
sg12
S'5.3'
p573
sg14
S'.040'
p574
sg15
S'0.0'
p575
sg16
S'27.0'
p576
sg18
S'SG'
p577
sg407
S'110'
p578
sg20
S'.897'
p579
sg24
S'NBA'
p580
sg26
S'2.5'
p581
sg27
S'22.5'
p582
sg29
S'4.8'
p583
sg31
S'5.4'
p584
sg33
S'2.7'
p585
sg35
S'31'
p586
sg37
S'HOU'
p587
sg39
S'76'
p588
sg41
S'0.2'
p589
sg42
S'11.0'
p590
sg44
S'4.8'
p591
sg46
S'22.0'
p592
sg48
S'1.5'
p593
sg49
S'1979-80'
p594
sg51
S'11.1'
p595
sg53
S'2.9'
p596
sg54
S'.502'
p597
sg56
S'2676'
p598
sg58
g3
sba(isrc.gp1.models.Per100Possession
Per100Possession
p599
(dp600
g8
S'0.8'
p601
sg9
S'0.4'
p602
sg10
S'.492'
p603
sg403
S'111'
p604
sg12
S'5.3'
p605
sg14
S'.235'
p606
sg15
S'0.1'
p607
sg16
S'30.0'
p608
sg18
S'PG'
p609
sg407
S'109'
p610
sg20
S'.958'
p611
sg24
S'NBA'
p612
sg26
S'2.6'
p613
sg27
S'25.5'
p614
sg29
S'5.0'
p615
sg31
S'5.1'
p616
sg33
S'2.1'
p617
sg35
S'32'
p618
sg37
S'HOU'
p619
sg39
S'76'
p620
sg41
S'0.1'
p621
sg42
S'12.4'
p622
sg44
S'4.9'
p623
sg46
S'25.1'
p624
sg48
S'1.3'
p625
sg49
S'1980-81'
p626
sg51
S'12.5'
p627
sg53
S'3.1'
p628
sg54
S'.496'
p629
sg56
S'2014'
p630
sg58
g3
sba(isrc.gp1.models.Per100Possession
Per100Possession
p631
(dp632
g8
S'0.8'
p633
sg9
S'0.7'
p634
sg10
S'.427'
p635
sg403
S'102'
p636
sg12
S'6.7'
p637
sg14
S'.063'
p638
sg15
S'0.0'
p639
sg16
S'26.9'
p640
sg18
S'PG'
p641
sg407
S'112'
p642
sg20
S'.909'
p643
sg24
S'NBA'
p644
sg26
S'1.8'
p645
sg27
S'26.6'
p646
sg29
S'5.8'
p647
sg31
S'4.5'
p648
sg33
S'2.5'
p649
sg35
S'33'
p650
sg37
S'HOU'
p651
sg39
S'64'
p652
sg41
S'0.0'
p653
sg42
S'11.3'
p654
sg44
S'4.1'
p655
sg46
S'25.9'
p656
sg48
S'1.7'
p657
sg49
S'1981-82'
p658
sg51
S'11.4'
p659
sg53
S'3.4'
p660
sg54
S'.437'
p661
sg56
S'1204'
p662
sg58
g356
sba(isrc.gp1.models.Per100Possession
Per100Possession
p663
(dp664
g8
S'1.1'
p665
sg9
S'0.5'
p666
sg10
S'.447'
p667
sg403
S'102'
p668
sg12
S'5.2'
p669
sg14
S'.286'
p670
sg15
S'0.1'
p671
sg16
S'26.9'
p672
sg18
S'PG'
p673
sg407
S'111'
p674
sg20
S'.920'
p675
sg24
S'NBA'
p676
sg26
S'1.9'
p677
sg27
S'24.9'
p678
sg29
S'5.4'
p679
sg31
S'5.0'
p680
sg33
S'2.4'
p681
sg35
S'34'
p682
sg37
S'HOU'
p683
sg39
S'64'
p684
sg41
S'0.1'
p685
sg42
S'11.0'
p686
sg44
S'4.6'
p687
sg46
S'24.4'
p688
sg48
S'1.3'
p689
sg49
S'1982-83'
p690
sg51
S'11.1'
p691
sg53
S'2.9'
p692
sg54
S'.450'
p693
sg56
S'1423'
p694
sg58
g356
sbasS'_advanced'
p695
(lp696
(isrc.gp1.models.Advanced
Advanced
p697
(dp698
S'_offensiveReboundPercentage'
p699
g3
sS'_turnOverPercentage'
p700
g3
sS'_winSharesPer48Minutes'
p701
S'.191'
p702
sS'_stealPercentage'
p703
g3
sS'_usagePercentage'
p704
g3
sS'_totalReboundsPercentage'
p705
S'5.3'
p706
sS'_defensiveBoxPlusMinus'
p707
g3
sg18
S'PG'
p708
sS'_valueOverReplacementPlayer'
p709
g3
sS'_trueShootingPercentage'
p710
S'.532'
p711
sS'_defensiveReboundPercentage'
p712
g3
sS'_freeThrowsAttempRate'
p713
S'.422'
p714
sS'_threePointsAttempRate'
p715
g3
sg24
S'NBA'
p716
sS'_offensiveBoxPlusMinues'
p717
g3
sS'_assistPercentage'
p718
S'24.5'
p719
sS'_defensiveWinShares'
p720
S'3.1'
p721
sg35
S'22'
p722
sg37
S'SDR'
p723
sg39
S'82'
p724
sS'_blockPercentage'
p725
g3
sS'_playerEfficiencyRating'
p726
S'19.4'
p727
sS'_offensiveWinShares'
p728
S'4.9'
p729
sg56
S'2020'
p730
sS'_boxPlusMinus'
p731
g3
sg49
S'1970-71'
p732
sS'_winShares'
p733
S'8.0'
p734
sba(isrc.gp1.models.Advanced
Advanced
p735
(dp736
g699
g3
sg700
g3
sg701
S'.157'
p737
sg703
g3
sg704
g3
sg705
S'4.6'
p738
sg707
g3
sg18
S'PG'
p739
sg709
g3
sg710
S'.522'
p740
sg712
g3
sg713
S'.312'
p741
sg715
g3
sg24
S'NBA'
p742
sg717
g3
sg718
S'22.6'
p743
sg720
S'3.5'
p744
sg35
S'23'
p745
sg37
S'HOU'
p746
sg39
S'82'
p747
sg725
g3
sg726
S'18.1'
p748
sg728
S'4.8'
p749
sg56
S'2538'
p750
sg731
g3
sg49
S'1971-72'
p751
sg733
S'8.3'
p752
sba(isrc.gp1.models.Advanced
Advanced
p753
(dp754
g699
g3
sg700
g3
sg701
S'.141'
p755
sg703
g3
sg704
g3
sg705
S'4.1'
p756
sg707
g3
sg18
S'PG'
p757
sg709
g3
sg710
S'.533'
p758
sg712
g3
sg713
S'.328'
p759
sg715
g3
sg24
S'NBA'
p760
sg717
g3
sg718
S'21.0'
p761
sg720
S'1.0'
p762
sg35
S'24'
p763
sg37
S'HOU'
p764
sg39
S'77'
p765
sg725
g3
sg726
S'17.5'
p766
sg728
S'4.0'
p767
sg56
S'1697'
p768
sg731
g3
sg49
S'1972-73'
p769
sg733
S'5.0'
p770
sba(isrc.gp1.models.Advanced
Advanced
p771
(dp772
g699
S'1.9'
p773
sg700
g3
sg701
S'.152'
p774
sg703
S'2.4'
p775
sg704
g3
sg705
S'3.4'
p776
sg707
S'-2.3'
p777
sg18
S'PG'
p778
sg709
S'3.7'
p779
sg710
S'.573'
p780
sg712
S'5.0'
p781
sg713
S'.278'
p782
sg715
g3
sg24
S'NBA'
p783
sg717
S'5.3'
p784
sg718
S'30.9'
p785
sg720
S'1.3'
p786
sg35
S'25'
p787
sg37
S'HOU'
p788
sg39
S'81'
p789
sg725
S'0.1'
p790
sg726
S'20.0'
p791
sg728
S'7.9'
p792
sg56
S'2922'
p793
sg731
S'3.0'
p794
sg49
S'1973-74'
p795
sg733
S'9.2'
p796
sba(isrc.gp1.models.Advanced
Advanced
p797
(dp798
g699
S'2.3'
p799
sg700
g3
sg701
S'.141'
p800
sg703
S'2.4'
p801
sg704
g3
sg705
S'3.8'
p802
sg707
S'-2.1'
p803
sg18
S'PG'
p804
sg709
S'2.3'
p805
sg710
S'.550'
p806
sg712
S'5.4'
p807
sg713
S'.335'
p808
sg715
g3
sg24
S'NBA'
p809
sg717
S'3.7'
p810
sg718
S'23.3'
p811
sg720
S'1.4'
p812
sg35
S'26'
p813
sg37
S'HOU'
p814
sg39
S'78'
p815
sg725
S'0.1'
p816
sg726
S'18.9'
p817
sg728
S'6.0'
p818
sg56
S'2513'
p819
sg731
S'1.6'
p820
sg49
S'1974-75'
p821
sg733
S'7.4'
p822
sba(isrc.gp1.models.Advanced
Advanced
p823
(dp824
g699
S'1.9'
p825
sg700
g3
sg701
S'.141'
p826
sg703
S'2.3'
p827
sg704
g3
sg705
S'3.8'
p828
sg707
S'-2.3'
p829
sg18
S'PG'
p830
sg709
S'3.4'
p831
sg710
S'.556'
p832
sg712
S'5.5'
p833
sg713
S'.299'
p834
sg715
g3
sg24
S'NBA'
p835
sg717
S'4.7'
p836
sg718
S'29.6'
p837
sg720
S'1.1'
p838
sg35
S'27'
p839
sg37
S'HOU'
p840
sg39
S'82'
p841
sg725
S'0.1'
p842
sg726
S'19.9'
p843
sg728
S'7.7'
p844
sg56
S'2995'
p845
sg731
S'2.4'
p846
sg49
S'1975-76'
p847
sg733
S'8.8'
p848
sba(isrc.gp1.models.Advanced
Advanced
p849
(dp850
g699
S'2.2'
p851
sg700
g3
sg701
S'.134'
p852
sg703
S'2.5'
p853
sg704
g3
sg705
S'3.4'
p854
sg707
S'-1.6'
p855
sg18
S'PG'
p856
sg709
S'2.5'
p857
sg710
S'.542'
p858
sg712
S'4.5'
p859
sg713
S'.252'
p860
sg715
g3
sg24
S'NBA'
p861
sg717
S'3.2'
p862
sg718
S'20.6'
p863
sg720
S'1.1'
p864
sg35
S'28'
p865
sg37
S'HOU'
p866
sg39
S'82'
p867
sg725
S'0.2'
p868
sg726
S'17.4'
p869
sg728
S'6.6'
p870
sg56
S'2764'
p871
sg731
S'1.6'
p872
sg49
S'1976-77'
p873
sg733
S'7.7'
p874
sba(isrc.gp1.models.Advanced
Advanced
p875
(dp876
g699
S'2.0'
p877
sg700
S'8.5'
p878
sg701
S'.122'
p879
sg703
S'1.8'
p880
sg704
S'27.9'
p881
sg705
S'3.0'
p882
sg707
S'-3.1'
p883
sg18
S'SG'
p884
sg709
S'1.9'
p885
sg710
S'.525'
p886
sg712
S'4.0'
p887
sg713
S'.154'
p888
sg715
g3
sg24
S'NBA'
p889
sg717
S'3.8'
p890
sg718
S'14.9'
p891
sg720
S'-0.1'
p892
sg35
S'29'
p893
sg37
S'HOU'
p894
sg39
S'76'
p895
sg725
S'0.1'
p896
sg726
S'19.5'
p897
sg728
S'7.5'
p898
sg56
S'2900'
p899
sg731
S'0.6'
p900
sg49
S'1977-78'
p901
sg733
S'7.4'
p902
sba(isrc.gp1.models.Advanced
Advanced
p903
(dp904
g699
S'2.9'
p905
sg700
S'10.8'
p906
sg701
S'.112'
p907
sg703
S'1.8'
p908
sg704
S'23.2'
p909
sg705
S'3.2'
p910
sg707
S'-2.2'
p911
sg18
S'PG'
p912
sg709
S'1.5'
p913
sg710
S'.539'
p914
sg712
S'3.5'
p915
sg713
S'.186'
p916
sg715
g3
sg24
S'NBA'
p917
sg717
S'2.2'
p918
sg718
S'17.0'
p919
sg720
S'0.7'
p920
sg35
S'30'
p921
sg37
S'HOU'
p922
sg39
S'82'
p923
sg725
S'0.1'
p924
sg726
S'16.1'
p925
sg728
S'6.1'
p926
sg56
S'2941'
p927
sg731
S'0.0'
p928
sg49
S'1978-79'
p929
sg733
S'6.8'
p930
sba(isrc.gp1.models.Advanced
Advanced
p931
(dp932
g699
S'2.7'
p933
sg700
S'10.4'
p934
sg701
S'.129'
p935
sg703
S'2.5'
p936
sg704
S'23.1'
p937
sg705
S'3.1'
p938
sg707
S'-1.8'
p939
sg18
S'SG'
p940
sg709
S'1.7'
p941
sg710
S'.543'
p942
sg712
S'3.5'
p943
sg713
S'.238'
p944
sg715
S'.020'
p945
sg24
S'NBA'
p946
sg717
S'2.3'
p947
sg718
S'16.7'
p948
sg720
S'1.1'
p949
sg35
S'31'
p950
sg37
S'HOU'
p951
sg39
S'76'
p952
sg725
S'0.2'
p953
sg726
S'16.8'
p954
sg728
S'6.0'
p955
sg56
S'2676'
p956
sg731
S'0.6'
p957
sg49
S'1979-80'
p958
sg733
S'7.2'
p959
sba(isrc.gp1.models.Advanced
Advanced
p960
(dp961
g699
S'1.8'
p962
sg700
S'9.9'
p963
sg701
S'.128'
p964
sg703
S'2.6'
p965
sg704
S'26.1'
p966
sg705
S'2.4'
p967
sg707
S'-2.5'
p968
sg18
S'PG'
p969
sg709
S'0.7'
p970
sg710
S'.542'
p971
sg712
S'3.0'
p972
sg713
S'.200'
p973
sg715
S'.016'
p974
sg24
S'NBA'
p975
sg717
S'1.9'
p976
sg718
S'17.2'
p977
sg720
S'1.3'
p978
sg35
S'32'
p979
sg37
S'HOU'
p980
sg39
S'76'
p981
sg725
S'0.2'
p982
sg726
S'18.1'
p983
sg728
S'4.0'
p984
sg56
S'2014'
p985
sg731
S'-0.6'
p986
sg49
S'1980-81'
p987
sg733
S'5.4'
p988
sba(isrc.gp1.models.Advanced
Advanced
p989
(dp990
g699
S'1.8'
p991
sg700
S'10.5'
p992
sg701
S'.051'
p993
sg703
S'1.8'
p994
sg704
S'26.5'
p995
sg705
S'2.8'
p996
sg707
S'-3.7'
p997
sg18
S'PG'
p998
sg709
S'-0.8'
p999
sg710
S'.470'
p1000
sg712
S'3.9'
p1001
sg713
S'.170'
p1002
sg715
S'.025'
p1003
sg24
S'NBA'
p1004
sg717
S'-1.1'
p1005
sg718
S'20.6'
p1006
sg720
S'0.6'
p1007
sg35
S'33'
p1008
sg37
S'HOU'
p1009
sg39
S'64'
p1010
sg725
S'0.0'
p1011
sg726
S'13.2'
p1012
sg728
S'0.7'
p1013
sg56
S'1204'
p1014
sg731
S'-4.7'
p1015
sg49
S'1981-82'
p1016
sg733
S'1.3'
p1017
sba(isrc.gp1.models.Advanced
Advanced
p1018
(dp1019
g699
S'2.4'
p1020
sg700
S'9.8'
p1021
sg701
S'.055'
p1022
sg703
S'1.9'
p1023
sg704
S'25.5'
p1024
sg705
S'2.8'
p1025
sg707
S'-3.6'
p1026
sg18
S'PG'
p1027
sg709
S'-0.5'
p1028
sg710
S'.498'
p1029
sg712
S'3.2'
p1030
sg713
S'.199'
p1031
sg715
S'.019'
p1032
sg24
S'NBA'
p1033
sg717
S'0.1'
p1034
sg718
S'18.2'
p1035
sg720
S'0.4'
p1036
sg35
S'34'
p1037
sg37
S'HOU'
p1038
sg39
S'64'
p1039
sg725
S'0.2'
p1040
sg726
S'14.8'
p1041
sg728
S'1.3'
p1042
sg56
S'1423'
p1043
sg731
S'-3.5'
p1044
sg49
S'1982-83'
p1045
sg733
S'1.6'
p1046
sbasS'_per36Minutes'
p1047
(lp1048
(isrc.gp1.models.Per36Minutes
Per36Minutes
p1049
(dp1050
g8
g3
sg9
g3
sg10
S'.458'
p1051
sg12
S'5.9'
p1052
sg14
g3
sg15
g3
sg16
S'23.1'
p1053
sg18
S'PG'
p1054
sg20
S'.820'
p1055
sg24
S'NBA'
p1056
sg26
g3
sg27
S'18.3'
p1057
sg29
S'4.7'
p1058
sg31
S'7.7'
p1059
sg33
S'4.4'
p1060
sg35
S'22'
p1061
sg37
S'SDR'
p1062
sg39
S'82'
p1063
sg41
g3
sg42
S'8.4'
p1064
sg44
S'6.3'
p1065
sg46
S'18.3'
p1066
sg48
g3
sg49
S'1970-71'
p1067
sg51
S'8.4'
p1068
sg53
g3
sg54
S'.458'
p1069
sg56
S'2020'
p1070
sg58
g3
sba(isrc.gp1.models.Per36Minutes
Per36Minutes
p1071
(dp1072
g8
g3
sg9
g3
sg10
S'.455'
p1073
sg12
S'5.6'
p1074
sg14
g3
sg15
g3
sg16
S'21.1'
p1075
sg18
S'PG'
p1076
sg20
S'.890'
p1077
sg24
S'NBA'
p1078
sg26
g3
sg27
S'17.8'
p1079
sg29
S'4.2'
p1080
sg31
S'5.6'
p1081
sg33
S'3.7'
p1082
sg35
S'23'
p1083
sg37
S'HOU'
p1084
sg39
S'82'
p1085
sg41
g3
sg42
S'8.1'
p1086
sg44
S'5.0'
p1087
sg46
S'17.8'
p1088
sg48
g3
sg49
S'1971-72'
p1089
sg51
S'8.1'
p1090
sg53
g3
sg54
S'.455'
p1091
sg56
S'2538'
p1092
sg58
g3
sba(isrc.gp1.models.Per36Minutes
Per36Minutes
p1093
(dp1094
g8
g3
sg9
g3
sg10
S'.465'
p1095
sg12
S'5.6'
p1096
sg14
g3
sg15
g3
sg16
S'21.2'
p1097
sg18
S'PG'
p1098
sg20
S'.888'
p1099
sg24
S'NBA'
p1100
sg26
g3
sg27
S'17.4'
p1101
sg29
S'4.5'
p1102
sg31
S'5.7'
p1103
sg33
S'3.2'
p1104
sg35
S'24'
p1105
sg37
S'HOU'
p1106
sg39
S'77'
p1107
sg41
g3
sg42
S'8.1'
p1108
sg44
S'5.1'
p1109
sg46
S'17.4'
p1110
sg48
g3
sg49
S'1972-73'
p1111
sg51
S'8.1'
p1112
sg53
g3
sg54
S'.465'
p1113
sg56
S'1697'
p1114
sg58
g3
sba(isrc.gp1.models.Per36Minutes
Per36Minutes
p1115
(dp1116
g8
S'0.6'
p1117
sg9
g3
sg10
S'.522'
p1118
sg12
S'7.4'
p1119
sg14
g3
sg15
g3
sg16
S'20.4'
p1120
sg18
S'PG'
p1121
sg20
S'.868'
p1122
sg24
S'NBA'
p1123
sg26
S'1.9'
p1124
sg27
S'15.8'
p1125
sg29
S'3.8'
p1126
sg31
S'4.4'
p1127
sg33
S'2.3'
p1128
sg35
S'25'
p1129
sg37
S'HOU'
p1130
sg39
S'81'
p1131
sg41
S'0.0'
p1132
sg42
S'8.3'
p1133
sg44
S'3.8'
p1134
sg46
S'15.8'
p1135
sg48
S'1.7'
p1136
sg49
S'1973-74'
p1137
sg51
S'8.3'
p1138
sg53
g3
sg54
S'.522'
p1139
sg56
S'2922'
p1140
sg58
g3
sba(isrc.gp1.models.Per36Minutes
Per36Minutes
p1141
(dp1142
g8
S'0.7'
p1143
sg9
g3
sg10
S'.484'
p1144
sg12
S'5.5'
p1145
sg14
g3
sg15
g3
sg16
S'20.8'
p1146
sg18
S'PG'
p1147
sg20
S'.883'
p1148
sg24
S'NBA'
p1149
sg26
S'1.8'
p1150
sg27
S'16.5'
p1151
sg29
S'4.0'
p1152
sg31
S'5.5'
p1153
sg33
S'2.5'
p1154
sg35
S'26'
p1155
sg37
S'HOU'
p1156
sg39
S'78'
p1157
sg41
S'0.1'
p1158
sg42
S'8.0'
p1159
sg44
S'4.9'
p1160
sg46
S'16.5'
p1161
sg48
S'1.7'
p1162
sg49
S'1974-75'
p1163
sg51
S'8.0'
p1164
sg53
g3
sg54
S'.484'
p1165
sg56
S'2513'
p1166
sg58
g3
sba(isrc.gp1.models.Per36Minutes
Per36Minutes
p1167
(dp1168
g8
S'0.6'
p1169
sg9
g3
sg10
S'.493'
p1170
sg12
S'7.2'
p1171
sg14
g3
sg15
g3
sg16
S'20.7'
p1172
sg18
S'PG'
p1173
sg20
S'.907'
p1174
sg24
S'NBA'
p1175
sg26
S'1.8'
p1176
sg27
S'16.5'
p1177
sg29
S'3.5'
p1178
sg31
S'4.9'
p1179
sg33
S'2.5'
p1180
sg35
S'27'
p1181
sg37
S'HOU'
p1182
sg39
S'82'
p1183
sg41
S'0.1'
p1184
sg42
S'8.1'
p1185
sg44
S'4.5'
p1186
sg46
S'16.5'
p1187
sg48
S'1.9'
p1188
sg49
S'1975-76'
p1189
sg51
S'8.1'
p1190
sg53
g3
sg54
S'.493'
p1191
sg56
S'2995'
p1192
sg58
g3
sba(isrc.gp1.models.Per36Minutes
Per36Minutes
p1193
(dp1194
g8
S'0.7'
p1195
sg9
g3
sg10
S'.490'
p1196
sg12
S'5.0'
p1197
sg14
g3
sg15
g3
sg16
S'19.1'
p1198
sg18
S'PG'
p1199
sg20
S'.886'
p1200
sg24
S'NBA'
p1201
sg26
S'1.9'
p1202
sg27
S'15.8'
p1203
sg29
S'3.7'
p1204
sg31
S'4.0'
p1205
sg33
S'2.2'
p1206
sg35
S'28'
p1207
sg37
S'HOU'
p1208
sg39
S'82'
p1209
sg41
S'0.1'
p1210
sg42
S'7.8'
p1211
sg44
S'3.5'
p1212
sg46
S'15.8'
p1213
sg48
S'1.5'
p1214
sg49
S'1976-77'
p1215
sg51
S'7.8'
p1216
sg53
g3
sg54
S'.490'
p1217
sg56
S'2764'
p1218
sg58
g3
sba(isrc.gp1.models.Per36Minutes
Per36Minutes
p1219
(dp1220
g8
S'0.7'
p1221
sg9
g3
sg10
S'.491'
p1222
sg12
S'3.2'
p1223
sg14
g3
sg15
g3
sg16
S'24.2'
p1224
sg18
S'SG'
p1225
sg20
S'.918'
p1226
sg24
S'NBA'
p1227
sg26
S'1.4'
p1228
sg27
S'21.6'
p1229
sg29
S'3.0'
p1230
sg31
S'3.3'
p1231
sg33
S'2.0'
p1232
sg35
S'29'
p1233
sg37
S'HOU'
p1234
sg39
S'76'
p1235
sg41
S'0.0'
p1236
sg42
S'10.6'
p1237
sg44
S'3.0'
p1238
sg46
S'21.6'
p1239
sg48
S'1.3'
p1240
sg49
S'1977-78'
p1241
sg51
S'10.6'
p1242
sg53
S'2.1'
p1243
sg54
S'.491'
p1244
sg56
S'2900'
p1245
sg58
g3
sba(isrc.gp1.models.Per36Minutes
Per36Minutes
p1246
(dp1247
g8
S'1.0'
p1248
sg9
g3
sg10
S'.496'
p1249
sg12
S'4.3'
p1250
sg14
g3
sg15
g3
sg16
S'20.3'
p1251
sg18
S'PG'
p1252
sg20
S'.928'
p1253
sg24
S'NBA'
p1254
sg26
S'1.4'
p1255
sg27
S'17.4'
p1256
sg29
S'3.5'
p1257
sg31
S'3.2'
p1258
sg33
S'2.1'
p1259
sg35
S'30'
p1260
sg37
S'HOU'
p1261
sg39
S'82'
p1262
sg41
S'0.1'
p1263
sg42
S'8.7'
p1264
sg44
S'3.0'
p1265
sg46
S'17.4'
p1266
sg48
S'1.2'
p1267
sg49
S'1978-79'
p1268
sg51
S'8.7'
p1269
sg53
S'2.3'
p1270
sg54
S'.496'
p1271
sg56
S'2941'
p1272
sg58
g3
sba(isrc.gp1.models.Per36Minutes
Per36Minutes
p1273
(dp1274
g8
S'0.9'
p1275
sg9
S'0.3'
p1276
sg10
S'.493'
p1277
sg12
S'4.0'
p1278
sg14
S'.040'
p1279
sg15
S'0.0'
p1280
sg16
S'20.4'
p1281
sg18
S'SG'
p1282
sg20
S'.897'
p1283
sg24
S'NBA'
p1284
sg26
S'1.9'
p1285
sg27
S'17.0'
p1286
sg29
S'3.6'
p1287
sg31
S'4.1'
p1288
sg33
S'2.0'
p1289
sg35
S'31'
p1290
sg37
S'HOU'
p1291
sg39
S'76'
p1292
sg41
S'0.1'
p1293
sg42
S'8.4'
p1294
sg44
S'3.6'
p1295
sg46
S'16.7'
p1296
sg48
S'1.1'
p1297
sg49
S'1979-80'
p1298
sg51
S'8.4'
p1299
sg53
S'2.2'
p1300
sg54
S'.502'
p1301
sg56
S'2676'
p1302
sg58
g3
sba(isrc.gp1.models.Per36Minutes
Per36Minutes
p1303
(dp1304
g8
S'0.6'
p1305
sg9
S'0.3'
p1306
sg10
S'.492'
p1307
sg12
S'4.0'
p1308
sg14
S'.235'
p1309
sg15
S'0.1'
p1310
sg16
S'22.6'
p1311
sg18
S'PG'
p1312
sg20
S'.958'
p1313
sg24
S'NBA'
p1314
sg26
S'2.0'
p1315
sg27
S'19.2'
p1316
sg29
S'3.7'
p1317
sg31
S'3.8'
p1318
sg33
S'1.6'
p1319
sg35
S'32'
p1320
sg37
S'HOU'
p1321
sg39
S'76'
p1322
sg41
S'0.1'
p1323
sg42
S'9.4'
p1324
sg44
S'3.7'
p1325
sg46
S'18.9'
p1326
sg48
S'1.0'
p1327
sg49
S'1980-81'
p1328
sg51
S'9.4'
p1329
sg53
S'2.3'
p1330
sg54
S'.496'
p1331
sg56
S'2014'
p1332
sg58
g3
sba(isrc.gp1.models.Per36Minutes
Per36Minutes
p1333
(dp1334
g8
S'0.6'
p1335
sg9
S'0.5'
p1336
sg10
S'.427'
p1337
sg12
S'4.9'
p1338
sg14
S'.063'
p1339
sg15
S'0.0'
p1340
sg16
S'19.6'
p1341
sg18
S'PG'
p1342
sg20
S'.909'
p1343
sg24
S'NBA'
p1344
sg26
S'1.3'
p1345
sg27
S'19.4'
p1346
sg29
S'4.2'
p1347
sg31
S'3.3'
p1348
sg33
S'1.8'
p1349
sg35
S'33'
p1350
sg37
S'HOU'
p1351
sg39
S'64'
p1352
sg41
S'0.0'
p1353
sg42
S'8.3'
p1354
sg44
S'3.0'
p1355
sg46
S'18.9'
p1356
sg48
S'1.2'
p1357
sg49
S'1981-82'
p1358
sg51
S'8.3'
p1359
sg53
S'2.5'
p1360
sg54
S'.437'
p1361
sg56
S'1204'
p1362
sg58
g356
sba(isrc.gp1.models.Per36Minutes
Per36Minutes
p1363
(dp1364
g8
S'0.9'
p1365
sg9
S'0.4'
p1366
sg10
S'.447'
p1367
sg12
S'4.0'
p1368
sg14
S'.286'
p1369
sg15
S'0.1'
p1370
sg16
S'20.6'
p1371
sg18
S'PG'
p1372
sg20
S'.920'
p1373
sg24
S'NBA'
p1374
sg26
S'1.5'
p1375
sg27
S'19.1'
p1376
sg29
S'4.1'
p1377
sg31
S'3.8'
p1378
sg33
S'1.9'
p1379
sg35
S'34'
p1380
sg37
S'HOU'
p1381
sg39
S'64'
p1382
sg41
S'0.1'
p1383
sg42
S'8.4'
p1384
sg44
S'3.5'
p1385
sg46
S'18.7'
p1386
sg48
S'1.0'
p1387
sg49
S'1982-83'
p1388
sg51
S'8.5'
p1389
sg53
S'2.3'
p1390
sg54
S'.450'
p1391
sg56
S'1423'
p1392
sg58
g356
sbasS'_fromYear'
p1393
S'1971'
p1394
sS'_url'
p1395
S'http://www.basketball-reference.com/players/m/murphca01.html'
p1396
sS'_perGame'
p1397
(isrc.gp1.models.PerGame
PerGame
p1398
(dp1399
g8
S'0.5'
p1400
sg9
S'0.2'
p1401
sg10
S'.447'
p1402
sS'_effectiveFieldGalPercentage'
p1403
S'.450'
p1404
sg12
S'2.5'
p1405
sg14
S'.286'
p1406
sg15
S'0.1'
p1407
sg16
S'12.8'
p1408
sg18
S'PG'
p1409
sg20
S'.920'
p1410
sg24
S'NBA'
p1411
sg26
S'0.9'
p1412
sg29
S'2.5'
p1413
sS'_fieldGoalsttempted'
p1414
S'11.8'
p1415
sg31
S'2.3'
p1416
sg33
S'1.2'
p1417
sg35
S'34'
p1418
sg37
S'HOU'
p1419
sg39
S'64'
p1420
sg41
S'0.1'
p1421
sg42
S'5.2'
p1422
sg44
S'2.2'
p1423
sg46
S'11.6'
p1424
sg48
S'0.6'
p1425
sg49
S'1982-83'
p1426
sg51
S'5.3'
p1427
sg53
S'1.4'
p1428
sg54
S'.450'
p1429
sg56
S'22.2'
p1430
sg58
g356
sbsS'_weight'
p1431
S'165'
p1432
sS'_dob'
p1433
S'9-5-1948'
p1434
sS'_salary'
p1435
(lp1436
sg18
S'G'
p1437
sb.