(isrc.gp1.models.Player
Player
p0
(dp1
S'_experience'
p2
V2
p3
sS'_totals'
p4
(lp5
(isrc.gp1.models.Totals
Totals
p6
(dp7
S'_offensiveRebounds'
p8
S'13'
p9
sS'_threePointsAttempted'
p10
S'12'
p11
sS'_fieldGoalsPercentage'
p12
S'.434'
p13
sS'_assist'
p14
S'49'
p15
sS'_threePointsPercentage'
p16
S'.417'
p17
sS'_threePoints'
p18
S'5'
p19
sS'_points'
p20
S'140'
p21
sS'_position'
p22
S'PG'
p23
sS'_freeThrowsPercentage'
p24
S'.590'
p25
sS'_effectiveFieldGoalPercentage'
p26
S'.453'
p27
sS'_league'
p28
S'NBA'
p29
sS'_steals'
p30
S'19'
p31
sS'_fieldGoalsAttempted'
p32
S'129'
p33
sS'_personalFouls'
p34
S'46'
p35
sS'_freeThrowsAttempted'
p36
S'39'
p37
sS'_totalRebounds'
p38
S'44'
p39
sS'_age'
p40
S'24'
p41
sS'_team'
p42
S'NYK'
p43
sS'_games'
p44
S'51'
p45
sS'_blocks'
p46
S'1'
p47
sS'_twoPoints'
p48
S'51'
p49
sS'_freeThrows'
p50
S'23'
p51
sS'_twoPointsAttempted'
p52
S'117'
p53
sS'_defensiveRebounds'
p54
S'31'
p55
sS'_season'
p56
S'2013-14'
p57
sS'_fieldGoals'
p58
S'56'
p59
sS'_turnOvers'
p60
S'34'
p61
sS'_twoPointsPercentage'
p62
S'.436'
p63
sS'_minutesPlayed'
p64
S'373'
p65
sS'_gamesStarted'
p66
S'0'
p67
sba(isrc.gp1.models.Totals
Totals
p68
(dp69
g8
g47
sg10
g67
sg12
S'.400'
p70
sg14
g47
sg16
S'NA'
p71
sg18
g67
sg20
S'6'
p72
sg22
S'SG-PG'
p73
sg24
S'1.000'
p74
sg26
S'.400'
p75
sg28
S'NBA'
p76
sg30
g47
sg32
g19
sg34
S'2'
p77
sg36
g77
sg38
g47
sg40
S'25'
p78
sg42
S'TOT'
p79
sg44
g19
sg46
g67
sg48
g77
sg50
g77
sg52
g19
sg54
g67
sg56
S'2014-15'
p80
sg58
g77
sg60
S'4'
p81
sg62
S'.400'
p82
sg64
S'18'
p83
sg66
g67
sba(isrc.gp1.models.Totals
Totals
p84
(dp85
g8
g67
sg10
g67
sg12
S'.000'
p86
sg14
g67
sg16
g71
sg18
g67
sg20
g67
sg22
S'PG'
p87
sg24
g71
sg26
S'.000'
p88
sg28
S'NBA'
p89
sg30
g67
sg32
g47
sg34
g67
sg36
g67
sg38
g67
sg40
S'25'
p90
sg42
S'UTA'
p91
sg44
g47
sg46
g67
sg48
g67
sg50
g67
sg52
g47
sg54
g67
sg56
S'2014-15'
p92
sg58
g67
sg60
g67
sg62
S'.000'
p93
sg64
g47
sg66
g67
sba(isrc.gp1.models.Totals
Totals
p94
(dp95
g8
g47
sg10
g67
sg12
S'.500'
p96
sg14
g47
sg16
g71
sg18
g67
sg20
g72
sg22
S'SG'
p97
sg24
S'1.000'
p98
sg26
S'.500'
p99
sg28
S'NBA'
p100
sg30
g47
sg32
g81
sg34
g77
sg36
g77
sg38
g47
sg40
S'25'
p101
sg42
S'WAS'
p102
sg44
g81
sg46
g67
sg48
g77
sg50
g77
sg52
g81
sg54
g67
sg56
S'2014-15'
p103
sg58
g77
sg60
g81
sg62
S'.500'
p104
sg64
S'17'
p105
sg66
g67
sbasS'_college'
p106
S'Wichita State University'
p107
sS'_toYear'
p108
S'2015'
p109
sS'_height'
p110
S'6-5'
p111
sS'_active'
p112
I01
sS'_shootingHand'
p113
VRight
p114
sS'_name'
p115
S"Toure' Murry"
p116
sS'_per100Possessions'
p117
(lp118
(isrc.gp1.models.Per100Possession
Per100Possession
p119
(dp120
g8
S'1.9'
p121
sg10
S'1.7'
p122
sg12
S'.434'
p123
sS'_offensiveRating'
p124
S'93'
p125
sg14
S'7.0'
p126
sg16
S'.417'
p127
sg18
S'0.7'
p128
sg20
S'20.0'
p129
sg22
S'PG'
p130
sS'_defensiveRating'
p131
S'109'
p132
sg24
S'.590'
p133
sg28
S'NBA'
p134
sg30
S'2.7'
p135
sg32
S'18.4'
p136
sg34
S'6.6'
p137
sg36
S'5.6'
p138
sg38
S'6.3'
p139
sg40
S'24'
p140
sg42
S'NYK'
p141
sg44
S'51'
p142
sg46
S'0.1'
p143
sg48
S'7.3'
p144
sg50
S'3.3'
p145
sg52
S'16.7'
p146
sg54
S'4.4'
p147
sg56
S'2013-14'
p148
sg58
S'8.0'
p149
sg60
S'4.8'
p150
sg62
S'.436'
p151
sg64
S'373'
p152
sg66
g67
sba(isrc.gp1.models.Per100Possession
Per100Possession
p153
(dp154
g8
S'2.9'
p155
sg10
S'0.0'
p156
sg12
S'.400'
p157
sg124
S'68'
p158
sg14
S'2.9'
p159
sg16
g71
sg18
S'0.0'
p160
sg20
S'17.1'
p161
sg22
S'SG-PG'
p162
sg131
S'106'
p163
sg24
S'1.000'
p164
sg28
S'NBA'
p165
sg30
S'2.9'
p166
sg32
S'14.3'
p167
sg34
S'5.7'
p168
sg36
S'5.7'
p169
sg38
S'2.9'
p170
sg40
S'25'
p171
sg42
S'TOT'
p172
sg44
g19
sg46
S'0.0'
p173
sg48
S'5.7'
p174
sg50
S'5.7'
p175
sg52
S'14.3'
p176
sg54
S'0.0'
p177
sg56
S'2014-15'
p178
sg58
S'5.7'
p179
sg60
S'11.4'
p180
sg62
S'.400'
p181
sg64
S'18'
p182
sg66
g67
sba(isrc.gp1.models.Per100Possession
Per100Possession
p183
(dp184
g8
S'0.0'
p185
sg10
S'0.0'
p186
sg12
S'.000'
p187
sg124
g67
sg14
S'0.0'
p188
sg16
g71
sg18
S'0.0'
p189
sg20
S'0.0'
p190
sg22
S'PG'
p191
sg131
S'115'
p192
sg24
g71
sg28
S'NBA'
p193
sg30
S'0.0'
p194
sg32
S'53.1'
p195
sg34
S'0.0'
p196
sg36
S'0.0'
p197
sg38
S'0.0'
p198
sg40
S'25'
p199
sg42
S'UTA'
p200
sg44
g47
sg46
S'0.0'
p201
sg48
S'0.0'
p202
sg50
S'0.0'
p203
sg52
S'53.1'
p204
sg54
S'0.0'
p205
sg56
S'2014-15'
p206
sg58
S'0.0'
p207
sg60
S'0.0'
p208
sg62
S'.000'
p209
sg64
g47
sg66
g67
sba(isrc.gp1.models.Per100Possession
Per100Possession
p210
(dp211
g8
S'3.0'
p212
sg10
S'0.0'
p213
sg12
S'.500'
p214
sg124
S'74'
p215
sg14
S'3.0'
p216
sg16
g71
sg18
S'0.0'
p217
sg20
S'18.1'
p218
sg22
S'SG'
p219
sg131
S'105'
p220
sg24
S'1.000'
p221
sg28
S'NBA'
p222
sg30
S'3.0'
p223
sg32
S'12.1'
p224
sg34
S'6.0'
p225
sg36
S'6.0'
p226
sg38
S'3.0'
p227
sg40
S'25'
p228
sg42
S'WAS'
p229
sg44
g81
sg46
S'0.0'
p230
sg48
S'6.0'
p231
sg50
S'6.0'
p232
sg52
S'12.1'
p233
sg54
S'0.0'
p234
sg56
S'2014-15'
p235
sg58
S'6.0'
p236
sg60
S'12.1'
p237
sg62
S'.500'
p238
sg64
S'17'
p239
sg66
g67
sbasS'_advanced'
p240
(lp241
(isrc.gp1.models.Advanced
Advanced
p242
(dp243
S'_offensiveReboundPercentage'
p244
S'4.0'
p245
sS'_turnOverPercentage'
p246
S'18.9'
p247
sS'_winSharesPer48Minutes'
p248
S'.002'
p249
sS'_stealPercentage'
p250
S'2.7'
p251
sS'_usagePercentage'
p252
S'22.5'
p253
sS'_totalReboundsPercentage'
p254
S'6.9'
p255
sS'_defensiveBoxPlusMinus'
p256
S'-1.6'
p257
sg22
S'PG'
p258
sS'_valueOverReplacementPlayer'
p259
S'-0.3'
p260
sS'_trueShootingPercentage'
p261
S'.479'
p262
sS'_defensiveReboundPercentage'
p263
S'10.1'
p264
sS'_freeThrowsAttempRate'
p265
S'.302'
p266
sS'_threePointsAttempRate'
p267
S'.093'
p268
sg28
S'NBA'
p269
sS'_offensiveBoxPlusMinues'
p270
S'-3.4'
p271
sS'_assistPercentage'
p272
S'21.5'
p273
sS'_defensiveWinShares'
p274
S'0.3'
p275
sg40
S'24'
p276
sg42
S'NYK'
p277
sg44
S'51'
p278
sS'_blockPercentage'
p279
S'0.2'
p280
sS'_playerEfficiencyRating'
p281
S'11.1'
p282
sS'_offensiveWinShares'
p283
S'-0.3'
p284
sg64
S'373'
p285
sS'_boxPlusMinus'
p286
S'-4.9'
p287
sg56
S'2013-14'
p288
sS'_winShares'
p289
S'0.0'
p290
sba(isrc.gp1.models.Advanced
Advanced
p291
(dp292
g244
S'6.4'
p293
sg246
S'40.5'
p294
sg248
S'-0.171'
p295
sg250
S'2.8'
p296
sg252
S'24.9'
p297
sg254
S'3.1'
p298
sg256
S'-1.2'
p299
sg22
S'SG-PG'
p300
sg259
S'0.0'
p301
sg261
S'.510'
p302
sg263
S'0.0'
p303
sg265
S'.400'
p304
sg267
S'.000'
p305
sg28
S'NBA'
p306
sg270
S'-10.0'
p307
sg272
S'8.3'
p308
sg274
S'0.0'
p309
sg40
S'25'
p310
sg42
S'TOT'
p311
sg44
g19
sg279
S'0.0'
p312
sg281
S'1.1'
p313
sg283
S'-0.1'
p314
sg64
S'18'
p315
sg286
S'-11.2'
p316
sg56
S'2014-15'
p317
sg289
S'-0.1'
p318
sba(isrc.gp1.models.Advanced
Advanced
p319
(dp320
g244
S'0.0'
p321
sg246
S'0.0'
p322
sg248
S'-1.046'
p323
sg250
S'0.0'
p324
sg252
S'45.8'
p325
sg254
S'0.0'
p326
sg256
S'-13.2'
p327
sg22
S'PG'
p328
sg259
S'0.0'
p329
sg261
S'.000'
p330
sg263
S'0.0'
p331
sg265
S'.000'
p332
sg267
S'.000'
p333
sg28
S'NBA'
p334
sg270
S'-36.8'
p335
sg272
S'0.0'
p336
sg274
S'0.0'
p337
sg40
S'25'
p338
sg42
S'UTA'
p339
sg44
g47
sg279
S'0.0'
p340
sg281
S'-41.7'
p341
sg283
S'0.0'
p342
sg64
g47
sg286
S'-50.0'
p343
sg56
S'2014-15'
p344
sg289
S'0.0'
p345
sba(isrc.gp1.models.Advanced
Advanced
p346
(dp347
g244
S'6.8'
p348
sg246
S'45.0'
p349
sg248
S'-0.120'
p350
sg250
S'3.0'
p351
sg252
S'23.7'
p352
sg254
S'3.3'
p353
sg256
S'-0.5'
p354
sg22
S'SG'
p355
sg259
S'0.0'
p356
sg261
S'.615'
p357
sg263
S'0.0'
p358
sg265
S'.500'
p359
sg267
S'.000'
p360
sg28
S'NBA'
p361
sg270
S'-8.4'
p362
sg272
S'8.8'
p363
sg274
S'0.0'
p364
sg40
S'25'
p365
sg42
S'WAS'
p366
sg44
g81
sg279
S'0.0'
p367
sg281
S'3.6'
p368
sg283
S'-0.1'
p369
sg64
S'17'
p370
sg286
S'-9.0'
p371
sg56
S'2014-15'
p372
sg289
S'0.0'
p373
sbasS'_per36Minutes'
p374
(lp375
(isrc.gp1.models.Per36Minutes
Per36Minutes
p376
(dp377
g8
S'1.3'
p378
sg10
S'1.2'
p379
sg12
S'.434'
p380
sg14
S'4.7'
p381
sg16
S'.417'
p382
sg18
S'0.5'
p383
sg20
S'13.5'
p384
sg22
S'PG'
p385
sg24
S'.590'
p386
sg28
S'NBA'
p387
sg30
S'1.8'
p388
sg32
S'12.5'
p389
sg34
S'4.4'
p390
sg36
S'3.8'
p391
sg38
S'4.2'
p392
sg40
S'24'
p393
sg42
S'NYK'
p394
sg44
S'51'
p395
sg46
S'0.1'
p396
sg48
S'4.9'
p397
sg50
S'2.2'
p398
sg52
S'11.3'
p399
sg54
S'3.0'
p400
sg56
S'2013-14'
p401
sg58
S'5.4'
p402
sg60
S'3.3'
p403
sg62
S'.436'
p404
sg64
S'373'
p405
sg66
g67
sba(isrc.gp1.models.Per36Minutes
Per36Minutes
p406
(dp407
g8
S'2.0'
p408
sg10
S'0.0'
p409
sg12
S'.400'
p410
sg14
S'2.0'
p411
sg16
g71
sg18
S'0.0'
p412
sg20
S'12.0'
p413
sg22
S'SG-PG'
p414
sg24
S'1.000'
p415
sg28
S'NBA'
p416
sg30
S'2.0'
p417
sg32
S'10.0'
p418
sg34
S'4.0'
p419
sg36
S'4.0'
p420
sg38
S'2.0'
p421
sg40
S'25'
p422
sg42
S'TOT'
p423
sg44
g19
sg46
S'0.0'
p424
sg48
S'4.0'
p425
sg50
S'4.0'
p426
sg52
S'10.0'
p427
sg54
S'0.0'
p428
sg56
S'2014-15'
p429
sg58
S'4.0'
p430
sg60
S'8.0'
p431
sg62
S'.400'
p432
sg64
S'18'
p433
sg66
g67
sba(isrc.gp1.models.Per36Minutes
Per36Minutes
p434
(dp435
g8
S'0.0'
p436
sg10
S'0.0'
p437
sg12
S'.000'
p438
sg14
S'0.0'
p439
sg16
g71
sg18
S'0.0'
p440
sg20
S'0.0'
p441
sg22
S'PG'
p442
sg24
g71
sg28
S'NBA'
p443
sg30
S'0.0'
p444
sg32
S'36.0'
p445
sg34
S'0.0'
p446
sg36
S'0.0'
p447
sg38
S'0.0'
p448
sg40
S'25'
p449
sg42
S'UTA'
p450
sg44
g47
sg46
S'0.0'
p451
sg48
S'0.0'
p452
sg50
S'0.0'
p453
sg52
S'36.0'
p454
sg54
S'0.0'
p455
sg56
S'2014-15'
p456
sg58
S'0.0'
p457
sg60
S'0.0'
p458
sg62
S'.000'
p459
sg64
g47
sg66
g67
sba(isrc.gp1.models.Per36Minutes
Per36Minutes
p460
(dp461
g8
S'2.1'
p462
sg10
S'0.0'
p463
sg12
S'.500'
p464
sg14
S'2.1'
p465
sg16
g71
sg18
S'0.0'
p466
sg20
S'12.7'
p467
sg22
S'SG'
p468
sg24
S'1.000'
p469
sg28
S'NBA'
p470
sg30
S'2.1'
p471
sg32
S'8.5'
p472
sg34
S'4.2'
p473
sg36
S'4.2'
p474
sg38
S'2.1'
p475
sg40
S'25'
p476
sg42
S'WAS'
p477
sg44
g81
sg46
S'0.0'
p478
sg48
S'4.2'
p479
sg50
S'4.2'
p480
sg52
S'8.5'
p481
sg54
S'0.0'
p482
sg56
S'2014-15'
p483
sg58
S'4.2'
p484
sg60
S'8.5'
p485
sg62
S'.500'
p486
sg64
S'17'
p487
sg66
g67
sbasS'_fromYear'
p488
S'2014'
p489
sS'_url'
p490
S'http://www.basketball-reference.com/players/m/murryto01.html'
p491
sS'_perGame'
p492
(isrc.gp1.models.PerGame
PerGame
p493
(dp494
g8
S'0.3'
p495
sg10
S'0.0'
p496
sg12
S'.500'
p497
sS'_effectiveFieldGalPercentage'
p498
S'.500'
p499
sg14
S'0.3'
p500
sg16
g71
sg18
S'0.0'
p501
sg20
S'1.5'
p502
sg22
S'SG'
p503
sg24
S'1.000'
p504
sg28
S'NBA'
p505
sg30
S'0.3'
p506
sg34
S'0.5'
p507
sS'_fieldGoalsttempted'
p508
S'1.0'
p509
sg36
S'0.5'
p510
sg38
S'0.3'
p511
sg40
S'25'
p512
sg42
S'WAS'
p513
sg44
g81
sg46
S'0.0'
p514
sg48
S'0.5'
p515
sg50
S'0.5'
p516
sg52
S'1.0'
p517
sg54
S'0.0'
p518
sg56
S'2014-15'
p519
sg58
S'0.5'
p520
sg60
S'1.0'
p521
sg62
S'.500'
p522
sg64
S'4.3'
p523
sg66
g67
sbsS'_weight'
p524
S'195'
p525
sS'_dob'
p526
S'8-11-1989'
p527
sS'_salary'
p528
(lp529
(isrc.gp1.models.Salary
Salary
p530
(dp531
g42
S'Utah Jazz'
p532
sg28
S'NBA'
p533
sg528
S'$250,000'
p534
sg56
S'2014-15'
p535
sba(isrc.gp1.models.Salary
Salary
p536
(dp537
g42
S'Washington Wizards'
p538
sg28
S'NBA'
p539
sg528
S'$96,056'
p540
sg56
S'2014-15'
p541
sbasg22
S'G-F'
p542
sb.