(isrc.gp1.models.Player
Player
p0
(dp1
S'_experience'
p2
S'NA'
p3
sS'_totals'
p4
(lp5
(isrc.gp1.models.Totals
Totals
p6
(dp7
S'_offensiveRebounds'
p8
S'2'
p9
sS'_threePointsAttempted'
p10
g9
sS'_fieldGoalsPercentage'
p11
S'0'
p12
sS'_assist'
p13
g12
sS'_threePointsPercentage'
p14
S'5'
p15
sS'_threePoints'
p16
g12
sS'_points'
p17
g3
sS'_position'
p18
S'SF'
p19
sS'_freeThrowsPercentage'
p20
S'1'
p21
sS'_effectiveFieldGoalPercentage'
p22
g9
sS'_league'
p23
S'NBA'
p24
sS'_steals'
p25
g21
sS'_fieldGoalsAttempted'
p26
S'.400'
p27
sS'_personalFouls'
p28
g3
sS'_freeThrowsAttempted'
p29
g21
sS'_totalRebounds'
p30
g12
sS'_age'
p31
S'26'
p32
sS'_team'
p33
S'LAL'
p34
sS'_games'
p35
S'3'
p36
sS'_blocks'
p37
g36
sS'_twoPoints'
p38
S'.400'
p39
sS'_freeThrows'
p40
S'.500'
p41
sS'_twoPointsAttempted'
p42
S'.400'
p43
sS'_defensiveRebounds'
p44
g21
sS'_season'
p45
S'1980-81'
p46
sS'_fieldGoals'
p47
g15
sS'_turnOvers'
p48
g15
sS'_twoPointsPercentage'
p49
g21
sS'_minutesPlayed'
p50
g9
sS'_gamesStarted'
p51
S'9'
p52
sbasS'_college'
p53
S'Auburn University'
p54
sS'_toYear'
p55
S'1981'
p56
sS'_height'
p57
S'6-8'
p58
sS'_active'
p59
I00
sS'_shootingHand'
p60
VRight
p61
sS'_name'
p62
S'Myles Patrick'
p63
sS'_per100Possessions'
p64
(lp65
(isrc.gp1.models.Per100Possession
Per100Possession
p66
(dp67
g8
S'10.4'
p68
sg10
S'10.4'
p69
sg11
S'0.0'
p70
sS'_offensiveRating'
p71
g3
sg13
S'0.0'
p72
sg14
S'26.0'
p73
sg16
S'0.0'
p74
sg17
S'109'
p75
sg18
S'SF'
p76
sS'_defensiveRating'
p77
g3
sg20
S'5.2'
p78
sg23
S'NBA'
p79
sg25
S'5.2'
p80
sg26
S'.400'
p81
sg28
S'90'
p82
sg29
S'5.2'
p83
sg30
S'0.0'
p84
sg31
S'26'
p85
sg33
S'LAL'
p86
sg35
g36
sg37
S'15.6'
p87
sg38
S'.400'
p88
sg40
S'.500'
p89
sg42
S'5.2'
p90
sg44
S'5.2'
p91
sg45
S'1980-81'
p92
sg47
S'26.0'
p93
sg48
S'26.0'
p94
sg49
S'10.4'
p95
sg50
S'10.4'
p96
sg51
g52
sbasS'_advanced'
p97
(lp98
(isrc.gp1.models.Advanced
Advanced
p99
(dp100
S'_offensiveReboundPercentage'
p101
S'12.8'
p102
sS'_turnOverPercentage'
p103
S'14.5'
p104
sS'_winSharesPer48Minutes'
p105
S'-0.036'
p106
sS'_stealPercentage'
p107
S'0.0'
p108
sS'_usagePercentage'
p109
S'30.7'
p110
sS'_totalReboundsPercentage'
p111
S'12.0'
p112
sS'_defensiveBoxPlusMinus'
p113
S'-4.8'
p114
sg18
S'SF'
p115
sS'_valueOverReplacementPlayer'
p116
S'0.0'
p117
sS'_trueShootingPercentage'
p118
S'.425'
p119
sS'_defensiveReboundPercentage'
p120
S'11.4'
p121
sS'_freeThrowsAttempRate'
p122
S'.400'
p123
sS'_threePointsAttempRate'
p124
S'.000'
p125
sg23
S'NBA'
p126
sS'_offensiveBoxPlusMinues'
p127
S'-4.2'
p128
sS'_assistPercentage'
p129
S'15.2'
p130
sS'_defensiveWinShares'
p131
S'0.0'
p132
sg31
S'26'
p133
sg33
S'LAL'
p134
sg35
g36
sS'_blockPercentage'
p135
S'0.0'
p136
sS'_playerEfficiencyRating'
p137
S'6.9'
p138
sS'_offensiveWinShares'
p139
S'0.0'
p140
sg50
g52
sS'_boxPlusMinus'
p141
S'-9.0'
p142
sg45
S'1980-81'
p143
sS'_winShares'
p144
S'0.0'
p145
sbasS'_per36Minutes'
p146
(lp147
(isrc.gp1.models.Per36Minutes
Per36Minutes
p148
(dp149
g8
S'8.0'
p150
sg10
S'8.0'
p151
sg11
S'0.0'
p152
sg13
S'0.0'
p153
sg14
S'20.0'
p154
sg16
S'0.0'
p155
sg17
g3
sg18
S'SF'
p156
sg20
S'4.0'
p157
sg23
S'NBA'
p158
sg25
S'4.0'
p159
sg26
S'.400'
p160
sg28
g3
sg29
S'4.0'
p161
sg30
S'0.0'
p162
sg31
S'26'
p163
sg33
S'LAL'
p164
sg35
g36
sg37
S'12.0'
p165
sg38
S'.400'
p166
sg40
S'.500'
p167
sg42
S'4.0'
p168
sg44
S'4.0'
p169
sg45
S'1980-81'
p170
sg47
S'20.0'
p171
sg48
S'20.0'
p172
sg49
S'8.0'
p173
sg50
S'8.0'
p174
sg51
g52
sbasS'_fromYear'
p175
S'1981'
p176
sS'_url'
p177
S'http://www.basketball-reference.com/players/p/patrimy01.html'
p178
sS'_perGame'
p179
(isrc.gp1.models.PerGame
PerGame
p180
(dp181
g8
S'0.7'
p182
sg10
S'0.7'
p183
sg11
S'0.0'
p184
sS'_effectiveFieldGalPercentage'
p185
S'0.7'
p186
sg13
S'0.0'
p187
sg14
S'1.7'
p188
sg16
S'0.0'
p189
sg17
g3
sg18
S'SF'
p190
sg20
S'0.3'
p191
sg23
S'NBA'
p192
sg25
S'0.3'
p193
sg28
g3
sS'_fieldGoalsttempted'
p194
S'.400'
p195
sg29
S'0.3'
p196
sg30
S'0.0'
p197
sg31
S'26'
p198
sg33
S'LAL'
p199
sg35
g36
sg37
S'1.0'
p200
sg38
S'.400'
p201
sg40
S'.500'
p202
sg42
S'.400'
p203
sg44
S'0.3'
p204
sg45
S'1980-81'
p205
sg47
S'1.7'
p206
sg48
S'1.7'
p207
sg49
S'0.3'
p208
sg50
S'0.7'
p209
sg51
S'3.0'
p210
sbsS'_weight'
p211
S'220'
p212
sS'_dob'
p213
S'19-11-1954'
p214
sS'_salary'
p215
(lp216
sg18
S'F'
p217
sb.