(isrc.gp1.models.Player
Player
p0
(dp1
S'_experience'
p2
V10
p3
sS'_totals'
p4
(lp5
(isrc.gp1.models.Totals
Totals
p6
(dp7
S'_offensiveRebounds'
p8
S'56'
p9
sS'_threePointsAttempted'
p10
S'146'
p11
sS'_fieldGoalsPercentage'
p12
S'.407'
p13
sS'_assist'
p14
S'147'
p15
sS'_threePointsPercentage'
p16
S'.397'
p17
sS'_threePoints'
p18
S'58'
p19
sS'_points'
p20
S'670'
p21
sS'_position'
p22
S'PG'
p23
sS'_freeThrowsPercentage'
p24
S'.752'
p25
sS'_effectiveFieldGoalPercentage'
p26
S'.458'
p27
sS'_league'
p28
S'NBA'
p29
sS'_steals'
p30
S'59'
p31
sS'_fieldGoalsAttempted'
p32
S'565'
p33
sS'_personalFouls'
p34
S'201'
p35
sS'_freeThrowsAttempted'
p36
S'202'
p37
sS'_totalRebounds'
p38
S'167'
p39
sS'_age'
p40
S'21'
p41
sS'_team'
p42
S'NYK'
p43
sS'_games'
p44
S'72'
p45
sS'_blocks'
p46
S'1'
p47
sS'_twoPoints'
p48
S'172'
p49
sS'_freeThrows'
p50
S'152'
p51
sS'_twoPointsAttempted'
p52
S'419'
p53
sS'_defensiveRebounds'
p54
S'111'
p55
sS'_season'
p56
S'2005-06'
p57
sS'_fieldGoals'
p58
S'230'
p59
sS'_turnOvers'
p60
S'114'
p61
sS'_twoPointsPercentage'
p62
S'.411'
p63
sS'_minutesPlayed'
p64
S'1544'
p65
sS'_gamesStarted'
p66
S'26'
p67
sba(isrc.gp1.models.Totals
Totals
p68
(dp69
g8
S'55'
p70
sg10
S'213'
p71
sg12
S'.434'
p72
sg14
S'90'
p73
sg16
S'.390'
p74
sg18
S'83'
p75
sg20
S'645'
p76
sg22
S'PG'
p77
sg24
S'.777'
p78
sg26
S'.513'
p79
sg28
S'NBA'
p80
sg30
S'50'
p81
sg32
S'523'
p82
sg34
S'160'
p83
sg36
S'139'
p84
sg38
S'152'
p85
sg40
S'22'
p86
sg42
S'NYK'
p87
sg44
S'64'
p88
sg46
S'6'
p89
sg48
S'144'
p90
sg50
S'108'
p91
sg52
S'310'
p92
sg54
S'97'
p93
sg56
S'2006-07'
p94
sg58
S'227'
p95
sg60
S'72'
p96
sg62
S'.465'
p97
sg64
S'1356'
p98
sg66
S'5'
p99
sba(isrc.gp1.models.Totals
Totals
p100
(dp101
g8
S'51'
p102
sg10
S'292'
p103
sg12
S'.423'
p104
sg14
S'212'
p105
sg16
S'.332'
p106
sg18
S'97'
p107
sg20
S'913'
p108
sg22
S'PG'
p109
sg24
S'.786'
p110
sg26
S'.485'
p111
sg28
S'NBA'
p112
sg30
S'60'
p113
sg32
S'782'
p114
sg34
S'186'
p115
sg36
S'196'
p116
sg38
S'222'
p117
sg40
S'23'
p118
sg42
S'NYK'
p119
sg44
S'72'
p120
sg46
g47
sg48
S'234'
p121
sg50
S'154'
p122
sg52
S'490'
p123
sg54
S'171'
p124
sg56
S'2007-08'
p125
sg58
S'331'
p126
sg60
S'103'
p127
sg62
S'.478'
p128
sg64
S'1883'
p129
sg66
S'17'
p130
sba(isrc.gp1.models.Totals
Totals
p131
(dp132
g8
S'98'
p133
sg10
S'385'
p134
sg12
S'.437'
p135
sg14
S'301'
p136
sg16
S'.325'
p137
sg18
S'125'
p138
sg20
S'1272'
p139
sg22
S'PG'
p140
sg24
S'.841'
p141
sg26
S'.498'
p142
sg28
S'NBA'
p143
sg30
S'95'
p144
sg32
S'1028'
p145
sg34
S'206'
p146
sg36
S'296'
p147
sg38
S'290'
p148
sg40
S'24'
p149
sg42
S'NYK'
p150
sg44
S'74'
p151
sg46
g89
sg48
S'324'
p152
sg50
S'249'
p153
sg52
S'643'
p154
sg54
S'192'
p155
sg56
S'2008-09'
p156
sg58
S'449'
p157
sg60
S'139'
p158
sg62
S'.504'
p159
sg64
S'2209'
p160
sg66
S'11'
p161
sba(isrc.gp1.models.Totals
Totals
p162
(dp163
g8
S'28'
p164
sg10
S'223'
p165
sg12
S'.436'
p166
sg14
S'163'
p167
sg16
S'.390'
p168
sg18
S'87'
p169
sg20
S'567'
p170
sg22
S'PG'
p171
sg24
S'.746'
p172
sg26
S'.524'
p173
sg28
S'NBA'
p174
sg30
S'49'
p175
sg32
S'493'
p176
sg34
S'116'
p177
sg36
S'67'
p178
sg38
S'110'
p179
sg40
S'25'
p180
sg42
S'TOT'
p181
sg44
S'56'
p182
sg46
g99
sg48
S'128'
p183
sg50
S'50'
p184
sg52
S'270'
p185
sg54
S'82'
p186
sg56
S'2009-10'
p187
sg58
S'215'
p188
sg60
S'73'
p189
sg62
S'.474'
p190
sg64
S'1115'
p191
sg66
S'2'
p192
sba(isrc.gp1.models.Totals
Totals
p193
(dp194
g8
S'23'
p195
sg10
S'136'
p196
sg12
S'.452'
p197
sg14
S'112'
p198
sg16
S'.375'
p199
sg18
S'51'
p200
sg20
S'397'
p201
sg22
S'PG'
p202
sg24
S'.778'
p203
sg26
S'.528'
p204
sg28
S'NBA'
p205
sg30
S'27'
p206
sg32
S'336'
p207
sg34
S'66'
p208
sg36
S'54'
p209
sg38
S'72'
p210
sg40
S'25'
p211
sg42
S'NYK'
p212
sg44
S'30'
p213
sg46
g99
sg48
S'101'
p214
sg50
S'42'
p215
sg52
S'200'
p216
sg54
S'49'
p217
sg56
S'2009-10'
p218
sg58
S'152'
p219
sg60
S'53'
p220
sg62
S'.505'
p221
sg64
S'733'
p222
sg66
g192
sba(isrc.gp1.models.Totals
Totals
p223
(dp224
g8
g99
sg10
S'87'
p225
sg12
S'.401'
p226
sg14
S'51'
p227
sg16
S'.414'
p228
sg18
S'36'
p229
sg20
S'170'
p230
sg22
S'PG'
p231
sg24
S'.615'
p232
sg26
S'.516'
p233
sg28
S'NBA'
p234
sg30
S'22'
p235
sg32
S'157'
p236
sg34
S'50'
p237
sg36
S'13'
p238
sg38
S'38'
p239
sg40
S'25'
p240
sg42
S'BOS'
p241
sg44
S'26'
p242
sg46
S'0'
p243
sg48
S'27'
p244
sg50
S'8'
p245
sg52
S'70'
p246
sg54
S'33'
p247
sg56
S'2009-10'
p248
sg58
S'63'
p249
sg60
S'20'
p250
sg62
S'.386'
p251
sg64
S'382'
p252
sg66
g243
sba(isrc.gp1.models.Totals
Totals
p253
(dp254
g8
S'15'
p255
sg10
S'200'
p256
sg12
S'.399'
p257
sg14
S'111'
p258
sg16
S'.325'
p259
sg18
S'65'
p260
sg20
S'401'
p261
sg22
S'PG'
p262
sg24
S'.818'
p263
sg26
S'.485'
p264
sg28
S'NBA'
p265
sg30
S'29'
p266
sg32
S'376'
p267
sg34
S'115'
p268
sg36
S'44'
p269
sg38
S'90'
p270
sg40
S'26'
p271
sg42
S'TOT'
p272
sg44
S'59'
p273
sg46
S'4'
p274
sg48
S'85'
p275
sg50
S'36'
p276
sg52
S'176'
p277
sg54
S'75'
p278
sg56
S'2010-11'
p279
sg58
S'150'
p280
sg60
S'68'
p281
sg62
S'.483'
p282
sg64
S'1013'
p283
sg66
S'11'
p284
sba(isrc.gp1.models.Totals
Totals
p285
(dp286
g8
S'15'
p287
sg10
S'192'
p288
sg12
S'.404'
p289
sg14
S'105'
p290
sg16
S'.328'
p291
sg18
S'63'
p292
sg20
S'388'
p293
sg22
S'PG'
p294
sg24
S'.825'
p295
sg26
S'.492'
p296
sg28
S'NBA'
p297
sg30
S'29'
p298
sg32
S'361'
p299
sg34
S'107'
p300
sg36
S'40'
p301
sg38
S'89'
p302
sg40
S'26'
p303
sg42
S'BOS'
p304
sg44
S'55'
p305
sg46
g274
sg48
S'83'
p306
sg50
S'33'
p307
sg52
S'169'
p308
sg54
S'74'
p309
sg56
S'2010-11'
p310
sg58
S'146'
p311
sg60
S'66'
p312
sg62
S'.491'
p313
sg64
S'983'
p314
sg66
S'11'
p315
sba(isrc.gp1.models.Totals
Totals
p316
(dp317
g8
g243
sg10
g245
sg12
S'.267'
p318
sg14
g89
sg16
S'.250'
p319
sg18
g192
sg20
S'13'
p320
sg22
S'PG'
p321
sg24
S'.750'
p322
sg26
S'.333'
p323
sg28
S'NBA'
p324
sg30
g243
sg32
S'15'
p325
sg34
g245
sg36
g274
sg38
g47
sg40
S'26'
p326
sg42
S'OKC'
p327
sg44
g274
sg46
g243
sg48
g192
sg50
S'3'
p328
sg52
S'7'
p329
sg54
g47
sg56
S'2010-11'
p330
sg58
g274
sg60
g192
sg62
S'.286'
p331
sg64
S'30'
p332
sg66
g243
sba(isrc.gp1.models.Totals
Totals
p333
(dp334
g8
S'15'
p335
sg10
S'181'
p336
sg12
S'.424'
p337
sg14
S'231'
p338
sg16
S'.365'
p339
sg18
S'66'
p340
sg20
S'570'
p341
sg22
S'PG'
p342
sg24
S'.832'
p343
sg26
S'.492'
p344
sg28
S'NBA'
p345
sg30
S'59'
p346
sg32
S'484'
p347
sg34
S'118'
p348
sg36
S'113'
p349
sg38
S'100'
p350
sg40
S'27'
p351
sg42
S'GSW'
p352
sg44
S'51'
p353
sg46
g192
sg48
S'139'
p354
sg50
S'94'
p355
sg52
S'303'
p356
sg54
S'85'
p357
sg56
S'2011-12'
p358
sg58
S'205'
p359
sg60
S'75'
p360
sg62
S'.459'
p361
sg64
S'1192'
p362
sg66
S'9'
p363
sba(isrc.gp1.models.Totals
Totals
p364
(dp365
g8
S'29'
p366
sg10
S'348'
p367
sg12
S'.433'
p368
sg14
S'358'
p369
sg16
S'.405'
p370
sg18
S'141'
p371
sg20
S'1074'
p372
sg22
S'PG'
p373
sg24
S'.799'
p374
sg26
S'.510'
p375
sg28
S'NBA'
p376
sg30
S'85'
p377
sg32
S'921'
p378
sg34
S'207'
p379
sg36
S'169'
p380
sg38
S'184'
p381
sg40
S'28'
p382
sg42
S'CHI'
p383
sg44
S'82'
p384
sg46
S'10'
p385
sg48
S'258'
p386
sg50
S'135'
p387
sg52
S'573'
p388
sg54
S'155'
p389
sg56
S'2012-13'
p390
sg58
S'399'
p391
sg60
S'144'
p392
sg62
S'.450'
p393
sg64
S'2086'
p394
sg66
S'23'
p395
sba(isrc.gp1.models.Totals
Totals
p396
(dp397
g8
S'21'
p398
sg10
S'154'
p399
sg12
S'.428'
p400
sg14
S'112'
p401
sg16
S'.377'
p402
sg18
S'58'
p403
sg20
S'457'
p404
sg22
S'PG'
p405
sg24
S'.835'
p406
sg26
S'.504'
p407
sg28
S'NBA'
p408
sg30
S'36'
p409
sg32
S'383'
p410
sg34
S'92'
p411
sg36
S'85'
p412
sg38
S'81'
p413
sg40
S'29'
p414
sg42
S'DEN'
p415
sg44
S'44'
p416
sg46
g274
sg48
S'106'
p417
sg50
S'71'
p418
sg52
S'229'
p419
sg54
S'60'
p420
sg56
S'2013-14'
p421
sg58
S'164'
p422
sg60
S'58'
p423
sg62
S'.463'
p424
sg64
S'866'
p425
sg66
g47
sba(isrc.gp1.models.Totals
Totals
p426
(dp427
g8
S'17'
p428
sg10
S'112'
p429
sg12
S'.345'
p430
sg14
S'97'
p431
sg16
S'.277'
p432
sg18
S'31'
p433
sg20
S'238'
p434
sg22
S'PG'
p435
sg24
S'.674'
p436
sg26
S'.406'
p437
sg28
S'NBA'
p438
sg30
S'20'
p439
sg32
S'255'
p440
sg34
S'76'
p441
sg36
S'46'
p442
sg38
S'50'
p443
sg40
S'30'
p444
sg42
S'TOT'
p445
sg44
S'42'
p446
sg46
g328
sg48
S'57'
p447
sg50
S'31'
p448
sg52
S'143'
p449
sg54
S'33'
p450
sg56
S'2014-15'
p451
sg58
S'88'
p452
sg60
S'30'
p453
sg62
S'.399'
p454
sg64
S'591'
p455
sg66
g47
sba(isrc.gp1.models.Totals
Totals
p456
(dp457
g8
S'14'
p458
sg10
S'92'
p459
sg12
S'.348'
p460
sg14
S'77'
p461
sg16
S'.261'
p462
sg18
S'24'
p463
sg20
S'192'
p464
sg22
S'PG'
p465
sg24
S'.650'
p466
sg26
S'.407'
p467
sg28
S'NBA'
p468
sg30
S'14'
p469
sg32
S'204'
p470
sg34
S'68'
p471
sg36
S'40'
p472
sg38
S'39'
p473
sg40
S'30'
p474
sg42
S'DEN'
p475
sg44
S'33'
p476
sg46
g328
sg48
S'47'
p477
sg50
S'26'
p478
sg52
S'112'
p479
sg54
S'25'
p480
sg56
S'2014-15'
p481
sg58
S'71'
p482
sg60
S'22'
p483
sg62
S'.420'
p484
sg64
S'465'
p485
sg66
g47
sba(isrc.gp1.models.Totals
Totals
p486
(dp487
g8
g328
sg10
S'20'
p488
sg12
S'.333'
p489
sg14
S'20'
p490
sg16
S'.350'
p491
sg18
g329
sg20
S'46'
p492
sg22
S'PG'
p493
sg24
S'.833'
p494
sg26
S'.402'
p495
sg28
S'NBA'
p496
sg30
g89
sg32
S'51'
p497
sg34
g245
sg36
g89
sg38
S'11'
p498
sg40
S'30'
p499
sg42
S'LAC'
p500
sg44
g363
sg46
g243
sg48
S'10'
p501
sg50
g99
sg52
S'31'
p502
sg54
g245
sg56
S'2014-15'
p503
sg58
S'17'
p504
sg60
g245
sg62
S'.323'
p505
sg64
S'126'
p506
sg66
g243
sba(isrc.gp1.models.Totals
Totals
p507
(dp508
g8
g243
sg10
g47
sg12
S'.000'
p509
sg14
g243
sg16
S'.000'
p510
sg18
g243
sg20
S'NA'
p511
sg22
S'PG'
p512
sg24
g243
sg26
g243
sg28
S'NBA'
p513
sg30
g243
sg32
g47
sg34
g511
sg36
g243
sg38
g47
sg40
S'31'
p514
sg42
S'NOP'
p515
sg44
g192
sg46
g99
sg48
g243
sg50
g243
sg52
g243
sg54
g274
sg56
S'2015-16'
p516
sg58
g243
sg60
g243
sg62
S'.000'
p517
sg64
S'23'
p518
sg66
g47
sbasS'_college'
p519
S'University of Washington'
p520
sS'_toYear'
p521
S'2016'
p522
sS'_height'
p523
S'5-9'
p524
sS'_active'
p525
I01
sS'_shootingHand'
p526
VRight
p527
sS'_name'
p528
S'Nate Robinson'
p529
sS'_per100Possessions'
p530
(lp531
(isrc.gp1.models.Per100Possession
Per100Possession
p532
(dp533
g8
S'1.9'
p534
sg10
S'5.0'
p535
sg12
S'.407'
p536
sS'_offensiveRating'
p537
S'103'
p538
sg14
S'5.0'
p539
sg16
S'.397'
p540
sg18
S'2.0'
p541
sg20
S'22.9'
p542
sg22
S'PG'
p543
sS'_defensiveRating'
p544
S'112'
p545
sg24
S'.752'
p546
sg28
S'NBA'
p547
sg30
S'2.0'
p548
sg32
S'19.3'
p549
sg34
S'6.9'
p550
sg36
S'6.9'
p551
sg38
S'5.7'
p552
sg40
S'21'
p553
sg42
S'NYK'
p554
sg44
S'72'
p555
sg46
S'0.0'
p556
sg48
S'5.9'
p557
sg50
S'5.2'
p558
sg52
S'14.3'
p559
sg54
S'3.8'
p560
sg56
S'2005-06'
p561
sg58
S'7.9'
p562
sg60
S'3.9'
p563
sg62
S'.411'
p564
sg64
S'1544'
p565
sg66
S'26'
p566
sba(isrc.gp1.models.Per100Possession
Per100Possession
p567
(dp568
g8
S'2.1'
p569
sg10
S'8.3'
p570
sg12
S'.434'
p571
sg537
S'112'
p572
sg14
S'3.5'
p573
sg16
S'.390'
p574
sg18
S'3.2'
p575
sg20
S'25.2'
p576
sg22
S'PG'
p577
sg544
S'110'
p578
sg24
S'.777'
p579
sg28
S'NBA'
p580
sg30
S'2.0'
p581
sg32
S'20.4'
p582
sg34
S'6.2'
p583
sg36
S'5.4'
p584
sg38
S'5.9'
p585
sg40
S'22'
p586
sg42
S'NYK'
p587
sg44
S'64'
p588
sg46
S'0.2'
p589
sg48
S'5.6'
p590
sg50
S'4.2'
p591
sg52
S'12.1'
p592
sg54
S'3.8'
p593
sg56
S'2006-07'
p594
sg58
S'8.9'
p595
sg60
S'2.8'
p596
sg62
S'.465'
p597
sg64
S'1356'
p598
sg66
g99
sba(isrc.gp1.models.Per100Possession
Per100Possession
p599
(dp600
g8
S'1.4'
p601
sg10
S'8.1'
p602
sg12
S'.423'
p603
sg537
S'109'
p604
sg14
S'5.9'
p605
sg16
S'.332'
p606
sg18
S'2.7'
p607
sg20
S'25.4'
p608
sg22
S'PG'
p609
sg544
S'113'
p610
sg24
S'.786'
p611
sg28
S'NBA'
p612
sg30
S'1.7'
p613
sg32
S'21.8'
p614
sg34
S'5.2'
p615
sg36
S'5.5'
p616
sg38
S'6.2'
p617
sg40
S'23'
p618
sg42
S'NYK'
p619
sg44
S'72'
p620
sg46
S'0.0'
p621
sg48
S'6.5'
p622
sg50
S'4.3'
p623
sg52
S'13.6'
p624
sg54
S'4.8'
p625
sg56
S'2007-08'
p626
sg58
S'9.2'
p627
sg60
S'2.9'
p628
sg62
S'.478'
p629
sg64
S'1883'
p630
sg66
S'17'
p631
sba(isrc.gp1.models.Per100Possession
Per100Possession
p632
(dp633
g8
S'2.2'
p634
sg10
S'8.7'
p635
sg12
S'.437'
p636
sg537
S'113'
p637
sg14
S'6.8'
p638
sg16
S'.325'
p639
sg18
S'2.8'
p640
sg20
S'28.6'
p641
sg22
S'PG'
p642
sg544
S'111'
p643
sg24
S'.841'
p644
sg28
S'NBA'
p645
sg30
S'2.1'
p646
sg32
S'23.1'
p647
sg34
S'4.6'
p648
sg36
S'6.7'
p649
sg38
S'6.5'
p650
sg40
S'24'
p651
sg42
S'NYK'
p652
sg44
S'74'
p653
sg46
S'0.1'
p654
sg48
S'7.3'
p655
sg50
S'5.6'
p656
sg52
S'14.4'
p657
sg54
S'4.3'
p658
sg56
S'2008-09'
p659
sg58
S'10.1'
p660
sg60
S'3.1'
p661
sg62
S'.504'
p662
sg64
S'2209'
p663
sg66
S'11'
p664
sba(isrc.gp1.models.Per100Possession
Per100Possession
p665
(dp666
g8
S'1.3'
p667
sg10
S'10.3'
p668
sg12
S'.436'
p669
sg537
S'107'
p670
sg14
S'7.5'
p671
sg16
S'.390'
p672
sg18
S'4.0'
p673
sg20
S'26.2'
p674
sg22
S'PG'
p675
sg544
S'110'
p676
sg24
S'.746'
p677
sg28
S'NBA'
p678
sg30
S'2.3'
p679
sg32
S'22.8'
p680
sg34
S'5.4'
p681
sg36
S'3.1'
p682
sg38
S'5.1'
p683
sg40
S'25'
p684
sg42
S'TOT'
p685
sg44
S'56'
p686
sg46
S'0.2'
p687
sg48
S'5.9'
p688
sg50
S'2.3'
p689
sg52
S'12.5'
p690
sg54
S'3.8'
p691
sg56
S'2009-10'
p692
sg58
S'9.9'
p693
sg60
S'3.4'
p694
sg62
S'.474'
p695
sg64
S'1115'
p696
sg66
g192
sba(isrc.gp1.models.Per100Possession
Per100Possession
p697
(dp698
g8
S'1.6'
p699
sg10
S'9.5'
p700
sg12
S'.452'
p701
sg537
S'109'
p702
sg14
S'7.8'
p703
sg16
S'.375'
p704
sg18
S'3.6'
p705
sg20
S'27.7'
p706
sg22
S'PG'
p707
sg544
S'113'
p708
sg24
S'.778'
p709
sg28
S'NBA'
p710
sg30
S'1.9'
p711
sg32
S'23.4'
p712
sg34
S'4.6'
p713
sg36
S'3.8'
p714
sg38
S'5.0'
p715
sg40
S'25'
p716
sg42
S'NYK'
p717
sg44
S'30'
p718
sg46
S'0.3'
p719
sg48
S'7.0'
p720
sg50
S'2.9'
p721
sg52
S'13.9'
p722
sg54
S'3.4'
p723
sg56
S'2009-10'
p724
sg58
S'10.6'
p725
sg60
S'3.7'
p726
sg62
S'.505'
p727
sg64
S'733'
p728
sg66
g192
sba(isrc.gp1.models.Per100Possession
Per100Possession
p729
(dp730
g8
S'0.7'
p731
sg10
S'11.9'
p732
sg12
S'.401'
p733
sg537
S'104'
p734
sg14
S'7.0'
p735
sg16
S'.414'
p736
sg18
S'4.9'
p737
sg20
S'23.3'
p738
sg22
S'PG'
p739
sg544
S'104'
p740
sg24
S'.615'
p741
sg28
S'NBA'
p742
sg30
S'3.0'
p743
sg32
S'21.5'
p744
sg34
S'6.9'
p745
sg36
S'1.8'
p746
sg38
S'5.2'
p747
sg40
S'25'
p748
sg42
S'BOS'
p749
sg44
S'26'
p750
sg46
S'0.0'
p751
sg48
S'3.7'
p752
sg50
S'1.1'
p753
sg52
S'9.6'
p754
sg54
S'4.5'
p755
sg56
S'2009-10'
p756
sg58
S'8.6'
p757
sg60
S'2.7'
p758
sg62
S'.386'
p759
sg64
S'382'
p760
sg66
g243
sba(isrc.gp1.models.Per100Possession
Per100Possession
p761
(dp762
g8
S'0.8'
p763
sg10
S'10.5'
p764
sg12
S'.399'
p765
sg537
S'96'
p766
sg14
S'5.8'
p767
sg16
S'.325'
p768
sg18
S'3.4'
p769
sg20
S'21.0'
p770
sg22
S'PG'
p771
sg544
S'104'
p772
sg24
S'.818'
p773
sg28
S'NBA'
p774
sg30
S'1.5'
p775
sg32
S'19.7'
p776
sg34
S'6.0'
p777
sg36
S'2.3'
p778
sg38
S'4.7'
p779
sg40
S'26'
p780
sg42
S'TOT'
p781
sg44
S'59'
p782
sg46
S'0.2'
p783
sg48
S'4.5'
p784
sg50
S'1.9'
p785
sg52
S'9.2'
p786
sg54
S'3.9'
p787
sg56
S'2010-11'
p788
sg58
S'7.9'
p789
sg60
S'3.6'
p790
sg62
S'.483'
p791
sg64
S'1013'
p792
sg66
S'11'
p793
sba(isrc.gp1.models.Per100Possession
Per100Possession
p794
(dp795
g8
S'0.8'
p796
sg10
S'10.4'
p797
sg12
S'.404'
p798
sg537
S'96'
p799
sg14
S'5.7'
p800
sg16
S'.328'
p801
sg18
S'3.4'
p802
sg20
S'21.0'
p803
sg22
S'PG'
p804
sg544
S'104'
p805
sg24
S'.825'
p806
sg28
S'NBA'
p807
sg30
S'1.6'
p808
sg32
S'19.5'
p809
sg34
S'5.8'
p810
sg36
S'2.2'
p811
sg38
S'4.8'
p812
sg40
S'26'
p813
sg42
S'BOS'
p814
sg44
S'55'
p815
sg46
S'0.2'
p816
sg48
S'4.5'
p817
sg50
S'1.8'
p818
sg52
S'9.1'
p819
sg54
S'4.0'
p820
sg56
S'2010-11'
p821
sg58
S'7.9'
p822
sg60
S'3.6'
p823
sg62
S'.491'
p824
sg64
S'983'
p825
sg66
S'11'
p826
sba(isrc.gp1.models.Per100Possession
Per100Possession
p827
(dp828
g8
S'0.0'
p829
sg10
S'13.8'
p830
sg12
S'.267'
p831
sg537
S'90'
p832
sg14
S'10.4'
p833
sg16
S'.250'
p834
sg18
S'3.5'
p835
sg20
S'22.4'
p836
sg22
S'PG'
p837
sg544
S'115'
p838
sg24
S'.750'
p839
sg28
S'NBA'
p840
sg30
S'0.0'
p841
sg32
S'25.9'
p842
sg34
S'13.8'
p843
sg36
S'6.9'
p844
sg38
S'1.7'
p845
sg40
S'26'
p846
sg42
S'OKC'
p847
sg44
g274
sg46
S'0.0'
p848
sg48
S'3.5'
p849
sg50
S'5.2'
p850
sg52
S'12.1'
p851
sg54
S'1.7'
p852
sg56
S'2010-11'
p853
sg58
S'6.9'
p854
sg60
S'3.5'
p855
sg62
S'.286'
p856
sg64
S'30'
p857
sg66
g243
sba(isrc.gp1.models.Per100Possession
Per100Possession
p858
(dp859
g8
S'0.7'
p860
sg10
S'7.9'
p861
sg12
S'.424'
p862
sg537
S'110'
p863
sg14
S'10.1'
p864
sg16
S'.365'
p865
sg18
S'2.9'
p866
sg20
S'24.9'
p867
sg22
S'PG'
p868
sg544
S'110'
p869
sg24
S'.832'
p870
sg28
S'NBA'
p871
sg30
S'2.6'
p872
sg32
S'21.1'
p873
sg34
S'5.1'
p874
sg36
S'4.9'
p875
sg38
S'4.4'
p876
sg40
S'27'
p877
sg42
S'GSW'
p878
sg44
S'51'
p879
sg46
S'0.1'
p880
sg48
S'6.1'
p881
sg50
S'4.1'
p882
sg52
S'13.2'
p883
sg54
S'3.7'
p884
sg56
S'2011-12'
p885
sg58
S'8.9'
p886
sg60
S'3.3'
p887
sg62
S'.459'
p888
sg64
S'1192'
p889
sg66
g363
sba(isrc.gp1.models.Per100Possession
Per100Possession
p890
(dp891
g8
S'0.7'
p892
sg10
S'9.0'
p893
sg12
S'.433'
p894
sg537
S'108'
p895
sg14
S'9.2'
p896
sg16
S'.405'
p897
sg18
S'3.6'
p898
sg20
S'27.7'
p899
sg22
S'PG'
p900
sg544
S'105'
p901
sg24
S'.799'
p902
sg28
S'NBA'
p903
sg30
S'2.2'
p904
sg32
S'23.7'
p905
sg34
S'5.3'
p906
sg36
S'4.4'
p907
sg38
S'4.7'
p908
sg40
S'28'
p909
sg42
S'CHI'
p910
sg44
S'82'
p911
sg46
S'0.3'
p912
sg48
S'6.6'
p913
sg50
S'3.5'
p914
sg52
S'14.8'
p915
sg54
S'4.0'
p916
sg56
S'2012-13'
p917
sg58
S'10.3'
p918
sg60
S'3.7'
p919
sg62
S'.450'
p920
sg64
S'2086'
p921
sg66
S'23'
p922
sba(isrc.gp1.models.Per100Possession
Per100Possession
p923
(dp924
g8
S'1.2'
p925
sg10
S'8.7'
p926
sg12
S'.428'
p927
sg537
S'109'
p928
sg14
S'6.3'
p929
sg16
S'.377'
p930
sg18
S'3.3'
p931
sg20
S'25.8'
p932
sg22
S'PG'
p933
sg544
S'110'
p934
sg24
S'.835'
p935
sg28
S'NBA'
p936
sg30
S'2.0'
p937
sg32
S'21.6'
p938
sg34
S'5.2'
p939
sg36
S'4.8'
p940
sg38
S'4.6'
p941
sg40
S'29'
p942
sg42
S'DEN'
p943
sg44
S'44'
p944
sg46
S'0.2'
p945
sg48
S'6.0'
p946
sg50
S'4.0'
p947
sg52
S'12.9'
p948
sg54
S'3.4'
p949
sg56
S'2013-14'
p950
sg58
S'9.3'
p951
sg60
S'3.3'
p952
sg62
S'.463'
p953
sg64
S'866'
p954
sg66
g47
sba(isrc.gp1.models.Per100Possession
Per100Possession
p955
(dp956
g8
S'1.4'
p957
sg10
S'9.5'
p958
sg12
S'.345'
p959
sg537
S'97'
p960
sg14
S'8.2'
p961
sg16
S'.277'
p962
sg18
S'2.6'
p963
sg20
S'20.2'
p964
sg22
S'PG'
p965
sg544
S'111'
p966
sg24
S'.674'
p967
sg28
S'NBA'
p968
sg30
S'1.7'
p969
sg32
S'21.6'
p970
sg34
S'6.4'
p971
sg36
S'3.9'
p972
sg38
S'4.2'
p973
sg40
S'30'
p974
sg42
S'TOT'
p975
sg44
S'42'
p976
sg46
S'0.3'
p977
sg48
S'4.8'
p978
sg50
S'2.6'
p979
sg52
S'12.1'
p980
sg54
S'2.8'
p981
sg56
S'2014-15'
p982
sg58
S'7.5'
p983
sg60
S'2.5'
p984
sg62
S'.399'
p985
sg64
S'591'
p986
sg66
g47
sba(isrc.gp1.models.Per100Possession
Per100Possession
p987
(dp988
g8
S'1.5'
p989
sg10
S'9.9'
p990
sg12
S'.348'
p991
sg537
S'98'
p992
sg14
S'8.3'
p993
sg16
S'.261'
p994
sg18
S'2.6'
p995
sg20
S'20.6'
p996
sg22
S'PG'
p997
sg544
S'112'
p998
sg24
S'.650'
p999
sg28
S'NBA'
p1000
sg30
S'1.5'
p1001
sg32
S'21.9'
p1002
sg34
S'7.3'
p1003
sg36
S'4.3'
p1004
sg38
S'4.2'
p1005
sg40
S'30'
p1006
sg42
S'DEN'
p1007
sg44
S'33'
p1008
sg46
S'0.3'
p1009
sg48
S'5.0'
p1010
sg50
S'2.8'
p1011
sg52
S'12.0'
p1012
sg54
S'2.7'
p1013
sg56
S'2014-15'
p1014
sg58
S'7.6'
p1015
sg60
S'2.4'
p1016
sg62
S'.420'
p1017
sg64
S'465'
p1018
sg66
g47
sba(isrc.gp1.models.Per100Possession
Per100Possession
p1019
(dp1020
g8
S'1.2'
p1021
sg10
S'8.0'
p1022
sg12
S'.333'
p1023
sg537
S'93'
p1024
sg14
S'8.0'
p1025
sg16
S'.350'
p1026
sg18
S'2.8'
p1027
sg20
S'18.5'
p1028
sg22
S'PG'
p1029
sg544
S'108'
p1030
sg24
S'.833'
p1031
sg28
S'NBA'
p1032
sg30
S'2.4'
p1033
sg32
S'20.5'
p1034
sg34
S'3.2'
p1035
sg36
S'2.4'
p1036
sg38
S'4.4'
p1037
sg40
S'30'
p1038
sg42
S'LAC'
p1039
sg44
g363
sg46
S'0.0'
p1040
sg48
S'4.0'
p1041
sg50
S'2.0'
p1042
sg52
S'12.5'
p1043
sg54
S'3.2'
p1044
sg56
S'2014-15'
p1045
sg58
S'6.8'
p1046
sg60
S'3.2'
p1047
sg62
S'.323'
p1048
sg64
S'126'
p1049
sg66
g243
sba(isrc.gp1.models.Per100Possession
Per100Possession
p1050
(dp1051
g8
S'0.0'
p1052
sg10
S'2.2'
p1053
sg12
S'.000'
p1054
sg537
g511
sg14
S'0.0'
p1055
sg16
S'.000'
p1056
sg18
S'0.0'
p1057
sg20
S'112'
p1058
sg22
S'PG'
p1059
sg544
g511
sg24
S'0.0'
p1060
sg28
S'NBA'
p1061
sg30
S'0.0'
p1062
sg32
S'2.2'
p1063
sg34
S'122'
p1064
sg36
S'0.0'
p1065
sg38
S'2.2'
p1066
sg40
S'31'
p1067
sg42
S'NOP'
p1068
sg44
g192
sg46
S'10.9'
p1069
sg48
S'0.0'
p1070
sg50
S'0.0'
p1071
sg52
S'0.0'
p1072
sg54
S'8.7'
p1073
sg56
S'2015-16'
p1074
sg58
S'0.0'
p1075
sg60
S'0.0'
p1076
sg62
S'0.0'
p1077
sg64
S'23'
p1078
sg66
g47
sbasS'_advanced'
p1079
(lp1080
(isrc.gp1.models.Advanced
Advanced
p1081
(dp1082
S'_offensiveReboundPercentage'
p1083
S'4.4'
p1084
sS'_turnOverPercentage'
p1085
S'14.8'
p1086
sS'_winSharesPer48Minutes'
p1087
S'.046'
p1088
sS'_stealPercentage'
p1089
S'2.0'
p1090
sS'_usagePercentage'
p1091
S'22.5'
p1092
sS'_totalReboundsPercentage'
p1093
S'6.6'
p1094
sS'_defensiveBoxPlusMinus'
p1095
S'-1.9'
p1096
sg22
S'PG'
p1097
sS'_valueOverReplacementPlayer'
p1098
S'0.2'
p1099
sS'_trueShootingPercentage'
p1100
S'.512'
p1101
sS'_defensiveReboundPercentage'
p1102
S'8.8'
p1103
sS'_freeThrowsAttempRate'
p1104
S'.358'
p1105
sS'_threePointsAttempRate'
p1106
S'.258'
p1107
sg28
S'NBA'
p1108
sS'_offensiveBoxPlusMinues'
p1109
S'0.4'
p1110
sS'_assistPercentage'
p1111
S'17.0'
p1112
sS'_defensiveWinShares'
p1113
S'0.5'
p1114
sg40
S'21'
p1115
sg42
S'NYK'
p1116
sg44
S'72'
p1117
sS'_blockPercentage'
p1118
S'0.1'
p1119
sS'_playerEfficiencyRating'
p1120
S'12.6'
p1121
sS'_offensiveWinShares'
p1122
S'1.0'
p1123
sg64
S'1544'
p1124
sS'_boxPlusMinus'
p1125
S'-1.5'
p1126
sg56
S'2005-06'
p1127
sS'_winShares'
p1128
S'1.5'
p1129
sba(isrc.gp1.models.Advanced
Advanced
p1130
(dp1131
g1083
S'4.9'
p1132
sg1085
S'11.0'
p1133
sg1087
S'.114'
p1134
sg1089
S'2.0'
p1135
sg1091
S'22.0'
p1136
sg1093
S'6.7'
p1137
sg1095
S'-1.9'
p1138
sg22
S'PG'
p1139
sg1098
S'0.7'
p1140
sg1100
S'.552'
p1141
sg1102
S'8.4'
p1142
sg1104
S'.266'
p1143
sg1106
S'.407'
p1144
sg28
S'NBA'
p1145
sg1109
S'2.1'
p1146
sg1111
S'11.9'
p1147
sg1113
S'0.8'
p1148
sg40
S'22'
p1149
sg42
S'NYK'
p1150
sg44
S'64'
p1151
sg1118
S'0.4'
p1152
sg1120
S'15.2'
p1153
sg1122
S'2.4'
p1154
sg64
S'1356'
p1155
sg1125
S'0.2'
p1156
sg56
S'2006-07'
p1157
sg1128
S'3.2'
p1158
sba(isrc.gp1.models.Advanced
Advanced
p1159
(dp1160
g1083
S'3.0'
p1161
sg1085
S'10.6'
p1162
sg1087
S'.082'
p1163
sg1089
S'1.7'
p1164
sg1091
S'23.1'
p1165
sg1093
S'6.7'
p1166
sg1095
S'-2.1'
p1167
sg22
S'PG'
p1168
sg1098
S'0.9'
p1169
sg1100
S'.526'
p1170
sg1102
S'10.7'
p1171
sg1104
S'.251'
p1172
sg1106
S'.373'
p1173
sg28
S'NBA'
p1174
sg1109
S'2.0'
p1175
sg1111
S'19.7'
p1176
sg1113
S'0.7'
p1177
sg40
S'23'
p1178
sg42
S'NYK'
p1179
sg44
S'72'
p1180
sg1118
S'0.0'
p1181
sg1120
S'15.3'
p1182
sg1122
S'2.5'
p1183
sg64
S'1883'
p1184
sg1125
S'0.0'
p1185
sg56
S'2007-08'
p1186
sg1128
S'3.2'
p1187
sba(isrc.gp1.models.Advanced
Advanced
p1188
(dp1189
g1083
S'4.7'
p1190
sg1085
S'10.7'
p1191
sg1087
S'.128'
p1192
sg1089
S'2.1'
p1193
sg1091
S'25.6'
p1194
sg1093
S'7.2'
p1195
sg1095
S'-1.1'
p1196
sg22
S'PG'
p1197
sg1098
S'2.6'
p1198
sg1100
S'.549'
p1199
sg1102
S'9.8'
p1200
sg1104
S'.288'
p1201
sg1106
S'.375'
p1202
sg28
S'NBA'
p1203
sg1109
S'3.7'
p1204
sg1111
S'22.9'
p1205
sg1113
S'1.5'
p1206
sg40
S'24'
p1207
sg42
S'NYK'
p1208
sg44
S'74'
p1209
sg1118
S'0.2'
p1210
sg1120
S'18.9'
p1211
sg1122
S'4.4'
p1212
sg64
S'2209'
p1213
sg1125
S'2.6'
p1214
sg56
S'2008-09'
p1215
sg1128
S'5.9'
p1216
sba(isrc.gp1.models.Advanced
Advanced
p1217
(dp1218
g1083
S'2.9'
p1219
sg1085
S'12.3'
p1220
sg1087
S'.095'
p1221
sg1089
S'2.3'
p1222
sg1091
S'24.4'
p1223
sg1093
S'5.8'
p1224
sg1095
S'-2.2'
p1225
sg22
S'PG'
p1226
sg1098
S'0.6'
p1227
sg1100
S'.543'
p1228
sg1102
S'8.6'
p1229
sg1104
S'.136'
p1230
sg1106
S'.452'
p1231
sg28
S'NBA'
p1232
sg1109
S'2.3'
p1233
sg1111
S'24.9'
p1234
sg1113
S'0.8'
p1235
sg40
S'25'
p1236
sg42
S'TOT'
p1237
sg44
S'56'
p1238
sg1118
S'0.3'
p1239
sg1120
S'16.3'
p1240
sg1122
S'1.4'
p1241
sg64
S'1115'
p1242
sg1125
S'0.1'
p1243
sg56
S'2009-10'
p1244
sg1128
S'2.2'
p1245
sba(isrc.gp1.models.Advanced
Advanced
p1246
(dp1247
g1083
S'3.5'
p1248
sg1085
S'12.8'
p1249
sg1087
S'.091'
p1250
sg1089
S'1.9'
p1251
sg1091
S'25.4'
p1252
sg1093
S'5.6'
p1253
sg1095
S'-2.8'
p1254
sg22
S'PG'
p1255
sg1098
S'0.3'
p1256
sg1100
S'.552'
p1257
sg1102
S'7.7'
p1258
sg1104
S'.161'
p1259
sg1106
S'.405'
p1260
sg28
S'NBA'
p1261
sg1109
S'2.7'
p1262
sg1111
S'26.4'
p1263
sg1113
S'0.3'
p1264
sg40
S'25'
p1265
sg42
S'NYK'
p1266
sg44
S'30'
p1267
sg1118
S'0.5'
p1268
sg1120
S'17.6'
p1269
sg1122
S'1.1'
p1270
sg64
S'733'
p1271
sg1125
S'-0.1'
p1272
sg56
S'2009-10'
p1273
sg1128
S'1.4'
p1274
sba(isrc.gp1.models.Advanced
Advanced
p1275
(dp1276
g1083
S'1.7'
p1277
sg1085
S'10.9'
p1278
sg1087
S'.103'
p1279
sg1089
S'3.0'
p1280
sg1091
S'22.4'
p1281
sg1093
S'6.1'
p1282
sg1095
S'-0.9'
p1283
sg22
S'PG'
p1284
sg1098
S'0.3'
p1285
sg1100
S'.522'
p1286
sg1102
S'10.3'
p1287
sg1104
S'.083'
p1288
sg1106
S'.554'
p1289
sg28
S'NBA'
p1290
sg1109
S'1.5'
p1291
sg1111
S'22.1'
p1292
sg1113
S'0.6'
p1293
sg40
S'25'
p1294
sg42
S'BOS'
p1295
sg44
S'26'
p1296
sg1118
S'0.0'
p1297
sg1120
S'13.9'
p1298
sg1122
S'0.2'
p1299
sg64
S'382'
p1300
sg1125
S'0.6'
p1301
sg56
S'2009-10'
p1302
sg1128
S'0.8'
p1303
sba(isrc.gp1.models.Advanced
Advanced
p1304
(dp1305
g1083
S'1.9'
p1306
sg1085
S'14.7'
p1307
sg1087
S'.051'
p1308
sg1089
S'1.5'
p1309
sg1091
S'21.9'
p1310
sg1093
S'5.5'
p1311
sg1095
S'-1.0'
p1312
sg22
S'PG'
p1313
sg1098
S'0.1'
p1314
sg1100
S'.507'
p1315
sg1102
S'8.6'
p1316
sg1104
S'.117'
p1317
sg1106
S'.532'
p1318
sg28
S'NBA'
p1319
sg1109
S'-0.7'
p1320
sg1111
S'17.8'
p1321
sg1113
S'1.5'
p1322
sg40
S'26'
p1323
sg42
S'TOT'
p1324
sg44
S'59'
p1325
sg1118
S'0.3'
p1326
sg1120
S'10.0'
p1327
sg1122
S'-0.4'
p1328
sg64
S'1013'
p1329
sg1125
S'-1.7'
p1330
sg56
S'2010-11'
p1331
sg1128
S'1.1'
p1332
sba(isrc.gp1.models.Advanced
Advanced
p1333
(dp1334
g1083
S'2.0'
p1335
sg1085
S'14.8'
p1336
sg1087
S'.054'
p1337
sg1089
S'1.6'
p1338
sg1091
S'21.7'
p1339
sg1093
S'5.6'
p1340
sg1095
S'-0.8'
p1341
sg22
S'PG'
p1342
sg1098
S'0.2'
p1343
sg1100
S'.512'
p1344
sg1102
S'8.7'
p1345
sg1104
S'.111'
p1346
sg1106
S'.532'
p1347
sg28
S'NBA'
p1348
sg1109
S'-0.6'
p1349
sg1111
S'17.4'
p1350
sg1113
S'1.5'
p1351
sg40
S'26'
p1352
sg42
S'BOS'
p1353
sg44
S'55'
p1354
sg1118
S'0.3'
p1355
sg1120
S'10.2'
p1356
sg1122
S'-0.3'
p1357
sg64
S'983'
p1358
sg1125
S'-1.4'
p1359
sg56
S'2010-11'
p1360
sg1128
S'1.1'
p1361
sba(isrc.gp1.models.Advanced
Advanced
p1362
(dp1363
g1083
S'0.0'
p1364
sg1085
S'10.7'
p1365
sg1087
S'-0.063'
p1366
sg1089
S'0.0'
p1367
sg1091
S'28.4'
p1368
sg1093
S'2.0'
p1369
sg1095
S'-7.9'
p1370
sg22
S'PG'
p1371
sg1098
S'-0.1'
p1372
sg1100
S'.388'
p1373
sg1102
S'3.8'
p1374
sg1104
S'.267'
p1375
sg1106
S'.533'
p1376
sg28
S'NBA'
p1377
sg1109
S'-3.1'
p1378
sg1111
S'31.6'
p1379
sg1113
S'0.0'
p1380
sg40
S'26'
p1381
sg42
S'OKC'
p1382
sg44
g274
sg1118
S'0.0'
p1383
sg1120
S'3.3'
p1384
sg1122
S'0.0'
p1385
sg64
S'30'
p1386
sg1125
S'-11.0'
p1387
sg56
S'2010-11'
p1388
sg1128
S'0.0'
p1389
sba(isrc.gp1.models.Advanced
Advanced
p1390
(dp1391
g1083
S'1.4'
p1392
sg1085
S'12.3'
p1393
sg1087
S'.111'
p1394
sg1089
S'2.6'
p1395
sg1091
S'23.6'
p1396
sg1093
S'4.8'
p1397
sg1095
S'-2.9'
p1398
sg22
S'PG'
p1399
sg1098
S'0.6'
p1400
sg1100
S'.534'
p1401
sg1102
S'8.1'
p1402
sg1104
S'.233'
p1403
sg1106
S'.374'
p1404
sg28
S'NBA'
p1405
sg1109
S'2.9'
p1406
sg1111
S'31.8'
p1407
sg1113
S'0.4'
p1408
sg40
S'27'
p1409
sg42
S'GSW'
p1410
sg44
S'51'
p1411
sg1118
S'0.1'
p1412
sg1120
S'18.0'
p1413
sg1122
S'2.4'
p1414
sg64
S'1192'
p1415
sg1125
S'0.0'
p1416
sg56
S'2011-12'
p1417
sg1128
S'2.8'
p1418
sba(isrc.gp1.models.Advanced
Advanced
p1419
(dp1420
g1083
S'1.6'
p1421
sg1085
S'12.6'
p1422
sg1087
S'.136'
p1423
sg1089
S'2.2'
p1424
sg1091
S'25.1'
p1425
sg1093
S'5.1'
p1426
sg1095
S'-1.6'
p1427
sg22
S'PG'
p1428
sg1098
S'1.9'
p1429
sg1100
S'.540'
p1430
sg1102
S'8.6'
p1431
sg1104
S'.183'
p1432
sg1106
S'.378'
p1433
sg28
S'NBA'
p1434
sg1109
S'3.3'
p1435
sg1111
S'31.4'
p1436
sg1113
S'2.4'
p1437
sg40
S'28'
p1438
sg42
S'CHI'
p1439
sg44
S'82'
p1440
sg1118
S'0.4'
p1441
sg1120
S'17.4'
p1442
sg1122
S'3.5'
p1443
sg64
S'2086'
p1444
sg1125
S'1.7'
p1445
sg56
S'2012-13'
p1446
sg1128
S'5.9'
p1447
sba(isrc.gp1.models.Advanced
Advanced
p1448
(dp1449
g1083
S'2.6'
p1450
sg1085
S'12.1'
p1451
sg1087
S'.101'
p1452
sg1089
S'2.0'
p1453
sg1091
S'23.5'
p1454
sg1093
S'5.0'
p1455
sg1095
S'-2.1'
p1456
sg22
S'PG'
p1457
sg1098
S'0.4'
p1458
sg1100
S'.544'
p1459
sg1102
S'7.5'
p1460
sg1104
S'.222'
p1461
sg1106
S'.402'
p1462
sg28
S'NBA'
p1463
sg1109
S'1.9'
p1464
sg1111
S'21.3'
p1465
sg1113
S'0.5'
p1466
sg40
S'29'
p1467
sg42
S'DEN'
p1468
sg44
S'44'
p1469
sg1118
S'0.3'
p1470
sg1120
S'15.6'
p1471
sg1122
S'1.3'
p1472
sg64
S'866'
p1473
sg1125
S'-0.2'
p1474
sg56
S'2013-14'
p1475
sg1128
S'1.8'
p1476
sba(isrc.gp1.models.Advanced
Advanced
p1477
(dp1478
g1083
S'3.1'
p1479
sg1085
S'9.8'
p1480
sg1087
S'.021'
p1481
sg1089
S'1.7'
p1482
sg1091
S'22.5'
p1483
sg1093
S'4.6'
p1484
sg1095
S'-2.8'
p1485
sg22
S'PG'
p1486
sg1098
S'-0.2'
p1487
sg1100
S'.432'
p1488
sg1102
S'6.2'
p1489
sg1104
S'.180'
p1490
sg1106
S'.439'
p1491
sg28
S'NBA'
p1492
sg1109
S'-0.4'
p1493
sg1111
S'25.7'
p1494
sg1113
S'0.2'
p1495
sg40
S'30'
p1496
sg42
S'TOT'
p1497
sg44
S'42'
p1498
sg1118
S'0.4'
p1499
sg1120
S'10.6'
p1500
sg1122
S'0.0'
p1501
sg64
S'591'
p1502
sg1125
S'-3.3'
p1503
sg56
S'2014-15'
p1504
sg1128
S'0.3'
p1505
sba(isrc.gp1.models.Advanced
Advanced
p1506
(dp1507
g1083
S'3.1'
p1508
sg1085
S'9.0'
p1509
sg1087
S'.024'
p1510
sg1089
S'1.5'
p1511
sg1091
S'22.6'
p1512
sg1093
S'4.5'
p1513
sg1095
S'-3.0'
p1514
sg22
S'PG'
p1515
sg1098
S'-0.1'
p1516
sg1100
S'.433'
p1517
sg1102
S'6.0'
p1518
sg1104
S'.196'
p1519
sg1106
S'.451'
p1520
sg28
S'NBA'
p1521
sg1109
S'0.0'
p1522
sg1111
S'26.4'
p1523
sg1113
S'0.1'
p1524
sg40
S'30'
p1525
sg42
S'DEN'
p1526
sg44
S'33'
p1527
sg1118
S'0.5'
p1528
sg1120
S'10.6'
p1529
sg1122
S'0.1'
p1530
sg64
S'465'
p1531
sg1125
S'-3.0'
p1532
sg56
S'2014-15'
p1533
sg1128
S'0.2'
p1534
sba(isrc.gp1.models.Advanced
Advanced
p1535
(dp1536
g1083
S'2.7'
p1537
sg1085
S'13.0'
p1538
sg1087
S'.012'
p1539
sg1089
S'2.4'
p1540
sg1091
S'22.1'
p1541
sg1093
S'4.9'
p1542
sg1095
S'-2.2'
p1543
sg22
S'PG'
p1544
sg1098
S'-0.1'
p1545
sg1100
S'.429'
p1546
sg1102
S'7.0'
p1547
sg1104
S'.118'
p1548
sg1106
S'.392'
p1549
sg28
S'NBA'
p1550
sg1109
S'-2.1'
p1551
sg1111
S'23.2'
p1552
sg1113
S'0.1'
p1553
sg40
S'30'
p1554
sg42
S'LAC'
p1555
sg44
g363
sg1118
S'0.0'
p1556
sg1120
S'10.4'
p1557
sg1122
S'-0.1'
p1558
sg64
S'126'
p1559
sg1125
S'-4.3'
p1560
sg56
S'2014-15'
p1561
sg1128
S'0.0'
p1562
sba(isrc.gp1.models.Advanced
Advanced
p1563
(dp1564
g1083
S'0.0'
p1565
sg1085
S'0.0'
p1566
sg1087
S'.036'
p1567
sg1089
S'2.2'
p1568
sg1091
S'1.9'
p1569
sg1093
S'0.0'
p1570
sg1095
S'-4.7'
p1571
sg22
S'PG'
p1572
sg1098
S'0.0'
p1573
sg1100
S'.000'
p1574
sg1102
S'0.0'
p1575
sg1104
S'.000'
p1576
sg1106
S'1.000'
p1577
sg28
S'NBA'
p1578
sg1109
S'-5.8'
p1579
sg1111
S'21.9'
p1580
sg1113
S'0.0'
p1581
sg40
S'31'
p1582
sg42
S'NOP'
p1583
sg44
g192
sg1118
S'0.0'
p1584
sg1120
S'2.7'
p1585
sg1122
S'0.0'
p1586
sg64
S'23'
p1587
sg1125
S'-10.5'
p1588
sg56
S'2015-16'
p1589
sg1128
S'0.0'
p1590
sbasS'_per36Minutes'
p1591
(lp1592
(isrc.gp1.models.Per36Minutes
Per36Minutes
p1593
(dp1594
g8
S'1.3'
p1595
sg10
S'3.4'
p1596
sg12
S'.407'
p1597
sg14
S'3.4'
p1598
sg16
S'.397'
p1599
sg18
S'1.4'
p1600
sg20
S'15.6'
p1601
sg22
S'PG'
p1602
sg24
S'.752'
p1603
sg28
S'NBA'
p1604
sg30
S'1.4'
p1605
sg32
S'13.2'
p1606
sg34
S'4.7'
p1607
sg36
S'4.7'
p1608
sg38
S'3.9'
p1609
sg40
S'21'
p1610
sg42
S'NYK'
p1611
sg44
S'72'
p1612
sg46
S'0.0'
p1613
sg48
S'4.0'
p1614
sg50
S'3.5'
p1615
sg52
S'9.8'
p1616
sg54
S'2.6'
p1617
sg56
S'2005-06'
p1618
sg58
S'5.4'
p1619
sg60
S'2.7'
p1620
sg62
S'.411'
p1621
sg64
S'1544'
p1622
sg66
S'26'
p1623
sba(isrc.gp1.models.Per36Minutes
Per36Minutes
p1624
(dp1625
g8
S'1.5'
p1626
sg10
S'5.7'
p1627
sg12
S'.434'
p1628
sg14
S'2.4'
p1629
sg16
S'.390'
p1630
sg18
S'2.2'
p1631
sg20
S'17.1'
p1632
sg22
S'PG'
p1633
sg24
S'.777'
p1634
sg28
S'NBA'
p1635
sg30
S'1.3'
p1636
sg32
S'13.9'
p1637
sg34
S'4.2'
p1638
sg36
S'3.7'
p1639
sg38
S'4.0'
p1640
sg40
S'22'
p1641
sg42
S'NYK'
p1642
sg44
S'64'
p1643
sg46
S'0.2'
p1644
sg48
S'3.8'
p1645
sg50
S'2.9'
p1646
sg52
S'8.2'
p1647
sg54
S'2.6'
p1648
sg56
S'2006-07'
p1649
sg58
S'6.0'
p1650
sg60
S'1.9'
p1651
sg62
S'.465'
p1652
sg64
S'1356'
p1653
sg66
g99
sba(isrc.gp1.models.Per36Minutes
Per36Minutes
p1654
(dp1655
g8
S'1.0'
p1656
sg10
S'5.6'
p1657
sg12
S'.423'
p1658
sg14
S'4.1'
p1659
sg16
S'.332'
p1660
sg18
S'1.9'
p1661
sg20
S'17.5'
p1662
sg22
S'PG'
p1663
sg24
S'.786'
p1664
sg28
S'NBA'
p1665
sg30
S'1.1'
p1666
sg32
S'15.0'
p1667
sg34
S'3.6'
p1668
sg36
S'3.7'
p1669
sg38
S'4.2'
p1670
sg40
S'23'
p1671
sg42
S'NYK'
p1672
sg44
S'72'
p1673
sg46
S'0.0'
p1674
sg48
S'4.5'
p1675
sg50
S'2.9'
p1676
sg52
S'9.4'
p1677
sg54
S'3.3'
p1678
sg56
S'2007-08'
p1679
sg58
S'6.3'
p1680
sg60
S'2.0'
p1681
sg62
S'.478'
p1682
sg64
S'1883'
p1683
sg66
S'17'
p1684
sba(isrc.gp1.models.Per36Minutes
Per36Minutes
p1685
(dp1686
g8
S'1.6'
p1687
sg10
S'6.3'
p1688
sg12
S'.437'
p1689
sg14
S'4.9'
p1690
sg16
S'.325'
p1691
sg18
S'2.0'
p1692
sg20
S'20.7'
p1693
sg22
S'PG'
p1694
sg24
S'.841'
p1695
sg28
S'NBA'
p1696
sg30
S'1.5'
p1697
sg32
S'16.8'
p1698
sg34
S'3.4'
p1699
sg36
S'4.8'
p1700
sg38
S'4.7'
p1701
sg40
S'24'
p1702
sg42
S'NYK'
p1703
sg44
S'74'
p1704
sg46
S'0.1'
p1705
sg48
S'5.3'
p1706
sg50
S'4.1'
p1707
sg52
S'10.5'
p1708
sg54
S'3.1'
p1709
sg56
S'2008-09'
p1710
sg58
S'7.3'
p1711
sg60
S'2.3'
p1712
sg62
S'.504'
p1713
sg64
S'2209'
p1714
sg66
S'11'
p1715
sba(isrc.gp1.models.Per36Minutes
Per36Minutes
p1716
(dp1717
g8
S'0.9'
p1718
sg10
S'7.2'
p1719
sg12
S'.436'
p1720
sg14
S'5.3'
p1721
sg16
S'.390'
p1722
sg18
S'2.8'
p1723
sg20
S'18.3'
p1724
sg22
S'PG'
p1725
sg24
S'.746'
p1726
sg28
S'NBA'
p1727
sg30
S'1.6'
p1728
sg32
S'15.9'
p1729
sg34
S'3.7'
p1730
sg36
S'2.2'
p1731
sg38
S'3.6'
p1732
sg40
S'25'
p1733
sg42
S'TOT'
p1734
sg44
S'56'
p1735
sg46
S'0.2'
p1736
sg48
S'4.1'
p1737
sg50
S'1.6'
p1738
sg52
S'8.7'
p1739
sg54
S'2.6'
p1740
sg56
S'2009-10'
p1741
sg58
S'6.9'
p1742
sg60
S'2.4'
p1743
sg62
S'.474'
p1744
sg64
S'1115'
p1745
sg66
g192
sba(isrc.gp1.models.Per36Minutes
Per36Minutes
p1746
(dp1747
g8
S'1.1'
p1748
sg10
S'6.7'
p1749
sg12
S'.452'
p1750
sg14
S'5.5'
p1751
sg16
S'.375'
p1752
sg18
S'2.5'
p1753
sg20
S'19.5'
p1754
sg22
S'PG'
p1755
sg24
S'.778'
p1756
sg28
S'NBA'
p1757
sg30
S'1.3'
p1758
sg32
S'16.5'
p1759
sg34
S'3.2'
p1760
sg36
S'2.7'
p1761
sg38
S'3.5'
p1762
sg40
S'25'
p1763
sg42
S'NYK'
p1764
sg44
S'30'
p1765
sg46
S'0.2'
p1766
sg48
S'5.0'
p1767
sg50
S'2.1'
p1768
sg52
S'9.8'
p1769
sg54
S'2.4'
p1770
sg56
S'2009-10'
p1771
sg58
S'7.5'
p1772
sg60
S'2.6'
p1773
sg62
S'.505'
p1774
sg64
S'733'
p1775
sg66
g192
sba(isrc.gp1.models.Per36Minutes
Per36Minutes
p1776
(dp1777
g8
S'0.5'
p1778
sg10
S'8.2'
p1779
sg12
S'.401'
p1780
sg14
S'4.8'
p1781
sg16
S'.414'
p1782
sg18
S'3.4'
p1783
sg20
S'16.0'
p1784
sg22
S'PG'
p1785
sg24
S'.615'
p1786
sg28
S'NBA'
p1787
sg30
S'2.1'
p1788
sg32
S'14.8'
p1789
sg34
S'4.7'
p1790
sg36
S'1.2'
p1791
sg38
S'3.6'
p1792
sg40
S'25'
p1793
sg42
S'BOS'
p1794
sg44
S'26'
p1795
sg46
S'0.0'
p1796
sg48
S'2.5'
p1797
sg50
S'0.8'
p1798
sg52
S'6.6'
p1799
sg54
S'3.1'
p1800
sg56
S'2009-10'
p1801
sg58
S'5.9'
p1802
sg60
S'1.9'
p1803
sg62
S'.386'
p1804
sg64
S'382'
p1805
sg66
g243
sba(isrc.gp1.models.Per36Minutes
Per36Minutes
p1806
(dp1807
g8
S'0.5'
p1808
sg10
S'7.1'
p1809
sg12
S'.399'
p1810
sg14
S'3.9'
p1811
sg16
S'.325'
p1812
sg18
S'2.3'
p1813
sg20
S'14.3'
p1814
sg22
S'PG'
p1815
sg24
S'.818'
p1816
sg28
S'NBA'
p1817
sg30
S'1.0'
p1818
sg32
S'13.4'
p1819
sg34
S'4.1'
p1820
sg36
S'1.6'
p1821
sg38
S'3.2'
p1822
sg40
S'26'
p1823
sg42
S'TOT'
p1824
sg44
S'59'
p1825
sg46
S'0.1'
p1826
sg48
S'3.0'
p1827
sg50
S'1.3'
p1828
sg52
S'6.3'
p1829
sg54
S'2.7'
p1830
sg56
S'2010-11'
p1831
sg58
S'5.3'
p1832
sg60
S'2.4'
p1833
sg62
S'.483'
p1834
sg64
S'1013'
p1835
sg66
S'11'
p1836
sba(isrc.gp1.models.Per36Minutes
Per36Minutes
p1837
(dp1838
g8
S'0.5'
p1839
sg10
S'7.0'
p1840
sg12
S'.404'
p1841
sg14
S'3.8'
p1842
sg16
S'.328'
p1843
sg18
S'2.3'
p1844
sg20
S'14.2'
p1845
sg22
S'PG'
p1846
sg24
S'.825'
p1847
sg28
S'NBA'
p1848
sg30
S'1.1'
p1849
sg32
S'13.2'
p1850
sg34
S'3.9'
p1851
sg36
S'1.5'
p1852
sg38
S'3.3'
p1853
sg40
S'26'
p1854
sg42
S'BOS'
p1855
sg44
S'55'
p1856
sg46
S'0.1'
p1857
sg48
S'3.0'
p1858
sg50
S'1.2'
p1859
sg52
S'6.2'
p1860
sg54
S'2.7'
p1861
sg56
S'2010-11'
p1862
sg58
S'5.3'
p1863
sg60
S'2.4'
p1864
sg62
S'.491'
p1865
sg64
S'983'
p1866
sg66
S'11'
p1867
sba(isrc.gp1.models.Per36Minutes
Per36Minutes
p1868
(dp1869
g8
S'0.0'
p1870
sg10
S'9.6'
p1871
sg12
S'.267'
p1872
sg14
S'7.2'
p1873
sg16
S'.250'
p1874
sg18
S'2.4'
p1875
sg20
S'15.6'
p1876
sg22
S'PG'
p1877
sg24
S'.750'
p1878
sg28
S'NBA'
p1879
sg30
S'0.0'
p1880
sg32
S'18.0'
p1881
sg34
S'9.6'
p1882
sg36
S'4.8'
p1883
sg38
S'1.2'
p1884
sg40
S'26'
p1885
sg42
S'OKC'
p1886
sg44
g274
sg46
S'0.0'
p1887
sg48
S'2.4'
p1888
sg50
S'3.6'
p1889
sg52
S'8.4'
p1890
sg54
S'1.2'
p1891
sg56
S'2010-11'
p1892
sg58
S'4.8'
p1893
sg60
S'2.4'
p1894
sg62
S'.286'
p1895
sg64
S'30'
p1896
sg66
g243
sba(isrc.gp1.models.Per36Minutes
Per36Minutes
p1897
(dp1898
g8
S'0.5'
p1899
sg10
S'5.5'
p1900
sg12
S'.424'
p1901
sg14
S'7.0'
p1902
sg16
S'.365'
p1903
sg18
S'2.0'
p1904
sg20
S'17.2'
p1905
sg22
S'PG'
p1906
sg24
S'.832'
p1907
sg28
S'NBA'
p1908
sg30
S'1.8'
p1909
sg32
S'14.6'
p1910
sg34
S'3.6'
p1911
sg36
S'3.4'
p1912
sg38
S'3.0'
p1913
sg40
S'27'
p1914
sg42
S'GSW'
p1915
sg44
S'51'
p1916
sg46
S'0.1'
p1917
sg48
S'4.2'
p1918
sg50
S'2.8'
p1919
sg52
S'9.2'
p1920
sg54
S'2.6'
p1921
sg56
S'2011-12'
p1922
sg58
S'6.2'
p1923
sg60
S'2.3'
p1924
sg62
S'.459'
p1925
sg64
S'1192'
p1926
sg66
g363
sba(isrc.gp1.models.Per36Minutes
Per36Minutes
p1927
(dp1928
g8
S'0.5'
p1929
sg10
S'6.0'
p1930
sg12
S'.433'
p1931
sg14
S'6.2'
p1932
sg16
S'.405'
p1933
sg18
S'2.4'
p1934
sg20
S'18.5'
p1935
sg22
S'PG'
p1936
sg24
S'.799'
p1937
sg28
S'NBA'
p1938
sg30
S'1.5'
p1939
sg32
S'15.9'
p1940
sg34
S'3.6'
p1941
sg36
S'2.9'
p1942
sg38
S'3.2'
p1943
sg40
S'28'
p1944
sg42
S'CHI'
p1945
sg44
S'82'
p1946
sg46
S'0.2'
p1947
sg48
S'4.5'
p1948
sg50
S'2.3'
p1949
sg52
S'9.9'
p1950
sg54
S'2.7'
p1951
sg56
S'2012-13'
p1952
sg58
S'6.9'
p1953
sg60
S'2.5'
p1954
sg62
S'.450'
p1955
sg64
S'2086'
p1956
sg66
S'23'
p1957
sba(isrc.gp1.models.Per36Minutes
Per36Minutes
p1958
(dp1959
g8
S'0.9'
p1960
sg10
S'6.4'
p1961
sg12
S'.428'
p1962
sg14
S'4.7'
p1963
sg16
S'.377'
p1964
sg18
S'2.4'
p1965
sg20
S'19.0'
p1966
sg22
S'PG'
p1967
sg24
S'.835'
p1968
sg28
S'NBA'
p1969
sg30
S'1.5'
p1970
sg32
S'15.9'
p1971
sg34
S'3.8'
p1972
sg36
S'3.5'
p1973
sg38
S'3.4'
p1974
sg40
S'29'
p1975
sg42
S'DEN'
p1976
sg44
S'44'
p1977
sg46
S'0.2'
p1978
sg48
S'4.4'
p1979
sg50
S'3.0'
p1980
sg52
S'9.5'
p1981
sg54
S'2.5'
p1982
sg56
S'2013-14'
p1983
sg58
S'6.8'
p1984
sg60
S'2.4'
p1985
sg62
S'.463'
p1986
sg64
S'866'
p1987
sg66
g47
sba(isrc.gp1.models.Per36Minutes
Per36Minutes
p1988
(dp1989
g8
S'1.0'
p1990
sg10
S'6.8'
p1991
sg12
S'.345'
p1992
sg14
S'5.9'
p1993
sg16
S'.277'
p1994
sg18
S'1.9'
p1995
sg20
S'14.5'
p1996
sg22
S'PG'
p1997
sg24
S'.674'
p1998
sg28
S'NBA'
p1999
sg30
S'1.2'
p2000
sg32
S'15.5'
p2001
sg34
S'4.6'
p2002
sg36
S'2.8'
p2003
sg38
S'3.0'
p2004
sg40
S'30'
p2005
sg42
S'TOT'
p2006
sg44
S'42'
p2007
sg46
S'0.2'
p2008
sg48
S'3.5'
p2009
sg50
S'1.9'
p2010
sg52
S'8.7'
p2011
sg54
S'2.0'
p2012
sg56
S'2014-15'
p2013
sg58
S'5.4'
p2014
sg60
S'1.8'
p2015
sg62
S'.399'
p2016
sg64
S'591'
p2017
sg66
g47
sba(isrc.gp1.models.Per36Minutes
Per36Minutes
p2018
(dp2019
g8
S'1.1'
p2020
sg10
S'7.1'
p2021
sg12
S'.348'
p2022
sg14
S'6.0'
p2023
sg16
S'.261'
p2024
sg18
S'1.9'
p2025
sg20
S'14.9'
p2026
sg22
S'PG'
p2027
sg24
S'.650'
p2028
sg28
S'NBA'
p2029
sg30
S'1.1'
p2030
sg32
S'15.8'
p2031
sg34
S'5.3'
p2032
sg36
S'3.1'
p2033
sg38
S'3.0'
p2034
sg40
S'30'
p2035
sg42
S'DEN'
p2036
sg44
S'33'
p2037
sg46
S'0.2'
p2038
sg48
S'3.6'
p2039
sg50
S'2.0'
p2040
sg52
S'8.7'
p2041
sg54
S'1.9'
p2042
sg56
S'2014-15'
p2043
sg58
S'5.5'
p2044
sg60
S'1.7'
p2045
sg62
S'.420'
p2046
sg64
S'465'
p2047
sg66
g47
sba(isrc.gp1.models.Per36Minutes
Per36Minutes
p2048
(dp2049
g8
S'0.9'
p2050
sg10
S'5.7'
p2051
sg12
S'.333'
p2052
sg14
S'5.7'
p2053
sg16
S'.350'
p2054
sg18
S'2.0'
p2055
sg20
S'13.1'
p2056
sg22
S'PG'
p2057
sg24
S'.833'
p2058
sg28
S'NBA'
p2059
sg30
S'1.7'
p2060
sg32
S'14.6'
p2061
sg34
S'2.3'
p2062
sg36
S'1.7'
p2063
sg38
S'3.1'
p2064
sg40
S'30'
p2065
sg42
S'LAC'
p2066
sg44
g363
sg46
S'0.0'
p2067
sg48
S'2.9'
p2068
sg50
S'1.4'
p2069
sg52
S'8.9'
p2070
sg54
S'2.3'
p2071
sg56
S'2014-15'
p2072
sg58
S'4.9'
p2073
sg60
S'2.3'
p2074
sg62
S'.323'
p2075
sg64
S'126'
p2076
sg66
g243
sba(isrc.gp1.models.Per36Minutes
Per36Minutes
p2077
(dp2078
g8
S'0.0'
p2079
sg10
S'1.6'
p2080
sg12
S'.000'
p2081
sg14
S'0.0'
p2082
sg16
S'.000'
p2083
sg18
S'0.0'
p2084
sg20
g511
sg22
S'PG'
p2085
sg24
S'0.0'
p2086
sg28
S'NBA'
p2087
sg30
S'0.0'
p2088
sg32
S'1.6'
p2089
sg34
g511
sg36
S'0.0'
p2090
sg38
S'1.6'
p2091
sg40
S'31'
p2092
sg42
S'NOP'
p2093
sg44
g192
sg46
S'7.8'
p2094
sg48
S'0.0'
p2095
sg50
S'0.0'
p2096
sg52
S'0.0'
p2097
sg54
S'6.3'
p2098
sg56
S'2015-16'
p2099
sg58
S'0.0'
p2100
sg60
S'0.0'
p2101
sg62
S'0.0'
p2102
sg64
S'23'
p2103
sg66
g47
sbasS'_fromYear'
p2104
S'2006'
p2105
sS'_url'
p2106
S'http://www.basketball-reference.com/players/r/robinna01.html'
p2107
sS'_perGame'
p2108
(isrc.gp1.models.PerGame
PerGame
p2109
(dp2110
g8
S'0.0'
p2111
sg10
S'0.5'
p2112
sg12
S'.000'
p2113
sS'_effectiveFieldGalPercentage'
p2114
S'0.0'
p2115
sg14
S'0.0'
p2116
sg16
S'.000'
p2117
sg18
S'0.0'
p2118
sg20
g511
sg22
S'PG'
p2119
sg24
S'0.0'
p2120
sg28
S'NBA'
p2121
sg30
S'0.0'
p2122
sg34
g511
sS'_fieldGoalsttempted'
p2123
S'0.5'
p2124
sg36
S'0.0'
p2125
sg38
S'0.5'
p2126
sg40
S'31'
p2127
sg42
S'NOP'
p2128
sg44
g192
sg46
S'2.5'
p2129
sg48
S'0.0'
p2130
sg50
S'0.0'
p2131
sg52
S'0.0'
p2132
sg54
S'2.0'
p2133
sg56
S'2015-16'
p2134
sg58
S'0.0'
p2135
sg60
S'0.0'
p2136
sg62
S'.000'
p2137
sg64
S'11.5'
p2138
sg66
g47
sbsS'_weight'
p2139
S'180'
p2140
sS'_dob'
p2141
S'31-5-1984'
p2142
sS'_salary'
p2143
(lp2144
(isrc.gp1.models.Salary
Salary
p2145
(dp2146
g42
S'New York Knicks'
p2147
sg28
S'NBA'
p2148
sg2143
S'$1,102,680'
p2149
sg56
S'2005-06'
p2150
sba(isrc.gp1.models.Salary
Salary
p2151
(dp2152
g42
S'New York Knicks'
p2153
sg28
S'NBA'
p2154
sg2143
S'$1,185,480'
p2155
sg56
S'2006-07'
p2156
sba(isrc.gp1.models.Salary
Salary
p2157
(dp2158
g42
S'New York Knicks'
p2159
sg28
S'NBA'
p2160
sg2143
S'$1,268,160'
p2161
sg56
S'2007-08'
p2162
sba(isrc.gp1.models.Salary
Salary
p2163
(dp2164
g42
S'New York Knicks'
p2165
sg28
S'NBA'
p2166
sg2143
S'$2,020,179'
p2167
sg56
S'2008-09'
p2168
sba(isrc.gp1.models.Salary
Salary
p2169
(dp2170
g42
S'Boston Celtics'
p2171
sg28
S'NBA'
p2172
sg2143
S'$4,000,000'
p2173
sg56
S'2009-10'
p2174
sba(isrc.gp1.models.Salary
Salary
p2175
(dp2176
g42
S'Oklahoma City Thunder'
p2177
sg28
S'NBA'
p2178
sg2143
S'$4,200,000'
p2179
sg56
S'2010-11'
p2180
sba(isrc.gp1.models.Salary
Salary
p2181
(dp2182
g42
S'Oklahoma City Thunder'
p2183
sg28
S'NBA'
p2184
sg2143
S'$4,500,000'
p2185
sg56
S'2011-12'
p2186
sba(isrc.gp1.models.Salary
Salary
p2187
(dp2188
g42
S'Golden State Warriors'
p2189
sg28
S'NBA'
p2190
sg2143
S'$983,307'
p2191
sg56
S'2011-12'
p2192
sba(isrc.gp1.models.Salary
Salary
p2193
(dp2194
g42
S'Chicago Bulls'
p2195
sg28
S'NBA'
p2196
sg2143
S'$1,146,337'
p2197
sg56
S'2012-13'
p2198
sba(isrc.gp1.models.Salary
Salary
p2199
(dp2200
g42
S'Denver Nuggets'
p2201
sg28
S'NBA'
p2202
sg2143
S'$2,016,000'
p2203
sg56
S'2013-14'
p2204
sba(isrc.gp1.models.Salary
Salary
p2205
(dp2206
g42
S'Boston Celtics'
p2207
sg28
S'NBA'
p2208
sg2143
S'$2,106,720'
p2209
sg56
S'2014-15'
p2210
sba(isrc.gp1.models.Salary
Salary
p2211
(dp2212
g42
S'Los Angeles Clippers'
p2213
sg28
S'NBA'
p2214
sg2143
S'$154,918'
p2215
sg56
S'2014-15'
p2216
sbasg22
S'G'
p2217
sb.