(isrc.gp1.models.Player
Player
p0
(dp1
S'_experience'
p2
S'NA'
p3
sS'_totals'
p4
(lp5
(isrc.gp1.models.Totals
Totals
p6
(dp7
S'_offensiveRebounds'
p8
S'1'
p9
sS'_threePointsAttempted'
p10
S'0'
p11
sS'_fieldGoalsPercentage'
p12
S'.429'
p13
sS'_assist'
p14
g11
sS'_threePointsPercentage'
p15
S'6'
p16
sS'_threePoints'
p17
g11
sS'_points'
p18
g3
sS'_position'
p19
S'SF'
p20
sS'_freeThrowsPercentage'
p21
S'2'
p22
sS'_effectiveFieldGoalPercentage'
p23
g9
sS'_league'
p24
S'NBA'
p25
sS'_steals'
p26
S'4'
p27
sS'_fieldGoalsAttempted'
p28
S'14'
p29
sS'_personalFouls'
p30
S'13'
p31
sS'_freeThrowsAttempted'
p32
S'.250'
p33
sS'_totalRebounds'
p34
S'3'
p35
sS'_age'
p36
S'19'
p37
sS'_team'
p38
S'MIN'
p39
sS'_games'
p40
S'17'
p41
sS'_blocks'
p42
g35
sS'_twoPoints'
p43
S'14'
p44
sS'_freeThrows'
p45
g27
sS'_twoPointsAttempted'
p46
S'.429'
p47
sS'_defensiveRebounds'
p48
g35
sS'_season'
p49
S'2003-04'
p50
sS'_fieldGoals'
p51
g16
sS'_turnOvers'
p52
g16
sS'_twoPointsPercentage'
p53
S'.429'
p54
sS'_minutesPlayed'
p55
S'32'
p56
sS'_gamesStarted'
p57
g11
sba(isrc.gp1.models.Totals
Totals
p58
(dp59
g8
g16
sg10
g9
sg12
S'.524'
p60
sg14
g9
sg15
S'.000'
p61
sg17
g11
sg18
S'27'
p62
sg19
S'SG'
p63
sg21
S'.556'
p64
sg23
S'.524'
p65
sg24
S'NBA'
p66
sg26
g9
sg28
S'21'
p67
sg30
S'7'
p68
sg32
S'9'
p69
sg34
S'16'
p70
sg36
S'20'
p71
sg38
S'MIN'
p72
sg40
g22
sg42
g9
sg43
S'11'
p73
sg45
S'5'
p74
sg46
S'20'
p75
sg48
S'10'
p76
sg49
S'2004-05'
p77
sg51
S'11'
p78
sg52
g35
sg53
S'.550'
p79
sg55
S'54'
p80
sg57
g11
sbasS'_college'
p81
S'NA'
p82
sS'_toYear'
p83
S'2005'
p84
sS'_height'
p85
S'6-9'
p86
sS'_active'
p87
I00
sS'_shootingHand'
p88
VRight
p89
sS'_name'
p90
S'Ndudi Ebi'
p91
sS'_per100Possessions'
p92
(lp93
(isrc.gp1.models.Per100Possession
Per100Possession
p94
(dp95
g8
S'1.7'
p96
sg10
S'0.0'
p97
sg12
S'.429'
p98
sS'_offensiveRating'
p99
S'102'
p100
sg14
S'0.0'
p101
sg15
S'10.1'
p102
sg17
S'0.0'
p103
sg18
S'81'
p104
sg19
S'SF'
p105
sS'_defensiveRating'
p106
g3
sg21
S'3.4'
p107
sg24
S'NBA'
p108
sg26
S'6.7'
p109
sg28
S'23.6'
p110
sg30
S'21.9'
p111
sg32
S'.250'
p112
sg34
S'5.1'
p113
sg36
S'19'
p114
sg38
S'MIN'
p115
sg40
S'17'
p116
sg42
S'5.1'
p117
sg43
S'23.6'
p118
sg45
S'6.7'
p119
sg46
S'.429'
p120
sg48
S'5.1'
p121
sg49
S'2003-04'
p122
sg51
S'10.1'
p123
sg52
S'10.1'
p124
sg53
S'1.7'
p125
sg55
S'32'
p126
sg57
g11
sba(isrc.gp1.models.Per100Possession
Per100Possession
p127
(dp128
g8
S'6.0'
p129
sg10
S'1.0'
p130
sg12
S'.524'
p131
sg99
S'107'
p132
sg14
S'1.0'
p133
sg15
S'.000'
p134
sg17
S'0.0'
p135
sg18
S'26.9'
p136
sg19
S'SG'
p137
sg106
S'105'
p138
sg21
S'.556'
p139
sg24
S'NBA'
p140
sg26
S'1.0'
p141
sg28
S'21.0'
p142
sg30
S'7.0'
p143
sg32
S'9.0'
p144
sg34
S'16.0'
p145
sg36
S'20'
p146
sg38
S'MIN'
p147
sg40
g22
sg42
S'1.0'
p148
sg43
S'11.0'
p149
sg45
S'5.0'
p150
sg46
S'20.0'
p151
sg48
S'10.0'
p152
sg49
S'2004-05'
p153
sg51
S'11.0'
p154
sg52
S'3.0'
p155
sg53
S'.550'
p156
sg55
S'54'
p157
sg57
g11
sbasS'_advanced'
p158
(lp159
(isrc.gp1.models.Advanced
Advanced
p160
(dp161
S'_offensiveReboundPercentage'
p162
S'7.5'
p163
sS'_turnOverPercentage'
p164
S'16.0'
p165
sS'_winSharesPer48Minutes'
p166
S'-0.057'
p167
sS'_stealPercentage'
p168
S'0.0'
p169
sS'_usagePercentage'
p170
S'27.6'
p171
sS'_totalReboundsPercentage'
p172
S'5.4'
p173
sS'_defensiveBoxPlusMinus'
p174
S'0.6'
p175
sg19
S'SF'
p176
sS'_valueOverReplacementPlayer'
p177
S'0.0'
p178
sS'_trueShootingPercentage'
p179
S'.412'
p180
sS'_defensiveReboundPercentage'
p181
S'3.4'
p182
sS'_freeThrowsAttempRate'
p183
S'.286'
p184
sS'_threePointsAttempRate'
p185
S'.000'
p186
sg24
S'NBA'
p187
sS'_offensiveBoxPlusMinues'
p188
S'-6.7'
p189
sS'_assistPercentage'
p190
S'16.2'
p191
sS'_defensiveWinShares'
p192
S'0.0'
p193
sg36
S'19'
p194
sg38
S'MIN'
p195
sg40
S'17'
p196
sS'_blockPercentage'
p197
S'9.1'
p198
sS'_playerEfficiencyRating'
p199
S'9.3'
p200
sS'_offensiveWinShares'
p201
S'-0.1'
p202
sg55
S'32'
p203
sS'_boxPlusMinus'
p204
S'-6.0'
p205
sg49
S'2003-04'
p206
sS'_winShares'
p207
S'0.0'
p208
sba(isrc.gp1.models.Advanced
Advanced
p209
(dp210
g162
S'13.3'
p211
sg164
S'10.7'
p212
sg166
S'.116'
p213
sg168
S'1.0'
p214
sg170
S'24.0'
p215
sg172
S'16.9'
p216
sg174
S'-3.3'
p217
sg19
S'SG'
p218
sg177
S'0.0'
p219
sg179
S'.541'
p220
sg181
S'20.3'
p221
sg183
S'.429'
p222
sg185
S'.048'
p223
sg24
S'NBA'
p224
sg188
S'-1.7'
p225
sg190
S'3.3'
p226
sg192
S'0.1'
p227
sg36
S'20'
p228
sg38
S'MIN'
p229
sg40
g22
sg197
S'1.3'
p230
sg199
S'17.8'
p231
sg201
S'0.1'
p232
sg55
S'54'
p233
sg204
S'-5.0'
p234
sg49
S'2004-05'
p235
sg207
S'0.1'
p236
sbasS'_per36Minutes'
p237
(lp238
(isrc.gp1.models.Per36Minutes
Per36Minutes
p239
(dp240
g8
S'1.1'
p241
sg10
S'0.0'
p242
sg12
S'.429'
p243
sg14
S'0.0'
p244
sg15
S'6.8'
p245
sg17
S'0.0'
p246
sg18
g3
sg19
S'SF'
p247
sg21
S'2.3'
p248
sg24
S'NBA'
p249
sg26
S'4.5'
p250
sg28
S'15.8'
p251
sg30
S'14.6'
p252
sg32
S'.250'
p253
sg34
S'3.4'
p254
sg36
S'19'
p255
sg38
S'MIN'
p256
sg40
S'17'
p257
sg42
S'3.4'
p258
sg43
S'15.8'
p259
sg45
S'4.5'
p260
sg46
S'.429'
p261
sg48
S'3.4'
p262
sg49
S'2003-04'
p263
sg51
S'6.8'
p264
sg52
S'6.8'
p265
sg53
S'1.1'
p266
sg55
S'32'
p267
sg57
g11
sba(isrc.gp1.models.Per36Minutes
Per36Minutes
p268
(dp269
g8
S'4.0'
p270
sg10
S'0.7'
p271
sg12
S'.524'
p272
sg14
S'0.7'
p273
sg15
S'.000'
p274
sg17
S'0.0'
p275
sg18
S'18.0'
p276
sg19
S'SG'
p277
sg21
S'.556'
p278
sg24
S'NBA'
p279
sg26
S'0.7'
p280
sg28
S'14.0'
p281
sg30
S'4.7'
p282
sg32
S'6.0'
p283
sg34
S'10.7'
p284
sg36
S'20'
p285
sg38
S'MIN'
p286
sg40
g22
sg42
S'0.7'
p287
sg43
S'7.3'
p288
sg45
S'3.3'
p289
sg46
S'13.3'
p290
sg48
S'6.7'
p291
sg49
S'2004-05'
p292
sg51
S'7.3'
p293
sg52
S'2.0'
p294
sg53
S'.550'
p295
sg55
S'54'
p296
sg57
g11
sbasS'_fromYear'
p297
S'2004'
p298
sS'_url'
p299
S'http://www.basketball-reference.com/players/e/ebind01.html'
p300
sS'_perGame'
p301
(isrc.gp1.models.PerGame
PerGame
p302
(dp303
g8
S'3.0'
p304
sg10
S'0.5'
p305
sg12
S'.524'
p306
sS'_effectiveFieldGalPercentage'
p307
S'.524'
p308
sg14
S'0.5'
p309
sg15
S'.000'
p310
sg17
S'0.0'
p311
sg18
S'13.5'
p312
sg19
S'SG'
p313
sg21
S'.556'
p314
sg24
S'NBA'
p315
sg26
S'0.5'
p316
sg30
S'3.5'
p317
sS'_fieldGoalsttempted'
p318
S'10.5'
p319
sg32
S'4.5'
p320
sg34
S'8.0'
p321
sg36
S'20'
p322
sg38
S'MIN'
p323
sg40
g22
sg42
S'0.5'
p324
sg43
S'5.5'
p325
sg45
S'2.5'
p326
sg46
S'10.0'
p327
sg48
S'5.0'
p328
sg49
S'2004-05'
p329
sg51
S'5.5'
p330
sg52
S'1.5'
p331
sg53
S'.550'
p332
sg55
S'27.0'
p333
sg57
g11
sbsS'_weight'
p334
S'200'
p335
sS'_dob'
p336
S'18-6-1984'
p337
sS'_salary'
p338
(lp339
(isrc.gp1.models.Salary
Salary
p340
(dp341
g38
S'Minnesota Timberwolves'
p342
sg24
S'NBA'
p343
sg338
S'$838,560'
p344
sg49
S'2003-04'
p345
sba(isrc.gp1.models.Salary
Salary
p346
(dp347
g38
S'Minnesota Timberwolves'
p348
sg24
S'NBA'
p349
sg338
S'$901,440'
p350
sg49
S'2004-05'
p351
sba(isrc.gp1.models.Salary
Salary
p352
(dp353
g38
S'Minnesota Timberwolves'
p354
sg24
S'NBA'
p355
sg338
S'$964,320'
p356
sg49
S'2005-06'
p357
sba(isrc.gp1.models.Salary
Salary
p358
(dp359
g38
S'Dallas Mavericks'
p360
sg24
S'NBA'
p361
sg338
S'$90,000'
p362
sg49
S'2006-07'
p363
sbasg19
S'F'
p364
sb.