(isrc.gp1.models.Player
Player
p0
(dp1
S'_experience'
p2
S'NA'
p3
sS'_totals'
p4
(lp5
(isrc.gp1.models.Totals
Totals
p6
(dp7
S'_offensiveRebounds'
p8
g3
sS'_threePointsAttempted'
p9
g3
sS'_fieldGoalsPercentage'
p10
S'.323'
p11
sS'_assist'
p12
S'46'
p13
sS'_threePointsPercentage'
p14
g3
sS'_threePoints'
p15
g3
sS'_points'
p16
S'242'
p17
sS'_position'
p18
S'PG'
p19
sS'_freeThrowsPercentage'
p20
S'.626'
p21
sS'_effectiveFieldGoalPercentage'
p22
S'.323'
p23
sS'_league'
p24
S'NBA'
p25
sS'_steals'
p26
g3
sS'_fieldGoalsAttempted'
p27
S'248'
p28
sS'_personalFouls'
p29
S'97'
p30
sS'_freeThrowsAttempted'
p31
S'131'
p32
sS'_totalRebounds'
p33
g3
sS'_age'
p34
S'25'
p35
sS'_team'
p36
S'PHW'
p37
sS'_games'
p38
S'57'
p39
sS'_blocks'
p40
g3
sS'_twoPoints'
p41
S'80'
p42
sS'_freeThrows'
p43
S'82'
p44
sS'_twoPointsAttempted'
p45
S'248'
p46
sS'_defensiveRebounds'
p47
g3
sS'_season'
p48
S'1949-50'
p49
sS'_fieldGoals'
p50
S'80'
p51
sS'_turnOvers'
p52
g3
sS'_twoPointsPercentage'
p53
S'.323'
p54
sS'_minutesPlayed'
p55
g3
sS'_gamesStarted'
p56
g3
sba(isrc.gp1.models.Totals
Totals
p57
(dp58
g8
g3
sg9
g3
sg10
S'.329'
p59
sg12
S'82'
p60
sg14
g3
sg15
g3
sg16
S'148'
p61
sg18
S'PG'
p62
sg20
S'.557'
p63
sg22
S'.329'
p64
sg24
S'NBA'
p65
sg26
g3
sg27
S'158'
p66
sg29
S'83'
p67
sg31
S'79'
p68
sg33
S'101'
p69
sg34
S'26'
p70
sg36
S'PHW'
p71
sg38
S'53'
p72
sg40
g3
sg41
S'52'
p73
sg43
S'44'
p74
sg45
S'158'
p75
sg47
g3
sg48
S'1950-51'
p76
sg50
S'52'
p77
sg52
g3
sg53
S'.329'
p78
sg55
g3
sg56
g3
sba(isrc.gp1.models.Totals
Totals
p79
(dp80
g8
g3
sg9
g3
sg10
S'.359'
p81
sg12
S'168'
p82
sg14
g3
sg15
g3
sg16
S'319'
p83
sg18
S'PG'
p84
sg20
S'.593'
p85
sg22
S'.359'
p86
sg24
S'NBA'
p87
sg26
g3
sg27
S'306'
p88
sg29
S'182'
p89
sg31
S'167'
p90
sg33
S'147'
p91
sg34
S'27'
p92
sg36
S'PHW'
p93
sg38
S'62'
p94
sg40
g3
sg41
S'110'
p95
sg43
S'99'
p96
sg45
S'306'
p97
sg47
g3
sg48
S'1951-52'
p98
sg50
S'110'
p99
sg52
g3
sg53
S'.359'
p100
sg55
S'1192'
p101
sg56
g3
sba(isrc.gp1.models.Totals
Totals
p102
(dp103
g8
g3
sg9
g3
sg10
S'.374'
p104
sg12
S'192'
p105
sg14
g3
sg15
g3
sg16
S'343'
p106
sg18
S'PG'
p107
sg20
S'.648'
p108
sg22
S'.374'
p109
sg24
S'NBA'
p110
sg26
g3
sg27
S'318'
p111
sg29
S'161'
p112
sg31
S'162'
p113
sg33
S'157'
p114
sg34
S'28'
p115
sg36
S'PHW'
p116
sg38
S'55'
p117
sg40
g3
sg41
S'119'
p118
sg43
S'105'
p119
sg45
S'318'
p120
sg47
g3
sg48
S'1952-53'
p121
sg50
S'119'
p122
sg52
g3
sg53
S'.374'
p123
sg55
S'1286'
p124
sg56
g3
sbasS'_college'
p125
S'Temple University'
p126
sS'_toYear'
p127
S'1953'
p128
sS'_height'
p129
S'6-0'
p130
sS'_active'
p131
I00
sS'_shootingHand'
p132
VRight
p133
sS'_name'
p134
S'Nelson Bobb'
p135
sS'_per100Possessions'
p136
(lp137
sS'_advanced'
p138
(lp139
(isrc.gp1.models.Advanced
Advanced
p140
(dp141
S'_offensiveReboundPercentage'
p142
g3
sS'_turnOverPercentage'
p143
g3
sS'_winSharesPer48Minutes'
p144
g3
sS'_stealPercentage'
p145
g3
sS'_usagePercentage'
p146
g3
sS'_totalReboundsPercentage'
p147
g3
sS'_defensiveBoxPlusMinus'
p148
g3
sg18
S'PG'
p149
sS'_valueOverReplacementPlayer'
p150
g3
sS'_trueShootingPercentage'
p151
S'.396'
p152
sS'_defensiveReboundPercentage'
p153
g3
sS'_freeThrowsAttempRate'
p154
S'.528'
p155
sS'_threePointsAttempRate'
p156
g3
sg24
S'NBA'
p157
sS'_offensiveBoxPlusMinues'
p158
g3
sS'_assistPercentage'
p159
g3
sS'_defensiveWinShares'
p160
S'1.3'
p161
sg34
S'25'
p162
sg36
S'PHW'
p163
sg38
S'57'
p164
sS'_blockPercentage'
p165
g3
sS'_playerEfficiencyRating'
p166
g3
sS'_offensiveWinShares'
p167
S'0.4'
p168
sg55
g3
sS'_boxPlusMinus'
p169
g3
sg48
S'1949-50'
p170
sS'_winShares'
p171
S'1.8'
p172
sba(isrc.gp1.models.Advanced
Advanced
p173
(dp174
g142
g3
sg143
g3
sg144
g3
sg145
g3
sg146
g3
sg147
g3
sg148
g3
sg18
S'PG'
p175
sg150
g3
sg151
S'.384'
p176
sg153
g3
sg154
S'.500'
p177
sg156
g3
sg24
S'NBA'
p178
sg158
g3
sg159
g3
sg160
S'1.0'
p179
sg34
S'26'
p180
sg36
S'PHW'
p181
sg38
S'53'
p182
sg165
g3
sg166
g3
sg167
S'0.0'
p183
sg55
g3
sg169
g3
sg48
S'1950-51'
p184
sg171
S'1.1'
p185
sba(isrc.gp1.models.Advanced
Advanced
p186
(dp187
g142
g3
sg143
g3
sg144
S'.048'
p188
sg145
g3
sg146
g3
sg147
g3
sg148
g3
sg18
S'PG'
p189
sg150
g3
sg151
S'.420'
p190
sg153
g3
sg154
S'.546'
p191
sg156
g3
sg24
S'NBA'
p192
sg158
g3
sg159
g3
sg160
S'0.4'
p193
sg34
S'27'
p194
sg36
S'PHW'
p195
sg38
S'62'
p196
sg165
g3
sg166
S'10.9'
p197
sg167
S'0.7'
p198
sg55
S'1192'
p199
sg169
g3
sg48
S'1951-52'
p200
sg171
S'1.2'
p201
sba(isrc.gp1.models.Advanced
Advanced
p202
(dp203
g142
g3
sg143
g3
sg144
S'.075'
p204
sg145
g3
sg146
g3
sg147
g3
sg148
g3
sg18
S'PG'
p205
sg150
g3
sg151
S'.441'
p206
sg153
g3
sg154
S'.509'
p207
sg156
g3
sg24
S'NBA'
p208
sg158
g3
sg159
g3
sg160
S'0.8'
p209
sg34
S'28'
p210
sg36
S'PHW'
p211
sg38
S'55'
p212
sg165
g3
sg166
S'13.5'
p213
sg167
S'1.2'
p214
sg55
S'1286'
p215
sg169
g3
sg48
S'1952-53'
p216
sg171
S'2.0'
p217
sbasS'_per36Minutes'
p218
(lp219
(isrc.gp1.models.Per36Minutes
Per36Minutes
p220
(dp221
g8
g3
sg9
g3
sg10
S'.323'
p222
sg12
g3
sg14
g3
sg15
g3
sg16
g3
sg18
S'PG'
p223
sg20
S'.626'
p224
sg24
S'NBA'
p225
sg26
g3
sg27
g3
sg29
g3
sg31
g3
sg33
g3
sg34
S'25'
p226
sg36
S'PHW'
p227
sg38
S'57'
p228
sg40
g3
sg41
g3
sg43
g3
sg45
g3
sg47
g3
sg48
S'1949-50'
p229
sg50
g3
sg52
g3
sg53
S'.323'
p230
sg55
g3
sg56
g3
sba(isrc.gp1.models.Per36Minutes
Per36Minutes
p231
(dp232
g8
g3
sg9
g3
sg10
S'.329'
p233
sg12
g3
sg14
g3
sg15
g3
sg16
g3
sg18
S'PG'
p234
sg20
S'.557'
p235
sg24
S'NBA'
p236
sg26
g3
sg27
g3
sg29
g3
sg31
g3
sg33
g3
sg34
S'26'
p237
sg36
S'PHW'
p238
sg38
S'53'
p239
sg40
g3
sg41
g3
sg43
g3
sg45
g3
sg47
g3
sg48
S'1950-51'
p240
sg50
g3
sg52
g3
sg53
S'.329'
p241
sg55
g3
sg56
g3
sba(isrc.gp1.models.Per36Minutes
Per36Minutes
p242
(dp243
g8
g3
sg9
g3
sg10
S'.359'
p244
sg12
S'5.1'
p245
sg14
g3
sg15
g3
sg16
S'9.6'
p246
sg18
S'PG'
p247
sg20
S'.593'
p248
sg24
S'NBA'
p249
sg26
g3
sg27
S'9.2'
p250
sg29
S'5.5'
p251
sg31
S'5.0'
p252
sg33
S'4.4'
p253
sg34
S'27'
p254
sg36
S'PHW'
p255
sg38
S'62'
p256
sg40
g3
sg41
S'3.3'
p257
sg43
S'3.0'
p258
sg45
S'9.2'
p259
sg47
g3
sg48
S'1951-52'
p260
sg50
S'3.3'
p261
sg52
g3
sg53
S'.359'
p262
sg55
S'1192'
p263
sg56
g3
sba(isrc.gp1.models.Per36Minutes
Per36Minutes
p264
(dp265
g8
g3
sg9
g3
sg10
S'.374'
p266
sg12
S'5.4'
p267
sg14
g3
sg15
g3
sg16
S'9.6'
p268
sg18
S'PG'
p269
sg20
S'.648'
p270
sg24
S'NBA'
p271
sg26
g3
sg27
S'8.9'
p272
sg29
S'4.5'
p273
sg31
S'4.5'
p274
sg33
S'4.4'
p275
sg34
S'28'
p276
sg36
S'PHW'
p277
sg38
S'55'
p278
sg40
g3
sg41
S'3.3'
p279
sg43
S'2.9'
p280
sg45
S'8.9'
p281
sg47
g3
sg48
S'1952-53'
p282
sg50
S'3.3'
p283
sg52
g3
sg53
S'.374'
p284
sg55
S'1286'
p285
sg56
g3
sbasS'_fromYear'
p286
S'1950'
p287
sS'_url'
p288
S'http://www.basketball-reference.com/players/b/bobbne01.html'
p289
sS'_perGame'
p290
(isrc.gp1.models.PerGame
PerGame
p291
(dp292
g8
g3
sg9
g3
sg10
S'.374'
p293
sS'_effectiveFieldGalPercentage'
p294
S'.374'
p295
sg12
S'3.5'
p296
sg14
g3
sg15
g3
sg16
S'6.2'
p297
sg18
S'PG'
p298
sg20
S'.648'
p299
sg24
S'NBA'
p300
sg26
g3
sg29
S'2.9'
p301
sS'_fieldGoalsttempted'
p302
S'5.8'
p303
sg31
S'2.9'
p304
sg33
S'2.9'
p305
sg34
S'28'
p306
sg36
S'PHW'
p307
sg38
S'55'
p308
sg40
g3
sg41
S'2.2'
p309
sg43
S'1.9'
p310
sg45
S'5.8'
p311
sg47
g3
sg48
S'1952-53'
p312
sg50
S'2.2'
p313
sg52
g3
sg53
S'.374'
p314
sg55
S'23.4'
p315
sg56
g3
sbsS'_weight'
p316
S'170'
p317
sS'_dob'
p318
S'25-2-1924'
p319
sS'_salary'
p320
(lp321
sg18
S'G'
p322
sb.