(isrc.gp1.models.Player
Player
p0
(dp1
S'_experience'
p2
S'NA'
p3
sS'_totals'
p4
(lp5
(isrc.gp1.models.Totals
Totals
p6
(dp7
S'_offensiveRebounds'
p8
S'3'
p9
sS'_threePointsAttempted'
p10
S'0'
p11
sS'_fieldGoalsPercentage'
p12
S'.250'
p13
sS'_assist'
p14
S'1'
p15
sS'_threePointsPercentage'
p16
g3
sS'_threePoints'
p17
g11
sS'_points'
p18
S'8'
p19
sS'_position'
p20
S'C'
p21
sS'_freeThrowsPercentage'
p22
S'1.000'
p23
sS'_effectiveFieldGoalPercentage'
p24
S'.250'
p25
sS'_league'
p26
S'NBA'
p27
sS'_steals'
p28
g11
sS'_fieldGoalsAttempted'
p29
S'12'
p30
sS'_personalFouls'
p31
S'5'
p32
sS'_freeThrowsAttempted'
p33
S'2'
p34
sS'_totalRebounds'
p35
g19
sS'_age'
p36
S'22'
p37
sS'_team'
p38
S'MIN'
p39
sS'_games'
p40
g34
sS'_blocks'
p41
g11
sS'_twoPoints'
p42
g9
sS'_freeThrows'
p43
g34
sS'_twoPointsAttempted'
p44
S'12'
p45
sS'_defensiveRebounds'
p46
g32
sS'_season'
p47
S'1998-99'
p48
sS'_fieldGoals'
p49
g9
sS'_turnOvers'
p50
g15
sS'_twoPointsPercentage'
p51
S'.250'
p52
sS'_minutesPlayed'
p53
S'30'
p54
sS'_gamesStarted'
p55
g11
sba(isrc.gp1.models.Totals
Totals
p56
(dp57
g8
S'135'
p58
sg10
g34
sg12
S'.476'
p59
sg14
S'93'
p60
sg16
S'.000'
p61
sg17
g11
sg18
S'471'
p62
sg20
g21
sg22
S'.573'
p63
sg24
S'.476'
p64
sg26
S'NBA'
p65
sg28
S'21'
p66
sg29
S'433'
p67
sg31
S'262'
p68
sg33
S'103'
p69
sg35
S'379'
p70
sg36
S'23'
p71
sg38
S'MIN'
p72
sg40
S'82'
p73
sg41
S'85'
p74
sg42
S'206'
p75
sg43
S'59'
p76
sg44
S'431'
p77
sg46
S'244'
p78
sg47
S'1999-00'
p79
sg49
S'206'
p80
sg50
S'71'
p81
sg51
S'.478'
p82
sg53
S'1723'
p83
sg55
S'55'
p84
sba(isrc.gp1.models.Totals
Totals
p85
(dp86
g8
S'99'
p87
sg10
g15
sg12
S'.461'
p88
sg14
S'45'
p89
sg16
S'.000'
p90
sg17
g11
sg18
S'328'
p91
sg20
g21
sg22
S'.523'
p92
sg24
S'.461'
p93
sg26
S'NBA'
p94
sg28
S'25'
p95
sg29
S'319'
p96
sg31
S'189'
p97
sg33
S'65'
p98
sg35
S'286'
p99
sg36
S'24'
p100
sg38
S'MIN'
p101
sg40
S'73'
p102
sg41
S'63'
p103
sg42
S'147'
p104
sg43
S'34'
p105
sg44
S'318'
p106
sg46
S'187'
p107
sg47
S'2000-01'
p108
sg49
S'147'
p109
sg50
S'55'
p110
sg51
S'.462'
p111
sg53
S'1233'
p112
sg55
S'39'
p113
sba(isrc.gp1.models.Totals
Totals
p114
(dp115
g8
S'200'
p116
sg10
g15
sg12
S'.493'
p117
sg14
S'75'
p118
sg16
S'.000'
p119
sg17
g11
sg18
S'687'
p120
sg20
g21
sg22
S'.549'
p121
sg24
S'.493'
p122
sg26
S'NBA'
p123
sg28
S'45'
p124
sg29
S'657'
p125
sg31
S'262'
p126
sg33
S'71'
p127
sg35
S'534'
p128
sg36
S'25'
p129
sg38
S'MIN'
p130
sg40
S'82'
p131
sg41
S'109'
p132
sg42
S'324'
p133
sg43
S'39'
p134
sg44
S'656'
p135
sg46
S'334'
p136
sg47
S'2001-02'
p137
sg49
S'324'
p138
sg50
S'94'
p139
sg51
S'.494'
p140
sg53
S'2218'
p141
sg55
S'82'
p142
sba(isrc.gp1.models.Totals
Totals
p143
(dp144
g8
S'146'
p145
sg10
g34
sg12
S'.525'
p146
sg14
S'114'
p147
sg16
S'.000'
p148
sg17
g11
sg18
S'861'
p149
sg20
g21
sg22
S'.642'
p150
sg24
S'.525'
p151
sg26
S'NBA'
p152
sg28
S'39'
p153
sg29
S'762'
p154
sg31
S'256'
p155
sg33
S'95'
p156
sg35
S'504'
p157
sg36
S'26'
p158
sg38
S'MIN'
p159
sg40
S'77'
p160
sg41
S'116'
p161
sg42
S'400'
p162
sg43
S'61'
p163
sg44
S'760'
p164
sg46
S'358'
p165
sg47
S'2002-03'
p166
sg49
S'400'
p167
sg50
S'99'
p168
sg51
S'.526'
p169
sg53
S'2337'
p170
sg55
S'77'
p171
sba(isrc.gp1.models.Totals
Totals
p172
(dp173
g8
S'257'
p174
sg10
g11
sg12
S'.469'
p175
sg14
S'114'
p176
sg16
g3
sg17
g11
sg18
S'710'
p177
sg20
g21
sg22
S'.474'
p178
sg24
S'.469'
p179
sg26
S'NBA'
p180
sg28
S'51'
p181
sg29
S'700'
p182
sg31
S'247'
p183
sg33
S'114'
p184
sg35
S'633'
p185
sg36
S'27'
p186
sg38
S'SAS'
p187
sg40
S'82'
p188
sg41
S'165'
p189
sg42
S'328'
p190
sg43
S'54'
p191
sg44
S'700'
p192
sg46
S'376'
p193
sg47
S'2003-04'
p194
sg49
S'328'
p195
sg50
S'107'
p196
sg51
S'.469'
p197
sg53
S'2353'
p198
sg55
S'82'
p199
sba(isrc.gp1.models.Totals
Totals
p200
(dp201
g8
S'184'
p202
sg10
g11
sg12
S'.460'
p203
sg14
S'71'
p204
sg16
g3
sg17
g11
sg18
S'410'
p205
sg20
g21
sg22
S'.467'
p206
sg24
S'.460'
p207
sg26
S'NBA'
p208
sg28
S'31'
p209
sg29
S'430'
p210
sg31
S'207'
p211
sg33
S'30'
p212
sg35
S'459'
p213
sg36
S'28'
p214
sg38
S'SAS'
p215
sg40
S'70'
p216
sg41
S'117'
p217
sg42
S'198'
p218
sg43
S'14'
p219
sg44
S'430'
p220
sg46
S'275'
p221
sg47
S'2004-05'
p222
sg49
S'198'
p223
sg50
S'73'
p224
sg51
S'.460'
p225
sg53
S'1785'
p226
sg55
S'70'
p227
sba(isrc.gp1.models.Totals
Totals
p228
(dp229
g8
S'114'
p230
sg10
g34
sg12
S'.515'
p231
sg14
S'33'
p232
sg16
S'.000'
p233
sg17
g11
sg18
S'362'
p234
sg20
g21
sg22
S'.600'
p235
sg24
S'.515'
p236
sg26
S'NBA'
p237
sg28
S'21'
p238
sg29
S'334'
p239
sg31
S'209'
p240
sg33
S'30'
p241
sg35
S'309'
p242
sg36
S'29'
p243
sg38
S'SAS'
p244
sg40
S'80'
p245
sg41
S'88'
p246
sg42
S'172'
p247
sg43
S'18'
p248
sg44
S'332'
p249
sg46
S'195'
p250
sg47
S'2005-06'
p251
sg49
S'172'
p252
sg50
S'53'
p253
sg51
S'.518'
p254
sg53
S'1515'
p255
sg55
S'51'
p256
sba(isrc.gp1.models.Totals
Totals
p257
(dp258
g8
S'115'
p259
sg10
g15
sg12
S'.546'
p260
sg14
S'74'
p261
sg16
S'.000'
p262
sg17
g11
sg18
S'494'
p263
sg20
g21
sg22
S'.680'
p264
sg24
S'.546'
p265
sg26
S'NBA'
p266
sg28
S'37'
p267
sg29
S'421'
p268
sg31
S'193'
p269
sg33
S'50'
p270
sg35
S'360'
p271
sg36
S'30'
p272
sg38
S'TOR'
p273
sg40
S'80'
p274
sg41
S'84'
p275
sg42
S'230'
p276
sg43
S'34'
p277
sg44
S'420'
p278
sg46
S'245'
p279
sg47
S'2006-07'
p280
sg49
S'230'
p281
sg50
S'56'
p282
sg51
S'.548'
p283
sg53
S'1676'
p284
sg55
S'73'
p285
sba(isrc.gp1.models.Totals
Totals
p286
(dp287
g8
S'130'
p288
sg10
g9
sg12
S'.550'
p289
sg14
S'82'
p290
sg16
S'.333'
p291
sg17
g15
sg18
S'552'
p292
sg20
g21
sg22
S'.755'
p293
sg24
S'.551'
p294
sg26
S'NBA'
p295
sg28
S'20'
p296
sg29
S'467'
p297
sg31
S'132'
p298
sg33
S'49'
p299
sg35
S'342'
p300
sg36
S'31'
p301
sg38
S'TOR'
p302
sg40
S'71'
p303
sg41
S'52'
p304
sg42
S'256'
p305
sg43
S'37'
p306
sg44
S'464'
p307
sg46
S'212'
p308
sg47
S'2007-08'
p309
sg49
S'257'
p310
sg50
S'60'
p311
sg51
S'.552'
p312
sg53
S'1486'
p313
sg55
S'39'
p314
sba(isrc.gp1.models.Totals
Totals
p315
(dp316
g8
S'93'
p317
sg10
g15
sg12
S'.513'
p318
sg14
S'109'
p319
sg16
S'.000'
p320
sg17
g11
sg18
S'473'
p321
sg20
g21
sg22
S'.781'
p322
sg24
S'.513'
p323
sg26
S'NBA'
p324
sg28
S'30'
p325
sg29
S'437'
p326
sg31
S'171'
p327
sg33
S'32'
p328
sg35
S'240'
p329
sg36
S'32'
p330
sg38
S'IND'
p331
sg40
S'70'
p332
sg41
S'38'
p333
sg42
S'224'
p334
sg43
S'25'
p335
sg44
S'436'
p336
sg46
S'147'
p337
sg47
S'2008-09'
p338
sg49
S'224'
p339
sg50
S'63'
p340
sg51
S'.514'
p341
sg53
S'1214'
p342
sg55
S'19'
p343
sba(isrc.gp1.models.Totals
Totals
p344
(dp345
g8
S'37'
p346
sg10
g11
sg12
S'.544'
p347
sg14
S'25'
p348
sg16
g3
sg17
g11
sg18
S'163'
p349
sg20
g21
sg22
S'.200'
p350
sg24
S'.544'
p351
sg26
S'NBA'
p352
sg28
S'10'
p353
sg29
S'149'
p354
sg31
S'54'
p355
sg33
g32
sg35
S'89'
p356
sg36
S'33'
p357
sg38
S'TOR'
p358
sg40
S'42'
p359
sg41
S'17'
p360
sg42
S'81'
p361
sg43
g15
sg44
S'149'
p362
sg46
S'52'
p363
sg47
S'2009-10'
p364
sg49
S'81'
p365
sg50
S'16'
p366
sg51
S'.544'
p367
sg53
S'413'
p368
sg55
g19
sbasS'_college'
p369
S'NA'
p370
sS'_toYear'
p371
S'2010'
p372
sS'_height'
p373
S'7-0'
p374
sS'_active'
p375
I00
sS'_shootingHand'
p376
VRight
p377
sS'_name'
p378
S'Rasho Nesterovic'
p379
sS'_per100Possessions'
p380
(lp381
(isrc.gp1.models.Per100Possession
Per100Possession
p382
(dp383
g8
S'5.3'
p384
sg10
S'0.0'
p385
sg12
S'.250'
p386
sS'_offensiveRating'
p387
S'80'
p388
sg14
S'1.8'
p389
sg16
g3
sg17
S'0.0'
p390
sg18
S'14.1'
p391
sg20
g21
sS'_defensiveRating'
p392
S'104'
p393
sg22
S'1.000'
p394
sg26
S'NBA'
p395
sg28
S'0.0'
p396
sg29
S'21.1'
p397
sg31
S'8.8'
p398
sg33
S'3.5'
p399
sg35
S'14.1'
p400
sg36
S'22'
p401
sg38
S'MIN'
p402
sg40
g34
sg41
S'0.0'
p403
sg42
S'5.3'
p404
sg43
S'3.5'
p405
sg44
S'21.1'
p406
sg46
S'8.8'
p407
sg47
S'1998-99'
p408
sg49
S'5.3'
p409
sg50
S'1.8'
p410
sg51
S'.250'
p411
sg53
S'30'
p412
sg55
g11
sba(isrc.gp1.models.Per100Possession
Per100Possession
p413
(dp414
g8
S'4.1'
p415
sg10
S'0.1'
p416
sg12
S'.476'
p417
sg387
S'102'
p418
sg14
S'2.8'
p419
sg16
S'.000'
p420
sg17
S'0.0'
p421
sg18
S'14.3'
p422
sg20
g21
sg392
S'103'
p423
sg22
S'.573'
p424
sg26
S'NBA'
p425
sg28
S'0.6'
p426
sg29
S'13.1'
p427
sg31
S'8.0'
p428
sg33
S'3.1'
p429
sg35
S'11.5'
p430
sg36
S'23'
p431
sg38
S'MIN'
p432
sg40
S'82'
p433
sg41
S'2.6'
p434
sg42
S'6.3'
p435
sg43
S'1.8'
p436
sg44
S'13.1'
p437
sg46
S'7.4'
p438
sg47
S'1999-00'
p439
sg49
S'6.3'
p440
sg50
S'2.2'
p441
sg51
S'.478'
p442
sg53
S'1723'
p443
sg55
S'55'
p444
sba(isrc.gp1.models.Per100Possession
Per100Possession
p445
(dp446
g8
S'4.2'
p447
sg10
S'0.0'
p448
sg12
S'.461'
p449
sg387
S'97'
p450
sg14
S'1.9'
p451
sg16
S'.000'
p452
sg17
S'0.0'
p453
sg18
S'13.9'
p454
sg20
g21
sg392
S'103'
p455
sg22
S'.523'
p456
sg26
S'NBA'
p457
sg28
S'1.1'
p458
sg29
S'13.5'
p459
sg31
S'8.0'
p460
sg33
S'2.8'
p461
sg35
S'12.1'
p462
sg36
S'24'
p463
sg38
S'MIN'
p464
sg40
S'73'
p465
sg41
S'2.7'
p466
sg42
S'6.2'
p467
sg43
S'1.4'
p468
sg44
S'13.5'
p469
sg46
S'7.9'
p470
sg47
S'2000-01'
p471
sg49
S'6.2'
p472
sg50
S'2.3'
p473
sg51
S'.462'
p474
sg53
S'1233'
p475
sg55
S'39'
p476
sba(isrc.gp1.models.Per100Possession
Per100Possession
p477
(dp478
g8
S'4.8'
p479
sg10
S'0.0'
p480
sg12
S'.493'
p481
sg387
S'104'
p482
sg14
S'1.8'
p483
sg16
S'.000'
p484
sg17
S'0.0'
p485
sg18
S'16.4'
p486
sg20
g21
sg392
S'104'
p487
sg22
S'.549'
p488
sg26
S'NBA'
p489
sg28
S'1.1'
p490
sg29
S'15.7'
p491
sg31
S'6.3'
p492
sg33
S'1.7'
p493
sg35
S'12.8'
p494
sg36
S'25'
p495
sg38
S'MIN'
p496
sg40
S'82'
p497
sg41
S'2.6'
p498
sg42
S'7.7'
p499
sg43
S'0.9'
p500
sg44
S'15.7'
p501
sg46
S'8.0'
p502
sg47
S'2001-02'
p503
sg49
S'7.7'
p504
sg50
S'2.2'
p505
sg51
S'.494'
p506
sg53
S'2218'
p507
sg55
S'82'
p508
sba(isrc.gp1.models.Per100Possession
Per100Possession
p509
(dp510
g8
S'3.3'
p511
sg10
S'0.0'
p512
sg12
S'.525'
p513
sg387
S'106'
p514
sg14
S'2.5'
p515
sg16
S'.000'
p516
sg17
S'0.0'
p517
sg18
S'19.2'
p518
sg20
g21
sg392
S'103'
p519
sg22
S'.642'
p520
sg26
S'NBA'
p521
sg28
S'0.9'
p522
sg29
S'17.0'
p523
sg31
S'5.7'
p524
sg33
S'2.1'
p525
sg35
S'11.3'
p526
sg36
S'26'
p527
sg38
S'MIN'
p528
sg40
S'77'
p529
sg41
S'2.6'
p530
sg42
S'8.9'
p531
sg43
S'1.4'
p532
sg44
S'17.0'
p533
sg46
S'8.0'
p534
sg47
S'2002-03'
p535
sg49
S'8.9'
p536
sg50
S'2.2'
p537
sg51
S'.526'
p538
sg53
S'2337'
p539
sg55
S'77'
p540
sba(isrc.gp1.models.Per100Possession
Per100Possession
p541
(dp542
g8
S'5.9'
p543
sg10
S'0.0'
p544
sg12
S'.469'
p545
sg387
S'101'
p546
sg14
S'2.6'
p547
sg16
g3
sg17
S'0.0'
p548
sg18
S'16.2'
p549
sg20
g21
sg392
S'92'
p550
sg22
S'.474'
p551
sg26
S'NBA'
p552
sg28
S'1.2'
p553
sg29
S'16.0'
p554
sg31
S'5.6'
p555
sg33
S'2.6'
p556
sg35
S'14.5'
p557
sg36
S'27'
p558
sg38
S'SAS'
p559
sg40
S'82'
p560
sg41
S'3.8'
p561
sg42
S'7.5'
p562
sg43
S'1.2'
p563
sg44
S'16.0'
p564
sg46
S'8.6'
p565
sg47
S'2003-04'
p566
sg49
S'7.5'
p567
sg50
S'2.4'
p568
sg51
S'.469'
p569
sg53
S'2353'
p570
sg55
S'82'
p571
sba(isrc.gp1.models.Per100Possession
Per100Possession
p572
(dp573
g8
S'5.6'
p574
sg10
S'0.0'
p575
sg12
S'.460'
p576
sg387
S'101'
p577
sg14
S'2.1'
p578
sg16
g3
sg17
S'0.0'
p579
sg18
S'12.4'
p580
sg20
g21
sg392
S'97'
p581
sg22
S'.467'
p582
sg26
S'NBA'
p583
sg28
S'0.9'
p584
sg29
S'13.0'
p585
sg31
S'6.3'
p586
sg33
S'0.9'
p587
sg35
S'13.9'
p588
sg36
S'28'
p589
sg38
S'SAS'
p590
sg40
S'70'
p591
sg41
S'3.5'
p592
sg42
S'6.0'
p593
sg43
S'0.4'
p594
sg44
S'13.0'
p595
sg46
S'8.3'
p596
sg47
S'2004-05'
p597
sg49
S'6.0'
p598
sg50
S'2.2'
p599
sg51
S'.460'
p600
sg53
S'1785'
p601
sg55
S'70'
p602
sba(isrc.gp1.models.Per100Possession
Per100Possession
p603
(dp604
g8
S'4.1'
p605
sg10
S'0.1'
p606
sg12
S'.515'
p607
sg387
S'105'
p608
sg14
S'1.2'
p609
sg16
S'.000'
p610
sg17
S'0.0'
p611
sg18
S'13.0'
p612
sg20
g21
sg392
S'99'
p613
sg22
S'.600'
p614
sg26
S'NBA'
p615
sg28
S'0.8'
p616
sg29
S'12.0'
p617
sg31
S'7.5'
p618
sg33
S'1.1'
p619
sg35
S'11.1'
p620
sg36
S'29'
p621
sg38
S'SAS'
p622
sg40
S'80'
p623
sg41
S'3.2'
p624
sg42
S'6.2'
p625
sg43
S'0.6'
p626
sg44
S'11.9'
p627
sg46
S'7.0'
p628
sg47
S'2005-06'
p629
sg49
S'6.2'
p630
sg50
S'1.9'
p631
sg51
S'.518'
p632
sg53
S'1515'
p633
sg55
S'51'
p634
sba(isrc.gp1.models.Per100Possession
Per100Possession
p635
(dp636
g8
S'3.6'
p637
sg10
S'0.0'
p638
sg12
S'.546'
p639
sg387
S'112'
p640
sg14
S'2.3'
p641
sg16
S'.000'
p642
sg17
S'0.0'
p643
sg18
S'15.3'
p644
sg20
g21
sg392
S'104'
p645
sg22
S'.680'
p646
sg26
S'NBA'
p647
sg28
S'1.1'
p648
sg29
S'13.0'
p649
sg31
S'6.0'
p650
sg33
S'1.5'
p651
sg35
S'11.1'
p652
sg36
S'30'
p653
sg38
S'TOR'
p654
sg40
S'80'
p655
sg41
S'2.6'
p656
sg42
S'7.1'
p657
sg43
S'1.1'
p658
sg44
S'13.0'
p659
sg46
S'7.6'
p660
sg47
S'2006-07'
p661
sg49
S'7.1'
p662
sg50
S'1.7'
p663
sg51
S'.548'
p664
sg53
S'1676'
p665
sg55
S'73'
p666
sba(isrc.gp1.models.Per100Possession
Per100Possession
p667
(dp668
g8
S'4.7'
p669
sg10
S'0.1'
p670
sg12
S'.550'
p671
sg387
S'114'
p672
sg14
S'2.9'
p673
sg16
S'.333'
p674
sg17
S'0.0'
p675
sg18
S'19.8'
p676
sg20
g21
sg392
S'107'
p677
sg22
S'.755'
p678
sg26
S'NBA'
p679
sg28
S'0.7'
p680
sg29
S'16.7'
p681
sg31
S'4.7'
p682
sg33
S'1.8'
p683
sg35
S'12.2'
p684
sg36
S'31'
p685
sg38
S'TOR'
p686
sg40
S'71'
p687
sg41
S'1.9'
p688
sg42
S'9.2'
p689
sg43
S'1.3'
p690
sg44
S'16.6'
p691
sg46
S'7.6'
p692
sg47
S'2007-08'
p693
sg49
S'9.2'
p694
sg50
S'2.1'
p695
sg51
S'.552'
p696
sg53
S'1486'
p697
sg55
S'39'
p698
sba(isrc.gp1.models.Per100Possession
Per100Possession
p699
(dp700
g8
S'3.8'
p701
sg10
S'0.0'
p702
sg12
S'.513'
p703
sg387
S'108'
p704
sg14
S'4.5'
p705
sg16
S'.000'
p706
sg17
S'0.0'
p707
sg18
S'19.4'
p708
sg20
g21
sg392
S'109'
p709
sg22
S'.781'
p710
sg26
S'NBA'
p711
sg28
S'1.2'
p712
sg29
S'17.9'
p713
sg31
S'7.0'
p714
sg33
S'1.3'
p715
sg35
S'9.8'
p716
sg36
S'32'
p717
sg38
S'IND'
p718
sg40
S'70'
p719
sg41
S'1.6'
p720
sg42
S'9.2'
p721
sg43
S'1.0'
p722
sg44
S'17.9'
p723
sg46
S'6.0'
p724
sg47
S'2008-09'
p725
sg49
S'9.2'
p726
sg50
S'2.6'
p727
sg51
S'.514'
p728
sg53
S'1214'
p729
sg55
S'19'
p730
sba(isrc.gp1.models.Per100Possession
Per100Possession
p731
(dp732
g8
S'4.6'
p733
sg10
S'0.0'
p734
sg12
S'.544'
p735
sg387
S'111'
p736
sg14
S'3.1'
p737
sg16
g3
sg17
S'0.0'
p738
sg18
S'20.4'
p739
sg20
g21
sg392
S'112'
p740
sg22
S'.200'
p741
sg26
S'NBA'
p742
sg28
S'1.2'
p743
sg29
S'18.6'
p744
sg31
S'6.7'
p745
sg33
S'0.6'
p746
sg35
S'11.1'
p747
sg36
S'33'
p748
sg38
S'TOR'
p749
sg40
S'42'
p750
sg41
S'2.1'
p751
sg42
S'10.1'
p752
sg43
S'0.1'
p753
sg44
S'18.6'
p754
sg46
S'6.5'
p755
sg47
S'2009-10'
p756
sg49
S'10.1'
p757
sg50
S'2.0'
p758
sg51
S'.544'
p759
sg53
S'413'
p760
sg55
g19
sbasS'_advanced'
p761
(lp762
(isrc.gp1.models.Advanced
Advanced
p763
(dp764
S'_offensiveReboundPercentage'
p765
S'10.4'
p766
sS'_turnOverPercentage'
p767
S'7.2'
p768
sS'_winSharesPer48Minutes'
p769
S'-0.049'
p770
sS'_stealPercentage'
p771
S'0.0'
p772
sS'_usagePercentage'
p773
S'20.3'
p774
sS'_totalReboundsPercentage'
p775
S'14.9'
p776
sS'_defensiveBoxPlusMinus'
p777
S'-3.9'
p778
sg20
g21
sS'_valueOverReplacementPlayer'
p779
S'-0.1'
p780
sS'_trueShootingPercentage'
p781
S'.311'
p782
sS'_defensiveReboundPercentage'
p783
S'20.2'
p784
sS'_freeThrowsAttempRate'
p785
S'.167'
p786
sS'_threePointsAttempRate'
p787
S'.000'
p788
sg26
S'NBA'
p789
sS'_offensiveBoxPlusMinues'
p790
S'-7.9'
p791
sS'_assistPercentage'
p792
S'5.0'
p793
sS'_defensiveWinShares'
p794
S'0.0'
p795
sg36
S'22'
p796
sg38
S'MIN'
p797
sg40
g34
sS'_blockPercentage'
p798
S'0.0'
p799
sS'_playerEfficiencyRating'
p800
S'3.5'
p801
sS'_offensiveWinShares'
p802
S'-0.1'
p803
sg53
S'30'
p804
sS'_boxPlusMinus'
p805
S'-11.8'
p806
sg47
S'1998-99'
p807
sS'_winShares'
p808
S'0.0'
p809
sba(isrc.gp1.models.Advanced
Advanced
p810
(dp811
g765
S'9.0'
p812
sg767
S'12.9'
p813
sg769
S'.082'
p814
sg771
S'0.6'
p815
sg773
S'14.4'
p816
sg775
S'12.8'
p817
sg777
S'1.2'
p818
sg20
g21
sg779
S'0.4'
p819
sg781
S'.492'
p820
sg783
S'16.6'
p821
sg785
S'.238'
p822
sg787
S'.005'
p823
sg26
S'NBA'
p824
sg790
S'-2.3'
p825
sg792
S'7.8'
p826
sg794
S'1.9'
p827
sg36
S'23'
p828
sg38
S'MIN'
p829
sg40
S'82'
p830
sg798
S'3.6'
p831
sg800
S'11.0'
p832
sg802
S'1.0'
p833
sg53
S'1723'
p834
sg805
S'-1.1'
p835
sg47
S'1999-00'
p836
sg808
S'3.0'
p837
sba(isrc.gp1.models.Advanced
Advanced
p838
(dp839
g765
S'9.1'
p840
sg767
S'13.7'
p841
sg769
S'.060'
p842
sg771
S'1.1'
p843
sg773
S'14.8'
p844
sg775
S'13.2'
p845
sg777
S'0.7'
p846
sg20
g21
sg779
S'-0.2'
p847
sg781
S'.472'
p848
sg783
S'17.5'
p849
sg785
S'.204'
p850
sg787
S'.003'
p851
sg26
S'NBA'
p852
sg790
S'-3.4'
p853
sg792
S'5.4'
p854
sg794
S'1.3'
p855
sg36
S'24'
p856
sg38
S'MIN'
p857
sg40
S'73'
p858
sg798
S'3.6'
p859
sg800
S'10.4'
p860
sg802
S'0.2'
p861
sg53
S'1233'
p862
sg805
S'-2.7'
p863
sg47
S'2000-01'
p864
sg808
S'1.5'
p865
sba(isrc.gp1.models.Advanced
Advanced
p866
(dp867
g765
S'10.6'
p868
sg767
S'12.0'
p869
sg769
S'.089'
p870
sg771
S'1.1'
p871
sg773
S'16.0'
p872
sg775
S'13.9'
p873
sg777
S'1.3'
p874
sg20
g21
sg779
S'1.1'
p875
sg781
S'.499'
p876
sg783
S'17.2'
p877
sg785
S'.108'
p878
sg787
S'.002'
p879
sg26
S'NBA'
p880
sg790
S'-1.5'
p881
sg792
S'5.2'
p882
sg794
S'2.5'
p883
sg36
S'25'
p884
sg38
S'MIN'
p885
sg40
S'82'
p886
sg798
S'3.7'
p887
sg800
S'12.9'
p888
sg802
S'1.6'
p889
sg53
S'2218'
p890
sg805
S'-0.1'
p891
sg47
S'2001-02'
p892
sg808
S'4.1'
p893
sba(isrc.gp1.models.Advanced
Advanced
p894
(dp895
g765
S'7.3'
p896
sg767
S'11.0'
p897
sg769
S'.107'
p898
sg771
S'0.9'
p899
sg773
S'17.5'
p900
sg775
S'12.2'
p901
sg777
S'1.3'
p902
sg20
g21
sg779
S'1.6'
p903
sg781
S'.536'
p904
sg783
S'16.9'
p905
sg785
S'.125'
p906
sg787
S'.003'
p907
sg26
S'NBA'
p908
sg790
S'-0.6'
p909
sg792
S'7.7'
p910
sg794
S'2.6'
p911
sg36
S'26'
p912
sg38
S'MIN'
p913
sg40
S'77'
p914
sg798
S'3.6'
p915
sg800
S'14.7'
p916
sg802
S'2.6'
p917
sg53
S'2337'
p918
sg805
S'0.6'
p919
sg47
S'2002-03'
p920
sg808
S'5.2'
p921
sba(isrc.gp1.models.Advanced
Advanced
p922
(dp923
g765
S'12.4'
p924
sg767
S'12.5'
p925
sg769
S'.147'
p926
sg771
S'1.2'
p927
sg773
S'16.8'
p928
sg775
S'15.0'
p929
sg777
S'4.5'
p930
sg20
g21
sg779
S'2.9'
p931
sg781
S'.473'
p932
sg783
S'17.6'
p933
sg785
S'.163'
p934
sg787
S'.000'
p935
sg26
S'NBA'
p936
sg790
S'-1.6'
p937
sg792
S'8.4'
p938
sg794
S'5.6'
p939
sg36
S'27'
p940
sg38
S'SAS'
p941
sg40
S'82'
p942
sg798
S'5.1'
p943
sg800
S'15.3'
p944
sg802
S'1.6'
p945
sg53
S'2353'
p946
sg805
S'2.9'
p947
sg47
S'2003-04'
p948
sg808
S'7.2'
p949
sba(isrc.gp1.models.Advanced
Advanced
p950
(dp951
g765
S'12.0'
p952
sg767
S'14.1'
p953
sg769
S'.114'
p954
sg771
S'0.9'
p955
sg773
S'13.5'
p956
sg775
S'15.0'
p957
sg777
S'4.1'
p958
sg20
g21
sg779
S'1.5'
p959
sg781
S'.463'
p960
sg783
S'18.0'
p961
sg785
S'.070'
p962
sg787
S'.000'
p963
sg26
S'NBA'
p964
sg790
S'-2.7'
p965
sg792
S'6.3'
p966
sg794
S'3.8'
p967
sg36
S'28'
p968
sg38
S'SAS'
p969
sg40
S'70'
p970
sg798
S'4.7'
p971
sg800
S'12.0'
p972
sg802
S'0.5'
p973
sg53
S'1785'
p974
sg805
S'1.4'
p975
sg47
S'2004-05'
p976
sg808
S'4.2'
p977
sba(isrc.gp1.models.Advanced
Advanced
p978
(dp979
g765
S'9.1'
p980
sg767
S'13.2'
p981
sg769
S'.118'
p982
sg771
S'0.8'
p983
sg773
S'12.6'
p984
sg775
S'12.1'
p985
sg777
S'2.8'
p986
sg20
g21
sg779
S'0.7'
p987
sg781
S'.521'
p988
sg783
S'14.8'
p989
sg785
S'.090'
p990
sg787
S'.006'
p991
sg26
S'NBA'
p992
sg790
S'-2.9'
p993
sg792
S'3.4'
p994
sg794
S'2.9'
p995
sg36
S'29'
p996
sg38
S'SAS'
p997
sg40
S'80'
p998
sg798
S'4.2'
p999
sg800
S'11.0'
p1000
sg802
S'0.9'
p1001
sg53
S'1515'
p1002
sg805
S'-0.1'
p1003
sg47
S'2005-06'
p1004
sg808
S'3.7'
p1005
sba(isrc.gp1.models.Advanced
Advanced
p1006
(dp1007
g765
S'8.0'
p1008
sg767
S'11.2'
p1009
sg769
S'.118'
p1010
sg771
S'1.1'
p1011
sg773
S'13.8'
p1012
sg775
S'12.6'
p1013
sg777
S'2.6'
p1014
sg20
g21
sg779
S'1.4'
p1015
sg781
S'.558'
p1016
sg783
S'17.4'
p1017
sg785
S'.119'
p1018
sg787
S'.002'
p1019
sg26
S'NBA'
p1020
sg790
S'-1.4'
p1021
sg792
S'7.0'
p1022
sg794
S'2.2'
p1023
sg36
S'30'
p1024
sg38
S'TOR'
p1025
sg40
S'80'
p1026
sg798
S'3.9'
p1027
sg800
S'13.9'
p1028
sg802
S'1.9'
p1029
sg53
S'1676'
p1030
sg805
S'1.2'
p1031
sg47
S'2006-07'
p1032
sg808
S'4.1'
p1033
sba(isrc.gp1.models.Advanced
Advanced
p1034
(dp1035
g765
S'10.3'
p1036
sg767
S'10.9'
p1037
sg769
S'.125'
p1038
sg771
S'0.7'
p1039
sg773
S'17.4'
p1040
sg775
S'13.6'
p1041
sg777
S'1.1'
p1042
sg20
g21
sg779
S'1.2'
p1043
sg781
S'.565'
p1044
sg783
S'17.0'
p1045
sg785
S'.105'
p1046
sg787
S'.006'
p1047
sg26
S'NBA'
p1048
sg790
S'-0.1'
p1049
sg792
S'8.9'
p1050
sg794
S'1.6'
p1051
sg36
S'31'
p1052
sg38
S'TOR'
p1053
sg40
S'71'
p1054
sg798
S'2.8'
p1055
sg800
S'16.1'
p1056
sg802
S'2.3'
p1057
sg53
S'1486'
p1058
sg805
S'1.1'
p1059
sg47
S'2007-08'
p1060
sg808
S'3.9'
p1061
sba(isrc.gp1.models.Advanced
Advanced
p1062
(dp1063
g765
S'8.4'
p1064
sg767
S'12.3'
p1065
sg769
S'.086'
p1066
sg771
S'1.2'
p1067
sg773
S'18.5'
p1068
sg775
S'10.9'
p1069
sg777
S'0.4'
p1070
sg20
g21
sg779
S'0.4'
p1071
sg781
S'.524'
p1072
sg783
S'13.5'
p1073
sg785
S'.073'
p1074
sg787
S'.002'
p1075
sg26
S'NBA'
p1076
sg790
S'-1.1'
p1077
sg792
S'14.3'
p1078
sg794
S'1.1'
p1079
sg36
S'32'
p1080
sg38
S'IND'
p1081
sg40
S'70'
p1082
sg798
S'2.3'
p1083
sg800
S'14.1'
p1084
sg802
S'1.1'
p1085
sg53
S'1214'
p1086
sg805
S'-0.8'
p1087
sg47
S'2008-09'
p1088
sg808
S'2.2'
p1089
sba(isrc.gp1.models.Advanced
Advanced
p1090
(dp1091
g765
S'10.9'
p1092
sg767
S'9.6'
p1093
sg769
S'.089'
p1094
sg771
S'1.2'
p1095
sg773
S'18.5'
p1096
sg775
S'12.7'
p1097
sg777
S'-0.4'
p1098
sg20
g21
sg779
S'0.2'
p1099
sg781
S'.539'
p1100
sg783
S'14.5'
p1101
sg785
S'.034'
p1102
sg787
S'.000'
p1103
sg26
S'NBA'
p1104
sg790
S'0.0'
p1105
sg792
S'9.9'
p1106
sg794
S'0.2'
p1107
sg36
S'33'
p1108
sg38
S'TOR'
p1109
sg40
S'42'
p1110
sg798
S'3.2'
p1111
sg800
S'16.0'
p1112
sg802
S'0.6'
p1113
sg53
S'413'
p1114
sg805
S'-0.4'
p1115
sg47
S'2009-10'
p1116
sg808
S'0.8'
p1117
sbasS'_per36Minutes'
p1118
(lp1119
(isrc.gp1.models.Per36Minutes
Per36Minutes
p1120
(dp1121
g8
S'3.6'
p1122
sg10
S'0.0'
p1123
sg12
S'.250'
p1124
sg14
S'1.2'
p1125
sg16
g3
sg17
S'0.0'
p1126
sg18
S'9.6'
p1127
sg20
g21
sg22
S'1.000'
p1128
sg26
S'NBA'
p1129
sg28
S'0.0'
p1130
sg29
S'14.4'
p1131
sg31
S'6.0'
p1132
sg33
S'2.4'
p1133
sg35
S'9.6'
p1134
sg36
S'22'
p1135
sg38
S'MIN'
p1136
sg40
g34
sg41
S'0.0'
p1137
sg42
S'3.6'
p1138
sg43
S'2.4'
p1139
sg44
S'14.4'
p1140
sg46
S'6.0'
p1141
sg47
S'1998-99'
p1142
sg49
S'3.6'
p1143
sg50
S'1.2'
p1144
sg51
S'.250'
p1145
sg53
S'30'
p1146
sg55
g11
sba(isrc.gp1.models.Per36Minutes
Per36Minutes
p1147
(dp1148
g8
S'2.8'
p1149
sg10
S'0.0'
p1150
sg12
S'.476'
p1151
sg14
S'1.9'
p1152
sg16
S'.000'
p1153
sg17
S'0.0'
p1154
sg18
S'9.8'
p1155
sg20
g21
sg22
S'.573'
p1156
sg26
S'NBA'
p1157
sg28
S'0.4'
p1158
sg29
S'9.0'
p1159
sg31
S'5.5'
p1160
sg33
S'2.2'
p1161
sg35
S'7.9'
p1162
sg36
S'23'
p1163
sg38
S'MIN'
p1164
sg40
S'82'
p1165
sg41
S'1.8'
p1166
sg42
S'4.3'
p1167
sg43
S'1.2'
p1168
sg44
S'9.0'
p1169
sg46
S'5.1'
p1170
sg47
S'1999-00'
p1171
sg49
S'4.3'
p1172
sg50
S'1.5'
p1173
sg51
S'.478'
p1174
sg53
S'1723'
p1175
sg55
S'55'
p1176
sba(isrc.gp1.models.Per36Minutes
Per36Minutes
p1177
(dp1178
g8
S'2.9'
p1179
sg10
S'0.0'
p1180
sg12
S'.461'
p1181
sg14
S'1.3'
p1182
sg16
S'.000'
p1183
sg17
S'0.0'
p1184
sg18
S'9.6'
p1185
sg20
g21
sg22
S'.523'
p1186
sg26
S'NBA'
p1187
sg28
S'0.7'
p1188
sg29
S'9.3'
p1189
sg31
S'5.5'
p1190
sg33
S'1.9'
p1191
sg35
S'8.4'
p1192
sg36
S'24'
p1193
sg38
S'MIN'
p1194
sg40
S'73'
p1195
sg41
S'1.8'
p1196
sg42
S'4.3'
p1197
sg43
S'1.0'
p1198
sg44
S'9.3'
p1199
sg46
S'5.5'
p1200
sg47
S'2000-01'
p1201
sg49
S'4.3'
p1202
sg50
S'1.6'
p1203
sg51
S'.462'
p1204
sg53
S'1233'
p1205
sg55
S'39'
p1206
sba(isrc.gp1.models.Per36Minutes
Per36Minutes
p1207
(dp1208
g8
S'3.2'
p1209
sg10
S'0.0'
p1210
sg12
S'.493'
p1211
sg14
S'1.2'
p1212
sg16
S'.000'
p1213
sg17
S'0.0'
p1214
sg18
S'11.2'
p1215
sg20
g21
sg22
S'.549'
p1216
sg26
S'NBA'
p1217
sg28
S'0.7'
p1218
sg29
S'10.7'
p1219
sg31
S'4.3'
p1220
sg33
S'1.2'
p1221
sg35
S'8.7'
p1222
sg36
S'25'
p1223
sg38
S'MIN'
p1224
sg40
S'82'
p1225
sg41
S'1.8'
p1226
sg42
S'5.3'
p1227
sg43
S'0.6'
p1228
sg44
S'10.6'
p1229
sg46
S'5.4'
p1230
sg47
S'2001-02'
p1231
sg49
S'5.3'
p1232
sg50
S'1.5'
p1233
sg51
S'.494'
p1234
sg53
S'2218'
p1235
sg55
S'82'
p1236
sba(isrc.gp1.models.Per36Minutes
Per36Minutes
p1237
(dp1238
g8
S'2.2'
p1239
sg10
S'0.0'
p1240
sg12
S'.525'
p1241
sg14
S'1.8'
p1242
sg16
S'.000'
p1243
sg17
S'0.0'
p1244
sg18
S'13.3'
p1245
sg20
g21
sg22
S'.642'
p1246
sg26
S'NBA'
p1247
sg28
S'0.6'
p1248
sg29
S'11.7'
p1249
sg31
S'3.9'
p1250
sg33
S'1.5'
p1251
sg35
S'7.8'
p1252
sg36
S'26'
p1253
sg38
S'MIN'
p1254
sg40
S'77'
p1255
sg41
S'1.8'
p1256
sg42
S'6.2'
p1257
sg43
S'0.9'
p1258
sg44
S'11.7'
p1259
sg46
S'5.5'
p1260
sg47
S'2002-03'
p1261
sg49
S'6.2'
p1262
sg50
S'1.5'
p1263
sg51
S'.526'
p1264
sg53
S'2337'
p1265
sg55
S'77'
p1266
sba(isrc.gp1.models.Per36Minutes
Per36Minutes
p1267
(dp1268
g8
S'3.9'
p1269
sg10
S'0.0'
p1270
sg12
S'.469'
p1271
sg14
S'1.7'
p1272
sg16
g3
sg17
S'0.0'
p1273
sg18
S'10.9'
p1274
sg20
g21
sg22
S'.474'
p1275
sg26
S'NBA'
p1276
sg28
S'0.8'
p1277
sg29
S'10.7'
p1278
sg31
S'3.8'
p1279
sg33
S'1.7'
p1280
sg35
S'9.7'
p1281
sg36
S'27'
p1282
sg38
S'SAS'
p1283
sg40
S'82'
p1284
sg41
S'2.5'
p1285
sg42
S'5.0'
p1286
sg43
S'0.8'
p1287
sg44
S'10.7'
p1288
sg46
S'5.8'
p1289
sg47
S'2003-04'
p1290
sg49
S'5.0'
p1291
sg50
S'1.6'
p1292
sg51
S'.469'
p1293
sg53
S'2353'
p1294
sg55
S'82'
p1295
sba(isrc.gp1.models.Per36Minutes
Per36Minutes
p1296
(dp1297
g8
S'3.7'
p1298
sg10
S'0.0'
p1299
sg12
S'.460'
p1300
sg14
S'1.4'
p1301
sg16
g3
sg17
S'0.0'
p1302
sg18
S'8.3'
p1303
sg20
g21
sg22
S'.467'
p1304
sg26
S'NBA'
p1305
sg28
S'0.6'
p1306
sg29
S'8.7'
p1307
sg31
S'4.2'
p1308
sg33
S'0.6'
p1309
sg35
S'9.3'
p1310
sg36
S'28'
p1311
sg38
S'SAS'
p1312
sg40
S'70'
p1313
sg41
S'2.4'
p1314
sg42
S'4.0'
p1315
sg43
S'0.3'
p1316
sg44
S'8.7'
p1317
sg46
S'5.5'
p1318
sg47
S'2004-05'
p1319
sg49
S'4.0'
p1320
sg50
S'1.5'
p1321
sg51
S'.460'
p1322
sg53
S'1785'
p1323
sg55
S'70'
p1324
sba(isrc.gp1.models.Per36Minutes
Per36Minutes
p1325
(dp1326
g8
S'2.7'
p1327
sg10
S'0.0'
p1328
sg12
S'.515'
p1329
sg14
S'0.8'
p1330
sg16
S'.000'
p1331
sg17
S'0.0'
p1332
sg18
S'8.6'
p1333
sg20
g21
sg22
S'.600'
p1334
sg26
S'NBA'
p1335
sg28
S'0.5'
p1336
sg29
S'7.9'
p1337
sg31
S'5.0'
p1338
sg33
S'0.7'
p1339
sg35
S'7.3'
p1340
sg36
S'29'
p1341
sg38
S'SAS'
p1342
sg40
S'80'
p1343
sg41
S'2.1'
p1344
sg42
S'4.1'
p1345
sg43
S'0.4'
p1346
sg44
S'7.9'
p1347
sg46
S'4.6'
p1348
sg47
S'2005-06'
p1349
sg49
S'4.1'
p1350
sg50
S'1.3'
p1351
sg51
S'.518'
p1352
sg53
S'1515'
p1353
sg55
S'51'
p1354
sba(isrc.gp1.models.Per36Minutes
Per36Minutes
p1355
(dp1356
g8
S'2.5'
p1357
sg10
S'0.0'
p1358
sg12
S'.546'
p1359
sg14
S'1.6'
p1360
sg16
S'.000'
p1361
sg17
S'0.0'
p1362
sg18
S'10.6'
p1363
sg20
g21
sg22
S'.680'
p1364
sg26
S'NBA'
p1365
sg28
S'0.8'
p1366
sg29
S'9.0'
p1367
sg31
S'4.1'
p1368
sg33
S'1.1'
p1369
sg35
S'7.7'
p1370
sg36
S'30'
p1371
sg38
S'TOR'
p1372
sg40
S'80'
p1373
sg41
S'1.8'
p1374
sg42
S'4.9'
p1375
sg43
S'0.7'
p1376
sg44
S'9.0'
p1377
sg46
S'5.3'
p1378
sg47
S'2006-07'
p1379
sg49
S'4.9'
p1380
sg50
S'1.2'
p1381
sg51
S'.548'
p1382
sg53
S'1676'
p1383
sg55
S'73'
p1384
sba(isrc.gp1.models.Per36Minutes
Per36Minutes
p1385
(dp1386
g8
S'3.1'
p1387
sg10
S'0.1'
p1388
sg12
S'.550'
p1389
sg14
S'2.0'
p1390
sg16
S'.333'
p1391
sg17
S'0.0'
p1392
sg18
S'13.4'
p1393
sg20
g21
sg22
S'.755'
p1394
sg26
S'NBA'
p1395
sg28
S'0.5'
p1396
sg29
S'11.3'
p1397
sg31
S'3.2'
p1398
sg33
S'1.2'
p1399
sg35
S'8.3'
p1400
sg36
S'31'
p1401
sg38
S'TOR'
p1402
sg40
S'71'
p1403
sg41
S'1.3'
p1404
sg42
S'6.2'
p1405
sg43
S'0.9'
p1406
sg44
S'11.2'
p1407
sg46
S'5.1'
p1408
sg47
S'2007-08'
p1409
sg49
S'6.2'
p1410
sg50
S'1.5'
p1411
sg51
S'.552'
p1412
sg53
S'1486'
p1413
sg55
S'39'
p1414
sba(isrc.gp1.models.Per36Minutes
Per36Minutes
p1415
(dp1416
g8
S'2.8'
p1417
sg10
S'0.0'
p1418
sg12
S'.513'
p1419
sg14
S'3.2'
p1420
sg16
S'.000'
p1421
sg17
S'0.0'
p1422
sg18
S'14.0'
p1423
sg20
g21
sg22
S'.781'
p1424
sg26
S'NBA'
p1425
sg28
S'0.9'
p1426
sg29
S'13.0'
p1427
sg31
S'5.1'
p1428
sg33
S'0.9'
p1429
sg35
S'7.1'
p1430
sg36
S'32'
p1431
sg38
S'IND'
p1432
sg40
S'70'
p1433
sg41
S'1.1'
p1434
sg42
S'6.6'
p1435
sg43
S'0.7'
p1436
sg44
S'12.9'
p1437
sg46
S'4.4'
p1438
sg47
S'2008-09'
p1439
sg49
S'6.6'
p1440
sg50
S'1.9'
p1441
sg51
S'.514'
p1442
sg53
S'1214'
p1443
sg55
S'19'
p1444
sba(isrc.gp1.models.Per36Minutes
Per36Minutes
p1445
(dp1446
g8
S'3.2'
p1447
sg10
S'0.0'
p1448
sg12
S'.544'
p1449
sg14
S'2.2'
p1450
sg16
g3
sg17
S'0.0'
p1451
sg18
S'14.2'
p1452
sg20
g21
sg22
S'.200'
p1453
sg26
S'NBA'
p1454
sg28
S'0.9'
p1455
sg29
S'13.0'
p1456
sg31
S'4.7'
p1457
sg33
S'0.4'
p1458
sg35
S'7.8'
p1459
sg36
S'33'
p1460
sg38
S'TOR'
p1461
sg40
S'42'
p1462
sg41
S'1.5'
p1463
sg42
S'7.1'
p1464
sg43
S'0.1'
p1465
sg44
S'13.0'
p1466
sg46
S'4.5'
p1467
sg47
S'2009-10'
p1468
sg49
S'7.1'
p1469
sg50
S'1.4'
p1470
sg51
S'.544'
p1471
sg53
S'413'
p1472
sg55
g19
sbasS'_fromYear'
p1473
S'1999'
p1474
sS'_url'
p1475
S'http://www.basketball-reference.com/players/n/nestera01.html'
p1476
sS'_perGame'
p1477
(isrc.gp1.models.PerGame
PerGame
p1478
(dp1479
g8
S'0.9'
p1480
sg10
S'0.0'
p1481
sg12
S'.544'
p1482
sS'_effectiveFieldGalPercentage'
p1483
S'.544'
p1484
sg14
S'0.6'
p1485
sg16
g3
sg17
S'0.0'
p1486
sg18
S'3.9'
p1487
sg20
g21
sg22
S'.200'
p1488
sg26
S'NBA'
p1489
sg28
S'0.2'
p1490
sg31
S'1.3'
p1491
sS'_fieldGoalsttempted'
p1492
S'3.5'
p1493
sg33
S'0.1'
p1494
sg35
S'2.1'
p1495
sg36
S'33'
p1496
sg38
S'TOR'
p1497
sg40
S'42'
p1498
sg41
S'0.4'
p1499
sg42
S'1.9'
p1500
sg43
S'0.0'
p1501
sg44
S'3.5'
p1502
sg46
S'1.2'
p1503
sg47
S'2009-10'
p1504
sg49
S'1.9'
p1505
sg50
S'0.4'
p1506
sg51
S'.544'
p1507
sg53
S'9.8'
p1508
sg55
g19
sbsS'_weight'
p1509
S'248'
p1510
sS'_dob'
p1511
S'30-5-1976'
p1512
sS'_salary'
p1513
(lp1514
(isrc.gp1.models.Salary
Salary
p1515
(dp1516
g38
S'Minnesota Timberwolves'
p1517
sg26
S'NBA'
p1518
sg1513
S'$1,050,240'
p1519
sg47
S'1999-00'
p1520
sba(isrc.gp1.models.Salary
Salary
p1521
(dp1522
g38
S'Minnesota Timberwolves'
p1523
sg26
S'NBA'
p1524
sg1513
S'$1,123,560'
p1525
sg47
S'2000-01'
p1526
sba(isrc.gp1.models.Salary
Salary
p1527
(dp1528
g38
S'Minnesota Timberwolves'
p1529
sg26
S'NBA'
p1530
sg1513
S'$1,725,788'
p1531
sg47
S'2001-02'
p1532
sba(isrc.gp1.models.Salary
Salary
p1533
(dp1534
g38
S'Minnesota Timberwolves'
p1535
sg26
S'NBA'
p1536
sg1513
S'$2,436,813'
p1537
sg47
S'2002-03'
p1538
sba(isrc.gp1.models.Salary
Salary
p1539
(dp1540
g38
S'San Antonio Spurs'
p1541
sg26
S'NBA'
p1542
sg1513
S'$5,600,000'
p1543
sg47
S'2003-04'
p1544
sba(isrc.gp1.models.Salary
Salary
p1545
(dp1546
g38
S'San Antonio Spurs'
p1547
sg26
S'NBA'
p1548
sg1513
S'$6,160,000'
p1549
sg47
S'2004-05'
p1550
sba(isrc.gp1.models.Salary
Salary
p1551
(dp1552
g38
S'San Antonio Spurs'
p1553
sg26
S'NBA'
p1554
sg1513
S'$6,720,000'
p1555
sg47
S'2005-06'
p1556
sba(isrc.gp1.models.Salary
Salary
p1557
(dp1558
g38
S'Toronto Raptors'
p1559
sg26
S'NBA'
p1560
sg1513
S'$7,280,000'
p1561
sg47
S'2006-07'
p1562
sba(isrc.gp1.models.Salary
Salary
p1563
(dp1564
g38
S'Toronto Raptors'
p1565
sg26
S'NBA'
p1566
sg1513
S'$7,840,000'
p1567
sg47
S'2007-08'
p1568
sba(isrc.gp1.models.Salary
Salary
p1569
(dp1570
g38
S'Indiana Pacers'
p1571
sg26
S'NBA'
p1572
sg1513
S'$8,400,000'
p1573
sg47
S'2008-09'
p1574
sba(isrc.gp1.models.Salary
Salary
p1575
(dp1576
g38
S'Toronto Raptors'
p1577
sg26
S'NBA'
p1578
sg1513
S'$1,990,000'
p1579
sg47
S'2009-10'
p1580
sbasg20
g21
sb.