(isrc.gp1.models.Player
Player
p0
(dp1
S'_experience'
p2
S'NA'
p3
sS'_totals'
p4
(lp5
(isrc.gp1.models.Totals
Totals
p6
(dp7
S'_offensiveRebounds'
p8
S'21'
p9
sS'_threePointsAttempted'
p10
S'2'
p11
sS'_fieldGoalsPercentage'
p12
S'.429'
p13
sS'_assist'
p14
S'9'
p15
sS'_threePointsPercentage'
p16
S'.500'
p17
sS'_threePoints'
p18
S'1'
p19
sS'_points'
p20
S'58'
p21
sS'_position'
p22
S'PF'
p23
sS'_freeThrowsPercentage'
p24
S'.500'
p25
sS'_effectiveFieldGoalPercentage'
p26
S'.438'
p27
sS'_league'
p28
S'ABA'
p29
sS'_steals'
p30
g3
sS'_fieldGoalsAttempted'
p31
S'56'
p32
sS'_personalFouls'
p33
S'40'
p34
sS'_freeThrowsAttempted'
p35
S'18'
p36
sS'_totalRebounds'
p37
S'47'
p38
sS'_age'
p39
S'22'
p40
sS'_team'
p41
S'INA'
p42
sS'_games'
p43
S'24'
p44
sS'_blocks'
p45
g3
sS'_twoPoints'
p46
S'23'
p47
sS'_freeThrows'
p48
g15
sS'_twoPointsAttempted'
p49
S'54'
p50
sS'_defensiveRebounds'
p51
S'26'
p52
sS'_season'
p53
S'1972-73'
p54
sS'_fieldGoals'
p55
S'24'
p56
sS'_turnOvers'
p57
S'10'
p58
sS'_twoPointsPercentage'
p59
S'.426'
p60
sS'_minutesPlayed'
p61
S'117'
p62
sS'_gamesStarted'
p63
g3
sba(isrc.gp1.models.Totals
Totals
p64
(dp65
g8
g19
sg10
S'0'
p66
sg12
S'.467'
p67
sg14
S'5'
p68
sg16
g3
sg18
g66
sg20
S'15'
p69
sg22
S'C'
p70
sg24
S'.500'
p71
sg26
S'.467'
p72
sg28
S'ABA'
p73
sg30
g11
sg31
S'15'
p74
sg33
S'12'
p75
sg35
g11
sg37
S'18'
p76
sg39
S'23'
p77
sg41
S'INA'
p78
sg43
S'11'
p79
sg45
g66
sg46
S'7'
p80
sg48
g19
sg49
S'15'
p81
sg51
S'17'
p82
sg53
S'1973-74'
p83
sg55
g80
sg57
g80
sg59
S'.467'
p84
sg61
S'73'
p85
sg63
g3
sbasS'_college'
p86
S'Louisiana State University'
p87
sS'_toYear'
p88
S'1974'
p89
sS'_height'
p90
S'6-9'
p91
sS'_active'
p92
I00
sS'_shootingHand'
p93
VRight
p94
sS'_name'
p95
S'Bill Newton'
p96
sS'_per100Possessions'
p97
(lp98
(isrc.gp1.models.Per100Possession
Per100Possession
p99
(dp100
g8
S'0.6'
p101
sg10
S'0.0'
p102
sg12
S'.467'
p103
sS'_offensiveRating'
p104
S'76'
p105
sg14
S'3.2'
p106
sg16
g3
sg18
S'0.0'
p107
sg20
S'9.6'
p108
sg22
g70
sS'_defensiveRating'
p109
S'99'
p110
sg24
S'.500'
p111
sg28
S'ABA'
p112
sg30
S'1.3'
p113
sg31
S'9.6'
p114
sg33
S'7.7'
p115
sg35
S'1.3'
p116
sg37
S'11.5'
p117
sg39
S'23'
p118
sg41
S'INA'
p119
sg43
S'11'
p120
sg45
S'0.0'
p121
sg46
S'4.5'
p122
sg48
S'0.6'
p123
sg49
S'9.6'
p124
sg51
S'10.9'
p125
sg53
S'1973-74'
p126
sg55
S'4.5'
p127
sg57
S'4.5'
p128
sg59
S'.467'
p129
sg61
S'73'
p130
sg63
g3
sbasS'_advanced'
p131
(lp132
(isrc.gp1.models.Advanced
Advanced
p133
(dp134
S'_offensiveReboundPercentage'
p135
S'17.0'
p136
sS'_turnOverPercentage'
p137
S'13.5'
p138
sS'_winSharesPer48Minutes'
p139
S'.046'
p140
sS'_stealPercentage'
p141
g3
sS'_usagePercentage'
p142
S'23.8'
p143
sS'_totalReboundsPercentage'
p144
S'18.4'
p145
sS'_defensiveBoxPlusMinus'
p146
g3
sg22
S'PF'
p147
sS'_valueOverReplacementPlayer'
p148
g3
sS'_trueShootingPercentage'
p149
S'.454'
p150
sS'_defensiveReboundPercentage'
p151
S'19.7'
p152
sS'_freeThrowsAttempRate'
p153
S'.321'
p154
sS'_threePointsAttempRate'
p155
S'.036'
p156
sg28
S'ABA'
p157
sS'_offensiveBoxPlusMinues'
p158
g3
sS'_assistPercentage'
p159
S'11.1'
p160
sS'_defensiveWinShares'
p161
S'0.2'
p162
sg39
S'22'
p163
sg41
S'INA'
p164
sg43
S'24'
p165
sS'_blockPercentage'
p166
g3
sS'_playerEfficiencyRating'
p167
S'12.5'
p168
sS'_offensiveWinShares'
p169
S'-0.1'
p170
sg61
S'117'
p171
sS'_boxPlusMinus'
p172
g3
sg53
S'1972-73'
p173
sS'_winShares'
p174
S'0.1'
p175
sba(isrc.gp1.models.Advanced
Advanced
p176
(dp177
g135
S'1.3'
p178
sg137
S'30.6'
p179
sg139
S'.001'
p180
sg141
S'1.3'
p181
sg142
S'12.2'
p182
sg144
S'11.6'
p183
sg146
S'1.0'
p184
sg22
g70
sg148
S'-0.1'
p185
sg149
S'.472'
p186
sg151
S'21.7'
p187
sg153
S'.133'
p188
sg155
S'.000'
p189
sg28
S'ABA'
p190
sg158
S'-6.8'
p191
sg159
S'8.8'
p192
sg161
S'0.1'
p193
sg39
S'23'
p194
sg41
S'INA'
p195
sg43
S'11'
p196
sg166
S'0.0'
p197
sg167
S'4.9'
p198
sg169
S'-0.1'
p199
sg61
S'73'
p200
sg172
S'-5.8'
p201
sg53
S'1973-74'
p202
sg174
S'0.0'
p203
sbasS'_per36Minutes'
p204
(lp205
(isrc.gp1.models.Per36Minutes
Per36Minutes
p206
(dp207
g8
S'6.5'
p208
sg10
S'0.6'
p209
sg12
S'.429'
p210
sg14
S'2.8'
p211
sg16
S'.500'
p212
sg18
S'0.3'
p213
sg20
S'17.8'
p214
sg22
S'PF'
p215
sg24
S'.500'
p216
sg28
S'ABA'
p217
sg30
g3
sg31
S'17.2'
p218
sg33
S'12.3'
p219
sg35
S'5.5'
p220
sg37
S'14.5'
p221
sg39
S'22'
p222
sg41
S'INA'
p223
sg43
S'24'
p224
sg45
g3
sg46
S'7.1'
p225
sg48
S'2.8'
p226
sg49
S'16.6'
p227
sg51
S'8.0'
p228
sg53
S'1972-73'
p229
sg55
S'7.4'
p230
sg57
S'3.1'
p231
sg59
S'.426'
p232
sg61
S'117'
p233
sg63
g3
sba(isrc.gp1.models.Per36Minutes
Per36Minutes
p234
(dp235
g8
S'0.5'
p236
sg10
S'0.0'
p237
sg12
S'.467'
p238
sg14
S'2.5'
p239
sg16
g3
sg18
S'0.0'
p240
sg20
S'7.4'
p241
sg22
g70
sg24
S'.500'
p242
sg28
S'ABA'
p243
sg30
S'1.0'
p244
sg31
S'7.4'
p245
sg33
S'5.9'
p246
sg35
S'1.0'
p247
sg37
S'8.9'
p248
sg39
S'23'
p249
sg41
S'INA'
p250
sg43
S'11'
p251
sg45
S'0.0'
p252
sg46
S'3.5'
p253
sg48
S'0.5'
p254
sg49
S'7.4'
p255
sg51
S'8.4'
p256
sg53
S'1973-74'
p257
sg55
S'3.5'
p258
sg57
S'3.5'
p259
sg59
S'.467'
p260
sg61
S'73'
p261
sg63
g3
sbasS'_fromYear'
p262
S'1973'
p263
sS'_url'
p264
S'http://www.basketball-reference.com/players/n/newtobi01.html'
p265
sS'_perGame'
p266
(isrc.gp1.models.PerGame
PerGame
p267
(dp268
g8
S'0.1'
p269
sg10
S'0.0'
p270
sg12
S'.467'
p271
sS'_effectiveFieldGalPercentage'
p272
S'.467'
p273
sg14
S'0.5'
p274
sg16
g3
sg18
S'0.0'
p275
sg20
S'1.4'
p276
sg22
g70
sg24
S'.500'
p277
sg28
S'ABA'
p278
sg30
S'0.2'
p279
sg33
S'1.1'
p280
sS'_fieldGoalsttempted'
p281
S'1.4'
p282
sg35
S'0.2'
p283
sg37
S'1.6'
p284
sg39
S'23'
p285
sg41
S'INA'
p286
sg43
S'11'
p287
sg45
S'0.0'
p288
sg46
S'0.6'
p289
sg48
S'0.1'
p290
sg49
S'1.4'
p291
sg51
S'1.5'
p292
sg53
S'1973-74'
p293
sg55
S'0.6'
p294
sg57
S'0.6'
p295
sg59
S'.467'
p296
sg61
S'6.6'
p297
sg63
g3
sbsS'_weight'
p298
S'220'
p299
sS'_dob'
p300
S'22-12-1950'
p301
sS'_salary'
p302
(lp303
sg22
g70
sb.