(isrc.gp1.models.Player
Player
p0
(dp1
S'_experience'
p2
V11
p3
sS'_totals'
p4
(lp5
(isrc.gp1.models.Totals
Totals
p6
(dp7
S'_offensiveRebounds'
p8
S'156'
p9
sS'_threePointsAttempted'
p10
S'3'
p11
sS'_fieldGoalsPercentage'
p12
S'.537'
p13
sS'_assist'
p14
S'32'
p15
sS'_threePointsPercentage'
p16
S'.000'
p17
sS'_threePoints'
p18
S'0'
p19
sS'_points'
p20
S'463'
p21
sS'_position'
p22
S'C'
p23
sS'_freeThrowsPercentage'
p24
S'.703'
p25
sS'_effectiveFieldGoalPercentage'
p26
S'.537'
p27
sS'_league'
p28
S'NBA'
p29
sS'_steals'
p30
S'34'
p31
sS'_fieldGoalsAttempted'
p32
S'354'
p33
sS'_personalFouls'
p34
S'252'
p35
sS'_freeThrowsAttempted'
p36
S'118'
p37
sS'_totalRebounds'
p38
S'376'
p39
sS'_age'
p40
S'24'
p41
sS'_team'
p42
S'SEA'
p43
sS'_games'
p44
S'82'
p45
sS'_blocks'
p46
S'50'
p47
sS'_twoPoints'
p48
S'190'
p49
sS'_freeThrows'
p50
S'83'
p51
sS'_twoPointsAttempted'
p52
S'351'
p53
sS'_defensiveRebounds'
p54
S'220'
p55
sS'_season'
p56
S'2004-05'
p57
sS'_fieldGoals'
p58
S'190'
p59
sS'_turnOvers'
p60
S'62'
p61
sS'_twoPointsPercentage'
p62
S'.541'
p63
sS'_minutesPlayed'
p64
S'1396'
p65
sS'_gamesStarted'
p66
S'4'
p67
sba(isrc.gp1.models.Totals
Totals
p68
(dp69
g8
S'143'
p70
sg10
g11
sg12
S'.525'
p71
sg14
S'74'
p72
sg16
S'.000'
p73
sg18
g19
sg20
S'493'
p74
sg22
S'PF'
p75
sg24
S'.699'
p76
sg26
S'.525'
p77
sg28
S'NBA'
p78
sg30
S'21'
p79
sg32
S'394'
p80
sg34
S'213'
p81
sg36
S'113'
p82
sg38
S'368'
p83
sg40
S'25'
p84
sg42
S'SEA'
p85
sg44
S'66'
p86
sg46
S'35'
p87
sg48
S'207'
p88
sg50
S'79'
p89
sg52
S'391'
p90
sg54
S'225'
p91
sg56
S'2005-06'
p92
sg58
S'207'
p93
sg60
S'77'
p94
sg62
S'.529'
p95
sg64
S'1448'
p96
sg66
S'27'
p97
sba(isrc.gp1.models.Totals
Totals
p98
(dp99
g8
S'229'
p100
sg10
S'2'
p101
sg12
S'.500'
p102
sg14
S'82'
p103
sg16
S'.000'
p104
sg18
g19
sg20
S'790'
p105
sg22
g23
sg24
S'.774'
p106
sg26
S'.500'
p107
sg28
S'NBA'
p108
sg30
S'48'
p109
sg32
S'636'
p110
sg34
S'289'
p111
sg36
S'199'
p112
sg38
S'666'
p113
sg40
S'26'
p114
sg42
S'SEA'
p115
sg44
S'82'
p116
sg46
S'66'
p117
sg48
S'318'
p118
sg50
S'154'
p119
sg52
S'634'
p120
sg54
S'437'
p121
sg56
S'2006-07'
p122
sg58
S'318'
p123
sg60
S'123'
p124
sg62
S'.502'
p125
sg64
S'2378'
p126
sg66
S'56'
p127
sba(isrc.gp1.models.Totals
Totals
p128
(dp129
g8
S'254'
p130
sg10
g101
sg12
S'.502'
p131
sg14
S'113'
p132
sg16
S'.000'
p133
sg18
g19
sg20
S'767'
p134
sg22
S'PF'
p135
sg24
S'.737'
p136
sg26
S'.502'
p137
sg28
S'NBA'
p138
sg30
S'47'
p139
sg32
S'641'
p140
sg34
S'250'
p141
sg36
S'167'
p142
sg38
S'730'
p143
sg40
S'27'
p144
sg42
S'SEA'
p145
sg44
S'78'
p146
sg46
S'60'
p147
sg48
S'322'
p148
sg50
S'123'
p149
sg52
S'639'
p150
sg54
S'476'
p151
sg56
S'2007-08'
p152
sg58
S'322'
p153
sg60
S'118'
p154
sg62
S'.504'
p155
sg64
S'2223'
p156
sg66
S'35'
p157
sba(isrc.gp1.models.Totals
Totals
p158
(dp159
g8
S'181'
p160
sg10
g101
sg12
S'.568'
p161
sg14
S'66'
p162
sg16
S'.000'
p163
sg18
g19
sg20
S'584'
p164
sg22
g23
sg24
S'.721'
p165
sg26
S'.568'
p166
sg28
S'NBA'
p167
sg30
S'51'
p168
sg32
S'428'
p169
sg34
S'239'
p170
sg36
S'136'
p171
sg38
S'489'
p172
sg40
S'28'
p173
sg42
S'OKC'
p174
sg44
S'71'
p175
sg46
S'50'
p176
sg48
S'243'
p177
sg50
S'98'
p178
sg52
S'426'
p179
sg54
S'308'
p180
sg56
S'2008-09'
p181
sg58
S'243'
p182
sg60
S'73'
p183
sg62
S'.570'
p184
sg64
S'1831'
p185
sg66
S'40'
p186
sba(isrc.gp1.models.Totals
Totals
p187
(dp188
g8
S'152'
p189
sg10
g67
sg12
S'.589'
p190
sg14
S'38'
p191
sg16
S'.250'
p192
sg18
S'1'
p193
sg20
S'439'
p194
sg22
g23
sg24
S'.692'
p195
sg26
S'.591'
p196
sg28
S'NBA'
p197
sg30
S'37'
p198
sg32
S'309'
p199
sg34
S'230'
p200
sg36
S'107'
p201
sg38
S'384'
p202
sg40
S'29'
p203
sg42
S'OKC'
p204
sg44
S'75'
p205
sg46
S'48'
p206
sg48
S'181'
p207
sg50
S'74'
p208
sg52
S'305'
p209
sg54
S'232'
p210
sg56
S'2009-10'
p211
sg58
S'182'
p212
sg60
S'63'
p213
sg62
S'.593'
p214
sg64
S'1557'
p215
sg66
S'5'
p216
sba(isrc.gp1.models.Totals
Totals
p217
(dp218
g8
S'119'
p219
sg10
g19
sg12
S'.566'
p220
sg14
S'69'
p221
sg16
S'NA'
p222
sg18
g19
sg20
S'329'
p223
sg22
g23
sg24
S'.753'
p224
sg26
S'.566'
p225
sg28
S'NBA'
p226
sg30
S'42'
p227
sg32
S'242'
p228
sg34
S'210'
p229
sg36
S'73'
p230
sg38
S'316'
p231
sg40
S'30'
p232
sg42
S'OKC'
p233
sg44
S'71'
p234
sg46
S'31'
p235
sg48
S'137'
p236
sg50
S'55'
p237
sg52
S'242'
p238
sg54
S'197'
p239
sg56
S'2010-11'
p240
sg58
S'137'
p241
sg60
S'55'
p242
sg62
S'.566'
p243
sg64
S'1524'
p244
sg66
g101
sba(isrc.gp1.models.Totals
Totals
p245
(dp246
g8
S'119'
p247
sg10
g193
sg12
S'.597'
p248
sg14
S'82'
p249
sg16
S'.000'
p250
sg18
g19
sg20
S'284'
p251
sg22
S'PF'
p252
sg24
S'.710'
p253
sg26
S'.597'
p254
sg28
S'NBA'
p255
sg30
S'33'
p256
sg32
S'201'
p257
sg34
S'153'
p258
sg36
S'62'
p259
sg38
S'274'
p260
sg40
S'31'
p261
sg42
S'OKC'
p262
sg44
S'63'
p263
sg46
S'28'
p264
sg48
S'120'
p265
sg50
S'44'
p266
sg52
S'200'
p267
sg54
S'155'
p268
sg56
S'2011-12'
p269
sg58
S'120'
p270
sg60
S'61'
p271
sg62
S'.600'
p272
sg64
S'1307'
p273
sg66
g19
sba(isrc.gp1.models.Totals
Totals
p274
(dp275
g8
S'123'
p276
sg10
g67
sg12
S'.595'
p277
sg14
S'121'
p278
sg16
S'.000'
p279
sg18
g19
sg20
S'412'
p280
sg22
g23
sg24
S'.769'
p281
sg26
S'.595'
p282
sg28
S'NBA'
p283
sg30
S'51'
p284
sg32
S'296'
p285
sg34
S'197'
p286
sg36
S'78'
p287
sg38
S'333'
p288
sg40
S'32'
p289
sg42
S'OKC'
p290
sg44
S'81'
p291
sg46
S'30'
p292
sg48
S'176'
p293
sg50
S'60'
p294
sg52
S'292'
p295
sg54
S'210'
p296
sg56
S'2012-13'
p297
sg58
S'176'
p298
sg60
S'69'
p299
sg62
S'.603'
p300
sg64
S'1583'
p301
sg66
g101
sba(isrc.gp1.models.Totals
Totals
p302
(dp303
g8
S'116'
p304
sg10
S'17'
p305
sg12
S'.556'
p306
sg14
S'104'
p307
sg16
S'.235'
p308
sg18
g67
sg20
S'338'
p309
sg22
S'PF'
p310
sg24
S'.710'
p311
sg26
S'.564'
p312
sg28
S'NBA'
p313
sg30
S'30'
p314
sg32
S'241'
p315
sg34
S'187'
p316
sg36
S'93'
p317
sg38
S'293'
p318
sg40
S'33'
p319
sg42
S'OKC'
p320
sg44
S'81'
p321
sg46
S'28'
p322
sg48
S'130'
p323
sg50
S'66'
p324
sg52
S'224'
p325
sg54
S'177'
p326
sg56
S'2013-14'
p327
sg58
S'134'
p328
sg60
S'71'
p329
sg62
S'.580'
p330
sg64
S'1353'
p331
sg66
g19
sba(isrc.gp1.models.Totals
Totals
p332
(dp333
g8
S'90'
p334
sg10
S'60'
p335
sg12
S'.419'
p336
sg14
S'90'
p337
sg16
S'.267'
p338
sg18
S'16'
p339
sg20
S'273'
p340
sg22
S'PF'
p341
sg24
S'.692'
p342
sg26
S'.451'
p343
sg28
S'NBA'
p344
sg30
S'35'
p345
sg32
S'253'
p346
sg34
S'156'
p347
sg36
S'65'
p348
sg38
S'250'
p349
sg40
S'34'
p350
sg42
S'OKC'
p351
sg44
S'66'
p352
sg46
S'25'
p353
sg48
S'90'
p354
sg50
S'45'
p355
sg52
S'193'
p356
sg54
S'160'
p357
sg56
S'2014-15'
p358
sg58
S'106'
p359
sg60
S'45'
p360
sg62
S'.466'
p361
sg64
S'1101'
p362
sg66
g101
sba(isrc.gp1.models.Totals
Totals
p363
(dp364
g8
S'54'
p365
sg10
g101
sg12
S'.440'
p366
sg14
S'33'
p367
sg16
S'.000'
p368
sg18
g19
sg20
S'95'
p369
sg22
S'PF'
p370
sg24
S'.724'
p371
sg26
S'.440'
p372
sg28
S'NBA'
p373
sg30
S'12'
p374
sg32
S'84'
p375
sg34
S'80'
p376
sg36
S'29'
p377
sg38
S'124'
p378
sg40
S'35'
p379
sg42
S'OKC'
p380
sg44
S'42'
p381
sg46
S'14'
p382
sg48
S'37'
p383
sg50
S'21'
p384
sg52
S'82'
p385
sg54
S'70'
p386
sg56
S'2015-16'
p387
sg58
S'37'
p388
sg60
S'31'
p389
sg62
S'.451'
p390
sg64
S'515'
p391
sg66
g101
sbasS'_college'
p392
S'University of Kansas'
p393
sS'_toYear'
p394
S'2016'
p395
sS'_height'
p396
S'6-10'
p397
sS'_active'
p398
I01
sS'_shootingHand'
p399
VRight
p400
sS'_name'
p401
S'Nick Collison'
p402
sS'_per100Possessions'
p403
(lp404
(isrc.gp1.models.Per100Possession
Per100Possession
p405
(dp406
g8
S'6.1'
p407
sg10
S'0.1'
p408
sg12
S'.537'
p409
sS'_offensiveRating'
p410
S'117'
p411
sg14
S'1.3'
p412
sg16
S'.000'
p413
sg18
S'0.0'
p414
sg20
S'18.1'
p415
sg22
g23
sS'_defensiveRating'
p416
S'107'
p417
sg24
S'.703'
p418
sg28
S'NBA'
p419
sg30
S'1.3'
p420
sg32
S'13.8'
p421
sg34
S'9.9'
p422
sg36
S'4.6'
p423
sg38
S'14.7'
p424
sg40
S'24'
p425
sg42
S'SEA'
p426
sg44
S'82'
p427
sg46
S'2.0'
p428
sg48
S'7.4'
p429
sg50
S'3.2'
p430
sg52
S'13.7'
p431
sg54
S'8.6'
p432
sg56
S'2004-05'
p433
sg58
S'7.4'
p434
sg60
S'2.4'
p435
sg62
S'.541'
p436
sg64
S'1396'
p437
sg66
g67
sba(isrc.gp1.models.Per100Possession
Per100Possession
p438
(dp439
g8
S'5.2'
p440
sg10
S'0.1'
p441
sg12
S'.525'
p442
sg410
S'112'
p443
sg14
S'2.7'
p444
sg16
S'.000'
p445
sg18
S'0.0'
p446
sg20
S'17.8'
p447
sg22
S'PF'
p448
sg416
S'114'
p449
sg24
S'.699'
p450
sg28
S'NBA'
p451
sg30
S'0.8'
p452
sg32
S'14.3'
p453
sg34
S'7.7'
p454
sg36
S'4.1'
p455
sg38
S'13.3'
p456
sg40
S'25'
p457
sg42
S'SEA'
p458
sg44
S'66'
p459
sg46
S'1.3'
p460
sg48
S'7.5'
p461
sg50
S'2.9'
p462
sg52
S'14.1'
p463
sg54
S'8.1'
p464
sg56
S'2005-06'
p465
sg58
S'7.5'
p466
sg60
S'2.8'
p467
sg62
S'.529'
p468
sg64
S'1448'
p469
sg66
S'27'
p470
sba(isrc.gp1.models.Per100Possession
Per100Possession
p471
(dp472
g8
S'5.0'
p473
sg10
S'0.0'
p474
sg12
S'.500'
p475
sg410
S'110'
p476
sg14
S'1.8'
p477
sg16
S'.000'
p478
sg18
S'0.0'
p479
sg20
S'17.4'
p480
sg22
g23
sg416
S'109'
p481
sg24
S'.774'
p482
sg28
S'NBA'
p483
sg30
S'1.1'
p484
sg32
S'14.0'
p485
sg34
S'6.4'
p486
sg36
S'4.4'
p487
sg38
S'14.6'
p488
sg40
S'26'
p489
sg42
S'SEA'
p490
sg44
S'82'
p491
sg46
S'1.5'
p492
sg48
S'7.0'
p493
sg50
S'3.4'
p494
sg52
S'13.9'
p495
sg54
S'9.6'
p496
sg56
S'2006-07'
p497
sg58
S'7.0'
p498
sg60
S'2.7'
p499
sg62
S'.502'
p500
sg64
S'2378'
p501
sg66
S'56'
p502
sba(isrc.gp1.models.Per100Possession
Per100Possession
p503
(dp504
g8
S'5.7'
p505
sg10
S'0.0'
p506
sg12
S'.502'
p507
sg410
S'109'
p508
sg14
S'2.5'
p509
sg16
S'.000'
p510
sg18
S'0.0'
p511
sg20
S'17.2'
p512
sg22
S'PF'
p513
sg416
S'107'
p514
sg24
S'.737'
p515
sg28
S'NBA'
p516
sg30
S'1.1'
p517
sg32
S'14.4'
p518
sg34
S'5.6'
p519
sg36
S'3.7'
p520
sg38
S'16.4'
p521
sg40
S'27'
p522
sg42
S'SEA'
p523
sg44
S'78'
p524
sg46
S'1.3'
p525
sg48
S'7.2'
p526
sg50
S'2.8'
p527
sg52
S'14.3'
p528
sg54
S'10.7'
p529
sg56
S'2007-08'
p530
sg58
S'7.2'
p531
sg60
S'2.6'
p532
sg62
S'.504'
p533
sg64
S'2223'
p534
sg66
S'35'
p535
sba(isrc.gp1.models.Per100Possession
Per100Possession
p536
(dp537
g8
S'5.1'
p538
sg10
S'0.1'
p539
sg12
S'.568'
p540
sg410
S'119'
p541
sg14
S'1.8'
p542
sg16
S'.000'
p543
sg18
S'0.0'
p544
sg20
S'16.4'
p545
sg22
g23
sg416
S'108'
p546
sg24
S'.721'
p547
sg28
S'NBA'
p548
sg30
S'1.4'
p549
sg32
S'12.0'
p550
sg34
S'6.7'
p551
sg36
S'3.8'
p552
sg38
S'13.7'
p553
sg40
S'28'
p554
sg42
S'OKC'
p555
sg44
S'71'
p556
sg46
S'1.4'
p557
sg48
S'6.8'
p558
sg50
S'2.7'
p559
sg52
S'11.9'
p560
sg54
S'8.6'
p561
sg56
S'2008-09'
p562
sg58
S'6.8'
p563
sg60
S'2.0'
p564
sg62
S'.570'
p565
sg64
S'1831'
p566
sg66
S'40'
p567
sba(isrc.gp1.models.Per100Possession
Per100Possession
p568
(dp569
g8
S'5.0'
p570
sg10
S'0.1'
p571
sg12
S'.589'
p572
sg410
S'120'
p573
sg14
S'1.3'
p574
sg16
S'.250'
p575
sg18
S'0.0'
p576
sg20
S'14.5'
p577
sg22
g23
sg416
S'105'
p578
sg24
S'.692'
p579
sg28
S'NBA'
p580
sg30
S'1.2'
p581
sg32
S'10.2'
p582
sg34
S'7.6'
p583
sg36
S'3.5'
p584
sg38
S'12.7'
p585
sg40
S'29'
p586
sg42
S'OKC'
p587
sg44
S'75'
p588
sg46
S'1.6'
p589
sg48
S'6.0'
p590
sg50
S'2.5'
p591
sg52
S'10.1'
p592
sg54
S'7.7'
p593
sg56
S'2009-10'
p594
sg58
S'6.0'
p595
sg60
S'2.1'
p596
sg62
S'.593'
p597
sg64
S'1557'
p598
sg66
g216
sba(isrc.gp1.models.Per100Possession
Per100Possession
p599
(dp600
g8
S'4.0'
p601
sg10
S'0.0'
p602
sg12
S'.566'
p603
sg410
S'120'
p604
sg14
S'2.3'
p605
sg16
g222
sg18
S'0.0'
p606
sg20
S'11.2'
p607
sg22
g23
sg416
S'108'
p608
sg24
S'.753'
p609
sg28
S'NBA'
p610
sg30
S'1.4'
p611
sg32
S'8.2'
p612
sg34
S'7.1'
p613
sg36
S'2.5'
p614
sg38
S'10.7'
p615
sg40
S'30'
p616
sg42
S'OKC'
p617
sg44
S'71'
p618
sg46
S'1.1'
p619
sg48
S'4.7'
p620
sg50
S'1.9'
p621
sg52
S'8.2'
p622
sg54
S'6.7'
p623
sg56
S'2010-11'
p624
sg58
S'4.7'
p625
sg60
S'1.9'
p626
sg62
S'.566'
p627
sg64
S'1524'
p628
sg66
g101
sba(isrc.gp1.models.Per100Possession
Per100Possession
p629
(dp630
g8
S'4.7'
p631
sg10
S'0.0'
p632
sg12
S'.597'
p633
sg410
S'121'
p634
sg14
S'3.2'
p635
sg16
S'.000'
p636
sg18
S'0.0'
p637
sg20
S'11.2'
p638
sg22
S'PF'
p639
sg416
S'105'
p640
sg24
S'.710'
p641
sg28
S'NBA'
p642
sg30
S'1.3'
p643
sg32
S'7.9'
p644
sg34
S'6.0'
p645
sg36
S'2.4'
p646
sg38
S'10.8'
p647
sg40
S'31'
p648
sg42
S'OKC'
p649
sg44
S'63'
p650
sg46
S'1.1'
p651
sg48
S'4.7'
p652
sg50
S'1.7'
p653
sg52
S'7.9'
p654
sg54
S'6.1'
p655
sg56
S'2011-12'
p656
sg58
S'4.7'
p657
sg60
S'2.4'
p658
sg62
S'.600'
p659
sg64
S'1307'
p660
sg66
g19
sba(isrc.gp1.models.Per100Possession
Per100Possession
p661
(dp662
g8
S'4.0'
p663
sg10
S'0.1'
p664
sg12
S'.595'
p665
sg410
S'123'
p666
sg14
S'3.9'
p667
sg16
S'.000'
p668
sg18
S'0.0'
p669
sg20
S'13.4'
p670
sg22
g23
sg416
S'104'
p671
sg24
S'.769'
p672
sg28
S'NBA'
p673
sg30
S'1.7'
p674
sg32
S'9.6'
p675
sg34
S'6.4'
p676
sg36
S'2.5'
p677
sg38
S'10.8'
p678
sg40
S'32'
p679
sg42
S'OKC'
p680
sg44
S'81'
p681
sg46
S'1.0'
p682
sg48
S'5.7'
p683
sg50
S'1.9'
p684
sg52
S'9.5'
p685
sg54
S'6.8'
p686
sg56
S'2012-13'
p687
sg58
S'5.7'
p688
sg60
S'2.2'
p689
sg62
S'.603'
p690
sg64
S'1583'
p691
sg66
g101
sba(isrc.gp1.models.Per100Possession
Per100Possession
p692
(dp693
g8
S'4.3'
p694
sg10
S'0.6'
p695
sg12
S'.556'
p696
sg410
S'117'
p697
sg14
S'3.9'
p698
sg16
S'.235'
p699
sg18
S'0.1'
p700
sg20
S'12.6'
p701
sg22
S'PF'
p702
sg416
S'106'
p703
sg24
S'.710'
p704
sg28
S'NBA'
p705
sg30
S'1.1'
p706
sg32
S'9.0'
p707
sg34
S'7.0'
p708
sg36
S'3.5'
p709
sg38
S'10.9'
p710
sg40
S'33'
p711
sg42
S'OKC'
p712
sg44
S'81'
p713
sg46
S'1.0'
p714
sg48
S'4.8'
p715
sg50
S'2.5'
p716
sg52
S'8.3'
p717
sg54
S'6.6'
p718
sg56
S'2013-14'
p719
sg58
S'5.0'
p720
sg60
S'2.6'
p721
sg62
S'.580'
p722
sg64
S'1353'
p723
sg66
g19
sba(isrc.gp1.models.Per100Possession
Per100Possession
p724
(dp725
g8
S'4.1'
p726
sg10
S'2.7'
p727
sg12
S'.419'
p728
sg410
S'108'
p729
sg14
S'4.1'
p730
sg16
S'.267'
p731
sg18
S'0.7'
p732
sg20
S'12.4'
p733
sg22
S'PF'
p734
sg416
S'105'
p735
sg24
S'.692'
p736
sg28
S'NBA'
p737
sg30
S'1.6'
p738
sg32
S'11.5'
p739
sg34
S'7.1'
p740
sg36
S'3.0'
p741
sg38
S'11.4'
p742
sg40
S'34'
p743
sg42
S'OKC'
p744
sg44
S'66'
p745
sg46
S'1.1'
p746
sg48
S'4.1'
p747
sg50
S'2.0'
p748
sg52
S'8.8'
p749
sg54
S'7.3'
p750
sg56
S'2014-15'
p751
sg58
S'4.8'
p752
sg60
S'2.0'
p753
sg62
S'.466'
p754
sg64
S'1101'
p755
sg66
g101
sba(isrc.gp1.models.Per100Possession
Per100Possession
p756
(dp757
g8
S'5.2'
p758
sg10
S'0.2'
p759
sg12
S'.440'
p760
sg410
S'104'
p761
sg14
S'3.2'
p762
sg16
S'.000'
p763
sg18
S'0.0'
p764
sg20
S'9.2'
p765
sg22
S'PF'
p766
sg416
S'106'
p767
sg24
S'.724'
p768
sg28
S'NBA'
p769
sg30
S'1.2'
p770
sg32
S'8.1'
p771
sg34
S'7.7'
p772
sg36
S'2.8'
p773
sg38
S'12.0'
p774
sg40
S'35'
p775
sg42
S'OKC'
p776
sg44
S'42'
p777
sg46
S'1.4'
p778
sg48
S'3.6'
p779
sg50
S'2.0'
p780
sg52
S'7.9'
p781
sg54
S'6.8'
p782
sg56
S'2015-16'
p783
sg58
S'3.6'
p784
sg60
S'3.0'
p785
sg62
S'.451'
p786
sg64
S'515'
p787
sg66
g101
sbasS'_advanced'
p788
(lp789
(isrc.gp1.models.Advanced
Advanced
p790
(dp791
S'_offensiveReboundPercentage'
p792
S'13.7'
p793
sS'_turnOverPercentage'
p794
S'13.3'
p795
sS'_winSharesPer48Minutes'
p796
S'.135'
p797
sS'_stealPercentage'
p798
S'1.3'
p799
sS'_usagePercentage'
p800
S'15.5'
p801
sS'_totalReboundsPercentage'
p802
S'16.5'
p803
sS'_defensiveBoxPlusMinus'
p804
S'0.3'
p805
sg22
g23
sS'_valueOverReplacementPlayer'
p806
S'0.8'
p807
sS'_trueShootingPercentage'
p808
S'.570'
p809
sS'_defensiveReboundPercentage'
p810
S'19.2'
p811
sS'_freeThrowsAttempRate'
p812
S'.333'
p813
sS'_threePointsAttempRate'
p814
S'.008'
p815
sg28
S'NBA'
p816
sS'_offensiveBoxPlusMinues'
p817
S'0.0'
p818
sS'_assistPercentage'
p819
S'3.9'
p820
sS'_defensiveWinShares'
p821
S'1.2'
p822
sg40
S'24'
p823
sg42
S'SEA'
p824
sg44
S'82'
p825
sS'_blockPercentage'
p826
S'2.8'
p827
sS'_playerEfficiencyRating'
p828
S'15.0'
p829
sS'_offensiveWinShares'
p830
S'2.7'
p831
sg64
S'1396'
p832
sS'_boxPlusMinus'
p833
S'0.3'
p834
sg56
S'2004-05'
p835
sS'_winShares'
p836
S'3.9'
p837
sba(isrc.gp1.models.Advanced
Advanced
p838
(dp839
g792
S'11.8'
p840
sg794
S'14.8'
p841
sg796
S'.075'
p842
sg798
S'0.8'
p843
sg800
S'16.1'
p844
sg802
S'15.4'
p845
sg804
S'-1.0'
p846
sg22
S'PF'
p847
sg806
S'0.3'
p848
sg808
S'.556'
p849
sg810
S'19.0'
p850
sg812
S'.287'
p851
sg814
S'.008'
p852
sg28
S'NBA'
p853
sg817
S'-0.1'
p854
sg819
S'8.1'
p855
sg821
S'0.1'
p856
sg40
S'25'
p857
sg42
S'SEA'
p858
sg44
S'66'
p859
sg826
S'1.9'
p860
sg828
S'14.0'
p861
sg830
S'2.2'
p862
sg64
S'1448'
p863
sg833
S'-1.1'
p864
sg56
S'2005-06'
p865
sg836
S'2.3'
p866
sba(isrc.gp1.models.Advanced
Advanced
p867
(dp868
g792
S'11.4'
p869
sg794
S'14.5'
p870
sg796
S'.093'
p871
sg798
S'1.1'
p872
sg800
S'16.2'
p873
sg802
S'16.8'
p874
sg804
S'0.3'
p875
sg22
g23
sg806
S'0.7'
p876
sg808
S'.546'
p877
sg810
S'22.2'
p878
sg812
S'.313'
p879
sg814
S'.003'
p880
sg28
S'NBA'
p881
sg817
S'-1.1'
p882
sg819
S'5.4'
p883
sg821
S'1.8'
p884
sg40
S'26'
p885
sg42
S'SEA'
p886
sg44
S'82'
p887
sg826
S'2.1'
p888
sg828
S'14.2'
p889
sg830
S'2.8'
p890
sg64
S'2378'
p891
sg833
S'-0.8'
p892
sg56
S'2006-07'
p893
sg836
S'4.6'
p894
sba(isrc.gp1.models.Advanced
Advanced
p895
(dp896
g792
S'12.5'
p897
sg794
S'14.2'
p898
sg796
S'.098'
p899
sg798
S'1.1'
p900
sg800
S'16.2'
p901
sg802
S'17.9'
p902
sg804
S'1.5'
p903
sg22
S'PF'
p904
sg806
S'1.4'
p905
sg808
S'.537'
p906
sg810
S'23.3'
p907
sg812
S'.261'
p908
sg814
S'.003'
p909
sg28
S'NBA'
p910
sg817
S'-0.9'
p911
sg819
S'7.9'
p912
sg821
S'2.3'
p913
sg40
S'27'
p914
sg42
S'SEA'
p915
sg44
S'78'
p916
sg826
S'1.9'
p917
sg828
S'15.0'
p918
sg830
S'2.2'
p919
sg64
S'2223'
p920
sg833
S'0.6'
p921
sg56
S'2007-08'
p922
sg836
S'4.5'
p923
sba(isrc.gp1.models.Advanced
Advanced
p924
(dp925
g792
S'11.2'
p926
sg794
S'13.0'
p927
sg796
S'.130'
p928
sg798
S'1.4'
p929
sg800
S'13.5'
p930
sg802
S'15.4'
p931
sg804
S'1.0'
p932
sg22
g23
sg806
S'1.2'
p933
sg808
S'.599'
p934
sg810
S'19.7'
p935
sg812
S'.318'
p936
sg814
S'.005'
p937
sg28
S'NBA'
p938
sg817
S'-0.5'
p939
sg819
S'5.8'
p940
sg821
S'2.0'
p941
sg40
S'28'
p942
sg42
S'OKC'
p943
sg44
S'71'
p944
sg826
S'2.0'
p945
sg828
S'14.8'
p946
sg830
S'3.0'
p947
sg64
S'1831'
p948
sg833
S'0.6'
p949
sg56
S'2008-09'
p950
sg836
S'5.0'
p951
sba(isrc.gp1.models.Advanced
Advanced
p952
(dp953
g792
S'11.5'
p954
sg794
S'15.0'
p955
sg796
S'.146'
p956
sg798
S'1.2'
p957
sg800
S'12.1'
p958
sg802
S'14.2'
p959
sg804
S'1.2'
p960
sg22
g23
sg806
S'1.0'
p961
sg808
S'.616'
p962
sg810
S'16.7'
p963
sg812
S'.346'
p964
sg814
S'.013'
p965
sg28
S'NBA'
p966
sg817
S'-0.6'
p967
sg819
S'3.7'
p968
sg821
S'2.2'
p969
sg40
S'29'
p970
sg42
S'OKC'
p971
sg44
S'75'
p972
sg826
S'2.3'
p973
sg828
S'13.1'
p974
sg830
S'2.6'
p975
sg64
S'1557'
p976
sg833
S'0.6'
p977
sg56
S'2009-10'
p978
sg836
S'4.7'
p979
sba(isrc.gp1.models.Advanced
Advanced
p980
(dp981
g792
S'9.5'
p982
sg794
S'16.7'
p983
sg796
S'.113'
p984
sg798
S'1.4'
p985
sg800
S'9.8'
p986
sg802
S'12.1'
p987
sg804
S'1.4'
p988
sg22
g23
sg806
S'1.2'
p989
sg808
S'.600'
p990
sg810
S'14.6'
p991
sg812
S'.302'
p992
sg814
S'.000'
p993
sg28
S'NBA'
p994
sg817
S'-0.3'
p995
sg819
S'6.7'
p996
sg821
S'1.5'
p997
sg40
S'30'
p998
sg42
S'OKC'
p999
sg44
S'71'
p1000
sg826
S'1.5'
p1001
sg828
S'10.8'
p1002
sg830
S'2.1'
p1003
sg64
S'1524'
p1004
sg833
S'1.0'
p1005
sg56
S'2010-11'
p1006
sg836
S'3.6'
p1007
sba(isrc.gp1.models.Advanced
Advanced
p1008
(dp1009
g792
S'11.1'
p1010
sg794
S'21.1'
p1011
sg796
S'.130'
p1012
sg798
S'1.3'
p1013
sg800
S'10.0'
p1014
sg802
S'12.0'
p1015
sg804
S'1.3'
p1016
sg22
S'PF'
p1017
sg806
S'1.4'
p1018
sg808
S'.622'
p1019
sg810
S'12.7'
p1020
sg812
S'.308'
p1021
sg814
S'.005'
p1022
sg28
S'NBA'
p1023
sg817
S'0.9'
p1024
sg819
S'9.3'
p1025
sg821
S'1.2'
p1026
sg40
S'31'
p1027
sg42
S'OKC'
p1028
sg44
S'63'
p1029
sg826
S'1.6'
p1030
sg828
S'12.1'
p1031
sg830
S'2.3'
p1032
sg64
S'1307'
p1033
sg833
S'2.2'
p1034
sg56
S'2011-12'
p1035
sg836
S'3.5'
p1036
sba(isrc.gp1.models.Advanced
Advanced
p1037
(dp1038
g792
S'9.6'
p1039
sg794
S'17.3'
p1040
sg796
S'.158'
p1041
sg798
S'1.7'
p1042
sg800
S'11.5'
p1043
sg802
S'12.1'
p1044
sg804
S'1.4'
p1045
sg22
g23
sg806
S'1.8'
p1046
sg808
S'.624'
p1047
sg810
S'14.2'
p1048
sg812
S'.264'
p1049
sg814
S'.014'
p1050
sg28
S'NBA'
p1051
sg817
S'1.0'
p1052
sg819
S'11.3'
p1053
sg821
S'2.1'
p1054
sg40
S'32'
p1055
sg42
S'OKC'
p1056
sg44
S'81'
p1057
sg826
S'1.4'
p1058
sg828
S'13.6'
p1059
sg830
S'3.2'
p1060
sg64
S'1583'
p1061
sg833
S'2.4'
p1062
sg56
S'2012-13'
p1063
sg836
S'5.2'
p1064
sba(isrc.gp1.models.Advanced
Advanced
p1065
(dp1066
g792
S'10.2'
p1067
sg794
S'20.1'
p1068
sg796
S'.128'
p1069
sg798
S'1.1'
p1070
sg800
S'11.6'
p1071
sg802
S'12.2'
p1072
sg804
S'1.1'
p1073
sg22
S'PF'
p1074
sg806
S'0.9'
p1075
sg808
S'.599'
p1076
sg810
S'14.1'
p1077
sg812
S'.386'
p1078
sg814
S'.071'
p1079
sg28
S'NBA'
p1080
sg817
S'-0.5'
p1081
sg819
S'10.9'
p1082
sg821
S'1.6'
p1083
sg40
S'33'
p1084
sg42
S'OKC'
p1085
sg44
S'81'
p1086
sg826
S'1.7'
p1087
sg828
S'11.8'
p1088
sg830
S'2.0'
p1089
sg64
S'1353'
p1090
sg833
S'0.6'
p1091
sg56
S'2013-14'
p1092
sg836
S'3.6'
p1093
sba(isrc.gp1.models.Advanced
Advanced
p1094
(dp1095
g792
S'8.9'
p1096
sg794
S'13.8'
p1097
sg796
S'.097'
p1098
sg798
S'1.6'
p1099
sg800
S'12.8'
p1100
sg802
S'12.2'
p1101
sg804
S'1.2'
p1102
sg22
S'PF'
p1103
sg806
S'0.6'
p1104
sg808
S'.485'
p1105
sg810
S'15.3'
p1106
sg812
S'.257'
p1107
sg814
S'.237'
p1108
sg28
S'NBA'
p1109
sg817
S'-1.1'
p1110
sg819
S'11.6'
p1111
sg821
S'1.2'
p1112
sg40
S'34'
p1113
sg42
S'OKC'
p1114
sg44
S'66'
p1115
sg826
S'1.8'
p1116
sg828
S'11.2'
p1117
sg830
S'1.0'
p1118
sg64
S'1101'
p1119
sg833
S'0.1'
p1120
sg56
S'2014-15'
p1121
sg836
S'2.2'
p1122
sba(isrc.gp1.models.Advanced
Advanced
p1123
(dp1124
g792
S'12.1'
p1125
sg794
S'24.3'
p1126
sg796
S'.073'
p1127
sg798
S'1.2'
p1128
sg800
S'10.7'
p1129
sg802
S'13.2'
p1130
sg804
S'1.0'
p1131
sg22
S'PF'
p1132
sg806
S'0.1'
p1133
sg808
S'.491'
p1134
sg810
S'14.2'
p1135
sg812
S'.345'
p1136
sg814
S'.024'
p1137
sg28
S'NBA'
p1138
sg817
S'-1.9'
p1139
sg819
S'8.3'
p1140
sg821
S'0.5'
p1141
sg40
S'35'
p1142
sg42
S'OKC'
p1143
sg44
S'42'
p1144
sg826
S'2.0'
p1145
sg828
S'8.6'
p1146
sg830
S'0.3'
p1147
sg64
S'515'
p1148
sg833
S'-0.9'
p1149
sg56
S'2015-16'
p1150
sg836
S'0.8'
p1151
sbasS'_per36Minutes'
p1152
(lp1153
(isrc.gp1.models.Per36Minutes
Per36Minutes
p1154
(dp1155
g8
S'4.0'
p1156
sg10
S'0.1'
p1157
sg12
S'.537'
p1158
sg14
S'0.8'
p1159
sg16
S'.000'
p1160
sg18
S'0.0'
p1161
sg20
S'11.9'
p1162
sg22
g23
sg24
S'.703'
p1163
sg28
S'NBA'
p1164
sg30
S'0.9'
p1165
sg32
S'9.1'
p1166
sg34
S'6.5'
p1167
sg36
S'3.0'
p1168
sg38
S'9.7'
p1169
sg40
S'24'
p1170
sg42
S'SEA'
p1171
sg44
S'82'
p1172
sg46
S'1.3'
p1173
sg48
S'4.9'
p1174
sg50
S'2.1'
p1175
sg52
S'9.1'
p1176
sg54
S'5.7'
p1177
sg56
S'2004-05'
p1178
sg58
S'4.9'
p1179
sg60
S'1.6'
p1180
sg62
S'.541'
p1181
sg64
S'1396'
p1182
sg66
g67
sba(isrc.gp1.models.Per36Minutes
Per36Minutes
p1183
(dp1184
g8
S'3.6'
p1185
sg10
S'0.1'
p1186
sg12
S'.525'
p1187
sg14
S'1.8'
p1188
sg16
S'.000'
p1189
sg18
S'0.0'
p1190
sg20
S'12.3'
p1191
sg22
S'PF'
p1192
sg24
S'.699'
p1193
sg28
S'NBA'
p1194
sg30
S'0.5'
p1195
sg32
S'9.8'
p1196
sg34
S'5.3'
p1197
sg36
S'2.8'
p1198
sg38
S'9.1'
p1199
sg40
S'25'
p1200
sg42
S'SEA'
p1201
sg44
S'66'
p1202
sg46
S'0.9'
p1203
sg48
S'5.1'
p1204
sg50
S'2.0'
p1205
sg52
S'9.7'
p1206
sg54
S'5.6'
p1207
sg56
S'2005-06'
p1208
sg58
S'5.1'
p1209
sg60
S'1.9'
p1210
sg62
S'.529'
p1211
sg64
S'1448'
p1212
sg66
S'27'
p1213
sba(isrc.gp1.models.Per36Minutes
Per36Minutes
p1214
(dp1215
g8
S'3.5'
p1216
sg10
S'0.0'
p1217
sg12
S'.500'
p1218
sg14
S'1.2'
p1219
sg16
S'.000'
p1220
sg18
S'0.0'
p1221
sg20
S'12.0'
p1222
sg22
g23
sg24
S'.774'
p1223
sg28
S'NBA'
p1224
sg30
S'0.7'
p1225
sg32
S'9.6'
p1226
sg34
S'4.4'
p1227
sg36
S'3.0'
p1228
sg38
S'10.1'
p1229
sg40
S'26'
p1230
sg42
S'SEA'
p1231
sg44
S'82'
p1232
sg46
S'1.0'
p1233
sg48
S'4.8'
p1234
sg50
S'2.3'
p1235
sg52
S'9.6'
p1236
sg54
S'6.6'
p1237
sg56
S'2006-07'
p1238
sg58
S'4.8'
p1239
sg60
S'1.9'
p1240
sg62
S'.502'
p1241
sg64
S'2378'
p1242
sg66
S'56'
p1243
sba(isrc.gp1.models.Per36Minutes
Per36Minutes
p1244
(dp1245
g8
S'4.1'
p1246
sg10
S'0.0'
p1247
sg12
S'.502'
p1248
sg14
S'1.8'
p1249
sg16
S'.000'
p1250
sg18
S'0.0'
p1251
sg20
S'12.4'
p1252
sg22
S'PF'
p1253
sg24
S'.737'
p1254
sg28
S'NBA'
p1255
sg30
S'0.8'
p1256
sg32
S'10.4'
p1257
sg34
S'4.0'
p1258
sg36
S'2.7'
p1259
sg38
S'11.8'
p1260
sg40
S'27'
p1261
sg42
S'SEA'
p1262
sg44
S'78'
p1263
sg46
S'1.0'
p1264
sg48
S'5.2'
p1265
sg50
S'2.0'
p1266
sg52
S'10.3'
p1267
sg54
S'7.7'
p1268
sg56
S'2007-08'
p1269
sg58
S'5.2'
p1270
sg60
S'1.9'
p1271
sg62
S'.504'
p1272
sg64
S'2223'
p1273
sg66
S'35'
p1274
sba(isrc.gp1.models.Per36Minutes
Per36Minutes
p1275
(dp1276
g8
S'3.6'
p1277
sg10
S'0.0'
p1278
sg12
S'.568'
p1279
sg14
S'1.3'
p1280
sg16
S'.000'
p1281
sg18
S'0.0'
p1282
sg20
S'11.5'
p1283
sg22
g23
sg24
S'.721'
p1284
sg28
S'NBA'
p1285
sg30
S'1.0'
p1286
sg32
S'8.4'
p1287
sg34
S'4.7'
p1288
sg36
S'2.7'
p1289
sg38
S'9.6'
p1290
sg40
S'28'
p1291
sg42
S'OKC'
p1292
sg44
S'71'
p1293
sg46
S'1.0'
p1294
sg48
S'4.8'
p1295
sg50
S'1.9'
p1296
sg52
S'8.4'
p1297
sg54
S'6.1'
p1298
sg56
S'2008-09'
p1299
sg58
S'4.8'
p1300
sg60
S'1.4'
p1301
sg62
S'.570'
p1302
sg64
S'1831'
p1303
sg66
S'40'
p1304
sba(isrc.gp1.models.Per36Minutes
Per36Minutes
p1305
(dp1306
g8
S'3.5'
p1307
sg10
S'0.1'
p1308
sg12
S'.589'
p1309
sg14
S'0.9'
p1310
sg16
S'.250'
p1311
sg18
S'0.0'
p1312
sg20
S'10.2'
p1313
sg22
g23
sg24
S'.692'
p1314
sg28
S'NBA'
p1315
sg30
S'0.9'
p1316
sg32
S'7.1'
p1317
sg34
S'5.3'
p1318
sg36
S'2.5'
p1319
sg38
S'8.9'
p1320
sg40
S'29'
p1321
sg42
S'OKC'
p1322
sg44
S'75'
p1323
sg46
S'1.1'
p1324
sg48
S'4.2'
p1325
sg50
S'1.7'
p1326
sg52
S'7.1'
p1327
sg54
S'5.4'
p1328
sg56
S'2009-10'
p1329
sg58
S'4.2'
p1330
sg60
S'1.5'
p1331
sg62
S'.593'
p1332
sg64
S'1557'
p1333
sg66
g216
sba(isrc.gp1.models.Per36Minutes
Per36Minutes
p1334
(dp1335
g8
S'2.8'
p1336
sg10
S'0.0'
p1337
sg12
S'.566'
p1338
sg14
S'1.6'
p1339
sg16
g222
sg18
S'0.0'
p1340
sg20
S'7.8'
p1341
sg22
g23
sg24
S'.753'
p1342
sg28
S'NBA'
p1343
sg30
S'1.0'
p1344
sg32
S'5.7'
p1345
sg34
S'5.0'
p1346
sg36
S'1.7'
p1347
sg38
S'7.5'
p1348
sg40
S'30'
p1349
sg42
S'OKC'
p1350
sg44
S'71'
p1351
sg46
S'0.7'
p1352
sg48
S'3.2'
p1353
sg50
S'1.3'
p1354
sg52
S'5.7'
p1355
sg54
S'4.7'
p1356
sg56
S'2010-11'
p1357
sg58
S'3.2'
p1358
sg60
S'1.3'
p1359
sg62
S'.566'
p1360
sg64
S'1524'
p1361
sg66
g101
sba(isrc.gp1.models.Per36Minutes
Per36Minutes
p1362
(dp1363
g8
S'3.3'
p1364
sg10
S'0.0'
p1365
sg12
S'.597'
p1366
sg14
S'2.3'
p1367
sg16
S'.000'
p1368
sg18
S'0.0'
p1369
sg20
S'7.8'
p1370
sg22
S'PF'
p1371
sg24
S'.710'
p1372
sg28
S'NBA'
p1373
sg30
S'0.9'
p1374
sg32
S'5.5'
p1375
sg34
S'4.2'
p1376
sg36
S'1.7'
p1377
sg38
S'7.5'
p1378
sg40
S'31'
p1379
sg42
S'OKC'
p1380
sg44
S'63'
p1381
sg46
S'0.8'
p1382
sg48
S'3.3'
p1383
sg50
S'1.2'
p1384
sg52
S'5.5'
p1385
sg54
S'4.3'
p1386
sg56
S'2011-12'
p1387
sg58
S'3.3'
p1388
sg60
S'1.7'
p1389
sg62
S'.600'
p1390
sg64
S'1307'
p1391
sg66
g19
sba(isrc.gp1.models.Per36Minutes
Per36Minutes
p1392
(dp1393
g8
S'2.8'
p1394
sg10
S'0.1'
p1395
sg12
S'.595'
p1396
sg14
S'2.8'
p1397
sg16
S'.000'
p1398
sg18
S'0.0'
p1399
sg20
S'9.4'
p1400
sg22
g23
sg24
S'.769'
p1401
sg28
S'NBA'
p1402
sg30
S'1.2'
p1403
sg32
S'6.7'
p1404
sg34
S'4.5'
p1405
sg36
S'1.8'
p1406
sg38
S'7.6'
p1407
sg40
S'32'
p1408
sg42
S'OKC'
p1409
sg44
S'81'
p1410
sg46
S'0.7'
p1411
sg48
S'4.0'
p1412
sg50
S'1.4'
p1413
sg52
S'6.6'
p1414
sg54
S'4.8'
p1415
sg56
S'2012-13'
p1416
sg58
S'4.0'
p1417
sg60
S'1.6'
p1418
sg62
S'.603'
p1419
sg64
S'1583'
p1420
sg66
g101
sba(isrc.gp1.models.Per36Minutes
Per36Minutes
p1421
(dp1422
g8
S'3.1'
p1423
sg10
S'0.5'
p1424
sg12
S'.556'
p1425
sg14
S'2.8'
p1426
sg16
S'.235'
p1427
sg18
S'0.1'
p1428
sg20
S'9.0'
p1429
sg22
S'PF'
p1430
sg24
S'.710'
p1431
sg28
S'NBA'
p1432
sg30
S'0.8'
p1433
sg32
S'6.4'
p1434
sg34
S'5.0'
p1435
sg36
S'2.5'
p1436
sg38
S'7.8'
p1437
sg40
S'33'
p1438
sg42
S'OKC'
p1439
sg44
S'81'
p1440
sg46
S'0.7'
p1441
sg48
S'3.5'
p1442
sg50
S'1.8'
p1443
sg52
S'6.0'
p1444
sg54
S'4.7'
p1445
sg56
S'2013-14'
p1446
sg58
S'3.6'
p1447
sg60
S'1.9'
p1448
sg62
S'.580'
p1449
sg64
S'1353'
p1450
sg66
g19
sba(isrc.gp1.models.Per36Minutes
Per36Minutes
p1451
(dp1452
g8
S'2.9'
p1453
sg10
S'2.0'
p1454
sg12
S'.419'
p1455
sg14
S'2.9'
p1456
sg16
S'.267'
p1457
sg18
S'0.5'
p1458
sg20
S'8.9'
p1459
sg22
S'PF'
p1460
sg24
S'.692'
p1461
sg28
S'NBA'
p1462
sg30
S'1.1'
p1463
sg32
S'8.3'
p1464
sg34
S'5.1'
p1465
sg36
S'2.1'
p1466
sg38
S'8.2'
p1467
sg40
S'34'
p1468
sg42
S'OKC'
p1469
sg44
S'66'
p1470
sg46
S'0.8'
p1471
sg48
S'2.9'
p1472
sg50
S'1.5'
p1473
sg52
S'6.3'
p1474
sg54
S'5.2'
p1475
sg56
S'2014-15'
p1476
sg58
S'3.5'
p1477
sg60
S'1.5'
p1478
sg62
S'.466'
p1479
sg64
S'1101'
p1480
sg66
g101
sba(isrc.gp1.models.Per36Minutes
Per36Minutes
p1481
(dp1482
g8
S'3.8'
p1483
sg10
S'0.1'
p1484
sg12
S'.440'
p1485
sg14
S'2.3'
p1486
sg16
S'.000'
p1487
sg18
S'0.0'
p1488
sg20
S'6.6'
p1489
sg22
S'PF'
p1490
sg24
S'.724'
p1491
sg28
S'NBA'
p1492
sg30
S'0.8'
p1493
sg32
S'5.9'
p1494
sg34
S'5.6'
p1495
sg36
S'2.0'
p1496
sg38
S'8.7'
p1497
sg40
S'35'
p1498
sg42
S'OKC'
p1499
sg44
S'42'
p1500
sg46
S'1.0'
p1501
sg48
S'2.6'
p1502
sg50
S'1.5'
p1503
sg52
S'5.7'
p1504
sg54
S'4.9'
p1505
sg56
S'2015-16'
p1506
sg58
S'2.6'
p1507
sg60
S'2.2'
p1508
sg62
S'.451'
p1509
sg64
S'515'
p1510
sg66
g101
sbasS'_fromYear'
p1511
S'2005'
p1512
sS'_url'
p1513
S'http://www.basketball-reference.com/players/c/collini01.html'
p1514
sS'_perGame'
p1515
(isrc.gp1.models.PerGame
PerGame
p1516
(dp1517
g8
S'1.3'
p1518
sg10
S'0.0'
p1519
sg12
S'.440'
p1520
sS'_effectiveFieldGalPercentage'
p1521
S'.440'
p1522
sg14
S'0.8'
p1523
sg16
S'.000'
p1524
sg18
S'0.0'
p1525
sg20
S'2.3'
p1526
sg22
S'PF'
p1527
sg24
S'.724'
p1528
sg28
S'NBA'
p1529
sg30
S'0.3'
p1530
sg34
S'1.9'
p1531
sS'_fieldGoalsttempted'
p1532
S'2.0'
p1533
sg36
S'0.7'
p1534
sg38
S'3.0'
p1535
sg40
S'35'
p1536
sg42
S'OKC'
p1537
sg44
S'42'
p1538
sg46
S'0.3'
p1539
sg48
S'0.9'
p1540
sg50
S'0.5'
p1541
sg52
S'2.0'
p1542
sg54
S'1.7'
p1543
sg56
S'2015-16'
p1544
sg58
S'0.9'
p1545
sg60
S'0.7'
p1546
sg62
S'.451'
p1547
sg64
S'12.3'
p1548
sg66
g101
sbsS'_weight'
p1549
S'255'
p1550
sS'_dob'
p1551
S'26-10-1980'
p1552
sS'_salary'
p1553
(lp1554
(isrc.gp1.models.Salary
Salary
p1555
(dp1556
g42
S'Seattle SuperSonics'
p1557
sg28
S'NBA'
p1558
sg1553
S'$1,578,240'
p1559
sg56
S'2003-04'
p1560
sba(isrc.gp1.models.Salary
Salary
p1561
(dp1562
g42
S'Seattle SuperSonics'
p1563
sg28
S'NBA'
p1564
sg1553
S'$1,969,680'
p1565
sg56
S'2004-05'
p1566
sba(isrc.gp1.models.Salary
Salary
p1567
(dp1568
g42
S'Seattle SuperSonics'
p1569
sg28
S'NBA'
p1570
sg1553
S'$1,815,000'
p1571
sg56
S'2005-06'
p1572
sba(isrc.gp1.models.Salary
Salary
p1573
(dp1574
g42
S'Seattle SuperSonics'
p1575
sg28
S'NBA'
p1576
sg1553
S'$2,501,070'
p1577
sg56
S'2006-07'
p1578
sba(isrc.gp1.models.Salary
Salary
p1579
(dp1580
g42
S'Seattle SuperSonics'
p1581
sg28
S'NBA'
p1582
sg1553
S'$5,750,000'
p1583
sg56
S'2007-08'
p1584
sba(isrc.gp1.models.Salary
Salary
p1585
(dp1586
g42
S'Oklahoma City Thunder'
p1587
sg28
S'NBA'
p1588
sg1553
S'$6,350,000'
p1589
sg56
S'2008-09'
p1590
sba(isrc.gp1.models.Salary
Salary
p1591
(dp1592
g42
S'Oklahoma City Thunder'
p1593
sg28
S'NBA'
p1594
sg1553
S'$6,250,000'
p1595
sg56
S'2009-10'
p1596
sba(isrc.gp1.models.Salary
Salary
p1597
(dp1598
g42
S'Oklahoma City Thunder'
p1599
sg28
S'NBA'
p1600
sg1553
S'$13,250,000'
p1601
sg56
S'2010-11'
p1602
sba(isrc.gp1.models.Salary
Salary
p1603
(dp1604
g42
S'Oklahoma City Thunder'
p1605
sg28
S'NBA'
p1606
sg1553
S'$3,272,997'
p1607
sg56
S'2011-12'
p1608
sba(isrc.gp1.models.Salary
Salary
p1609
(dp1610
g42
S'Oklahoma City Thunder'
p1611
sg28
S'NBA'
p1612
sg1553
S'$2,929,332'
p1613
sg56
S'2012-13'
p1614
sba(isrc.gp1.models.Salary
Salary
p1615
(dp1616
g42
S'Oklahoma City Thunder'
p1617
sg28
S'NBA'
p1618
sg1553
S'$2,585,668'
p1619
sg56
S'2013-14'
p1620
sba(isrc.gp1.models.Salary
Salary
p1621
(dp1622
g42
S'Oklahoma City Thunder'
p1623
sg28
S'NBA'
p1624
sg1553
S'$2,242,003'
p1625
sg56
S'2014-15'
p1626
sbasg22
S'F'
p1627
sb.