(isrc.gp1.models.Player
Player
p0
(dp1
S'_experience'
p2
S'NA'
p3
sS'_totals'
p4
(lp5
(isrc.gp1.models.Totals
Totals
p6
(dp7
S'_offensiveRebounds'
p8
g3
sS'_threePointsAttempted'
p9
g3
sS'_fieldGoalsPercentage'
p10
S'.371'
p11
sS'_assist'
p12
S'89'
p13
sS'_threePointsPercentage'
p14
g3
sS'_threePoints'
p15
g3
sS'_points'
p16
S'227'
p17
sS'_position'
p18
S'PG'
p19
sS'_freeThrowsPercentage'
p20
S'.797'
p21
sS'_effectiveFieldGoalPercentage'
p22
S'.371'
p23
sS'_league'
p24
S'NBA'
p25
sS'_steals'
p26
g3
sS'_fieldGoalsAttempted'
p27
S'232'
p28
sS'_personalFouls'
p29
S'84'
p30
sS'_freeThrowsAttempted'
p31
S'69'
p32
sS'_totalRebounds'
p33
S'67'
p34
sS'_age'
p35
S'22'
p36
sS'_team'
p37
S'SDR'
p38
sS'_games'
p39
S'42'
p40
sS'_blocks'
p41
g3
sS'_twoPoints'
p42
S'86'
p43
sS'_freeThrows'
p44
S'55'
p45
sS'_twoPointsAttempted'
p46
S'232'
p47
sS'_defensiveRebounds'
p48
g3
sS'_season'
p49
S'1967-68'
p50
sS'_fieldGoals'
p51
S'86'
p52
sS'_turnOvers'
p53
g3
sS'_twoPointsPercentage'
p54
S'.371'
p55
sS'_minutesPlayed'
p56
S'603'
p57
sS'_gamesStarted'
p58
g3
sba(isrc.gp1.models.Totals
Totals
p59
(dp60
g8
S'5'
p61
sg9
S'2'
p62
sg10
S'.321'
p63
sg12
S'6'
p64
sg14
S'.000'
p65
sg15
S'0'
p66
sg16
S'20'
p67
sg18
g3
sg20
S'.333'
p68
sg22
S'.321'
p69
sg24
S'ABA'
p70
sg26
g3
sg27
S'28'
p71
sg29
S'14'
p72
sg31
g64
sg33
S'8'
p73
sg35
S'23'
p74
sg37
S'TOT'
p75
sg39
S'7'
p76
sg41
g3
sg42
S'9'
p77
sg44
g62
sg46
S'26'
p78
sg48
S'3'
p79
sg49
S'1968-69'
p80
sg51
g77
sg53
g64
sg54
S'.346'
p81
sg56
S'81'
p82
sg58
g3
sba(isrc.gp1.models.Totals
Totals
p83
(dp84
g8
S'4'
p85
sg9
g62
sg10
S'.300'
p86
sg12
g61
sg14
S'.000'
p87
sg15
g66
sg16
S'14'
p88
sg18
g3
sg20
S'.333'
p89
sg22
S'.300'
p90
sg24
S'ABA'
p91
sg26
g3
sg27
S'20'
p92
sg29
S'10'
p93
sg31
g64
sg33
g61
sg35
S'23'
p94
sg37
S'DLC'
p95
sg39
g85
sg41
g3
sg42
g64
sg44
g62
sg46
S'18'
p96
sg48
S'1'
p97
sg49
S'1968-69'
p98
sg51
g64
sg53
g64
sg54
S'.333'
p99
sg56
S'60'
p100
sg58
g3
sba(isrc.gp1.models.Totals
Totals
p101
(dp102
g8
g97
sg9
g66
sg10
S'.375'
p103
sg12
g97
sg14
g3
sg15
g66
sg16
g64
sg18
g3
sg20
g3
sg22
S'.375'
p104
sg24
S'ABA'
p105
sg26
g3
sg27
g73
sg29
g85
sg31
g66
sg33
g79
sg35
S'23'
p106
sg37
S'MMF'
p107
sg39
g79
sg41
g3
sg42
g79
sg44
g66
sg46
g73
sg48
g62
sg49
S'1968-69'
p108
sg51
g79
sg53
g66
sg54
S'.375'
p109
sg56
S'21'
p110
sg58
g3
sba(isrc.gp1.models.Totals
Totals
p111
(dp112
g8
g3
sg9
g3
sg10
g3
sg12
g3
sg14
g3
sg15
g3
sg16
g3
sg18
g3
sg20
g3
sg22
g3
sg24
g3
sg26
g3
sg27
g3
sg29
g3
sg31
g3
sg33
g3
sg35
S'24'
p113
sg37
S'Did Not Play'
p114
sg39
g3
sg41
g3
sg42
g3
sg44
g3
sg46
g3
sg48
g3
sg49
S'1969-70'
p115
sg51
g3
sg53
g3
sg54
g3
sg56
g3
sg58
g3
sba(isrc.gp1.models.Totals
Totals
p116
(dp117
g8
g3
sg9
g3
sg10
S'.430'
p118
sg12
S'113'
p119
sg14
g3
sg15
g3
sg16
S'561'
p120
sg18
S'SG'
p121
sg20
S'.735'
p122
sg22
S'.430'
p123
sg24
S'NBA'
p124
sg26
g3
sg27
S'523'
p125
sg29
S'192'
p126
sg31
S'151'
p127
sg33
S'110'
p128
sg35
S'25'
p129
sg37
S'SFW'
p130
sg39
S'81'
p131
sg41
g3
sg42
S'225'
p132
sg44
S'111'
p133
sg46
S'523'
p134
sg48
g3
sg49
S'1970-71'
p135
sg51
S'225'
p136
sg53
g3
sg54
S'.430'
p137
sg56
S'1183'
p138
sg58
g3
sba(isrc.gp1.models.Totals
Totals
p139
(dp140
g8
g3
sg9
g3
sg10
S'.418'
p141
sg12
S'45'
p142
sg14
g3
sg15
g3
sg16
S'215'
p143
sg18
S'SG'
p144
sg20
S'.836'
p145
sg22
S'.418'
p146
sg24
S'NBA'
p147
sg26
g3
sg27
S'196'
p148
sg29
S'109'
p149
sg31
S'61'
p150
sg33
S'39'
p151
sg35
S'26'
p152
sg37
S'GSW'
p153
sg39
S'65'
p154
sg41
g3
sg42
S'82'
p155
sg44
S'51'
p156
sg46
S'196'
p157
sg48
g3
sg49
S'1971-72'
p158
sg51
S'82'
p159
sg53
g3
sg54
S'.418'
p160
sg56
S'478'
p161
sg58
g3
sba(isrc.gp1.models.Totals
Totals
p162
(dp163
g8
g97
sg9
g66
sg10
S'.375'
p164
sg12
g97
sg14
g3
sg15
g66
sg16
g73
sg18
S'PG'
p165
sg20
S'.667'
p166
sg22
S'.375'
p167
sg24
S'ABA'
p168
sg26
g3
sg27
g73
sg29
g85
sg31
g79
sg33
g97
sg35
S'27'
p169
sg37
S'DLC'
p170
sg39
g79
sg41
g3
sg42
g79
sg44
g62
sg46
g73
sg48
g66
sg49
S'1972-73'
p171
sg51
g79
sg53
g62
sg54
S'.375'
p172
sg56
S'16'
p173
sg58
g3
sbasS'_college'
p174
S'University of Oregon'
p175
sS'_toYear'
p176
S'1973'
p177
sS'_height'
p178
S'6-2'
p179
sS'_active'
p180
I00
sS'_shootingHand'
p181
VRight
p182
sS'_name'
p183
S'Nick Jones'
p184
sS'_per100Possessions'
p185
(lp186
sS'_advanced'
p187
(lp188
(isrc.gp1.models.Advanced
Advanced
p189
(dp190
S'_offensiveReboundPercentage'
p191
g3
sS'_turnOverPercentage'
p192
g3
sS'_winSharesPer48Minutes'
p193
S'.013'
p194
sS'_stealPercentage'
p195
g3
sS'_usagePercentage'
p196
g3
sS'_totalReboundsPercentage'
p197
g3
sS'_defensiveBoxPlusMinus'
p198
g3
sg18
S'PG'
p199
sS'_valueOverReplacementPlayer'
p200
g3
sS'_trueShootingPercentage'
p201
S'.433'
p202
sS'_defensiveReboundPercentage'
p203
g3
sS'_freeThrowsAttempRate'
p204
S'.297'
p205
sS'_threePointsAttempRate'
p206
g3
sg24
S'NBA'
p207
sS'_offensiveBoxPlusMinues'
p208
g3
sS'_assistPercentage'
p209
S'19.4'
p210
sS'_defensiveWinShares'
p211
S'0.5'
p212
sg35
S'22'
p213
sg37
S'SDR'
p214
sg39
S'42'
p215
sS'_blockPercentage'
p216
g3
sS'_playerEfficiencyRating'
p217
S'9.9'
p218
sS'_offensiveWinShares'
p219
S'-0.3'
p220
sg56
S'603'
p221
sS'_boxPlusMinus'
p222
g3
sg49
S'1967-68'
p223
sS'_winShares'
p224
S'0.2'
p225
sba(isrc.gp1.models.Advanced
Advanced
p226
(dp227
g191
g3
sg192
S'16.4'
p228
sg193
S'-0.104'
p229
sg195
g3
sg196
S'17.0'
p230
sg197
S'4.6'
p231
sg198
g3
sg18
g3
sg200
g3
sg201
S'.326'
p232
sg203
g3
sg204
S'.214'
p233
sg206
S'.071'
p234
sg24
S'ABA'
p235
sg208
g3
sg209
S'9.9'
p236
sg211
S'0.0'
p237
sg35
S'23'
p238
sg37
S'TOT'
p239
sg39
g76
sg216
g3
sg217
S'0.3'
p240
sg219
S'-0.2'
p241
sg56
S'81'
p242
sg222
g3
sg49
S'1968-69'
p243
sg224
S'-0.2'
p244
sba(isrc.gp1.models.Advanced
Advanced
p245
(dp246
g191
g3
sg192
S'20.9'
p247
sg193
S'-0.123'
p248
sg195
g3
sg196
S'18.1'
p249
sg197
S'3.8'
p250
sg198
g3
sg18
g3
sg200
g3
sg201
S'.309'
p251
sg203
g3
sg204
S'.300'
p252
sg206
S'.100'
p253
sg24
S'ABA'
p254
sg208
g3
sg209
S'11.2'
p255
sg211
S'0.0'
p256
sg35
S'23'
p257
sg37
S'DLC'
p258
sg39
g85
sg216
g3
sg217
S'-1.6'
p259
sg219
S'-0.2'
p260
sg56
S'60'
p261
sg222
g3
sg49
S'1968-69'
p262
sg224
S'-0.2'
p263
sba(isrc.gp1.models.Advanced
Advanced
p264
(dp265
g191
g3
sg192
S'0.0'
p266
sg193
S'-0.048'
p267
sg195
g3
sg196
S'13.8'
p268
sg197
S'6.7'
p269
sg198
g3
sg18
g3
sg200
g3
sg201
S'.375'
p270
sg203
g3
sg204
S'.000'
p271
sg206
S'.000'
p272
sg24
S'ABA'
p273
sg208
g3
sg209
S'6.3'
p274
sg211
S'0.0'
p275
sg35
S'23'
p276
sg37
S'MMF'
p277
sg39
g79
sg216
g3
sg217
S'5.9'
p278
sg219
S'0.0'
p279
sg56
S'21'
p280
sg222
g3
sg49
S'1968-69'
p281
sg224
S'0.0'
p282
sba(isrc.gp1.models.Advanced
Advanced
p283
(dp284
g191
g3
sg192
g3
sg193
S'.051'
p285
sg195
g3
sg196
g3
sg197
S'4.1'
p286
sg198
g3
sg18
S'SG'
p287
sg200
g3
sg201
S'.476'
p288
sg203
g3
sg204
S'.289'
p289
sg206
g3
sg24
S'NBA'
p290
sg208
g3
sg209
S'13.9'
p291
sg211
S'0.7'
p292
sg35
S'25'
p293
sg37
S'SFW'
p294
sg39
S'81'
p295
sg216
g3
sg217
S'11.4'
p296
sg219
S'0.5'
p297
sg56
S'1183'
p298
sg222
g3
sg49
S'1970-71'
p299
sg224
S'1.3'
p300
sba(isrc.gp1.models.Advanced
Advanced
p301
(dp302
g191
g3
sg192
g3
sg193
S'.073'
p303
sg195
g3
sg196
g3
sg197
S'3.6'
p304
sg198
g3
sg18
S'SG'
p305
sg200
g3
sg201
S'.482'
p306
sg203
g3
sg204
S'.311'
p307
sg206
g3
sg24
S'NBA'
p308
sg208
g3
sg209
S'13.2'
p309
sg211
S'0.5'
p310
sg35
S'26'
p311
sg37
S'GSW'
p312
sg39
S'65'
p313
sg216
g3
sg217
S'9.7'
p314
sg219
S'0.2'
p315
sg56
S'478'
p316
sg222
g3
sg49
S'1971-72'
p317
sg224
S'0.7'
p318
sba(isrc.gp1.models.Advanced
Advanced
p319
(dp320
g191
S'6.1'
p321
sg192
S'17.7'
p322
sg193
S'-0.071'
p323
sg195
g3
sg196
S'27.6'
p324
sg197
S'3.2'
p325
sg198
g3
sg18
S'PG'
p326
sg200
g3
sg201
S'.429'
p327
sg203
S'0.0'
p328
sg204
S'.375'
p329
sg206
S'.000'
p330
sg24
S'ABA'
p331
sg208
g3
sg209
S'9.3'
p332
sg211
S'0.0'
p333
sg35
S'27'
p334
sg37
S'DLC'
p335
sg39
g79
sg216
g3
sg217
S'2.9'
p336
sg219
S'0.0'
p337
sg56
S'16'
p338
sg222
g3
sg49
S'1972-73'
p339
sg224
S'0.0'
p340
sbasS'_per36Minutes'
p341
(lp342
(isrc.gp1.models.Per36Minutes
Per36Minutes
p343
(dp344
g8
g3
sg9
g3
sg10
S'.371'
p345
sg12
S'5.3'
p346
sg14
g3
sg15
g3
sg16
S'13.6'
p347
sg18
S'PG'
p348
sg20
S'.797'
p349
sg24
S'NBA'
p350
sg26
g3
sg27
S'13.9'
p351
sg29
S'5.0'
p352
sg31
S'4.1'
p353
sg33
S'4.0'
p354
sg35
S'22'
p355
sg37
S'SDR'
p356
sg39
S'42'
p357
sg41
g3
sg42
S'5.1'
p358
sg44
S'3.3'
p359
sg46
S'13.9'
p360
sg48
g3
sg49
S'1967-68'
p361
sg51
S'5.1'
p362
sg53
g3
sg54
S'.371'
p363
sg56
S'603'
p364
sg58
g3
sba(isrc.gp1.models.Per36Minutes
Per36Minutes
p365
(dp366
g8
S'2.2'
p367
sg9
S'0.9'
p368
sg10
S'.321'
p369
sg12
S'2.7'
p370
sg14
S'.000'
p371
sg15
S'0.0'
p372
sg16
S'8.9'
p373
sg18
g3
sg20
S'.333'
p374
sg24
S'ABA'
p375
sg26
g3
sg27
S'12.4'
p376
sg29
S'6.2'
p377
sg31
S'2.7'
p378
sg33
S'3.6'
p379
sg35
S'23'
p380
sg37
S'TOT'
p381
sg39
g76
sg41
g3
sg42
S'4.0'
p382
sg44
S'0.9'
p383
sg46
S'11.6'
p384
sg48
S'1.3'
p385
sg49
S'1968-69'
p386
sg51
S'4.0'
p387
sg53
S'2.7'
p388
sg54
S'.346'
p389
sg56
S'81'
p390
sg58
g3
sba(isrc.gp1.models.Per36Minutes
Per36Minutes
p391
(dp392
g8
S'2.4'
p393
sg9
S'1.2'
p394
sg10
S'.300'
p395
sg12
S'3.0'
p396
sg14
S'.000'
p397
sg15
S'0.0'
p398
sg16
S'8.4'
p399
sg18
g3
sg20
S'.333'
p400
sg24
S'ABA'
p401
sg26
g3
sg27
S'12.0'
p402
sg29
S'6.0'
p403
sg31
S'3.6'
p404
sg33
S'3.0'
p405
sg35
S'23'
p406
sg37
S'DLC'
p407
sg39
g85
sg41
g3
sg42
S'3.6'
p408
sg44
S'1.2'
p409
sg46
S'10.8'
p410
sg48
S'0.6'
p411
sg49
S'1968-69'
p412
sg51
S'3.6'
p413
sg53
S'3.6'
p414
sg54
S'.333'
p415
sg56
S'60'
p416
sg58
g3
sba(isrc.gp1.models.Per36Minutes
Per36Minutes
p417
(dp418
g8
S'1.7'
p419
sg9
S'0.0'
p420
sg10
S'.375'
p421
sg12
S'1.7'
p422
sg14
g3
sg15
S'0.0'
p423
sg16
S'10.3'
p424
sg18
g3
sg20
g3
sg24
S'ABA'
p425
sg26
g3
sg27
S'13.7'
p426
sg29
S'6.9'
p427
sg31
S'0.0'
p428
sg33
S'5.1'
p429
sg35
S'23'
p430
sg37
S'MMF'
p431
sg39
g79
sg41
g3
sg42
S'5.1'
p432
sg44
S'0.0'
p433
sg46
S'13.7'
p434
sg48
S'3.4'
p435
sg49
S'1968-69'
p436
sg51
S'5.1'
p437
sg53
S'0.0'
p438
sg54
S'.375'
p439
sg56
S'21'
p440
sg58
g3
sba(isrc.gp1.models.Per36Minutes
Per36Minutes
p441
(dp442
g8
g3
sg9
g3
sg10
S'.430'
p443
sg12
S'3.4'
p444
sg14
g3
sg15
g3
sg16
S'17.1'
p445
sg18
S'SG'
p446
sg20
S'.735'
p447
sg24
S'NBA'
p448
sg26
g3
sg27
S'15.9'
p449
sg29
S'5.8'
p450
sg31
S'4.6'
p451
sg33
S'3.3'
p452
sg35
S'25'
p453
sg37
S'SFW'
p454
sg39
S'81'
p455
sg41
g3
sg42
S'6.8'
p456
sg44
S'3.4'
p457
sg46
S'15.9'
p458
sg48
g3
sg49
S'1970-71'
p459
sg51
S'6.8'
p460
sg53
g3
sg54
S'.430'
p461
sg56
S'1183'
p462
sg58
g3
sba(isrc.gp1.models.Per36Minutes
Per36Minutes
p463
(dp464
g8
g3
sg9
g3
sg10
S'.418'
p465
sg12
S'3.4'
p466
sg14
g3
sg15
g3
sg16
S'16.2'
p467
sg18
S'SG'
p468
sg20
S'.836'
p469
sg24
S'NBA'
p470
sg26
g3
sg27
S'14.8'
p471
sg29
S'8.2'
p472
sg31
S'4.6'
p473
sg33
S'2.9'
p474
sg35
S'26'
p475
sg37
S'GSW'
p476
sg39
S'65'
p477
sg41
g3
sg42
S'6.2'
p478
sg44
S'3.8'
p479
sg46
S'14.8'
p480
sg48
g3
sg49
S'1971-72'
p481
sg51
S'6.2'
p482
sg53
g3
sg54
S'.418'
p483
sg56
S'478'
p484
sg58
g3
sba(isrc.gp1.models.Per36Minutes
Per36Minutes
p485
(dp486
g8
S'2.3'
p487
sg9
S'0.0'
p488
sg10
S'.375'
p489
sg12
S'2.3'
p490
sg14
g3
sg15
S'0.0'
p491
sg16
S'18.0'
p492
sg18
S'PG'
p493
sg20
S'.667'
p494
sg24
S'ABA'
p495
sg26
g3
sg27
S'18.0'
p496
sg29
S'9.0'
p497
sg31
S'6.8'
p498
sg33
S'2.3'
p499
sg35
S'27'
p500
sg37
S'DLC'
p501
sg39
g79
sg41
g3
sg42
S'6.8'
p502
sg44
S'4.5'
p503
sg46
S'18.0'
p504
sg48
S'0.0'
p505
sg49
S'1972-73'
p506
sg51
S'6.8'
p507
sg53
S'4.5'
p508
sg54
S'.375'
p509
sg56
S'16'
p510
sg58
g3
sbasS'_fromYear'
p511
S'1968'
p512
sS'_url'
p513
S'http://www.basketball-reference.com/players/j/jonesni01.html'
p514
sS'_perGame'
p515
(isrc.gp1.models.PerGame
PerGame
p516
(dp517
g8
S'0.3'
p518
sg9
S'0.0'
p519
sg10
S'.375'
p520
sS'_effectiveFieldGalPercentage'
p521
S'.375'
p522
sg12
S'0.3'
p523
sg14
g3
sg15
S'0.0'
p524
sg16
S'2.7'
p525
sg18
S'PG'
p526
sg20
S'.667'
p527
sg24
S'ABA'
p528
sg26
g3
sg29
S'1.3'
p529
sS'_fieldGoalsttempted'
p530
S'2.7'
p531
sg31
S'1.0'
p532
sg33
S'0.3'
p533
sg35
S'27'
p534
sg37
S'DLC'
p535
sg39
g79
sg41
g3
sg42
S'1.0'
p536
sg44
S'0.7'
p537
sg46
S'2.7'
p538
sg48
S'0.0'
p539
sg49
S'1972-73'
p540
sg51
S'1.0'
p541
sg53
S'0.7'
p542
sg54
S'.375'
p543
sg56
S'5.3'
p544
sg58
g3
sbsS'_weight'
p545
S'190'
p546
sS'_dob'
p547
S'28-3-1945'
p548
sS'_salary'
p549
(lp550
sg18
S'G'
p551
sb.