(isrc.gp1.models.Player
Player
p0
(dp1
S'_experience'
p2
S'NA'
p3
sS'_totals'
p4
(lp5
(isrc.gp1.models.Totals
Totals
p6
(dp7
S'_offensiveRebounds'
p8
S'138'
p9
sS'_threePointsAttempted'
p10
S'.497'
p11
sS'_fieldGoalsPercentage'
p12
S'496'
p13
sS'_assist'
p14
S'259'
p15
sS'_threePointsPercentage'
p16
S'.497'
p17
sS'_threePoints'
p18
S'998'
p19
sS'_points'
p20
g3
sS'_position'
p21
S'PG'
p22
sS'_freeThrowsPercentage'
p23
S'553'
p24
sS'_effectiveFieldGoalPercentage'
p25
S'41'
p26
sS'_league'
p27
S'NBA'
p28
sS'_steals'
p29
S'1107'
p30
sS'_fieldGoalsAttempted'
p31
S'.497'
p32
sS'_personalFouls'
p33
g3
sS'_freeThrowsAttempted'
p34
S'239'
p35
sS'_totalRebounds'
p36
S'251'
p37
sS'_age'
p38
S'22'
p39
sS'_team'
p40
S'LAL'
p41
sS'_games'
p42
S'81'
p43
sS'_blocks'
p44
g3
sS'_twoPoints'
p45
S'115'
p46
sS'_freeThrows'
p47
S'198'
p48
sS'_twoPointsAttempted'
p49
S'161'
p50
sS'_defensiveRebounds'
p51
S'7'
p52
sS'_season'
p53
S'1977-78'
p54
sS'_fieldGoals'
p55
S'998'
p56
sS'_turnOvers'
p57
g3
sS'_twoPointsPercentage'
p58
S'.714'
p59
sS'_minutesPlayed'
p60
S'496'
p61
sS'_gamesStarted'
p62
S'2779'
p63
sba(isrc.gp1.models.Totals
Totals
p64
(dp65
g8
S'201'
p66
sg10
S'.542'
p67
sg12
S'623'
p68
sg14
S'250'
p69
sg16
S'.542'
p70
sg18
S'1149'
p71
sg20
g3
sg21
S'PG'
p72
sg23
S'737'
p73
sg25
S'48'
p74
sg27
S'NBA'
p75
sg29
S'1404'
p76
sg31
S'.542'
p77
sg33
g3
sg34
S'231'
p78
sg36
S'231'
p79
sg38
S'23'
p80
sg40
S'LAL'
p81
sg42
S'82'
p82
sg44
g3
sg45
S'158'
p83
sg47
S'183'
p84
sg49
S'204'
p85
sg51
S'17'
p86
sg53
S'1978-79'
p87
sg55
S'1149'
p88
sg57
g3
sg58
S'.775'
p89
sg60
S'623'
p90
sg62
S'3145'
p91
sba(isrc.gp1.models.Totals
Totals
p92
(dp93
g8
S'177'
p94
sg10
S'.125'
p95
sg12
S'1'
p96
sg14
S'147'
p97
sg16
S'623'
p98
sg18
S'8'
p99
sg20
g3
sg21
S'PG'
p100
sg23
S'52'
p101
sg25
S'197'
p102
sg27
S'NBA'
p103
sg29
S'14'
p104
sg31
S'.516'
p105
sg33
S'1446'
p106
sg34
S'.779'
p107
sg36
S'642'
p108
sg38
S'24'
p109
sg40
S'LAL'
p110
sg42
S'82'
p111
sg44
S'288'
p112
sg45
S'1201'
p113
sg47
S'253'
p114
sg49
S'.519'
p115
sg51
S'229'
p116
sg53
S'1979-80'
p117
sg55
S'1209'
p118
sg57
S'241'
p119
sg58
S'.517'
p120
sg60
S'624'
p121
sg62
S'3226'
p122
sba(isrc.gp1.models.Totals
Totals
p123
(dp124
g8
S'168'
p125
sg10
S'.167'
p126
sg12
S'2'
p127
sg14
S'146'
p128
sg16
S'574'
p129
sg18
S'12'
p130
sg20
g3
sg21
S'PG'
p131
sg23
S'64'
p132
sg25
S'196'
p133
sg27
S'NBA'
p134
sg29
S'11'
p135
sg31
S'.476'
p136
sg33
S'1350'
p137
sg34
S'.778'
p138
sg36
S'696'
p139
sg38
S'25'
p140
sg40
S'LAL'
p141
sg42
S'79'
p142
sg44
S'285'
p143
sg45
S'1198'
p144
sg47
S'252'
p145
sg49
S'.479'
p146
sg51
S'232'
p147
sg53
S'1980-81'
p148
sg55
S'1210'
p149
sg57
S'226'
p150
sg58
S'.477'
p151
sg60
S'576'
p152
sg62
S'2962'
p153
sba(isrc.gp1.models.Totals
Totals
p154
(dp155
g8
S'38'
p156
sg10
S'12'
p157
sg12
S'.493'
p158
sg14
S'652'
p159
sg16
S'.250'
p160
sg18
S'3'
p161
sg20
S'1440'
p162
sg21
S'PG'
p163
sg23
S'.808'
p164
sg25
S'.494'
p165
sg27
S'NBA'
p166
sg29
S'132'
p167
sg31
S'1274'
p168
sg33
S'264'
p169
sg34
S'224'
p170
sg36
S'176'
p171
sg38
S'26'
p172
sg40
S'LAL'
p173
sg42
S'82'
p174
sg44
g52
sg45
S'625'
p175
sg47
S'181'
p176
sg49
S'1262'
p177
sg51
S'138'
p178
sg53
S'1981-82'
p179
sg55
S'628'
p180
sg57
S'238'
p181
sg58
S'.495'
p182
sg60
S'3024'
p183
sg62
S'82'
p184
sba(isrc.gp1.models.Totals
Totals
p185
(dp186
g8
S'61'
p187
sg10
S'13'
p188
sg12
S'.475'
p189
sg14
S'566'
p190
sg16
S'.000'
p191
sg18
S'0'
p192
sg20
S'1191'
p193
sg21
S'PG'
p194
sg23
S'.744'
p195
sg25
S'.475'
p196
sg27
S'NBA'
p197
sg29
S'104'
p198
sg31
S'1123'
p199
sg33
S'176'
p200
sg34
S'168'
p201
sg36
S'205'
p202
sg38
S'27'
p203
sg40
S'LAL'
p204
sg42
S'79'
p205
sg44
S'4'
p206
sg45
S'533'
p207
sg47
S'125'
p208
sg49
S'1110'
p209
sg51
S'144'
p210
sg53
S'1982-83'
p211
sg55
S'533'
p212
sg57
S'237'
p213
sg58
S'.480'
p214
sg60
S'2711'
p215
sg62
S'79'
p216
sba(isrc.gp1.models.Totals
Totals
p217
(dp218
g8
S'56'
p219
sg10
S'46'
p220
sg12
S'.462'
p221
sg14
S'914'
p222
sg16
S'.239'
p223
sg18
S'11'
p224
sg20
S'1391'
p225
sg21
S'PG'
p226
sg23
S'.760'
p227
sg25
S'.467'
p228
sg27
S'NBA'
p229
sg29
S'94'
p230
sg31
S'1270'
p231
sg33
S'180'
p232
sg34
S'271'
p233
sg36
S'203'
p234
sg38
S'28'
p235
sg40
S'SDC'
p236
sg42
S'82'
p237
sg44
g206
sg45
S'576'
p238
sg47
S'206'
p239
sg49
S'1224'
p240
sg51
S'147'
p241
sg53
S'1983-84'
p242
sg55
S'587'
p243
sg57
S'257'
p244
sg58
S'.471'
p245
sg60
S'3053'
p246
sg62
S'82'
p247
sba(isrc.gp1.models.Totals
Totals
p248
(dp249
g8
S'55'
p250
sg10
S'99'
p251
sg12
S'.465'
p252
sg14
S'711'
p253
sg16
S'.333'
p254
sg18
S'33'
p255
sg20
S'1395'
p256
sg21
S'PG'
p257
sg23
S'.780'
p258
sg25
S'.478'
p259
sg27
S'NBA'
p260
sg29
S'95'
p261
sg31
S'1281'
p262
sg33
S'175'
p263
sg34
S'218'
p264
sg36
S'218'
p265
sg38
S'29'
p266
sg40
S'LAC'
p267
sg42
S'81'
p268
sg44
g206
sg45
S'563'
p269
sg47
S'170'
p270
sg49
S'1182'
p271
sg51
S'163'
p272
sg53
S'1984-85'
p273
sg55
S'596'
p274
sg57
S'273'
p275
sg58
S'.476'
p276
sg60
S'2894'
p277
sg62
S'81'
p278
sba(isrc.gp1.models.Totals
Totals
p279
(dp280
g8
S'45'
p281
sg10
S'121'
p282
sg12
S'.438'
p283
sg14
S'576'
p284
sg16
S'.347'
p285
sg18
S'42'
p286
sg20
S'979'
p287
sg21
S'PG'
p288
sg23
S'.809'
p289
sg25
S'.460'
p290
sg27
S'NBA'
p291
sg29
S'84'
p292
sg31
S'921'
p293
sg33
S'143'
p294
sg34
S'162'
p295
sg36
S'180'
p296
sg38
S'30'
p297
sg40
S'LAC'
p298
sg42
S'67'
p299
sg44
g161
sg45
S'361'
p300
sg47
S'131'
p301
sg49
S'800'
p302
sg51
S'135'
p303
sg53
S'1985-86'
p304
sg55
S'403'
p305
sg57
S'190'
p306
sg58
S'.451'
p307
sg60
S'2138'
p308
sg62
S'62'
p309
sba(isrc.gp1.models.Totals
Totals
p310
(dp311
g8
g3
sg10
g3
sg12
g3
sg14
g3
sg16
g3
sg18
g3
sg20
g3
sg21
g3
sg23
g3
sg25
g3
sg27
g3
sg29
g3
sg31
g3
sg33
g3
sg34
g3
sg36
g3
sg38
S'31'
p312
sg40
S'Did Not Play\xc2\xa0(injury\xe2\x80\x94knee)'
p313
sg42
g3
sg44
g3
sg45
g3
sg47
g3
sg49
g3
sg51
g3
sg53
S'1986-87'
p314
sg55
g3
sg57
g3
sg58
g3
sg60
g3
sg62
g3
sba(isrc.gp1.models.Totals
Totals
p315
(dp316
g8
g3
sg10
g3
sg12
g3
sg14
g3
sg16
g3
sg18
g3
sg20
g3
sg21
g3
sg23
g3
sg25
g3
sg27
g3
sg29
g3
sg31
g3
sg33
g3
sg34
g3
sg36
g3
sg38
S'32'
p317
sg40
S'Did Not Play\xc2\xa0(injury\xe2\x80\x94knee, achilles)'
p318
sg42
g3
sg44
g3
sg45
g3
sg47
g3
sg49
g3
sg51
g3
sg53
S'1987-88'
p319
sg55
g3
sg57
g3
sg58
g3
sg60
g3
sg62
g3
sba(isrc.gp1.models.Totals
Totals
p320
(dp321
g8
S'13'
p322
sg10
S'29'
p323
sg12
S'.414'
p324
sg14
S'339'
p325
sg16
S'.276'
p326
sg18
g99
sg20
S'362'
p327
sg21
S'PG'
p328
sg23
S'.738'
p329
sg25
S'.424'
p330
sg27
S'NBA'
p331
sg29
S'46'
p332
sg31
S'370'
p333
sg33
S'69'
p334
sg34
S'65'
p335
sg36
S'78'
p336
sg38
S'33'
p337
sg40
S'LAC'
p338
sg42
S'53'
p339
sg44
g192
sg45
S'145'
p340
sg47
S'48'
p341
sg49
S'341'
p342
sg51
S'65'
p343
sg53
S'1988-89'
p344
sg55
S'153'
p345
sg57
S'118'
p346
sg58
S'.425'
p347
sg60
S'1318'
p348
sg62
S'30'
p349
sbasS'_college'
p350
S'Duquesne University'
p351
sS'_toYear'
p352
S'1989'
p353
sS'_height'
p354
S'6-2'
p355
sS'_active'
p356
I00
sS'_shootingHand'
p357
VRight
p358
sS'_name'
p359
S'Norm Nixon'
p360
sS'_per100Possessions'
p361
(lp362
(isrc.gp1.models.Per100Possession
Per100Possession
p363
(dp364
g8
S'2.2'
p365
sg10
S'.497'
p366
sg12
S'8.1'
p367
sS'_offensiveRating'
p368
g3
sg14
S'4.2'
p369
sg16
S'1.9'
p370
sg18
S'16.3'
p371
sg20
g3
sg21
S'PG'
p372
sS'_defensiveRating'
p373
g3
sg23
S'9.0'
p374
sg27
S'NBA'
p375
sg29
S'18.0'
p376
sg31
S'.497'
p377
sg33
g3
sg34
S'3.9'
p378
sg36
S'4.1'
p379
sg38
S'22'
p380
sg40
S'LAL'
p381
sg42
S'81'
p382
sg44
S'100'
p383
sg45
S'2.6'
p384
sg47
S'3.2'
p385
sg49
S'.714'
p386
sg51
S'0.1'
p387
sg53
S'1977-78'
p388
sg55
S'16.3'
p389
sg57
S'103'
p390
sg58
S'0.7'
p391
sg60
S'8.1'
p392
sg62
S'2779'
p393
sba(isrc.gp1.models.Per100Possession
Per100Possession
p394
(dp395
g8
S'2.9'
p396
sg10
S'.542'
p397
sg12
S'9.0'
p398
sg368
g3
sg14
S'3.6'
p399
sg16
S'2.3'
p400
sg18
S'16.6'
p401
sg20
g3
sg21
S'PG'
p402
sg373
g3
sg23
S'10.6'
p403
sg27
S'NBA'
p404
sg29
S'20.2'
p405
sg31
S'.542'
p406
sg33
g3
sg34
S'3.3'
p407
sg36
S'3.3'
p408
sg38
S'23'
p409
sg40
S'LAL'
p410
sg42
S'82'
p411
sg44
S'112'
p412
sg45
S'2.9'
p413
sg47
S'2.6'
p414
sg49
S'.775'
p415
sg51
S'0.2'
p416
sg53
S'1978-79'
p417
sg55
S'16.6'
p418
sg57
S'104'
p419
sg58
S'0.7'
p420
sg60
S'9.0'
p421
sg62
S'3145'
p422
sba(isrc.gp1.models.Per100Possession
Per100Possession
p423
(dp424
g8
S'2.5'
p425
sg10
S'.125'
p426
sg12
S'0.0'
p427
sg368
S'107'
p428
sg14
S'2.1'
p429
sg16
S'8.9'
p430
sg18
S'0.1'
p431
sg20
S'107'
p432
sg21
S'PG'
p433
sg373
g3
sg23
S'0.7'
p434
sg27
S'NBA'
p435
sg29
S'0.2'
p436
sg31
S'.516'
p437
sg33
S'20.7'
p438
sg34
S'.779'
p439
sg36
S'9.2'
p440
sg38
S'24'
p441
sg40
S'LAL'
p442
sg42
S'82'
p443
sg44
S'4.1'
p444
sg45
S'17.2'
p445
sg47
S'3.6'
p446
sg49
S'.519'
p447
sg51
S'3.3'
p448
sg53
S'1979-80'
p449
sg55
S'17.3'
p450
sg57
S'3.4'
p451
sg58
S'2.8'
p452
sg60
S'8.9'
p453
sg62
S'3226'
p454
sba(isrc.gp1.models.Per100Possession
Per100Possession
p455
(dp456
g8
S'2.7'
p457
sg10
S'.167'
p458
sg12
S'0.0'
p459
sg368
S'107'
p460
sg14
S'2.3'
p461
sg16
S'9.1'
p462
sg18
S'0.2'
p463
sg20
S'104'
p464
sg21
S'PG'
p465
sg373
g3
sg23
S'1.0'
p466
sg27
S'NBA'
p467
sg29
S'0.2'
p468
sg31
S'.476'
p469
sg33
S'21.3'
p470
sg34
S'.778'
p471
sg36
S'11.0'
p472
sg38
S'25'
p473
sg40
S'LAL'
p474
sg42
S'79'
p475
sg44
S'4.5'
p476
sg45
S'18.9'
p477
sg47
S'4.0'
p478
sg49
S'.479'
p479
sg51
S'3.7'
p480
sg53
S'1980-81'
p481
sg55
S'19.1'
p482
sg57
S'3.6'
p483
sg58
S'3.1'
p484
sg60
S'9.1'
p485
sg62
S'2962'
p486
sba(isrc.gp1.models.Per100Possession
Per100Possession
p487
(dp488
g8
S'0.6'
p489
sg10
S'0.2'
p490
sg12
S'.493'
p491
sg368
S'109'
p492
sg14
S'10.0'
p493
sg16
S'.250'
p494
sg18
S'0.0'
p495
sg20
S'22.2'
p496
sg21
S'PG'
p497
sg373
S'109'
p498
sg23
S'.808'
p499
sg27
S'NBA'
p500
sg29
S'2.0'
p501
sg31
S'19.6'
p502
sg33
S'4.1'
p503
sg34
S'3.4'
p504
sg36
S'2.7'
p505
sg38
S'26'
p506
sg40
S'LAL'
p507
sg42
S'82'
p508
sg44
S'0.1'
p509
sg45
S'9.6'
p510
sg47
S'2.8'
p511
sg49
S'19.4'
p512
sg51
S'2.1'
p513
sg53
S'1981-82'
p514
sg55
S'9.7'
p515
sg57
S'3.7'
p516
sg58
S'.495'
p517
sg60
S'3024'
p518
sg62
S'82'
p519
sba(isrc.gp1.models.Per100Possession
Per100Possession
p520
(dp521
g8
S'1.0'
p522
sg10
S'0.2'
p523
sg12
S'.475'
p524
sg368
S'103'
p525
sg14
S'9.7'
p526
sg16
S'.000'
p527
sg18
S'0.0'
p528
sg20
S'20.3'
p529
sg21
S'PG'
p530
sg373
S'109'
p531
sg23
S'.744'
p532
sg27
S'NBA'
p533
sg29
S'1.8'
p534
sg31
S'19.2'
p535
sg33
S'3.0'
p536
sg34
S'2.9'
p537
sg36
S'3.5'
p538
sg38
S'27'
p539
sg40
S'LAL'
p540
sg42
S'79'
p541
sg44
S'0.1'
p542
sg45
S'9.1'
p543
sg47
S'2.1'
p544
sg49
S'18.9'
p545
sg51
S'2.5'
p546
sg53
S'1982-83'
p547
sg55
S'9.1'
p548
sg57
S'4.0'
p549
sg58
S'.480'
p550
sg60
S'2711'
p551
sg62
S'79'
p552
sba(isrc.gp1.models.Per100Possession
Per100Possession
p553
(dp554
g8
S'0.9'
p555
sg10
S'0.7'
p556
sg12
S'.462'
p557
sg368
S'111'
p558
sg14
S'14.2'
p559
sg16
S'.239'
p560
sg18
S'0.2'
p561
sg20
S'21.6'
p562
sg21
S'PG'
p563
sg373
S'115'
p564
sg23
S'.760'
p565
sg27
S'NBA'
p566
sg29
S'1.5'
p567
sg31
S'19.7'
p568
sg33
S'2.8'
p569
sg34
S'4.2'
p570
sg36
S'3.2'
p571
sg38
S'28'
p572
sg40
S'SDC'
p573
sg42
S'82'
p574
sg44
S'0.1'
p575
sg45
S'9.0'
p576
sg47
S'3.2'
p577
sg49
S'19.0'
p578
sg51
S'2.3'
p579
sg53
S'1983-84'
p580
sg55
S'9.1'
p581
sg57
S'4.0'
p582
sg58
S'.471'
p583
sg60
S'3053'
p584
sg62
S'82'
p585
sba(isrc.gp1.models.Per100Possession
Per100Possession
p586
(dp587
g8
S'0.9'
p588
sg10
S'1.6'
p589
sg12
S'.465'
p590
sg368
S'105'
p591
sg14
S'11.7'
p592
sg16
S'.333'
p593
sg18
S'0.5'
p594
sg20
S'22.9'
p595
sg21
S'PG'
p596
sg373
S'113'
p597
sg23
S'.780'
p598
sg27
S'NBA'
p599
sg29
S'1.6'
p600
sg31
S'21.0'
p601
sg33
S'2.9'
p602
sg34
S'3.6'
p603
sg36
S'3.6'
p604
sg38
S'29'
p605
sg40
S'LAC'
p606
sg42
S'81'
p607
sg44
S'0.1'
p608
sg45
S'9.3'
p609
sg47
S'2.8'
p610
sg49
S'19.4'
p611
sg51
S'2.7'
p612
sg53
S'1984-85'
p613
sg55
S'9.8'
p614
sg57
S'4.5'
p615
sg58
S'.476'
p616
sg60
S'2894'
p617
sg62
S'81'
p618
sba(isrc.gp1.models.Per100Possession
Per100Possession
p619
(dp620
g8
S'1.0'
p621
sg10
S'2.6'
p622
sg12
S'.438'
p623
sg368
S'104'
p624
sg14
S'12.6'
p625
sg16
S'.347'
p626
sg18
S'0.9'
p627
sg20
S'21.4'
p628
sg21
S'PG'
p629
sg373
S'114'
p630
sg23
S'.809'
p631
sg27
S'NBA'
p632
sg29
S'1.8'
p633
sg31
S'20.1'
p634
sg33
S'3.1'
p635
sg34
S'3.5'
p636
sg36
S'3.9'
p637
sg38
S'30'
p638
sg40
S'LAC'
p639
sg42
S'67'
p640
sg44
S'0.1'
p641
sg45
S'7.9'
p642
sg47
S'2.9'
p643
sg49
S'17.5'
p644
sg51
S'3.0'
p645
sg53
S'1985-86'
p646
sg55
S'8.8'
p647
sg57
S'4.2'
p648
sg58
S'.451'
p649
sg60
S'2138'
p650
sg62
S'62'
p651
sba(isrc.gp1.models.Per100Possession
Per100Possession
p652
(dp653
g8
S'0.5'
p654
sg10
S'1.0'
p655
sg12
S'.414'
p656
sg368
S'94'
p657
sg14
S'11.8'
p658
sg16
S'.276'
p659
sg18
S'0.3'
p660
sg20
S'12.6'
p661
sg21
S'PG'
p662
sg373
S'115'
p663
sg23
S'.738'
p664
sg27
S'NBA'
p665
sg29
S'1.6'
p666
sg31
S'12.9'
p667
sg33
S'2.4'
p668
sg34
S'2.3'
p669
sg36
S'2.7'
p670
sg38
S'33'
p671
sg40
S'LAC'
p672
sg42
S'53'
p673
sg44
S'0.0'
p674
sg45
S'5.1'
p675
sg47
S'1.7'
p676
sg49
S'11.9'
p677
sg51
S'2.3'
p678
sg53
S'1988-89'
p679
sg55
S'5.3'
p680
sg57
S'4.1'
p681
sg58
S'.425'
p682
sg60
S'1318'
p683
sg62
S'30'
p684
sbasS'_advanced'
p685
(lp686
(isrc.gp1.models.Advanced
Advanced
p687
(dp688
S'_offensiveReboundPercentage'
p689
S'7.0'
p690
sS'_turnOverPercentage'
p691
S'18.5'
p692
sS'_winSharesPer48Minutes'
p693
S'0.2'
p694
sS'_stealPercentage'
p695
S'0.1'
p696
sS'_usagePercentage'
p697
S'2.3'
p698
sS'_totalReboundsPercentage'
p699
S'26.0'
p700
sS'_defensiveBoxPlusMinus'
p701
S'-0.6'
p702
sg21
S'PG'
p703
sS'_valueOverReplacementPlayer'
p704
g3
sS'_trueShootingPercentage'
p705
S'.518'
p706
sS'_defensiveReboundPercentage'
p707
S'4.4'
p708
sS'_freeThrowsAttempRate'
p709
S'1.6'
p710
sS'_threePointsAttempRate'
p711
S'.161'
p712
sg27
S'NBA'
p713
sS'_offensiveBoxPlusMinues'
p714
S'-0.9'
p715
sS'_assistPercentage'
p716
S'2.2'
p717
sS'_defensiveWinShares'
p718
S'4.5'
p719
sg38
S'22'
p720
sg40
S'LAL'
p721
sg42
S'81'
p722
sS'_blockPercentage'
p723
S'19.0'
p724
sS'_playerEfficiencyRating'
p725
S'14.1'
p726
sS'_offensiveWinShares'
p727
S'2.1'
p728
sg60
S'2779'
p729
sS'_boxPlusMinus'
p730
S'1.0'
p731
sg53
S'1977-78'
p732
sS'_winShares'
p733
S'.078'
p734
sba(isrc.gp1.models.Advanced
Advanced
p735
(dp736
g689
S'6.0'
p737
sg691
S'18.7'
p738
sg693
S'2.5'
p739
sg695
S'0.3'
p740
sg697
S'6.5'
p741
sg699
S'30.5'
p742
sg701
S'1.9'
p743
sg21
S'PG'
p744
sg704
g3
sg705
S'.567'
p745
sg707
S'4.0'
p746
sg709
S'1.8'
p747
sg711
S'.178'
p748
sg27
S'NBA'
p749
sg714
S'-0.6'
p750
sg716
S'2.9'
p751
sg718
S'9.6'
p752
sg38
S'23'
p753
sg40
S'LAL'
p754
sg42
S'82'
p755
sg723
S'15.7'
p756
sg725
S'18.2'
p757
sg727
S'3.1'
p758
sg60
S'3145'
p759
sg730
S'3.1'
p760
sg53
S'1978-79'
p761
sg733
S'.146'
p762
sba(isrc.gp1.models.Advanced
Advanced
p763
(dp764
g689
S'1.9'
p765
sg691
S'17.9'
p766
sg693
S'.100'
p767
sg695
S'2.1'
p768
sg697
S'20.0'
p769
sg699
S'3.9'
p770
sg701
S'-1.4'
p771
sg21
S'PG'
p772
sg704
S'0.9'
p773
sg705
S'.548'
p774
sg707
S'5.5'
p775
sg709
S'.209'
p776
sg711
S'.007'
p777
sg27
S'NBA'
p778
sg714
S'0.5'
p779
sg716
S'25.3'
p780
sg718
S'2.7'
p781
sg38
S'24'
p782
sg40
S'LAL'
p783
sg42
S'82'
p784
sg723
S'0.2'
p785
sg725
S'14.9'
p786
sg727
S'4.1'
p787
sg60
S'3226'
p788
sg730
S'-0.9'
p789
sg53
S'1979-80'
p790
sg733
S'6.7'
p791
sba(isrc.gp1.models.Advanced
Advanced
p792
(dp793
g689
S'2.5'
p794
sg691
S'17.7'
p795
sg693
S'.089'
p796
sg695
S'2.3'
p797
sg697
S'21.8'
p798
sg699
S'4.2'
p799
sg701
S'-1.4'
p800
sg21
S'PG'
p801
sg704
S'0.6'
p802
sg705
S'.511'
p803
sg707
S'5.8'
p804
sg709
S'.208'
p805
sg711
S'.010'
p806
sg27
S'NBA'
p807
sg714
S'0.2'
p808
sg716
S'30.9'
p809
sg718
S'2.7'
p810
sg38
S'25'
p811
sg40
S'LAL'
p812
sg42
S'79'
p813
sg723
S'0.2'
p814
sg725
S'15.5'
p815
sg727
S'2.8'
p816
sg60
S'2962'
p817
sg730
S'-1.2'
p818
sg53
S'1980-81'
p819
sg733
S'5.5'
p820
sba(isrc.gp1.models.Advanced
Advanced
p821
(dp822
g689
S'1.4'
p823
sg691
S'14.8'
p824
sg693
S'.104'
p825
sg695
S'2.0'
p826
sg697
S'21.1'
p827
sg699
S'3.2'
p828
sg701
S'-1.9'
p829
sg21
S'PG'
p830
sg704
S'0.4'
p831
sg705
S'.525'
p832
sg707
S'4.8'
p833
sg709
S'.176'
p834
sg711
S'.009'
p835
sg27
S'NBA'
p836
sg714
S'0.5'
p837
sg716
S'27.7'
p838
sg718
S'2.4'
p839
sg38
S'26'
p840
sg40
S'LAL'
p841
sg42
S'82'
p842
sg723
S'0.1'
p843
sg725
S'15.3'
p844
sg727
S'4.2'
p845
sg60
S'3024'
p846
sg730
S'-1.4'
p847
sg53
S'1981-82'
p848
sg733
S'6.6'
p849
sba(isrc.gp1.models.Advanced
Advanced
p850
(dp851
g689
S'2.6'
p852
sg691
S'16.5'
p853
sg693
S'.069'
p854
sg695
S'1.8'
p855
sg697
S'20.9'
p856
sg699
S'4.2'
p857
sg701
S'-2.0'
p858
sg21
S'PG'
p859
sg704
S'-0.1'
p860
sg705
S'.498'
p861
sg707
S'5.6'
p862
sg709
S'.150'
p863
sg711
S'.012'
p864
sg27
S'NBA'
p865
sg714
S'-0.2'
p866
sg716
S'25.8'
p867
sg718
S'1.4'
p868
sg38
S'27'
p869
sg40
S'LAL'
p870
sg42
S'79'
p871
sg723
S'0.1'
p872
sg725
S'13.9'
p873
sg727
S'2.5'
p874
sg60
S'2711'
p875
sg730
S'-2.2'
p876
sg53
S'1982-83'
p877
sg733
S'3.9'
p878
sba(isrc.gp1.models.Advanced
Advanced
p879
(dp880
g689
S'2.1'
p881
sg691
S'15.6'
p882
sg693
S'.085'
p883
sg695
S'1.5'
p884
sg697
S'21.5'
p885
sg699
S'3.8'
p886
sg701
S'-3.2'
p887
sg21
S'PG'
p888
sg704
S'0.6'
p889
sg705
S'.501'
p890
sg707
S'5.4'
p891
sg709
S'.213'
p892
sg711
S'.036'
p893
sg27
S'NBA'
p894
sg714
S'2.0'
p895
sg716
S'41.1'
p896
sg718
S'0.3'
p897
sg38
S'28'
p898
sg40
S'SDC'
p899
sg42
S'82'
p900
sg723
S'0.1'
p901
sg725
S'16.9'
p902
sg727
S'5.1'
p903
sg60
S'3053'
p904
sg730
S'-1.2'
p905
sg53
S'1983-84'
p906
sg733
S'5.4'
p907
sba(isrc.gp1.models.Advanced
Advanced
p908
(dp909
g689
S'2.2'
p910
sg691
S'16.5'
p911
sg693
S'.061'
p912
sg695
S'1.6'
p913
sg697
S'23.2'
p914
sg699
S'4.2'
p915
sg701
S'-2.4'
p916
sg21
S'PG'
p917
sg704
S'0.5'
p918
sg705
S'.507'
p919
sg707
S'6.0'
p920
sg709
S'.170'
p921
sg711
S'.077'
p922
sg27
S'NBA'
p923
sg714
S'1.1'
p924
sg716
S'35.7'
p925
sg718
S'1.2'
p926
sg38
S'29'
p927
sg40
S'LAC'
p928
sg42
S'81'
p929
sg723
S'0.1'
p930
sg725
S'15.6'
p931
sg727
S'2.5'
p932
sg60
S'2894'
p933
sg730
S'-1.3'
p934
sg53
S'1984-85'
p935
sg733
S'3.7'
p936
sba(isrc.gp1.models.Advanced
Advanced
p937
(dp938
g689
S'2.3'
p939
sg691
S'16.1'
p940
sg693
S'.046'
p941
sg695
S'1.8'
p942
sg697
S'22.2'
p943
sg699
S'4.7'
p944
sg701
S'-3.2'
p945
sg21
S'PG'
p946
sg704
S'0.1'
p947
sg705
S'.493'
p948
sg707
S'7.1'
p949
sg709
S'.176'
p950
sg711
S'.131'
p951
sg27
S'NBA'
p952
sg714
S'1.3'
p953
sg716
S'40.3'
p954
sg718
S'0.3'
p955
sg38
S'30'
p956
sg40
S'LAC'
p957
sg42
S'67'
p958
sg723
S'0.1'
p959
sg725
S'15.7'
p960
sg727
S'1.7'
p961
sg60
S'2138'
p962
sg730
S'-1.9'
p963
sg53
S'1985-86'
p964
sg733
S'2.0'
p965
sba(isrc.gp1.models.Advanced
Advanced
p966
(dp967
g689
S'1.1'
p968
sg691
S'22.8'
p969
sg693
S'-0.013'
p970
sg695
S'1.6'
p971
sg697
S'15.5'
p972
sg699
S'3.2'
p973
sg701
S'-3.8'
p974
sg21
S'PG'
p975
sg704
S'-1.9'
p976
sg705
S'.454'
p977
sg707
S'5.3'
p978
sg709
S'.176'
p979
sg711
S'.078'
p980
sg27
S'NBA'
p981
sg714
S'-4.0'
p982
sg716
S'33.3'
p983
sg718
S'0.3'
p984
sg38
S'33'
p985
sg40
S'LAC'
p986
sg42
S'53'
p987
sg723
S'0.0'
p988
sg725
S'9.8'
p989
sg727
S'-0.6'
p990
sg60
S'1318'
p991
sg730
S'-7.8'
p992
sg53
S'1988-89'
p993
sg733
S'-0.4'
p994
sbasS'_per36Minutes'
p995
(lp996
(isrc.gp1.models.Per36Minutes
Per36Minutes
p997
(dp998
g8
S'1.8'
p999
sg10
S'.497'
p1000
sg12
S'6.4'
p1001
sg14
S'3.4'
p1002
sg16
S'1.5'
p1003
sg18
S'12.9'
p1004
sg20
g3
sg21
S'PG'
p1005
sg23
S'7.2'
p1006
sg27
S'NBA'
p1007
sg29
S'14.3'
p1008
sg31
S'.497'
p1009
sg33
g3
sg34
S'3.1'
p1010
sg36
S'3.3'
p1011
sg38
S'22'
p1012
sg40
S'LAL'
p1013
sg42
S'81'
p1014
sg44
g3
sg45
S'2.1'
p1015
sg47
S'2.6'
p1016
sg49
S'.714'
p1017
sg51
S'0.1'
p1018
sg53
S'1977-78'
p1019
sg55
S'12.9'
p1020
sg57
g3
sg58
S'0.5'
p1021
sg60
S'6.4'
p1022
sg62
S'2779'
p1023
sba(isrc.gp1.models.Per36Minutes
Per36Minutes
p1024
(dp1025
g8
S'2.3'
p1026
sg10
S'.542'
p1027
sg12
S'7.1'
p1028
sg14
S'2.9'
p1029
sg16
S'1.8'
p1030
sg18
S'13.2'
p1031
sg20
g3
sg21
S'PG'
p1032
sg23
S'8.4'
p1033
sg27
S'NBA'
p1034
sg29
S'16.1'
p1035
sg31
S'.542'
p1036
sg33
g3
sg34
S'2.6'
p1037
sg36
S'2.6'
p1038
sg38
S'23'
p1039
sg40
S'LAL'
p1040
sg42
S'82'
p1041
sg44
g3
sg45
S'2.3'
p1042
sg47
S'2.1'
p1043
sg49
S'.775'
p1044
sg51
S'0.2'
p1045
sg53
S'1978-79'
p1046
sg55
S'13.2'
p1047
sg57
g3
sg58
S'0.5'
p1048
sg60
S'7.1'
p1049
sg62
S'3145'
p1050
sba(isrc.gp1.models.Per36Minutes
Per36Minutes
p1051
(dp1052
g8
S'2.0'
p1053
sg10
S'.125'
p1054
sg12
S'0.0'
p1055
sg14
S'1.6'
p1056
sg16
S'7.0'
p1057
sg18
S'0.1'
p1058
sg20
g3
sg21
S'PG'
p1059
sg23
S'0.6'
p1060
sg27
S'NBA'
p1061
sg29
S'0.2'
p1062
sg31
S'.516'
p1063
sg33
S'16.1'
p1064
sg34
S'.779'
p1065
sg36
S'7.2'
p1066
sg38
S'24'
p1067
sg40
S'LAL'
p1068
sg42
S'82'
p1069
sg44
S'3.2'
p1070
sg45
S'13.4'
p1071
sg47
S'2.8'
p1072
sg49
S'.519'
p1073
sg51
S'2.6'
p1074
sg53
S'1979-80'
p1075
sg55
S'13.5'
p1076
sg57
S'2.7'
p1077
sg58
S'2.2'
p1078
sg60
S'7.0'
p1079
sg62
S'3226'
p1080
sba(isrc.gp1.models.Per36Minutes
Per36Minutes
p1081
(dp1082
g8
S'2.0'
p1083
sg10
S'.167'
p1084
sg12
S'0.0'
p1085
sg14
S'1.8'
p1086
sg16
S'7.0'
p1087
sg18
S'0.1'
p1088
sg20
g3
sg21
S'PG'
p1089
sg23
S'0.8'
p1090
sg27
S'NBA'
p1091
sg29
S'0.1'
p1092
sg31
S'.476'
p1093
sg33
S'16.4'
p1094
sg34
S'.778'
p1095
sg36
S'8.5'
p1096
sg38
S'25'
p1097
sg40
S'LAL'
p1098
sg42
S'79'
p1099
sg44
S'3.5'
p1100
sg45
S'14.6'
p1101
sg47
S'3.1'
p1102
sg49
S'.479'
p1103
sg51
S'2.8'
p1104
sg53
S'1980-81'
p1105
sg55
S'14.7'
p1106
sg57
S'2.7'
p1107
sg58
S'2.4'
p1108
sg60
S'7.0'
p1109
sg62
S'2962'
p1110
sba(isrc.gp1.models.Per36Minutes
Per36Minutes
p1111
(dp1112
g8
S'0.5'
p1113
sg10
S'0.1'
p1114
sg12
S'.493'
p1115
sg14
S'7.8'
p1116
sg16
S'.250'
p1117
sg18
S'0.0'
p1118
sg20
S'17.1'
p1119
sg21
S'PG'
p1120
sg23
S'.808'
p1121
sg27
S'NBA'
p1122
sg29
S'1.6'
p1123
sg31
S'15.2'
p1124
sg33
S'3.1'
p1125
sg34
S'2.7'
p1126
sg36
S'2.1'
p1127
sg38
S'26'
p1128
sg40
S'LAL'
p1129
sg42
S'82'
p1130
sg44
S'0.1'
p1131
sg45
S'7.4'
p1132
sg47
S'2.2'
p1133
sg49
S'15.0'
p1134
sg51
S'1.6'
p1135
sg53
S'1981-82'
p1136
sg55
S'7.5'
p1137
sg57
S'2.8'
p1138
sg58
S'.495'
p1139
sg60
S'3024'
p1140
sg62
S'82'
p1141
sba(isrc.gp1.models.Per36Minutes
Per36Minutes
p1142
(dp1143
g8
S'0.8'
p1144
sg10
S'0.2'
p1145
sg12
S'.475'
p1146
sg14
S'7.5'
p1147
sg16
S'.000'
p1148
sg18
S'0.0'
p1149
sg20
S'15.8'
p1150
sg21
S'PG'
p1151
sg23
S'.744'
p1152
sg27
S'NBA'
p1153
sg29
S'1.4'
p1154
sg31
S'14.9'
p1155
sg33
S'2.3'
p1156
sg34
S'2.2'
p1157
sg36
S'2.7'
p1158
sg38
S'27'
p1159
sg40
S'LAL'
p1160
sg42
S'79'
p1161
sg44
S'0.1'
p1162
sg45
S'7.1'
p1163
sg47
S'1.7'
p1164
sg49
S'14.7'
p1165
sg51
S'1.9'
p1166
sg53
S'1982-83'
p1167
sg55
S'7.1'
p1168
sg57
S'3.1'
p1169
sg58
S'.480'
p1170
sg60
S'2711'
p1171
sg62
S'79'
p1172
sba(isrc.gp1.models.Per36Minutes
Per36Minutes
p1173
(dp1174
g8
S'0.7'
p1175
sg10
S'0.5'
p1176
sg12
S'.462'
p1177
sg14
S'10.8'
p1178
sg16
S'.239'
p1179
sg18
S'0.1'
p1180
sg20
S'16.4'
p1181
sg21
S'PG'
p1182
sg23
S'.760'
p1183
sg27
S'NBA'
p1184
sg29
S'1.1'
p1185
sg31
S'15.0'
p1186
sg33
S'2.1'
p1187
sg34
S'3.2'
p1188
sg36
S'2.4'
p1189
sg38
S'28'
p1190
sg40
S'SDC'
p1191
sg42
S'82'
p1192
sg44
S'0.0'
p1193
sg45
S'6.8'
p1194
sg47
S'2.4'
p1195
sg49
S'14.4'
p1196
sg51
S'1.7'
p1197
sg53
S'1983-84'
p1198
sg55
S'6.9'
p1199
sg57
S'3.0'
p1200
sg58
S'.471'
p1201
sg60
S'3053'
p1202
sg62
S'82'
p1203
sba(isrc.gp1.models.Per36Minutes
Per36Minutes
p1204
(dp1205
g8
S'0.7'
p1206
sg10
S'1.2'
p1207
sg12
S'.465'
p1208
sg14
S'8.8'
p1209
sg16
S'.333'
p1210
sg18
S'0.4'
p1211
sg20
S'17.4'
p1212
sg21
S'PG'
p1213
sg23
S'.780'
p1214
sg27
S'NBA'
p1215
sg29
S'1.2'
p1216
sg31
S'15.9'
p1217
sg33
S'2.2'
p1218
sg34
S'2.7'
p1219
sg36
S'2.7'
p1220
sg38
S'29'
p1221
sg40
S'LAC'
p1222
sg42
S'81'
p1223
sg44
S'0.0'
p1224
sg45
S'7.0'
p1225
sg47
S'2.1'
p1226
sg49
S'14.7'
p1227
sg51
S'2.0'
p1228
sg53
S'1984-85'
p1229
sg55
S'7.4'
p1230
sg57
S'3.4'
p1231
sg58
S'.476'
p1232
sg60
S'2894'
p1233
sg62
S'81'
p1234
sba(isrc.gp1.models.Per36Minutes
Per36Minutes
p1235
(dp1236
g8
S'0.8'
p1237
sg10
S'2.0'
p1238
sg12
S'.438'
p1239
sg14
S'9.7'
p1240
sg16
S'.347'
p1241
sg18
S'0.7'
p1242
sg20
S'16.5'
p1243
sg21
S'PG'
p1244
sg23
S'.809'
p1245
sg27
S'NBA'
p1246
sg29
S'1.4'
p1247
sg31
S'15.5'
p1248
sg33
S'2.4'
p1249
sg34
S'2.7'
p1250
sg36
S'3.0'
p1251
sg38
S'30'
p1252
sg40
S'LAC'
p1253
sg42
S'67'
p1254
sg44
S'0.1'
p1255
sg45
S'6.1'
p1256
sg47
S'2.2'
p1257
sg49
S'13.5'
p1258
sg51
S'2.3'
p1259
sg53
S'1985-86'
p1260
sg55
S'6.8'
p1261
sg57
S'3.2'
p1262
sg58
S'.451'
p1263
sg60
S'2138'
p1264
sg62
S'62'
p1265
sba(isrc.gp1.models.Per36Minutes
Per36Minutes
p1266
(dp1267
g8
S'0.4'
p1268
sg10
S'0.8'
p1269
sg12
S'.414'
p1270
sg14
S'9.3'
p1271
sg16
S'.276'
p1272
sg18
S'0.2'
p1273
sg20
S'9.9'
p1274
sg21
S'PG'
p1275
sg23
S'.738'
p1276
sg27
S'NBA'
p1277
sg29
S'1.3'
p1278
sg31
S'10.1'
p1279
sg33
S'1.9'
p1280
sg34
S'1.8'
p1281
sg36
S'2.1'
p1282
sg38
S'33'
p1283
sg40
S'LAC'
p1284
sg42
S'53'
p1285
sg44
S'0.0'
p1286
sg45
S'4.0'
p1287
sg47
S'1.3'
p1288
sg49
S'9.3'
p1289
sg51
S'1.8'
p1290
sg53
S'1988-89'
p1291
sg55
S'4.2'
p1292
sg57
S'3.2'
p1293
sg58
S'.425'
p1294
sg60
S'1318'
p1295
sg62
S'30'
p1296
sbasS'_fromYear'
p1297
S'1978'
p1298
sS'_url'
p1299
S'http://www.basketball-reference.com/players/n/nixonno01.html'
p1300
sS'_perGame'
p1301
(isrc.gp1.models.PerGame
PerGame
p1302
(dp1303
g8
S'0.2'
p1304
sg10
S'0.5'
p1305
sg12
S'.414'
p1306
sS'_effectiveFieldGalPercentage'
p1307
S'.424'
p1308
sg14
S'6.4'
p1309
sg16
S'.276'
p1310
sg18
S'0.2'
p1311
sg20
S'6.8'
p1312
sg21
S'PG'
p1313
sg23
S'.738'
p1314
sg27
S'NBA'
p1315
sg29
S'0.9'
p1316
sg33
S'1.3'
p1317
sS'_fieldGoalsttempted'
p1318
S'7.0'
p1319
sg34
S'1.2'
p1320
sg36
S'1.5'
p1321
sg38
S'33'
p1322
sg40
S'LAC'
p1323
sg42
S'53'
p1324
sg44
S'0.0'
p1325
sg45
S'2.7'
p1326
sg47
S'0.9'
p1327
sg49
S'6.4'
p1328
sg51
S'1.2'
p1329
sg53
S'1988-89'
p1330
sg55
S'2.9'
p1331
sg57
S'2.2'
p1332
sg58
S'.425'
p1333
sg60
S'24.9'
p1334
sg62
S'30'
p1335
sbsS'_weight'
p1336
S'170'
p1337
sS'_dob'
p1338
S'11-10-1955'
p1339
sS'_salary'
p1340
(lp1341
(isrc.gp1.models.Salary
Salary
p1342
(dp1343
g40
S'Los Angeles Clippers'
p1344
sg27
S'NBA'
p1345
sg1340
S'$650,000'
p1346
sg53
S'1985-86'
p1347
sba(isrc.gp1.models.Salary
Salary
p1348
(dp1349
g40
S'Los Angeles Clippers'
p1350
sg27
S'NBA'
p1351
sg1340
S'$985,000'
p1352
sg53
S'1987-88'
p1353
sba(isrc.gp1.models.Salary
Salary
p1354
(dp1355
g40
S'Los Angeles Clippers'
p1356
sg27
S'NBA'
p1357
sg1340
S'$985,000'
p1358
sg53
S'1988-89'
p1359
sbasg21
S'G'
p1360
sb.