(isrc.gp1.models.Player
Player
p0
(dp1
S'_experience'
p2
S'NA'
p3
sS'_totals'
p4
(lp5
(isrc.gp1.models.Totals
Totals
p6
(dp7
S'_offensiveRebounds'
p8
g3
sS'_threePointsAttempted'
p9
g3
sS'_fieldGoalsPercentage'
p10
S'.372'
p11
sS'_assist'
p12
S'124'
p13
sS'_threePointsPercentage'
p14
g3
sS'_threePoints'
p15
g3
sS'_points'
p16
S'578'
p17
sS'_position'
p18
S'SG'
p19
sS'_freeThrowsPercentage'
p20
S'.819'
p21
sS'_effectiveFieldGoalPercentage'
p22
S'.372'
p23
sS'_league'
p24
S'NBA'
p25
sS'_steals'
p26
g3
sS'_fieldGoalsAttempted'
p27
S'613'
p28
sS'_personalFouls'
p29
S'115'
p30
sS'_freeThrowsAttempted'
p31
S'149'
p32
sS'_totalRebounds'
p33
S'122'
p34
sS'_age'
p35
S'23'
p36
sS'_team'
p37
S'INO'
p38
sS'_games'
p39
S'64'
p40
sS'_blocks'
p41
g3
sS'_twoPoints'
p42
S'228'
p43
sS'_freeThrows'
p44
S'122'
p45
sS'_twoPointsAttempted'
p46
S'613'
p47
sS'_defensiveRebounds'
p48
g3
sS'_season'
p49
S'1951-52'
p50
sS'_fieldGoals'
p51
S'228'
p52
sS'_turnOvers'
p53
g3
sS'_twoPointsPercentage'
p54
S'.372'
p55
sS'_minutesPlayed'
p56
S'1577'
p57
sS'_gamesStarted'
p58
g3
sba(isrc.gp1.models.Totals
Totals
p59
(dp60
g8
g3
sg9
g3
sg10
S'.336'
p61
sg12
S'56'
p62
sg14
g3
sg15
g3
sg16
S'270'
p63
sg18
S'PG'
p64
sg20
S'.848'
p65
sg22
S'.336'
p66
sg24
S'NBA'
p67
sg26
g3
sg27
S'286'
p68
sg29
S'74'
p69
sg31
S'92'
p70
sg33
S'70'
p71
sg35
S'24'
p72
sg37
S'TOT'
p73
sg39
S'55'
p74
sg41
g3
sg42
S'96'
p75
sg44
S'78'
p76
sg46
S'286'
p77
sg48
g3
sg49
S'1952-53'
p78
sg51
S'96'
p79
sg53
g3
sg54
S'.336'
p80
sg56
S'758'
p81
sg58
g3
sba(isrc.gp1.models.Totals
Totals
p82
(dp83
g8
g3
sg9
g3
sg10
S'.311'
p84
sg12
S'35'
p85
sg14
g3
sg15
g3
sg16
S'175'
p86
sg18
g3
sg20
S'.877'
p87
sg22
S'.311'
p88
sg24
S'NBA'
p89
sg26
g3
sg27
S'190'
p90
sg29
S'37'
p91
sg31
S'65'
p92
sg33
S'50'
p93
sg35
S'24'
p94
sg37
S'INO'
p95
sg39
S'34'
p96
sg41
g3
sg42
S'59'
p97
sg44
S'57'
p98
sg46
S'190'
p99
sg48
g3
sg49
S'1952-53'
p100
sg51
S'59'
p101
sg53
g3
sg54
S'.311'
p102
sg56
S'526'
p103
sg58
g3
sba(isrc.gp1.models.Totals
Totals
p104
(dp105
g8
g3
sg9
g3
sg10
S'.417'
p106
sg12
S'4'
p107
sg14
g3
sg15
g3
sg16
S'23'
p108
sg18
g3
sg20
S'.600'
p109
sg22
S'.417'
p110
sg24
S'NBA'
p111
sg26
g3
sg27
S'24'
p112
sg29
S'7'
p113
sg31
S'5'
p114
sg33
S'0'
p115
sg35
S'24'
p116
sg37
S'FTW'
p117
sg39
g113
sg41
g3
sg42
S'10'
p118
sg44
S'3'
p119
sg46
S'24'
p120
sg48
g3
sg49
S'1952-53'
p121
sg51
S'10'
p122
sg53
g3
sg54
S'.417'
p123
sg56
S'50'
p124
sg58
g3
sba(isrc.gp1.models.Totals
Totals
p125
(dp126
g8
g3
sg9
g3
sg10
S'.375'
p127
sg12
S'17'
p128
sg14
g3
sg15
g3
sg16
S'72'
p129
sg18
S'PG'
p130
sg20
S'.818'
p131
sg22
S'.375'
p132
sg24
S'NBA'
p133
sg26
g3
sg27
S'72'
p134
sg29
S'30'
p135
sg31
S'22'
p136
sg33
S'20'
p137
sg35
S'24'
p138
sg37
S'BLB'
p139
sg39
S'14'
p140
sg41
g3
sg42
S'27'
p141
sg44
S'18'
p142
sg46
S'72'
p143
sg48
g3
sg49
S'1952-53'
p144
sg51
S'27'
p145
sg53
g3
sg54
S'.375'
p146
sg56
S'182'
p147
sg58
g3
sbasS'_college'
p148
S'Butler University'
p149
sS'_toYear'
p150
S'1953'
p151
sS'_height'
p152
S'5-9'
p153
sS'_active'
p154
I00
sS'_shootingHand'
p155
VRight
p156
sS'_name'
p157
S"Ralph O'Brien"
p158
sS'_per100Possessions'
p159
(lp160
sS'_advanced'
p161
(lp162
(isrc.gp1.models.Advanced
Advanced
p163
(dp164
S'_offensiveReboundPercentage'
p165
g3
sS'_turnOverPercentage'
p166
g3
sS'_winSharesPer48Minutes'
p167
S'.079'
p168
sS'_stealPercentage'
p169
g3
sS'_usagePercentage'
p170
g3
sS'_totalReboundsPercentage'
p171
g3
sS'_defensiveBoxPlusMinus'
p172
g3
sg18
S'SG'
p173
sS'_valueOverReplacementPlayer'
p174
g3
sS'_trueShootingPercentage'
p175
S'.426'
p176
sS'_defensiveReboundPercentage'
p177
g3
sS'_freeThrowsAttempRate'
p178
S'.243'
p179
sS'_threePointsAttempRate'
p180
g3
sg24
S'NBA'
p181
sS'_offensiveBoxPlusMinues'
p182
g3
sS'_assistPercentage'
p183
g3
sS'_defensiveWinShares'
p184
S'1.5'
p185
sg35
S'23'
p186
sg37
S'INO'
p187
sg39
S'64'
p188
sS'_blockPercentage'
p189
g3
sS'_playerEfficiencyRating'
p190
S'12.7'
p191
sS'_offensiveWinShares'
p192
S'1.1'
p193
sg56
S'1577'
p194
sS'_boxPlusMinus'
p195
g3
sg49
S'1951-52'
p196
sS'_winShares'
p197
S'2.6'
p198
sba(isrc.gp1.models.Advanced
Advanced
p199
(dp200
g165
g3
sg166
g3
sg167
S'.034'
p201
sg169
g3
sg170
g3
sg171
g3
sg172
g3
sg18
S'PG'
p202
sg174
g3
sg175
S'.414'
p203
sg177
g3
sg178
S'.322'
p204
sg180
g3
sg24
S'NBA'
p205
sg182
g3
sg183
g3
sg184
S'0.5'
p206
sg35
S'24'
p207
sg37
S'TOT'
p208
sg39
S'55'
p209
sg189
g3
sg190
S'11.9'
p210
sg192
S'0.0'
p211
sg56
S'758'
p212
sg195
g3
sg49
S'1952-53'
p213
sg197
S'0.5'
p214
sba(isrc.gp1.models.Advanced
Advanced
p215
(dp216
g165
g3
sg166
g3
sg167
S'.024'
p217
sg169
g3
sg170
g3
sg171
g3
sg172
g3
sg18
g3
sg174
g3
sg175
S'.400'
p218
sg177
g3
sg178
S'.342'
p219
sg180
g3
sg24
S'NBA'
p220
sg182
g3
sg183
g3
sg184
S'0.5'
p221
sg35
S'24'
p222
sg37
S'INO'
p223
sg39
S'34'
p224
sg189
g3
sg190
S'11.7'
p225
sg192
S'-0.2'
p226
sg56
S'526'
p227
sg195
g3
sg49
S'1952-53'
p228
sg197
S'0.3'
p229
sba(isrc.gp1.models.Advanced
Advanced
p230
(dp231
g165
g3
sg166
g3
sg167
S'.071'
p232
sg169
g3
sg170
g3
sg171
g3
sg172
g3
sg18
g3
sg174
g3
sg175
S'.439'
p233
sg177
g3
sg178
S'.208'
p234
sg180
g3
sg24
S'NBA'
p235
sg182
g3
sg183
g3
sg184
S'0.0'
p236
sg35
S'24'
p237
sg37
S'FTW'
p238
sg39
g113
sg189
g3
sg190
S'11.6'
p239
sg192
S'0.0'
p240
sg56
S'50'
p241
sg195
g3
sg49
S'1952-53'
p242
sg197
S'0.1'
p243
sba(isrc.gp1.models.Advanced
Advanced
p244
(dp245
g165
g3
sg166
g3
sg167
S'.055'
p246
sg169
g3
sg170
g3
sg171
g3
sg172
g3
sg18
S'PG'
p247
sg174
g3
sg175
S'.441'
p248
sg177
g3
sg178
S'.306'
p249
sg180
g3
sg24
S'NBA'
p250
sg182
g3
sg183
g3
sg184
S'0.0'
p251
sg35
S'24'
p252
sg37
S'BLB'
p253
sg39
S'14'
p254
sg189
g3
sg190
S'12.6'
p255
sg192
S'0.2'
p256
sg56
S'182'
p257
sg195
g3
sg49
S'1952-53'
p258
sg197
S'0.2'
p259
sbasS'_per36Minutes'
p260
(lp261
(isrc.gp1.models.Per36Minutes
Per36Minutes
p262
(dp263
g8
g3
sg9
g3
sg10
S'.372'
p264
sg12
S'2.8'
p265
sg14
g3
sg15
g3
sg16
S'13.2'
p266
sg18
S'SG'
p267
sg20
S'.819'
p268
sg24
S'NBA'
p269
sg26
g3
sg27
S'14.0'
p270
sg29
S'2.6'
p271
sg31
S'3.4'
p272
sg33
S'2.8'
p273
sg35
S'23'
p274
sg37
S'INO'
p275
sg39
S'64'
p276
sg41
g3
sg42
S'5.2'
p277
sg44
S'2.8'
p278
sg46
S'14.0'
p279
sg48
g3
sg49
S'1951-52'
p280
sg51
S'5.2'
p281
sg53
g3
sg54
S'.372'
p282
sg56
S'1577'
p283
sg58
g3
sba(isrc.gp1.models.Per36Minutes
Per36Minutes
p284
(dp285
g8
g3
sg9
g3
sg10
S'.336'
p286
sg12
S'2.7'
p287
sg14
g3
sg15
g3
sg16
S'12.8'
p288
sg18
S'PG'
p289
sg20
S'.848'
p290
sg24
S'NBA'
p291
sg26
g3
sg27
S'13.6'
p292
sg29
S'3.5'
p293
sg31
S'4.4'
p294
sg33
S'3.3'
p295
sg35
S'24'
p296
sg37
S'TOT'
p297
sg39
S'55'
p298
sg41
g3
sg42
S'4.6'
p299
sg44
S'3.7'
p300
sg46
S'13.6'
p301
sg48
g3
sg49
S'1952-53'
p302
sg51
S'4.6'
p303
sg53
g3
sg54
S'.336'
p304
sg56
S'758'
p305
sg58
g3
sba(isrc.gp1.models.Per36Minutes
Per36Minutes
p306
(dp307
g8
g3
sg9
g3
sg10
S'.311'
p308
sg12
S'2.4'
p309
sg14
g3
sg15
g3
sg16
S'12.0'
p310
sg18
g3
sg20
S'.877'
p311
sg24
S'NBA'
p312
sg26
g3
sg27
S'13.0'
p313
sg29
S'2.5'
p314
sg31
S'4.4'
p315
sg33
S'3.4'
p316
sg35
S'24'
p317
sg37
S'INO'
p318
sg39
S'34'
p319
sg41
g3
sg42
S'4.0'
p320
sg44
S'3.9'
p321
sg46
S'13.0'
p322
sg48
g3
sg49
S'1952-53'
p323
sg51
S'4.0'
p324
sg53
g3
sg54
S'.311'
p325
sg56
S'526'
p326
sg58
g3
sba(isrc.gp1.models.Per36Minutes
Per36Minutes
p327
(dp328
g8
g3
sg9
g3
sg10
S'.417'
p329
sg12
S'2.9'
p330
sg14
g3
sg15
g3
sg16
S'16.6'
p331
sg18
g3
sg20
S'.600'
p332
sg24
S'NBA'
p333
sg26
g3
sg27
S'17.3'
p334
sg29
S'5.0'
p335
sg31
S'3.6'
p336
sg33
S'0.0'
p337
sg35
S'24'
p338
sg37
S'FTW'
p339
sg39
g113
sg41
g3
sg42
S'7.2'
p340
sg44
S'2.2'
p341
sg46
S'17.3'
p342
sg48
g3
sg49
S'1952-53'
p343
sg51
S'7.2'
p344
sg53
g3
sg54
S'.417'
p345
sg56
S'50'
p346
sg58
g3
sba(isrc.gp1.models.Per36Minutes
Per36Minutes
p347
(dp348
g8
g3
sg9
g3
sg10
S'.375'
p349
sg12
S'3.4'
p350
sg14
g3
sg15
g3
sg16
S'14.2'
p351
sg18
S'PG'
p352
sg20
S'.818'
p353
sg24
S'NBA'
p354
sg26
g3
sg27
S'14.2'
p355
sg29
S'5.9'
p356
sg31
S'4.4'
p357
sg33
S'4.0'
p358
sg35
S'24'
p359
sg37
S'BLB'
p360
sg39
S'14'
p361
sg41
g3
sg42
S'5.3'
p362
sg44
S'3.6'
p363
sg46
S'14.2'
p364
sg48
g3
sg49
S'1952-53'
p365
sg51
S'5.3'
p366
sg53
g3
sg54
S'.375'
p367
sg56
S'182'
p368
sg58
g3
sbasS'_fromYear'
p369
S'1952'
p370
sS'_url'
p371
S'http://www.basketball-reference.com/players/o/obriera01.html'
p372
sS'_perGame'
p373
(isrc.gp1.models.PerGame
PerGame
p374
(dp375
g8
g3
sg9
g3
sg10
S'.375'
p376
sS'_effectiveFieldGalPercentage'
p377
S'.375'
p378
sg12
S'1.2'
p379
sg14
g3
sg15
g3
sg16
S'5.1'
p380
sg18
S'PG'
p381
sg20
S'.818'
p382
sg24
S'NBA'
p383
sg26
g3
sg29
S'2.1'
p384
sS'_fieldGoalsttempted'
p385
S'5.1'
p386
sg31
S'1.6'
p387
sg33
S'1.4'
p388
sg35
S'24'
p389
sg37
S'BLB'
p390
sg39
S'14'
p391
sg41
g3
sg42
S'1.9'
p392
sg44
S'1.3'
p393
sg46
S'5.1'
p394
sg48
g3
sg49
S'1952-53'
p395
sg51
S'1.9'
p396
sg53
g3
sg54
S'.375'
p397
sg56
S'13.0'
p398
sg58
g3
sbsS'_weight'
p399
S'160'
p400
sS'_dob'
p401
S'8-4-1928'
p402
sS'_salary'
p403
(lp404
sg18
S'G'
p405
sb.