(isrc.gp1.models.Player
Player
p0
(dp1
S'_experience'
p2
S'NA'
p3
sS'_totals'
p4
(lp5
(isrc.gp1.models.Totals
Totals
p6
(dp7
S'_offensiveRebounds'
p8
g3
sS'_threePointsAttempted'
p9
g3
sS'_fieldGoalsPercentage'
p10
S'.357'
p11
sS'_assist'
p12
S'10'
p13
sS'_threePointsPercentage'
p14
g3
sS'_threePoints'
p15
g3
sS'_points'
p16
S'23'
p17
sS'_position'
p18
g3
sS'_freeThrowsPercentage'
p19
S'.750'
p20
sS'_effectiveFieldGoalPercentage'
p21
S'.357'
p22
sS'_league'
p23
S'NBA'
p24
sS'_steals'
p25
g3
sS'_fieldGoalsAttempted'
p26
S'28'
p27
sS'_personalFouls'
p28
S'5'
p29
sS'_freeThrowsAttempted'
p30
S'4'
p31
sS'_totalRebounds'
p32
S'7'
p33
sS'_age'
p34
S'22'
p35
sS'_team'
p36
S'TOT'
p37
sS'_games'
p38
S'6'
p39
sS'_blocks'
p40
g3
sS'_twoPoints'
p41
S'10'
p42
sS'_freeThrows'
p43
S'3'
p44
sS'_twoPointsAttempted'
p45
S'28'
p46
sS'_defensiveRebounds'
p47
g3
sS'_season'
p48
S'1950-51'
p49
sS'_fieldGoals'
p50
S'10'
p51
sS'_turnOvers'
p52
g3
sS'_twoPointsPercentage'
p53
S'.357'
p54
sS'_minutesPlayed'
p55
g3
sS'_gamesStarted'
p56
g3
sba(isrc.gp1.models.Totals
Totals
p57
(dp58
g8
g3
sg9
g3
sg10
S'.385'
p59
sg12
S'2'
p60
sg14
g3
sg15
g3
sg16
S'12'
p61
sg18
g3
sg19
S'.667'
p62
sg21
S'.385'
p63
sg23
S'NBA'
p64
sg25
g3
sg26
S'13'
p65
sg28
S'1'
p66
sg30
g44
sg32
g31
sg34
S'22'
p67
sg36
S'WSC'
p68
sg38
g44
sg40
g3
sg41
g29
sg43
g60
sg45
S'13'
p69
sg47
g3
sg48
S'1950-51'
p70
sg50
g29
sg52
g3
sg53
S'.385'
p71
sg55
g3
sg56
g3
sba(isrc.gp1.models.Totals
Totals
p72
(dp73
g8
g3
sg9
g3
sg10
S'.333'
p74
sg12
S'8'
p75
sg14
g3
sg15
g3
sg16
S'11'
p76
sg18
g3
sg19
S'1.000'
p77
sg21
S'.333'
p78
sg23
S'NBA'
p79
sg25
g3
sg26
S'15'
p80
sg28
g31
sg30
g66
sg32
g44
sg34
S'22'
p81
sg36
S'BLB'
p82
sg38
g44
sg40
g3
sg41
g29
sg43
g66
sg45
S'15'
p83
sg47
g3
sg48
S'1950-51'
p84
sg50
g29
sg52
g3
sg53
S'.333'
p85
sg55
g3
sg56
g3
sbasS'_college'
p86
S'Georgetown University'
p87
sS'_toYear'
p88
S'1951'
p89
sS'_height'
p90
S'6-2'
p91
sS'_active'
p92
I00
sS'_shootingHand'
p93
VRight
p94
sS'_name'
p95
S"Tommy O'Keefe"
p96
sS'_per100Possessions'
p97
(lp98
sS'_advanced'
p99
(lp100
(isrc.gp1.models.Advanced
Advanced
p101
(dp102
S'_offensiveReboundPercentage'
p103
g3
sS'_turnOverPercentage'
p104
g3
sS'_winSharesPer48Minutes'
p105
g3
sS'_stealPercentage'
p106
g3
sS'_usagePercentage'
p107
g3
sS'_totalReboundsPercentage'
p108
g3
sS'_defensiveBoxPlusMinus'
p109
g3
sg18
g3
sS'_valueOverReplacementPlayer'
p110
g3
sS'_trueShootingPercentage'
p111
S'.386'
p112
sS'_defensiveReboundPercentage'
p113
g3
sS'_freeThrowsAttempRate'
p114
S'.143'
p115
sS'_threePointsAttempRate'
p116
g3
sg23
S'NBA'
p117
sS'_offensiveBoxPlusMinues'
p118
g3
sS'_assistPercentage'
p119
g3
sS'_defensiveWinShares'
p120
S'0.1'
p121
sg34
S'22'
p122
sg36
S'TOT'
p123
sg38
g39
sS'_blockPercentage'
p124
g3
sS'_playerEfficiencyRating'
p125
g3
sS'_offensiveWinShares'
p126
S'0.0'
p127
sg55
g3
sS'_boxPlusMinus'
p128
g3
sg48
S'1950-51'
p129
sS'_winShares'
p130
S'0.1'
p131
sba(isrc.gp1.models.Advanced
Advanced
p132
(dp133
g103
g3
sg104
g3
sg105
g3
sg106
g3
sg107
g3
sg108
g3
sg109
g3
sg18
g3
sg110
g3
sg111
S'.419'
p134
sg113
g3
sg114
S'.231'
p135
sg116
g3
sg23
S'NBA'
p136
sg118
g3
sg119
g3
sg120
S'0.0'
p137
sg34
S'22'
p138
sg36
S'WSC'
p139
sg38
g44
sg124
g3
sg125
g3
sg126
S'0.0'
p140
sg55
g3
sg128
g3
sg48
S'1950-51'
p141
sg130
S'0.0'
p142
sba(isrc.gp1.models.Advanced
Advanced
p143
(dp144
g103
g3
sg104
g3
sg105
g3
sg106
g3
sg107
g3
sg108
g3
sg109
g3
sg18
g3
sg110
g3
sg111
S'.356'
p145
sg113
g3
sg114
S'.067'
p146
sg116
g3
sg23
S'NBA'
p147
sg118
g3
sg119
g3
sg120
S'0.0'
p148
sg34
S'22'
p149
sg36
S'BLB'
p150
sg38
g44
sg124
g3
sg125
g3
sg126
S'0.0'
p151
sg55
g3
sg128
g3
sg48
S'1950-51'
p152
sg130
S'0.0'
p153
sbasS'_per36Minutes'
p154
(lp155
(isrc.gp1.models.Per36Minutes
Per36Minutes
p156
(dp157
g8
g3
sg9
g3
sg10
S'.357'
p158
sg12
g3
sg14
g3
sg15
g3
sg16
g3
sg18
g3
sg19
S'.750'
p159
sg23
S'NBA'
p160
sg25
g3
sg26
g3
sg28
g3
sg30
g3
sg32
g3
sg34
S'22'
p161
sg36
S'TOT'
p162
sg38
g39
sg40
g3
sg41
g3
sg43
g3
sg45
g3
sg47
g3
sg48
S'1950-51'
p163
sg50
g3
sg52
g3
sg53
S'.357'
p164
sg55
g3
sg56
g3
sba(isrc.gp1.models.Per36Minutes
Per36Minutes
p165
(dp166
g8
g3
sg9
g3
sg10
S'.385'
p167
sg12
g3
sg14
g3
sg15
g3
sg16
g3
sg18
g3
sg19
S'.667'
p168
sg23
S'NBA'
p169
sg25
g3
sg26
g3
sg28
g3
sg30
g3
sg32
g3
sg34
S'22'
p170
sg36
S'WSC'
p171
sg38
g44
sg40
g3
sg41
g3
sg43
g3
sg45
g3
sg47
g3
sg48
S'1950-51'
p172
sg50
g3
sg52
g3
sg53
S'.385'
p173
sg55
g3
sg56
g3
sba(isrc.gp1.models.Per36Minutes
Per36Minutes
p174
(dp175
g8
g3
sg9
g3
sg10
S'.333'
p176
sg12
g3
sg14
g3
sg15
g3
sg16
g3
sg18
g3
sg19
S'1.000'
p177
sg23
S'NBA'
p178
sg25
g3
sg26
g3
sg28
g3
sg30
g3
sg32
g3
sg34
S'22'
p179
sg36
S'BLB'
p180
sg38
g44
sg40
g3
sg41
g3
sg43
g3
sg45
g3
sg47
g3
sg48
S'1950-51'
p181
sg50
g3
sg52
g3
sg53
S'.333'
p182
sg55
g3
sg56
g3
sbasS'_fromYear'
p183
S'1951'
p184
sS'_url'
p185
S'http://www.basketball-reference.com/players/o/okeefto01.html'
p186
sS'_perGame'
p187
(isrc.gp1.models.PerGame
PerGame
p188
(dp189
g8
g3
sg9
g3
sg10
S'.333'
p190
sS'_effectiveFieldGalPercentage'
p191
S'.333'
p192
sg12
S'2.7'
p193
sg14
g3
sg15
g3
sg16
S'3.7'
p194
sg18
g3
sg19
S'1.000'
p195
sg23
S'NBA'
p196
sg25
g3
sg28
S'1.3'
p197
sS'_fieldGoalsttempted'
p198
S'5.0'
p199
sg30
S'0.3'
p200
sg32
S'1.0'
p201
sg34
S'22'
p202
sg36
S'BLB'
p203
sg38
g44
sg40
g3
sg41
S'1.7'
p204
sg43
S'0.3'
p205
sg45
S'5.0'
p206
sg47
g3
sg48
S'1950-51'
p207
sg50
S'1.7'
p208
sg52
g3
sg53
S'.333'
p209
sg55
g3
sg56
g3
sbsS'_weight'
p210
S'185'
p211
sS'_dob'
p212
S'3-6-1928'
p213
sS'_salary'
p214
(lp215
sg18
S'G'
p216
sb.