(isrc.gp1.models.Player
Player
p0
(dp1
S'_experience'
p2
S'NA'
p3
sS'_totals'
p4
(lp5
(isrc.gp1.models.Totals
Totals
p6
(dp7
S'_offensiveRebounds'
p8
S'18'
p9
sS'_threePointsAttempted'
p10
S'18'
p11
sS'_fieldGoalsPercentage'
p12
S'.408'
p13
sS'_assist'
p14
S'88'
p15
sS'_threePointsPercentage'
p16
S'.278'
p17
sS'_threePoints'
p18
S'5'
p19
sS'_points'
p20
S'279'
p21
sS'_position'
p22
S'SG'
p23
sS'_freeThrowsPercentage'
p24
S'.732'
p25
sS'_effectiveFieldGoalPercentage'
p26
S'.417'
p27
sS'_league'
p28
S'NBA'
p29
sS'_steals'
p30
S'34'
p31
sS'_fieldGoalsAttempted'
p32
S'272'
p33
sS'_personalFouls'
p34
S'76'
p35
sS'_freeThrowsAttempted'
p36
S'71'
p37
sS'_totalRebounds'
p38
S'80'
p39
sS'_age'
p40
S'22'
p41
sS'_team'
p42
S'PHI'
p43
sS'_games'
p44
S'73'
p45
sS'_blocks'
p46
S'4'
p47
sS'_twoPoints'
p48
S'106'
p49
sS'_freeThrows'
p50
S'52'
p51
sS'_twoPointsAttempted'
p52
S'254'
p53
sS'_defensiveRebounds'
p54
S'62'
p55
sS'_season'
p56
S'1990-91'
p57
sS'_fieldGoals'
p58
S'111'
p59
sS'_turnOvers'
p60
S'50'
p61
sS'_twoPointsPercentage'
p62
S'.417'
p63
sS'_minutesPlayed'
p64
S'800'
p65
sS'_gamesStarted'
p66
g47
sba(isrc.gp1.models.Totals
Totals
p67
(dp68
g8
S'10'
p69
sg10
g47
sg12
S'.330'
p70
sg14
S'20'
p71
sg16
S'.000'
p72
sg18
S'0'
p73
sg20
S'81'
p74
sg22
S'SG'
p75
sg24
S'.682'
p76
sg26
S'.330'
p77
sg28
S'NBA'
p78
sg30
S'10'
p79
sg32
S'100'
p80
sg34
S'33'
p81
sg36
S'22'
p82
sg38
S'30'
p83
sg40
S'23'
p84
sg42
S'PHI'
p85
sg44
S'34'
p86
sg46
S'2'
p87
sg48
S'33'
p88
sg50
S'15'
p89
sg52
S'96'
p90
sg54
S'20'
p91
sg56
S'1991-92'
p92
sg58
S'33'
p93
sg60
S'24'
p94
sg62
S'.344'
p95
sg64
S'279'
p96
sg66
g73
sba(isrc.gp1.models.Totals
Totals
p97
(dp98
g8
g3
sg10
g3
sg12
g3
sg14
g3
sg16
g3
sg18
g3
sg20
g3
sg22
g3
sg24
g3
sg26
g3
sg28
g3
sg30
g3
sg32
g3
sg34
g3
sg36
g3
sg38
g3
sg40
S'24'
p99
sg42
S'Did Not Play\xc2\xa0(other pro league\xe2\x80\x94CBA)'
p100
sg44
g3
sg46
g3
sg48
g3
sg50
g3
sg52
g3
sg54
g3
sg56
S'1992-93'
p101
sg58
g3
sg60
g3
sg62
g3
sg64
g3
sg66
g3
sba(isrc.gp1.models.Totals
Totals
p102
(dp103
g8
g3
sg10
g3
sg12
g3
sg14
g3
sg16
g3
sg18
g3
sg20
g3
sg22
g3
sg24
g3
sg26
g3
sg28
g3
sg30
g3
sg32
g3
sg34
g3
sg36
g3
sg38
g3
sg40
S'25'
p104
sg42
S'Did Not Play\xc2\xa0(other pro league\xe2\x80\x94CBA)'
p105
sg44
g3
sg46
g3
sg48
g3
sg50
g3
sg52
g3
sg54
g3
sg56
S'1993-94'
p106
sg58
g3
sg60
g3
sg62
g3
sg64
g3
sg66
g3
sba(isrc.gp1.models.Totals
Totals
p107
(dp108
g8
g73
sg10
g73
sg12
S'.444'
p109
sg14
g47
sg16
g3
sg18
g73
sg20
S'14'
p110
sg22
S'SG'
p111
sg24
S'.750'
p112
sg26
S'.444'
p113
sg28
S'NBA'
p114
sg30
g73
sg32
S'9'
p115
sg34
S'8'
p116
sg36
g116
sg38
g47
sg40
S'26'
p117
sg42
S'WSB'
p118
sg44
S'6'
p119
sg46
g73
sg48
g47
sg50
g119
sg52
g115
sg54
g47
sg56
S'1994-95'
p120
sg58
g47
sg60
S'3'
p121
sg62
S'.444'
p122
sg64
S'42'
p123
sg66
g73
sba(isrc.gp1.models.Totals
Totals
p124
(dp125
g8
g3
sg10
g3
sg12
g3
sg14
g3
sg16
g3
sg18
g3
sg20
g3
sg22
g3
sg24
g3
sg26
g3
sg28
g3
sg30
g3
sg32
g3
sg34
g3
sg36
g3
sg38
g3
sg40
S'27'
p126
sg42
S'Did Not Play\xc2\xa0(other pro league\xe2\x80\x94Italy)'
p127
sg44
g3
sg46
g3
sg48
g3
sg50
g3
sg52
g3
sg54
g3
sg56
S'1995-96'
p128
sg58
g3
sg60
g3
sg62
g3
sg64
g3
sg66
g3
sba(isrc.gp1.models.Totals
Totals
p129
(dp130
g8
g3
sg10
g3
sg12
g3
sg14
g3
sg16
g3
sg18
g3
sg20
g3
sg22
g3
sg24
g3
sg26
g3
sg28
g3
sg30
g3
sg32
g3
sg34
g3
sg36
g3
sg38
g3
sg40
S'28'
p131
sg42
S'Did Not Play\xc2\xa0(other pro league\xe2\x80\x94Italy)'
p132
sg44
g3
sg46
g3
sg48
g3
sg50
g3
sg52
g3
sg54
g3
sg56
S'1996-97'
p133
sg58
g3
sg60
g3
sg62
g3
sg64
g3
sg66
g3
sba(isrc.gp1.models.Totals
Totals
p134
(dp135
g8
g121
sg10
g73
sg12
S'.368'
p136
sg14
g87
sg16
g3
sg18
g73
sg20
S'15'
p137
sg22
S'SG'
p138
sg24
S'.250'
p139
sg26
S'.368'
p140
sg28
S'NBA'
p141
sg30
S'1'
p142
sg32
S'19'
p143
sg34
g47
sg36
g47
sg38
g115
sg40
S'29'
p144
sg42
S'ATL'
p145
sg44
g19
sg46
g73
sg48
S'7'
p146
sg50
g142
sg52
S'19'
p147
sg54
g119
sg56
S'1997-98'
p148
sg58
g146
sg60
g142
sg62
S'.368'
p149
sg64
S'61'
p150
sg66
g73
sbasS'_college'
p151
S'Georgia Institute of Technology'
p152
sS'_toYear'
p153
S'1998'
p154
sS'_height'
p155
S'6-4'
p156
sS'_active'
p157
I00
sS'_shootingHand'
p158
VRight
p159
sS'_name'
p160
S'Brian Oliver'
p161
sS'_per100Possessions'
p162
(lp163
(isrc.gp1.models.Per100Possession
Per100Possession
p164
(dp165
g8
S'1.1'
p166
sg10
S'1.1'
p167
sg12
S'.408'
p168
sS'_offensiveRating'
p169
S'94'
p170
sg14
S'5.5'
p171
sg16
S'.278'
p172
sg18
S'0.3'
p173
sg20
S'17.5'
p174
sg22
S'SG'
p175
sS'_defensiveRating'
p176
S'110'
p177
sg24
S'.732'
p178
sg28
S'NBA'
p179
sg30
S'2.1'
p180
sg32
S'17.1'
p181
sg34
S'4.8'
p182
sg36
S'4.5'
p183
sg38
S'5.0'
p184
sg40
S'22'
p185
sg42
S'PHI'
p186
sg44
S'73'
p187
sg46
S'0.3'
p188
sg48
S'6.6'
p189
sg50
S'3.3'
p190
sg52
S'15.9'
p191
sg54
S'3.9'
p192
sg56
S'1990-91'
p193
sg58
S'7.0'
p194
sg60
S'3.1'
p195
sg62
S'.417'
p196
sg64
S'800'
p197
sg66
g47
sba(isrc.gp1.models.Per100Possession
Per100Possession
p198
(dp199
g8
S'1.8'
p200
sg10
S'0.7'
p201
sg12
S'.330'
p202
sg169
S'76'
p203
sg14
S'3.7'
p204
sg16
S'.000'
p205
sg18
S'0.0'
p206
sg20
S'14.9'
p207
sg22
S'SG'
p208
sg176
S'112'
p209
sg24
S'.682'
p210
sg28
S'NBA'
p211
sg30
S'1.8'
p212
sg32
S'18.4'
p213
sg34
S'6.1'
p214
sg36
S'4.0'
p215
sg38
S'5.5'
p216
sg40
S'23'
p217
sg42
S'PHI'
p218
sg44
S'34'
p219
sg46
S'0.4'
p220
sg48
S'6.1'
p221
sg50
S'2.8'
p222
sg52
S'17.6'
p223
sg54
S'3.7'
p224
sg56
S'1991-92'
p225
sg58
S'6.1'
p226
sg60
S'4.4'
p227
sg62
S'.344'
p228
sg64
S'279'
p229
sg66
g73
sba(isrc.gp1.models.Per100Possession
Per100Possession
p230
(dp231
g8
S'0.0'
p232
sg10
S'0.0'
p233
sg12
S'.444'
p234
sg169
S'103'
p235
sg14
S'4.8'
p236
sg16
g3
sg18
S'0.0'
p237
sg20
S'16.9'
p238
sg22
S'SG'
p239
sg176
S'116'
p240
sg24
S'.750'
p241
sg28
S'NBA'
p242
sg30
S'0.0'
p243
sg32
S'10.9'
p244
sg34
S'9.7'
p245
sg36
S'9.7'
p246
sg38
S'4.8'
p247
sg40
S'26'
p248
sg42
S'WSB'
p249
sg44
g119
sg46
S'0.0'
p250
sg48
S'4.8'
p251
sg50
S'7.3'
p252
sg52
S'10.9'
p253
sg54
S'4.8'
p254
sg56
S'1994-95'
p255
sg58
S'4.8'
p256
sg60
S'3.6'
p257
sg62
S'.444'
p258
sg64
S'42'
p259
sg66
g73
sba(isrc.gp1.models.Per100Possession
Per100Possession
p260
(dp261
g8
S'2.7'
p262
sg10
S'0.0'
p263
sg12
S'.368'
p264
sg169
S'88'
p265
sg14
S'1.8'
p266
sg16
g3
sg18
S'0.0'
p267
sg20
S'13.5'
p268
sg22
S'SG'
p269
sg176
S'108'
p270
sg24
S'.250'
p271
sg28
S'NBA'
p272
sg30
S'0.9'
p273
sg32
S'17.1'
p274
sg34
S'3.6'
p275
sg36
S'3.6'
p276
sg38
S'8.1'
p277
sg40
S'29'
p278
sg42
S'ATL'
p279
sg44
g19
sg46
S'0.0'
p280
sg48
S'6.3'
p281
sg50
S'0.9'
p282
sg52
S'17.1'
p283
sg54
S'5.4'
p284
sg56
S'1997-98'
p285
sg58
S'6.3'
p286
sg60
S'0.9'
p287
sg62
S'.368'
p288
sg64
S'61'
p289
sg66
g73
sbasS'_advanced'
p290
(lp291
(isrc.gp1.models.Advanced
Advanced
p292
(dp293
S'_offensiveReboundPercentage'
p294
S'2.6'
p295
sS'_turnOverPercentage'
p296
S'14.2'
p297
sS'_winSharesPer48Minutes'
p298
S'.010'
p299
sS'_stealPercentage'
p300
S'2.1'
p301
sS'_usagePercentage'
p302
S'19.3'
p303
sS'_totalReboundsPercentage'
p304
S'5.6'
p305
sS'_defensiveBoxPlusMinus'
p306
S'-1.4'
p307
sg22
S'SG'
p308
sS'_valueOverReplacementPlayer'
p309
S'-0.6'
p310
sS'_trueShootingPercentage'
p311
S'.460'
p312
sS'_defensiveReboundPercentage'
p313
S'8.5'
p314
sS'_freeThrowsAttempRate'
p315
S'.261'
p316
sS'_threePointsAttempRate'
p317
S'.066'
p318
sg28
S'NBA'
p319
sS'_offensiveBoxPlusMinues'
p320
S'-3.7'
p321
sS'_assistPercentage'
p322
S'16.2'
p323
sS'_defensiveWinShares'
p324
S'0.6'
p325
sg40
S'22'
p326
sg42
S'PHI'
p327
sg44
S'73'
p328
sS'_blockPercentage'
p329
S'0.3'
p330
sS'_playerEfficiencyRating'
p331
S'9.9'
p332
sS'_offensiveWinShares'
p333
S'-0.5'
p334
sg64
S'800'
p335
sS'_boxPlusMinus'
p336
S'-5.1'
p337
sg56
S'1990-91'
p338
sS'_winShares'
p339
S'0.2'
p340
sba(isrc.gp1.models.Advanced
Advanced
p341
(dp342
g294
S'4.1'
p343
sg296
S'18.0'
p344
sg298
S'-0.115'
p345
sg300
S'1.8'
p346
sg302
S'21.0'
p347
sg304
S'6.2'
p348
sg306
S'-2.0'
p349
sg22
S'SG'
p350
sg309
S'-0.5'
p351
sg311
S'.369'
p352
sg313
S'8.1'
p353
sg315
S'.220'
p354
sg317
S'.040'
p355
sg28
S'NBA'
p356
sg320
S'-7.6'
p357
sg322
S'10.4'
p358
sg324
S'0.2'
p359
sg40
S'23'
p360
sg42
S'PHI'
p361
sg44
S'34'
p362
sg329
S'0.4'
p363
sg331
S'3.6'
p364
sg333
S'-0.8'
p365
sg64
S'279'
p366
sg336
S'-9.6'
p367
sg56
S'1991-92'
p368
sg339
S'-0.7'
p369
sba(isrc.gp1.models.Advanced
Advanced
p370
(dp371
g294
S'0.0'
p372
sg296
S'19.3'
p373
sg298
S'.022'
p374
sg300
S'0.0'
p375
sg302
S'16.2'
p376
sg304
S'5.5'
p377
sg306
S'-3.6'
p378
sg22
S'SG'
p379
sg309
S'-0.1'
p380
sg311
S'.559'
p381
sg313
S'11.4'
p382
sg315
S'.889'
p383
sg317
S'.000'
p384
sg28
S'NBA'
p385
sg320
S'-5.2'
p386
sg322
S'13.5'
p387
sg324
S'0.0'
p388
sg40
S'26'
p389
sg42
S'WSB'
p390
sg44
g119
sg329
S'0.0'
p391
sg331
S'6.9'
p392
sg333
S'0.0'
p393
sg64
S'42'
p394
sg336
S'-8.8'
p395
sg56
S'1994-95'
p396
sg339
S'0.0'
p397
sba(isrc.gp1.models.Advanced
Advanced
p398
(dp399
g294
S'6.0'
p400
sg296
S'4.6'
p401
sg298
S'-0.012'
p402
sg300
S'0.9'
p403
sg302
S'16.5'
p404
sg304
S'8.7'
p405
sg306
S'-2.7'
p406
sg22
S'SG'
p407
sg309
S'-0.1'
p408
sg311
S'.361'
p409
sg313
S'11.2'
p410
sg315
S'.211'
p411
sg317
S'.000'
p412
sg28
S'NBA'
p413
sg320
S'-5.2'
p414
sg322
S'5.4'
p415
sg324
S'0.0'
p416
sg40
S'29'
p417
sg42
S'ATL'
p418
sg44
g19
sg329
S'0.0'
p419
sg331
S'6.3'
p420
sg333
S'-0.1'
p421
sg64
S'61'
p422
sg336
S'-7.9'
p423
sg56
S'1997-98'
p424
sg339
S'0.0'
p425
sbasS'_per36Minutes'
p426
(lp427
(isrc.gp1.models.Per36Minutes
Per36Minutes
p428
(dp429
g8
S'0.8'
p430
sg10
S'0.8'
p431
sg12
S'.408'
p432
sg14
S'4.0'
p433
sg16
S'.278'
p434
sg18
S'0.2'
p435
sg20
S'12.6'
p436
sg22
S'SG'
p437
sg24
S'.732'
p438
sg28
S'NBA'
p439
sg30
S'1.5'
p440
sg32
S'12.2'
p441
sg34
S'3.4'
p442
sg36
S'3.2'
p443
sg38
S'3.6'
p444
sg40
S'22'
p445
sg42
S'PHI'
p446
sg44
S'73'
p447
sg46
S'0.2'
p448
sg48
S'4.8'
p449
sg50
S'2.3'
p450
sg52
S'11.4'
p451
sg54
S'2.8'
p452
sg56
S'1990-91'
p453
sg58
S'5.0'
p454
sg60
S'2.3'
p455
sg62
S'.417'
p456
sg64
S'800'
p457
sg66
g47
sba(isrc.gp1.models.Per36Minutes
Per36Minutes
p458
(dp459
g8
S'1.3'
p460
sg10
S'0.5'
p461
sg12
S'.330'
p462
sg14
S'2.6'
p463
sg16
S'.000'
p464
sg18
S'0.0'
p465
sg20
S'10.5'
p466
sg22
S'SG'
p467
sg24
S'.682'
p468
sg28
S'NBA'
p469
sg30
S'1.3'
p470
sg32
S'12.9'
p471
sg34
S'4.3'
p472
sg36
S'2.8'
p473
sg38
S'3.9'
p474
sg40
S'23'
p475
sg42
S'PHI'
p476
sg44
S'34'
p477
sg46
S'0.3'
p478
sg48
S'4.3'
p479
sg50
S'1.9'
p480
sg52
S'12.4'
p481
sg54
S'2.6'
p482
sg56
S'1991-92'
p483
sg58
S'4.3'
p484
sg60
S'3.1'
p485
sg62
S'.344'
p486
sg64
S'279'
p487
sg66
g73
sba(isrc.gp1.models.Per36Minutes
Per36Minutes
p488
(dp489
g8
S'0.0'
p490
sg10
S'0.0'
p491
sg12
S'.444'
p492
sg14
S'3.4'
p493
sg16
g3
sg18
S'0.0'
p494
sg20
S'12.0'
p495
sg22
S'SG'
p496
sg24
S'.750'
p497
sg28
S'NBA'
p498
sg30
S'0.0'
p499
sg32
S'7.7'
p500
sg34
S'6.9'
p501
sg36
S'6.9'
p502
sg38
S'3.4'
p503
sg40
S'26'
p504
sg42
S'WSB'
p505
sg44
g119
sg46
S'0.0'
p506
sg48
S'3.4'
p507
sg50
S'5.1'
p508
sg52
S'7.7'
p509
sg54
S'3.4'
p510
sg56
S'1994-95'
p511
sg58
S'3.4'
p512
sg60
S'2.6'
p513
sg62
S'.444'
p514
sg64
S'42'
p515
sg66
g73
sba(isrc.gp1.models.Per36Minutes
Per36Minutes
p516
(dp517
g8
S'1.8'
p518
sg10
S'0.0'
p519
sg12
S'.368'
p520
sg14
S'1.2'
p521
sg16
g3
sg18
S'0.0'
p522
sg20
S'8.9'
p523
sg22
S'SG'
p524
sg24
S'.250'
p525
sg28
S'NBA'
p526
sg30
S'0.6'
p527
sg32
S'11.2'
p528
sg34
S'2.4'
p529
sg36
S'2.4'
p530
sg38
S'5.3'
p531
sg40
S'29'
p532
sg42
S'ATL'
p533
sg44
g19
sg46
S'0.0'
p534
sg48
S'4.1'
p535
sg50
S'0.6'
p536
sg52
S'11.2'
p537
sg54
S'3.5'
p538
sg56
S'1997-98'
p539
sg58
S'4.1'
p540
sg60
S'0.6'
p541
sg62
S'.368'
p542
sg64
S'61'
p543
sg66
g73
sbasS'_fromYear'
p544
S'1991'
p545
sS'_url'
p546
S'http://www.basketball-reference.com/players/o/olivebr01.html'
p547
sS'_perGame'
p548
(isrc.gp1.models.PerGame
PerGame
p549
(dp550
g8
S'0.6'
p551
sg10
S'0.0'
p552
sg12
S'.368'
p553
sS'_effectiveFieldGalPercentage'
p554
S'.368'
p555
sg14
S'0.4'
p556
sg16
g3
sg18
S'0.0'
p557
sg20
S'3.0'
p558
sg22
S'SG'
p559
sg24
S'.250'
p560
sg28
S'NBA'
p561
sg30
S'0.2'
p562
sg34
S'0.8'
p563
sS'_fieldGoalsttempted'
p564
S'3.8'
p565
sg36
S'0.8'
p566
sg38
S'1.8'
p567
sg40
S'29'
p568
sg42
S'ATL'
p569
sg44
g19
sg46
S'0.0'
p570
sg48
S'1.4'
p571
sg50
S'0.2'
p572
sg52
S'3.8'
p573
sg54
S'1.2'
p574
sg56
S'1997-98'
p575
sg58
S'1.4'
p576
sg60
S'0.2'
p577
sg62
S'.368'
p578
sg64
S'12.2'
p579
sg66
g73
sbsS'_weight'
p580
S'210'
p581
sS'_dob'
p582
S'1-6-1968'
p583
sS'_salary'
p584
(lp585
(isrc.gp1.models.Salary
Salary
p586
(dp587
g42
S'Philadelphia 76ers'
p588
sg28
S'NBA'
p589
sg584
S'$455,000'
p590
sg56
S'1990-91'
p591
sba(isrc.gp1.models.Salary
Salary
p592
(dp593
g42
S'Philadelphia 76ers'
p594
sg28
S'NBA'
p595
sg584
S'$456,000'
p596
sg56
S'1991-92'
p597
sba(isrc.gp1.models.Salary
Salary
p598
(dp599
g42
S'Philadelphia 76ers'
p600
sg28
S'NBA'
p601
sg584
S'$456,000'
p602
sg56
S'1992-93'
p603
sba(isrc.gp1.models.Salary
Salary
p604
(dp605
g42
S'Philadelphia 76ers'
p606
sg28
S'NBA'
p607
sg584
S'$456,000'
p608
sg56
S'1993-94'
p609
sba(isrc.gp1.models.Salary
Salary
p610
(dp611
g42
S'Washington Bullets'
p612
sg28
S'NBA'
p613
sg584
S'$150,000'
p614
sg56
S'1994-95'
p615
sbasg22
S'G'
p616
sb.