(isrc.gp1.models.Player
Player
p0
(dp1
S'_experience'
p2
S'NA'
p3
sS'_totals'
p4
(lp5
(isrc.gp1.models.Totals
Totals
p6
(dp7
S'_offensiveRebounds'
p8
g3
sS'_threePointsAttempted'
p9
g3
sS'_fieldGoalsPercentage'
p10
S'.323'
p11
sS'_assist'
p12
S'42'
p13
sS'_threePointsPercentage'
p14
g3
sS'_threePoints'
p15
g3
sS'_points'
p16
S'113'
p17
sS'_position'
p18
S'PF'
p19
sS'_freeThrowsPercentage'
p20
S'.692'
p21
sS'_effectiveFieldGoalPercentage'
p22
S'.323'
p23
sS'_league'
p24
S'NBA'
p25
sS'_steals'
p26
g3
sS'_fieldGoalsAttempted'
p27
S'133'
p28
sS'_personalFouls'
p29
S'78'
p30
sS'_freeThrowsAttempted'
p31
S'39'
p32
sS'_totalRebounds'
p33
S'105'
p34
sS'_age'
p35
S'22'
p36
sS'_team'
p37
S'CIN'
p38
sS'_games'
p39
S'52'
p40
sS'_blocks'
p41
g3
sS'_twoPoints'
p42
S'43'
p43
sS'_freeThrows'
p44
S'27'
p45
sS'_twoPointsAttempted'
p46
S'133'
p47
sS'_defensiveRebounds'
p48
g3
sS'_season'
p49
S'1962-63'
p50
sS'_fieldGoals'
p51
S'43'
p52
sS'_turnOvers'
p53
g3
sS'_twoPointsPercentage'
p54
S'.323'
p55
sS'_minutesPlayed'
p56
S'373'
p57
sS'_gamesStarted'
p58
g3
sba(isrc.gp1.models.Totals
Totals
p59
(dp60
g8
g3
sg9
g3
sg10
S'.405'
p61
sg12
S'29'
p62
sg14
g3
sg15
g3
sg16
S'202'
p63
sg18
S'PF'
p64
sg20
S'.561'
p65
sg22
S'.405'
p66
sg24
S'NBA'
p67
sg26
g3
sg27
S'210'
p68
sg29
S'78'
p69
sg31
S'57'
p70
sg33
S'149'
p71
sg35
S'23'
p72
sg37
S'CIN'
p73
sg39
S'49'
p74
sg41
g3
sg42
S'85'
p75
sg44
S'32'
p76
sg46
S'210'
p77
sg48
g3
sg49
S'1963-64'
p78
sg51
S'85'
p79
sg53
g3
sg54
S'.405'
p80
sg56
S'513'
p81
sg58
g3
sba(isrc.gp1.models.Totals
Totals
p82
(dp83
g8
g3
sg9
g3
sg10
S'.438'
p84
sg12
S'84'
p85
sg14
g3
sg15
g3
sg16
S'592'
p86
sg18
S'PF'
p87
sg20
S'.738'
p88
sg22
S'.438'
p89
sg24
S'NBA'
p90
sg26
g3
sg27
S'512'
p91
sg29
S'203'
p92
sg31
S'195'
p93
sg33
S'333'
p94
sg35
S'24'
p95
sg37
S'CIN'
p96
sg39
S'79'
p97
sg41
g3
sg42
S'224'
p98
sg44
S'144'
p99
sg46
S'512'
p100
sg48
g3
sg49
S'1964-65'
p101
sg51
S'224'
p102
sg53
g3
sg54
S'.438'
p103
sg56
S'1372'
p104
sg58
g3
sba(isrc.gp1.models.Totals
Totals
p105
(dp106
g8
g3
sg9
g3
sg10
S'.420'
p107
sg12
S'20'
p108
sg14
g3
sg15
g3
sg16
S'201'
p109
sg18
S'PF'
p110
sg20
S'.443'
p111
sg22
S'.420'
p112
sg24
S'NBA'
p113
sg26
g3
sg27
S'193'
p114
sg29
S'81'
p115
sg31
S'88'
p116
sg33
S'192'
p117
sg35
S'25'
p118
sg37
S'TOT'
p119
sg39
S'59'
p120
sg41
g3
sg42
S'81'
p121
sg44
S'39'
p122
sg46
S'193'
p123
sg48
g3
sg49
S'1965-66'
p124
sg51
S'81'
p125
sg53
g3
sg54
S'.420'
p126
sg56
S'602'
p127
sg58
g3
sba(isrc.gp1.models.Totals
Totals
p128
(dp129
g8
g3
sg9
g3
sg10
S'.375'
p130
sg12
S'2'
p131
sg14
g3
sg15
g3
sg16
S'7'
p132
sg18
S'PF'
p133
sg20
S'.333'
p134
sg22
S'.375'
p135
sg24
S'NBA'
p136
sg26
g3
sg27
S'8'
p137
sg29
S'4'
p138
sg31
S'3'
p139
sg33
S'13'
p140
sg35
S'25'
p141
sg37
S'CIN'
p142
sg39
g138
sg41
g3
sg42
g139
sg44
S'1'
p143
sg46
g137
sg48
g3
sg49
S'1965-66'
p144
sg51
g139
sg53
g3
sg54
S'.375'
p145
sg56
S'36'
p146
sg58
g3
sba(isrc.gp1.models.Totals
Totals
p147
(dp148
g8
g3
sg9
g3
sg10
S'.422'
p149
sg12
S'18'
p150
sg14
g3
sg15
g3
sg16
S'194'
p151
sg18
S'PF'
p152
sg20
S'.447'
p153
sg22
S'.422'
p154
sg24
S'NBA'
p155
sg26
g3
sg27
S'185'
p156
sg29
S'77'
p157
sg31
S'85'
p158
sg33
S'179'
p159
sg35
S'25'
p160
sg37
S'SFW'
p161
sg39
S'55'
p162
sg41
g3
sg42
S'78'
p163
sg44
S'38'
p164
sg46
S'185'
p165
sg48
g3
sg49
S'1965-66'
p166
sg51
S'78'
p167
sg53
g3
sg54
S'.422'
p168
sg56
S'566'
p169
sg58
g3
sba(isrc.gp1.models.Totals
Totals
p170
(dp171
g8
g3
sg9
g3
sg10
S'.449'
p172
sg12
S'32'
p173
sg14
g3
sg15
g3
sg16
S'173'
p174
sg18
S'PF'
p175
sg20
S'.397'
p176
sg22
S'.449'
p177
sg24
S'NBA'
p178
sg26
g3
sg27
S'167'
p179
sg29
S'51'
p180
sg31
S'58'
p181
sg33
S'103'
p182
sg35
S'26'
p183
sg37
S'SFW'
p184
sg39
S'40'
p185
sg41
g3
sg42
S'75'
p186
sg44
S'23'
p187
sg46
S'167'
p188
sg48
g3
sg49
S'1966-67'
p189
sg51
S'75'
p190
sg53
g3
sg54
S'.449'
p191
sg56
S'348'
p192
sg58
g3
sba(isrc.gp1.models.Totals
Totals
p193
(dp194
g8
g3
sg9
g3
sg10
S'.456'
p195
sg12
S'75'
p196
sg14
g3
sg15
g3
sg16
S'277'
p197
sg18
S'PF'
p198
sg20
S'.274'
p199
sg22
S'.456'
p200
sg24
S'NBA'
p201
sg26
g3
sg27
S'285'
p202
sg29
S'136'
p203
sg31
S'62'
p204
sg33
S'204'
p205
sg35
S'27'
p206
sg37
S'SEA'
p207
sg39
S'73'
p208
sg41
g3
sg42
S'130'
p209
sg44
S'17'
p210
sg46
S'285'
p211
sg48
g3
sg49
S'1967-68'
p212
sg51
S'130'
p213
sg53
g3
sg54
S'.456'
p214
sg56
S'897'
p215
sg58
g3
sba(isrc.gp1.models.Totals
Totals
p216
(dp217
g8
g3
sg9
g3
sg10
S'.357'
p218
sg12
S'11'
p219
sg14
g3
sg15
g3
sg16
S'34'
p220
sg18
S'PF'
p221
sg20
S'.222'
p222
sg22
S'.357'
p223
sg24
S'NBA'
p224
sg26
g3
sg27
S'42'
p225
sg29
S'14'
p226
sg31
S'18'
p227
sg33
S'25'
p228
sg35
S'28'
p229
sg37
S'TOT'
p230
sg39
S'17'
p231
sg41
g3
sg42
S'15'
p232
sg44
g138
sg46
S'42'
p233
sg48
g3
sg49
S'1968-69'
p234
sg51
S'15'
p235
sg53
g3
sg54
S'.357'
p236
sg56
S'113'
p237
sg58
g3
sba(isrc.gp1.models.Totals
Totals
p238
(dp239
g8
g3
sg9
g3
sg10
S'.368'
p240
sg12
g138
sg14
g3
sg15
g3
sg16
S'14'
p241
sg18
S'PF'
p242
sg20
S'.000'
p243
sg22
S'.368'
p244
sg24
S'NBA'
p245
sg26
g3
sg27
S'19'
p246
sg29
S'6'
p247
sg31
g247
sg33
S'14'
p248
sg35
S'28'
p249
sg37
S'BOS'
p250
sg39
g132
sg41
g3
sg42
g132
sg44
S'0'
p251
sg46
S'19'
p252
sg48
g3
sg49
S'1968-69'
p253
sg51
g132
sg53
g3
sg54
S'.368'
p254
sg56
S'43'
p255
sg58
g3
sba(isrc.gp1.models.Totals
Totals
p256
(dp257
g8
g3
sg9
g3
sg10
S'.348'
p258
sg12
g132
sg14
g3
sg15
g3
sg16
S'20'
p259
sg18
S'PF'
p260
sg20
S'.333'
p261
sg22
S'.348'
p262
sg24
S'NBA'
p263
sg26
g3
sg27
S'23'
p264
sg29
g137
sg31
S'12'
p265
sg33
S'11'
p266
sg35
S'28'
p267
sg37
S'DET'
p268
sg39
S'10'
p269
sg41
g3
sg42
g137
sg44
g138
sg46
S'23'
p270
sg48
g3
sg49
S'1968-69'
p271
sg51
g137
sg53
g3
sg54
S'.348'
p272
sg56
S'70'
p273
sg58
g3
sba(isrc.gp1.models.Totals
Totals
p274
(dp275
g8
S'140'
p276
sg9
g138
sg10
S'.479'
p277
sg12
S'249'
p278
sg14
S'.250'
p279
sg15
g143
sg16
S'343'
p280
sg18
S'PF'
p281
sg20
S'.356'
p282
sg22
S'.480'
p283
sg24
S'ABA'
p284
sg26
g3
sg27
S'330'
p285
sg29
S'234'
p286
sg31
S'73'
p287
sg33
S'374'
p288
sg35
S'29'
p289
sg37
S'KEN'
p290
sg39
S'84'
p291
sg41
g3
sg42
S'157'
p292
sg44
S'26'
p293
sg46
S'326'
p294
sg48
S'234'
p295
sg49
S'1969-70'
p296
sg51
S'158'
p297
sg53
S'113'
p298
sg54
S'.482'
p299
sg56
S'1375'
p300
sg58
g3
sbasS'_college'
p301
S'University of Louisville'
p302
sS'_toYear'
p303
S'1970'
p304
sS'_height'
p305
S'6-8'
p306
sS'_active'
p307
I00
sS'_shootingHand'
p308
VRight
p309
sS'_name'
p310
S'Bud Olsen'
p311
sS'_per100Possessions'
p312
(lp313
sS'_advanced'
p314
(lp315
(isrc.gp1.models.Advanced
Advanced
p316
(dp317
S'_offensiveReboundPercentage'
p318
g3
sS'_turnOverPercentage'
p319
g3
sS'_winSharesPer48Minutes'
p320
S'-0.043'
p321
sS'_stealPercentage'
p322
g3
sS'_usagePercentage'
p323
g3
sS'_totalReboundsPercentage'
p324
g3
sS'_defensiveBoxPlusMinus'
p325
g3
sg18
S'PF'
p326
sS'_valueOverReplacementPlayer'
p327
g3
sS'_trueShootingPercentage'
p328
S'.376'
p329
sS'_defensiveReboundPercentage'
p330
g3
sS'_freeThrowsAttempRate'
p331
S'.293'
p332
sS'_threePointsAttempRate'
p333
g3
sg24
S'NBA'
p334
sS'_offensiveBoxPlusMinues'
p335
g3
sS'_assistPercentage'
p336
g3
sS'_defensiveWinShares'
p337
S'0.3'
p338
sg35
S'22'
p339
sg37
S'CIN'
p340
sg39
S'52'
p341
sS'_blockPercentage'
p342
g3
sS'_playerEfficiencyRating'
p343
S'7.9'
p344
sS'_offensiveWinShares'
p345
S'-0.6'
p346
sg56
S'373'
p347
sS'_boxPlusMinus'
p348
g3
sg49
S'1962-63'
p349
sS'_winShares'
p350
S'-0.3'
p351
sba(isrc.gp1.models.Advanced
Advanced
p352
(dp353
g318
g3
sg319
g3
sg320
S'.022'
p354
sg322
g3
sg323
g3
sg324
g3
sg325
g3
sg18
S'PF'
p355
sg327
g3
sg328
S'.430'
p356
sg330
g3
sg331
S'.271'
p357
sg333
g3
sg24
S'NBA'
p358
sg335
g3
sg336
g3
sg337
S'0.5'
p359
sg35
S'23'
p360
sg37
S'CIN'
p361
sg39
S'49'
p362
sg342
g3
sg343
S'10.9'
p363
sg345
S'-0.2'
p364
sg56
S'513'
p365
sg348
g3
sg49
S'1963-64'
p366
sg350
S'0.2'
p367
sba(isrc.gp1.models.Advanced
Advanced
p368
(dp369
g318
g3
sg319
g3
sg320
S'.087'
p370
sg322
g3
sg323
g3
sg324
g3
sg325
g3
sg18
S'PF'
p371
sg327
g3
sg328
S'.495'
p372
sg330
g3
sg331
S'.381'
p373
sg333
g3
sg24
S'NBA'
p374
sg335
g3
sg336
S'8.3'
p375
sg337
S'0.7'
p376
sg35
S'24'
p377
sg37
S'CIN'
p378
sg39
S'79'
p379
sg342
g3
sg343
S'13.0'
p380
sg345
S'1.7'
p381
sg56
S'1372'
p382
sg348
g3
sg49
S'1964-65'
p383
sg350
S'2.5'
p384
sba(isrc.gp1.models.Advanced
Advanced
p385
(dp386
g318
g3
sg319
g3
sg320
S'.035'
p387
sg322
g3
sg323
g3
sg324
g3
sg325
g3
sg18
S'PF'
p388
sg327
g3
sg328
S'.434'
p389
sg330
g3
sg331
S'.456'
p390
sg333
g3
sg24
S'NBA'
p391
sg335
g3
sg336
S'4.2'
p392
sg337
S'0.6'
p393
sg35
S'25'
p394
sg37
S'TOT'
p395
sg39
S'59'
p396
sg342
g3
sg343
S'9.5'
p397
sg345
S'-0.2'
p398
sg56
S'602'
p399
sg348
g3
sg49
S'1965-66'
p400
sg350
S'0.4'
p401
sba(isrc.gp1.models.Advanced
Advanced
p402
(dp403
g318
g3
sg319
g3
sg320
S'-0.006'
p404
sg322
g3
sg323
g3
sg324
g3
sg325
g3
sg18
S'PF'
p405
sg327
g3
sg328
S'.376'
p406
sg330
g3
sg331
S'.375'
p407
sg333
g3
sg24
S'NBA'
p408
sg335
g3
sg336
S'6.5'
p409
sg337
S'0.0'
p410
sg35
S'25'
p411
sg37
S'CIN'
p412
sg39
g138
sg342
g3
sg343
S'8.1'
p413
sg345
S'0.0'
p414
sg56
S'36'
p415
sg348
g3
sg49
S'1965-66'
p416
sg350
S'0.0'
p417
sba(isrc.gp1.models.Advanced
Advanced
p418
(dp419
g318
g3
sg319
g3
sg320
S'.037'
p420
sg322
g3
sg323
g3
sg324
g3
sg325
g3
sg18
S'PF'
p421
sg327
g3
sg328
S'.436'
p422
sg330
g3
sg331
S'.459'
p423
sg333
g3
sg24
S'NBA'
p424
sg335
g3
sg336
S'4.0'
p425
sg337
S'0.6'
p426
sg35
S'25'
p427
sg37
S'SFW'
p428
sg39
S'55'
p429
sg342
g3
sg343
S'9.6'
p430
sg345
S'-0.2'
p431
sg56
S'566'
p432
sg348
g3
sg49
S'1965-66'
p433
sg350
S'0.4'
p434
sba(isrc.gp1.models.Advanced
Advanced
p435
(dp436
g318
g3
sg319
g3
sg320
S'.068'
p437
sg322
g3
sg323
g3
sg324
g3
sg325
g3
sg18
S'PF'
p438
sg327
g3
sg328
S'.449'
p439
sg330
g3
sg331
S'.347'
p440
sg333
g3
sg24
S'NBA'
p441
sg335
g3
sg336
S'12.1'
p442
sg337
S'0.5'
p443
sg35
S'26'
p444
sg37
S'SFW'
p445
sg39
S'40'
p446
sg342
g3
sg343
S'13.4'
p447
sg345
S'-0.1'
p448
sg56
S'348'
p449
sg348
g3
sg49
S'1966-67'
p450
sg350
S'0.5'
p451
sba(isrc.gp1.models.Advanced
Advanced
p452
(dp453
g318
g3
sg319
g3
sg320
S'.012'
p454
sg322
g3
sg323
g3
sg324
g3
sg325
g3
sg18
S'PF'
p455
sg327
g3
sg328
S'.444'
p456
sg330
g3
sg331
S'.218'
p457
sg333
g3
sg24
S'NBA'
p458
sg335
g3
sg336
S'10.3'
p459
sg337
S'0.5'
p460
sg35
S'27'
p461
sg37
S'SEA'
p462
sg39
S'73'
p463
sg342
g3
sg343
S'8.5'
p464
sg345
S'-0.2'
p465
sg56
S'897'
p466
sg348
g3
sg49
S'1967-68'
p467
sg350
S'0.2'
p468
sba(isrc.gp1.models.Advanced
Advanced
p469
(dp470
g318
g3
sg319
g3
sg320
S'-0.077'
p471
sg322
g3
sg323
g3
sg324
g3
sg325
g3
sg18
S'PF'
p472
sg327
g3
sg328
S'.341'
p473
sg330
g3
sg331
S'.429'
p474
sg333
g3
sg24
S'NBA'
p475
sg335
g3
sg336
S'12.5'
p476
sg337
S'0.1'
p477
sg35
S'28'
p478
sg37
S'TOT'
p479
sg39
S'17'
p480
sg342
g3
sg343
S'6.7'
p481
sg345
S'-0.3'
p482
sg56
S'113'
p483
sg348
g3
sg49
S'1968-69'
p484
sg350
S'-0.2'
p485
sba(isrc.gp1.models.Advanced
Advanced
p486
(dp487
g318
g3
sg319
g3
sg320
S'-0.065'
p488
sg322
g3
sg323
g3
sg324
g3
sg325
g3
sg18
S'PF'
p489
sg327
g3
sg328
S'.323'
p490
sg330
g3
sg331
S'.316'
p491
sg333
g3
sg24
S'NBA'
p492
sg335
g3
sg336
S'12.6'
p493
sg337
S'0.1'
p494
sg35
S'28'
p495
sg37
S'BOS'
p496
sg39
g132
sg342
g3
sg343
S'7.8'
p497
sg345
S'-0.2'
p498
sg56
S'43'
p499
sg348
g3
sg49
S'1968-69'
p500
sg350
S'-0.1'
p501
sba(isrc.gp1.models.Advanced
Advanced
p502
(dp503
g318
g3
sg319
g3
sg320
S'-0.084'
p504
sg322
g3
sg323
g3
sg324
g3
sg325
g3
sg18
S'PF'
p505
sg327
g3
sg328
S'.354'
p506
sg330
g3
sg331
S'.522'
p507
sg333
g3
sg24
S'NBA'
p508
sg335
g3
sg336
S'12.5'
p509
sg337
S'0.0'
p510
sg35
S'28'
p511
sg37
S'DET'
p512
sg39
S'10'
p513
sg342
g3
sg343
S'6.1'
p514
sg345
S'-0.1'
p515
sg56
S'70'
p516
sg348
g3
sg49
S'1968-69'
p517
sg350
S'-0.1'
p518
sba(isrc.gp1.models.Advanced
Advanced
p519
(dp520
g318
g3
sg319
S'23.8'
p521
sg320
S'.099'
p522
sg322
g3
sg323
S'12.5'
p523
sg324
S'11.9'
p524
sg325
g3
sg18
S'PF'
p525
sg327
g3
sg328
S'.474'
p526
sg330
g3
sg331
S'.221'
p527
sg333
S'.012'
p528
sg24
S'ABA'
p529
sg335
g3
sg336
S'23.6'
p530
sg337
S'2.5'
p531
sg35
S'29'
p532
sg37
S'KEN'
p533
sg39
S'84'
p534
sg342
g3
sg343
S'11.5'
p535
sg345
S'0.3'
p536
sg56
S'1375'
p537
sg348
g3
sg49
S'1969-70'
p538
sg350
S'2.8'
p539
sbasS'_per36Minutes'
p540
(lp541
(isrc.gp1.models.Per36Minutes
Per36Minutes
p542
(dp543
g8
g3
sg9
g3
sg10
S'.323'
p544
sg12
S'4.1'
p545
sg14
g3
sg15
g3
sg16
S'10.9'
p546
sg18
S'PF'
p547
sg20
S'.692'
p548
sg24
S'NBA'
p549
sg26
g3
sg27
S'12.8'
p550
sg29
S'7.5'
p551
sg31
S'3.8'
p552
sg33
S'10.1'
p553
sg35
S'22'
p554
sg37
S'CIN'
p555
sg39
S'52'
p556
sg41
g3
sg42
S'4.2'
p557
sg44
S'2.6'
p558
sg46
S'12.8'
p559
sg48
g3
sg49
S'1962-63'
p560
sg51
S'4.2'
p561
sg53
g3
sg54
S'.323'
p562
sg56
S'373'
p563
sg58
g3
sba(isrc.gp1.models.Per36Minutes
Per36Minutes
p564
(dp565
g8
g3
sg9
g3
sg10
S'.405'
p566
sg12
S'2.0'
p567
sg14
g3
sg15
g3
sg16
S'14.2'
p568
sg18
S'PF'
p569
sg20
S'.561'
p570
sg24
S'NBA'
p571
sg26
g3
sg27
S'14.7'
p572
sg29
S'5.5'
p573
sg31
S'4.0'
p574
sg33
S'10.5'
p575
sg35
S'23'
p576
sg37
S'CIN'
p577
sg39
S'49'
p578
sg41
g3
sg42
S'6.0'
p579
sg44
S'2.2'
p580
sg46
S'14.7'
p581
sg48
g3
sg49
S'1963-64'
p582
sg51
S'6.0'
p583
sg53
g3
sg54
S'.405'
p584
sg56
S'513'
p585
sg58
g3
sba(isrc.gp1.models.Per36Minutes
Per36Minutes
p586
(dp587
g8
g3
sg9
g3
sg10
S'.438'
p588
sg12
S'2.2'
p589
sg14
g3
sg15
g3
sg16
S'15.5'
p590
sg18
S'PF'
p591
sg20
S'.738'
p592
sg24
S'NBA'
p593
sg26
g3
sg27
S'13.4'
p594
sg29
S'5.3'
p595
sg31
S'5.1'
p596
sg33
S'8.7'
p597
sg35
S'24'
p598
sg37
S'CIN'
p599
sg39
S'79'
p600
sg41
g3
sg42
S'5.9'
p601
sg44
S'3.8'
p602
sg46
S'13.4'
p603
sg48
g3
sg49
S'1964-65'
p604
sg51
S'5.9'
p605
sg53
g3
sg54
S'.438'
p606
sg56
S'1372'
p607
sg58
g3
sba(isrc.gp1.models.Per36Minutes
Per36Minutes
p608
(dp609
g8
g3
sg9
g3
sg10
S'.420'
p610
sg12
S'1.2'
p611
sg14
g3
sg15
g3
sg16
S'12.0'
p612
sg18
S'PF'
p613
sg20
S'.443'
p614
sg24
S'NBA'
p615
sg26
g3
sg27
S'11.5'
p616
sg29
S'4.8'
p617
sg31
S'5.3'
p618
sg33
S'11.5'
p619
sg35
S'25'
p620
sg37
S'TOT'
p621
sg39
S'59'
p622
sg41
g3
sg42
S'4.8'
p623
sg44
S'2.3'
p624
sg46
S'11.5'
p625
sg48
g3
sg49
S'1965-66'
p626
sg51
S'4.8'
p627
sg53
g3
sg54
S'.420'
p628
sg56
S'602'
p629
sg58
g3
sba(isrc.gp1.models.Per36Minutes
Per36Minutes
p630
(dp631
g8
g3
sg9
g3
sg10
S'.375'
p632
sg12
S'2.0'
p633
sg14
g3
sg15
g3
sg16
S'7.0'
p634
sg18
S'PF'
p635
sg20
S'.333'
p636
sg24
S'NBA'
p637
sg26
g3
sg27
S'8.0'
p638
sg29
S'4.0'
p639
sg31
S'3.0'
p640
sg33
S'13.0'
p641
sg35
S'25'
p642
sg37
S'CIN'
p643
sg39
g138
sg41
g3
sg42
S'3.0'
p644
sg44
S'1.0'
p645
sg46
S'8.0'
p646
sg48
g3
sg49
S'1965-66'
p647
sg51
S'3.0'
p648
sg53
g3
sg54
S'.375'
p649
sg56
S'36'
p650
sg58
g3
sba(isrc.gp1.models.Per36Minutes
Per36Minutes
p651
(dp652
g8
g3
sg9
g3
sg10
S'.422'
p653
sg12
S'1.1'
p654
sg14
g3
sg15
g3
sg16
S'12.3'
p655
sg18
S'PF'
p656
sg20
S'.447'
p657
sg24
S'NBA'
p658
sg26
g3
sg27
S'11.8'
p659
sg29
S'4.9'
p660
sg31
S'5.4'
p661
sg33
S'11.4'
p662
sg35
S'25'
p663
sg37
S'SFW'
p664
sg39
S'55'
p665
sg41
g3
sg42
S'5.0'
p666
sg44
S'2.4'
p667
sg46
S'11.8'
p668
sg48
g3
sg49
S'1965-66'
p669
sg51
S'5.0'
p670
sg53
g3
sg54
S'.422'
p671
sg56
S'566'
p672
sg58
g3
sba(isrc.gp1.models.Per36Minutes
Per36Minutes
p673
(dp674
g8
g3
sg9
g3
sg10
S'.449'
p675
sg12
S'3.3'
p676
sg14
g3
sg15
g3
sg16
S'17.9'
p677
sg18
S'PF'
p678
sg20
S'.397'
p679
sg24
S'NBA'
p680
sg26
g3
sg27
S'17.3'
p681
sg29
S'5.3'
p682
sg31
S'6.0'
p683
sg33
S'10.7'
p684
sg35
S'26'
p685
sg37
S'SFW'
p686
sg39
S'40'
p687
sg41
g3
sg42
S'7.8'
p688
sg44
S'2.4'
p689
sg46
S'17.3'
p690
sg48
g3
sg49
S'1966-67'
p691
sg51
S'7.8'
p692
sg53
g3
sg54
S'.449'
p693
sg56
S'348'
p694
sg58
g3
sba(isrc.gp1.models.Per36Minutes
Per36Minutes
p695
(dp696
g8
g3
sg9
g3
sg10
S'.456'
p697
sg12
S'3.0'
p698
sg14
g3
sg15
g3
sg16
S'11.1'
p699
sg18
S'PF'
p700
sg20
S'.274'
p701
sg24
S'NBA'
p702
sg26
g3
sg27
S'11.4'
p703
sg29
S'5.5'
p704
sg31
S'2.5'
p705
sg33
S'8.2'
p706
sg35
S'27'
p707
sg37
S'SEA'
p708
sg39
S'73'
p709
sg41
g3
sg42
S'5.2'
p710
sg44
S'0.7'
p711
sg46
S'11.4'
p712
sg48
g3
sg49
S'1967-68'
p713
sg51
S'5.2'
p714
sg53
g3
sg54
S'.456'
p715
sg56
S'897'
p716
sg58
g3
sba(isrc.gp1.models.Per36Minutes
Per36Minutes
p717
(dp718
g8
g3
sg9
g3
sg10
S'.357'
p719
sg12
S'3.5'
p720
sg14
g3
sg15
g3
sg16
S'10.8'
p721
sg18
S'PF'
p722
sg20
S'.222'
p723
sg24
S'NBA'
p724
sg26
g3
sg27
S'13.4'
p725
sg29
S'4.5'
p726
sg31
S'5.7'
p727
sg33
S'8.0'
p728
sg35
S'28'
p729
sg37
S'TOT'
p730
sg39
S'17'
p731
sg41
g3
sg42
S'4.8'
p732
sg44
S'1.3'
p733
sg46
S'13.4'
p734
sg48
g3
sg49
S'1968-69'
p735
sg51
S'4.8'
p736
sg53
g3
sg54
S'.357'
p737
sg56
S'113'
p738
sg58
g3
sba(isrc.gp1.models.Per36Minutes
Per36Minutes
p739
(dp740
g8
g3
sg9
g3
sg10
S'.368'
p741
sg12
S'3.3'
p742
sg14
g3
sg15
g3
sg16
S'11.7'
p743
sg18
S'PF'
p744
sg20
S'.000'
p745
sg24
S'NBA'
p746
sg26
g3
sg27
S'15.9'
p747
sg29
S'5.0'
p748
sg31
S'5.0'
p749
sg33
S'11.7'
p750
sg35
S'28'
p751
sg37
S'BOS'
p752
sg39
g132
sg41
g3
sg42
S'5.9'
p753
sg44
S'0.0'
p754
sg46
S'15.9'
p755
sg48
g3
sg49
S'1968-69'
p756
sg51
S'5.9'
p757
sg53
g3
sg54
S'.368'
p758
sg56
S'43'
p759
sg58
g3
sba(isrc.gp1.models.Per36Minutes
Per36Minutes
p760
(dp761
g8
g3
sg9
g3
sg10
S'.348'
p762
sg12
S'3.6'
p763
sg14
g3
sg15
g3
sg16
S'10.3'
p764
sg18
S'PF'
p765
sg20
S'.333'
p766
sg24
S'NBA'
p767
sg26
g3
sg27
S'11.8'
p768
sg29
S'4.1'
p769
sg31
S'6.2'
p770
sg33
S'5.7'
p771
sg35
S'28'
p772
sg37
S'DET'
p773
sg39
S'10'
p774
sg41
g3
sg42
S'4.1'
p775
sg44
S'2.1'
p776
sg46
S'11.8'
p777
sg48
g3
sg49
S'1968-69'
p778
sg51
S'4.1'
p779
sg53
g3
sg54
S'.348'
p780
sg56
S'70'
p781
sg58
g3
sba(isrc.gp1.models.Per36Minutes
Per36Minutes
p782
(dp783
g8
S'3.7'
p784
sg9
S'0.1'
p785
sg10
S'.479'
p786
sg12
S'6.5'
p787
sg14
S'.250'
p788
sg15
S'0.0'
p789
sg16
S'9.0'
p790
sg18
S'PF'
p791
sg20
S'.356'
p792
sg24
S'ABA'
p793
sg26
g3
sg27
S'8.6'
p794
sg29
S'6.1'
p795
sg31
S'1.9'
p796
sg33
S'9.8'
p797
sg35
S'29'
p798
sg37
S'KEN'
p799
sg39
S'84'
p800
sg41
g3
sg42
S'4.1'
p801
sg44
S'0.7'
p802
sg46
S'8.5'
p803
sg48
S'6.1'
p804
sg49
S'1969-70'
p805
sg51
S'4.1'
p806
sg53
S'3.0'
p807
sg54
S'.482'
p808
sg56
S'1375'
p809
sg58
g3
sbasS'_fromYear'
p810
S'1963'
p811
sS'_url'
p812
S'http://www.basketball-reference.com/players/o/olsenbu01.html'
p813
sS'_perGame'
p814
(isrc.gp1.models.PerGame
PerGame
p815
(dp816
g8
S'1.7'
p817
sg9
S'0.0'
p818
sg10
S'.479'
p819
sS'_effectiveFieldGalPercentage'
p820
S'.480'
p821
sg12
S'3.0'
p822
sg14
S'.250'
p823
sg15
S'0.0'
p824
sg16
S'4.1'
p825
sg18
S'PF'
p826
sg20
S'.356'
p827
sg24
S'ABA'
p828
sg26
g3
sg29
S'2.8'
p829
sS'_fieldGoalsttempted'
p830
S'3.9'
p831
sg31
S'0.9'
p832
sg33
S'4.5'
p833
sg35
S'29'
p834
sg37
S'KEN'
p835
sg39
S'84'
p836
sg41
g3
sg42
S'1.9'
p837
sg44
S'0.3'
p838
sg46
S'3.9'
p839
sg48
S'2.8'
p840
sg49
S'1969-70'
p841
sg51
S'1.9'
p842
sg53
S'1.3'
p843
sg54
S'.482'
p844
sg56
S'16.4'
p845
sg58
g3
sbsS'_weight'
p846
S'220'
p847
sS'_dob'
p848
S'25-7-1940'
p849
sS'_salary'
p850
(lp851
sg18
S'F-C'
p852
sb.