(isrc.gp1.models.Player
Player
p0
(dp1
S'_experience'
p2
V5
p3
sS'_totals'
p4
(lp5
(isrc.gp1.models.Totals
Totals
p6
(dp7
S'_offensiveRebounds'
p8
S'112'
p9
sS'_threePointsAttempted'
p10
S'0'
p11
sS'_fieldGoalsPercentage'
p12
S'.553'
p13
sS'_assist'
p14
S'32'
p15
sS'_threePointsPercentage'
p16
S'NA'
p17
sS'_threePoints'
p18
g11
sS'_points'
p19
S'229'
p20
sS'_position'
p21
S'C'
p22
sS'_freeThrowsPercentage'
p23
S'.503'
p24
sS'_effectiveFieldGoalPercentage'
p25
S'.553'
p26
sS'_league'
p27
S'NBA'
p28
sS'_steals'
p29
S'20'
p30
sS'_fieldGoalsAttempted'
p31
S'141'
p32
sS'_personalFouls'
p33
S'153'
p34
sS'_freeThrowsAttempted'
p35
S'145'
p36
sS'_totalRebounds'
p37
S'306'
p38
sS'_age'
p39
S'24'
p40
sS'_team'
p41
S'CHI'
p42
sS'_games'
p43
S'82'
p44
sS'_blocks'
p45
S'56'
p46
sS'_twoPoints'
p47
S'78'
p48
sS'_freeThrows'
p49
S'73'
p50
sS'_twoPointsAttempted'
p51
S'141'
p52
sS'_defensiveRebounds'
p53
S'194'
p54
sS'_season'
p55
S'2010-11'
p56
sS'_fieldGoals'
p57
S'78'
p58
sS'_turnOvers'
p59
S'64'
p60
sS'_twoPointsPercentage'
p61
S'.553'
p62
sS'_minutesPlayed'
p63
S'989'
p64
sS'_gamesStarted'
p65
g11
sba(isrc.gp1.models.Totals
Totals
p66
(dp67
g8
S'127'
p68
sg10
g11
sg12
S'.506'
p69
sg14
S'32'
p70
sg16
g17
sg18
g11
sg19
S'205'
p71
sg21
g22
sg23
S'.456'
p72
sg25
S'.506'
p73
sg27
S'NBA'
p74
sg29
S'30'
p75
sg31
S'156'
p76
sg33
S'121'
p77
sg35
S'103'
p78
sg37
S'350'
p79
sg39
S'25'
p80
sg41
S'CHI'
p81
sg43
S'66'
p82
sg45
S'68'
p83
sg47
S'79'
p84
sg49
S'47'
p85
sg51
S'156'
p86
sg53
S'223'
p87
sg55
S'2011-12'
p88
sg57
S'79'
p89
sg59
S'68'
p90
sg61
S'.506'
p91
sg63
S'971'
p92
sg65
S'2'
p93
sba(isrc.gp1.models.Totals
Totals
p94
(dp95
g8
S'275'
p96
sg10
S'1'
p97
sg12
S'.541'
p98
sg14
S'75'
p99
sg16
S'.000'
p100
sg18
g11
sg19
S'832'
p101
sg21
g22
sg23
S'.562'
p102
sg25
S'.541'
p103
sg27
S'NBA'
p104
sg29
S'46'
p105
sg31
S'614'
p106
sg33
S'223'
p107
sg35
S'299'
p108
sg37
S'956'
p109
sg39
S'26'
p110
sg41
S'HOU'
p111
sg43
S'82'
p112
sg45
S'87'
p113
sg47
S'332'
p114
sg49
S'168'
p115
sg51
S'613'
p116
sg53
S'681'
p117
sg55
S'2012-13'
p118
sg57
S'332'
p119
sg59
S'173'
p120
sg61
S'.542'
p121
sg63
S'2464'
p122
sg65
S'82'
p123
sba(isrc.gp1.models.Totals
Totals
p124
(dp125
g8
S'101'
p126
sg10
g11
sg12
S'.532'
p127
sg14
S'25'
p128
sg16
g17
sg18
g11
sg19
S'280'
p129
sg21
g22
sg23
S'.619'
p130
sg25
S'.532'
p131
sg27
S'NBA'
p132
sg29
S'14'
p133
sg31
S'190'
p134
sg33
S'92'
p135
sg35
S'126'
p136
sg37
S'378'
p137
sg39
S'27'
p138
sg41
S'HOU'
p139
sg43
S'48'
p140
sg45
S'37'
p141
sg47
S'101'
p142
sg49
S'78'
p143
sg51
S'190'
p144
sg53
S'277'
p145
sg55
S'2013-14'
p146
sg57
S'101'
p147
sg59
S'59'
p148
sg61
S'.532'
p149
sg63
S'968'
p150
sg65
S'19'
p151
sba(isrc.gp1.models.Totals
Totals
p152
(dp153
g8
S'244'
p154
sg10
g11
sg12
S'.517'
p155
sg14
S'72'
p156
sg16
g17
sg18
g11
sg19
S'557'
p157
sg21
g22
sg23
S'.582'
p158
sg25
S'.517'
p159
sg27
S'NBA'
p160
sg29
S'29'
p161
sg31
S'412'
p162
sg33
S'144'
p163
sg35
S'225'
p164
sg37
S'748'
p165
sg39
S'28'
p166
sg41
S'NOP'
p167
sg43
S'76'
p168
sg45
S'54'
p169
sg47
S'213'
p170
sg49
S'131'
p171
sg51
S'412'
p172
sg53
S'504'
p173
sg55
S'2014-15'
p174
sg57
S'213'
p175
sg59
S'95'
p176
sg61
S'.517'
p177
sg63
S'1982'
p178
sg65
S'76'
p179
sba(isrc.gp1.models.Totals
Totals
p180
(dp181
g8
S'77'
p182
sg10
g11
sg12
S'.523'
p183
sg14
S'14'
p184
sg16
g17
sg18
g11
sg19
S'151'
p185
sg21
g22
sg23
S'.600'
p186
sg25
S'.523'
p187
sg27
S'NBA'
p188
sg29
S'10'
p189
sg31
S'107'
p190
sg33
S'82'
p191
sg35
S'65'
p192
sg37
S'250'
p193
sg39
S'29'
p194
sg41
S'NOP'
p195
sg43
S'42'
p196
sg45
S'21'
p197
sg47
S'56'
p198
sg49
S'39'
p199
sg51
S'107'
p200
sg53
S'173'
p201
sg55
S'2015-16'
p202
sg57
S'56'
p203
sg59
S'39'
p204
sg61
S'.523'
p205
sg63
S'720'
p206
sg65
S'38'
p207
sbasS'_college'
p208
S'NA'
p209
sS'_toYear'
p210
S'2016'
p211
sS'_height'
p212
S'7-0'
p213
sS'_active'
p214
I01
sS'_shootingHand'
p215
VRight
p216
sS'_name'
p217
S'Omer Asik'
p218
sS'_per100Possessions'
p219
(lp220
(isrc.gp1.models.Per100Possession
Per100Possession
p221
(dp222
g8
S'6.0'
p223
sg10
S'0.0'
p224
sg12
S'.553'
p225
sS'_offensiveRating'
p226
S'104'
p227
sg14
S'1.7'
p228
sg16
g17
sg18
S'0.0'
p229
sg19
S'12.3'
p230
sg21
g22
sS'_defensiveRating'
p231
S'97'
p232
sg23
S'.503'
p233
sg27
S'NBA'
p234
sg29
S'1.1'
p235
sg31
S'7.6'
p236
sg33
S'8.2'
p237
sg35
S'7.8'
p238
sg37
S'16.4'
p239
sg39
S'24'
p240
sg41
S'CHI'
p241
sg43
S'82'
p242
sg45
S'3.0'
p243
sg47
S'4.2'
p244
sg49
S'3.9'
p245
sg51
S'7.6'
p246
sg53
S'10.4'
p247
sg55
S'2010-11'
p248
sg57
S'4.2'
p249
sg59
S'3.4'
p250
sg61
S'.553'
p251
sg63
S'989'
p252
sg65
g11
sba(isrc.gp1.models.Per100Possession
Per100Possession
p253
(dp254
g8
S'7.0'
p255
sg10
S'0.0'
p256
sg12
S'.506'
p257
sg226
S'97'
p258
sg14
S'1.8'
p259
sg16
g17
sg18
S'0.0'
p260
sg19
S'11.4'
p261
sg21
g22
sg231
S'92'
p262
sg23
S'.456'
p263
sg27
S'NBA'
p264
sg29
S'1.7'
p265
sg31
S'8.7'
p266
sg33
S'6.7'
p267
sg35
S'5.7'
p268
sg37
S'19.4'
p269
sg39
S'25'
p270
sg41
S'CHI'
p271
sg43
S'66'
p272
sg45
S'3.8'
p273
sg47
S'4.4'
p274
sg49
S'2.6'
p275
sg51
S'8.7'
p276
sg53
S'12.4'
p277
sg55
S'2011-12'
p278
sg57
S'4.4'
p279
sg59
S'3.8'
p280
sg61
S'.506'
p281
sg63
S'971'
p282
sg65
g93
sba(isrc.gp1.models.Per100Possession
Per100Possession
p283
(dp284
g8
S'5.6'
p285
sg10
S'0.0'
p286
sg12
S'.541'
p287
sg226
S'105'
p288
sg14
S'1.5'
p289
sg16
S'.000'
p290
sg18
S'0.0'
p291
sg19
S'16.9'
p292
sg21
g22
sg231
S'103'
p293
sg23
S'.562'
p294
sg27
S'NBA'
p295
sg29
S'0.9'
p296
sg31
S'12.4'
p297
sg33
S'4.5'
p298
sg35
S'6.1'
p299
sg37
S'19.4'
p300
sg39
S'26'
p301
sg41
S'HOU'
p302
sg43
S'82'
p303
sg45
S'1.8'
p304
sg47
S'6.7'
p305
sg49
S'3.4'
p306
sg51
S'12.4'
p307
sg53
S'13.8'
p308
sg55
S'2012-13'
p309
sg57
S'6.7'
p310
sg59
S'3.5'
p311
sg61
S'.542'
p312
sg63
S'2464'
p313
sg65
S'82'
p314
sba(isrc.gp1.models.Per100Possession
Per100Possession
p315
(dp316
g8
S'5.2'
p317
sg10
S'0.0'
p318
sg12
S'.532'
p319
sg226
S'109'
p320
sg14
S'1.3'
p321
sg16
g17
sg18
S'0.0'
p322
sg19
S'14.4'
p323
sg21
g22
sg231
S'103'
p324
sg23
S'.619'
p325
sg27
S'NBA'
p326
sg29
S'0.7'
p327
sg31
S'9.8'
p328
sg33
S'4.7'
p329
sg35
S'6.5'
p330
sg37
S'19.5'
p331
sg39
S'27'
p332
sg41
S'HOU'
p333
sg43
S'48'
p334
sg45
S'1.9'
p335
sg47
S'5.2'
p336
sg49
S'4.0'
p337
sg51
S'9.8'
p338
sg53
S'14.3'
p339
sg55
S'2013-14'
p340
sg57
S'5.2'
p341
sg59
S'3.0'
p342
sg61
S'.532'
p343
sg63
S'968'
p344
sg65
S'19'
p345
sba(isrc.gp1.models.Per100Possession
Per100Possession
p346
(dp347
g8
S'6.5'
p348
sg10
S'0.0'
p349
sg12
S'.517'
p350
sg226
S'112'
p351
sg14
S'1.9'
p352
sg16
g17
sg18
S'0.0'
p353
sg19
S'14.8'
p354
sg21
g22
sg231
S'105'
p355
sg23
S'.582'
p356
sg27
S'NBA'
p357
sg29
S'0.8'
p358
sg31
S'10.9'
p359
sg33
S'3.8'
p360
sg35
S'6.0'
p361
sg37
S'19.8'
p362
sg39
S'28'
p363
sg41
S'NOP'
p364
sg43
S'76'
p365
sg45
S'1.4'
p366
sg47
S'5.6'
p367
sg49
S'3.5'
p368
sg51
S'10.9'
p369
sg53
S'13.4'
p370
sg55
S'2014-15'
p371
sg57
S'5.6'
p372
sg59
S'2.5'
p373
sg61
S'.517'
p374
sg63
S'1982'
p375
sg65
S'76'
p376
sba(isrc.gp1.models.Per100Possession
Per100Possession
p377
(dp378
g8
S'5.3'
p379
sg10
S'0.0'
p380
sg12
S'.523'
p381
sg226
S'106'
p382
sg14
S'1.0'
p383
sg16
g17
sg18
S'0.0'
p384
sg19
S'10.5'
p385
sg21
g22
sg231
S'107'
p386
sg23
S'.600'
p387
sg27
S'NBA'
p388
sg29
S'0.7'
p389
sg31
S'7.4'
p390
sg33
S'5.7'
p391
sg35
S'4.5'
p392
sg37
S'17.3'
p393
sg39
S'29'
p394
sg41
S'NOP'
p395
sg43
S'42'
p396
sg45
S'1.5'
p397
sg47
S'3.9'
p398
sg49
S'2.7'
p399
sg51
S'7.4'
p400
sg53
S'12.0'
p401
sg55
S'2015-16'
p402
sg57
S'3.9'
p403
sg59
S'2.7'
p404
sg61
S'.523'
p405
sg63
S'720'
p406
sg65
S'38'
p407
sbasS'_advanced'
p408
(lp409
(isrc.gp1.models.Advanced
Advanced
p410
(dp411
S'_offensiveReboundPercentage'
p412
S'13.7'
p413
sS'_turnOverPercentage'
p414
S'23.8'
p415
sS'_winSharesPer48Minutes'
p416
S'.130'
p417
sS'_stealPercentage'
p418
S'1.1'
p419
sS'_usagePercentage'
p420
S'12.5'
p421
sS'_totalReboundsPercentage'
p422
S'18.1'
p423
sS'_defensiveBoxPlusMinus'
p424
S'3.0'
p425
sg21
g22
sS'_valueOverReplacementPlayer'
p426
S'0.4'
p427
sS'_trueShootingPercentage'
p428
S'.559'
p429
sS'_defensiveReboundPercentage'
p430
S'22.3'
p431
sS'_freeThrowsAttempRate'
p432
S'1.028'
p433
sS'_threePointsAttempRate'
p434
S'.000'
p435
sg27
S'NBA'
p436
sS'_offensiveBoxPlusMinues'
p437
S'-3.5'
p438
sS'_assistPercentage'
p439
S'4.7'
p440
sS'_defensiveWinShares'
p441
S'2.2'
p442
sg39
S'24'
p443
sg41
S'CHI'
p444
sg43
S'82'
p445
sS'_blockPercentage'
p446
S'4.3'
p447
sS'_playerEfficiencyRating'
p448
S'11.8'
p449
sS'_offensiveWinShares'
p450
S'0.5'
p451
sg63
S'989'
p452
sS'_boxPlusMinus'
p453
S'-0.5'
p454
sg55
S'2010-11'
p455
sS'_winShares'
p456
S'2.7'
p457
sba(isrc.gp1.models.Advanced
Advanced
p458
(dp459
g412
S'14.9'
p460
sg414
S'25.2'
p461
sg416
S'.129'
p462
sg418
S'1.7'
p463
sg420
S'12.6'
p464
sg422
S'20.1'
p465
sg424
S'4.4'
p466
sg21
g22
sg426
S'0.8'
p467
sg428
S'.509'
p468
sg430
S'25.1'
p469
sg432
S'.660'
p470
sg434
S'.000'
p471
sg27
S'NBA'
p472
sg437
S'-3.3'
p473
sg439
S'4.8'
p474
sg441
S'2.5'
p475
sg39
S'25'
p476
sg41
S'CHI'
p477
sg43
S'66'
p478
sg446
S'5.0'
p479
sg448
S'13.4'
p480
sg450
S'0.1'
p481
sg63
S'971'
p482
sg453
S'1.1'
p483
sg55
S'2011-12'
p484
sg456
S'2.6'
p485
sba(isrc.gp1.models.Advanced
Advanced
p486
(dp487
g412
S'12.8'
p488
sg414
S'18.8'
p489
sg416
S'.108'
p490
sg418
S'0.9'
p491
sg420
S'16.3'
p492
sg422
S'22.0'
p493
sg424
S'1.3'
p494
sg21
g22
sg426
S'0.5'
p495
sg428
S'.558'
p496
sg430
S'31.0'
p497
sg432
S'.487'
p498
sg434
S'.002'
p499
sg27
S'NBA'
p500
sg437
S'-2.6'
p501
sg439
S'4.6'
p502
sg441
S'3.5'
p503
sg39
S'26'
p504
sg41
S'HOU'
p505
sg43
S'82'
p506
sg446
S'2.7'
p507
sg448
S'14.9'
p508
sg450
S'2.0'
p509
sg63
S'2464'
p510
sg453
S'-1.3'
p511
sg55
S'2012-13'
p512
sg456
S'5.5'
p513
sba(isrc.gp1.models.Advanced
Advanced
p514
(dp515
g412
S'12.3'
p516
sg414
S'19.4'
p517
sg416
S'.121'
p518
sg418
S'0.7'
p519
sg420
S'13.8'
p520
sg422
S'21.7'
p521
sg424
S'0.7'
p522
sg21
g22
sg426
S'-0.1'
p523
sg428
S'.570'
p524
sg430
S'30.1'
p525
sg432
S'.663'
p526
sg434
S'.000'
p527
sg27
S'NBA'
p528
sg437
S'-3.1'
p529
sg439
S'3.8'
p530
sg441
S'1.5'
p531
sg39
S'27'
p532
sg41
S'HOU'
p533
sg43
S'48'
p534
sg446
S'2.8'
p535
sg448
S'14.0'
p536
sg450
S'1.0'
p537
sg63
S'968'
p538
sg453
S'-2.4'
p539
sg55
S'2013-14'
p540
sg456
S'2.4'
p541
sba(isrc.gp1.models.Advanced
Advanced
p542
(dp543
g412
S'14.0'
p544
sg414
S'15.7'
p545
sg416
S'.120'
p546
sg418
S'0.8'
p547
sg420
S'14.0'
p548
sg422
S'21.4'
p549
sg424
S'0.6'
p550
sg21
g22
sg426
S'0.6'
p551
sg428
S'.545'
p552
sg430
S'28.8'
p553
sg432
S'.546'
p554
sg434
S'.000'
p555
sg27
S'NBA'
p556
sg437
S'-1.3'
p557
sg439
S'5.4'
p558
sg441
S'2.2'
p559
sg39
S'28'
p560
sg41
S'NOP'
p561
sg43
S'76'
p562
sg446
S'2.1'
p563
sg448
S'15.5'
p564
sg450
S'2.8'
p565
sg63
S'1982'
p566
sg453
S'-0.7'
p567
sg55
S'2014-15'
p568
sg456
S'5.0'
p569
sba(isrc.gp1.models.Advanced
Advanced
p570
(dp571
g412
S'11.6'
p572
sg414
S'22.3'
p573
sg416
S'.070'
p574
sg418
S'0.7'
p575
sg420
S'10.8'
p576
sg422
S'19.2'
p577
sg424
S'0.0'
p578
sg21
g22
sg426
S'-0.3'
p579
sg428
S'.557'
p580
sg430
S'27.2'
p581
sg432
S'.607'
p582
sg434
S'.000'
p583
sg27
S'NBA'
p584
sg437
S'-3.9'
p585
sg439
S'2.7'
p586
sg441
S'0.6'
p587
sg39
S'29'
p588
sg41
S'NOP'
p589
sg43
S'42'
p590
sg446
S'2.4'
p591
sg448
S'10.7'
p592
sg450
S'0.5'
p593
sg63
S'720'
p594
sg453
S'-3.8'
p595
sg55
S'2015-16'
p596
sg456
S'1.1'
p597
sbasS'_per36Minutes'
p598
(lp599
(isrc.gp1.models.Per36Minutes
Per36Minutes
p600
(dp601
g8
S'4.1'
p602
sg10
S'0.0'
p603
sg12
S'.553'
p604
sg14
S'1.2'
p605
sg16
g17
sg18
S'0.0'
p606
sg19
S'8.3'
p607
sg21
g22
sg23
S'.503'
p608
sg27
S'NBA'
p609
sg29
S'0.7'
p610
sg31
S'5.1'
p611
sg33
S'5.6'
p612
sg35
S'5.3'
p613
sg37
S'11.1'
p614
sg39
S'24'
p615
sg41
S'CHI'
p616
sg43
S'82'
p617
sg45
S'2.0'
p618
sg47
S'2.8'
p619
sg49
S'2.7'
p620
sg51
S'5.1'
p621
sg53
S'7.1'
p622
sg55
S'2010-11'
p623
sg57
S'2.8'
p624
sg59
S'2.3'
p625
sg61
S'.553'
p626
sg63
S'989'
p627
sg65
g11
sba(isrc.gp1.models.Per36Minutes
Per36Minutes
p628
(dp629
g8
S'4.7'
p630
sg10
S'0.0'
p631
sg12
S'.506'
p632
sg14
S'1.2'
p633
sg16
g17
sg18
S'0.0'
p634
sg19
S'7.6'
p635
sg21
g22
sg23
S'.456'
p636
sg27
S'NBA'
p637
sg29
S'1.1'
p638
sg31
S'5.8'
p639
sg33
S'4.5'
p640
sg35
S'3.8'
p641
sg37
S'13.0'
p642
sg39
S'25'
p643
sg41
S'CHI'
p644
sg43
S'66'
p645
sg45
S'2.5'
p646
sg47
S'2.9'
p647
sg49
S'1.7'
p648
sg51
S'5.8'
p649
sg53
S'8.3'
p650
sg55
S'2011-12'
p651
sg57
S'2.9'
p652
sg59
S'2.5'
p653
sg61
S'.506'
p654
sg63
S'971'
p655
sg65
g93
sba(isrc.gp1.models.Per36Minutes
Per36Minutes
p656
(dp657
g8
S'4.0'
p658
sg10
S'0.0'
p659
sg12
S'.541'
p660
sg14
S'1.1'
p661
sg16
S'.000'
p662
sg18
S'0.0'
p663
sg19
S'12.2'
p664
sg21
g22
sg23
S'.562'
p665
sg27
S'NBA'
p666
sg29
S'0.7'
p667
sg31
S'9.0'
p668
sg33
S'3.3'
p669
sg35
S'4.4'
p670
sg37
S'14.0'
p671
sg39
S'26'
p672
sg41
S'HOU'
p673
sg43
S'82'
p674
sg45
S'1.3'
p675
sg47
S'4.9'
p676
sg49
S'2.5'
p677
sg51
S'9.0'
p678
sg53
S'9.9'
p679
sg55
S'2012-13'
p680
sg57
S'4.9'
p681
sg59
S'2.5'
p682
sg61
S'.542'
p683
sg63
S'2464'
p684
sg65
S'82'
p685
sba(isrc.gp1.models.Per36Minutes
Per36Minutes
p686
(dp687
g8
S'3.8'
p688
sg10
S'0.0'
p689
sg12
S'.532'
p690
sg14
S'0.9'
p691
sg16
g17
sg18
S'0.0'
p692
sg19
S'10.4'
p693
sg21
g22
sg23
S'.619'
p694
sg27
S'NBA'
p695
sg29
S'0.5'
p696
sg31
S'7.1'
p697
sg33
S'3.4'
p698
sg35
S'4.7'
p699
sg37
S'14.1'
p700
sg39
S'27'
p701
sg41
S'HOU'
p702
sg43
S'48'
p703
sg45
S'1.4'
p704
sg47
S'3.8'
p705
sg49
S'2.9'
p706
sg51
S'7.1'
p707
sg53
S'10.3'
p708
sg55
S'2013-14'
p709
sg57
S'3.8'
p710
sg59
S'2.2'
p711
sg61
S'.532'
p712
sg63
S'968'
p713
sg65
S'19'
p714
sba(isrc.gp1.models.Per36Minutes
Per36Minutes
p715
(dp716
g8
S'4.4'
p717
sg10
S'0.0'
p718
sg12
S'.517'
p719
sg14
S'1.3'
p720
sg16
g17
sg18
S'0.0'
p721
sg19
S'10.1'
p722
sg21
g22
sg23
S'.582'
p723
sg27
S'NBA'
p724
sg29
S'0.5'
p725
sg31
S'7.5'
p726
sg33
S'2.6'
p727
sg35
S'4.1'
p728
sg37
S'13.6'
p729
sg39
S'28'
p730
sg41
S'NOP'
p731
sg43
S'76'
p732
sg45
S'1.0'
p733
sg47
S'3.9'
p734
sg49
S'2.4'
p735
sg51
S'7.5'
p736
sg53
S'9.2'
p737
sg55
S'2014-15'
p738
sg57
S'3.9'
p739
sg59
S'1.7'
p740
sg61
S'.517'
p741
sg63
S'1982'
p742
sg65
S'76'
p743
sba(isrc.gp1.models.Per36Minutes
Per36Minutes
p744
(dp745
g8
S'3.8'
p746
sg10
S'0.0'
p747
sg12
S'.523'
p748
sg14
S'0.7'
p749
sg16
g17
sg18
S'0.0'
p750
sg19
S'7.5'
p751
sg21
g22
sg23
S'.600'
p752
sg27
S'NBA'
p753
sg29
S'0.5'
p754
sg31
S'5.3'
p755
sg33
S'4.1'
p756
sg35
S'3.2'
p757
sg37
S'12.5'
p758
sg39
S'29'
p759
sg41
S'NOP'
p760
sg43
S'42'
p761
sg45
S'1.0'
p762
sg47
S'2.8'
p763
sg49
S'1.9'
p764
sg51
S'5.3'
p765
sg53
S'8.6'
p766
sg55
S'2015-16'
p767
sg57
S'2.8'
p768
sg59
S'1.9'
p769
sg61
S'.523'
p770
sg63
S'720'
p771
sg65
S'38'
p772
sbasS'_fromYear'
p773
S'2011'
p774
sS'_url'
p775
S'http://www.basketball-reference.com/players/a/asikom01.html'
p776
sS'_perGame'
p777
(isrc.gp1.models.PerGame
PerGame
p778
(dp779
g8
S'1.8'
p780
sg10
S'0.0'
p781
sg12
S'.523'
p782
sS'_effectiveFieldGalPercentage'
p783
S'.523'
p784
sg14
S'0.3'
p785
sg16
g17
sg18
S'0.0'
p786
sg19
S'3.6'
p787
sg21
g22
sg23
S'.600'
p788
sg27
S'NBA'
p789
sg29
S'0.2'
p790
sg33
S'2.0'
p791
sS'_fieldGoalsttempted'
p792
S'2.5'
p793
sg35
S'1.5'
p794
sg37
S'6.0'
p795
sg39
S'29'
p796
sg41
S'NOP'
p797
sg43
S'42'
p798
sg45
S'0.5'
p799
sg47
S'1.3'
p800
sg49
S'0.9'
p801
sg51
S'2.5'
p802
sg53
S'4.1'
p803
sg55
S'2015-16'
p804
sg57
S'1.3'
p805
sg59
S'0.9'
p806
sg61
S'.523'
p807
sg63
S'17.1'
p808
sg65
S'38'
p809
sbsS'_weight'
p810
S'255'
p811
sS'_dob'
p812
S'4-7-1986'
p813
sS'_salary'
p814
(lp815
(isrc.gp1.models.Salary
Salary
p816
(dp817
g41
S'Chicago Bulls'
p818
sg27
S'NBA'
p819
sg814
S'$1,721,000'
p820
sg55
S'2010-11'
p821
sba(isrc.gp1.models.Salary
Salary
p822
(dp823
g41
S'Chicago Bulls'
p824
sg27
S'NBA'
p825
sg814
S'$1,857,500'
p826
sg55
S'2011-12'
p827
sba(isrc.gp1.models.Salary
Salary
p828
(dp829
g41
S'Houston Rockets'
p830
sg27
S'NBA'
p831
sg814
S'$8,374,646'
p832
sg55
S'2012-13'
p833
sba(isrc.gp1.models.Salary
Salary
p834
(dp835
g41
S'Houston Rockets'
p836
sg27
S'NBA'
p837
sg814
S'$8,374,646'
p838
sg55
S'2013-14'
p839
sba(isrc.gp1.models.Salary
Salary
p840
(dp841
g41
S'New Orleans Pelicans'
p842
sg27
S'NBA'
p843
sg814
S'$8,374,646'
p844
sg55
S'2014-15'
p845
sbasg21
g22
sb.