(isrc.gp1.models.Player
Player
p0
(dp1
S'_experience'
p2
V2
p3
sS'_totals'
p4
(lp5
(isrc.gp1.models.Totals
Totals
p6
(dp7
S'_offensiveRebounds'
p8
S'2'
p9
sS'_threePointsAttempted'
p10
S'0'
p11
sS'_fieldGoalsPercentage'
p12
S'.200'
p13
sS'_assist'
p14
S'3'
p15
sS'_threePointsPercentage'
p16
S'NA'
p17
sS'_threePoints'
p18
g11
sS'_points'
p19
g15
sS'_position'
p20
S'PF'
p21
sS'_freeThrowsPercentage'
p22
S'.500'
p23
sS'_effectiveFieldGoalPercentage'
p24
S'.200'
p25
sS'_league'
p26
S'NBA'
p27
sS'_steals'
p28
g11
sS'_fieldGoalsAttempted'
p29
S'5'
p30
sS'_personalFouls'
p31
g15
sS'_freeThrowsAttempted'
p32
g9
sS'_totalRebounds'
p33
S'8'
p34
sS'_age'
p35
S'26'
p36
sS'_team'
p37
S'TOT'
p38
sS'_games'
p39
g30
sS'_blocks'
p40
g11
sS'_twoPoints'
p41
S'1'
p42
sS'_freeThrows'
p43
g42
sS'_twoPointsAttempted'
p44
g30
sS'_defensiveRebounds'
p45
S'6'
p46
sS'_season'
p47
S'2013-14'
p48
sS'_fieldGoals'
p49
g42
sS'_turnOvers'
p50
g42
sS'_twoPointsPercentage'
p51
S'.200'
p52
sS'_minutesPlayed'
p53
S'30'
p54
sS'_gamesStarted'
p55
g11
sba(isrc.gp1.models.Totals
Totals
p56
(dp57
g8
g9
sg10
g11
sg12
S'.250'
p58
sg14
g15
sg16
g17
sg18
g11
sg19
g15
sg20
S'PF'
p59
sg22
S'.500'
p60
sg24
S'.250'
p61
sg26
S'NBA'
p62
sg28
g11
sg29
S'4'
p63
sg31
g15
sg32
g9
sg33
S'7'
p64
sg35
S'26'
p65
sg37
S'NOP'
p66
sg39
g15
sg40
g11
sg41
g42
sg43
g42
sg44
g63
sg45
g30
sg47
S'2013-14'
p67
sg49
g42
sg50
g42
sg51
S'.250'
p68
sg53
S'25'
p69
sg55
g11
sba(isrc.gp1.models.Totals
Totals
p70
(dp71
g8
g11
sg10
g11
sg12
S'.000'
p72
sg14
g11
sg16
g17
sg18
g11
sg19
g11
sg20
S'PF'
p73
sg22
g17
sg24
S'.000'
p74
sg26
S'NBA'
p75
sg28
g11
sg29
g42
sg31
g11
sg32
g11
sg33
g42
sg35
S'26'
p76
sg37
S'CLE'
p77
sg39
g9
sg40
g11
sg41
g11
sg43
g11
sg44
g42
sg45
g42
sg47
S'2013-14'
p78
sg49
g11
sg50
g11
sg51
S'.000'
p79
sg53
g30
sg55
g11
sba(isrc.gp1.models.Totals
Totals
p80
(dp81
g8
g64
sg10
g11
sg12
S'.857'
p82
sg14
g63
sg16
g17
sg18
g11
sg19
S'27'
p83
sg20
S'C'
p84
sg22
S'.375'
p85
sg24
S'.857'
p86
sg26
S'NBA'
p87
sg28
g42
sg29
S'14'
p88
sg31
g46
sg32
g34
sg33
S'21'
p89
sg35
S'27'
p90
sg37
S'MIN'
p91
sg39
g46
sg40
g15
sg41
S'12'
p92
sg43
g15
sg44
S'14'
p93
sg45
S'14'
p94
sg47
S'2014-15'
p95
sg49
S'12'
p96
sg50
g9
sg51
S'.857'
p97
sg53
S'68'
p98
sg55
g42
sbasS'_college'
p99
S'Syracuse University'
p100
sS'_toYear'
p101
S'2015'
p102
sS'_height'
p103
S'6-9'
p104
sS'_active'
p105
I01
sS'_shootingHand'
p106
VRight
p107
sS'_name'
p108
S'Arinze Onuaku'
p109
sS'_per100Possessions'
p110
(lp111
(isrc.gp1.models.Per100Possession
Per100Possession
p112
(dp113
g8
S'3.5'
p114
sg10
S'0.0'
p115
sg12
S'.200'
p116
sS'_offensiveRating'
p117
S'81'
p118
sg14
S'5.2'
p119
sg16
g17
sg18
S'0.0'
p120
sg19
S'5.2'
p121
sg20
S'PF'
p122
sS'_defensiveRating'
p123
S'112'
p124
sg22
S'.500'
p125
sg26
S'NBA'
p126
sg28
S'0.0'
p127
sg29
S'8.7'
p128
sg31
S'5.2'
p129
sg32
S'3.5'
p130
sg33
S'13.9'
p131
sg35
S'26'
p132
sg37
S'TOT'
p133
sg39
g30
sg40
S'0.0'
p134
sg41
S'1.7'
p135
sg43
S'1.7'
p136
sg44
S'8.7'
p137
sg45
S'10.4'
p138
sg47
S'2013-14'
p139
sg49
S'1.7'
p140
sg50
S'1.7'
p141
sg51
S'.200'
p142
sg53
S'30'
p143
sg55
g11
sba(isrc.gp1.models.Per100Possession
Per100Possession
p144
(dp145
g8
S'4.2'
p146
sg10
S'0.0'
p147
sg12
S'.250'
p148
sg117
S'90'
p149
sg14
S'6.2'
p150
sg16
g17
sg18
S'0.0'
p151
sg19
S'6.2'
p152
sg20
S'PF'
p153
sg123
S'113'
p154
sg22
S'.500'
p155
sg26
S'NBA'
p156
sg28
S'0.0'
p157
sg29
S'8.3'
p158
sg31
S'6.2'
p159
sg32
S'4.2'
p160
sg33
S'14.6'
p161
sg35
S'26'
p162
sg37
S'NOP'
p163
sg39
g15
sg40
S'0.0'
p164
sg41
S'2.1'
p165
sg43
S'2.1'
p166
sg44
S'8.3'
p167
sg45
S'10.4'
p168
sg47
S'2013-14'
p169
sg49
S'2.1'
p170
sg50
S'2.1'
p171
sg51
S'.250'
p172
sg53
S'25'
p173
sg55
g11
sba(isrc.gp1.models.Per100Possession
Per100Possession
p174
(dp175
g8
S'0.0'
p176
sg10
S'0.0'
p177
sg12
S'.000'
p178
sg117
g11
sg14
S'0.0'
p179
sg16
g17
sg18
S'0.0'
p180
sg19
S'0.0'
p181
sg20
S'PF'
p182
sg123
S'110'
p183
sg22
g17
sg26
S'NBA'
p184
sg28
S'0.0'
p185
sg29
S'10.3'
p186
sg31
S'0.0'
p187
sg32
S'0.0'
p188
sg33
S'10.3'
p189
sg35
S'26'
p190
sg37
S'CLE'
p191
sg39
g9
sg40
S'0.0'
p192
sg41
S'0.0'
p193
sg43
S'0.0'
p194
sg44
S'10.3'
p195
sg45
S'10.3'
p196
sg47
S'2013-14'
p197
sg49
S'0.0'
p198
sg50
S'0.0'
p199
sg51
S'.000'
p200
sg53
g30
sg55
g11
sba(isrc.gp1.models.Per100Possession
Per100Possession
p201
(dp202
g8
S'5.2'
p203
sg10
S'0.0'
p204
sg12
S'.857'
p205
sg117
S'143'
p206
sg14
S'3.0'
p207
sg16
g17
sg18
S'0.0'
p208
sg19
S'20.2'
p209
sg20
g84
sg123
S'110'
p210
sg22
S'.375'
p211
sg26
S'NBA'
p212
sg28
S'0.7'
p213
sg29
S'10.5'
p214
sg31
S'4.5'
p215
sg32
S'6.0'
p216
sg33
S'15.7'
p217
sg35
S'27'
p218
sg37
S'MIN'
p219
sg39
g46
sg40
S'2.2'
p220
sg41
S'9.0'
p221
sg43
S'2.2'
p222
sg44
S'10.5'
p223
sg45
S'10.5'
p224
sg47
S'2014-15'
p225
sg49
S'9.0'
p226
sg50
S'1.5'
p227
sg51
S'.857'
p228
sg53
S'68'
p229
sg55
g42
sbasS'_advanced'
p230
(lp231
(isrc.gp1.models.Advanced
Advanced
p232
(dp233
S'_offensiveReboundPercentage'
p234
S'7.6'
p235
sS'_turnOverPercentage'
p236
S'14.5'
p237
sS'_winSharesPer48Minutes'
p238
S'-0.044'
p239
sS'_stealPercentage'
p240
S'0.0'
p241
sS'_usagePercentage'
p242
S'10.4'
p243
sS'_totalReboundsPercentage'
p244
S'15.4'
p245
sS'_defensiveBoxPlusMinus'
p246
S'-1.6'
p247
sg20
S'PF'
p248
sS'_valueOverReplacementPlayer'
p249
S'0.0'
p250
sS'_trueShootingPercentage'
p251
S'.255'
p252
sS'_defensiveReboundPercentage'
p253
S'23.5'
p254
sS'_freeThrowsAttempRate'
p255
S'.400'
p256
sS'_threePointsAttempRate'
p257
S'.000'
p258
sg26
S'NBA'
p259
sS'_offensiveBoxPlusMinues'
p260
S'-6.8'
p261
sS'_assistPercentage'
p262
S'13.5'
p263
sS'_defensiveWinShares'
p264
S'0.0'
p265
sg35
S'26'
p266
sg37
S'TOT'
p267
sg39
g30
sS'_blockPercentage'
p268
S'0.0'
p269
sS'_playerEfficiencyRating'
p270
S'3.8'
p271
sS'_offensiveWinShares'
p272
S'0.0'
p273
sg53
S'30'
p274
sS'_boxPlusMinus'
p275
S'-8.4'
p276
sg47
S'2013-14'
p277
sS'_winShares'
p278
S'0.0'
p279
sba(isrc.gp1.models.Advanced
Advanced
p280
(dp281
g234
S'9.2'
p282
sg236
S'17.0'
p283
sg238
S'-0.016'
p284
sg240
S'0.0'
p285
sg242
S'10.7'
p286
sg244
S'16.3'
p287
sg246
S'-1.2'
p288
sg20
S'PF'
p289
sg249
S'0.0'
p290
sg251
S'.307'
p291
sg253
S'23.6'
p292
sg255
S'.500'
p293
sg257
S'.000'
p294
sg26
S'NBA'
p295
sg260
S'-5.2'
p296
sg262
S'16.2'
p297
sg264
S'0.0'
p298
sg35
S'26'
p299
sg37
S'NOP'
p300
sg39
g15
sg268
S'0.0'
p301
sg270
S'5.6'
p302
sg272
S'0.0'
p303
sg53
S'25'
p304
sg275
S'-6.4'
p305
sg47
S'2013-14'
p306
sg278
S'0.0'
p307
sba(isrc.gp1.models.Advanced
Advanced
p308
(dp309
g234
S'0.0'
p310
sg236
S'0.0'
p311
sg238
S'-0.179'
p312
sg240
S'0.0'
p313
sg242
S'8.9'
p314
sg244
S'11.2'
p315
sg246
S'-3.4'
p316
sg20
S'PF'
p317
sg249
S'0.0'
p318
sg251
S'.000'
p319
sg253
S'23.0'
p320
sg255
S'.000'
p321
sg257
S'.000'
p322
sg26
S'NBA'
p323
sg260
S'-14.8'
p324
sg262
S'0.0'
p325
sg264
S'0.0'
p326
sg35
S'26'
p327
sg37
S'CLE'
p328
sg39
g9
sg268
S'0.0'
p329
sg270
S'-5.3'
p330
sg272
S'0.0'
p331
sg53
g30
sg275
S'-18.2'
p332
sg47
S'2013-14'
p333
sg278
S'0.0'
p334
sba(isrc.gp1.models.Advanced
Advanced
p335
(dp336
g234
S'11.4'
p337
sg236
S'10.2'
p338
sg238
S'.197'
p339
sg240
S'0.7'
p340
sg242
S'12.7'
p341
sg244
S'17.7'
p342
sg246
S'-0.2'
p343
sg20
g84
sg249
S'0.1'
p344
sg251
S'.771'
p345
sg253
S'24.3'
p346
sg255
S'.571'
p347
sg257
S'.000'
p348
sg26
S'NBA'
p349
sg260
S'2.5'
p350
sg262
S'10.2'
p351
sg264
S'0.0'
p352
sg35
S'27'
p353
sg37
S'MIN'
p354
sg39
g46
sg268
S'3.5'
p355
sg270
S'22.8'
p356
sg272
S'0.2'
p357
sg53
S'68'
p358
sg275
S'2.3'
p359
sg47
S'2014-15'
p360
sg278
S'0.3'
p361
sbasS'_per36Minutes'
p362
(lp363
(isrc.gp1.models.Per36Minutes
Per36Minutes
p364
(dp365
g8
S'2.4'
p366
sg10
S'0.0'
p367
sg12
S'.200'
p368
sg14
S'3.6'
p369
sg16
g17
sg18
S'0.0'
p370
sg19
S'3.6'
p371
sg20
S'PF'
p372
sg22
S'.500'
p373
sg26
S'NBA'
p374
sg28
S'0.0'
p375
sg29
S'6.0'
p376
sg31
S'3.6'
p377
sg32
S'2.4'
p378
sg33
S'9.6'
p379
sg35
S'26'
p380
sg37
S'TOT'
p381
sg39
g30
sg40
S'0.0'
p382
sg41
S'1.2'
p383
sg43
S'1.2'
p384
sg44
S'6.0'
p385
sg45
S'7.2'
p386
sg47
S'2013-14'
p387
sg49
S'1.2'
p388
sg50
S'1.2'
p389
sg51
S'.200'
p390
sg53
S'30'
p391
sg55
g11
sba(isrc.gp1.models.Per36Minutes
Per36Minutes
p392
(dp393
g8
S'2.9'
p394
sg10
S'0.0'
p395
sg12
S'.250'
p396
sg14
S'4.3'
p397
sg16
g17
sg18
S'0.0'
p398
sg19
S'4.3'
p399
sg20
S'PF'
p400
sg22
S'.500'
p401
sg26
S'NBA'
p402
sg28
S'0.0'
p403
sg29
S'5.8'
p404
sg31
S'4.3'
p405
sg32
S'2.9'
p406
sg33
S'10.1'
p407
sg35
S'26'
p408
sg37
S'NOP'
p409
sg39
g15
sg40
S'0.0'
p410
sg41
S'1.4'
p411
sg43
S'1.4'
p412
sg44
S'5.8'
p413
sg45
S'7.2'
p414
sg47
S'2013-14'
p415
sg49
S'1.4'
p416
sg50
S'1.4'
p417
sg51
S'.250'
p418
sg53
S'25'
p419
sg55
g11
sba(isrc.gp1.models.Per36Minutes
Per36Minutes
p420
(dp421
g8
S'0.0'
p422
sg10
S'0.0'
p423
sg12
S'.000'
p424
sg14
S'0.0'
p425
sg16
g17
sg18
S'0.0'
p426
sg19
S'0.0'
p427
sg20
S'PF'
p428
sg22
g17
sg26
S'NBA'
p429
sg28
S'0.0'
p430
sg29
S'7.2'
p431
sg31
S'0.0'
p432
sg32
S'0.0'
p433
sg33
S'7.2'
p434
sg35
S'26'
p435
sg37
S'CLE'
p436
sg39
g9
sg40
S'0.0'
p437
sg41
S'0.0'
p438
sg43
S'0.0'
p439
sg44
S'7.2'
p440
sg45
S'7.2'
p441
sg47
S'2013-14'
p442
sg49
S'0.0'
p443
sg50
S'0.0'
p444
sg51
S'.000'
p445
sg53
g30
sg55
g11
sba(isrc.gp1.models.Per36Minutes
Per36Minutes
p446
(dp447
g8
S'3.7'
p448
sg10
S'0.0'
p449
sg12
S'.857'
p450
sg14
S'2.1'
p451
sg16
g17
sg18
S'0.0'
p452
sg19
S'14.3'
p453
sg20
g84
sg22
S'.375'
p454
sg26
S'NBA'
p455
sg28
S'0.5'
p456
sg29
S'7.4'
p457
sg31
S'3.2'
p458
sg32
S'4.2'
p459
sg33
S'11.1'
p460
sg35
S'27'
p461
sg37
S'MIN'
p462
sg39
g46
sg40
S'1.6'
p463
sg41
S'6.4'
p464
sg43
S'1.6'
p465
sg44
S'7.4'
p466
sg45
S'7.4'
p467
sg47
S'2014-15'
p468
sg49
S'6.4'
p469
sg50
S'1.1'
p470
sg51
S'.857'
p471
sg53
S'68'
p472
sg55
g42
sbasS'_fromYear'
p473
S'2014'
p474
sS'_url'
p475
S'http://www.basketball-reference.com/players/o/onuakar01.html'
p476
sS'_perGame'
p477
(isrc.gp1.models.PerGame
PerGame
p478
(dp479
g8
S'1.2'
p480
sg10
S'0.0'
p481
sg12
S'.857'
p482
sS'_effectiveFieldGalPercentage'
p483
S'.857'
p484
sg14
S'0.7'
p485
sg16
g17
sg18
S'0.0'
p486
sg19
S'4.5'
p487
sg20
g84
sg22
S'.375'
p488
sg26
S'NBA'
p489
sg28
S'0.2'
p490
sg31
S'1.0'
p491
sS'_fieldGoalsttempted'
p492
S'2.3'
p493
sg32
S'1.3'
p494
sg33
S'3.5'
p495
sg35
S'27'
p496
sg37
S'MIN'
p497
sg39
g46
sg40
S'0.5'
p498
sg41
S'2.0'
p499
sg43
S'0.5'
p500
sg44
S'2.3'
p501
sg45
S'2.3'
p502
sg47
S'2014-15'
p503
sg49
S'2.0'
p504
sg50
S'0.3'
p505
sg51
S'.857'
p506
sg53
S'11.3'
p507
sg55
g42
sbsS'_weight'
p508
S'275'
p509
sS'_dob'
p510
S'13-7-1987'
p511
sS'_salary'
p512
(lp513
(isrc.gp1.models.Salary
Salary
p514
(dp515
g37
S'Minnesota Timberwolves'
p516
sg26
S'NBA'
p517
sg512
S'$43,226'
p518
sg47
S'2014-15'
p519
sbasg20
S'F'
p520
sb.