(isrc.gp1.models.Player
Player
p0
(dp1
S'_experience'
p2
V14
p3
sS'_totals'
p4
(lp5
(isrc.gp1.models.Totals
Totals
p6
(dp7
S'_offensiveRebounds'
p8
S'33'
p9
sS'_threePointsAttempted'
p10
S'189'
p11
sS'_fieldGoalsPercentage'
p12
S'.419'
p13
sS'_assist'
p14
S'334'
p15
sS'_threePointsPercentage'
p16
S'.323'
p17
sS'_threePoints'
p18
S'61'
p19
sS'_points'
p20
S'705'
p21
sS'_position'
p22
S'PG'
p23
sS'_freeThrowsPercentage'
p24
S'.675'
p25
sS'_effectiveFieldGoalPercentage'
p26
S'.467'
p27
sS'_league'
p28
S'NBA'
p29
sS'_steals'
p30
S'89'
p31
sS'_fieldGoalsAttempted'
p32
S'639'
p33
sS'_personalFouls'
p34
S'166'
p35
sS'_freeThrowsAttempted'
p36
S'160'
p37
sS'_totalRebounds'
p38
S'197'
p39
sS'_age'
p40
S'19'
p41
sS'_team'
p42
S'SAS'
p43
sS'_games'
p44
S'77'
p45
sS'_blocks'
p46
S'7'
p47
sS'_twoPoints'
p48
S'207'
p49
sS'_freeThrows'
p50
S'108'
p51
sS'_twoPointsAttempted'
p52
S'450'
p53
sS'_defensiveRebounds'
p54
S'164'
p55
sS'_season'
p56
S'2001-02'
p57
sS'_fieldGoals'
p58
S'268'
p59
sS'_turnOvers'
p60
S'151'
p61
sS'_twoPointsPercentage'
p62
S'.460'
p63
sS'_minutesPlayed'
p64
S'2267'
p65
sS'_gamesStarted'
p66
S'72'
p67
sba(isrc.gp1.models.Totals
Totals
p68
(dp69
g8
S'33'
p70
sg10
S'243'
p71
sg12
S'.464'
p72
sg14
S'432'
p73
sg16
S'.337'
p74
sg18
S'82'
p75
sg20
S'1269'
p76
sg22
S'PG'
p77
sg24
S'.755'
p78
sg26
S'.503'
p79
sg28
S'NBA'
p80
sg30
S'71'
p81
sg32
S'1043'
p82
sg34
S'174'
p83
sg36
S'290'
p84
sg38
S'216'
p85
sg40
S'20'
p86
sg42
S'SAS'
p87
sg44
S'82'
p88
sg46
S'4'
p89
sg48
S'402'
p90
sg50
S'219'
p91
sg52
S'800'
p92
sg54
S'183'
p93
sg56
S'2002-03'
p94
sg58
S'484'
p95
sg60
S'198'
p96
sg62
S'.503'
p97
sg64
S'2774'
p98
sg66
S'82'
p99
sba(isrc.gp1.models.Totals
Totals
p100
(dp101
g8
S'43'
p102
sg10
S'199'
p103
sg12
S'.447'
p104
sg14
S'411'
p105
sg16
S'.312'
p106
sg18
S'62'
p107
sg20
S'1099'
p108
sg22
S'PG'
p109
sg24
S'.702'
p110
sg26
S'.480'
p111
sg28
S'NBA'
p112
sg30
S'61'
p113
sg32
S'946'
p114
sg34
S'148'
p115
sg36
S'272'
p116
sg38
S'237'
p117
sg40
S'21'
p118
sg42
S'SAS'
p119
sg44
S'75'
p120
sg46
g47
sg48
S'361'
p121
sg50
S'191'
p122
sg52
S'747'
p123
sg54
S'194'
p124
sg56
S'2003-04'
p125
sg58
S'423'
p126
sg60
S'179'
p127
sg62
S'.483'
p128
sg64
S'2577'
p129
sg66
S'75'
p130
sba(isrc.gp1.models.Totals
Totals
p131
(dp132
g8
S'47'
p133
sg10
S'156'
p134
sg12
S'.482'
p135
sg14
S'491'
p136
sg16
S'.276'
p137
sg18
S'43'
p138
sg20
S'1331'
p139
sg22
S'PG'
p140
sg24
S'.650'
p141
sg26
S'.501'
p142
sg28
S'NBA'
p143
sg30
S'98'
p144
sg32
S'1118'
p145
sg34
S'167'
p146
sg36
S'323'
p147
sg38
S'298'
p148
sg40
S'22'
p149
sg42
S'SAS'
p150
sg44
S'80'
p151
sg46
g89
sg48
S'496'
p152
sg50
S'210'
p153
sg52
S'962'
p154
sg54
S'251'
p155
sg56
S'2004-05'
p156
sg58
S'539'
p157
sg60
S'215'
p158
sg62
S'.516'
p159
sg64
S'2735'
p160
sg66
S'80'
p161
sba(isrc.gp1.models.Totals
Totals
p162
(dp163
g8
S'38'
p164
sg10
S'36'
p165
sg12
S'.548'
p166
sg14
S'460'
p167
sg16
S'.306'
p168
sg18
S'11'
p169
sg20
S'1510'
p170
sg22
S'PG'
p171
sg24
S'.707'
p172
sg26
S'.553'
p173
sg28
S'NBA'
p174
sg30
S'83'
p175
sg32
S'1136'
p176
sg34
S'161'
p177
sg36
S'358'
p178
sg38
S'261'
p179
sg40
S'23'
p180
sg42
S'SAS'
p181
sg44
S'80'
p182
sg46
g89
sg48
S'612'
p183
sg50
S'253'
p184
sg52
S'1100'
p185
sg54
S'223'
p186
sg56
S'2005-06'
p187
sg58
S'623'
p188
sg60
S'249'
p189
sg62
S'.556'
p190
sg64
S'2715'
p191
sg66
S'80'
p192
sba(isrc.gp1.models.Totals
Totals
p193
(dp194
g8
S'34'
p195
sg10
S'38'
p196
sg12
S'.520'
p197
sg14
S'420'
p198
sg16
S'.395'
p199
sg18
S'15'
p200
sg20
S'1429'
p201
sg22
S'PG'
p202
sg24
S'.783'
p203
sg26
S'.527'
p204
sg28
S'NBA'
p205
sg30
S'82'
p206
sg32
S'1096'
p207
sg34
S'137'
p208
sg36
S'350'
p209
sg38
S'250'
p210
sg40
S'24'
p211
sg42
S'SAS'
p212
sg44
S'77'
p213
sg46
S'6'
p214
sg48
S'555'
p215
sg50
S'274'
p216
sg52
S'1058'
p217
sg54
S'216'
p218
sg56
S'2006-07'
p219
sg58
S'570'
p220
sg60
S'191'
p221
sg62
S'.525'
p222
sg64
S'2499'
p223
sg66
S'77'
p224
sba(isrc.gp1.models.Totals
Totals
p225
(dp226
g8
S'30'
p227
sg10
S'66'
p228
sg12
S'.494'
p229
sg14
S'411'
p230
sg16
S'.258'
p231
sg18
S'17'
p232
sg20
S'1295'
p233
sg22
S'PG'
p234
sg24
S'.715'
p235
sg26
S'.502'
p236
sg28
S'NBA'
p237
sg30
S'55'
p238
sg32
S'1043'
p239
sg34
S'93'
p240
sg36
S'347'
p241
sg38
S'221'
p242
sg40
S'25'
p243
sg42
S'SAS'
p244
sg44
S'69'
p245
sg46
S'8'
p246
sg48
S'498'
p247
sg50
S'248'
p248
sg52
S'977'
p249
sg54
S'191'
p250
sg56
S'2007-08'
p251
sg58
S'515'
p252
sg60
S'164'
p253
sg62
S'.510'
p254
sg64
S'2312'
p255
sg66
S'68'
p256
sba(isrc.gp1.models.Totals
Totals
p257
(dp258
g8
S'27'
p259
sg10
S'65'
p260
sg12
S'.506'
p261
sg14
S'496'
p262
sg16
S'.292'
p263
sg18
S'19'
p264
sg20
S'1581'
p265
sg22
S'PG'
p266
sg24
S'.782'
p267
sg26
S'.513'
p268
sg28
S'NBA'
p269
sg30
S'67'
p270
sg32
S'1263'
p271
sg34
S'110'
p272
sg36
S'363'
p273
sg38
S'223'
p274
sg40
S'26'
p275
sg42
S'SAS'
p276
sg44
S'72'
p277
sg46
g89
sg48
S'620'
p278
sg50
S'284'
p279
sg52
S'1198'
p280
sg54
S'196'
p281
sg56
S'2008-09'
p282
sg58
S'639'
p283
sg60
S'186'
p284
sg62
S'.518'
p285
sg64
S'2456'
p286
sg66
S'71'
p287
sba(isrc.gp1.models.Totals
Totals
p288
(dp289
g8
g47
sg10
S'34'
p290
sg12
S'.487'
p291
sg14
S'317'
p292
sg16
S'.294'
p293
sg18
S'10'
p294
sg20
S'894'
p295
sg22
S'PG'
p296
sg24
S'.756'
p297
sg26
S'.494'
p298
sg28
S'NBA'
p299
sg30
S'29'
p300
sg32
S'716'
p301
sg34
S'96'
p302
sg36
S'246'
p303
sg38
S'135'
p304
sg40
S'27'
p305
sg42
S'SAS'
p306
sg44
S'56'
p307
sg46
g246
sg48
S'339'
p308
sg50
S'186'
p309
sg52
S'682'
p310
sg54
S'128'
p311
sg56
S'2009-10'
p312
sg58
S'349'
p313
sg60
S'149'
p314
sg62
S'.497'
p315
sg64
S'1728'
p316
sg66
S'50'
p317
sba(isrc.gp1.models.Totals
Totals
p318
(dp319
g8
S'30'
p320
sg10
S'70'
p321
sg12
S'.519'
p322
sg14
S'513'
p323
sg16
S'.357'
p324
sg18
S'25'
p325
sg20
S'1368'
p326
sg22
S'PG'
p327
sg24
S'.769'
p328
sg26
S'.531'
p329
sg28
S'NBA'
p330
sg30
S'90'
p331
sg32
S'1069'
p332
sg34
S'135'
p333
sg36
S'303'
p334
sg38
S'238'
p335
sg40
S'28'
p336
sg42
S'SAS'
p337
sg44
S'78'
p338
sg46
S'3'
p339
sg48
S'530'
p340
sg50
S'233'
p341
sg52
S'999'
p342
sg54
S'208'
p343
sg56
S'2010-11'
p344
sg58
S'555'
p345
sg60
S'200'
p346
sg62
S'.531'
p347
sg64
S'2528'
p348
sg66
S'78'
p349
sba(isrc.gp1.models.Totals
Totals
p350
(dp351
g8
S'22'
p352
sg10
S'61'
p353
sg12
S'.480'
p354
sg14
S'463'
p355
sg16
S'.230'
p356
sg18
S'14'
p357
sg20
S'1095'
p358
sg22
S'PG'
p359
sg24
S'.799'
p360
sg26
S'.488'
p361
sg28
S'NBA'
p362
sg30
S'57'
p363
sg32
S'890'
p364
sg34
S'75'
p365
sg36
S'284'
p366
sg38
S'171'
p367
sg40
S'29'
p368
sg42
S'SAS'
p369
sg44
S'60'
p370
sg46
S'5'
p371
sg48
S'413'
p372
sg50
S'227'
p373
sg52
S'829'
p374
sg54
S'149'
p375
sg56
S'2011-12'
p376
sg58
S'427'
p377
sg60
S'153'
p378
sg62
S'.498'
p379
sg64
S'1923'
p380
sg66
S'60'
p381
sba(isrc.gp1.models.Totals
Totals
p382
(dp383
g8
S'18'
p384
sg10
S'68'
p385
sg12
S'.522'
p386
sg14
S'499'
p387
sg16
S'.353'
p388
sg18
S'24'
p389
sg20
S'1341'
p390
sg22
S'PG'
p391
sg24
S'.845'
p392
sg26
S'.534'
p393
sg28
S'NBA'
p394
sg30
S'54'
p395
sg32
S'995'
p396
sg34
S'92'
p397
sg36
S'330'
p398
sg38
S'198'
p399
sg40
S'30'
p400
sg42
S'SAS'
p401
sg44
S'66'
p402
sg46
g214
sg48
S'495'
p403
sg50
S'279'
p404
sg52
S'927'
p405
sg54
S'180'
p406
sg56
S'2012-13'
p407
sg58
S'519'
p408
sg60
S'170'
p409
sg62
S'.534'
p410
sg64
S'2174'
p411
sg66
S'66'
p412
sba(isrc.gp1.models.Totals
Totals
p413
(dp414
g8
S'17'
p415
sg10
S'67'
p416
sg12
S'.499'
p417
sg14
S'388'
p418
sg16
S'.373'
p419
sg18
S'25'
p420
sg20
S'1134'
p421
sg22
S'PG'
p422
sg24
S'.811'
p423
sg26
S'.513'
p424
sg28
S'NBA'
p425
sg30
S'36'
p426
sg32
S'914'
p427
sg34
S'86'
p428
sg36
S'243'
p429
sg38
S'155'
p430
sg40
S'31'
p431
sg42
S'SAS'
p432
sg44
S'68'
p433
sg46
S'9'
p434
sg48
S'431'
p435
sg50
S'197'
p436
sg52
S'847'
p437
sg54
S'138'
p438
sg56
S'2013-14'
p439
sg58
S'456'
p440
sg60
S'151'
p441
sg62
S'.509'
p442
sg64
S'1997'
p443
sg66
S'68'
p444
sba(isrc.gp1.models.Totals
Totals
p445
(dp446
g8
S'15'
p447
sg10
S'89'
p448
sg12
S'.486'
p449
sg14
S'335'
p450
sg16
S'.427'
p451
sg18
S'38'
p452
sg20
S'976'
p453
sg22
S'PG'
p454
sg24
S'.783'
p455
sg26
S'.508'
p456
sg28
S'NBA'
p457
sg30
S'44'
p458
sg32
S'832'
p459
sg34
S'108'
p460
sg36
S'166'
p461
sg38
S'129'
p462
sg40
S'32'
p463
sg42
S'SAS'
p464
sg44
S'68'
p465
sg46
S'2'
p466
sg48
S'366'
p467
sg50
S'130'
p468
sg52
S'743'
p469
sg54
S'114'
p470
sg56
S'2014-15'
p471
sg58
S'404'
p472
sg60
S'146'
p473
sg62
S'.493'
p474
sg64
S'1953'
p475
sg66
S'68'
p476
sba(isrc.gp1.models.Totals
Totals
p477
(dp478
g8
S'12'
p479
sg10
S'37'
p480
sg12
S'.520'
p481
sg14
S'235'
p482
sg16
S'.432'
p483
sg18
S'16'
p484
sg20
S'556'
p485
sg22
S'PG'
p486
sg24
S'.757'
p487
sg26
S'.538'
p488
sg28
S'NBA'
p489
sg30
S'38'
p490
sg32
S'444'
p491
sg34
S'74'
p492
sg36
S'103'
p493
sg38
S'119'
p494
sg40
S'33'
p495
sg42
S'SAS'
p496
sg44
S'46'
p497
sg46
g47
sg48
S'215'
p498
sg50
S'78'
p499
sg52
S'407'
p500
sg54
S'107'
p501
sg56
S'2015-16'
p502
sg58
S'231'
p503
sg60
S'79'
p504
sg62
S'.528'
p505
sg64
S'1229'
p506
sg66
S'46'
p507
sbasS'_college'
p508
S'NA'
p509
sS'_toYear'
p510
S'2016'
p511
sS'_height'
p512
S'6-2'
p513
sS'_active'
p514
I01
sS'_shootingHand'
p515
VRight
p516
sS'_name'
p517
S'Tony Parker'
p518
sS'_per100Possessions'
p519
(lp520
(isrc.gp1.models.Per100Possession
Per100Possession
p521
(dp522
g8
S'0.8'
p523
sg10
S'4.4'
p524
sg12
S'.419'
p525
sS'_offensiveRating'
p526
S'99'
p527
sg14
S'7.9'
p528
sg16
S'.323'
p529
sg18
S'1.4'
p530
sg20
S'16.6'
p531
sg22
S'PG'
p532
sS'_defensiveRating'
p533
S'103'
p534
sg24
S'.675'
p535
sg28
S'NBA'
p536
sg30
S'2.1'
p537
sg32
S'15.0'
p538
sg34
S'3.9'
p539
sg36
S'3.8'
p540
sg38
S'4.6'
p541
sg40
S'19'
p542
sg42
S'SAS'
p543
sg44
S'77'
p544
sg46
S'0.2'
p545
sg48
S'4.9'
p546
sg50
S'2.5'
p547
sg52
S'10.6'
p548
sg54
S'3.9'
p549
sg56
S'2001-02'
p550
sg58
S'6.3'
p551
sg60
S'3.6'
p552
sg62
S'.460'
p553
sg64
S'2267'
p554
sg66
S'72'
p555
sba(isrc.gp1.models.Per100Possession
Per100Possession
p556
(dp557
g8
S'0.6'
p558
sg10
S'4.7'
p559
sg12
S'.464'
p560
sg526
S'108'
p561
sg14
S'8.3'
p562
sg16
S'.337'
p563
sg18
S'1.6'
p564
sg20
S'24.4'
p565
sg22
S'PG'
p566
sg533
S'104'
p567
sg24
S'.755'
p568
sg28
S'NBA'
p569
sg30
S'1.4'
p570
sg32
S'20.1'
p571
sg34
S'3.3'
p572
sg36
S'5.6'
p573
sg38
S'4.2'
p574
sg40
S'20'
p575
sg42
S'SAS'
p576
sg44
S'82'
p577
sg46
S'0.1'
p578
sg48
S'7.7'
p579
sg50
S'4.2'
p580
sg52
S'15.4'
p581
sg54
S'3.5'
p582
sg56
S'2002-03'
p583
sg58
S'9.3'
p584
sg60
S'3.8'
p585
sg62
S'.503'
p586
sg64
S'2774'
p587
sg66
S'82'
p588
sba(isrc.gp1.models.Per100Possession
Per100Possession
p589
(dp590
g8
S'0.9'
p591
sg10
S'4.2'
p592
sg12
S'.447'
p593
sg526
S'104'
p594
sg14
S'8.6'
p595
sg16
S'.312'
p596
sg18
S'1.3'
p597
sg20
S'22.9'
p598
sg22
S'PG'
p599
sg533
S'99'
p600
sg24
S'.702'
p601
sg28
S'NBA'
p602
sg30
S'1.3'
p603
sg32
S'19.8'
p604
sg34
S'3.1'
p605
sg36
S'5.7'
p606
sg38
S'4.9'
p607
sg40
S'21'
p608
sg42
S'SAS'
p609
sg44
S'75'
p610
sg46
S'0.1'
p611
sg48
S'7.5'
p612
sg50
S'4.0'
p613
sg52
S'15.6'
p614
sg54
S'4.1'
p615
sg56
S'2003-04'
p616
sg58
S'8.8'
p617
sg60
S'3.7'
p618
sg62
S'.483'
p619
sg64
S'2577'
p620
sg66
S'75'
p621
sba(isrc.gp1.models.Per100Possession
Per100Possession
p622
(dp623
g8
S'0.9'
p624
sg10
S'3.1'
p625
sg12
S'.482'
p626
sg526
S'106'
p627
sg14
S'9.7'
p628
sg16
S'.276'
p629
sg18
S'0.8'
p630
sg20
S'26.3'
p631
sg22
S'PG'
p632
sg533
S'101'
p633
sg24
S'.650'
p634
sg28
S'NBA'
p635
sg30
S'1.9'
p636
sg32
S'22.1'
p637
sg34
S'3.3'
p638
sg36
S'6.4'
p639
sg38
S'5.9'
p640
sg40
S'22'
p641
sg42
S'SAS'
p642
sg44
S'80'
p643
sg46
S'0.1'
p644
sg48
S'9.8'
p645
sg50
S'4.1'
p646
sg52
S'19.0'
p647
sg54
S'5.0'
p648
sg56
S'2004-05'
p649
sg58
S'10.6'
p650
sg60
S'4.2'
p651
sg62
S'.516'
p652
sg64
S'2735'
p653
sg66
S'80'
p654
sba(isrc.gp1.models.Per100Possession
Per100Possession
p655
(dp656
g8
S'0.8'
p657
sg10
S'0.7'
p658
sg12
S'.548'
p659
sg526
S'110'
p660
sg14
S'9.2'
p661
sg16
S'.306'
p662
sg18
S'0.2'
p663
sg20
S'30.2'
p664
sg22
S'PG'
p665
sg533
S'102'
p666
sg24
S'.707'
p667
sg28
S'NBA'
p668
sg30
S'1.7'
p669
sg32
S'22.7'
p670
sg34
S'3.2'
p671
sg36
S'7.2'
p672
sg38
S'5.2'
p673
sg40
S'23'
p674
sg42
S'SAS'
p675
sg44
S'80'
p676
sg46
S'0.1'
p677
sg48
S'12.2'
p678
sg50
S'5.1'
p679
sg52
S'22.0'
p680
sg54
S'4.5'
p681
sg56
S'2005-06'
p682
sg58
S'12.4'
p683
sg60
S'5.0'
p684
sg62
S'.556'
p685
sg64
S'2715'
p686
sg66
S'80'
p687
sba(isrc.gp1.models.Per100Possession
Per100Possession
p688
(dp689
g8
S'0.7'
p690
sg10
S'0.8'
p691
sg12
S'.520'
p692
sg526
S'112'
p693
sg14
S'9.0'
p694
sg16
S'.395'
p695
sg18
S'0.3'
p696
sg20
S'30.6'
p697
sg22
S'PG'
p698
sg533
S'102'
p699
sg24
S'.783'
p700
sg28
S'NBA'
p701
sg30
S'1.8'
p702
sg32
S'23.5'
p703
sg34
S'2.9'
p704
sg36
S'7.5'
p705
sg38
S'5.3'
p706
sg40
S'24'
p707
sg42
S'SAS'
p708
sg44
S'77'
p709
sg46
S'0.1'
p710
sg48
S'11.9'
p711
sg50
S'5.9'
p712
sg52
S'22.6'
p713
sg54
S'4.6'
p714
sg56
S'2006-07'
p715
sg58
S'12.2'
p716
sg60
S'4.1'
p717
sg62
S'.525'
p718
sg64
S'2499'
p719
sg66
S'77'
p720
sba(isrc.gp1.models.Per100Possession
Per100Possession
p721
(dp722
g8
S'0.7'
p723
sg10
S'1.5'
p724
sg12
S'.494'
p725
sg526
S'109'
p726
sg14
S'9.6'
p727
sg16
S'.258'
p728
sg18
S'0.4'
p729
sg20
S'30.3'
p730
sg22
S'PG'
p731
sg533
S'105'
p732
sg24
S'.715'
p733
sg28
S'NBA'
p734
sg30
S'1.3'
p735
sg32
S'24.4'
p736
sg34
S'2.2'
p737
sg36
S'8.1'
p738
sg38
S'5.2'
p739
sg40
S'25'
p740
sg42
S'SAS'
p741
sg44
S'69'
p742
sg46
S'0.2'
p743
sg48
S'11.6'
p744
sg50
S'5.8'
p745
sg52
S'22.9'
p746
sg54
S'4.5'
p747
sg56
S'2007-08'
p748
sg58
S'12.0'
p749
sg60
S'3.8'
p750
sg62
S'.510'
p751
sg64
S'2312'
p752
sg66
S'68'
p753
sba(isrc.gp1.models.Per100Possession
Per100Possession
p754
(dp755
g8
S'0.6'
p756
sg10
S'1.4'
p757
sg12
S'.506'
p758
sg526
S'112'
p759
sg14
S'11.0'
p760
sg16
S'.292'
p761
sg18
S'0.4'
p762
sg20
S'35.0'
p763
sg22
S'PG'
p764
sg533
S'107'
p765
sg24
S'.782'
p766
sg28
S'NBA'
p767
sg30
S'1.5'
p768
sg32
S'27.9'
p769
sg34
S'2.4'
p770
sg36
S'8.0'
p771
sg38
S'4.9'
p772
sg40
S'26'
p773
sg42
S'SAS'
p774
sg44
S'72'
p775
sg46
S'0.1'
p776
sg48
S'13.7'
p777
sg50
S'6.3'
p778
sg52
S'26.5'
p779
sg54
S'4.3'
p780
sg56
S'2008-09'
p781
sg58
S'14.1'
p782
sg60
S'4.1'
p783
sg62
S'.518'
p784
sg64
S'2456'
p785
sg66
S'71'
p786
sba(isrc.gp1.models.Per100Possession
Per100Possession
p787
(dp788
g8
S'0.2'
p789
sg10
S'1.0'
p790
sg12
S'.487'
p791
sg526
S'106'
p792
sg14
S'9.6'
p793
sg16
S'.294'
p794
sg18
S'0.3'
p795
sg20
S'27.1'
p796
sg22
S'PG'
p797
sg533
S'108'
p798
sg24
S'.756'
p799
sg28
S'NBA'
p800
sg30
S'0.9'
p801
sg32
S'21.7'
p802
sg34
S'2.9'
p803
sg36
S'7.5'
p804
sg38
S'4.1'
p805
sg40
S'27'
p806
sg42
S'SAS'
p807
sg44
S'56'
p808
sg46
S'0.2'
p809
sg48
S'10.3'
p810
sg50
S'5.6'
p811
sg52
S'20.7'
p812
sg54
S'3.9'
p813
sg56
S'2009-10'
p814
sg58
S'10.6'
p815
sg60
S'4.5'
p816
sg62
S'.497'
p817
sg64
S'1728'
p818
sg66
S'50'
p819
sba(isrc.gp1.models.Per100Possession
Per100Possession
p820
(dp821
g8
S'0.6'
p822
sg10
S'1.4'
p823
sg12
S'.519'
p824
sg526
S'113'
p825
sg14
S'10.6'
p826
sg16
S'.357'
p827
sg18
S'0.5'
p828
sg20
S'28.1'
p829
sg22
S'PG'
p830
sg533
S'108'
p831
sg24
S'.769'
p832
sg28
S'NBA'
p833
sg30
S'1.9'
p834
sg32
S'22.0'
p835
sg34
S'2.8'
p836
sg36
S'6.2'
p837
sg38
S'4.9'
p838
sg40
S'28'
p839
sg42
S'SAS'
p840
sg44
S'78'
p841
sg46
S'0.1'
p842
sg48
S'10.9'
p843
sg50
S'4.8'
p844
sg52
S'20.5'
p845
sg54
S'4.3'
p846
sg56
S'2010-11'
p847
sg58
S'11.4'
p848
sg60
S'4.1'
p849
sg62
S'.531'
p850
sg64
S'2528'
p851
sg66
S'78'
p852
sba(isrc.gp1.models.Per100Possession
Per100Possession
p853
(dp854
g8
S'0.6'
p855
sg10
S'1.6'
p856
sg12
S'.480'
p857
sg526
S'112'
p858
sg14
S'12.4'
p859
sg16
S'.230'
p860
sg18
S'0.4'
p861
sg20
S'29.4'
p862
sg22
S'PG'
p863
sg533
S'106'
p864
sg24
S'.799'
p865
sg28
S'NBA'
p866
sg30
S'1.5'
p867
sg32
S'23.9'
p868
sg34
S'2.0'
p869
sg36
S'7.6'
p870
sg38
S'4.6'
p871
sg40
S'29'
p872
sg42
S'SAS'
p873
sg44
S'60'
p874
sg46
S'0.1'
p875
sg48
S'11.1'
p876
sg50
S'6.1'
p877
sg52
S'22.3'
p878
sg54
S'4.0'
p879
sg56
S'2011-12'
p880
sg58
S'11.5'
p881
sg60
S'4.1'
p882
sg62
S'.498'
p883
sg64
S'1923'
p884
sg66
S'60'
p885
sba(isrc.gp1.models.Per100Possession
Per100Possession
p886
(dp887
g8
S'0.4'
p888
sg10
S'1.6'
p889
sg12
S'.522'
p890
sg526
S'116'
p891
sg14
S'11.7'
p892
sg16
S'.353'
p893
sg18
S'0.6'
p894
sg20
S'31.4'
p895
sg22
S'PG'
p896
sg533
S'106'
p897
sg24
S'.845'
p898
sg28
S'NBA'
p899
sg30
S'1.3'
p900
sg32
S'23.3'
p901
sg34
S'2.2'
p902
sg36
S'7.7'
p903
sg38
S'4.6'
p904
sg40
S'30'
p905
sg42
S'SAS'
p906
sg44
S'66'
p907
sg46
S'0.1'
p908
sg48
S'11.6'
p909
sg50
S'6.5'
p910
sg52
S'21.7'
p911
sg54
S'4.2'
p912
sg56
S'2012-13'
p913
sg58
S'12.2'
p914
sg60
S'4.0'
p915
sg62
S'.534'
p916
sg64
S'2174'
p917
sg66
S'66'
p918
sba(isrc.gp1.models.Per100Possession
Per100Possession
p919
(dp920
g8
S'0.4'
p921
sg10
S'1.7'
p922
sg12
S'.499'
p923
sg526
S'110'
p924
sg14
S'9.8'
p925
sg16
S'.373'
p926
sg18
S'0.6'
p927
sg20
S'28.7'
p928
sg22
S'PG'
p929
sg533
S'107'
p930
sg24
S'.811'
p931
sg28
S'NBA'
p932
sg30
S'0.9'
p933
sg32
S'23.1'
p934
sg34
S'2.2'
p935
sg36
S'6.1'
p936
sg38
S'3.9'
p937
sg40
S'31'
p938
sg42
S'SAS'
p939
sg44
S'68'
p940
sg46
S'0.2'
p941
sg48
S'10.9'
p942
sg50
S'5.0'
p943
sg52
S'21.4'
p944
sg54
S'3.5'
p945
sg56
S'2013-14'
p946
sg58
S'11.5'
p947
sg60
S'3.8'
p948
sg62
S'.509'
p949
sg64
S'1997'
p950
sg66
S'68'
p951
sba(isrc.gp1.models.Per100Possession
Per100Possession
p952
(dp953
g8
S'0.4'
p954
sg10
S'2.3'
p955
sg12
S'.486'
p956
sg526
S'105'
p957
sg14
S'8.8'
p958
sg16
S'.427'
p959
sg18
S'1.0'
p960
sg20
S'25.6'
p961
sg22
S'PG'
p962
sg533
S'107'
p963
sg24
S'.783'
p964
sg28
S'NBA'
p965
sg30
S'1.2'
p966
sg32
S'21.8'
p967
sg34
S'2.8'
p968
sg36
S'4.4'
p969
sg38
S'3.4'
p970
sg40
S'32'
p971
sg42
S'SAS'
p972
sg44
S'68'
p973
sg46
S'0.1'
p974
sg48
S'9.6'
p975
sg50
S'3.4'
p976
sg52
S'19.5'
p977
sg54
S'3.0'
p978
sg56
S'2014-15'
p979
sg58
S'10.6'
p980
sg60
S'3.8'
p981
sg62
S'.493'
p982
sg64
S'1953'
p983
sg66
S'68'
p984
sba(isrc.gp1.models.Per100Possession
Per100Possession
p985
(dp986
g8
S'0.5'
p987
sg10
S'1.5'
p988
sg12
S'.520'
p989
sg526
S'113'
p990
sg14
S'9.7'
p991
sg16
S'.432'
p992
sg18
S'0.7'
p993
sg20
S'23.0'
p994
sg22
S'PG'
p995
sg533
S'100'
p996
sg24
S'.757'
p997
sg28
S'NBA'
p998
sg30
S'1.6'
p999
sg32
S'18.4'
p1000
sg34
S'3.1'
p1001
sg36
S'4.3'
p1002
sg38
S'4.9'
p1003
sg40
S'33'
p1004
sg42
S'SAS'
p1005
sg44
S'46'
p1006
sg46
S'0.3'
p1007
sg48
S'8.9'
p1008
sg50
S'3.2'
p1009
sg52
S'16.9'
p1010
sg54
S'4.4'
p1011
sg56
S'2015-16'
p1012
sg58
S'9.6'
p1013
sg60
S'3.3'
p1014
sg62
S'.528'
p1015
sg64
S'1229'
p1016
sg66
S'46'
p1017
sbasS'_advanced'
p1018
(lp1019
(isrc.gp1.models.Advanced
Advanced
p1020
(dp1021
S'_offensiveReboundPercentage'
p1022
S'1.7'
p1023
sS'_turnOverPercentage'
p1024
S'17.5'
p1025
sS'_winSharesPer48Minutes'
p1026
S'.080'
p1027
sS'_stealPercentage'
p1028
S'2.1'
p1029
sS'_usagePercentage'
p1030
S'17.7'
p1031
sS'_totalReboundsPercentage'
p1032
S'5.0'
p1033
sS'_defensiveBoxPlusMinus'
p1034
S'0.1'
p1035
sg22
S'PG'
p1036
sS'_valueOverReplacementPlayer'
p1037
S'0.9'
p1038
sS'_trueShootingPercentage'
p1039
S'.497'
p1040
sS'_defensiveReboundPercentage'
p1041
S'8.0'
p1042
sS'_freeThrowsAttempRate'
p1043
S'.250'
p1044
sS'_threePointsAttempRate'
p1045
S'.296'
p1046
sg28
S'NBA'
p1047
sS'_offensiveBoxPlusMinues'
p1048
S'-0.5'
p1049
sS'_assistPercentage'
p1050
S'23.9'
p1051
sS'_defensiveWinShares'
p1052
S'2.9'
p1053
sg40
S'19'
p1054
sg42
S'SAS'
p1055
sg44
S'77'
p1056
sS'_blockPercentage'
p1057
S'0.2'
p1058
sS'_playerEfficiencyRating'
p1059
S'11.7'
p1060
sS'_offensiveWinShares'
p1061
S'0.8'
p1062
sg64
S'2267'
p1063
sS'_boxPlusMinus'
p1064
S'-0.4'
p1065
sg56
S'2001-02'
p1066
sS'_winShares'
p1067
S'3.8'
p1068
sba(isrc.gp1.models.Advanced
Advanced
p1069
(dp1070
g1022
S'1.4'
p1071
sg1024
S'14.5'
p1072
sg1026
S'.134'
p1073
sg1028
S'1.4'
p1074
sg1030
S'22.9'
p1075
sg1032
S'4.5'
p1076
sg1034
S'-1.7'
p1077
sg22
S'PG'
p1078
sg1037
S'1.6'
p1079
sg1039
S'.542'
p1080
sg1041
S'7.3'
p1081
sg1043
S'.278'
p1082
sg1045
S'.233'
p1083
sg28
S'NBA'
p1084
sg1048
S'1.9'
p1085
sg1050
S'27.9'
p1086
sg1052
S'2.6'
p1087
sg40
S'20'
p1088
sg42
S'SAS'
p1089
sg44
S'82'
p1090
sg1057
S'0.1'
p1091
sg1059
S'16.5'
p1092
sg1061
S'5.1'
p1093
sg64
S'2774'
p1094
sg1064
S'0.3'
p1095
sg56
S'2002-03'
p1096
sg1067
S'7.7'
p1097
sba(isrc.gp1.models.Advanced
Advanced
p1098
(dp1099
g1022
S'1.9'
p1100
sg1024
S'14.4'
p1101
sg1026
S'.140'
p1102
sg1028
S'1.3'
p1103
sg1030
S'22.3'
p1104
sg1032
S'5.1'
p1105
sg1034
S'-0.4'
p1106
sg22
S'PG'
p1107
sg1037
S'1.9'
p1108
sg1039
S'.516'
p1109
sg1041
S'8.3'
p1110
sg1043
S'.288'
p1111
sg1045
S'.210'
p1112
sg28
S'NBA'
p1113
sg1048
S'1.2'
p1114
sg1050
S'28.7'
p1115
sg1052
S'4.0'
p1116
sg40
S'21'
p1117
sg42
S'SAS'
p1118
sg44
S'75'
p1119
sg1057
S'0.2'
p1120
sg1059
S'15.7'
p1121
sg1061
S'3.5'
p1122
sg64
S'2577'
p1123
sg1064
S'0.8'
p1124
sg56
S'2003-04'
p1125
sg1067
S'7.5'
p1126
sba(isrc.gp1.models.Advanced
Advanced
p1127
(dp1128
g1022
S'2.0'
p1129
sg1024
S'14.6'
p1130
sg1026
S'.141'
p1131
sg1028
S'1.9'
p1132
sg1030
S'25.1'
p1133
sg1032
S'6.4'
p1134
sg1034
S'0.5'
p1135
sg22
S'PG'
p1136
sg1037
S'3.0'
p1137
sg1039
S'.528'
p1138
sg1041
S'10.7'
p1139
sg1043
S'.289'
p1140
sg1045
S'.140'
p1141
sg28
S'NBA'
p1142
sg1048
S'1.9'
p1143
sg1050
S'33.2'
p1144
sg1052
S'4.5'
p1145
sg40
S'22'
p1146
sg42
S'SAS'
p1147
sg44
S'80'
p1148
sg1057
S'0.1'
p1149
sg1059
S'18.0'
p1150
sg1061
S'3.6'
p1151
sg64
S'2735'
p1152
sg1064
S'2.3'
p1153
sg56
S'2004-05'
p1154
sg1067
S'8.1'
p1155
sba(isrc.gp1.models.Advanced
Advanced
p1156
(dp1157
g1022
S'1.7'
p1158
sg1024
S'16.1'
p1159
sg1026
S'.169'
p1160
sg1028
S'1.7'
p1161
sg1030
S'27.1'
p1162
sg1032
S'5.7'
p1163
sg1034
S'0.0'
p1164
sg22
S'PG'
p1165
sg1037
S'3.1'
p1166
sg1039
S'.584'
p1167
sg1041
S'9.5'
p1168
sg1043
S'.315'
p1169
sg1045
S'.032'
p1170
sg28
S'NBA'
p1171
sg1048
S'2.6'
p1172
sg1050
S'32.2'
p1173
sg1052
S'4.1'
p1174
sg40
S'23'
p1175
sg42
S'SAS'
p1176
sg44
S'80'
p1177
sg1057
S'0.1'
p1178
sg1059
S'20.8'
p1179
sg1061
S'5.5'
p1180
sg64
S'2715'
p1181
sg1064
S'2.6'
p1182
sg56
S'2005-06'
p1183
sg1067
S'9.6'
p1184
sba(isrc.gp1.models.Advanced
Advanced
p1185
(dp1186
g1022
S'1.7'
p1187
sg1024
S'13.3'
p1188
sg1026
S'.185'
p1189
sg1028
S'1.8'
p1190
sg1030
S'27.4'
p1191
sg1032
S'6.0'
p1192
sg1034
S'0.1'
p1193
sg22
S'PG'
p1194
sg1037
S'3.0'
p1195
sg1039
S'.572'
p1196
sg1041
S'10.0'
p1197
sg1043
S'.319'
p1198
sg1045
S'.035'
p1199
sg28
S'NBA'
p1200
sg1048
S'2.5'
p1201
sg1050
S'31.7'
p1202
sg1052
S'3.9'
p1203
sg40
S'24'
p1204
sg42
S'SAS'
p1205
sg44
S'77'
p1206
sg1057
S'0.2'
p1207
sg1059
S'21.4'
p1208
sg1061
S'5.8'
p1209
sg64
S'2499'
p1210
sg1064
S'2.7'
p1211
sg56
S'2006-07'
p1212
sg1067
S'9.6'
p1213
sba(isrc.gp1.models.Advanced
Advanced
p1214
(dp1215
g1022
S'1.6'
p1216
sg1024
S'12.1'
p1217
sg1026
S'.146'
p1218
sg1028
S'1.3'
p1219
sg1030
S'28.2'
p1220
sg1032
S'5.6'
p1221
sg1034
S'-0.3'
p1222
sg22
S'PG'
p1223
sg1037
S'2.2'
p1224
sg1039
S'.542'
p1225
sg1041
S'9.6'
p1226
sg1043
S'.333'
p1227
sg1045
S'.063'
p1228
sg28
S'NBA'
p1229
sg1048
S'2.0'
p1230
sg1050
S'34.1'
p1231
sg1052
S'3.2'
p1232
sg40
S'25'
p1233
sg42
S'SAS'
p1234
sg44
S'69'
p1235
sg1057
S'0.3'
p1236
sg1059
S'20.0'
p1237
sg1061
S'3.9'
p1238
sg64
S'2312'
p1239
sg1064
S'1.7'
p1240
sg56
S'2007-08'
p1241
sg1067
S'7.0'
p1242
sba(isrc.gp1.models.Advanced
Advanced
p1243
(dp1244
g1022
S'1.3'
p1245
sg1024
S'11.6'
p1246
sg1026
S'.168'
p1247
sg1028
S'1.5'
p1248
sg1030
S'31.7'
p1249
sg1032
S'5.4'
p1250
sg1034
S'-0.8'
p1251
sg22
S'PG'
p1252
sg1037
S'3.2'
p1253
sg1039
S'.556'
p1254
sg1041
S'9.4'
p1255
sg1043
S'.287'
p1256
sg1045
S'.051'
p1257
sg28
S'NBA'
p1258
sg1048
S'3.9'
p1259
sg1050
S'40.1'
p1260
sg1052
S'3.0'
p1261
sg40
S'26'
p1262
sg42
S'SAS'
p1263
sg44
S'72'
p1264
sg1057
S'0.1'
p1265
sg1059
S'23.4'
p1266
sg1061
S'5.6'
p1267
sg64
S'2456'
p1268
sg1064
S'3.1'
p1269
sg56
S'2008-09'
p1270
sg1067
S'8.6'
p1271
sba(isrc.gp1.models.Advanced
Advanced
p1272
(dp1273
g1022
S'0.5'
p1274
sg1024
S'15.3'
p1275
sg1026
S'.101'
p1276
sg1028
S'0.9'
p1277
sg1030
S'25.8'
p1278
sg1032
S'4.6'
p1279
sg1034
S'-1.6'
p1280
sg22
S'PG'
p1281
sg1037
S'0.1'
p1282
sg1039
S'.542'
p1283
sg1041
S'8.5'
p1284
sg1043
S'.344'
p1285
sg1045
S'.047'
p1286
sg28
S'NBA'
p1287
sg1048
S'-0.1'
p1288
sg1050
S'30.9'
p1289
sg1052
S'1.6'
p1290
sg40
S'27'
p1291
sg42
S'SAS'
p1292
sg44
S'56'
p1293
sg1057
S'0.3'
p1294
sg1059
S'16.4'
p1295
sg1061
S'2.0'
p1296
sg64
S'1728'
p1297
sg1064
S'-1.7'
p1298
sg56
S'2009-10'
p1299
sg1067
S'3.6'
p1300
sba(isrc.gp1.models.Advanced
Advanced
p1301
(dp1302
g1022
S'1.4'
p1303
sg1024
S'14.3'
p1304
sg1026
S'.156'
p1305
sg1028
S'1.9'
p1306
sg1030
S'25.5'
p1307
sg1032
S'5.5'
p1308
sg1034
S'-0.8'
p1309
sg22
S'PG'
p1310
sg1037
S'2.4'
p1311
sg1039
S'.569'
p1312
sg1041
S'9.3'
p1313
sg1043
S'.283'
p1314
sg1045
S'.065'
p1315
sg28
S'NBA'
p1316
sg1048
S'2.5'
p1317
sg1050
S'35.2'
p1318
sg1052
S'2.4'
p1319
sg40
S'28'
p1320
sg42
S'SAS'
p1321
sg44
S'78'
p1322
sg1057
S'0.1'
p1323
sg1059
S'20.4'
p1324
sg1061
S'5.8'
p1325
sg64
S'2528'
p1326
sg1064
S'1.7'
p1327
sg56
S'2010-11'
p1328
sg1067
S'8.2'
p1329
sba(isrc.gp1.models.Advanced
Advanced
p1330
(dp1331
g1022
S'1.3'
p1332
sg1024
S'13.1'
p1333
sg1026
S'.177'
p1334
sg1028
S'1.5'
p1335
sg1030
S'27.7'
p1336
sg1032
S'5.1'
p1337
sg1034
S'-1.5'
p1338
sg22
S'PG'
p1339
sg1037
S'1.8'
p1340
sg1039
S'.539'
p1341
sg1041
S'8.7'
p1342
sg1043
S'.319'
p1343
sg1045
S'.069'
p1344
sg28
S'NBA'
p1345
sg1048
S'3.2'
p1346
sg1050
S'40.3'
p1347
sg1052
S'1.6'
p1348
sg40
S'29'
p1349
sg42
S'SAS'
p1350
sg44
S'60'
p1351
sg1057
S'0.2'
p1352
sg1059
S'22.0'
p1353
sg1061
S'5.5'
p1354
sg64
S'1923'
p1355
sg1064
S'1.7'
p1356
sg56
S'2011-12'
p1357
sg1067
S'7.1'
p1358
sba(isrc.gp1.models.Advanced
Advanced
p1359
(dp1360
g1022
S'1.0'
p1361
sg1024
S'13.0'
p1362
sg1026
S'.206'
p1363
sg1028
S'1.3'
p1364
sg1030
S'27.7'
p1365
sg1032
S'5.3'
p1366
sg1034
S'-1.4'
p1367
sg22
S'PG'
p1368
sg1037
S'2.6'
p1369
sg1039
S'.588'
p1370
sg1041
S'9.1'
p1371
sg1043
S'.332'
p1372
sg1045
S'.068'
p1373
sg28
S'NBA'
p1374
sg1048
S'4.1'
p1375
sg1050
S'40.4'
p1376
sg1052
S'2.3'
p1377
sg40
S'30'
p1378
sg42
S'SAS'
p1379
sg44
S'66'
p1380
sg1057
S'0.2'
p1381
sg1059
S'23.0'
p1382
sg1061
S'7.1'
p1383
sg64
S'2174'
p1384
sg1064
S'2.7'
p1385
sg56
S'2012-13'
p1386
sg1067
S'9.3'
p1387
sba(isrc.gp1.models.Advanced
Advanced
p1388
(dp1389
g1022
S'1.0'
p1390
sg1024
S'12.9'
p1391
sg1026
S'.141'
p1392
sg1028
S'0.9'
p1393
sg1030
S'26.5'
p1394
sg1032
S'4.4'
p1395
sg1034
S'-1.8'
p1396
sg22
S'PG'
p1397
sg1037
S'0.8'
p1398
sg1039
S'.555'
p1399
sg1041
S'7.5'
p1400
sg1043
S'.266'
p1401
sg1045
S'.073'
p1402
sg28
S'NBA'
p1403
sg1048
S'1.3'
p1404
sg1050
S'31.7'
p1405
sg1052
S'1.9'
p1406
sg40
S'31'
p1407
sg42
S'SAS'
p1408
sg44
S'68'
p1409
sg1057
S'0.3'
p1410
sg1059
S'18.9'
p1411
sg1061
S'3.9'
p1412
sg64
S'1997'
p1413
sg1064
S'-0.5'
p1414
sg56
S'2013-14'
p1415
sg1067
S'5.9'
p1416
sba(isrc.gp1.models.Advanced
Advanced
p1417
(dp1418
g1022
S'0.9'
p1419
sg1024
S'13.9'
p1420
sg1026
S'.100'
p1421
sg1028
S'1.2'
p1422
sg1030
S'24.5'
p1423
sg1032
S'3.7'
p1424
sg1034
S'-2.2'
p1425
sg22
S'PG'
p1426
sg1037
S'0.0'
p1427
sg1039
S'.539'
p1428
sg1041
S'6.5'
p1429
sg1043
S'.200'
p1430
sg1045
S'.107'
p1431
sg28
S'NBA'
p1432
sg1048
S'0.2'
p1433
sg1050
S'28.7'
p1434
sg1052
S'1.7'
p1435
sg40
S'32'
p1436
sg42
S'SAS'
p1437
sg44
S'68'
p1438
sg1057
S'0.1'
p1439
sg1059
S'15.9'
p1440
sg1061
S'2.4'
p1441
sg64
S'1953'
p1442
sg1064
S'-2.0'
p1443
sg56
S'2014-15'
p1444
sg1067
S'4.1'
p1445
sba(isrc.gp1.models.Advanced
Advanced
p1446
(dp1447
g1022
S'1.2'
p1448
sg1024
S'13.9'
p1449
sg1026
S'.182'
p1450
sg1028
S'1.6'
p1451
sg1030
S'21.1'
p1452
sg1032
S'5.5'
p1453
sg1034
S'0.2'
p1454
sg22
S'PG'
p1455
sg1037
S'1.1'
p1456
sg1039
S'.568'
p1457
sg1041
S'9.4'
p1458
sg1043
S'.232'
p1459
sg1045
S'.083'
p1460
sg28
S'NBA'
p1461
sg1048
S'1.4'
p1462
sg1050
S'28.9'
p1463
sg1052
S'2.1'
p1464
sg40
S'33'
p1465
sg42
S'SAS'
p1466
sg44
S'46'
p1467
sg1057
S'0.4'
p1468
sg1059
S'17.9'
p1469
sg1061
S'2.6'
p1470
sg64
S'1229'
p1471
sg1064
S'1.6'
p1472
sg56
S'2015-16'
p1473
sg1067
S'4.7'
p1474
sbasS'_per36Minutes'
p1475
(lp1476
(isrc.gp1.models.Per36Minutes
Per36Minutes
p1477
(dp1478
g8
S'0.5'
p1479
sg10
S'3.0'
p1480
sg12
S'.419'
p1481
sg14
S'5.3'
p1482
sg16
S'.323'
p1483
sg18
S'1.0'
p1484
sg20
S'11.2'
p1485
sg22
S'PG'
p1486
sg24
S'.675'
p1487
sg28
S'NBA'
p1488
sg30
S'1.4'
p1489
sg32
S'10.1'
p1490
sg34
S'2.6'
p1491
sg36
S'2.5'
p1492
sg38
S'3.1'
p1493
sg40
S'19'
p1494
sg42
S'SAS'
p1495
sg44
S'77'
p1496
sg46
S'0.1'
p1497
sg48
S'3.3'
p1498
sg50
S'1.7'
p1499
sg52
S'7.1'
p1500
sg54
S'2.6'
p1501
sg56
S'2001-02'
p1502
sg58
S'4.3'
p1503
sg60
S'2.4'
p1504
sg62
S'.460'
p1505
sg64
S'2267'
p1506
sg66
S'72'
p1507
sba(isrc.gp1.models.Per36Minutes
Per36Minutes
p1508
(dp1509
g8
S'0.4'
p1510
sg10
S'3.2'
p1511
sg12
S'.464'
p1512
sg14
S'5.6'
p1513
sg16
S'.337'
p1514
sg18
S'1.1'
p1515
sg20
S'16.5'
p1516
sg22
S'PG'
p1517
sg24
S'.755'
p1518
sg28
S'NBA'
p1519
sg30
S'0.9'
p1520
sg32
S'13.5'
p1521
sg34
S'2.3'
p1522
sg36
S'3.8'
p1523
sg38
S'2.8'
p1524
sg40
S'20'
p1525
sg42
S'SAS'
p1526
sg44
S'82'
p1527
sg46
S'0.1'
p1528
sg48
S'5.2'
p1529
sg50
S'2.8'
p1530
sg52
S'10.4'
p1531
sg54
S'2.4'
p1532
sg56
S'2002-03'
p1533
sg58
S'6.3'
p1534
sg60
S'2.6'
p1535
sg62
S'.503'
p1536
sg64
S'2774'
p1537
sg66
S'82'
p1538
sba(isrc.gp1.models.Per36Minutes
Per36Minutes
p1539
(dp1540
g8
S'0.6'
p1541
sg10
S'2.8'
p1542
sg12
S'.447'
p1543
sg14
S'5.7'
p1544
sg16
S'.312'
p1545
sg18
S'0.9'
p1546
sg20
S'15.4'
p1547
sg22
S'PG'
p1548
sg24
S'.702'
p1549
sg28
S'NBA'
p1550
sg30
S'0.9'
p1551
sg32
S'13.2'
p1552
sg34
S'2.1'
p1553
sg36
S'3.8'
p1554
sg38
S'3.3'
p1555
sg40
S'21'
p1556
sg42
S'SAS'
p1557
sg44
S'75'
p1558
sg46
S'0.1'
p1559
sg48
S'5.0'
p1560
sg50
S'2.7'
p1561
sg52
S'10.4'
p1562
sg54
S'2.7'
p1563
sg56
S'2003-04'
p1564
sg58
S'5.9'
p1565
sg60
S'2.5'
p1566
sg62
S'.483'
p1567
sg64
S'2577'
p1568
sg66
S'75'
p1569
sba(isrc.gp1.models.Per36Minutes
Per36Minutes
p1570
(dp1571
g8
S'0.6'
p1572
sg10
S'2.1'
p1573
sg12
S'.482'
p1574
sg14
S'6.5'
p1575
sg16
S'.276'
p1576
sg18
S'0.6'
p1577
sg20
S'17.5'
p1578
sg22
S'PG'
p1579
sg24
S'.650'
p1580
sg28
S'NBA'
p1581
sg30
S'1.3'
p1582
sg32
S'14.7'
p1583
sg34
S'2.2'
p1584
sg36
S'4.3'
p1585
sg38
S'3.9'
p1586
sg40
S'22'
p1587
sg42
S'SAS'
p1588
sg44
S'80'
p1589
sg46
S'0.1'
p1590
sg48
S'6.5'
p1591
sg50
S'2.8'
p1592
sg52
S'12.7'
p1593
sg54
S'3.3'
p1594
sg56
S'2004-05'
p1595
sg58
S'7.1'
p1596
sg60
S'2.8'
p1597
sg62
S'.516'
p1598
sg64
S'2735'
p1599
sg66
S'80'
p1600
sba(isrc.gp1.models.Per36Minutes
Per36Minutes
p1601
(dp1602
g8
S'0.5'
p1603
sg10
S'0.5'
p1604
sg12
S'.548'
p1605
sg14
S'6.1'
p1606
sg16
S'.306'
p1607
sg18
S'0.1'
p1608
sg20
S'20.0'
p1609
sg22
S'PG'
p1610
sg24
S'.707'
p1611
sg28
S'NBA'
p1612
sg30
S'1.1'
p1613
sg32
S'15.1'
p1614
sg34
S'2.1'
p1615
sg36
S'4.7'
p1616
sg38
S'3.5'
p1617
sg40
S'23'
p1618
sg42
S'SAS'
p1619
sg44
S'80'
p1620
sg46
S'0.1'
p1621
sg48
S'8.1'
p1622
sg50
S'3.4'
p1623
sg52
S'14.6'
p1624
sg54
S'3.0'
p1625
sg56
S'2005-06'
p1626
sg58
S'8.3'
p1627
sg60
S'3.3'
p1628
sg62
S'.556'
p1629
sg64
S'2715'
p1630
sg66
S'80'
p1631
sba(isrc.gp1.models.Per36Minutes
Per36Minutes
p1632
(dp1633
g8
S'0.5'
p1634
sg10
S'0.5'
p1635
sg12
S'.520'
p1636
sg14
S'6.1'
p1637
sg16
S'.395'
p1638
sg18
S'0.2'
p1639
sg20
S'20.6'
p1640
sg22
S'PG'
p1641
sg24
S'.783'
p1642
sg28
S'NBA'
p1643
sg30
S'1.2'
p1644
sg32
S'15.8'
p1645
sg34
S'2.0'
p1646
sg36
S'5.0'
p1647
sg38
S'3.6'
p1648
sg40
S'24'
p1649
sg42
S'SAS'
p1650
sg44
S'77'
p1651
sg46
S'0.1'
p1652
sg48
S'8.0'
p1653
sg50
S'3.9'
p1654
sg52
S'15.2'
p1655
sg54
S'3.1'
p1656
sg56
S'2006-07'
p1657
sg58
S'8.2'
p1658
sg60
S'2.8'
p1659
sg62
S'.525'
p1660
sg64
S'2499'
p1661
sg66
S'77'
p1662
sba(isrc.gp1.models.Per36Minutes
Per36Minutes
p1663
(dp1664
g8
S'0.5'
p1665
sg10
S'1.0'
p1666
sg12
S'.494'
p1667
sg14
S'6.4'
p1668
sg16
S'.258'
p1669
sg18
S'0.3'
p1670
sg20
S'20.2'
p1671
sg22
S'PG'
p1672
sg24
S'.715'
p1673
sg28
S'NBA'
p1674
sg30
S'0.9'
p1675
sg32
S'16.2'
p1676
sg34
S'1.4'
p1677
sg36
S'5.4'
p1678
sg38
S'3.4'
p1679
sg40
S'25'
p1680
sg42
S'SAS'
p1681
sg44
S'69'
p1682
sg46
S'0.1'
p1683
sg48
S'7.8'
p1684
sg50
S'3.9'
p1685
sg52
S'15.2'
p1686
sg54
S'3.0'
p1687
sg56
S'2007-08'
p1688
sg58
S'8.0'
p1689
sg60
S'2.6'
p1690
sg62
S'.510'
p1691
sg64
S'2312'
p1692
sg66
S'68'
p1693
sba(isrc.gp1.models.Per36Minutes
Per36Minutes
p1694
(dp1695
g8
S'0.4'
p1696
sg10
S'1.0'
p1697
sg12
S'.506'
p1698
sg14
S'7.3'
p1699
sg16
S'.292'
p1700
sg18
S'0.3'
p1701
sg20
S'23.2'
p1702
sg22
S'PG'
p1703
sg24
S'.782'
p1704
sg28
S'NBA'
p1705
sg30
S'1.0'
p1706
sg32
S'18.5'
p1707
sg34
S'1.6'
p1708
sg36
S'5.3'
p1709
sg38
S'3.3'
p1710
sg40
S'26'
p1711
sg42
S'SAS'
p1712
sg44
S'72'
p1713
sg46
S'0.1'
p1714
sg48
S'9.1'
p1715
sg50
S'4.2'
p1716
sg52
S'17.6'
p1717
sg54
S'2.9'
p1718
sg56
S'2008-09'
p1719
sg58
S'9.4'
p1720
sg60
S'2.7'
p1721
sg62
S'.518'
p1722
sg64
S'2456'
p1723
sg66
S'71'
p1724
sba(isrc.gp1.models.Per36Minutes
Per36Minutes
p1725
(dp1726
g8
S'0.1'
p1727
sg10
S'0.7'
p1728
sg12
S'.487'
p1729
sg14
S'6.6'
p1730
sg16
S'.294'
p1731
sg18
S'0.2'
p1732
sg20
S'18.6'
p1733
sg22
S'PG'
p1734
sg24
S'.756'
p1735
sg28
S'NBA'
p1736
sg30
S'0.6'
p1737
sg32
S'14.9'
p1738
sg34
S'2.0'
p1739
sg36
S'5.1'
p1740
sg38
S'2.8'
p1741
sg40
S'27'
p1742
sg42
S'SAS'
p1743
sg44
S'56'
p1744
sg46
S'0.2'
p1745
sg48
S'7.1'
p1746
sg50
S'3.9'
p1747
sg52
S'14.2'
p1748
sg54
S'2.7'
p1749
sg56
S'2009-10'
p1750
sg58
S'7.3'
p1751
sg60
S'3.1'
p1752
sg62
S'.497'
p1753
sg64
S'1728'
p1754
sg66
S'50'
p1755
sba(isrc.gp1.models.Per36Minutes
Per36Minutes
p1756
(dp1757
g8
S'0.4'
p1758
sg10
S'1.0'
p1759
sg12
S'.519'
p1760
sg14
S'7.3'
p1761
sg16
S'.357'
p1762
sg18
S'0.4'
p1763
sg20
S'19.5'
p1764
sg22
S'PG'
p1765
sg24
S'.769'
p1766
sg28
S'NBA'
p1767
sg30
S'1.3'
p1768
sg32
S'15.2'
p1769
sg34
S'1.9'
p1770
sg36
S'4.3'
p1771
sg38
S'3.4'
p1772
sg40
S'28'
p1773
sg42
S'SAS'
p1774
sg44
S'78'
p1775
sg46
S'0.0'
p1776
sg48
S'7.5'
p1777
sg50
S'3.3'
p1778
sg52
S'14.2'
p1779
sg54
S'3.0'
p1780
sg56
S'2010-11'
p1781
sg58
S'7.9'
p1782
sg60
S'2.8'
p1783
sg62
S'.531'
p1784
sg64
S'2528'
p1785
sg66
S'78'
p1786
sba(isrc.gp1.models.Per36Minutes
Per36Minutes
p1787
(dp1788
g8
S'0.4'
p1789
sg10
S'1.1'
p1790
sg12
S'.480'
p1791
sg14
S'8.7'
p1792
sg16
S'.230'
p1793
sg18
S'0.3'
p1794
sg20
S'20.5'
p1795
sg22
S'PG'
p1796
sg24
S'.799'
p1797
sg28
S'NBA'
p1798
sg30
S'1.1'
p1799
sg32
S'16.7'
p1800
sg34
S'1.4'
p1801
sg36
S'5.3'
p1802
sg38
S'3.2'
p1803
sg40
S'29'
p1804
sg42
S'SAS'
p1805
sg44
S'60'
p1806
sg46
S'0.1'
p1807
sg48
S'7.7'
p1808
sg50
S'4.2'
p1809
sg52
S'15.5'
p1810
sg54
S'2.8'
p1811
sg56
S'2011-12'
p1812
sg58
S'8.0'
p1813
sg60
S'2.9'
p1814
sg62
S'.498'
p1815
sg64
S'1923'
p1816
sg66
S'60'
p1817
sba(isrc.gp1.models.Per36Minutes
Per36Minutes
p1818
(dp1819
g8
S'0.3'
p1820
sg10
S'1.1'
p1821
sg12
S'.522'
p1822
sg14
S'8.3'
p1823
sg16
S'.353'
p1824
sg18
S'0.4'
p1825
sg20
S'22.2'
p1826
sg22
S'PG'
p1827
sg24
S'.845'
p1828
sg28
S'NBA'
p1829
sg30
S'0.9'
p1830
sg32
S'16.5'
p1831
sg34
S'1.5'
p1832
sg36
S'5.5'
p1833
sg38
S'3.3'
p1834
sg40
S'30'
p1835
sg42
S'SAS'
p1836
sg44
S'66'
p1837
sg46
S'0.1'
p1838
sg48
S'8.2'
p1839
sg50
S'4.6'
p1840
sg52
S'15.4'
p1841
sg54
S'3.0'
p1842
sg56
S'2012-13'
p1843
sg58
S'8.6'
p1844
sg60
S'2.8'
p1845
sg62
S'.534'
p1846
sg64
S'2174'
p1847
sg66
S'66'
p1848
sba(isrc.gp1.models.Per36Minutes
Per36Minutes
p1849
(dp1850
g8
S'0.3'
p1851
sg10
S'1.2'
p1852
sg12
S'.499'
p1853
sg14
S'7.0'
p1854
sg16
S'.373'
p1855
sg18
S'0.5'
p1856
sg20
S'20.4'
p1857
sg22
S'PG'
p1858
sg24
S'.811'
p1859
sg28
S'NBA'
p1860
sg30
S'0.6'
p1861
sg32
S'16.5'
p1862
sg34
S'1.6'
p1863
sg36
S'4.4'
p1864
sg38
S'2.8'
p1865
sg40
S'31'
p1866
sg42
S'SAS'
p1867
sg44
S'68'
p1868
sg46
S'0.2'
p1869
sg48
S'7.8'
p1870
sg50
S'3.6'
p1871
sg52
S'15.3'
p1872
sg54
S'2.5'
p1873
sg56
S'2013-14'
p1874
sg58
S'8.2'
p1875
sg60
S'2.7'
p1876
sg62
S'.509'
p1877
sg64
S'1997'
p1878
sg66
S'68'
p1879
sba(isrc.gp1.models.Per36Minutes
Per36Minutes
p1880
(dp1881
g8
S'0.3'
p1882
sg10
S'1.6'
p1883
sg12
S'.486'
p1884
sg14
S'6.2'
p1885
sg16
S'.427'
p1886
sg18
S'0.7'
p1887
sg20
S'18.0'
p1888
sg22
S'PG'
p1889
sg24
S'.783'
p1890
sg28
S'NBA'
p1891
sg30
S'0.8'
p1892
sg32
S'15.3'
p1893
sg34
S'2.0'
p1894
sg36
S'3.1'
p1895
sg38
S'2.4'
p1896
sg40
S'32'
p1897
sg42
S'SAS'
p1898
sg44
S'68'
p1899
sg46
S'0.0'
p1900
sg48
S'6.7'
p1901
sg50
S'2.4'
p1902
sg52
S'13.7'
p1903
sg54
S'2.1'
p1904
sg56
S'2014-15'
p1905
sg58
S'7.4'
p1906
sg60
S'2.7'
p1907
sg62
S'.493'
p1908
sg64
S'1953'
p1909
sg66
S'68'
p1910
sba(isrc.gp1.models.Per36Minutes
Per36Minutes
p1911
(dp1912
g8
S'0.4'
p1913
sg10
S'1.1'
p1914
sg12
S'.520'
p1915
sg14
S'6.9'
p1916
sg16
S'.432'
p1917
sg18
S'0.5'
p1918
sg20
S'16.3'
p1919
sg22
S'PG'
p1920
sg24
S'.757'
p1921
sg28
S'NBA'
p1922
sg30
S'1.1'
p1923
sg32
S'13.0'
p1924
sg34
S'2.2'
p1925
sg36
S'3.0'
p1926
sg38
S'3.5'
p1927
sg40
S'33'
p1928
sg42
S'SAS'
p1929
sg44
S'46'
p1930
sg46
S'0.2'
p1931
sg48
S'6.3'
p1932
sg50
S'2.3'
p1933
sg52
S'11.9'
p1934
sg54
S'3.1'
p1935
sg56
S'2015-16'
p1936
sg58
S'6.8'
p1937
sg60
S'2.3'
p1938
sg62
S'.528'
p1939
sg64
S'1229'
p1940
sg66
S'46'
p1941
sbasS'_fromYear'
p1942
S'2002'
p1943
sS'_url'
p1944
S'http://www.basketball-reference.com/players/p/parketo01.html'
p1945
sS'_perGame'
p1946
(isrc.gp1.models.PerGame
PerGame
p1947
(dp1948
g8
S'0.3'
p1949
sg10
S'0.8'
p1950
sg12
S'.520'
p1951
sS'_effectiveFieldGalPercentage'
p1952
S'.538'
p1953
sg14
S'5.1'
p1954
sg16
S'.432'
p1955
sg18
S'0.3'
p1956
sg20
S'12.1'
p1957
sg22
S'PG'
p1958
sg24
S'.757'
p1959
sg28
S'NBA'
p1960
sg30
S'0.8'
p1961
sg34
S'1.6'
p1962
sS'_fieldGoalsttempted'
p1963
S'9.7'
p1964
sg36
S'2.2'
p1965
sg38
S'2.6'
p1966
sg40
S'33'
p1967
sg42
S'SAS'
p1968
sg44
S'46'
p1969
sg46
S'0.2'
p1970
sg48
S'4.7'
p1971
sg50
S'1.7'
p1972
sg52
S'8.8'
p1973
sg54
S'2.3'
p1974
sg56
S'2015-16'
p1975
sg58
S'5.0'
p1976
sg60
S'1.7'
p1977
sg62
S'.528'
p1978
sg64
S'26.7'
p1979
sg66
S'46'
p1980
sbsS'_weight'
p1981
S'185'
p1982
sS'_dob'
p1983
S'17-5-1982'
p1984
sS'_salary'
p1985
(lp1986
(isrc.gp1.models.Salary
Salary
p1987
(dp1988
g42
S'San Antonio Spurs'
p1989
sg28
S'NBA'
p1990
sg1985
S'$744,480'
p1991
sg56
S'2001-02'
p1992
sba(isrc.gp1.models.Salary
Salary
p1993
(dp1994
g42
S'San Antonio Spurs'
p1995
sg28
S'NBA'
p1996
sg1985
S'$800,400'
p1997
sg56
S'2002-03'
p1998
sba(isrc.gp1.models.Salary
Salary
p1999
(dp2000
g42
S'San Antonio Spurs'
p2001
sg28
S'NBA'
p2002
sg1985
S'$856,200'
p2003
sg56
S'2003-04'
p2004
sba(isrc.gp1.models.Salary
Salary
p2005
(dp2006
g42
S'San Antonio Spurs'
p2007
sg28
S'NBA'
p2008
sg1985
S'$1,545,441'
p2009
sg56
S'2004-05'
p2010
sba(isrc.gp1.models.Salary
Salary
p2011
(dp2012
g42
S'San Antonio Spurs'
p2013
sg28
S'NBA'
p2014
sg1985
S'$8,400,000'
p2015
sg56
S'2005-06'
p2016
sba(isrc.gp1.models.Salary
Salary
p2017
(dp2018
g42
S'San Antonio Spurs'
p2019
sg28
S'NBA'
p2020
sg1985
S'$9,450,000'
p2021
sg56
S'2006-07'
p2022
sba(isrc.gp1.models.Salary
Salary
p2023
(dp2024
g42
S'San Antonio Spurs'
p2025
sg28
S'NBA'
p2026
sg1985
S'$10,500,000'
p2027
sg56
S'2007-08'
p2028
sba(isrc.gp1.models.Salary
Salary
p2029
(dp2030
g42
S'San Antonio Spurs'
p2031
sg28
S'NBA'
p2032
sg1985
S'$11,550,000'
p2033
sg56
S'2008-09'
p2034
sba(isrc.gp1.models.Salary
Salary
p2035
(dp2036
g42
S'San Antonio Spurs'
p2037
sg28
S'NBA'
p2038
sg1985
S'$12,600,000'
p2039
sg56
S'2009-10'
p2040
sba(isrc.gp1.models.Salary
Salary
p2041
(dp2042
g42
S'San Antonio Spurs'
p2043
sg28
S'NBA'
p2044
sg1985
S'$13,500,000'
p2045
sg56
S'2010-11'
p2046
sba(isrc.gp1.models.Salary
Salary
p2047
(dp2048
g42
S'San Antonio Spurs'
p2049
sg28
S'NBA'
p2050
sg1985
S'$12,500,000'
p2051
sg56
S'2011-12'
p2052
sba(isrc.gp1.models.Salary
Salary
p2053
(dp2054
g42
S'San Antonio Spurs'
p2055
sg28
S'NBA'
p2056
sg1985
S'$12,500,000'
p2057
sg56
S'2012-13'
p2058
sba(isrc.gp1.models.Salary
Salary
p2059
(dp2060
g42
S'San Antonio Spurs'
p2061
sg28
S'NBA'
p2062
sg1985
S'$12,500,000'
p2063
sg56
S'2013-14'
p2064
sba(isrc.gp1.models.Salary
Salary
p2065
(dp2066
g42
S'San Antonio Spurs'
p2067
sg28
S'NBA'
p2068
sg1985
S'$12,500,000'
p2069
sg56
S'2014-15'
p2070
sbasg22
S'G'
p2071
sb.