(isrc.gp1.models.Player
Player
p0
(dp1
S'_experience'
p2
S'NA'
p3
sS'_totals'
p4
(lp5
(isrc.gp1.models.Totals
Totals
p6
(dp7
S'_offensiveRebounds'
p8
g3
sS'_threePointsAttempted'
p9
g3
sS'_fieldGoalsPercentage'
p10
S'.311'
p11
sS'_assist'
p12
S'28'
p13
sS'_threePointsPercentage'
p14
g3
sS'_threePoints'
p15
g3
sS'_points'
p16
S'70'
p17
sS'_position'
p18
S'SG'
p19
sS'_freeThrowsPercentage'
p20
S'.824'
p21
sS'_effectiveFieldGoalPercentage'
p22
S'.311'
p23
sS'_league'
p24
S'NBA'
p25
sS'_steals'
p26
g3
sS'_fieldGoalsAttempted'
p27
S'90'
p28
sS'_personalFouls'
p29
S'20'
p30
sS'_freeThrowsAttempted'
p31
S'17'
p32
sS'_totalRebounds'
p33
S'31'
p34
sS'_age'
p35
S'26'
p36
sS'_team'
p37
S'PHW'
p38
sS'_games'
p39
S'28'
p40
sS'_blocks'
p41
g3
sS'_twoPoints'
p42
S'28'
p43
sS'_freeThrows'
p44
S'14'
p45
sS'_twoPointsAttempted'
p46
S'90'
p47
sS'_defensiveRebounds'
p48
g3
sS'_season'
p49
S'1957-58'
p50
sS'_fieldGoals'
p51
S'28'
p52
sS'_turnOvers'
p53
g3
sS'_twoPointsPercentage'
p54
S'.311'
p55
sS'_minutesPlayed'
p56
S'206'
p57
sS'_gamesStarted'
p58
g3
sbasS'_college'
p59
S'Utah State University'
p60
sS'_toYear'
p61
S'1958'
p62
sS'_height'
p63
S'6-2'
p64
sS'_active'
p65
I00
sS'_shootingHand'
p66
VRight
p67
sS'_name'
p68
S'Pat Dunn'
p69
sS'_per100Possessions'
p70
(lp71
sS'_advanced'
p72
(lp73
(isrc.gp1.models.Advanced
Advanced
p74
(dp75
S'_offensiveReboundPercentage'
p76
g3
sS'_turnOverPercentage'
p77
g3
sS'_winSharesPer48Minutes'
p78
S'-0.013'
p79
sS'_stealPercentage'
p80
g3
sS'_usagePercentage'
p81
g3
sS'_totalReboundsPercentage'
p82
g3
sS'_defensiveBoxPlusMinus'
p83
g3
sg18
S'SG'
p84
sS'_valueOverReplacementPlayer'
p85
g3
sS'_trueShootingPercentage'
p86
S'.359'
p87
sS'_defensiveReboundPercentage'
p88
g3
sS'_freeThrowsAttempRate'
p89
S'.189'
p90
sS'_threePointsAttempRate'
p91
g3
sg24
S'NBA'
p92
sS'_offensiveBoxPlusMinues'
p93
g3
sS'_assistPercentage'
p94
g3
sS'_defensiveWinShares'
p95
S'0.2'
p96
sg35
S'26'
p97
sg37
S'PHW'
p98
sg39
S'28'
p99
sS'_blockPercentage'
p100
g3
sS'_playerEfficiencyRating'
p101
S'9.4'
p102
sS'_offensiveWinShares'
p103
S'-0.3'
p104
sg56
S'206'
p105
sS'_boxPlusMinus'
p106
g3
sg49
S'1957-58'
p107
sS'_winShares'
p108
S'-0.1'
p109
sbasS'_per36Minutes'
p110
(lp111
(isrc.gp1.models.Per36Minutes
Per36Minutes
p112
(dp113
g8
g3
sg9
g3
sg10
S'.311'
p114
sg12
S'4.9'
p115
sg14
g3
sg15
g3
sg16
S'12.2'
p116
sg18
S'SG'
p117
sg20
S'.824'
p118
sg24
S'NBA'
p119
sg26
g3
sg27
S'15.7'
p120
sg29
S'3.5'
p121
sg31
S'3.0'
p122
sg33
S'5.4'
p123
sg35
S'26'
p124
sg37
S'PHW'
p125
sg39
S'28'
p126
sg41
g3
sg42
S'4.9'
p127
sg44
S'2.4'
p128
sg46
S'15.7'
p129
sg48
g3
sg49
S'1957-58'
p130
sg51
S'4.9'
p131
sg53
g3
sg54
S'.311'
p132
sg56
S'206'
p133
sg58
g3
sbasS'_fromYear'
p134
S'1958'
p135
sS'_url'
p136
S'http://www.basketball-reference.com/players/d/dunnpa01.html'
p137
sS'_perGame'
p138
(isrc.gp1.models.PerGame
PerGame
p139
(dp140
g8
g3
sg9
g3
sg10
S'.311'
p141
sS'_effectiveFieldGalPercentage'
p142
S'.311'
p143
sg12
S'1.0'
p144
sg14
g3
sg15
g3
sg16
S'2.5'
p145
sg18
S'SG'
p146
sg20
S'.824'
p147
sg24
S'NBA'
p148
sg26
g3
sg29
S'0.7'
p149
sS'_fieldGoalsttempted'
p150
S'3.2'
p151
sg31
S'0.6'
p152
sg33
S'1.1'
p153
sg35
S'26'
p154
sg37
S'PHW'
p155
sg39
S'28'
p156
sg41
g3
sg42
S'1.0'
p157
sg44
S'0.5'
p158
sg46
S'3.2'
p159
sg48
g3
sg49
S'1957-58'
p160
sg51
S'1.0'
p161
sg53
g3
sg54
S'.311'
p162
sg56
S'7.4'
p163
sg58
g3
sbsS'_weight'
p164
S'170'
p165
sS'_dob'
p166
S'17-3-1931'
p167
sS'_salary'
p168
(lp169
sg18
S'G'
p170
sb.