(isrc.gp1.models.Player
Player
p0
(dp1
S'_experience'
p2
S'NA'
p3
sS'_totals'
p4
(lp5
(isrc.gp1.models.Totals
Totals
p6
(dp7
S'_offensiveRebounds'
p8
S'1'
p9
sS'_threePointsAttempted'
p10
S'0'
p11
sS'_fieldGoalsPercentage'
p12
S'.400'
p13
sS'_assist'
p14
g9
sS'_threePointsPercentage'
p15
g3
sS'_threePoints'
p16
g11
sS'_points'
p17
S'5'
p18
sS'_position'
p19
S'SF'
p20
sS'_freeThrowsPercentage'
p21
S'.500'
p22
sS'_effectiveFieldGoalPercentage'
p23
S'.400'
p24
sS'_league'
p25
S'NBA'
p26
sS'_steals'
p27
g11
sS'_fieldGoalsAttempted'
p28
g18
sS'_personalFouls'
p29
S'3'
p30
sS'_freeThrowsAttempted'
p31
S'2'
p32
sS'_totalRebounds'
p33
g32
sS'_age'
p34
S'26'
p35
sS'_team'
p36
S'LAL'
p37
sS'_games'
p38
g30
sS'_blocks'
p39
g11
sS'_twoPoints'
p40
g32
sS'_freeThrows'
p41
g9
sS'_twoPointsAttempted'
p42
g18
sS'_defensiveRebounds'
p43
g9
sS'_season'
p44
S'1980-81'
p45
sS'_fieldGoals'
p46
g32
sS'_turnOvers'
p47
g9
sS'_twoPointsPercentage'
p48
S'.400'
p49
sS'_minutesPlayed'
p50
S'9'
p51
sS'_gamesStarted'
p52
g3
sbasS'_college'
p53
S'Auburn University'
p54
sS'_toYear'
p55
S'1981'
p56
sS'_height'
p57
S'6-8'
p58
sS'_active'
p59
I00
sS'_shootingHand'
p60
VRight
p61
sS'_name'
p62
S'Myles Patrick'
p63
sS'_per100Possessions'
p64
(lp65
(isrc.gp1.models.Per100Possession
Per100Possession
p66
(dp67
g8
S'5.2'
p68
sg10
S'0.0'
p69
sg12
S'.400'
p70
sS'_offensiveRating'
p71
S'90'
p72
sg14
S'5.2'
p73
sg15
g3
sg16
S'0.0'
p74
sg17
S'26.0'
p75
sg19
S'SF'
p76
sS'_defensiveRating'
p77
S'109'
p78
sg21
S'.500'
p79
sg25
S'NBA'
p80
sg27
S'0.0'
p81
sg28
S'26.0'
p82
sg29
S'15.6'
p83
sg31
S'10.4'
p84
sg33
S'10.4'
p85
sg34
S'26'
p86
sg36
S'LAL'
p87
sg38
g30
sg39
S'0.0'
p88
sg40
S'10.4'
p89
sg41
S'5.2'
p90
sg42
S'26.0'
p91
sg43
S'5.2'
p92
sg44
S'1980-81'
p93
sg46
S'10.4'
p94
sg47
S'5.2'
p95
sg48
S'.400'
p96
sg50
g51
sg52
g3
sbasS'_advanced'
p97
(lp98
(isrc.gp1.models.Advanced
Advanced
p99
(dp100
S'_offensiveReboundPercentage'
p101
S'12.8'
p102
sS'_turnOverPercentage'
p103
S'14.5'
p104
sS'_winSharesPer48Minutes'
p105
S'-0.036'
p106
sS'_stealPercentage'
p107
S'0.0'
p108
sS'_usagePercentage'
p109
S'30.7'
p110
sS'_totalReboundsPercentage'
p111
S'12.0'
p112
sS'_defensiveBoxPlusMinus'
p113
S'-4.8'
p114
sg19
S'SF'
p115
sS'_valueOverReplacementPlayer'
p116
S'0.0'
p117
sS'_trueShootingPercentage'
p118
S'.425'
p119
sS'_defensiveReboundPercentage'
p120
S'11.4'
p121
sS'_freeThrowsAttempRate'
p122
S'.400'
p123
sS'_threePointsAttempRate'
p124
S'.000'
p125
sg25
S'NBA'
p126
sS'_offensiveBoxPlusMinues'
p127
S'-4.2'
p128
sS'_assistPercentage'
p129
S'15.2'
p130
sS'_defensiveWinShares'
p131
S'0.0'
p132
sg34
S'26'
p133
sg36
S'LAL'
p134
sg38
g30
sS'_blockPercentage'
p135
S'0.0'
p136
sS'_playerEfficiencyRating'
p137
S'6.9'
p138
sS'_offensiveWinShares'
p139
S'0.0'
p140
sg50
g51
sS'_boxPlusMinus'
p141
S'-9.0'
p142
sg44
S'1980-81'
p143
sS'_winShares'
p144
S'0.0'
p145
sbasS'_per36Minutes'
p146
(lp147
(isrc.gp1.models.Per36Minutes
Per36Minutes
p148
(dp149
g8
S'4.0'
p150
sg10
S'0.0'
p151
sg12
S'.400'
p152
sg14
S'4.0'
p153
sg15
g3
sg16
S'0.0'
p154
sg17
S'20.0'
p155
sg19
S'SF'
p156
sg21
S'.500'
p157
sg25
S'NBA'
p158
sg27
S'0.0'
p159
sg28
S'20.0'
p160
sg29
S'12.0'
p161
sg31
S'8.0'
p162
sg33
S'8.0'
p163
sg34
S'26'
p164
sg36
S'LAL'
p165
sg38
g30
sg39
S'0.0'
p166
sg40
S'8.0'
p167
sg41
S'4.0'
p168
sg42
S'20.0'
p169
sg43
S'4.0'
p170
sg44
S'1980-81'
p171
sg46
S'8.0'
p172
sg47
S'4.0'
p173
sg48
S'.400'
p174
sg50
g51
sg52
g3
sbasS'_fromYear'
p175
S'1981'
p176
sS'_url'
p177
S'http://www.basketball-reference.com/players/p/patrimy01.html'
p178
sS'_perGame'
p179
(isrc.gp1.models.PerGame
PerGame
p180
(dp181
g8
S'0.3'
p182
sg10
S'0.0'
p183
sg12
S'.400'
p184
sS'_effectiveFieldGalPercentage'
p185
S'.400'
p186
sg14
S'0.3'
p187
sg15
g3
sg16
S'0.0'
p188
sg17
S'1.7'
p189
sg19
S'SF'
p190
sg21
S'.500'
p191
sg25
S'NBA'
p192
sg27
S'0.0'
p193
sg29
S'1.0'
p194
sS'_fieldGoalsttempted'
p195
S'1.7'
p196
sg31
S'0.7'
p197
sg33
S'0.7'
p198
sg34
S'26'
p199
sg36
S'LAL'
p200
sg38
g30
sg39
S'0.0'
p201
sg40
S'0.7'
p202
sg41
S'0.3'
p203
sg42
S'1.7'
p204
sg43
S'0.3'
p205
sg44
S'1980-81'
p206
sg46
S'0.7'
p207
sg47
S'0.3'
p208
sg48
S'.400'
p209
sg50
S'3.0'
p210
sg52
g3
sbsS'_weight'
p211
S'220'
p212
sS'_dob'
p213
S'19-11-1954'
p214
sS'_salary'
p215
(lp216
sg19
S'F'
p217
sb.