(isrc.gp1.models.Player
Player
p0
(dp1
S'_experience'
p2
V4
p3
sS'_totals'
p4
(lp5
(isrc.gp1.models.Totals
Totals
p6
(dp7
S'_offensiveRebounds'
p8
S'14'
p9
sS'_threePointsAttempted'
p10
S'0'
p11
sS'_fieldGoalsPercentage'
p12
S'.313'
p13
sS'_assist'
p14
S'6'
p15
sS'_threePointsPercentage'
p16
S'10'
p17
sS'_threePoints'
p18
g11
sS'_points'
p19
S'NA'
p20
sS'_position'
p21
S'C'
p22
sS'_freeThrowsPercentage'
p23
S'7'
p24
sS'_effectiveFieldGoalPercentage'
p25
S'11'
p26
sS'_league'
p27
S'NBA'
p28
sS'_steals'
p29
S'8'
p30
sS'_fieldGoalsAttempted'
p31
S'32'
p32
sS'_personalFouls'
p33
S'31'
p34
sS'_freeThrowsAttempted'
p35
S'.647'
p36
sS'_totalRebounds'
p37
S'9'
p38
sS'_age'
p39
S'20'
p40
sS'_team'
p41
S'GSW'
p42
sS'_games'
p43
S'16'
p44
sS'_blocks'
p45
g30
sS'_twoPoints'
p46
S'32'
p47
sS'_freeThrows'
p48
S'17'
p49
sS'_twoPointsAttempted'
p50
S'.313'
p51
sS'_defensiveRebounds'
p52
S'21'
p53
sS'_season'
p54
S'2006-07'
p55
sS'_fieldGoals'
p56
S'10'
p57
sS'_turnOvers'
p58
S'26'
p59
sS'_twoPointsPercentage'
p60
S'.313'
p61
sS'_minutesPlayed'
p62
S'119'
p63
sS'_gamesStarted'
p64
g11
sba(isrc.gp1.models.Totals
Totals
p65
(dp66
g8
S'19'
p67
sg10
g11
sg12
S'.552'
p68
sg14
S'4'
p69
sg16
S'16'
p70
sg18
g11
sg19
g20
sg21
g22
sg23
S'10'
p71
sg25
S'3'
p72
sg27
S'NBA'
p73
sg29
g38
sg31
S'29'
p74
sg33
S'35'
p75
sg35
S'.600'
p76
sg37
g69
sg39
S'21'
p77
sg41
S'GSW'
p78
sg43
S'24'
p79
sg45
g24
sg46
S'29'
p80
sg48
S'5'
p81
sg50
S'.552'
p82
sg52
S'29'
p83
sg54
S'2007-08'
p84
sg56
S'16'
p85
sg58
S'27'
p86
sg60
S'.552'
p87
sg62
S'99'
p88
sg64
g11
sba(isrc.gp1.models.Totals
Totals
p89
(dp90
g8
S'13'
p91
sg10
S'2'
p92
sg12
S'.536'
p93
sg14
S'11'
p94
sg16
S'.000'
p95
sg18
g11
sg19
S'101'
p96
sg21
g22
sg23
S'.550'
p97
sg25
S'.536'
p98
sg27
S'NBA'
p99
sg29
g15
sg31
S'84'
p100
sg33
S'61'
p101
sg35
S'20'
p102
sg37
S'66'
p103
sg39
S'22'
p104
sg41
S'TOT'
p105
sg43
S'39'
p106
sg45
S'19'
p107
sg46
S'45'
p108
sg48
S'11'
p109
sg50
S'82'
p110
sg52
S'53'
p111
sg54
S'2008-09'
p112
sg56
S'45'
p113
sg58
S'22'
p114
sg60
S'.549'
p115
sg62
S'255'
p116
sg64
g72
sba(isrc.gp1.models.Totals
Totals
p117
(dp118
g8
S'27'
p119
sg10
g11
sg12
S'.516'
p120
sg14
g72
sg16
S'16'
p121
sg18
g11
sg19
g20
sg21
g22
sg23
g24
sg25
g30
sg27
S'NBA'
p122
sg29
g30
sg31
S'31'
p123
sg33
S'40'
p124
sg35
S'.667'
p125
sg37
g30
sg39
S'22'
p126
sg41
S'BOS'
p127
sg43
S'26'
p128
sg45
S'17'
p129
sg46
S'31'
p130
sg48
S'12'
p131
sg50
S'.516'
p132
sg52
S'34'
p133
sg54
S'2008-09'
p134
sg56
S'16'
p135
sg58
S'29'
p136
sg60
S'.516'
p137
sg62
S'108'
p138
sg64
g11
sba(isrc.gp1.models.Totals
Totals
p139
(dp140
g8
g15
sg10
g92
sg12
S'.547'
p141
sg14
g72
sg16
S'.000'
p142
sg18
g11
sg19
S'61'
p143
sg21
g22
sg23
S'.375'
p144
sg25
S'.547'
p145
sg27
S'NBA'
p146
sg29
g72
sg31
S'53'
p147
sg33
S'32'
p148
sg35
g30
sg37
S'32'
p149
sg39
S'22'
p150
sg41
S'TOR'
p151
sg43
S'13'
p152
sg45
S'11'
p153
sg46
S'29'
p154
sg48
g72
sg50
S'51'
p155
sg52
S'26'
p156
sg54
S'2008-09'
p157
sg56
S'29'
p158
sg58
g81
sg60
S'.569'
p159
sg62
S'147'
p160
sg64
g72
sba(isrc.gp1.models.Totals
Totals
p161
(dp162
g8
g92
sg10
S'1'
p163
sg12
S'.533'
p164
sg14
g163
sg16
S'.000'
p165
sg18
g11
sg19
S'19'
p166
sg21
g22
sg23
S'.500'
p167
sg25
S'.533'
p168
sg27
S'NBA'
p169
sg29
g92
sg31
S'15'
p170
sg33
S'12'
p171
sg35
g15
sg37
S'11'
p172
sg39
S'23'
p173
sg41
S'TOR'
p174
sg43
S'11'
p175
sg45
g69
sg46
g30
sg48
g72
sg50
S'14'
p176
sg52
g38
sg54
S'2009-10'
p177
sg56
g30
sg58
g81
sg60
S'.571'
p178
sg62
S'51'
p179
sg64
g11
sbasS'_college'
p180
S'Bradley University'
p181
sS'_toYear'
p182
S'2010'
p183
sS'_height'
p184
S'7-0'
p185
sS'_active'
p186
I01
sS'_shootingHand'
p187
VRight
p188
sS'_name'
p189
S"Patrick O'Bryant"
p190
sS'_per100Possessions'
p191
(lp192
(isrc.gp1.models.Per100Possession
Per100Possession
p193
(dp194
g8
S'5.7'
p195
sg10
S'0.0'
p196
sg12
S'.313'
p197
sS'_offensiveRating'
p198
S'104'
p199
sg14
S'2.4'
p200
sg16
S'4.1'
p201
sg18
S'0.0'
p202
sg19
S'85'
p203
sg21
g22
sS'_defensiveRating'
p204
g20
sg23
S'2.8'
p205
sg27
S'NBA'
p206
sg29
S'3.3'
p207
sg31
S'13.0'
p208
sg33
S'12.6'
p209
sg35
S'.647'
p210
sg37
S'3.7'
p211
sg39
S'20'
p212
sg41
S'GSW'
p213
sg43
S'16'
p214
sg45
S'3.3'
p215
sg46
S'13.0'
p216
sg48
S'6.9'
p217
sg50
S'.313'
p218
sg52
S'8.5'
p219
sg54
S'2006-07'
p220
sg56
S'4.1'
p221
sg58
S'10.6'
p222
sg60
S'4.5'
p223
sg62
S'119'
p224
sg64
g11
sba(isrc.gp1.models.Per100Possession
Per100Possession
p225
(dp226
g8
S'9.3'
p227
sg10
S'0.0'
p228
sg12
S'.552'
p229
sg198
S'103'
p230
sg14
S'2.0'
p231
sg16
S'7.8'
p232
sg18
S'0.0'
p233
sg19
S'105'
p234
sg21
g22
sg204
g20
sg23
S'4.9'
p235
sg27
S'NBA'
p236
sg29
S'4.4'
p237
sg31
S'14.2'
p238
sg33
S'17.2'
p239
sg35
S'.600'
p240
sg37
S'2.0'
p241
sg39
S'21'
p242
sg41
S'GSW'
p243
sg43
S'24'
p244
sg45
S'3.4'
p245
sg46
S'14.2'
p246
sg48
S'2.5'
p247
sg50
S'.552'
p248
sg52
S'14.2'
p249
sg54
S'2007-08'
p250
sg56
S'7.8'
p251
sg58
S'13.2'
p252
sg60
S'1.5'
p253
sg62
S'99'
p254
sg64
g11
sba(isrc.gp1.models.Per100Possession
Per100Possession
p255
(dp256
g8
S'2.7'
p257
sg10
S'0.4'
p258
sg12
S'.536'
p259
sg198
S'94'
p260
sg14
S'2.3'
p261
sg16
S'.000'
p262
sg18
S'0.0'
p263
sg19
S'20.8'
p264
sg21
g22
sg204
S'101'
p265
sg23
S'.550'
p266
sg27
S'NBA'
p267
sg29
S'1.2'
p268
sg31
S'17.3'
p269
sg33
S'12.6'
p270
sg35
S'4.1'
p271
sg37
S'13.6'
p272
sg39
S'22'
p273
sg41
S'TOT'
p274
sg43
S'39'
p275
sg45
S'3.9'
p276
sg46
S'9.3'
p277
sg48
S'2.3'
p278
sg50
S'16.9'
p279
sg52
S'10.9'
p280
sg54
S'2008-09'
p281
sg56
S'9.3'
p282
sg58
S'4.5'
p283
sg60
S'.549'
p284
sg62
S'255'
p285
sg64
g72
sba(isrc.gp1.models.Per100Possession
Per100Possession
p286
(dp287
g8
S'13.3'
p288
sg10
S'0.0'
p289
sg12
S'.516'
p290
sg198
S'95'
p291
sg14
S'1.5'
p292
sg16
S'7.9'
p293
sg18
S'0.0'
p294
sg19
S'85'
p295
sg21
g22
sg204
g20
sg23
S'3.4'
p296
sg27
S'NBA'
p297
sg29
S'3.9'
p298
sg31
S'15.2'
p299
sg33
S'19.7'
p300
sg35
S'.667'
p301
sg37
S'3.9'
p302
sg39
S'22'
p303
sg41
S'BOS'
p304
sg43
S'26'
p305
sg45
S'8.4'
p306
sg46
S'15.2'
p307
sg48
S'5.9'
p308
sg50
S'.516'
p309
sg52
S'16.7'
p310
sg54
S'2008-09'
p311
sg56
S'7.9'
p312
sg58
S'14.3'
p313
sg60
S'3.9'
p314
sg62
S'108'
p315
sg64
g11
sba(isrc.gp1.models.Per100Possession
Per100Possession
p316
(dp317
g8
S'2.1'
p318
sg10
S'0.7'
p319
sg12
S'.547'
p320
sg198
S'102'
p321
sg14
S'1.1'
p322
sg16
S'.000'
p323
sg18
S'0.0'
p324
sg19
S'21.7'
p325
sg21
g22
sg204
S'106'
p326
sg23
S'.375'
p327
sg27
S'NBA'
p328
sg29
S'1.1'
p329
sg31
S'18.8'
p330
sg33
S'11.4'
p331
sg35
S'2.8'
p332
sg37
S'11.4'
p333
sg39
S'22'
p334
sg41
S'TOR'
p335
sg43
S'13'
p336
sg45
S'3.9'
p337
sg46
S'10.3'
p338
sg48
S'1.1'
p339
sg50
S'18.1'
p340
sg52
S'9.2'
p341
sg54
S'2008-09'
p342
sg56
S'10.3'
p343
sg58
S'1.8'
p344
sg60
S'.569'
p345
sg62
S'147'
p346
sg64
g72
sba(isrc.gp1.models.Per100Possession
Per100Possession
p347
(dp348
g8
S'2.0'
p349
sg10
S'1.0'
p350
sg12
S'.533'
p351
sg198
S'87'
p352
sg14
S'1.0'
p353
sg16
S'.000'
p354
sg18
S'0.0'
p355
sg19
S'19.2'
p356
sg21
g22
sg204
S'106'
p357
sg23
S'.500'
p358
sg27
S'NBA'
p359
sg29
S'2.0'
p360
sg31
S'15.2'
p361
sg33
S'12.1'
p362
sg35
S'6.1'
p363
sg37
S'11.1'
p364
sg39
S'23'
p365
sg41
S'TOR'
p366
sg43
S'11'
p367
sg45
S'4.0'
p368
sg46
S'8.1'
p369
sg48
S'3.0'
p370
sg50
S'14.2'
p371
sg52
S'9.1'
p372
sg54
S'2009-10'
p373
sg56
S'8.1'
p374
sg58
S'5.1'
p375
sg60
S'.571'
p376
sg62
S'51'
p377
sg64
g11
sbasS'_advanced'
p378
(lp379
(isrc.gp1.models.Advanced
Advanced
p380
(dp381
S'_offensiveReboundPercentage'
p382
S'6.3'
p383
sS'_turnOverPercentage'
p384
S'16.8'
p385
sS'_winSharesPer48Minutes'
p386
S'-0.003'
p387
sS'_stealPercentage'
p388
S'2.4'
p389
sS'_usagePercentage'
p390
S'17.0'
p391
sS'_totalReboundsPercentage'
p392
S'9.7'
p393
sS'_defensiveBoxPlusMinus'
p394
S'2.5'
p395
sg21
g22
sS'_valueOverReplacementPlayer'
p396
S'-0.1'
p397
sS'_trueShootingPercentage'
p398
S'.393'
p399
sS'_defensiveReboundPercentage'
p400
S'13.2'
p401
sS'_freeThrowsAttempRate'
p402
S'.531'
p403
sS'_threePointsAttempRate'
p404
S'.000'
p405
sg27
S'NBA'
p406
sS'_offensiveBoxPlusMinues'
p407
S'-6.6'
p408
sS'_assistPercentage'
p409
S'10.2'
p410
sS'_defensiveWinShares'
p411
S'0.2'
p412
sg39
S'20'
p413
sg41
S'GSW'
p414
sg43
S'16'
p415
sS'_blockPercentage'
p416
S'5.1'
p417
sS'_playerEfficiencyRating'
p418
S'7.3'
p419
sS'_offensiveWinShares'
p420
S'-0.2'
p421
sg62
S'119'
p422
sS'_boxPlusMinus'
p423
S'-4.1'
p424
sg54
S'2006-07'
p425
sS'_winShares'
p426
S'0.0'
p427
sba(isrc.gp1.models.Advanced
Advanced
p428
(dp429
g382
S'10.4'
p430
sg384
S'18.3'
p431
sg386
S'.105'
p432
sg388
S'2.0'
p433
sg390
S'16.3'
p434
sg392
S'15.7'
p435
sg394
S'2.6'
p436
sg21
g22
sg396
S'0.0'
p437
sg398
S'.561'
p438
sg400
S'21.4'
p439
sg402
S'.172'
p440
sg404
S'.000'
p441
sg27
S'NBA'
p442
sg407
S'-3.5'
p443
sg409
S'5.8'
p444
sg411
S'0.2'
p445
sg39
S'21'
p446
sg41
S'GSW'
p447
sg43
S'24'
p448
sg416
S'6.6'
p449
sg418
S'14.0'
p450
sg420
S'0.1'
p451
sg62
S'99'
p452
sg423
S'-1.0'
p453
sg54
S'2007-08'
p454
sg426
S'0.2'
p455
sba(isrc.gp1.models.Advanced
Advanced
p456
(dp457
g382
S'6.3'
p458
sg384
S'19.2'
p459
sg386
S'.056'
p460
sg388
S'1.2'
p461
sg390
S'20.9'
p462
sg392
S'15.5'
p463
sg394
S'2.2'
p464
sg21
g22
sg396
S'-0.1'
p465
sg398
S'.544'
p466
sg400
S'24.2'
p467
sg402
S'.238'
p468
sg404
S'.024'
p469
sg27
S'NBA'
p470
sg407
S'-5.3'
p471
sg409
S'7.1'
p472
sg411
S'0.5'
p473
sg39
S'22'
p474
sg41
S'TOT'
p475
sg43
S'39'
p476
sg416
S'5.9'
p477
sg418
S'11.8'
p478
sg420
S'-0.2'
p479
sg62
S'255'
p480
sg423
S'-3.1'
p481
sg54
S'2008-09'
p482
sg426
S'0.3'
p483
sba(isrc.gp1.models.Advanced
Advanced
p484
(dp485
g382
S'8.3'
p486
sg384
S'31.9'
p487
sg386
S'.025'
p488
sg388
S'1.5'
p489
sg390
S'23.0'
p490
sg392
S'19.1'
p491
sg394
S'4.3'
p492
sg21
g22
sg396
S'0.0'
p493
sg398
S'.551'
p494
sg400
S'29.1'
p495
sg402
S'.387'
p496
sg404
S'.000'
p497
sg27
S'NBA'
p498
sg407
S'-7.4'
p499
sg409
S'11.8'
p500
sg411
S'0.3'
p501
sg39
S'22'
p502
sg41
S'BOS'
p503
sg43
S'26'
p504
sg416
S'5.9'
p505
sg418
S'9.5'
p506
sg420
S'-0.2'
p507
sg62
S'108'
p508
sg423
S'-3.0'
p509
sg54
S'2008-09'
p510
sg426
S'0.1'
p511
sba(isrc.gp1.models.Advanced
Advanced
p512
(dp513
g382
S'4.8'
p514
sg384
S'8.1'
p515
sg386
S'.079'
p516
sg388
S'1.1'
p517
sg390
S'19.3'
p518
sg392
S'12.8'
p519
sg394
S'0.7'
p520
sg21
g22
sg396
S'0.0'
p521
sg398
S'.540'
p522
sg400
S'20.6'
p523
sg402
S'.151'
p524
sg404
S'.038'
p525
sg27
S'NBA'
p526
sg407
S'-3.9'
p527
sg409
S'3.6'
p528
sg411
S'0.2'
p529
sg39
S'22'
p530
sg41
S'TOR'
p531
sg43
S'13'
p532
sg416
S'5.8'
p533
sg418
S'13.5'
p534
sg420
S'0.0'
p535
sg62
S'147'
p536
sg423
S'-3.2'
p537
sg54
S'2008-09'
p538
sg426
S'0.2'
p539
sba(isrc.gp1.models.Advanced
Advanced
p540
(dp541
g382
S'4.8'
p542
sg384
S'22.1'
p543
sg386
S'-0.009'
p544
sg388
S'2.0'
p545
sg390
S'20.3'
p546
sg392
S'12.7'
p547
sg394
S'0.8'
p548
sg21
g22
sg396
S'0.0'
p549
sg398
S'.539'
p550
sg400
S'20.3'
p551
sg402
S'.400'
p552
sg404
S'.067'
p553
sg27
S'NBA'
p554
sg407
S'-6.0'
p555
sg409
S'3.0'
p556
sg411
S'0.1'
p557
sg39
S'23'
p558
sg41
S'TOR'
p559
sg43
S'11'
p560
sg416
S'6.0'
p561
sg418
S'9.9'
p562
sg420
S'-0.1'
p563
sg62
S'51'
p564
sg423
S'-5.2'
p565
sg54
S'2009-10'
p566
sg426
S'0.0'
p567
sbasS'_per36Minutes'
p568
(lp569
(isrc.gp1.models.Per36Minutes
Per36Minutes
p570
(dp571
g8
S'4.2'
p572
sg10
S'0.0'
p573
sg12
S'.313'
p574
sg14
S'1.8'
p575
sg16
S'3.0'
p576
sg18
S'0.0'
p577
sg19
g20
sg21
g22
sg23
S'2.1'
p578
sg27
S'NBA'
p579
sg29
S'2.4'
p580
sg31
S'9.7'
p581
sg33
S'9.4'
p582
sg35
S'.647'
p583
sg37
S'2.7'
p584
sg39
S'20'
p585
sg41
S'GSW'
p586
sg43
S'16'
p587
sg45
S'2.4'
p588
sg46
S'9.7'
p589
sg48
S'5.1'
p590
sg50
S'.313'
p591
sg52
S'6.4'
p592
sg54
S'2006-07'
p593
sg56
S'3.0'
p594
sg58
S'7.9'
p595
sg60
S'3.3'
p596
sg62
S'119'
p597
sg64
g11
sba(isrc.gp1.models.Per36Minutes
Per36Minutes
p598
(dp599
g8
S'6.9'
p600
sg10
S'0.0'
p601
sg12
S'.552'
p602
sg14
S'1.5'
p603
sg16
S'5.8'
p604
sg18
S'0.0'
p605
sg19
g20
sg21
g22
sg23
S'3.6'
p606
sg27
S'NBA'
p607
sg29
S'3.3'
p608
sg31
S'10.5'
p609
sg33
S'12.7'
p610
sg35
S'.600'
p611
sg37
S'1.5'
p612
sg39
S'21'
p613
sg41
S'GSW'
p614
sg43
S'24'
p615
sg45
S'2.5'
p616
sg46
S'10.5'
p617
sg48
S'1.8'
p618
sg50
S'.552'
p619
sg52
S'10.5'
p620
sg54
S'2007-08'
p621
sg56
S'5.8'
p622
sg58
S'9.8'
p623
sg60
S'1.1'
p624
sg62
S'99'
p625
sg64
g11
sba(isrc.gp1.models.Per36Minutes
Per36Minutes
p626
(dp627
g8
S'1.8'
p628
sg10
S'0.3'
p629
sg12
S'.536'
p630
sg14
S'1.6'
p631
sg16
S'.000'
p632
sg18
S'0.0'
p633
sg19
S'14.3'
p634
sg21
g22
sg23
S'.550'
p635
sg27
S'NBA'
p636
sg29
S'0.8'
p637
sg31
S'11.9'
p638
sg33
S'8.6'
p639
sg35
S'2.8'
p640
sg37
S'9.3'
p641
sg39
S'22'
p642
sg41
S'TOT'
p643
sg43
S'39'
p644
sg45
S'2.7'
p645
sg46
S'6.4'
p646
sg48
S'1.6'
p647
sg50
S'11.6'
p648
sg52
S'7.5'
p649
sg54
S'2008-09'
p650
sg56
S'6.4'
p651
sg58
S'3.1'
p652
sg60
S'.549'
p653
sg62
S'255'
p654
sg64
g72
sba(isrc.gp1.models.Per36Minutes
Per36Minutes
p655
(dp656
g8
S'9.0'
p657
sg10
S'0.0'
p658
sg12
S'.516'
p659
sg14
S'1.0'
p660
sg16
S'5.3'
p661
sg18
S'0.0'
p662
sg19
g20
sg21
g22
sg23
S'2.3'
p663
sg27
S'NBA'
p664
sg29
S'2.7'
p665
sg31
S'10.3'
p666
sg33
S'13.3'
p667
sg35
S'.667'
p668
sg37
S'2.7'
p669
sg39
S'22'
p670
sg41
S'BOS'
p671
sg43
S'26'
p672
sg45
S'5.7'
p673
sg46
S'10.3'
p674
sg48
S'4.0'
p675
sg50
S'.516'
p676
sg52
S'11.3'
p677
sg54
S'2008-09'
p678
sg56
S'5.3'
p679
sg58
S'9.7'
p680
sg60
S'2.7'
p681
sg62
S'108'
p682
sg64
g11
sba(isrc.gp1.models.Per36Minutes
Per36Minutes
p683
(dp684
g8
S'1.5'
p685
sg10
S'0.5'
p686
sg12
S'.547'
p687
sg14
S'0.7'
p688
sg16
S'.000'
p689
sg18
S'0.0'
p690
sg19
S'14.9'
p691
sg21
g22
sg23
S'.375'
p692
sg27
S'NBA'
p693
sg29
S'0.7'
p694
sg31
S'13.0'
p695
sg33
S'7.8'
p696
sg35
S'2.0'
p697
sg37
S'7.8'
p698
sg39
S'22'
p699
sg41
S'TOR'
p700
sg43
S'13'
p701
sg45
S'2.7'
p702
sg46
S'7.1'
p703
sg48
S'0.7'
p704
sg50
S'12.5'
p705
sg52
S'6.4'
p706
sg54
S'2008-09'
p707
sg56
S'7.1'
p708
sg58
S'1.2'
p709
sg60
S'.569'
p710
sg62
S'147'
p711
sg64
g72
sba(isrc.gp1.models.Per36Minutes
Per36Minutes
p712
(dp713
g8
S'1.4'
p714
sg10
S'0.7'
p715
sg12
S'.533'
p716
sg14
S'0.7'
p717
sg16
S'.000'
p718
sg18
S'0.0'
p719
sg19
S'13.4'
p720
sg21
g22
sg23
S'.500'
p721
sg27
S'NBA'
p722
sg29
S'1.4'
p723
sg31
S'10.6'
p724
sg33
S'8.5'
p725
sg35
S'4.2'
p726
sg37
S'7.8'
p727
sg39
S'23'
p728
sg41
S'TOR'
p729
sg43
S'11'
p730
sg45
S'2.8'
p731
sg46
S'5.6'
p732
sg48
S'2.1'
p733
sg50
S'9.9'
p734
sg52
S'6.4'
p735
sg54
S'2009-10'
p736
sg56
S'5.6'
p737
sg58
S'3.5'
p738
sg60
S'.571'
p739
sg62
S'51'
p740
sg64
g11
sbasS'_fromYear'
p741
S'2007'
p742
sS'_url'
p743
S'http://www.basketball-reference.com/players/o/obryapa01.html'
p744
sS'_perGame'
p745
(isrc.gp1.models.PerGame
PerGame
p746
(dp747
g8
S'0.2'
p748
sg10
S'0.1'
p749
sg12
S'.533'
p750
sS'_effectiveFieldGalPercentage'
p751
S'.533'
p752
sg14
S'0.1'
p753
sg16
S'.000'
p754
sg18
S'0.0'
p755
sg19
S'1.7'
p756
sg21
g22
sg23
S'.500'
p757
sg27
S'NBA'
p758
sg29
S'0.2'
p759
sg33
S'1.1'
p760
sS'_fieldGoalsttempted'
p761
S'1.4'
p762
sg35
S'0.5'
p763
sg37
S'1.0'
p764
sg39
S'23'
p765
sg41
S'TOR'
p766
sg43
S'11'
p767
sg45
S'0.4'
p768
sg46
S'0.7'
p769
sg48
S'0.3'
p770
sg50
S'1.3'
p771
sg52
S'0.8'
p772
sg54
S'2009-10'
p773
sg56
S'0.7'
p774
sg58
S'0.5'
p775
sg60
S'.571'
p776
sg62
S'4.6'
p777
sg64
g11
sbsS'_weight'
p778
S'260'
p779
sS'_dob'
p780
S'20-6-1986'
p781
sS'_salary'
p782
(lp783
(isrc.gp1.models.Salary
Salary
p784
(dp785
g41
S'Golden State Warriors'
p786
sg27
S'NBA'
p787
sg782
S'$2,061,720'
p788
sg54
S'2006-07'
p789
sba(isrc.gp1.models.Salary
Salary
p790
(dp791
g41
S'Golden State Warriors'
p792
sg27
S'NBA'
p793
sg782
S'$2,216,400'
p794
sg54
S'2007-08'
p795
sba(isrc.gp1.models.Salary
Salary
p796
(dp797
g41
S'Toronto Raptors'
p798
sg27
S'NBA'
p799
sg782
S'$1,500,000'
p800
sg54
S'2008-09'
p801
sba(isrc.gp1.models.Salary
Salary
p802
(dp803
g41
S'Toronto Raptors'
p804
sg27
S'NBA'
p805
sg782
S'$1,620,000'
p806
sg54
S'2009-10'
p807
sbasg21
g22
sb.