(isrc.gp1.models.Player
Player
p0
(dp1
S'_experience'
p2
S'NA'
p3
sS'_totals'
p4
(lp5
(isrc.gp1.models.Totals
Totals
p6
(dp7
S'_offensiveRebounds'
p8
S'239'
p9
sS'_threePointsAttempted'
p10
S'2'
p11
sS'_fieldGoalsPercentage'
p12
S'.524'
p13
sS'_assist'
p14
S'160'
p15
sS'_threePointsPercentage'
p16
S'.000'
p17
sS'_threePoints'
p18
S'0'
p19
sS'_points'
p20
S'1221'
p21
sS'_position'
p22
S'C'
p23
sS'_freeThrowsPercentage'
p24
S'.747'
p25
sS'_effectiveFieldGoalPercentage'
p26
S'.524'
p27
sS'_league'
p28
S'ABA'
p29
sS'_steals'
p30
g3
sS'_fieldGoalsAttempted'
p31
S'973'
p32
sS'_personalFouls'
p33
S'274'
p34
sS'_freeThrowsAttempted'
p35
S'269'
p36
sS'_totalRebounds'
p37
S'940'
p38
sS'_age'
p39
S'22'
p40
sS'_team'
p41
S'NYA'
p42
sS'_games'
p43
S'83'
p44
sS'_blocks'
p45
g3
sS'_twoPoints'
p46
S'510'
p47
sS'_freeThrows'
p48
S'201'
p49
sS'_twoPointsAttempted'
p50
S'971'
p51
sS'_defensiveRebounds'
p52
S'701'
p53
sS'_season'
p54
S'1970-71'
p55
sS'_fieldGoals'
p56
S'510'
p57
sS'_turnOvers'
p58
S'206'
p59
sS'_twoPointsPercentage'
p60
S'.525'
p61
sS'_minutesPlayed'
p62
S'2758'
p63
sS'_gamesStarted'
p64
g3
sba(isrc.gp1.models.Totals
Totals
p65
(dp66
g8
S'263'
p67
sg10
S'3'
p68
sg12
S'.488'
p69
sg14
S'128'
p70
sg16
S'.000'
p71
sg18
g19
sg20
S'1203'
p72
sg22
g23
sg24
S'.692'
p73
sg26
S'.488'
p74
sg28
S'ABA'
p75
sg30
g3
sg31
S'1021'
p76
sg33
S'298'
p77
sg35
S'299'
p78
sg37
S'1035'
p79
sg39
S'23'
p80
sg41
S'NYA'
p81
sg43
S'83'
p82
sg45
g3
sg46
S'498'
p83
sg48
S'207'
p84
sg50
S'1018'
p85
sg52
S'772'
p86
sg54
S'1971-72'
p87
sg56
S'498'
p88
sg58
S'214'
p89
sg60
S'.489'
p90
sg62
S'2824'
p91
sg64
g3
sba(isrc.gp1.models.Totals
Totals
p92
(dp93
g8
S'279'
p94
sg10
g11
sg12
S'.518'
p95
sg14
S'189'
p96
sg16
S'.000'
p97
sg18
g19
sg20
S'1351'
p98
sg22
g23
sg24
S'.709'
p99
sg26
S'.518'
p100
sg28
S'ABA'
p101
sg30
g3
sg31
S'1027'
p102
sg33
S'259'
p103
sg35
S'405'
p104
sg37
S'1015'
p105
sg39
S'24'
p106
sg41
S'NYA'
p107
sg43
S'81'
p108
sg45
S'214'
p109
sg46
S'532'
p110
sg48
S'287'
p111
sg50
S'1025'
p112
sg52
S'736'
p113
sg54
S'1972-73'
p114
sg56
S'532'
p115
sg58
S'213'
p116
sg60
S'.519'
p117
sg62
S'2800'
p118
sg64
g3
sba(isrc.gp1.models.Totals
Totals
p119
(dp120
g8
S'211'
p121
sg10
S'1'
p122
sg12
S'.494'
p123
sg14
S'167'
p124
sg16
S'.000'
p125
sg18
g19
sg20
S'1260'
p126
sg22
g23
sg24
S'.721'
p127
sg26
S'.494'
p128
sg28
S'ABA'
p129
sg30
S'60'
p130
sg31
S'1051'
p131
sg33
S'238'
p132
sg35
S'308'
p133
sg37
S'782'
p134
sg39
S'25'
p135
sg41
S'NYA'
p136
sg43
S'77'
p137
sg45
S'147'
p138
sg46
S'519'
p139
sg48
S'222'
p140
sg50
S'1050'
p141
sg52
S'571'
p142
sg54
S'1973-74'
p143
sg56
S'519'
p144
sg58
S'175'
p145
sg60
S'.494'
p146
sg62
S'2596'
p147
sg64
g3
sba(isrc.gp1.models.Totals
Totals
p148
(dp149
g8
S'174'
p150
sg10
g68
sg12
S'.485'
p151
sg14
S'179'
p152
sg16
S'.000'
p153
sg18
g19
sg20
S'1262'
p154
sg22
g23
sg24
S'.748'
p155
sg26
S'.485'
p156
sg28
S'ABA'
p157
sg30
S'59'
p158
sg31
S'1080'
p159
sg33
S'273'
p160
sg35
S'286'
p161
sg37
S'772'
p162
sg39
S'26'
p163
sg41
S'NYA'
p164
sg43
S'80'
p165
sg45
S'137'
p166
sg46
S'524'
p167
sg48
S'214'
p168
sg50
S'1077'
p169
sg52
S'598'
p170
sg54
S'1974-75'
p171
sg56
S'524'
p172
sg58
S'149'
p173
sg60
S'.487'
p174
sg62
S'2826'
p175
sg64
g3
sba(isrc.gp1.models.Totals
Totals
p176
(dp177
g8
S'210'
p178
sg10
g11
sg12
S'.504'
p179
sg14
S'340'
p180
sg16
S'.000'
p181
sg18
g19
sg20
S'1370'
p182
sg22
g23
sg24
S'.735'
p183
sg26
S'.504'
p184
sg28
S'ABA'
p185
sg30
S'61'
p186
sg31
S'1124'
p187
sg33
S'232'
p188
sg35
S'324'
p189
sg37
S'862'
p190
sg39
S'27'
p191
sg41
S'SAA'
p192
sg43
S'83'
p193
sg45
S'253'
p194
sg46
S'566'
p195
sg48
S'238'
p196
sg50
S'1122'
p197
sg52
S'652'
p198
sg54
S'1975-76'
p199
sg56
S'566'
p200
sg58
S'231'
p201
sg60
S'.504'
p202
sg62
S'2958'
p203
sg64
g3
sba(isrc.gp1.models.Totals
Totals
p204
(dp205
g8
S'192'
p206
sg10
g3
sg12
S'.473'
p207
sg14
S'223'
p208
sg16
g3
sg18
g3
sg20
S'1280'
p209
sg22
g23
sg24
S'.744'
p210
sg26
S'.473'
p211
sg28
S'NBA'
p212
sg30
S'55'
p213
sg31
S'1102'
p214
sg33
S'262'
p215
sg35
S'320'
p216
sg37
S'687'
p217
sg39
S'28'
p218
sg41
S'SAS'
p219
sg43
S'82'
p220
sg45
S'173'
p221
sg46
S'521'
p222
sg48
S'238'
p223
sg50
S'1102'
p224
sg52
S'495'
p225
sg54
S'1976-77'
p226
sg56
S'521'
p227
sg58
g3
sg60
S'.473'
p228
sg62
S'2694'
p229
sg64
g3
sba(isrc.gp1.models.Totals
Totals
p230
(dp231
g8
S'172'
p232
sg10
g3
sg12
S'.529'
p233
sg14
S'213'
p234
sg16
g3
sg18
g3
sg20
S'1266'
p235
sg22
g23
sg24
S'.752'
p236
sg26
S'.529'
p237
sg28
S'NBA'
p238
sg30
S'42'
p239
sg31
S'979'
p240
sg33
S'222'
p241
sg35
S'306'
p242
sg37
S'675'
p243
sg39
S'29'
p244
sg41
S'SAS'
p245
sg43
S'80'
p246
sg45
S'194'
p247
sg46
S'518'
p248
sg48
S'230'
p249
sg50
S'979'
p250
sg52
S'503'
p251
sg54
S'1977-78'
p252
sg56
S'518'
p253
sg58
S'167'
p254
sg60
S'.529'
p255
sg62
S'2479'
p256
sg64
g3
sba(isrc.gp1.models.Totals
Totals
p257
(dp258
g8
S'169'
p259
sg10
g3
sg12
S'.526'
p260
sg14
S'178'
p261
sg16
g3
sg18
g3
sg20
S'912'
p262
sg22
g23
sg24
S'.588'
p263
sg26
S'.526'
p264
sg28
S'NBA'
p265
sg30
S'35'
p266
sg31
S'758'
p267
sg33
S'204'
p268
sg35
S'194'
p269
sg37
S'625'
p270
sg39
S'30'
p271
sg41
S'SAS'
p272
sg43
S'79'
p273
sg45
S'125'
p274
sg46
S'399'
p275
sg48
S'114'
p276
sg50
S'758'
p277
sg52
S'456'
p278
sg54
S'1978-79'
p279
sg56
S'399'
p280
sg58
S'157'
p281
sg60
S'.526'
p282
sg62
S'2122'
p283
sg64
g3
sba(isrc.gp1.models.Totals
Totals
p284
(dp285
g8
S'187'
p286
sg10
g122
sg12
S'.486'
p287
sg14
S'188'
p288
sg16
S'.000'
p289
sg18
g19
sg20
S'763'
p290
sg22
g23
sg24
S'.599'
p291
sg26
S'.486'
p292
sg28
S'NBA'
p293
sg30
S'69'
p294
sg31
S'673'
p295
sg33
S'213'
p296
sg35
S'182'
p297
sg37
S'586'
p298
sg39
S'31'
p299
sg41
S'TOT'
p300
sg43
S'84'
p301
sg45
S'84'
p302
sg46
S'327'
p303
sg48
S'109'
p304
sg50
S'672'
p305
sg52
S'399'
p306
sg54
S'1979-80'
p307
sg56
S'327'
p308
sg58
S'115'
p309
sg60
S'.487'
p310
sg62
S'2193'
p311
sg64
g3
sba(isrc.gp1.models.Totals
Totals
p312
(dp313
g8
S'95'
p314
sg10
g122
sg12
S'.496'
p315
sg14
S'118'
p316
sg16
S'.000'
p317
sg18
g19
sg20
S'444'
p318
sg22
g23
sg24
S'.660'
p319
sg26
S'.496'
p320
sg28
S'NBA'
p321
sg30
S'47'
p322
sg31
S'381'
p323
sg33
S'127'
p324
sg35
S'100'
p325
sg37
S'321'
p326
sg39
S'31'
p327
sg41
S'SAS'
p328
sg43
S'47'
p329
sg45
S'45'
p330
sg46
S'189'
p331
sg48
S'66'
p332
sg50
S'380'
p333
sg52
S'226'
p334
sg54
S'1979-80'
p335
sg56
S'189'
p336
sg58
S'58'
p337
sg60
S'.497'
p338
sg62
S'1213'
p339
sg64
g3
sba(isrc.gp1.models.Totals
Totals
p340
(dp341
g8
S'92'
p342
sg10
g19
sg12
S'.473'
p343
sg14
S'70'
p344
sg16
g3
sg18
g19
sg20
S'319'
p345
sg22
g23
sg24
S'.524'
p346
sg26
S'.473'
p347
sg28
S'NBA'
p348
sg30
S'22'
p349
sg31
S'292'
p350
sg33
S'86'
p351
sg35
S'82'
p352
sg37
S'265'
p353
sg39
S'31'
p354
sg41
S'HOU'
p355
sg43
S'37'
p356
sg45
S'39'
p357
sg46
S'138'
p358
sg48
S'43'
p359
sg50
S'292'
p360
sg52
S'173'
p361
sg54
S'1979-80'
p362
sg56
S'138'
p363
sg58
S'57'
p364
sg60
S'.473'
p365
sg62
S'980'
p366
sg64
g3
sba(isrc.gp1.models.Totals
Totals
p367
(dp368
g8
S'111'
p369
sg10
g68
sg12
S'.507'
p370
sg14
S'105'
p371
sg16
S'.000'
p372
sg18
g19
sg20
S'599'
p373
sg22
S'PF'
p374
sg24
S'.490'
p375
sg26
S'.507'
p376
sg28
S'NBA'
p377
sg30
S'28'
p378
sg31
S'517'
p379
sg33
S'182'
p380
sg35
S'153'
p381
sg37
S'391'
p382
sg39
S'32'
p383
sg41
S'HOU'
p384
sg43
S'81'
p385
sg45
S'72'
p386
sg46
S'262'
p387
sg48
S'75'
p388
sg50
S'514'
p389
sg52
S'280'
p390
sg54
S'1980-81'
p391
sg56
S'262'
p392
sg58
S'89'
p393
sg60
S'.510'
p394
sg62
S'1659'
p395
sg64
g3
sba(isrc.gp1.models.Totals
Totals
p396
(dp397
g8
S'54'
p398
sg10
g19
sg12
S'.394'
p399
sg14
S'41'
p400
sg16
g3
sg18
g19
sg20
S'212'
p401
sg22
g23
sg24
S'.523'
p402
sg26
S'.394'
p403
sg28
S'NBA'
p404
sg30
S'15'
p405
sg31
S'226'
p406
sg33
S'99'
p407
sg35
S'65'
p408
sg37
S'180'
p409
sg39
S'33'
p410
sg41
S'HOU'
p411
sg43
S'65'
p412
sg45
S'22'
p413
sg46
S'89'
p414
sg48
S'34'
p415
sg50
S'226'
p416
sg52
S'126'
p417
sg54
S'1981-82'
p418
sg56
S'89'
p419
sg58
S'45'
p420
sg60
S'.394'
p421
sg62
S'807'
p422
sg64
g68
sba(isrc.gp1.models.Totals
Totals
p423
(dp424
g8
S'64'
p425
sg10
g19
sg12
S'.445'
p426
sg14
S'61'
p427
sg16
g3
sg18
g19
sg20
S'229'
p428
sg22
g23
sg24
S'.458'
p429
sg26
S'.445'
p430
sg28
S'NBA'
p431
sg30
S'17'
p432
sg31
S'227'
p433
sg33
S'109'
p434
sg35
S'59'
p435
sg37
S'200'
p436
sg39
S'34'
p437
sg41
S'TOT'
p438
sg43
S'64'
p439
sg45
S'18'
p440
sg46
S'101'
p441
sg48
S'27'
p442
sg50
S'227'
p443
sg52
S'136'
p444
sg54
S'1982-83'
p445
sg56
S'101'
p446
sg58
S'47'
p447
sg60
S'.445'
p448
sg62
S'820'
p449
sg64
g19
sba(isrc.gp1.models.Totals
Totals
p450
(dp451
g8
S'54'
p452
sg10
g19
sg12
S'.445'
p453
sg14
S'57'
p454
sg16
g3
sg18
g19
sg20
S'204'
p455
sg22
g23
sg24
S'.456'
p456
sg26
S'.445'
p457
sg28
S'NBA'
p458
sg30
S'12'
p459
sg31
S'200'
p460
sg33
S'95'
p461
sg35
S'57'
p462
sg37
S'167'
p463
sg39
S'34'
p464
sg41
S'HOU'
p465
sg43
S'57'
p466
sg45
S'12'
p467
sg46
S'89'
p468
sg48
S'26'
p469
sg50
S'200'
p470
sg52
S'113'
p471
sg54
S'1982-83'
p472
sg56
S'89'
p473
sg58
S'41'
p474
sg60
S'.445'
p475
sg62
S'695'
p476
sg64
g19
sba(isrc.gp1.models.Totals
Totals
p477
(dp478
g8
S'10'
p479
sg10
g19
sg12
S'.444'
p480
sg14
S'4'
p481
sg16
g3
sg18
g19
sg20
S'25'
p482
sg22
g23
sg24
S'.500'
p483
sg26
S'.444'
p484
sg28
S'NBA'
p485
sg30
S'5'
p486
sg31
S'27'
p487
sg33
S'14'
p488
sg35
g11
sg37
S'33'
p489
sg39
S'34'
p490
sg41
S'SAS'
p491
sg43
S'7'
p492
sg45
S'6'
p493
sg46
S'12'
p494
sg48
g122
sg50
S'27'
p495
sg52
S'23'
p496
sg54
S'1982-83'
p497
sg56
S'12'
p498
sg58
g493
sg60
S'.444'
p499
sg62
S'125'
p500
sg64
g19
sba(isrc.gp1.models.Totals
Totals
p501
(dp502
g8
S'35'
p503
sg10
g19
sg12
S'.409'
p504
sg14
S'18'
p505
sg16
g3
sg18
g19
sg20
S'89'
p506
sg22
g23
sg24
S'.515'
p507
sg26
S'.409'
p508
sg28
S'NBA'
p509
sg30
S'8'
p510
sg31
S'88'
p511
sg33
S'57'
p512
sg35
S'33'
p513
sg37
S'113'
p514
sg39
S'35'
p515
sg41
S'ATL'
p516
sg43
S'40'
p517
sg45
g492
sg46
S'36'
p518
sg48
S'17'
p519
sg50
S'88'
p520
sg52
S'78'
p521
sg54
S'1983-84'
p522
sg56
S'36'
p523
sg58
S'22'
p524
sg60
S'.409'
p525
sg62
S'486'
p526
sg64
g481
sba(isrc.gp1.models.Totals
Totals
p527
(dp528
g8
S'24'
p529
sg10
g19
sg12
S'.368'
p530
sg14
S'16'
p531
sg16
g3
sg18
g19
sg20
S'82'
p532
sg22
g23
sg24
S'.643'
p533
sg26
S'.368'
p534
sg28
S'NBA'
p535
sg30
g493
sg31
S'87'
p536
sg33
S'51'
p537
sg35
S'28'
p538
sg37
S'96'
p539
sg39
S'36'
p540
sg41
S'UTA'
p541
sg43
S'62'
p542
sg45
S'11'
p543
sg46
S'32'
p544
sg48
S'18'
p545
sg50
S'87'
p546
sg52
S'72'
p547
sg54
S'1984-85'
p548
sg56
S'32'
p549
sg58
S'30'
p550
sg60
S'.368'
p551
sg62
S'370'
p552
sg64
g19
sbasS'_college'
p553
S"St. John's University"
p554
sS'_toYear'
p555
S'1985'
p556
sS'_height'
p557
S'6-11'
p558
sS'_active'
p559
I00
sS'_shootingHand'
p560
VRight
p561
sS'_name'
p562
S'Billy Paultz'
p563
sS'_per100Possessions'
p564
(lp565
(isrc.gp1.models.Per100Possession
Per100Possession
p566
(dp567
g8
S'3.7'
p568
sg10
S'0.0'
p569
sg12
S'.494'
p570
sS'_offensiveRating'
p571
S'107'
p572
sg14
S'2.9'
p573
sg16
S'.000'
p574
sg18
S'0.0'
p575
sg20
S'22.2'
p576
sg22
g23
sS'_defensiveRating'
p577
S'96'
p578
sg24
S'.721'
p579
sg28
S'ABA'
p580
sg30
S'1.1'
p581
sg31
S'18.5'
p582
sg33
S'4.2'
p583
sg35
S'5.4'
p584
sg37
S'13.8'
p585
sg39
S'25'
p586
sg41
S'NYA'
p587
sg43
S'77'
p588
sg45
S'2.6'
p589
sg46
S'9.1'
p590
sg48
S'3.9'
p591
sg50
S'18.5'
p592
sg52
S'10.1'
p593
sg54
S'1973-74'
p594
sg56
S'9.1'
p595
sg58
S'3.1'
p596
sg60
S'.494'
p597
sg62
S'2596'
p598
sg64
g3
sba(isrc.gp1.models.Per100Possession
Per100Possession
p599
(dp600
g8
S'2.9'
p601
sg10
S'0.0'
p602
sg12
S'.485'
p603
sg571
S'107'
p604
sg14
S'2.9'
p605
sg16
S'.000'
p606
sg18
S'0.0'
p607
sg20
S'20.7'
p608
sg22
g23
sg577
S'98'
p609
sg24
S'.748'
p610
sg28
S'ABA'
p611
sg30
S'1.0'
p612
sg31
S'17.7'
p613
sg33
S'4.5'
p614
sg35
S'4.7'
p615
sg37
S'12.7'
p616
sg39
S'26'
p617
sg41
S'NYA'
p618
sg43
S'80'
p619
sg45
S'2.3'
p620
sg46
S'8.6'
p621
sg48
S'3.5'
p622
sg50
S'17.7'
p623
sg52
S'9.8'
p624
sg54
S'1974-75'
p625
sg56
S'8.6'
p626
sg58
S'2.4'
p627
sg60
S'.487'
p628
sg62
S'2826'
p629
sg64
g3
sba(isrc.gp1.models.Per100Possession
Per100Possession
p630
(dp631
g8
S'3.2'
p632
sg10
S'0.0'
p633
sg12
S'.504'
p634
sg571
S'108'
p635
sg14
S'5.2'
p636
sg16
S'.000'
p637
sg18
S'0.0'
p638
sg20
S'20.8'
p639
sg22
g23
sg577
S'100'
p640
sg24
S'.735'
p641
sg28
S'ABA'
p642
sg30
S'0.9'
p643
sg31
S'17.1'
p644
sg33
S'3.5'
p645
sg35
S'4.9'
p646
sg37
S'13.1'
p647
sg39
S'27'
p648
sg41
S'SAA'
p649
sg43
S'83'
p650
sg45
S'3.8'
p651
sg46
S'8.6'
p652
sg48
S'3.6'
p653
sg50
S'17.1'
p654
sg52
S'9.9'
p655
sg54
S'1975-76'
p656
sg56
S'8.6'
p657
sg58
S'3.5'
p658
sg60
S'.504'
p659
sg62
S'2958'
p660
sg64
g3
sba(isrc.gp1.models.Per100Possession
Per100Possession
p661
(dp662
g8
S'3.1'
p663
sg10
g3
sg12
S'.473'
p664
sg571
g3
sg14
S'3.6'
p665
sg16
g3
sg18
g3
sg20
S'20.4'
p666
sg22
g23
sg577
S'101'
p667
sg24
S'.744'
p668
sg28
S'NBA'
p669
sg30
S'0.9'
p670
sg31
S'17.6'
p671
sg33
S'4.2'
p672
sg35
S'5.1'
p673
sg37
S'10.9'
p674
sg39
S'28'
p675
sg41
S'SAS'
p676
sg43
S'82'
p677
sg45
S'2.8'
p678
sg46
S'8.3'
p679
sg48
S'3.8'
p680
sg50
S'17.6'
p681
sg52
S'7.9'
p682
sg54
S'1976-77'
p683
sg56
S'8.3'
p684
sg58
g3
sg60
S'.473'
p685
sg62
S'2694'
p686
sg64
g3
sba(isrc.gp1.models.Per100Possession
Per100Possession
p687
(dp688
g8
S'3.1'
p689
sg10
g3
sg12
S'.529'
p690
sg571
S'111'
p691
sg14
S'3.8'
p692
sg16
g3
sg18
g3
sg20
S'22.5'
p693
sg22
g23
sg577
S'100'
p694
sg24
S'.752'
p695
sg28
S'NBA'
p696
sg30
S'0.7'
p697
sg31
S'17.4'
p698
sg33
S'3.9'
p699
sg35
S'5.4'
p700
sg37
S'12.0'
p701
sg39
S'29'
p702
sg41
S'SAS'
p703
sg43
S'80'
p704
sg45
S'3.4'
p705
sg46
S'9.2'
p706
sg48
S'4.1'
p707
sg50
S'17.4'
p708
sg52
S'8.9'
p709
sg54
S'1977-78'
p710
sg56
S'9.2'
p711
sg58
S'3.0'
p712
sg60
S'.529'
p713
sg62
S'2479'
p714
sg64
g3
sba(isrc.gp1.models.Per100Possession
Per100Possession
p715
(dp716
g8
S'3.5'
p717
sg10
g3
sg12
S'.526'
p718
sg571
S'104'
p719
sg14
S'3.6'
p720
sg16
g3
sg18
g3
sg20
S'18.7'
p721
sg22
g23
sg577
S'101'
p722
sg24
S'.588'
p723
sg28
S'NBA'
p724
sg30
S'0.7'
p725
sg31
S'15.5'
p726
sg33
S'4.2'
p727
sg35
S'4.0'
p728
sg37
S'12.8'
p729
sg39
S'30'
p730
sg41
S'SAS'
p731
sg43
S'79'
p732
sg45
S'2.6'
p733
sg46
S'8.2'
p734
sg48
S'2.3'
p735
sg50
S'15.5'
p736
sg52
S'9.3'
p737
sg54
S'1978-79'
p738
sg56
S'8.2'
p739
sg58
S'3.2'
p740
sg60
S'.526'
p741
sg62
S'2122'
p742
sg64
g3
sba(isrc.gp1.models.Per100Possession
Per100Possession
p743
(dp744
g8
S'3.9'
p745
sg10
S'0.0'
p746
sg12
S'.486'
p747
sg571
S'107'
p748
sg14
S'3.9'
p749
sg16
S'.000'
p750
sg18
S'0.0'
p751
sg20
S'15.8'
p752
sg22
g23
sg577
S'107'
p753
sg24
S'.599'
p754
sg28
S'NBA'
p755
sg30
S'1.4'
p756
sg31
S'13.9'
p757
sg33
S'4.4'
p758
sg35
S'3.8'
p759
sg37
S'12.1'
p760
sg39
S'31'
p761
sg41
S'TOT'
p762
sg43
S'84'
p763
sg45
S'1.7'
p764
sg46
S'6.8'
p765
sg48
S'2.3'
p766
sg50
S'13.9'
p767
sg52
S'8.3'
p768
sg54
S'1979-80'
p769
sg56
S'6.8'
p770
sg58
S'2.4'
p771
sg60
S'.487'
p772
sg62
S'2193'
p773
sg64
g3
sba(isrc.gp1.models.Per100Possession
Per100Possession
p774
(dp775
g8
S'3.4'
p776
sg10
S'0.0'
p777
sg12
S'.496'
p778
sg571
S'111'
p779
sg14
S'4.3'
p780
sg16
S'.000'
p781
sg18
S'0.0'
p782
sg20
S'16.0'
p783
sg22
g23
sg577
S'107'
p784
sg24
S'.660'
p785
sg28
S'NBA'
p786
sg30
S'1.7'
p787
sg31
S'13.8'
p788
sg33
S'4.6'
p789
sg35
S'3.6'
p790
sg37
S'11.6'
p791
sg39
S'31'
p792
sg41
S'SAS'
p793
sg43
S'47'
p794
sg45
S'1.6'
p795
sg46
S'6.8'
p796
sg48
S'2.4'
p797
sg50
S'13.7'
p798
sg52
S'8.2'
p799
sg54
S'1979-80'
p800
sg56
S'6.8'
p801
sg58
S'2.1'
p802
sg60
S'.497'
p803
sg62
S'1213'
p804
sg64
g3
sba(isrc.gp1.models.Per100Possession
Per100Possession
p805
(dp806
g8
S'4.5'
p807
sg10
S'0.0'
p808
sg12
S'.473'
p809
sg571
S'103'
p810
sg14
S'3.4'
p811
sg16
g3
sg18
S'0.0'
p812
sg20
S'15.4'
p813
sg22
g23
sg577
S'107'
p814
sg24
S'.524'
p815
sg28
S'NBA'
p816
sg30
S'1.1'
p817
sg31
S'14.1'
p818
sg33
S'4.2'
p819
sg35
S'4.0'
p820
sg37
S'12.8'
p821
sg39
S'31'
p822
sg41
S'HOU'
p823
sg43
S'37'
p824
sg45
S'1.9'
p825
sg46
S'6.7'
p826
sg48
S'2.1'
p827
sg50
S'14.1'
p828
sg52
S'8.4'
p829
sg54
S'1979-80'
p830
sg56
S'6.7'
p831
sg58
S'2.8'
p832
sg60
S'.473'
p833
sg62
S'980'
p834
sg64
g3
sba(isrc.gp1.models.Per100Possession
Per100Possession
p835
(dp836
g8
S'3.2'
p837
sg10
S'0.1'
p838
sg12
S'.507'
p839
sg571
S'103'
p840
sg14
S'3.0'
p841
sg16
S'.000'
p842
sg18
S'0.0'
p843
sg20
S'17.2'
p844
sg22
S'PF'
p845
sg577
S'106'
p846
sg24
S'.490'
p847
sg28
S'NBA'
p848
sg30
S'0.8'
p849
sg31
S'14.9'
p850
sg33
S'5.2'
p851
sg35
S'4.4'
p852
sg37
S'11.3'
p853
sg39
S'32'
p854
sg41
S'HOU'
p855
sg43
S'81'
p856
sg45
S'2.1'
p857
sg46
S'7.5'
p858
sg48
S'2.2'
p859
sg50
S'14.8'
p860
sg52
S'8.1'
p861
sg54
S'1980-81'
p862
sg56
S'7.5'
p863
sg58
S'2.6'
p864
sg60
S'.510'
p865
sg62
S'1659'
p866
sg64
g3
sba(isrc.gp1.models.Per100Possession
Per100Possession
p867
(dp868
g8
S'3.3'
p869
sg10
S'0.0'
p870
sg12
S'.394'
p871
sg571
S'90'
p872
sg14
S'2.5'
p873
sg16
g3
sg18
S'0.0'
p874
sg20
S'13.0'
p875
sg22
g23
sg577
S'108'
p876
sg24
S'.523'
p877
sg28
S'NBA'
p878
sg30
S'0.9'
p879
sg31
S'13.8'
p880
sg33
S'6.1'
p881
sg35
S'4.0'
p882
sg37
S'11.0'
p883
sg39
S'33'
p884
sg41
S'HOU'
p885
sg43
S'65'
p886
sg45
S'1.3'
p887
sg46
S'5.4'
p888
sg48
S'2.1'
p889
sg50
S'13.8'
p890
sg52
S'7.7'
p891
sg54
S'1981-82'
p892
sg56
S'5.4'
p893
sg58
S'2.8'
p894
sg60
S'.394'
p895
sg62
S'807'
p896
sg64
g68
sba(isrc.gp1.models.Per100Possession
Per100Possession
p897
(dp898
g8
S'3.7'
p899
sg10
S'0.0'
p900
sg12
S'.445'
p901
sg571
S'94'
p902
sg14
S'3.5'
p903
sg16
g3
sg18
S'0.0'
p904
sg20
S'13.1'
p905
sg22
g23
sg577
S'108'
p906
sg24
S'.458'
p907
sg28
S'NBA'
p908
sg30
S'1.0'
p909
sg31
S'13.0'
p910
sg33
S'6.2'
p911
sg35
S'3.4'
p912
sg37
S'11.4'
p913
sg39
S'34'
p914
sg41
S'TOT'
p915
sg43
S'64'
p916
sg45
S'1.0'
p917
sg46
S'5.8'
p918
sg48
S'1.5'
p919
sg50
S'13.0'
p920
sg52
S'7.8'
p921
sg54
S'1982-83'
p922
sg56
S'5.8'
p923
sg58
S'2.7'
p924
sg60
S'.445'
p925
sg62
S'820'
p926
sg64
g19
sba(isrc.gp1.models.Per100Possession
Per100Possession
p927
(dp928
g8
S'3.7'
p929
sg10
S'0.0'
p930
sg12
S'.445'
p931
sg571
S'93'
p932
sg14
S'3.9'
p933
sg16
g3
sg18
S'0.0'
p934
sg20
S'13.8'
p935
sg22
g23
sg577
S'108'
p936
sg24
S'.456'
p937
sg28
S'NBA'
p938
sg30
S'0.8'
p939
sg31
S'13.5'
p940
sg33
S'6.4'
p941
sg35
S'3.9'
p942
sg37
S'11.3'
p943
sg39
S'34'
p944
sg41
S'HOU'
p945
sg43
S'57'
p946
sg45
S'0.8'
p947
sg46
S'6.0'
p948
sg48
S'1.8'
p949
sg50
S'13.5'
p950
sg52
S'7.6'
p951
sg54
S'1982-83'
p952
sg56
S'6.0'
p953
sg58
S'2.8'
p954
sg60
S'.445'
p955
sg62
S'695'
p956
sg64
g19
sba(isrc.gp1.models.Per100Possession
Per100Possession
p957
(dp958
g8
S'3.7'
p959
sg10
S'0.0'
p960
sg12
S'.444'
p961
sg571
S'94'
p962
sg14
S'1.5'
p963
sg16
g3
sg18
S'0.0'
p964
sg20
S'9.3'
p965
sg22
g23
sg577
S'103'
p966
sg24
S'.500'
p967
sg28
S'NBA'
p968
sg30
S'1.9'
p969
sg31
S'10.0'
p970
sg33
S'5.2'
p971
sg35
S'0.7'
p972
sg37
S'12.3'
p973
sg39
S'34'
p974
sg41
S'SAS'
p975
sg43
g492
sg45
S'2.2'
p976
sg46
S'4.5'
p977
sg48
S'0.4'
p978
sg50
S'10.0'
p979
sg52
S'8.5'
p980
sg54
S'1982-83'
p981
sg56
S'4.5'
p982
sg58
S'2.2'
p983
sg60
S'.444'
p984
sg62
S'125'
p985
sg64
g19
sba(isrc.gp1.models.Per100Possession
Per100Possession
p986
(dp987
g8
S'3.6'
p988
sg10
S'0.0'
p989
sg12
S'.409'
p990
sg571
S'91'
p991
sg14
S'1.9'
p992
sg16
g3
sg18
S'0.0'
p993
sg20
S'9.2'
p994
sg22
g23
sg577
S'107'
p995
sg24
S'.515'
p996
sg28
S'NBA'
p997
sg30
S'0.8'
p998
sg31
S'9.1'
p999
sg33
S'5.9'
p1000
sg35
S'3.4'
p1001
sg37
S'11.7'
p1002
sg39
S'35'
p1003
sg41
S'ATL'
p1004
sg43
S'40'
p1005
sg45
S'0.7'
p1006
sg46
S'3.7'
p1007
sg48
S'1.8'
p1008
sg50
S'9.1'
p1009
sg52
S'8.1'
p1010
sg54
S'1983-84'
p1011
sg56
S'3.7'
p1012
sg58
S'2.3'
p1013
sg60
S'.409'
p1014
sg62
S'486'
p1015
sg64
g481
sba(isrc.gp1.models.Per100Possession
Per100Possession
p1016
(dp1017
g8
S'3.0'
p1018
sg10
S'0.0'
p1019
sg12
S'.368'
p1020
sg571
S'79'
p1021
sg14
S'2.0'
p1022
sg16
g3
sg18
S'0.0'
p1023
sg20
S'10.1'
p1024
sg22
g23
sg577
S'103'
p1025
sg24
S'.643'
p1026
sg28
S'NBA'
p1027
sg30
S'0.7'
p1028
sg31
S'10.7'
p1029
sg33
S'6.3'
p1030
sg35
S'3.5'
p1031
sg37
S'11.8'
p1032
sg39
S'36'
p1033
sg41
S'UTA'
p1034
sg43
S'62'
p1035
sg45
S'1.4'
p1036
sg46
S'3.9'
p1037
sg48
S'2.2'
p1038
sg50
S'10.7'
p1039
sg52
S'8.9'
p1040
sg54
S'1984-85'
p1041
sg56
S'3.9'
p1042
sg58
S'3.7'
p1043
sg60
S'.368'
p1044
sg62
S'370'
p1045
sg64
g19
sbasS'_advanced'
p1046
(lp1047
(isrc.gp1.models.Advanced
Advanced
p1048
(dp1049
S'_offensiveReboundPercentage'
p1050
g3
sS'_turnOverPercentage'
p1051
S'15.9'
p1052
sS'_winSharesPer48Minutes'
p1053
S'.122'
p1054
sS'_stealPercentage'
p1055
g3
sS'_usagePercentage'
p1056
S'17.9'
p1057
sS'_totalReboundsPercentage'
p1058
S'16.6'
p1059
sS'_defensiveBoxPlusMinus'
p1060
g3
sg22
g23
sS'_valueOverReplacementPlayer'
p1061
g3
sS'_trueShootingPercentage'
p1062
S'.559'
p1063
sS'_defensiveReboundPercentage'
p1064
g3
sS'_freeThrowsAttempRate'
p1065
S'.276'
p1066
sS'_threePointsAttempRate'
p1067
S'.002'
p1068
sg28
S'ABA'
p1069
sS'_offensiveBoxPlusMinues'
p1070
g3
sS'_assistPercentage'
p1071
S'8.1'
p1072
sS'_defensiveWinShares'
p1073
S'2.1'
p1074
sg39
S'22'
p1075
sg41
S'NYA'
p1076
sg43
S'83'
p1077
sS'_blockPercentage'
p1078
g3
sS'_playerEfficiencyRating'
p1079
S'17.2'
p1080
sS'_offensiveWinShares'
p1081
S'5.0'
p1082
sg62
S'2758'
p1083
sS'_boxPlusMinus'
p1084
g3
sg54
S'1970-71'
p1085
sS'_winShares'
p1086
S'7.0'
p1087
sba(isrc.gp1.models.Advanced
Advanced
p1088
(dp1089
g1050
S'9.3'
p1090
sg1051
S'15.7'
p1091
sg1053
S'.085'
p1092
sg1055
g3
sg1056
S'18.8'
p1093
sg1058
S'17.8'
p1094
sg1060
g3
sg22
g23
sg1061
g3
sg1062
S'.522'
p1095
sg1064
S'25.8'
p1096
sg1065
S'.293'
p1097
sg1067
S'.003'
p1098
sg28
S'ABA'
p1099
sg1070
g3
sg1071
S'6.2'
p1100
sg1073
S'2.3'
p1101
sg39
S'23'
p1102
sg41
S'NYA'
p1103
sg43
S'83'
p1104
sg1078
g3
sg1079
S'15.3'
p1105
sg1081
S'2.7'
p1106
sg62
S'2824'
p1107
sg1084
g3
sg54
S'1971-72'
p1108
sg1086
S'5.0'
p1109
sba(isrc.gp1.models.Advanced
Advanced
p1110
(dp1111
g1050
S'10.5'
p1112
sg1051
S'15.0'
p1113
sg1053
S'.095'
p1114
sg1055
g3
sg1056
S'20.7'
p1115
sg1058
S'18.4'
p1116
sg1060
g3
sg22
g23
sg1061
g3
sg1062
S'.560'
p1117
sg1064
S'25.9'
p1118
sg1065
S'.394'
p1119
sg1067
S'.002'
p1120
sg28
S'ABA'
p1121
sg1070
g3
sg1071
S'10.4'
p1122
sg1073
S'0.4'
p1123
sg39
S'24'
p1124
sg41
S'NYA'
p1125
sg43
S'81'
p1126
sg1078
S'4.2'
p1127
sg1079
S'21.7'
p1128
sg1081
S'5.2'
p1129
sg62
S'2800'
p1130
sg1084
g3
sg54
S'1972-73'
p1131
sg1086
S'5.6'
p1132
sba(isrc.gp1.models.Advanced
Advanced
p1133
(dp1134
g1050
S'8.2'
p1135
sg1051
S'12.9'
p1136
sg1053
S'.165'
p1137
sg1055
S'1.1'
p1138
sg1056
S'20.3'
p1139
sg1058
S'14.9'
p1140
sg1060
S'2.0'
p1141
sg22
g23
sg1061
S'2.7'
p1142
sg1062
S'.531'
p1143
sg1064
S'21.3'
p1144
sg1065
S'.293'
p1145
sg1067
S'.001'
p1146
sg28
S'ABA'
p1147
sg1070
S'0.1'
p1148
sg1071
S'8.6'
p1149
sg1073
S'4.9'
p1150
sg39
S'25'
p1151
sg41
S'NYA'
p1152
sg43
S'77'
p1153
sg1078
S'3.1'
p1154
sg1079
S'18.2'
p1155
sg1081
S'4.0'
p1156
sg62
S'2596'
p1157
sg1084
S'2.1'
p1158
sg54
S'1973-74'
p1159
sg1086
S'8.9'
p1160
sba(isrc.gp1.models.Advanced
Advanced
p1161
(dp1162
g1050
S'6.4'
p1163
sg1051
S'11.0'
p1164
sg1053
S'.152'
p1165
sg1055
S'1.0'
p1166
sg1056
S'19.2'
p1167
sg1058
S'13.8'
p1168
sg1060
S'1.9'
p1169
sg22
g23
sg1061
S'2.3'
p1170
sg1062
S'.523'
p1171
sg1064
S'21.0'
p1172
sg1065
S'.265'
p1173
sg1067
S'.003'
p1174
sg28
S'ABA'
p1175
sg1070
S'-0.6'
p1176
sg1071
S'8.3'
p1177
sg1073
S'5.4'
p1178
sg39
S'26'
p1179
sg41
S'NYA'
p1180
sg43
S'80'
p1181
sg1078
S'2.7'
p1182
sg1079
S'16.3'
p1183
sg1081
S'3.6'
p1184
sg62
S'2826'
p1185
sg1084
S'1.3'
p1186
sg54
S'1974-75'
p1187
sg1086
S'9.0'
p1188
sba(isrc.gp1.models.Advanced
Advanced
p1189
(dp1190
g1050
S'7.3'
p1191
sg1051
S'15.4'
p1192
sg1053
S'.141'
p1193
sg1055
S'0.9'
p1194
sg1056
S'19.5'
p1195
sg1058
S'14.5'
p1196
sg1060
S'2.9'
p1197
sg22
g23
sg1061
S'4.3'
p1198
sg1062
S'.541'
p1199
sg1064
S'21.1'
p1200
sg1065
S'.288'
p1201
sg1067
S'.002'
p1202
sg28
S'ABA'
p1203
sg1070
S'0.8'
p1204
sg1071
S'15.0'
p1205
sg1073
S'4.4'
p1206
sg39
S'27'
p1207
sg41
S'SAA'
p1208
sg43
S'83'
p1209
sg1078
S'4.5'
p1210
sg1079
S'18.6'
p1211
sg1081
S'4.3'
p1212
sg62
S'2958'
p1213
sg1084
S'3.8'
p1214
sg54
S'1975-76'
p1215
sg1086
S'8.7'
p1216
sba(isrc.gp1.models.Advanced
Advanced
p1217
(dp1218
g1050
S'7.4'
p1219
sg1051
g3
sg1053
S'.095'
p1220
sg1055
S'0.9'
p1221
sg1056
g3
sg1058
S'13.1'
p1222
sg1060
S'0.5'
p1223
sg22
g23
sg1061
S'1.5'
p1224
sg1062
S'.515'
p1225
sg1064
S'18.7'
p1226
sg1065
S'.290'
p1227
sg1067
g3
sg28
S'NBA'
p1228
sg1070
S'-0.3'
p1229
sg1071
S'11.1'
p1230
sg1073
S'2.3'
p1231
sg39
S'28'
p1232
sg41
S'SAS'
p1233
sg43
S'82'
p1234
sg1078
S'3.1'
p1235
sg1079
S'15.8'
p1236
sg1081
S'3.0'
p1237
sg62
S'2694'
p1238
sg1084
S'0.2'
p1239
sg54
S'1976-77'
p1240
sg1086
S'5.3'
p1241
sba(isrc.gp1.models.Advanced
Advanced
p1242
(dp1243
g1050
S'7.6'
p1244
sg1051
S'13.0'
p1245
sg1053
S'.166'
p1246
sg1055
S'0.7'
p1247
sg1056
S'20.0'
p1248
sg1058
S'14.3'
p1249
sg1060
S'1.2'
p1250
sg22
g23
sg1061
S'3.1'
p1251
sg1062
S'.568'
p1252
sg1064
S'20.4'
p1253
sg1065
S'.313'
p1254
sg1067
g3
sg28
S'NBA'
p1255
sg1070
S'1.7'
p1256
sg1071
S'11.5'
p1257
sg1073
S'3.0'
p1258
sg39
S'29'
p1259
sg41
S'SAS'
p1260
sg43
S'80'
p1261
sg1078
S'3.8'
p1262
sg1079
S'19.8'
p1263
sg1081
S'5.6'
p1264
sg62
S'2479'
p1265
sg1084
S'2.9'
p1266
sg54
S'1977-78'
p1267
sg1086
S'8.6'
p1268
sba(isrc.gp1.models.Advanced
Advanced
p1269
(dp1270
g1050
S'8.7'
p1271
sg1051
S'15.7'
p1272
sg1053
S'.114'
p1273
sg1055
S'0.7'
p1274
sg1056
S'17.8'
p1275
sg1058
S'15.5'
p1276
sg1060
S'1.4'
p1277
sg22
g23
sg1061
S'1.6'
p1278
sg1062
S'.541'
p1279
sg1064
S'21.8'
p1280
sg1065
S'.256'
p1281
sg1067
g3
sg28
S'NBA'
p1282
sg1070
S'-0.4'
p1283
sg1071
S'10.5'
p1284
sg1073
S'2.9'
p1285
sg39
S'30'
p1286
sg41
S'SAS'
p1287
sg43
S'79'
p1288
sg1078
S'2.9'
p1289
sg1079
S'15.5'
p1290
sg1081
S'2.1'
p1291
sg62
S'2122'
p1292
sg1084
S'1.0'
p1293
sg54
S'1978-79'
p1294
sg1086
S'5.1'
p1295
sba(isrc.gp1.models.Advanced
Advanced
p1296
(dp1297
g1050
S'9.2'
p1298
sg1051
S'13.2'
p1299
sg1053
S'.088'
p1300
sg1055
S'1.4'
p1301
sg1056
S'15.3'
p1302
sg1058
S'14.5'
p1303
sg1060
S'1.2'
p1304
sg22
g23
sg1061
S'1.6'
p1305
sg1062
S'.507'
p1306
sg1064
S'19.8'
p1307
sg1065
S'.270'
p1308
sg1067
S'.001'
p1309
sg28
S'NBA'
p1310
sg1070
S'-0.3'
p1311
sg1071
S'10.7'
p1312
sg1073
S'1.9'
p1313
sg39
S'31'
p1314
sg41
S'TOT'
p1315
sg43
S'84'
p1316
sg1078
S'2.0'
p1317
sg1079
S'13.9'
p1318
sg1081
S'2.1'
p1319
sg62
S'2193'
p1320
sg1084
S'0.8'
p1321
sg54
S'1979-80'
p1322
sg1086
S'4.0'
p1323
sba(isrc.gp1.models.Advanced
Advanced
p1324
(dp1325
g1050
S'8.5'
p1326
sg1051
S'12.0'
p1327
sg1053
S'.104'
p1328
sg1055
S'1.7'
p1329
sg1056
S'15.1'
p1330
sg1058
S'14.2'
p1331
sg1060
S'1.2'
p1332
sg22
g23
sg1061
S'1.1'
p1333
sg1062
S'.522'
p1334
sg1064
S'19.6'
p1335
sg1065
S'.262'
p1336
sg1067
S'.003'
p1337
sg28
S'NBA'
p1338
sg1070
S'0.3'
p1339
sg1071
S'11.9'
p1340
sg1073
S'1.1'
p1341
sg39
S'31'
p1342
sg41
S'SAS'
p1343
sg43
S'47'
p1344
sg1078
S'1.9'
p1345
sg1079
S'14.7'
p1346
sg1081
S'1.6'
p1347
sg62
S'1213'
p1348
sg1084
S'1.5'
p1349
sg54
S'1979-80'
p1350
sg1086
S'2.6'
p1351
sba(isrc.gp1.models.Advanced
Advanced
p1352
(dp1353
g1050
S'10.1'
p1354
sg1051
S'14.8'
p1355
sg1053
S'.068'
p1356
sg1055
S'1.1'
p1357
sg1056
S'15.5'
p1358
sg1058
S'14.9'
p1359
sg1060
S'1.1'
p1360
sg22
g23
sg1061
S'0.5'
p1361
sg1062
S'.486'
p1362
sg1064
S'20.1'
p1363
sg1065
S'.281'
p1364
sg1067
S'.000'
p1365
sg28
S'NBA'
p1366
sg1070
S'-1.2'
p1367
sg1071
S'9.4'
p1368
sg1073
S'0.8'
p1369
sg39
S'31'
p1370
sg41
S'HOU'
p1371
sg43
S'37'
p1372
sg1078
S'2.2'
p1373
sg1079
S'12.8'
p1374
sg1081
S'0.5'
p1375
sg62
S'980'
p1376
sg1084
S'-0.1'
p1377
sg54
S'1979-80'
p1378
sg1086
S'1.4'
p1379
sba(isrc.gp1.models.Advanced
Advanced
p1380
(dp1381
g1050
S'7.4'
p1382
sg1051
S'13.2'
p1383
sg1053
S'.077'
p1384
sg1055
S'0.8'
p1385
sg1056
S'16.5'
p1386
sg1058
S'13.1'
p1387
sg1060
S'0.7'
p1388
sg22
S'PF'
p1389
sg1061
S'0.5'
p1390
sg1062
S'.513'
p1391
sg1064
S'19.0'
p1392
sg1065
S'.296'
p1393
sg1067
S'.006'
p1394
sg28
S'NBA'
p1395
sg1070
S'-1.6'
p1396
sg1071
S'8.5'
p1397
sg1073
S'1.6'
p1398
sg39
S'32'
p1399
sg41
S'HOU'
p1400
sg43
S'81'
p1401
sg1078
S'2.4'
p1402
sg1079
S'12.9'
p1403
sg1081
S'1.0'
p1404
sg62
S'1659'
p1405
sg1084
S'-0.9'
p1406
sg54
S'1980-81'
p1407
sg1086
S'2.7'
p1408
sba(isrc.gp1.models.Advanced
Advanced
p1409
(dp1410
g1050
S'7.1'
p1411
sg1051
S'15.0'
p1412
sg1053
S'.007'
p1413
sg1055
S'0.9'
p1414
sg1056
S'15.2'
p1415
sg1058
S'12.3'
p1416
sg1060
S'-0.1'
p1417
sg22
g23
sg1061
S'-0.6'
p1418
sg1062
S'.416'
p1419
sg1064
S'17.9'
p1420
sg1065
S'.288'
p1421
sg1067
S'.000'
p1422
sg28
S'NBA'
p1423
sg1070
S'-4.8'
p1424
sg1071
S'6.6'
p1425
sg1073
S'0.7'
p1426
sg39
S'33'
p1427
sg41
S'HOU'
p1428
sg43
S'65'
p1429
sg1078
S'1.5'
p1430
sg1079
S'7.7'
p1431
sg1081
S'-0.6'
p1432
sg62
S'807'
p1433
sg1084
S'-5.0'
p1434
sg54
S'1981-82'
p1435
sg1086
S'0.1'
p1436
sba(isrc.gp1.models.Advanced
Advanced
p1437
(dp1438
g1050
S'8.0'
p1439
sg1051
S'15.7'
p1440
sg1053
S'.020'
p1441
sg1055
S'1.0'
p1442
sg1056
S'14.6'
p1443
sg1058
S'13.1'
p1444
sg1060
S'-0.2'
p1445
sg22
g23
sg1061
S'-0.4'
p1446
sg1062
S'.453'
p1447
sg1064
S'18.7'
p1448
sg1065
S'.260'
p1449
sg1067
S'.000'
p1450
sg28
S'NBA'
p1451
sg1070
S'-3.7'
p1452
sg1071
S'10.3'
p1453
sg1073
S'0.6'
p1454
sg39
S'34'
p1455
sg41
S'TOT'
p1456
sg43
S'64'
p1457
sg1078
S'1.2'
p1458
sg1079
S'9.5'
p1459
sg1081
S'-0.2'
p1460
sg62
S'820'
p1461
sg1084
S'-3.8'
p1462
sg54
S'1982-83'
p1463
sg1086
S'0.3'
p1464
sba(isrc.gp1.models.Advanced
Advanced
p1465
(dp1466
g1050
S'7.8'
p1467
sg1051
S'15.4'
p1468
sg1053
S'.014'
p1469
sg1055
S'0.8'
p1470
sg1056
S'15.3'
p1471
sg1058
S'12.9'
p1472
sg1060
S'-0.5'
p1473
sg22
g23
sg1061
S'-0.4'
p1474
sg1062
S'.453'
p1475
sg1064
S'18.6'
p1476
sg1065
S'.285'
p1477
sg1067
S'.000'
p1478
sg28
S'NBA'
p1479
sg1070
S'-3.7'
p1480
sg1071
S'11.4'
p1481
sg1073
S'0.4'
p1482
sg39
S'34'
p1483
sg41
S'HOU'
p1484
sg43
S'57'
p1485
sg1078
S'1.0'
p1486
sg1079
S'9.6'
p1487
sg1081
S'-0.2'
p1488
sg62
S'695'
p1489
sg1084
S'-4.2'
p1490
sg54
S'1982-83'
p1491
sg1086
S'0.2'
p1492
sba(isrc.gp1.models.Advanced
Advanced
p1493
(dp1494
g1050
S'9.1'
p1495
sg1051
S'17.7'
p1496
sg1053
S'.052'
p1497
sg1055
S'1.9'
p1498
sg1056
S'10.8'
p1499
sg1058
S'14.4'
p1500
sg1060
S'1.6'
p1501
sg22
g23
sg1061
S'0.0'
p1502
sg1062
S'.448'
p1503
sg1064
S'19.4'
p1504
sg1065
S'.074'
p1505
sg1067
S'.000'
p1506
sg28
S'NBA'
p1507
sg1070
S'-3.2'
p1508
sg1071
S'3.8'
p1509
sg1073
S'0.2'
p1510
sg39
S'34'
p1511
sg41
S'SAS'
p1512
sg43
g492
sg1078
S'2.6'
p1513
sg1079
S'9.4'
p1514
sg1081
S'0.0'
p1515
sg62
S'125'
p1516
sg1084
S'-1.6'
p1517
sg54
S'1982-83'
p1518
sg1086
S'0.1'
p1519
sba(isrc.gp1.models.Advanced
Advanced
p1520
(dp1521
g1050
S'8.1'
p1522
sg1051
S'17.7'
p1523
sg1053
S'.027'
p1524
sg1055
S'0.8'
p1525
sg1056
S'11.1'
p1526
sg1058
S'13.3'
p1527
sg1060
S'0.5'
p1528
sg22
g23
sg1061
S'-0.3'
p1529
sg1062
S'.434'
p1530
sg1064
S'18.6'
p1531
sg1065
S'.375'
p1532
sg1067
S'.000'
p1533
sg28
S'NBA'
p1534
sg1070
S'-4.7'
p1535
sg1071
S'5.0'
p1536
sg1073
S'0.5'
p1537
sg39
S'35'
p1538
sg41
S'ATL'
p1539
sg43
S'40'
p1540
sg1078
S'0.9'
p1541
sg1079
S'6.6'
p1542
sg1081
S'-0.3'
p1543
sg62
S'486'
p1544
sg1084
S'-4.2'
p1545
sg54
S'1983-84'
p1546
sg1086
S'0.3'
p1547
sba(isrc.gp1.models.Advanced
Advanced
p1548
(dp1549
g1050
S'6.9'
p1550
sg1051
S'23.2'
p1551
sg1053
S'-0.006'
p1552
sg1055
S'0.7'
p1553
sg1056
S'13.9'
p1554
sg1058
S'13.4'
p1555
sg1060
S'0.9'
p1556
sg22
g23
sg1061
S'-0.4'
p1557
sg1062
S'.413'
p1558
sg1064
S'19.6'
p1559
sg1065
S'.322'
p1560
sg1067
S'.000'
p1561
sg28
S'NBA'
p1562
sg1070
S'-7.4'
p1563
sg1071
S'5.4'
p1564
sg1073
S'0.6'
p1565
sg39
S'36'
p1566
sg41
S'UTA'
p1567
sg43
S'62'
p1568
sg1078
S'1.6'
p1569
sg1079
S'5.0'
p1570
sg1081
S'-0.6'
p1571
sg62
S'370'
p1572
sg1084
S'-6.6'
p1573
sg54
S'1984-85'
p1574
sg1086
S'0.0'
p1575
sbasS'_per36Minutes'
p1576
(lp1577
(isrc.gp1.models.Per36Minutes
Per36Minutes
p1578
(dp1579
g8
S'3.1'
p1580
sg10
S'0.0'
p1581
sg12
S'.524'
p1582
sg14
S'2.1'
p1583
sg16
S'.000'
p1584
sg18
S'0.0'
p1585
sg20
S'15.9'
p1586
sg22
g23
sg24
S'.747'
p1587
sg28
S'ABA'
p1588
sg30
g3
sg31
S'12.7'
p1589
sg33
S'3.6'
p1590
sg35
S'3.5'
p1591
sg37
S'12.3'
p1592
sg39
S'22'
p1593
sg41
S'NYA'
p1594
sg43
S'83'
p1595
sg45
g3
sg46
S'6.7'
p1596
sg48
S'2.6'
p1597
sg50
S'12.7'
p1598
sg52
S'9.2'
p1599
sg54
S'1970-71'
p1600
sg56
S'6.7'
p1601
sg58
S'2.7'
p1602
sg60
S'.525'
p1603
sg62
S'2758'
p1604
sg64
g3
sba(isrc.gp1.models.Per36Minutes
Per36Minutes
p1605
(dp1606
g8
S'3.4'
p1607
sg10
S'0.0'
p1608
sg12
S'.488'
p1609
sg14
S'1.6'
p1610
sg16
S'.000'
p1611
sg18
S'0.0'
p1612
sg20
S'15.3'
p1613
sg22
g23
sg24
S'.692'
p1614
sg28
S'ABA'
p1615
sg30
g3
sg31
S'13.0'
p1616
sg33
S'3.8'
p1617
sg35
S'3.8'
p1618
sg37
S'13.2'
p1619
sg39
S'23'
p1620
sg41
S'NYA'
p1621
sg43
S'83'
p1622
sg45
g3
sg46
S'6.3'
p1623
sg48
S'2.6'
p1624
sg50
S'13.0'
p1625
sg52
S'9.8'
p1626
sg54
S'1971-72'
p1627
sg56
S'6.3'
p1628
sg58
S'2.7'
p1629
sg60
S'.489'
p1630
sg62
S'2824'
p1631
sg64
g3
sba(isrc.gp1.models.Per36Minutes
Per36Minutes
p1632
(dp1633
g8
S'3.6'
p1634
sg10
S'0.0'
p1635
sg12
S'.518'
p1636
sg14
S'2.4'
p1637
sg16
S'.000'
p1638
sg18
S'0.0'
p1639
sg20
S'17.4'
p1640
sg22
g23
sg24
S'.709'
p1641
sg28
S'ABA'
p1642
sg30
g3
sg31
S'13.2'
p1643
sg33
S'3.3'
p1644
sg35
S'5.2'
p1645
sg37
S'13.1'
p1646
sg39
S'24'
p1647
sg41
S'NYA'
p1648
sg43
S'81'
p1649
sg45
S'2.8'
p1650
sg46
S'6.8'
p1651
sg48
S'3.7'
p1652
sg50
S'13.2'
p1653
sg52
S'9.5'
p1654
sg54
S'1972-73'
p1655
sg56
S'6.8'
p1656
sg58
S'2.7'
p1657
sg60
S'.519'
p1658
sg62
S'2800'
p1659
sg64
g3
sba(isrc.gp1.models.Per36Minutes
Per36Minutes
p1660
(dp1661
g8
S'2.9'
p1662
sg10
S'0.0'
p1663
sg12
S'.494'
p1664
sg14
S'2.3'
p1665
sg16
S'.000'
p1666
sg18
S'0.0'
p1667
sg20
S'17.5'
p1668
sg22
g23
sg24
S'.721'
p1669
sg28
S'ABA'
p1670
sg30
S'0.8'
p1671
sg31
S'14.6'
p1672
sg33
S'3.3'
p1673
sg35
S'4.3'
p1674
sg37
S'10.8'
p1675
sg39
S'25'
p1676
sg41
S'NYA'
p1677
sg43
S'77'
p1678
sg45
S'2.0'
p1679
sg46
S'7.2'
p1680
sg48
S'3.1'
p1681
sg50
S'14.6'
p1682
sg52
S'7.9'
p1683
sg54
S'1973-74'
p1684
sg56
S'7.2'
p1685
sg58
S'2.4'
p1686
sg60
S'.494'
p1687
sg62
S'2596'
p1688
sg64
g3
sba(isrc.gp1.models.Per36Minutes
Per36Minutes
p1689
(dp1690
g8
S'2.2'
p1691
sg10
S'0.0'
p1692
sg12
S'.485'
p1693
sg14
S'2.3'
p1694
sg16
S'.000'
p1695
sg18
S'0.0'
p1696
sg20
S'16.1'
p1697
sg22
g23
sg24
S'.748'
p1698
sg28
S'ABA'
p1699
sg30
S'0.8'
p1700
sg31
S'13.8'
p1701
sg33
S'3.5'
p1702
sg35
S'3.6'
p1703
sg37
S'9.8'
p1704
sg39
S'26'
p1705
sg41
S'NYA'
p1706
sg43
S'80'
p1707
sg45
S'1.7'
p1708
sg46
S'6.7'
p1709
sg48
S'2.7'
p1710
sg50
S'13.7'
p1711
sg52
S'7.6'
p1712
sg54
S'1974-75'
p1713
sg56
S'6.7'
p1714
sg58
S'1.9'
p1715
sg60
S'.487'
p1716
sg62
S'2826'
p1717
sg64
g3
sba(isrc.gp1.models.Per36Minutes
Per36Minutes
p1718
(dp1719
g8
S'2.6'
p1720
sg10
S'0.0'
p1721
sg12
S'.504'
p1722
sg14
S'4.1'
p1723
sg16
S'.000'
p1724
sg18
S'0.0'
p1725
sg20
S'16.7'
p1726
sg22
g23
sg24
S'.735'
p1727
sg28
S'ABA'
p1728
sg30
S'0.7'
p1729
sg31
S'13.7'
p1730
sg33
S'2.8'
p1731
sg35
S'3.9'
p1732
sg37
S'10.5'
p1733
sg39
S'27'
p1734
sg41
S'SAA'
p1735
sg43
S'83'
p1736
sg45
S'3.1'
p1737
sg46
S'6.9'
p1738
sg48
S'2.9'
p1739
sg50
S'13.7'
p1740
sg52
S'7.9'
p1741
sg54
S'1975-76'
p1742
sg56
S'6.9'
p1743
sg58
S'2.8'
p1744
sg60
S'.504'
p1745
sg62
S'2958'
p1746
sg64
g3
sba(isrc.gp1.models.Per36Minutes
Per36Minutes
p1747
(dp1748
g8
S'2.6'
p1749
sg10
g3
sg12
S'.473'
p1750
sg14
S'3.0'
p1751
sg16
g3
sg18
g3
sg20
S'17.1'
p1752
sg22
g23
sg24
S'.744'
p1753
sg28
S'NBA'
p1754
sg30
S'0.7'
p1755
sg31
S'14.7'
p1756
sg33
S'3.5'
p1757
sg35
S'4.3'
p1758
sg37
S'9.2'
p1759
sg39
S'28'
p1760
sg41
S'SAS'
p1761
sg43
S'82'
p1762
sg45
S'2.3'
p1763
sg46
S'7.0'
p1764
sg48
S'3.2'
p1765
sg50
S'14.7'
p1766
sg52
S'6.6'
p1767
sg54
S'1976-77'
p1768
sg56
S'7.0'
p1769
sg58
g3
sg60
S'.473'
p1770
sg62
S'2694'
p1771
sg64
g3
sba(isrc.gp1.models.Per36Minutes
Per36Minutes
p1772
(dp1773
g8
S'2.5'
p1774
sg10
g3
sg12
S'.529'
p1775
sg14
S'3.1'
p1776
sg16
g3
sg18
g3
sg20
S'18.4'
p1777
sg22
g23
sg24
S'.752'
p1778
sg28
S'NBA'
p1779
sg30
S'0.6'
p1780
sg31
S'14.2'
p1781
sg33
S'3.2'
p1782
sg35
S'4.4'
p1783
sg37
S'9.8'
p1784
sg39
S'29'
p1785
sg41
S'SAS'
p1786
sg43
S'80'
p1787
sg45
S'2.8'
p1788
sg46
S'7.5'
p1789
sg48
S'3.3'
p1790
sg50
S'14.2'
p1791
sg52
S'7.3'
p1792
sg54
S'1977-78'
p1793
sg56
S'7.5'
p1794
sg58
S'2.4'
p1795
sg60
S'.529'
p1796
sg62
S'2479'
p1797
sg64
g3
sba(isrc.gp1.models.Per36Minutes
Per36Minutes
p1798
(dp1799
g8
S'2.9'
p1800
sg10
g3
sg12
S'.526'
p1801
sg14
S'3.0'
p1802
sg16
g3
sg18
g3
sg20
S'15.5'
p1803
sg22
g23
sg24
S'.588'
p1804
sg28
S'NBA'
p1805
sg30
S'0.6'
p1806
sg31
S'12.9'
p1807
sg33
S'3.5'
p1808
sg35
S'3.3'
p1809
sg37
S'10.6'
p1810
sg39
S'30'
p1811
sg41
S'SAS'
p1812
sg43
S'79'
p1813
sg45
S'2.1'
p1814
sg46
S'6.8'
p1815
sg48
S'1.9'
p1816
sg50
S'12.9'
p1817
sg52
S'7.7'
p1818
sg54
S'1978-79'
p1819
sg56
S'6.8'
p1820
sg58
S'2.7'
p1821
sg60
S'.526'
p1822
sg62
S'2122'
p1823
sg64
g3
sba(isrc.gp1.models.Per36Minutes
Per36Minutes
p1824
(dp1825
g8
S'3.1'
p1826
sg10
S'0.0'
p1827
sg12
S'.486'
p1828
sg14
S'3.1'
p1829
sg16
S'.000'
p1830
sg18
S'0.0'
p1831
sg20
S'12.5'
p1832
sg22
g23
sg24
S'.599'
p1833
sg28
S'NBA'
p1834
sg30
S'1.1'
p1835
sg31
S'11.0'
p1836
sg33
S'3.5'
p1837
sg35
S'3.0'
p1838
sg37
S'9.6'
p1839
sg39
S'31'
p1840
sg41
S'TOT'
p1841
sg43
S'84'
p1842
sg45
S'1.4'
p1843
sg46
S'5.4'
p1844
sg48
S'1.8'
p1845
sg50
S'11.0'
p1846
sg52
S'6.5'
p1847
sg54
S'1979-80'
p1848
sg56
S'5.4'
p1849
sg58
S'1.9'
p1850
sg60
S'.487'
p1851
sg62
S'2193'
p1852
sg64
g3
sba(isrc.gp1.models.Per36Minutes
Per36Minutes
p1853
(dp1854
g8
S'2.8'
p1855
sg10
S'0.0'
p1856
sg12
S'.496'
p1857
sg14
S'3.5'
p1858
sg16
S'.000'
p1859
sg18
S'0.0'
p1860
sg20
S'13.2'
p1861
sg22
g23
sg24
S'.660'
p1862
sg28
S'NBA'
p1863
sg30
S'1.4'
p1864
sg31
S'11.3'
p1865
sg33
S'3.8'
p1866
sg35
S'3.0'
p1867
sg37
S'9.5'
p1868
sg39
S'31'
p1869
sg41
S'SAS'
p1870
sg43
S'47'
p1871
sg45
S'1.3'
p1872
sg46
S'5.6'
p1873
sg48
S'2.0'
p1874
sg50
S'11.3'
p1875
sg52
S'6.7'
p1876
sg54
S'1979-80'
p1877
sg56
S'5.6'
p1878
sg58
S'1.7'
p1879
sg60
S'.497'
p1880
sg62
S'1213'
p1881
sg64
g3
sba(isrc.gp1.models.Per36Minutes
Per36Minutes
p1882
(dp1883
g8
S'3.4'
p1884
sg10
S'0.0'
p1885
sg12
S'.473'
p1886
sg14
S'2.6'
p1887
sg16
g3
sg18
S'0.0'
p1888
sg20
S'11.7'
p1889
sg22
g23
sg24
S'.524'
p1890
sg28
S'NBA'
p1891
sg30
S'0.8'
p1892
sg31
S'10.7'
p1893
sg33
S'3.2'
p1894
sg35
S'3.0'
p1895
sg37
S'9.7'
p1896
sg39
S'31'
p1897
sg41
S'HOU'
p1898
sg43
S'37'
p1899
sg45
S'1.4'
p1900
sg46
S'5.1'
p1901
sg48
S'1.6'
p1902
sg50
S'10.7'
p1903
sg52
S'6.4'
p1904
sg54
S'1979-80'
p1905
sg56
S'5.1'
p1906
sg58
S'2.1'
p1907
sg60
S'.473'
p1908
sg62
S'980'
p1909
sg64
g3
sba(isrc.gp1.models.Per36Minutes
Per36Minutes
p1910
(dp1911
g8
S'2.4'
p1912
sg10
S'0.1'
p1913
sg12
S'.507'
p1914
sg14
S'2.3'
p1915
sg16
S'.000'
p1916
sg18
S'0.0'
p1917
sg20
S'13.0'
p1918
sg22
S'PF'
p1919
sg24
S'.490'
p1920
sg28
S'NBA'
p1921
sg30
S'0.6'
p1922
sg31
S'11.2'
p1923
sg33
S'3.9'
p1924
sg35
S'3.3'
p1925
sg37
S'8.5'
p1926
sg39
S'32'
p1927
sg41
S'HOU'
p1928
sg43
S'81'
p1929
sg45
S'1.6'
p1930
sg46
S'5.7'
p1931
sg48
S'1.6'
p1932
sg50
S'11.2'
p1933
sg52
S'6.1'
p1934
sg54
S'1980-81'
p1935
sg56
S'5.7'
p1936
sg58
S'1.9'
p1937
sg60
S'.510'
p1938
sg62
S'1659'
p1939
sg64
g3
sba(isrc.gp1.models.Per36Minutes
Per36Minutes
p1940
(dp1941
g8
S'2.4'
p1942
sg10
S'0.0'
p1943
sg12
S'.394'
p1944
sg14
S'1.8'
p1945
sg16
g3
sg18
S'0.0'
p1946
sg20
S'9.5'
p1947
sg22
g23
sg24
S'.523'
p1948
sg28
S'NBA'
p1949
sg30
S'0.7'
p1950
sg31
S'10.1'
p1951
sg33
S'4.4'
p1952
sg35
S'2.9'
p1953
sg37
S'8.0'
p1954
sg39
S'33'
p1955
sg41
S'HOU'
p1956
sg43
S'65'
p1957
sg45
S'1.0'
p1958
sg46
S'4.0'
p1959
sg48
S'1.5'
p1960
sg50
S'10.1'
p1961
sg52
S'5.6'
p1962
sg54
S'1981-82'
p1963
sg56
S'4.0'
p1964
sg58
S'2.0'
p1965
sg60
S'.394'
p1966
sg62
S'807'
p1967
sg64
g68
sba(isrc.gp1.models.Per36Minutes
Per36Minutes
p1968
(dp1969
g8
S'2.8'
p1970
sg10
S'0.0'
p1971
sg12
S'.445'
p1972
sg14
S'2.7'
p1973
sg16
g3
sg18
S'0.0'
p1974
sg20
S'10.1'
p1975
sg22
g23
sg24
S'.458'
p1976
sg28
S'NBA'
p1977
sg30
S'0.7'
p1978
sg31
S'10.0'
p1979
sg33
S'4.8'
p1980
sg35
S'2.6'
p1981
sg37
S'8.8'
p1982
sg39
S'34'
p1983
sg41
S'TOT'
p1984
sg43
S'64'
p1985
sg45
S'0.8'
p1986
sg46
S'4.4'
p1987
sg48
S'1.2'
p1988
sg50
S'10.0'
p1989
sg52
S'6.0'
p1990
sg54
S'1982-83'
p1991
sg56
S'4.4'
p1992
sg58
S'2.1'
p1993
sg60
S'.445'
p1994
sg62
S'820'
p1995
sg64
g19
sba(isrc.gp1.models.Per36Minutes
Per36Minutes
p1996
(dp1997
g8
S'2.8'
p1998
sg10
S'0.0'
p1999
sg12
S'.445'
p2000
sg14
S'3.0'
p2001
sg16
g3
sg18
S'0.0'
p2002
sg20
S'10.6'
p2003
sg22
g23
sg24
S'.456'
p2004
sg28
S'NBA'
p2005
sg30
S'0.6'
p2006
sg31
S'10.4'
p2007
sg33
S'4.9'
p2008
sg35
S'3.0'
p2009
sg37
S'8.7'
p2010
sg39
S'34'
p2011
sg41
S'HOU'
p2012
sg43
S'57'
p2013
sg45
S'0.6'
p2014
sg46
S'4.6'
p2015
sg48
S'1.3'
p2016
sg50
S'10.4'
p2017
sg52
S'5.9'
p2018
sg54
S'1982-83'
p2019
sg56
S'4.6'
p2020
sg58
S'2.1'
p2021
sg60
S'.445'
p2022
sg62
S'695'
p2023
sg64
g19
sba(isrc.gp1.models.Per36Minutes
Per36Minutes
p2024
(dp2025
g8
S'2.9'
p2026
sg10
S'0.0'
p2027
sg12
S'.444'
p2028
sg14
S'1.2'
p2029
sg16
g3
sg18
S'0.0'
p2030
sg20
S'7.2'
p2031
sg22
g23
sg24
S'.500'
p2032
sg28
S'NBA'
p2033
sg30
S'1.4'
p2034
sg31
S'7.8'
p2035
sg33
S'4.0'
p2036
sg35
S'0.6'
p2037
sg37
S'9.5'
p2038
sg39
S'34'
p2039
sg41
S'SAS'
p2040
sg43
g492
sg45
S'1.7'
p2041
sg46
S'3.5'
p2042
sg48
S'0.3'
p2043
sg50
S'7.8'
p2044
sg52
S'6.6'
p2045
sg54
S'1982-83'
p2046
sg56
S'3.5'
p2047
sg58
S'1.7'
p2048
sg60
S'.444'
p2049
sg62
S'125'
p2050
sg64
g19
sba(isrc.gp1.models.Per36Minutes
Per36Minutes
p2051
(dp2052
g8
S'2.6'
p2053
sg10
S'0.0'
p2054
sg12
S'.409'
p2055
sg14
S'1.3'
p2056
sg16
g3
sg18
S'0.0'
p2057
sg20
S'6.6'
p2058
sg22
g23
sg24
S'.515'
p2059
sg28
S'NBA'
p2060
sg30
S'0.6'
p2061
sg31
S'6.5'
p2062
sg33
S'4.2'
p2063
sg35
S'2.4'
p2064
sg37
S'8.4'
p2065
sg39
S'35'
p2066
sg41
S'ATL'
p2067
sg43
S'40'
p2068
sg45
S'0.5'
p2069
sg46
S'2.7'
p2070
sg48
S'1.3'
p2071
sg50
S'6.5'
p2072
sg52
S'5.8'
p2073
sg54
S'1983-84'
p2074
sg56
S'2.7'
p2075
sg58
S'1.6'
p2076
sg60
S'.409'
p2077
sg62
S'486'
p2078
sg64
g481
sba(isrc.gp1.models.Per36Minutes
Per36Minutes
p2079
(dp2080
g8
S'2.3'
p2081
sg10
S'0.0'
p2082
sg12
S'.368'
p2083
sg14
S'1.6'
p2084
sg16
g3
sg18
S'0.0'
p2085
sg20
S'8.0'
p2086
sg22
g23
sg24
S'.643'
p2087
sg28
S'NBA'
p2088
sg30
S'0.6'
p2089
sg31
S'8.5'
p2090
sg33
S'5.0'
p2091
sg35
S'2.7'
p2092
sg37
S'9.3'
p2093
sg39
S'36'
p2094
sg41
S'UTA'
p2095
sg43
S'62'
p2096
sg45
S'1.1'
p2097
sg46
S'3.1'
p2098
sg48
S'1.8'
p2099
sg50
S'8.5'
p2100
sg52
S'7.0'
p2101
sg54
S'1984-85'
p2102
sg56
S'3.1'
p2103
sg58
S'2.9'
p2104
sg60
S'.368'
p2105
sg62
S'370'
p2106
sg64
g19
sbasS'_fromYear'
p2107
S'1971'
p2108
sS'_url'
p2109
S'http://www.basketball-reference.com/players/p/paultbi01.html'
p2110
sS'_perGame'
p2111
(isrc.gp1.models.PerGame
PerGame
p2112
(dp2113
g8
S'0.4'
p2114
sg10
S'0.0'
p2115
sg12
S'.368'
p2116
sS'_effectiveFieldGalPercentage'
p2117
S'.368'
p2118
sg14
S'0.3'
p2119
sg16
g3
sg18
S'0.0'
p2120
sg20
S'1.3'
p2121
sg22
g23
sg24
S'.643'
p2122
sg28
S'NBA'
p2123
sg30
S'0.1'
p2124
sg33
S'0.8'
p2125
sS'_fieldGoalsttempted'
p2126
S'1.4'
p2127
sg35
S'0.5'
p2128
sg37
S'1.5'
p2129
sg39
S'36'
p2130
sg41
S'UTA'
p2131
sg43
S'62'
p2132
sg45
S'0.2'
p2133
sg46
S'0.5'
p2134
sg48
S'0.3'
p2135
sg50
S'1.4'
p2136
sg52
S'1.2'
p2137
sg54
S'1984-85'
p2138
sg56
S'0.5'
p2139
sg58
S'0.5'
p2140
sg60
S'.368'
p2141
sg62
S'6.0'
p2142
sg64
g19
sbsS'_weight'
p2143
S'235'
p2144
sS'_dob'
p2145
S'30-7-1948'
p2146
sS'_salary'
p2147
(lp2148
sg22
S'C-F'
p2149
sb.