(isrc.gp1.models.Player
Player
p0
(dp1
S'_experience'
p2
S'NA'
p3
sS'_totals'
p4
(lp5
(isrc.gp1.models.Totals
Totals
p6
(dp7
S'_offensiveRebounds'
p8
g3
sS'_threePointsAttempted'
p9
S'.429'
p10
sS'_fieldGoalsPercentage'
p11
S'15'
p12
sS'_assist'
p13
g3
sS'_threePointsPercentage'
p14
S'.429'
p15
sS'_threePoints'
p16
S'35'
p17
sS'_points'
p18
g3
sS'_position'
p19
S'C'
p20
sS'_freeThrowsPercentage'
p21
S'34'
p22
sS'_effectiveFieldGoalPercentage'
p23
S'16'
p24
sS'_league'
p25
S'NBA'
p26
sS'_steals'
p27
g3
sS'_fieldGoalsAttempted'
p28
S'.429'
p29
sS'_personalFouls'
p30
g3
sS'_freeThrowsAttempted'
p31
S'10'
p32
sS'_totalRebounds'
p33
g3
sS'_age'
p34
S'22'
p35
sS'_team'
p36
S'CHI'
p37
sS'_games'
p38
S'10'
p39
sS'_blocks'
p40
g3
sS'_twoPoints'
p41
S'4'
p42
sS'_freeThrows'
p43
S'2'
p44
sS'_twoPointsAttempted'
p45
S'8'
p46
sS'_defensiveRebounds'
p47
g3
sS'_season'
p48
S'1970-71'
p49
sS'_fieldGoals'
p50
S'35'
p51
sS'_turnOvers'
p52
g3
sS'_twoPointsPercentage'
p53
S'.500'
p54
sS'_minutesPlayed'
p55
S'15'
p56
sS'_gamesStarted'
p57
S'60'
p58
sba(isrc.gp1.models.Totals
Totals
p59
(dp60
g8
S'341'
p61
sg9
S'182'
p62
sg11
S'0'
p63
sg13
S'178'
p64
sg14
S'381'
p65
sg16
g63
sg18
g3
sg19
g20
sg21
S'223'
p66
sg23
S'115'
p67
sg25
S'ABA'
p68
sg27
S'448'
p69
sg28
S'.478'
p70
sg30
g3
sg31
S'118'
p71
sg33
S'69'
p72
sg34
S'23'
p73
sg36
S'PTC'
p74
sg38
S'79'
p75
sg40
g3
sg41
S'.478'
p76
sg43
S'.730'
p77
sg45
S'.478'
p78
sg47
S'52'
p79
sg48
S'1971-72'
p80
sg50
S'381'
p81
sg52
g3
sg53
S'84'
p82
sg55
S'182'
p83
sg57
S'1059'
p84
sba(isrc.gp1.models.Totals
Totals
p85
(dp86
g8
g3
sg9
g3
sg11
g3
sg13
g3
sg14
g3
sg16
g3
sg18
g3
sg19
g3
sg21
g3
sg23
g3
sg25
g3
sg27
g3
sg28
g3
sg30
g3
sg31
g3
sg33
g3
sg34
S'24'
p87
sg36
S'Did Not Play'
p88
sg38
g3
sg40
g3
sg41
g3
sg43
g3
sg45
g3
sg47
g3
sg48
S'1972-73'
p89
sg50
g3
sg52
g3
sg53
g3
sg55
g3
sg57
g3
sba(isrc.gp1.models.Totals
Totals
p90
(dp91
g8
S'1'
p92
sg9
S'.407'
p93
sg11
S'11'
p94
sg13
S'30'
p95
sg14
S'.407'
p96
sg16
S'27'
p97
sg18
g3
sg19
g20
sg21
g63
sg23
g42
sg25
S'NBA'
p98
sg27
g3
sg28
S'.407'
p99
sg30
g3
sg31
S'11'
p100
sg33
S'10'
p101
sg34
S'25'
p102
sg36
S'BUF'
p103
sg38
S'20'
p104
sg40
g3
sg41
g46
sg43
S'7'
p105
sg45
S'13'
p106
sg47
g92
sg48
S'1973-74'
p107
sg50
S'27'
p108
sg52
g3
sg53
S'.615'
p109
sg55
S'11'
p110
sg57
S'51'
p111
sba(isrc.gp1.models.Totals
Totals
p112
(dp113
g8
S'3'
p114
sg9
S'.468'
p115
sg11
S'22'
p116
sg13
S'45'
p117
sg14
S'.468'
p118
sg16
S'47'
p119
sg18
g3
sg19
g20
sg21
g105
sg23
S'12'
p120
sg25
S'NBA'
p121
sg27
g3
sg28
S'.468'
p122
sg30
g3
sg31
S'22'
p123
sg33
S'22'
p124
sg34
S'26'
p125
sg36
S'BUF'
p126
sg38
S'22'
p127
sg40
g3
sg41
g92
sg43
S'10'
p128
sg45
S'5'
p129
sg47
g114
sg48
S'1974-75'
p130
sg50
S'47'
p131
sg52
g3
sg53
S'.200'
p132
sg55
S'22'
p133
sg57
S'103'
p134
sba(isrc.gp1.models.Totals
Totals
p135
(dp136
g8
g63
sg9
g44
sg11
g63
sg13
g63
sg14
g114
sg16
g63
sg18
g3
sg19
g20
sg21
g114
sg23
g63
sg25
S'ABA'
p137
sg27
g63
sg28
S'.667'
p138
sg30
g3
sg31
g44
sg33
g63
sg34
S'27'
p139
sg36
S'SSL'
p140
sg38
g44
sg40
g42
sg41
S'.667'
p141
sg43
g92
sg45
S'.667'
p142
sg47
g63
sg48
S'1975-76'
p143
sg50
g114
sg52
g3
sg53
g63
sg55
g44
sg57
g129
sbasS'_college'
p144
S'Brigham Young University'
p145
sS'_toYear'
p146
S'1976'
p147
sS'_height'
p148
S'6-10'
p149
sS'_active'
p150
I00
sS'_shootingHand'
p151
VRight
p152
sS'_name'
p153
S'Paul Ruffner'
p154
sS'_per100Possessions'
p155
(lp156
(isrc.gp1.models.Per100Possession
Per100Possession
p157
(dp158
g8
S'0.8'
p159
sg9
S'.407'
p160
sg11
S'9.3'
p161
sS'_offensiveRating'
p162
g3
sg13
S'25.3'
p163
sg14
S'6.7'
p164
sg16
S'22.8'
p165
sg18
g3
sg19
g20
sS'_defensiveRating'
p166
g3
sg21
S'0.0'
p167
sg25
S'NBA'
p168
sg27
S'102'
p169
sg28
S'.407'
p170
sg30
g3
sg31
S'9.3'
p171
sg33
S'8.4'
p172
sg34
S'25'
p173
sg36
S'BUF'
p174
sg38
S'20'
p175
sg40
g3
sg41
S'11.0'
p176
sg43
S'5.9'
p177
sg45
S'.615'
p178
sg47
S'0.8'
p179
sg48
S'1973-74'
p180
sg50
S'22.8'
p181
sg52
g3
sg53
S'3.4'
p182
sg55
S'9.3'
p183
sg57
S'51'
p184
sba(isrc.gp1.models.Per100Possession
Per100Possession
p185
(dp186
g8
S'1.3'
p187
sg9
S'.468'
p188
sg11
S'9.5'
p189
sg162
g3
sg13
S'19.5'
p190
sg14
S'0.4'
p191
sg16
S'20.3'
p192
sg18
g3
sg19
g20
sg166
g3
sg21
S'3.0'
p193
sg25
S'NBA'
p194
sg27
S'100'
p195
sg28
S'.468'
p196
sg30
g3
sg31
S'9.5'
p197
sg33
S'9.5'
p198
sg34
S'26'
p199
sg36
S'BUF'
p200
sg38
S'22'
p201
sg40
g3
sg41
S'2.2'
p202
sg43
S'4.3'
p203
sg45
S'.200'
p204
sg47
S'1.3'
p205
sg48
S'1974-75'
p206
sg50
S'20.3'
p207
sg52
g3
sg53
S'5.2'
p208
sg55
S'9.5'
p209
sg57
S'103'
p210
sba(isrc.gp1.models.Per100Possession
Per100Possession
p211
(dp212
g8
S'0.0'
p213
sg9
S'18.2'
p214
sg11
S'0.0'
p215
sg162
g3
sg13
S'0.0'
p216
sg14
S'27.3'
p217
sg16
S'0.0'
p218
sg18
g3
sg19
g20
sg166
g3
sg21
S'27.3'
p219
sg25
S'ABA'
p220
sg27
S'0.0'
p221
sg28
S'.667'
p222
sg30
S'101'
p223
sg31
S'18.2'
p224
sg33
S'0.0'
p225
sg34
S'27'
p226
sg36
S'SSL'
p227
sg38
g44
sg40
S'36.3'
p228
sg41
S'.667'
p229
sg43
S'9.1'
p230
sg45
S'0.0'
p231
sg47
S'0.0'
p232
sg48
S'1975-76'
p233
sg50
S'27.3'
p234
sg52
S'142'
p235
sg53
S'0.0'
p236
sg55
S'18.2'
p237
sg57
g129
sbasS'_advanced'
p238
(lp239
(isrc.gp1.models.Advanced
Advanced
p240
(dp241
S'_offensiveReboundPercentage'
p242
S'5.3'
p243
sS'_turnOverPercentage'
p244
g3
sS'_winSharesPer48Minutes'
p245
g3
sS'_stealPercentage'
p246
S'.021'
p247
sS'_usagePercentage'
p248
g3
sS'_totalReboundsPercentage'
p249
S'0.1'
p250
sS'_defensiveBoxPlusMinus'
p251
g3
sg19
g20
sS'_valueOverReplacementPlayer'
p252
g3
sS'_trueShootingPercentage'
p253
S'.441'
p254
sS'_defensiveReboundPercentage'
p255
S'-0.1'
p256
sS'_freeThrowsAttempRate'
p257
S'12.6'
p258
sS'_threePointsAttempRate'
p259
S'.229'
p260
sg25
S'NBA'
p261
sS'_offensiveBoxPlusMinues'
p262
g3
sS'_assistPercentage'
p263
S'0.0'
p264
sS'_defensiveWinShares'
p265
g3
sg34
S'22'
p266
sg36
S'CHI'
p267
sg38
S'10'
p268
sS'_blockPercentage'
p269
g3
sS'_playerEfficiencyRating'
p270
S'12.5'
p271
sS'_offensiveWinShares'
p272
g3
sg55
S'60'
p273
sS'_boxPlusMinus'
p274
g3
sg48
S'1970-71'
p275
sS'_winShares'
p276
g3
sba(isrc.gp1.models.Advanced
Advanced
p277
(dp278
g242
S'10.2'
p279
sg244
S'0.9'
p280
sg245
g3
sg246
S'13.8'
p281
sg248
S'-0.1'
p282
sg249
S'14.7'
p283
sg251
g3
sg19
g20
sg252
g3
sg253
S'.519'
p284
sg255
S'19.2'
p285
sg257
S'.302'
p286
sg259
S'.000'
p287
sg25
S'ABA'
p288
sg262
g3
sg263
S'6.2'
p289
sg265
S'.039'
p290
sg34
S'23'
p291
sg36
S'PTC'
p292
sg38
S'79'
p293
sg269
S'17.2'
p294
sg270
S'13.8'
p295
sg272
S'0.9'
p296
sg55
S'1059'
p297
sg274
g3
sg48
S'1971-72'
p298
sg276
g3
sba(isrc.gp1.models.Advanced
Advanced
p299
(dp300
g242
S'13.3'
p301
sg244
S'0.0'
p302
sg245
S'-15.2'
p303
sg246
S'1.0'
p304
sg248
S'0.0'
p305
sg249
S'0.0'
p306
sg251
g3
sg19
g20
sg252
g3
sg253
S'.458'
p307
sg255
S'10.7'
p308
sg257
S'8.0'
p309
sg259
S'.481'
p310
sg25
S'NBA'
p311
sg262
S'-0.2'
p312
sg263
S'0.8'
p313
sg265
S'-6.4'
p314
sg34
S'25'
p315
sg36
S'BUF'
p316
sg38
S'20'
p317
sg269
S'0.0'
p318
sg270
S'11.7'
p319
sg272
S'-0.012'
p320
sg55
S'51'
p321
sg274
g3
sg48
S'1973-74'
p322
sg276
S'-8.8'
p323
sba(isrc.gp1.models.Advanced
Advanced
p324
(dp325
g242
S'9.5'
p326
sg244
S'0.1'
p327
sg245
S'-3.5'
p328
sg246
S'1.4'
p329
sg248
S'0.1'
p330
sg249
S'9.9'
p331
sg251
g3
sg19
g20
sg252
g3
sg253
S'.457'
p332
sg255
S'10.9'
p333
sg257
S'12.3'
p334
sg259
S'.106'
p335
sg25
S'NBA'
p336
sg262
S'0.0'
p337
sg263
S'1.3'
p338
sg265
S'-1.5'
p339
sg34
S'26'
p340
sg36
S'BUF'
p341
sg38
S'22'
p342
sg269
S'0.0'
p343
sg270
S'12.1'
p344
sg272
S'.029'
p345
sg55
S'103'
p346
sg274
g3
sg48
S'1974-75'
p347
sg276
S'-1.9'
p348
sba(isrc.gp1.models.Advanced
Advanced
p349
(dp350
g242
S'19.4'
p351
sg244
S'0.0'
p352
sg245
S'.336'
p353
sg246
S'0.0'
p354
sg248
S'22.9'
p355
sg249
S'29.1'
p356
sg251
S'-11.7'
p357
sg19
g20
sg252
S'0.0'
p358
sg253
S'.667'
p359
sg255
S'38.8'
p360
sg257
S'.000'
p361
sg259
S'.000'
p362
sg25
S'ABA'
p363
sg262
S'2.9'
p364
sg263
S'0.0'
p365
sg265
S'0.0'
p366
sg34
S'27'
p367
sg36
S'SSL'
p368
sg38
g44
sg269
S'0.0'
p369
sg270
S'35.8'
p370
sg272
S'0.0'
p371
sg55
g129
sg274
S'-8.8'
p372
sg48
S'1975-76'
p373
sg276
S'0.0'
p374
sbasS'_per36Minutes'
p375
(lp376
(isrc.gp1.models.Per36Minutes
Per36Minutes
p377
(dp378
g8
g3
sg9
S'.429'
p379
sg11
S'9.0'
p380
sg13
g3
sg14
S'2.4'
p381
sg16
S'21.0'
p382
sg18
g3
sg19
g20
sg21
S'20.4'
p383
sg25
S'NBA'
p384
sg27
g3
sg28
S'.429'
p385
sg30
g3
sg31
S'6.0'
p386
sg33
g3
sg34
S'22'
p387
sg36
S'CHI'
p388
sg38
S'10'
p389
sg40
g3
sg41
S'4.8'
p390
sg43
S'1.2'
p391
sg45
S'.500'
p392
sg47
g3
sg48
S'1970-71'
p393
sg50
S'21.0'
p394
sg52
g3
sg53
S'9.6'
p395
sg55
S'9.0'
p396
sg57
S'60'
p397
sba(isrc.gp1.models.Per36Minutes
Per36Minutes
p398
(dp399
g8
S'11.6'
p400
sg9
S'6.2'
p401
sg11
S'0.0'
p402
sg13
S'6.1'
p403
sg14
S'13.0'
p404
sg16
S'0.0'
p405
sg18
g3
sg19
g20
sg21
S'7.6'
p406
sg25
S'ABA'
p407
sg27
S'15.2'
p408
sg28
S'.478'
p409
sg30
g3
sg31
S'4.0'
p410
sg33
S'2.3'
p411
sg34
S'23'
p412
sg36
S'PTC'
p413
sg38
S'79'
p414
sg40
g3
sg41
S'.478'
p415
sg43
S'.730'
p416
sg45
S'2.9'
p417
sg47
S'1.8'
p418
sg48
S'1971-72'
p419
sg50
S'13.0'
p420
sg52
g3
sg53
S'3.9'
p421
sg55
S'6.2'
p422
sg57
S'1059'
p423
sba(isrc.gp1.models.Per36Minutes
Per36Minutes
p424
(dp425
g8
S'0.7'
p426
sg9
S'.407'
p427
sg11
S'7.8'
p428
sg13
S'21.2'
p429
sg14
S'5.6'
p430
sg16
S'19.1'
p431
sg18
g3
sg19
g20
sg21
S'0.0'
p432
sg25
S'NBA'
p433
sg27
g3
sg28
S'.407'
p434
sg30
g3
sg31
S'7.8'
p435
sg33
S'7.1'
p436
sg34
S'25'
p437
sg36
S'BUF'
p438
sg38
S'20'
p439
sg40
g3
sg41
S'9.2'
p440
sg43
S'4.9'
p441
sg45
S'.615'
p442
sg47
S'0.7'
p443
sg48
S'1973-74'
p444
sg50
S'19.1'
p445
sg52
g3
sg53
S'2.8'
p446
sg55
S'7.8'
p447
sg57
S'51'
p448
sba(isrc.gp1.models.Per36Minutes
Per36Minutes
p449
(dp450
g8
S'1.0'
p451
sg9
S'.468'
p452
sg11
S'7.7'
p453
sg13
S'15.7'
p454
sg14
S'0.3'
p455
sg16
S'16.4'
p456
sg18
g3
sg19
g20
sg21
S'2.4'
p457
sg25
S'NBA'
p458
sg27
g3
sg28
S'.468'
p459
sg30
g3
sg31
S'7.7'
p460
sg33
S'7.7'
p461
sg34
S'26'
p462
sg36
S'BUF'
p463
sg38
S'22'
p464
sg40
g3
sg41
S'1.7'
p465
sg43
S'3.5'
p466
sg45
S'.200'
p467
sg47
S'1.0'
p468
sg48
S'1974-75'
p469
sg50
S'16.4'
p470
sg52
g3
sg53
S'4.2'
p471
sg55
S'7.7'
p472
sg57
S'103'
p473
sba(isrc.gp1.models.Per36Minutes
Per36Minutes
p474
(dp475
g8
S'0.0'
p476
sg9
S'14.4'
p477
sg11
S'0.0'
p478
sg13
S'0.0'
p479
sg14
S'21.6'
p480
sg16
S'0.0'
p481
sg18
g3
sg19
g20
sg21
S'21.6'
p482
sg25
S'ABA'
p483
sg27
S'0.0'
p484
sg28
S'.667'
p485
sg30
g3
sg31
S'14.4'
p486
sg33
S'0.0'
p487
sg34
S'27'
p488
sg36
S'SSL'
p489
sg38
g44
sg40
S'28.8'
p490
sg41
S'.667'
p491
sg43
S'7.2'
p492
sg45
S'0.0'
p493
sg47
S'0.0'
p494
sg48
S'1975-76'
p495
sg50
S'21.6'
p496
sg52
g3
sg53
S'0.0'
p497
sg55
S'14.4'
p498
sg57
g129
sbasS'_fromYear'
p499
S'1971'
p500
sS'_url'
p501
S'http://www.basketball-reference.com/players/r/ruffnpa01.html'
p502
sS'_perGame'
p503
(isrc.gp1.models.PerGame
PerGame
p504
(dp505
g8
S'0.0'
p506
sg9
S'1.0'
p507
sg11
S'0.0'
p508
sS'_effectiveFieldGalPercentage'
p509
S'0.0'
p510
sg13
S'0.0'
p511
sg14
S'1.5'
p512
sg16
S'0.0'
p513
sg18
g3
sg19
g20
sg21
S'1.5'
p514
sg25
S'ABA'
p515
sg27
S'0.0'
p516
sg30
g3
sS'_fieldGoalsttempted'
p517
S'.667'
p518
sg31
S'1.0'
p519
sg33
S'0.0'
p520
sg34
S'27'
p521
sg36
S'SSL'
p522
sg38
g44
sg40
S'2.0'
p523
sg41
S'.667'
p524
sg43
S'0.5'
p525
sg45
S'.667'
p526
sg47
S'0.0'
p527
sg48
S'1975-76'
p528
sg50
S'1.5'
p529
sg52
g3
sg53
S'0.0'
p530
sg55
S'1.0'
p531
sg57
S'2.5'
p532
sbsS'_weight'
p533
S'225'
p534
sS'_dob'
p535
S'15-10-1948'
p536
sS'_salary'
p537
(lp538
sg19
S'C-F'
p539
sb.