(isrc.gp1.models.Player
Player
p0
(dp1
S'_experience'
p2
S'NA'
p3
sS'_totals'
p4
(lp5
(isrc.gp1.models.Totals
Totals
p6
(dp7
S'_offensiveRebounds'
p8
S'1'
p9
sS'_threePointsAttempted'
p10
S'0'
p11
sS'_fieldGoalsPercentage'
p12
S'.000'
p13
sS'_assist'
p14
g11
sS'_threePointsPercentage'
p15
g11
sS'_threePoints'
p16
g11
sS'_points'
p17
g3
sS'_position'
p18
S'PF'
p19
sS'_freeThrowsPercentage'
p20
g9
sS'_effectiveFieldGoalPercentage'
p21
g11
sS'_league'
p22
S'NBA'
p23
sS'_steals'
p24
g11
sS'_fieldGoalsAttempted'
p25
S'4'
p26
sS'_personalFouls'
p27
g3
sS'_freeThrowsAttempted'
p28
g11
sS'_totalRebounds'
p29
g11
sS'_age'
p30
S'25'
p31
sS'_team'
p32
S'ATL'
p33
sS'_games'
p34
S'2'
p35
sS'_blocks'
p36
g11
sS'_twoPoints'
p37
g26
sS'_freeThrows'
p38
g11
sS'_twoPointsAttempted'
p39
S'.000'
p40
sS'_defensiveRebounds'
p41
g11
sS'_season'
p42
S'2002-03'
p43
sS'_fieldGoals'
p44
g11
sS'_turnOvers'
p45
g11
sS'_twoPointsPercentage'
p46
S'.000'
p47
sS'_minutesPlayed'
p48
S'5'
p49
sS'_gamesStarted'
p50
g11
sba(isrc.gp1.models.Totals
Totals
p51
(dp52
g8
S'8'
p53
sg10
g9
sg12
S'.435'
p54
sg14
g26
sg15
S'.000'
p55
sg16
g11
sg17
S'21'
p56
sg18
S'PF'
p57
sg20
S'.333'
p58
sg21
S'.435'
p59
sg22
S'NBA'
p60
sg24
g9
sg25
S'23'
p61
sg27
S'9'
p62
sg28
S'3'
p63
sg29
S'16'
p64
sg30
S'26'
p65
sg32
S'CHI'
p66
sg34
S'7'
p67
sg36
g9
sg37
S'10'
p68
sg38
g9
sg39
S'22'
p69
sg41
g53
sg42
S'2003-04'
p70
sg44
S'10'
p71
sg45
g62
sg46
S'.455'
p72
sg48
S'86'
p73
sg50
g11
sba(isrc.gp1.models.Totals
Totals
p74
(dp75
g8
g9
sg10
g11
sg12
S'.455'
p76
sg14
g11
sg15
g49
sg16
g11
sg17
g3
sg18
S'PF'
p77
sg20
g9
sg21
g35
sg22
S'NBA'
p78
sg24
g11
sg25
S'11'
p79
sg27
S'12'
p80
sg28
S'.500'
p81
sg29
g63
sg30
S'27'
p82
sg32
S'PHO'
p83
sg34
g62
sg36
g9
sg37
S'11'
p84
sg38
g26
sg39
S'.455'
p85
sg41
g35
sg42
S'2004-05'
p86
sg44
g49
sg45
g63
sg46
S'.455'
p87
sg48
S'30'
p88
sg50
g11
sbasS'_college'
p89
S'Iowa State University'
p90
sS'_toYear'
p91
S'2005'
p92
sS'_height'
p93
S'6-10'
p94
sS'_active'
p95
I00
sS'_shootingHand'
p96
VRight
p97
sS'_name'
p98
S'Paul Shirley'
p99
sS'_per100Possessions'
p100
(lp101
(isrc.gp1.models.Per100Possession
Per100Possession
p102
(dp103
g8
S'10.6'
p104
sg10
S'0.0'
p105
sg12
S'.000'
p106
sS'_offensiveRating'
p107
g3
sg14
S'0.0'
p108
sg15
S'0.0'
p109
sg16
S'0.0'
p110
sg17
S'108'
p111
sg18
S'PF'
p112
sS'_defensiveRating'
p113
g3
sg20
S'10.6'
p114
sg22
S'NBA'
p115
sg24
S'0.0'
p116
sg25
S'42.2'
p117
sg27
g11
sg28
S'0.0'
p118
sg29
S'0.0'
p119
sg30
S'25'
p120
sg32
S'ATL'
p121
sg34
g35
sg36
S'0.0'
p122
sg37
S'42.2'
p123
sg38
S'0.0'
p124
sg39
S'.000'
p125
sg41
S'0.0'
p126
sg42
S'2002-03'
p127
sg44
S'0.0'
p128
sg45
S'0.0'
p129
sg46
S'0.0'
p130
sg48
g49
sg50
g11
sba(isrc.gp1.models.Per100Possession
Per100Possession
p131
(dp132
g8
S'4.8'
p133
sg10
S'0.6'
p134
sg12
S'.435'
p135
sg107
S'76'
p136
sg14
S'2.4'
p137
sg15
S'.000'
p138
sg16
S'0.0'
p139
sg17
S'12.7'
p140
sg18
S'PF'
p141
sg113
S'108'
p142
sg20
S'.333'
p143
sg22
S'NBA'
p144
sg24
S'0.6'
p145
sg25
S'13.9'
p146
sg27
S'5.4'
p147
sg28
S'1.8'
p148
sg29
S'9.7'
p149
sg30
S'26'
p150
sg32
S'CHI'
p151
sg34
g67
sg36
S'0.6'
p152
sg37
S'6.1'
p153
sg38
S'0.6'
p154
sg39
S'13.3'
p155
sg41
S'4.8'
p156
sg42
S'2003-04'
p157
sg44
S'6.1'
p158
sg45
S'5.4'
p159
sg46
S'.455'
p160
sg48
S'86'
p161
sg50
g11
sba(isrc.gp1.models.Per100Possession
Per100Possession
p162
(dp163
g8
S'1.7'
p164
sg10
S'0.0'
p165
sg12
S'.455'
p166
sg107
S'115'
p167
sg14
S'0.0'
p168
sg15
S'8.3'
p169
sg16
S'0.0'
p170
sg17
S'104'
p171
sg18
S'PF'
p172
sg113
g3
sg20
S'1.7'
p173
sg22
S'NBA'
p174
sg24
S'0.0'
p175
sg25
S'18.3'
p176
sg27
S'20.0'
p177
sg28
S'.500'
p178
sg29
S'5.0'
p179
sg30
S'27'
p180
sg32
S'PHO'
p181
sg34
g62
sg36
S'1.7'
p182
sg37
S'18.3'
p183
sg38
S'6.7'
p184
sg39
S'.455'
p185
sg41
S'3.3'
p186
sg42
S'2004-05'
p187
sg44
S'8.3'
p188
sg45
S'5.0'
p189
sg46
S'3.3'
p190
sg48
S'30'
p191
sg50
g11
sbasS'_advanced'
p192
(lp193
(isrc.gp1.models.Advanced
Advanced
p194
(dp195
S'_offensiveReboundPercentage'
p196
S'0.0'
p197
sS'_turnOverPercentage'
p198
S'0.0'
p199
sS'_winSharesPer48Minutes'
p200
S'-0.823'
p201
sS'_stealPercentage'
p202
S'0.0'
p203
sS'_usagePercentage'
p204
S'36.7'
p205
sS'_totalReboundsPercentage'
p206
S'11.4'
p207
sS'_defensiveBoxPlusMinus'
p208
S'-12.6'
p209
sg18
S'PF'
p210
sS'_valueOverReplacementPlayer'
p211
S'-0.1'
p212
sS'_trueShootingPercentage'
p213
S'.000'
p214
sS'_defensiveReboundPercentage'
p215
S'21.9'
p216
sS'_freeThrowsAttempRate'
p217
S'.000'
p218
sS'_threePointsAttempRate'
p219
S'.000'
p220
sg22
S'NBA'
p221
sS'_offensiveBoxPlusMinues'
p222
S'-32.3'
p223
sS'_assistPercentage'
p224
S'0.0'
p225
sS'_defensiveWinShares'
p226
S'0.0'
p227
sg30
S'25'
p228
sg32
S'ATL'
p229
sg34
g35
sS'_blockPercentage'
p230
S'0.0'
p231
sS'_playerEfficiencyRating'
p232
S'-28.0'
p233
sS'_offensiveWinShares'
p234
S'-0.1'
p235
sg48
g49
sS'_boxPlusMinus'
p236
S'-44.9'
p237
sg42
S'2002-03'
p238
sS'_winShares'
p239
S'-0.1'
p240
sba(isrc.gp1.models.Advanced
Advanced
p241
(dp242
g196
S'9.9'
p243
sg198
S'27.0'
p244
sg200
S'-0.083'
p245
sg202
S'0.6'
p246
sg204
S'17.3'
p247
sg206
S'10.2'
p248
sg208
S'-1.3'
p249
sg18
S'PF'
p250
sg211
S'-0.1'
p251
sg213
S'.432'
p252
sg215
S'10.5'
p253
sg217
S'.130'
p254
sg219
S'.043'
p255
sg22
S'NBA'
p256
sg222
S'-6.7'
p257
sg224
S'7.9'
p258
sg226
S'0.0'
p259
sg30
S'26'
p260
sg32
S'CHI'
p261
sg34
g67
sg230
S'0.9'
p262
sg232
S'4.6'
p263
sg234
S'-0.2'
p264
sg48
S'86'
p265
sg236
S'-8.1'
p266
sg42
S'2003-04'
p267
sg239
S'-0.1'
p268
sba(isrc.gp1.models.Advanced
Advanced
p269
(dp270
g196
S'3.7'
p271
sg198
S'7.3'
p272
sg200
S'.031'
p273
sg202
S'0.0'
p274
sg204
S'20.0'
p275
sg206
S'3.6'
p276
sg208
S'-4.5'
p277
sg18
S'PF'
p278
sg211
S'0.0'
p279
sg213
S'.470'
p280
sg215
S'3.4'
p281
sg217
S'.364'
p282
sg219
S'.000'
p283
sg22
S'NBA'
p284
sg222
S'-3.2'
p285
sg224
S'14.7'
p286
sg226
S'0.0'
p287
sg30
S'27'
p288
sg32
S'PHO'
p289
sg34
g62
sg230
S'0.0'
p290
sg232
S'9.9'
p291
sg234
S'0.0'
p292
sg48
S'30'
p293
sg236
S'-7.8'
p294
sg42
S'2004-05'
p295
sg239
S'0.0'
p296
sbasS'_per36Minutes'
p297
(lp298
(isrc.gp1.models.Per36Minutes
Per36Minutes
p299
(dp300
g8
S'7.2'
p301
sg10
S'0.0'
p302
sg12
S'.000'
p303
sg14
S'0.0'
p304
sg15
S'0.0'
p305
sg16
S'0.0'
p306
sg17
g3
sg18
S'PF'
p307
sg20
S'7.2'
p308
sg22
S'NBA'
p309
sg24
S'0.0'
p310
sg25
S'28.8'
p311
sg27
g3
sg28
S'0.0'
p312
sg29
S'0.0'
p313
sg30
S'25'
p314
sg32
S'ATL'
p315
sg34
g35
sg36
S'0.0'
p316
sg37
S'28.8'
p317
sg38
S'0.0'
p318
sg39
S'.000'
p319
sg41
S'0.0'
p320
sg42
S'2002-03'
p321
sg44
S'0.0'
p322
sg45
S'0.0'
p323
sg46
S'0.0'
p324
sg48
g49
sg50
g11
sba(isrc.gp1.models.Per36Minutes
Per36Minutes
p325
(dp326
g8
S'3.3'
p327
sg10
S'0.4'
p328
sg12
S'.435'
p329
sg14
S'1.7'
p330
sg15
S'.000'
p331
sg16
S'0.0'
p332
sg17
S'8.8'
p333
sg18
S'PF'
p334
sg20
S'.333'
p335
sg22
S'NBA'
p336
sg24
S'0.4'
p337
sg25
S'9.6'
p338
sg27
S'3.8'
p339
sg28
S'1.3'
p340
sg29
S'6.7'
p341
sg30
S'26'
p342
sg32
S'CHI'
p343
sg34
g67
sg36
S'0.4'
p344
sg37
S'4.2'
p345
sg38
S'0.4'
p346
sg39
S'9.2'
p347
sg41
S'3.3'
p348
sg42
S'2003-04'
p349
sg44
S'4.2'
p350
sg45
S'3.8'
p351
sg46
S'.455'
p352
sg48
S'86'
p353
sg50
g11
sba(isrc.gp1.models.Per36Minutes
Per36Minutes
p354
(dp355
g8
S'1.2'
p356
sg10
S'0.0'
p357
sg12
S'.455'
p358
sg14
S'0.0'
p359
sg15
S'6.0'
p360
sg16
S'0.0'
p361
sg17
g3
sg18
S'PF'
p362
sg20
S'1.2'
p363
sg22
S'NBA'
p364
sg24
S'0.0'
p365
sg25
S'13.2'
p366
sg27
S'14.4'
p367
sg28
S'.500'
p368
sg29
S'3.6'
p369
sg30
S'27'
p370
sg32
S'PHO'
p371
sg34
g62
sg36
S'1.2'
p372
sg37
S'13.2'
p373
sg38
S'4.8'
p374
sg39
S'.455'
p375
sg41
S'2.4'
p376
sg42
S'2004-05'
p377
sg44
S'6.0'
p378
sg45
S'3.6'
p379
sg46
S'2.4'
p380
sg48
S'30'
p381
sg50
g11
sbasS'_fromYear'
p382
S'2003'
p383
sS'_url'
p384
S'http://www.basketball-reference.com/players/s/shirlpa01.html'
p385
sS'_perGame'
p386
(isrc.gp1.models.PerGame
PerGame
p387
(dp388
g8
S'0.1'
p389
sg10
S'0.0'
p390
sg12
S'.455'
p391
sS'_effectiveFieldGalPercentage'
p392
S'0.2'
p393
sg14
S'0.0'
p394
sg15
S'0.6'
p395
sg16
S'0.0'
p396
sg17
g3
sg18
S'PF'
p397
sg20
S'0.1'
p398
sg22
S'NBA'
p399
sg24
S'0.0'
p400
sg27
S'1.3'
p401
sS'_fieldGoalsttempted'
p402
S'1.2'
p403
sg28
S'.500'
p404
sg29
S'0.3'
p405
sg30
S'27'
p406
sg32
S'PHO'
p407
sg34
g62
sg36
S'0.1'
p408
sg37
S'1.2'
p409
sg38
S'0.4'
p410
sg39
S'.455'
p411
sg41
S'0.2'
p412
sg42
S'2004-05'
p413
sg44
S'0.6'
p414
sg45
S'0.3'
p415
sg46
S'.455'
p416
sg48
S'3.3'
p417
sg50
g11
sbsS'_weight'
p418
S'230'
p419
sS'_dob'
p420
S'23-12-1977'
p421
sS'_salary'
p422
(lp423
(isrc.gp1.models.Salary
Salary
p424
(dp425
g32
S'Atlanta Hawks'
p426
sg22
S'NBA'
p427
sg422
S'$29,832'
p428
sg42
S'2002-03'
p429
sbasg18
S'F'
p430
sb.