(isrc.gp1.models.Player
Player
p0
(dp1
S'_experience'
p2
S'NA'
p3
sS'_totals'
p4
(lp5
(isrc.gp1.models.Totals
Totals
p6
(dp7
S'_offensiveRebounds'
p8
g3
sS'_threePointsAttempted'
p9
S'.363'
p10
sS'_fieldGoalsPercentage'
p11
S'152'
p12
sS'_assist'
p13
g3
sS'_threePointsPercentage'
p14
S'.363'
p15
sS'_threePoints'
p16
S'419'
p17
sS'_points'
p18
g3
sS'_position'
p19
S'C'
p20
sS'_freeThrowsPercentage'
p21
S'383'
p22
sS'_effectiveFieldGoalPercentage'
p23
S'430'
p24
sS'_league'
p25
S'NBA'
p26
sS'_steals'
p27
g3
sS'_fieldGoalsAttempted'
p28
S'.363'
p29
sS'_personalFouls'
p30
g3
sS'_freeThrowsAttempted'
p31
S'220'
p32
sS'_totalRebounds'
p33
g3
sS'_age'
p34
S'22'
p35
sS'_team'
p36
S'NYK'
p37
sS'_games'
p38
S'50'
p39
sS'_blocks'
p40
g3
sS'_twoPoints'
p41
S'79'
p42
sS'_freeThrows'
p43
S'42'
p44
sS'_twoPointsAttempted'
p45
S'174'
p46
sS'_defensiveRebounds'
p47
g3
sS'_season'
p48
S'1962-63'
p49
sS'_fieldGoals'
p50
S'419'
p51
sS'_turnOvers'
p52
g3
sS'_twoPointsPercentage'
p53
S'.454'
p54
sS'_minutesPlayed'
p55
S'152'
p56
sS'_gamesStarted'
p57
S'1340'
p58
sba(isrc.gp1.models.Totals
Totals
p59
(dp60
g8
g3
sg9
S'.400'
p61
sg11
S'12'
p62
sg13
g3
sg14
S'.400'
p63
sg16
S'30'
p64
sg18
g3
sg19
g20
sg21
S'26'
p65
sg23
S'31'
p66
sg25
S'NBA'
p67
sg27
g3
sg28
S'.400'
p68
sg30
g3
sg31
S'35'
p69
sg33
g3
sg34
S'23'
p70
sg36
S'TOT'
p71
sg38
S'15'
p72
sg40
g3
sg41
S'2'
p73
sg43
S'6'
p74
sg45
S'7'
p75
sg47
g3
sg48
S'1963-64'
p76
sg50
S'30'
p77
sg52
g3
sg53
S'.286'
p78
sg55
S'12'
p79
sg57
S'147'
p80
sba(isrc.gp1.models.Totals
Totals
p81
(dp82
g8
g3
sg9
S'.563'
p83
sg11
S'9'
p84
sg13
g3
sg14
S'.563'
p85
sg16
S'16'
p86
sg18
g3
sg19
g20
sg21
S'19'
p87
sg23
S'15'
p88
sg25
S'NBA'
p89
sg27
g3
sg28
S'.563'
p90
sg30
g3
sg31
S'15'
p91
sg33
g3
sg34
S'23'
p92
sg36
S'NYK'
p93
sg38
g74
sg40
g3
sg41
S'1'
p94
sg43
S'5'
p95
sg45
g95
sg47
g3
sg48
S'1963-64'
p96
sg50
S'16'
p97
sg52
g3
sg53
S'.200'
p98
sg55
g84
sg57
S'89'
p99
sba(isrc.gp1.models.Totals
Totals
p100
(dp101
g8
g3
sg9
S'.214'
p102
sg11
S'3'
p103
sg13
g3
sg14
S'.214'
p104
sg16
S'14'
p105
sg18
g3
sg19
g20
sg21
g75
sg23
S'16'
p106
sg25
S'NBA'
p107
sg27
g3
sg28
S'.214'
p108
sg30
g3
sg31
S'20'
p109
sg33
g3
sg34
S'23'
p110
sg36
S'BAL'
p111
sg38
g84
sg40
g3
sg41
g94
sg43
g94
sg45
g73
sg47
g3
sg48
S'1963-64'
p112
sg50
S'14'
p113
sg52
g3
sg53
S'.500'
p114
sg55
g103
sg57
S'58'
p115
sbasS'_college'
p116
S'University of Cincinnati'
p117
sS'_toYear'
p118
S'1964'
p119
sS'_height'
p120
S'6-9'
p121
sS'_active'
p122
I00
sS'_shootingHand'
p123
VRight
p124
sS'_name'
p125
S'Paul Hogue'
p126
sS'_per100Possessions'
p127
(lp128
sS'_advanced'
p129
(lp130
(isrc.gp1.models.Advanced
Advanced
p131
(dp132
S'_offensiveReboundPercentage'
p133
S'0.8'
p134
sS'_turnOverPercentage'
p135
g3
sS'_winSharesPer48Minutes'
p136
g3
sS'_stealPercentage'
p137
g3
sS'_usagePercentage'
p138
g3
sS'_totalReboundsPercentage'
p139
S'-0.037'
p140
sS'_defensiveBoxPlusMinus'
p141
g3
sg19
g20
sS'_valueOverReplacementPlayer'
p142
g3
sS'_trueShootingPercentage'
p143
S'.386'
p144
sS'_defensiveReboundPercentage'
p145
S'-1.0'
p146
sS'_freeThrowsAttempRate'
p147
S'-1.9'
p148
sS'_threePointsAttempRate'
p149
S'.415'
p150
sg25
S'NBA'
p151
sS'_offensiveBoxPlusMinues'
p152
g3
sS'_assistPercentage'
p153
g3
sS'_defensiveWinShares'
p154
g3
sg34
S'22'
p155
sg36
S'NYK'
p156
sg38
S'50'
p157
sS'_blockPercentage'
p158
g3
sS'_playerEfficiencyRating'
p159
S'7.4'
p160
sS'_offensiveWinShares'
p161
g3
sg55
S'1340'
p162
sS'_boxPlusMinus'
p163
g3
sg48
S'1962-63'
p164
sS'_winShares'
p165
g3
sba(isrc.gp1.models.Advanced
Advanced
p166
(dp167
g133
S'0.0'
p168
sg135
g3
sg136
g3
sg137
g3
sg138
g3
sg139
S'-0.018'
p169
sg141
g3
sg19
g20
sg142
g3
sg143
S'.393'
p170
sg145
S'-0.1'
p171
sg147
S'-0.1'
p172
sg149
S'.233'
p173
sg25
S'NBA'
p174
sg152
g3
sg153
g3
sg154
g3
sg34
S'23'
p175
sg36
S'TOT'
p176
sg38
S'15'
p177
sg158
g3
sg159
S'3.6'
p178
sg161
g3
sg55
S'147'
p179
sg163
g3
sg48
S'1963-64'
p180
sg165
g3
sba(isrc.gp1.models.Advanced
Advanced
p181
(dp182
g133
S'0.0'
p183
sg135
g3
sg136
g3
sg137
g3
sg138
g3
sg139
S'.044'
p184
sg141
g3
sg19
g20
sg142
g3
sg143
S'.522'
p185
sg145
S'0.1'
p186
sg147
S'0.1'
p187
sg149
S'.313'
p188
sg25
S'NBA'
p189
sg152
g3
sg153
g3
sg154
g3
sg34
S'23'
p190
sg36
S'NYK'
p191
sg38
g74
sg158
g3
sg159
S'6.8'
p192
sg161
g3
sg55
S'89'
p193
sg163
g3
sg48
S'1963-64'
p194
sg165
g3
sba(isrc.gp1.models.Advanced
Advanced
p195
(dp196
g133
S'0.0'
p197
sg135
g3
sg136
g3
sg137
g3
sg138
g3
sg139
S'-0.114'
p198
sg141
g3
sg19
g20
sg142
g3
sg143
S'.235'
p199
sg145
S'-0.1'
p200
sg147
S'-0.2'
p201
sg149
S'.143'
p202
sg25
S'NBA'
p203
sg152
g3
sg153
g3
sg154
g3
sg34
S'23'
p204
sg36
S'BAL'
p205
sg38
g84
sg158
g3
sg159
S'-1.4'
p206
sg161
g3
sg55
S'58'
p207
sg163
g3
sg48
S'1963-64'
p208
sg165
g3
sbasS'_per36Minutes'
p209
(lp210
(isrc.gp1.models.Per36Minutes
Per36Minutes
p211
(dp212
g8
g3
sg9
S'.363'
p213
sg11
S'4.1'
p214
sg13
g3
sg14
S'2.1'
p215
sg16
S'11.3'
p216
sg18
g3
sg19
g20
sg21
S'10.3'
p217
sg25
S'NBA'
p218
sg27
g3
sg28
S'.363'
p219
sg30
g3
sg31
S'5.9'
p220
sg33
g3
sg34
S'22'
p221
sg36
S'NYK'
p222
sg38
S'50'
p223
sg40
g3
sg41
S'4.7'
p224
sg43
S'1.1'
p225
sg45
S'.454'
p226
sg47
g3
sg48
S'1962-63'
p227
sg50
S'11.3'
p228
sg52
g3
sg53
S'11.6'
p229
sg55
S'4.1'
p230
sg57
S'1340'
p231
sba(isrc.gp1.models.Per36Minutes
Per36Minutes
p232
(dp233
g8
g3
sg9
S'.400'
p234
sg11
S'2.9'
p235
sg13
g3
sg14
S'0.5'
p236
sg16
S'7.3'
p237
sg18
g3
sg19
g20
sg21
S'6.4'
p238
sg25
S'NBA'
p239
sg27
g3
sg28
S'.400'
p240
sg30
g3
sg31
S'8.6'
p241
sg33
g3
sg34
S'23'
p242
sg36
S'TOT'
p243
sg38
S'15'
p244
sg40
g3
sg41
S'1.7'
p245
sg43
S'1.5'
p246
sg45
S'.286'
p247
sg47
g3
sg48
S'1963-64'
p248
sg50
S'7.3'
p249
sg52
g3
sg53
S'7.6'
p250
sg55
S'2.9'
p251
sg57
S'147'
p252
sba(isrc.gp1.models.Per36Minutes
Per36Minutes
p253
(dp254
g8
g3
sg9
S'.563'
p255
sg11
S'3.6'
p256
sg13
g3
sg14
S'0.4'
p257
sg16
S'6.5'
p258
sg18
g3
sg19
g20
sg21
S'7.7'
p259
sg25
S'NBA'
p260
sg27
g3
sg28
S'.563'
p261
sg30
g3
sg31
S'6.1'
p262
sg33
g3
sg34
S'23'
p263
sg36
S'NYK'
p264
sg38
g74
sg40
g3
sg41
S'2.0'
p265
sg43
S'2.0'
p266
sg45
S'.200'
p267
sg47
g3
sg48
S'1963-64'
p268
sg50
S'6.5'
p269
sg52
g3
sg53
S'6.1'
p270
sg55
S'3.6'
p271
sg57
S'89'
p272
sba(isrc.gp1.models.Per36Minutes
Per36Minutes
p273
(dp274
g8
g3
sg9
S'.214'
p275
sg11
S'1.9'
p276
sg13
g3
sg14
S'0.6'
p277
sg16
S'8.7'
p278
sg18
g3
sg19
g20
sg21
S'4.3'
p279
sg25
S'NBA'
p280
sg27
g3
sg28
S'.214'
p281
sg30
g3
sg31
S'12.4'
p282
sg33
g3
sg34
S'23'
p283
sg36
S'BAL'
p284
sg38
g84
sg40
g3
sg41
S'1.2'
p285
sg43
S'0.6'
p286
sg45
S'.500'
p287
sg47
g3
sg48
S'1963-64'
p288
sg50
S'8.7'
p289
sg52
g3
sg53
S'9.9'
p290
sg55
S'1.9'
p291
sg57
S'58'
p292
sbasS'_fromYear'
p293
S'1963'
p294
sS'_url'
p295
S'http://www.basketball-reference.com/players/h/hoguedu01.html'
p296
sS'_perGame'
p297
(isrc.gp1.models.PerGame
PerGame
p298
(dp299
g8
g3
sg9
S'.214'
p300
sg11
S'0.3'
p301
sS'_effectiveFieldGalPercentage'
p302
S'1.8'
p303
sg13
g3
sg14
S'.214'
p304
sg16
S'1.6'
p305
sg18
g3
sg19
g20
sg21
S'0.8'
p306
sg25
S'NBA'
p307
sg27
g3
sg30
g3
sS'_fieldGoalsttempted'
p308
S'.214'
p309
sg31
S'2.2'
p310
sg33
g3
sg34
S'23'
p311
sg36
S'BAL'
p312
sg38
g84
sg40
g3
sg41
S'0.1'
p313
sg43
S'0.1'
p314
sg45
S'0.2'
p315
sg47
g3
sg48
S'1963-64'
p316
sg50
S'1.6'
p317
sg52
g3
sg53
S'.500'
p318
sg55
S'0.3'
p319
sg57
S'6.4'
p320
sbsS'_weight'
p321
S'240'
p322
sS'_dob'
p323
S'28-4-1940'
p324
sS'_salary'
p325
(lp326
sg19
g20
sb.