(isrc.gp1.models.Player
Player
p0
(dp1
S'_experience'
p2
S'NA'
p3
sS'_totals'
p4
(lp5
(isrc.gp1.models.Totals
Totals
p6
(dp7
S'_offensiveRebounds'
p8
S'0'
p9
sS'_threePointsAttempted'
p10
g9
sS'_fieldGoalsPercentage'
p11
g9
sS'_assist'
p12
S'4'
p13
sS'_threePointsPercentage'
p14
g9
sS'_threePoints'
p15
g9
sS'_points'
p16
g3
sS'_position'
p17
S'C'
p18
sS'_freeThrowsPercentage'
p19
g9
sS'_effectiveFieldGoalPercentage'
p20
g9
sS'_league'
p21
S'NBA'
p22
sS'_steals'
p23
S'1'
p24
sS'_fieldGoalsAttempted'
p25
g9
sS'_personalFouls'
p26
g3
sS'_freeThrowsAttempted'
p27
S'2'
p28
sS'_totalRebounds'
p29
g28
sS'_age'
p30
S'20'
p31
sS'_team'
p32
S'DAL'
p33
sS'_games'
p34
S'5'
p35
sS'_blocks'
p36
g3
sS'_twoPoints'
p37
g24
sS'_freeThrows'
p38
g28
sS'_twoPointsAttempted'
p39
g28
sS'_defensiveRebounds'
p40
g9
sS'_season'
p41
S'2004-05'
p42
sS'_fieldGoals'
p43
g9
sS'_turnOvers'
p44
g3
sS'_twoPointsPercentage'
p45
S'.500'
p46
sS'_minutesPlayed'
p47
S'10'
p48
sS'_gamesStarted'
p49
g9
sba(isrc.gp1.models.Totals
Totals
p50
(dp51
g8
S'7'
p52
sg10
g9
sg11
S'.000'
p53
sg12
g9
sg14
g9
sg15
g9
sg16
g3
sg17
g18
sg19
g9
sg20
S'3'
p54
sg21
S'NBA'
p55
sg23
g24
sg25
g28
sg26
g54
sg27
S'.500'
p56
sg29
g9
sg30
S'21'
p57
sg32
S'DAL'
p58
sg34
g24
sg36
g28
sg37
g28
sg38
S'6'
p59
sg39
S'.000'
p60
sg40
g52
sg41
S'2005-06'
p61
sg43
g9
sg44
g9
sg45
S'.000'
p62
sg47
S'18'
p63
sg49
g9
sbasS'_college'
p64
S'NA'
p65
sS'_toYear'
p66
S'2006'
p67
sS'_height'
p68
S'7-5'
p69
sS'_active'
p70
I00
sS'_shootingHand'
p71
VRight
p72
sS'_name'
p73
S'Pavel Podkolzin'
p74
sS'_per100Possessions'
p75
(lp76
(isrc.gp1.models.Per100Possession
Per100Possession
p77
(dp78
g8
S'0.0'
p79
sg10
S'0.0'
p80
sg11
S'0.0'
p81
sS'_offensiveRating'
p82
g3
sg12
S'10.4'
p83
sg14
S'0.0'
p84
sg15
S'0.0'
p85
sg16
g3
sg17
g18
sS'_defensiveRating'
p86
g3
sg19
S'10.4'
p87
sg21
S'NBA'
p88
sg23
S'20.7'
p89
sg25
S'0.0'
p90
sg26
S'105'
p91
sg27
S'10.4'
p92
sg29
S'0.0'
p93
sg30
S'20'
p94
sg32
S'DAL'
p95
sg34
g35
sg36
S'5.2'
p96
sg37
S'5.2'
p97
sg38
S'0.0'
p98
sg39
S'10.4'
p99
sg40
S'0.0'
p100
sg41
S'2004-05'
p101
sg43
S'0.0'
p102
sg44
S'34'
p103
sg45
S'.500'
p104
sg47
S'10'
p105
sg49
g9
sba(isrc.gp1.models.Per100Possession
Per100Possession
p106
(dp107
g8
S'21.3'
p108
sg10
S'0.0'
p109
sg11
S'.000'
p110
sg82
S'97'
p111
sg12
S'0.0'
p112
sg14
S'0.0'
p113
sg15
S'0.0'
p114
sg16
S'50'
p115
sg17
g18
sg86
g3
sg19
S'0.0'
p116
sg21
S'NBA'
p117
sg23
S'3.0'
p118
sg25
S'6.1'
p119
sg26
S'9.1'
p120
sg27
S'.500'
p121
sg29
S'0.0'
p122
sg30
S'21'
p123
sg32
S'DAL'
p124
sg34
g24
sg36
S'6.1'
p125
sg37
S'6.1'
p126
sg38
S'18.2'
p127
sg39
S'.000'
p128
sg40
S'21.3'
p129
sg41
S'2005-06'
p130
sg43
S'0.0'
p131
sg44
S'0.0'
p132
sg45
S'9.1'
p133
sg47
S'18'
p134
sg49
g9
sbasS'_advanced'
p135
(lp136
(isrc.gp1.models.Advanced
Advanced
p137
(dp138
S'_offensiveReboundPercentage'
p139
S'11.2'
p140
sS'_turnOverPercentage'
p141
S'-0.1'
p142
sS'_winSharesPer48Minutes'
p143
S'-2.5'
p144
sS'_stealPercentage'
p145
S'69.4'
p146
sS'_usagePercentage'
p147
S'0.0'
p148
sS'_totalReboundsPercentage'
p149
S'0.0'
p150
sS'_defensiveBoxPlusMinus'
p151
S'0.0'
p152
sg17
g18
sS'_valueOverReplacementPlayer'
p153
g3
sS'_trueShootingPercentage'
p154
S'.568'
p155
sS'_defensiveReboundPercentage'
p156
S'0.0'
p157
sS'_freeThrowsAttempRate'
p158
S'21.9'
p159
sS'_threePointsAttempRate'
p160
S'0.0'
p161
sg21
S'NBA'
p162
sS'_offensiveBoxPlusMinues'
p163
S'-16.8'
p164
sS'_assistPercentage'
p165
S'0.0'
p166
sS'_defensiveWinShares'
p167
S'-0.214'
p168
sg30
S'20'
p169
sg32
S'DAL'
p170
sg34
g35
sS'_blockPercentage'
p171
S'12.9'
p172
sS'_playerEfficiencyRating'
p173
S'-12.1'
p174
sS'_offensiveWinShares'
p175
S'0.0'
p176
sg47
S'10'
p177
sS'_boxPlusMinus'
p178
g3
sg41
S'2004-05'
p179
sS'_winShares'
p180
S'-14.3'
p181
sba(isrc.gp1.models.Advanced
Advanced
p182
(dp183
g139
S'0.0'
p184
sg141
S'30.1'
p185
sg143
S'-0.135'
p186
sg145
S'0.0'
p187
sg147
S'17.2'
p188
sg149
S'23.4'
p189
sg151
S'-3.1'
p190
sg17
g18
sg153
S'-0.1'
p191
sg154
S'.323'
p192
sg156
S'45.9'
p193
sg158
S'3.000'
p194
sg160
S'.000'
p195
sg21
S'NBA'
p196
sg163
S'-16.7'
p197
sg165
S'0.0'
p198
sg167
S'0.0'
p199
sg30
S'21'
p200
sg32
S'DAL'
p201
sg34
g24
sg171
S'4.2'
p202
sg173
S'2.3'
p203
sg175
S'-0.1'
p204
sg47
S'18'
p205
sg178
S'-19.8'
p206
sg41
S'2005-06'
p207
sg180
S'-0.1'
p208
sbasS'_per36Minutes'
p209
(lp210
(isrc.gp1.models.Per36Minutes
Per36Minutes
p211
(dp212
g8
S'0.0'
p213
sg10
S'0.0'
p214
sg11
S'0.0'
p215
sg12
S'7.2'
p216
sg14
S'0.0'
p217
sg15
S'0.0'
p218
sg16
g3
sg17
g18
sg19
S'7.2'
p219
sg21
S'NBA'
p220
sg23
S'14.4'
p221
sg25
S'0.0'
p222
sg26
g3
sg27
S'7.2'
p223
sg29
S'0.0'
p224
sg30
S'20'
p225
sg32
S'DAL'
p226
sg34
g35
sg36
S'3.6'
p227
sg37
S'3.6'
p228
sg38
S'0.0'
p229
sg39
S'7.2'
p230
sg40
S'0.0'
p231
sg41
S'2004-05'
p232
sg43
S'0.0'
p233
sg44
g3
sg45
S'.500'
p234
sg47
S'10'
p235
sg49
g9
sba(isrc.gp1.models.Per36Minutes
Per36Minutes
p236
(dp237
g8
S'14.0'
p238
sg10
S'0.0'
p239
sg11
S'.000'
p240
sg12
S'0.0'
p241
sg14
S'0.0'
p242
sg15
S'0.0'
p243
sg16
g3
sg17
g18
sg19
S'0.0'
p244
sg21
S'NBA'
p245
sg23
S'2.0'
p246
sg25
S'4.0'
p247
sg26
S'6.0'
p248
sg27
S'.500'
p249
sg29
S'0.0'
p250
sg30
S'21'
p251
sg32
S'DAL'
p252
sg34
g24
sg36
S'4.0'
p253
sg37
S'4.0'
p254
sg38
S'12.0'
p255
sg39
S'.000'
p256
sg40
S'14.0'
p257
sg41
S'2005-06'
p258
sg43
S'0.0'
p259
sg44
S'0.0'
p260
sg45
S'6.0'
p261
sg47
S'18'
p262
sg49
g9
sbasS'_fromYear'
p263
S'2005'
p264
sS'_url'
p265
S'http://www.basketball-reference.com/players/p/podkopa01.html'
p266
sS'_perGame'
p267
(isrc.gp1.models.PerGame
PerGame
p268
(dp269
g8
S'7.0'
p270
sg10
S'0.0'
p271
sg11
S'.000'
p272
sS'_effectiveFieldGalPercentage'
p273
S'3.0'
p274
sg12
S'0.0'
p275
sg14
S'0.0'
p276
sg15
S'0.0'
p277
sg16
g3
sg17
g18
sg19
S'0.0'
p278
sg21
S'NBA'
p279
sg23
S'1.0'
p280
sg26
S'3.0'
p281
sS'_fieldGoalsttempted'
p282
S'2.0'
p283
sg27
S'.500'
p284
sg29
S'0.0'
p285
sg30
S'21'
p286
sg32
S'DAL'
p287
sg34
g24
sg36
S'2.0'
p288
sg37
S'2.0'
p289
sg38
S'6.0'
p290
sg39
S'.000'
p291
sg40
S'7.0'
p292
sg41
S'2005-06'
p293
sg43
S'0.0'
p294
sg44
S'0.0'
p295
sg45
S'.000'
p296
sg47
S'18.0'
p297
sg49
g9
sbsS'_weight'
p298
S'260'
p299
sS'_dob'
p300
S'15-1-1985'
p301
sS'_salary'
p302
(lp303
(isrc.gp1.models.Salary
Salary
p304
(dp305
g32
S'Dallas Mavericks'
p306
sg21
S'NBA'
p307
sg302
S'$1,061,880'
p308
sg41
S'2004-05'
p309
sba(isrc.gp1.models.Salary
Salary
p310
(dp311
g32
S'Dallas Mavericks'
p312
sg21
S'NBA'
p313
sg302
S'$1,141,560'
p314
sg41
S'2005-06'
p315
sba(isrc.gp1.models.Salary
Salary
p316
(dp317
g32
S'Dallas Mavericks'
p318
sg21
S'NBA'
p319
sg302
S'$600,000'
p320
sg41
S'2006-07'
p321
sbasg17
g18
sb.