(isrc.gp1.models.Player
Player
p0
(dp1
S'_experience'
p2
S'NA'
p3
sS'_totals'
p4
(lp5
(isrc.gp1.models.Totals
Totals
p6
(dp7
S'_offensiveRebounds'
p8
g3
sS'_threePointsAttempted'
p9
g3
sS'_fieldGoalsPercentage'
p10
S'.296'
p11
sS'_assist'
p12
S'86'
p13
sS'_threePointsPercentage'
p14
g3
sS'_threePoints'
p15
g3
sS'_points'
p16
S'317'
p17
sS'_position'
p18
S'SG'
p19
sS'_freeThrowsPercentage'
p20
S'.699'
p21
sS'_effectiveFieldGoalPercentage'
p22
S'.296'
p23
sS'_league'
p24
S'NBA'
p25
sS'_steals'
p26
g3
sS'_fieldGoalsAttempted'
p27
S'331'
p28
sS'_personalFouls'
p29
S'113'
p30
sS'_freeThrowsAttempted'
p31
S'173'
p32
sS'_totalRebounds'
p33
g3
sS'_age'
p34
S'23'
p35
sS'_team'
p36
S'TOT'
p37
sS'_games'
p38
S'52'
p39
sS'_blocks'
p40
g3
sS'_twoPoints'
p41
S'98'
p42
sS'_freeThrows'
p43
S'121'
p44
sS'_twoPointsAttempted'
p45
S'331'
p46
sS'_defensiveRebounds'
p47
g3
sS'_season'
p48
S'1949-50'
p49
sS'_fieldGoals'
p50
S'98'
p51
sS'_turnOvers'
p52
g3
sS'_twoPointsPercentage'
p53
S'.296'
p54
sS'_minutesPlayed'
p55
g3
sS'_gamesStarted'
p56
g3
sba(isrc.gp1.models.Totals
Totals
p57
(dp58
g8
g3
sg9
g3
sg10
S'.375'
p59
sg12
S'8'
p60
sg14
g3
sg15
g3
sg16
S'37'
p61
sg18
S'SG'
p62
sg20
S'.619'
p63
sg22
S'.375'
p64
sg24
S'NBA'
p65
sg26
g3
sg27
S'32'
p66
sg29
S'18'
p67
sg31
S'21'
p68
sg33
g3
sg34
S'23'
p69
sg36
S'PHW'
p70
sg38
S'17'
p71
sg40
g3
sg41
S'12'
p72
sg43
S'13'
p73
sg45
S'32'
p74
sg47
g3
sg48
S'1949-50'
p75
sg50
S'12'
p76
sg52
g3
sg53
S'.375'
p77
sg55
g3
sg56
g3
sba(isrc.gp1.models.Totals
Totals
p78
(dp79
g8
g3
sg9
g3
sg10
S'.288'
p80
sg12
S'78'
p81
sg14
g3
sg15
g3
sg16
S'280'
p82
sg18
S'SG'
p83
sg20
S'.711'
p84
sg22
S'.288'
p85
sg24
S'NBA'
p86
sg26
g3
sg27
S'299'
p87
sg29
S'95'
p88
sg31
S'152'
p89
sg33
g3
sg34
S'23'
p90
sg36
S'WAT'
p91
sg38
S'35'
p92
sg40
g3
sg41
S'86'
p93
sg43
S'108'
p94
sg45
S'299'
p95
sg47
g3
sg48
S'1949-50'
p96
sg50
S'86'
p97
sg52
g3
sg53
S'.288'
p98
sg55
g3
sg56
g3
sba(isrc.gp1.models.Totals
Totals
p99
(dp100
g8
g3
sg9
g3
sg10
g3
sg12
g3
sg14
g3
sg15
g3
sg16
g3
sg18
g3
sg20
g3
sg22
g3
sg24
g3
sg26
g3
sg27
g3
sg29
g3
sg31
g3
sg33
g3
sg34
S'24'
p101
sg36
S'Did Not Play\xc2\xa0(other pro league\xe2\x80\x94NPBL)'
p102
sg38
g3
sg40
g3
sg41
g3
sg43
g3
sg45
g3
sg47
g3
sg48
S'1950-51'
p103
sg50
g3
sg52
g3
sg53
g3
sg55
g3
sg56
g3
sba(isrc.gp1.models.Totals
Totals
p104
(dp105
g8
g3
sg9
g3
sg10
g3
sg12
g3
sg14
g3
sg15
g3
sg16
g3
sg18
g3
sg20
g3
sg22
g3
sg24
g3
sg26
g3
sg27
g3
sg29
g3
sg31
g3
sg33
g3
sg34
S'25'
p106
sg36
S'Did Not Play\xc2\xa0(other pro league\xe2\x80\x94NPBL)'
p107
sg38
g3
sg40
g3
sg41
g3
sg43
g3
sg45
g3
sg47
g3
sg48
S'1951-52'
p108
sg50
g3
sg52
g3
sg53
g3
sg55
g3
sg56
g3
sba(isrc.gp1.models.Totals
Totals
p109
(dp110
g8
g3
sg9
g3
sg10
S'.343'
p111
sg12
S'140'
p112
sg14
g3
sg15
g3
sg16
S'436'
p113
sg18
S'SG'
p114
sg20
S'.726'
p115
sg22
S'.343'
p116
sg24
S'NBA'
p117
sg26
g3
sg27
S'373'
p118
sg29
S'194'
p119
sg31
S'248'
p120
sg33
S'114'
p121
sg34
S'26'
p122
sg36
S'MLH'
p123
sg38
S'68'
p124
sg40
g3
sg41
S'128'
p125
sg43
S'180'
p126
sg45
S'373'
p127
sg47
g3
sg48
S'1952-53'
p128
sg50
S'128'
p129
sg52
g3
sg53
S'.343'
p130
sg55
S'1470'
p131
sg56
g3
sbasS'_college'
p132
S'Bowling Green State University'
p133
sS'_toYear'
p134
S'1953'
p135
sS'_height'
p136
S'6-4'
p137
sS'_active'
p138
I00
sS'_shootingHand'
p139
VRight
p140
sS'_name'
p141
S'Johnny Payak'
p142
sS'_per100Possessions'
p143
(lp144
sS'_advanced'
p145
(lp146
(isrc.gp1.models.Advanced
Advanced
p147
(dp148
S'_offensiveReboundPercentage'
p149
g3
sS'_turnOverPercentage'
p150
g3
sS'_winSharesPer48Minutes'
p151
g3
sS'_stealPercentage'
p152
g3
sS'_usagePercentage'
p153
g3
sS'_totalReboundsPercentage'
p154
g3
sS'_defensiveBoxPlusMinus'
p155
g3
sg18
S'SG'
p156
sS'_valueOverReplacementPlayer'
p157
g3
sS'_trueShootingPercentage'
p158
S'.389'
p159
sS'_defensiveReboundPercentage'
p160
g3
sS'_freeThrowsAttempRate'
p161
S'.523'
p162
sS'_threePointsAttempRate'
p163
g3
sg24
S'NBA'
p164
sS'_offensiveBoxPlusMinues'
p165
g3
sS'_assistPercentage'
p166
g3
sS'_defensiveWinShares'
p167
S'-0.1'
p168
sg34
S'23'
p169
sg36
S'TOT'
p170
sg38
S'52'
p171
sS'_blockPercentage'
p172
g3
sS'_playerEfficiencyRating'
p173
g3
sS'_offensiveWinShares'
p174
S'0.5'
p175
sg55
g3
sS'_boxPlusMinus'
p176
g3
sg48
S'1949-50'
p177
sS'_winShares'
p178
S'0.4'
p179
sba(isrc.gp1.models.Advanced
Advanced
p180
(dp181
g149
g3
sg150
g3
sg151
g3
sg152
g3
sg153
g3
sg154
g3
sg155
g3
sg18
S'SG'
p182
sg157
g3
sg158
S'.449'
p183
sg160
g3
sg161
S'.656'
p184
sg163
g3
sg24
S'NBA'
p185
sg165
g3
sg166
g3
sg167
S'0.2'
p186
sg34
S'23'
p187
sg36
S'PHW'
p188
sg38
S'17'
p189
sg172
g3
sg173
g3
sg174
S'0.2'
p190
sg55
g3
sg176
g3
sg48
S'1949-50'
p191
sg178
S'0.5'
p192
sba(isrc.gp1.models.Advanced
Advanced
p193
(dp194
g149
g3
sg150
g3
sg151
g3
sg152
g3
sg153
g3
sg154
g3
sg155
g3
sg18
S'SG'
p195
sg157
g3
sg158
S'.383'
p196
sg160
g3
sg161
S'.508'
p197
sg163
g3
sg24
S'NBA'
p198
sg165
g3
sg166
g3
sg167
S'-0.3'
p199
sg34
S'23'
p200
sg36
S'WAT'
p201
sg38
S'35'
p202
sg172
g3
sg173
g3
sg174
S'0.2'
p203
sg55
g3
sg176
g3
sg48
S'1949-50'
p204
sg178
S'-0.1'
p205
sba(isrc.gp1.models.Advanced
Advanced
p206
(dp207
g149
g3
sg150
g3
sg151
S'.115'
p208
sg152
g3
sg153
g3
sg154
g3
sg155
g3
sg18
S'SG'
p209
sg157
g3
sg158
S'.452'
p210
sg160
g3
sg161
S'.665'
p211
sg163
g3
sg24
S'NBA'
p212
sg165
g3
sg166
g3
sg167
S'1.7'
p213
sg34
S'26'
p214
sg36
S'MLH'
p215
sg38
S'68'
p216
sg172
g3
sg173
S'11.9'
p217
sg174
S'1.8'
p218
sg55
S'1470'
p219
sg176
g3
sg48
S'1952-53'
p220
sg178
S'3.5'
p221
sbasS'_per36Minutes'
p222
(lp223
(isrc.gp1.models.Per36Minutes
Per36Minutes
p224
(dp225
g8
g3
sg9
g3
sg10
S'.296'
p226
sg12
g3
sg14
g3
sg15
g3
sg16
g3
sg18
S'SG'
p227
sg20
S'.699'
p228
sg24
S'NBA'
p229
sg26
g3
sg27
g3
sg29
g3
sg31
g3
sg33
g3
sg34
S'23'
p230
sg36
S'TOT'
p231
sg38
S'52'
p232
sg40
g3
sg41
g3
sg43
g3
sg45
g3
sg47
g3
sg48
S'1949-50'
p233
sg50
g3
sg52
g3
sg53
S'.296'
p234
sg55
g3
sg56
g3
sba(isrc.gp1.models.Per36Minutes
Per36Minutes
p235
(dp236
g8
g3
sg9
g3
sg10
S'.375'
p237
sg12
g3
sg14
g3
sg15
g3
sg16
g3
sg18
S'SG'
p238
sg20
S'.619'
p239
sg24
S'NBA'
p240
sg26
g3
sg27
g3
sg29
g3
sg31
g3
sg33
g3
sg34
S'23'
p241
sg36
S'PHW'
p242
sg38
S'17'
p243
sg40
g3
sg41
g3
sg43
g3
sg45
g3
sg47
g3
sg48
S'1949-50'
p244
sg50
g3
sg52
g3
sg53
S'.375'
p245
sg55
g3
sg56
g3
sba(isrc.gp1.models.Per36Minutes
Per36Minutes
p246
(dp247
g8
g3
sg9
g3
sg10
S'.288'
p248
sg12
g3
sg14
g3
sg15
g3
sg16
g3
sg18
S'SG'
p249
sg20
S'.711'
p250
sg24
S'NBA'
p251
sg26
g3
sg27
g3
sg29
g3
sg31
g3
sg33
g3
sg34
S'23'
p252
sg36
S'WAT'
p253
sg38
S'35'
p254
sg40
g3
sg41
g3
sg43
g3
sg45
g3
sg47
g3
sg48
S'1949-50'
p255
sg50
g3
sg52
g3
sg53
S'.288'
p256
sg55
g3
sg56
g3
sba(isrc.gp1.models.Per36Minutes
Per36Minutes
p257
(dp258
g8
g3
sg9
g3
sg10
S'.343'
p259
sg12
S'3.4'
p260
sg14
g3
sg15
g3
sg16
S'10.7'
p261
sg18
S'SG'
p262
sg20
S'.726'
p263
sg24
S'NBA'
p264
sg26
g3
sg27
S'9.1'
p265
sg29
S'4.8'
p266
sg31
S'6.1'
p267
sg33
S'2.8'
p268
sg34
S'26'
p269
sg36
S'MLH'
p270
sg38
S'68'
p271
sg40
g3
sg41
S'3.1'
p272
sg43
S'4.4'
p273
sg45
S'9.1'
p274
sg47
g3
sg48
S'1952-53'
p275
sg50
S'3.1'
p276
sg52
g3
sg53
S'.343'
p277
sg55
S'1470'
p278
sg56
g3
sbasS'_fromYear'
p279
S'1950'
p280
sS'_url'
p281
S'http://www.basketball-reference.com/players/p/payakjo01.html'
p282
sS'_perGame'
p283
(isrc.gp1.models.PerGame
PerGame
p284
(dp285
g8
g3
sg9
g3
sg10
S'.343'
p286
sS'_effectiveFieldGalPercentage'
p287
S'.343'
p288
sg12
S'2.1'
p289
sg14
g3
sg15
g3
sg16
S'6.4'
p290
sg18
S'SG'
p291
sg20
S'.726'
p292
sg24
S'NBA'
p293
sg26
g3
sg29
S'2.9'
p294
sS'_fieldGoalsttempted'
p295
S'5.5'
p296
sg31
S'3.6'
p297
sg33
S'1.7'
p298
sg34
S'26'
p299
sg36
S'MLH'
p300
sg38
S'68'
p301
sg40
g3
sg41
S'1.9'
p302
sg43
S'2.6'
p303
sg45
S'5.5'
p304
sg47
g3
sg48
S'1952-53'
p305
sg50
S'1.9'
p306
sg52
g3
sg53
S'.343'
p307
sg55
S'21.6'
p308
sg56
g3
sbsS'_weight'
p309
S'174'
p310
sS'_dob'
p311
S'20-11-1926'
p312
sS'_salary'
p313
(lp314
sg18
S'G-F'
p315
sb.