(isrc.gp1.models.Player
Player
p0
(dp1
S'_experience'
p2
S'NA'
p3
sS'_totals'
p4
(lp5
(isrc.gp1.models.Totals
Totals
p6
(dp7
S'_offensiveRebounds'
p8
S'108'
p9
sS'_threePointsAttempted'
p10
S'13'
p11
sS'_fieldGoalsPercentage'
p12
S'.450'
p13
sS'_assist'
p14
S'528'
p15
sS'_threePointsPercentage'
p16
S'.077'
p17
sS'_threePoints'
p18
S'1'
p19
sS'_points'
p20
S'588'
p21
sS'_position'
p22
S'PG'
p23
sS'_freeThrowsPercentage'
p24
S'.711'
p25
sS'_effectiveFieldGoalPercentage'
p26
S'.451'
p27
sS'_league'
p28
S'NBA'
p29
sS'_steals'
p30
S'165'
p31
sS'_fieldGoalsAttempted'
p32
S'575'
p33
sS'_personalFouls'
p34
S'249'
p35
sS'_freeThrowsAttempted'
p36
S'97'
p37
sS'_totalRebounds'
p38
S'243'
p39
sS'_age'
p40
S'22'
p41
sS'_team'
p42
S'SEA'
p43
sS'_games'
p44
S'82'
p45
sS'_blocks'
p46
S'15'
p47
sS'_twoPoints'
p48
S'258'
p49
sS'_freeThrows'
p50
S'69'
p51
sS'_twoPointsAttempted'
p52
S'562'
p53
sS'_defensiveRebounds'
p54
S'135'
p55
sS'_season'
p56
S'1990-91'
p57
sS'_fieldGoals'
p58
S'259'
p59
sS'_turnOvers'
p60
S'180'
p61
sS'_twoPointsPercentage'
p62
S'.459'
p63
sS'_minutesPlayed'
p64
S'2244'
p65
sS'_gamesStarted'
p66
S'82'
p67
sba(isrc.gp1.models.Totals
Totals
p68
(dp69
g8
S'123'
p70
sg10
S'23'
p71
sg12
S'.451'
p72
sg14
S'506'
p73
sg16
S'.130'
p74
sg18
S'3'
p75
sg20
S'764'
p76
sg22
S'PG'
p77
sg24
S'.669'
p78
sg26
S'.453'
p79
sg28
S'NBA'
p80
sg30
S'147'
p81
sg32
S'734'
p82
sg34
S'248'
p83
sg36
S'148'
p84
sg38
S'295'
p85
sg40
S'23'
p86
sg42
S'SEA'
p87
sg44
S'81'
p88
sg46
S'21'
p89
sg48
S'328'
p90
sg50
S'99'
p91
sg52
S'711'
p92
sg54
S'172'
p93
sg56
S'1991-92'
p94
sg58
S'331'
p95
sg60
S'174'
p96
sg62
S'.461'
p97
sg64
S'2549'
p98
sg66
S'79'
p99
sba(isrc.gp1.models.Totals
Totals
p100
(dp101
g8
S'95'
p102
sg10
S'34'
p103
sg12
S'.494'
p104
sg14
S'399'
p105
sg16
S'.206'
p106
sg18
S'7'
p107
sg20
S'1110'
p108
sg22
S'PG'
p109
sg24
S'.770'
p110
sg26
S'.498'
p111
sg28
S'NBA'
p112
sg30
S'177'
p113
sg32
S'963'
p114
sg34
S'250'
p115
sg36
S'196'
p116
sg38
S'281'
p117
sg40
S'24'
p118
sg42
S'SEA'
p119
sg44
S'82'
p120
sg46
S'21'
p121
sg48
S'469'
p122
sg50
S'151'
p123
sg52
S'929'
p124
sg54
S'186'
p125
sg56
S'1992-93'
p126
sg58
S'476'
p127
sg60
S'148'
p128
sg62
S'.505'
p129
sg64
S'2548'
p130
sg66
S'78'
p131
sba(isrc.gp1.models.Totals
Totals
p132
(dp133
g8
S'105'
p134
sg10
S'54'
p135
sg12
S'.504'
p136
sg14
S'494'
p137
sg16
S'.278'
p138
sg18
S'15'
p139
sg20
S'1349'
p140
sg22
S'PG'
p141
sg24
S'.595'
p142
sg26
S'.510'
p143
sg28
S'NBA'
p144
sg30
S'188'
p145
sg32
S'1159'
p146
sg34
S'227'
p147
sg36
S'279'
p148
sg38
S'269'
p149
sg40
S'25'
p150
sg42
S'SEA'
p151
sg44
S'82'
p152
sg46
S'19'
p153
sg48
S'569'
p154
sg50
S'166'
p155
sg52
S'1105'
p156
sg54
S'164'
p157
sg56
S'1993-94'
p158
sg58
S'584'
p159
sg60
S'173'
p160
sg62
S'.515'
p161
sg64
S'2881'
p162
sg66
S'82'
p163
sba(isrc.gp1.models.Totals
Totals
p164
(dp165
g8
S'108'
p166
sg10
S'232'
p167
sg12
S'.509'
p168
sg14
S'583'
p169
sg16
S'.302'
p170
sg18
S'70'
p171
sg20
S'1689'
p172
sg22
S'PG'
p173
sg24
S'.716'
p174
sg26
S'.535'
p175
sg28
S'NBA'
p176
sg30
S'204'
p177
sg32
S'1345'
p178
sg34
S'206'
p179
sg36
S'348'
p180
sg38
S'281'
p181
sg40
S'26'
p182
sg42
S'SEA'
p183
sg44
S'82'
p184
sg46
S'13'
p185
sg48
S'615'
p186
sg50
S'249'
p187
sg52
S'1113'
p188
sg54
S'173'
p189
sg56
S'1994-95'
p190
sg58
S'685'
p191
sg60
S'201'
p192
sg62
S'.553'
p193
sg64
S'3015'
p194
sg66
S'82'
p195
sba(isrc.gp1.models.Totals
Totals
p196
(dp197
g8
S'104'
p198
sg10
S'299'
p199
sg12
S'.484'
p200
sg14
S'608'
p201
sg16
S'.328'
p202
sg18
S'98'
p203
sg20
S'1563'
p204
sg22
S'PG'
p205
sg24
S'.748'
p206
sg26
S'.523'
p207
sg28
S'NBA'
p208
sg30
S'231'
p209
sg32
S'1276'
p210
sg34
S'221'
p211
sg36
S'306'
p212
sg38
S'339'
p213
sg40
S'27'
p214
sg42
S'SEA'
p215
sg44
S'81'
p216
sg46
S'19'
p217
sg48
S'520'
p218
sg50
S'229'
p219
sg52
S'977'
p220
sg54
S'235'
p221
sg56
S'1995-96'
p222
sg58
S'618'
p223
sg60
S'260'
p224
sg62
S'.532'
p225
sg64
S'3162'
p226
sg66
S'81'
p227
sba(isrc.gp1.models.Totals
Totals
p228
(dp229
g8
S'106'
p230
sg10
S'380'
p231
sg12
S'.476'
p232
sg14
S'583'
p233
sg16
S'.313'
p234
sg18
S'119'
p235
sg20
S'1785'
p236
sg22
S'PG'
p237
sg24
S'.715'
p238
sg26
S'.517'
p239
sg28
S'NBA'
p240
sg30
S'197'
p241
sg32
S'1482'
p242
sg34
S'208'
p243
sg36
S'355'
p244
sg38
S'378'
p245
sg40
S'28'
p246
sg42
S'SEA'
p247
sg44
S'82'
p248
sg46
S'13'
p249
sg48
S'587'
p250
sg50
S'254'
p251
sg52
S'1102'
p252
sg54
S'272'
p253
sg56
S'1996-97'
p254
sg58
S'706'
p255
sg60
S'215'
p256
sg62
S'.533'
p257
sg64
S'3213'
p258
sg66
S'82'
p259
sba(isrc.gp1.models.Totals
Totals
p260
(dp261
g8
S'77'
p262
sg10
S'397'
p263
sg12
S'.453'
p264
sg14
S'679'
p265
sg16
S'.338'
p266
sg18
S'134'
p267
sg20
S'1571'
p268
sg22
S'PG'
p269
sg24
S'.744'
p270
sg26
S'.505'
p271
sg28
S'NBA'
p272
sg30
S'185'
p273
sg32
S'1278'
p274
sg34
S'195'
p275
sg36
S'375'
p276
sg38
S'376'
p277
sg40
S'29'
p278
sg42
S'SEA'
p279
sg44
S'82'
p280
sg46
S'18'
p281
sg48
S'445'
p282
sg50
S'279'
p283
sg52
S'881'
p284
sg54
S'299'
p285
sg56
S'1997-98'
p286
sg58
S'579'
p287
sg60
S'229'
p288
sg62
S'.505'
p289
sg64
S'3145'
p290
sg66
S'82'
p291
sba(isrc.gp1.models.Totals
Totals
p292
(dp293
g8
S'62'
p294
sg10
S'281'
p295
sg12
S'.434'
p296
sg14
S'436'
p297
sg16
S'.295'
p298
sg18
S'83'
p299
sg20
S'1084'
p300
sg22
S'PG'
p301
sg24
S'.721'
p302
sg26
S'.479'
p303
sg28
S'NBA'
p304
sg30
S'109'
p305
sg32
S'923'
p306
sg34
S'115'
p307
sg36
S'276'
p308
sg38
S'244'
p309
sg40
S'30'
p310
sg42
S'SEA'
p311
sg44
S'50'
p312
sg46
S'12'
p313
sg48
S'318'
p314
sg50
S'199'
p315
sg52
S'642'
p316
sg54
S'182'
p317
sg56
S'1998-99'
p318
sg58
S'401'
p319
sg60
S'154'
p320
sg62
S'.495'
p321
sg64
S'2008'
p322
sg66
S'50'
p323
sba(isrc.gp1.models.Totals
Totals
p324
(dp325
g8
S'100'
p326
sg10
S'520'
p327
sg12
S'.448'
p328
sg14
S'732'
p329
sg16
S'.340'
p330
sg18
S'177'
p331
sg20
S'1982'
p332
sg22
S'PG'
p333
sg24
S'.735'
p334
sg26
S'.502'
p335
sg28
S'NBA'
p336
sg30
S'153'
p337
sg32
S'1666'
p338
sg34
S'178'
p339
sg36
S'423'
p340
sg38
S'529'
p341
sg40
S'31'
p342
sg42
S'SEA'
p343
sg44
S'82'
p344
sg46
S'18'
p345
sg48
S'570'
p346
sg50
S'311'
p347
sg52
S'1146'
p348
sg54
S'429'
p349
sg56
S'1999-00'
p350
sg58
S'747'
p351
sg60
S'224'
p352
sg62
S'.497'
p353
sg64
S'3425'
p354
sg66
S'82'
p355
sba(isrc.gp1.models.Totals
Totals
p356
(dp357
g8
S'73'
p358
sg10
S'272'
p359
sg12
S'.456'
p360
sg14
S'642'
p361
sg16
S'.375'
p362
sg18
S'102'
p363
sg20
S'1823'
p364
sg22
S'PG'
p365
sg24
S'.766'
p366
sg26
S'.488'
p367
sg28
S'NBA'
p368
sg30
S'127'
p369
sg32
S'1591'
p370
sg34
S'184'
p371
sg36
S'354'
p372
sg38
S'361'
p373
sg40
S'32'
p374
sg42
S'SEA'
p375
sg44
S'79'
p376
sg46
S'26'
p377
sg48
S'623'
p378
sg50
S'271'
p379
sg52
S'1319'
p380
sg54
S'288'
p381
sg56
S'2000-01'
p382
sg58
S'725'
p383
sg60
S'209'
p384
sg62
S'.472'
p385
sg64
S'3244'
p386
sg66
S'79'
p387
sba(isrc.gp1.models.Totals
Totals
p388
(dp389
g8
S'80'
p390
sg10
S'236'
p391
sg12
S'.467'
p392
sg14
S'737'
p393
sg16
S'.314'
p394
sg18
S'74'
p395
sg20
S'1815'
p396
sg22
S'PG'
p397
sg24
S'.797'
p398
sg26
S'.490'
p399
sg28
S'NBA'
p400
sg30
S'131'
p401
sg32
S'1578'
p402
sg34
S'179'
p403
sg36
S'335'
p404
sg38
S'396'
p405
sg40
S'33'
p406
sg42
S'SEA'
p407
sg44
S'82'
p408
sg46
S'26'
p409
sg48
S'663'
p410
sg50
S'267'
p411
sg52
S'1342'
p412
sg54
S'316'
p413
sg56
S'2001-02'
p414
sg58
S'737'
p415
sg60
S'209'
p416
sg62
S'.494'
p417
sg64
S'3301'
p418
sg66
S'82'
p419
sba(isrc.gp1.models.Totals
Totals
p420
(dp421
g8
S'79'
p422
sg10
S'182'
p423
sg12
S'.454'
p424
sg14
S'663'
p425
sg16
S'.297'
p426
sg18
S'54'
p427
sg20
S'1634'
p428
sg22
S'PG'
p429
sg24
S'.710'
p430
sg26
S'.472'
p431
sg28
S'NBA'
p432
sg30
S'133'
p433
sg32
S'1466'
p434
sg34
S'181'
p435
sg36
S'352'
p436
sg38
S'334'
p437
sg40
S'34'
p438
sg42
S'TOT'
p439
sg44
S'80'
p440
sg46
S'20'
p441
sg48
S'611'
p442
sg50
S'250'
p443
sg52
S'1284'
p444
sg54
S'255'
p445
sg56
S'2002-03'
p446
sg58
S'665'
p447
sg60
S'187'
p448
sg62
S'.476'
p449
sg64
S'3208'
p450
sg66
S'80'
p451
sba(isrc.gp1.models.Totals
Totals
p452
(dp453
g8
S'56'
p454
sg10
S'114'
p455
sg12
S'.448'
p456
sg14
S'457'
p457
sg16
S'.298'
p458
sg18
S'34'
p459
sg20
S'1084'
p460
sg22
S'PG'
p461
sg24
S'.692'
p462
sg26
S'.465'
p463
sg28
S'NBA'
p464
sg30
S'93'
p465
sg32
S'992'
p466
sg34
S'117'
p467
sg36
S'234'
p468
sg38
S'248'
p469
sg40
S'34'
p470
sg42
S'SEA'
p471
sg44
S'52'
p472
sg46
S'12'
p473
sg48
S'410'
p474
sg50
S'162'
p475
sg52
S'878'
p476
sg54
S'192'
p477
sg56
S'2002-03'
p478
sg58
S'444'
p479
sg60
S'131'
p480
sg62
S'.467'
p481
sg64
S'2123'
p482
sg66
S'52'
p483
sba(isrc.gp1.models.Totals
Totals
p484
(dp485
g8
S'23'
p486
sg10
S'68'
p487
sg12
S'.466'
p488
sg14
S'206'
p489
sg16
S'.294'
p490
sg18
S'20'
p491
sg20
S'550'
p492
sg22
S'PG'
p493
sg24
S'.746'
p494
sg26
S'.487'
p495
sg28
S'NBA'
p496
sg30
S'40'
p497
sg32
S'474'
p498
sg34
S'64'
p499
sg36
S'118'
p500
sg38
S'86'
p501
sg40
S'34'
p502
sg42
S'MIL'
p503
sg44
S'28'
p504
sg46
S'8'
p505
sg48
S'201'
p506
sg50
S'88'
p507
sg52
S'406'
p508
sg54
S'63'
p509
sg56
S'2002-03'
p510
sg58
S'221'
p511
sg60
S'56'
p512
sg62
S'.495'
p513
sg64
S'1085'
p514
sg66
S'28'
p515
sba(isrc.gp1.models.Totals
Totals
p516
(dp517
g8
S'72'
p518
sg10
S'165'
p519
sg12
S'.471'
p520
sg14
S'449'
p521
sg16
S'.333'
p522
sg18
S'55'
p523
sg20
S'1199'
p524
sg22
S'PG'
p525
sg24
S'.714'
p526
sg26
S'.498'
p527
sg28
S'NBA'
p528
sg30
S'96'
p529
sg32
S'1024'
p530
sg34
S'169'
p531
sg36
S'252'
p532
sg38
S'342'
p533
sg40
S'35'
p534
sg42
S'LAL'
p535
sg44
S'82'
p536
sg46
S'19'
p537
sg48
S'427'
p538
sg50
S'180'
p539
sg52
S'859'
p540
sg54
S'270'
p541
sg56
S'2003-04'
p542
sg58
S'482'
p543
sg60
S'151'
p544
sg62
S'.497'
p545
sg64
S'2825'
p546
sg66
S'82'
p547
sba(isrc.gp1.models.Totals
Totals
p548
(dp549
g8
S'48'
p550
sg10
S'129'
p551
sg12
S'.468'
p552
sg14
S'469'
p553
sg16
S'.326'
p554
sg18
S'42'
p555
sg20
S'873'
p556
sg22
S'PG'
p557
sg24
S'.761'
p558
sg26
S'.497'
p559
sg28
S'NBA'
p560
sg30
S'88'
p561
sg32
S'725'
p562
sg34
S'121'
p563
sg36
S'201'
p564
sg38
S'236'
p565
sg40
S'36'
p566
sg42
S'BOS'
p567
sg44
S'77'
p568
sg46
S'12'
p569
sg48
S'297'
p570
sg50
S'153'
p571
sg52
S'596'
p572
sg54
S'188'
p573
sg56
S'2004-05'
p574
sg58
S'339'
p575
sg60
S'148'
p576
sg62
S'.498'
p577
sg64
S'2541'
p578
sg66
S'77'
p579
sba(isrc.gp1.models.Totals
Totals
p580
(dp581
g8
S'34'
p582
sg10
S'230'
p583
sg12
S'.420'
p584
sg14
S'257'
p585
sg16
S'.287'
p586
sg18
S'66'
p587
sg20
S'626'
p588
sg22
S'PG'
p589
sg24
S'.794'
p590
sg26
S'.481'
p591
sg28
S'NBA'
p592
sg30
S'71'
p593
sg32
S'547'
p594
sg34
S'169'
p595
sg36
S'126'
p596
sg38
S'233'
p597
sg40
S'37'
p598
sg42
S'MIA'
p599
sg44
S'81'
p600
sg46
S'10'
p601
sg48
S'164'
p602
sg50
S'100'
p603
sg52
S'317'
p604
sg54
S'199'
p605
sg56
S'2005-06'
p606
sg58
S'230'
p607
sg60
S'102'
p608
sg62
S'.517'
p609
sg64
S'2305'
p610
sg66
S'25'
p611
sba(isrc.gp1.models.Totals
Totals
p612
(dp613
g8
S'18'
p614
sg10
S'123'
p615
sg12
S'.393'
p616
sg14
S'201'
p617
sg16
S'.260'
p618
sg18
S'32'
p619
sg20
S'358'
p620
sg22
S'PG'
p621
sg24
S'.667'
p622
sg26
S'.437'
p623
sg28
S'NBA'
p624
sg30
S'43'
p625
sg32
S'366'
p626
sg34
S'117'
p627
sg36
S'57'
p628
sg38
S'132'
p629
sg40
S'38'
p630
sg42
S'MIA'
p631
sg44
S'68'
p632
sg46
g75
sg48
S'112'
p633
sg50
S'38'
p634
sg52
S'243'
p635
sg54
S'114'
p636
sg56
S'2006-07'
p637
sg58
S'144'
p638
sg60
S'66'
p639
sg62
S'.461'
p640
sg64
S'1503'
p641
sg66
S'28'
p642
sbasS'_college'
p643
S'Oregon State University'
p644
sS'_toYear'
p645
S'2007'
p646
sS'_height'
p647
S'6-4'
p648
sS'_active'
p649
I00
sS'_shootingHand'
p650
VRight
p651
sS'_name'
p652
S'Gary Payton'
p653
sS'_per100Possessions'
p654
(lp655
(isrc.gp1.models.Per100Possession
Per100Possession
p656
(dp657
g8
S'2.4'
p658
sg10
S'0.3'
p659
sg12
S'.450'
p660
sS'_offensiveRating'
p661
S'104'
p662
sg14
S'11.7'
p663
sg16
S'.077'
p664
sg18
S'0.0'
p665
sg20
S'13.1'
p666
sg22
S'PG'
p667
sS'_defensiveRating'
p668
S'108'
p669
sg24
S'.711'
p670
sg28
S'NBA'
p671
sg30
S'3.7'
p672
sg32
S'12.8'
p673
sg34
S'5.5'
p674
sg36
S'2.2'
p675
sg38
S'5.4'
p676
sg40
S'22'
p677
sg42
S'SEA'
p678
sg44
S'82'
p679
sg46
S'0.3'
p680
sg48
S'5.7'
p681
sg50
S'1.5'
p682
sg52
S'12.5'
p683
sg54
S'3.0'
p684
sg56
S'1990-91'
p685
sg58
S'5.8'
p686
sg60
S'4.0'
p687
sg62
S'.459'
p688
sg64
S'2244'
p689
sg66
S'82'
p690
sba(isrc.gp1.models.Per100Possession
Per100Possession
p691
(dp692
g8
S'2.4'
p693
sg10
S'0.5'
p694
sg12
S'.451'
p695
sg661
S'106'
p696
sg14
S'10.0'
p697
sg16
S'.130'
p698
sg18
S'0.1'
p699
sg20
S'15.1'
p700
sg22
S'PG'
p701
sg668
S'109'
p702
sg24
S'.669'
p703
sg28
S'NBA'
p704
sg30
S'2.9'
p705
sg32
S'14.5'
p706
sg34
S'4.9'
p707
sg36
S'2.9'
p708
sg38
S'5.8'
p709
sg40
S'23'
p710
sg42
S'SEA'
p711
sg44
S'81'
p712
sg46
S'0.4'
p713
sg48
S'6.5'
p714
sg50
S'2.0'
p715
sg52
S'14.0'
p716
sg54
S'3.4'
p717
sg56
S'1991-92'
p718
sg58
S'6.5'
p719
sg60
S'3.4'
p720
sg62
S'.461'
p721
sg64
S'2549'
p722
sg66
S'79'
p723
sba(isrc.gp1.models.Per100Possession
Per100Possession
p724
(dp725
g8
S'1.9'
p726
sg10
S'0.7'
p727
sg12
S'.494'
p728
sg661
S'113'
p729
sg14
S'7.8'
p730
sg16
S'.206'
p731
sg18
S'0.1'
p732
sg20
S'21.8'
p733
sg22
S'PG'
p734
sg668
S'105'
p735
sg24
S'.770'
p736
sg28
S'NBA'
p737
sg30
S'3.5'
p738
sg32
S'18.9'
p739
sg34
S'4.9'
p740
sg36
S'3.8'
p741
sg38
S'5.5'
p742
sg40
S'24'
p743
sg42
S'SEA'
p744
sg44
S'82'
p745
sg46
S'0.4'
p746
sg48
S'9.2'
p747
sg50
S'3.0'
p748
sg52
S'18.2'
p749
sg54
S'3.6'
p750
sg56
S'1992-93'
p751
sg58
S'9.3'
p752
sg60
S'2.9'
p753
sg62
S'.505'
p754
sg64
S'2548'
p755
sg66
S'78'
p756
sba(isrc.gp1.models.Per100Possession
Per100Possession
p757
(dp758
g8
S'1.8'
p759
sg10
S'0.9'
p760
sg12
S'.504'
p761
sg661
S'111'
p762
sg14
S'8.7'
p763
sg16
S'.278'
p764
sg18
S'0.3'
p765
sg20
S'23.6'
p766
sg22
S'PG'
p767
sg668
S'103'
p768
sg24
S'.595'
p769
sg28
S'NBA'
p770
sg30
S'3.3'
p771
sg32
S'20.3'
p772
sg34
S'4.0'
p773
sg36
S'4.9'
p774
sg38
S'4.7'
p775
sg40
S'25'
p776
sg42
S'SEA'
p777
sg44
S'82'
p778
sg46
S'0.3'
p779
sg48
S'10.0'
p780
sg50
S'2.9'
p781
sg52
S'19.4'
p782
sg54
S'2.9'
p783
sg56
S'1993-94'
p784
sg58
S'10.2'
p785
sg60
S'3.0'
p786
sg62
S'.515'
p787
sg64
S'2881'
p788
sg66
S'82'
p789
sba(isrc.gp1.models.Per100Possession
Per100Possession
p790
(dp791
g8
S'1.8'
p792
sg10
S'3.9'
p793
sg12
S'.509'
p794
sg661
S'118'
p795
sg14
S'9.7'
p796
sg16
S'.302'
p797
sg18
S'1.2'
p798
sg20
S'28.2'
p799
sg22
S'PG'
p800
sg668
S'107'
p801
sg24
S'.716'
p802
sg28
S'NBA'
p803
sg30
S'3.4'
p804
sg32
S'22.4'
p805
sg34
S'3.4'
p806
sg36
S'5.8'
p807
sg38
S'4.7'
p808
sg40
S'26'
p809
sg42
S'SEA'
p810
sg44
S'82'
p811
sg46
S'0.2'
p812
sg48
S'10.3'
p813
sg50
S'4.2'
p814
sg52
S'18.6'
p815
sg54
S'2.9'
p816
sg56
S'1994-95'
p817
sg58
S'11.4'
p818
sg60
S'3.4'
p819
sg62
S'.553'
p820
sg64
S'3015'
p821
sg66
S'82'
p822
sba(isrc.gp1.models.Per100Possession
Per100Possession
p823
(dp824
g8
S'1.7'
p825
sg10
S'4.8'
p826
sg12
S'.484'
p827
sg661
S'112'
p828
sg14
S'9.8'
p829
sg16
S'.328'
p830
sg18
S'1.6'
p831
sg20
S'25.3'
p832
sg22
S'PG'
p833
sg668
S'102'
p834
sg24
S'.748'
p835
sg28
S'NBA'
p836
sg30
S'3.7'
p837
sg32
S'20.6'
p838
sg34
S'3.6'
p839
sg36
S'4.9'
p840
sg38
S'5.5'
p841
sg40
S'27'
p842
sg42
S'SEA'
p843
sg44
S'81'
p844
sg46
S'0.3'
p845
sg48
S'8.4'
p846
sg50
S'3.7'
p847
sg52
S'15.8'
p848
sg54
S'3.8'
p849
sg56
S'1995-96'
p850
sg58
S'10.0'
p851
sg60
S'4.2'
p852
sg62
S'.532'
p853
sg64
S'3162'
p854
sg66
S'81'
p855
sba(isrc.gp1.models.Per100Possession
Per100Possession
p856
(dp857
g8
S'1.8'
p858
sg10
S'6.3'
p859
sg12
S'.476'
p860
sg661
S'114'
p861
sg14
S'9.6'
p862
sg16
S'.313'
p863
sg18
S'2.0'
p864
sg20
S'29.5'
p865
sg22
S'PG'
p866
sg668
S'103'
p867
sg24
S'.715'
p868
sg28
S'NBA'
p869
sg30
S'3.3'
p870
sg32
S'24.5'
p871
sg34
S'3.4'
p872
sg36
S'5.9'
p873
sg38
S'6.3'
p874
sg40
S'28'
p875
sg42
S'SEA'
p876
sg44
S'82'
p877
sg46
S'0.2'
p878
sg48
S'9.7'
p879
sg50
S'4.2'
p880
sg52
S'18.2'
p881
sg54
S'4.5'
p882
sg56
S'1996-97'
p883
sg58
S'11.7'
p884
sg60
S'3.6'
p885
sg62
S'.533'
p886
sg64
S'3213'
p887
sg66
S'82'
p888
sba(isrc.gp1.models.Per100Possession
Per100Possession
p889
(dp890
g8
S'1.3'
p891
sg10
S'6.7'
p892
sg12
S'.453'
p893
sg661
S'114'
p894
sg14
S'11.5'
p895
sg16
S'.338'
p896
sg18
S'2.3'
p897
sg20
S'26.7'
p898
sg22
S'PG'
p899
sg668
S'103'
p900
sg24
S'.744'
p901
sg28
S'NBA'
p902
sg30
S'3.1'
p903
sg32
S'21.7'
p904
sg34
S'3.3'
p905
sg36
S'6.4'
p906
sg38
S'6.4'
p907
sg40
S'29'
p908
sg42
S'SEA'
p909
sg44
S'82'
p910
sg46
S'0.3'
p911
sg48
S'7.6'
p912
sg50
S'4.7'
p913
sg52
S'15.0'
p914
sg54
S'5.1'
p915
sg56
S'1997-98'
p916
sg58
S'9.8'
p917
sg60
S'3.9'
p918
sg62
S'.505'
p919
sg64
S'3145'
p920
sg66
S'82'
p921
sba(isrc.gp1.models.Per100Possession
Per100Possession
p922
(dp923
g8
S'1.7'
p924
sg10
S'7.5'
p925
sg12
S'.434'
p926
sg661
S'111'
p927
sg14
S'11.6'
p928
sg16
S'.295'
p929
sg18
S'2.2'
p930
sg20
S'28.9'
p931
sg22
S'PG'
p932
sg668
S'106'
p933
sg24
S'.721'
p934
sg28
S'NBA'
p935
sg30
S'2.9'
p936
sg32
S'24.6'
p937
sg34
S'3.1'
p938
sg36
S'7.4'
p939
sg38
S'6.5'
p940
sg40
S'30'
p941
sg42
S'SEA'
p942
sg44
S'50'
p943
sg46
S'0.3'
p944
sg48
S'8.5'
p945
sg50
S'5.3'
p946
sg52
S'17.1'
p947
sg54
S'4.9'
p948
sg56
S'1998-99'
p949
sg58
S'10.7'
p950
sg60
S'4.1'
p951
sg62
S'.495'
p952
sg64
S'2008'
p953
sg66
S'50'
p954
sba(isrc.gp1.models.Per100Possession
Per100Possession
p955
(dp956
g8
S'1.5'
p957
sg10
S'7.8'
p958
sg12
S'.448'
p959
sg661
S'114'
p960
sg14
S'11.0'
p961
sg16
S'.340'
p962
sg18
S'2.7'
p963
sg20
S'29.8'
p964
sg22
S'PG'
p965
sg668
S'104'
p966
sg24
S'.735'
p967
sg28
S'NBA'
p968
sg30
S'2.3'
p969
sg32
S'25.0'
p970
sg34
S'2.7'
p971
sg36
S'6.3'
p972
sg38
S'7.9'
p973
sg40
S'31'
p974
sg42
S'SEA'
p975
sg44
S'82'
p976
sg46
S'0.3'
p977
sg48
S'8.6'
p978
sg50
S'4.7'
p979
sg52
S'17.2'
p980
sg54
S'6.4'
p981
sg56
S'1999-00'
p982
sg58
S'11.2'
p983
sg60
S'3.4'
p984
sg62
S'.497'
p985
sg64
S'3425'
p986
sg66
S'82'
p987
sba(isrc.gp1.models.Per100Possession
Per100Possession
p988
(dp989
g8
S'1.2'
p990
sg10
S'4.4'
p991
sg12
S'.456'
p992
sg661
S'111'
p993
sg14
S'10.4'
p994
sg16
S'.375'
p995
sg18
S'1.6'
p996
sg20
S'29.5'
p997
sg22
S'PG'
p998
sg668
S'107'
p999
sg24
S'.766'
p1000
sg28
S'NBA'
p1001
sg30
S'2.1'
p1002
sg32
S'25.7'
p1003
sg34
S'3.0'
p1004
sg36
S'5.7'
p1005
sg38
S'5.8'
p1006
sg40
S'32'
p1007
sg42
S'SEA'
p1008
sg44
S'79'
p1009
sg46
S'0.4'
p1010
sg48
S'10.1'
p1011
sg50
S'4.4'
p1012
sg52
S'21.3'
p1013
sg54
S'4.7'
p1014
sg56
S'2000-01'
p1015
sg58
S'11.7'
p1016
sg60
S'3.4'
p1017
sg62
S'.472'
p1018
sg64
S'3244'
p1019
sg66
S'79'
p1020
sba(isrc.gp1.models.Per100Possession
Per100Possession
p1021
(dp1022
g8
S'1.3'
p1023
sg10
S'3.9'
p1024
sg12
S'.467'
p1025
sg661
S'114'
p1026
sg14
S'12.0'
p1027
sg16
S'.314'
p1028
sg18
S'1.2'
p1029
sg20
S'29.6'
p1030
sg22
S'PG'
p1031
sg668
S'107'
p1032
sg24
S'.797'
p1033
sg28
S'NBA'
p1034
sg30
S'2.1'
p1035
sg32
S'25.8'
p1036
sg34
S'2.9'
p1037
sg36
S'5.5'
p1038
sg38
S'6.5'
p1039
sg40
S'33'
p1040
sg42
S'SEA'
p1041
sg44
S'82'
p1042
sg46
S'0.4'
p1043
sg48
S'10.8'
p1044
sg50
S'4.4'
p1045
sg52
S'21.9'
p1046
sg54
S'5.2'
p1047
sg56
S'2001-02'
p1048
sg58
S'12.0'
p1049
sg60
S'3.4'
p1050
sg62
S'.494'
p1051
sg64
S'3301'
p1052
sg66
S'82'
p1053
sba(isrc.gp1.models.Per100Possession
Per100Possession
p1054
(dp1055
g8
S'1.3'
p1056
sg10
S'3.1'
p1057
sg12
S'.454'
p1058
sg661
S'108'
p1059
sg14
S'11.2'
p1060
sg16
S'.297'
p1061
sg18
S'0.9'
p1062
sg20
S'27.5'
p1063
sg22
S'PG'
p1064
sg668
S'107'
p1065
sg24
S'.710'
p1066
sg28
S'NBA'
p1067
sg30
S'2.2'
p1068
sg32
S'24.7'
p1069
sg34
S'3.0'
p1070
sg36
S'5.9'
p1071
sg38
S'5.6'
p1072
sg40
S'34'
p1073
sg42
S'TOT'
p1074
sg44
S'80'
p1075
sg46
S'0.3'
p1076
sg48
S'10.3'
p1077
sg50
S'4.2'
p1078
sg52
S'21.6'
p1079
sg54
S'4.3'
p1080
sg56
S'2002-03'
p1081
sg58
S'11.2'
p1082
sg60
S'3.1'
p1083
sg62
S'.476'
p1084
sg64
S'3208'
p1085
sg66
S'80'
p1086
sba(isrc.gp1.models.Per100Possession
Per100Possession
p1087
(dp1088
g8
S'1.4'
p1089
sg10
S'2.9'
p1090
sg12
S'.448'
p1091
sg661
S'107'
p1092
sg14
S'11.7'
p1093
sg16
S'.298'
p1094
sg18
S'0.9'
p1095
sg20
S'27.8'
p1096
sg22
S'PG'
p1097
sg668
S'105'
p1098
sg24
S'.692'
p1099
sg28
S'NBA'
p1100
sg30
S'2.4'
p1101
sg32
S'25.5'
p1102
sg34
S'3.0'
p1103
sg36
S'6.0'
p1104
sg38
S'6.4'
p1105
sg40
S'34'
p1106
sg42
S'SEA'
p1107
sg44
S'52'
p1108
sg46
S'0.3'
p1109
sg48
S'10.5'
p1110
sg50
S'4.2'
p1111
sg52
S'22.5'
p1112
sg54
S'4.9'
p1113
sg56
S'2002-03'
p1114
sg58
S'11.4'
p1115
sg60
S'3.4'
p1116
sg62
S'.467'
p1117
sg64
S'2123'
p1118
sg66
S'52'
p1119
sba(isrc.gp1.models.Per100Possession
Per100Possession
p1120
(dp1121
g8
S'1.1'
p1122
sg10
S'3.3'
p1123
sg12
S'.466'
p1124
sg661
S'111'
p1125
sg14
S'10.1'
p1126
sg16
S'.294'
p1127
sg18
S'1.0'
p1128
sg20
S'26.9'
p1129
sg22
S'PG'
p1130
sg668
S'111'
p1131
sg24
S'.746'
p1132
sg28
S'NBA'
p1133
sg30
S'2.0'
p1134
sg32
S'23.2'
p1135
sg34
S'3.1'
p1136
sg36
S'5.8'
p1137
sg38
S'4.2'
p1138
sg40
S'34'
p1139
sg42
S'MIL'
p1140
sg44
S'28'
p1141
sg46
S'0.4'
p1142
sg48
S'9.8'
p1143
sg50
S'4.3'
p1144
sg52
S'19.9'
p1145
sg54
S'3.1'
p1146
sg56
S'2002-03'
p1147
sg58
S'10.8'
p1148
sg60
S'2.7'
p1149
sg62
S'.495'
p1150
sg64
S'1085'
p1151
sg66
S'28'
p1152
sba(isrc.gp1.models.Per100Possession
Per100Possession
p1153
(dp1154
g8
S'1.3'
p1155
sg10
S'3.0'
p1156
sg12
S'.471'
p1157
sg661
S'109'
p1158
sg14
S'8.3'
p1159
sg16
S'.333'
p1160
sg18
S'1.0'
p1161
sg20
S'22.1'
p1162
sg22
S'PG'
p1163
sg668
S'103'
p1164
sg24
S'.714'
p1165
sg28
S'NBA'
p1166
sg30
S'1.8'
p1167
sg32
S'18.9'
p1168
sg34
S'3.1'
p1169
sg36
S'4.6'
p1170
sg38
S'6.3'
p1171
sg40
S'35'
p1172
sg42
S'LAL'
p1173
sg44
S'82'
p1174
sg46
S'0.3'
p1175
sg48
S'7.9'
p1176
sg50
S'3.3'
p1177
sg52
S'15.8'
p1178
sg54
S'5.0'
p1179
sg56
S'2003-04'
p1180
sg58
S'8.9'
p1181
sg60
S'2.8'
p1182
sg62
S'.497'
p1183
sg64
S'2825'
p1184
sg66
S'82'
p1185
sba(isrc.gp1.models.Per100Possession
Per100Possession
p1186
(dp1187
g8
S'1.0'
p1188
sg10
S'2.6'
p1189
sg12
S'.468'
p1190
sg661
S'111'
p1191
sg14
S'9.5'
p1192
sg16
S'.326'
p1193
sg18
S'0.9'
p1194
sg20
S'17.7'
p1195
sg22
S'PG'
p1196
sg668
S'109'
p1197
sg24
S'.761'
p1198
sg28
S'NBA'
p1199
sg30
S'1.8'
p1200
sg32
S'14.7'
p1201
sg34
S'2.5'
p1202
sg36
S'4.1'
p1203
sg38
S'4.8'
p1204
sg40
S'36'
p1205
sg42
S'BOS'
p1206
sg44
S'77'
p1207
sg46
S'0.2'
p1208
sg48
S'6.0'
p1209
sg50
S'3.1'
p1210
sg52
S'12.1'
p1211
sg54
S'3.8'
p1212
sg56
S'2004-05'
p1213
sg58
S'6.9'
p1214
sg60
S'3.0'
p1215
sg62
S'.498'
p1216
sg64
S'2541'
p1217
sg66
S'77'
p1218
sba(isrc.gp1.models.Per100Possession
Per100Possession
p1219
(dp1220
g8
S'0.8'
p1221
sg10
S'5.2'
p1222
sg12
S'.420'
p1223
sg661
S'107'
p1224
sg14
S'5.8'
p1225
sg16
S'.287'
p1226
sg18
S'1.5'
p1227
sg20
S'14.2'
p1228
sg22
S'PG'
p1229
sg668
S'107'
p1230
sg24
S'.794'
p1231
sg28
S'NBA'
p1232
sg30
S'1.6'
p1233
sg32
S'12.4'
p1234
sg34
S'3.8'
p1235
sg36
S'2.9'
p1236
sg38
S'5.3'
p1237
sg40
S'37'
p1238
sg42
S'MIA'
p1239
sg44
S'81'
p1240
sg46
S'0.2'
p1241
sg48
S'3.7'
p1242
sg50
S'2.3'
p1243
sg52
S'7.2'
p1244
sg54
S'4.5'
p1245
sg56
S'2005-06'
p1246
sg58
S'5.2'
p1247
sg60
S'2.3'
p1248
sg62
S'.517'
p1249
sg64
S'2305'
p1250
sg66
S'25'
p1251
sba(isrc.gp1.models.Per100Possession
Per100Possession
p1252
(dp1253
g8
S'0.6'
p1254
sg10
S'4.4'
p1255
sg12
S'.393'
p1256
sg661
S'98'
p1257
sg14
S'7.1'
p1258
sg16
S'.260'
p1259
sg18
S'1.1'
p1260
sg20
S'12.7'
p1261
sg22
S'PG'
p1262
sg668
S'108'
p1263
sg24
S'.667'
p1264
sg28
S'NBA'
p1265
sg30
S'1.5'
p1266
sg32
S'13.0'
p1267
sg34
S'4.2'
p1268
sg36
S'2.0'
p1269
sg38
S'4.7'
p1270
sg40
S'38'
p1271
sg42
S'MIA'
p1272
sg44
S'68'
p1273
sg46
S'0.1'
p1274
sg48
S'4.0'
p1275
sg50
S'1.3'
p1276
sg52
S'8.6'
p1277
sg54
S'4.0'
p1278
sg56
S'2006-07'
p1279
sg58
S'5.1'
p1280
sg60
S'2.3'
p1281
sg62
S'.461'
p1282
sg64
S'1503'
p1283
sg66
S'28'
p1284
sbasS'_advanced'
p1285
(lp1286
(isrc.gp1.models.Advanced
Advanced
p1287
(dp1288
S'_offensiveReboundPercentage'
p1289
S'5.7'
p1290
sS'_turnOverPercentage'
p1291
S'22.6'
p1292
sS'_winSharesPer48Minutes'
p1293
S'.073'
p1294
sS'_stealPercentage'
p1295
S'3.7'
p1296
sS'_usagePercentage'
p1297
S'14.9'
p1298
sS'_totalReboundsPercentage'
p1299
S'6.5'
p1300
sS'_defensiveBoxPlusMinus'
p1301
S'0.9'
p1302
sg22
S'PG'
p1303
sS'_valueOverReplacementPlayer'
p1304
S'1.6'
p1305
sS'_trueShootingPercentage'
p1306
S'.476'
p1307
sS'_defensiveReboundPercentage'
p1308
S'7.3'
p1309
sS'_freeThrowsAttempRate'
p1310
S'.169'
p1311
sS'_threePointsAttempRate'
p1312
S'.023'
p1313
sg28
S'NBA'
p1314
sS'_offensiveBoxPlusMinues'
p1315
S'0.0'
p1316
sS'_assistPercentage'
p1317
S'30.8'
p1318
sS'_defensiveWinShares'
p1319
S'2.4'
p1320
sg40
S'22'
p1321
sg42
S'SEA'
p1322
sg44
S'82'
p1323
sS'_blockPercentage'
p1324
S'0.4'
p1325
sS'_playerEfficiencyRating'
p1326
S'13.2'
p1327
sS'_offensiveWinShares'
p1328
S'1.0'
p1329
sg64
S'2244'
p1330
sS'_boxPlusMinus'
p1331
S'0.9'
p1332
sg56
S'1990-91'
p1333
sS'_winShares'
p1334
S'3.4'
p1335
sba(isrc.gp1.models.Advanced
Advanced
p1336
(dp1337
g1289
S'5.5'
p1338
sg1291
S'17.9'
p1339
sg1293
S'.074'
p1340
sg1295
S'2.9'
p1341
sg1297
S'16.0'
p1342
sg1299
S'6.7'
p1343
sg1301
S'0.7'
p1344
sg22
S'PG'
p1345
sg1304
S'1.9'
p1346
sg1306
S'.478'
p1347
sg1308
S'7.9'
p1348
sg1310
S'.202'
p1349
sg1312
S'.031'
p1350
sg28
S'NBA'
p1351
sg1315
S'0.3'
p1352
sg1317
S'27.5'
p1353
sg1319
S'2.3'
p1354
sg40
S'23'
p1355
sg42
S'SEA'
p1356
sg44
S'81'
p1357
sg1324
S'0.5'
p1358
sg1326
S'13.1'
p1359
sg1328
S'1.6'
p1360
sg64
S'2549'
p1361
sg1331
S'1.0'
p1362
sg56
S'1991-92'
p1363
sg1334
S'3.9'
p1364
sba(isrc.gp1.models.Advanced
Advanced
p1365
(dp1366
g1289
S'4.3'
p1367
sg1291
S'12.4'
p1368
sg1293
S'.147'
p1369
sg1295
S'3.5'
p1370
sg1297
S'19.8'
p1371
sg1299
S'6.4'
p1372
sg1301
S'1.2'
p1373
sg22
S'PG'
p1374
sg1304
S'3.3'
p1375
sg1306
S'.529'
p1376
sg1308
S'8.7'
p1377
sg1310
S'.204'
p1378
sg1312
S'.035'
p1379
sg28
S'NBA'
p1380
sg1315
S'1.9'
p1381
sg1317
S'22.7'
p1382
sg1319
S'3.6'
p1383
sg40
S'24'
p1384
sg42
S'SEA'
p1385
sg44
S'82'
p1386
sg1324
S'0.6'
p1387
sg1326
S'17.0'
p1388
sg1328
S'4.2'
p1389
sg64
S'2548'
p1390
sg1331
S'3.1'
p1391
sg56
S'1992-93'
p1392
sg1334
S'7.8'
p1393
sba(isrc.gp1.models.Advanced
Advanced
p1394
(dp1395
g1289
S'4.3'
p1396
sg1291
S'11.9'
p1397
sg1293
S'.155'
p1398
sg1295
S'3.3'
p1399
sg1297
S'21.6'
p1400
sg1299
S'5.5'
p1401
sg1301
S'0.5'
p1402
sg22
S'PG'
p1403
sg1304
S'3.5'
p1404
sg1306
S'.526'
p1405
sg1308
S'6.8'
p1406
sg1310
S'.241'
p1407
sg1312
S'.047'
p1408
sg28
S'NBA'
p1409
sg1315
S'2.3'
p1410
sg1317
S'26.7'
p1411
sg1319
S'4.1'
p1412
sg40
S'25'
p1413
sg42
S'SEA'
p1414
sg44
S'82'
p1415
sg1324
S'0.5'
p1416
sg1326
S'17.8'
p1417
sg1328
S'5.2'
p1418
sg64
S'2881'
p1419
sg1331
S'2.8'
p1420
sg56
S'1993-94'
p1421
sg1334
S'9.3'
p1422
sba(isrc.gp1.models.Advanced
Advanced
p1423
(dp1424
g1289
S'4.3'
p1425
sg1291
S'11.8'
p1426
sg1293
S'.187'
p1427
sg1295
S'3.4'
p1428
sg1297
S'24.4'
p1429
sg1299
S'5.5'
p1430
sg1301
S'-0.2'
p1431
sg22
S'PG'
p1432
sg1304
S'5.0'
p1433
sg1306
S'.564'
p1434
sg1308
S'6.7'
p1435
sg1310
S'.259'
p1436
sg1312
S'.172'
p1437
sg28
S'NBA'
p1438
sg1315
S'4.7'
p1439
sg1317
S'31.8'
p1440
sg1319
S'3.5'
p1441
sg40
S'26'
p1442
sg42
S'SEA'
p1443
sg44
S'82'
p1444
sg1324
S'0.3'
p1445
sg1326
S'21.3'
p1446
sg1328
S'8.2'
p1447
sg64
S'3015'
p1448
sg1331
S'4.5'
p1449
sg56
S'1994-95'
p1450
sg1334
S'11.7'
p1451
sba(isrc.gp1.models.Advanced
Advanced
p1452
(dp1453
g1289
S'4.1'
p1454
sg1291
S'15.6'
p1455
sg1293
S'.174'
p1456
sg1295
S'3.7'
p1457
sg1297
S'23.6'
p1458
sg1299
S'6.3'
p1459
sg1301
S'1.4'
p1460
sg22
S'PG'
p1461
sg1304
S'5.3'
p1462
sg1306
S'.554'
p1463
sg1308
S'8.4'
p1464
sg1310
S'.240'
p1465
sg1312
S'.234'
p1466
sg28
S'NBA'
p1467
sg1315
S'3.3'
p1468
sg1317
S'33.3'
p1469
sg1319
S'5.6'
p1470
sg40
S'27'
p1471
sg42
S'SEA'
p1472
sg44
S'81'
p1473
sg1324
S'0.5'
p1474
sg1326
S'19.6'
p1475
sg1328
S'5.9'
p1476
sg64
S'3162'
p1477
sg1331
S'4.7'
p1478
sg56
S'1995-96'
p1479
sg1334
S'11.5'
p1480
sba(isrc.gp1.models.Advanced
Advanced
p1481
(dp1482
g1289
S'4.0'
p1483
sg1291
S'11.6'
p1484
sg1293
S'.193'
p1485
sg1295
S'3.3'
p1486
sg1297
S'26.4'
p1487
sg1299
S'7.1'
p1488
sg1301
S'0.5'
p1489
sg22
S'PG'
p1490
sg1304
S'6.2'
p1491
sg1306
S'.545'
p1492
sg1308
S'10.2'
p1493
sg1310
S'.240'
p1494
sg1312
S'.256'
p1495
sg28
S'NBA'
p1496
sg1315
S'5.1'
p1497
sg1317
S'33.8'
p1498
sg1319
S'4.7'
p1499
sg40
S'28'
p1500
sg42
S'SEA'
p1501
sg44
S'82'
p1502
sg1324
S'0.3'
p1503
sg1326
S'21.8'
p1504
sg1328
S'8.2'
p1505
sg64
S'3213'
p1506
sg1331
S'5.6'
p1507
sg56
S'1996-97'
p1508
sg1334
S'12.9'
p1509
sba(isrc.gp1.models.Advanced
Advanced
p1510
(dp1511
g1289
S'3.0'
p1512
sg1291
S'13.7'
p1513
sg1293
S'.190'
p1514
sg1295
S'3.1'
p1515
sg1297
S'24.6'
p1516
sg1299
S'7.1'
p1517
sg1301
S'0.1'
p1518
sg22
S'PG'
p1519
sg1304
S'5.6'
p1520
sg1306
S'.544'
p1521
sg1308
S'11.2'
p1522
sg1310
S'.293'
p1523
sg1312
S'.311'
p1524
sg28
S'NBA'
p1525
sg1315
S'4.9'
p1526
sg1317
S'36.7'
p1527
sg1319
S'4.0'
p1528
sg40
S'29'
p1529
sg42
S'SEA'
p1530
sg44
S'82'
p1531
sg1324
S'0.4'
p1532
sg1326
S'21.6'
p1533
sg1328
S'8.5'
p1534
sg64
S'3145'
p1535
sg1331
S'5.0'
p1536
sg56
S'1997-98'
p1537
sg1334
S'12.5'
p1538
sba(isrc.gp1.models.Advanced
Advanced
p1539
(dp1540
g1289
S'3.5'
p1541
sg1291
S'12.9'
p1542
sg1293
S'.172'
p1543
sg1295
S'2.9'
p1544
sg1297
S'27.1'
p1545
sg1299
S'7.0'
p1546
sg1301
S'-0.9'
p1547
sg22
S'PG'
p1548
sg1304
S'3.8'
p1549
sg1306
S'.519'
p1550
sg1308
S'10.6'
p1551
sg1310
S'.299'
p1552
sg1312
S'.304'
p1553
sg28
S'NBA'
p1554
sg1315
S'6.3'
p1555
sg1317
S'41.3'
p1556
sg1319
S'1.2'
p1557
sg40
S'30'
p1558
sg42
S'SEA'
p1559
sg44
S'50'
p1560
sg1324
S'0.4'
p1561
sg1326
S'23.1'
p1562
sg1328
S'6.0'
p1563
sg64
S'2008'
p1564
sg1331
S'5.4'
p1565
sg56
S'1998-99'
p1566
sg1334
S'7.2'
p1567
sba(isrc.gp1.models.Advanced
Advanced
p1568
(dp1569
g1289
S'3.2'
p1570
sg1291
S'10.8'
p1571
sg1293
S'.195'
p1572
sg1295
S'2.3'
p1573
sg1297
S'26.8'
p1574
sg1299
S'8.5'
p1575
sg1301
S'0.1'
p1576
sg22
S'PG'
p1577
sg1304
S'7.6'
p1578
sg1306
S'.535'
p1579
sg1308
S'13.9'
p1580
sg1310
S'.254'
p1581
sg1312
S'.312'
p1582
sg28
S'NBA'
p1583
sg1315
S'6.7'
p1584
sg1317
S'37.7'
p1585
sg1319
S'3.5'
p1586
sg40
S'31'
p1587
sg42
S'SEA'
p1588
sg44
S'82'
p1589
sg1324
S'0.4'
p1590
sg1326
S'23.6'
p1591
sg1328
S'10.5'
p1592
sg64
S'3425'
p1593
sg1331
S'6.8'
p1594
sg56
S'1999-00'
p1595
sg1334
S'13.9'
p1596
sba(isrc.gp1.models.Advanced
Advanced
p1597
(dp1598
g1289
S'2.6'
p1599
sg1291
S'10.7'
p1600
sg1293
S'.160'
p1601
sg1295
S'2.1'
p1602
sg1297
S'27.2'
p1603
sg1299
S'6.4'
p1604
sg1301
S'-1.1'
p1605
sg22
S'PG'
p1606
sg1304
S'5.1'
p1607
sg1306
S'.522'
p1608
sg1308
S'10.1'
p1609
sg1310
S'.223'
p1610
sg1312
S'.171'
p1611
sg28
S'NBA'
p1612
sg1315
S'5.4'
p1613
sg1317
S'36.6'
p1614
sg1319
S'1.7'
p1615
sg40
S'32'
p1616
sg42
S'SEA'
p1617
sg44
S'79'
p1618
sg1324
S'0.6'
p1619
sg1326
S'22.1'
p1620
sg1328
S'9.1'
p1621
sg64
S'3244'
p1622
sg1331
S'4.3'
p1623
sg56
S'2000-01'
p1624
sg1334
S'10.8'
p1625
sba(isrc.gp1.models.Advanced
Advanced
p1626
(dp1627
g1289
S'2.9'
p1628
sg1291
S'10.8'
p1629
sg1293
S'.183'
p1630
sg1295
S'2.1'
p1631
sg1297
S'27.2'
p1632
sg1299
S'7.1'
p1633
sg1301
S'-0.6'
p1634
sg22
S'PG'
p1635
sg1304
S'5.5'
p1636
sg1306
S'.526'
p1637
sg1308
S'11.1'
p1638
sg1310
S'.212'
p1639
sg1312
S'.150'
p1640
sg28
S'NBA'
p1641
sg1315
S'5.2'
p1642
sg1317
S'39.4'
p1643
sg1319
S'2.5'
p1644
sg40
S'33'
p1645
sg42
S'SEA'
p1646
sg44
S'82'
p1647
sg1324
S'0.6'
p1648
sg1326
S'22.9'
p1649
sg1328
S'10.1'
p1650
sg64
S'3301'
p1651
sg1331
S'4.6'
p1652
sg56
S'2001-02'
p1653
sg1334
S'12.6'
p1654
sba(isrc.gp1.models.Advanced
Advanced
p1655
(dp1656
g1289
S'2.9'
p1657
sg1291
S'10.3'
p1658
sg1293
S'.136'
p1659
sg1295
S'2.2'
p1660
sg1297
S'26.4'
p1661
sg1299
S'6.1'
p1662
sg1301
S'-1.0'
p1663
sg22
S'PG'
p1664
sg1304
S'4.2'
p1665
sg1306
S'.504'
p1666
sg1308
S'9.5'
p1667
sg1310
S'.240'
p1668
sg1312
S'.124'
p1669
sg28
S'NBA'
p1670
sg1315
S'4.2'
p1671
sg1317
S'38.9'
p1672
sg1319
S'2.1'
p1673
sg40
S'34'
p1674
sg42
S'TOT'
p1675
sg44
S'80'
p1676
sg1324
S'0.5'
p1677
sg1326
S'21.1'
p1678
sg1328
S'7.0'
p1679
sg64
S'3208'
p1680
sg1331
S'3.2'
p1681
sg56
S'2002-03'
p1682
sg1334
S'9.1'
p1683
sba(isrc.gp1.models.Advanced
Advanced
p1684
(dp1685
g1289
S'3.1'
p1686
sg1291
S'10.7'
p1687
sg1293
S'.140'
p1688
sg1295
S'2.4'
p1689
sg1297
S'27.1'
p1690
sg1299
S'6.9'
p1691
sg1301
S'-0.1'
p1692
sg22
S'PG'
p1693
sg1304
S'3.4'
p1694
sg1306
S'.495'
p1695
sg1308
S'10.8'
p1696
sg1310
S'.236'
p1697
sg1312
S'.115'
p1698
sg28
S'NBA'
p1699
sg1315
S'4.4'
p1700
sg1317
S'41.6'
p1701
sg1319
S'1.9'
p1702
sg40
S'34'
p1703
sg42
S'SEA'
p1704
sg44
S'52'
p1705
sg1324
S'0.4'
p1706
sg1326
S'21.4'
p1707
sg1328
S'4.3'
p1708
sg64
S'2123'
p1709
sg1331
S'4.3'
p1710
sg56
S'2002-03'
p1711
sg1334
S'6.2'
p1712
sba(isrc.gp1.models.Advanced
Advanced
p1713
(dp1714
g1289
S'2.5'
p1715
sg1291
S'9.6'
p1716
sg1293
S'.128'
p1717
sg1295
S'2.0'
p1718
sg1297
S'25.0'
p1719
sg1299
S'4.6'
p1720
sg1301
S'-2.9'
p1721
sg22
S'PG'
p1722
sg1304
S'0.8'
p1723
sg1306
S'.523'
p1724
sg1308
S'6.8'
p1725
sg1310
S'.249'
p1726
sg1312
S'.143'
p1727
sg28
S'NBA'
p1728
sg1315
S'3.9'
p1729
sg1317
S'33.8'
p1730
sg1319
S'0.1'
p1731
sg40
S'34'
p1732
sg42
S'MIL'
p1733
sg44
S'28'
p1734
sg1324
S'0.5'
p1735
sg1326
S'20.5'
p1736
sg1328
S'2.8'
p1737
sg64
S'1085'
p1738
sg1331
S'1.0'
p1739
sg56
S'2002-03'
p1740
sg1334
S'2.9'
p1741
sba(isrc.gp1.models.Advanced
Advanced
p1742
(dp1743
g1289
S'2.8'
p1744
sg1291
S'11.7'
p1745
sg1293
S'.137'
p1746
sg1295
S'1.8'
p1747
sg1297
S'20.4'
p1748
sg1299
S'6.9'
p1749
sg1301
S'-0.2'
p1750
sg22
S'PG'
p1751
sg1304
S'2.9'
p1752
sg1306
S'.528'
p1753
sg1308
S'11.0'
p1754
sg1310
S'.246'
p1755
sg1312
S'.161'
p1756
sg28
S'NBA'
p1757
sg1315
S'2.3'
p1758
sg1317
S'26.9'
p1759
sg1319
S'2.7'
p1760
sg40
S'35'
p1761
sg42
S'LAL'
p1762
sg44
S'82'
p1763
sg1324
S'0.5'
p1764
sg1326
S'17.3'
p1765
sg1328
S'5.3'
p1766
sg64
S'2825'
p1767
sg1331
S'2.1'
p1768
sg56
S'2003-04'
p1769
sg1334
S'8.1'
p1770
sba(isrc.gp1.models.Advanced
Advanced
p1771
(dp1772
g1289
S'2.3'
p1773
sg1291
S'15.4'
p1774
sg1293
S'.102'
p1775
sg1295
S'1.8'
p1776
sg1297
S'17.0'
p1777
sg1299
S'5.4'
p1778
sg1301
S'-1.3'
p1779
sg22
S'PG'
p1780
sg1304
S'1.1'
p1781
sg1306
S'.537'
p1782
sg1308
S'8.5'
p1783
sg1310
S'.277'
p1784
sg1312
S'.178'
p1785
sg28
S'NBA'
p1786
sg1315
S'1.0'
p1787
sg1317
S'29.2'
p1788
sg1319
S'1.6'
p1789
sg40
S'36'
p1790
sg42
S'BOS'
p1791
sg44
S'77'
p1792
sg1324
S'0.4'
p1793
sg1326
S'15.1'
p1794
sg1328
S'3.8'
p1795
sg64
S'2541'
p1796
sg1331
S'-0.3'
p1797
sg56
S'2004-05'
p1798
sg1334
S'5.4'
p1799
sba(isrc.gp1.models.Advanced
Advanced
p1800
(dp1801
g1289
S'1.8'
p1802
sg1291
S'14.5'
p1803
sg1293
S'.085'
p1804
sg1295
S'1.6'
p1805
sg1297
S'14.1'
p1806
sg1299
S'5.9'
p1807
sg1301
S'0.1'
p1808
sg22
S'PG'
p1809
sg1304
S'1.0'
p1810
sg1306
S'.520'
p1811
sg1308
S'9.7'
p1812
sg1310
S'.230'
p1813
sg1312
S'.420'
p1814
sg28
S'NBA'
p1815
sg1315
S'-0.3'
p1816
sg1317
S'16.7'
p1817
sg1319
S'2.3'
p1818
sg40
S'37'
p1819
sg42
S'MIA'
p1820
sg44
S'81'
p1821
sg1324
S'0.3'
p1822
sg1326
S'10.7'
p1823
sg1328
S'1.8'
p1824
sg64
S'2305'
p1825
sg1331
S'-0.2'
p1826
sg56
S'2005-06'
p1827
sg1334
S'4.1'
p1828
sba(isrc.gp1.models.Advanced
Advanced
p1829
(dp1830
g1289
S'1.4'
p1831
sg1291
S'14.4'
p1832
sg1293
S'.042'
p1833
sg1295
S'1.5'
p1834
sg1297
S'14.4'
p1835
sg1299
S'5.2'
p1836
sg1301
S'-1.0'
p1837
sg22
S'PG'
p1838
sg1304
S'-0.6'
p1839
sg1306
S'.458'
p1840
sg1308
S'8.7'
p1841
sg1310
S'.156'
p1842
sg1312
S'.336'
p1843
sg28
S'NBA'
p1844
sg1315
S'-2.5'
p1845
sg1317
S'20.9'
p1846
sg1319
S'1.2'
p1847
sg40
S'38'
p1848
sg42
S'MIA'
p1849
sg44
S'68'
p1850
sg1324
S'0.2'
p1851
sg1326
S'9.0'
p1852
sg1328
S'0.1'
p1853
sg64
S'1503'
p1854
sg1331
S'-3.5'
p1855
sg56
S'2006-07'
p1856
sg1334
S'1.3'
p1857
sbasS'_per36Minutes'
p1858
(lp1859
(isrc.gp1.models.Per36Minutes
Per36Minutes
p1860
(dp1861
g8
S'1.7'
p1862
sg10
S'0.2'
p1863
sg12
S'.450'
p1864
sg14
S'8.5'
p1865
sg16
S'.077'
p1866
sg18
S'0.0'
p1867
sg20
S'9.4'
p1868
sg22
S'PG'
p1869
sg24
S'.711'
p1870
sg28
S'NBA'
p1871
sg30
S'2.6'
p1872
sg32
S'9.2'
p1873
sg34
S'4.0'
p1874
sg36
S'1.6'
p1875
sg38
S'3.9'
p1876
sg40
S'22'
p1877
sg42
S'SEA'
p1878
sg44
S'82'
p1879
sg46
S'0.2'
p1880
sg48
S'4.1'
p1881
sg50
S'1.1'
p1882
sg52
S'9.0'
p1883
sg54
S'2.2'
p1884
sg56
S'1990-91'
p1885
sg58
S'4.2'
p1886
sg60
S'2.9'
p1887
sg62
S'.459'
p1888
sg64
S'2244'
p1889
sg66
S'82'
p1890
sba(isrc.gp1.models.Per36Minutes
Per36Minutes
p1891
(dp1892
g8
S'1.7'
p1893
sg10
S'0.3'
p1894
sg12
S'.451'
p1895
sg14
S'7.1'
p1896
sg16
S'.130'
p1897
sg18
S'0.0'
p1898
sg20
S'10.8'
p1899
sg22
S'PG'
p1900
sg24
S'.669'
p1901
sg28
S'NBA'
p1902
sg30
S'2.1'
p1903
sg32
S'10.4'
p1904
sg34
S'3.5'
p1905
sg36
S'2.1'
p1906
sg38
S'4.2'
p1907
sg40
S'23'
p1908
sg42
S'SEA'
p1909
sg44
S'81'
p1910
sg46
S'0.3'
p1911
sg48
S'4.6'
p1912
sg50
S'1.4'
p1913
sg52
S'10.0'
p1914
sg54
S'2.4'
p1915
sg56
S'1991-92'
p1916
sg58
S'4.7'
p1917
sg60
S'2.5'
p1918
sg62
S'.461'
p1919
sg64
S'2549'
p1920
sg66
S'79'
p1921
sba(isrc.gp1.models.Per36Minutes
Per36Minutes
p1922
(dp1923
g8
S'1.3'
p1924
sg10
S'0.5'
p1925
sg12
S'.494'
p1926
sg14
S'5.6'
p1927
sg16
S'.206'
p1928
sg18
S'0.1'
p1929
sg20
S'15.7'
p1930
sg22
S'PG'
p1931
sg24
S'.770'
p1932
sg28
S'NBA'
p1933
sg30
S'2.5'
p1934
sg32
S'13.6'
p1935
sg34
S'3.5'
p1936
sg36
S'2.8'
p1937
sg38
S'4.0'
p1938
sg40
S'24'
p1939
sg42
S'SEA'
p1940
sg44
S'82'
p1941
sg46
S'0.3'
p1942
sg48
S'6.6'
p1943
sg50
S'2.1'
p1944
sg52
S'13.1'
p1945
sg54
S'2.6'
p1946
sg56
S'1992-93'
p1947
sg58
S'6.7'
p1948
sg60
S'2.1'
p1949
sg62
S'.505'
p1950
sg64
S'2548'
p1951
sg66
S'78'
p1952
sba(isrc.gp1.models.Per36Minutes
Per36Minutes
p1953
(dp1954
g8
S'1.3'
p1955
sg10
S'0.7'
p1956
sg12
S'.504'
p1957
sg14
S'6.2'
p1958
sg16
S'.278'
p1959
sg18
S'0.2'
p1960
sg20
S'16.9'
p1961
sg22
S'PG'
p1962
sg24
S'.595'
p1963
sg28
S'NBA'
p1964
sg30
S'2.3'
p1965
sg32
S'14.5'
p1966
sg34
S'2.8'
p1967
sg36
S'3.5'
p1968
sg38
S'3.4'
p1969
sg40
S'25'
p1970
sg42
S'SEA'
p1971
sg44
S'82'
p1972
sg46
S'0.2'
p1973
sg48
S'7.1'
p1974
sg50
S'2.1'
p1975
sg52
S'13.8'
p1976
sg54
S'2.0'
p1977
sg56
S'1993-94'
p1978
sg58
S'7.3'
p1979
sg60
S'2.2'
p1980
sg62
S'.515'
p1981
sg64
S'2881'
p1982
sg66
S'82'
p1983
sba(isrc.gp1.models.Per36Minutes
Per36Minutes
p1984
(dp1985
g8
S'1.3'
p1986
sg10
S'2.8'
p1987
sg12
S'.509'
p1988
sg14
S'7.0'
p1989
sg16
S'.302'
p1990
sg18
S'0.8'
p1991
sg20
S'20.2'
p1992
sg22
S'PG'
p1993
sg24
S'.716'
p1994
sg28
S'NBA'
p1995
sg30
S'2.4'
p1996
sg32
S'16.1'
p1997
sg34
S'2.5'
p1998
sg36
S'4.2'
p1999
sg38
S'3.4'
p2000
sg40
S'26'
p2001
sg42
S'SEA'
p2002
sg44
S'82'
p2003
sg46
S'0.2'
p2004
sg48
S'7.3'
p2005
sg50
S'3.0'
p2006
sg52
S'13.3'
p2007
sg54
S'2.1'
p2008
sg56
S'1994-95'
p2009
sg58
S'8.2'
p2010
sg60
S'2.4'
p2011
sg62
S'.553'
p2012
sg64
S'3015'
p2013
sg66
S'82'
p2014
sba(isrc.gp1.models.Per36Minutes
Per36Minutes
p2015
(dp2016
g8
S'1.2'
p2017
sg10
S'3.4'
p2018
sg12
S'.484'
p2019
sg14
S'6.9'
p2020
sg16
S'.328'
p2021
sg18
S'1.1'
p2022
sg20
S'17.8'
p2023
sg22
S'PG'
p2024
sg24
S'.748'
p2025
sg28
S'NBA'
p2026
sg30
S'2.6'
p2027
sg32
S'14.5'
p2028
sg34
S'2.5'
p2029
sg36
S'3.5'
p2030
sg38
S'3.9'
p2031
sg40
S'27'
p2032
sg42
S'SEA'
p2033
sg44
S'81'
p2034
sg46
S'0.2'
p2035
sg48
S'5.9'
p2036
sg50
S'2.6'
p2037
sg52
S'11.1'
p2038
sg54
S'2.7'
p2039
sg56
S'1995-96'
p2040
sg58
S'7.0'
p2041
sg60
S'3.0'
p2042
sg62
S'.532'
p2043
sg64
S'3162'
p2044
sg66
S'81'
p2045
sba(isrc.gp1.models.Per36Minutes
Per36Minutes
p2046
(dp2047
g8
S'1.2'
p2048
sg10
S'4.3'
p2049
sg12
S'.476'
p2050
sg14
S'6.5'
p2051
sg16
S'.313'
p2052
sg18
S'1.3'
p2053
sg20
S'20.0'
p2054
sg22
S'PG'
p2055
sg24
S'.715'
p2056
sg28
S'NBA'
p2057
sg30
S'2.2'
p2058
sg32
S'16.6'
p2059
sg34
S'2.3'
p2060
sg36
S'4.0'
p2061
sg38
S'4.2'
p2062
sg40
S'28'
p2063
sg42
S'SEA'
p2064
sg44
S'82'
p2065
sg46
S'0.1'
p2066
sg48
S'6.6'
p2067
sg50
S'2.8'
p2068
sg52
S'12.3'
p2069
sg54
S'3.0'
p2070
sg56
S'1996-97'
p2071
sg58
S'7.9'
p2072
sg60
S'2.4'
p2073
sg62
S'.533'
p2074
sg64
S'3213'
p2075
sg66
S'82'
p2076
sba(isrc.gp1.models.Per36Minutes
Per36Minutes
p2077
(dp2078
g8
S'0.9'
p2079
sg10
S'4.5'
p2080
sg12
S'.453'
p2081
sg14
S'7.8'
p2082
sg16
S'.338'
p2083
sg18
S'1.5'
p2084
sg20
S'18.0'
p2085
sg22
S'PG'
p2086
sg24
S'.744'
p2087
sg28
S'NBA'
p2088
sg30
S'2.1'
p2089
sg32
S'14.6'
p2090
sg34
S'2.2'
p2091
sg36
S'4.3'
p2092
sg38
S'4.3'
p2093
sg40
S'29'
p2094
sg42
S'SEA'
p2095
sg44
S'82'
p2096
sg46
S'0.2'
p2097
sg48
S'5.1'
p2098
sg50
S'3.2'
p2099
sg52
S'10.1'
p2100
sg54
S'3.4'
p2101
sg56
S'1997-98'
p2102
sg58
S'6.6'
p2103
sg60
S'2.6'
p2104
sg62
S'.505'
p2105
sg64
S'3145'
p2106
sg66
S'82'
p2107
sba(isrc.gp1.models.Per36Minutes
Per36Minutes
p2108
(dp2109
g8
S'1.1'
p2110
sg10
S'5.0'
p2111
sg12
S'.434'
p2112
sg14
S'7.8'
p2113
sg16
S'.295'
p2114
sg18
S'1.5'
p2115
sg20
S'19.4'
p2116
sg22
S'PG'
p2117
sg24
S'.721'
p2118
sg28
S'NBA'
p2119
sg30
S'2.0'
p2120
sg32
S'16.5'
p2121
sg34
S'2.1'
p2122
sg36
S'4.9'
p2123
sg38
S'4.4'
p2124
sg40
S'30'
p2125
sg42
S'SEA'
p2126
sg44
S'50'
p2127
sg46
S'0.2'
p2128
sg48
S'5.7'
p2129
sg50
S'3.6'
p2130
sg52
S'11.5'
p2131
sg54
S'3.3'
p2132
sg56
S'1998-99'
p2133
sg58
S'7.2'
p2134
sg60
S'2.8'
p2135
sg62
S'.495'
p2136
sg64
S'2008'
p2137
sg66
S'50'
p2138
sba(isrc.gp1.models.Per36Minutes
Per36Minutes
p2139
(dp2140
g8
S'1.1'
p2141
sg10
S'5.5'
p2142
sg12
S'.448'
p2143
sg14
S'7.7'
p2144
sg16
S'.340'
p2145
sg18
S'1.9'
p2146
sg20
S'20.8'
p2147
sg22
S'PG'
p2148
sg24
S'.735'
p2149
sg28
S'NBA'
p2150
sg30
S'1.6'
p2151
sg32
S'17.5'
p2152
sg34
S'1.9'
p2153
sg36
S'4.4'
p2154
sg38
S'5.6'
p2155
sg40
S'31'
p2156
sg42
S'SEA'
p2157
sg44
S'82'
p2158
sg46
S'0.2'
p2159
sg48
S'6.0'
p2160
sg50
S'3.3'
p2161
sg52
S'12.0'
p2162
sg54
S'4.5'
p2163
sg56
S'1999-00'
p2164
sg58
S'7.9'
p2165
sg60
S'2.4'
p2166
sg62
S'.497'
p2167
sg64
S'3425'
p2168
sg66
S'82'
p2169
sba(isrc.gp1.models.Per36Minutes
Per36Minutes
p2170
(dp2171
g8
S'0.8'
p2172
sg10
S'3.0'
p2173
sg12
S'.456'
p2174
sg14
S'7.1'
p2175
sg16
S'.375'
p2176
sg18
S'1.1'
p2177
sg20
S'20.2'
p2178
sg22
S'PG'
p2179
sg24
S'.766'
p2180
sg28
S'NBA'
p2181
sg30
S'1.4'
p2182
sg32
S'17.7'
p2183
sg34
S'2.0'
p2184
sg36
S'3.9'
p2185
sg38
S'4.0'
p2186
sg40
S'32'
p2187
sg42
S'SEA'
p2188
sg44
S'79'
p2189
sg46
S'0.3'
p2190
sg48
S'6.9'
p2191
sg50
S'3.0'
p2192
sg52
S'14.6'
p2193
sg54
S'3.2'
p2194
sg56
S'2000-01'
p2195
sg58
S'8.0'
p2196
sg60
S'2.3'
p2197
sg62
S'.472'
p2198
sg64
S'3244'
p2199
sg66
S'79'
p2200
sba(isrc.gp1.models.Per36Minutes
Per36Minutes
p2201
(dp2202
g8
S'0.9'
p2203
sg10
S'2.6'
p2204
sg12
S'.467'
p2205
sg14
S'8.0'
p2206
sg16
S'.314'
p2207
sg18
S'0.8'
p2208
sg20
S'19.8'
p2209
sg22
S'PG'
p2210
sg24
S'.797'
p2211
sg28
S'NBA'
p2212
sg30
S'1.4'
p2213
sg32
S'17.2'
p2214
sg34
S'2.0'
p2215
sg36
S'3.7'
p2216
sg38
S'4.3'
p2217
sg40
S'33'
p2218
sg42
S'SEA'
p2219
sg44
S'82'
p2220
sg46
S'0.3'
p2221
sg48
S'7.2'
p2222
sg50
S'2.9'
p2223
sg52
S'14.6'
p2224
sg54
S'3.4'
p2225
sg56
S'2001-02'
p2226
sg58
S'8.0'
p2227
sg60
S'2.3'
p2228
sg62
S'.494'
p2229
sg64
S'3301'
p2230
sg66
S'82'
p2231
sba(isrc.gp1.models.Per36Minutes
Per36Minutes
p2232
(dp2233
g8
S'0.9'
p2234
sg10
S'2.0'
p2235
sg12
S'.454'
p2236
sg14
S'7.4'
p2237
sg16
S'.297'
p2238
sg18
S'0.6'
p2239
sg20
S'18.3'
p2240
sg22
S'PG'
p2241
sg24
S'.710'
p2242
sg28
S'NBA'
p2243
sg30
S'1.5'
p2244
sg32
S'16.5'
p2245
sg34
S'2.0'
p2246
sg36
S'4.0'
p2247
sg38
S'3.7'
p2248
sg40
S'34'
p2249
sg42
S'TOT'
p2250
sg44
S'80'
p2251
sg46
S'0.2'
p2252
sg48
S'6.9'
p2253
sg50
S'2.8'
p2254
sg52
S'14.4'
p2255
sg54
S'2.9'
p2256
sg56
S'2002-03'
p2257
sg58
S'7.5'
p2258
sg60
S'2.1'
p2259
sg62
S'.476'
p2260
sg64
S'3208'
p2261
sg66
S'80'
p2262
sba(isrc.gp1.models.Per36Minutes
Per36Minutes
p2263
(dp2264
g8
S'0.9'
p2265
sg10
S'1.9'
p2266
sg12
S'.448'
p2267
sg14
S'7.7'
p2268
sg16
S'.298'
p2269
sg18
S'0.6'
p2270
sg20
S'18.4'
p2271
sg22
S'PG'
p2272
sg24
S'.692'
p2273
sg28
S'NBA'
p2274
sg30
S'1.6'
p2275
sg32
S'16.8'
p2276
sg34
S'2.0'
p2277
sg36
S'4.0'
p2278
sg38
S'4.2'
p2279
sg40
S'34'
p2280
sg42
S'SEA'
p2281
sg44
S'52'
p2282
sg46
S'0.2'
p2283
sg48
S'7.0'
p2284
sg50
S'2.7'
p2285
sg52
S'14.9'
p2286
sg54
S'3.3'
p2287
sg56
S'2002-03'
p2288
sg58
S'7.5'
p2289
sg60
S'2.2'
p2290
sg62
S'.467'
p2291
sg64
S'2123'
p2292
sg66
S'52'
p2293
sba(isrc.gp1.models.Per36Minutes
Per36Minutes
p2294
(dp2295
g8
S'0.8'
p2296
sg10
S'2.3'
p2297
sg12
S'.466'
p2298
sg14
S'6.8'
p2299
sg16
S'.294'
p2300
sg18
S'0.7'
p2301
sg20
S'18.2'
p2302
sg22
S'PG'
p2303
sg24
S'.746'
p2304
sg28
S'NBA'
p2305
sg30
S'1.3'
p2306
sg32
S'15.7'
p2307
sg34
S'2.1'
p2308
sg36
S'3.9'
p2309
sg38
S'2.9'
p2310
sg40
S'34'
p2311
sg42
S'MIL'
p2312
sg44
S'28'
p2313
sg46
S'0.3'
p2314
sg48
S'6.7'
p2315
sg50
S'2.9'
p2316
sg52
S'13.5'
p2317
sg54
S'2.1'
p2318
sg56
S'2002-03'
p2319
sg58
S'7.3'
p2320
sg60
S'1.9'
p2321
sg62
S'.495'
p2322
sg64
S'1085'
p2323
sg66
S'28'
p2324
sba(isrc.gp1.models.Per36Minutes
Per36Minutes
p2325
(dp2326
g8
S'0.9'
p2327
sg10
S'2.1'
p2328
sg12
S'.471'
p2329
sg14
S'5.7'
p2330
sg16
S'.333'
p2331
sg18
S'0.7'
p2332
sg20
S'15.3'
p2333
sg22
S'PG'
p2334
sg24
S'.714'
p2335
sg28
S'NBA'
p2336
sg30
S'1.2'
p2337
sg32
S'13.0'
p2338
sg34
S'2.2'
p2339
sg36
S'3.2'
p2340
sg38
S'4.4'
p2341
sg40
S'35'
p2342
sg42
S'LAL'
p2343
sg44
S'82'
p2344
sg46
S'0.2'
p2345
sg48
S'5.4'
p2346
sg50
S'2.3'
p2347
sg52
S'10.9'
p2348
sg54
S'3.4'
p2349
sg56
S'2003-04'
p2350
sg58
S'6.1'
p2351
sg60
S'1.9'
p2352
sg62
S'.497'
p2353
sg64
S'2825'
p2354
sg66
S'82'
p2355
sba(isrc.gp1.models.Per36Minutes
Per36Minutes
p2356
(dp2357
g8
S'0.7'
p2358
sg10
S'1.8'
p2359
sg12
S'.468'
p2360
sg14
S'6.6'
p2361
sg16
S'.326'
p2362
sg18
S'0.6'
p2363
sg20
S'12.4'
p2364
sg22
S'PG'
p2365
sg24
S'.761'
p2366
sg28
S'NBA'
p2367
sg30
S'1.2'
p2368
sg32
S'10.3'
p2369
sg34
S'1.7'
p2370
sg36
S'2.8'
p2371
sg38
S'3.3'
p2372
sg40
S'36'
p2373
sg42
S'BOS'
p2374
sg44
S'77'
p2375
sg46
S'0.2'
p2376
sg48
S'4.2'
p2377
sg50
S'2.2'
p2378
sg52
S'8.4'
p2379
sg54
S'2.7'
p2380
sg56
S'2004-05'
p2381
sg58
S'4.8'
p2382
sg60
S'2.1'
p2383
sg62
S'.498'
p2384
sg64
S'2541'
p2385
sg66
S'77'
p2386
sba(isrc.gp1.models.Per36Minutes
Per36Minutes
p2387
(dp2388
g8
S'0.5'
p2389
sg10
S'3.6'
p2390
sg12
S'.420'
p2391
sg14
S'4.0'
p2392
sg16
S'.287'
p2393
sg18
S'1.0'
p2394
sg20
S'9.8'
p2395
sg22
S'PG'
p2396
sg24
S'.794'
p2397
sg28
S'NBA'
p2398
sg30
S'1.1'
p2399
sg32
S'8.5'
p2400
sg34
S'2.6'
p2401
sg36
S'2.0'
p2402
sg38
S'3.6'
p2403
sg40
S'37'
p2404
sg42
S'MIA'
p2405
sg44
S'81'
p2406
sg46
S'0.2'
p2407
sg48
S'2.6'
p2408
sg50
S'1.6'
p2409
sg52
S'5.0'
p2410
sg54
S'3.1'
p2411
sg56
S'2005-06'
p2412
sg58
S'3.6'
p2413
sg60
S'1.6'
p2414
sg62
S'.517'
p2415
sg64
S'2305'
p2416
sg66
S'25'
p2417
sba(isrc.gp1.models.Per36Minutes
Per36Minutes
p2418
(dp2419
g8
S'0.4'
p2420
sg10
S'2.9'
p2421
sg12
S'.393'
p2422
sg14
S'4.8'
p2423
sg16
S'.260'
p2424
sg18
S'0.8'
p2425
sg20
S'8.6'
p2426
sg22
S'PG'
p2427
sg24
S'.667'
p2428
sg28
S'NBA'
p2429
sg30
S'1.0'
p2430
sg32
S'8.8'
p2431
sg34
S'2.8'
p2432
sg36
S'1.4'
p2433
sg38
S'3.2'
p2434
sg40
S'38'
p2435
sg42
S'MIA'
p2436
sg44
S'68'
p2437
sg46
S'0.1'
p2438
sg48
S'2.7'
p2439
sg50
S'0.9'
p2440
sg52
S'5.8'
p2441
sg54
S'2.7'
p2442
sg56
S'2006-07'
p2443
sg58
S'3.4'
p2444
sg60
S'1.6'
p2445
sg62
S'.461'
p2446
sg64
S'1503'
p2447
sg66
S'28'
p2448
sbasS'_fromYear'
p2449
S'1991'
p2450
sS'_url'
p2451
S'http://www.basketball-reference.com/players/p/paytoga01.html'
p2452
sS'_perGame'
p2453
(isrc.gp1.models.PerGame
PerGame
p2454
(dp2455
g8
S'0.3'
p2456
sg10
S'1.8'
p2457
sg12
S'.393'
p2458
sS'_effectiveFieldGalPercentage'
p2459
S'.437'
p2460
sg14
S'3.0'
p2461
sg16
S'.260'
p2462
sg18
S'0.5'
p2463
sg20
S'5.3'
p2464
sg22
S'PG'
p2465
sg24
S'.667'
p2466
sg28
S'NBA'
p2467
sg30
S'0.6'
p2468
sg34
S'1.7'
p2469
sS'_fieldGoalsttempted'
p2470
S'5.4'
p2471
sg36
S'0.8'
p2472
sg38
S'1.9'
p2473
sg40
S'38'
p2474
sg42
S'MIA'
p2475
sg44
S'68'
p2476
sg46
S'0.0'
p2477
sg48
S'1.6'
p2478
sg50
S'0.6'
p2479
sg52
S'3.6'
p2480
sg54
S'1.7'
p2481
sg56
S'2006-07'
p2482
sg58
S'2.1'
p2483
sg60
S'1.0'
p2484
sg62
S'.461'
p2485
sg64
S'22.1'
p2486
sg66
S'28'
p2487
sbsS'_weight'
p2488
S'180'
p2489
sS'_dob'
p2490
S'23-7-1968'
p2491
sS'_salary'
p2492
(lp2493
(isrc.gp1.models.Salary
Salary
p2494
(dp2495
g42
S'Seattle SuperSonics'
p2496
sg28
S'NBA'
p2497
sg2492
S'$1,685,000'
p2498
sg56
S'1990-91'
p2499
sba(isrc.gp1.models.Salary
Salary
p2500
(dp2501
g42
S'Seattle SuperSonics'
p2502
sg28
S'NBA'
p2503
sg2492
S'$1,883,000'
p2504
sg56
S'1991-92'
p2505
sba(isrc.gp1.models.Salary
Salary
p2506
(dp2507
g42
S'Seattle SuperSonics'
p2508
sg28
S'NBA'
p2509
sg2492
S'$2,183,000'
p2510
sg56
S'1992-93'
p2511
sba(isrc.gp1.models.Salary
Salary
p2512
(dp2513
g42
S'Seattle SuperSonics'
p2514
sg28
S'NBA'
p2515
sg2492
S'$2,383,000'
p2516
sg56
S'1993-94'
p2517
sba(isrc.gp1.models.Salary
Salary
p2518
(dp2519
g42
S'Seattle SuperSonics'
p2520
sg28
S'NBA'
p2521
sg2492
S'$2,583,300'
p2522
sg56
S'1994-95'
p2523
sba(isrc.gp1.models.Salary
Salary
p2524
(dp2525
g42
S'Seattle SuperSonics'
p2526
sg28
S'NBA'
p2527
sg2492
S'$2,783,000'
p2528
sg56
S'1995-96'
p2529
sba(isrc.gp1.models.Salary
Salary
p2530
(dp2531
g42
S'Seattle SuperSonics'
p2532
sg28
S'NBA'
p2533
sg2492
S'$10,212,000'
p2534
sg56
S'1996-97'
p2535
sba(isrc.gp1.models.Salary
Salary
p2536
(dp2537
g42
S'Seattle SuperSonics'
p2538
sg28
S'NBA'
p2539
sg2492
S'$10,514,688'
p2540
sg56
S'1997-98'
p2541
sba(isrc.gp1.models.Salary
Salary
p2542
(dp2543
g42
S'Seattle SuperSonics'
p2544
sg28
S'NBA'
p2545
sg2492
S'$8,715,000'
p2546
sg56
S'1998-99'
p2547
sba(isrc.gp1.models.Salary
Salary
p2548
(dp2549
g42
S'Seattle SuperSonics'
p2550
sg28
S'NBA'
p2551
sg2492
S'$11,020,473'
p2552
sg56
S'1999-00'
p2553
sba(isrc.gp1.models.Salary
Salary
p2554
(dp2555
g42
S'Seattle SuperSonics'
p2556
sg28
S'NBA'
p2557
sg2492
S'$12,200,000'
p2558
sg56
S'2000-01'
p2559
sba(isrc.gp1.models.Salary
Salary
p2560
(dp2561
g42
S'Seattle SuperSonics'
p2562
sg28
S'NBA'
p2563
sg2492
S'$12,926,493'
p2564
sg56
S'2001-02'
p2565
sba(isrc.gp1.models.Salary
Salary
p2566
(dp2567
g42
S'Seattle SuperSonics'
p2568
sg28
S'NBA'
p2569
sg2492
S'$12,636,117'
p2570
sg56
S'2002-03'
p2571
sba(isrc.gp1.models.Salary
Salary
p2572
(dp2573
g42
S'Los Angeles Lakers'
p2574
sg28
S'NBA'
p2575
sg2492
S'$4,917,000'
p2576
sg56
S'2003-04'
p2577
sba(isrc.gp1.models.Salary
Salary
p2578
(dp2579
g42
S'Boston Celtics'
p2580
sg28
S'NBA'
p2581
sg2492
S'$5,408,700'
p2582
sg56
S'2004-05'
p2583
sba(isrc.gp1.models.Salary
Salary
p2584
(dp2585
g42
S'Miami Heat'
p2586
sg28
S'NBA'
p2587
sg2492
S'$1,138,500'
p2588
sg56
S'2005-06'
p2589
sba(isrc.gp1.models.Salary
Salary
p2590
(dp2591
g42
S'Miami Heat'
p2592
sg28
S'NBA'
p2593
sg2492
S'$1,178,348'
p2594
sg56
S'2006-07'
p2595
sbasg22
S'G'
p2596
sb.