(isrc.gp1.models.Player
Player
p0
(dp1
S'_experience'
p2
S'NA'
p3
sS'_totals'
p4
(lp5
(isrc.gp1.models.Totals
Totals
p6
(dp7
S'_offensiveRebounds'
p8
S'112'
p9
sS'_threePointsAttempted'
p10
S'165'
p11
sS'_fieldGoalsPercentage'
p12
S'.431'
p13
sS'_assist'
p14
S'105'
p15
sS'_threePointsPercentage'
p16
S'.382'
p17
sS'_threePoints'
p18
S'63'
p19
sS'_points'
p20
S'747'
p21
sS'_position'
p22
S'SG'
p23
sS'_freeThrowsPercentage'
p24
S'.717'
p25
sS'_effectiveFieldGoalPercentage'
p26
S'.478'
p27
sS'_league'
p28
S'NBA'
p29
sS'_steals'
p30
S'63'
p31
sS'_fieldGoalsAttempted'
p32
S'673'
p33
sS'_personalFouls'
p34
S'164'
p35
sS'_freeThrowsAttempted'
p36
S'145'
p37
sS'_totalRebounds'
p38
S'259'
p39
sS'_age'
p40
S'23'
p41
sS'_team'
p42
S'TOR'
p43
sS'_games'
p44
S'80'
p45
sS'_blocks'
p46
S'20'
p47
sS'_twoPoints'
p48
S'227'
p49
sS'_freeThrows'
p50
S'104'
p51
sS'_twoPointsAttempted'
p52
S'508'
p53
sS'_defensiveRebounds'
p54
S'147'
p55
sS'_season'
p56
S'2000-01'
p57
sS'_fieldGoals'
p58
S'290'
p59
sS'_turnOvers'
p60
S'78'
p61
sS'_twoPointsPercentage'
p62
S'.447'
p63
sS'_minutesPlayed'
p64
S'1809'
p65
sS'_gamesStarted'
p66
S'49'
p67
sba(isrc.gp1.models.Totals
Totals
p68
(dp69
g8
S'91'
p70
sg10
S'231'
p71
sg12
S'.438'
p72
sg14
S'153'
p73
sg16
S'.364'
p74
sg18
S'84'
p75
sg20
S'883'
p76
sg22
S'SF'
p77
sg24
S'.751'
p78
sg26
S'.492'
p79
sg28
S'NBA'
p80
sg30
S'73'
p81
sg32
S'768'
p82
sg34
S'174'
p83
sg36
S'169'
p84
sg38
S'223'
p85
sg40
S'24'
p86
sg42
S'TOR'
p87
sg44
S'63'
p88
sg46
S'11'
p89
sg48
S'252'
p90
sg50
S'127'
p91
sg52
S'537'
p92
sg54
S'132'
p93
sg56
S'2001-02'
p94
sg58
S'336'
p95
sg60
S'86'
p96
sg62
S'.469'
p97
sg64
S'1988'
p98
sg66
S'56'
p99
sba(isrc.gp1.models.Totals
Totals
p100
(dp101
g8
S'97'
p102
sg10
S'344'
p103
sg12
S'.392'
p104
sg14
S'188'
p105
sg16
S'.337'
p106
sg18
S'116'
p107
sg20
S'1153'
p108
sg22
S'SF'
p109
sg24
S'.789'
p110
sg26
S'.446'
p111
sg28
S'NBA'
p112
sg30
S'88'
p113
sg32
S'1073'
p114
sg34
S'232'
p115
sg36
S'247'
p116
sg38
S'363'
p117
sg40
S'25'
p118
sg42
S'TOR'
p119
sg44
S'82'
p120
sg46
S'32'
p121
sg48
S'305'
p122
sg50
S'195'
p123
sg52
S'729'
p124
sg54
S'266'
p125
sg56
S'2002-03'
p126
sg58
S'421'
p127
sg60
S'128'
p128
sg62
S'.418'
p129
sg64
S'2949'
p130
sg66
S'80'
p131
sba(isrc.gp1.models.Totals
Totals
p132
(dp133
g8
S'35'
p134
sg10
S'340'
p135
sg12
S'.405'
p136
sg14
S'113'
p137
sg16
S'.371'
p138
sg18
S'126'
p139
sg20
S'678'
p140
sg22
S'SF'
p141
sg24
S'.809'
p142
sg26
S'.513'
p143
sg28
S'NBA'
p144
sg30
S'88'
p145
sg32
S'587'
p146
sg34
S'206'
p147
sg36
S'94'
p148
sg38
S'261'
p149
sg40
S'26'
p150
sg42
S'TOR'
p151
sg44
S'82'
p152
sg46
S'14'
p153
sg48
S'112'
p154
sg50
S'76'
p155
sg52
S'247'
p156
sg54
S'226'
p157
sg56
S'2003-04'
p158
sg58
S'238'
p159
sg60
S'69'
p160
sg62
S'.453'
p161
sg64
S'2148'
p162
sg66
S'29'
p163
sba(isrc.gp1.models.Totals
Totals
p164
(dp165
g8
S'71'
p166
sg10
S'335'
p167
sg12
S'.420'
p168
sg14
S'169'
p169
sg16
S'.385'
p170
sg18
S'129'
p171
sg20
S'1029'
p172
sg22
S'SG'
p173
sg24
S'.832'
p174
sg26
S'.496'
p175
sg28
S'NBA'
p176
sg30
S'91'
p177
sg32
S'848'
p178
sg34
S'219'
p179
sg36
S'226'
p180
sg38
S'340'
p181
sg40
S'27'
p182
sg42
S'TOR'
p183
sg44
S'82'
p184
sg46
S'18'
p185
sg48
S'227'
p186
sg50
S'188'
p187
sg52
S'513'
p188
sg54
S'269'
p189
sg56
S'2004-05'
p190
sg58
S'356'
p191
sg60
S'93'
p192
sg62
S'.442'
p193
sg64
S'2510'
p194
sg66
S'61'
p195
sba(isrc.gp1.models.Totals
Totals
p196
(dp197
g8
S'65'
p198
sg10
S'448'
p199
sg12
S'.436'
p200
sg14
S'190'
p201
sg16
S'.395'
p202
sg18
S'177'
p203
sg20
S'1374'
p204
sg22
S'SG'
p205
sg24
S'.820'
p206
sg26
S'.517'
p207
sg28
S'NBA'
p208
sg30
S'104'
p209
sg32
S'1096'
p210
sg34
S'223'
p211
sg36
S'294'
p212
sg38
S'381'
p213
sg40
S'28'
p214
sg42
S'TOR'
p215
sg44
S'82'
p216
sg46
S'15'
p217
sg48
S'301'
p218
sg50
S'241'
p219
sg52
S'648'
p220
sg54
S'316'
p221
sg56
S'2005-06'
p222
sg58
S'478'
p223
sg60
S'126'
p224
sg62
S'.465'
p225
sg64
S'3140'
p226
sg66
S'77'
p227
sba(isrc.gp1.models.Totals
Totals
p228
(dp229
g8
S'32'
p230
sg10
S'295'
p231
sg12
S'.429'
p232
sg14
S'47'
p233
sg16
S'.359'
p234
sg18
S'106'
p235
sg20
S'634'
p236
sg22
S'SF'
p237
sg24
S'.683'
p238
sg26
S'.532'
p239
sg28
S'NBA'
p240
sg30
S'45'
p241
sg32
S'517'
p242
sg34
S'126'
p243
sg36
S'123'
p244
sg38
S'237'
p245
sg40
S'29'
p246
sg42
S'TOR'
p247
sg44
S'71'
p248
sg46
S'12'
p249
sg48
S'116'
p250
sg50
S'84'
p251
sg52
S'222'
p252
sg54
S'205'
p253
sg56
S'2006-07'
p254
sg58
S'222'
p255
sg60
S'53'
p256
sg62
S'.523'
p257
sg64
S'1515'
p258
sg66
S'12'
p259
sba(isrc.gp1.models.Totals
Totals
p260
(dp261
g8
S'36'
p262
sg10
S'287'
p263
sg12
S'.417'
p264
sg14
S'67'
p265
sg16
S'.394'
p266
sg18
S'113'
p267
sg20
S'608'
p268
sg22
S'SG'
p269
sg24
S'.765'
p270
sg26
S'.526'
p271
sg28
S'NBA'
p272
sg30
S'47'
p273
sg32
S'516'
p274
sg34
S'125'
p275
sg36
S'85'
p276
sg38
S'206'
p277
sg40
S'30'
p278
sg42
S'NOH'
p279
sg44
S'76'
p280
sg46
S'7'
p281
sg48
S'102'
p282
sg50
S'65'
p283
sg52
S'229'
p284
sg54
S'170'
p285
sg56
S'2007-08'
p286
sg58
S'215'
p287
sg60
S'41'
p288
sg62
S'.445'
p289
sg64
S'1796'
p290
sg66
S'76'
p291
sba(isrc.gp1.models.Totals
Totals
p292
(dp293
g8
S'13'
p294
sg10
S'85'
p295
sg12
S'.399'
p296
sg14
S'16'
p297
sg16
S'.388'
p298
sg18
S'33'
p299
sg20
S'191'
p300
sg22
S'SG'
p301
sg24
S'.632'
p302
sg26
S'.489'
p303
sg28
S'NBA'
p304
sg30
S'15'
p305
sg32
S'183'
p306
sg34
S'51'
p307
sg36
S'19'
p308
sg38
S'84'
p309
sg40
S'31'
p310
sg42
S'NOH'
p311
sg44
S'43'
p312
sg46
S'2'
p313
sg48
S'40'
p314
sg50
S'12'
p315
sg52
S'98'
p316
sg54
S'71'
p317
sg56
S'2008-09'
p318
sg58
S'73'
p319
sg60
S'15'
p320
sg62
S'.408'
p321
sg64
S'515'
p322
sg66
S'9'
p323
sba(isrc.gp1.models.Totals
Totals
p324
(dp325
g8
S'17'
p326
sg10
S'171'
p327
sg12
S'.385'
p328
sg14
S'41'
p329
sg16
S'.363'
p330
sg18
S'62'
p331
sg20
S'327'
p332
sg22
S'SG'
p333
sg24
S'.611'
p334
sg26
S'.488'
p335
sg28
S'NBA'
p336
sg30
S'25'
p337
sg32
S'301'
p338
sg34
S'81'
p339
sg36
S'54'
p340
sg38
S'126'
p341
sg40
S'32'
p342
sg42
S'NOH'
p343
sg44
S'46'
p344
sg46
S'5'
p345
sg48
S'54'
p346
sg50
S'33'
p347
sg52
S'130'
p348
sg54
S'109'
p349
sg56
S'2009-10'
p350
sg58
S'116'
p351
sg60
S'27'
p352
sg62
S'.415'
p353
sg64
S'973'
p354
sg66
S'39'
p355
sba(isrc.gp1.models.Totals
Totals
p356
(dp357
g8
S'0'
p358
sg10
S'1'
p359
sg12
S'.400'
p360
sg14
g359
sg16
S'.000'
p361
sg18
g358
sg20
S'4'
p362
sg22
S'SG'
p363
sg24
g3
sg26
S'.400'
p364
sg28
S'NBA'
p365
sg30
g358
sg32
g345
sg34
g345
sg36
g358
sg38
S'3'
p366
sg40
S'33'
p367
sg42
S'OKC'
p368
sg44
g362
sg46
g358
sg48
g313
sg50
g358
sg52
g362
sg54
g366
sg56
S'2010-11'
p369
sg58
g313
sg60
g358
sg62
S'.500'
p370
sg64
S'23'
p371
sg66
g358
sbasS'_college'
p372
S'Michigan State University'
p373
sS'_toYear'
p374
S'2011'
p375
sS'_height'
p376
S'6-7'
p377
sS'_active'
p378
I00
sS'_shootingHand'
p379
VLeft
p380
sS'_name'
p381
S'Morris Peterson'
p382
sS'_per100Possessions'
p383
(lp384
(isrc.gp1.models.Per100Possession
Per100Possession
p385
(dp386
g8
S'3.3'
p387
sg10
S'4.8'
p388
sg12
S'.431'
p389
sS'_offensiveRating'
p390
S'105'
p391
sg14
S'3.1'
p392
sg16
S'.382'
p393
sg18
S'1.8'
p394
sg20
S'21.8'
p395
sg22
S'SG'
p396
sS'_defensiveRating'
p397
S'105'
p398
sg24
S'.717'
p399
sg28
S'NBA'
p400
sg30
S'1.8'
p401
sg32
S'19.6'
p402
sg34
S'4.8'
p403
sg36
S'4.2'
p404
sg38
S'7.6'
p405
sg40
S'23'
p406
sg42
S'TOR'
p407
sg44
S'80'
p408
sg46
S'0.6'
p409
sg48
S'6.6'
p410
sg50
S'3.0'
p411
sg52
S'14.8'
p412
sg54
S'4.3'
p413
sg56
S'2000-01'
p414
sg58
S'8.5'
p415
sg60
S'2.3'
p416
sg62
S'.447'
p417
sg64
S'1809'
p418
sg66
S'49'
p419
sba(isrc.gp1.models.Per100Possession
Per100Possession
p420
(dp421
g8
S'2.5'
p422
sg10
S'6.3'
p423
sg12
S'.438'
p424
sg390
S'109'
p425
sg14
S'4.2'
p426
sg16
S'.364'
p427
sg18
S'2.3'
p428
sg20
S'24.0'
p429
sg22
S'SF'
p430
sg397
S'106'
p431
sg24
S'.751'
p432
sg28
S'NBA'
p433
sg30
S'2.0'
p434
sg32
S'20.9'
p435
sg34
S'4.7'
p436
sg36
S'4.6'
p437
sg38
S'6.1'
p438
sg40
S'24'
p439
sg42
S'TOR'
p440
sg44
S'63'
p441
sg46
S'0.3'
p442
sg48
S'6.9'
p443
sg50
S'3.5'
p444
sg52
S'14.6'
p445
sg54
S'3.6'
p446
sg56
S'2001-02'
p447
sg58
S'9.1'
p448
sg60
S'2.3'
p449
sg62
S'.469'
p450
sg64
S'1988'
p451
sg66
S'56'
p452
sba(isrc.gp1.models.Per100Possession
Per100Possession
p453
(dp454
g8
S'1.8'
p455
sg10
S'6.2'
p456
sg12
S'.392'
p457
sg390
S'101'
p458
sg14
S'3.4'
p459
sg16
S'.337'
p460
sg18
S'2.1'
p461
sg20
S'20.9'
p462
sg22
S'SF'
p463
sg397
S'109'
p464
sg24
S'.789'
p465
sg28
S'NBA'
p466
sg30
S'1.6'
p467
sg32
S'19.4'
p468
sg34
S'4.2'
p469
sg36
S'4.5'
p470
sg38
S'6.6'
p471
sg40
S'25'
p472
sg42
S'TOR'
p473
sg44
S'82'
p474
sg46
S'0.6'
p475
sg48
S'5.5'
p476
sg50
S'3.5'
p477
sg52
S'13.2'
p478
sg54
S'4.8'
p479
sg56
S'2002-03'
p480
sg58
S'7.6'
p481
sg60
S'2.3'
p482
sg62
S'.418'
p483
sg64
S'2949'
p484
sg66
S'80'
p485
sba(isrc.gp1.models.Per100Possession
Per100Possession
p486
(dp487
g8
S'0.9'
p488
sg10
S'8.8'
p489
sg12
S'.405'
p490
sg390
S'105'
p491
sg14
S'2.9'
p492
sg16
S'.371'
p493
sg18
S'3.2'
p494
sg20
S'17.5'
p495
sg22
S'SF'
p496
sg397
S'101'
p497
sg24
S'.809'
p498
sg28
S'NBA'
p499
sg30
S'2.3'
p500
sg32
S'15.1'
p501
sg34
S'5.3'
p502
sg36
S'2.4'
p503
sg38
S'6.7'
p504
sg40
S'26'
p505
sg42
S'TOR'
p506
sg44
S'82'
p507
sg46
S'0.4'
p508
sg48
S'2.9'
p509
sg50
S'2.0'
p510
sg52
S'6.4'
p511
sg54
S'5.8'
p512
sg56
S'2003-04'
p513
sg58
S'6.1'
p514
sg60
S'1.8'
p515
sg62
S'.453'
p516
sg64
S'2148'
p517
sg66
S'29'
p518
sba(isrc.gp1.models.Per100Possession
Per100Possession
p519
(dp520
g8
S'1.5'
p521
sg10
S'6.9'
p522
sg12
S'.420'
p523
sg390
S'110'
p524
sg14
S'3.5'
p525
sg16
S'.385'
p526
sg18
S'2.7'
p527
sg20
S'21.2'
p528
sg22
S'SG'
p529
sg397
S'109'
p530
sg24
S'.832'
p531
sg28
S'NBA'
p532
sg30
S'1.9'
p533
sg32
S'17.5'
p534
sg34
S'4.5'
p535
sg36
S'4.7'
p536
sg38
S'7.0'
p537
sg40
S'27'
p538
sg42
S'TOR'
p539
sg44
S'82'
p540
sg46
S'0.4'
p541
sg48
S'4.7'
p542
sg50
S'3.9'
p543
sg52
S'10.6'
p544
sg54
S'5.6'
p545
sg56
S'2004-05'
p546
sg58
S'7.3'
p547
sg60
S'1.9'
p548
sg62
S'.442'
p549
sg64
S'2510'
p550
sg66
S'61'
p551
sba(isrc.gp1.models.Per100Possession
Per100Possession
p552
(dp553
g8
S'1.1'
p554
sg10
S'7.5'
p555
sg12
S'.436'
p556
sg390
S'112'
p557
sg14
S'3.2'
p558
sg16
S'.395'
p559
sg18
S'3.0'
p560
sg20
S'23.1'
p561
sg22
S'SG'
p562
sg397
S'113'
p563
sg24
S'.820'
p564
sg28
S'NBA'
p565
sg30
S'1.7'
p566
sg32
S'18.4'
p567
sg34
S'3.7'
p568
sg36
S'4.9'
p569
sg38
S'6.4'
p570
sg40
S'28'
p571
sg42
S'TOR'
p572
sg44
S'82'
p573
sg46
S'0.3'
p574
sg48
S'5.1'
p575
sg50
S'4.0'
p576
sg52
S'10.9'
p577
sg54
S'5.3'
p578
sg56
S'2005-06'
p579
sg58
S'8.0'
p580
sg60
S'2.1'
p581
sg62
S'.465'
p582
sg64
S'3140'
p583
sg66
S'77'
p584
sba(isrc.gp1.models.Per100Possession
Per100Possession
p585
(dp586
g8
S'1.1'
p587
sg10
S'10.1'
p588
sg12
S'.429'
p589
sg390
S'106'
p590
sg14
S'1.6'
p591
sg16
S'.359'
p592
sg18
S'3.6'
p593
sg20
S'21.7'
p594
sg22
S'SF'
p595
sg397
S'106'
p596
sg24
S'.683'
p597
sg28
S'NBA'
p598
sg30
S'1.5'
p599
sg32
S'17.7'
p600
sg34
S'4.3'
p601
sg36
S'4.2'
p602
sg38
S'8.1'
p603
sg40
S'29'
p604
sg42
S'TOR'
p605
sg44
S'71'
p606
sg46
S'0.4'
p607
sg48
S'4.0'
p608
sg50
S'2.9'
p609
sg52
S'7.6'
p610
sg54
S'7.0'
p611
sg56
S'2006-07'
p612
sg58
S'7.6'
p613
sg60
S'1.8'
p614
sg62
S'.523'
p615
sg64
S'1515'
p616
sg66
S'12'
p617
sba(isrc.gp1.models.Per100Possession
Per100Possession
p618
(dp619
g8
S'1.1'
p620
sg10
S'8.5'
p621
sg12
S'.417'
p622
sg390
S'112'
p623
sg14
S'2.0'
p624
sg16
S'.394'
p625
sg18
S'3.4'
p626
sg20
S'18.1'
p627
sg22
S'SG'
p628
sg397
S'108'
p629
sg24
S'.765'
p630
sg28
S'NBA'
p631
sg30
S'1.4'
p632
sg32
S'15.3'
p633
sg34
S'3.7'
p634
sg36
S'2.5'
p635
sg38
S'6.1'
p636
sg40
S'30'
p637
sg42
S'NOH'
p638
sg44
S'76'
p639
sg46
S'0.2'
p640
sg48
S'3.0'
p641
sg50
S'1.9'
p642
sg52
S'6.8'
p643
sg54
S'5.1'
p644
sg56
S'2007-08'
p645
sg58
S'6.4'
p646
sg60
S'1.2'
p647
sg62
S'.445'
p648
sg64
S'1796'
p649
sg66
S'76'
p650
sba(isrc.gp1.models.Per100Possession
Per100Possession
p651
(dp652
g8
S'1.4'
p653
sg10
S'9.0'
p654
sg12
S'.399'
p655
sg390
S'100'
p656
sg14
S'1.7'
p657
sg16
S'.388'
p658
sg18
S'3.5'
p659
sg20
S'20.3'
p660
sg22
S'SG'
p661
sg397
S'107'
p662
sg24
S'.632'
p663
sg28
S'NBA'
p664
sg30
S'1.6'
p665
sg32
S'19.4'
p666
sg34
S'5.4'
p667
sg36
S'2.0'
p668
sg38
S'8.9'
p669
sg40
S'31'
p670
sg42
S'NOH'
p671
sg44
S'43'
p672
sg46
S'0.2'
p673
sg48
S'4.2'
p674
sg50
S'1.3'
p675
sg52
S'10.4'
p676
sg54
S'7.5'
p677
sg56
S'2008-09'
p678
sg58
S'7.7'
p679
sg60
S'1.6'
p680
sg62
S'.408'
p681
sg64
S'515'
p682
sg66
g323
sba(isrc.gp1.models.Per100Possession
Per100Possession
p683
(dp684
g8
S'0.9'
p685
sg10
S'9.1'
p686
sg12
S'.385'
p687
sg390
S'102'
p688
sg14
S'2.2'
p689
sg16
S'.363'
p690
sg18
S'3.3'
p691
sg20
S'17.4'
p692
sg22
S'SG'
p693
sg397
S'112'
p694
sg24
S'.611'
p695
sg28
S'NBA'
p696
sg30
S'1.3'
p697
sg32
S'16.0'
p698
sg34
S'4.3'
p699
sg36
S'2.9'
p700
sg38
S'6.7'
p701
sg40
S'32'
p702
sg42
S'NOH'
p703
sg44
S'46'
p704
sg46
S'0.3'
p705
sg48
S'2.9'
p706
sg50
S'1.8'
p707
sg52
S'6.9'
p708
sg54
S'5.8'
p709
sg56
S'2009-10'
p710
sg58
S'6.2'
p711
sg60
S'1.4'
p712
sg62
S'.415'
p713
sg64
S'973'
p714
sg66
S'39'
p715
sba(isrc.gp1.models.Per100Possession
Per100Possession
p716
(dp717
g8
S'0.0'
p718
sg10
S'2.3'
p719
sg12
S'.400'
p720
sg390
S'95'
p721
sg14
S'2.3'
p722
sg16
S'.000'
p723
sg18
S'0.0'
p724
sg20
S'9.0'
p725
sg22
S'SG'
p726
sg397
S'112'
p727
sg24
g3
sg28
S'NBA'
p728
sg30
S'0.0'
p729
sg32
S'11.3'
p730
sg34
S'11.3'
p731
sg36
S'0.0'
p732
sg38
S'6.8'
p733
sg40
S'33'
p734
sg42
S'OKC'
p735
sg44
g362
sg46
S'0.0'
p736
sg48
S'4.5'
p737
sg50
S'0.0'
p738
sg52
S'9.0'
p739
sg54
S'6.8'
p740
sg56
S'2010-11'
p741
sg58
S'4.5'
p742
sg60
S'0.0'
p743
sg62
S'.500'
p744
sg64
S'23'
p745
sg66
g358
sbasS'_advanced'
p746
(lp747
(isrc.gp1.models.Advanced
Advanced
p748
(dp749
S'_offensiveReboundPercentage'
p750
S'6.8'
p751
sS'_turnOverPercentage'
p752
S'9.6'
p753
sS'_winSharesPer48Minutes'
p754
S'.096'
p755
sS'_stealPercentage'
p756
S'1.8'
p757
sS'_usagePercentage'
p758
S'20.1'
p759
sS'_totalReboundsPercentage'
p760
S'8.1'
p761
sS'_defensiveBoxPlusMinus'
p762
S'-1.1'
p763
sg22
S'SG'
p764
sS'_valueOverReplacementPlayer'
p765
S'0.8'
p766
sS'_trueShootingPercentage'
p767
S'.507'
p768
sS'_defensiveReboundPercentage'
p769
S'9.4'
p770
sS'_freeThrowsAttempRate'
p771
S'.215'
p772
sS'_threePointsAttempRate'
p773
S'.245'
p774
sg28
S'NBA'
p775
sS'_offensiveBoxPlusMinues'
p776
S'1.0'
p777
sS'_assistPercentage'
p778
S'9.6'
p779
sS'_defensiveWinShares'
p780
S'1.3'
p781
sg40
S'23'
p782
sg42
S'TOR'
p783
sg44
S'80'
p784
sS'_blockPercentage'
p785
S'0.8'
p786
sS'_playerEfficiencyRating'
p787
S'14.1'
p788
sS'_offensiveWinShares'
p789
S'2.3'
p790
sg64
S'1809'
p791
sS'_boxPlusMinus'
p792
S'-0.1'
p793
sg56
S'2000-01'
p794
sS'_winShares'
p795
S'3.6'
p796
sba(isrc.gp1.models.Advanced
Advanced
p797
(dp798
g750
S'5.1'
p799
sg752
S'9.3'
p800
sg754
S'.119'
p801
sg756
S'2.0'
p802
sg758
S'21.3'
p803
sg760
S'6.4'
p804
sg762
S'-1.0'
p805
sg22
S'SF'
p806
sg765
S'1.6'
p807
sg767
S'.524'
p808
sg769
S'7.9'
p809
sg771
S'.220'
p810
sg773
S'.301'
p811
sg28
S'NBA'
p812
sg776
S'2.2'
p813
sg778
S'13.5'
p814
sg780
S'1.7'
p815
sg40
S'24'
p816
sg42
S'TOR'
p817
sg44
S'63'
p818
sg785
S'0.4'
p819
sg787
S'15.3'
p820
sg789
S'3.2'
p821
sg64
S'1988'
p822
sg792
S'1.2'
p823
sg56
S'2001-02'
p824
sg795
S'4.9'
p825
sba(isrc.gp1.models.Advanced
Advanced
p826
(dp827
g750
S'3.6'
p828
sg752
S'9.8'
p829
sg754
S'.052'
p830
sg756
S'1.6'
p831
sg758
S'20.3'
p832
sg760
S'7.0'
p833
sg762
S'-1.3'
p834
sg22
S'SF'
p835
sg765
S'0.7'
p836
sg767
S'.488'
p837
sg769
S'10.7'
p838
sg771
S'.230'
p839
sg773
S'.321'
p840
sg28
S'NBA'
p841
sg776
S'0.2'
p842
sg778
S'11.1'
p843
sg780
S'1.1'
p844
sg40
S'25'
p845
sg42
S'TOR'
p846
sg44
S'82'
p847
sg785
S'0.8'
p848
sg787
S'12.6'
p849
sg789
S'2.1'
p850
sg64
S'2949'
p851
sg792
S'-1.1'
p852
sg56
S'2002-03'
p853
sg795
S'3.2'
p854
sba(isrc.gp1.models.Advanced
Advanced
p855
(dp856
g750
S'1.9'
p857
sg752
S'9.9'
p858
sg754
S'.110'
p859
sg756
S'2.3'
p860
sg758
S'15.7'
p861
sg760
S'7.0'
p862
sg762
S'0.5'
p863
sg22
S'SF'
p864
sg765
S'1.5'
p865
sg767
S'.539'
p866
sg769
S'12.2'
p867
sg771
S'.160'
p868
sg773
S'.579'
p869
sg28
S'NBA'
p870
sg776
S'0.2'
p871
sg778
S'9.5'
p872
sg780
S'2.8'
p873
sg40
S'26'
p874
sg42
S'TOR'
p875
sg44
S'82'
p876
sg785
S'0.5'
p877
sg787
S'12.1'
p878
sg789
S'2.1'
p879
sg64
S'2148'
p880
sg792
S'0.7'
p881
sg56
S'2003-04'
p882
sg795
S'4.9'
p883
sba(isrc.gp1.models.Advanced
Advanced
p884
(dp885
g750
S'3.1'
p886
sg752
S'8.9'
p887
sg754
S'.098'
p888
sg756
S'1.9'
p889
sg758
S'18.9'
p890
sg760
S'7.7'
p891
sg762
S'-0.5'
p892
sg22
S'SG'
p893
sg765
S'1.9'
p894
sg767
S'.543'
p895
sg769
S'12.4'
p896
sg771
S'.267'
p897
sg773
S'.395'
p898
sg28
S'NBA'
p899
sg776
S'1.4'
p900
sg778
S'11.2'
p901
sg780
S'1.6'
p902
sg40
S'27'
p903
sg42
S'TOR'
p904
sg44
S'82'
p905
sg785
S'0.5'
p906
sg787
S'14.4'
p907
sg789
S'3.5'
p908
sg64
S'2510'
p909
sg792
S'1.0'
p910
sg56
S'2004-05'
p911
sg795
S'5.1'
p912
sba(isrc.gp1.models.Advanced
Advanced
p913
(dp914
g750
S'2.4'
p915
sg752
S'9.3'
p916
sg754
S'.090'
p917
sg756
S'1.7'
p918
sg758
S'19.9'
p919
sg760
S'7.4'
p920
sg762
S'-1.4'
p921
sg22
S'SG'
p922
sg765
S'2.4'
p923
sg767
S'.561'
p924
sg769
S'12.8'
p925
sg771
S'.268'
p926
sg773
S'.409'
p927
sg28
S'NBA'
p928
sg776
S'2.4'
p929
sg778
S'10.0'
p930
sg780
S'0.6'
p931
sg40
S'28'
p932
sg42
S'TOR'
p933
sg44
S'82'
p934
sg785
S'0.4'
p935
sg787
S'15.3'
p936
sg789
S'5.2'
p937
sg64
S'3140'
p938
sg792
S'1.0'
p939
sg56
S'2005-06'
p940
sg795
S'5.9'
p941
sba(isrc.gp1.models.Advanced
Advanced
p942
(dp943
g750
S'2.5'
p944
sg752
S'8.5'
p945
sg754
S'.091'
p946
sg756
S'1.5'
p947
sg758
S'19.1'
p948
sg760
S'9.2'
p949
sg762
S'-1.2'
p950
sg22
S'SF'
p951
sg765
S'0.5'
p952
sg767
S'.555'
p953
sg769
S'16.1'
p954
sg771
S'.238'
p955
sg773
S'.571'
p956
sg28
S'NBA'
p957
sg776
S'0.4'
p958
sg778
S'5.0'
p959
sg780
S'1.6'
p960
sg40
S'29'
p961
sg42
S'TOR'
p962
sg44
S'71'
p963
sg785
S'0.6'
p964
sg787
S'13.2'
p965
sg789
S'1.3'
p966
sg64
S'1515'
p967
sg792
S'-0.7'
p968
sg56
S'2006-07'
p969
sg795
S'2.9'
p970
sba(isrc.gp1.models.Advanced
Advanced
p971
(dp972
g750
S'2.3'
p973
sg752
S'6.9'
p974
sg754
S'.101'
p975
sg756
S'1.4'
p976
sg758
S'15.4'
p977
sg760
S'6.7'
p978
sg762
S'-0.6'
p979
sg22
S'SG'
p980
sg765
S'0.9'
p981
sg767
S'.549'
p982
sg769
S'11.3'
p983
sg771
S'.165'
p984
sg773
S'.556'
p985
sg28
S'NBA'
p986
sg776
S'0.5'
p987
sg778
S'5.5'
p988
sg780
S'1.7'
p989
sg40
S'30'
p990
sg42
S'NOH'
p991
sg44
S'76'
p992
sg785
S'0.3'
p993
sg787
S'11.2'
p994
sg789
S'2.1'
p995
sg64
S'1796'
p996
sg792
S'-0.1'
p997
sg56
S'2007-08'
p998
sg795
S'3.8'
p999
sba(isrc.gp1.models.Advanced
Advanced
p1000
(dp1001
g750
S'3.1'
p1002
sg752
S'7.3'
p1003
sg754
S'.058'
p1004
sg756
S'1.6'
p1005
sg758
S'19.3'
p1006
sg760
S'9.9'
p1007
sg762
S'-2.0'
p1008
sg22
S'SG'
p1009
sg765
S'-0.3'
p1010
sg767
S'.499'
p1011
sg769
S'16.6'
p1012
sg771
S'.104'
p1013
sg773
S'.464'
p1014
sg28
S'NBA'
p1015
sg776
S'-2.3'
p1016
sg778
S'5.2'
p1017
sg780
S'0.6'
p1018
sg40
S'31'
p1019
sg42
S'NOH'
p1020
sg44
S'43'
p1021
sg785
S'0.3'
p1022
sg787
S'10.7'
p1023
sg789
S'0.0'
p1024
sg64
S'515'
p1025
sg792
S'-4.3'
p1026
sg56
S'2008-09'
p1027
sg795
S'0.6'
p1028
sba(isrc.gp1.models.Advanced
Advanced
p1029
(dp1030
g750
S'2.0'
p1031
sg752
S'7.7'
p1032
sg754
S'.039'
p1033
sg756
S'1.3'
p1034
sg758
S'16.5'
p1035
sg760
S'7.6'
p1036
sg762
S'-1.6'
p1037
sg22
S'SG'
p1038
sg765
S'-0.2'
p1039
sg767
S'.503'
p1040
sg769
S'13.4'
p1041
sg771
S'.179'
p1042
sg773
S'.568'
p1043
sg28
S'NBA'
p1044
sg776
S'-1.2'
p1045
sg778
S'6.2'
p1046
sg780
S'0.5'
p1047
sg40
S'32'
p1048
sg42
S'NOH'
p1049
sg44
S'46'
p1050
sg785
S'0.4'
p1051
sg787
S'9.3'
p1052
sg789
S'0.3'
p1053
sg64
S'973'
p1054
sg792
S'-2.8'
p1055
sg56
S'2009-10'
p1056
sg795
S'0.8'
p1057
sba(isrc.gp1.models.Advanced
Advanced
p1058
(dp1059
g750
S'0.0'
p1060
sg752
S'0.0'
p1061
sg754
S'.015'
p1062
sg756
S'0.0'
p1063
sg758
S'9.9'
p1064
sg760
S'7.6'
p1065
sg762
S'-2.1'
p1066
sg22
S'SG'
p1067
sg765
S'0.0'
p1068
sg767
S'.400'
p1069
sg769
S'14.8'
p1070
sg771
S'.000'
p1071
sg773
S'.200'
p1072
sg28
S'NBA'
p1073
sg776
S'-5.1'
p1074
sg778
S'6.4'
p1075
sg780
S'0.0'
p1076
sg40
S'33'
p1077
sg42
S'OKC'
p1078
sg44
g362
sg785
S'0.0'
p1079
sg787
S'1.7'
p1080
sg789
S'0.0'
p1081
sg64
S'23'
p1082
sg792
S'-7.3'
p1083
sg56
S'2010-11'
p1084
sg795
S'0.0'
p1085
sbasS'_per36Minutes'
p1086
(lp1087
(isrc.gp1.models.Per36Minutes
Per36Minutes
p1088
(dp1089
g8
S'2.2'
p1090
sg10
S'3.3'
p1091
sg12
S'.431'
p1092
sg14
S'2.1'
p1093
sg16
S'.382'
p1094
sg18
S'1.3'
p1095
sg20
S'14.9'
p1096
sg22
S'SG'
p1097
sg24
S'.717'
p1098
sg28
S'NBA'
p1099
sg30
S'1.3'
p1100
sg32
S'13.4'
p1101
sg34
S'3.3'
p1102
sg36
S'2.9'
p1103
sg38
S'5.2'
p1104
sg40
S'23'
p1105
sg42
S'TOR'
p1106
sg44
S'80'
p1107
sg46
S'0.4'
p1108
sg48
S'4.5'
p1109
sg50
S'2.1'
p1110
sg52
S'10.1'
p1111
sg54
S'2.9'
p1112
sg56
S'2000-01'
p1113
sg58
S'5.8'
p1114
sg60
S'1.6'
p1115
sg62
S'.447'
p1116
sg64
S'1809'
p1117
sg66
S'49'
p1118
sba(isrc.gp1.models.Per36Minutes
Per36Minutes
p1119
(dp1120
g8
S'1.6'
p1121
sg10
S'4.2'
p1122
sg12
S'.438'
p1123
sg14
S'2.8'
p1124
sg16
S'.364'
p1125
sg18
S'1.5'
p1126
sg20
S'16.0'
p1127
sg22
S'SF'
p1128
sg24
S'.751'
p1129
sg28
S'NBA'
p1130
sg30
S'1.3'
p1131
sg32
S'13.9'
p1132
sg34
S'3.2'
p1133
sg36
S'3.1'
p1134
sg38
S'4.0'
p1135
sg40
S'24'
p1136
sg42
S'TOR'
p1137
sg44
S'63'
p1138
sg46
S'0.2'
p1139
sg48
S'4.6'
p1140
sg50
S'2.3'
p1141
sg52
S'9.7'
p1142
sg54
S'2.4'
p1143
sg56
S'2001-02'
p1144
sg58
S'6.1'
p1145
sg60
S'1.6'
p1146
sg62
S'.469'
p1147
sg64
S'1988'
p1148
sg66
S'56'
p1149
sba(isrc.gp1.models.Per36Minutes
Per36Minutes
p1150
(dp1151
g8
S'1.2'
p1152
sg10
S'4.2'
p1153
sg12
S'.392'
p1154
sg14
S'2.3'
p1155
sg16
S'.337'
p1156
sg18
S'1.4'
p1157
sg20
S'14.1'
p1158
sg22
S'SF'
p1159
sg24
S'.789'
p1160
sg28
S'NBA'
p1161
sg30
S'1.1'
p1162
sg32
S'13.1'
p1163
sg34
S'2.8'
p1164
sg36
S'3.0'
p1165
sg38
S'4.4'
p1166
sg40
S'25'
p1167
sg42
S'TOR'
p1168
sg44
S'82'
p1169
sg46
S'0.4'
p1170
sg48
S'3.7'
p1171
sg50
S'2.4'
p1172
sg52
S'8.9'
p1173
sg54
S'3.2'
p1174
sg56
S'2002-03'
p1175
sg58
S'5.1'
p1176
sg60
S'1.6'
p1177
sg62
S'.418'
p1178
sg64
S'2949'
p1179
sg66
S'80'
p1180
sba(isrc.gp1.models.Per36Minutes
Per36Minutes
p1181
(dp1182
g8
S'0.6'
p1183
sg10
S'5.7'
p1184
sg12
S'.405'
p1185
sg14
S'1.9'
p1186
sg16
S'.371'
p1187
sg18
S'2.1'
p1188
sg20
S'11.4'
p1189
sg22
S'SF'
p1190
sg24
S'.809'
p1191
sg28
S'NBA'
p1192
sg30
S'1.5'
p1193
sg32
S'9.8'
p1194
sg34
S'3.5'
p1195
sg36
S'1.6'
p1196
sg38
S'4.4'
p1197
sg40
S'26'
p1198
sg42
S'TOR'
p1199
sg44
S'82'
p1200
sg46
S'0.2'
p1201
sg48
S'1.9'
p1202
sg50
S'1.3'
p1203
sg52
S'4.1'
p1204
sg54
S'3.8'
p1205
sg56
S'2003-04'
p1206
sg58
S'4.0'
p1207
sg60
S'1.2'
p1208
sg62
S'.453'
p1209
sg64
S'2148'
p1210
sg66
S'29'
p1211
sba(isrc.gp1.models.Per36Minutes
Per36Minutes
p1212
(dp1213
g8
S'1.0'
p1214
sg10
S'4.8'
p1215
sg12
S'.420'
p1216
sg14
S'2.4'
p1217
sg16
S'.385'
p1218
sg18
S'1.9'
p1219
sg20
S'14.8'
p1220
sg22
S'SG'
p1221
sg24
S'.832'
p1222
sg28
S'NBA'
p1223
sg30
S'1.3'
p1224
sg32
S'12.2'
p1225
sg34
S'3.1'
p1226
sg36
S'3.2'
p1227
sg38
S'4.9'
p1228
sg40
S'27'
p1229
sg42
S'TOR'
p1230
sg44
S'82'
p1231
sg46
S'0.3'
p1232
sg48
S'3.3'
p1233
sg50
S'2.7'
p1234
sg52
S'7.4'
p1235
sg54
S'3.9'
p1236
sg56
S'2004-05'
p1237
sg58
S'5.1'
p1238
sg60
S'1.3'
p1239
sg62
S'.442'
p1240
sg64
S'2510'
p1241
sg66
S'61'
p1242
sba(isrc.gp1.models.Per36Minutes
Per36Minutes
p1243
(dp1244
g8
S'0.7'
p1245
sg10
S'5.1'
p1246
sg12
S'.436'
p1247
sg14
S'2.2'
p1248
sg16
S'.395'
p1249
sg18
S'2.0'
p1250
sg20
S'15.8'
p1251
sg22
S'SG'
p1252
sg24
S'.820'
p1253
sg28
S'NBA'
p1254
sg30
S'1.2'
p1255
sg32
S'12.6'
p1256
sg34
S'2.6'
p1257
sg36
S'3.4'
p1258
sg38
S'4.4'
p1259
sg40
S'28'
p1260
sg42
S'TOR'
p1261
sg44
S'82'
p1262
sg46
S'0.2'
p1263
sg48
S'3.5'
p1264
sg50
S'2.8'
p1265
sg52
S'7.4'
p1266
sg54
S'3.6'
p1267
sg56
S'2005-06'
p1268
sg58
S'5.5'
p1269
sg60
S'1.4'
p1270
sg62
S'.465'
p1271
sg64
S'3140'
p1272
sg66
S'77'
p1273
sba(isrc.gp1.models.Per36Minutes
Per36Minutes
p1274
(dp1275
g8
S'0.8'
p1276
sg10
S'7.0'
p1277
sg12
S'.429'
p1278
sg14
S'1.1'
p1279
sg16
S'.359'
p1280
sg18
S'2.5'
p1281
sg20
S'15.1'
p1282
sg22
S'SF'
p1283
sg24
S'.683'
p1284
sg28
S'NBA'
p1285
sg30
S'1.1'
p1286
sg32
S'12.3'
p1287
sg34
S'3.0'
p1288
sg36
S'2.9'
p1289
sg38
S'5.6'
p1290
sg40
S'29'
p1291
sg42
S'TOR'
p1292
sg44
S'71'
p1293
sg46
S'0.3'
p1294
sg48
S'2.8'
p1295
sg50
S'2.0'
p1296
sg52
S'5.3'
p1297
sg54
S'4.9'
p1298
sg56
S'2006-07'
p1299
sg58
S'5.3'
p1300
sg60
S'1.3'
p1301
sg62
S'.523'
p1302
sg64
S'1515'
p1303
sg66
S'12'
p1304
sba(isrc.gp1.models.Per36Minutes
Per36Minutes
p1305
(dp1306
g8
S'0.7'
p1307
sg10
S'5.8'
p1308
sg12
S'.417'
p1309
sg14
S'1.3'
p1310
sg16
S'.394'
p1311
sg18
S'2.3'
p1312
sg20
S'12.2'
p1313
sg22
S'SG'
p1314
sg24
S'.765'
p1315
sg28
S'NBA'
p1316
sg30
S'0.9'
p1317
sg32
S'10.3'
p1318
sg34
S'2.5'
p1319
sg36
S'1.7'
p1320
sg38
S'4.1'
p1321
sg40
S'30'
p1322
sg42
S'NOH'
p1323
sg44
S'76'
p1324
sg46
S'0.1'
p1325
sg48
S'2.0'
p1326
sg50
S'1.3'
p1327
sg52
S'4.6'
p1328
sg54
S'3.4'
p1329
sg56
S'2007-08'
p1330
sg58
S'4.3'
p1331
sg60
S'0.8'
p1332
sg62
S'.445'
p1333
sg64
S'1796'
p1334
sg66
S'76'
p1335
sba(isrc.gp1.models.Per36Minutes
Per36Minutes
p1336
(dp1337
g8
S'0.9'
p1338
sg10
S'5.9'
p1339
sg12
S'.399'
p1340
sg14
S'1.1'
p1341
sg16
S'.388'
p1342
sg18
S'2.3'
p1343
sg20
S'13.4'
p1344
sg22
S'SG'
p1345
sg24
S'.632'
p1346
sg28
S'NBA'
p1347
sg30
S'1.0'
p1348
sg32
S'12.8'
p1349
sg34
S'3.6'
p1350
sg36
S'1.3'
p1351
sg38
S'5.9'
p1352
sg40
S'31'
p1353
sg42
S'NOH'
p1354
sg44
S'43'
p1355
sg46
S'0.1'
p1356
sg48
S'2.8'
p1357
sg50
S'0.8'
p1358
sg52
S'6.9'
p1359
sg54
S'5.0'
p1360
sg56
S'2008-09'
p1361
sg58
S'5.1'
p1362
sg60
S'1.0'
p1363
sg62
S'.408'
p1364
sg64
S'515'
p1365
sg66
g323
sba(isrc.gp1.models.Per36Minutes
Per36Minutes
p1366
(dp1367
g8
S'0.6'
p1368
sg10
S'6.3'
p1369
sg12
S'.385'
p1370
sg14
S'1.5'
p1371
sg16
S'.363'
p1372
sg18
S'2.3'
p1373
sg20
S'12.1'
p1374
sg22
S'SG'
p1375
sg24
S'.611'
p1376
sg28
S'NBA'
p1377
sg30
S'0.9'
p1378
sg32
S'11.1'
p1379
sg34
S'3.0'
p1380
sg36
S'2.0'
p1381
sg38
S'4.7'
p1382
sg40
S'32'
p1383
sg42
S'NOH'
p1384
sg44
S'46'
p1385
sg46
S'0.2'
p1386
sg48
S'2.0'
p1387
sg50
S'1.2'
p1388
sg52
S'4.8'
p1389
sg54
S'4.0'
p1390
sg56
S'2009-10'
p1391
sg58
S'4.3'
p1392
sg60
S'1.0'
p1393
sg62
S'.415'
p1394
sg64
S'973'
p1395
sg66
S'39'
p1396
sba(isrc.gp1.models.Per36Minutes
Per36Minutes
p1397
(dp1398
g8
S'0.0'
p1399
sg10
S'1.6'
p1400
sg12
S'.400'
p1401
sg14
S'1.6'
p1402
sg16
S'.000'
p1403
sg18
S'0.0'
p1404
sg20
S'6.3'
p1405
sg22
S'SG'
p1406
sg24
g3
sg28
S'NBA'
p1407
sg30
S'0.0'
p1408
sg32
S'7.8'
p1409
sg34
S'7.8'
p1410
sg36
S'0.0'
p1411
sg38
S'4.7'
p1412
sg40
S'33'
p1413
sg42
S'OKC'
p1414
sg44
g362
sg46
S'0.0'
p1415
sg48
S'3.1'
p1416
sg50
S'0.0'
p1417
sg52
S'6.3'
p1418
sg54
S'4.7'
p1419
sg56
S'2010-11'
p1420
sg58
S'3.1'
p1421
sg60
S'0.0'
p1422
sg62
S'.500'
p1423
sg64
S'23'
p1424
sg66
g358
sbasS'_fromYear'
p1425
S'2001'
p1426
sS'_url'
p1427
S'http://www.basketball-reference.com/players/p/petermo01.html'
p1428
sS'_perGame'
p1429
(isrc.gp1.models.PerGame
PerGame
p1430
(dp1431
g8
S'0.0'
p1432
sg10
S'0.3'
p1433
sg12
S'.400'
p1434
sS'_effectiveFieldGalPercentage'
p1435
S'.400'
p1436
sg14
S'0.3'
p1437
sg16
S'.000'
p1438
sg18
S'0.0'
p1439
sg20
S'1.0'
p1440
sg22
S'SG'
p1441
sg24
g3
sg28
S'NBA'
p1442
sg30
S'0.0'
p1443
sg34
S'1.3'
p1444
sS'_fieldGoalsttempted'
p1445
S'1.3'
p1446
sg36
S'0.0'
p1447
sg38
S'0.8'
p1448
sg40
S'33'
p1449
sg42
S'OKC'
p1450
sg44
g362
sg46
S'0.0'
p1451
sg48
S'0.5'
p1452
sg50
S'0.0'
p1453
sg52
S'1.0'
p1454
sg54
S'0.8'
p1455
sg56
S'2010-11'
p1456
sg58
S'0.5'
p1457
sg60
S'0.0'
p1458
sg62
S'.500'
p1459
sg64
S'5.8'
p1460
sg66
g358
sbsS'_weight'
p1461
S'218'
p1462
sS'_dob'
p1463
S'26-8-1977'
p1464
sS'_salary'
p1465
(lp1466
(isrc.gp1.models.Salary
Salary
p1467
(dp1468
g42
S'Toronto Raptors'
p1469
sg28
S'NBA'
p1470
sg1465
S'$898,560'
p1471
sg56
S'2000-01'
p1472
sba(isrc.gp1.models.Salary
Salary
p1473
(dp1474
g42
S'Toronto Raptors'
p1475
sg28
S'NBA'
p1476
sg1465
S'$966,000'
p1477
sg56
S'2001-02'
p1478
sba(isrc.gp1.models.Salary
Salary
p1479
(dp1480
g42
S'Toronto Raptors'
p1481
sg28
S'NBA'
p1482
sg1465
S'$1,033,320'
p1483
sg56
S'2002-03'
p1484
sba(isrc.gp1.models.Salary
Salary
p1485
(dp1486
g42
S'Toronto Raptors'
p1487
sg28
S'NBA'
p1488
sg1465
S'$1,646,079'
p1489
sg56
S'2003-04'
p1490
sba(isrc.gp1.models.Salary
Salary
p1491
(dp1492
g42
S'Toronto Raptors'
p1493
sg28
S'NBA'
p1494
sg1465
S'$4,400,000'
p1495
sg56
S'2004-05'
p1496
sba(isrc.gp1.models.Salary
Salary
p1497
(dp1498
g42
S'Toronto Raptors'
p1499
sg28
S'NBA'
p1500
sg1465
S'$4,550,000'
p1501
sg56
S'2005-06'
p1502
sba(isrc.gp1.models.Salary
Salary
p1503
(dp1504
g42
S'Toronto Raptors'
p1505
sg28
S'NBA'
p1506
sg1465
S'$4,550,000'
p1507
sg56
S'2006-07'
p1508
sba(isrc.gp1.models.Salary
Salary
p1509
(dp1510
g42
S'New Orleans Hornets'
p1511
sg28
S'NBA'
p1512
sg1465
S'$5,356,000'
p1513
sg56
S'2007-08'
p1514
sba(isrc.gp1.models.Salary
Salary
p1515
(dp1516
g42
S'New Orleans Hornets'
p1517
sg28
S'NBA'
p1518
sg1465
S'$5,592,240'
p1519
sg56
S'2008-09'
p1520
sba(isrc.gp1.models.Salary
Salary
p1521
(dp1522
g42
S'New Orleans Hornets'
p1523
sg28
S'NBA'
p1524
sg1465
S'$6,212,960'
p1525
sg56
S'2009-10'
p1526
sba(isrc.gp1.models.Salary
Salary
p1527
(dp1528
g42
S'Charlotte Bobcats'
p1529
sg28
S'NBA'
p1530
sg1465
S'$6,665,000'
p1531
sg56
S'2010-11'
p1532
sbasg22
S'F'
p1533
sb.