(isrc.gp1.models.Player
Player
p0
(dp1
S'_experience'
p2
V8
p3
sS'_totals'
p4
(lp5
(isrc.gp1.models.Totals
Totals
p6
(dp7
S'_offensiveRebounds'
p8
S'109'
p9
sS'_threePointsAttempted'
p10
S'0'
p11
sS'_fieldGoalsPercentage'
p12
S'.510'
p13
sS'_assist'
p14
S'15'
p15
sS'_threePointsPercentage'
p16
S'NA'
p17
sS'_threePoints'
p18
g11
sS'_points'
p19
S'353'
p20
sS'_position'
p21
S'C'
p22
sS'_freeThrowsPercentage'
p23
S'.627'
p24
sS'_effectiveFieldGoalPercentage'
p25
S'.510'
p26
sS'_league'
p27
S'NBA'
p28
sS'_steals'
p29
S'25'
p30
sS'_fieldGoalsAttempted'
p31
S'300'
p32
sS'_personalFouls'
p33
S'213'
p34
sS'_freeThrowsAttempted'
p35
S'75'
p36
sS'_totalRebounds'
p37
S'296'
p38
sS'_age'
p39
S'20'
p40
sS'_team'
p41
S'SEA'
p42
sS'_games'
p43
S'68'
p44
sS'_blocks'
p45
S'51'
p46
sS'_twoPoints'
p47
S'153'
p48
sS'_freeThrows'
p49
S'47'
p50
sS'_twoPointsAttempted'
p51
S'300'
p52
sS'_defensiveRebounds'
p53
S'187'
p54
sS'_season'
p55
S'2005-06'
p56
sS'_fieldGoals'
p57
S'153'
p58
sS'_turnOvers'
p59
S'60'
p60
sS'_twoPointsPercentage'
p61
S'.510'
p62
sS'_minutesPlayed'
p63
S'1282'
p64
sS'_gamesStarted'
p65
S'41'
p66
sba(isrc.gp1.models.Totals
Totals
p67
(dp68
g8
S'92'
p69
sg10
g11
sg12
S'.516'
p70
sg14
S'45'
p71
sg16
g17
sg18
g11
sg19
S'502'
p72
sg21
g22
sg23
S'.649'
p73
sg25
S'.516'
p74
sg27
S'NBA'
p75
sg29
S'39'
p76
sg31
S'438'
p77
sg33
S'237'
p78
sg35
S'77'
p79
sg37
S'335'
p80
sg39
S'21'
p81
sg41
S'SEA'
p82
sg43
S'81'
p83
sg45
S'47'
p84
sg47
S'226'
p85
sg49
S'50'
p86
sg51
S'438'
p87
sg53
S'243'
p88
sg55
S'2006-07'
p89
sg57
S'226'
p90
sg59
S'82'
p91
sg61
S'.516'
p92
sg63
S'1510'
p93
sg65
S'13'
p94
sba(isrc.gp1.models.Totals
Totals
p95
(dp96
g8
S'98'
p97
sg10
S'1'
p98
sg12
S'.419'
p99
sg14
S'32'
p100
sg16
S'.000'
p101
sg18
g11
sg19
S'432'
p102
sg21
g22
sg23
S'.736'
p103
sg25
S'.419'
p104
sg27
S'NBA'
p105
sg29
S'35'
p106
sg31
S'439'
p107
sg33
S'173'
p108
sg35
S'87'
p109
sg37
S'370'
p110
sg39
S'22'
p111
sg41
S'SEA'
p112
sg43
S'72'
p113
sg45
S'42'
p114
sg47
S'184'
p115
sg49
S'64'
p116
sg51
S'438'
p117
sg53
S'272'
p118
sg55
S'2007-08'
p119
sg57
S'184'
p120
sg59
S'73'
p121
sg61
S'.420'
p122
sg63
S'1310'
p123
sg65
S'28'
p124
sba(isrc.gp1.models.Totals
Totals
p125
(dp126
g8
S'42'
p127
sg10
S'2'
p128
sg12
S'.415'
p129
sg14
S'16'
p130
sg16
S'.000'
p131
sg18
g11
sg19
S'162'
p132
sg21
g22
sg23
S'.552'
p133
sg25
S'.415'
p134
sg27
S'NBA'
p135
sg29
S'19'
p136
sg31
S'176'
p137
sg33
S'107'
p138
sg35
S'29'
p139
sg37
S'158'
p140
sg39
S'23'
p141
sg41
S'TOT'
p142
sg43
S'49'
p143
sg45
S'15'
p144
sg47
S'73'
p145
sg49
S'16'
p146
sg51
S'174'
p147
sg53
S'116'
p148
sg55
S'2008-09'
p149
sg57
S'73'
p150
sg59
S'28'
p151
sg61
S'.420'
p152
sg63
S'559'
p153
sg65
S'22'
p154
sba(isrc.gp1.models.Totals
Totals
p155
(dp156
g8
S'27'
p157
sg10
g98
sg12
S'.407'
p158
sg14
S'6'
p159
sg16
S'.000'
p160
sg18
g11
sg19
S'102'
p161
sg21
g22
sg23
S'.667'
p162
sg25
S'.407'
p163
sg27
S'NBA'
p164
sg29
S'16'
p165
sg31
S'113'
p166
sg33
S'51'
p167
sg35
S'15'
p168
sg37
S'95'
p169
sg39
S'23'
p170
sg41
S'OKC'
p171
sg43
S'22'
p172
sg45
S'5'
p173
sg47
S'46'
p174
sg49
S'10'
p175
sg51
S'112'
p176
sg53
S'68'
p177
sg55
S'2008-09'
p178
sg57
S'46'
p179
sg59
S'15'
p180
sg61
S'.411'
p181
sg63
S'342'
p182
sg65
S'12'
p183
sba(isrc.gp1.models.Totals
Totals
p184
(dp185
g8
S'15'
p186
sg10
g98
sg12
S'.429'
p187
sg14
S'10'
p188
sg16
S'.000'
p189
sg18
g11
sg19
S'60'
p190
sg21
g22
sg23
S'.429'
p191
sg25
S'.429'
p192
sg27
S'NBA'
p193
sg29
S'3'
p194
sg31
S'63'
p195
sg33
S'56'
p196
sg35
S'14'
p197
sg37
S'63'
p198
sg39
S'23'
p199
sg41
S'DEN'
p200
sg43
S'27'
p201
sg45
S'10'
p202
sg47
S'27'
p203
sg49
g159
sg51
S'62'
p204
sg53
S'48'
p205
sg55
S'2008-09'
p206
sg57
S'27'
p207
sg59
S'13'
p208
sg61
S'.435'
p209
sg63
S'217'
p210
sg65
S'10'
p211
sba(isrc.gp1.models.Totals
Totals
p212
(dp213
g8
S'32'
p214
sg10
g98
sg12
S'.535'
p215
sg14
S'14'
p216
sg16
S'.000'
p217
sg18
g11
sg19
S'122'
p218
sg21
g22
sg23
S'.667'
p219
sg25
S'.535'
p220
sg27
S'NBA'
p221
sg29
S'10'
p222
sg31
S'101'
p223
sg33
S'80'
p224
sg35
S'21'
p225
sg37
S'129'
p226
sg39
S'24'
p227
sg41
S'DEN'
p228
sg43
S'36'
p229
sg45
S'13'
p230
sg47
S'54'
p231
sg49
S'14'
p232
sg51
S'100'
p233
sg53
S'97'
p234
sg55
S'2009-10'
p235
sg57
S'54'
p236
sg59
S'23'
p237
sg61
S'.540'
p238
sg63
S'436'
p239
sg65
S'16'
p240
sba(isrc.gp1.models.Totals
Totals
p241
(dp242
g8
S'62'
p243
sg10
S'4'
p244
sg12
S'.445'
p245
sg14
S'44'
p246
sg16
S'.000'
p247
sg18
g11
sg19
S'273'
p248
sg21
g22
sg23
S'.536'
p249
sg25
S'.445'
p250
sg27
S'NBA'
p251
sg29
S'34'
p252
sg31
S'290'
p253
sg33
S'178'
p254
sg35
S'28'
p255
sg37
S'212'
p256
sg39
S'25'
p257
sg41
S'NJN'
p258
sg43
S'77'
p259
sg45
S'34'
p260
sg47
S'129'
p261
sg49
S'15'
p262
sg51
S'286'
p263
sg53
S'150'
p264
sg55
S'2010-11'
p265
sg57
S'129'
p266
sg59
S'46'
p267
sg61
S'.451'
p268
sg63
S'893'
p269
sg65
g98
sba(isrc.gp1.models.Totals
Totals
p270
(dp271
g8
S'68'
p272
sg10
g98
sg12
S'.419'
p273
sg14
S'45'
p274
sg16
S'1.000'
p275
sg18
g98
sg19
S'250'
p276
sg21
g22
sg23
S'.838'
p277
sg25
S'.421'
p278
sg27
S'NBA'
p279
sg29
S'21'
p280
sg31
S'260'
p281
sg33
S'122'
p282
sg35
S'37'
p283
sg37
S'224'
p284
sg39
S'26'
p285
sg41
S'NJN'
p286
sg43
S'59'
p287
sg45
S'23'
p288
sg47
S'108'
p289
sg49
S'31'
p290
sg51
S'259'
p291
sg53
S'156'
p292
sg55
S'2011-12'
p293
sg57
S'109'
p294
sg59
S'38'
p295
sg61
S'.417'
p296
sg63
S'920'
p297
sg65
S'10'
p298
sba(isrc.gp1.models.Totals
Totals
p299
(dp300
g8
S'33'
p301
sg10
g244
sg12
S'.436'
p302
sg14
S'16'
p303
sg16
S'.250'
p304
sg18
g98
sg19
S'108'
p305
sg21
g22
sg23
S'.917'
p306
sg25
S'.441'
p307
sg27
S'NBA'
p308
sg29
S'10'
p309
sg31
S'110'
p310
sg33
S'48'
p311
sg35
S'12'
p312
sg37
S'112'
p313
sg39
S'27'
p314
sg41
S'ATL'
p315
sg43
S'31'
p316
sg45
S'9'
p317
sg47
S'47'
p318
sg49
S'11'
p319
sg51
S'106'
p320
sg53
S'79'
p321
sg55
S'2012-13'
p322
sg57
S'48'
p323
sg59
S'24'
p324
sg61
S'.443'
p325
sg63
S'352'
p326
sg65
S'8'
p327
sbasS'_college'
p328
S'NA'
p329
sS'_toYear'
p330
S'2013'
p331
sS'_height'
p332
S'7-0'
p333
sS'_active'
p334
I01
sS'_shootingHand'
p335
VRight
p336
sS'_name'
p337
S'Johan Petro'
p338
sS'_per100Possessions'
p339
(lp340
(isrc.gp1.models.Per100Possession
Per100Possession
p341
(dp342
g8
S'4.5'
p343
sg10
S'0.0'
p344
sg12
S'.510'
p345
sS'_offensiveRating'
p346
S'105'
p347
sg14
S'0.6'
p348
sg16
g17
sg18
S'0.0'
p349
sg19
S'14.4'
p350
sg21
g22
sS'_defensiveRating'
p351
S'113'
p352
sg23
S'.627'
p353
sg27
S'NBA'
p354
sg29
S'1.0'
p355
sg31
S'12.3'
p356
sg33
S'8.7'
p357
sg35
S'3.1'
p358
sg37
S'12.1'
p359
sg39
S'20'
p360
sg41
S'SEA'
p361
sg43
S'68'
p362
sg45
S'2.1'
p363
sg47
S'6.3'
p364
sg49
S'1.9'
p365
sg51
S'12.3'
p366
sg53
S'7.6'
p367
sg55
S'2005-06'
p368
sg57
S'6.3'
p369
sg59
S'2.5'
p370
sg61
S'.510'
p371
sg63
S'1282'
p372
sg65
S'41'
p373
sba(isrc.gp1.models.Per100Possession
Per100Possession
p374
(dp375
g8
S'3.2'
p376
sg10
S'0.0'
p377
sg12
S'.516'
p378
sg346
S'101'
p379
sg14
S'1.6'
p380
sg16
g17
sg18
S'0.0'
p381
sg19
S'17.4'
p382
sg21
g22
sg351
S'108'
p383
sg23
S'.649'
p384
sg27
S'NBA'
p385
sg29
S'1.4'
p386
sg31
S'15.2'
p387
sg33
S'8.2'
p388
sg35
S'2.7'
p389
sg37
S'11.6'
p390
sg39
S'21'
p391
sg41
S'SEA'
p392
sg43
S'81'
p393
sg45
S'1.6'
p394
sg47
S'7.8'
p395
sg49
S'1.7'
p396
sg51
S'15.2'
p397
sg53
S'8.4'
p398
sg55
S'2006-07'
p399
sg57
S'7.8'
p400
sg59
S'2.8'
p401
sg61
S'.516'
p402
sg63
S'1510'
p403
sg65
S'13'
p404
sba(isrc.gp1.models.Per100Possession
Per100Possession
p405
(dp406
g8
S'3.7'
p407
sg10
S'0.0'
p408
sg12
S'.419'
p409
sg346
S'91'
p410
sg14
S'1.2'
p411
sg16
S'.000'
p412
sg18
S'0.0'
p413
sg19
S'16.4'
p414
sg21
g22
sg351
S'107'
p415
sg23
S'.736'
p416
sg27
S'NBA'
p417
sg29
S'1.3'
p418
sg31
S'16.7'
p419
sg33
S'6.6'
p420
sg35
S'3.3'
p421
sg37
S'14.1'
p422
sg39
S'22'
p423
sg41
S'SEA'
p424
sg43
S'72'
p425
sg45
S'1.6'
p426
sg47
S'7.0'
p427
sg49
S'2.4'
p428
sg51
S'16.7'
p429
sg53
S'10.3'
p430
sg55
S'2007-08'
p431
sg57
S'7.0'
p432
sg59
S'2.8'
p433
sg61
S'.420'
p434
sg63
S'1310'
p435
sg65
S'28'
p436
sba(isrc.gp1.models.Per100Possession
Per100Possession
p437
(dp438
g8
S'3.8'
p439
sg10
S'0.2'
p440
sg12
S'.415'
p441
sg346
S'90'
p442
sg14
S'1.5'
p443
sg16
S'.000'
p444
sg18
S'0.0'
p445
sg19
S'14.8'
p446
sg21
g22
sg351
S'105'
p447
sg23
S'.552'
p448
sg27
S'NBA'
p449
sg29
S'1.7'
p450
sg31
S'16.1'
p451
sg33
S'9.8'
p452
sg35
S'2.7'
p453
sg37
S'14.5'
p454
sg39
S'23'
p455
sg41
S'TOT'
p456
sg43
S'49'
p457
sg45
S'1.4'
p458
sg47
S'6.7'
p459
sg49
S'1.5'
p460
sg51
S'15.9'
p461
sg53
S'10.6'
p462
sg55
S'2008-09'
p463
sg57
S'6.7'
p464
sg59
S'2.6'
p465
sg61
S'.420'
p466
sg63
S'559'
p467
sg65
S'22'
p468
sba(isrc.gp1.models.Per100Possession
Per100Possession
p469
(dp470
g8
S'4.0'
p471
sg10
S'0.1'
p472
sg12
S'.407'
p473
sg346
S'90'
p474
sg14
S'0.9'
p475
sg16
S'.000'
p476
sg18
S'0.0'
p477
sg19
S'15.3'
p478
sg21
g22
sg351
S'106'
p479
sg23
S'.667'
p480
sg27
S'NBA'
p481
sg29
S'2.4'
p482
sg31
S'16.9'
p483
sg33
S'7.6'
p484
sg35
S'2.2'
p485
sg37
S'14.2'
p486
sg39
S'23'
p487
sg41
S'OKC'
p488
sg43
S'22'
p489
sg45
S'0.7'
p490
sg47
S'6.9'
p491
sg49
S'1.5'
p492
sg51
S'16.8'
p493
sg53
S'10.2'
p494
sg55
S'2008-09'
p495
sg57
S'6.9'
p496
sg59
S'2.2'
p497
sg61
S'.411'
p498
sg63
S'342'
p499
sg65
S'12'
p500
sba(isrc.gp1.models.Per100Possession
Per100Possession
p501
(dp502
g8
S'3.5'
p503
sg10
S'0.2'
p504
sg12
S'.429'
p505
sg346
S'88'
p506
sg14
S'2.3'
p507
sg16
S'.000'
p508
sg18
S'0.0'
p509
sg19
S'14.1'
p510
sg21
g22
sg351
S'104'
p511
sg23
S'.429'
p512
sg27
S'NBA'
p513
sg29
S'0.7'
p514
sg31
S'14.8'
p515
sg33
S'13.1'
p516
sg35
S'3.3'
p517
sg37
S'14.8'
p518
sg39
S'23'
p519
sg41
S'DEN'
p520
sg43
S'27'
p521
sg45
S'2.3'
p522
sg47
S'6.3'
p523
sg49
S'1.4'
p524
sg51
S'14.5'
p525
sg53
S'11.3'
p526
sg55
S'2008-09'
p527
sg57
S'6.3'
p528
sg59
S'3.1'
p529
sg61
S'.435'
p530
sg63
S'217'
p531
sg65
S'10'
p532
sba(isrc.gp1.models.Per100Possession
Per100Possession
p533
(dp534
g8
S'3.7'
p535
sg10
S'0.1'
p536
sg12
S'.535'
p537
sg346
S'105'
p538
sg14
S'1.6'
p539
sg16
S'.000'
p540
sg18
S'0.0'
p541
sg19
S'14.2'
p542
sg21
g22
sg351
S'105'
p543
sg23
S'.667'
p544
sg27
S'NBA'
p545
sg29
S'1.2'
p546
sg31
S'11.7'
p547
sg33
S'9.3'
p548
sg35
S'2.4'
p549
sg37
S'15.0'
p550
sg39
S'24'
p551
sg41
S'DEN'
p552
sg43
S'36'
p553
sg45
S'1.5'
p554
sg47
S'6.3'
p555
sg49
S'1.6'
p556
sg51
S'11.6'
p557
sg53
S'11.3'
p558
sg55
S'2009-10'
p559
sg57
S'6.3'
p560
sg59
S'2.7'
p561
sg61
S'.540'
p562
sg63
S'436'
p563
sg65
S'16'
p564
sba(isrc.gp1.models.Per100Possession
Per100Possession
p565
(dp566
g8
S'3.7'
p567
sg10
S'0.2'
p568
sg12
S'.445'
p569
sg346
S'92'
p570
sg14
S'2.6'
p571
sg16
S'.000'
p572
sg18
S'0.0'
p573
sg19
S'16.3'
p574
sg21
g22
sg351
S'105'
p575
sg23
S'.536'
p576
sg27
S'NBA'
p577
sg29
S'2.0'
p578
sg31
S'17.3'
p579
sg33
S'10.6'
p580
sg35
S'1.7'
p581
sg37
S'12.7'
p582
sg39
S'25'
p583
sg41
S'NJN'
p584
sg43
S'77'
p585
sg45
S'2.0'
p586
sg47
S'7.7'
p587
sg49
S'0.9'
p588
sg51
S'17.1'
p589
sg53
S'9.0'
p590
sg55
S'2010-11'
p591
sg57
S'7.7'
p592
sg59
S'2.8'
p593
sg61
S'.451'
p594
sg63
S'893'
p595
sg65
g98
sba(isrc.gp1.models.Per100Possession
Per100Possession
p596
(dp597
g8
S'3.9'
p598
sg10
S'0.1'
p599
sg12
S'.419'
p600
sg346
S'97'
p601
sg14
S'2.6'
p602
sg16
S'1.000'
p603
sg18
S'0.1'
p604
sg19
S'14.5'
p605
sg21
g22
sg351
S'108'
p606
sg23
S'.838'
p607
sg27
S'NBA'
p608
sg29
S'1.2'
p609
sg31
S'15.0'
p610
sg33
S'7.1'
p611
sg35
S'2.1'
p612
sg37
S'13.0'
p613
sg39
S'26'
p614
sg41
S'NJN'
p615
sg43
S'59'
p616
sg45
S'1.3'
p617
sg47
S'6.3'
p618
sg49
S'1.8'
p619
sg51
S'15.0'
p620
sg53
S'9.0'
p621
sg55
S'2011-12'
p622
sg57
S'6.3'
p623
sg59
S'2.2'
p624
sg61
S'.417'
p625
sg63
S'920'
p626
sg65
S'10'
p627
sba(isrc.gp1.models.Per100Possession
Per100Possession
p628
(dp629
g8
S'4.9'
p630
sg10
S'0.6'
p631
sg12
S'.436'
p632
sg346
S'92'
p633
sg14
S'2.4'
p634
sg16
S'.250'
p635
sg18
S'0.1'
p636
sg19
S'15.9'
p637
sg21
g22
sg351
S'101'
p638
sg23
S'.917'
p639
sg27
S'NBA'
p640
sg29
S'1.5'
p641
sg31
S'16.2'
p642
sg33
S'7.1'
p643
sg35
S'1.8'
p644
sg37
S'16.5'
p645
sg39
S'27'
p646
sg41
S'ATL'
p647
sg43
S'31'
p648
sg45
S'1.3'
p649
sg47
S'6.9'
p650
sg49
S'1.6'
p651
sg51
S'15.6'
p652
sg53
S'11.6'
p653
sg55
S'2012-13'
p654
sg57
S'7.1'
p655
sg59
S'3.5'
p656
sg61
S'.443'
p657
sg63
S'352'
p658
sg65
g327
sbasS'_advanced'
p659
(lp660
(isrc.gp1.models.Advanced
Advanced
p661
(dp662
S'_offensiveReboundPercentage'
p663
S'10.1'
p664
sS'_turnOverPercentage'
p665
S'15.3'
p666
sS'_winSharesPer48Minutes'
p667
S'.037'
p668
sS'_stealPercentage'
p669
S'1.0'
p670
sS'_usagePercentage'
p671
S'13.7'
p672
sS'_totalReboundsPercentage'
p673
S'13.9'
p674
sS'_defensiveBoxPlusMinus'
p675
S'-1.4'
p676
sg21
g22
sS'_valueOverReplacementPlayer'
p677
S'-0.7'
p678
sS'_trueShootingPercentage'
p679
S'.530'
p680
sS'_defensiveReboundPercentage'
p681
S'17.9'
p682
sS'_freeThrowsAttempRate'
p683
S'.250'
p684
sS'_threePointsAttempRate'
p685
S'.000'
p686
sg27
S'NBA'
p687
sS'_offensiveBoxPlusMinues'
p688
S'-2.6'
p689
sS'_assistPercentage'
p690
S'1.8'
p691
sS'_defensiveWinShares'
p692
S'0.2'
p693
sg39
S'20'
p694
sg41
S'SEA'
p695
sg43
S'68'
p696
sS'_blockPercentage'
p697
S'3.1'
p698
sS'_playerEfficiencyRating'
p699
S'10.4'
p700
sS'_offensiveWinShares'
p701
S'0.7'
p702
sg63
S'1282'
p703
sS'_boxPlusMinus'
p704
S'-4.0'
p705
sg55
S'2005-06'
p706
sS'_winShares'
p707
S'1.0'
p708
sba(isrc.gp1.models.Advanced
Advanced
p709
(dp710
g663
S'7.2'
p711
sg665
S'14.8'
p712
sg667
S'.053'
p713
sg669
S'1.4'
p714
sg671
S'16.7'
p715
sg673
S'13.3'
p716
sg675
S'0.0'
p717
sg21
g22
sg677
S'-0.4'
p718
sg679
S'.532'
p719
sg681
S'19.5'
p720
sg683
S'.176'
p721
sg685
S'.000'
p722
sg27
S'NBA'
p723
sg688
S'-3.1'
p724
sg690
S'4.8'
p725
sg692
S'1.2'
p726
sg39
S'21'
p727
sg41
S'SEA'
p728
sg43
S'81'
p729
sg697
S'2.4'
p730
sg699
S'11.6'
p731
sg701
S'0.5'
p732
sg63
S'1510'
p733
sg704
S'-3.1'
p734
sg55
S'2006-07'
p735
sg707
S'1.7'
p736
sba(isrc.gp1.models.Advanced
Advanced
p737
(dp738
g663
S'8.2'
p739
sg665
S'13.3'
p740
sg667
S'.014'
p741
sg669
S'1.3'
p742
sg671
S'18.2'
p743
sg673
S'15.4'
p744
sg675
S'0.0'
p745
sg21
g22
sg677
S'-1.1'
p746
sg679
S'.453'
p747
sg681
S'22.6'
p748
sg683
S'.198'
p749
sg685
S'.002'
p750
sg27
S'NBA'
p751
sg688
S'-5.5'
p752
sg690
S'3.8'
p753
sg692
S'1.5'
p754
sg39
S'22'
p755
sg41
S'SEA'
p756
sg43
S'72'
p757
sg697
S'2.3'
p758
sg699
S'10.0'
p759
sg701
S'-1.1'
p760
sg63
S'1310'
p761
sg704
S'-5.5'
p762
sg55
S'2007-08'
p763
sg707
S'0.4'
p764
sba(isrc.gp1.models.Advanced
Advanced
p765
(dp766
g663
S'8.7'
p767
sg665
S'12.9'
p768
sg667
S'.018'
p769
sg669
S'1.7'
p770
sg671
S'17.2'
p771
sg673
S'16.3'
p772
sg675
S'-0.1'
p773
sg21
g22
sg677
S'-0.6'
p774
sg679
S'.429'
p775
sg681
S'23.9'
p776
sg683
S'.165'
p777
sg685
S'.011'
p778
sg27
S'NBA'
p779
sg688
S'-6.1'
p780
sg690
S'4.5'
p781
sg692
S'0.8'
p782
sg39
S'23'
p783
sg41
S'TOT'
p784
sg43
S'49'
p785
sg697
S'2.0'
p786
sg699
S'8.1'
p787
sg701
S'-0.6'
p788
sg63
S'559'
p789
sg704
S'-6.3'
p790
sg55
S'2008-09'
p791
sg707
S'0.2'
p792
sba(isrc.gp1.models.Advanced
Advanced
p793
(dp794
g663
S'8.9'
p795
sg665
S'11.1'
p796
sg667
S'.019'
p797
sg669
S'2.4'
p798
sg671
S'17.4'
p799
sg673
S'16.0'
p800
sg675
S'-0.6'
p801
sg21
g22
sg677
S'-0.4'
p802
sg679
S'.426'
p803
sg681
S'23.3'
p804
sg683
S'.133'
p805
sg685
S'.009'
p806
sg27
S'NBA'
p807
sg688
S'-6.0'
p808
sg690
S'2.8'
p809
sg692
S'0.5'
p810
sg39
S'23'
p811
sg41
S'OKC'
p812
sg43
S'22'
p813
sg697
S'1.1'
p814
sg699
S'9.3'
p815
sg701
S'-0.3'
p816
sg63
S'342'
p817
sg704
S'-6.6'
p818
sg55
S'2008-09'
p819
sg707
S'0.1'
p820
sba(isrc.gp1.models.Advanced
Advanced
p821
(dp822
g663
S'8.3'
p823
sg665
S'15.8'
p824
sg667
S'.017'
p825
sg669
S'0.7'
p826
sg671
S'16.9'
p827
sg673
S'16.9'
p828
sg675
S'0.7'
p829
sg21
g22
sg677
S'-0.2'
p830
sg679
S'.434'
p831
sg681
S'25.0'
p832
sg683
S'.222'
p833
sg685
S'.016'
p834
sg27
S'NBA'
p835
sg688
S'-6.3'
p836
sg690
S'7.1'
p837
sg692
S'0.3'
p838
sg39
S'23'
p839
sg41
S'DEN'
p840
sg43
S'27'
p841
sg697
S'3.6'
p842
sg699
S'6.4'
p843
sg701
S'-0.2'
p844
sg63
S'217'
p845
sg704
S'-5.6'
p846
sg55
S'2008-09'
p847
sg707
S'0.1'
p848
sba(isrc.gp1.models.Advanced
Advanced
p849
(dp850
g663
S'8.5'
p851
sg665
S'17.3'
p852
sg667
S'.089'
p853
sg669
S'1.2'
p854
sg671
S'13.6'
p855
sg673
S'17.1'
p856
sg675
S'0.5'
p857
sg21
g22
sg677
S'-0.1'
p858
sg679
S'.553'
p859
sg681
S'25.4'
p860
sg683
S'.208'
p861
sg685
S'.010'
p862
sg27
S'NBA'
p863
sg688
S'-3.5'
p864
sg690
S'4.8'
p865
sg692
S'0.6'
p866
sg39
S'24'
p867
sg41
S'DEN'
p868
sg43
S'36'
p869
sg697
S'2.2'
p870
sg699
S'10.7'
p871
sg701
S'0.2'
p872
sg63
S'436'
p873
sg704
S'-2.9'
p874
sg55
S'2009-10'
p875
sg707
S'0.8'
p876
sba(isrc.gp1.models.Advanced
Advanced
p877
(dp878
g663
S'8.0'
p879
sg665
S'13.2'
p880
sg667
S'.024'
p881
sg669
S'2.0'
p882
sg671
S'18.1'
p883
sg673
S'14.0'
p884
sg675
S'1.4'
p885
sg21
g22
sg677
S'-0.3'
p886
sg679
S'.452'
p887
sg681
S'20.4'
p888
sg683
S'.097'
p889
sg685
S'.014'
p890
sg27
S'NBA'
p891
sg688
S'-4.6'
p892
sg690
S'8.4'
p893
sg692
S'1.1'
p894
sg39
S'25'
p895
sg41
S'NJN'
p896
sg43
S'77'
p897
sg697
S'2.9'
p898
sg699
S'9.9'
p899
sg701
S'-0.7'
p900
sg63
S'893'
p901
sg704
S'-3.2'
p902
sg55
S'2010-11'
p903
sg707
S'0.4'
p904
sba(isrc.gp1.models.Advanced
Advanced
p905
(dp906
g663
S'8.3'
p907
sg665
S'12.1'
p908
sg667
S'.034'
p909
sg669
S'1.2'
p910
sg671
S'15.6'
p911
sg673
S'14.1'
p912
sg675
S'-0.3'
p913
sg21
g22
sg677
S'-0.5'
p914
sg679
S'.452'
p915
sg681
S'20.3'
p916
sg683
S'.142'
p917
sg685
S'.004'
p918
sg27
S'NBA'
p919
sg688
S'-4.0'
p920
sg690
S'8.2'
p921
sg692
S'0.6'
p922
sg39
S'26'
p923
sg41
S'NJN'
p924
sg43
S'59'
p925
sg697
S'1.9'
p926
sg699
S'10.3'
p927
sg701
S'0.1'
p928
sg63
S'920'
p929
sg704
S'-4.3'
p930
sg55
S'2011-12'
p931
sg707
S'0.7'
p932
sba(isrc.gp1.models.Advanced
Advanced
p933
(dp934
g663
S'10.9'
p935
sg665
S'17.2'
p936
sg667
S'.048'
p937
sg669
S'1.5'
p938
sg671
S'18.3'
p939
sg673
S'18.2'
p940
sg675
S'0.7'
p941
sg21
g22
sg677
S'-0.2'
p942
sg679
S'.468'
p943
sg681
S'25.3'
p944
sg683
S'.109'
p945
sg685
S'.036'
p946
sg27
S'NBA'
p947
sg688
S'-5.4'
p948
sg690
S'7.1'
p949
sg692
S'0.6'
p950
sg39
S'27'
p951
sg41
S'ATL'
p952
sg43
S'31'
p953
sg697
S'2.0'
p954
sg699
S'11.0'
p955
sg701
S'-0.2'
p956
sg63
S'352'
p957
sg704
S'-4.8'
p958
sg55
S'2012-13'
p959
sg707
S'0.4'
p960
sbasS'_per36Minutes'
p961
(lp962
(isrc.gp1.models.Per36Minutes
Per36Minutes
p963
(dp964
g8
S'3.1'
p965
sg10
S'0.0'
p966
sg12
S'.510'
p967
sg14
S'0.4'
p968
sg16
g17
sg18
S'0.0'
p969
sg19
S'9.9'
p970
sg21
g22
sg23
S'.627'
p971
sg27
S'NBA'
p972
sg29
S'0.7'
p973
sg31
S'8.4'
p974
sg33
S'6.0'
p975
sg35
S'2.1'
p976
sg37
S'8.3'
p977
sg39
S'20'
p978
sg41
S'SEA'
p979
sg43
S'68'
p980
sg45
S'1.4'
p981
sg47
S'4.3'
p982
sg49
S'1.3'
p983
sg51
S'8.4'
p984
sg53
S'5.3'
p985
sg55
S'2005-06'
p986
sg57
S'4.3'
p987
sg59
S'1.7'
p988
sg61
S'.510'
p989
sg63
S'1282'
p990
sg65
S'41'
p991
sba(isrc.gp1.models.Per36Minutes
Per36Minutes
p992
(dp993
g8
S'2.2'
p994
sg10
S'0.0'
p995
sg12
S'.516'
p996
sg14
S'1.1'
p997
sg16
g17
sg18
S'0.0'
p998
sg19
S'12.0'
p999
sg21
g22
sg23
S'.649'
p1000
sg27
S'NBA'
p1001
sg29
S'0.9'
p1002
sg31
S'10.4'
p1003
sg33
S'5.7'
p1004
sg35
S'1.8'
p1005
sg37
S'8.0'
p1006
sg39
S'21'
p1007
sg41
S'SEA'
p1008
sg43
S'81'
p1009
sg45
S'1.1'
p1010
sg47
S'5.4'
p1011
sg49
S'1.2'
p1012
sg51
S'10.4'
p1013
sg53
S'5.8'
p1014
sg55
S'2006-07'
p1015
sg57
S'5.4'
p1016
sg59
S'2.0'
p1017
sg61
S'.516'
p1018
sg63
S'1510'
p1019
sg65
S'13'
p1020
sba(isrc.gp1.models.Per36Minutes
Per36Minutes
p1021
(dp1022
g8
S'2.7'
p1023
sg10
S'0.0'
p1024
sg12
S'.419'
p1025
sg14
S'0.9'
p1026
sg16
S'.000'
p1027
sg18
S'0.0'
p1028
sg19
S'11.9'
p1029
sg21
g22
sg23
S'.736'
p1030
sg27
S'NBA'
p1031
sg29
S'1.0'
p1032
sg31
S'12.1'
p1033
sg33
S'4.8'
p1034
sg35
S'2.4'
p1035
sg37
S'10.2'
p1036
sg39
S'22'
p1037
sg41
S'SEA'
p1038
sg43
S'72'
p1039
sg45
S'1.2'
p1040
sg47
S'5.1'
p1041
sg49
S'1.8'
p1042
sg51
S'12.0'
p1043
sg53
S'7.5'
p1044
sg55
S'2007-08'
p1045
sg57
S'5.1'
p1046
sg59
S'2.0'
p1047
sg61
S'.420'
p1048
sg63
S'1310'
p1049
sg65
S'28'
p1050
sba(isrc.gp1.models.Per36Minutes
Per36Minutes
p1051
(dp1052
g8
S'2.7'
p1053
sg10
S'0.1'
p1054
sg12
S'.415'
p1055
sg14
S'1.0'
p1056
sg16
S'.000'
p1057
sg18
S'0.0'
p1058
sg19
S'10.4'
p1059
sg21
g22
sg23
S'.552'
p1060
sg27
S'NBA'
p1061
sg29
S'1.2'
p1062
sg31
S'11.3'
p1063
sg33
S'6.9'
p1064
sg35
S'1.9'
p1065
sg37
S'10.2'
p1066
sg39
S'23'
p1067
sg41
S'TOT'
p1068
sg43
S'49'
p1069
sg45
S'1.0'
p1070
sg47
S'4.7'
p1071
sg49
S'1.0'
p1072
sg51
S'11.2'
p1073
sg53
S'7.5'
p1074
sg55
S'2008-09'
p1075
sg57
S'4.7'
p1076
sg59
S'1.8'
p1077
sg61
S'.420'
p1078
sg63
S'559'
p1079
sg65
S'22'
p1080
sba(isrc.gp1.models.Per36Minutes
Per36Minutes
p1081
(dp1082
g8
S'2.8'
p1083
sg10
S'0.1'
p1084
sg12
S'.407'
p1085
sg14
S'0.6'
p1086
sg16
S'.000'
p1087
sg18
S'0.0'
p1088
sg19
S'10.7'
p1089
sg21
g22
sg23
S'.667'
p1090
sg27
S'NBA'
p1091
sg29
S'1.7'
p1092
sg31
S'11.9'
p1093
sg33
S'5.4'
p1094
sg35
S'1.6'
p1095
sg37
S'10.0'
p1096
sg39
S'23'
p1097
sg41
S'OKC'
p1098
sg43
S'22'
p1099
sg45
S'0.5'
p1100
sg47
S'4.8'
p1101
sg49
S'1.1'
p1102
sg51
S'11.8'
p1103
sg53
S'7.2'
p1104
sg55
S'2008-09'
p1105
sg57
S'4.8'
p1106
sg59
S'1.6'
p1107
sg61
S'.411'
p1108
sg63
S'342'
p1109
sg65
S'12'
p1110
sba(isrc.gp1.models.Per36Minutes
Per36Minutes
p1111
(dp1112
g8
S'2.5'
p1113
sg10
S'0.2'
p1114
sg12
S'.429'
p1115
sg14
S'1.7'
p1116
sg16
S'.000'
p1117
sg18
S'0.0'
p1118
sg19
S'10.0'
p1119
sg21
g22
sg23
S'.429'
p1120
sg27
S'NBA'
p1121
sg29
S'0.5'
p1122
sg31
S'10.5'
p1123
sg33
S'9.3'
p1124
sg35
S'2.3'
p1125
sg37
S'10.5'
p1126
sg39
S'23'
p1127
sg41
S'DEN'
p1128
sg43
S'27'
p1129
sg45
S'1.7'
p1130
sg47
S'4.5'
p1131
sg49
S'1.0'
p1132
sg51
S'10.3'
p1133
sg53
S'8.0'
p1134
sg55
S'2008-09'
p1135
sg57
S'4.5'
p1136
sg59
S'2.2'
p1137
sg61
S'.435'
p1138
sg63
S'217'
p1139
sg65
S'10'
p1140
sba(isrc.gp1.models.Per36Minutes
Per36Minutes
p1141
(dp1142
g8
S'2.6'
p1143
sg10
S'0.1'
p1144
sg12
S'.535'
p1145
sg14
S'1.2'
p1146
sg16
S'.000'
p1147
sg18
S'0.0'
p1148
sg19
S'10.1'
p1149
sg21
g22
sg23
S'.667'
p1150
sg27
S'NBA'
p1151
sg29
S'0.8'
p1152
sg31
S'8.3'
p1153
sg33
S'6.6'
p1154
sg35
S'1.7'
p1155
sg37
S'10.7'
p1156
sg39
S'24'
p1157
sg41
S'DEN'
p1158
sg43
S'36'
p1159
sg45
S'1.1'
p1160
sg47
S'4.5'
p1161
sg49
S'1.2'
p1162
sg51
S'8.3'
p1163
sg53
S'8.0'
p1164
sg55
S'2009-10'
p1165
sg57
S'4.5'
p1166
sg59
S'1.9'
p1167
sg61
S'.540'
p1168
sg63
S'436'
p1169
sg65
S'16'
p1170
sba(isrc.gp1.models.Per36Minutes
Per36Minutes
p1171
(dp1172
g8
S'2.5'
p1173
sg10
S'0.2'
p1174
sg12
S'.445'
p1175
sg14
S'1.8'
p1176
sg16
S'.000'
p1177
sg18
S'0.0'
p1178
sg19
S'11.0'
p1179
sg21
g22
sg23
S'.536'
p1180
sg27
S'NBA'
p1181
sg29
S'1.4'
p1182
sg31
S'11.7'
p1183
sg33
S'7.2'
p1184
sg35
S'1.1'
p1185
sg37
S'8.5'
p1186
sg39
S'25'
p1187
sg41
S'NJN'
p1188
sg43
S'77'
p1189
sg45
S'1.4'
p1190
sg47
S'5.2'
p1191
sg49
S'0.6'
p1192
sg51
S'11.5'
p1193
sg53
S'6.0'
p1194
sg55
S'2010-11'
p1195
sg57
S'5.2'
p1196
sg59
S'1.9'
p1197
sg61
S'.451'
p1198
sg63
S'893'
p1199
sg65
g98
sba(isrc.gp1.models.Per36Minutes
Per36Minutes
p1200
(dp1201
g8
S'2.7'
p1202
sg10
S'0.0'
p1203
sg12
S'.419'
p1204
sg14
S'1.8'
p1205
sg16
S'1.000'
p1206
sg18
S'0.0'
p1207
sg19
S'9.8'
p1208
sg21
g22
sg23
S'.838'
p1209
sg27
S'NBA'
p1210
sg29
S'0.8'
p1211
sg31
S'10.2'
p1212
sg33
S'4.8'
p1213
sg35
S'1.4'
p1214
sg37
S'8.8'
p1215
sg39
S'26'
p1216
sg41
S'NJN'
p1217
sg43
S'59'
p1218
sg45
S'0.9'
p1219
sg47
S'4.2'
p1220
sg49
S'1.2'
p1221
sg51
S'10.1'
p1222
sg53
S'6.1'
p1223
sg55
S'2011-12'
p1224
sg57
S'4.3'
p1225
sg59
S'1.5'
p1226
sg61
S'.417'
p1227
sg63
S'920'
p1228
sg65
S'10'
p1229
sba(isrc.gp1.models.Per36Minutes
Per36Minutes
p1230
(dp1231
g8
S'3.4'
p1232
sg10
S'0.4'
p1233
sg12
S'.436'
p1234
sg14
S'1.6'
p1235
sg16
S'.250'
p1236
sg18
S'0.1'
p1237
sg19
S'11.0'
p1238
sg21
g22
sg23
S'.917'
p1239
sg27
S'NBA'
p1240
sg29
S'1.0'
p1241
sg31
S'11.3'
p1242
sg33
S'4.9'
p1243
sg35
S'1.2'
p1244
sg37
S'11.5'
p1245
sg39
S'27'
p1246
sg41
S'ATL'
p1247
sg43
S'31'
p1248
sg45
S'0.9'
p1249
sg47
S'4.8'
p1250
sg49
S'1.1'
p1251
sg51
S'10.8'
p1252
sg53
S'8.1'
p1253
sg55
S'2012-13'
p1254
sg57
S'4.9'
p1255
sg59
S'2.5'
p1256
sg61
S'.443'
p1257
sg63
S'352'
p1258
sg65
g327
sbasS'_fromYear'
p1259
S'2006'
p1260
sS'_url'
p1261
S'http://www.basketball-reference.com/players/p/petrojo01.html'
p1262
sS'_perGame'
p1263
(isrc.gp1.models.PerGame
PerGame
p1264
(dp1265
g8
S'1.1'
p1266
sg10
S'0.1'
p1267
sg12
S'.436'
p1268
sS'_effectiveFieldGalPercentage'
p1269
S'.441'
p1270
sg14
S'0.5'
p1271
sg16
S'.250'
p1272
sg18
S'0.0'
p1273
sg19
S'3.5'
p1274
sg21
g22
sg23
S'.917'
p1275
sg27
S'NBA'
p1276
sg29
S'0.3'
p1277
sg33
S'1.5'
p1278
sS'_fieldGoalsttempted'
p1279
S'3.5'
p1280
sg35
S'0.4'
p1281
sg37
S'3.6'
p1282
sg39
S'27'
p1283
sg41
S'ATL'
p1284
sg43
S'31'
p1285
sg45
S'0.3'
p1286
sg47
S'1.5'
p1287
sg49
S'0.4'
p1288
sg51
S'3.4'
p1289
sg53
S'2.5'
p1290
sg55
S'2012-13'
p1291
sg57
S'1.5'
p1292
sg59
S'0.8'
p1293
sg61
S'.443'
p1294
sg63
S'11.4'
p1295
sg65
g327
sbsS'_weight'
p1296
S'247'
p1297
sS'_dob'
p1298
S'27-1-1986'
p1299
sS'_salary'
p1300
(lp1301
(isrc.gp1.models.Salary
Salary
p1302
(dp1303
g41
S'Seattle SuperSonics'
p1304
sg27
S'NBA'
p1305
sg1300
S'$936,600'
p1306
sg55
S'2005-06'
p1307
sba(isrc.gp1.models.Salary
Salary
p1308
(dp1309
g41
S'Seattle SuperSonics'
p1310
sg27
S'NBA'
p1311
sg1300
S'$1,006,800'
p1312
sg55
S'2006-07'
p1313
sba(isrc.gp1.models.Salary
Salary
p1314
(dp1315
g41
S'Seattle SuperSonics'
p1316
sg27
S'NBA'
p1317
sg1300
S'$1,077,120'
p1318
sg55
S'2007-08'
p1319
sba(isrc.gp1.models.Salary
Salary
p1320
(dp1321
g41
S'Denver Nuggets'
p1322
sg27
S'NBA'
p1323
sg1300
S'$1,939,893'
p1324
sg55
S'2008-09'
p1325
sba(isrc.gp1.models.Salary
Salary
p1326
(dp1327
g41
S'Denver Nuggets'
p1328
sg27
S'NBA'
p1329
sg1300
S'$884,881'
p1330
sg55
S'2009-10'
p1331
sba(isrc.gp1.models.Salary
Salary
p1332
(dp1333
g41
S'New Jersey Nets'
p1334
sg27
S'NBA'
p1335
sg1300
S'$3,250,000'
p1336
sg55
S'2010-11'
p1337
sba(isrc.gp1.models.Salary
Salary
p1338
(dp1339
g41
S'New Jersey Nets'
p1340
sg27
S'NBA'
p1341
sg1300
S'$3,250,000'
p1342
sg55
S'2011-12'
p1343
sba(isrc.gp1.models.Salary
Salary
p1344
(dp1345
g41
S'Atlanta Hawks'
p1346
sg27
S'NBA'
p1347
sg1300
S'$3,500,000'
p1348
sg55
S'2012-13'
p1349
sbasg21
g22
sb.