(isrc.gp1.models.Player
Player
p0
(dp1
S'_experience'
p2
S'NA'
p3
sS'_totals'
p4
(lp5
(isrc.gp1.models.Totals
Totals
p6
(dp7
S'_offensiveRebounds'
p8
S'51'
p9
sS'_threePointsAttempted'
p10
g3
sS'_fieldGoalsPercentage'
p11
S'.476'
p12
sS'_assist'
p13
S'135'
p14
sS'_threePointsPercentage'
p15
g3
sS'_threePoints'
p16
g3
sS'_points'
p17
S'569'
p18
sS'_position'
p19
S'SG'
p20
sS'_freeThrowsPercentage'
p21
S'.804'
p22
sS'_effectiveFieldGoalPercentage'
p23
S'.476'
p24
sS'_league'
p25
S'NBA'
p26
sS'_steals'
p27
S'62'
p28
sS'_fieldGoalsAttempted'
p29
S'464'
p30
sS'_personalFouls'
p31
S'141'
p32
sS'_freeThrowsAttempted'
p33
S'158'
p34
sS'_totalRebounds'
p35
S'140'
p36
sS'_age'
p37
S'22'
p38
sS'_team'
p39
S'GSW'
p40
sS'_games'
p41
S'74'
p42
sS'_blocks'
p43
S'0'
p44
sS'_twoPoints'
p45
S'221'
p46
sS'_freeThrows'
p47
S'127'
p48
sS'_twoPointsAttempted'
p49
S'464'
p50
sS'_defensiveRebounds'
p51
S'89'
p52
sS'_season'
p53
S'1974-75'
p54
sS'_fieldGoals'
p55
S'221'
p56
sS'_turnOvers'
p57
g3
sS'_twoPointsPercentage'
p58
S'.476'
p59
sS'_minutesPlayed'
p60
S'1055'
p61
sS'_gamesStarted'
p62
g3
sba(isrc.gp1.models.Totals
Totals
p63
(dp64
g8
S'133'
p65
sg10
g3
sg11
S'.477'
p66
sg13
S'362'
p67
sg15
g3
sg16
g3
sg17
S'1641'
p68
sg19
S'SG'
p69
sg21
S'.788'
p70
sg23
S'.477'
p71
sg25
S'NBA'
p72
sg27
S'108'
p73
sg29
S'1383'
p74
sg31
S'223'
p75
sg33
S'410'
p76
sg35
S'376'
p77
sg37
S'23'
p78
sg39
S'GSW'
p79
sg41
S'82'
p80
sg43
S'18'
p81
sg45
S'659'
p82
sg47
S'323'
p83
sg49
S'1383'
p84
sg51
S'243'
p85
sg53
S'1975-76'
p86
sg55
S'659'
p87
sg57
g3
sg58
S'.477'
p88
sg60
S'2793'
p89
sg62
g3
sba(isrc.gp1.models.Totals
Totals
p90
(dp91
g8
S'101'
p92
sg10
g3
sg11
S'.479'
p93
sg13
S'328'
p94
sg15
g3
sg16
g3
sg17
S'1557'
p95
sg19
S'SG'
p96
sg21
S'.785'
p97
sg23
S'.479'
p98
sg25
S'NBA'
p99
sg27
S'98'
p100
sg29
S'1318'
p101
sg31
S'227'
p102
sg33
S'376'
p103
sg35
S'332'
p104
sg37
S'24'
p105
sg39
S'GSW'
p106
sg41
S'82'
p107
sg43
S'29'
p108
sg45
S'631'
p109
sg47
S'295'
p110
sg49
S'1318'
p111
sg51
S'231'
p112
sg53
S'1976-77'
p113
sg55
S'631'
p114
sg57
g3
sg58
S'.479'
p115
sg60
S'2880'
p116
sg62
g3
sba(isrc.gp1.models.Totals
Totals
p117
(dp118
g8
S'100'
p119
sg10
g3
sg11
S'.472'
p120
sg13
S'393'
p121
sg15
g3
sg16
g3
sg17
S'1612'
p122
sg19
S'SG'
p123
sg21
S'.812'
p124
sg23
S'.472'
p125
sg25
S'NBA'
p126
sg27
S'108'
p127
sg29
S'1373'
p128
sg31
S'219'
p129
sg33
S'389'
p130
sg35
S'300'
p131
sg37
S'25'
p132
sg39
S'GSW'
p133
sg41
S'82'
p134
sg43
S'27'
p135
sg45
S'648'
p136
sg47
S'316'
p137
sg49
S'1373'
p138
sg51
S'200'
p139
sg53
S'1977-78'
p140
sg55
S'648'
p141
sg57
S'266'
p142
sg58
S'.472'
p143
sg60
S'2940'
p144
sg62
g3
sba(isrc.gp1.models.Totals
Totals
p145
(dp146
g8
S'48'
p147
sg10
g3
sg11
S'.501'
p148
sg13
S'261'
p149
sg15
g3
sg16
g3
sg17
S'1172'
p150
sg19
S'SG'
p151
sg21
S'.761'
p152
sg23
S'.501'
p153
sg25
S'NBA'
p154
sg27
S'101'
p155
sg29
S'977'
p156
sg31
S'159'
p157
sg33
S'255'
p158
sg35
S'212'
p159
sg37
S'26'
p160
sg39
S'GSW'
p161
sg41
S'59'
p162
sg43
S'23'
p163
sg45
S'489'
p164
sg47
S'194'
p165
sg49
S'977'
p166
sg51
S'164'
p167
sg53
S'1978-79'
p168
sg55
S'489'
p169
sg57
S'170'
p170
sg58
S'.501'
p171
sg60
S'2288'
p172
sg62
g3
sba(isrc.gp1.models.Totals
Totals
p173
(dp174
g8
S'28'
p175
sg10
S'22'
p176
sg11
S'.474'
p177
sg13
S'187'
p178
sg15
S'.318'
p179
sg16
S'7'
p180
sg17
S'792'
p181
sg19
S'SG'
p182
sg21
S'.789'
p183
sg23
S'.480'
p184
sg25
S'NBA'
p185
sg27
S'62'
p186
sg29
S'685'
p187
sg31
S'154'
p188
sg33
S'171'
p189
sg35
S'146'
p190
sg37
S'27'
p191
sg39
S'GSW'
p192
sg41
S'51'
p193
sg43
S'15'
p194
sg45
S'318'
p195
sg47
S'135'
p196
sg49
S'663'
p197
sg51
S'118'
p198
sg53
S'1979-80'
p199
sg55
S'325'
p200
sg57
S'121'
p201
sg58
S'.480'
p202
sg60
S'1552'
p203
sg62
g3
sba(isrc.gp1.models.Totals
Totals
p204
(dp205
g8
S'49'
p206
sg10
S'18'
p207
sg11
S'.491'
p208
sg13
S'372'
p209
sg15
S'.222'
p210
sg16
S'4'
p211
sg17
S'1279'
p212
sg19
S'SG'
p213
sg21
S'.757'
p214
sg23
S'.493'
p215
sg25
S'NBA'
p216
sg27
S'84'
p217
sg29
S'1057'
p218
sg31
S'231'
p219
sg33
S'313'
p220
sg35
S'156'
p221
sg37
S'28'
p222
sg39
S'SDC'
p223
sg41
S'76'
p224
sg43
S'18'
p225
sg45
S'515'
p226
sg47
S'237'
p227
sg49
S'1039'
p228
sg51
S'107'
p229
sg53
S'1980-81'
p230
sg55
S'519'
p231
sg57
S'176'
p232
sg58
S'.496'
p233
sg60
S'2378'
p234
sg62
g3
sba(isrc.gp1.models.Totals
Totals
p235
(dp236
g8
S'51'
p237
sg10
S'27'
p238
sg11
S'.447'
p239
sg13
S'307'
p240
sg15
S'.185'
p241
sg16
S'5'
p242
sg17
S'848'
p243
sg19
S'SG'
p244
sg21
S'.731'
p245
sg23
S'.450'
p246
sg25
S'NBA'
p247
sg27
S'67'
p248
sg29
S'761'
p249
sg31
S'213'
p250
sg33
S'223'
p251
sg35
S'186'
p252
sg37
S'29'
p253
sg39
S'TOT'
p254
sg41
S'74'
p255
sg43
S'27'
p256
sg45
S'335'
p257
sg47
S'163'
p258
sg49
S'734'
p259
sg51
S'135'
p260
sg53
S'1981-82'
p261
sg55
S'340'
p262
sg57
S'155'
p263
sg58
S'.456'
p264
sg60
S'2042'
p265
sg62
S'41'
p266
sba(isrc.gp1.models.Totals
Totals
p267
(dp268
g8
S'34'
p269
sg10
S'24'
p270
sg11
S'.440'
p271
sg13
S'233'
p272
sg15
S'.208'
p273
sg16
g242
sg17
S'634'
p274
sg19
S'SG'
p275
sg21
S'.732'
p276
sg23
S'.444'
p277
sg25
S'NBA'
p278
sg27
S'45'
p279
sg29
S'575'
p280
sg31
S'151'
p281
sg33
S'168'
p282
sg35
S'117'
p283
sg37
S'29'
p284
sg39
S'SDC'
p285
sg41
S'48'
p286
sg43
S'19'
p287
sg45
S'248'
p288
sg47
S'123'
p289
sg49
S'551'
p290
sg51
S'83'
p291
sg53
S'1981-82'
p292
sg55
S'253'
p293
sg57
S'116'
p294
sg58
S'.450'
p295
sg60
S'1446'
p296
sg62
S'39'
p297
sba(isrc.gp1.models.Totals
Totals
p298
(dp299
g8
S'17'
p300
sg10
S'3'
p301
sg11
S'.468'
p302
sg13
S'74'
p303
sg15
S'.000'
p304
sg16
g44
sg17
S'214'
p305
sg19
S'SG'
p306
sg21
S'.727'
p307
sg23
S'.468'
p308
sg25
S'NBA'
p309
sg27
S'22'
p310
sg29
S'186'
p311
sg31
S'62'
p312
sg33
S'55'
p313
sg35
S'69'
p314
sg37
S'29'
p315
sg39
S'SEA'
p316
sg41
S'26'
p317
sg43
S'8'
p318
sg45
S'87'
p319
sg47
S'40'
p320
sg49
S'183'
p321
sg51
S'52'
p322
sg53
S'1981-82'
p323
sg55
S'87'
p324
sg57
S'39'
p325
sg58
S'.475'
p326
sg60
S'596'
p327
sg62
S'2'
p328
sba(isrc.gp1.models.Totals
Totals
p329
(dp330
g8
S'27'
p331
sg10
g318
sg11
S'.438'
p332
sg13
S'216'
p333
sg15
S'.375'
p334
sg16
g301
sg17
S'454'
p335
sg19
S'SG'
p336
sg21
S'.759'
p337
sg23
S'.441'
p338
sg25
S'NBA'
p339
sg27
S'44'
p340
sg29
S'400'
p341
sg31
S'113'
p342
sg33
S'133'
p343
sg35
S'130'
p344
sg37
S'30'
p345
sg39
S'SEA'
p346
sg41
S'79'
p347
sg43
g318
sg45
S'172'
p348
sg47
S'101'
p349
sg49
S'392'
p350
sg51
S'103'
p351
sg53
S'1982-83'
p352
sg55
S'175'
p353
sg57
S'102'
p354
sg58
S'.439'
p355
sg60
S'1238'
p356
sg62
S'17'
p357
sbasS'_college'
p358
S'University of San Francisco'
p359
sS'_toYear'
p360
S'1983'
p361
sS'_height'
p362
S'6-4'
p363
sS'_active'
p364
I00
sS'_shootingHand'
p365
VRight
p366
sS'_name'
p367
S'Phil Smith'
p368
sS'_per100Possessions'
p369
(lp370
(isrc.gp1.models.Per100Possession
Per100Possession
p371
(dp372
g8
S'2.2'
p373
sg10
g3
sg11
S'.476'
p374
sS'_offensiveRating'
p375
g3
sg13
S'5.7'
p376
sg15
g3
sg16
g3
sg17
S'24.1'
p377
sg19
S'SG'
p378
sS'_defensiveRating'
p379
S'99'
p380
sg21
S'.804'
p381
sg25
S'NBA'
p382
sg27
S'2.6'
p383
sg29
S'19.6'
p384
sg31
S'6.0'
p385
sg33
S'6.7'
p386
sg35
S'5.9'
p387
sg37
S'22'
p388
sg39
S'GSW'
p389
sg41
S'74'
p390
sg43
S'0.0'
p391
sg45
S'9.3'
p392
sg47
S'5.4'
p393
sg49
S'19.6'
p394
sg51
S'3.8'
p395
sg53
S'1974-75'
p396
sg55
S'9.3'
p397
sg57
g3
sg58
S'.476'
p398
sg60
S'1055'
p399
sg62
g3
sba(isrc.gp1.models.Per100Possession
Per100Possession
p400
(dp401
g8
S'2.1'
p402
sg10
g3
sg11
S'.477'
p403
sg375
g3
sg13
S'5.7'
p404
sg15
g3
sg16
g3
sg17
S'26.0'
p405
sg19
S'SG'
p406
sg379
S'98'
p407
sg21
S'.788'
p408
sg25
S'NBA'
p409
sg27
S'1.7'
p410
sg29
S'22.0'
p411
sg31
S'3.5'
p412
sg33
S'6.5'
p413
sg35
S'6.0'
p414
sg37
S'23'
p415
sg39
S'GSW'
p416
sg41
S'82'
p417
sg43
S'0.3'
p418
sg45
S'10.5'
p419
sg47
S'5.1'
p420
sg49
S'22.0'
p421
sg51
S'3.9'
p422
sg53
S'1975-76'
p423
sg55
S'10.5'
p424
sg57
g3
sg58
S'.477'
p425
sg60
S'2793'
p426
sg62
g3
sba(isrc.gp1.models.Per100Possession
Per100Possession
p427
(dp428
g8
S'1.6'
p429
sg10
g3
sg11
S'.479'
p430
sg375
g3
sg13
S'5.1'
p431
sg15
g3
sg16
g3
sg17
S'24.1'
p432
sg19
S'SG'
p433
sg379
S'103'
p434
sg21
S'.785'
p435
sg25
S'NBA'
p436
sg27
S'1.5'
p437
sg29
S'20.4'
p438
sg31
S'3.5'
p439
sg33
S'5.8'
p440
sg35
S'5.1'
p441
sg37
S'24'
p442
sg39
S'GSW'
p443
sg41
S'82'
p444
sg43
S'0.4'
p445
sg45
S'9.8'
p446
sg47
S'4.6'
p447
sg49
S'20.4'
p448
sg51
S'3.6'
p449
sg53
S'1976-77'
p450
sg55
S'9.8'
p451
sg57
g3
sg58
S'.479'
p452
sg60
S'2880'
p453
sg62
g3
sba(isrc.gp1.models.Per100Possession
Per100Possession
p454
(dp455
g8
S'1.5'
p456
sg10
g3
sg11
S'.472'
p457
sg375
S'101'
p458
sg13
S'6.1'
p459
sg15
g3
sg16
g3
sg17
S'24.8'
p460
sg19
S'SG'
p461
sg379
S'102'
p462
sg21
S'.812'
p463
sg25
S'NBA'
p464
sg27
S'1.7'
p465
sg29
S'21.2'
p466
sg31
S'3.4'
p467
sg33
S'6.0'
p468
sg35
S'4.6'
p469
sg37
S'25'
p470
sg39
S'GSW'
p471
sg41
S'82'
p472
sg43
S'0.4'
p473
sg45
S'10.0'
p474
sg47
S'4.9'
p475
sg49
S'21.2'
p476
sg51
S'3.1'
p477
sg53
S'1977-78'
p478
sg55
S'10.0'
p479
sg57
S'4.1'
p480
sg58
S'.472'
p481
sg60
S'2940'
p482
sg62
g3
sba(isrc.gp1.models.Per100Possession
Per100Possession
p483
(dp484
g8
S'1.0'
p485
sg10
g3
sg11
S'.501'
p486
sg375
S'105'
p487
sg13
S'5.4'
p488
sg15
g3
sg16
g3
sg17
S'24.1'
p489
sg19
S'SG'
p490
sg379
S'104'
p491
sg21
S'.761'
p492
sg25
S'NBA'
p493
sg27
S'2.1'
p494
sg29
S'20.1'
p495
sg31
S'3.3'
p496
sg33
S'5.2'
p497
sg35
S'4.4'
p498
sg37
S'26'
p499
sg39
S'GSW'
p500
sg41
S'59'
p501
sg43
S'0.5'
p502
sg45
S'10.0'
p503
sg47
S'4.0'
p504
sg49
S'20.1'
p505
sg51
S'3.4'
p506
sg53
S'1978-79'
p507
sg55
S'10.0'
p508
sg57
S'3.5'
p509
sg58
S'.501'
p510
sg60
S'2288'
p511
sg62
g3
sba(isrc.gp1.models.Per100Possession
Per100Possession
p512
(dp513
g8
S'0.9'
p514
sg10
S'0.7'
p515
sg11
S'.474'
p516
sg375
S'102'
p517
sg13
S'5.8'
p518
sg15
S'.318'
p519
sg16
S'0.2'
p520
sg17
S'24.4'
p521
sg19
S'SG'
p522
sg379
S'108'
p523
sg21
S'.789'
p524
sg25
S'NBA'
p525
sg27
S'1.9'
p526
sg29
S'21.1'
p527
sg31
S'4.7'
p528
sg33
S'5.3'
p529
sg35
S'4.5'
p530
sg37
S'27'
p531
sg39
S'GSW'
p532
sg41
S'51'
p533
sg43
S'0.5'
p534
sg45
S'9.8'
p535
sg47
S'4.2'
p536
sg49
S'20.4'
p537
sg51
S'3.6'
p538
sg53
S'1979-80'
p539
sg55
S'10.0'
p540
sg57
S'3.7'
p541
sg58
S'.480'
p542
sg60
S'1552'
p543
sg62
g3
sba(isrc.gp1.models.Per100Possession
Per100Possession
p544
(dp545
g8
S'1.0'
p546
sg10
S'0.4'
p547
sg11
S'.491'
p548
sg375
S'108'
p549
sg13
S'7.5'
p550
sg15
S'.222'
p551
sg16
S'0.1'
p552
sg17
S'25.8'
p553
sg19
S'SG'
p554
sg379
S'110'
p555
sg21
S'.757'
p556
sg25
S'NBA'
p557
sg27
S'1.7'
p558
sg29
S'21.3'
p559
sg31
S'4.7'
p560
sg33
S'6.3'
p561
sg35
S'3.1'
p562
sg37
S'28'
p563
sg39
S'SDC'
p564
sg41
S'76'
p565
sg43
S'0.4'
p566
sg45
S'10.4'
p567
sg47
S'4.8'
p568
sg49
S'20.9'
p569
sg51
S'2.2'
p570
sg53
S'1980-81'
p571
sg55
S'10.5'
p572
sg57
S'3.5'
p573
sg58
S'.496'
p574
sg60
S'2378'
p575
sg62
g3
sba(isrc.gp1.models.Per100Possession
Per100Possession
p576
(dp577
g8
S'1.2'
p578
sg10
S'0.6'
p579
sg11
S'.447'
p580
sg375
S'101'
p581
sg13
S'7.1'
p582
sg15
S'.185'
p583
sg16
S'0.1'
p584
sg17
S'19.7'
p585
sg19
S'SG'
p586
sg379
S'112'
p587
sg21
S'.731'
p588
sg25
S'NBA'
p589
sg27
S'1.6'
p590
sg29
S'17.7'
p591
sg31
S'5.0'
p592
sg33
S'5.2'
p593
sg35
S'4.3'
p594
sg37
S'29'
p595
sg39
S'TOT'
p596
sg41
S'74'
p597
sg43
S'0.6'
p598
sg45
S'7.8'
p599
sg47
S'3.8'
p600
sg49
S'17.1'
p601
sg51
S'3.1'
p602
sg53
S'1981-82'
p603
sg55
S'7.9'
p604
sg57
S'3.6'
p605
sg58
S'.456'
p606
sg60
S'2042'
p607
sg62
S'41'
p608
sba(isrc.gp1.models.Per100Possession
Per100Possession
p609
(dp610
g8
S'1.1'
p611
sg10
S'0.8'
p612
sg11
S'.440'
p613
sg375
S'101'
p614
sg13
S'7.6'
p615
sg15
S'.208'
p616
sg16
S'0.2'
p617
sg17
S'20.8'
p618
sg19
S'SG'
p619
sg379
S'116'
p620
sg21
S'.732'
p621
sg25
S'NBA'
p622
sg27
S'1.5'
p623
sg29
S'18.8'
p624
sg31
S'4.9'
p625
sg33
S'5.5'
p626
sg35
S'3.8'
p627
sg37
S'29'
p628
sg39
S'SDC'
p629
sg41
S'48'
p630
sg43
S'0.6'
p631
sg45
S'8.1'
p632
sg47
S'4.0'
p633
sg49
S'18.0'
p634
sg51
S'2.7'
p635
sg53
S'1981-82'
p636
sg55
S'8.3'
p637
sg57
S'3.8'
p638
sg58
S'.450'
p639
sg60
S'1446'
p640
sg62
S'39'
p641
sba(isrc.gp1.models.Per100Possession
Per100Possession
p642
(dp643
g8
S'1.4'
p644
sg10
S'0.2'
p645
sg11
S'.468'
p646
sg375
S'102'
p647
sg13
S'6.0'
p648
sg15
S'.000'
p649
sg16
S'0.0'
p650
sg17
S'17.2'
p651
sg19
S'SG'
p652
sg379
S'104'
p653
sg21
S'.727'
p654
sg25
S'NBA'
p655
sg27
S'1.8'
p656
sg29
S'15.0'
p657
sg31
S'5.0'
p658
sg33
S'4.4'
p659
sg35
S'5.6'
p660
sg37
S'29'
p661
sg39
S'SEA'
p662
sg41
S'26'
p663
sg43
S'0.6'
p664
sg45
S'7.0'
p665
sg47
S'3.2'
p666
sg49
S'14.7'
p667
sg51
S'4.2'
p668
sg53
S'1981-82'
p669
sg55
S'7.0'
p670
sg57
S'3.1'
p671
sg58
S'.475'
p672
sg60
S'596'
p673
sg62
g328
sba(isrc.gp1.models.Per100Possession
Per100Possession
p674
(dp675
g8
S'1.0'
p676
sg10
S'0.3'
p677
sg11
S'.438'
p678
sg375
S'99'
p679
sg13
S'8.1'
p680
sg15
S'.375'
p681
sg16
S'0.1'
p682
sg17
S'17.1'
p683
sg19
S'SG'
p684
sg379
S'105'
p685
sg21
S'.759'
p686
sg25
S'NBA'
p687
sg27
S'1.7'
p688
sg29
S'15.0'
p689
sg31
S'4.2'
p690
sg33
S'5.0'
p691
sg35
S'4.9'
p692
sg37
S'30'
p693
sg39
S'SEA'
p694
sg41
S'79'
p695
sg43
S'0.3'
p696
sg45
S'6.5'
p697
sg47
S'3.8'
p698
sg49
S'14.7'
p699
sg51
S'3.9'
p700
sg53
S'1982-83'
p701
sg55
S'6.6'
p702
sg57
S'3.8'
p703
sg58
S'.439'
p704
sg60
S'1238'
p705
sg62
S'17'
p706
sbasS'_advanced'
p707
(lp708
(isrc.gp1.models.Advanced
Advanced
p709
(dp710
S'_offensiveReboundPercentage'
p711
S'4.7'
p712
sS'_turnOverPercentage'
p713
g3
sS'_winSharesPer48Minutes'
p714
S'.132'
p715
sS'_stealPercentage'
p716
S'2.6'
p717
sS'_usagePercentage'
p718
g3
sS'_totalReboundsPercentage'
p719
S'6.5'
p720
sS'_defensiveBoxPlusMinus'
p721
S'-1.8'
p722
sg19
S'SG'
p723
sS'_valueOverReplacementPlayer'
p724
S'0.5'
p725
sS'_trueShootingPercentage'
p726
S'.533'
p727
sS'_defensiveReboundPercentage'
p728
S'8.3'
p729
sS'_freeThrowsAttempRate'
p730
S'.341'
p731
sS'_threePointsAttempRate'
p732
g3
sg25
S'NBA'
p733
sS'_offensiveBoxPlusMinues'
p734
S'1.7'
p735
sS'_assistPercentage'
p736
S'17.5'
p737
sS'_defensiveWinShares'
p738
S'0.9'
p739
sg37
S'22'
p740
sg39
S'GSW'
p741
sg41
S'74'
p742
sS'_blockPercentage'
p743
S'0.0'
p744
sS'_playerEfficiencyRating'
p745
S'17.6'
p746
sS'_offensiveWinShares'
p747
S'2.0'
p748
sg60
S'1055'
p749
sS'_boxPlusMinus'
p750
S'-0.1'
p751
sg53
S'1974-75'
p752
sS'_winShares'
p753
S'2.9'
p754
sba(isrc.gp1.models.Advanced
Advanced
p755
(dp756
g711
S'4.6'
p757
sg713
g3
sg714
S'.161'
p758
sg716
S'1.7'
p759
sg718
g3
sg719
S'6.4'
p760
sg721
S'-0.6'
p761
sg19
S'SG'
p762
sg724
S'3.2'
p763
sg726
S'.525'
p764
sg728
S'8.2'
p765
sg730
S'.296'
p766
sg732
g3
sg25
S'NBA'
p767
sg734
S'3.2'
p768
sg736
S'18.7'
p769
sg738
S'3.1'
p770
sg37
S'23'
p771
sg39
S'GSW'
p772
sg41
S'82'
p773
sg743
S'0.3'
p774
sg745
S'18.4'
p775
sg747
S'6.3'
p776
sg60
S'2793'
p777
sg750
S'2.6'
p778
sg53
S'1975-76'
p779
sg753
S'9.4'
p780
sba(isrc.gp1.models.Advanced
Advanced
p781
(dp782
g711
S'3.5'
p783
sg713
g3
sg714
S'.117'
p784
sg716
S'1.5'
p785
sg718
g3
sg719
S'5.8'
p786
sg721
S'-1.3'
p787
sg19
S'SG'
p788
sg724
S'1.7'
p789
sg726
S'.525'
p790
sg728
S'8.1'
p791
sg730
S'.285'
p792
sg732
g3
sg25
S'NBA'
p793
sg734
S'1.6'
p794
sg736
S'15.8'
p795
sg738
S'1.8'
p796
sg37
S'24'
p797
sg39
S'GSW'
p798
sg41
S'82'
p799
sg743
S'0.5'
p800
sg745
S'16.1'
p801
sg747
S'5.2'
p802
sg60
S'2880'
p803
sg750
S'0.3'
p804
sg53
S'1976-77'
p805
sg753
S'7.0'
p806
sba(isrc.gp1.models.Advanced
Advanced
p807
(dp808
g711
S'3.4'
p809
sg713
S'14.7'
p810
sg714
S'.102'
p811
sg716
S'1.7'
p812
sg718
S'24.1'
p813
sg719
S'5.2'
p814
sg721
S'-0.9'
p815
sg19
S'SG'
p816
sg724
S'1.8'
p817
sg726
S'.522'
p818
sg728
S'7.1'
p819
sg730
S'.283'
p820
sg732
g3
sg25
S'NBA'
p821
sg734
S'1.3'
p822
sg736
S'19.6'
p823
sg738
S'2.5'
p824
sg37
S'25'
p825
sg39
S'GSW'
p826
sg41
S'82'
p827
sg743
S'0.5'
p828
sg745
S'16.5'
p829
sg747
S'3.8'
p830
sg60
S'2940'
p831
sg750
S'0.4'
p832
sg53
S'1977-78'
p833
sg753
S'6.3'
p834
sba(isrc.gp1.models.Advanced
Advanced
p835
(dp836
g711
S'2.2'
p837
sg713
S'13.5'
p838
sg714
S'.110'
p839
sg716
S'2.1'
p840
sg718
S'22.3'
p841
sg719
S'5.0'
p842
sg721
S'0.2'
p843
sg19
S'SG'
p844
sg724
S'1.9'
p845
sg726
S'.538'
p846
sg728
S'7.7'
p847
sg730
S'.261'
p848
sg732
g3
sg25
S'NBA'
p849
sg734
S'1.1'
p850
sg736
S'16.2'
p851
sg738
S'2.4'
p852
sg37
S'26'
p853
sg39
S'GSW'
p854
sg41
S'59'
p855
sg743
S'0.5'
p856
sg745
S'16.1'
p857
sg747
S'2.8'
p858
sg60
S'2288'
p859
sg750
S'1.3'
p860
sg53
S'1978-79'
p861
sg753
S'5.2'
p862
sba(isrc.gp1.models.Advanced
Advanced
p863
(dp864
g711
S'1.9'
p865
sg713
S'13.7'
p866
sg714
S'.067'
p867
sg716
S'1.9'
p868
sg718
S'23.4'
p869
sg719
S'5.2'
p870
sg721
S'-1.2'
p871
sg19
S'SG'
p872
sg724
S'0.3'
p873
sg726
S'.521'
p874
sg728
S'8.7'
p875
sg730
S'.250'
p876
sg732
S'.032'
p877
sg25
S'NBA'
p878
sg734
S'-0.2'
p879
sg736
S'17.8'
p880
sg738
S'1.1'
p881
sg37
S'27'
p882
sg39
S'GSW'
p883
sg41
S'51'
p884
sg743
S'0.6'
p885
sg745
S'14.6'
p886
sg747
S'1.1'
p887
sg60
S'1552'
p888
sg750
S'-1.4'
p889
sg53
S'1979-80'
p890
sg753
S'2.2'
p891
sba(isrc.gp1.models.Advanced
Advanced
p892
(dp893
g711
S'2.3'
p894
sg713
S'12.8'
p895
sg714
S'.097'
p896
sg716
S'1.7'
p897
sg718
S'23.5'
p898
sg719
S'3.8'
p899
sg721
S'-2.3'
p900
sg19
S'SG'
p901
sg724
S'0.6'
p902
sg726
S'.535'
p903
sg728
S'5.5'
p904
sg730
S'.296'
p905
sg732
S'.017'
p906
sg25
S'NBA'
p907
sg734
S'1.3'
p908
sg736
S'23.6'
p909
sg738
S'1.0'
p910
sg37
S'28'
p911
sg39
S'SDC'
p912
sg41
S'76'
p913
sg743
S'0.4'
p914
sg745
S'16.2'
p915
sg747
S'3.8'
p916
sg60
S'2378'
p917
sg750
S'-1.0'
p918
sg53
S'1980-81'
p919
sg753
S'4.8'
p920
sba(isrc.gp1.models.Advanced
Advanced
p921
(dp922
g711
S'2.9'
p923
sg713
S'15.3'
p924
sg714
S'.037'
p925
sg716
S'1.6'
p926
sg718
S'20.3'
p927
sg719
S'5.2'
p928
sg721
S'-1.6'
p929
sg19
S'SG'
p930
sg724
S'-0.4'
p931
sg726
S'.494'
p932
sg728
S'7.6'
p933
sg730
S'.293'
p934
sg732
S'.035'
p935
sg25
S'NBA'
p936
sg734
S'-1.2'
p937
sg736
S'20.7'
p938
sg738
S'0.8'
p939
sg37
S'29'
p940
sg39
S'TOT'
p941
sg41
S'74'
p942
sg743
S'0.7'
p943
sg745
S'12.2'
p944
sg747
S'0.8'
p945
sg60
S'2042'
p946
sg750
S'-2.8'
p947
sg53
S'1981-82'
p948
sg753
S'1.6'
p949
sba(isrc.gp1.models.Advanced
Advanced
p950
(dp951
g711
S'2.7'
p952
sg713
S'15.2'
p953
sg714
S'.017'
p954
sg716
S'1.5'
p955
sg718
S'21.5'
p956
sg719
S'4.8'
p957
sg721
S'-2.5'
p958
sg19
S'SG'
p959
sg724
S'-0.5'
p960
sg726
S'.489'
p961
sg728
S'7.0'
p962
sg730
S'.292'
p963
sg732
S'.042'
p964
sg25
S'NBA'
p965
sg734
S'-0.9'
p966
sg736
S'22.3'
p967
sg738
S'0.0'
p968
sg37
S'29'
p969
sg39
S'SDC'
p970
sg41
S'48'
p971
sg743
S'0.7'
p972
sg745
S'12.4'
p973
sg747
S'0.6'
p974
sg60
S'1446'
p975
sg750
S'-3.3'
p976
sg53
S'1981-82'
p977
sg753
S'0.5'
p978
sba(isrc.gp1.models.Advanced
Advanced
p979
(dp980
g711
S'3.2'
p981
sg713
S'15.7'
p982
sg714
S'.083'
p983
sg716
S'1.8'
p984
sg718
S'17.3'
p985
sg719
S'6.3'
p986
sg721
S'0.6'
p987
sg19
S'SG'
p988
sg724
S'0.1'
p989
sg726
S'.509'
p990
sg728
S'9.1'
p991
sg730
S'.296'
p992
sg732
S'.016'
p993
sg25
S'NBA'
p994
sg734
S'-2.0'
p995
sg736
S'16.8'
p996
sg738
S'0.8'
p997
sg37
S'29'
p998
sg39
S'SEA'
p999
sg41
S'26'
p1000
sg743
S'0.7'
p1001
sg745
S'11.5'
p1002
sg747
S'0.2'
p1003
sg60
S'596'
p1004
sg750
S'-1.5'
p1005
sg53
S'1981-82'
p1006
sg753
S'1.0'
p1007
sba(isrc.gp1.models.Advanced
Advanced
p1008
(dp1009
g711
S'2.4'
p1010
sg713
S'18.2'
p1011
sg714
S'.065'
p1012
sg716
S'1.7'
p1013
sg718
S'18.1'
p1014
sg719
S'5.6'
p1015
sg721
S'-0.8'
p1016
sg19
S'SG'
p1017
sg724
S'-0.3'
p1018
sg726
S'.495'
p1019
sg728
S'8.5'
p1020
sg730
S'.333'
p1021
sg732
S'.020'
p1022
sg25
S'NBA'
p1023
sg734
S'-2.2'
p1024
sg736
S'22.8'
p1025
sg738
S'1.2'
p1026
sg37
S'30'
p1027
sg39
S'SEA'
p1028
sg41
S'79'
p1029
sg743
S'0.3'
p1030
sg745
S'11.7'
p1031
sg747
S'0.4'
p1032
sg60
S'1238'
p1033
sg750
S'-3.0'
p1034
sg53
S'1982-83'
p1035
sg753
S'1.7'
p1036
sbasS'_per36Minutes'
p1037
(lp1038
(isrc.gp1.models.Per36Minutes
Per36Minutes
p1039
(dp1040
g8
S'1.7'
p1041
sg10
g3
sg11
S'.476'
p1042
sg13
S'4.6'
p1043
sg15
g3
sg16
g3
sg17
S'19.4'
p1044
sg19
S'SG'
p1045
sg21
S'.804'
p1046
sg25
S'NBA'
p1047
sg27
S'2.1'
p1048
sg29
S'15.8'
p1049
sg31
S'4.8'
p1050
sg33
S'5.4'
p1051
sg35
S'4.8'
p1052
sg37
S'22'
p1053
sg39
S'GSW'
p1054
sg41
S'74'
p1055
sg43
S'0.0'
p1056
sg45
S'7.5'
p1057
sg47
S'4.3'
p1058
sg49
S'15.8'
p1059
sg51
S'3.0'
p1060
sg53
S'1974-75'
p1061
sg55
S'7.5'
p1062
sg57
g3
sg58
S'.476'
p1063
sg60
S'1055'
p1064
sg62
g3
sba(isrc.gp1.models.Per36Minutes
Per36Minutes
p1065
(dp1066
g8
S'1.7'
p1067
sg10
g3
sg11
S'.477'
p1068
sg13
S'4.7'
p1069
sg15
g3
sg16
g3
sg17
S'21.2'
p1070
sg19
S'SG'
p1071
sg21
S'.788'
p1072
sg25
S'NBA'
p1073
sg27
S'1.4'
p1074
sg29
S'17.8'
p1075
sg31
S'2.9'
p1076
sg33
S'5.3'
p1077
sg35
S'4.8'
p1078
sg37
S'23'
p1079
sg39
S'GSW'
p1080
sg41
S'82'
p1081
sg43
S'0.2'
p1082
sg45
S'8.5'
p1083
sg47
S'4.2'
p1084
sg49
S'17.8'
p1085
sg51
S'3.1'
p1086
sg53
S'1975-76'
p1087
sg55
S'8.5'
p1088
sg57
g3
sg58
S'.477'
p1089
sg60
S'2793'
p1090
sg62
g3
sba(isrc.gp1.models.Per36Minutes
Per36Minutes
p1091
(dp1092
g8
S'1.3'
p1093
sg10
g3
sg11
S'.479'
p1094
sg13
S'4.1'
p1095
sg15
g3
sg16
g3
sg17
S'19.5'
p1096
sg19
S'SG'
p1097
sg21
S'.785'
p1098
sg25
S'NBA'
p1099
sg27
S'1.2'
p1100
sg29
S'16.5'
p1101
sg31
S'2.8'
p1102
sg33
S'4.7'
p1103
sg35
S'4.1'
p1104
sg37
S'24'
p1105
sg39
S'GSW'
p1106
sg41
S'82'
p1107
sg43
S'0.4'
p1108
sg45
S'7.9'
p1109
sg47
S'3.7'
p1110
sg49
S'16.5'
p1111
sg51
S'2.9'
p1112
sg53
S'1976-77'
p1113
sg55
S'7.9'
p1114
sg57
g3
sg58
S'.479'
p1115
sg60
S'2880'
p1116
sg62
g3
sba(isrc.gp1.models.Per36Minutes
Per36Minutes
p1117
(dp1118
g8
S'1.2'
p1119
sg10
g3
sg11
S'.472'
p1120
sg13
S'4.8'
p1121
sg15
g3
sg16
g3
sg17
S'19.7'
p1122
sg19
S'SG'
p1123
sg21
S'.812'
p1124
sg25
S'NBA'
p1125
sg27
S'1.3'
p1126
sg29
S'16.8'
p1127
sg31
S'2.7'
p1128
sg33
S'4.8'
p1129
sg35
S'3.7'
p1130
sg37
S'25'
p1131
sg39
S'GSW'
p1132
sg41
S'82'
p1133
sg43
S'0.3'
p1134
sg45
S'7.9'
p1135
sg47
S'3.9'
p1136
sg49
S'16.8'
p1137
sg51
S'2.4'
p1138
sg53
S'1977-78'
p1139
sg55
S'7.9'
p1140
sg57
S'3.3'
p1141
sg58
S'.472'
p1142
sg60
S'2940'
p1143
sg62
g3
sba(isrc.gp1.models.Per36Minutes
Per36Minutes
p1144
(dp1145
g8
S'0.8'
p1146
sg10
g3
sg11
S'.501'
p1147
sg13
S'4.1'
p1148
sg15
g3
sg16
g3
sg17
S'18.4'
p1149
sg19
S'SG'
p1150
sg21
S'.761'
p1151
sg25
S'NBA'
p1152
sg27
S'1.6'
p1153
sg29
S'15.4'
p1154
sg31
S'2.5'
p1155
sg33
S'4.0'
p1156
sg35
S'3.3'
p1157
sg37
S'26'
p1158
sg39
S'GSW'
p1159
sg41
S'59'
p1160
sg43
S'0.4'
p1161
sg45
S'7.7'
p1162
sg47
S'3.1'
p1163
sg49
S'15.4'
p1164
sg51
S'2.6'
p1165
sg53
S'1978-79'
p1166
sg55
S'7.7'
p1167
sg57
S'2.7'
p1168
sg58
S'.501'
p1169
sg60
S'2288'
p1170
sg62
g3
sba(isrc.gp1.models.Per36Minutes
Per36Minutes
p1171
(dp1172
g8
S'0.6'
p1173
sg10
S'0.5'
p1174
sg11
S'.474'
p1175
sg13
S'4.3'
p1176
sg15
S'.318'
p1177
sg16
S'0.2'
p1178
sg17
S'18.4'
p1179
sg19
S'SG'
p1180
sg21
S'.789'
p1181
sg25
S'NBA'
p1182
sg27
S'1.4'
p1183
sg29
S'15.9'
p1184
sg31
S'3.6'
p1185
sg33
S'4.0'
p1186
sg35
S'3.4'
p1187
sg37
S'27'
p1188
sg39
S'GSW'
p1189
sg41
S'51'
p1190
sg43
S'0.3'
p1191
sg45
S'7.4'
p1192
sg47
S'3.1'
p1193
sg49
S'15.4'
p1194
sg51
S'2.7'
p1195
sg53
S'1979-80'
p1196
sg55
S'7.5'
p1197
sg57
S'2.8'
p1198
sg58
S'.480'
p1199
sg60
S'1552'
p1200
sg62
g3
sba(isrc.gp1.models.Per36Minutes
Per36Minutes
p1201
(dp1202
g8
S'0.7'
p1203
sg10
S'0.3'
p1204
sg11
S'.491'
p1205
sg13
S'5.6'
p1206
sg15
S'.222'
p1207
sg16
S'0.1'
p1208
sg17
S'19.4'
p1209
sg19
S'SG'
p1210
sg21
S'.757'
p1211
sg25
S'NBA'
p1212
sg27
S'1.3'
p1213
sg29
S'16.0'
p1214
sg31
S'3.5'
p1215
sg33
S'4.7'
p1216
sg35
S'2.4'
p1217
sg37
S'28'
p1218
sg39
S'SDC'
p1219
sg41
S'76'
p1220
sg43
S'0.3'
p1221
sg45
S'7.8'
p1222
sg47
S'3.6'
p1223
sg49
S'15.7'
p1224
sg51
S'1.6'
p1225
sg53
S'1980-81'
p1226
sg55
S'7.9'
p1227
sg57
S'2.7'
p1228
sg58
S'.496'
p1229
sg60
S'2378'
p1230
sg62
g3
sba(isrc.gp1.models.Per36Minutes
Per36Minutes
p1231
(dp1232
g8
S'0.9'
p1233
sg10
S'0.5'
p1234
sg11
S'.447'
p1235
sg13
S'5.4'
p1236
sg15
S'.185'
p1237
sg16
S'0.1'
p1238
sg17
S'15.0'
p1239
sg19
S'SG'
p1240
sg21
S'.731'
p1241
sg25
S'NBA'
p1242
sg27
S'1.2'
p1243
sg29
S'13.4'
p1244
sg31
S'3.8'
p1245
sg33
S'3.9'
p1246
sg35
S'3.3'
p1247
sg37
S'29'
p1248
sg39
S'TOT'
p1249
sg41
S'74'
p1250
sg43
S'0.5'
p1251
sg45
S'5.9'
p1252
sg47
S'2.9'
p1253
sg49
S'12.9'
p1254
sg51
S'2.4'
p1255
sg53
S'1981-82'
p1256
sg55
S'6.0'
p1257
sg57
S'2.7'
p1258
sg58
S'.456'
p1259
sg60
S'2042'
p1260
sg62
S'41'
p1261
sba(isrc.gp1.models.Per36Minutes
Per36Minutes
p1262
(dp1263
g8
S'0.8'
p1264
sg10
S'0.6'
p1265
sg11
S'.440'
p1266
sg13
S'5.8'
p1267
sg15
S'.208'
p1268
sg16
S'0.1'
p1269
sg17
S'15.8'
p1270
sg19
S'SG'
p1271
sg21
S'.732'
p1272
sg25
S'NBA'
p1273
sg27
S'1.1'
p1274
sg29
S'14.3'
p1275
sg31
S'3.8'
p1276
sg33
S'4.2'
p1277
sg35
S'2.9'
p1278
sg37
S'29'
p1279
sg39
S'SDC'
p1280
sg41
S'48'
p1281
sg43
S'0.5'
p1282
sg45
S'6.2'
p1283
sg47
S'3.1'
p1284
sg49
S'13.7'
p1285
sg51
S'2.1'
p1286
sg53
S'1981-82'
p1287
sg55
S'6.3'
p1288
sg57
S'2.9'
p1289
sg58
S'.450'
p1290
sg60
S'1446'
p1291
sg62
S'39'
p1292
sba(isrc.gp1.models.Per36Minutes
Per36Minutes
p1293
(dp1294
g8
S'1.0'
p1295
sg10
S'0.2'
p1296
sg11
S'.468'
p1297
sg13
S'4.5'
p1298
sg15
S'.000'
p1299
sg16
S'0.0'
p1300
sg17
S'12.9'
p1301
sg19
S'SG'
p1302
sg21
S'.727'
p1303
sg25
S'NBA'
p1304
sg27
S'1.3'
p1305
sg29
S'11.2'
p1306
sg31
S'3.7'
p1307
sg33
S'3.3'
p1308
sg35
S'4.2'
p1309
sg37
S'29'
p1310
sg39
S'SEA'
p1311
sg41
S'26'
p1312
sg43
S'0.5'
p1313
sg45
S'5.3'
p1314
sg47
S'2.4'
p1315
sg49
S'11.1'
p1316
sg51
S'3.1'
p1317
sg53
S'1981-82'
p1318
sg55
S'5.3'
p1319
sg57
S'2.4'
p1320
sg58
S'.475'
p1321
sg60
S'596'
p1322
sg62
g328
sba(isrc.gp1.models.Per36Minutes
Per36Minutes
p1323
(dp1324
g8
S'0.8'
p1325
sg10
S'0.2'
p1326
sg11
S'.438'
p1327
sg13
S'6.3'
p1328
sg15
S'.375'
p1329
sg16
S'0.1'
p1330
sg17
S'13.2'
p1331
sg19
S'SG'
p1332
sg21
S'.759'
p1333
sg25
S'NBA'
p1334
sg27
S'1.3'
p1335
sg29
S'11.6'
p1336
sg31
S'3.3'
p1337
sg33
S'3.9'
p1338
sg35
S'3.8'
p1339
sg37
S'30'
p1340
sg39
S'SEA'
p1341
sg41
S'79'
p1342
sg43
S'0.2'
p1343
sg45
S'5.0'
p1344
sg47
S'2.9'
p1345
sg49
S'11.4'
p1346
sg51
S'3.0'
p1347
sg53
S'1982-83'
p1348
sg55
S'5.1'
p1349
sg57
S'3.0'
p1350
sg58
S'.439'
p1351
sg60
S'1238'
p1352
sg62
S'17'
p1353
sbasS'_fromYear'
p1354
S'1975'
p1355
sS'_url'
p1356
S'http://www.basketball-reference.com/players/s/smithph01.html'
p1357
sS'_perGame'
p1358
(isrc.gp1.models.PerGame
PerGame
p1359
(dp1360
g8
S'0.3'
p1361
sg10
S'0.1'
p1362
sg11
S'.438'
p1363
sS'_effectiveFieldGalPercentage'
p1364
S'.441'
p1365
sg13
S'2.7'
p1366
sg15
S'.375'
p1367
sg16
S'0.0'
p1368
sg17
S'5.7'
p1369
sg19
S'SG'
p1370
sg21
S'.759'
p1371
sg25
S'NBA'
p1372
sg27
S'0.6'
p1373
sg31
S'1.4'
p1374
sS'_fieldGoalsttempted'
p1375
S'5.1'
p1376
sg33
S'1.7'
p1377
sg35
S'1.6'
p1378
sg37
S'30'
p1379
sg39
S'SEA'
p1380
sg41
S'79'
p1381
sg43
S'0.1'
p1382
sg45
S'2.2'
p1383
sg47
S'1.3'
p1384
sg49
S'5.0'
p1385
sg51
S'1.3'
p1386
sg53
S'1982-83'
p1387
sg55
S'2.2'
p1388
sg57
S'1.3'
p1389
sg58
S'.439'
p1390
sg60
S'15.7'
p1391
sg62
S'17'
p1392
sbsS'_weight'
p1393
S'185'
p1394
sS'_dob'
p1395
S'22-4-1952'
p1396
sS'_salary'
p1397
(lp1398
sg19
S'G'
p1399
sb.