(isrc.gp1.models.Player
Player
p0
(dp1
S'_experience'
p2
S'NA'
p3
sS'_totals'
p4
(lp5
(isrc.gp1.models.Totals
Totals
p6
(dp7
S'_offensiveRebounds'
p8
S'0'
p9
sS'_threePointsAttempted'
p10
g9
sS'_fieldGoalsPercentage'
p11
S'.538'
p12
sS'_assist'
p13
S'3'
p14
sS'_threePointsPercentage'
p15
g3
sS'_threePoints'
p16
g9
sS'_points'
p17
S'20'
p18
sS'_position'
p19
S'SF'
p20
sS'_freeThrowsPercentage'
p21
S'.600'
p22
sS'_effectiveFieldGoalPercentage'
p23
S'.538'
p24
sS'_league'
p25
S'NBA'
p26
sS'_steals'
p27
S'2'
p28
sS'_fieldGoalsAttempted'
p29
S'13'
p30
sS'_personalFouls'
p31
S'11'
p32
sS'_freeThrowsAttempted'
p33
S'10'
p34
sS'_totalRebounds'
p35
S'10'
p36
sS'_age'
p37
S'22'
p38
sS'_team'
p39
S'ATL'
p40
sS'_games'
p41
S'7'
p42
sS'_blocks'
p43
S'1'
p44
sS'_twoPoints'
p45
g42
sS'_freeThrows'
p46
S'6'
p47
sS'_twoPointsAttempted'
p48
S'13'
p49
sS'_defensiveRebounds'
p50
S'10'
p51
sS'_season'
p52
S'1983-84'
p53
sS'_fieldGoals'
p54
g42
sS'_turnOvers'
p55
S'5'
p56
sS'_twoPointsPercentage'
p57
S'.538'
p58
sS'_minutesPlayed'
p59
S'65'
p60
sS'_gamesStarted'
p61
g9
sbasS'_college'
p62
S'Villanova University'
p63
sS'_toYear'
p64
S'1984'
p65
sS'_height'
p66
S'6-8'
p67
sS'_active'
p68
I00
sS'_shootingHand'
p69
VRight
p70
sS'_name'
p71
S'John Pinone'
p72
sS'_per100Possessions'
p73
(lp74
(isrc.gp1.models.Per100Possession
Per100Possession
p75
(dp76
g8
S'0.0'
p77
sg10
S'0.0'
p78
sg11
S'.538'
p79
sS'_offensiveRating'
p80
S'94'
p81
sg13
S'2.3'
p82
sg15
g3
sg16
S'0.0'
p83
sg17
S'15.5'
p84
sg19
S'SF'
p85
sS'_defensiveRating'
p86
S'106'
p87
sg21
S'.600'
p88
sg25
S'NBA'
p89
sg27
S'1.5'
p90
sg29
S'10.1'
p91
sg31
S'8.5'
p92
sg33
S'7.7'
p93
sg35
S'7.7'
p94
sg37
S'22'
p95
sg39
S'ATL'
p96
sg41
g42
sg43
S'0.8'
p97
sg45
S'5.4'
p98
sg46
S'4.6'
p99
sg48
S'10.1'
p100
sg50
S'7.7'
p101
sg52
S'1983-84'
p102
sg54
S'5.4'
p103
sg55
S'3.9'
p104
sg57
S'.538'
p105
sg59
S'65'
p106
sg61
g9
sbasS'_advanced'
p107
(lp108
(isrc.gp1.models.Advanced
Advanced
p109
(dp110
S'_offensiveReboundPercentage'
p111
S'0.0'
p112
sS'_turnOverPercentage'
p113
S'22.3'
p114
sS'_winSharesPer48Minutes'
p115
S'.040'
p116
sS'_stealPercentage'
p117
S'1.5'
p118
sS'_usagePercentage'
p119
S'14.9'
p120
sS'_totalReboundsPercentage'
p121
S'8.8'
p122
sS'_defensiveBoxPlusMinus'
p123
S'0.2'
p124
sg19
S'SF'
p125
sS'_valueOverReplacementPlayer'
p126
S'0.0'
p127
sS'_trueShootingPercentage'
p128
S'.575'
p129
sS'_defensiveReboundPercentage'
p130
S'17.8'
p131
sS'_freeThrowsAttempRate'
p132
S'.769'
p133
sS'_threePointsAttempRate'
p134
S'.000'
p135
sg25
S'NBA'
p136
sS'_offensiveBoxPlusMinues'
p137
S'-5.2'
p138
sS'_assistPercentage'
p139
S'6.5'
p140
sS'_defensiveWinShares'
p141
S'0.1'
p142
sg37
S'22'
p143
sg39
S'ATL'
p144
sg41
g42
sS'_blockPercentage'
p145
S'0.9'
p146
sS'_playerEfficiencyRating'
p147
S'7.8'
p148
sS'_offensiveWinShares'
p149
S'0.0'
p150
sg59
S'65'
p151
sS'_boxPlusMinus'
p152
S'-4.9'
p153
sg52
S'1983-84'
p154
sS'_winShares'
p155
S'0.1'
p156
sbasS'_per36Minutes'
p157
(lp158
(isrc.gp1.models.Per36Minutes
Per36Minutes
p159
(dp160
g8
S'0.0'
p161
sg10
S'0.0'
p162
sg11
S'.538'
p163
sg13
S'1.7'
p164
sg15
g3
sg16
S'0.0'
p165
sg17
S'11.1'
p166
sg19
S'SF'
p167
sg21
S'.600'
p168
sg25
S'NBA'
p169
sg27
S'1.1'
p170
sg29
S'7.2'
p171
sg31
S'6.1'
p172
sg33
S'5.5'
p173
sg35
S'5.5'
p174
sg37
S'22'
p175
sg39
S'ATL'
p176
sg41
g42
sg43
S'0.6'
p177
sg45
S'3.9'
p178
sg46
S'3.3'
p179
sg48
S'7.2'
p180
sg50
S'5.5'
p181
sg52
S'1983-84'
p182
sg54
S'3.9'
p183
sg55
S'2.8'
p184
sg57
S'.538'
p185
sg59
S'65'
p186
sg61
g9
sbasS'_fromYear'
p187
S'1984'
p188
sS'_url'
p189
S'http://www.basketball-reference.com/players/p/pinonjo01.html'
p190
sS'_perGame'
p191
(isrc.gp1.models.PerGame
PerGame
p192
(dp193
g8
S'0.0'
p194
sg10
S'0.0'
p195
sg11
S'.538'
p196
sS'_effectiveFieldGalPercentage'
p197
S'.538'
p198
sg13
S'0.4'
p199
sg15
g3
sg16
S'0.0'
p200
sg17
S'2.9'
p201
sg19
S'SF'
p202
sg21
S'.600'
p203
sg25
S'NBA'
p204
sg27
S'0.3'
p205
sg31
S'1.6'
p206
sS'_fieldGoalsttempted'
p207
S'1.9'
p208
sg33
S'1.4'
p209
sg35
S'1.4'
p210
sg37
S'22'
p211
sg39
S'ATL'
p212
sg41
g42
sg43
S'0.1'
p213
sg45
S'1.0'
p214
sg46
S'0.9'
p215
sg48
S'1.9'
p216
sg50
S'1.4'
p217
sg52
S'1983-84'
p218
sg54
S'1.0'
p219
sg55
S'0.7'
p220
sg57
S'.538'
p221
sg59
S'9.3'
p222
sg61
g9
sbsS'_weight'
p223
S'230'
p224
sS'_dob'
p225
S'19-2-1961'
p226
sS'_salary'
p227
(lp228
sg19
S'F'
p229
sb.