(isrc.gp1.models.Player
Player
p0
(dp1
S'_experience'
p2
S'NA'
p3
sS'_totals'
p4
(lp5
(isrc.gp1.models.Totals
Totals
p6
(dp7
S'_offensiveRebounds'
p8
g3
sS'_threePointsAttempted'
p9
g3
sS'_fieldGoalsPercentage'
p10
S'.403'
p11
sS'_assist'
p12
S'108'
p13
sS'_threePointsPercentage'
p14
g3
sS'_threePoints'
p15
g3
sS'_points'
p16
S'636'
p17
sS'_position'
p18
S'SF'
p19
sS'_freeThrowsPercentage'
p20
S'.667'
p21
sS'_effectiveFieldGoalPercentage'
p22
S'.403'
p23
sS'_league'
p24
S'NBA'
p25
sS'_steals'
p26
g3
sS'_fieldGoalsAttempted'
p27
S'637'
p28
sS'_personalFouls'
p29
S'141'
p30
sS'_freeThrowsAttempted'
p31
S'183'
p32
sS'_totalRebounds'
p33
S'351'
p34
sS'_age'
p35
S'22'
p36
sS'_team'
p37
S'ROC'
p38
sS'_games'
p39
S'71'
p40
sS'_blocks'
p41
g3
sS'_twoPoints'
p42
S'257'
p43
sS'_freeThrows'
p44
S'122'
p45
sS'_twoPointsAttempted'
p46
S'637'
p47
sS'_defensiveRebounds'
p48
g3
sS'_season'
p49
S'1956-57'
p50
sS'_fieldGoals'
p51
S'257'
p52
sS'_turnOvers'
p53
g3
sS'_twoPointsPercentage'
p54
S'.403'
p55
sS'_minutesPlayed'
p56
S'1759'
p57
sS'_gamesStarted'
p58
g3
sba(isrc.gp1.models.Totals
Totals
p59
(dp60
g8
g3
sg9
g3
sg10
S'.378'
p61
sg12
S'52'
p62
sg14
g3
sg15
g3
sg16
S'395'
p63
sg18
S'SF'
p64
sg20
S'.629'
p65
sg22
S'.378'
p66
sg24
S'NBA'
p67
sg26
g3
sg27
S'397'
p68
sg29
S'134'
p69
sg31
S'151'
p70
sg33
S'254'
p71
sg35
S'23'
p72
sg37
S'CIN'
p73
sg39
S'71'
p74
sg41
g3
sg42
S'150'
p75
sg44
S'95'
p76
sg46
S'397'
p77
sg48
g3
sg49
S'1957-58'
p78
sg51
S'150'
p79
sg53
g3
sg54
S'.378'
p80
sg56
S'1032'
p81
sg58
g3
sba(isrc.gp1.models.Totals
Totals
p82
(dp83
g8
g3
sg9
g3
sg10
S'.375'
p84
sg12
S'124'
p85
sg14
g3
sg15
g3
sg16
S'766'
p86
sg18
S'PF'
p87
sg20
S'.687'
p88
sg22
S'.375'
p89
sg24
S'NBA'
p90
sg26
g3
sg27
S'813'
p91
sg29
S'162'
p92
sg31
S'227'
p93
sg33
S'385'
p94
sg35
S'24'
p95
sg37
S'CIN'
p96
sg39
S'72'
p97
sg41
g3
sg42
S'305'
p98
sg44
S'156'
p99
sg46
S'813'
p100
sg48
g3
sg49
S'1958-59'
p101
sg51
S'305'
p102
sg53
g3
sg54
S'.375'
p103
sg56
S'1674'
p104
sg58
g3
sba(isrc.gp1.models.Totals
Totals
p105
(dp106
g8
g3
sg9
g3
sg10
S'.401'
p107
sg12
S'118'
p108
sg14
g3
sg15
g3
sg16
S'713'
p109
sg18
S'SF'
p110
sg20
S'.639'
p111
sg22
S'.401'
p112
sg24
S'NBA'
p113
sg26
g3
sg27
S'728'
p114
sg29
S'211'
p115
sg31
S'202'
p116
sg33
S'461'
p117
sg35
S'25'
p118
sg37
S'TOT'
p119
sg39
S'77'
p120
sg41
g3
sg42
S'292'
p121
sg44
S'129'
p122
sg46
S'728'
p123
sg48
g3
sg49
S'1959-60'
p124
sg51
S'292'
p125
sg53
g3
sg54
S'.401'
p126
sg56
S'1833'
p127
sg58
g3
sba(isrc.gp1.models.Totals
Totals
p128
(dp129
g8
g3
sg9
g3
sg10
S'.409'
p130
sg12
S'84'
p131
sg14
g3
sg15
g3
sg16
S'518'
p132
sg18
g3
sg20
S'.689'
p133
sg22
S'.409'
p134
sg24
S'NBA'
p135
sg26
g3
sg27
S'531'
p136
sg29
S'143'
p137
sg31
S'122'
p138
sg33
S'341'
p139
sg35
S'25'
p140
sg37
S'CIN'
p141
sg39
S'52'
p142
sg41
g3
sg42
S'217'
p143
sg44
S'84'
p144
sg46
S'531'
p145
sg48
g3
sg49
S'1959-60'
p146
sg51
S'217'
p147
sg53
g3
sg54
S'.409'
p148
sg56
S'1111'
p149
sg58
g3
sba(isrc.gp1.models.Totals
Totals
p150
(dp151
g8
g3
sg9
g3
sg10
S'.381'
p152
sg12
S'34'
p153
sg14
g3
sg15
g3
sg16
S'195'
p154
sg18
S'SF'
p155
sg20
S'.563'
p156
sg22
S'.381'
p157
sg24
S'NBA'
p158
sg26
g3
sg27
S'197'
p159
sg29
S'68'
p160
sg31
S'80'
p161
sg33
S'120'
p162
sg35
S'25'
p163
sg37
S'STL'
p164
sg39
S'25'
p165
sg41
g3
sg42
S'75'
p166
sg44
S'45'
p167
sg46
S'197'
p168
sg48
g3
sg49
S'1959-60'
p169
sg51
S'75'
p170
sg53
g3
sg54
S'.381'
p171
sg56
S'722'
p172
sg58
g3
sba(isrc.gp1.models.Totals
Totals
p173
(dp174
g8
g3
sg9
g3
sg10
S'.490'
p175
sg12
S'19'
p176
sg14
g3
sg15
g3
sg16
S'110'
p177
sg18
S'SF'
p178
sg20
S'.516'
p179
sg22
S'.490'
p180
sg24
S'NBA'
p181
sg26
g3
sg27
S'96'
p182
sg29
S'31'
p183
sg31
S'31'
p184
sg33
S'68'
p185
sg35
S'26'
p186
sg37
S'STL'
p187
sg39
S'29'
p188
sg41
g3
sg42
S'47'
p189
sg44
S'16'
p190
sg46
S'96'
p191
sg48
g3
sg49
S'1960-61'
p192
sg51
S'47'
p193
sg53
g3
sg54
S'.490'
p194
sg56
S'254'
p195
sg58
g3
sba(isrc.gp1.models.Totals
Totals
p196
(dp197
g8
g3
sg9
g3
sg10
S'.369'
p198
sg12
S'31'
p199
sg14
g3
sg15
g3
sg16
S'205'
p200
sg18
S'PF'
p201
sg20
S'.661'
p202
sg22
S'.369'
p203
sg24
S'NBA'
p204
sg26
g3
sg27
S'225'
p205
sg29
S'89'
p206
sg31
S'59'
p207
sg33
S'155'
p208
sg35
S'27'
p209
sg37
S'CHP'
p210
sg39
S'45'
p211
sg41
g3
sg42
S'83'
p212
sg44
S'39'
p213
sg46
S'225'
p214
sg48
g3
sg49
S'1961-62'
p215
sg51
S'83'
p216
sg53
g3
sg54
S'.369'
p217
sg56
S'614'
p218
sg58
g3
sba(isrc.gp1.models.Totals
Totals
p219
(dp220
g8
g3
sg9
g3
sg10
S'.380'
p221
sg12
S'26'
p222
sg14
g3
sg15
g3
sg16
S'130'
p223
sg18
S'SF'
p224
sg20
S'.625'
p225
sg22
S'.380'
p226
sg24
S'NBA'
p227
sg26
g3
sg27
S'158'
p228
sg29
S'67'
p229
sg31
S'16'
p230
sg33
S'96'
p231
sg35
S'28'
p232
sg37
S'CIN'
p233
sg39
S'48'
p234
sg41
g3
sg42
S'60'
p235
sg44
S'10'
p236
sg46
S'158'
p237
sg48
g3
sg49
S'1962-63'
p238
sg51
S'60'
p239
sg53
g3
sg54
S'.380'
p240
sg56
S'457'
p241
sg58
g3
sbasS'_college'
p242
S'Xavier University'
p243
sS'_toYear'
p244
S'1963'
p245
sS'_height'
p246
S'6-6'
p247
sS'_active'
p248
I00
sS'_shootingHand'
p249
VRight
p250
sS'_name'
p251
S'Dave Piontek'
p252
sS'_per100Possessions'
p253
(lp254
sS'_advanced'
p255
(lp256
(isrc.gp1.models.Advanced
Advanced
p257
(dp258
S'_offensiveReboundPercentage'
p259
g3
sS'_turnOverPercentage'
p260
g3
sS'_winSharesPer48Minutes'
p261
S'.100'
p262
sS'_stealPercentage'
p263
g3
sS'_usagePercentage'
p264
g3
sS'_totalReboundsPercentage'
p265
g3
sS'_defensiveBoxPlusMinus'
p266
g3
sg18
S'SF'
p267
sS'_valueOverReplacementPlayer'
p268
g3
sS'_trueShootingPercentage'
p269
S'.443'
p270
sS'_defensiveReboundPercentage'
p271
g3
sS'_freeThrowsAttempRate'
p272
S'.287'
p273
sS'_threePointsAttempRate'
p274
g3
sg24
S'NBA'
p275
sS'_offensiveBoxPlusMinues'
p276
g3
sS'_assistPercentage'
p277
g3
sS'_defensiveWinShares'
p278
S'2.3'
p279
sg35
S'22'
p280
sg37
S'ROC'
p281
sg39
S'71'
p282
sS'_blockPercentage'
p283
g3
sS'_playerEfficiencyRating'
p284
S'13.4'
p285
sS'_offensiveWinShares'
p286
S'1.3'
p287
sg56
S'1759'
p288
sS'_boxPlusMinus'
p289
g3
sg49
S'1956-57'
p290
sS'_winShares'
p291
S'3.7'
p292
sba(isrc.gp1.models.Advanced
Advanced
p293
(dp294
g259
g3
sg260
g3
sg261
S'.066'
p295
sg263
g3
sg264
g3
sg265
g3
sg266
g3
sg18
S'SF'
p296
sg268
g3
sg269
S'.426'
p297
sg271
g3
sg272
S'.380'
p298
sg274
g3
sg24
S'NBA'
p299
sg276
g3
sg277
g3
sg278
S'1.1'
p300
sg35
S'23'
p301
sg37
S'CIN'
p302
sg39
S'71'
p303
sg283
g3
sg284
S'11.2'
p304
sg286
S'0.3'
p305
sg56
S'1032'
p306
sg289
g3
sg49
S'1957-58'
p307
sg291
S'1.4'
p308
sba(isrc.gp1.models.Advanced
Advanced
p309
(dp310
g259
g3
sg260
g3
sg261
S'.014'
p311
sg263
g3
sg264
g3
sg265
g3
sg266
g3
sg18
S'PF'
p312
sg268
g3
sg269
S'.420'
p313
sg271
g3
sg272
S'.279'
p314
sg274
g3
sg24
S'NBA'
p315
sg276
g3
sg277
g3
sg278
S'0.6'
p316
sg35
S'24'
p317
sg37
S'CIN'
p318
sg39
S'72'
p319
sg283
g3
sg284
S'13.4'
p320
sg286
S'-0.1'
p321
sg56
S'1674'
p322
sg289
g3
sg49
S'1958-59'
p323
sg291
S'0.5'
p324
sba(isrc.gp1.models.Advanced
Advanced
p325
(dp326
g259
g3
sg260
g3
sg261
S'.028'
p327
sg263
g3
sg264
g3
sg265
g3
sg266
g3
sg18
S'SF'
p328
sg268
g3
sg269
S'.436'
p329
sg271
g3
sg272
S'.277'
p330
sg274
g3
sg24
S'NBA'
p331
sg276
g3
sg277
g3
sg278
S'0.7'
p332
sg35
S'25'
p333
sg37
S'TOT'
p334
sg39
S'77'
p335
sg283
g3
sg284
S'11.1'
p336
sg286
S'0.4'
p337
sg56
S'1833'
p338
sg289
g3
sg49
S'1959-60'
p339
sg291
S'1.1'
p340
sba(isrc.gp1.models.Advanced
Advanced
p341
(dp342
g259
g3
sg260
g3
sg261
S'.032'
p343
sg263
g3
sg264
g3
sg265
g3
sg266
g3
sg18
g3
sg268
g3
sg269
S'.443'
p344
sg271
g3
sg272
S'.230'
p345
sg274
g3
sg24
S'NBA'
p346
sg276
g3
sg277
g3
sg278
S'0.3'
p347
sg35
S'25'
p348
sg37
S'CIN'
p349
sg39
S'52'
p350
sg283
g3
sg284
S'13.8'
p351
sg286
S'0.5'
p352
sg56
S'1111'
p353
sg289
g3
sg49
S'1959-60'
p354
sg291
S'0.8'
p355
sba(isrc.gp1.models.Advanced
Advanced
p356
(dp357
g259
g3
sg260
g3
sg261
S'.021'
p358
sg263
g3
sg264
g3
sg265
g3
sg266
g3
sg18
S'SF'
p359
sg268
g3
sg269
S'.420'
p360
sg271
g3
sg272
S'.406'
p361
sg274
g3
sg24
S'NBA'
p362
sg276
g3
sg277
g3
sg278
S'0.4'
p363
sg35
S'25'
p364
sg37
S'STL'
p365
sg39
S'25'
p366
sg283
g3
sg284
S'6.9'
p367
sg286
S'-0.1'
p368
sg56
S'722'
p369
sg289
g3
sg49
S'1959-60'
p370
sg291
S'0.3'
p371
sba(isrc.gp1.models.Advanced
Advanced
p372
(dp373
g259
g3
sg260
g3
sg261
S'.142'
p374
sg263
g3
sg264
g3
sg265
g3
sg266
g3
sg18
S'SF'
p375
sg268
g3
sg269
S'.502'
p376
sg271
g3
sg272
S'.323'
p377
sg274
g3
sg24
S'NBA'
p378
sg276
g3
sg277
g3
sg278
S'0.4'
p379
sg35
S'26'
p380
sg37
S'STL'
p381
sg39
S'29'
p382
sg283
g3
sg284
S'13.7'
p383
sg286
S'0.4'
p384
sg56
S'254'
p385
sg289
g3
sg49
S'1960-61'
p386
sg291
S'0.8'
p387
sba(isrc.gp1.models.Advanced
Advanced
p388
(dp389
g259
g3
sg260
g3
sg261
S'-0.008'
p390
sg263
g3
sg264
g3
sg265
g3
sg266
g3
sg18
S'PF'
p391
sg268
g3
sg269
S'.408'
p392
sg271
g3
sg272
S'.262'
p393
sg274
g3
sg24
S'NBA'
p394
sg276
g3
sg277
g3
sg278
S'0.4'
p395
sg35
S'27'
p396
sg37
S'CHP'
p397
sg39
S'45'
p398
sg283
g3
sg284
S'8.2'
p399
sg286
S'-0.5'
p400
sg56
S'614'
p401
sg289
g3
sg49
S'1961-62'
p402
sg291
S'-0.1'
p403
sba(isrc.gp1.models.Advanced
Advanced
p404
(dp405
g259
g3
sg260
g3
sg261
S'-0.031'
p406
sg263
g3
sg264
g3
sg265
g3
sg266
g3
sg18
S'SF'
p407
sg268
g3
sg269
S'.394'
p408
sg271
g3
sg272
S'.101'
p409
sg274
g3
sg24
S'NBA'
p410
sg276
g3
sg277
g3
sg278
S'0.2'
p411
sg35
S'28'
p412
sg37
S'CIN'
p413
sg39
S'48'
p414
sg283
g3
sg284
S'6.4'
p415
sg286
S'-0.5'
p416
sg56
S'457'
p417
sg289
g3
sg49
S'1962-63'
p418
sg291
S'-0.3'
p419
sbasS'_per36Minutes'
p420
(lp421
(isrc.gp1.models.Per36Minutes
Per36Minutes
p422
(dp423
g8
g3
sg9
g3
sg10
S'.403'
p424
sg12
S'2.2'
p425
sg14
g3
sg15
g3
sg16
S'13.0'
p426
sg18
S'SF'
p427
sg20
S'.667'
p428
sg24
S'NBA'
p429
sg26
g3
sg27
S'13.0'
p430
sg29
S'2.9'
p431
sg31
S'3.7'
p432
sg33
S'7.2'
p433
sg35
S'22'
p434
sg37
S'ROC'
p435
sg39
S'71'
p436
sg41
g3
sg42
S'5.3'
p437
sg44
S'2.5'
p438
sg46
S'13.0'
p439
sg48
g3
sg49
S'1956-57'
p440
sg51
S'5.3'
p441
sg53
g3
sg54
S'.403'
p442
sg56
S'1759'
p443
sg58
g3
sba(isrc.gp1.models.Per36Minutes
Per36Minutes
p444
(dp445
g8
g3
sg9
g3
sg10
S'.378'
p446
sg12
S'1.8'
p447
sg14
g3
sg15
g3
sg16
S'13.8'
p448
sg18
S'SF'
p449
sg20
S'.629'
p450
sg24
S'NBA'
p451
sg26
g3
sg27
S'13.8'
p452
sg29
S'4.7'
p453
sg31
S'5.3'
p454
sg33
S'8.9'
p455
sg35
S'23'
p456
sg37
S'CIN'
p457
sg39
S'71'
p458
sg41
g3
sg42
S'5.2'
p459
sg44
S'3.3'
p460
sg46
S'13.8'
p461
sg48
g3
sg49
S'1957-58'
p462
sg51
S'5.2'
p463
sg53
g3
sg54
S'.378'
p464
sg56
S'1032'
p465
sg58
g3
sba(isrc.gp1.models.Per36Minutes
Per36Minutes
p466
(dp467
g8
g3
sg9
g3
sg10
S'.375'
p468
sg12
S'2.7'
p469
sg14
g3
sg15
g3
sg16
S'16.5'
p470
sg18
S'PF'
p471
sg20
S'.687'
p472
sg24
S'NBA'
p473
sg26
g3
sg27
S'17.5'
p474
sg29
S'3.5'
p475
sg31
S'4.9'
p476
sg33
S'8.3'
p477
sg35
S'24'
p478
sg37
S'CIN'
p479
sg39
S'72'
p480
sg41
g3
sg42
S'6.6'
p481
sg44
S'3.4'
p482
sg46
S'17.5'
p483
sg48
g3
sg49
S'1958-59'
p484
sg51
S'6.6'
p485
sg53
g3
sg54
S'.375'
p486
sg56
S'1674'
p487
sg58
g3
sba(isrc.gp1.models.Per36Minutes
Per36Minutes
p488
(dp489
g8
g3
sg9
g3
sg10
S'.401'
p490
sg12
S'2.3'
p491
sg14
g3
sg15
g3
sg16
S'14.0'
p492
sg18
S'SF'
p493
sg20
S'.639'
p494
sg24
S'NBA'
p495
sg26
g3
sg27
S'14.3'
p496
sg29
S'4.1'
p497
sg31
S'4.0'
p498
sg33
S'9.1'
p499
sg35
S'25'
p500
sg37
S'TOT'
p501
sg39
S'77'
p502
sg41
g3
sg42
S'5.7'
p503
sg44
S'2.5'
p504
sg46
S'14.3'
p505
sg48
g3
sg49
S'1959-60'
p506
sg51
S'5.7'
p507
sg53
g3
sg54
S'.401'
p508
sg56
S'1833'
p509
sg58
g3
sba(isrc.gp1.models.Per36Minutes
Per36Minutes
p510
(dp511
g8
g3
sg9
g3
sg10
S'.409'
p512
sg12
S'2.7'
p513
sg14
g3
sg15
g3
sg16
S'16.8'
p514
sg18
g3
sg20
S'.689'
p515
sg24
S'NBA'
p516
sg26
g3
sg27
S'17.2'
p517
sg29
S'4.6'
p518
sg31
S'4.0'
p519
sg33
S'11.0'
p520
sg35
S'25'
p521
sg37
S'CIN'
p522
sg39
S'52'
p523
sg41
g3
sg42
S'7.0'
p524
sg44
S'2.7'
p525
sg46
S'17.2'
p526
sg48
g3
sg49
S'1959-60'
p527
sg51
S'7.0'
p528
sg53
g3
sg54
S'.409'
p529
sg56
S'1111'
p530
sg58
g3
sba(isrc.gp1.models.Per36Minutes
Per36Minutes
p531
(dp532
g8
g3
sg9
g3
sg10
S'.381'
p533
sg12
S'1.7'
p534
sg14
g3
sg15
g3
sg16
S'9.7'
p535
sg18
S'SF'
p536
sg20
S'.563'
p537
sg24
S'NBA'
p538
sg26
g3
sg27
S'9.8'
p539
sg29
S'3.4'
p540
sg31
S'4.0'
p541
sg33
S'6.0'
p542
sg35
S'25'
p543
sg37
S'STL'
p544
sg39
S'25'
p545
sg41
g3
sg42
S'3.7'
p546
sg44
S'2.2'
p547
sg46
S'9.8'
p548
sg48
g3
sg49
S'1959-60'
p549
sg51
S'3.7'
p550
sg53
g3
sg54
S'.381'
p551
sg56
S'722'
p552
sg58
g3
sba(isrc.gp1.models.Per36Minutes
Per36Minutes
p553
(dp554
g8
g3
sg9
g3
sg10
S'.490'
p555
sg12
S'2.7'
p556
sg14
g3
sg15
g3
sg16
S'15.6'
p557
sg18
S'SF'
p558
sg20
S'.516'
p559
sg24
S'NBA'
p560
sg26
g3
sg27
S'13.6'
p561
sg29
S'4.4'
p562
sg31
S'4.4'
p563
sg33
S'9.6'
p564
sg35
S'26'
p565
sg37
S'STL'
p566
sg39
S'29'
p567
sg41
g3
sg42
S'6.7'
p568
sg44
S'2.3'
p569
sg46
S'13.6'
p570
sg48
g3
sg49
S'1960-61'
p571
sg51
S'6.7'
p572
sg53
g3
sg54
S'.490'
p573
sg56
S'254'
p574
sg58
g3
sba(isrc.gp1.models.Per36Minutes
Per36Minutes
p575
(dp576
g8
g3
sg9
g3
sg10
S'.369'
p577
sg12
S'1.8'
p578
sg14
g3
sg15
g3
sg16
S'12.0'
p579
sg18
S'PF'
p580
sg20
S'.661'
p581
sg24
S'NBA'
p582
sg26
g3
sg27
S'13.2'
p583
sg29
S'5.2'
p584
sg31
S'3.5'
p585
sg33
S'9.1'
p586
sg35
S'27'
p587
sg37
S'CHP'
p588
sg39
S'45'
p589
sg41
g3
sg42
S'4.9'
p590
sg44
S'2.3'
p591
sg46
S'13.2'
p592
sg48
g3
sg49
S'1961-62'
p593
sg51
S'4.9'
p594
sg53
g3
sg54
S'.369'
p595
sg56
S'614'
p596
sg58
g3
sba(isrc.gp1.models.Per36Minutes
Per36Minutes
p597
(dp598
g8
g3
sg9
g3
sg10
S'.380'
p599
sg12
S'2.0'
p600
sg14
g3
sg15
g3
sg16
S'10.2'
p601
sg18
S'SF'
p602
sg20
S'.625'
p603
sg24
S'NBA'
p604
sg26
g3
sg27
S'12.4'
p605
sg29
S'5.3'
p606
sg31
S'1.3'
p607
sg33
S'7.6'
p608
sg35
S'28'
p609
sg37
S'CIN'
p610
sg39
S'48'
p611
sg41
g3
sg42
S'4.7'
p612
sg44
S'0.8'
p613
sg46
S'12.4'
p614
sg48
g3
sg49
S'1962-63'
p615
sg51
S'4.7'
p616
sg53
g3
sg54
S'.380'
p617
sg56
S'457'
p618
sg58
g3
sbasS'_fromYear'
p619
S'1957'
p620
sS'_url'
p621
S'http://www.basketball-reference.com/players/p/piontda01.html'
p622
sS'_perGame'
p623
(isrc.gp1.models.PerGame
PerGame
p624
(dp625
g8
g3
sg9
g3
sg10
S'.380'
p626
sS'_effectiveFieldGalPercentage'
p627
S'.380'
p628
sg12
S'0.5'
p629
sg14
g3
sg15
g3
sg16
S'2.7'
p630
sg18
S'SF'
p631
sg20
S'.625'
p632
sg24
S'NBA'
p633
sg26
g3
sg29
S'1.4'
p634
sS'_fieldGoalsttempted'
p635
S'3.3'
p636
sg31
S'0.3'
p637
sg33
S'2.0'
p638
sg35
S'28'
p639
sg37
S'CIN'
p640
sg39
S'48'
p641
sg41
g3
sg42
S'1.3'
p642
sg44
S'0.2'
p643
sg46
S'3.3'
p644
sg48
g3
sg49
S'1962-63'
p645
sg51
S'1.3'
p646
sg53
g3
sg54
S'.380'
p647
sg56
S'9.5'
p648
sg58
g3
sbsS'_weight'
p649
S'230'
p650
sS'_dob'
p651
S'27-8-1934'
p652
sS'_salary'
p653
(lp654
sg18
S'F-C'
p655
sb.