(isrc.gp1.models.Player
Player
p0
(dp1
S'_experience'
p2
S'NA'
p3
sS'_totals'
p4
(lp5
(isrc.gp1.models.Totals
Totals
p6
(dp7
S'_offensiveRebounds'
p8
g3
sS'_threePointsAttempted'
p9
g3
sS'_fieldGoalsPercentage'
p10
S'.311'
p11
sS'_assist'
p12
S'36'
p13
sS'_threePointsPercentage'
p14
g3
sS'_threePoints'
p15
g3
sS'_points'
p16
S'111'
p17
sS'_position'
p18
S'SF'
p19
sS'_freeThrowsPercentage'
p20
S'.613'
p21
sS'_effectiveFieldGoalPercentage'
p22
S'.311'
p23
sS'_league'
p24
S'NBA'
p25
sS'_steals'
p26
g3
sS'_fieldGoalsAttempted'
p27
S'148'
p28
sS'_personalFouls'
p29
S'65'
p30
sS'_freeThrowsAttempted'
p31
S'31'
p32
sS'_totalRebounds'
p33
S'93'
p34
sS'_age'
p35
S'22'
p36
sS'_team'
p37
S'SEA'
p38
sS'_games'
p39
S'44'
p40
sS'_blocks'
p41
g3
sS'_twoPoints'
p42
S'46'
p43
sS'_freeThrows'
p44
S'19'
p45
sS'_twoPointsAttempted'
p46
S'148'
p47
sS'_defensiveRebounds'
p48
g3
sS'_season'
p49
S'1967-68'
p50
sS'_fieldGoals'
p51
S'46'
p52
sS'_turnOvers'
p53
g3
sS'_twoPointsPercentage'
p54
S'.311'
p55
sS'_minutesPlayed'
p56
S'478'
p57
sS'_gamesStarted'
p58
g3
sba(isrc.gp1.models.Totals
Totals
p59
(dp60
g8
g3
sg9
g3
sg10
S'.258'
p61
sg12
S'7'
p62
sg14
g3
sg15
g3
sg16
S'36'
p63
sg18
S'SF'
p64
sg20
S'.400'
p65
sg22
S'.258'
p66
sg24
S'NBA'
p67
sg26
g3
sg27
S'66'
p68
sg29
S'9'
p69
sg31
S'5'
p70
sg33
S'30'
p71
sg35
S'23'
p72
sg37
S'SEA'
p73
sg39
S'23'
p74
sg41
g3
sg42
S'17'
p75
sg44
S'2'
p76
sg46
S'66'
p77
sg48
g3
sg49
S'1968-69'
p78
sg51
S'17'
p79
sg53
g3
sg54
S'.258'
p80
sg56
S'160'
p81
sg58
g3
sbasS'_college'
p82
S'Seattle University'
p83
sS'_toYear'
p84
S'1969'
p85
sS'_height'
p86
S'6-5'
p87
sS'_active'
p88
I00
sS'_shootingHand'
p89
VRight
p90
sS'_name'
p91
S'Plummer Lott'
p92
sS'_per100Possessions'
p93
(lp94
sS'_advanced'
p95
(lp96
(isrc.gp1.models.Advanced
Advanced
p97
(dp98
S'_offensiveReboundPercentage'
p99
g3
sS'_turnOverPercentage'
p100
g3
sS'_winSharesPer48Minutes'
p101
S'-0.072'
p102
sS'_stealPercentage'
p103
g3
sS'_usagePercentage'
p104
g3
sS'_totalReboundsPercentage'
p105
g3
sS'_defensiveBoxPlusMinus'
p106
g3
sg18
S'SF'
p107
sS'_valueOverReplacementPlayer'
p108
g3
sS'_trueShootingPercentage'
p109
S'.343'
p110
sS'_defensiveReboundPercentage'
p111
g3
sS'_freeThrowsAttempRate'
p112
S'.209'
p113
sS'_threePointsAttempRate'
p114
g3
sg24
S'NBA'
p115
sS'_offensiveBoxPlusMinues'
p116
g3
sS'_assistPercentage'
p117
S'8.8'
p118
sS'_defensiveWinShares'
p119
S'0.2'
p120
sg35
S'22'
p121
sg37
S'SEA'
p122
sg39
S'44'
p123
sS'_blockPercentage'
p124
g3
sS'_playerEfficiencyRating'
p125
S'4.7'
p126
sS'_offensiveWinShares'
p127
S'-0.9'
p128
sg56
S'478'
p129
sS'_boxPlusMinus'
p130
g3
sg49
S'1967-68'
p131
sS'_winShares'
p132
S'-0.7'
p133
sba(isrc.gp1.models.Advanced
Advanced
p134
(dp135
g99
g3
sg100
g3
sg101
S'-0.188'
p136
sg103
g3
sg104
g3
sg105
g3
sg106
g3
sg18
S'SF'
p137
sg108
g3
sg109
S'.264'
p138
sg111
g3
sg112
S'.076'
p139
sg114
g3
sg24
S'NBA'
p140
sg116
g3
sg117
S'5.6'
p141
sg119
S'0.1'
p142
sg35
S'23'
p143
sg37
S'SEA'
p144
sg39
S'23'
p145
sg124
g3
sg125
S'2.3'
p146
sg127
S'-0.7'
p147
sg56
S'160'
p148
sg130
g3
sg49
S'1968-69'
p149
sg132
S'-0.6'
p150
sbasS'_per36Minutes'
p151
(lp152
(isrc.gp1.models.Per36Minutes
Per36Minutes
p153
(dp154
g8
g3
sg9
g3
sg10
S'.311'
p155
sg12
S'2.7'
p156
sg14
g3
sg15
g3
sg16
S'8.4'
p157
sg18
S'SF'
p158
sg20
S'.613'
p159
sg24
S'NBA'
p160
sg26
g3
sg27
S'11.1'
p161
sg29
S'4.9'
p162
sg31
S'2.3'
p163
sg33
S'7.0'
p164
sg35
S'22'
p165
sg37
S'SEA'
p166
sg39
S'44'
p167
sg41
g3
sg42
S'3.5'
p168
sg44
S'1.4'
p169
sg46
S'11.1'
p170
sg48
g3
sg49
S'1967-68'
p171
sg51
S'3.5'
p172
sg53
g3
sg54
S'.311'
p173
sg56
S'478'
p174
sg58
g3
sba(isrc.gp1.models.Per36Minutes
Per36Minutes
p175
(dp176
g8
g3
sg9
g3
sg10
S'.258'
p177
sg12
S'1.6'
p178
sg14
g3
sg15
g3
sg16
S'8.1'
p179
sg18
S'SF'
p180
sg20
S'.400'
p181
sg24
S'NBA'
p182
sg26
g3
sg27
S'14.9'
p183
sg29
S'2.0'
p184
sg31
S'1.1'
p185
sg33
S'6.8'
p186
sg35
S'23'
p187
sg37
S'SEA'
p188
sg39
S'23'
p189
sg41
g3
sg42
S'3.8'
p190
sg44
S'0.5'
p191
sg46
S'14.9'
p192
sg48
g3
sg49
S'1968-69'
p193
sg51
S'3.8'
p194
sg53
g3
sg54
S'.258'
p195
sg56
S'160'
p196
sg58
g3
sbasS'_fromYear'
p197
S'1968'
p198
sS'_url'
p199
S'http://www.basketball-reference.com/players/l/lottpl01.html'
p200
sS'_perGame'
p201
(isrc.gp1.models.PerGame
PerGame
p202
(dp203
g8
g3
sg9
g3
sg10
S'.258'
p204
sS'_effectiveFieldGalPercentage'
p205
S'.258'
p206
sg12
S'0.3'
p207
sg14
g3
sg15
g3
sg16
S'1.6'
p208
sg18
S'SF'
p209
sg20
S'.400'
p210
sg24
S'NBA'
p211
sg26
g3
sg29
S'0.4'
p212
sS'_fieldGoalsttempted'
p213
S'2.9'
p214
sg31
S'0.2'
p215
sg33
S'1.3'
p216
sg35
S'23'
p217
sg37
S'SEA'
p218
sg39
S'23'
p219
sg41
g3
sg42
S'0.7'
p220
sg44
S'0.1'
p221
sg46
S'2.9'
p222
sg48
g3
sg49
S'1968-69'
p223
sg51
S'0.7'
p224
sg53
g3
sg54
S'.258'
p225
sg56
S'7.0'
p226
sg58
g3
sbsS'_weight'
p227
S'210'
p228
sS'_dob'
p229
S'11-12-1945'
p230
sS'_salary'
p231
(lp232
sg18
S'F-G'
p233
sb.