(isrc.gp1.models.Player
Player
p0
(dp1
S'_experience'
p2
S'NA'
p3
sS'_totals'
p4
(lp5
(isrc.gp1.models.Totals
Totals
p6
(dp7
S'_offensiveRebounds'
p8
g3
sS'_threePointsAttempted'
p9
g3
sS'_fieldGoalsPercentage'
p10
S'.424'
p11
sS'_assist'
p12
S'24'
p13
sS'_threePointsPercentage'
p14
g3
sS'_threePoints'
p15
g3
sS'_points'
p16
S'401'
p17
sS'_position'
p18
S'SF'
p19
sS'_freeThrowsPercentage'
p20
S'.766'
p21
sS'_effectiveFieldGoalPercentage'
p22
S'.424'
p23
sS'_league'
p24
S'NBA'
p25
sS'_steals'
p26
g3
sS'_fieldGoalsAttempted'
p27
S'403'
p28
sS'_personalFouls'
p29
S'88'
p30
sS'_freeThrowsAttempted'
p31
S'77'
p32
sS'_totalRebounds'
p33
S'183'
p34
sS'_age'
p35
S'23'
p36
sS'_team'
p37
S'CHI'
p38
sS'_games'
p39
S'67'
p40
sS'_blocks'
p41
g3
sS'_twoPoints'
p42
S'171'
p43
sS'_freeThrows'
p44
S'59'
p45
sS'_twoPointsAttempted'
p46
S'403'
p47
sS'_defensiveRebounds'
p48
g3
sS'_season'
p49
S'1971-72'
p50
sS'_fieldGoals'
p51
S'171'
p52
sS'_turnOvers'
p53
g3
sS'_twoPointsPercentage'
p54
S'.424'
p55
sS'_minutesPlayed'
p56
S'730'
p57
sS'_gamesStarted'
p58
g3
sba(isrc.gp1.models.Totals
Totals
p59
(dp60
g8
g3
sg9
g3
sg10
S'.452'
p61
sg12
S'16'
p62
sg14
g3
sg15
g3
sg16
S'218'
p63
sg18
S'PF'
p64
sg20
S'.759'
p65
sg22
S'.452'
p66
sg24
S'NBA'
p67
sg26
g3
sg27
S'217'
p68
sg29
S'52'
p69
sg31
S'29'
p70
sg33
S'118'
p71
sg35
S'24'
p72
sg37
S'CHI'
p73
sg39
S'43'
p74
sg41
g3
sg42
S'98'
p75
sg44
S'22'
p76
sg46
S'217'
p77
sg48
g3
sg49
S'1972-73'
p78
sg51
S'98'
p79
sg53
g3
sg54
S'.452'
p80
sg56
S'407'
p81
sg58
g3
sba(isrc.gp1.models.Totals
Totals
p82
(dp83
g8
S'86'
p84
sg9
g3
sg10
S'.450'
p85
sg12
S'32'
p86
sg14
g3
sg15
g3
sg16
S'684'
p87
sg18
S'SF'
p88
sg20
S'.800'
p89
sg22
S'.450'
p90
sg24
S'NBA'
p91
sg26
S'23'
p92
sg27
S'658'
p93
sg29
S'116'
p94
sg31
S'115'
p95
sg33
S'285'
p96
sg35
S'25'
p97
sg37
S'CHI'
p98
sg39
S'73'
p99
sg41
S'39'
p100
sg42
S'296'
p101
sg44
S'92'
p102
sg46
S'658'
p103
sg48
S'199'
p104
sg49
S'1973-74'
p105
sg51
S'296'
p106
sg53
g3
sg54
S'.450'
p107
sg56
S'1229'
p108
sg58
g3
sba(isrc.gp1.models.Totals
Totals
p109
(dp110
g8
S'79'
p111
sg9
g3
sg10
S'.488'
p112
sg12
S'19'
p113
sg14
g3
sg15
g3
sg16
S'468'
p114
sg18
S'SF'
p115
sg20
S'.835'
p116
sg22
S'.488'
p117
sg24
S'NBA'
p118
sg26
S'23'
p119
sg27
S'412'
p120
sg29
S'93'
p121
sg31
S'79'
p122
sg33
S'254'
p123
sg35
S'26'
p124
sg37
S'TOT'
p125
sg39
S'58'
p126
sg41
S'26'
p127
sg42
S'201'
p128
sg44
S'66'
p129
sg46
S'412'
p130
sg48
S'175'
p131
sg49
S'1974-75'
p132
sg51
S'201'
p133
sg53
g3
sg54
S'.488'
p134
sg56
S'1163'
p135
sg58
g3
sba(isrc.gp1.models.Totals
Totals
p136
(dp137
g8
S'13'
p138
sg9
g3
sg10
S'.361'
p139
sg12
S'2'
p140
sg14
g3
sg15
g3
sg16
S'33'
p141
sg18
S'SF'
p142
sg20
S'.778'
p143
sg22
S'.361'
p144
sg24
S'NBA'
p145
sg26
S'3'
p146
sg27
S'36'
p147
sg29
S'17'
p148
sg31
S'9'
p149
sg33
S'38'
p150
sg35
S'26'
p151
sg37
S'NYK'
p152
sg39
S'17'
p153
sg41
S'1'
p154
sg42
S'13'
p155
sg44
S'7'
p156
sg46
S'36'
p157
sg48
S'25'
p158
sg49
S'1974-75'
p159
sg51
S'13'
p160
sg53
g3
sg54
S'.361'
p161
sg56
S'133'
p162
sg58
g3
sba(isrc.gp1.models.Totals
Totals
p163
(dp164
g8
S'66'
p165
sg9
g3
sg10
S'.500'
p166
sg12
S'17'
p167
sg14
g3
sg15
g3
sg16
S'435'
p168
sg18
S'SF'
p169
sg20
S'.843'
p170
sg22
S'.500'
p171
sg24
S'NBA'
p172
sg26
S'20'
p173
sg27
S'376'
p174
sg29
S'76'
p175
sg31
S'70'
p176
sg33
S'216'
p177
sg35
S'26'
p178
sg37
S'DET'
p179
sg39
S'41'
p180
sg41
S'25'
p181
sg42
S'188'
p182
sg44
S'59'
p183
sg46
S'376'
p184
sg48
S'150'
p185
sg49
S'1974-75'
p186
sg51
S'188'
p187
sg53
g3
sg54
S'.500'
p188
sg56
S'1030'
p189
sg58
g3
sba(isrc.gp1.models.Totals
Totals
p190
(dp191
g8
S'81'
p192
sg9
g3
sg10
S'.469'
p193
sg12
S'25'
p194
sg14
g3
sg15
g3
sg16
S'669'
p195
sg18
S'SF'
p196
sg20
S'.753'
p197
sg22
S'.469'
p198
sg24
S'NBA'
p199
sg26
S'31'
p200
sg27
S'635'
p201
sg29
S'133'
p202
sg31
S'97'
p203
sg33
S'295'
p204
sg35
S'27'
p205
sg37
S'DET'
p206
sg39
S'75'
p207
sg41
S'36'
p208
sg42
S'298'
p209
sg44
S'73'
p210
sg46
S'635'
p211
sg48
S'214'
p212
sg49
S'1975-76'
p213
sg51
S'298'
p214
sg53
g3
sg54
S'.469'
p215
sg56
S'1482'
p216
sg58
g3
sba(isrc.gp1.models.Totals
Totals
p217
(dp218
g8
S'155'
p219
sg9
g3
sg10
S'.483'
p220
sg12
S'53'
p221
sg14
g3
sg15
g3
sg16
S'1033'
p222
sg18
S'PF'
p223
sg20
S'.858'
p224
sg22
S'.483'
p225
sg24
S'NBA'
p226
sg26
S'50'
p227
sg27
S'962'
p228
sg29
S'202'
p229
sg31
S'120'
p230
sg33
S'458'
p231
sg35
S'28'
p232
sg37
S'DET'
p233
sg39
S'78'
p234
sg41
S'73'
p235
sg42
S'465'
p236
sg44
S'103'
p237
sg46
S'962'
p238
sg48
S'303'
p239
sg49
S'1976-77'
p240
sg51
S'465'
p241
sg53
g3
sg54
S'.483'
p242
sg56
S'2200'
p243
sg58
g3
sba(isrc.gp1.models.Totals
Totals
p244
(dp245
g8
S'100'
p246
sg9
g3
sg10
S'.487'
p247
sg12
S'42'
p248
sg14
g3
sg15
g3
sg16
S'742'
p249
sg18
S'SF'
p250
sg20
S'.800'
p251
sg22
S'.487'
p252
sg24
S'NBA'
p253
sg26
S'29'
p254
sg27
S'635'
p255
sg29
S'134'
p256
sg31
S'155'
p257
sg33
S'279'
p258
sg35
S'29'
p259
sg37
S'TOT'
p260
sg39
S'63'
p261
sg41
S'38'
p262
sg42
S'309'
p263
sg44
S'124'
p264
sg46
S'635'
p265
sg48
S'179'
p266
sg49
S'1977-78'
p267
sg51
S'309'
p268
sg53
S'55'
p269
sg54
S'.487'
p270
sg56
S'1323'
p271
sg58
g3
sba(isrc.gp1.models.Totals
Totals
p272
(dp273
g8
S'5'
p274
sg9
g3
sg10
S'.372'
p275
sg12
g140
sg14
g3
sg15
g3
sg16
S'36'
p276
sg18
S'SF'
p277
sg20
S'.571'
p278
sg22
S'.372'
p279
sg24
S'NBA'
p280
sg26
g146
sg27
S'43'
p281
sg29
S'15'
p282
sg31
g156
sg33
S'17'
p283
sg35
S'29'
p284
sg37
S'DET'
p285
sg39
S'8'
p286
sg41
g274
sg42
S'16'
p287
sg44
S'4'
p288
sg46
S'43'
p289
sg48
S'12'
p290
sg49
S'1977-78'
p291
sg51
S'16'
p292
sg53
g274
sg54
S'.372'
p293
sg56
S'107'
p294
sg58
g3
sba(isrc.gp1.models.Totals
Totals
p295
(dp296
g8
S'95'
p297
sg9
g3
sg10
S'.495'
p298
sg12
S'40'
p299
sg14
g3
sg15
g3
sg16
S'706'
p300
sg18
S'SF'
p301
sg20
S'.811'
p302
sg22
S'.495'
p303
sg24
S'NBA'
p304
sg26
S'26'
p305
sg27
S'592'
p306
sg29
S'119'
p307
sg31
S'148'
p308
sg33
S'262'
p309
sg35
S'29'
p310
sg37
S'NJN'
p311
sg39
S'55'
p312
sg41
S'33'
p313
sg42
S'293'
p314
sg44
S'120'
p315
sg46
S'592'
p316
sg48
S'167'
p317
sg49
S'1977-78'
p318
sg51
S'293'
p319
sg53
S'50'
p320
sg54
S'.495'
p321
sg56
S'1216'
p322
sg58
g3
sbasS'_college'
p323
S'Villanova University'
p324
sS'_toYear'
p325
S'1978'
p326
sS'_height'
p327
S'6-8'
p328
sS'_active'
p329
I00
sS'_shootingHand'
p330
VRight
p331
sS'_name'
p332
S'Howard Porter'
p333
sS'_per100Possessions'
p334
(lp335
(isrc.gp1.models.Per100Possession
Per100Possession
p336
(dp337
g8
S'3.2'
p338
sg9
g3
sg10
S'.450'
p339
sS'_offensiveRating'
p340
g3
sg12
S'1.2'
p341
sg14
g3
sg15
g3
sg16
S'25.4'
p342
sg18
S'SF'
p343
sS'_defensiveRating'
p344
S'94'
p345
sg20
S'.800'
p346
sg24
S'NBA'
p347
sg26
S'0.9'
p348
sg27
S'24.5'
p349
sg29
S'4.3'
p350
sg31
S'4.3'
p351
sg33
S'10.6'
p352
sg35
S'25'
p353
sg37
S'CHI'
p354
sg39
S'73'
p355
sg41
S'1.5'
p356
sg42
S'11.0'
p357
sg44
S'3.4'
p358
sg46
S'24.5'
p359
sg48
S'7.4'
p360
sg49
S'1973-74'
p361
sg51
S'11.0'
p362
sg53
g3
sg54
S'.450'
p363
sg56
S'1229'
p364
sg58
g3
sba(isrc.gp1.models.Per100Possession
Per100Possession
p365
(dp366
g8
S'3.2'
p367
sg9
g3
sg10
S'.488'
p368
sg340
g3
sg12
S'0.8'
p369
sg14
g3
sg15
g3
sg16
S'19.2'
p370
sg18
S'SF'
p371
sg344
S'100'
p372
sg20
S'.835'
p373
sg24
S'NBA'
p374
sg26
S'0.9'
p375
sg27
S'16.9'
p376
sg29
S'3.8'
p377
sg31
S'3.2'
p378
sg33
S'10.4'
p379
sg35
S'26'
p380
sg37
S'TOT'
p381
sg39
S'58'
p382
sg41
S'1.1'
p383
sg42
S'8.2'
p384
sg44
S'2.7'
p385
sg46
S'16.9'
p386
sg48
S'7.2'
p387
sg49
S'1974-75'
p388
sg51
S'8.2'
p389
sg53
g3
sg54
S'.488'
p390
sg56
S'1163'
p391
sg58
g3
sba(isrc.gp1.models.Per100Possession
Per100Possession
p392
(dp393
g8
S'4.5'
p394
sg9
g3
sg10
S'.361'
p395
sg340
g3
sg12
S'0.7'
p396
sg14
g3
sg15
g3
sg16
S'11.5'
p397
sg18
S'SF'
p398
sg344
S'98'
p399
sg20
S'.778'
p400
sg24
S'NBA'
p401
sg26
S'1.0'
p402
sg27
S'12.6'
p403
sg29
S'5.9'
p404
sg31
S'3.1'
p405
sg33
S'13.3'
p406
sg35
S'26'
p407
sg37
S'NYK'
p408
sg39
S'17'
p409
sg41
S'0.3'
p410
sg42
S'4.5'
p411
sg44
S'2.4'
p412
sg46
S'12.6'
p413
sg48
S'8.7'
p414
sg49
S'1974-75'
p415
sg51
S'4.5'
p416
sg53
g3
sg54
S'.361'
p417
sg56
S'133'
p418
sg58
g3
sba(isrc.gp1.models.Per100Possession
Per100Possession
p419
(dp420
g8
S'3.1'
p421
sg9
g3
sg10
S'.500'
p422
sg340
g3
sg12
S'0.8'
p423
sg14
g3
sg15
g3
sg16
S'20.2'
p424
sg18
S'SF'
p425
sg344
S'101'
p426
sg20
S'.843'
p427
sg24
S'NBA'
p428
sg26
S'0.9'
p429
sg27
S'17.4'
p430
sg29
S'3.5'
p431
sg31
S'3.2'
p432
sg33
S'10.0'
p433
sg35
S'26'
p434
sg37
S'DET'
p435
sg39
S'41'
p436
sg41
S'1.2'
p437
sg42
S'8.7'
p438
sg44
S'2.7'
p439
sg46
S'17.4'
p440
sg48
S'7.0'
p441
sg49
S'1974-75'
p442
sg51
S'8.7'
p443
sg53
g3
sg54
S'.500'
p444
sg56
S'1030'
p445
sg58
g3
sba(isrc.gp1.models.Per100Possession
Per100Possession
p446
(dp447
g8
S'2.5'
p448
sg9
g3
sg10
S'.469'
p449
sg340
g3
sg12
S'0.8'
p450
sg14
g3
sg15
g3
sg16
S'20.6'
p451
sg18
S'SF'
p452
sg344
S'101'
p453
sg20
S'.753'
p454
sg24
S'NBA'
p455
sg26
S'1.0'
p456
sg27
S'19.5'
p457
sg29
S'4.1'
p458
sg31
S'3.0'
p459
sg33
S'9.1'
p460
sg35
S'27'
p461
sg37
S'DET'
p462
sg39
S'75'
p463
sg41
S'1.1'
p464
sg42
S'9.2'
p465
sg44
S'2.2'
p466
sg46
S'19.5'
p467
sg48
S'6.6'
p468
sg49
S'1975-76'
p469
sg51
S'9.2'
p470
sg53
g3
sg54
S'.469'
p471
sg56
S'1482'
p472
sg58
g3
sba(isrc.gp1.models.Per100Possession
Per100Possession
p473
(dp474
g8
S'3.1'
p475
sg9
g3
sg10
S'.483'
p476
sg340
g3
sg12
S'1.1'
p477
sg14
g3
sg15
g3
sg16
S'20.7'
p478
sg18
S'PF'
p479
sg344
S'103'
p480
sg20
S'.858'
p481
sg24
S'NBA'
p482
sg26
S'1.0'
p483
sg27
S'19.3'
p484
sg29
S'4.1'
p485
sg31
S'2.4'
p486
sg33
S'9.2'
p487
sg35
S'28'
p488
sg37
S'DET'
p489
sg39
S'78'
p490
sg41
S'1.5'
p491
sg42
S'9.3'
p492
sg44
S'2.1'
p493
sg46
S'19.3'
p494
sg48
S'6.1'
p495
sg49
S'1976-77'
p496
sg51
S'9.3'
p497
sg53
g3
sg54
S'.483'
p498
sg56
S'2200'
p499
sg58
g3
sba(isrc.gp1.models.Per100Possession
Per100Possession
p500
(dp501
g8
S'3.3'
p502
sg9
g3
sg10
S'.487'
p503
sg340
S'109'
p504
sg12
S'1.4'
p505
sg14
g3
sg15
g3
sg16
S'24.3'
p506
sg18
S'SF'
p507
sg344
S'102'
p508
sg20
S'.800'
p509
sg24
S'NBA'
p510
sg26
S'1.0'
p511
sg27
S'20.8'
p512
sg29
S'4.4'
p513
sg31
S'5.1'
p514
sg33
S'9.1'
p515
sg35
S'29'
p516
sg37
S'TOT'
p517
sg39
S'63'
p518
sg41
S'1.2'
p519
sg42
S'10.1'
p520
sg44
S'4.1'
p521
sg46
S'20.8'
p522
sg48
S'5.9'
p523
sg49
S'1977-78'
p524
sg51
S'10.1'
p525
sg53
S'1.8'
p526
sg54
S'.487'
p527
sg56
S'1323'
p528
sg58
g3
sba(isrc.gp1.models.Per100Possession
Per100Possession
p529
(dp530
g8
S'2.1'
p531
sg9
g3
sg10
S'.372'
p532
sg340
S'84'
p533
sg12
S'0.8'
p534
sg14
g3
sg15
g3
sg16
S'15.0'
p535
sg18
S'SF'
p536
sg344
S'102'
p537
sg20
S'.571'
p538
sg24
S'NBA'
p539
sg26
S'1.2'
p540
sg27
S'17.9'
p541
sg29
S'6.2'
p542
sg31
S'2.9'
p543
sg33
S'7.1'
p544
sg35
S'29'
p545
sg37
S'DET'
p546
sg39
g286
sg41
S'2.1'
p547
sg42
S'6.7'
p548
sg44
S'1.7'
p549
sg46
S'17.9'
p550
sg48
S'5.0'
p551
sg49
S'1977-78'
p552
sg51
S'6.7'
p553
sg53
S'2.1'
p554
sg54
S'.372'
p555
sg56
S'107'
p556
sg58
g3
sba(isrc.gp1.models.Per100Possession
Per100Possession
p557
(dp558
g8
S'3.4'
p559
sg9
g3
sg10
S'.495'
p560
sg340
S'111'
p561
sg12
S'1.4'
p562
sg14
g3
sg15
g3
sg16
S'25.1'
p563
sg18
S'SF'
p564
sg344
S'102'
p565
sg20
S'.811'
p566
sg24
S'NBA'
p567
sg26
S'0.9'
p568
sg27
S'21.1'
p569
sg29
S'4.2'
p570
sg31
S'5.3'
p571
sg33
S'9.3'
p572
sg35
S'29'
p573
sg37
S'NJN'
p574
sg39
S'55'
p575
sg41
S'1.2'
p576
sg42
S'10.4'
p577
sg44
S'4.3'
p578
sg46
S'21.1'
p579
sg48
S'5.9'
p580
sg49
S'1977-78'
p581
sg51
S'10.4'
p582
sg53
S'1.8'
p583
sg54
S'.495'
p584
sg56
S'1216'
p585
sg58
g3
sbasS'_advanced'
p586
(lp587
(isrc.gp1.models.Advanced
Advanced
p588
(dp589
S'_offensiveReboundPercentage'
p590
g3
sS'_turnOverPercentage'
p591
g3
sS'_winSharesPer48Minutes'
p592
S'.076'
p593
sS'_stealPercentage'
p594
g3
sS'_usagePercentage'
p595
g3
sS'_totalReboundsPercentage'
p596
S'11.9'
p597
sS'_defensiveBoxPlusMinus'
p598
g3
sg18
S'SF'
p599
sS'_valueOverReplacementPlayer'
p600
g3
sS'_trueShootingPercentage'
p601
S'.459'
p602
sS'_defensiveReboundPercentage'
p603
g3
sS'_freeThrowsAttempRate'
p604
S'.191'
p605
sS'_threePointsAttempRate'
p606
g3
sg24
S'NBA'
p607
sS'_offensiveBoxPlusMinues'
p608
g3
sS'_assistPercentage'
p609
S'5.0'
p610
sS'_defensiveWinShares'
p611
S'1.4'
p612
sg35
S'23'
p613
sg37
S'CHI'
p614
sg39
S'67'
p615
sS'_blockPercentage'
p616
g3
sS'_playerEfficiencyRating'
p617
S'13.8'
p618
sS'_offensiveWinShares'
p619
S'-0.2'
p620
sg56
S'730'
p621
sS'_boxPlusMinus'
p622
g3
sg49
S'1971-72'
p623
sS'_winShares'
p624
S'1.1'
p625
sba(isrc.gp1.models.Advanced
Advanced
p626
(dp627
g590
g3
sg591
g3
sg592
S'.112'
p628
sg594
g3
sg595
g3
sg596
S'14.5'
p629
sg598
g3
sg18
S'PF'
p630
sg600
g3
sg601
S'.474'
p631
sg603
g3
sg604
S'.134'
p632
sg606
g3
sg24
S'NBA'
p633
sg608
g3
sg609
S'6.2'
p634
sg611
S'0.8'
p635
sg35
S'24'
p636
sg37
S'CHI'
p637
sg39
S'43'
p638
sg616
g3
sg617
S'15.7'
p639
sg619
S'0.2'
p640
sg56
S'407'
p641
sg622
g3
sg49
S'1972-73'
p642
sg624
S'1.0'
p643
sba(isrc.gp1.models.Advanced
Advanced
p644
(dp645
g590
S'7.1'
p646
sg591
g3
sg592
S'.104'
p647
sg594
S'0.9'
p648
sg595
g3
sg596
S'12.0'
p649
sg598
S'-2.0'
p650
sg18
S'SF'
p651
sg600
S'-0.9'
p652
sg601
S'.483'
p653
sg603
S'17.1'
p654
sg604
S'.175'
p655
sg606
g3
sg24
S'NBA'
p656
sg608
S'-2.8'
p657
sg609
S'4.4'
p658
sg611
S'1.9'
p659
sg35
S'25'
p660
sg37
S'CHI'
p661
sg39
S'73'
p662
sg616
S'1.7'
p663
sg617
S'15.4'
p664
sg619
S'0.8'
p665
sg56
S'1229'
p666
sg622
S'-4.8'
p667
sg49
S'1973-74'
p668
sg624
S'2.7'
p669
sba(isrc.gp1.models.Advanced
Advanced
p670
(dp671
g590
S'7.4'
p672
sg591
g3
sg592
S'.101'
p673
sg594
S'0.9'
p674
sg595
g3
sg596
S'11.9'
p675
sg598
S'-2.2'
p676
sg18
S'SF'
p677
sg600
S'-0.9'
p678
sg601
S'.524'
p679
sg603
S'16.3'
p680
sg604
S'.192'
p681
sg606
g3
sg24
S'NBA'
p682
sg608
S'-2.6'
p683
sg609
S'2.5'
p684
sg611
S'0.8'
p685
sg35
S'26'
p686
sg37
S'TOT'
p687
sg39
S'58'
p688
sg616
S'1.2'
p689
sg617
S'13.4'
p690
sg619
S'1.6'
p691
sg56
S'1163'
p692
sg622
S'-4.9'
p693
sg49
S'1974-75'
p694
sg624
S'2.4'
p695
sba(isrc.gp1.models.Advanced
Advanced
p696
(dp697
g590
S'10.1'
p698
sg591
g3
sg592
S'.033'
p699
sg594
S'1.0'
p700
sg595
g3
sg596
S'14.9'
p701
sg598
S'-2.2'
p702
sg18
S'SF'
p703
sg600
S'-0.2'
p704
sg601
S'.413'
p705
sg603
S'19.9'
p706
sg604
S'.250'
p707
sg606
g3
sg24
S'NBA'
p708
sg608
S'-5.9'
p709
sg609
S'2.0'
p710
sg611
S'0.1'
p711
sg35
S'26'
p712
sg37
S'NYK'
p713
sg39
S'17'
p714
sg616
S'0.4'
p715
sg617
S'8.4'
p716
sg619
S'0.0'
p717
sg56
S'133'
p718
sg622
S'-8.0'
p719
sg49
S'1974-75'
p720
sg624
S'0.1'
p721
sba(isrc.gp1.models.Advanced
Advanced
p722
(dp723
g590
S'7.1'
p724
sg591
g3
sg592
S'.109'
p725
sg594
S'0.9'
p726
sg595
g3
sg596
S'11.5'
p727
sg598
S'-2.3'
p728
sg18
S'SF'
p729
sg600
S'-0.6'
p730
sg601
S'.535'
p731
sg603
S'15.9'
p732
sg604
S'.186'
p733
sg606
g3
sg24
S'NBA'
p734
sg608
S'-2.2'
p735
sg609
S'2.5'
p736
sg611
S'0.7'
p737
sg35
S'26'
p738
sg37
S'DET'
p739
sg39
S'41'
p740
sg616
S'1.3'
p741
sg617
S'14.0'
p742
sg619
S'1.7'
p743
sg56
S'1030'
p744
sg622
S'-4.5'
p745
sg49
S'1974-75'
p746
sg624
S'2.3'
p747
sba(isrc.gp1.models.Advanced
Advanced
p748
(dp749
g590
S'5.6'
p750
sg591
g3
sg592
S'.076'
p751
sg594
S'1.0'
p752
sg595
g3
sg596
S'10.3'
p753
sg598
S'-2.3'
p754
sg18
S'SF'
p755
sg600
S'-1.2'
p756
sg601
S'.494'
p757
sg603
S'15.2'
p758
sg604
S'.153'
p759
sg606
g3
sg24
S'NBA'
p760
sg608
S'-3.0'
p761
sg609
S'2.4'
p762
sg611
S'0.9'
p763
sg35
S'27'
p764
sg37
S'DET'
p765
sg39
S'75'
p766
sg616
S'1.3'
p767
sg617
S'13.0'
p768
sg619
S'1.4'
p769
sg56
S'1482'
p770
sg622
S'-5.3'
p771
sg49
S'1975-76'
p772
sg624
S'2.4'
p773
sba(isrc.gp1.models.Advanced
Advanced
p774
(dp775
g590
S'7.3'
p776
sg591
g3
sg592
S'.089'
p777
sg594
S'1.0'
p778
sg595
g3
sg596
S'10.8'
p779
sg598
S'-1.3'
p780
sg18
S'PF'
p781
sg600
S'-0.6'
p782
sg601
S'.509'
p783
sg603
S'14.3'
p784
sg604
S'.125'
p785
sg606
g3
sg24
S'NBA'
p786
sg608
S'-1.9'
p787
sg609
S'3.2'
p788
sg611
S'1.4'
p789
sg35
S'28'
p790
sg37
S'DET'
p791
sg39
S'78'
p792
sg616
S'1.7'
p793
sg617
S'13.6'
p794
sg619
S'2.7'
p795
sg56
S'2200'
p796
sg622
S'-3.2'
p797
sg49
S'1976-77'
p798
sg624
S'4.1'
p799
sba(isrc.gp1.models.Advanced
Advanced
p800
(dp801
g590
S'7.0'
p802
sg591
S'7.3'
p803
sg592
S'.142'
p804
sg594
S'1.0'
p805
sg595
S'21.2'
p806
sg596
S'10.3'
p807
sg598
S'-1.9'
p808
sg18
S'SF'
p809
sg600
S'0.1'
p810
sg601
S'.528'
p811
sg603
S'13.8'
p812
sg604
S'.244'
p813
sg606
g3
sg24
S'NBA'
p814
sg608
S'0.3'
p815
sg609
S'4.9'
p816
sg611
S'1.1'
p817
sg35
S'29'
p818
sg37
S'TOT'
p819
sg39
S'63'
p820
sg616
S'1.5'
p821
sg617
S'17.4'
p822
sg619
S'2.8'
p823
sg56
S'1323'
p824
sg622
S'-1.5'
p825
sg49
S'1977-78'
p826
sg624
S'3.9'
p827
sba(isrc.gp1.models.Advanced
Advanced
p828
(dp829
g590
S'5.0'
p830
sg591
S'9.8'
p831
sg592
S'-0.004'
p832
sg594
S'1.2'
p833
sg595
S'18.3'
p834
sg596
S'8.3'
p835
sg598
S'-1.8'
p836
sg18
S'SF'
p837
sg600
S'-0.1'
p838
sg601
S'.391'
p839
sg603
S'11.6'
p840
sg604
S'.163'
p841
sg606
g3
sg24
S'NBA'
p842
sg608
S'-5.5'
p843
sg609
S'2.5'
p844
sg611
S'0.1'
p845
sg35
S'29'
p846
sg37
S'DET'
p847
sg39
g286
sg616
S'2.4'
p848
sg617
S'7.0'
p849
sg619
S'-0.1'
p850
sg56
S'107'
p851
sg622
S'-7.4'
p852
sg49
S'1977-78'
p853
sg624
S'0.0'
p854
sba(isrc.gp1.models.Advanced
Advanced
p855
(dp856
g590
S'7.2'
p857
sg591
S'7.1'
p858
sg592
S'.155'
p859
sg594
S'0.9'
p860
sg595
S'21.5'
p861
sg596
S'10.4'
p862
sg598
S'-1.9'
p863
sg18
S'SF'
p864
sg600
S'0.3'
p865
sg601
S'.537'
p866
sg603
S'14.0'
p867
sg604
S'.250'
p868
sg606
g3
sg24
S'NBA'
p869
sg608
S'0.9'
p870
sg609
S'5.1'
p871
sg611
S'1.0'
p872
sg35
S'29'
p873
sg37
S'NJN'
p874
sg39
S'55'
p875
sg616
S'1.4'
p876
sg617
S'18.3'
p877
sg619
S'2.9'
p878
sg56
S'1216'
p879
sg622
S'-1.0'
p880
sg49
S'1977-78'
p881
sg624
S'3.9'
p882
sbasS'_per36Minutes'
p883
(lp884
(isrc.gp1.models.Per36Minutes
Per36Minutes
p885
(dp886
g8
g3
sg9
g3
sg10
S'.424'
p887
sg12
S'1.2'
p888
sg14
g3
sg15
g3
sg16
S'19.8'
p889
sg18
S'SF'
p890
sg20
S'.766'
p891
sg24
S'NBA'
p892
sg26
g3
sg27
S'19.9'
p893
sg29
S'4.3'
p894
sg31
S'3.8'
p895
sg33
S'9.0'
p896
sg35
S'23'
p897
sg37
S'CHI'
p898
sg39
S'67'
p899
sg41
g3
sg42
S'8.4'
p900
sg44
S'2.9'
p901
sg46
S'19.9'
p902
sg48
g3
sg49
S'1971-72'
p903
sg51
S'8.4'
p904
sg53
g3
sg54
S'.424'
p905
sg56
S'730'
p906
sg58
g3
sba(isrc.gp1.models.Per36Minutes
Per36Minutes
p907
(dp908
g8
g3
sg9
g3
sg10
S'.452'
p909
sg12
S'1.4'
p910
sg14
g3
sg15
g3
sg16
S'19.3'
p911
sg18
S'PF'
p912
sg20
S'.759'
p913
sg24
S'NBA'
p914
sg26
g3
sg27
S'19.2'
p915
sg29
S'4.6'
p916
sg31
S'2.6'
p917
sg33
S'10.4'
p918
sg35
S'24'
p919
sg37
S'CHI'
p920
sg39
S'43'
p921
sg41
g3
sg42
S'8.7'
p922
sg44
S'1.9'
p923
sg46
S'19.2'
p924
sg48
g3
sg49
S'1972-73'
p925
sg51
S'8.7'
p926
sg53
g3
sg54
S'.452'
p927
sg56
S'407'
p928
sg58
g3
sba(isrc.gp1.models.Per36Minutes
Per36Minutes
p929
(dp930
g8
S'2.5'
p931
sg9
g3
sg10
S'.450'
p932
sg12
S'0.9'
p933
sg14
g3
sg15
g3
sg16
S'20.0'
p934
sg18
S'SF'
p935
sg20
S'.800'
p936
sg24
S'NBA'
p937
sg26
S'0.7'
p938
sg27
S'19.3'
p939
sg29
S'3.4'
p940
sg31
S'3.4'
p941
sg33
S'8.3'
p942
sg35
S'25'
p943
sg37
S'CHI'
p944
sg39
S'73'
p945
sg41
S'1.1'
p946
sg42
S'8.7'
p947
sg44
S'2.7'
p948
sg46
S'19.3'
p949
sg48
S'5.8'
p950
sg49
S'1973-74'
p951
sg51
S'8.7'
p952
sg53
g3
sg54
S'.450'
p953
sg56
S'1229'
p954
sg58
g3
sba(isrc.gp1.models.Per36Minutes
Per36Minutes
p955
(dp956
g8
S'2.4'
p957
sg9
g3
sg10
S'.488'
p958
sg12
S'0.6'
p959
sg14
g3
sg15
g3
sg16
S'14.5'
p960
sg18
S'SF'
p961
sg20
S'.835'
p962
sg24
S'NBA'
p963
sg26
S'0.7'
p964
sg27
S'12.8'
p965
sg29
S'2.9'
p966
sg31
S'2.4'
p967
sg33
S'7.9'
p968
sg35
S'26'
p969
sg37
S'TOT'
p970
sg39
S'58'
p971
sg41
S'0.8'
p972
sg42
S'6.2'
p973
sg44
S'2.0'
p974
sg46
S'12.8'
p975
sg48
S'5.4'
p976
sg49
S'1974-75'
p977
sg51
S'6.2'
p978
sg53
g3
sg54
S'.488'
p979
sg56
S'1163'
p980
sg58
g3
sba(isrc.gp1.models.Per36Minutes
Per36Minutes
p981
(dp982
g8
S'3.5'
p983
sg9
g3
sg10
S'.361'
p984
sg12
S'0.5'
p985
sg14
g3
sg15
g3
sg16
S'8.9'
p986
sg18
S'SF'
p987
sg20
S'.778'
p988
sg24
S'NBA'
p989
sg26
S'0.8'
p990
sg27
S'9.7'
p991
sg29
S'4.6'
p992
sg31
S'2.4'
p993
sg33
S'10.3'
p994
sg35
S'26'
p995
sg37
S'NYK'
p996
sg39
S'17'
p997
sg41
S'0.3'
p998
sg42
S'3.5'
p999
sg44
S'1.9'
p1000
sg46
S'9.7'
p1001
sg48
S'6.8'
p1002
sg49
S'1974-75'
p1003
sg51
S'3.5'
p1004
sg53
g3
sg54
S'.361'
p1005
sg56
S'133'
p1006
sg58
g3
sba(isrc.gp1.models.Per36Minutes
Per36Minutes
p1007
(dp1008
g8
S'2.3'
p1009
sg9
g3
sg10
S'.500'
p1010
sg12
S'0.6'
p1011
sg14
g3
sg15
g3
sg16
S'15.2'
p1012
sg18
S'SF'
p1013
sg20
S'.843'
p1014
sg24
S'NBA'
p1015
sg26
S'0.7'
p1016
sg27
S'13.1'
p1017
sg29
S'2.7'
p1018
sg31
S'2.4'
p1019
sg33
S'7.5'
p1020
sg35
S'26'
p1021
sg37
S'DET'
p1022
sg39
S'41'
p1023
sg41
S'0.9'
p1024
sg42
S'6.6'
p1025
sg44
S'2.1'
p1026
sg46
S'13.1'
p1027
sg48
S'5.2'
p1028
sg49
S'1974-75'
p1029
sg51
S'6.6'
p1030
sg53
g3
sg54
S'.500'
p1031
sg56
S'1030'
p1032
sg58
g3
sba(isrc.gp1.models.Per36Minutes
Per36Minutes
p1033
(dp1034
g8
S'2.0'
p1035
sg9
g3
sg10
S'.469'
p1036
sg12
S'0.6'
p1037
sg14
g3
sg15
g3
sg16
S'16.3'
p1038
sg18
S'SF'
p1039
sg20
S'.753'
p1040
sg24
S'NBA'
p1041
sg26
S'0.8'
p1042
sg27
S'15.4'
p1043
sg29
S'3.2'
p1044
sg31
S'2.4'
p1045
sg33
S'7.2'
p1046
sg35
S'27'
p1047
sg37
S'DET'
p1048
sg39
S'75'
p1049
sg41
S'0.9'
p1050
sg42
S'7.2'
p1051
sg44
S'1.8'
p1052
sg46
S'15.4'
p1053
sg48
S'5.2'
p1054
sg49
S'1975-76'
p1055
sg51
S'7.2'
p1056
sg53
g3
sg54
S'.469'
p1057
sg56
S'1482'
p1058
sg58
g3
sba(isrc.gp1.models.Per36Minutes
Per36Minutes
p1059
(dp1060
g8
S'2.5'
p1061
sg9
g3
sg10
S'.483'
p1062
sg12
S'0.9'
p1063
sg14
g3
sg15
g3
sg16
S'16.9'
p1064
sg18
S'PF'
p1065
sg20
S'.858'
p1066
sg24
S'NBA'
p1067
sg26
S'0.8'
p1068
sg27
S'15.7'
p1069
sg29
S'3.3'
p1070
sg31
S'2.0'
p1071
sg33
S'7.5'
p1072
sg35
S'28'
p1073
sg37
S'DET'
p1074
sg39
S'78'
p1075
sg41
S'1.2'
p1076
sg42
S'7.6'
p1077
sg44
S'1.7'
p1078
sg46
S'15.7'
p1079
sg48
S'5.0'
p1080
sg49
S'1976-77'
p1081
sg51
S'7.6'
p1082
sg53
g3
sg54
S'.483'
p1083
sg56
S'2200'
p1084
sg58
g3
sba(isrc.gp1.models.Per36Minutes
Per36Minutes
p1085
(dp1086
g8
S'2.7'
p1087
sg9
g3
sg10
S'.487'
p1088
sg12
S'1.1'
p1089
sg14
g3
sg15
g3
sg16
S'20.2'
p1090
sg18
S'SF'
p1091
sg20
S'.800'
p1092
sg24
S'NBA'
p1093
sg26
S'0.8'
p1094
sg27
S'17.3'
p1095
sg29
S'3.6'
p1096
sg31
S'4.2'
p1097
sg33
S'7.6'
p1098
sg35
S'29'
p1099
sg37
S'TOT'
p1100
sg39
S'63'
p1101
sg41
S'1.0'
p1102
sg42
S'8.4'
p1103
sg44
S'3.4'
p1104
sg46
S'17.3'
p1105
sg48
S'4.9'
p1106
sg49
S'1977-78'
p1107
sg51
S'8.4'
p1108
sg53
S'1.5'
p1109
sg54
S'.487'
p1110
sg56
S'1323'
p1111
sg58
g3
sba(isrc.gp1.models.Per36Minutes
Per36Minutes
p1112
(dp1113
g8
S'1.7'
p1114
sg9
g3
sg10
S'.372'
p1115
sg12
S'0.7'
p1116
sg14
g3
sg15
g3
sg16
S'12.1'
p1117
sg18
S'SF'
p1118
sg20
S'.571'
p1119
sg24
S'NBA'
p1120
sg26
S'1.0'
p1121
sg27
S'14.5'
p1122
sg29
S'5.0'
p1123
sg31
S'2.4'
p1124
sg33
S'5.7'
p1125
sg35
S'29'
p1126
sg37
S'DET'
p1127
sg39
g286
sg41
S'1.7'
p1128
sg42
S'5.4'
p1129
sg44
S'1.3'
p1130
sg46
S'14.5'
p1131
sg48
S'4.0'
p1132
sg49
S'1977-78'
p1133
sg51
S'5.4'
p1134
sg53
S'1.7'
p1135
sg54
S'.372'
p1136
sg56
S'107'
p1137
sg58
g3
sba(isrc.gp1.models.Per36Minutes
Per36Minutes
p1138
(dp1139
g8
S'2.8'
p1140
sg9
g3
sg10
S'.495'
p1141
sg12
S'1.2'
p1142
sg14
g3
sg15
g3
sg16
S'20.9'
p1143
sg18
S'SF'
p1144
sg20
S'.811'
p1145
sg24
S'NBA'
p1146
sg26
S'0.8'
p1147
sg27
S'17.5'
p1148
sg29
S'3.5'
p1149
sg31
S'4.4'
p1150
sg33
S'7.8'
p1151
sg35
S'29'
p1152
sg37
S'NJN'
p1153
sg39
S'55'
p1154
sg41
S'1.0'
p1155
sg42
S'8.7'
p1156
sg44
S'3.6'
p1157
sg46
S'17.5'
p1158
sg48
S'4.9'
p1159
sg49
S'1977-78'
p1160
sg51
S'8.7'
p1161
sg53
S'1.5'
p1162
sg54
S'.495'
p1163
sg56
S'1216'
p1164
sg58
g3
sbasS'_fromYear'
p1165
S'1972'
p1166
sS'_url'
p1167
S'http://www.basketball-reference.com/players/p/porteho01.html'
p1168
sS'_perGame'
p1169
(isrc.gp1.models.PerGame
PerGame
p1170
(dp1171
g8
S'1.7'
p1172
sg9
g3
sg10
S'.495'
p1173
sS'_effectiveFieldGalPercentage'
p1174
S'.495'
p1175
sg12
S'0.7'
p1176
sg14
g3
sg15
g3
sg16
S'12.8'
p1177
sg18
S'SF'
p1178
sg20
S'.811'
p1179
sg24
S'NBA'
p1180
sg26
S'0.5'
p1181
sg29
S'2.2'
p1182
sS'_fieldGoalsttempted'
p1183
S'10.8'
p1184
sg31
S'2.7'
p1185
sg33
S'4.8'
p1186
sg35
S'29'
p1187
sg37
S'NJN'
p1188
sg39
S'55'
p1189
sg41
S'0.6'
p1190
sg42
S'5.3'
p1191
sg44
S'2.2'
p1192
sg46
S'10.8'
p1193
sg48
S'3.0'
p1194
sg49
S'1977-78'
p1195
sg51
S'5.3'
p1196
sg53
S'0.9'
p1197
sg54
S'.495'
p1198
sg56
S'22.1'
p1199
sg58
g3
sbsS'_weight'
p1200
S'220'
p1201
sS'_dob'
p1202
S'31-8-1948'
p1203
sS'_salary'
p1204
(lp1205
sg18
S'F-C'
p1206
sb.