(isrc.gp1.models.Player
Player
p0
(dp1
S'_experience'
p2
S'NA'
p3
sS'_totals'
p4
(lp5
(isrc.gp1.models.Totals
Totals
p6
(dp7
S'_offensiveRebounds'
p8
g3
sS'_threePointsAttempted'
p9
S'90'
p10
sS'_fieldGoalsPercentage'
p11
S'.276'
p12
sS'_assist'
p13
g3
sS'_threePointsPercentage'
p14
S'125'
p15
sS'_threePoints'
p16
S'.276'
p17
sS'_points'
p18
g3
sS'_position'
p19
S'54'
p20
sS'_freeThrowsPercentage'
p21
g3
sS'_effectiveFieldGoalPercentage'
p22
S'442'
p23
sS'_league'
p24
S'BAA'
p25
sS'_steals'
p26
g3
sS'_fieldGoalsAttempted'
p27
S'638'
p28
sS'_personalFouls'
p29
g3
sS'_freeThrowsAttempted'
p30
g3
sS'_totalRebounds'
p31
g3
sS'_age'
p32
S'28'
p33
sS'_team'
p34
S'INJ'
p35
sS'_games'
p36
S'176'
p37
sS'_blocks'
p38
g3
sS'_twoPoints'
p39
S'.720'
p40
sS'_freeThrows'
p41
g3
sS'_twoPointsAttempted'
p42
S'136'
p43
sS'_defensiveRebounds'
p44
g3
sS'_season'
p45
S'1948-49'
p46
sS'_fieldGoals'
p47
S'176'
p48
sS'_turnOvers'
p49
g3
sS'_twoPointsPercentage'
p50
S'145'
p51
sS'_minutesPlayed'
p52
S'.276'
p53
sS'_gamesStarted'
p54
S'638'
p55
sba(isrc.gp1.models.Totals
Totals
p56
(dp57
g8
g3
sg9
S'12'
p58
sg11
S'.478'
p59
sg13
g3
sg14
S'13'
p60
sg16
S'.478'
p61
sg18
g3
sg19
S'7'
p62
sg21
g3
sg22
S'34'
p63
sg24
S'NBA'
p64
sg26
g3
sg27
S'23'
p65
sg29
g3
sg30
g3
sg31
g3
sg32
S'29'
p66
sg34
S'ROC'
p67
sg36
S'11'
p68
sg38
g3
sg39
S'.923'
p69
sg41
g3
sg42
S'1'
p70
sg44
g3
sg45
S'1949-50'
p71
sg47
S'11'
p72
sg49
g3
sg50
g62
sg52
S'.478'
p73
sg54
S'23'
p74
sbasS'_college'
p75
S'West Texas A&M University'
p76
sS'_toYear'
p77
S'1950'
p78
sS'_height'
p79
S'6-4'
p80
sS'_active'
p81
I00
sS'_shootingHand'
p82
VRight
p83
sS'_name'
p84
S'Price Brookfield'
p85
sS'_per100Possessions'
p86
(lp87
sS'_advanced'
p88
(lp89
(isrc.gp1.models.Advanced
Advanced
p90
(dp91
S'_offensiveReboundPercentage'
p92
g3
sS'_turnOverPercentage'
p93
g3
sS'_winSharesPer48Minutes'
p94
g3
sS'_stealPercentage'
p95
g3
sS'_usagePercentage'
p96
g3
sS'_totalReboundsPercentage'
p97
g3
sS'_defensiveBoxPlusMinus'
p98
g3
sg19
S'54'
p99
sS'_valueOverReplacementPlayer'
p100
g3
sS'_trueShootingPercentage'
p101
S'1.9'
p102
sS'_defensiveReboundPercentage'
p103
g3
sS'_freeThrowsAttempRate'
p104
g3
sS'_threePointsAttempRate'
p105
S'-0.3'
p106
sg24
S'BAA'
p107
sS'_offensiveBoxPlusMinues'
p108
g3
sS'_assistPercentage'
p109
g3
sS'_defensiveWinShares'
p110
g3
sg32
S'28'
p111
sg34
S'INJ'
p112
sg36
S'.319'
p113
sS'_blockPercentage'
p114
g3
sS'_playerEfficiencyRating'
p115
S'-2.3'
p116
sS'_offensiveWinShares'
p117
g3
sg52
S'.196'
p118
sS'_boxPlusMinus'
p119
g3
sg45
S'1948-49'
p120
sS'_winShares'
p121
g3
sba(isrc.gp1.models.Advanced
Advanced
p122
(dp123
g92
g3
sg93
g3
sg94
g3
sg95
g3
sg96
g3
sg97
g3
sg98
g3
sg19
g62
sg100
g3
sg101
S'0.1'
p124
sg103
g3
sg104
g3
sg105
S'0.5'
p125
sg24
S'NBA'
p126
sg108
g3
sg109
g3
sg110
g3
sg32
S'29'
p127
sg34
S'ROC'
p128
sg36
S'.592'
p129
sg114
g3
sg115
S'0.5'
p130
sg117
g3
sg52
S'.565'
p131
sg119
g3
sg45
S'1949-50'
p132
sg121
g3
sbasS'_per36Minutes'
p133
(lp134
(isrc.gp1.models.Per36Minutes
Per36Minutes
p135
(dp136
g8
g3
sg9
g3
sg11
g3
sg13
g3
sg14
g3
sg16
g3
sg18
g3
sg19
S'54'
p137
sg21
g3
sg24
S'BAA'
p138
sg26
g3
sg27
g3
sg29
g3
sg30
g3
sg31
g3
sg32
S'28'
p139
sg34
S'INJ'
p140
sg36
S'.276'
p141
sg38
g3
sg39
g3
sg41
g3
sg42
g3
sg44
g3
sg45
S'1948-49'
p142
sg47
g3
sg49
g3
sg50
g3
sg52
S'.720'
p143
sg54
S'.276'
p144
sba(isrc.gp1.models.Per36Minutes
Per36Minutes
p145
(dp146
g8
g3
sg9
g3
sg11
g3
sg13
g3
sg14
g3
sg16
g3
sg18
g3
sg19
g62
sg21
g3
sg24
S'NBA'
p147
sg26
g3
sg27
g3
sg29
g3
sg30
g3
sg31
g3
sg32
S'29'
p148
sg34
S'ROC'
p149
sg36
S'.478'
p150
sg38
g3
sg39
g3
sg41
g3
sg42
g3
sg44
g3
sg45
S'1949-50'
p151
sg47
g3
sg49
g3
sg50
g3
sg52
S'.923'
p152
sg54
S'.478'
p153
sbasS'_fromYear'
p154
S'1949'
p155
sS'_url'
p156
S'http://www.basketball-reference.com/players/b/brookpr01.html'
p157
sS'_perGame'
p158
(isrc.gp1.models.PerGame
PerGame
p159
(dp160
g8
g3
sg9
S'1.7'
p161
sg11
S'.478'
p162
sS'_effectiveFieldGalPercentage'
p163
S'4.9'
p164
sg13
g3
sg14
S'1.9'
p165
sg16
S'.478'
p166
sg18
g3
sg19
g62
sg21
g3
sg24
S'NBA'
p167
sg26
g3
sg29
g3
sS'_fieldGoalsttempted'
p168
S'3.3'
p169
sg30
g3
sg31
g3
sg32
S'29'
p170
sg34
S'ROC'
p171
sg36
S'1.6'
p172
sg38
g3
sg39
S'.923'
p173
sg41
g3
sg42
S'0.1'
p174
sg44
g3
sg45
S'1949-50'
p175
sg47
S'1.6'
p176
sg49
g3
sg50
S'1.0'
p177
sg52
S'.478'
p178
sg54
S'3.3'
p179
sbsS'_weight'
p180
S'185'
p181
sS'_dob'
p182
S'11-5-1920'
p183
sS'_salary'
p184
(lp185
sg19
S'F-G'
p186
sb.