(isrc.gp1.models.Player
Player
p0
(dp1
S'_experience'
p2
S'NA'
p3
sS'_totals'
p4
(lp5
(isrc.gp1.models.Totals
Totals
p6
(dp7
S'_offensiveRebounds'
p8
S'54'
p9
sS'_threePointsAttempted'
p10
S'.479'
p11
sS'_fieldGoalsPercentage'
p12
S'369'
p13
sS'_assist'
p14
S'233'
p15
sS'_threePointsPercentage'
p16
S'.479'
p17
sS'_threePoints'
p18
S'771'
p19
sS'_points'
p20
g3
sS'_position'
p21
S'PF'
p22
sS'_freeThrowsPercentage'
p23
S'97'
p24
sS'_effectiveFieldGoalPercentage'
p25
S'127'
p26
sS'_league'
p27
S'NBA'
p28
sS'_steals'
p29
S'795'
p30
sS'_fieldGoalsAttempted'
p31
S'.479'
p32
sS'_personalFouls'
p33
g3
sS'_freeThrowsAttempted'
p34
S'347'
p35
sS'_totalRebounds'
p36
S'111'
p37
sS'_age'
p38
S'21'
p39
sS'_team'
p40
S'GSW'
p41
sS'_games'
p42
S'75'
p43
sS'_blocks'
p44
g3
sS'_twoPoints'
p45
S'57'
p46
sS'_freeThrows'
p47
S'220'
p48
sS'_twoPointsAttempted'
p49
S'85'
p50
sS'_defensiveRebounds'
p51
S'12'
p52
sS'_season'
p53
S'1978-79'
p54
sS'_fieldGoals'
p55
S'771'
p56
sS'_turnOvers'
p57
g3
sS'_twoPointsPercentage'
p58
S'.671'
p59
sS'_minutesPlayed'
p60
S'369'
p61
sS'_gamesStarted'
p62
S'1703'
p63
sba(isrc.gp1.models.Totals
Totals
p64
(dp65
g8
S'197'
p66
sg10
S'.000'
p67
sg12
S'0'
p68
sg14
S'63'
p69
sg16
S'461'
p70
sg18
S'6'
p71
sg20
g3
sg21
S'SF'
p72
sg23
S'119'
p73
sg25
S'134'
p74
sg27
S'NBA'
p75
sg29
S'9'
p76
sg31
S'.503'
p77
sg33
S'1056'
p78
sg34
S'.812'
p79
sg36
S'123'
p80
sg38
S'22'
p81
sg40
S'GSW'
p82
sg42
S'62'
p83
sg44
S'122'
p84
sg45
S'910'
p85
sg47
S'165'
p86
sg49
S'.507'
p87
sg51
S'316'
p88
sg53
S'1979-80'
p89
sg55
S'916'
p90
sg57
S'186'
p91
sg58
S'.503'
p92
sg60
S'461'
p93
sg62
S'1636'
p94
sba(isrc.gp1.models.Totals
Totals
p95
(dp96
g8
S'240'
p97
sg10
S'.176'
p98
sg12
S'3'
p99
sg14
S'78'
p100
sg16
S'546'
p101
sg18
S'17'
p102
sg20
g3
sg21
S'SF'
p103
sg23
S'151'
p104
sg25
S'168'
p105
sg27
S'NBA'
p106
sg29
S'19'
p107
sg31
S'.475'
p108
sg33
S'1269'
p109
sg34
S'.820'
p110
sg36
S'249'
p111
sg38
S'23'
p112
sg40
S'GSW'
p113
sg42
S'79'
p114
sg44
S'143'
p115
sg45
S'1140'
p116
sg47
S'205'
p117
sg49
S'.479'
p118
sg51
S'391'
p119
sg53
S'1980-81'
p120
sg55
S'1157'
p121
sg57
S'244'
p122
sg58
S'.476'
p123
sg60
S'549'
p124
sg62
S'2309'
p125
sba(isrc.gp1.models.Totals
Totals
p126
(dp127
g8
S'123'
p128
sg10
S'28'
p129
sg12
S'.488'
p130
sg14
S'209'
p131
sg16
S'.214'
p132
sg18
g71
sg20
S'1095'
p133
sg21
S'SF'
p134
sg23
S'.801'
p135
sg25
S'.491'
p136
sg27
S'NBA'
p137
sg29
S'65'
p138
sg31
S'935'
p139
sg33
S'220'
p140
sg34
S'221'
p141
sg36
S'266'
p142
sg38
S'24'
p143
sg40
S'GSW'
p144
sg42
S'76'
p145
sg44
S'10'
p146
sg45
S'450'
p147
sg47
S'177'
p148
sg49
S'907'
p149
sg51
S'143'
p150
sg53
S'1981-82'
p151
sg55
S'456'
p152
sg57
S'122'
p153
sg58
S'.496'
p154
sg60
S'1782'
p155
sg62
S'8'
p156
sba(isrc.gp1.models.Totals
Totals
p157
(dp158
g8
S'145'
p159
sg10
S'15'
p160
sg12
S'.487'
p161
sg14
S'228'
p162
sg16
S'.267'
p163
sg18
S'4'
p164
sg20
S'1437'
p165
sg21
S'SF'
p166
sg23
S'.828'
p167
sg25
S'.489'
p168
sg27
S'NBA'
p169
sg29
S'94'
p170
sg31
S'1209'
p171
sg33
S'242'
p172
sg34
S'308'
p173
sg36
S'354'
p174
sg38
S'25'
p175
sg40
S'GSW'
p176
sg42
S'67'
p177
sg44
S'14'
p178
sg45
S'585'
p179
sg47
S'255'
p180
sg49
S'1194'
p181
sg51
S'209'
p182
sg53
S'1982-83'
p183
sg55
S'589'
p184
sg57
S'194'
p185
sg58
S'.490'
p186
sg60
S'2397'
p187
sg62
S'57'
p188
sba(isrc.gp1.models.Totals
Totals
p189
(dp190
g8
S'184'
p191
sg10
S'72'
p192
sg12
S'.473'
p193
sg14
S'246'
p194
sg16
S'.306'
p195
sg18
S'22'
p196
sg20
S'1803'
p197
sg21
S'SF'
p198
sg23
S'.793'
p199
sg25
S'.480'
p200
sg27
S'NBA'
p201
sg29
S'103'
p202
sg31
S'1509'
p203
sg33
S'252'
p204
sg34
S'445'
p205
sg36
S'438'
p206
sg38
S'26'
p207
sg40
S'GSW'
p208
sg42
S'79'
p209
sg44
S'11'
p210
sg45
S'692'
p211
sg47
S'353'
p212
sg49
S'1437'
p213
sg51
S'254'
p214
sg53
S'1983-84'
p215
sg55
S'714'
p216
sg57
S'228'
p217
sg58
S'.482'
p218
sg60
S'2945'
p219
sg62
S'76'
p220
sba(isrc.gp1.models.Totals
Totals
p221
(dp222
g8
S'157'
p223
sg10
S'150'
p224
sg12
S'.460'
p225
sg14
S'234'
p226
sg16
S'.313'
p227
sg18
S'47'
p228
sg20
S'2186'
p229
sg21
S'SF'
p230
sg23
S'.817'
p231
sg25
S'.473'
p232
sg27
S'NBA'
p233
sg29
S'116'
p234
sg31
S'1780'
p235
sg33
S'255'
p236
sg34
S'613'
p237
sg36
S'398'
p238
sg38
S'27'
p239
sg40
S'GSW'
p240
sg42
S'78'
p241
sg44
S'27'
p242
sg45
S'772'
p243
sg47
S'501'
p244
sg49
S'1630'
p245
sg51
S'241'
p246
sg53
S'1984-85'
p247
sg55
S'819'
p248
sg57
S'241'
p249
sg58
S'.474'
p250
sg60
S'3081'
p251
sg62
S'77'
p252
sba(isrc.gp1.models.Totals
Totals
p253
(dp254
g8
S'126'
p255
sg10
S'49'
p256
sg12
S'.482'
p257
sg14
S'237'
p258
sg16
S'.306'
p259
sg18
S'15'
p260
sg20
S'1632'
p261
sg21
S'SF'
p262
sg23
S'.865'
p263
sg25
S'.488'
p264
sg27
S'NBA'
p265
sg29
S'92'
p266
sg31
S'1313'
p267
sg33
S'229'
p268
sg34
S'406'
p269
sg36
S'329'
p270
sg38
S'28'
p271
sg40
S'GSW'
p272
sg42
S'64'
p273
sg44
S'22'
p274
sg45
S'618'
p275
sg47
S'351'
p276
sg49
S'1264'
p277
sg51
S'203'
p278
sg53
S'1985-86'
p279
sg55
S'633'
p280
sg57
S'184'
p281
sg58
S'.489'
p282
sg60
S'2427'
p283
sg62
S'63'
p284
sba(isrc.gp1.models.Totals
Totals
p285
(dp286
g8
S'55'
p287
sg10
S'17'
p288
sg12
S'.479'
p289
sg14
S'86'
p290
sg16
S'.235'
p291
sg18
g164
sg20
S'621'
p292
sg21
S'SF'
p293
sg23
S'.856'
p294
sg25
S'.483'
p295
sg27
S'NBA'
p296
sg29
S'45'
p297
sg31
S'501'
p298
sg33
S'103'
p299
sg34
S'160'
p300
sg36
S'137'
p301
sg38
S'29'
p302
sg40
S'GSW'
p303
sg42
S'34'
p304
sg44
S'7'
p305
sg45
S'236'
p306
sg47
S'137'
p307
sg49
S'484'
p308
sg51
S'82'
p309
sg53
S'1986-87'
p310
sg55
S'240'
p311
sg57
S'68'
p312
sg58
S'.488'
p313
sg60
S'950'
p314
sg62
S'15'
p315
sba(isrc.gp1.models.Totals
Totals
p316
(dp317
g8
S'71'
p318
sg10
S'21'
p319
sg12
S'.481'
p320
sg14
S'162'
p321
sg16
S'.238'
p322
sg18
S'5'
p323
sg20
S'1159'
p324
sg21
S'SG'
p325
sg23
S'.858'
p326
sg25
S'.483'
p327
sg27
S'NBA'
p328
sg29
S'58'
p329
sg31
S'986'
p330
sg33
S'197'
p331
sg34
S'240'
p332
sg36
S'222'
p333
sg38
S'30'
p334
sg40
S'HOU'
p335
sg42
S'81'
p336
sg44
S'14'
p337
sg45
S'469'
p338
sg47
S'206'
p339
sg49
S'965'
p340
sg51
S'151'
p341
sg53
S'1987-88'
p342
sg55
S'474'
p343
sg57
S'118'
p344
sg58
S'.486'
p345
sg60
S'1949'
p346
sg62
S'11'
p347
sba(isrc.gp1.models.Totals
Totals
p348
(dp349
g8
S'65'
p350
sg10
S'33'
p351
sg12
S'.413'
p352
sg14
S'107'
p353
sg16
S'.273'
p354
sg18
g76
sg20
S'482'
p355
sg21
S'SF'
p356
sg23
S'.865'
p357
sg25
S'.422'
p358
sg27
S'NBA'
p359
sg29
S'44'
p360
sg31
S'480'
p361
sg33
S'116'
p362
sg34
S'89'
p363
sg36
S'179'
p364
sg38
S'31'
p365
sg40
S'HOU'
p366
sg42
S'65'
p367
sg44
S'13'
p368
sg45
S'189'
p369
sg47
S'77'
p370
sg49
S'447'
p371
sg51
S'114'
p372
sg53
S'1988-89'
p373
sg55
S'198'
p374
sg57
S'70'
p375
sg58
S'.423'
p376
sg60
S'1157'
p377
sg62
S'16'
p378
sba(isrc.gp1.models.Totals
Totals
p379
(dp380
g8
S'101'
p381
sg10
S'35'
p382
sg12
S'.455'
p383
sg14
S'145'
p384
sg16
S'.286'
p385
sg18
S'10'
p386
sg20
S'1072'
p387
sg21
S'SF'
p388
sg23
S'.835'
p389
sg25
S'.460'
p390
sg27
S'NBA'
p391
sg29
S'66'
p392
sg31
S'950'
p393
sg33
S'202'
p394
sg34
S'237'
p395
sg36
S'248'
p396
sg38
S'32'
p397
sg40
S'NJN'
p398
sg42
S'82'
p399
sg44
S'20'
p400
sg45
S'422'
p401
sg47
S'198'
p402
sg49
S'915'
p403
sg51
S'147'
p404
sg53
S'1989-90'
p405
sg55
S'432'
p406
sg57
S'119'
p407
sg58
S'.461'
p408
sg60
S'2213'
p409
sg62
S'24'
p410
sbasS'_college'
p411
S'Jackson State University'
p412
sS'_toYear'
p413
S'1990'
p414
sS'_height'
p415
S'6-7'
p416
sS'_active'
p417
I00
sS'_shootingHand'
p418
VRight
p419
sS'_name'
p420
S'Purvis Short'
p421
sS'_per100Possessions'
p422
(lp423
(isrc.gp1.models.Per100Possession
Per100Possession
p424
(dp425
g8
S'1.5'
p426
sg10
S'.479'
p427
sg12
S'10.2'
p428
sS'_offensiveRating'
p429
g3
sg14
S'6.4'
p430
sg16
S'1.6'
p431
sg18
S'21.3'
p432
sg20
g3
sg21
S'PF'
p433
sS'_defensiveRating'
p434
g3
sg23
S'2.7'
p435
sg27
S'NBA'
p436
sg29
S'21.9'
p437
sg31
S'.479'
p438
sg33
g3
sg34
S'9.6'
p439
sg36
S'3.1'
p440
sg38
S'21'
p441
sg40
S'GSW'
p442
sg42
S'75'
p443
sg44
S'99'
p444
sg45
S'2.3'
p445
sg47
S'6.1'
p446
sg49
S'.671'
p447
sg51
S'0.3'
p448
sg53
S'1978-79'
p449
sg55
S'21.3'
p450
sg57
S'103'
p451
sg58
S'3.5'
p452
sg60
S'10.2'
p453
sg62
S'1703'
p454
sba(isrc.gp1.models.Per100Possession
Per100Possession
p455
(dp456
g8
S'5.8'
p457
sg10
S'.000'
p458
sg12
S'0.0'
p459
sg429
S'107'
p460
sg14
S'1.8'
p461
sg16
S'13.5'
p462
sg18
S'0.2'
p463
sg20
S'106'
p464
sg21
S'SF'
p465
sg434
g3
sg23
S'3.5'
p466
sg27
S'NBA'
p467
sg29
S'0.3'
p468
sg31
S'.503'
p469
sg33
S'30.8'
p470
sg34
S'.812'
p471
sg36
S'3.6'
p472
sg38
S'22'
p473
sg40
S'GSW'
p474
sg42
S'62'
p475
sg44
S'3.6'
p476
sg45
S'26.6'
p477
sg47
S'4.8'
p478
sg49
S'.507'
p479
sg51
S'9.2'
p480
sg53
S'1979-80'
p481
sg55
S'26.7'
p482
sg57
S'5.4'
p483
sg58
S'3.9'
p484
sg60
S'13.5'
p485
sg62
S'1636'
p486
sba(isrc.gp1.models.Per100Possession
Per100Possession
p487
(dp488
g8
S'4.9'
p489
sg10
S'.176'
p490
sg12
S'0.1'
p491
sg429
S'110'
p492
sg14
S'1.6'
p493
sg16
S'11.2'
p494
sg18
S'0.4'
p495
sg20
S'110'
p496
sg21
S'SF'
p497
sg434
g3
sg23
S'3.1'
p498
sg27
S'NBA'
p499
sg29
S'0.4'
p500
sg31
S'.475'
p501
sg33
S'26.1'
p502
sg34
S'.820'
p503
sg36
S'5.1'
p504
sg38
S'23'
p505
sg40
S'GSW'
p506
sg42
S'79'
p507
sg44
S'2.9'
p508
sg45
S'23.5'
p509
sg47
S'4.2'
p510
sg49
S'.479'
p511
sg51
S'8.1'
p512
sg53
S'1980-81'
p513
sg55
S'23.8'
p514
sg57
S'5.0'
p515
sg58
S'3.5'
p516
sg60
S'11.3'
p517
sg62
S'2309'
p518
sba(isrc.gp1.models.Per100Possession
Per100Possession
p519
(dp520
g8
S'3.3'
p521
sg10
S'0.7'
p522
sg12
S'.488'
p523
sg429
S'112'
p524
sg14
S'5.6'
p525
sg16
S'.214'
p526
sg18
S'0.2'
p527
sg20
S'29.1'
p528
sg21
S'SF'
p529
sg434
S'109'
p530
sg23
S'.801'
p531
sg27
S'NBA'
p532
sg29
S'1.7'
p533
sg31
S'24.8'
p534
sg33
S'5.8'
p535
sg34
S'5.9'
p536
sg36
S'7.1'
p537
sg38
S'24'
p538
sg40
S'GSW'
p539
sg42
S'76'
p540
sg44
S'0.3'
p541
sg45
S'11.9'
p542
sg47
S'4.7'
p543
sg49
S'24.1'
p544
sg51
S'3.8'
p545
sg53
S'1981-82'
p546
sg55
S'12.1'
p547
sg57
S'3.2'
p548
sg58
S'.496'
p549
sg60
S'1782'
p550
sg62
g156
sba(isrc.gp1.models.Per100Possession
Per100Possession
p551
(dp552
g8
S'2.8'
p553
sg10
S'0.3'
p554
sg12
S'.487'
p555
sg429
S'107'
p556
sg14
S'4.4'
p557
sg16
S'.267'
p558
sg18
S'0.1'
p559
sg20
S'27.7'
p560
sg21
S'SF'
p561
sg434
S'109'
p562
sg23
S'.828'
p563
sg27
S'NBA'
p564
sg29
S'1.8'
p565
sg31
S'23.3'
p566
sg33
S'4.7'
p567
sg34
S'5.9'
p568
sg36
S'6.8'
p569
sg38
S'25'
p570
sg40
S'GSW'
p571
sg42
S'67'
p572
sg44
S'0.3'
p573
sg45
S'11.3'
p574
sg47
S'4.9'
p575
sg49
S'23.0'
p576
sg51
S'4.0'
p577
sg53
S'1982-83'
p578
sg55
S'11.3'
p579
sg57
S'3.7'
p580
sg58
S'.490'
p581
sg60
S'2397'
p582
sg62
S'57'
p583
sba(isrc.gp1.models.Per100Possession
Per100Possession
p584
(dp585
g8
S'2.9'
p586
sg10
S'1.1'
p587
sg12
S'.473'
p588
sg429
S'108'
p589
sg14
S'3.9'
p590
sg16
S'.306'
p591
sg18
S'0.3'
p592
sg20
S'28.4'
p593
sg21
S'SF'
p594
sg434
S'111'
p595
sg23
S'.793'
p596
sg27
S'NBA'
p597
sg29
S'1.6'
p598
sg31
S'23.8'
p599
sg33
S'4.0'
p600
sg34
S'7.0'
p601
sg36
S'6.9'
p602
sg38
S'26'
p603
sg40
S'GSW'
p604
sg42
S'79'
p605
sg44
S'0.2'
p606
sg45
S'10.9'
p607
sg47
S'5.6'
p608
sg49
S'22.7'
p609
sg51
S'4.0'
p610
sg53
S'1983-84'
p611
sg55
S'11.3'
p612
sg57
S'3.6'
p613
sg58
S'.482'
p614
sg60
S'2945'
p615
sg62
S'76'
p616
sba(isrc.gp1.models.Per100Possession
Per100Possession
p617
(dp618
g8
S'2.4'
p619
sg10
S'2.3'
p620
sg12
S'.460'
p621
sg429
S'110'
p622
sg14
S'3.5'
p623
sg16
S'.313'
p624
sg18
S'0.7'
p625
sg20
S'33.0'
p626
sg21
S'SF'
p627
sg434
S'114'
p628
sg23
S'.817'
p629
sg27
S'NBA'
p630
sg29
S'1.8'
p631
sg31
S'26.9'
p632
sg33
S'3.8'
p633
sg34
S'9.3'
p634
sg36
S'6.0'
p635
sg38
S'27'
p636
sg40
S'GSW'
p637
sg42
S'78'
p638
sg44
S'0.4'
p639
sg45
S'11.7'
p640
sg47
S'7.6'
p641
sg49
S'24.6'
p642
sg51
S'3.6'
p643
sg53
S'1984-85'
p644
sg55
S'12.4'
p645
sg57
S'3.6'
p646
sg58
S'.474'
p647
sg60
S'3081'
p648
sg62
S'77'
p649
sba(isrc.gp1.models.Per100Possession
Per100Possession
p650
(dp651
g8
S'2.4'
p652
sg10
S'0.9'
p653
sg12
S'.482'
p654
sg429
S'112'
p655
sg14
S'4.5'
p656
sg16
S'.306'
p657
sg18
S'0.3'
p658
sg20
S'31.0'
p659
sg21
S'SF'
p660
sg434
S'113'
p661
sg23
S'.865'
p662
sg27
S'NBA'
p663
sg29
S'1.7'
p664
sg31
S'24.9'
p665
sg33
S'4.3'
p666
sg34
S'7.7'
p667
sg36
S'6.2'
p668
sg38
S'28'
p669
sg40
S'GSW'
p670
sg42
S'64'
p671
sg44
S'0.4'
p672
sg45
S'11.7'
p673
sg47
S'6.7'
p674
sg49
S'24.0'
p675
sg51
S'3.9'
p676
sg53
S'1985-86'
p677
sg55
S'12.0'
p678
sg57
S'3.5'
p679
sg58
S'.489'
p680
sg60
S'2427'
p681
sg62
S'63'
p682
sba(isrc.gp1.models.Per100Possession
Per100Possession
p683
(dp684
g8
S'2.7'
p685
sg10
S'0.8'
p686
sg12
S'.479'
p687
sg429
S'110'
p688
sg14
S'4.3'
p689
sg16
S'.235'
p690
sg18
S'0.2'
p691
sg20
S'30.9'
p692
sg21
S'SF'
p693
sg434
S'112'
p694
sg23
S'.856'
p695
sg27
S'NBA'
p696
sg29
S'2.2'
p697
sg31
S'24.9'
p698
sg33
S'5.1'
p699
sg34
S'7.9'
p700
sg36
S'6.8'
p701
sg38
S'29'
p702
sg40
S'GSW'
p703
sg42
S'34'
p704
sg44
S'0.3'
p705
sg45
S'11.7'
p706
sg47
S'6.8'
p707
sg49
S'24.0'
p708
sg51
S'4.1'
p709
sg53
S'1986-87'
p710
sg55
S'11.9'
p711
sg57
S'3.4'
p712
sg58
S'.488'
p713
sg60
S'950'
p714
sg62
S'15'
p715
sba(isrc.gp1.models.Per100Possession
Per100Possession
p716
(dp717
g8
S'1.7'
p718
sg10
S'0.5'
p719
sg12
S'.481'
p720
sg429
S'109'
p721
sg14
S'3.9'
p722
sg16
S'.238'
p723
sg18
S'0.1'
p724
sg20
S'28.0'
p725
sg21
S'SG'
p726
sg434
S'109'
p727
sg23
S'.858'
p728
sg27
S'NBA'
p729
sg29
S'1.4'
p730
sg31
S'23.9'
p731
sg33
S'4.8'
p732
sg34
S'5.8'
p733
sg36
S'5.4'
p734
sg38
S'30'
p735
sg40
S'HOU'
p736
sg42
S'81'
p737
sg44
S'0.3'
p738
sg45
S'11.3'
p739
sg47
S'5.0'
p740
sg49
S'23.4'
p741
sg51
S'3.7'
p742
sg53
S'1987-88'
p743
sg55
S'11.5'
p744
sg57
S'2.9'
p745
sg58
S'.486'
p746
sg60
S'1949'
p747
sg62
S'11'
p748
sba(isrc.gp1.models.Per100Possession
Per100Possession
p749
(dp750
g8
S'2.6'
p751
sg10
S'1.3'
p752
sg12
S'.413'
p753
sg429
S'99'
p754
sg14
S'4.4'
p755
sg16
S'.273'
p756
sg18
S'0.4'
p757
sg20
S'19.6'
p758
sg21
S'SF'
p759
sg434
S'107'
p760
sg23
S'.865'
p761
sg27
S'NBA'
p762
sg29
S'1.8'
p763
sg31
S'19.6'
p764
sg33
S'4.7'
p765
sg34
S'3.6'
p766
sg36
S'7.3'
p767
sg38
S'31'
p768
sg40
S'HOU'
p769
sg42
S'65'
p770
sg44
S'0.5'
p771
sg45
S'7.7'
p772
sg47
S'3.1'
p773
sg49
S'18.2'
p774
sg51
S'4.6'
p775
sg53
S'1988-89'
p776
sg55
S'8.1'
p777
sg57
S'2.9'
p778
sg58
S'.423'
p779
sg60
S'1157'
p780
sg62
S'16'
p781
sba(isrc.gp1.models.Per100Possession
Per100Possession
p782
(dp783
g8
S'2.2'
p784
sg10
S'0.8'
p785
sg12
S'.455'
p786
sg429
S'107'
p787
sg14
S'3.2'
p788
sg16
S'.286'
p789
sg18
S'0.2'
p790
sg20
S'23.4'
p791
sg21
S'SF'
p792
sg434
S'112'
p793
sg23
S'.835'
p794
sg27
S'NBA'
p795
sg29
S'1.4'
p796
sg31
S'20.8'
p797
sg33
S'4.4'
p798
sg34
S'5.2'
p799
sg36
S'5.4'
p800
sg38
S'32'
p801
sg40
S'NJN'
p802
sg42
S'82'
p803
sg44
S'0.4'
p804
sg45
S'9.2'
p805
sg47
S'4.3'
p806
sg49
S'20.0'
p807
sg51
S'3.2'
p808
sg53
S'1989-90'
p809
sg55
S'9.4'
p810
sg57
S'2.6'
p811
sg58
S'.461'
p812
sg60
S'2213'
p813
sg62
S'24'
p814
sbasS'_advanced'
p815
(lp816
(isrc.gp1.models.Advanced
Advanced
p817
(dp818
S'_offensiveReboundPercentage'
p819
S'14.0'
p820
sS'_turnOverPercentage'
p821
S'21.8'
p822
sS'_winSharesPer48Minutes'
p823
S'-1.2'
p824
sS'_stealPercentage'
p825
S'0.4'
p826
sS'_usagePercentage'
p827
S'0.7'
p828
sS'_totalReboundsPercentage'
p829
S'8.1'
p830
sS'_defensiveBoxPlusMinus'
p831
S'-1.8'
p832
sg21
S'PF'
p833
sS'_valueOverReplacementPlayer'
p834
g3
sS'_trueShootingPercentage'
p835
S'.492'
p836
sS'_defensiveReboundPercentage'
p837
S'10.9'
p838
sS'_freeThrowsAttempRate'
p839
S'8.0'
p840
sS'_threePointsAttempRate'
p841
S'.110'
p842
sg27
S'NBA'
p843
sS'_offensiveBoxPlusMinues'
p844
S'-0.6'
p845
sS'_assistPercentage'
p846
S'1.5'
p847
sS'_defensiveWinShares'
p848
S'2.6'
p849
sg38
S'21'
p850
sg40
S'GSW'
p851
sg42
S'75'
p852
sS'_blockPercentage'
p853
S'12.1'
p854
sS'_playerEfficiencyRating'
p855
S'13.1'
p856
sS'_offensiveWinShares'
p857
S'1.9'
p858
sg60
S'1703'
p859
sS'_boxPlusMinus'
p860
S'0.1'
p861
sg53
S'1978-79'
p862
sS'_winShares'
p863
S'.074'
p864
sba(isrc.gp1.models.Advanced
Advanced
p865
(dp866
g819
S'7.8'
p867
sg821
S'11.0'
p868
sg823
S'.109'
p869
sg825
S'1.8'
p870
sg827
S'28.0'
p871
sg829
S'10.6'
p872
sg831
S'-1.6'
p873
sg21
S'SF'
p874
sg834
S'0.8'
p875
sg835
S'.534'
p876
sg837
S'13.7'
p877
sg839
S'.180'
p878
sg841
S'.007'
p879
sg27
S'NBA'
p880
sg844
S'1.7'
p881
sg846
S'12.4'
p882
sg848
S'1.4'
p883
sg38
S'22'
p884
sg40
S'GSW'
p885
sg42
S'62'
p886
sg853
S'0.3'
p887
sg855
S'19.1'
p888
sg857
S'2.3'
p889
sg60
S'1636'
p890
sg860
S'0.1'
p891
sg53
S'1979-80'
p892
sg863
S'3.7'
p893
sba(isrc.gp1.models.Advanced
Advanced
p894
(dp895
g819
S'7.1'
p896
sg821
S'10.3'
p897
sg823
S'.111'
p898
sg825
S'1.6'
p899
sg827
S'23.9'
p900
sg829
S'9.4'
p901
sg831
S'-1.1'
p902
sg21
S'SF'
p903
sg834
S'1.5'
p904
sg835
S'.509'
p905
sg837
S'11.7'
p906
sg839
S'.177'
p907
sg841
S'.015'
p908
sg27
S'NBA'
p909
sg844
S'1.8'
p910
sg846
S'16.2'
p911
sg848
S'1.1'
p912
sg38
S'23'
p913
sg40
S'GSW'
p914
sg42
S'79'
p915
sg853
S'0.5'
p916
sg855
S'17.0'
p917
sg857
S'4.3'
p918
sg60
S'2309'
p919
sg860
S'0.6'
p920
sg53
S'1980-81'
p921
sg863
S'5.4'
p922
sba(isrc.gp1.models.Advanced
Advanced
p923
(dp924
g819
S'7.4'
p925
sg821
S'10.6'
p926
sg823
S'.135'
p927
sg825
S'1.7'
p928
sg827
S'26.1'
p929
sg829
S'8.1'
p930
sg831
S'-1.4'
p931
sg21
S'SF'
p932
sg834
S'1.4'
p933
sg835
S'.530'
p934
sg837
S'8.9'
p935
sg839
S'.236'
p936
sg841
S'.030'
p937
sg27
S'NBA'
p938
sg844
S'2.6'
p939
sg846
S'17.6'
p940
sg848
S'1.3'
p941
sg38
S'24'
p942
sg40
S'GSW'
p943
sg42
S'76'
p944
sg853
S'0.3'
p945
sg855
S'18.8'
p946
sg857
S'3.7'
p947
sg60
S'1782'
p948
sg860
S'1.2'
p949
sg53
S'1981-82'
p950
sg863
S'5.0'
p951
sba(isrc.gp1.models.Advanced
Advanced
p952
(dp953
g819
S'6.3'
p954
sg821
S'12.6'
p955
sg823
S'.103'
p956
sg825
S'1.8'
p957
sg827
S'25.2'
p958
sg829
S'8.0'
p959
sg831
S'-1.4'
p960
sg21
S'SF'
p961
sg834
S'1.7'
p962
sg835
S'.534'
p963
sg837
S'9.8'
p964
sg839
S'.255'
p965
sg841
S'.012'
p966
sg27
S'NBA'
p967
sg844
S'2.1'
p968
sg846
S'14.2'
p969
sg848
S'1.2'
p970
sg38
S'25'
p971
sg40
S'GSW'
p972
sg42
S'67'
p973
sg853
S'0.3'
p974
sg855
S'17.6'
p975
sg857
S'4.0'
p976
sg60
S'2397'
p977
sg860
S'0.7'
p978
sg53
S'1982-83'
p979
sg863
S'5.2'
p980
sba(isrc.gp1.models.Advanced
Advanced
p981
(dp982
g819
S'6.3'
p983
sg821
S'11.8'
p984
sg823
S'.098'
p985
sg825
S'1.6'
p986
sg827
S'25.6'
p987
sg829
S'8.1'
p988
sg831
S'-1.5'
p989
sg21
S'SF'
p990
sg834
S'1.5'
p991
sg835
S'.529'
p992
sg837
S'10.1'
p993
sg839
S'.295'
p994
sg841
S'.048'
p995
sg27
S'NBA'
p996
sg844
S'1.5'
p997
sg846
S'13.0'
p998
sg848
S'1.9'
p999
sg38
S'26'
p1000
sg40
S'GSW'
p1001
sg42
S'79'
p1002
sg853
S'0.2'
p1003
sg855
S'16.9'
p1004
sg857
S'4.1'
p1005
sg60
S'2945'
p1006
sg860
S'0.0'
p1007
sg53
S'1983-84'
p1008
sg863
S'6.0'
p1009
sba(isrc.gp1.models.Advanced
Advanced
p1010
(dp1011
g819
S'5.3'
p1012
sg821
S'10.5'
p1013
sg823
S'.097'
p1014
sg825
S'1.8'
p1015
sg827
S'29.1'
p1016
sg829
S'7.2'
p1017
sg831
S'-2.3'
p1018
sg21
S'SF'
p1019
sg834
S'1.8'
p1020
sg835
S'.533'
p1021
sg837
S'9.6'
p1022
sg839
S'.344'
p1023
sg841
S'.084'
p1024
sg27
S'NBA'
p1025
sg844
S'2.6'
p1026
sg846
S'12.3'
p1027
sg848
S'0.8'
p1028
sg38
S'27'
p1029
sg40
S'GSW'
p1030
sg42
S'78'
p1031
sg853
S'0.5'
p1032
sg855
S'18.9'
p1033
sg857
S'5.4'
p1034
sg60
S'3081'
p1035
sg860
S'0.3'
p1036
sg53
S'1984-85'
p1037
sg863
S'6.2'
p1038
sba(isrc.gp1.models.Advanced
Advanced
p1039
(dp1040
g819
S'5.4'
p1041
sg821
S'11.0'
p1042
sg823
S'.113'
p1043
sg825
S'1.7'
p1044
sg827
S'27.1'
p1045
sg829
S'7.3'
p1046
sg831
S'-1.6'
p1047
sg21
S'SF'
p1048
sg834
S'2.0'
p1049
sg835
S'.547'
p1050
sg837
S'9.4'
p1051
sg839
S'.309'
p1052
sg841
S'.037'
p1053
sg27
S'NBA'
p1054
sg844
S'2.9'
p1055
sg846
S'14.8'
p1056
sg848
S'0.9'
p1057
sg38
S'28'
p1058
sg40
S'GSW'
p1059
sg42
S'64'
p1060
sg853
S'0.5'
p1061
sg855
S'19.1'
p1062
sg857
S'4.9'
p1063
sg60
S'2427'
p1064
sg860
S'1.3'
p1065
sg53
S'1985-86'
p1066
sg863
S'5.7'
p1067
sba(isrc.gp1.models.Advanced
Advanced
p1068
(dp1069
g819
S'6.3'
p1070
sg821
S'10.6'
p1071
sg823
S'.111'
p1072
sg825
S'2.2'
p1073
sg827
S'27.1'
p1074
sg829
S'7.9'
p1075
sg831
S'-1.3'
p1076
sg21
S'SF'
p1077
sg834
S'0.6'
p1078
sg835
S'.543'
p1079
sg837
S'9.5'
p1080
sg839
S'.319'
p1081
sg841
S'.034'
p1082
sg27
S'NBA'
p1083
sg844
S'2.0'
p1084
sg846
S'14.2'
p1085
sg848
S'0.6'
p1086
sg38
S'29'
p1087
sg40
S'GSW'
p1088
sg42
S'34'
p1089
sg853
S'0.4'
p1090
sg855
S'18.6'
p1091
sg857
S'1.6'
p1092
sg60
S'950'
p1093
sg860
S'0.6'
p1094
sg53
S'1986-87'
p1095
sg863
S'2.2'
p1096
sba(isrc.gp1.models.Advanced
Advanced
p1097
(dp1098
g819
S'3.8'
p1099
sg821
S'9.8'
p1100
sg823
S'.108'
p1101
sg825
S'1.4'
p1102
sg827
S'24.9'
p1103
sg829
S'5.9'
p1104
sg831
S'-1.6'
p1105
sg21
S'SG'
p1106
sg834
S'0.3'
p1107
sg835
S'.531'
p1108
sg837
S'8.0'
p1109
sg839
S'.243'
p1110
sg841
S'.021'
p1111
sg27
S'NBA'
p1112
sg844
S'0.2'
p1113
sg846
S'13.0'
p1114
sg848
S'1.8'
p1115
sg38
S'30'
p1116
sg40
S'HOU'
p1117
sg42
S'81'
p1118
sg853
S'0.4'
p1119
sg855
S'15.8'
p1120
sg857
S'2.6'
p1121
sg60
S'1949'
p1122
sg860
S'-1.4'
p1123
sg53
S'1987-88'
p1124
sg863
S'4.4'
p1125
sba(isrc.gp1.models.Advanced
Advanced
p1126
(dp1127
g819
S'6.1'
p1128
sg821
S'11.9'
p1129
sg823
S'.058'
p1130
sg825
S'1.8'
p1131
sg827
S'20.5'
p1132
sg829
S'8.4'
p1133
sg831
S'-0.3'
p1134
sg21
S'SF'
p1135
sg834
S'-0.1'
p1136
sg835
S'.464'
p1137
sg837
S'10.6'
p1138
sg839
S'.185'
p1139
sg841
S'.069'
p1140
sg27
S'NBA'
p1141
sg844
S'-2.1'
p1142
sg846
S'13.4'
p1143
sg848
S'1.4'
p1144
sg38
S'31'
p1145
sg40
S'HOU'
p1146
sg42
S'65'
p1147
sg853
S'0.7'
p1148
sg855
S'11.4'
p1149
sg857
S'0.0'
p1150
sg60
S'1157'
p1151
sg860
S'-2.5'
p1152
sg53
S'1988-89'
p1153
sg863
S'1.4'
p1154
sba(isrc.gp1.models.Advanced
Advanced
p1155
(dp1156
g819
S'4.6'
p1157
sg821
S'10.1'
p1158
sg823
S'.071'
p1159
sg825
S'1.4'
p1160
sg827
S'21.3'
p1161
sg829
S'6.0'
p1162
sg831
S'-1.4'
p1163
sg21
S'SF'
p1164
sg834
S'-0.1'
p1165
sg835
S'.508'
p1166
sg837
S'7.5'
p1167
sg839
S'.249'
p1168
sg841
S'.037'
p1169
sg27
S'NBA'
p1170
sg844
S'-0.7'
p1171
sg846
S'10.8'
p1172
sg848
S'1.3'
p1173
sg38
S'32'
p1174
sg40
S'NJN'
p1175
sg42
S'82'
p1176
sg853
S'0.5'
p1177
sg855
S'13.4'
p1178
sg857
S'2.0'
p1179
sg60
S'2213'
p1180
sg860
S'-2.1'
p1181
sg53
S'1989-90'
p1182
sg863
S'3.3'
p1183
sbasS'_per36Minutes'
p1184
(lp1185
(isrc.gp1.models.Per36Minutes
Per36Minutes
p1186
(dp1187
g8
S'1.1'
p1188
sg10
S'.479'
p1189
sg12
S'7.8'
p1190
sg14
S'4.9'
p1191
sg16
S'1.2'
p1192
sg18
S'16.3'
p1193
sg20
g3
sg21
S'PF'
p1194
sg23
S'2.1'
p1195
sg27
S'NBA'
p1196
sg29
S'16.8'
p1197
sg31
S'.479'
p1198
sg33
g3
sg34
S'7.3'
p1199
sg36
S'2.3'
p1200
sg38
S'21'
p1201
sg40
S'GSW'
p1202
sg42
S'75'
p1203
sg44
g3
sg45
S'1.8'
p1204
sg47
S'4.7'
p1205
sg49
S'.671'
p1206
sg51
S'0.3'
p1207
sg53
S'1978-79'
p1208
sg55
S'16.3'
p1209
sg57
g3
sg58
S'2.7'
p1210
sg60
S'7.8'
p1211
sg62
S'1703'
p1212
sba(isrc.gp1.models.Per36Minutes
Per36Minutes
p1213
(dp1214
g8
S'4.3'
p1215
sg10
S'.000'
p1216
sg12
S'0.0'
p1217
sg14
S'1.4'
p1218
sg16
S'10.1'
p1219
sg18
S'0.1'
p1220
sg20
g3
sg21
S'SF'
p1221
sg23
S'2.6'
p1222
sg27
S'NBA'
p1223
sg29
S'0.2'
p1224
sg31
S'.503'
p1225
sg33
S'23.2'
p1226
sg34
S'.812'
p1227
sg36
S'2.7'
p1228
sg38
S'22'
p1229
sg40
S'GSW'
p1230
sg42
S'62'
p1231
sg44
S'2.7'
p1232
sg45
S'20.0'
p1233
sg47
S'3.6'
p1234
sg49
S'.507'
p1235
sg51
S'7.0'
p1236
sg53
S'1979-80'
p1237
sg55
S'20.2'
p1238
sg57
S'4.1'
p1239
sg58
S'2.9'
p1240
sg60
S'10.1'
p1241
sg62
S'1636'
p1242
sba(isrc.gp1.models.Per36Minutes
Per36Minutes
p1243
(dp1244
g8
S'3.7'
p1245
sg10
S'.176'
p1246
sg12
S'0.0'
p1247
sg14
S'1.2'
p1248
sg16
S'8.5'
p1249
sg18
S'0.3'
p1250
sg20
g3
sg21
S'SF'
p1251
sg23
S'2.4'
p1252
sg27
S'NBA'
p1253
sg29
S'0.3'
p1254
sg31
S'.475'
p1255
sg33
S'19.8'
p1256
sg34
S'.820'
p1257
sg36
S'3.9'
p1258
sg38
S'23'
p1259
sg40
S'GSW'
p1260
sg42
S'79'
p1261
sg44
S'2.2'
p1262
sg45
S'17.8'
p1263
sg47
S'3.2'
p1264
sg49
S'.479'
p1265
sg51
S'6.1'
p1266
sg53
S'1980-81'
p1267
sg55
S'18.0'
p1268
sg57
S'3.8'
p1269
sg58
S'2.6'
p1270
sg60
S'8.6'
p1271
sg62
S'2309'
p1272
sba(isrc.gp1.models.Per36Minutes
Per36Minutes
p1273
(dp1274
g8
S'2.5'
p1275
sg10
S'0.6'
p1276
sg12
S'.488'
p1277
sg14
S'4.2'
p1278
sg16
S'.214'
p1279
sg18
S'0.1'
p1280
sg20
S'22.1'
p1281
sg21
S'SF'
p1282
sg23
S'.801'
p1283
sg27
S'NBA'
p1284
sg29
S'1.3'
p1285
sg31
S'18.9'
p1286
sg33
S'4.4'
p1287
sg34
S'4.5'
p1288
sg36
S'5.4'
p1289
sg38
S'24'
p1290
sg40
S'GSW'
p1291
sg42
S'76'
p1292
sg44
S'0.2'
p1293
sg45
S'9.1'
p1294
sg47
S'3.6'
p1295
sg49
S'18.3'
p1296
sg51
S'2.9'
p1297
sg53
S'1981-82'
p1298
sg55
S'9.2'
p1299
sg57
S'2.5'
p1300
sg58
S'.496'
p1301
sg60
S'1782'
p1302
sg62
g156
sba(isrc.gp1.models.Per36Minutes
Per36Minutes
p1303
(dp1304
g8
S'2.2'
p1305
sg10
S'0.2'
p1306
sg12
S'.487'
p1307
sg14
S'3.4'
p1308
sg16
S'.267'
p1309
sg18
S'0.1'
p1310
sg20
S'21.6'
p1311
sg21
S'SF'
p1312
sg23
S'.828'
p1313
sg27
S'NBA'
p1314
sg29
S'1.4'
p1315
sg31
S'18.2'
p1316
sg33
S'3.6'
p1317
sg34
S'4.6'
p1318
sg36
S'5.3'
p1319
sg38
S'25'
p1320
sg40
S'GSW'
p1321
sg42
S'67'
p1322
sg44
S'0.2'
p1323
sg45
S'8.8'
p1324
sg47
S'3.8'
p1325
sg49
S'17.9'
p1326
sg51
S'3.1'
p1327
sg53
S'1982-83'
p1328
sg55
S'8.8'
p1329
sg57
S'2.9'
p1330
sg58
S'.490'
p1331
sg60
S'2397'
p1332
sg62
S'57'
p1333
sba(isrc.gp1.models.Per36Minutes
Per36Minutes
p1334
(dp1335
g8
S'2.2'
p1336
sg10
S'0.9'
p1337
sg12
S'.473'
p1338
sg14
S'3.0'
p1339
sg16
S'.306'
p1340
sg18
S'0.3'
p1341
sg20
S'22.0'
p1342
sg21
S'SF'
p1343
sg23
S'.793'
p1344
sg27
S'NBA'
p1345
sg29
S'1.3'
p1346
sg31
S'18.4'
p1347
sg33
S'3.1'
p1348
sg34
S'5.4'
p1349
sg36
S'5.4'
p1350
sg38
S'26'
p1351
sg40
S'GSW'
p1352
sg42
S'79'
p1353
sg44
S'0.1'
p1354
sg45
S'8.5'
p1355
sg47
S'4.3'
p1356
sg49
S'17.6'
p1357
sg51
S'3.1'
p1358
sg53
S'1983-84'
p1359
sg55
S'8.7'
p1360
sg57
S'2.8'
p1361
sg58
S'.482'
p1362
sg60
S'2945'
p1363
sg62
S'76'
p1364
sba(isrc.gp1.models.Per36Minutes
Per36Minutes
p1365
(dp1366
g8
S'1.8'
p1367
sg10
S'1.8'
p1368
sg12
S'.460'
p1369
sg14
S'2.7'
p1370
sg16
S'.313'
p1371
sg18
S'0.5'
p1372
sg20
S'25.5'
p1373
sg21
S'SF'
p1374
sg23
S'.817'
p1375
sg27
S'NBA'
p1376
sg29
S'1.4'
p1377
sg31
S'20.8'
p1378
sg33
S'3.0'
p1379
sg34
S'7.2'
p1380
sg36
S'4.7'
p1381
sg38
S'27'
p1382
sg40
S'GSW'
p1383
sg42
S'78'
p1384
sg44
S'0.3'
p1385
sg45
S'9.0'
p1386
sg47
S'5.9'
p1387
sg49
S'19.0'
p1388
sg51
S'2.8'
p1389
sg53
S'1984-85'
p1390
sg55
S'9.6'
p1391
sg57
S'2.8'
p1392
sg58
S'.474'
p1393
sg60
S'3081'
p1394
sg62
S'77'
p1395
sba(isrc.gp1.models.Per36Minutes
Per36Minutes
p1396
(dp1397
g8
S'1.9'
p1398
sg10
S'0.7'
p1399
sg12
S'.482'
p1400
sg14
S'3.5'
p1401
sg16
S'.306'
p1402
sg18
S'0.2'
p1403
sg20
S'24.2'
p1404
sg21
S'SF'
p1405
sg23
S'.865'
p1406
sg27
S'NBA'
p1407
sg29
S'1.4'
p1408
sg31
S'19.5'
p1409
sg33
S'3.4'
p1410
sg34
S'6.0'
p1411
sg36
S'4.9'
p1412
sg38
S'28'
p1413
sg40
S'GSW'
p1414
sg42
S'64'
p1415
sg44
S'0.3'
p1416
sg45
S'9.2'
p1417
sg47
S'5.2'
p1418
sg49
S'18.7'
p1419
sg51
S'3.0'
p1420
sg53
S'1985-86'
p1421
sg55
S'9.4'
p1422
sg57
S'2.7'
p1423
sg58
S'.489'
p1424
sg60
S'2427'
p1425
sg62
S'63'
p1426
sba(isrc.gp1.models.Per36Minutes
Per36Minutes
p1427
(dp1428
g8
S'2.1'
p1429
sg10
S'0.6'
p1430
sg12
S'.479'
p1431
sg14
S'3.3'
p1432
sg16
S'.235'
p1433
sg18
S'0.2'
p1434
sg20
S'23.5'
p1435
sg21
S'SF'
p1436
sg23
S'.856'
p1437
sg27
S'NBA'
p1438
sg29
S'1.7'
p1439
sg31
S'19.0'
p1440
sg33
S'3.9'
p1441
sg34
S'6.1'
p1442
sg36
S'5.2'
p1443
sg38
S'29'
p1444
sg40
S'GSW'
p1445
sg42
S'34'
p1446
sg44
S'0.3'
p1447
sg45
S'8.9'
p1448
sg47
S'5.2'
p1449
sg49
S'18.3'
p1450
sg51
S'3.1'
p1451
sg53
S'1986-87'
p1452
sg55
S'9.1'
p1453
sg57
S'2.6'
p1454
sg58
S'.488'
p1455
sg60
S'950'
p1456
sg62
S'15'
p1457
sba(isrc.gp1.models.Per36Minutes
Per36Minutes
p1458
(dp1459
g8
S'1.3'
p1460
sg10
S'0.4'
p1461
sg12
S'.481'
p1462
sg14
S'3.0'
p1463
sg16
S'.238'
p1464
sg18
S'0.1'
p1465
sg20
S'21.4'
p1466
sg21
S'SG'
p1467
sg23
S'.858'
p1468
sg27
S'NBA'
p1469
sg29
S'1.1'
p1470
sg31
S'18.2'
p1471
sg33
S'3.6'
p1472
sg34
S'4.4'
p1473
sg36
S'4.1'
p1474
sg38
S'30'
p1475
sg40
S'HOU'
p1476
sg42
S'81'
p1477
sg44
S'0.3'
p1478
sg45
S'8.7'
p1479
sg47
S'3.8'
p1480
sg49
S'17.8'
p1481
sg51
S'2.8'
p1482
sg53
S'1987-88'
p1483
sg55
S'8.8'
p1484
sg57
S'2.2'
p1485
sg58
S'.486'
p1486
sg60
S'1949'
p1487
sg62
S'11'
p1488
sba(isrc.gp1.models.Per36Minutes
Per36Minutes
p1489
(dp1490
g8
S'2.0'
p1491
sg10
S'1.0'
p1492
sg12
S'.413'
p1493
sg14
S'3.3'
p1494
sg16
S'.273'
p1495
sg18
S'0.3'
p1496
sg20
S'15.0'
p1497
sg21
S'SF'
p1498
sg23
S'.865'
p1499
sg27
S'NBA'
p1500
sg29
S'1.4'
p1501
sg31
S'14.9'
p1502
sg33
S'3.6'
p1503
sg34
S'2.8'
p1504
sg36
S'5.6'
p1505
sg38
S'31'
p1506
sg40
S'HOU'
p1507
sg42
S'65'
p1508
sg44
S'0.4'
p1509
sg45
S'5.9'
p1510
sg47
S'2.4'
p1511
sg49
S'13.9'
p1512
sg51
S'3.5'
p1513
sg53
S'1988-89'
p1514
sg55
S'6.2'
p1515
sg57
S'2.2'
p1516
sg58
S'.423'
p1517
sg60
S'1157'
p1518
sg62
S'16'
p1519
sba(isrc.gp1.models.Per36Minutes
Per36Minutes
p1520
(dp1521
g8
S'1.6'
p1522
sg10
S'0.6'
p1523
sg12
S'.455'
p1524
sg14
S'2.4'
p1525
sg16
S'.286'
p1526
sg18
S'0.2'
p1527
sg20
S'17.4'
p1528
sg21
S'SF'
p1529
sg23
S'.835'
p1530
sg27
S'NBA'
p1531
sg29
S'1.1'
p1532
sg31
S'15.5'
p1533
sg33
S'3.3'
p1534
sg34
S'3.9'
p1535
sg36
S'4.0'
p1536
sg38
S'32'
p1537
sg40
S'NJN'
p1538
sg42
S'82'
p1539
sg44
S'0.3'
p1540
sg45
S'6.9'
p1541
sg47
S'3.2'
p1542
sg49
S'14.9'
p1543
sg51
S'2.4'
p1544
sg53
S'1989-90'
p1545
sg55
S'7.0'
p1546
sg57
S'1.9'
p1547
sg58
S'.461'
p1548
sg60
S'2213'
p1549
sg62
S'24'
p1550
sbasS'_fromYear'
p1551
S'1979'
p1552
sS'_url'
p1553
S'http://www.basketball-reference.com/players/s/shortpu01.html'
p1554
sS'_perGame'
p1555
(isrc.gp1.models.PerGame
PerGame
p1556
(dp1557
g8
S'1.2'
p1558
sg10
S'0.4'
p1559
sg12
S'.455'
p1560
sS'_effectiveFieldGalPercentage'
p1561
S'.460'
p1562
sg14
S'1.8'
p1563
sg16
S'.286'
p1564
sg18
S'0.1'
p1565
sg20
S'13.1'
p1566
sg21
S'SF'
p1567
sg23
S'.835'
p1568
sg27
S'NBA'
p1569
sg29
S'0.8'
p1570
sg33
S'2.5'
p1571
sS'_fieldGoalsttempted'
p1572
S'11.6'
p1573
sg34
S'2.9'
p1574
sg36
S'3.0'
p1575
sg38
S'32'
p1576
sg40
S'NJN'
p1577
sg42
S'82'
p1578
sg44
S'0.2'
p1579
sg45
S'5.1'
p1580
sg47
S'2.4'
p1581
sg49
S'11.2'
p1582
sg51
S'1.8'
p1583
sg53
S'1989-90'
p1584
sg55
S'5.3'
p1585
sg57
S'1.5'
p1586
sg58
S'.461'
p1587
sg60
S'27.0'
p1588
sg62
S'24'
p1589
sbsS'_weight'
p1590
S'210'
p1591
sS'_dob'
p1592
S'2-7-1957'
p1593
sS'_salary'
p1594
(lp1595
(isrc.gp1.models.Salary
Salary
p1596
(dp1597
g40
S'Golden State Warriors'
p1598
sg27
S'NBA'
p1599
sg1594
S'$545,000'
p1600
sg53
S'1985-86'
p1601
sba(isrc.gp1.models.Salary
Salary
p1602
(dp1603
g40
S'Houston Rockets'
p1604
sg27
S'NBA'
p1605
sg1594
S'$425,000'
p1606
sg53
S'1987-88'
p1607
sba(isrc.gp1.models.Salary
Salary
p1608
(dp1609
g40
S'Houston Rockets'
p1610
sg27
S'NBA'
p1611
sg1594
S'$650,000'
p1612
sg53
S'1988-89'
p1613
sbasg21
S'F-G'
p1614
sb.