(isrc.gp1.models.Player
Player
p0
(dp1
S'_experience'
p2
S'NA'
p3
sS'_totals'
p4
(lp5
(isrc.gp1.models.Totals
Totals
p6
(dp7
S'_offensiveRebounds'
p8
S'6'
p9
sS'_threePointsAttempted'
p10
S'57'
p11
sS'_fieldGoalsPercentage'
p12
S'.366'
p13
sS'_assist'
p14
S'65'
p15
sS'_threePointsPercentage'
p16
S'.351'
p17
sS'_threePoints'
p18
S'20'
p19
sS'_points'
p20
S'141'
p21
sS'_position'
p22
S'PG'
p23
sS'_freeThrowsPercentage'
p24
S'.676'
p25
sS'_effectiveFieldGoalPercentage'
p26
S'.443'
p27
sS'_league'
p28
S'NBA'
p29
sS'_steals'
p30
S'15'
p31
sS'_fieldGoalsAttempted'
p32
S'131'
p33
sS'_personalFouls'
p34
S'32'
p35
sS'_freeThrowsAttempted'
p36
S'37'
p37
sS'_totalRebounds'
p38
S'30'
p39
sS'_age'
p40
S'23'
p41
sS'_team'
p42
S'MIA'
p43
sS'_games'
p44
S'42'
p45
sS'_blocks'
p46
S'0'
p47
sS'_twoPoints'
p48
S'28'
p49
sS'_freeThrows'
p50
S'25'
p51
sS'_twoPointsAttempted'
p52
S'74'
p53
sS'_defensiveRebounds'
p54
S'24'
p55
sS'_season'
p56
S'2006-07'
p57
sS'_fieldGoals'
p58
S'48'
p59
sS'_turnOvers'
p60
S'21'
p61
sS'_twoPointsPercentage'
p62
S'.378'
p63
sS'_minutesPlayed'
p64
S'408'
p65
sS'_gamesStarted'
p66
S'1'
p67
sba(isrc.gp1.models.Totals
Totals
p68
(dp69
g8
S'11'
p70
sg10
S'159'
p71
sg12
S'.424'
p72
sg14
S'178'
p73
sg16
S'.403'
p74
sg18
S'64'
p75
sg20
S'465'
p76
sg22
S'PG'
p77
sg24
S'.867'
p78
sg26
S'.509'
p79
sg28
S'NBA'
p80
sg30
S'46'
p81
sg32
S'373'
p82
sg34
S'90'
p83
sg36
S'98'
p84
sg38
S'118'
p85
sg40
S'24'
p86
sg42
S'MIA'
p87
sg44
S'60'
p88
sg46
S'4'
p89
sg48
S'94'
p90
sg50
S'85'
p91
sg52
S'214'
p92
sg54
S'107'
p93
sg56
S'2007-08'
p94
sg58
S'158'
p95
sg60
S'55'
p96
sg62
S'.439'
p97
sg64
S'1340'
p98
sg66
S'25'
p99
sba(isrc.gp1.models.Totals
Totals
p100
(dp101
g8
S'8'
p102
sg10
S'137'
p103
sg12
S'.408'
p104
sg14
S'132'
p105
sg16
S'.409'
p106
sg18
S'56'
p107
sg20
S'339'
p108
sg22
S'PG'
p109
sg24
S'.810'
p110
sg26
S'.505'
p111
sg28
S'NBA'
p112
sg30
S'24'
p113
sg32
S'289'
p114
sg34
S'79'
p115
sg36
S'58'
p116
sg38
S'75'
p117
sg40
S'25'
p118
sg42
S'MIA'
p119
sg44
S'66'
p120
sg46
S'2'
p121
sg48
S'62'
p122
sg50
S'47'
p123
sg52
S'152'
p124
sg54
S'67'
p125
sg56
S'2008-09'
p126
sg58
S'118'
p127
sg60
S'33'
p128
sg62
S'.408'
p129
sg64
S'962'
p130
sg66
g47
sba(isrc.gp1.models.Totals
Totals
p131
(dp132
g8
g67
sg10
S'32'
p133
sg12
S'.357'
p134
sg14
S'29'
p135
sg16
S'.313'
p136
sg18
S'10'
p137
sg20
S'56'
p138
sg22
S'PG'
p139
sg24
S'1.000'
p140
sg26
S'.446'
p141
sg28
S'NBA'
p142
sg30
S'9'
p143
sg32
S'56'
p144
sg34
S'15'
p145
sg36
g9
sg38
S'16'
p146
sg40
S'26'
p147
sg42
S'NJN'
p148
sg44
S'25'
p149
sg46
g67
sg48
S'10'
p150
sg50
g9
sg52
S'24'
p151
sg54
S'15'
p152
sg56
S'2009-10'
p153
sg58
S'20'
p154
sg60
S'10'
p155
sg62
S'.417'
p156
sg64
S'223'
p157
sg66
g47
sba(isrc.gp1.models.Totals
Totals
p158
(dp159
g8
S'3'
p160
sg10
S'37'
p161
sg12
S'.363'
p162
sg14
S'42'
p163
sg16
S'.297'
p164
sg18
S'11'
p165
sg20
S'81'
p166
sg22
S'PG'
p167
sg24
S'.500'
p168
sg26
S'.423'
p169
sg28
S'NBA'
p170
sg30
S'5'
p171
sg32
S'91'
p172
sg34
S'29'
p173
sg36
g102
sg38
S'25'
p174
sg40
S'27'
p175
sg42
S'SAS'
p176
sg44
S'41'
p177
sg46
g67
sg48
S'22'
p178
sg50
g89
sg52
S'54'
p179
sg54
S'22'
p180
sg56
S'2010-11'
p181
sg58
S'33'
p182
sg60
S'12'
p183
sg62
S'.407'
p184
sg64
S'292'
p185
sg66
g47
sba(isrc.gp1.models.Totals
Totals
p186
(dp187
g8
g3
sg10
g3
sg12
g3
sg14
g3
sg16
g3
sg18
g3
sg20
g3
sg22
g3
sg24
g3
sg26
g3
sg28
g3
sg30
g3
sg32
g3
sg34
g3
sg36
g3
sg38
g3
sg40
S'28'
p188
sg42
S'Did Not Play\xc2\xa0(other pro league\xe2\x80\x94Russia)'
p189
sg44
g3
sg46
g3
sg48
g3
sg50
g3
sg52
g3
sg54
g3
sg56
S'2011-12'
p190
sg58
g3
sg60
g3
sg62
g3
sg64
g3
sg66
g3
sba(isrc.gp1.models.Totals
Totals
p191
(dp192
g8
g67
sg10
g171
sg12
S'.250'
p193
sg14
g143
sg16
S'.000'
p194
sg18
g47
sg20
S'10'
p195
sg22
S'SG'
p196
sg24
S'1.000'
p197
sg26
S'.250'
p198
sg28
S'NBA'
p199
sg30
g160
sg32
S'16'
p200
sg34
g89
sg36
g121
sg38
g121
sg40
S'29'
p201
sg42
S'CLE'
p202
sg44
S'7'
p203
sg46
g47
sg48
g89
sg50
g121
sg52
S'11'
p204
sg54
g67
sg56
S'2012-13'
p205
sg58
g89
sg60
g9
sg62
S'.364'
p206
sg64
S'78'
p207
sg66
g47
sbasS'_college'
p208
S'University of Notre Dame'
p209
sS'_toYear'
p210
S'2013'
p211
sS'_height'
p212
S'6-2'
p213
sS'_active'
p214
I00
sS'_shootingHand'
p215
VRight
p216
sS'_name'
p217
S'Chris Quinn'
p218
sS'_per100Possessions'
p219
(lp220
(isrc.gp1.models.Per100Possession
Per100Possession
p221
(dp222
g8
S'0.8'
p223
sg10
S'7.5'
p224
sg12
S'.366'
p225
sS'_offensiveRating'
p226
S'103'
p227
sg14
S'8.5'
p228
sg16
S'.351'
p229
sg18
S'2.6'
p230
sg20
S'18.4'
p231
sg22
S'PG'
p232
sS'_defensiveRating'
p233
S'108'
p234
sg24
S'.676'
p235
sg28
S'NBA'
p236
sg30
S'2.0'
p237
sg32
S'17.1'
p238
sg34
S'4.2'
p239
sg36
S'4.8'
p240
sg38
S'3.9'
p241
sg40
S'23'
p242
sg42
S'MIA'
p243
sg44
S'42'
p244
sg46
S'0.0'
p245
sg48
S'3.7'
p246
sg50
S'3.3'
p247
sg52
S'9.7'
p248
sg54
S'3.1'
p249
sg56
S'2006-07'
p250
sg58
S'6.3'
p251
sg60
S'2.7'
p252
sg62
S'.378'
p253
sg64
S'408'
p254
sg66
g67
sba(isrc.gp1.models.Per100Possession
Per100Possession
p255
(dp256
g8
S'0.4'
p257
sg10
S'6.3'
p258
sg12
S'.424'
p259
sg226
S'113'
p260
sg14
S'7.1'
p261
sg16
S'.403'
p262
sg18
S'2.5'
p263
sg20
S'18.5'
p264
sg22
S'PG'
p265
sg233
S'112'
p266
sg24
S'.867'
p267
sg28
S'NBA'
p268
sg30
S'1.8'
p269
sg32
S'14.8'
p270
sg34
S'3.6'
p271
sg36
S'3.9'
p272
sg38
S'4.7'
p273
sg40
S'24'
p274
sg42
S'MIA'
p275
sg44
S'60'
p276
sg46
S'0.2'
p277
sg48
S'3.7'
p278
sg50
S'3.4'
p279
sg52
S'8.5'
p280
sg54
S'4.2'
p281
sg56
S'2007-08'
p282
sg58
S'6.3'
p283
sg60
S'2.2'
p284
sg62
S'.439'
p285
sg64
S'1340'
p286
sg66
S'25'
p287
sba(isrc.gp1.models.Per100Possession
Per100Possession
p288
(dp289
g8
S'0.4'
p290
sg10
S'7.6'
p291
sg12
S'.408'
p292
sg226
S'114'
p293
sg14
S'7.3'
p294
sg16
S'.409'
p295
sg18
S'3.1'
p296
sg20
S'18.8'
p297
sg22
S'PG'
p298
sg233
S'112'
p299
sg24
S'.810'
p300
sg28
S'NBA'
p301
sg30
S'1.3'
p302
sg32
S'16.0'
p303
sg34
S'4.4'
p304
sg36
S'3.2'
p305
sg38
S'4.2'
p306
sg40
S'25'
p307
sg42
S'MIA'
p308
sg44
S'66'
p309
sg46
S'0.1'
p310
sg48
S'3.4'
p311
sg50
S'2.6'
p312
sg52
S'8.4'
p313
sg54
S'3.7'
p314
sg56
S'2008-09'
p315
sg58
S'6.5'
p316
sg60
S'1.8'
p317
sg62
S'.408'
p318
sg64
S'962'
p319
sg66
g47
sba(isrc.gp1.models.Per100Possession
Per100Possession
p320
(dp321
g8
S'0.2'
p322
sg10
S'7.5'
p323
sg12
S'.357'
p324
sg226
S'99'
p325
sg14
S'6.8'
p326
sg16
S'.313'
p327
sg18
S'2.4'
p328
sg20
S'13.2'
p329
sg22
S'PG'
p330
sg233
S'112'
p331
sg24
S'1.000'
p332
sg28
S'NBA'
p333
sg30
S'2.1'
p334
sg32
S'13.2'
p335
sg34
S'3.5'
p336
sg36
S'1.4'
p337
sg38
S'3.8'
p338
sg40
S'26'
p339
sg42
S'NJN'
p340
sg44
S'25'
p341
sg46
S'0.2'
p342
sg48
S'2.4'
p343
sg50
S'1.4'
p344
sg52
S'5.7'
p345
sg54
S'3.5'
p346
sg56
S'2009-10'
p347
sg58
S'4.7'
p348
sg60
S'2.4'
p349
sg62
S'.417'
p350
sg64
S'223'
p351
sg66
g47
sba(isrc.gp1.models.Per100Possession
Per100Possession
p352
(dp353
g8
S'0.5'
p354
sg10
S'6.6'
p355
sg12
S'.363'
p356
sg226
S'97'
p357
sg14
S'7.5'
p358
sg16
S'.297'
p359
sg18
S'2.0'
p360
sg20
S'14.4'
p361
sg22
S'PG'
p362
sg233
S'110'
p363
sg24
S'.500'
p364
sg28
S'NBA'
p365
sg30
S'0.9'
p366
sg32
S'16.2'
p367
sg34
S'5.2'
p368
sg36
S'1.4'
p369
sg38
S'4.5'
p370
sg40
S'27'
p371
sg42
S'SAS'
p372
sg44
S'41'
p373
sg46
S'0.2'
p374
sg48
S'3.9'
p375
sg50
S'0.7'
p376
sg52
S'9.6'
p377
sg54
S'3.9'
p378
sg56
S'2010-11'
p379
sg58
S'5.9'
p380
sg60
S'2.1'
p381
sg62
S'.407'
p382
sg64
S'292'
p383
sg66
g47
sba(isrc.gp1.models.Per100Possession
Per100Possession
p384
(dp385
g8
S'0.7'
p386
sg10
S'3.3'
p387
sg12
S'.250'
p388
sg226
S'66'
p389
sg14
S'6.0'
p390
sg16
S'.000'
p391
sg18
S'0.0'
p392
sg20
S'6.7'
p393
sg22
S'SG'
p394
sg233
S'113'
p395
sg24
S'1.000'
p396
sg28
S'NBA'
p397
sg30
S'2.0'
p398
sg32
S'10.7'
p399
sg34
S'2.7'
p400
sg36
S'1.3'
p401
sg38
S'1.3'
p402
sg40
S'29'
p403
sg42
S'CLE'
p404
sg44
g203
sg46
S'0.0'
p405
sg48
S'2.7'
p406
sg50
S'1.3'
p407
sg52
S'7.3'
p408
sg54
S'0.7'
p409
sg56
S'2012-13'
p410
sg58
S'2.7'
p411
sg60
S'4.0'
p412
sg62
S'.364'
p413
sg64
S'78'
p414
sg66
g47
sbasS'_advanced'
p415
(lp416
(isrc.gp1.models.Advanced
Advanced
p417
(dp418
S'_offensiveReboundPercentage'
p419
S'1.8'
p420
sS'_turnOverPercentage'
p421
S'12.5'
p422
sS'_winSharesPer48Minutes'
p423
S'.070'
p424
sS'_stealPercentage'
p425
S'2.0'
p426
sS'_usagePercentage'
p427
S'19.6'
p428
sS'_totalReboundsPercentage'
p429
S'4.3'
p430
sS'_defensiveBoxPlusMinus'
p431
S'-2.9'
p432
sg22
S'PG'
p433
sS'_valueOverReplacementPlayer'
p434
S'-0.2'
p435
sS'_trueShootingPercentage'
p436
S'.479'
p437
sS'_defensiveReboundPercentage'
p438
S'6.8'
p439
sS'_freeThrowsAttempRate'
p440
S'.282'
p441
sS'_threePointsAttempRate'
p442
S'.435'
p443
sg28
S'NBA'
p444
sS'_offensiveBoxPlusMinues'
p445
S'-1.0'
p446
sS'_assistPercentage'
p447
S'25.8'
p448
sS'_defensiveWinShares'
p449
S'0.3'
p450
sg40
S'23'
p451
sg42
S'MIA'
p452
sg44
S'42'
p453
sS'_blockPercentage'
p454
S'0.0'
p455
sS'_playerEfficiencyRating'
p456
S'12.3'
p457
sS'_offensiveWinShares'
p458
S'0.3'
p459
sg64
S'408'
p460
sS'_boxPlusMinus'
p461
S'-3.9'
p462
sg56
S'2006-07'
p463
sS'_winShares'
p464
S'0.6'
p465
sba(isrc.gp1.models.Advanced
Advanced
p466
(dp467
g419
S'1.0'
p468
sg421
S'11.7'
p469
sg423
S'.092'
p470
sg425
S'1.8'
p471
sg427
S'16.6'
p472
sg429
S'5.3'
p473
sg431
S'-1.9'
p474
sg22
S'PG'
p475
sg434
S'0.1'
p476
sg436
S'.559'
p477
sg438
S'9.7'
p478
sg440
S'.263'
p479
sg442
S'.426'
p480
sg28
S'NBA'
p481
sg445
S'0.3'
p482
sg447
S'22.5'
p483
sg449
S'0.7'
p484
sg40
S'24'
p485
sg42
S'MIA'
p486
sg44
S'60'
p487
sg454
S'0.2'
p488
sg456
S'13.8'
p489
sg458
S'1.9'
p490
sg64
S'1340'
p491
sg461
S'-1.6'
p492
sg56
S'2007-08'
p493
sg464
S'2.6'
p494
sba(isrc.gp1.models.Advanced
Advanced
p495
(dp496
g419
S'1.0'
p497
sg421
S'9.5'
p498
sg423
S'.104'
p499
sg425
S'1.3'
p500
sg427
S'17.0'
p501
sg429
S'4.7'
p502
sg431
S'-2.8'
p503
sg22
S'PG'
p504
sg434
S'-0.2'
p505
sg436
S'.539'
p506
sg438
S'8.4'
p507
sg440
S'.201'
p508
sg442
S'.474'
p509
sg28
S'NBA'
p510
sg445
S'-0.1'
p511
sg447
S'21.5'
p512
sg449
S'0.6'
p513
sg40
S'25'
p514
sg42
S'MIA'
p515
sg44
S'66'
p516
sg454
S'0.2'
p517
sg456
S'12.9'
p518
sg458
S'1.5'
p519
sg64
S'962'
p520
sg461
S'-2.9'
p521
sg56
S'2008-09'
p522
sg464
S'2.1'
p523
sba(isrc.gp1.models.Advanced
Advanced
p524
(dp525
g419
S'0.5'
p526
sg421
S'14.6'
p527
sg423
S'.025'
p528
sg425
S'2.1'
p529
sg427
S'14.1'
p530
sg429
S'4.1'
p531
sg431
S'-2.6'
p532
sg22
S'PG'
p533
sg434
S'-0.2'
p534
sg436
S'.477'
p535
sg438
S'8.1'
p536
sg440
S'.107'
p537
sg442
S'.571'
p538
sg28
S'NBA'
p539
sg445
S'-2.6'
p540
sg447
S'20.9'
p541
sg449
S'0.1'
p542
sg40
S'26'
p543
sg42
S'NJN'
p544
sg44
S'25'
p545
sg454
S'0.3'
p546
sg456
S'9.3'
p547
sg458
S'0.0'
p548
sg64
S'223'
p549
sg461
S'-5.2'
p550
sg56
S'2009-10'
p551
sg464
S'0.1'
p552
sba(isrc.gp1.models.Advanced
Advanced
p553
(dp554
g419
S'1.2'
p555
sg421
S'11.3'
p556
sg423
S'.024'
p557
sg425
S'0.9'
p558
sg427
S'16.8'
p559
sg429
S'5.0'
p560
sg431
S'-2.3'
p561
sg22
S'PG'
p562
sg434
S'-0.2'
p563
sg436
S'.428'
p564
sg438
S'8.5'
p565
sg440
S'.088'
p566
sg442
S'.407'
p567
sg28
S'NBA'
p568
sg445
S'-3.0'
p569
sg447
S'21.1'
p570
sg449
S'0.2'
p571
sg40
S'27'
p572
sg42
S'SAS'
p573
sg44
S'41'
p574
sg454
S'0.2'
p575
sg456
S'7.5'
p576
sg458
S'-0.1'
p577
sg64
S'292'
p578
sg461
S'-5.3'
p579
sg56
S'2010-11'
p580
sg464
S'0.1'
p581
sba(isrc.gp1.models.Advanced
Advanced
p582
(dp583
g419
S'1.4'
p584
sg421
S'26.2'
p585
sg423
S'-0.124'
p586
sg425
S'2.0'
p587
sg427
S'13.1'
p588
sg429
S'1.5'
p589
sg431
S'-3.1'
p590
sg22
S'SG'
p591
sg434
S'-0.2'
p592
sg436
S'.296'
p593
sg438
S'1.6'
p594
sg440
S'.125'
p595
sg442
S'.313'
p596
sg28
S'NBA'
p597
sg445
S'-7.7'
p598
sg447
S'16.3'
p599
sg449
S'0.0'
p600
sg40
S'29'
p601
sg42
S'CLE'
p602
sg44
g203
sg454
S'0.0'
p603
sg456
S'1.3'
p604
sg458
S'-0.2'
p605
sg64
S'78'
p606
sg461
S'-10.8'
p607
sg56
S'2012-13'
p608
sg464
S'-0.2'
p609
sbasS'_per36Minutes'
p610
(lp611
(isrc.gp1.models.Per36Minutes
Per36Minutes
p612
(dp613
g8
S'0.5'
p614
sg10
S'5.0'
p615
sg12
S'.366'
p616
sg14
S'5.7'
p617
sg16
S'.351'
p618
sg18
S'1.8'
p619
sg20
S'12.4'
p620
sg22
S'PG'
p621
sg24
S'.676'
p622
sg28
S'NBA'
p623
sg30
S'1.3'
p624
sg32
S'11.6'
p625
sg34
S'2.8'
p626
sg36
S'3.3'
p627
sg38
S'2.6'
p628
sg40
S'23'
p629
sg42
S'MIA'
p630
sg44
S'42'
p631
sg46
S'0.0'
p632
sg48
S'2.5'
p633
sg50
S'2.2'
p634
sg52
S'6.5'
p635
sg54
S'2.1'
p636
sg56
S'2006-07'
p637
sg58
S'4.2'
p638
sg60
S'1.9'
p639
sg62
S'.378'
p640
sg64
S'408'
p641
sg66
g67
sba(isrc.gp1.models.Per36Minutes
Per36Minutes
p642
(dp643
g8
S'0.3'
p644
sg10
S'4.3'
p645
sg12
S'.424'
p646
sg14
S'4.8'
p647
sg16
S'.403'
p648
sg18
S'1.7'
p649
sg20
S'12.5'
p650
sg22
S'PG'
p651
sg24
S'.867'
p652
sg28
S'NBA'
p653
sg30
S'1.2'
p654
sg32
S'10.0'
p655
sg34
S'2.4'
p656
sg36
S'2.6'
p657
sg38
S'3.2'
p658
sg40
S'24'
p659
sg42
S'MIA'
p660
sg44
S'60'
p661
sg46
S'0.1'
p662
sg48
S'2.5'
p663
sg50
S'2.3'
p664
sg52
S'5.7'
p665
sg54
S'2.9'
p666
sg56
S'2007-08'
p667
sg58
S'4.2'
p668
sg60
S'1.5'
p669
sg62
S'.439'
p670
sg64
S'1340'
p671
sg66
S'25'
p672
sba(isrc.gp1.models.Per36Minutes
Per36Minutes
p673
(dp674
g8
S'0.3'
p675
sg10
S'5.1'
p676
sg12
S'.408'
p677
sg14
S'4.9'
p678
sg16
S'.409'
p679
sg18
S'2.1'
p680
sg20
S'12.7'
p681
sg22
S'PG'
p682
sg24
S'.810'
p683
sg28
S'NBA'
p684
sg30
S'0.9'
p685
sg32
S'10.8'
p686
sg34
S'3.0'
p687
sg36
S'2.2'
p688
sg38
S'2.8'
p689
sg40
S'25'
p690
sg42
S'MIA'
p691
sg44
S'66'
p692
sg46
S'0.1'
p693
sg48
S'2.3'
p694
sg50
S'1.8'
p695
sg52
S'5.7'
p696
sg54
S'2.5'
p697
sg56
S'2008-09'
p698
sg58
S'4.4'
p699
sg60
S'1.2'
p700
sg62
S'.408'
p701
sg64
S'962'
p702
sg66
g47
sba(isrc.gp1.models.Per36Minutes
Per36Minutes
p703
(dp704
g8
S'0.2'
p705
sg10
S'5.2'
p706
sg12
S'.357'
p707
sg14
S'4.7'
p708
sg16
S'.313'
p709
sg18
S'1.6'
p710
sg20
S'9.0'
p711
sg22
S'PG'
p712
sg24
S'1.000'
p713
sg28
S'NBA'
p714
sg30
S'1.5'
p715
sg32
S'9.0'
p716
sg34
S'2.4'
p717
sg36
S'1.0'
p718
sg38
S'2.6'
p719
sg40
S'26'
p720
sg42
S'NJN'
p721
sg44
S'25'
p722
sg46
S'0.2'
p723
sg48
S'1.6'
p724
sg50
S'1.0'
p725
sg52
S'3.9'
p726
sg54
S'2.4'
p727
sg56
S'2009-10'
p728
sg58
S'3.2'
p729
sg60
S'1.6'
p730
sg62
S'.417'
p731
sg64
S'223'
p732
sg66
g47
sba(isrc.gp1.models.Per36Minutes
Per36Minutes
p733
(dp734
g8
S'0.4'
p735
sg10
S'4.6'
p736
sg12
S'.363'
p737
sg14
S'5.2'
p738
sg16
S'.297'
p739
sg18
S'1.4'
p740
sg20
S'10.0'
p741
sg22
S'PG'
p742
sg24
S'.500'
p743
sg28
S'NBA'
p744
sg30
S'0.6'
p745
sg32
S'11.2'
p746
sg34
S'3.6'
p747
sg36
S'1.0'
p748
sg38
S'3.1'
p749
sg40
S'27'
p750
sg42
S'SAS'
p751
sg44
S'41'
p752
sg46
S'0.1'
p753
sg48
S'2.7'
p754
sg50
S'0.5'
p755
sg52
S'6.7'
p756
sg54
S'2.7'
p757
sg56
S'2010-11'
p758
sg58
S'4.1'
p759
sg60
S'1.5'
p760
sg62
S'.407'
p761
sg64
S'292'
p762
sg66
g47
sba(isrc.gp1.models.Per36Minutes
Per36Minutes
p763
(dp764
g8
S'0.5'
p765
sg10
S'2.3'
p766
sg12
S'.250'
p767
sg14
S'4.2'
p768
sg16
S'.000'
p769
sg18
S'0.0'
p770
sg20
S'4.6'
p771
sg22
S'SG'
p772
sg24
S'1.000'
p773
sg28
S'NBA'
p774
sg30
S'1.4'
p775
sg32
S'7.4'
p776
sg34
S'1.8'
p777
sg36
S'0.9'
p778
sg38
S'0.9'
p779
sg40
S'29'
p780
sg42
S'CLE'
p781
sg44
g203
sg46
S'0.0'
p782
sg48
S'1.8'
p783
sg50
S'0.9'
p784
sg52
S'5.1'
p785
sg54
S'0.5'
p786
sg56
S'2012-13'
p787
sg58
S'1.8'
p788
sg60
S'2.8'
p789
sg62
S'.364'
p790
sg64
S'78'
p791
sg66
g47
sbasS'_fromYear'
p792
S'2007'
p793
sS'_url'
p794
S'http://www.basketball-reference.com/players/q/quinnch01.html'
p795
sS'_perGame'
p796
(isrc.gp1.models.PerGame
PerGame
p797
(dp798
g8
S'0.1'
p799
sg10
S'0.7'
p800
sg12
S'.250'
p801
sS'_effectiveFieldGalPercentage'
p802
S'.250'
p803
sg14
S'1.3'
p804
sg16
S'.000'
p805
sg18
S'0.0'
p806
sg20
S'1.4'
p807
sg22
S'SG'
p808
sg24
S'1.000'
p809
sg28
S'NBA'
p810
sg30
S'0.4'
p811
sg34
S'0.6'
p812
sS'_fieldGoalsttempted'
p813
S'2.3'
p814
sg36
S'0.3'
p815
sg38
S'0.3'
p816
sg40
S'29'
p817
sg42
S'CLE'
p818
sg44
g203
sg46
S'0.0'
p819
sg48
S'0.6'
p820
sg50
S'0.3'
p821
sg52
S'1.6'
p822
sg54
S'0.1'
p823
sg56
S'2012-13'
p824
sg58
S'0.6'
p825
sg60
S'0.9'
p826
sg62
S'.364'
p827
sg64
S'11.1'
p828
sg66
g47
sbsS'_weight'
p829
S'185'
p830
sS'_dob'
p831
S'27-9-1983'
p832
sS'_salary'
p833
(lp834
(isrc.gp1.models.Salary
Salary
p835
(dp836
g42
S'Miami Heat'
p837
sg28
S'NBA'
p838
sg833
S'$412,718'
p839
sg56
S'2006-07'
p840
sba(isrc.gp1.models.Salary
Salary
p841
(dp842
g42
S'Miami Heat'
p843
sg28
S'NBA'
p844
sg833
S'$687,456'
p845
sg56
S'2007-08'
p846
sba(isrc.gp1.models.Salary
Salary
p847
(dp848
g42
S'Miami Heat'
p849
sg28
S'NBA'
p850
sg833
S'$972,581'
p851
sg56
S'2008-09'
p852
sba(isrc.gp1.models.Salary
Salary
p853
(dp854
g42
S'New Jersey Nets'
p855
sg28
S'NBA'
p856
sg833
S'$1,055,000'
p857
sg56
S'2009-10'
p858
sba(isrc.gp1.models.Salary
Salary
p859
(dp860
g42
S'San Antonio Spurs'
p861
sg28
S'NBA'
p862
sg833
S'$861,978'
p863
sg56
S'2010-11'
p864
sbasg22
S'G'
p865
sb.