(isrc.gp1.models.Player
Player
p0
(dp1
S'_experience'
p2
S'NA'
p3
sS'_totals'
p4
(lp5
(isrc.gp1.models.Totals
Totals
p6
(dp7
S'_offensiveRebounds'
p8
S'45'
p9
sS'_threePointsAttempted'
p10
S'157'
p11
sS'_fieldGoalsPercentage'
p12
S'.412'
p13
sS'_assist'
p14
S'81'
p15
sS'_threePointsPercentage'
p16
S'.420'
p17
sS'_threePoints'
p18
S'66'
p19
sS'_points'
p20
S'407'
p21
sS'_position'
p22
S'PF'
p23
sS'_freeThrowsPercentage'
p24
S'.681'
p25
sS'_effectiveFieldGoalPercentage'
p26
S'.506'
p27
sS'_league'
p28
S'NBA'
p29
sS'_steals'
p30
S'56'
p31
sS'_fieldGoalsAttempted'
p32
S'354'
p33
sS'_personalFouls'
p34
S'119'
p35
sS'_freeThrowsAttempted'
p36
S'72'
p37
sS'_totalRebounds'
p38
S'230'
p39
sS'_age'
p40
S'21'
p41
sS'_team'
p42
S'SEA'
p43
sS'_games'
p44
S'61'
p45
sS'_blocks'
p46
S'24'
p47
sS'_twoPoints'
p48
S'80'
p49
sS'_freeThrows'
p50
S'49'
p51
sS'_twoPointsAttempted'
p52
S'197'
p53
sS'_defensiveRebounds'
p54
S'185'
p55
sS'_season'
p56
S'2001-02'
p57
sS'_fieldGoals'
p58
S'146'
p59
sS'_turnOvers'
p60
S'72'
p61
sS'_twoPointsPercentage'
p62
S'.406'
p63
sS'_minutesPlayed'
p64
S'1230'
p65
sS'_gamesStarted'
p66
S'16'
p67
sba(isrc.gp1.models.Totals
Totals
p68
(dp69
g8
S'76'
p70
sg10
S'293'
p71
sg12
S'.410'
p72
sg14
S'97'
p73
sg16
S'.355'
p74
sg18
S'104'
p75
sg20
S'724'
p76
sg22
S'PF'
p77
sg24
S'.706'
p78
sg26
S'.488'
p79
sg28
S'NBA'
p80
sg30
S'64'
p81
sg32
S'668'
p82
sg34
S'136'
p83
sg36
S'102'
p84
sg38
S'323'
p85
sg40
S'22'
p86
sg42
S'SEA'
p87
sg44
S'72'
p88
sg46
S'22'
p89
sg48
S'170'
p90
sg50
S'72'
p91
sg52
S'375'
p92
sg54
S'247'
p93
sg56
S'2002-03'
p94
sg58
S'274'
p95
sg60
S'100'
p96
sg62
S'.453'
p97
sg64
S'1910'
p98
sg66
S'16'
p99
sba(isrc.gp1.models.Totals
Totals
p100
(dp101
g8
S'104'
p102
sg10
S'377'
p103
sg12
S'.425'
p104
sg14
S'142'
p105
sg16
S'.371'
p106
sg18
S'140'
p107
sg20
S'925'
p108
sg22
S'PF'
p109
sg24
S'.748'
p110
sg26
S'.511'
p111
sg28
S'NBA'
p112
sg30
S'80'
p113
sg32
S'812'
p114
sg34
S'187'
p115
sg36
S'127'
p116
sg38
S'406'
p117
sg40
S'23'
p118
sg42
S'SEA'
p119
sg44
S'77'
p120
sg46
S'42'
p121
sg48
S'205'
p122
sg50
S'95'
p123
sg52
S'435'
p124
sg54
S'302'
p125
sg56
S'2003-04'
p126
sg58
S'345'
p127
sg60
S'109'
p128
sg62
S'.471'
p129
sg64
S'2321'
p130
sg66
S'38'
p131
sba(isrc.gp1.models.Totals
Totals
p132
(dp133
g8
S'52'
p134
sg10
S'329'
p135
sg12
S'.409'
p136
sg14
S'86'
p137
sg16
S'.389'
p138
sg18
S'128'
p139
sg20
S'741'
p140
sg22
S'PF'
p141
sg24
S'.786'
p142
sg26
S'.508'
p143
sg28
S'NBA'
p144
sg30
S'57'
p145
sg32
S'650'
p146
sg34
S'172'
p147
sg36
S'103'
p148
sg38
S'289'
p149
sg40
S'24'
p150
sg42
S'SEA'
p151
sg44
S'63'
p152
sg46
S'31'
p153
sg48
S'138'
p154
sg50
S'81'
p155
sg52
S'321'
p156
sg54
S'237'
p157
sg56
S'2004-05'
p158
sg58
S'266'
p159
sg60
S'80'
p160
sg62
S'.430'
p161
sg64
S'1856'
p162
sg66
S'0'
p163
sba(isrc.gp1.models.Totals
Totals
p164
(dp165
g8
S'64'
p166
sg10
S'354'
p167
sg12
S'.407'
p168
sg14
S'136'
p169
sg16
S'.390'
p170
sg18
S'138'
p171
sg20
S'755'
p172
sg22
S'PF'
p173
sg24
S'.816'
p174
sg26
S'.515'
p175
sg28
S'NBA'
p176
sg30
S'61'
p177
sg32
S'643'
p178
sg34
S'210'
p179
sg36
S'114'
p180
sg38
S'358'
p181
sg40
S'25'
p182
sg42
S'TOT'
p183
sg44
S'77'
p184
sg46
S'29'
p185
sg48
S'124'
p186
sg50
S'93'
p187
sg52
S'289'
p188
sg54
S'294'
p189
sg56
S'2005-06'
p190
sg58
S'262'
p191
sg60
S'93'
p192
sg62
S'.429'
p193
sg64
S'1974'
p194
sg66
S'27'
p195
sba(isrc.gp1.models.Totals
Totals
p196
(dp197
g8
S'39'
p198
sg10
S'196'
p199
sg12
S'.401'
p200
sg14
S'72'
p201
sg16
S'.367'
p202
sg18
S'72'
p203
sg20
S'435'
p204
sg22
S'PF'
p205
sg24
S'.887'
p206
sg26
S'.495'
p207
sg28
S'NBA'
p208
sg30
S'32'
p209
sg32
S'384'
p210
sg34
S'130'
p211
sg36
S'62'
p212
sg38
S'187'
p213
sg40
S'25'
p214
sg42
S'SEA'
p215
sg44
S'47'
p216
sg46
S'15'
p217
sg48
S'82'
p218
sg50
S'55'
p219
sg52
S'188'
p220
sg54
S'148'
p221
sg56
S'2005-06'
p222
sg58
S'154'
p223
sg60
S'53'
p224
sg62
S'.436'
p225
sg64
S'1089'
p226
sg66
S'16'
p227
sba(isrc.gp1.models.Totals
Totals
p228
(dp229
g8
S'25'
p230
sg10
S'158'
p231
sg12
S'.417'
p232
sg14
S'64'
p233
sg16
S'.418'
p234
sg18
S'66'
p235
sg20
S'320'
p236
sg22
S'PF'
p237
sg24
S'.731'
p238
sg26
S'.544'
p239
sg28
S'NBA'
p240
sg30
S'29'
p241
sg32
S'259'
p242
sg34
S'80'
p243
sg36
S'52'
p244
sg38
S'171'
p245
sg40
S'25'
p246
sg42
S'LAC'
p247
sg44
S'30'
p248
sg46
S'14'
p249
sg48
S'42'
p250
sg50
S'38'
p251
sg52
S'101'
p252
sg54
S'146'
p253
sg56
S'2005-06'
p254
sg58
S'108'
p255
sg60
S'40'
p256
sg62
S'.416'
p257
sg64
S'885'
p258
sg66
S'11'
p259
sba(isrc.gp1.models.Totals
Totals
p260
(dp261
g8
S'53'
p262
sg10
S'118'
p263
sg12
S'.424'
p264
sg14
S'66'
p265
sg16
S'.339'
p266
sg18
S'40'
p267
sg20
S'361'
p268
sg22
S'PF'
p269
sg24
S'.726'
p270
sg26
S'.487'
p271
sg28
S'NBA'
p272
sg30
S'25'
p273
sg32
S'316'
p274
sg34
S'125'
p275
sg36
S'73'
p276
sg38
S'180'
p277
sg40
S'26'
p278
sg42
S'LAL'
p279
sg44
S'55'
p280
sg46
S'18'
p281
sg48
S'94'
p282
sg50
S'53'
p283
sg52
S'198'
p284
sg54
S'127'
p285
sg56
S'2006-07'
p286
sg58
S'134'
p287
sg60
S'69'
p288
sg62
S'.475'
p289
sg64
S'986'
p290
sg66
S'15'
p291
sba(isrc.gp1.models.Totals
Totals
p292
(dp293
g8
S'56'
p294
sg10
S'234'
p295
sg12
S'.453'
p296
sg14
S'123'
p297
sg16
S'.406'
p298
sg18
S'95'
p299
sg20
S'543'
p300
sg22
S'SF'
p301
sg24
S'.800'
p302
sg26
S'.562'
p303
sg28
S'NBA'
p304
sg30
S'46'
p305
sg32
S'437'
p306
sg34
S'147'
p307
sg36
S'65'
p308
sg38
S'215'
p309
sg40
S'27'
p310
sg42
S'LAL'
p311
sg44
S'65'
p312
sg46
S'12'
p313
sg48
S'103'
p314
sg50
S'52'
p315
sg52
S'203'
p316
sg54
S'159'
p317
sg56
S'2007-08'
p318
sg58
S'198'
p319
sg60
S'73'
p320
sg62
S'.507'
p321
sg64
S'1483'
p322
sg66
S'41'
p323
sba(isrc.gp1.models.Totals
Totals
p324
(dp325
g8
S'45'
p326
sg10
S'262'
p327
sg12
S'.421'
p328
sg14
S'81'
p329
sg16
S'.401'
p330
sg18
S'105'
p331
sg20
S'540'
p332
sg22
S'SF'
p333
sg24
S'.741'
p334
sg26
S'.533'
p335
sg28
S'NBA'
p336
sg30
S'46'
p337
sg32
S'466'
p338
sg34
S'111'
p339
sg36
S'58'
p340
sg38
S'222'
p341
sg40
S'28'
p342
sg42
S'TOT'
p343
sg44
S'78'
p344
sg46
S'15'
p345
sg48
S'91'
p346
sg50
S'43'
p347
sg52
S'204'
p348
sg54
S'177'
p349
sg56
S'2008-09'
p350
sg58
S'196'
p351
sg60
S'98'
p352
sg62
S'.446'
p353
sg64
S'1445'
p354
sg66
S'31'
p355
sba(isrc.gp1.models.Totals
Totals
p356
(dp357
g8
S'18'
p358
sg10
S'136'
p359
sg12
S'.444'
p360
sg14
S'38'
p361
sg16
S'.441'
p362
sg18
S'60'
p363
sg20
S'273'
p364
sg22
S'SF'
p365
sg24
S'.852'
p366
sg26
S'.584'
p367
sg28
S'NBA'
p368
sg30
S'28'
p369
sg32
S'214'
p370
sg34
S'51'
p371
sg36
S'27'
p372
sg38
S'117'
p373
sg40
S'28'
p374
sg42
S'LAL'
p375
sg44
S'46'
p376
sg46
S'7'
p377
sg48
S'35'
p378
sg50
S'23'
p379
sg52
S'78'
p380
sg54
S'99'
p381
sg56
S'2008-09'
p382
sg58
S'95'
p383
sg60
S'47'
p384
sg62
S'.449'
p385
sg64
S'771'
p386
sg66
S'28'
p387
sba(isrc.gp1.models.Totals
Totals
p388
(dp389
g8
S'27'
p390
sg10
S'126'
p391
sg12
S'.401'
p392
sg14
S'43'
p393
sg16
S'.357'
p394
sg18
S'45'
p395
sg20
S'267'
p396
sg22
S'SF'
p397
sg24
S'.645'
p398
sg26
S'.490'
p399
sg28
S'NBA'
p400
sg30
S'18'
p401
sg32
S'252'
p402
sg34
S'60'
p403
sg36
S'31'
p404
sg38
S'105'
p405
sg40
S'28'
p406
sg42
S'CHA'
p407
sg44
S'32'
p408
sg46
S'8'
p409
sg48
S'56'
p410
sg50
S'20'
p411
sg52
S'126'
p412
sg54
S'78'
p413
sg56
S'2008-09'
p414
sg58
S'101'
p415
sg60
S'51'
p416
sg62
S'.444'
p417
sg64
S'674'
p418
sg66
S'3'
p419
sba(isrc.gp1.models.Totals
Totals
p420
(dp421
g8
S'51'
p422
sg10
S'108'
p423
sg12
S'.377'
p424
sg14
S'45'
p425
sg16
S'.278'
p426
sg18
S'30'
p427
sg20
S'256'
p428
sg22
S'PF'
p429
sg24
S'.741'
p430
sg26
S'.432'
p431
sg28
S'NBA'
p432
sg30
S'29'
p433
sg32
S'273'
p434
sg34
S'97'
p435
sg36
S'27'
p436
sg38
S'178'
p437
sg40
S'29'
p438
sg42
S'TOT'
p439
sg44
S'41'
p440
sg46
g377
sg48
S'73'
p441
sg50
S'20'
p442
sg52
S'165'
p443
sg54
S'127'
p444
sg56
S'2009-10'
p445
sg58
S'103'
p446
sg60
S'44'
p447
sg62
S'.442'
p448
sg64
S'891'
p449
sg66
S'20'
p450
sba(isrc.gp1.models.Totals
Totals
p451
(dp452
g8
g409
sg10
S'22'
p453
sg12
S'.333'
p454
sg14
g377
sg16
S'.318'
p455
sg18
g377
sg20
S'39'
p456
sg22
S'PF'
p457
sg24
S'.667'
p458
sg26
S'.417'
p459
sg28
S'NBA'
p460
sg30
g419
sg32
S'42'
p461
sg34
S'18'
p462
sg36
S'6'
p463
sg38
S'29'
p464
sg40
S'29'
p465
sg42
S'CHA'
p466
sg44
g409
sg46
S'1'
p467
sg48
g377
sg50
S'4'
p468
sg52
S'20'
p469
sg54
S'21'
p470
sg56
S'2009-10'
p471
sg58
S'14'
p472
sg60
S'5'
p473
sg62
S'.350'
p474
sg64
S'133'
p475
sg66
g163
sba(isrc.gp1.models.Totals
Totals
p476
(dp477
g8
S'43'
p478
sg10
S'86'
p479
sg12
S'.385'
p480
sg14
S'38'
p481
sg16
S'.267'
p482
sg18
S'23'
p483
sg20
S'217'
p484
sg22
S'PF'
p485
sg24
S'.762'
p486
sg26
S'.435'
p487
sg28
S'NBA'
p488
sg30
S'26'
p489
sg32
S'231'
p490
sg34
S'79'
p491
sg36
S'21'
p492
sg38
S'149'
p493
sg40
S'29'
p494
sg42
S'GSW'
p495
sg44
S'33'
p496
sg46
g463
sg48
S'66'
p497
sg50
S'16'
p498
sg52
S'145'
p499
sg54
S'106'
p500
sg56
S'2009-10'
p501
sg58
S'89'
p502
sg60
S'39'
p503
sg62
S'.455'
p504
sg64
S'758'
p505
sg66
S'20'
p506
sba(isrc.gp1.models.Totals
Totals
p507
(dp508
g8
S'64'
p509
sg10
S'173'
p510
sg12
S'.431'
p511
sg14
S'79'
p512
sg16
S'.405'
p513
sg18
S'70'
p514
sg20
S'374'
p515
sg22
S'PF'
p516
sg24
S'.882'
p517
sg26
S'.541'
p518
sg28
S'NBA'
p519
sg30
S'44'
p520
sg32
S'318'
p521
sg34
S'157'
p522
sg36
S'34'
p523
sg38
S'212'
p524
sg40
S'30'
p525
sg42
S'GSW'
p526
sg44
S'74'
p527
sg46
S'44'
p528
sg48
S'67'
p529
sg50
S'30'
p530
sg52
S'145'
p531
sg54
S'148'
p532
sg56
S'2010-11'
p533
sg58
S'137'
p534
sg60
S'57'
p535
sg62
S'.462'
p536
sg64
S'1169'
p537
sg66
g463
sba(isrc.gp1.models.Totals
Totals
p538
(dp539
g8
S'34'
p540
sg10
S'135'
p541
sg12
S'.376'
p542
sg14
S'54'
p543
sg16
S'.370'
p544
sg18
S'50'
p545
sg20
S'220'
p546
sg22
S'SF'
p547
sg24
S'.759'
p548
sg26
S'.503'
p549
sg28
S'NBA'
p550
sg30
S'21'
p551
sg32
S'197'
p552
sg34
S'62'
p553
sg36
S'29'
p554
sg38
S'143'
p555
sg40
S'31'
p556
sg42
S'ATL'
p557
sg44
S'49'
p558
sg46
S'15'
p559
sg48
S'24'
p560
sg50
S'22'
p561
sg52
S'62'
p562
sg54
S'109'
p563
sg56
S'2011-12'
p564
sg58
S'74'
p565
sg60
S'35'
p566
sg62
S'.387'
p567
sg64
S'755'
p568
sg66
g419
sba(isrc.gp1.models.Totals
Totals
p569
(dp570
g8
S'10'
p571
sg10
S'27'
p572
sg12
S'.302'
p573
sg14
g409
sg16
S'.185'
p574
sg18
g473
sg20
S'33'
p575
sg22
S'PF'
p576
sg24
S'.667'
p577
sg26
S'.360'
p578
sg28
S'NBA'
p579
sg30
g409
sg32
S'43'
p580
sg34
S'29'
p581
sg36
g419
sg38
S'28'
p582
sg40
S'32'
p583
sg42
S'CHI'
p584
sg44
S'25'
p585
sg46
g468
sg48
g409
sg50
S'2'
p586
sg52
S'16'
p587
sg54
S'18'
p588
sg56
S'2012-13'
p589
sg58
S'13'
p590
sg60
g377
sg62
S'.500'
p591
sg64
S'144'
p592
sg66
g163
sbasS'_college'
p593
S'NA'
p594
sS'_toYear'
p595
S'2013'
p596
sS'_height'
p597
S'6-10'
p598
sS'_active'
p599
I00
sS'_shootingHand'
p600
VRight
p601
sS'_name'
p602
S'Vladimir Radmanovic'
p603
sS'_per100Possessions'
p604
(lp605
(isrc.gp1.models.Per100Possession
Per100Possession
p606
(dp607
g8
S'2.0'
p608
sg10
S'6.9'
p609
sg12
S'.412'
p610
sS'_offensiveRating'
p611
S'101'
p612
sg14
S'3.6'
p613
sg16
S'.420'
p614
sg18
S'2.9'
p615
sg20
S'17.8'
p616
sg22
S'PF'
p617
sS'_defensiveRating'
p618
S'103'
p619
sg24
S'.681'
p620
sg28
S'NBA'
p621
sg30
S'2.5'
p622
sg32
S'15.5'
p623
sg34
S'5.2'
p624
sg36
S'3.2'
p625
sg38
S'10.1'
p626
sg40
S'21'
p627
sg42
S'SEA'
p628
sg44
S'61'
p629
sg46
S'1.1'
p630
sg48
S'3.5'
p631
sg50
S'2.1'
p632
sg52
S'8.6'
p633
sg54
S'8.1'
p634
sg56
S'2001-02'
p635
sg58
S'6.4'
p636
sg60
S'3.2'
p637
sg62
S'.406'
p638
sg64
S'1230'
p639
sg66
S'16'
p640
sba(isrc.gp1.models.Per100Possession
Per100Possession
p641
(dp642
g8
S'2.2'
p643
sg10
S'8.4'
p644
sg12
S'.410'
p645
sg611
S'99'
p646
sg14
S'2.8'
p647
sg16
S'.355'
p648
sg18
S'3.0'
p649
sg20
S'20.7'
p650
sg22
S'PF'
p651
sg618
S'104'
p652
sg24
S'.706'
p653
sg28
S'NBA'
p654
sg30
S'1.8'
p655
sg32
S'19.1'
p656
sg34
S'3.9'
p657
sg36
S'2.9'
p658
sg38
S'9.2'
p659
sg40
S'22'
p660
sg42
S'SEA'
p661
sg44
S'72'
p662
sg46
S'0.6'
p663
sg48
S'4.9'
p664
sg50
S'2.1'
p665
sg52
S'10.7'
p666
sg54
S'7.1'
p667
sg56
S'2002-03'
p668
sg58
S'7.8'
p669
sg60
S'2.9'
p670
sg62
S'.453'
p671
sg64
S'1910'
p672
sg66
S'16'
p673
sba(isrc.gp1.models.Per100Possession
Per100Possession
p674
(dp675
g8
S'2.4'
p676
sg10
S'8.7'
p677
sg12
S'.425'
p678
sg611
S'106'
p679
sg14
S'3.3'
p680
sg16
S'.371'
p681
sg18
S'3.2'
p682
sg20
S'21.3'
p683
sg22
S'PF'
p684
sg618
S'108'
p685
sg24
S'.748'
p686
sg28
S'NBA'
p687
sg30
S'1.8'
p688
sg32
S'18.7'
p689
sg34
S'4.3'
p690
sg36
S'2.9'
p691
sg38
S'9.3'
p692
sg40
S'23'
p693
sg42
S'SEA'
p694
sg44
S'77'
p695
sg46
S'1.0'
p696
sg48
S'4.7'
p697
sg50
S'2.2'
p698
sg52
S'10.0'
p699
sg54
S'6.9'
p700
sg56
S'2003-04'
p701
sg58
S'7.9'
p702
sg60
S'2.5'
p703
sg62
S'.471'
p704
sg64
S'2321'
p705
sg66
S'38'
p706
sba(isrc.gp1.models.Per100Possession
Per100Possession
p707
(dp708
g8
S'1.5'
p709
sg10
S'9.7'
p710
sg12
S'.409'
p711
sg611
S'110'
p712
sg14
S'2.5'
p713
sg16
S'.389'
p714
sg18
S'3.8'
p715
sg20
S'21.8'
p716
sg22
S'PF'
p717
sg618
S'109'
p718
sg24
S'.786'
p719
sg28
S'NBA'
p720
sg30
S'1.7'
p721
sg32
S'19.1'
p722
sg34
S'5.1'
p723
sg36
S'3.0'
p724
sg38
S'8.5'
p725
sg40
S'24'
p726
sg42
S'SEA'
p727
sg44
S'63'
p728
sg46
S'0.9'
p729
sg48
S'4.1'
p730
sg50
S'2.4'
p731
sg52
S'9.4'
p732
sg54
S'7.0'
p733
sg56
S'2004-05'
p734
sg58
S'7.8'
p735
sg60
S'2.4'
p736
sg62
S'.430'
p737
sg64
S'1856'
p738
sg66
g163
sba(isrc.gp1.models.Per100Possession
Per100Possession
p739
(dp740
g8
S'1.7'
p741
sg10
S'9.4'
p742
sg12
S'.407'
p743
sg611
S'109'
p744
sg14
S'3.6'
p745
sg16
S'.390'
p746
sg18
S'3.7'
p747
sg20
S'20.0'
p748
sg22
S'PF'
p749
sg618
S'109'
p750
sg24
S'.816'
p751
sg28
S'NBA'
p752
sg30
S'1.6'
p753
sg32
S'17.1'
p754
sg34
S'5.6'
p755
sg36
S'3.0'
p756
sg38
S'9.5'
p757
sg40
S'25'
p758
sg42
S'TOT'
p759
sg44
S'77'
p760
sg46
S'0.8'
p761
sg48
S'3.3'
p762
sg50
S'2.5'
p763
sg52
S'7.7'
p764
sg54
S'7.8'
p765
sg56
S'2005-06'
p766
sg58
S'6.9'
p767
sg60
S'2.5'
p768
sg62
S'.429'
p769
sg64
S'1974'
p770
sg66
S'27'
p771
sba(isrc.gp1.models.Per100Possession
Per100Possession
p772
(dp773
g8
S'1.9'
p774
sg10
S'9.4'
p775
sg12
S'.401'
p776
sg611
S'108'
p777
sg14
S'3.5'
p778
sg16
S'.367'
p779
sg18
S'3.5'
p780
sg20
S'20.9'
p781
sg22
S'PF'
p782
sg618
S'114'
p783
sg24
S'.887'
p784
sg28
S'NBA'
p785
sg30
S'1.5'
p786
sg32
S'18.5'
p787
sg34
S'6.3'
p788
sg36
S'3.0'
p789
sg38
S'9.0'
p790
sg40
S'25'
p791
sg42
S'SEA'
p792
sg44
S'47'
p793
sg46
S'0.7'
p794
sg48
S'3.9'
p795
sg50
S'2.6'
p796
sg52
S'9.0'
p797
sg54
S'7.1'
p798
sg56
S'2005-06'
p799
sg58
S'7.4'
p800
sg60
S'2.5'
p801
sg62
S'.436'
p802
sg64
S'1089'
p803
sg66
S'16'
p804
sba(isrc.gp1.models.Per100Possession
Per100Possession
p805
(dp806
g8
S'1.5'
p807
sg10
S'9.3'
p808
sg12
S'.417'
p809
sg611
S'110'
p810
sg14
S'3.8'
p811
sg16
S'.418'
p812
sg18
S'3.9'
p813
sg20
S'18.9'
p814
sg22
S'PF'
p815
sg618
S'103'
p816
sg24
S'.731'
p817
sg28
S'NBA'
p818
sg30
S'1.7'
p819
sg32
S'15.3'
p820
sg34
S'4.7'
p821
sg36
S'3.1'
p822
sg38
S'10.1'
p823
sg40
S'25'
p824
sg42
S'LAC'
p825
sg44
S'30'
p826
sg46
S'0.8'
p827
sg48
S'2.5'
p828
sg50
S'2.2'
p829
sg52
S'6.0'
p830
sg54
S'8.6'
p831
sg56
S'2005-06'
p832
sg58
S'6.4'
p833
sg60
S'2.4'
p834
sg62
S'.416'
p835
sg64
S'885'
p836
sg66
S'11'
p837
sba(isrc.gp1.models.Per100Possession
Per100Possession
p838
(dp839
g8
S'2.8'
p840
sg10
S'6.1'
p841
sg12
S'.424'
p842
sg611
S'99'
p843
sg14
S'3.4'
p844
sg16
S'.339'
p845
sg18
S'2.1'
p846
sg20
S'18.8'
p847
sg22
S'PF'
p848
sg618
S'109'
p849
sg24
S'.726'
p850
sg28
S'NBA'
p851
sg30
S'1.3'
p852
sg32
S'16.4'
p853
sg34
S'6.5'
p854
sg36
S'3.8'
p855
sg38
S'9.4'
p856
sg40
S'26'
p857
sg42
S'LAL'
p858
sg44
S'55'
p859
sg46
S'0.9'
p860
sg48
S'4.9'
p861
sg50
S'2.8'
p862
sg52
S'10.3'
p863
sg54
S'6.6'
p864
sg56
S'2006-07'
p865
sg58
S'7.0'
p866
sg60
S'3.6'
p867
sg62
S'.475'
p868
sg64
S'986'
p869
sg66
S'15'
p870
sba(isrc.gp1.models.Per100Possession
Per100Possession
p871
(dp872
g8
S'1.9'
p873
sg10
S'7.9'
p874
sg12
S'.453'
p875
sg611
S'113'
p876
sg14
S'4.2'
p877
sg16
S'.406'
p878
sg18
S'3.2'
p879
sg20
S'18.4'
p880
sg22
S'SF'
p881
sg618
S'108'
p882
sg24
S'.800'
p883
sg28
S'NBA'
p884
sg30
S'1.6'
p885
sg32
S'14.8'
p886
sg34
S'5.0'
p887
sg36
S'2.2'
p888
sg38
S'7.3'
p889
sg40
S'27'
p890
sg42
S'LAL'
p891
sg44
S'65'
p892
sg46
S'0.4'
p893
sg48
S'3.5'
p894
sg50
S'1.8'
p895
sg52
S'6.9'
p896
sg54
S'5.4'
p897
sg56
S'2007-08'
p898
sg58
S'6.7'
p899
sg60
S'2.5'
p900
sg62
S'.507'
p901
sg64
S'1483'
p902
sg66
S'41'
p903
sba(isrc.gp1.models.Per100Possession
Per100Possession
p904
(dp905
g8
S'1.6'
p906
sg10
S'9.5'
p907
sg12
S'.421'
p908
sg611
S'100'
p909
sg14
S'2.9'
p910
sg16
S'.401'
p911
sg18
S'3.8'
p912
sg20
S'19.6'
p913
sg22
S'SF'
p914
sg618
S'106'
p915
sg24
S'.741'
p916
sg28
S'NBA'
p917
sg30
S'1.7'
p918
sg32
S'16.9'
p919
sg34
S'4.0'
p920
sg36
S'2.1'
p921
sg38
S'8.1'
p922
sg40
S'28'
p923
sg42
S'TOT'
p924
sg44
S'78'
p925
sg46
S'0.5'
p926
sg48
S'3.3'
p927
sg50
S'1.6'
p928
sg52
S'7.4'
p929
sg54
S'6.4'
p930
sg56
S'2008-09'
p931
sg58
S'7.1'
p932
sg60
S'3.6'
p933
sg62
S'.446'
p934
sg64
S'1445'
p935
sg66
S'31'
p936
sba(isrc.gp1.models.Per100Possession
Per100Possession
p937
(dp938
g8
S'1.2'
p939
sg10
S'9.0'
p940
sg12
S'.444'
p941
sg611
S'107'
p942
sg14
S'2.5'
p943
sg16
S'.441'
p944
sg18
S'4.0'
p945
sg20
S'18.0'
p946
sg22
S'SF'
p947
sg618
S'106'
p948
sg24
S'.852'
p949
sg28
S'NBA'
p950
sg30
S'1.8'
p951
sg32
S'14.1'
p952
sg34
S'3.4'
p953
sg36
S'1.8'
p954
sg38
S'7.7'
p955
sg40
S'28'
p956
sg42
S'LAL'
p957
sg44
S'46'
p958
sg46
S'0.5'
p959
sg48
S'2.3'
p960
sg50
S'1.5'
p961
sg52
S'5.1'
p962
sg54
S'6.5'
p963
sg56
S'2008-09'
p964
sg58
S'6.3'
p965
sg60
S'3.1'
p966
sg62
S'.449'
p967
sg64
S'771'
p968
sg66
S'28'
p969
sba(isrc.gp1.models.Per100Possession
Per100Possession
p970
(dp971
g8
S'2.2'
p972
sg10
S'10.2'
p973
sg12
S'.401'
p974
sg611
S'94'
p975
sg14
S'3.5'
p976
sg16
S'.357'
p977
sg18
S'3.6'
p978
sg20
S'21.5'
p979
sg22
S'SF'
p980
sg618
S'107'
p981
sg24
S'.645'
p982
sg28
S'NBA'
p983
sg30
S'1.5'
p984
sg32
S'20.3'
p985
sg34
S'4.8'
p986
sg36
S'2.5'
p987
sg38
S'8.5'
p988
sg40
S'28'
p989
sg42
S'CHA'
p990
sg44
S'32'
p991
sg46
S'0.6'
p992
sg48
S'4.5'
p993
sg50
S'1.6'
p994
sg52
S'10.2'
p995
sg54
S'6.3'
p996
sg56
S'2008-09'
p997
sg58
S'8.1'
p998
sg60
S'4.1'
p999
sg62
S'.444'
p1000
sg64
S'674'
p1001
sg66
g419
sba(isrc.gp1.models.Per100Possession
Per100Possession
p1002
(dp1003
g8
S'2.8'
p1004
sg10
S'5.9'
p1005
sg12
S'.377'
p1006
sg611
S'92'
p1007
sg14
S'2.5'
p1008
sg16
S'.278'
p1009
sg18
S'1.6'
p1010
sg20
S'14.0'
p1011
sg22
S'PF'
p1012
sg618
S'111'
p1013
sg24
S'.741'
p1014
sg28
S'NBA'
p1015
sg30
S'1.6'
p1016
sg32
S'14.9'
p1017
sg34
S'5.3'
p1018
sg36
S'1.5'
p1019
sg38
S'9.7'
p1020
sg40
S'29'
p1021
sg42
S'TOT'
p1022
sg44
S'41'
p1023
sg46
S'0.4'
p1024
sg48
S'4.0'
p1025
sg50
S'1.1'
p1026
sg52
S'9.0'
p1027
sg54
S'6.9'
p1028
sg56
S'2009-10'
p1029
sg58
S'5.6'
p1030
sg60
S'2.4'
p1031
sg62
S'.442'
p1032
sg64
S'891'
p1033
sg66
S'20'
p1034
sba(isrc.gp1.models.Per100Possession
Per100Possession
p1035
(dp1036
g8
S'3.2'
p1037
sg10
S'8.8'
p1038
sg12
S'.333'
p1039
sg611
S'95'
p1040
sg14
S'2.8'
p1041
sg16
S'.318'
p1042
sg18
S'2.8'
p1043
sg20
S'15.6'
p1044
sg22
S'PF'
p1045
sg618
S'104'
p1046
sg24
S'.667'
p1047
sg28
S'NBA'
p1048
sg30
S'1.2'
p1049
sg32
S'16.8'
p1050
sg34
S'7.2'
p1051
sg36
S'2.4'
p1052
sg38
S'11.6'
p1053
sg40
S'29'
p1054
sg42
S'CHA'
p1055
sg44
g409
sg46
S'0.4'
p1056
sg48
S'2.8'
p1057
sg50
S'1.6'
p1058
sg52
S'8.0'
p1059
sg54
S'8.4'
p1060
sg56
S'2009-10'
p1061
sg58
S'5.6'
p1062
sg60
S'2.0'
p1063
sg62
S'.350'
p1064
sg64
S'133'
p1065
sg66
g163
sba(isrc.gp1.models.Per100Possession
Per100Possession
p1066
(dp1067
g8
S'2.7'
p1068
sg10
S'5.4'
p1069
sg12
S'.385'
p1070
sg611
S'91'
p1071
sg14
S'2.4'
p1072
sg16
S'.267'
p1073
sg18
S'1.5'
p1074
sg20
S'13.7'
p1075
sg22
S'PF'
p1076
sg618
S'112'
p1077
sg24
S'.762'
p1078
sg28
S'NBA'
p1079
sg30
S'1.6'
p1080
sg32
S'14.6'
p1081
sg34
S'5.0'
p1082
sg36
S'1.3'
p1083
sg38
S'9.4'
p1084
sg40
S'29'
p1085
sg42
S'GSW'
p1086
sg44
S'33'
p1087
sg46
S'0.4'
p1088
sg48
S'4.2'
p1089
sg50
S'1.0'
p1090
sg52
S'9.1'
p1091
sg54
S'6.7'
p1092
sg56
S'2009-10'
p1093
sg58
S'5.6'
p1094
sg60
S'2.5'
p1095
sg62
S'.455'
p1096
sg64
S'758'
p1097
sg66
S'20'
p1098
sba(isrc.gp1.models.Per100Possession
Per100Possession
p1099
(dp1100
g8
S'2.8'
p1101
sg10
S'7.5'
p1102
sg12
S'.431'
p1103
sg611
S'110'
p1104
sg14
S'3.4'
p1105
sg16
S'.405'
p1106
sg18
S'3.0'
p1107
sg20
S'16.2'
p1108
sg22
S'PF'
p1109
sg618
S'110'
p1110
sg24
S'.882'
p1111
sg28
S'NBA'
p1112
sg30
S'1.9'
p1113
sg32
S'13.8'
p1114
sg34
S'6.8'
p1115
sg36
S'1.5'
p1116
sg38
S'9.2'
p1117
sg40
S'30'
p1118
sg42
S'GSW'
p1119
sg44
S'74'
p1120
sg46
S'1.9'
p1121
sg48
S'2.9'
p1122
sg50
S'1.3'
p1123
sg52
S'6.3'
p1124
sg54
S'6.4'
p1125
sg56
S'2010-11'
p1126
sg58
S'5.9'
p1127
sg60
S'2.5'
p1128
sg62
S'.462'
p1129
sg64
S'1169'
p1130
sg66
g463
sba(isrc.gp1.models.Per100Possession
Per100Possession
p1131
(dp1132
g8
S'2.4'
p1133
sg10
S'9.5'
p1134
sg12
S'.376'
p1135
sg611
S'104'
p1136
sg14
S'3.8'
p1137
sg16
S'.370'
p1138
sg18
S'3.5'
p1139
sg20
S'15.5'
p1140
sg22
S'SF'
p1141
sg618
S'101'
p1142
sg24
S'.759'
p1143
sg28
S'NBA'
p1144
sg30
S'1.5'
p1145
sg32
S'13.9'
p1146
sg34
S'4.4'
p1147
sg36
S'2.0'
p1148
sg38
S'10.1'
p1149
sg40
S'31'
p1150
sg42
S'ATL'
p1151
sg44
S'49'
p1152
sg46
S'1.1'
p1153
sg48
S'1.7'
p1154
sg50
S'1.6'
p1155
sg52
S'4.4'
p1156
sg54
S'7.7'
p1157
sg56
S'2011-12'
p1158
sg58
S'5.2'
p1159
sg60
S'2.5'
p1160
sg62
S'.387'
p1161
sg64
S'755'
p1162
sg66
g419
sba(isrc.gp1.models.Per100Possession
Per100Possession
p1163
(dp1164
g8
S'3.7'
p1165
sg10
S'10.1'
p1166
sg12
S'.302'
p1167
sg611
S'84'
p1168
sg14
S'3.0'
p1169
sg16
S'.185'
p1170
sg18
S'1.9'
p1171
sg20
S'12.3'
p1172
sg22
S'PF'
p1173
sg618
S'100'
p1174
sg24
S'.667'
p1175
sg28
S'NBA'
p1176
sg30
S'3.0'
p1177
sg32
S'16.0'
p1178
sg34
S'10.8'
p1179
sg36
S'1.1'
p1180
sg38
S'10.4'
p1181
sg40
S'32'
p1182
sg42
S'CHI'
p1183
sg44
S'25'
p1184
sg46
S'1.5'
p1185
sg48
S'3.0'
p1186
sg50
S'0.7'
p1187
sg52
S'6.0'
p1188
sg54
S'6.7'
p1189
sg56
S'2012-13'
p1190
sg58
S'4.8'
p1191
sg60
S'2.6'
p1192
sg62
S'.500'
p1193
sg64
S'144'
p1194
sg66
g163
sbasS'_advanced'
p1195
(lp1196
(isrc.gp1.models.Advanced
Advanced
p1197
(dp1198
S'_offensiveReboundPercentage'
p1199
S'4.4'
p1200
sS'_turnOverPercentage'
p1201
S'15.7'
p1202
sS'_winSharesPer48Minutes'
p1203
S'.084'
p1204
sS'_stealPercentage'
p1205
S'2.5'
p1206
sS'_usagePercentage'
p1207
S'17.3'
p1208
sS'_totalReboundsPercentage'
p1209
S'11.0'
p1210
sS'_defensiveBoxPlusMinus'
p1211
S'0.7'
p1212
sg22
S'PF'
p1213
sS'_valueOverReplacementPlayer'
p1214
S'0.6'
p1215
sS'_trueShootingPercentage'
p1216
S'.528'
p1217
sS'_defensiveReboundPercentage'
p1218
S'17.4'
p1219
sS'_freeThrowsAttempRate'
p1220
S'.203'
p1221
sS'_threePointsAttempRate'
p1222
S'.444'
p1223
sg28
S'NBA'
p1224
sS'_offensiveBoxPlusMinues'
p1225
S'-0.6'
p1226
sS'_assistPercentage'
p1227
S'9.8'
p1228
sS'_defensiveWinShares'
p1229
S'1.5'
p1230
sg40
S'21'
p1231
sg42
S'SEA'
p1232
sg44
S'61'
p1233
sS'_blockPercentage'
p1234
S'1.5'
p1235
sS'_playerEfficiencyRating'
p1236
S'12.7'
p1237
sS'_offensiveWinShares'
p1238
S'0.6'
p1239
sg64
S'1230'
p1240
sS'_boxPlusMinus'
p1241
S'0.0'
p1242
sg56
S'2001-02'
p1243
sS'_winShares'
p1244
S'2.1'
p1245
sba(isrc.gp1.models.Advanced
Advanced
p1246
(dp1247
g1199
S'4.6'
p1248
sg1201
S'12.3'
p1249
sg1203
S'.068'
p1250
sg1205
S'1.8'
p1251
sg1207
S'20.0'
p1252
sg1209
S'10.0'
p1253
sg1211
S'-0.4'
p1254
sg22
S'PF'
p1255
sg1214
S'0.6'
p1256
sg1216
S'.508'
p1257
sg1218
S'15.5'
p1258
sg1220
S'.153'
p1259
sg1222
S'.439'
p1260
sg28
S'NBA'
p1261
sg1225
S'-0.4'
p1262
sg1227
S'8.7'
p1263
sg1229
S'1.9'
p1264
sg40
S'22'
p1265
sg42
S'SEA'
p1266
sg44
S'72'
p1267
sg1234
S'0.9'
p1268
sg1236
S'13.0'
p1269
sg1238
S'0.8'
p1270
sg64
S'1910'
p1271
sg1241
S'-0.8'
p1272
sg56
S'2002-03'
p1273
sg1244
S'2.7'
p1274
sba(isrc.gp1.models.Advanced
Advanced
p1275
(dp1276
g1199
S'5.3'
p1277
sg1201
S'11.2'
p1278
sg1203
S'.088'
p1279
sg1205
S'1.8'
p1280
sg1207
S'19.5'
p1281
sg1209
S'10.3'
p1282
sg1211
S'-0.6'
p1283
sg22
S'PF'
p1284
sg1214
S'1.9'
p1285
sg1216
S'.533'
p1286
sg1218
S'15.2'
p1287
sg1220
S'.156'
p1288
sg1222
S'.464'
p1289
sg28
S'NBA'
p1290
sg1225
S'1.9'
p1291
sg1227
S'10.3'
p1292
sg1229
S'1.0'
p1293
sg40
S'23'
p1294
sg42
S'SEA'
p1295
sg44
S'77'
p1296
sg1234
S'1.4'
p1297
sg1236
S'15.1'
p1298
sg1238
S'3.2'
p1299
sg64
S'2321'
p1300
sg1241
S'1.2'
p1301
sg56
S'2003-04'
p1302
sg1244
S'4.2'
p1303
sba(isrc.gp1.models.Advanced
Advanced
p1304
(dp1305
g1199
S'3.4'
p1306
sg1201
S'10.3'
p1307
sg1203
S'.096'
p1308
sg1205
S'1.7'
p1309
sg1207
S'19.3'
p1310
sg1209
S'9.5'
p1311
sg1211
S'-0.3'
p1312
sg22
S'PF'
p1313
sg1214
S'1.5'
p1314
sg1216
S'.533'
p1315
sg1218
S'15.6'
p1316
sg1220
S'.158'
p1317
sg1222
S'.506'
p1318
sg28
S'NBA'
p1319
sg1225
S'1.5'
p1320
sg1227
S'7.9'
p1321
sg1229
S'1.3'
p1322
sg40
S'24'
p1323
sg42
S'SEA'
p1324
sg44
S'63'
p1325
sg1234
S'1.3'
p1326
sg1236
S'13.7'
p1327
sg1238
S'2.4'
p1328
sg64
S'1856'
p1329
sg1241
S'1.3'
p1330
sg56
S'2004-05'
p1331
sg1244
S'3.7'
p1332
sba(isrc.gp1.models.Advanced
Advanced
p1333
(dp1334
g1199
S'3.9'
p1335
sg1201
S'11.8'
p1336
sg1203
S'.091'
p1337
sg1205
S'1.6'
p1338
sg1207
S'18.1'
p1339
sg1209
S'10.8'
p1340
sg1211
S'-0.7'
p1341
sg22
S'PF'
p1342
sg1214
S'1.3'
p1343
sg1216
S'.545'
p1344
sg1218
S'17.4'
p1345
sg1220
S'.177'
p1346
sg1222
S'.551'
p1347
sg28
S'NBA'
p1348
sg1225
S'1.4'
p1349
sg1227
S'10.9'
p1350
sg1229
S'1.4'
p1351
sg40
S'25'
p1352
sg42
S'TOT'
p1353
sg44
S'77'
p1354
sg1234
S'1.1'
p1355
sg1236
S'13.6'
p1356
sg1238
S'2.3'
p1357
sg64
S'1974'
p1358
sg1241
S'0.7'
p1359
sg56
S'2005-06'
p1360
sg1244
S'3.8'
p1361
sba(isrc.gp1.models.Advanced
Advanced
p1362
(dp1363
g1199
S'4.3'
p1364
sg1201
S'11.4'
p1365
sg1203
S'.062'
p1366
sg1205
S'1.5'
p1367
sg1207
S'19.1'
p1368
sg1209
S'10.4'
p1369
sg1211
S'-2.0'
p1370
sg22
S'PF'
p1371
sg1214
S'0.3'
p1372
sg1216
S'.529'
p1373
sg1218
S'16.7'
p1374
sg1220
S'.161'
p1375
sg1222
S'.510'
p1376
sg28
S'NBA'
p1377
sg1225
S'1.1'
p1378
sg1227
S'10.4'
p1379
sg1229
S'0.1'
p1380
sg40
S'25'
p1381
sg42
S'SEA'
p1382
sg44
S'47'
p1383
sg1234
S'1.1'
p1384
sg1236
S'13.1'
p1385
sg1238
S'1.3'
p1386
sg64
S'1089'
p1387
sg1241
S'-0.9'
p1388
sg56
S'2005-06'
p1389
sg1244
S'1.4'
p1390
sba(isrc.gp1.models.Advanced
Advanced
p1391
(dp1392
g1199
S'3.4'
p1393
sg1201
S'12.4'
p1394
sg1203
S'.127'
p1395
sg1205
S'1.7'
p1396
sg1207
S'16.8'
p1397
sg1209
S'11.2'
p1398
sg1211
S'1.0'
p1399
sg22
S'PF'
p1400
sg1214
S'1.0'
p1401
sg1216
S'.568'
p1402
sg1218
S'18.3'
p1403
sg1220
S'.201'
p1404
sg1222
S'.610'
p1405
sg28
S'NBA'
p1406
sg1225
S'1.7'
p1407
sg1227
S'11.4'
p1408
sg1229
S'1.3'
p1409
sg40
S'25'
p1410
sg42
S'LAC'
p1411
sg44
S'30'
p1412
sg1234
S'1.2'
p1413
sg1236
S'14.2'
p1414
sg1238
S'1.0'
p1415
sg64
S'885'
p1416
sg1241
S'2.6'
p1417
sg56
S'2005-06'
p1418
sg1244
S'2.3'
p1419
sba(isrc.gp1.models.Advanced
Advanced
p1420
(dp1421
g1199
S'6.3'
p1422
sg1201
S'16.5'
p1423
sg1203
S'.040'
p1424
sg1205
S'1.3'
p1425
sg1207
S'19.0'
p1426
sg1209
S'10.7'
p1427
sg1211
S'-1.2'
p1428
sg22
S'PF'
p1429
sg1214
S'-0.2'
p1430
sg1216
S'.518'
p1431
sg1218
S'15.0'
p1432
sg1220
S'.231'
p1433
sg1222
S'.373'
p1434
sg28
S'NBA'
p1435
sg1225
S'-1.7'
p1436
sg1227
S'10.5'
p1437
sg1229
S'0.7'
p1438
sg40
S'26'
p1439
sg42
S'LAL'
p1440
sg44
S'55'
p1441
sg1234
S'1.4'
p1442
sg1236
S'11.0'
p1443
sg1238
S'0.1'
p1444
sg64
S'986'
p1445
sg1241
S'-2.9'
p1446
sg56
S'2006-07'
p1447
sg1244
S'0.8'
p1448
sba(isrc.gp1.models.Advanced
Advanced
p1449
(dp1450
g1199
S'4.4'
p1451
sg1201
S'13.6'
p1452
sg1203
S'.113'
p1453
sg1205
S'1.6'
p1454
sg1207
S'16.0'
p1455
sg1209
S'8.0'
p1456
sg1211
S'-0.4'
p1457
sg22
S'SF'
p1458
sg1214
S'1.1'
p1459
sg1216
S'.583'
p1460
sg1218
S'11.4'
p1461
sg1220
S'.149'
p1462
sg1222
S'.535'
p1463
sg28
S'NBA'
p1464
sg1225
S'1.4'
p1465
sg1227
S'12.1'
p1466
sg1229
S'1.5'
p1467
sg40
S'27'
p1468
sg42
S'LAL'
p1469
sg44
S'65'
p1470
sg1234
S'0.6'
p1471
sg1236
S'12.6'
p1472
sg1238
S'2.0'
p1473
sg64
S'1483'
p1474
sg1241
S'1.0'
p1475
sg56
S'2007-08'
p1476
sg1244
S'3.5'
p1477
sba(isrc.gp1.models.Advanced
Advanced
p1478
(dp1479
g1199
S'3.8'
p1480
sg1201
S'16.6'
p1481
sg1203
S'.062'
p1482
sg1205
S'1.7'
p1483
sg1207
S'18.6'
p1484
sg1209
S'9.1'
p1485
sg1211
S'-0.5'
p1486
sg22
S'SF'
p1487
sg1214
S'0.2'
p1488
sg1216
S'.549'
p1489
sg1218
S'14.3'
p1490
sg1220
S'.124'
p1491
sg1222
S'.562'
p1492
sg28
S'NBA'
p1493
sg1225
S'-0.9'
p1494
sg1227
S'8.9'
p1495
sg1229
S'1.8'
p1496
sg40
S'28'
p1497
sg42
S'TOT'
p1498
sg44
S'78'
p1499
sg1234
S'0.8'
p1500
sg1236
S'11.0'
p1501
sg1238
S'0.0'
p1502
sg64
S'1445'
p1503
sg1241
S'-1.4'
p1504
sg56
S'2008-09'
p1505
sg1244
S'1.9'
p1506
sba(isrc.gp1.models.Advanced
Advanced
p1507
(dp1508
g1199
S'2.7'
p1509
sg1201
S'17.2'
p1510
sg1203
S'.098'
p1511
sg1205
S'1.8'
p1512
sg1207
S'15.6'
p1513
sg1209
S'8.6'
p1514
sg1211
S'-0.3'
p1515
sg22
S'SF'
p1516
sg1214
S'0.3'
p1517
sg1216
S'.604'
p1518
sg1218
S'14.3'
p1519
sg1220
S'.126'
p1520
sg1222
S'.636'
p1521
sg28
S'NBA'
p1522
sg1225
S'-0.3'
p1523
sg1227
S'6.9'
p1524
sg1229
S'1.0'
p1525
sg40
S'28'
p1526
sg42
S'LAL'
p1527
sg44
S'46'
p1528
sg1234
S'0.7'
p1529
sg1236
S'11.6'
p1530
sg1238
S'0.5'
p1531
sg64
S'771'
p1532
sg1241
S'-0.6'
p1533
sg56
S'2008-09'
p1534
sg1244
S'1.6'
p1535
sba(isrc.gp1.models.Advanced
Advanced
p1536
(dp1537
g1199
S'5.0'
p1538
sg1201
S'16.1'
p1539
sg1203
S'.021'
p1540
sg1205
S'1.5'
p1541
sg1207
S'22.2'
p1542
sg1209
S'9.6'
p1543
sg1211
S'-0.7'
p1544
sg22
S'SF'
p1545
sg1214
S'-0.1'
p1546
sg1216
S'.503'
p1547
sg1218
S'14.2'
p1548
sg1220
S'.123'
p1549
sg1222
S'.500'
p1550
sg28
S'NBA'
p1551
sg1225
S'-1.7'
p1552
sg1227
S'11.2'
p1553
sg1229
S'0.8'
p1554
sg40
S'28'
p1555
sg42
S'CHA'
p1556
sg44
S'32'
p1557
sg1234
S'1.0'
p1558
sg1236
S'10.2'
p1559
sg1238
S'-0.5'
p1560
sg64
S'674'
p1561
sg1241
S'-2.3'
p1562
sg56
S'2008-09'
p1563
sg1244
S'0.3'
p1564
sba(isrc.gp1.models.Advanced
Advanced
p1565
(dp1566
g1199
S'6.4'
p1567
sg1201
S'13.4'
p1568
sg1203
S'-0.002'
p1569
sg1205
S'1.6'
p1570
sg1207
S'16.0'
p1571
sg1209
S'11.3'
p1572
sg1211
S'-1.0'
p1573
sg22
S'PF'
p1574
sg1214
S'-0.5'
p1575
sg1216
S'.449'
p1576
sg1218
S'16.2'
p1577
sg1220
S'.099'
p1578
sg1222
S'.396'
p1579
sg28
S'NBA'
p1580
sg1225
S'-3.1'
p1581
sg1227
S'7.2'
p1582
sg1229
S'0.6'
p1583
sg40
S'29'
p1584
sg42
S'TOT'
p1585
sg44
S'41'
p1586
sg1234
S'0.6'
p1587
sg1236
S'7.9'
p1588
sg1238
S'-0.6'
p1589
sg64
S'891'
p1590
sg1241
S'-4.1'
p1591
sg56
S'2009-10'
p1592
sg1244
S'0.0'
p1593
sba(isrc.gp1.models.Advanced
Advanced
p1594
(dp1595
g1199
S'7.4'
p1596
sg1201
S'10.1'
p1597
sg1203
S'.055'
p1598
sg1205
S'1.2'
p1599
sg1207
S'17.3'
p1600
sg1209
S'13.1'
p1601
sg1211
S'-0.5'
p1602
sg22
S'PF'
p1603
sg1214
S'0.0'
p1604
sg1216
S'.437'
p1605
sg1218
S'18.7'
p1606
sg1220
S'.143'
p1607
sg1222
S'.524'
p1608
sg28
S'NBA'
p1609
sg1225
S'-2.5'
p1610
sg1227
S'8.6'
p1611
sg1229
S'0.2'
p1612
sg40
S'29'
p1613
sg42
S'CHA'
p1614
sg44
g409
sg1234
S'0.6'
p1615
sg1236
S'8.0'
p1616
sg1238
S'0.0'
p1617
sg64
S'133'
p1618
sg1241
S'-3.0'
p1619
sg56
S'2009-10'
p1620
sg1244
S'0.2'
p1621
sba(isrc.gp1.models.Advanced
Advanced
p1622
(dp1623
g1199
S'6.2'
p1624
sg1201
S'14.0'
p1625
sg1203
S'-0.012'
p1626
sg1205
S'1.6'
p1627
sg1207
S'15.8'
p1628
sg1209
S'10.9'
p1629
sg1211
S'-1.1'
p1630
sg22
S'PF'
p1631
sg1214
S'-0.4'
p1632
sg1216
S'.452'
p1633
sg1218
S'15.8'
p1634
sg1220
S'.091'
p1635
sg1222
S'.372'
p1636
sg28
S'NBA'
p1637
sg1225
S'-3.2'
p1638
sg1227
S'6.9'
p1639
sg1229
S'0.4'
p1640
sg40
S'29'
p1641
sg42
S'GSW'
p1642
sg44
S'33'
p1643
sg1234
S'0.6'
p1644
sg1236
S'7.9'
p1645
sg1238
S'-0.6'
p1646
sg64
S'758'
p1647
sg1241
S'-4.3'
p1648
sg56
S'2009-10'
p1649
sg1244
S'-0.2'
p1650
sba(isrc.gp1.models.Advanced
Advanced
p1651
(dp1652
g1199
S'6.1'
p1653
sg1201
S'14.6'
p1654
sg1203
S'.086'
p1655
sg1205
S'1.9'
p1656
sg1207
S'14.7'
p1657
sg1209
S'10.3'
p1658
sg1211
S'0.2'
p1659
sg22
S'PF'
p1660
sg1214
S'0.6'
p1661
sg1216
S'.562'
p1662
sg1218
S'14.7'
p1663
sg1220
S'.107'
p1664
sg1222
S'.544'
p1665
sg28
S'NBA'
p1666
sg1225
S'-0.2'
p1667
sg1227
S'9.6'
p1668
sg1229
S'0.9'
p1669
sg40
S'30'
p1670
sg42
S'GSW'
p1671
sg44
S'74'
p1672
sg1234
S'2.9'
p1673
sg1236
S'12.6'
p1674
sg1238
S'1.2'
p1675
sg64
S'1169'
p1676
sg1241
S'0.0'
p1677
sg56
S'2010-11'
p1678
sg1244
S'2.1'
p1679
sba(isrc.gp1.models.Advanced
Advanced
p1680
(dp1681
g1199
S'5.3'
p1682
sg1201
S'14.3'
p1683
sg1203
S'.103'
p1684
sg1205
S'1.5'
p1685
sg1207
S'15.2'
p1686
sg1209
S'11.1'
p1687
sg1211
S'0.6'
p1688
sg22
S'SF'
p1689
sg1214
S'0.4'
p1690
sg1216
S'.524'
p1691
sg1218
S'16.8'
p1692
sg1220
S'.147'
p1693
sg1222
S'.685'
p1694
sg28
S'NBA'
p1695
sg1225
S'-0.3'
p1696
sg1227
S'10.9'
p1697
sg1229
S'1.1'
p1698
sg40
S'31'
p1699
sg42
S'ATL'
p1700
sg44
S'49'
p1701
sg1234
S'1.5'
p1702
sg1236
S'11.7'
p1703
sg1238
S'0.5'
p1704
sg64
S'755'
p1705
sg1241
S'0.3'
p1706
sg56
S'2011-12'
p1707
sg1244
S'1.6'
p1708
sba(isrc.gp1.models.Advanced
Advanced
p1709
(dp1710
g1199
S'7.9'
p1711
sg1201
S'13.6'
p1712
sg1203
S'.020'
p1713
sg1205
S'3.0'
p1714
sg1207
S'16.4'
p1715
sg1209
S'11.2'
p1716
sg1211
S'1.3'
p1717
sg22
S'PF'
p1718
sg1214
S'0.0'
p1719
sg1216
S'.372'
p1720
sg1218
S'14.5'
p1721
sg1220
S'.070'
p1722
sg1222
S'.628'
p1723
sg28
S'NBA'
p1724
sg1225
S'-3.5'
p1725
sg1227
S'8.6'
p1726
sg1229
S'0.3'
p1727
sg40
S'32'
p1728
sg42
S'CHI'
p1729
sg44
S'25'
p1730
sg1234
S'2.1'
p1731
sg1236
S'6.3'
p1732
sg1238
S'-0.2'
p1733
sg64
S'144'
p1734
sg1241
S'-2.2'
p1735
sg56
S'2012-13'
p1736
sg1244
S'0.1'
p1737
sbasS'_per36Minutes'
p1738
(lp1739
(isrc.gp1.models.Per36Minutes
Per36Minutes
p1740
(dp1741
g8
S'1.3'
p1742
sg10
S'4.6'
p1743
sg12
S'.412'
p1744
sg14
S'2.4'
p1745
sg16
S'.420'
p1746
sg18
S'1.9'
p1747
sg20
S'11.9'
p1748
sg22
S'PF'
p1749
sg24
S'.681'
p1750
sg28
S'NBA'
p1751
sg30
S'1.6'
p1752
sg32
S'10.4'
p1753
sg34
S'3.5'
p1754
sg36
S'2.1'
p1755
sg38
S'6.7'
p1756
sg40
S'21'
p1757
sg42
S'SEA'
p1758
sg44
S'61'
p1759
sg46
S'0.7'
p1760
sg48
S'2.3'
p1761
sg50
S'1.4'
p1762
sg52
S'5.8'
p1763
sg54
S'5.4'
p1764
sg56
S'2001-02'
p1765
sg58
S'4.3'
p1766
sg60
S'2.1'
p1767
sg62
S'.406'
p1768
sg64
S'1230'
p1769
sg66
S'16'
p1770
sba(isrc.gp1.models.Per36Minutes
Per36Minutes
p1771
(dp1772
g8
S'1.4'
p1773
sg10
S'5.5'
p1774
sg12
S'.410'
p1775
sg14
S'1.8'
p1776
sg16
S'.355'
p1777
sg18
S'2.0'
p1778
sg20
S'13.6'
p1779
sg22
S'PF'
p1780
sg24
S'.706'
p1781
sg28
S'NBA'
p1782
sg30
S'1.2'
p1783
sg32
S'12.6'
p1784
sg34
S'2.6'
p1785
sg36
S'1.9'
p1786
sg38
S'6.1'
p1787
sg40
S'22'
p1788
sg42
S'SEA'
p1789
sg44
S'72'
p1790
sg46
S'0.4'
p1791
sg48
S'3.2'
p1792
sg50
S'1.4'
p1793
sg52
S'7.1'
p1794
sg54
S'4.7'
p1795
sg56
S'2002-03'
p1796
sg58
S'5.2'
p1797
sg60
S'1.9'
p1798
sg62
S'.453'
p1799
sg64
S'1910'
p1800
sg66
S'16'
p1801
sba(isrc.gp1.models.Per36Minutes
Per36Minutes
p1802
(dp1803
g8
S'1.6'
p1804
sg10
S'5.8'
p1805
sg12
S'.425'
p1806
sg14
S'2.2'
p1807
sg16
S'.371'
p1808
sg18
S'2.2'
p1809
sg20
S'14.3'
p1810
sg22
S'PF'
p1811
sg24
S'.748'
p1812
sg28
S'NBA'
p1813
sg30
S'1.2'
p1814
sg32
S'12.6'
p1815
sg34
S'2.9'
p1816
sg36
S'2.0'
p1817
sg38
S'6.3'
p1818
sg40
S'23'
p1819
sg42
S'SEA'
p1820
sg44
S'77'
p1821
sg46
S'0.7'
p1822
sg48
S'3.2'
p1823
sg50
S'1.5'
p1824
sg52
S'6.7'
p1825
sg54
S'4.7'
p1826
sg56
S'2003-04'
p1827
sg58
S'5.4'
p1828
sg60
S'1.7'
p1829
sg62
S'.471'
p1830
sg64
S'2321'
p1831
sg66
S'38'
p1832
sba(isrc.gp1.models.Per36Minutes
Per36Minutes
p1833
(dp1834
g8
S'1.0'
p1835
sg10
S'6.4'
p1836
sg12
S'.409'
p1837
sg14
S'1.7'
p1838
sg16
S'.389'
p1839
sg18
S'2.5'
p1840
sg20
S'14.4'
p1841
sg22
S'PF'
p1842
sg24
S'.786'
p1843
sg28
S'NBA'
p1844
sg30
S'1.1'
p1845
sg32
S'12.6'
p1846
sg34
S'3.3'
p1847
sg36
S'2.0'
p1848
sg38
S'5.6'
p1849
sg40
S'24'
p1850
sg42
S'SEA'
p1851
sg44
S'63'
p1852
sg46
S'0.6'
p1853
sg48
S'2.7'
p1854
sg50
S'1.6'
p1855
sg52
S'6.2'
p1856
sg54
S'4.6'
p1857
sg56
S'2004-05'
p1858
sg58
S'5.2'
p1859
sg60
S'1.6'
p1860
sg62
S'.430'
p1861
sg64
S'1856'
p1862
sg66
g163
sba(isrc.gp1.models.Per36Minutes
Per36Minutes
p1863
(dp1864
g8
S'1.2'
p1865
sg10
S'6.5'
p1866
sg12
S'.407'
p1867
sg14
S'2.5'
p1868
sg16
S'.390'
p1869
sg18
S'2.5'
p1870
sg20
S'13.8'
p1871
sg22
S'PF'
p1872
sg24
S'.816'
p1873
sg28
S'NBA'
p1874
sg30
S'1.1'
p1875
sg32
S'11.7'
p1876
sg34
S'3.8'
p1877
sg36
S'2.1'
p1878
sg38
S'6.5'
p1879
sg40
S'25'
p1880
sg42
S'TOT'
p1881
sg44
S'77'
p1882
sg46
S'0.5'
p1883
sg48
S'2.3'
p1884
sg50
S'1.7'
p1885
sg52
S'5.3'
p1886
sg54
S'5.4'
p1887
sg56
S'2005-06'
p1888
sg58
S'4.8'
p1889
sg60
S'1.7'
p1890
sg62
S'.429'
p1891
sg64
S'1974'
p1892
sg66
S'27'
p1893
sba(isrc.gp1.models.Per36Minutes
Per36Minutes
p1894
(dp1895
g8
S'1.3'
p1896
sg10
S'6.5'
p1897
sg12
S'.401'
p1898
sg14
S'2.4'
p1899
sg16
S'.367'
p1900
sg18
S'2.4'
p1901
sg20
S'14.4'
p1902
sg22
S'PF'
p1903
sg24
S'.887'
p1904
sg28
S'NBA'
p1905
sg30
S'1.1'
p1906
sg32
S'12.7'
p1907
sg34
S'4.3'
p1908
sg36
S'2.0'
p1909
sg38
S'6.2'
p1910
sg40
S'25'
p1911
sg42
S'SEA'
p1912
sg44
S'47'
p1913
sg46
S'0.5'
p1914
sg48
S'2.7'
p1915
sg50
S'1.8'
p1916
sg52
S'6.2'
p1917
sg54
S'4.9'
p1918
sg56
S'2005-06'
p1919
sg58
S'5.1'
p1920
sg60
S'1.8'
p1921
sg62
S'.436'
p1922
sg64
S'1089'
p1923
sg66
S'16'
p1924
sba(isrc.gp1.models.Per36Minutes
Per36Minutes
p1925
(dp1926
g8
S'1.0'
p1927
sg10
S'6.4'
p1928
sg12
S'.417'
p1929
sg14
S'2.6'
p1930
sg16
S'.418'
p1931
sg18
S'2.7'
p1932
sg20
S'13.0'
p1933
sg22
S'PF'
p1934
sg24
S'.731'
p1935
sg28
S'NBA'
p1936
sg30
S'1.2'
p1937
sg32
S'10.5'
p1938
sg34
S'3.3'
p1939
sg36
S'2.1'
p1940
sg38
S'7.0'
p1941
sg40
S'25'
p1942
sg42
S'LAC'
p1943
sg44
S'30'
p1944
sg46
S'0.6'
p1945
sg48
S'1.7'
p1946
sg50
S'1.5'
p1947
sg52
S'4.1'
p1948
sg54
S'5.9'
p1949
sg56
S'2005-06'
p1950
sg58
S'4.4'
p1951
sg60
S'1.6'
p1952
sg62
S'.416'
p1953
sg64
S'885'
p1954
sg66
S'11'
p1955
sba(isrc.gp1.models.Per36Minutes
Per36Minutes
p1956
(dp1957
g8
S'1.9'
p1958
sg10
S'4.3'
p1959
sg12
S'.424'
p1960
sg14
S'2.4'
p1961
sg16
S'.339'
p1962
sg18
S'1.5'
p1963
sg20
S'13.2'
p1964
sg22
S'PF'
p1965
sg24
S'.726'
p1966
sg28
S'NBA'
p1967
sg30
S'0.9'
p1968
sg32
S'11.5'
p1969
sg34
S'4.6'
p1970
sg36
S'2.7'
p1971
sg38
S'6.6'
p1972
sg40
S'26'
p1973
sg42
S'LAL'
p1974
sg44
S'55'
p1975
sg46
S'0.7'
p1976
sg48
S'3.4'
p1977
sg50
S'1.9'
p1978
sg52
S'7.2'
p1979
sg54
S'4.6'
p1980
sg56
S'2006-07'
p1981
sg58
S'4.9'
p1982
sg60
S'2.5'
p1983
sg62
S'.475'
p1984
sg64
S'986'
p1985
sg66
S'15'
p1986
sba(isrc.gp1.models.Per36Minutes
Per36Minutes
p1987
(dp1988
g8
S'1.4'
p1989
sg10
S'5.7'
p1990
sg12
S'.453'
p1991
sg14
S'3.0'
p1992
sg16
S'.406'
p1993
sg18
S'2.3'
p1994
sg20
S'13.2'
p1995
sg22
S'SF'
p1996
sg24
S'.800'
p1997
sg28
S'NBA'
p1998
sg30
S'1.1'
p1999
sg32
S'10.6'
p2000
sg34
S'3.6'
p2001
sg36
S'1.6'
p2002
sg38
S'5.2'
p2003
sg40
S'27'
p2004
sg42
S'LAL'
p2005
sg44
S'65'
p2006
sg46
S'0.3'
p2007
sg48
S'2.5'
p2008
sg50
S'1.3'
p2009
sg52
S'4.9'
p2010
sg54
S'3.9'
p2011
sg56
S'2007-08'
p2012
sg58
S'4.8'
p2013
sg60
S'1.8'
p2014
sg62
S'.507'
p2015
sg64
S'1483'
p2016
sg66
S'41'
p2017
sba(isrc.gp1.models.Per36Minutes
Per36Minutes
p2018
(dp2019
g8
S'1.1'
p2020
sg10
S'6.5'
p2021
sg12
S'.421'
p2022
sg14
S'2.0'
p2023
sg16
S'.401'
p2024
sg18
S'2.6'
p2025
sg20
S'13.5'
p2026
sg22
S'SF'
p2027
sg24
S'.741'
p2028
sg28
S'NBA'
p2029
sg30
S'1.1'
p2030
sg32
S'11.6'
p2031
sg34
S'2.8'
p2032
sg36
S'1.4'
p2033
sg38
S'5.5'
p2034
sg40
S'28'
p2035
sg42
S'TOT'
p2036
sg44
S'78'
p2037
sg46
S'0.4'
p2038
sg48
S'2.3'
p2039
sg50
S'1.1'
p2040
sg52
S'5.1'
p2041
sg54
S'4.4'
p2042
sg56
S'2008-09'
p2043
sg58
S'4.9'
p2044
sg60
S'2.4'
p2045
sg62
S'.446'
p2046
sg64
S'1445'
p2047
sg66
S'31'
p2048
sba(isrc.gp1.models.Per36Minutes
Per36Minutes
p2049
(dp2050
g8
S'0.8'
p2051
sg10
S'6.4'
p2052
sg12
S'.444'
p2053
sg14
S'1.8'
p2054
sg16
S'.441'
p2055
sg18
S'2.8'
p2056
sg20
S'12.7'
p2057
sg22
S'SF'
p2058
sg24
S'.852'
p2059
sg28
S'NBA'
p2060
sg30
S'1.3'
p2061
sg32
S'10.0'
p2062
sg34
S'2.4'
p2063
sg36
S'1.3'
p2064
sg38
S'5.5'
p2065
sg40
S'28'
p2066
sg42
S'LAL'
p2067
sg44
S'46'
p2068
sg46
S'0.3'
p2069
sg48
S'1.6'
p2070
sg50
S'1.1'
p2071
sg52
S'3.6'
p2072
sg54
S'4.6'
p2073
sg56
S'2008-09'
p2074
sg58
S'4.4'
p2075
sg60
S'2.2'
p2076
sg62
S'.449'
p2077
sg64
S'771'
p2078
sg66
S'28'
p2079
sba(isrc.gp1.models.Per36Minutes
Per36Minutes
p2080
(dp2081
g8
S'1.4'
p2082
sg10
S'6.7'
p2083
sg12
S'.401'
p2084
sg14
S'2.3'
p2085
sg16
S'.357'
p2086
sg18
S'2.4'
p2087
sg20
S'14.3'
p2088
sg22
S'SF'
p2089
sg24
S'.645'
p2090
sg28
S'NBA'
p2091
sg30
S'1.0'
p2092
sg32
S'13.5'
p2093
sg34
S'3.2'
p2094
sg36
S'1.7'
p2095
sg38
S'5.6'
p2096
sg40
S'28'
p2097
sg42
S'CHA'
p2098
sg44
S'32'
p2099
sg46
S'0.4'
p2100
sg48
S'3.0'
p2101
sg50
S'1.1'
p2102
sg52
S'6.7'
p2103
sg54
S'4.2'
p2104
sg56
S'2008-09'
p2105
sg58
S'5.4'
p2106
sg60
S'2.7'
p2107
sg62
S'.444'
p2108
sg64
S'674'
p2109
sg66
g419
sba(isrc.gp1.models.Per36Minutes
Per36Minutes
p2110
(dp2111
g8
S'2.1'
p2112
sg10
S'4.4'
p2113
sg12
S'.377'
p2114
sg14
S'1.8'
p2115
sg16
S'.278'
p2116
sg18
S'1.2'
p2117
sg20
S'10.3'
p2118
sg22
S'PF'
p2119
sg24
S'.741'
p2120
sg28
S'NBA'
p2121
sg30
S'1.2'
p2122
sg32
S'11.0'
p2123
sg34
S'3.9'
p2124
sg36
S'1.1'
p2125
sg38
S'7.2'
p2126
sg40
S'29'
p2127
sg42
S'TOT'
p2128
sg44
S'41'
p2129
sg46
S'0.3'
p2130
sg48
S'2.9'
p2131
sg50
S'0.8'
p2132
sg52
S'6.7'
p2133
sg54
S'5.1'
p2134
sg56
S'2009-10'
p2135
sg58
S'4.2'
p2136
sg60
S'1.8'
p2137
sg62
S'.442'
p2138
sg64
S'891'
p2139
sg66
S'20'
p2140
sba(isrc.gp1.models.Per36Minutes
Per36Minutes
p2141
(dp2142
g8
S'2.2'
p2143
sg10
S'6.0'
p2144
sg12
S'.333'
p2145
sg14
S'1.9'
p2146
sg16
S'.318'
p2147
sg18
S'1.9'
p2148
sg20
S'10.6'
p2149
sg22
S'PF'
p2150
sg24
S'.667'
p2151
sg28
S'NBA'
p2152
sg30
S'0.8'
p2153
sg32
S'11.4'
p2154
sg34
S'4.9'
p2155
sg36
S'1.6'
p2156
sg38
S'7.8'
p2157
sg40
S'29'
p2158
sg42
S'CHA'
p2159
sg44
g409
sg46
S'0.3'
p2160
sg48
S'1.9'
p2161
sg50
S'1.1'
p2162
sg52
S'5.4'
p2163
sg54
S'5.7'
p2164
sg56
S'2009-10'
p2165
sg58
S'3.8'
p2166
sg60
S'1.4'
p2167
sg62
S'.350'
p2168
sg64
S'133'
p2169
sg66
g163
sba(isrc.gp1.models.Per36Minutes
Per36Minutes
p2170
(dp2171
g8
S'2.0'
p2172
sg10
S'4.1'
p2173
sg12
S'.385'
p2174
sg14
S'1.8'
p2175
sg16
S'.267'
p2176
sg18
S'1.1'
p2177
sg20
S'10.3'
p2178
sg22
S'PF'
p2179
sg24
S'.762'
p2180
sg28
S'NBA'
p2181
sg30
S'1.2'
p2182
sg32
S'11.0'
p2183
sg34
S'3.8'
p2184
sg36
S'1.0'
p2185
sg38
S'7.1'
p2186
sg40
S'29'
p2187
sg42
S'GSW'
p2188
sg44
S'33'
p2189
sg46
S'0.3'
p2190
sg48
S'3.1'
p2191
sg50
S'0.8'
p2192
sg52
S'6.9'
p2193
sg54
S'5.0'
p2194
sg56
S'2009-10'
p2195
sg58
S'4.2'
p2196
sg60
S'1.9'
p2197
sg62
S'.455'
p2198
sg64
S'758'
p2199
sg66
S'20'
p2200
sba(isrc.gp1.models.Per36Minutes
Per36Minutes
p2201
(dp2202
g8
S'2.0'
p2203
sg10
S'5.3'
p2204
sg12
S'.431'
p2205
sg14
S'2.4'
p2206
sg16
S'.405'
p2207
sg18
S'2.2'
p2208
sg20
S'11.5'
p2209
sg22
S'PF'
p2210
sg24
S'.882'
p2211
sg28
S'NBA'
p2212
sg30
S'1.4'
p2213
sg32
S'9.8'
p2214
sg34
S'4.8'
p2215
sg36
S'1.0'
p2216
sg38
S'6.5'
p2217
sg40
S'30'
p2218
sg42
S'GSW'
p2219
sg44
S'74'
p2220
sg46
S'1.4'
p2221
sg48
S'2.1'
p2222
sg50
S'0.9'
p2223
sg52
S'4.5'
p2224
sg54
S'4.6'
p2225
sg56
S'2010-11'
p2226
sg58
S'4.2'
p2227
sg60
S'1.8'
p2228
sg62
S'.462'
p2229
sg64
S'1169'
p2230
sg66
g463
sba(isrc.gp1.models.Per36Minutes
Per36Minutes
p2231
(dp2232
g8
S'1.6'
p2233
sg10
S'6.4'
p2234
sg12
S'.376'
p2235
sg14
S'2.6'
p2236
sg16
S'.370'
p2237
sg18
S'2.4'
p2238
sg20
S'10.5'
p2239
sg22
S'SF'
p2240
sg24
S'.759'
p2241
sg28
S'NBA'
p2242
sg30
S'1.0'
p2243
sg32
S'9.4'
p2244
sg34
S'3.0'
p2245
sg36
S'1.4'
p2246
sg38
S'6.8'
p2247
sg40
S'31'
p2248
sg42
S'ATL'
p2249
sg44
S'49'
p2250
sg46
S'0.7'
p2251
sg48
S'1.1'
p2252
sg50
S'1.0'
p2253
sg52
S'3.0'
p2254
sg54
S'5.2'
p2255
sg56
S'2011-12'
p2256
sg58
S'3.5'
p2257
sg60
S'1.7'
p2258
sg62
S'.387'
p2259
sg64
S'755'
p2260
sg66
g419
sba(isrc.gp1.models.Per36Minutes
Per36Minutes
p2261
(dp2262
g8
S'2.5'
p2263
sg10
S'6.8'
p2264
sg12
S'.302'
p2265
sg14
S'2.0'
p2266
sg16
S'.185'
p2267
sg18
S'1.2'
p2268
sg20
S'8.2'
p2269
sg22
S'PF'
p2270
sg24
S'.667'
p2271
sg28
S'NBA'
p2272
sg30
S'2.0'
p2273
sg32
S'10.7'
p2274
sg34
S'7.2'
p2275
sg36
S'0.7'
p2276
sg38
S'7.0'
p2277
sg40
S'32'
p2278
sg42
S'CHI'
p2279
sg44
S'25'
p2280
sg46
S'1.0'
p2281
sg48
S'2.0'
p2282
sg50
S'0.5'
p2283
sg52
S'4.0'
p2284
sg54
S'4.5'
p2285
sg56
S'2012-13'
p2286
sg58
S'3.2'
p2287
sg60
S'1.7'
p2288
sg62
S'.500'
p2289
sg64
S'144'
p2290
sg66
g163
sbasS'_fromYear'
p2291
S'2002'
p2292
sS'_url'
p2293
S'http://www.basketball-reference.com/players/r/radmavl01.html'
p2294
sS'_perGame'
p2295
(isrc.gp1.models.PerGame
PerGame
p2296
(dp2297
g8
S'0.4'
p2298
sg10
S'1.1'
p2299
sg12
S'.302'
p2300
sS'_effectiveFieldGalPercentage'
p2301
S'.360'
p2302
sg14
S'0.3'
p2303
sg16
S'.185'
p2304
sg18
S'0.2'
p2305
sg20
S'1.3'
p2306
sg22
S'PF'
p2307
sg24
S'.667'
p2308
sg28
S'NBA'
p2309
sg30
S'0.3'
p2310
sg34
S'1.2'
p2311
sS'_fieldGoalsttempted'
p2312
S'1.7'
p2313
sg36
S'0.1'
p2314
sg38
S'1.1'
p2315
sg40
S'32'
p2316
sg42
S'CHI'
p2317
sg44
S'25'
p2318
sg46
S'0.2'
p2319
sg48
S'0.3'
p2320
sg50
S'0.1'
p2321
sg52
S'0.6'
p2322
sg54
S'0.7'
p2323
sg56
S'2012-13'
p2324
sg58
S'0.5'
p2325
sg60
S'0.3'
p2326
sg62
S'.500'
p2327
sg64
S'5.8'
p2328
sg66
g163
sbsS'_weight'
p2329
S'227'
p2330
sS'_dob'
p2331
S'19-11-1980'
p2332
sS'_salary'
p2333
(lp2334
(isrc.gp1.models.Salary
Salary
p2335
(dp2336
g42
S'Seattle SuperSonics'
p2337
sg28
S'NBA'
p2338
sg2333
S'$1,452,000'
p2339
sg56
S'2001-02'
p2340
sba(isrc.gp1.models.Salary
Salary
p2341
(dp2342
g42
S'Seattle SuperSonics'
p2343
sg28
S'NBA'
p2344
sg2333
S'$1,560,840'
p2345
sg56
S'2002-03'
p2346
sba(isrc.gp1.models.Salary
Salary
p2347
(dp2348
g42
S'Seattle SuperSonics'
p2349
sg28
S'NBA'
p2350
sg2333
S'$1,669,800'
p2351
sg56
S'2003-04'
p2352
sba(isrc.gp1.models.Salary
Salary
p2353
(dp2354
g42
S'Seattle SuperSonics'
p2355
sg28
S'NBA'
p2356
sg2333
S'$2,300,984'
p2357
sg56
S'2004-05'
p2358
sba(isrc.gp1.models.Salary
Salary
p2359
(dp2360
g42
S'Seattle SuperSonics'
p2361
sg28
S'NBA'
p2362
sg2333
S'$3,166,155'
p2363
sg56
S'2005-06'
p2364
sba(isrc.gp1.models.Salary
Salary
p2365
(dp2366
g42
S'Los Angeles Lakers'
p2367
sg28
S'NBA'
p2368
sg2333
S'$5,215,000'
p2369
sg56
S'2006-07'
p2370
sba(isrc.gp1.models.Salary
Salary
p2371
(dp2372
g42
S'Los Angeles Lakers'
p2373
sg28
S'NBA'
p2374
sg2333
S'$5,632,200'
p2375
sg56
S'2007-08'
p2376
sba(isrc.gp1.models.Salary
Salary
p2377
(dp2378
g42
S'Charlotte Bobcats'
p2379
sg28
S'NBA'
p2380
sg2333
S'$6,049,400'
p2381
sg56
S'2008-09'
p2382
sba(isrc.gp1.models.Salary
Salary
p2383
(dp2384
g42
S'Golden State Warriors'
p2385
sg28
S'NBA'
p2386
sg2333
S'$6,466,600'
p2387
sg56
S'2009-10'
p2388
sba(isrc.gp1.models.Salary
Salary
p2389
(dp2390
g42
S'Golden State Warriors'
p2391
sg28
S'NBA'
p2392
sg2333
S'$6,883,800'
p2393
sg56
S'2010-11'
p2394
sba(isrc.gp1.models.Salary
Salary
p2395
(dp2396
g42
S'Atlanta Hawks'
p2397
sg28
S'NBA'
p2398
sg2333
S'$1,352,181'
p2399
sg56
S'2011-12'
p2400
sba(isrc.gp1.models.Salary
Salary
p2401
(dp2402
g42
S'Chicago Bulls'
p2403
sg28
S'NBA'
p2404
sg2333
S'$1,352,181'
p2405
sg56
S'2012-13'
p2406
sbasg22
S'F'
p2407
sb.