(isrc.gp1.models.Player
Player
p0
(dp1
S'_experience'
p2
S'NA'
p3
sS'_totals'
p4
(lp5
(isrc.gp1.models.Totals
Totals
p6
(dp7
S'_offensiveRebounds'
p8
S'106'
p9
sS'_threePointsAttempted'
p10
S'.283'
p11
sS'_fieldGoalsPercentage'
p12
S'17'
p13
sS'_assist'
p14
S'186'
p15
sS'_threePointsPercentage'
p16
S'443'
p17
sS'_threePoints'
p18
S'60'
p19
sS'_points'
p20
g3
sS'_position'
p21
S'SG'
p22
sS'_freeThrowsPercentage'
p23
S'125'
p24
sS'_effectiveFieldGoalPercentage'
p25
S'215'
p26
sS'_league'
p27
S'ABA'
p28
sS'_steals'
p29
S'152'
p30
sS'_fieldGoalsAttempted'
p31
S'.415'
p32
sS'_personalFouls'
p33
g3
sS'_freeThrowsAttempted'
p34
S'.754'
p35
sS'_totalRebounds'
p36
S'168'
p37
sS'_age'
p38
S'21'
p39
sS'_team'
p40
S'DNR'
p41
sS'_games'
p42
S'81'
p43
sS'_blocks'
p44
S'1152'
p45
sS'_twoPoints'
p46
S'1048'
p47
sS'_freeThrows'
p48
S'285'
p49
sS'_twoPointsAttempted'
p50
S'.423'
p51
sS'_defensiveRebounds'
p52
S'231'
p53
sS'_season'
p54
S'1970-71'
p55
sS'_fieldGoals'
p56
S'1108'
p57
sS'_turnOvers'
p58
g3
sS'_twoPointsPercentage'
p59
S'.423'
p60
sS'_minutesPlayed'
p61
S'460'
p62
sS'_gamesStarted'
p63
S'1820'
p64
sba(isrc.gp1.models.Totals
Totals
p65
(dp66
g8
S'227'
p67
sg10
S'.136'
p68
sg12
S'3'
p69
sg14
S'266'
p70
sg16
S'917'
p71
sg18
S'22'
p72
sg20
g3
sg21
S'SG'
p73
sg23
S'171'
p74
sg25
S'457'
p75
sg27
S'ABA'
p76
sg29
S'244'
p77
sg31
S'.460'
p78
sg33
g3
sg34
S'.805'
p79
sg36
S'258'
p80
sg38
S'22'
p81
sg40
S'DNR'
p82
sg42
S'84'
p83
sg44
S'2300'
p84
sg46
S'1978'
p85
sg48
S'568'
p86
sg50
S'.464'
p87
sg52
S'398'
p88
sg54
S'1971-72'
p89
sg56
S'2000'
p90
sg58
g3
sg59
S'.461'
p91
sg61
S'920'
p92
sg63
S'3006'
p93
sba(isrc.gp1.models.Totals
Totals
p94
(dp95
g8
S'231'
p96
sg10
S'.208'
p97
sg12
S'5'
p98
sg14
S'127'
p99
sg16
S'727'
p100
sg18
S'24'
p101
sg20
g3
sg21
S'SG'
p102
sg23
S'140'
p103
sg25
S'421'
p104
sg27
S'ABA'
p105
sg29
S'283'
p106
sg31
S'.438'
p107
sg33
g3
sg34
S'.757'
p108
sg36
S'222'
p109
sg38
S'23'
p110
sg40
S'DNR'
p111
sg42
S'81'
p112
sg44
S'241'
p113
sg46
S'1646'
p114
sg48
S'556'
p115
sg50
S'.442'
p116
sg52
S'371'
p117
sg54
S'1972-73'
p118
sg56
S'1670'
p119
sg58
S'1890'
p120
sg59
S'.440'
p121
sg61
S'732'
p122
sg63
S'2589'
p123
sba(isrc.gp1.models.Totals
Totals
p124
(dp125
g8
S'213'
p126
sg10
S'.083'
p127
sg12
S'2'
p128
sg14
S'103'
p129
sg16
S'595'
p130
sg18
S'24'
p131
sg20
g3
sg21
S'SF'
p132
sg23
S'113'
p133
sg25
S'208'
p134
sg27
S'ABA'
p135
sg29
S'12'
p136
sg31
S'.428'
p137
sg33
S'1404'
p138
sg34
S'.754'
p139
sg36
S'191'
p140
sg38
S'24'
p141
sg40
S'DNR'
p142
sg42
S'75'
p143
sg44
S'196'
p144
sg46
S'1371'
p145
sg48
S'276'
p146
sg50
S'.434'
p147
sg52
S'326'
p148
sg54
S'1973-74'
p149
sg56
S'1395'
p150
sg58
S'190'
p151
sg59
S'.429'
p152
sg61
S'597'
p153
sg63
S'2244'
p154
sba(isrc.gp1.models.Totals
Totals
p155
(dp156
g8
S'283'
p157
sg10
S'.083'
p158
sg12
S'1'
p159
sg14
S'166'
p160
sg16
S'693'
p161
sg18
S'12'
p162
sg20
g3
sg21
S'SG'
p163
sg23
S'108'
p164
sg25
S'303'
p165
sg27
S'ABA'
p166
sg29
S'19'
p167
sg31
S'.505'
p168
sg33
S'1692'
p169
sg34
S'.754'
p170
sg36
S'442'
p171
sg38
S'25'
p172
sg40
S'DNA'
p173
sg42
S'82'
p174
sg44
S'314'
p175
sg46
S'1362'
p176
sg48
S'402'
p177
sg50
S'.509'
p178
sg52
S'391'
p179
sg54
S'1974-75'
p180
sg56
S'1374'
p181
sg58
S'214'
p182
sg59
S'.505'
p183
sg61
S'694'
p184
sg63
S'2863'
p185
sba(isrc.gp1.models.Totals
Totals
p186
(dp187
g8
S'333'
p188
sg10
S'.167'
p189
sg12
S'4'
p190
sg14
S'153'
p191
sg16
S'615'
p192
sg18
S'24'
p193
sg20
g3
sg21
S'SG'
p194
sg23
S'121'
p195
sg25
S'273'
p196
sg27
S'ABA'
p197
sg29
S'23'
p198
sg31
S'.511'
p199
sg33
S'1515'
p200
sg34
S'.780'
p201
sg36
S'597'
p202
sg38
S'26'
p203
sg40
S'DNA'
p204
sg42
S'84'
p205
sg44
S'360'
p206
sg46
S'1187'
p207
sg48
S'350'
p208
sg50
S'.518'
p209
sg52
S'454'
p210
sg54
S'1975-76'
p211
sg56
S'1211'
p212
sg58
S'183'
p213
sg59
S'.513'
p214
sg61
S'619'
p215
sg63
S'3121'
p216
sba(isrc.gp1.models.Totals
Totals
p217
(dp218
g8
S'68'
p219
sg10
S'.427'
p220
sg12
S'356'
p221
sg14
S'850'
p222
sg16
S'.427'
p223
sg18
S'834'
p224
sg20
g3
sg21
S'SG'
p225
sg23
S'180'
p226
sg25
S'48'
p227
sg27
S'NBA'
p228
sg29
g3
sg31
S'.427'
p229
sg33
g3
sg34
S'181'
p230
sg36
S'100'
p231
sg38
S'27'
p232
sg40
S'DET'
p233
sg42
S'77'
p234
sg44
g3
sg46
S'138'
p235
sg48
S'133'
p236
sg50
S'195'
p237
sg52
g98
sg54
S'1976-77'
p238
sg56
S'834'
p239
sg58
g3
sg59
S'.708'
p240
sg61
S'356'
p241
sg63
S'1597'
p242
sba(isrc.gp1.models.Totals
Totals
p243
(dp244
g8
S'75'
p245
sg10
S'.375'
p246
sg12
S'216'
p247
sg14
S'90'
p248
sg16
S'.375'
p249
sg18
S'576'
p250
sg20
g3
sg21
S'SG'
p251
sg23
S'159'
p252
sg25
S'53'
p253
sg27
S'NBA'
p254
sg29
S'517'
p255
sg31
S'.375'
p256
sg33
g3
sg34
S'157'
p257
sg36
S'126'
p258
sg38
S'28'
p259
sg40
S'TOT'
p260
sg42
S'64'
p261
sg44
g3
sg46
S'85'
p262
sg48
S'104'
p263
sg50
S'104'
p264
sg52
S'7'
p265
sg54
S'1977-78'
p266
sg56
S'576'
p267
sg58
g3
sg59
S'.817'
p268
sg61
S'216'
p269
sg63
S'1323'
p270
sba(isrc.gp1.models.Totals
Totals
p271
(dp272
g8
S'32'
p273
sg10
S'.413'
p274
sg12
S'143'
p275
sg14
S'48'
p276
sg16
S'.413'
p277
sg18
S'346'
p278
sg20
g3
sg21
S'SG'
p279
sg23
S'87'
p280
sg25
S'27'
p281
sg27
S'NBA'
p282
sg29
S'340'
p283
sg31
S'.413'
p284
sg33
g3
sg34
S'82'
p285
sg36
S'78'
p286
sg38
S'28'
p287
sg40
S'DET'
p288
sg42
S'32'
p289
sg44
g3
sg46
S'54'
p290
sg48
S'55'
p291
sg50
S'64'
p292
sg52
g69
sg54
S'1977-78'
p293
sg56
S'346'
p294
sg58
g3
sg59
S'.844'
p295
sg61
S'143'
p296
sg63
S'739'
p297
sba(isrc.gp1.models.Totals
Totals
p298
(dp299
g8
S'43'
p300
sg10
S'.317'
p301
sg12
S'73'
p302
sg14
S'42'
p303
sg16
S'.317'
p304
sg18
S'230'
p305
sg20
g3
sg21
S'SG'
p306
sg23
S'72'
p307
sg25
S'26'
p308
sg27
S'NBA'
p309
sg29
S'177'
p310
sg31
S'.317'
p311
sg33
g3
sg34
S'75'
p312
sg36
S'48'
p313
sg38
S'28'
p314
sg40
S'DEN'
p315
sg42
S'32'
p316
sg44
g3
sg46
S'31'
p317
sg48
S'49'
p318
sg50
S'40'
p319
sg52
g190
sg54
S'1977-78'
p320
sg56
S'230'
p321
sg58
g3
sg59
S'.775'
p322
sg61
S'73'
p323
sg63
S'584'
p324
sba(isrc.gp1.models.Totals
Totals
p325
(dp326
g8
S'37'
p327
sg10
S'.402'
p328
sg12
S'174'
p329
sg14
S'57'
p330
sg16
S'.402'
p331
sg18
S'433'
p332
sg20
g3
sg21
S'SG'
p333
sg23
S'126'
p334
sg25
S'35'
p335
sg27
S'NBA'
p336
sg29
S'424'
p337
sg31
S'.402'
p338
sg33
g3
sg34
S'96'
p339
sg36
S'100'
p340
sg38
S'29'
p341
sg40
S'TOT'
p342
sg42
S'69'
p343
sg44
g3
sg46
S'76'
p344
sg48
S'61'
p345
sg50
S'111'
p346
sg52
g98
sg54
S'1978-79'
p347
sg56
S'433'
p348
sg58
g3
sg59
S'.685'
p349
sg61
S'174'
p350
sg63
S'979'
p351
sba(isrc.gp1.models.Totals
Totals
p352
(dp353
g8
S'25'
p354
sg10
S'.444'
p355
sg12
S'87'
p356
sg14
S'27'
p357
sg16
S'.444'
p358
sg18
S'196'
p359
sg20
g3
sg21
S'SG'
p360
sg23
S'58'
p361
sg25
S'16'
p362
sg27
S'NBA'
p363
sg29
S'202'
p364
sg31
S'.444'
p365
sg33
g3
sg34
S'35'
p366
sg36
S'47'
p367
sg38
S'29'
p368
sg40
S'PHI'
p369
sg42
S'37'
p370
sg44
g3
sg46
S'28'
p371
sg48
S'19'
p372
sg50
S'40'
p373
sg52
g159
sg54
S'1978-79'
p374
sg56
S'196'
p375
sg58
g3
sg59
S'.700'
p376
sg61
S'87'
p377
sg63
S'452'
p378
sba(isrc.gp1.models.Totals
Totals
p379
(dp380
g8
S'12'
p381
sg10
S'.367'
p382
sg12
S'87'
p383
sg14
S'30'
p384
sg16
S'.367'
p385
sg18
S'237'
p386
sg20
g3
sg21
S'SG'
p387
sg23
S'68'
p388
sg25
S'19'
p389
sg27
S'NBA'
p390
sg29
S'222'
p391
sg31
S'.367'
p392
sg33
g3
sg34
S'61'
p393
sg36
S'53'
p394
sg38
S'29'
p395
sg40
S'NJN'
p396
sg42
S'32'
p397
sg44
g3
sg46
S'48'
p398
sg48
S'42'
p399
sg50
S'71'
p400
sg52
g190
sg54
S'1978-79'
p401
sg56
S'237'
p402
sg58
g3
sg59
S'.676'
p403
sg61
S'87'
p404
sg63
S'527'
p405
sba(isrc.gp1.models.Totals
Totals
p406
(dp407
g8
g98
sg10
S'.000'
p408
sg12
S'0'
p409
sg14
S'9'
p410
sg16
S'18'
p411
sg18
g128
sg20
g3
sg21
S'SG'
p412
sg23
S'6'
p413
sg25
g98
sg27
S'NBA'
p414
sg29
g409
sg31
S'.383'
p415
sg33
S'41'
p416
sg34
S'.500'
p417
sg36
S'14'
p418
sg38
S'30'
p419
sg40
S'NJN'
p420
sg42
S'8'
p421
sg44
S'12'
p422
sg46
S'45'
p423
sg48
S'10'
p424
sg50
S'.400'
p425
sg52
S'11'
p426
sg54
S'1979-80'
p427
sg56
S'47'
p428
sg58
g69
sg59
S'.383'
p429
sg61
S'18'
p430
sg63
S'81'
p431
sbasS'_college'
p432
S'Michigan State University'
p433
sS'_toYear'
p434
S'1980'
p435
sS'_height'
p436
S'6-5'
p437
sS'_active'
p438
I00
sS'_shootingHand'
p439
VRight
p440
sS'_name'
p441
S'Ralph Simpson'
p442
sS'_per100Possessions'
p443
(lp444
(isrc.gp1.models.Per100Possession
Per100Possession
p445
(dp446
g8
S'4.4'
p447
sg10
S'.083'
p448
sg12
S'0.0'
p449
sS'_offensiveRating'
p450
S'104'
p451
sg14
S'2.1'
p452
sg16
S'12.3'
p453
sg18
S'0.5'
p454
sg20
S'96'
p455
sg21
S'SF'
p456
sS'_defensiveRating'
p457
g3
sg23
S'2.3'
p458
sg27
S'ABA'
p459
sg29
S'0.2'
p460
sg31
S'.428'
p461
sg33
S'29.1'
p462
sg34
S'.754'
p463
sg36
S'4.0'
p464
sg38
S'24'
p465
sg40
S'DNR'
p466
sg42
S'75'
p467
sg44
S'4.1'
p468
sg46
S'28.4'
p469
sg48
S'5.7'
p470
sg50
S'.434'
p471
sg52
S'6.8'
p472
sg54
S'1973-74'
p473
sg56
S'28.9'
p474
sg58
S'3.9'
p475
sg59
S'4.3'
p476
sg61
S'12.4'
p477
sg63
S'2244'
p478
sba(isrc.gp1.models.Per100Possession
Per100Possession
p479
(dp480
g8
S'4.4'
p481
sg10
S'.083'
p482
sg12
S'0.0'
p483
sg450
S'103'
p484
sg14
S'2.6'
p485
sg16
S'10.8'
p486
sg18
S'0.2'
p487
sg20
S'105'
p488
sg21
S'SG'
p489
sg457
g3
sg23
S'1.7'
p490
sg27
S'ABA'
p491
sg29
S'0.3'
p492
sg31
S'.505'
p493
sg33
S'26.4'
p494
sg34
S'.754'
p495
sg36
S'6.9'
p496
sg38
S'25'
p497
sg40
S'DNA'
p498
sg42
S'82'
p499
sg44
S'4.9'
p500
sg46
S'21.2'
p501
sg48
S'6.3'
p502
sg50
S'.509'
p503
sg52
S'6.1'
p504
sg54
S'1974-75'
p505
sg56
S'21.4'
p506
sg58
S'3.3'
p507
sg59
S'4.7'
p508
sg61
S'10.8'
p509
sg63
S'2863'
p510
sba(isrc.gp1.models.Per100Possession
Per100Possession
p511
(dp512
g8
S'4.6'
p513
sg10
S'.167'
p514
sg12
S'0.1'
p515
sg450
S'105'
p516
sg14
S'2.1'
p517
sg16
S'8.5'
p518
sg18
S'0.3'
p519
sg20
S'104'
p520
sg21
S'SG'
p521
sg457
g3
sg23
S'1.7'
p522
sg27
S'ABA'
p523
sg29
S'0.3'
p524
sg31
S'.511'
p525
sg33
S'20.9'
p526
sg34
S'.780'
p527
sg36
S'8.3'
p528
sg38
S'26'
p529
sg40
S'DNA'
p530
sg42
S'84'
p531
sg44
S'5.0'
p532
sg46
S'16.4'
p533
sg48
S'4.8'
p534
sg50
S'.518'
p535
sg52
S'6.3'
p536
sg54
S'1975-76'
p537
sg56
S'16.7'
p538
sg58
S'2.5'
p539
sg59
S'3.8'
p540
sg61
S'8.6'
p541
sg63
S'3121'
p542
sba(isrc.gp1.models.Per100Possession
Per100Possession
p543
(dp544
g8
S'1.9'
p545
sg10
S'.427'
p546
sg12
S'9.8'
p547
sg450
g3
sg14
S'23.5'
p548
sg16
S'3.8'
p549
sg18
S'23.0'
p550
sg20
g3
sg21
S'SG'
p551
sg457
g3
sg23
S'5.0'
p552
sg27
S'NBA'
p553
sg29
S'104'
p554
sg31
S'.427'
p555
sg33
g3
sg34
S'5.0'
p556
sg36
S'2.8'
p557
sg38
S'27'
p558
sg40
S'DET'
p559
sg42
S'77'
p560
sg44
g3
sg46
S'5.4'
p561
sg48
S'3.7'
p562
sg50
S'.708'
p563
sg52
S'0.1'
p564
sg54
S'1976-77'
p565
sg56
S'23.0'
p566
sg58
g3
sg59
S'1.3'
p567
sg61
S'9.8'
p568
sg63
S'1597'
p569
sba(isrc.gp1.models.Per100Possession
Per100Possession
p570
(dp571
g8
S'2.5'
p572
sg10
S'.375'
p573
sg12
S'7.3'
p574
sg450
g3
sg14
S'3.0'
p575
sg16
S'2.9'
p576
sg18
S'19.3'
p577
sg20
g3
sg21
S'SG'
p578
sg457
g3
sg23
S'5.3'
p579
sg27
S'NBA'
p580
sg29
S'17.4'
p581
sg31
S'.375'
p582
sg33
g3
sg34
S'5.3'
p583
sg36
S'4.2'
p584
sg38
S'28'
p585
sg40
S'TOT'
p586
sg42
S'64'
p587
sg44
S'86'
p588
sg46
S'3.5'
p589
sg48
S'3.5'
p590
sg50
S'.817'
p591
sg52
S'0.2'
p592
sg54
S'1977-78'
p593
sg56
S'19.3'
p594
sg58
S'103'
p595
sg59
S'1.8'
p596
sg61
S'7.3'
p597
sg63
S'1323'
p598
sba(isrc.gp1.models.Per100Possession
Per100Possession
p599
(dp600
g8
S'1.9'
p601
sg10
S'.413'
p602
sg12
S'8.6'
p603
sg450
g3
sg14
S'2.9'
p604
sg16
S'3.3'
p605
sg18
S'20.9'
p606
sg20
g3
sg21
S'SG'
p607
sg457
g3
sg23
S'5.2'
p608
sg27
S'NBA'
p609
sg29
S'20.5'
p610
sg31
S'.413'
p611
sg33
g3
sg34
S'4.9'
p612
sg36
S'4.7'
p613
sg38
S'28'
p614
sg40
S'DET'
p615
sg42
S'32'
p616
sg44
S'90'
p617
sg46
S'3.9'
p618
sg48
S'3.3'
p619
sg50
S'.844'
p620
sg52
S'0.2'
p621
sg54
S'1977-78'
p622
sg56
S'20.9'
p623
sg58
S'104'
p624
sg59
S'1.6'
p625
sg61
S'8.6'
p626
sg63
S'739'
p627
sba(isrc.gp1.models.Per100Possession
Per100Possession
p628
(dp629
g8
S'3.3'
p630
sg10
S'.317'
p631
sg12
S'5.5'
p632
sg450
g3
sg14
S'3.2'
p633
sg16
S'2.3'
p634
sg18
S'17.4'
p635
sg20
g3
sg21
S'SG'
p636
sg457
g3
sg23
S'5.5'
p637
sg27
S'NBA'
p638
sg29
S'13.4'
p639
sg31
S'.317'
p640
sg33
g3
sg34
S'5.7'
p641
sg36
S'3.6'
p642
sg38
S'28'
p643
sg40
S'DEN'
p644
sg42
S'32'
p645
sg44
S'79'
p646
sg46
S'3.0'
p647
sg48
S'3.7'
p648
sg50
S'.775'
p649
sg52
S'0.3'
p650
sg54
S'1977-78'
p651
sg56
S'17.4'
p652
sg58
S'101'
p653
sg59
S'2.0'
p654
sg61
S'5.5'
p655
sg63
S'584'
p656
sba(isrc.gp1.models.Per100Possession
Per100Possession
p657
(dp658
g8
S'1.7'
p659
sg10
S'.402'
p660
sg12
S'7.9'
p661
sg450
g3
sg14
S'2.6'
p662
sg16
S'3.4'
p663
sg18
S'19.6'
p664
sg20
g3
sg21
S'SG'
p665
sg457
g3
sg23
S'5.7'
p666
sg27
S'NBA'
p667
sg29
S'19.2'
p668
sg31
S'.402'
p669
sg33
g3
sg34
S'4.3'
p670
sg36
S'4.5'
p671
sg38
S'29'
p672
sg40
S'TOT'
p673
sg42
S'69'
p674
sg44
S'87'
p675
sg46
S'5.0'
p676
sg48
S'2.8'
p677
sg50
S'.685'
p678
sg52
S'0.2'
p679
sg54
S'1978-79'
p680
sg56
S'19.6'
p681
sg58
S'105'
p682
sg59
S'1.6'
p683
sg61
S'7.9'
p684
sg63
S'979'
p685
sba(isrc.gp1.models.Per100Possession
Per100Possession
p686
(dp687
g8
S'2.5'
p688
sg10
S'.444'
p689
sg12
S'8.7'
p690
sg450
g3
sg14
S'2.7'
p691
sg16
S'2.8'
p692
sg18
S'19.5'
p693
sg20
g3
sg21
S'SG'
p694
sg457
g3
sg23
S'5.8'
p695
sg27
S'NBA'
p696
sg29
S'20.1'
p697
sg31
S'.444'
p698
sg33
g3
sg34
S'3.5'
p699
sg36
S'4.7'
p700
sg38
S'29'
p701
sg40
S'PHI'
p702
sg42
S'37'
p703
sg44
S'90'
p704
sg46
S'4.0'
p705
sg48
S'1.9'
p706
sg50
S'.700'
p707
sg52
S'0.1'
p708
sg54
S'1978-79'
p709
sg56
S'19.5'
p710
sg58
S'103'
p711
sg59
S'1.6'
p712
sg61
S'8.7'
p713
sg63
S'452'
p714
sba(isrc.gp1.models.Per100Possession
Per100Possession
p715
(dp716
g8
S'1.0'
p717
sg10
S'.367'
p718
sg12
S'7.2'
p719
sg450
g3
sg14
S'2.5'
p720
sg16
S'4.0'
p721
sg18
S'19.7'
p722
sg20
g3
sg21
S'SG'
p723
sg457
g3
sg23
S'5.7'
p724
sg27
S'NBA'
p725
sg29
S'18.5'
p726
sg31
S'.367'
p727
sg33
g3
sg34
S'5.1'
p728
sg36
S'4.4'
p729
sg38
S'29'
p730
sg40
S'NJN'
p731
sg42
S'32'
p732
sg44
S'85'
p733
sg46
S'5.9'
p734
sg48
S'3.5'
p735
sg50
S'.676'
p736
sg52
S'0.3'
p737
sg54
S'1978-79'
p738
sg56
S'19.7'
p739
sg58
S'106'
p740
sg59
S'1.6'
p741
sg61
S'7.2'
p742
sg63
S'527'
p743
sba(isrc.gp1.models.Per100Possession
Per100Possession
p744
(dp745
g8
S'2.8'
p746
sg10
S'.000'
p747
sg12
S'0.0'
p748
sg450
S'100'
p749
sg14
S'5.0'
p750
sg16
S'10.1'
p751
sg18
S'1.1'
p752
sg20
S'81'
p753
sg21
S'SG'
p754
sg457
g3
sg23
S'3.4'
p755
sg27
S'NBA'
p756
sg29
S'0.0'
p757
sg31
S'.383'
p758
sg33
S'22.9'
p759
sg34
S'.500'
p760
sg36
S'7.8'
p761
sg38
S'30'
p762
sg40
S'NJN'
p763
sg42
g421
sg44
S'6.7'
p764
sg46
S'25.1'
p765
sg48
S'5.6'
p766
sg50
S'.400'
p767
sg52
S'6.1'
p768
sg54
S'1979-80'
p769
sg56
S'26.3'
p770
sg58
S'1.7'
p771
sg59
S'2.8'
p772
sg61
S'10.1'
p773
sg63
S'81'
p774
sbasS'_advanced'
p775
(lp776
(isrc.gp1.models.Advanced
Advanced
p777
(dp778
S'_offensiveReboundPercentage'
p779
S'5.4'
p780
sS'_turnOverPercentage'
p781
S'1.1'
p782
sS'_winSharesPer48Minutes'
p783
g3
sS'_stealPercentage'
p784
S'-0.3'
p785
sS'_usagePercentage'
p786
S'.029'
p787
sS'_totalReboundsPercentage'
p788
S'13.1'
p789
sS'_defensiveBoxPlusMinus'
p790
g3
sg21
S'SG'
p791
sS'_valueOverReplacementPlayer'
p792
g3
sS'_trueShootingPercentage'
p793
S'.467'
p794
sS'_defensiveReboundPercentage'
p795
S'13.4'
p796
sS'_freeThrowsAttempRate'
p797
S'.257'
p798
sS'_threePointsAttempRate'
p799
S'.054'
p800
sg27
S'ABA'
p801
sS'_offensiveBoxPlusMinues'
p802
g3
sS'_assistPercentage'
p803
S'27.3'
p804
sS'_defensiveWinShares'
p805
g3
sg38
S'21'
p806
sg40
S'DNR'
p807
sg42
S'81'
p808
sS'_blockPercentage'
p809
S'1.4'
p810
sS'_playerEfficiencyRating'
p811
S'14.4'
p812
sS'_offensiveWinShares'
p813
g3
sg61
S'1820'
p814
sS'_boxPlusMinus'
p815
g3
sg54
S'1970-71'
p816
sS'_winShares'
p817
g3
sba(isrc.gp1.models.Advanced
Advanced
p818
(dp819
g779
S'5.0'
p820
sg781
S'4.0'
p821
sg783
g3
sg784
S'10.6'
p822
sg786
S'3.2'
p823
sg788
S'6.0'
p824
sg790
g3
sg21
S'SG'
p825
sg792
g3
sg793
S'.511'
p826
sg795
S'7.0'
p827
sg797
S'.284'
p828
sg799
S'.011'
p829
sg27
S'ABA'
p830
sg802
g3
sg803
S'14.2'
p831
sg805
S'.115'
p832
sg38
S'22'
p833
sg40
S'DNR'
p834
sg42
S'84'
p835
sg809
S'31.4'
p836
sg811
S'20.0'
p837
sg813
S'7.2'
p838
sg61
S'3006'
p839
sg815
g3
sg54
S'1971-72'
p840
sg817
g3
sba(isrc.gp1.models.Advanced
Advanced
p841
(dp842
g779
S'5.4'
p843
sg781
S'32.7'
p844
sg783
g3
sg784
S'2.3'
p845
sg786
S'0.8'
p846
sg788
S'7.3'
p847
sg790
g3
sg21
S'SG'
p848
sg792
g3
sg793
S'.494'
p849
sg795
S'9.4'
p850
sg797
S'.333'
p851
sg799
S'.014'
p852
sg27
S'ABA'
p853
sg802
g3
sg803
S'14.9'
p854
sg805
S'4.2'
p855
sg38
S'23'
p856
sg40
S'DNR'
p857
sg42
S'81'
p858
sg809
S'12.9'
p859
sg811
S'19.6'
p860
sg813
S'3.4'
p861
sg61
S'2589'
p862
sg815
g3
sg54
S'1972-73'
p863
sg817
S'.078'
p864
sba(isrc.gp1.models.Advanced
Advanced
p865
(dp866
g779
S'4.9'
p867
sg781
S'11.4'
p868
sg783
S'.050'
p869
sg784
S'2.1'
p870
sg786
S'29.4'
p871
sg788
S'7.3'
p872
sg790
S'-1.1'
p873
sg21
S'SF'
p874
sg792
S'0.5'
p875
sg793
S'.463'
p876
sg795
S'9.8'
p877
sg797
S'.198'
p878
sg799
S'.017'
p879
sg27
S'ABA'
p880
sg802
S'-0.1'
p881
sg803
S'14.0'
p882
sg805
S'2.0'
p883
sg38
S'24'
p884
sg40
S'DNR'
p885
sg42
S'75'
p886
sg809
S'0.3'
p887
sg811
S'15.4'
p888
sg813
S'0.3'
p889
sg61
S'2244'
p890
sg815
S'-1.2'
p891
sg54
S'1973-74'
p892
sg817
S'2.3'
p893
sba(isrc.gp1.models.Advanced
Advanced
p894
(dp895
g779
S'4.2'
p896
sg781
S'16.8'
p897
sg783
S'.120'
p898
sg784
S'2.6'
p899
sg786
S'24.7'
p900
sg788
S'7.3'
p901
sg790
S'0.2'
p902
sg21
S'SG'
p903
sg792
S'2.7'
p904
sg793
S'.545'
p905
sg795
S'10.0'
p906
sg797
S'.293'
p907
sg799
S'.009'
p908
sg27
S'ABA'
p909
sg802
S'1.5'
p910
sg803
S'21.2'
p911
sg805
S'3.4'
p912
sg38
S'25'
p913
sg40
S'DNA'
p914
sg42
S'82'
p915
sg809
S'0.4'
p916
sg811
S'17.3'
p917
sg813
S'3.8'
p918
sg61
S'2863'
p919
sg815
S'1.8'
p920
sg54
S'1974-75'
p921
sg817
S'7.2'
p922
sba(isrc.gp1.models.Advanced
Advanced
p923
(dp924
g779
S'4.0'
p925
sg781
S'20.9'
p926
sg783
S'.097'
p927
sg784
S'2.1'
p928
sg786
S'20.5'
p929
sg788
S'7.1'
p930
sg790
S'0.2'
p931
sg21
S'SG'
p932
sg792
S'2.5'
p933
sg793
S'.555'
p934
sg795
S'9.8'
p935
sg797
S'.289'
p936
sg799
S'.020'
p937
sg27
S'ABA'
p938
sg802
S'1.0'
p939
sg803
S'23.9'
p940
sg805
S'3.0'
p941
sg38
S'26'
p942
sg40
S'DNA'
p943
sg42
S'84'
p944
sg809
S'0.4'
p945
sg811
S'15.7'
p946
sg813
S'3.4'
p947
sg61
S'3121'
p948
sg815
S'1.2'
p949
sg54
S'1975-76'
p950
sg817
S'6.3'
p951
sba(isrc.gp1.models.Advanced
Advanced
p952
(dp953
g779
S'8.6'
p954
sg781
S'0.8'
p955
sg783
S'-3.3'
p956
sg784
S'0.2'
p957
sg786
S'1.2'
p958
sg788
S'15.4'
p959
sg790
g3
sg21
S'SG'
p960
sg792
g3
sg793
S'.462'
p961
sg795
S'5.9'
p962
sg797
S'3.1'
p963
sg799
S'.234'
p964
sg27
S'NBA'
p965
sg802
S'-0.5'
p966
sg803
S'1.9'
p967
sg805
S'-1.3'
p968
sg38
S'27'
p969
sg40
S'DET'
p970
sg42
S'77'
p971
sg809
S'0.4'
p972
sg811
S'14.4'
p973
sg813
S'.037'
p974
sg61
S'1597'
p975
sg815
g3
sg54
S'1976-77'
p976
sg817
S'-2.0'
p977
sba(isrc.gp1.models.Advanced
Advanced
p978
(dp979
g779
S'8.0'
p980
sg781
S'21.6'
p981
sg783
S'-3.2'
p982
sg784
S'0.3'
p983
sg786
S'-1.3'
p984
sg788
S'16.5'
p985
sg790
S'-4.3'
p986
sg21
S'SG'
p987
sg792
g3
sg793
S'.416'
p988
sg795
S'6.2'
p989
sg797
S'4.3'
p990
sg799
S'.181'
p991
sg27
S'NBA'
p992
sg802
S'-1.1'
p993
sg803
S'2.5'
p994
sg805
S'-0.2'
p995
sg38
S'28'
p996
sg40
S'TOT'
p997
sg42
S'64'
p998
sg809
S'16.9'
p999
sg811
S'10.1'
p1000
sg813
S'1.1'
p1001
sg61
S'1323'
p1002
sg815
S'-0.8'
p1003
sg54
S'1977-78'
p1004
sg817
S'-0.007'
p1005
sba(isrc.gp1.models.Advanced
Advanced
p1006
(dp1007
g779
S'7.7'
p1008
sg781
S'23.4'
p1009
sg783
S'-2.4'
p1010
sg784
S'0.2'
p1011
sg786
S'-0.3'
p1012
sg788
S'16.8'
p1013
sg790
S'-4.2'
p1014
sg21
S'SG'
p1015
sg792
g3
sg793
S'.454'
p1016
sg795
S'5.8'
p1017
sg797
S'3.9'
p1018
sg799
S'.185'
p1019
sg27
S'NBA'
p1020
sg802
S'-1.8'
p1021
sg803
S'1.9'
p1022
sg805
S'0.2'
p1023
sg38
S'28'
p1024
sg40
S'DET'
p1025
sg42
S'32'
p1026
sg809
S'17.3'
p1027
sg811
S'11.7'
p1028
sg813
S'0.5'
p1029
sg61
S'739'
p1030
sg815
S'-0.4'
p1031
sg54
S'1977-78'
p1032
sg817
S'.012'
p1033
sba(isrc.gp1.models.Advanced
Advanced
p1034
(dp1035
g779
S'8.3'
p1036
sg781
S'19.3'
p1037
sg783
S'-4.3'
p1038
sg784
S'0.3'
p1039
sg786
S'-1.0'
p1040
sg788
S'16.0'
p1041
sg790
S'-4.4'
p1042
sg21
S'SG'
p1043
sg792
g3
sg793
S'.357'
p1044
sg795
S'6.6'
p1045
sg797
S'4.7'
p1046
sg799
S'.174'
p1047
sg27
S'NBA'
p1048
sg802
S'-0.1'
p1049
sg803
S'3.3'
p1050
sg805
S'-0.4'
p1051
sg38
S'28'
p1052
sg40
S'DEN'
p1053
sg42
S'32'
p1054
sg809
S'16.2'
p1055
sg811
S'8.1'
p1056
sg813
S'0.6'
p1057
sg61
S'584'
p1058
sg815
S'-0.4'
p1059
sg54
S'1977-78'
p1060
sg817
S'-0.032'
p1061
sba(isrc.gp1.models.Advanced
Advanced
p1062
(dp1063
g779
S'6.6'
p1064
sg781
S'22.7'
p1065
sg783
S'-4.0'
p1066
sg784
S'0.3'
p1067
sg786
S'-1.1'
p1068
sg788
S'18.1'
p1069
sg790
S'-6.0'
p1070
sg21
S'SG'
p1071
sg792
g3
sg793
S'.440'
p1072
sg795
S'5.1'
p1073
sg797
S'3.7'
p1074
sg799
S'.256'
p1075
sg27
S'NBA'
p1076
sg802
S'-2.0'
p1077
sg803
S'1.7'
p1078
sg805
S'-0.2'
p1079
sg38
S'29'
p1080
sg40
S'TOT'
p1081
sg42
S'69'
p1082
sg809
S'17.2'
p1083
sg811
S'9.7'
p1084
sg813
S'0.9'
p1085
sg61
S'979'
p1086
sg815
S'-1.0'
p1087
sg54
S'1978-79'
p1088
sg817
S'-0.010'
p1089
sba(isrc.gp1.models.Advanced
Advanced
p1090
(dp1091
g779
S'4.2'
p1092
sg781
S'22.5'
p1093
sg783
S'-3.1'
p1094
sg784
S'0.1'
p1095
sg786
S'-0.3'
p1096
sg788
S'18.0'
p1097
sg790
S'-4.9'
p1098
sg21
S'SG'
p1099
sg792
g3
sg793
S'.473'
p1100
sg795
S'4.0'
p1101
sg797
S'3.8'
p1102
sg799
S'.204'
p1103
sg27
S'NBA'
p1104
sg802
S'-1.7'
p1105
sg803
S'2.5'
p1106
sg805
S'0.2'
p1107
sg38
S'29'
p1108
sg40
S'PHI'
p1109
sg42
S'37'
p1110
sg809
S'18.0'
p1111
sg811
S'11.2'
p1112
sg813
S'0.5'
p1113
sg61
S'452'
p1114
sg815
S'-0.3'
p1115
sg54
S'1978-79'
p1116
sg817
S'.021'
p1117
sba(isrc.gp1.models.Advanced
Advanced
p1118
(dp1119
g779
S'8.7'
p1120
sg781
S'22.9'
p1121
sg783
S'-4.7'
p1122
sg784
S'0.4'
p1123
sg786
S'-0.8'
p1124
sg788
S'18.1'
p1125
sg790
S'-7.0'
p1126
sg21
S'SG'
p1127
sg792
g3
sg793
S'.414'
p1128
sg795
S'6.1'
p1129
sg797
S'3.6'
p1130
sg799
S'.300'
p1131
sg27
S'NBA'
p1132
sg802
S'-2.3'
p1133
sg803
S'1.0'
p1134
sg805
S'-0.4'
p1135
sg38
S'29'
p1136
sg40
S'NJN'
p1137
sg42
S'32'
p1138
sg809
S'16.5'
p1139
sg811
S'8.4'
p1140
sg813
S'0.4'
p1141
sg61
S'527'
p1142
sg815
S'-0.7'
p1143
sg54
S'1978-79'
p1144
sg817
S'-0.036'
p1145
sba(isrc.gp1.models.Advanced
Advanced
p1146
(dp1147
g779
S'7.7'
p1148
sg781
S'18.9'
p1149
sg783
S'-0.064'
p1150
sg784
S'5.0'
p1151
sg786
S'30.2'
p1152
sg788
S'7.0'
p1153
sg790
S'0.2'
p1154
sg21
S'SG'
p1155
sg792
S'0.0'
p1156
sg793
S'.399'
p1157
sg795
S'6.4'
p1158
sg797
S'.213'
p1159
sg799
S'.043'
p1160
sg27
S'NBA'
p1161
sg802
S'-3.2'
p1162
sg803
S'26.6'
p1163
sg805
S'0.1'
p1164
sg38
S'30'
p1165
sg40
S'NJN'
p1166
sg42
g421
sg809
S'0.0'
p1167
sg811
S'12.6'
p1168
sg813
S'-0.2'
p1169
sg61
S'81'
p1170
sg815
S'-3.0'
p1171
sg54
S'1979-80'
p1172
sg817
S'-0.1'
p1173
sbasS'_per36Minutes'
p1174
(lp1175
(isrc.gp1.models.Per36Minutes
Per36Minutes
p1176
(dp1177
g8
S'2.1'
p1178
sg10
S'.283'
p1179
sg12
S'0.3'
p1180
sg14
S'3.7'
p1181
sg16
S'8.8'
p1182
sg18
S'1.2'
p1183
sg20
g3
sg21
S'SG'
p1184
sg23
S'2.5'
p1185
sg27
S'ABA'
p1186
sg29
S'3.0'
p1187
sg31
S'.415'
p1188
sg33
g3
sg34
S'.754'
p1189
sg36
S'3.3'
p1190
sg38
S'21'
p1191
sg40
S'DNR'
p1192
sg42
S'81'
p1193
sg44
S'22.8'
p1194
sg46
S'20.7'
p1195
sg48
S'5.6'
p1196
sg50
S'.423'
p1197
sg52
S'4.6'
p1198
sg54
S'1970-71'
p1199
sg56
S'21.9'
p1200
sg58
g3
sg59
S'4.3'
p1201
sg61
S'9.1'
p1202
sg63
S'1820'
p1203
sba(isrc.gp1.models.Per36Minutes
Per36Minutes
p1204
(dp1205
g8
S'2.7'
p1206
sg10
S'.136'
p1207
sg12
S'0.0'
p1208
sg14
S'3.2'
p1209
sg16
S'11.0'
p1210
sg18
S'0.3'
p1211
sg20
g3
sg21
S'SG'
p1212
sg23
S'2.0'
p1213
sg27
S'ABA'
p1214
sg29
S'2.9'
p1215
sg31
S'.460'
p1216
sg33
g3
sg34
S'.805'
p1217
sg36
S'3.1'
p1218
sg38
S'22'
p1219
sg40
S'DNR'
p1220
sg42
S'84'
p1221
sg44
S'27.5'
p1222
sg46
S'23.7'
p1223
sg48
S'6.8'
p1224
sg50
S'.464'
p1225
sg52
S'4.8'
p1226
sg54
S'1971-72'
p1227
sg56
S'24.0'
p1228
sg58
g3
sg59
S'5.5'
p1229
sg61
S'11.0'
p1230
sg63
S'3006'
p1231
sba(isrc.gp1.models.Per36Minutes
Per36Minutes
p1232
(dp1233
g8
S'3.2'
p1234
sg10
S'.208'
p1235
sg12
S'0.1'
p1236
sg14
S'1.8'
p1237
sg16
S'10.1'
p1238
sg18
S'0.3'
p1239
sg20
g3
sg21
S'SG'
p1240
sg23
S'1.9'
p1241
sg27
S'ABA'
p1242
sg29
S'3.9'
p1243
sg31
S'.438'
p1244
sg33
g3
sg34
S'.757'
p1245
sg36
S'3.1'
p1246
sg38
S'23'
p1247
sg40
S'DNR'
p1248
sg42
S'81'
p1249
sg44
S'3.4'
p1250
sg46
S'22.9'
p1251
sg48
S'7.7'
p1252
sg50
S'.442'
p1253
sg52
S'5.2'
p1254
sg54
S'1972-73'
p1255
sg56
S'23.2'
p1256
sg58
S'26.3'
p1257
sg59
S'5.9'
p1258
sg61
S'10.2'
p1259
sg63
S'2589'
p1260
sba(isrc.gp1.models.Per36Minutes
Per36Minutes
p1261
(dp1262
g8
S'3.4'
p1263
sg10
S'.083'
p1264
sg12
S'0.0'
p1265
sg14
S'1.7'
p1266
sg16
S'9.5'
p1267
sg18
S'0.4'
p1268
sg20
g3
sg21
S'SF'
p1269
sg23
S'1.8'
p1270
sg27
S'ABA'
p1271
sg29
S'0.2'
p1272
sg31
S'.428'
p1273
sg33
S'22.5'
p1274
sg34
S'.754'
p1275
sg36
S'3.1'
p1276
sg38
S'24'
p1277
sg40
S'DNR'
p1278
sg42
S'75'
p1279
sg44
S'3.1'
p1280
sg46
S'22.0'
p1281
sg48
S'4.4'
p1282
sg50
S'.434'
p1283
sg52
S'5.2'
p1284
sg54
S'1973-74'
p1285
sg56
S'22.4'
p1286
sg58
S'3.0'
p1287
sg59
S'3.3'
p1288
sg61
S'9.6'
p1289
sg63
S'2244'
p1290
sba(isrc.gp1.models.Per36Minutes
Per36Minutes
p1291
(dp1292
g8
S'3.6'
p1293
sg10
S'.083'
p1294
sg12
S'0.0'
p1295
sg14
S'2.1'
p1296
sg16
S'8.7'
p1297
sg18
S'0.2'
p1298
sg20
g3
sg21
S'SG'
p1299
sg23
S'1.4'
p1300
sg27
S'ABA'
p1301
sg29
S'0.2'
p1302
sg31
S'.505'
p1303
sg33
S'21.3'
p1304
sg34
S'.754'
p1305
sg36
S'5.6'
p1306
sg38
S'25'
p1307
sg40
S'DNA'
p1308
sg42
S'82'
p1309
sg44
S'3.9'
p1310
sg46
S'17.1'
p1311
sg48
S'5.1'
p1312
sg50
S'.509'
p1313
sg52
S'4.9'
p1314
sg54
S'1974-75'
p1315
sg56
S'17.3'
p1316
sg58
S'2.7'
p1317
sg59
S'3.8'
p1318
sg61
S'8.7'
p1319
sg63
S'2863'
p1320
sba(isrc.gp1.models.Per36Minutes
Per36Minutes
p1321
(dp1322
g8
S'3.8'
p1323
sg10
S'.167'
p1324
sg12
S'0.0'
p1325
sg14
S'1.8'
p1326
sg16
S'7.1'
p1327
sg18
S'0.3'
p1328
sg20
g3
sg21
S'SG'
p1329
sg23
S'1.4'
p1330
sg27
S'ABA'
p1331
sg29
S'0.3'
p1332
sg31
S'.511'
p1333
sg33
S'17.5'
p1334
sg34
S'.780'
p1335
sg36
S'6.9'
p1336
sg38
S'26'
p1337
sg40
S'DNA'
p1338
sg42
S'84'
p1339
sg44
S'4.2'
p1340
sg46
S'13.7'
p1341
sg48
S'4.0'
p1342
sg50
S'.518'
p1343
sg52
S'5.2'
p1344
sg54
S'1975-76'
p1345
sg56
S'14.0'
p1346
sg58
S'2.1'
p1347
sg59
S'3.1'
p1348
sg61
S'7.1'
p1349
sg63
S'3121'
p1350
sba(isrc.gp1.models.Per36Minutes
Per36Minutes
p1351
(dp1352
g8
S'1.5'
p1353
sg10
S'.427'
p1354
sg12
S'8.0'
p1355
sg14
S'19.2'
p1356
sg16
S'3.1'
p1357
sg18
S'18.8'
p1358
sg20
g3
sg21
S'SG'
p1359
sg23
S'4.1'
p1360
sg27
S'NBA'
p1361
sg29
g3
sg31
S'.427'
p1362
sg33
g3
sg34
S'4.1'
p1363
sg36
S'2.3'
p1364
sg38
S'27'
p1365
sg40
S'DET'
p1366
sg42
S'77'
p1367
sg44
g3
sg46
S'4.4'
p1368
sg48
S'3.0'
p1369
sg50
S'.708'
p1370
sg52
S'0.1'
p1371
sg54
S'1976-77'
p1372
sg56
S'18.8'
p1373
sg58
g3
sg59
S'1.1'
p1374
sg61
S'8.0'
p1375
sg63
S'1597'
p1376
sba(isrc.gp1.models.Per36Minutes
Per36Minutes
p1377
(dp1378
g8
S'2.0'
p1379
sg10
S'.375'
p1380
sg12
S'5.9'
p1381
sg14
S'2.4'
p1382
sg16
S'2.3'
p1383
sg18
S'15.7'
p1384
sg20
g3
sg21
S'SG'
p1385
sg23
S'4.3'
p1386
sg27
S'NBA'
p1387
sg29
S'14.1'
p1388
sg31
S'.375'
p1389
sg33
g3
sg34
S'4.3'
p1390
sg36
S'3.4'
p1391
sg38
S'28'
p1392
sg40
S'TOT'
p1393
sg42
S'64'
p1394
sg44
g3
sg46
S'2.8'
p1395
sg48
S'2.8'
p1396
sg50
S'.817'
p1397
sg52
S'0.2'
p1398
sg54
S'1977-78'
p1399
sg56
S'15.7'
p1400
sg58
g3
sg59
S'1.4'
p1401
sg61
S'5.9'
p1402
sg63
S'1323'
p1403
sba(isrc.gp1.models.Per36Minutes
Per36Minutes
p1404
(dp1405
g8
S'1.6'
p1406
sg10
S'.413'
p1407
sg12
S'7.0'
p1408
sg14
S'2.3'
p1409
sg16
S'2.6'
p1410
sg18
S'16.9'
p1411
sg20
g3
sg21
S'SG'
p1412
sg23
S'4.2'
p1413
sg27
S'NBA'
p1414
sg29
S'16.6'
p1415
sg31
S'.413'
p1416
sg33
g3
sg34
S'4.0'
p1417
sg36
S'3.8'
p1418
sg38
S'28'
p1419
sg40
S'DET'
p1420
sg42
S'32'
p1421
sg44
g3
sg46
S'3.1'
p1422
sg48
S'2.7'
p1423
sg50
S'.844'
p1424
sg52
S'0.1'
p1425
sg54
S'1977-78'
p1426
sg56
S'16.9'
p1427
sg58
g3
sg59
S'1.3'
p1428
sg61
S'7.0'
p1429
sg63
S'739'
p1430
sba(isrc.gp1.models.Per36Minutes
Per36Minutes
p1431
(dp1432
g8
S'2.7'
p1433
sg10
S'.317'
p1434
sg12
S'4.5'
p1435
sg14
S'2.6'
p1436
sg16
S'1.9'
p1437
sg18
S'14.2'
p1438
sg20
g3
sg21
S'SG'
p1439
sg23
S'4.4'
p1440
sg27
S'NBA'
p1441
sg29
S'10.9'
p1442
sg31
S'.317'
p1443
sg33
g3
sg34
S'4.6'
p1444
sg36
S'3.0'
p1445
sg38
S'28'
p1446
sg40
S'DEN'
p1447
sg42
S'32'
p1448
sg44
g3
sg46
S'2.5'
p1449
sg48
S'3.0'
p1450
sg50
S'.775'
p1451
sg52
S'0.2'
p1452
sg54
S'1977-78'
p1453
sg56
S'14.2'
p1454
sg58
g3
sg59
S'1.6'
p1455
sg61
S'4.5'
p1456
sg63
S'584'
p1457
sba(isrc.gp1.models.Per36Minutes
Per36Minutes
p1458
(dp1459
g8
S'1.4'
p1460
sg10
S'.402'
p1461
sg12
S'6.4'
p1462
sg14
S'2.1'
p1463
sg16
S'2.8'
p1464
sg18
S'15.9'
p1465
sg20
g3
sg21
S'SG'
p1466
sg23
S'4.6'
p1467
sg27
S'NBA'
p1468
sg29
S'15.6'
p1469
sg31
S'.402'
p1470
sg33
g3
sg34
S'3.5'
p1471
sg36
S'3.7'
p1472
sg38
S'29'
p1473
sg40
S'TOT'
p1474
sg42
S'69'
p1475
sg44
g3
sg46
S'4.1'
p1476
sg48
S'2.2'
p1477
sg50
S'.685'
p1478
sg52
S'0.2'
p1479
sg54
S'1978-79'
p1480
sg56
S'15.9'
p1481
sg58
g3
sg59
S'1.3'
p1482
sg61
S'6.4'
p1483
sg63
S'979'
p1484
sba(isrc.gp1.models.Per36Minutes
Per36Minutes
p1485
(dp1486
g8
S'2.0'
p1487
sg10
S'.444'
p1488
sg12
S'6.9'
p1489
sg14
S'2.2'
p1490
sg16
S'2.2'
p1491
sg18
S'15.6'
p1492
sg20
g3
sg21
S'SG'
p1493
sg23
S'4.6'
p1494
sg27
S'NBA'
p1495
sg29
S'16.1'
p1496
sg31
S'.444'
p1497
sg33
g3
sg34
S'2.8'
p1498
sg36
S'3.7'
p1499
sg38
S'29'
p1500
sg40
S'PHI'
p1501
sg42
S'37'
p1502
sg44
g3
sg46
S'3.2'
p1503
sg48
S'1.5'
p1504
sg50
S'.700'
p1505
sg52
S'0.1'
p1506
sg54
S'1978-79'
p1507
sg56
S'15.6'
p1508
sg58
g3
sg59
S'1.3'
p1509
sg61
S'6.9'
p1510
sg63
S'452'
p1511
sba(isrc.gp1.models.Per36Minutes
Per36Minutes
p1512
(dp1513
g8
S'0.8'
p1514
sg10
S'.367'
p1515
sg12
S'5.9'
p1516
sg14
S'2.0'
p1517
sg16
S'3.3'
p1518
sg18
S'16.2'
p1519
sg20
g3
sg21
S'SG'
p1520
sg23
S'4.6'
p1521
sg27
S'NBA'
p1522
sg29
S'15.2'
p1523
sg31
S'.367'
p1524
sg33
g3
sg34
S'4.2'
p1525
sg36
S'3.6'
p1526
sg38
S'29'
p1527
sg40
S'NJN'
p1528
sg42
S'32'
p1529
sg44
g3
sg46
S'4.9'
p1530
sg48
S'2.9'
p1531
sg50
S'.676'
p1532
sg52
S'0.3'
p1533
sg54
S'1978-79'
p1534
sg56
S'16.2'
p1535
sg58
g3
sg59
S'1.3'
p1536
sg61
S'5.9'
p1537
sg63
S'527'
p1538
sba(isrc.gp1.models.Per36Minutes
Per36Minutes
p1539
(dp1540
g8
S'2.2'
p1541
sg10
S'.000'
p1542
sg12
S'0.0'
p1543
sg14
S'4.0'
p1544
sg16
S'8.0'
p1545
sg18
S'0.9'
p1546
sg20
g3
sg21
S'SG'
p1547
sg23
S'2.7'
p1548
sg27
S'NBA'
p1549
sg29
S'0.0'
p1550
sg31
S'.383'
p1551
sg33
S'18.2'
p1552
sg34
S'.500'
p1553
sg36
S'6.2'
p1554
sg38
S'30'
p1555
sg40
S'NJN'
p1556
sg42
g421
sg44
S'5.3'
p1557
sg46
S'20.0'
p1558
sg48
S'4.4'
p1559
sg50
S'.400'
p1560
sg52
S'4.9'
p1561
sg54
S'1979-80'
p1562
sg56
S'20.9'
p1563
sg58
S'1.3'
p1564
sg59
S'2.2'
p1565
sg61
S'8.0'
p1566
sg63
S'81'
p1567
sbasS'_fromYear'
p1568
S'1971'
p1569
sS'_url'
p1570
S'http://www.basketball-reference.com/players/s/simpsra01.html'
p1571
sS'_perGame'
p1572
(isrc.gp1.models.PerGame
PerGame
p1573
(dp1574
g8
S'0.6'
p1575
sg10
S'.000'
p1576
sg12
S'0.0'
p1577
sS'_effectiveFieldGalPercentage'
p1578
S'0.6'
p1579
sg14
S'1.1'
p1580
sg16
S'2.3'
p1581
sg18
S'0.3'
p1582
sg20
g3
sg21
S'SG'
p1583
sg23
S'0.8'
p1584
sg27
S'NBA'
p1585
sg29
S'0.0'
p1586
sg33
S'5.1'
p1587
sS'_fieldGoalsttempted'
p1588
S'.383'
p1589
sg34
S'.500'
p1590
sg36
S'1.8'
p1591
sg38
S'30'
p1592
sg40
S'NJN'
p1593
sg42
g421
sg44
S'1.5'
p1594
sg46
S'5.6'
p1595
sg48
S'1.3'
p1596
sg50
S'.400'
p1597
sg52
S'1.4'
p1598
sg54
S'1979-80'
p1599
sg56
S'5.9'
p1600
sg58
S'0.4'
p1601
sg59
S'.383'
p1602
sg61
S'2.3'
p1603
sg63
S'10.1'
p1604
sbsS'_weight'
p1605
S'200'
p1606
sS'_dob'
p1607
S'10-8-1949'
p1608
sS'_salary'
p1609
(lp1610
sg21
S'G-F'
p1611
sb.