(isrc.gp1.models.Player
Player
p0
(dp1
S'_experience'
p2
S'NA'
p3
sS'_totals'
p4
(lp5
(isrc.gp1.models.Totals
Totals
p6
(dp7
S'_offensiveRebounds'
p8
S'23'
p9
sS'_threePointsAttempted'
p10
S'10'
p11
sS'_fieldGoalsPercentage'
p12
S'.430'
p13
sS'_assist'
p14
S'19'
p15
sS'_threePointsPercentage'
p16
S'.100'
p17
sS'_threePoints'
p18
S'1'
p19
sS'_points'
p20
S'169'
p21
sS'_position'
p22
S'SF'
p23
sS'_freeThrowsPercentage'
p24
S'.690'
p25
sS'_effectiveFieldGoalPercentage'
p26
S'.433'
p27
sS'_league'
p28
S'NBA'
p29
sS'_steals'
p30
S'12'
p31
sS'_fieldGoalsAttempted'
p32
S'172'
p33
sS'_personalFouls'
p34
S'51'
p35
sS'_freeThrowsAttempted'
p36
S'29'
p37
sS'_totalRebounds'
p38
S'56'
p39
sS'_age'
p40
S'22'
p41
sS'_team'
p42
S'CLE'
p43
sS'_games'
p44
S'42'
p45
sS'_blocks'
p46
S'6'
p47
sS'_twoPoints'
p48
S'73'
p49
sS'_freeThrows'
p50
S'20'
p51
sS'_twoPointsAttempted'
p52
S'162'
p53
sS'_defensiveRebounds'
p54
S'33'
p55
sS'_season'
p56
S'1988-89'
p57
sS'_fieldGoals'
p58
S'74'
p59
sS'_turnOvers'
p60
S'21'
p61
sS'_twoPointsPercentage'
p62
S'.451'
p63
sS'_minutesPlayed'
p64
S'331'
p65
sS'_gamesStarted'
p66
S'0'
p67
sba(isrc.gp1.models.Totals
Totals
p68
(dp69
g8
S'100'
p70
sg10
S'43'
p71
sg12
S'.432'
p72
sg14
S'88'
p73
sg16
S'.326'
p74
sg18
S'14'
p75
sg20
S'701'
p76
sg22
S'SF'
p77
sg24
S'.721'
p78
sg26
S'.442'
p79
sg28
S'NBA'
p80
sg30
S'68'
p81
sg32
S'678'
p82
sg34
S'224'
p83
sg36
S'140'
p84
sg38
S'253'
p85
sg40
S'23'
p86
sg42
S'TOT'
p87
sg44
S'80'
p88
sg46
S'8'
p89
sg48
S'279'
p90
sg50
S'101'
p91
sg52
S'635'
p92
sg54
S'153'
p93
sg56
S'1989-90'
p94
sg58
S'293'
p95
sg60
S'84'
p96
sg62
S'.439'
p97
sg64
S'1615'
p98
sg66
S'18'
p99
sba(isrc.gp1.models.Totals
Totals
p100
(dp101
g8
S'52'
p102
sg10
S'10'
p103
sg12
S'.421'
p104
sg14
S'39'
p105
sg16
S'.200'
p106
sg18
S'2'
p107
sg20
S'365'
p108
sg22
S'SF'
p109
sg24
S'.744'
p110
sg26
S'.423'
p111
sg28
S'NBA'
p112
sg30
S'38'
p113
sg32
S'359'
p114
sg34
S'117'
p115
sg36
S'82'
p116
sg38
S'137'
p117
sg40
S'23'
p118
sg42
S'CLE'
p119
sg44
S'48'
p120
sg46
g107
sg48
S'149'
p121
sg50
S'61'
p122
sg52
S'349'
p123
sg54
S'85'
p124
sg56
S'1989-90'
p125
sg58
S'151'
p126
sg60
S'47'
p127
sg62
S'.427'
p128
sg64
S'892'
p129
sg66
S'13'
p130
sba(isrc.gp1.models.Totals
Totals
p131
(dp132
g8
S'48'
p133
sg10
S'33'
p134
sg12
S'.445'
p135
sg14
S'49'
p136
sg16
S'.364'
p137
sg18
S'12'
p138
sg20
S'336'
p139
sg22
S'SF'
p140
sg24
S'.690'
p141
sg26
S'.464'
p142
sg28
S'NBA'
p143
sg30
S'30'
p144
sg32
S'319'
p145
sg34
S'107'
p146
sg36
S'58'
p147
sg38
S'116'
p148
sg40
S'23'
p149
sg42
S'CHH'
p150
sg44
S'32'
p151
sg46
g47
sg48
S'130'
p152
sg50
S'40'
p153
sg52
S'286'
p154
sg54
S'68'
p155
sg56
S'1989-90'
p156
sg58
S'142'
p157
sg60
S'37'
p158
sg62
S'.455'
p159
sg64
S'723'
p160
sg66
S'5'
p161
sba(isrc.gp1.models.Totals
Totals
p162
(dp163
g8
S'40'
p164
sg10
S'14'
p165
sg12
S'.407'
p166
sg14
S'18'
p167
sg16
S'.214'
p168
sg18
S'3'
p169
sg20
S'140'
p170
sg22
S'SF'
p171
sg24
S'.576'
p172
sg26
S'.417'
p173
sg28
S'NBA'
p174
sg30
S'22'
p175
sg32
S'145'
p176
sg34
S'93'
p177
sg36
S'33'
p178
sg38
S'100'
p179
sg40
S'24'
p180
sg42
S'CHH'
p181
sg44
S'44'
p182
sg46
S'15'
p183
sg48
S'56'
p184
sg50
S'19'
p185
sg52
S'131'
p186
sg54
S'60'
p187
sg56
S'1990-91'
p188
sg58
S'59'
p189
sg60
S'35'
p190
sg62
S'.427'
p191
sg64
S'473'
p192
sg66
g67
sba(isrc.gp1.models.Totals
Totals
p193
(dp194
g8
g3
sg10
g3
sg12
g3
sg14
g3
sg16
g3
sg18
g3
sg20
g3
sg22
g3
sg24
g3
sg26
g3
sg28
g3
sg30
g3
sg32
g3
sg34
g3
sg36
g3
sg38
g3
sg40
S'25'
p195
sg42
S'Did Not Play\xc2\xa0(other pro league\xe2\x80\x94France)'
p196
sg44
g3
sg46
g3
sg48
g3
sg50
g3
sg52
g3
sg54
g3
sg56
S'1991-92'
p197
sg58
g3
sg60
g3
sg62
g3
sg64
g3
sg66
g3
sba(isrc.gp1.models.Totals
Totals
p198
(dp199
g8
g3
sg10
g3
sg12
g3
sg14
g3
sg16
g3
sg18
g3
sg20
g3
sg22
g3
sg24
g3
sg26
g3
sg28
g3
sg30
g3
sg32
g3
sg34
g3
sg36
g3
sg38
g3
sg40
S'26'
p200
sg42
S'Did Not Play\xc2\xa0(other pro league\xe2\x80\x94Italy)'
p201
sg44
g3
sg46
g3
sg48
g3
sg50
g3
sg52
g3
sg54
g3
sg56
S'1992-93'
p202
sg58
g3
sg60
g3
sg62
g3
sg64
g3
sg66
g3
sba(isrc.gp1.models.Totals
Totals
p203
(dp204
g8
g3
sg10
g3
sg12
g3
sg14
g3
sg16
g3
sg18
g3
sg20
g3
sg22
g3
sg24
g3
sg26
g3
sg28
g3
sg30
g3
sg32
g3
sg34
g3
sg36
g3
sg38
g3
sg40
S'27'
p205
sg42
S'Did Not Play\xc2\xa0(other pro league\xe2\x80\x94CBA)'
p206
sg44
g3
sg46
g3
sg48
g3
sg50
g3
sg52
g3
sg54
g3
sg56
S'1993-94'
p207
sg58
g3
sg60
g3
sg62
g3
sg64
g3
sg66
g3
sba(isrc.gp1.models.Totals
Totals
p208
(dp209
g8
g47
sg10
S'9'
p210
sg12
S'.346'
p211
sg14
g107
sg16
S'.000'
p212
sg18
g67
sg20
S'20'
p213
sg22
S'SF'
p214
sg24
S'1.000'
p215
sg26
S'.346'
p216
sg28
S'NBA'
p217
sg30
g19
sg32
S'26'
p218
sg34
S'16'
p219
sg36
g107
sg38
S'17'
p220
sg40
S'28'
p221
sg42
S'LAL'
p222
sg44
g47
sg46
g107
sg48
g210
sg50
g107
sg52
S'17'
p223
sg54
S'11'
p224
sg56
S'1994-95'
p225
sg58
g210
sg60
g107
sg62
S'.529'
p226
sg64
S'83'
p227
sg66
g67
sba(isrc.gp1.models.Totals
Totals
p228
(dp229
g8
S'41'
p230
sg10
S'71'
p231
sg12
S'.418'
p232
sg14
S'65'
p233
sg16
S'.310'
p234
sg18
S'22'
p235
sg20
S'232'
p236
sg22
S'SF'
p237
sg24
S'.837'
p238
sg26
S'.471'
p239
sg28
S'NBA'
p240
sg30
S'32'
p241
sg32
S'208'
p242
sg34
S'139'
p243
sg36
S'43'
p244
sg38
S'125'
p245
sg40
S'29'
p246
sg42
S'MIL'
p247
sg44
S'69'
p248
sg46
S'14'
p249
sg48
S'65'
p250
sg50
S'36'
p251
sg52
S'137'
p252
sg54
S'84'
p253
sg56
S'1995-96'
p254
sg58
S'87'
p255
sg60
S'33'
p256
sg62
S'.474'
p257
sg64
S'816'
p258
sg66
g19
sbasS'_college'
p259
S'University of Southern Mississippi'
p260
sS'_toYear'
p261
S'1996'
p262
sS'_height'
p263
S'6-7'
p264
sS'_active'
p265
I00
sS'_shootingHand'
p266
VRight
p267
sS'_name'
p268
S'Randolph Keys'
p269
sS'_per100Possessions'
p270
(lp271
(isrc.gp1.models.Per100Possession
Per100Possession
p272
(dp273
g8
S'3.4'
p274
sg10
S'1.5'
p275
sg12
S'.430'
p276
sS'_offensiveRating'
p277
S'95'
p278
sg14
S'2.8'
p279
sg16
S'.100'
p280
sg18
S'0.1'
p281
sg20
S'25.0'
p282
sg22
S'SF'
p283
sS'_defensiveRating'
p284
S'105'
p285
sg24
S'.690'
p286
sg28
S'NBA'
p287
sg30
S'1.8'
p288
sg32
S'25.4'
p289
sg34
S'7.5'
p290
sg36
S'4.3'
p291
sg38
S'8.3'
p292
sg40
S'22'
p293
sg42
S'CLE'
p294
sg44
S'42'
p295
sg46
S'0.9'
p296
sg48
S'10.8'
p297
sg50
S'3.0'
p298
sg52
S'24.0'
p299
sg54
S'4.9'
p300
sg56
S'1988-89'
p301
sg58
S'10.9'
p302
sg60
S'3.1'
p303
sg62
S'.451'
p304
sg64
S'331'
p305
sg66
g67
sba(isrc.gp1.models.Per100Possession
Per100Possession
p306
(dp307
g8
S'3.1'
p308
sg10
S'1.3'
p309
sg12
S'.432'
p310
sg277
S'97'
p311
sg14
S'2.7'
p312
sg16
S'.326'
p313
sg18
S'0.4'
p314
sg20
S'21.6'
p315
sg22
S'SF'
p316
sg284
S'109'
p317
sg24
S'.721'
p318
sg28
S'NBA'
p319
sg30
S'2.1'
p320
sg32
S'20.9'
p321
sg34
S'6.9'
p322
sg36
S'4.3'
p323
sg38
S'7.8'
p324
sg40
S'23'
p325
sg42
S'TOT'
p326
sg44
S'80'
p327
sg46
S'0.2'
p328
sg48
S'8.6'
p329
sg50
S'3.1'
p330
sg52
S'19.6'
p331
sg54
S'4.7'
p332
sg56
S'1989-90'
p333
sg58
S'9.0'
p334
sg60
S'2.6'
p335
sg62
S'.439'
p336
sg64
S'1615'
p337
sg66
S'18'
p338
sba(isrc.gp1.models.Per100Possession
Per100Possession
p339
(dp340
g8
S'2.9'
p341
sg10
S'0.6'
p342
sg12
S'.421'
p343
sg277
S'96'
p344
sg14
S'2.2'
p345
sg16
S'.200'
p346
sg18
S'0.1'
p347
sg20
S'20.7'
p348
sg22
S'SF'
p349
sg284
S'108'
p350
sg24
S'.744'
p351
sg28
S'NBA'
p352
sg30
S'2.2'
p353
sg32
S'20.3'
p354
sg34
S'6.6'
p355
sg36
S'4.6'
p356
sg38
S'7.8'
p357
sg40
S'23'
p358
sg42
S'CLE'
p359
sg44
S'48'
p360
sg46
S'0.1'
p361
sg48
S'8.4'
p362
sg50
S'3.5'
p363
sg52
S'19.8'
p364
sg54
S'4.8'
p365
sg56
S'1989-90'
p366
sg58
S'8.6'
p367
sg60
S'2.7'
p368
sg62
S'.427'
p369
sg64
S'892'
p370
sg66
S'13'
p371
sba(isrc.gp1.models.Per100Possession
Per100Possession
p372
(dp373
g8
S'3.2'
p374
sg10
S'2.2'
p375
sg12
S'.445'
p376
sg277
S'99'
p377
sg14
S'3.3'
p378
sg16
S'.364'
p379
sg18
S'0.8'
p380
sg20
S'22.7'
p381
sg22
S'SF'
p382
sg284
S'111'
p383
sg24
S'.690'
p384
sg28
S'NBA'
p385
sg30
S'2.0'
p386
sg32
S'21.6'
p387
sg34
S'7.2'
p388
sg36
S'3.9'
p389
sg38
S'7.9'
p390
sg40
S'23'
p391
sg42
S'CHH'
p392
sg44
S'32'
p393
sg46
S'0.4'
p394
sg48
S'8.8'
p395
sg50
S'2.7'
p396
sg52
S'19.4'
p397
sg54
S'4.6'
p398
sg56
S'1989-90'
p399
sg58
S'9.6'
p400
sg60
S'2.5'
p401
sg62
S'.455'
p402
sg64
S'723'
p403
sg66
g161
sba(isrc.gp1.models.Per100Possession
Per100Possession
p404
(dp405
g8
S'4.2'
p406
sg10
S'1.5'
p407
sg12
S'.407'
p408
sg277
S'86'
p409
sg14
S'1.9'
p410
sg16
S'.214'
p411
sg18
S'0.3'
p412
sg20
S'14.6'
p413
sg22
S'SF'
p414
sg284
S'108'
p415
sg24
S'.576'
p416
sg28
S'NBA'
p417
sg30
S'2.3'
p418
sg32
S'15.1'
p419
sg34
S'9.7'
p420
sg36
S'3.4'
p421
sg38
S'10.4'
p422
sg40
S'24'
p423
sg42
S'CHH'
p424
sg44
S'44'
p425
sg46
S'1.6'
p426
sg48
S'5.8'
p427
sg50
S'2.0'
p428
sg52
S'13.7'
p429
sg54
S'6.3'
p430
sg56
S'1990-91'
p431
sg58
S'6.2'
p432
sg60
S'3.7'
p433
sg62
S'.427'
p434
sg64
S'473'
p435
sg66
g67
sba(isrc.gp1.models.Per100Possession
Per100Possession
p436
(dp437
g8
S'3.6'
p438
sg10
S'5.5'
p439
sg12
S'.346'
p440
sg277
S'89'
p441
sg14
S'1.2'
p442
sg16
S'.000'
p443
sg18
S'0.0'
p444
sg20
S'12.2'
p445
sg22
S'SF'
p446
sg284
S'111'
p447
sg24
S'1.000'
p448
sg28
S'NBA'
p449
sg30
S'0.6'
p450
sg32
S'15.8'
p451
sg34
S'9.7'
p452
sg36
S'1.2'
p453
sg38
S'10.3'
p454
sg40
S'28'
p455
sg42
S'LAL'
p456
sg44
g47
sg46
S'1.2'
p457
sg48
S'5.5'
p458
sg50
S'1.2'
p459
sg52
S'10.3'
p460
sg54
S'6.7'
p461
sg56
S'1994-95'
p462
sg58
S'5.5'
p463
sg60
S'1.2'
p464
sg62
S'.529'
p465
sg64
S'83'
p466
sg66
g67
sba(isrc.gp1.models.Per100Possession
Per100Possession
p467
(dp468
g8
S'2.7'
p469
sg10
S'4.6'
p470
sg12
S'.418'
p471
sg277
S'108'
p472
sg14
S'4.2'
p473
sg16
S'.310'
p474
sg18
S'1.4'
p475
sg20
S'15.1'
p476
sg22
S'SF'
p477
sg284
S'110'
p478
sg24
S'.837'
p479
sg28
S'NBA'
p480
sg30
S'2.1'
p481
sg32
S'13.6'
p482
sg34
S'9.1'
p483
sg36
S'2.8'
p484
sg38
S'8.1'
p485
sg40
S'29'
p486
sg42
S'MIL'
p487
sg44
S'69'
p488
sg46
S'0.9'
p489
sg48
S'4.2'
p490
sg50
S'2.3'
p491
sg52
S'8.9'
p492
sg54
S'5.5'
p493
sg56
S'1995-96'
p494
sg58
S'5.7'
p495
sg60
S'2.2'
p496
sg62
S'.474'
p497
sg64
S'816'
p498
sg66
g19
sbasS'_advanced'
p499
(lp500
(isrc.gp1.models.Advanced
Advanced
p501
(dp502
S'_offensiveReboundPercentage'
p503
S'8.3'
p504
sS'_turnOverPercentage'
p505
S'10.2'
p506
sS'_winSharesPer48Minutes'
p507
S'.037'
p508
sS'_stealPercentage'
p509
S'1.8'
p510
sS'_usagePercentage'
p511
S'26.4'
p512
sS'_totalReboundsPercentage'
p513
S'9.5'
p514
sS'_defensiveBoxPlusMinus'
p515
S'-1.9'
p516
sg22
S'SF'
p517
sS'_valueOverReplacementPlayer'
p518
S'-0.3'
p519
sS'_trueShootingPercentage'
p520
S'.457'
p521
sS'_defensiveReboundPercentage'
p522
S'10.7'
p523
sS'_freeThrowsAttempRate'
p524
S'.169'
p525
sS'_threePointsAttempRate'
p526
S'.058'
p527
sg28
S'NBA'
p528
sS'_offensiveBoxPlusMinues'
p529
S'-3.6'
p530
sS'_assistPercentage'
p531
S'8.8'
p532
sS'_defensiveWinShares'
p533
S'0.5'
p534
sg40
S'22'
p535
sg42
S'CLE'
p536
sg44
S'42'
p537
sS'_blockPercentage'
p538
S'1.0'
p539
sS'_playerEfficiencyRating'
p540
S'11.5'
p541
sS'_offensiveWinShares'
p542
S'-0.2'
p543
sg64
S'331'
p544
sS'_boxPlusMinus'
p545
S'-5.5'
p546
sg56
S'1988-89'
p547
sS'_winShares'
p548
S'0.3'
p549
sba(isrc.gp1.models.Advanced
Advanced
p550
(dp551
g503
S'6.8'
p552
sg505
S'10.2'
p553
sg507
S'.030'
p554
sg509
S'2.1'
p555
sg511
S'21.9'
p556
sg513
S'8.8'
p557
sg515
S'-0.8'
p558
sg22
S'SF'
p559
sg518
S'-0.6'
p560
sg520
S'.474'
p561
sg522
S'11.0'
p562
sg524
S'.206'
p563
sg526
S'.063'
p564
sg28
S'NBA'
p565
sg529
S'-2.5'
p566
sg531
S'8.6'
p567
sg533
S'1.5'
p568
sg40
S'23'
p569
sg42
S'TOT'
p570
sg44
S'80'
p571
sg538
S'0.3'
p572
sg540
S'10.9'
p573
sg542
S'-0.5'
p574
sg64
S'1615'
p575
sg545
S'-3.4'
p576
sg56
S'1989-90'
p577
sg548
S'1.0'
p578
sba(isrc.gp1.models.Advanced
Advanced
p579
(dp580
g503
S'6.5'
p581
sg505
S'10.6'
p582
sg507
S'.030'
p583
sg509
S'2.2'
p584
sg511
S'21.4'
p585
sg513
S'8.6'
p586
sg515
S'-1.1'
p587
sg22
S'SF'
p588
sg518
S'-0.6'
p589
sg520
S'.462'
p590
sg522
S'10.8'
p591
sg524
S'.228'
p592
sg526
S'.028'
p593
sg28
S'NBA'
p594
sg529
S'-3.8'
p595
sg531
S'6.8'
p596
sg533
S'0.9'
p597
sg40
S'23'
p598
sg42
S'CLE'
p599
sg44
S'48'
p600
sg538
S'0.1'
p601
sg540
S'9.8'
p602
sg542
S'-0.4'
p603
sg64
S'892'
p604
sg545
S'-4.9'
p605
sg56
S'1989-90'
p606
sg548
S'0.6'
p607
sba(isrc.gp1.models.Advanced
Advanced
p608
(dp609
g503
S'7.1'
p610
sg505
S'9.7'
p611
sg507
S'.031'
p612
sg509
S'2.0'
p613
sg511
S'22.5'
p614
sg513
S'9.1'
p615
sg515
S'-0.6'
p616
sg22
S'SF'
p617
sg518
S'0.1'
p618
sg520
S'.488'
p619
sg522
S'11.4'
p620
sg524
S'.182'
p621
sg526
S'.103'
p622
sg28
S'NBA'
p623
sg529
S'-1.0'
p624
sg531
S'10.7'
p625
sg533
S'0.5'
p626
sg40
S'23'
p627
sg42
S'CHH'
p628
sg44
S'32'
p629
sg538
S'0.5'
p630
sg540
S'12.3'
p631
sg542
S'-0.1'
p632
sg64
S'723'
p633
sg545
S'-1.6'
p634
sg56
S'1989-90'
p635
sg548
S'0.5'
p636
sba(isrc.gp1.models.Advanced
Advanced
p637
(dp638
g503
S'9.5'
p639
sg505
S'18.0'
p640
sg507
S'-0.018'
p641
sg509
S'2.3'
p642
sg511
S'17.5'
p643
sg513
S'12.2'
p644
sg515
S'0.6'
p645
sg22
S'SF'
p646
sg518
S'-0.2'
p647
sg520
S'.439'
p648
sg522
S'15.0'
p649
sg524
S'.228'
p650
sg526
S'.097'
p651
sg28
S'NBA'
p652
sg529
S'-4.7'
p653
sg531
S'5.4'
p654
sg533
S'0.5'
p655
sg40
S'24'
p656
sg42
S'CHH'
p657
sg44
S'44'
p658
sg538
S'2.0'
p659
sg540
S'7.3'
p660
sg542
S'-0.6'
p661
sg64
S'473'
p662
sg545
S'-4.1'
p663
sg56
S'1990-91'
p664
sg548
S'-0.2'
p665
sba(isrc.gp1.models.Advanced
Advanced
p666
(dp667
g503
S'8.0'
p668
sg505
S'6.9'
p669
sg507
S'-0.008'
p670
sg509
S'0.6'
p671
sg511
S'15.0'
p672
sg513
S'11.3'
p673
sg515
S'-2.4'
p674
sg22
S'SF'
p675
sg518
S'-0.1'
p676
sg520
S'.372'
p677
sg522
S'14.7'
p678
sg524
S'.077'
p679
sg526
S'.346'
p680
sg28
S'NBA'
p681
sg529
S'-5.1'
p682
sg531
S'3.4'
p683
sg533
S'0.1'
p684
sg40
S'28'
p685
sg42
S'LAL'
p686
sg44
g47
sg538
S'1.7'
p687
sg540
S'5.0'
p688
sg542
S'-0.1'
p689
sg64
S'83'
p690
sg545
S'-7.5'
p691
sg56
S'1994-95'
p692
sg548
S'0.0'
p693
sba(isrc.gp1.models.Advanced
Advanced
p694
(dp695
g503
S'6.0'
p696
sg505
S'12.7'
p697
sg507
S'.072'
p698
sg509
S'2.1'
p699
sg511
S'14.6'
p700
sg513
S'9.4'
p701
sg515
S'-0.1'
p702
sg22
S'SF'
p703
sg518
S'0.2'
p704
sg520
S'.511'
p705
sg522
S'12.8'
p706
sg524
S'.207'
p707
sg526
S'.341'
p708
sg28
S'NBA'
p709
sg529
S'-0.9'
p710
sg531
S'12.0'
p711
sg533
S'0.6'
p712
sg40
S'29'
p713
sg42
S'MIL'
p714
sg44
S'69'
p715
sg538
S'1.3'
p716
sg540
S'10.8'
p717
sg542
S'0.7'
p718
sg64
S'816'
p719
sg545
S'-1.0'
p720
sg56
S'1995-96'
p721
sg548
S'1.2'
p722
sbasS'_per36Minutes'
p723
(lp724
(isrc.gp1.models.Per36Minutes
Per36Minutes
p725
(dp726
g8
S'2.5'
p727
sg10
S'1.1'
p728
sg12
S'.430'
p729
sg14
S'2.1'
p730
sg16
S'.100'
p731
sg18
S'0.1'
p732
sg20
S'18.4'
p733
sg22
S'SF'
p734
sg24
S'.690'
p735
sg28
S'NBA'
p736
sg30
S'1.3'
p737
sg32
S'18.7'
p738
sg34
S'5.5'
p739
sg36
S'3.2'
p740
sg38
S'6.1'
p741
sg40
S'22'
p742
sg42
S'CLE'
p743
sg44
S'42'
p744
sg46
S'0.7'
p745
sg48
S'7.9'
p746
sg50
S'2.2'
p747
sg52
S'17.6'
p748
sg54
S'3.6'
p749
sg56
S'1988-89'
p750
sg58
S'8.0'
p751
sg60
S'2.3'
p752
sg62
S'.451'
p753
sg64
S'331'
p754
sg66
g67
sba(isrc.gp1.models.Per36Minutes
Per36Minutes
p755
(dp756
g8
S'2.2'
p757
sg10
S'1.0'
p758
sg12
S'.432'
p759
sg14
S'2.0'
p760
sg16
S'.326'
p761
sg18
S'0.3'
p762
sg20
S'15.6'
p763
sg22
S'SF'
p764
sg24
S'.721'
p765
sg28
S'NBA'
p766
sg30
S'1.5'
p767
sg32
S'15.1'
p768
sg34
S'5.0'
p769
sg36
S'3.1'
p770
sg38
S'5.6'
p771
sg40
S'23'
p772
sg42
S'TOT'
p773
sg44
S'80'
p774
sg46
S'0.2'
p775
sg48
S'6.2'
p776
sg50
S'2.3'
p777
sg52
S'14.2'
p778
sg54
S'3.4'
p779
sg56
S'1989-90'
p780
sg58
S'6.5'
p781
sg60
S'1.9'
p782
sg62
S'.439'
p783
sg64
S'1615'
p784
sg66
S'18'
p785
sba(isrc.gp1.models.Per36Minutes
Per36Minutes
p786
(dp787
g8
S'2.1'
p788
sg10
S'0.4'
p789
sg12
S'.421'
p790
sg14
S'1.6'
p791
sg16
S'.200'
p792
sg18
S'0.1'
p793
sg20
S'14.7'
p794
sg22
S'SF'
p795
sg24
S'.744'
p796
sg28
S'NBA'
p797
sg30
S'1.5'
p798
sg32
S'14.5'
p799
sg34
S'4.7'
p800
sg36
S'3.3'
p801
sg38
S'5.5'
p802
sg40
S'23'
p803
sg42
S'CLE'
p804
sg44
S'48'
p805
sg46
S'0.1'
p806
sg48
S'6.0'
p807
sg50
S'2.5'
p808
sg52
S'14.1'
p809
sg54
S'3.4'
p810
sg56
S'1989-90'
p811
sg58
S'6.1'
p812
sg60
S'1.9'
p813
sg62
S'.427'
p814
sg64
S'892'
p815
sg66
S'13'
p816
sba(isrc.gp1.models.Per36Minutes
Per36Minutes
p817
(dp818
g8
S'2.4'
p819
sg10
S'1.6'
p820
sg12
S'.445'
p821
sg14
S'2.4'
p822
sg16
S'.364'
p823
sg18
S'0.6'
p824
sg20
S'16.7'
p825
sg22
S'SF'
p826
sg24
S'.690'
p827
sg28
S'NBA'
p828
sg30
S'1.5'
p829
sg32
S'15.9'
p830
sg34
S'5.3'
p831
sg36
S'2.9'
p832
sg38
S'5.8'
p833
sg40
S'23'
p834
sg42
S'CHH'
p835
sg44
S'32'
p836
sg46
S'0.3'
p837
sg48
S'6.5'
p838
sg50
S'2.0'
p839
sg52
S'14.2'
p840
sg54
S'3.4'
p841
sg56
S'1989-90'
p842
sg58
S'7.1'
p843
sg60
S'1.8'
p844
sg62
S'.455'
p845
sg64
S'723'
p846
sg66
g161
sba(isrc.gp1.models.Per36Minutes
Per36Minutes
p847
(dp848
g8
S'3.0'
p849
sg10
S'1.1'
p850
sg12
S'.407'
p851
sg14
S'1.4'
p852
sg16
S'.214'
p853
sg18
S'0.2'
p854
sg20
S'10.7'
p855
sg22
S'SF'
p856
sg24
S'.576'
p857
sg28
S'NBA'
p858
sg30
S'1.7'
p859
sg32
S'11.0'
p860
sg34
S'7.1'
p861
sg36
S'2.5'
p862
sg38
S'7.6'
p863
sg40
S'24'
p864
sg42
S'CHH'
p865
sg44
S'44'
p866
sg46
S'1.1'
p867
sg48
S'4.3'
p868
sg50
S'1.4'
p869
sg52
S'10.0'
p870
sg54
S'4.6'
p871
sg56
S'1990-91'
p872
sg58
S'4.5'
p873
sg60
S'2.7'
p874
sg62
S'.427'
p875
sg64
S'473'
p876
sg66
g67
sba(isrc.gp1.models.Per36Minutes
Per36Minutes
p877
(dp878
g8
S'2.6'
p879
sg10
S'3.9'
p880
sg12
S'.346'
p881
sg14
S'0.9'
p882
sg16
S'.000'
p883
sg18
S'0.0'
p884
sg20
S'8.7'
p885
sg22
S'SF'
p886
sg24
S'1.000'
p887
sg28
S'NBA'
p888
sg30
S'0.4'
p889
sg32
S'11.3'
p890
sg34
S'6.9'
p891
sg36
S'0.9'
p892
sg38
S'7.4'
p893
sg40
S'28'
p894
sg42
S'LAL'
p895
sg44
g47
sg46
S'0.9'
p896
sg48
S'3.9'
p897
sg50
S'0.9'
p898
sg52
S'7.4'
p899
sg54
S'4.8'
p900
sg56
S'1994-95'
p901
sg58
S'3.9'
p902
sg60
S'0.9'
p903
sg62
S'.529'
p904
sg64
S'83'
p905
sg66
g67
sba(isrc.gp1.models.Per36Minutes
Per36Minutes
p906
(dp907
g8
S'1.8'
p908
sg10
S'3.1'
p909
sg12
S'.418'
p910
sg14
S'2.9'
p911
sg16
S'.310'
p912
sg18
S'1.0'
p913
sg20
S'10.2'
p914
sg22
S'SF'
p915
sg24
S'.837'
p916
sg28
S'NBA'
p917
sg30
S'1.4'
p918
sg32
S'9.2'
p919
sg34
S'6.1'
p920
sg36
S'1.9'
p921
sg38
S'5.5'
p922
sg40
S'29'
p923
sg42
S'MIL'
p924
sg44
S'69'
p925
sg46
S'0.6'
p926
sg48
S'2.9'
p927
sg50
S'1.6'
p928
sg52
S'6.0'
p929
sg54
S'3.7'
p930
sg56
S'1995-96'
p931
sg58
S'3.8'
p932
sg60
S'1.5'
p933
sg62
S'.474'
p934
sg64
S'816'
p935
sg66
g19
sbasS'_fromYear'
p936
S'1989'
p937
sS'_url'
p938
S'http://www.basketball-reference.com/players/k/keysra01.html'
p939
sS'_perGame'
p940
(isrc.gp1.models.PerGame
PerGame
p941
(dp942
g8
S'0.6'
p943
sg10
S'1.0'
p944
sg12
S'.418'
p945
sS'_effectiveFieldGalPercentage'
p946
S'.471'
p947
sg14
S'0.9'
p948
sg16
S'.310'
p949
sg18
S'0.3'
p950
sg20
S'3.4'
p951
sg22
S'SF'
p952
sg24
S'.837'
p953
sg28
S'NBA'
p954
sg30
S'0.5'
p955
sg34
S'2.0'
p956
sS'_fieldGoalsttempted'
p957
S'3.0'
p958
sg36
S'0.6'
p959
sg38
S'1.8'
p960
sg40
S'29'
p961
sg42
S'MIL'
p962
sg44
S'69'
p963
sg46
S'0.2'
p964
sg48
S'0.9'
p965
sg50
S'0.5'
p966
sg52
S'2.0'
p967
sg54
S'1.2'
p968
sg56
S'1995-96'
p969
sg58
S'1.3'
p970
sg60
S'0.5'
p971
sg62
S'.474'
p972
sg64
S'11.8'
p973
sg66
g19
sbsS'_weight'
p974
S'195'
p975
sS'_dob'
p976
S'19-4-1966'
p977
sS'_salary'
p978
(lp979
(isrc.gp1.models.Salary
Salary
p980
(dp981
g42
S'Cleveland Cavaliers'
p982
sg28
S'NBA'
p983
sg978
S'$250,000'
p984
sg56
S'1988-89'
p985
sba(isrc.gp1.models.Salary
Salary
p986
(dp987
g42
S'Charlotte Hornets'
p988
sg28
S'NBA'
p989
sg978
S'$322,000'
p990
sg56
S'1990-91'
p991
sbasg22
S'F-G'
p992
sb.