(isrc.gp1.models.Player
Player
p0
(dp1
S'_experience'
p2
S'NA'
p3
sS'_totals'
p4
(lp5
(isrc.gp1.models.Totals
Totals
p6
(dp7
S'_offensiveRebounds'
p8
S'1'
p9
sS'_threePointsAttempted'
p10
S'47'
p11
sS'_fieldGoalsPercentage'
p12
S'.316'
p13
sS'_assist'
p14
S'32'
p15
sS'_threePointsPercentage'
p16
S'.277'
p17
sS'_threePoints'
p18
S'13'
p19
sS'_points'
p20
S'85'
p21
sS'_position'
p22
S'PG'
p23
sS'_freeThrowsPercentage'
p24
S'.815'
p25
sS'_effectiveFieldGoalPercentage'
p26
S'.399'
p27
sS'_league'
p28
S'NBA'
p29
sS'_steals'
p30
S'8'
p31
sS'_fieldGoalsAttempted'
p32
S'79'
p33
sS'_personalFouls'
p34
S'22'
p35
sS'_freeThrowsAttempted'
p36
S'27'
p37
sS'_totalRebounds'
p38
S'19'
p39
sS'_age'
p40
S'23'
p41
sS'_team'
p42
S'POR'
p43
sS'_games'
p44
S'28'
p45
sS'_blocks'
p46
g9
sS'_twoPoints'
p47
S'12'
p48
sS'_freeThrows'
p49
S'22'
p50
sS'_twoPointsAttempted'
p51
S'32'
p52
sS'_defensiveRebounds'
p53
S'18'
p54
sS'_season'
p55
S'1995-96'
p56
sS'_fieldGoals'
p57
S'25'
p58
sS'_turnOvers'
p59
S'28'
p60
sS'_twoPointsPercentage'
p61
S'.375'
p62
sS'_minutesPlayed'
p63
S'250'
p64
sS'_gamesStarted'
p65
S'0'
p66
sba(isrc.gp1.models.Totals
Totals
p67
(dp68
g8
g9
sg10
S'19'
p69
sg12
S'.350'
p70
sg14
S'17'
p71
sg16
S'.263'
p72
sg18
S'5'
p73
sg20
S'39'
p74
sg22
S'PG'
p75
sg24
S'.750'
p76
sg26
S'.413'
p77
sg28
S'NBA'
p78
sg30
S'9'
p79
sg32
S'40'
p80
sg34
S'16'
p81
sg36
g31
sg38
S'6'
p82
sg40
S'24'
p83
sg42
S'TOT'
p84
sg44
S'23'
p85
sg46
g66
sg47
g79
sg49
g82
sg51
S'21'
p86
sg53
g73
sg55
S'1996-97'
p87
sg57
S'14'
p88
sg59
S'18'
p89
sg61
S'.429'
p90
sg63
S'155'
p91
sg65
g66
sba(isrc.gp1.models.Totals
Totals
p92
(dp93
g8
g9
sg10
S'16'
p94
sg12
S'.333'
p95
sg14
S'15'
p96
sg16
S'.188'
p97
sg18
S'3'
p98
sg20
S'29'
p99
sg22
S'PG'
p100
sg24
S'.750'
p101
sg26
S'.383'
p102
sg28
S'NBA'
p103
sg30
S'7'
p104
sg32
S'30'
p105
sg34
S'11'
p106
sg36
g31
sg38
g73
sg40
S'24'
p107
sg42
S'POR'
p108
sg44
S'19'
p109
sg46
g66
sg47
g104
sg49
g82
sg51
S'14'
p110
sg53
S'4'
p111
sg55
S'1996-97'
p112
sg57
S'10'
p113
sg59
S'13'
p114
sg61
S'.500'
p115
sg63
S'125'
p116
sg65
g66
sba(isrc.gp1.models.Totals
Totals
p117
(dp118
g8
g9
sg10
g98
sg12
S'.400'
p119
sg14
S'2'
p120
sg16
S'.667'
p121
sg18
g120
sg20
g3
sg22
S'PG'
p122
sg24
g66
sg26
S'.500'
p123
sg28
S'NBA'
p124
sg30
g66
sg32
S'10'
p125
sg34
S'10'
p126
sg36
g66
sg38
g120
sg40
S'24'
p127
sg42
S'DET'
p128
sg44
g111
sg46
g73
sg47
g120
sg49
g66
sg51
g104
sg53
g9
sg55
S'1996-97'
p129
sg57
g111
sg59
g73
sg61
S'.286'
p130
sg63
S'30'
p131
sg65
g66
sbasS'_college'
p132
S'Wake Forest University'
p133
sS'_toYear'
p134
S'1997'
p135
sS'_height'
p136
S'6-2'
p137
sS'_active'
p138
I00
sS'_shootingHand'
p139
VRight
p140
sS'_name'
p141
S'Randolph Childress'
p142
sS'_per100Possessions'
p143
(lp144
(isrc.gp1.models.Per100Possession
Per100Possession
p145
(dp146
g8
S'0.2'
p147
sg10
S'9.7'
p148
sg12
S'.316'
p149
sS'_offensiveRating'
p150
S'88'
p151
sg14
S'6.6'
p152
sg16
S'.277'
p153
sg18
S'2.7'
p154
sg20
S'17.6'
p155
sg22
S'PG'
p156
sS'_defensiveRating'
p157
S'106'
p158
sg24
S'.815'
p159
sg28
S'NBA'
p160
sg30
S'1.7'
p161
sg32
S'16.4'
p162
sg34
S'4.6'
p163
sg36
S'5.6'
p164
sg38
S'3.9'
p165
sg40
S'23'
p166
sg42
S'POR'
p167
sg44
S'28'
p168
sg46
S'0.2'
p169
sg47
S'2.5'
p170
sg49
S'4.6'
p171
sg51
S'6.6'
p172
sg53
S'3.7'
p173
sg55
S'1995-96'
p174
sg57
S'5.2'
p175
sg59
S'5.8'
p176
sg61
S'.375'
p177
sg63
S'250'
p178
sg65
g66
sba(isrc.gp1.models.Per100Possession
Per100Possession
p179
(dp180
g8
S'0.3'
p181
sg10
S'6.6'
p182
sg12
S'.350'
p183
sg150
S'78'
p184
sg14
S'5.9'
p185
sg16
S'.263'
p186
sg18
S'1.7'
p187
sg20
S'13.5'
p188
sg22
S'PG'
p189
sg157
S'105'
p190
sg24
S'.750'
p191
sg28
S'NBA'
p192
sg30
S'3.1'
p193
sg32
S'13.8'
p194
sg34
S'5.5'
p195
sg36
S'2.8'
p196
sg38
S'2.1'
p197
sg40
S'24'
p198
sg42
S'TOT'
p199
sg44
S'23'
p200
sg46
S'0.0'
p201
sg47
S'3.1'
p202
sg49
S'2.1'
p203
sg51
S'7.3'
p204
sg53
S'1.7'
p205
sg55
S'1996-97'
p206
sg57
S'4.8'
p207
sg59
S'6.2'
p208
sg61
S'.429'
p209
sg63
S'155'
p210
sg65
g66
sba(isrc.gp1.models.Per100Possession
Per100Possession
p211
(dp212
g8
S'0.4'
p213
sg10
S'6.8'
p214
sg12
S'.333'
p215
sg150
S'80'
p216
sg14
S'6.3'
p217
sg16
S'.188'
p218
sg18
S'1.3'
p219
sg20
S'12.2'
p220
sg22
S'PG'
p221
sg157
S'105'
p222
sg24
S'.750'
p223
sg28
S'NBA'
p224
sg30
S'3.0'
p225
sg32
S'12.7'
p226
sg34
S'4.6'
p227
sg36
S'3.4'
p228
sg38
S'2.1'
p229
sg40
S'24'
p230
sg42
S'POR'
p231
sg44
S'19'
p232
sg46
S'0.0'
p233
sg47
S'3.0'
p234
sg49
S'2.5'
p235
sg51
S'5.9'
p236
sg53
S'1.7'
p237
sg55
S'1996-97'
p238
sg57
S'4.2'
p239
sg59
S'5.5'
p240
sg61
S'.500'
p241
sg63
S'125'
p242
sg65
g66
sba(isrc.gp1.models.Per100Possession
Per100Possession
p243
(dp244
g8
S'1.9'
p245
sg10
S'5.7'
p246
sg12
S'.400'
p247
sg150
S'104'
p248
sg14
S'3.8'
p249
sg16
S'.667'
p250
sg18
S'3.8'
p251
sg20
S'70'
p252
sg22
S'PG'
p253
sg157
g3
sg24
S'0.0'
p254
sg28
S'NBA'
p255
sg30
S'0.0'
p256
sg32
S'18.9'
p257
sg34
S'18.9'
p258
sg36
S'0.0'
p259
sg38
S'3.8'
p260
sg40
S'24'
p261
sg42
S'DET'
p262
sg44
g111
sg46
S'9.5'
p263
sg47
S'3.8'
p264
sg49
S'0.0'
p265
sg51
S'13.2'
p266
sg53
S'1.9'
p267
sg55
S'1996-97'
p268
sg57
S'7.6'
p269
sg59
S'9.5'
p270
sg61
S'.286'
p271
sg63
S'30'
p272
sg65
g66
sbasS'_advanced'
p273
(lp274
(isrc.gp1.models.Advanced
Advanced
p275
(dp276
S'_offensiveReboundPercentage'
p277
S'0.5'
p278
sS'_turnOverPercentage'
p279
S'23.6'
p280
sS'_winSharesPer48Minutes'
p281
S'-0.009'
p282
sS'_stealPercentage'
p283
S'1.7'
p284
sS'_usagePercentage'
p285
S'20.8'
p286
sS'_totalReboundsPercentage'
p287
S'4.3'
p288
sS'_defensiveBoxPlusMinus'
p289
S'-1.7'
p290
sg22
S'PG'
p291
sS'_valueOverReplacementPlayer'
p292
S'-0.2'
p293
sS'_trueShootingPercentage'
p294
S'.468'
p295
sS'_defensiveReboundPercentage'
p296
S'8.2'
p297
sS'_freeThrowsAttempRate'
p298
S'.342'
p299
sS'_threePointsAttempRate'
p300
S'.595'
p301
sg28
S'NBA'
p302
sS'_offensiveBoxPlusMinues'
p303
S'-4.2'
p304
sS'_assistPercentage'
p305
S'19.1'
p306
sS'_defensiveWinShares'
p307
S'0.3'
p308
sg40
S'23'
p309
sg42
S'POR'
p310
sg44
S'28'
p311
sS'_blockPercentage'
p312
S'0.3'
p313
sS'_playerEfficiencyRating'
p314
S'6.7'
p315
sS'_offensiveWinShares'
p316
S'-0.3'
p317
sg63
S'250'
p318
sS'_boxPlusMinus'
p319
S'-5.9'
p320
sg55
S'1995-96'
p321
sS'_winShares'
p322
S'0.0'
p323
sba(isrc.gp1.models.Advanced
Advanced
p324
(dp325
g277
S'0.8'
p326
sg279
S'29.3'
p327
sg281
S'-0.054'
p328
sg283
S'3.1'
p329
sg285
S'18.3'
p330
sg287
S'2.3'
p331
sg289
S'-1.4'
p332
sg22
S'PG'
p333
sg292
S'-0.2'
p334
sg294
S'.448'
p335
sg296
S'3.8'
p336
sg298
S'.200'
p337
sg300
S'.475'
p338
sg28
S'NBA'
p339
sg303
S'-5.8'
p340
sg305
S'16.6'
p341
sg307
S'0.2'
p342
sg40
S'24'
p343
sg42
S'TOT'
p344
sg44
S'23'
p345
sg312
S'0.0'
p346
sg314
S'4.5'
p347
sg316
S'-0.4'
p348
sg63
S'155'
p349
sg319
S'-7.2'
p350
sg55
S'1996-97'
p351
sg322
S'-0.2'
p352
sba(isrc.gp1.models.Advanced
Advanced
p353
(dp354
g277
S'1.0'
p355
sg279
S'27.9'
p356
sg281
S'-0.034'
p357
sg283
S'3.0'
p358
sg285
S'16.8'
p359
sg287
S'2.4'
p360
sg289
S'-1.5'
p361
sg22
S'PG'
p362
sg292
S'-0.1'
p363
sg294
S'.433'
p364
sg296
S'3.7'
p365
sg298
S'.267'
p366
sg300
S'.533'
p367
sg28
S'NBA'
p368
sg303
S'-5.2'
p369
sg305
S'17.8'
p370
sg307
S'0.1'
p371
sg40
S'24'
p372
sg42
S'POR'
p373
sg44
S'19'
p374
sg312
S'0.0'
p375
sg314
S'5.0'
p376
sg316
S'-0.2'
p377
sg63
S'125'
p378
sg319
S'-6.7'
p379
sg55
S'1996-97'
p380
sg322
S'-0.1'
p381
sba(isrc.gp1.models.Advanced
Advanced
p382
(dp383
g277
S'0.0'
p384
sg279
S'33.3'
p385
sg281
S'-0.137'
p386
sg283
S'3.8'
p387
sg285
S'24.7'
p388
sg287
S'2.1'
p389
sg289
S'-1.2'
p390
sg22
S'PG'
p391
sg292
S'-0.1'
p392
sg294
S'.500'
p393
sg296
S'4.1'
p394
sg298
S'.000'
p395
sg300
S'.300'
p396
sg28
S'NBA'
p397
sg303
S'-8.2'
p398
sg305
S'11.5'
p399
sg307
S'0.0'
p400
sg40
S'24'
p401
sg42
S'DET'
p402
sg44
g111
sg312
S'0.0'
p403
sg314
S'2.4'
p404
sg316
S'-0.1'
p405
sg63
S'30'
p406
sg319
S'-9.4'
p407
sg55
S'1996-97'
p408
sg322
S'-0.1'
p409
sbasS'_per36Minutes'
p410
(lp411
(isrc.gp1.models.Per36Minutes
Per36Minutes
p412
(dp413
g8
S'0.1'
p414
sg10
S'6.8'
p415
sg12
S'.316'
p416
sg14
S'4.6'
p417
sg16
S'.277'
p418
sg18
S'1.9'
p419
sg20
S'12.2'
p420
sg22
S'PG'
p421
sg24
S'.815'
p422
sg28
S'NBA'
p423
sg30
S'1.2'
p424
sg32
S'11.4'
p425
sg34
S'3.2'
p426
sg36
S'3.9'
p427
sg38
S'2.7'
p428
sg40
S'23'
p429
sg42
S'POR'
p430
sg44
S'28'
p431
sg46
S'0.1'
p432
sg47
S'1.7'
p433
sg49
S'3.2'
p434
sg51
S'4.6'
p435
sg53
S'2.6'
p436
sg55
S'1995-96'
p437
sg57
S'3.6'
p438
sg59
S'4.0'
p439
sg61
S'.375'
p440
sg63
S'250'
p441
sg65
g66
sba(isrc.gp1.models.Per36Minutes
Per36Minutes
p442
(dp443
g8
S'0.2'
p444
sg10
S'4.4'
p445
sg12
S'.350'
p446
sg14
S'3.9'
p447
sg16
S'.263'
p448
sg18
S'1.2'
p449
sg20
S'9.1'
p450
sg22
S'PG'
p451
sg24
S'.750'
p452
sg28
S'NBA'
p453
sg30
S'2.1'
p454
sg32
S'9.3'
p455
sg34
S'3.7'
p456
sg36
S'1.9'
p457
sg38
S'1.4'
p458
sg40
S'24'
p459
sg42
S'TOT'
p460
sg44
S'23'
p461
sg46
S'0.0'
p462
sg47
S'2.1'
p463
sg49
S'1.4'
p464
sg51
S'4.9'
p465
sg53
S'1.2'
p466
sg55
S'1996-97'
p467
sg57
S'3.3'
p468
sg59
S'4.2'
p469
sg61
S'.429'
p470
sg63
S'155'
p471
sg65
g66
sba(isrc.gp1.models.Per36Minutes
Per36Minutes
p472
(dp473
g8
S'0.3'
p474
sg10
S'4.6'
p475
sg12
S'.333'
p476
sg14
S'4.3'
p477
sg16
S'.188'
p478
sg18
S'0.9'
p479
sg20
S'8.4'
p480
sg22
S'PG'
p481
sg24
S'.750'
p482
sg28
S'NBA'
p483
sg30
S'2.0'
p484
sg32
S'8.6'
p485
sg34
S'3.2'
p486
sg36
S'2.3'
p487
sg38
S'1.4'
p488
sg40
S'24'
p489
sg42
S'POR'
p490
sg44
S'19'
p491
sg46
S'0.0'
p492
sg47
S'2.0'
p493
sg49
S'1.7'
p494
sg51
S'4.0'
p495
sg53
S'1.2'
p496
sg55
S'1996-97'
p497
sg57
S'2.9'
p498
sg59
S'3.7'
p499
sg61
S'.500'
p500
sg63
S'125'
p501
sg65
g66
sba(isrc.gp1.models.Per36Minutes
Per36Minutes
p502
(dp503
g8
S'1.2'
p504
sg10
S'3.6'
p505
sg12
S'.400'
p506
sg14
S'2.4'
p507
sg16
S'.667'
p508
sg18
S'2.4'
p509
sg20
g3
sg22
S'PG'
p510
sg24
S'0.0'
p511
sg28
S'NBA'
p512
sg30
S'0.0'
p513
sg32
S'12.0'
p514
sg34
S'12.0'
p515
sg36
S'0.0'
p516
sg38
S'2.4'
p517
sg40
S'24'
p518
sg42
S'DET'
p519
sg44
g111
sg46
S'6.0'
p520
sg47
S'2.4'
p521
sg49
S'0.0'
p522
sg51
S'8.4'
p523
sg53
S'1.2'
p524
sg55
S'1996-97'
p525
sg57
S'4.8'
p526
sg59
S'6.0'
p527
sg61
S'.286'
p528
sg63
S'30'
p529
sg65
g66
sbasS'_fromYear'
p530
S'1996'
p531
sS'_url'
p532
S'http://www.basketball-reference.com/players/c/childra01.html'
p533
sS'_perGame'
p534
(isrc.gp1.models.PerGame
PerGame
p535
(dp536
g8
S'0.3'
p537
sg10
S'0.8'
p538
sg12
S'.400'
p539
sS'_effectiveFieldGalPercentage'
p540
S'.500'
p541
sg14
S'0.5'
p542
sg16
S'.667'
p543
sg18
S'0.5'
p544
sg20
g3
sg22
S'PG'
p545
sg24
S'0.0'
p546
sg28
S'NBA'
p547
sg30
S'0.0'
p548
sg34
S'2.5'
p549
sS'_fieldGoalsttempted'
p550
S'2.5'
p551
sg36
S'0.0'
p552
sg38
S'0.5'
p553
sg40
S'24'
p554
sg42
S'DET'
p555
sg44
g111
sg46
S'1.3'
p556
sg47
S'0.5'
p557
sg49
S'0.0'
p558
sg51
S'1.8'
p559
sg53
S'0.3'
p560
sg55
S'1996-97'
p561
sg57
S'1.0'
p562
sg59
S'1.3'
p563
sg61
S'.286'
p564
sg63
S'7.5'
p565
sg65
g66
sbsS'_weight'
p566
S'188'
p567
sS'_dob'
p568
S'21-9-1972'
p569
sS'_salary'
p570
(lp571
(isrc.gp1.models.Salary
Salary
p572
(dp573
g42
S'Portland Trail Blazers'
p574
sg28
S'NBA'
p575
sg570
S'$682,000'
p576
sg55
S'1995-96'
p577
sba(isrc.gp1.models.Salary
Salary
p578
(dp579
g42
S'Portland Trail Blazers'
p580
sg28
S'NBA'
p581
sg570
S'$784,000'
p582
sg55
S'1996-97'
p583
sba(isrc.gp1.models.Salary
Salary
p584
(dp585
g42
S'Detroit Pistons'
p586
sg28
S'NBA'
p587
sg570
S'$760,000'
p588
sg55
S'1997-98'
p589
sba(isrc.gp1.models.Salary
Salary
p590
(dp591
g42
S'Detroit Pistons'
p592
sg28
S'NBA'
p593
sg570
S'$866,320'
p594
sg55
S'1998-99'
p595
sbasg22
S'G'
p596
sb.