(isrc.gp1.models.Player
Player
p0
(dp1
S'_experience'
p2
S'NA'
p3
sS'_totals'
p4
(lp5
(isrc.gp1.models.Totals
Totals
p6
(dp7
S'_offensiveRebounds'
p8
S'8'
p9
sS'_threePointsAttempted'
p10
S'0'
p11
sS'_fieldGoalsPercentage'
p12
S'.167'
p13
sS'_assist'
p14
S'2'
p15
sS'_threePointsPercentage'
p16
S'1'
p17
sS'_threePoints'
p18
g11
sS'_points'
p19
g3
sS'_position'
p20
S'C'
p21
sS'_freeThrowsPercentage'
p22
g17
sS'_effectiveFieldGoalPercentage'
p23
g15
sS'_league'
p24
S'NBA'
p25
sS'_steals'
p26
g17
sS'_fieldGoalsAttempted'
p27
S'6'
p28
sS'_personalFouls'
p29
S'4'
p30
sS'_freeThrowsAttempted'
p31
S'.333'
p32
sS'_totalRebounds'
p33
g17
sS'_age'
p34
S'21'
p35
sS'_team'
p36
S'NYK'
p37
sS'_games'
p38
S'5'
p39
sS'_blocks'
p40
g15
sS'_twoPoints'
p41
g28
sS'_freeThrows'
p42
g28
sS'_twoPointsAttempted'
p43
S'.167'
p44
sS'_defensiveRebounds'
p45
S'9'
p46
sS'_season'
p47
S'2006-07'
p48
sS'_fieldGoals'
p49
g17
sS'_turnOvers'
p50
g30
sS'_twoPointsPercentage'
p51
S'.167'
p52
sS'_minutesPlayed'
p53
S'44'
p54
sS'_gamesStarted'
p55
g11
sba(isrc.gp1.models.Totals
Totals
p56
(dp57
g8
S'25'
p58
sg10
g11
sg12
S'.362'
p59
sg14
g30
sg16
S'21'
p60
sg18
g11
sg19
g3
sg20
g21
sg22
S'12'
p61
sg23
S'14'
p62
sg24
S'NBA'
p63
sg26
g15
sg27
S'58'
p64
sg29
S'56'
p65
sg31
S'.483'
p66
sg33
g15
sg34
S'22'
p67
sg36
S'NYK'
p68
sg38
S'18'
p69
sg40
g46
sg41
S'58'
p70
sg42
S'29'
p71
sg43
S'.362'
p72
sg45
S'37'
p73
sg47
S'2007-08'
p74
sg49
S'21'
p75
sg50
S'37'
p76
sg51
S'.362'
p77
sg53
S'181'
p78
sg55
g15
sba(isrc.gp1.models.Totals
Totals
p79
(dp80
g8
S'16'
p81
sg10
g11
sg12
S'.412'
p82
sg14
g15
sg16
S'7'
p83
sg18
g11
sg19
g3
sg20
g21
sg22
g30
sg23
g30
sg24
S'NBA'
p84
sg26
g17
sg27
S'17'
p85
sg29
S'18'
p86
sg31
S'1.000'
p87
sg33
g15
sg34
S'23'
p88
sg36
S'ATL'
p89
sg38
S'23'
p90
sg40
g83
sg41
S'17'
p91
sg42
g30
sg43
S'.412'
p92
sg45
S'20'
p93
sg47
S'2008-09'
p94
sg49
g83
sg50
S'25'
p95
sg51
S'.412'
p96
sg53
S'89'
p97
sg55
g11
sba(isrc.gp1.models.Totals
Totals
p98
(dp99
g8
S'28'
p100
sg10
g11
sg12
S'.561'
p101
sg14
g39
sg16
S'23'
p102
sg18
g11
sg19
g3
sg20
S'PF'
p103
sg22
S'10'
p104
sg23
S'16'
p105
sg24
S'NBA'
p106
sg26
S'3'
p107
sg27
S'41'
p108
sg29
S'62'
p109
sg31
S'.593'
p110
sg33
g15
sg34
S'24'
p111
sg36
S'ATL'
p112
sg38
S'28'
p113
sg40
S'12'
p114
sg41
S'41'
p115
sg42
S'27'
p116
sg43
S'.561'
p117
sg45
S'38'
p118
sg47
S'2009-10'
p119
sg49
S'23'
p120
sg50
S'34'
p121
sg51
S'.561'
p122
sg53
S'124'
p123
sg55
g11
sbasS'_college'
p124
S'University of Kentucky'
p125
sS'_toYear'
p126
S'2010'
p127
sS'_height'
p128
S'6-10'
p129
sS'_active'
p130
I00
sS'_shootingHand'
p131
VRight
p132
sS'_name'
p133
S'Randolph Morris'
p134
sS'_per100Possessions'
p135
(lp136
(isrc.gp1.models.Per100Possession
Per100Possession
p137
(dp138
g8
S'9.6'
p139
sg10
S'0.0'
p140
sg12
S'.167'
p141
sS'_offensiveRating'
p142
S'104'
p143
sg14
S'2.4'
p144
sg16
S'1.2'
p145
sg18
S'0.0'
p146
sg19
S'52'
p147
sg20
g21
sS'_defensiveRating'
p148
g3
sg22
S'1.2'
p149
sg24
S'NBA'
p150
sg26
S'1.2'
p151
sg27
S'7.2'
p152
sg29
S'4.8'
p153
sg31
S'.333'
p154
sg33
S'1.2'
p155
sg34
S'21'
p156
sg36
S'NYK'
p157
sg38
g39
sg40
S'2.4'
p158
sg41
S'7.2'
p159
sg42
S'7.2'
p160
sg43
S'.167'
p161
sg45
S'10.8'
p162
sg47
S'2006-07'
p163
sg49
S'1.2'
p164
sg50
S'4.8'
p165
sg51
S'2.4'
p166
sg53
S'44'
p167
sg55
g11
sba(isrc.gp1.models.Per100Possession
Per100Possession
p168
(dp169
g8
S'7.2'
p170
sg10
S'0.0'
p171
sg12
S'.362'
p172
sg142
S'112'
p173
sg14
S'1.2'
p174
sg16
S'6.1'
p175
sg18
S'0.0'
p176
sg19
S'83'
p177
sg20
g21
sg148
g3
sg22
S'3.5'
p178
sg24
S'NBA'
p179
sg26
S'0.6'
p180
sg27
S'16.8'
p181
sg29
S'16.2'
p182
sg31
S'.483'
p183
sg33
S'0.6'
p184
sg34
S'22'
p185
sg36
S'NYK'
p186
sg38
S'18'
p187
sg40
S'2.6'
p188
sg41
S'16.8'
p189
sg42
S'8.4'
p190
sg43
S'.362'
p191
sg45
S'10.7'
p192
sg47
S'2007-08'
p193
sg49
S'6.1'
p194
sg50
S'10.7'
p195
sg51
S'4.1'
p196
sg53
S'181'
p197
sg55
g15
sba(isrc.gp1.models.Per100Possession
Per100Possession
p198
(dp199
g8
S'9.6'
p200
sg10
S'0.0'
p201
sg12
S'.412'
p202
sg142
S'106'
p203
sg14
S'1.2'
p204
sg16
S'4.2'
p205
sg18
S'0.0'
p206
sg19
S'81'
p207
sg20
g21
sg148
g3
sg22
S'2.4'
p208
sg24
S'NBA'
p209
sg26
S'0.6'
p210
sg27
S'10.2'
p211
sg29
S'10.8'
p212
sg31
S'1.000'
p213
sg33
S'1.2'
p214
sg34
S'23'
p215
sg36
S'ATL'
p216
sg38
S'23'
p217
sg40
S'4.2'
p218
sg41
S'10.2'
p219
sg42
S'2.4'
p220
sg43
S'.412'
p221
sg45
S'12.0'
p222
sg47
S'2008-09'
p223
sg49
S'4.2'
p224
sg50
S'15.0'
p225
sg51
S'2.4'
p226
sg53
S'89'
p227
sg55
g11
sba(isrc.gp1.models.Per100Possession
Per100Possession
p228
(dp229
g8
S'12.0'
p230
sg10
S'0.0'
p231
sg12
S'.561'
p232
sg142
S'101'
p233
sg14
S'2.1'
p234
sg16
S'9.9'
p235
sg18
S'0.0'
p236
sg19
S'102'
p237
sg20
S'PF'
p238
sg148
g3
sg22
S'4.3'
p239
sg24
S'NBA'
p240
sg26
S'1.3'
p241
sg27
S'17.6'
p242
sg29
S'26.6'
p243
sg31
S'.593'
p244
sg33
S'0.9'
p245
sg34
S'24'
p246
sg36
S'ATL'
p247
sg38
S'28'
p248
sg40
S'5.2'
p249
sg41
S'17.6'
p250
sg42
S'11.6'
p251
sg43
S'.561'
p252
sg45
S'16.3'
p253
sg47
S'2009-10'
p254
sg49
S'9.9'
p255
sg50
S'14.6'
p256
sg51
S'6.9'
p257
sg53
S'124'
p258
sg55
g11
sbasS'_advanced'
p259
(lp260
(isrc.gp1.models.Advanced
Advanced
p261
(dp262
S'_offensiveReboundPercentage'
p263
S'2.7'
p264
sS'_turnOverPercentage'
p265
S'18.8'
p266
sS'_winSharesPer48Minutes'
p267
S'-0.083'
p268
sS'_stealPercentage'
p269
S'2.4'
p270
sS'_usagePercentage'
p271
S'11.0'
p272
sS'_totalReboundsPercentage'
p273
S'12.2'
p274
sS'_defensiveBoxPlusMinus'
p275
S'1.6'
p276
sg20
g21
sS'_valueOverReplacementPlayer'
p277
S'-0.1'
p278
sS'_trueShootingPercentage'
p279
S'.231'
p280
sS'_defensiveReboundPercentage'
p281
S'21.4'
p282
sS'_freeThrowsAttempRate'
p283
S'1.000'
p284
sS'_threePointsAttempRate'
p285
S'.000'
p286
sg24
S'NBA'
p287
sS'_offensiveBoxPlusMinues'
p288
S'-9.6'
p289
sS'_assistPercentage'
p290
S'3.2'
p291
sS'_defensiveWinShares'
p292
S'0.1'
p293
sg34
S'21'
p294
sg36
S'NYK'
p295
sg38
g39
sS'_blockPercentage'
p296
S'1.8'
p297
sS'_playerEfficiencyRating'
p298
S'1.5'
p299
sS'_offensiveWinShares'
p300
S'-0.1'
p301
sg53
S'44'
p302
sS'_boxPlusMinus'
p303
S'-8.0'
p304
sg47
S'2006-07'
p305
sS'_winShares'
p306
S'-0.1'
p307
sba(isrc.gp1.models.Advanced
Advanced
p308
(dp309
g263
S'7.3'
p310
sg265
S'11.3'
p311
sg267
S'-0.061'
p312
sg269
S'1.2'
p313
sg271
S'19.8'
p314
sg273
S'11.6'
p315
sg275
S'-3.1'
p316
sg20
g21
sg277
S'-0.4'
p317
sg279
S'.396'
p318
sg281
S'16.2'
p319
sg283
S'.500'
p320
sg285
S'.000'
p321
sg24
S'NBA'
p322
sg288
S'-7.7'
p323
sg290
S'1.8'
p324
sg292
S'0.1'
p325
sg34
S'22'
p326
sg36
S'NYK'
p327
sg38
S'18'
p328
sg296
S'0.9'
p329
sg298
S'4.3'
p330
sg300
S'-0.3'
p331
sg53
S'181'
p332
sg303
S'-10.8'
p333
sg47
S'2007-08'
p334
sg306
S'-0.2'
p335
sba(isrc.gp1.models.Advanced
Advanced
p336
(dp337
g263
S'5.3'
p338
sg265
S'27.2'
p339
sg267
S'-0.013'
p340
sg269
S'1.2'
p341
sg271
S'13.6'
p342
sg273
S'13.2'
p343
sg275
S'-0.5'
p344
sg20
g21
sg277
S'-0.1'
p345
sg279
S'.480'
p346
sg281
S'21.0'
p347
sg283
S'.235'
p348
sg285
S'.000'
p349
sg24
S'NBA'
p350
sg288
S'-8.0'
p351
sg290
S'3.3'
p352
sg292
S'0.1'
p353
sg34
S'23'
p354
sg36
S'ATL'
p355
sg38
S'23'
p356
sg296
S'0.9'
p357
sg298
S'1.8'
p358
sg300
S'-0.1'
p359
sg53
S'89'
p360
sg303
S'-8.5'
p361
sg47
S'2008-09'
p362
sg306
S'0.0'
p363
sba(isrc.gp1.models.Advanced
Advanced
p364
(dp365
g263
S'9.3'
p366
sg265
S'18.5'
p367
sg267
S'.108'
p368
sg269
S'2.1'
p369
sg271
S'24.1'
p370
sg273
S'17.9'
p371
sg275
S'-2.1'
p372
sg20
S'PF'
p373
sg277
S'-0.1'
p374
sg279
S'.586'
p375
sg281
S'26.6'
p376
sg283
S'.659'
p377
sg285
S'.000'
p378
sg24
S'NBA'
p379
sg288
S'-4.5'
p380
sg290
S'2.6'
p381
sg292
S'0.2'
p382
sg34
S'24'
p383
sg36
S'ATL'
p384
sg38
S'28'
p385
sg296
S'1.8'
p386
sg298
S'14.6'
p387
sg300
S'0.1'
p388
sg53
S'124'
p389
sg303
S'-6.6'
p390
sg47
S'2009-10'
p391
sg306
S'0.3'
p392
sbasS'_per36Minutes'
p393
(lp394
(isrc.gp1.models.Per36Minutes
Per36Minutes
p395
(dp396
g8
S'6.5'
p397
sg10
S'0.0'
p398
sg12
S'.167'
p399
sg14
S'1.6'
p400
sg16
S'0.8'
p401
sg18
S'0.0'
p402
sg19
g3
sg20
g21
sg22
S'0.8'
p403
sg24
S'NBA'
p404
sg26
S'0.8'
p405
sg27
S'4.9'
p406
sg29
S'3.3'
p407
sg31
S'.333'
p408
sg33
S'0.8'
p409
sg34
S'21'
p410
sg36
S'NYK'
p411
sg38
g39
sg40
S'1.6'
p412
sg41
S'4.9'
p413
sg42
S'4.9'
p414
sg43
S'.167'
p415
sg45
S'7.4'
p416
sg47
S'2006-07'
p417
sg49
S'0.8'
p418
sg50
S'3.3'
p419
sg51
S'1.6'
p420
sg53
S'44'
p421
sg55
g11
sba(isrc.gp1.models.Per36Minutes
Per36Minutes
p422
(dp423
g8
S'5.0'
p424
sg10
S'0.0'
p425
sg12
S'.362'
p426
sg14
S'0.8'
p427
sg16
S'4.2'
p428
sg18
S'0.0'
p429
sg19
g3
sg20
g21
sg22
S'2.4'
p430
sg24
S'NBA'
p431
sg26
S'0.4'
p432
sg27
S'11.5'
p433
sg29
S'11.1'
p434
sg31
S'.483'
p435
sg33
S'0.4'
p436
sg34
S'22'
p437
sg36
S'NYK'
p438
sg38
S'18'
p439
sg40
S'1.8'
p440
sg41
S'11.5'
p441
sg42
S'5.8'
p442
sg43
S'.362'
p443
sg45
S'7.4'
p444
sg47
S'2007-08'
p445
sg49
S'4.2'
p446
sg50
S'7.4'
p447
sg51
S'2.8'
p448
sg53
S'181'
p449
sg55
g15
sba(isrc.gp1.models.Per36Minutes
Per36Minutes
p450
(dp451
g8
S'6.5'
p452
sg10
S'0.0'
p453
sg12
S'.412'
p454
sg14
S'0.8'
p455
sg16
S'2.8'
p456
sg18
S'0.0'
p457
sg19
g3
sg20
g21
sg22
S'1.6'
p458
sg24
S'NBA'
p459
sg26
S'0.4'
p460
sg27
S'6.9'
p461
sg29
S'7.3'
p462
sg31
S'1.000'
p463
sg33
S'0.8'
p464
sg34
S'23'
p465
sg36
S'ATL'
p466
sg38
S'23'
p467
sg40
S'2.8'
p468
sg41
S'6.9'
p469
sg42
S'1.6'
p470
sg43
S'.412'
p471
sg45
S'8.1'
p472
sg47
S'2008-09'
p473
sg49
S'2.8'
p474
sg50
S'10.1'
p475
sg51
S'1.6'
p476
sg53
S'89'
p477
sg55
g11
sba(isrc.gp1.models.Per36Minutes
Per36Minutes
p478
(dp479
g8
S'8.1'
p480
sg10
S'0.0'
p481
sg12
S'.561'
p482
sg14
S'1.5'
p483
sg16
S'6.7'
p484
sg18
S'0.0'
p485
sg19
g3
sg20
S'PF'
p486
sg22
S'2.9'
p487
sg24
S'NBA'
p488
sg26
S'0.9'
p489
sg27
S'11.9'
p490
sg29
S'18.0'
p491
sg31
S'.593'
p492
sg33
S'0.6'
p493
sg34
S'24'
p494
sg36
S'ATL'
p495
sg38
S'28'
p496
sg40
S'3.5'
p497
sg41
S'11.9'
p498
sg42
S'7.8'
p499
sg43
S'.561'
p500
sg45
S'11.0'
p501
sg47
S'2009-10'
p502
sg49
S'6.7'
p503
sg50
S'9.9'
p504
sg51
S'4.6'
p505
sg53
S'124'
p506
sg55
g11
sbasS'_fromYear'
p507
S'2007'
p508
sS'_url'
p509
S'http://www.basketball-reference.com/players/m/morrira01.html'
p510
sS'_perGame'
p511
(isrc.gp1.models.PerGame
PerGame
p512
(dp513
g8
S'1.0'
p514
sg10
S'0.0'
p515
sg12
S'.561'
p516
sS'_effectiveFieldGalPercentage'
p517
S'0.6'
p518
sg14
S'0.2'
p519
sg16
S'0.8'
p520
sg18
S'0.0'
p521
sg19
g3
sg20
S'PF'
p522
sg22
S'0.4'
p523
sg24
S'NBA'
p524
sg26
S'0.1'
p525
sg29
S'2.2'
p526
sS'_fieldGoalsttempted'
p527
S'1.5'
p528
sg31
S'.593'
p529
sg33
S'0.1'
p530
sg34
S'24'
p531
sg36
S'ATL'
p532
sg38
S'28'
p533
sg40
S'0.4'
p534
sg41
S'1.5'
p535
sg42
S'1.0'
p536
sg43
S'.561'
p537
sg45
S'1.4'
p538
sg47
S'2009-10'
p539
sg49
S'0.8'
p540
sg50
S'1.2'
p541
sg51
S'.561'
p542
sg53
S'4.4'
p543
sg55
g11
sbsS'_weight'
p544
S'266'
p545
sS'_dob'
p546
S'2-1-1986'
p547
sS'_salary'
p548
(lp549
(isrc.gp1.models.Salary
Salary
p550
(dp551
g36
S'New York Knicks'
p552
sg24
S'NBA'
p553
sg548
S'$810,000'
p554
sg47
S'2007-08'
p555
sba(isrc.gp1.models.Salary
Salary
p556
(dp557
g36
S'Atlanta Hawks'
p558
sg24
S'NBA'
p559
sg548
S'$797,581'
p560
sg47
S'2008-09'
p561
sba(isrc.gp1.models.Salary
Salary
p562
(dp563
g36
S'Atlanta Hawks'
p564
sg24
S'NBA'
p565
sg548
S'$855,189'
p566
sg47
S'2009-10'
p567
sbasg20
g21
sb.