(isrc.gp1.models.Player
Player
p0
(dp1
S'_experience'
p2
S'NA'
p3
sS'_totals'
p4
(lp5
(isrc.gp1.models.Totals
Totals
p6
(dp7
S'_offensiveRebounds'
p8
S'1'
p9
sS'_threePointsAttempted'
p10
S'0'
p11
sS'_fieldGoalsPercentage'
p12
S'.667'
p13
sS'_assist'
p14
g11
sS'_threePointsPercentage'
p15
S'2'
p16
sS'_threePoints'
p17
g11
sS'_points'
p18
g3
sS'_position'
p19
S'C'
p20
sS'_freeThrowsPercentage'
p21
g11
sS'_effectiveFieldGoalPercentage'
p22
g9
sS'_league'
p23
S'NBA'
p24
sS'_steals'
p25
g11
sS'_fieldGoalsAttempted'
p26
S'3'
p27
sS'_personalFouls'
p28
S'5'
p29
sS'_freeThrowsAttempted'
p30
S'1.000'
p31
sS'_totalRebounds'
p32
g11
sS'_age'
p33
S'22'
p34
sS'_team'
p35
S'DET'
p36
sS'_games'
p37
g9
sS'_blocks'
p38
g9
sS'_twoPoints'
p39
g27
sS'_freeThrows'
p40
g9
sS'_twoPointsAttempted'
p41
S'.667'
p42
sS'_defensiveRebounds'
p43
g9
sS'_season'
p44
S'2001-02'
p45
sS'_fieldGoals'
p46
g16
sS'_turnOvers'
p47
g27
sS'_twoPointsPercentage'
p48
S'.667'
p49
sS'_minutesPlayed'
p50
S'6'
p51
sS'_gamesStarted'
p52
g11
sbasS'_college'
p53
S'NA'
p54
sS'_toYear'
p55
S'2002'
p56
sS'_height'
p57
S'7-1'
p58
sS'_active'
p59
I00
sS'_shootingHand'
p60
VRight
p61
sS'_name'
p62
S'Ratko Varda'
p63
sS'_per100Possessions'
p64
(lp65
(isrc.gp1.models.Per100Possession
Per100Possession
p66
(dp67
g8
S'8.9'
p68
sg10
S'0.0'
p69
sg12
S'.667'
p70
sS'_offensiveRating'
p71
S'105'
p72
sg14
S'0.0'
p73
sg15
S'17.8'
p74
sg17
S'0.0'
p75
sg18
S'102'
p76
sg19
g20
sS'_defensiveRating'
p77
g3
sg21
S'0.0'
p78
sg23
S'NBA'
p79
sg25
S'0.0'
p80
sg26
S'26.7'
p81
sg28
S'44.4'
p82
sg30
S'1.000'
p83
sg32
S'0.0'
p84
sg33
S'22'
p85
sg35
S'DET'
p86
sg37
g9
sg38
S'8.9'
p87
sg39
S'26.7'
p88
sg40
S'8.9'
p89
sg41
S'.667'
p90
sg43
S'8.9'
p91
sg44
S'2001-02'
p92
sg46
S'17.8'
p93
sg47
S'26.7'
p94
sg48
S'8.9'
p95
sg50
g51
sg52
g11
sbasS'_advanced'
p96
(lp97
(isrc.gp1.models.Advanced
Advanced
p98
(dp99
S'_offensiveReboundPercentage'
p100
S'0.0'
p101
sS'_turnOverPercentage'
p102
S'22.5'
p103
sS'_winSharesPer48Minutes'
p104
S'.098'
p105
sS'_stealPercentage'
p106
S'0.0'
p107
sS'_usagePercentage'
p108
S'34.9'
p109
sS'_totalReboundsPercentage'
p110
S'9.8'
p111
sS'_defensiveBoxPlusMinus'
p112
S'-9.1'
p113
sg19
g20
sS'_valueOverReplacementPlayer'
p114
S'0.0'
p115
sS'_trueShootingPercentage'
p116
S'.727'
p117
sS'_defensiveReboundPercentage'
p118
S'19.5'
p119
sS'_freeThrowsAttempRate'
p120
S'.333'
p121
sS'_threePointsAttempRate'
p122
S'.000'
p123
sg23
S'NBA'
p124
sS'_offensiveBoxPlusMinues'
p125
S'-5.2'
p126
sS'_assistPercentage'
p127
S'0.0'
p128
sS'_defensiveWinShares'
p129
S'0.0'
p130
sg33
S'22'
p131
sg35
S'DET'
p132
sg37
g9
sS'_blockPercentage'
p133
S'0.0'
p134
sS'_playerEfficiencyRating'
p135
S'15.0'
p136
sS'_offensiveWinShares'
p137
S'0.0'
p138
sg50
g51
sS'_boxPlusMinus'
p139
S'-14.3'
p140
sg44
S'2001-02'
p141
sS'_winShares'
p142
S'0.0'
p143
sbasS'_per36Minutes'
p144
(lp145
(isrc.gp1.models.Per36Minutes
Per36Minutes
p146
(dp147
g8
S'6.0'
p148
sg10
S'0.0'
p149
sg12
S'.667'
p150
sg14
S'0.0'
p151
sg15
S'12.0'
p152
sg17
S'0.0'
p153
sg18
g3
sg19
g20
sg21
S'0.0'
p154
sg23
S'NBA'
p155
sg25
S'0.0'
p156
sg26
S'18.0'
p157
sg28
S'30.0'
p158
sg30
S'1.000'
p159
sg32
S'0.0'
p160
sg33
S'22'
p161
sg35
S'DET'
p162
sg37
g9
sg38
S'6.0'
p163
sg39
S'18.0'
p164
sg40
S'6.0'
p165
sg41
S'.667'
p166
sg43
S'6.0'
p167
sg44
S'2001-02'
p168
sg46
S'12.0'
p169
sg47
S'18.0'
p170
sg48
S'6.0'
p171
sg50
g51
sg52
g11
sbasS'_fromYear'
p172
S'2002'
p173
sS'_url'
p174
S'http://www.basketball-reference.com/players/v/vardara01.html'
p175
sS'_perGame'
p176
(isrc.gp1.models.PerGame
PerGame
p177
(dp178
g8
S'1.0'
p179
sg10
S'0.0'
p180
sg12
S'.667'
p181
sS'_effectiveFieldGalPercentage'
p182
S'1.0'
p183
sg14
S'0.0'
p184
sg15
S'2.0'
p185
sg17
S'0.0'
p186
sg18
g3
sg19
g20
sg21
S'0.0'
p187
sg23
S'NBA'
p188
sg25
S'0.0'
p189
sg28
S'5.0'
p190
sS'_fieldGoalsttempted'
p191
S'3.0'
p192
sg30
S'1.000'
p193
sg32
S'0.0'
p194
sg33
S'22'
p195
sg35
S'DET'
p196
sg37
g9
sg38
S'1.0'
p197
sg39
S'3.0'
p198
sg40
S'1.0'
p199
sg41
S'.667'
p200
sg43
S'1.0'
p201
sg44
S'2001-02'
p202
sg46
S'2.0'
p203
sg47
S'3.0'
p204
sg48
S'.667'
p205
sg50
S'6.0'
p206
sg52
g11
sbsS'_weight'
p207
S'260'
p208
sS'_dob'
p209
S'6-5-1979'
p210
sS'_salary'
p211
(lp212
(isrc.gp1.models.Salary
Salary
p213
(dp214
g35
S'Detroit Pistons'
p215
sg23
S'NBA'
p216
sg211
S'$332,817'
p217
sg44
S'2001-02'
p218
sba(isrc.gp1.models.Salary
Salary
p219
(dp220
g35
S'Washington Wizards'
p221
sg23
S'NBA'
p222
sg211
S'$124,984'
p223
sg44
S'2002-03'
p224
sbasg19
g20
sb.