(isrc.gp1.models.Player
Player
p0
(dp1
S'_experience'
p2
S'NA'
p3
sS'_totals'
p4
(lp5
(isrc.gp1.models.Totals
Totals
p6
(dp7
S'_offensiveRebounds'
p8
S'8'
p9
sS'_threePointsAttempted'
p10
S'3'
p11
sS'_fieldGoalsPercentage'
p12
S'.400'
p13
sS'_assist'
p14
S'10'
p15
sS'_threePointsPercentage'
p16
S'.333'
p17
sS'_threePoints'
p18
S'1'
p19
sS'_points'
p20
S'71'
p21
sS'_position'
p22
S'SF'
p23
sS'_freeThrowsPercentage'
p24
S'.759'
p25
sS'_effectiveFieldGoalPercentage'
p26
S'.408'
p27
sS'_league'
p28
S'NBA'
p29
sS'_steals'
p30
g9
sS'_fieldGoalsAttempted'
p31
S'60'
p32
sS'_personalFouls'
p33
S'17'
p34
sS'_freeThrowsAttempted'
p35
S'29'
p36
sS'_totalRebounds'
p37
S'31'
p38
sS'_age'
p39
S'23'
p40
sS'_team'
p41
S'DAL'
p42
sS'_games'
p43
S'23'
p44
sS'_blocks'
p45
S'7'
p46
sS'_twoPoints'
p47
S'23'
p48
sS'_freeThrows'
p49
S'22'
p50
sS'_twoPointsAttempted'
p51
S'57'
p52
sS'_defensiveRebounds'
p53
S'23'
p54
sS'_season'
p55
S'2005-06'
p56
sS'_fieldGoals'
p57
S'24'
p58
sS'_turnOvers'
p59
S'15'
p60
sS'_twoPointsPercentage'
p61
S'.404'
p62
sS'_minutesPlayed'
p63
S'241'
p64
sS'_gamesStarted'
p65
S'9'
p66
sba(isrc.gp1.models.Totals
Totals
p67
(dp68
g8
g9
sg10
S'18'
p69
sg12
S'.360'
p70
sg14
S'13'
p71
sg16
S'.222'
p72
sg18
S'4'
p73
sg20
S'99'
p74
sg22
S'SG'
p75
sg24
S'.689'
p76
sg26
S'.382'
p77
sg28
S'NBA'
p78
sg30
S'12'
p79
sg31
S'89'
p80
sg33
S'22'
p81
sg35
S'45'
p82
sg37
S'29'
p83
sg39
S'24'
p84
sg41
S'IND'
p85
sg43
S'40'
p86
sg45
S'5'
p87
sg47
S'28'
p88
sg49
S'31'
p89
sg51
S'71'
p90
sg53
S'21'
p91
sg55
S'2006-07'
p92
sg57
S'32'
p93
sg59
S'19'
p94
sg61
S'.394'
p95
sg63
S'361'
p96
sg65
S'2'
p97
sbasS'_college'
p98
S'Oakland University'
p99
sS'_toYear'
p100
S'2007'
p101
sS'_height'
p102
S'6-9'
p103
sS'_active'
p104
I00
sS'_shootingHand'
p105
VRight
p106
sS'_name'
p107
S'Rawle Marshall'
p108
sS'_per100Possessions'
p109
(lp110
(isrc.gp1.models.Per100Possession
Per100Possession
p111
(dp112
g8
S'1.8'
p113
sg10
S'0.7'
p114
sg12
S'.400'
p115
sS'_offensiveRating'
p116
S'95'
p117
sg14
S'2.3'
p118
sg16
S'.333'
p119
sg18
S'0.2'
p120
sg20
S'16.1'
p121
sg22
S'SF'
p122
sS'_defensiveRating'
p123
S'105'
p124
sg24
S'.759'
p125
sg28
S'NBA'
p126
sg30
S'1.8'
p127
sg31
S'13.6'
p128
sg33
S'3.9'
p129
sg35
S'6.6'
p130
sg37
S'7.0'
p131
sg39
S'23'
p132
sg41
S'DAL'
p133
sg43
S'23'
p134
sg45
S'1.6'
p135
sg47
S'5.2'
p136
sg49
S'5.0'
p137
sg51
S'12.9'
p138
sg53
S'5.2'
p139
sg55
S'2005-06'
p140
sg57
S'5.4'
p141
sg59
S'3.4'
p142
sg61
S'.404'
p143
sg63
S'241'
p144
sg65
g66
sba(isrc.gp1.models.Per100Possession
Per100Possession
p145
(dp146
g8
S'1.2'
p147
sg10
S'2.6'
p148
sg12
S'.360'
p149
sg116
S'89'
p150
sg14
S'1.9'
p151
sg16
S'.222'
p152
sg18
S'0.6'
p153
sg20
S'14.2'
p154
sg22
S'SG'
p155
sg123
S'108'
p156
sg24
S'.689'
p157
sg28
S'NBA'
p158
sg30
S'1.7'
p159
sg31
S'12.8'
p160
sg33
S'3.2'
p161
sg35
S'6.5'
p162
sg37
S'4.2'
p163
sg39
S'24'
p164
sg41
S'IND'
p165
sg43
S'40'
p166
sg45
S'0.7'
p167
sg47
S'4.0'
p168
sg49
S'4.5'
p169
sg51
S'10.2'
p170
sg53
S'3.0'
p171
sg55
S'2006-07'
p172
sg57
S'4.6'
p173
sg59
S'2.7'
p174
sg61
S'.394'
p175
sg63
S'361'
p176
sg65
g97
sbasS'_advanced'
p177
(lp178
(isrc.gp1.models.Advanced
Advanced
p179
(dp180
S'_offensiveReboundPercentage'
p181
S'4.1'
p182
sS'_turnOverPercentage'
p183
S'17.1'
p184
sS'_winSharesPer48Minutes'
p185
S'.043'
p186
sS'_stealPercentage'
p187
S'1.8'
p188
sS'_usagePercentage'
p189
S'17.0'
p190
sS'_totalReboundsPercentage'
p191
S'7.7'
p192
sS'_defensiveBoxPlusMinus'
p193
S'0.2'
p194
sg22
S'SF'
p195
sS'_valueOverReplacementPlayer'
p196
S'-0.1'
p197
sS'_trueShootingPercentage'
p198
S'.488'
p199
sS'_defensiveReboundPercentage'
p200
S'11.3'
p201
sS'_freeThrowsAttempRate'
p202
S'.483'
p203
sS'_threePointsAttempRate'
p204
S'.050'
p205
sg28
S'NBA'
p206
sS'_offensiveBoxPlusMinues'
p207
S'-3.7'
p208
sS'_assistPercentage'
p209
S'6.5'
p210
sS'_defensiveWinShares'
p211
S'0.3'
p212
sg39
S'23'
p213
sg41
S'DAL'
p214
sg43
S'23'
p215
sS'_blockPercentage'
p216
S'2.2'
p217
sS'_playerEfficiencyRating'
p218
S'10.1'
p219
sS'_offensiveWinShares'
p220
S'-0.1'
p221
sg63
S'241'
p222
sS'_boxPlusMinus'
p223
S'-3.5'
p224
sg55
S'2005-06'
p225
sS'_winShares'
p226
S'0.2'
p227
sba(isrc.gp1.models.Advanced
Advanced
p228
(dp229
g181
S'2.5'
p230
sg183
S'14.9'
p231
sg185
S'.001'
p232
sg187
S'1.7'
p233
sg189
S'15.9'
p234
sg191
S'4.6'
p235
sg193
S'-0.9'
p236
sg22
S'SG'
p237
sg196
S'-0.4'
p238
sg198
S'.455'
p239
sg200
S'6.9'
p240
sg202
S'.506'
p241
sg204
S'.202'
p242
sg28
S'NBA'
p243
sg207
S'-5.1'
p244
sg209
S'5.7'
p245
sg211
S'0.3'
p246
sg39
S'24'
p247
sg41
S'IND'
p248
sg43
S'40'
p249
sg216
S'1.0'
p250
sg218
S'6.7'
p251
sg220
S'-0.3'
p252
sg63
S'361'
p253
sg223
S'-6.0'
p254
sg55
S'2006-07'
p255
sg226
S'0.0'
p256
sbasS'_per36Minutes'
p257
(lp258
(isrc.gp1.models.Per36Minutes
Per36Minutes
p259
(dp260
g8
S'1.2'
p261
sg10
S'0.4'
p262
sg12
S'.400'
p263
sg14
S'1.5'
p264
sg16
S'.333'
p265
sg18
S'0.1'
p266
sg20
S'10.6'
p267
sg22
S'SF'
p268
sg24
S'.759'
p269
sg28
S'NBA'
p270
sg30
S'1.2'
p271
sg31
S'9.0'
p272
sg33
S'2.5'
p273
sg35
S'4.3'
p274
sg37
S'4.6'
p275
sg39
S'23'
p276
sg41
S'DAL'
p277
sg43
S'23'
p278
sg45
S'1.0'
p279
sg47
S'3.4'
p280
sg49
S'3.3'
p281
sg51
S'8.5'
p282
sg53
S'3.4'
p283
sg55
S'2005-06'
p284
sg57
S'3.6'
p285
sg59
S'2.2'
p286
sg61
S'.404'
p287
sg63
S'241'
p288
sg65
g66
sba(isrc.gp1.models.Per36Minutes
Per36Minutes
p289
(dp290
g8
S'0.8'
p291
sg10
S'1.8'
p292
sg12
S'.360'
p293
sg14
S'1.3'
p294
sg16
S'.222'
p295
sg18
S'0.4'
p296
sg20
S'9.9'
p297
sg22
S'SG'
p298
sg24
S'.689'
p299
sg28
S'NBA'
p300
sg30
S'1.2'
p301
sg31
S'8.9'
p302
sg33
S'2.2'
p303
sg35
S'4.5'
p304
sg37
S'2.9'
p305
sg39
S'24'
p306
sg41
S'IND'
p307
sg43
S'40'
p308
sg45
S'0.5'
p309
sg47
S'2.8'
p310
sg49
S'3.1'
p311
sg51
S'7.1'
p312
sg53
S'2.1'
p313
sg55
S'2006-07'
p314
sg57
S'3.2'
p315
sg59
S'1.9'
p316
sg61
S'.394'
p317
sg63
S'361'
p318
sg65
g97
sbasS'_fromYear'
p319
S'2006'
p320
sS'_url'
p321
S'http://www.basketball-reference.com/players/m/marshra01.html'
p322
sS'_perGame'
p323
(isrc.gp1.models.PerGame
PerGame
p324
(dp325
g8
S'0.2'
p326
sg10
S'0.5'
p327
sg12
S'.360'
p328
sS'_effectiveFieldGalPercentage'
p329
S'.382'
p330
sg14
S'0.3'
p331
sg16
S'.222'
p332
sg18
S'0.1'
p333
sg20
S'2.5'
p334
sg22
S'SG'
p335
sg24
S'.689'
p336
sg28
S'NBA'
p337
sg30
S'0.3'
p338
sg33
S'0.6'
p339
sS'_fieldGoalsttempted'
p340
S'2.2'
p341
sg35
S'1.1'
p342
sg37
S'0.7'
p343
sg39
S'24'
p344
sg41
S'IND'
p345
sg43
S'40'
p346
sg45
S'0.1'
p347
sg47
S'0.7'
p348
sg49
S'0.8'
p349
sg51
S'1.8'
p350
sg53
S'0.5'
p351
sg55
S'2006-07'
p352
sg57
S'0.8'
p353
sg59
S'0.5'
p354
sg61
S'.394'
p355
sg63
S'9.0'
p356
sg65
g97
sbsS'_weight'
p357
S'190'
p358
sS'_dob'
p359
S'20-2-1982'
p360
sS'_salary'
p361
(lp362
(isrc.gp1.models.Salary
Salary
p363
(dp364
g41
S'Dallas Mavericks'
p365
sg28
S'NBA'
p366
sg361
S'$398,762'
p367
sg55
S'2005-06'
p368
sba(isrc.gp1.models.Salary
Salary
p369
(dp370
g41
S'Indiana Pacers'
p371
sg28
S'NBA'
p372
sg361
S'$664,209'
p373
sg55
S'2006-07'
p374
sbasg22
S'G-F'
p375
sb.