(isrc.gp1.models.Player
Player
p0
(dp1
S'_experience'
p2
S'NA'
p3
sS'_totals'
p4
(lp5
(isrc.gp1.models.Totals
Totals
p6
(dp7
S'_offensiveRebounds'
p8
g3
sS'_threePointsAttempted'
p9
S'56'
p10
sS'_fieldGoalsPercentage'
p11
S'.216'
p12
sS'_assist'
p13
g3
sS'_threePointsPercentage'
p14
S'91'
p15
sS'_threePoints'
p16
S'.216'
p17
sS'_points'
p18
g3
sS'_position'
p19
S'61'
p20
sS'_freeThrowsPercentage'
p21
g3
sS'_effectiveFieldGoalPercentage'
p22
S'214'
p23
sS'_league'
p24
S'BAA'
p25
sS'_steals'
p26
g3
sS'_fieldGoalsAttempted'
p27
S'366'
p28
sS'_personalFouls'
p29
g3
sS'_freeThrowsAttempted'
p30
g3
sS'_totalRebounds'
p31
g3
sS'_age'
p32
S'25'
p33
sS'_team'
p34
S'TOT'
p35
sS'_games'
p36
S'79'
p37
sS'_blocks'
p38
g3
sS'_twoPoints'
p39
S'.615'
p40
sS'_freeThrows'
p41
g3
sS'_twoPointsAttempted'
p42
S'39'
p43
sS'_defensiveRebounds'
p44
g3
sS'_season'
p45
S'1946-47'
p46
sS'_fieldGoals'
p47
S'79'
p48
sS'_turnOvers'
p49
g3
sS'_twoPointsPercentage'
p50
S'82'
p51
sS'_minutesPlayed'
p52
S'.216'
p53
sS'_gamesStarted'
p54
S'366'
p55
sba(isrc.gp1.models.Totals
Totals
p56
(dp57
g8
g3
sg9
S'23'
p58
sg11
S'.222'
p59
sg13
g3
sg14
S'37'
p60
sg16
S'.222'
p61
sg18
g3
sg19
S'18'
p62
sg21
g3
sg22
S'99'
p63
sg24
S'BAA'
p64
sg26
g3
sg27
S'171'
p65
sg29
g3
sg30
g3
sg31
g3
sg32
S'25'
p66
sg34
S'TRH'
p67
sg36
S'38'
p68
sg38
g3
sg39
S'.622'
p69
sg41
g3
sg42
S'18'
p70
sg44
g3
sg45
S'1946-47'
p71
sg47
S'38'
p72
sg49
g3
sg50
S'29'
p73
sg52
S'.222'
p74
sg54
S'171'
p75
sba(isrc.gp1.models.Totals
Totals
p76
(dp77
g8
g3
sg9
S'33'
p78
sg11
S'.210'
p79
sg13
g3
sg14
S'54'
p80
sg16
S'.210'
p81
sg18
g3
sg19
S'43'
p82
sg21
g3
sg22
S'115'
p83
sg24
S'BAA'
p84
sg26
g3
sg27
S'195'
p85
sg29
g3
sg30
g3
sg31
g3
sg32
S'25'
p86
sg34
S'CLR'
p87
sg36
S'41'
p88
sg38
g3
sg39
S'.611'
p89
sg41
g3
sg42
S'21'
p90
sg44
g3
sg45
S'1946-47'
p91
sg47
S'41'
p92
sg49
g3
sg50
S'53'
p93
sg52
S'.210'
p94
sg54
S'195'
p95
sba(isrc.gp1.models.Totals
Totals
p96
(dp97
g8
g3
sg9
S'6'
p98
sg11
S'.181'
p99
sg13
g3
sg14
S'14'
p100
sg16
S'.181'
p101
sg18
g3
sg19
S'7'
p102
sg21
g3
sg22
S'32'
p103
sg24
S'BAA'
p104
sg26
g3
sg27
S'72'
p105
sg29
g3
sg30
g3
sg31
g3
sg32
S'26'
p106
sg34
S'PRO'
p107
sg36
S'13'
p108
sg38
g3
sg39
S'.429'
p109
sg41
g3
sg42
g98
sg44
g3
sg45
S'1947-48'
p110
sg47
S'13'
p111
sg49
g3
sg50
S'13'
p112
sg52
S'.181'
p113
sg54
S'72'
p114
sbasS'_college'
p115
S"St. John's University"
p116
sS'_toYear'
p117
S'1948'
p118
sS'_height'
p119
S'5-11'
p120
sS'_active'
p121
I00
sS'_shootingHand'
p122
VRight
p123
sS'_name'
p124
S'Ray Wertis'
p125
sS'_per100Possessions'
p126
(lp127
sS'_advanced'
p128
(lp129
(isrc.gp1.models.Advanced
Advanced
p130
(dp131
S'_offensiveReboundPercentage'
p132
g3
sS'_turnOverPercentage'
p133
g3
sS'_winSharesPer48Minutes'
p134
g3
sS'_stealPercentage'
p135
g3
sS'_usagePercentage'
p136
g3
sS'_totalReboundsPercentage'
p137
g3
sS'_defensiveBoxPlusMinus'
p138
g3
sg19
S'61'
p139
sS'_valueOverReplacementPlayer'
p140
g3
sS'_trueShootingPercentage'
p141
S'0.6'
p142
sS'_defensiveReboundPercentage'
p143
g3
sS'_freeThrowsAttempRate'
p144
g3
sS'_threePointsAttempRate'
p145
S'-0.6'
p146
sg24
S'BAA'
p147
sS'_offensiveBoxPlusMinues'
p148
g3
sS'_assistPercentage'
p149
g3
sS'_defensiveWinShares'
p150
g3
sg32
S'25'
p151
sg34
S'TOT'
p152
sg36
S'.264'
p153
sS'_blockPercentage'
p154
g3
sS'_playerEfficiencyRating'
p155
S'-1.2'
p156
sS'_offensiveWinShares'
p157
g3
sg52
S'.249'
p158
sS'_boxPlusMinus'
p159
g3
sg45
S'1946-47'
p160
sS'_winShares'
p161
g3
sba(isrc.gp1.models.Advanced
Advanced
p162
(dp163
g132
g3
sg133
g3
sg134
g3
sg135
g3
sg136
g3
sg137
g3
sg138
g3
sg19
S'18'
p164
sg140
g3
sg141
S'0.3'
p165
sg143
g3
sg144
g3
sg145
S'-0.3'
p166
sg24
S'BAA'
p167
sg148
g3
sg149
g3
sg150
g3
sg32
S'25'
p168
sg34
S'TRH'
p169
sg36
S'.264'
p170
sg154
g3
sg155
S'-0.6'
p171
sg157
g3
sg52
S'.216'
p172
sg159
g3
sg45
S'1946-47'
p173
sg161
g3
sba(isrc.gp1.models.Advanced
Advanced
p174
(dp175
g132
g3
sg133
g3
sg134
g3
sg135
g3
sg136
g3
sg137
g3
sg138
g3
sg19
S'43'
p176
sg140
g3
sg141
S'0.3'
p177
sg143
g3
sg144
g3
sg145
S'-0.4'
p178
sg24
S'BAA'
p179
sg148
g3
sg149
g3
sg150
g3
sg32
S'25'
p180
sg34
S'CLR'
p181
sg36
S'.263'
p182
sg154
g3
sg155
S'-0.6'
p183
sg157
g3
sg52
S'.277'
p184
sg159
g3
sg45
S'1946-47'
p185
sg161
g3
sba(isrc.gp1.models.Advanced
Advanced
p186
(dp187
g132
g3
sg133
g3
sg134
g3
sg135
g3
sg136
g3
sg137
g3
sg138
g3
sg19
g102
sg140
g3
sg141
S'-0.1'
p188
sg143
g3
sg144
g3
sg145
S'-0.7'
p189
sg24
S'BAA'
p190
sg148
g3
sg149
g3
sg150
g3
sg32
S'26'
p191
sg34
S'PRO'
p192
sg36
S'.205'
p193
sg154
g3
sg155
S'-0.7'
p194
sg157
g3
sg52
S'.194'
p195
sg159
g3
sg45
S'1947-48'
p196
sg161
g3
sbasS'_per36Minutes'
p197
(lp198
(isrc.gp1.models.Per36Minutes
Per36Minutes
p199
(dp200
g8
g3
sg9
g3
sg11
g3
sg13
g3
sg14
g3
sg16
g3
sg18
g3
sg19
S'61'
p201
sg21
g3
sg24
S'BAA'
p202
sg26
g3
sg27
g3
sg29
g3
sg30
g3
sg31
g3
sg32
S'25'
p203
sg34
S'TOT'
p204
sg36
S'.216'
p205
sg38
g3
sg39
g3
sg41
g3
sg42
g3
sg44
g3
sg45
S'1946-47'
p206
sg47
g3
sg49
g3
sg50
g3
sg52
S'.615'
p207
sg54
S'.216'
p208
sba(isrc.gp1.models.Per36Minutes
Per36Minutes
p209
(dp210
g8
g3
sg9
g3
sg11
g3
sg13
g3
sg14
g3
sg16
g3
sg18
g3
sg19
S'18'
p211
sg21
g3
sg24
S'BAA'
p212
sg26
g3
sg27
g3
sg29
g3
sg30
g3
sg31
g3
sg32
S'25'
p213
sg34
S'TRH'
p214
sg36
S'.222'
p215
sg38
g3
sg39
g3
sg41
g3
sg42
g3
sg44
g3
sg45
S'1946-47'
p216
sg47
g3
sg49
g3
sg50
g3
sg52
S'.622'
p217
sg54
S'.222'
p218
sba(isrc.gp1.models.Per36Minutes
Per36Minutes
p219
(dp220
g8
g3
sg9
g3
sg11
g3
sg13
g3
sg14
g3
sg16
g3
sg18
g3
sg19
S'43'
p221
sg21
g3
sg24
S'BAA'
p222
sg26
g3
sg27
g3
sg29
g3
sg30
g3
sg31
g3
sg32
S'25'
p223
sg34
S'CLR'
p224
sg36
S'.210'
p225
sg38
g3
sg39
g3
sg41
g3
sg42
g3
sg44
g3
sg45
S'1946-47'
p226
sg47
g3
sg49
g3
sg50
g3
sg52
S'.611'
p227
sg54
S'.210'
p228
sba(isrc.gp1.models.Per36Minutes
Per36Minutes
p229
(dp230
g8
g3
sg9
g3
sg11
g3
sg13
g3
sg14
g3
sg16
g3
sg18
g3
sg19
g102
sg21
g3
sg24
S'BAA'
p231
sg26
g3
sg27
g3
sg29
g3
sg30
g3
sg31
g3
sg32
S'26'
p232
sg34
S'PRO'
p233
sg36
S'.181'
p234
sg38
g3
sg39
g3
sg41
g3
sg42
g3
sg44
g3
sg45
S'1947-48'
p235
sg47
g3
sg49
g3
sg50
g3
sg52
S'.429'
p236
sg54
S'.181'
p237
sbasS'_fromYear'
p238
S'1947'
p239
sS'_url'
p240
S'http://www.basketball-reference.com/players/w/wertira01.html'
p241
sS'_perGame'
p242
(isrc.gp1.models.PerGame
PerGame
p243
(dp244
g8
g3
sg9
S'0.9'
p245
sg11
S'.181'
p246
sS'_effectiveFieldGalPercentage'
p247
S'4.6'
p248
sg13
g3
sg14
S'2.0'
p249
sg16
S'.181'
p250
sg18
g3
sg19
g102
sg21
g3
sg24
S'BAA'
p251
sg26
g3
sg29
g3
sS'_fieldGoalsttempted'
p252
S'10.3'
p253
sg30
g3
sg31
g3
sg32
S'26'
p254
sg34
S'PRO'
p255
sg36
S'1.9'
p256
sg38
g3
sg39
S'.429'
p257
sg41
g3
sg42
S'0.9'
p258
sg44
g3
sg45
S'1947-48'
p259
sg47
S'1.9'
p260
sg49
g3
sg50
S'1.9'
p261
sg52
S'.181'
p262
sg54
S'10.3'
p263
sbsS'_weight'
p264
S''
p265
sS'_dob'
p266
S'1-1-1922'
p267
sS'_salary'
p268
(lp269
sg19
S'G'
p270
sb.