(isrc.gp1.models.Player
Player
p0
(dp1
S'_experience'
p2
S'NA'
p3
sS'_totals'
p4
(lp5
(isrc.gp1.models.Totals
Totals
p6
(dp7
S'_offensiveRebounds'
p8
g3
sS'_threePointsAttempted'
p9
S'.314'
p10
sS'_fieldGoalsPercentage'
p11
S'740'
p12
sS'_assist'
p13
g3
sS'_threePointsPercentage'
p14
S'147'
p15
sS'_threePoints'
p16
S'.314'
p17
sS'_points'
p18
g3
sS'_position'
p19
S'C'
p20
sS'_freeThrowsPercentage'
p21
g3
sS'_effectiveFieldGoalPercentage'
p22
S'209'
p23
sS'_league'
p24
S'BAA'
p25
sS'_steals'
p26
g3
sS'_fieldGoalsAttempted'
p27
S'232'
p28
sS'_personalFouls'
p29
g3
sS'_freeThrowsAttempted'
p30
g3
sS'_totalRebounds'
p31
g3
sS'_age'
p32
S'24'
p33
sS'_team'
p34
S'STB'
p35
sS'_games'
p36
S'48'
p37
sS'_blocks'
p38
g3
sS'_twoPoints'
p39
S'213'
p40
sS'_freeThrows'
p41
S'611'
p42
sS'_twoPointsAttempted'
p43
S'.690'
p44
sS'_defensiveRebounds'
p45
g3
sS'_season'
p46
S'1947-48'
p47
sS'_fieldGoals'
p48
S'.314'
p49
sS'_turnOvers'
p50
g3
sS'_twoPointsPercentage'
p51
S'39'
p52
sS'_minutesPlayed'
p53
S'740'
p54
sS'_gamesStarted'
p55
S'232'
p56
sba(isrc.gp1.models.Totals
Totals
p57
(dp58
g8
g3
sg9
S'.389'
p59
sg11
S'574'
p60
sg13
g3
sg14
S'162'
p61
sg16
S'.389'
p62
sg18
g3
sg19
g20
sg21
g3
sg22
S'251'
p63
sg24
S'BAA'
p64
sg26
g3
sg27
S'223'
p65
sg29
g3
sg30
g3
sg31
g3
sg32
S'25'
p66
sg34
S'STB'
p67
sg36
S'58'
p68
sg38
g3
sg39
S'211'
p69
sg41
S'608'
p70
sg43
S'.768'
p71
sg45
g3
sg46
S'1948-49'
p72
sg48
S'.389'
p73
sg50
g3
sg51
S'157'
p74
sg53
S'574'
p75
sg55
S'223'
p76
sba(isrc.gp1.models.Totals
Totals
p77
(dp78
g8
g3
sg9
S'.405'
p79
sg11
S'679'
p80
sg13
g3
sg14
S'220'
p81
sg16
S'.405'
p82
sg18
g3
sg19
g20
sg21
g3
sg22
S'257'
p83
sg24
S'NBA'
p84
sg26
g3
sg27
S'275'
p85
sg29
g3
sg30
g3
sg31
g3
sg32
S'26'
p86
sg34
S'STB'
p87
sg36
S'65'
p88
sg38
g3
sg39
S'313'
p89
sg41
S'770'
p90
sg43
S'.703'
p91
sg45
g3
sg46
S'1949-50'
p92
sg48
S'.405'
p93
sg50
g3
sg51
S'155'
p94
sg53
S'679'
p95
sg55
S'275'
p96
sba(isrc.gp1.models.Totals
Totals
p97
(dp98
g8
g3
sg9
S'.352'
p99
sg11
S'843'
p100
sg13
g3
sg14
S'242'
p101
sg16
S'.352'
p102
sg18
g3
sg19
g20
sg21
g3
sg22
S'147'
p103
sg24
S'NBA'
p104
sg26
g3
sg27
S'297'
p105
sg29
g3
sg30
S'836'
p106
sg31
g3
sg32
S'27'
p107
sg34
S'BLB'
p108
sg36
S'64'
p109
sg38
g3
sg39
S'299'
p110
sg41
S'242'
p111
sg43
S'.809'
p112
sg45
g3
sg46
S'1950-51'
p113
sg48
S'.352'
p114
sg50
g3
sg51
S'511'
p115
sg53
S'843'
p116
sg55
S'297'
p117
sba(isrc.gp1.models.Totals
Totals
p118
(dp119
g8
g3
sg9
S'.401'
p120
sg11
S'300'
p121
sg13
g3
sg14
S'.401'
p122
sg16
S'749'
p123
sg18
g3
sg19
g20
sg21
S'854'
p124
sg22
S'549'
p125
sg24
S'NBA'
p126
sg26
g3
sg27
S'.401'
p127
sg29
g3
sg30
S'249'
p128
sg31
g3
sg32
S'28'
p129
sg34
S'SYR'
p130
sg36
S'66'
p131
sg38
g3
sg39
S'254'
p132
sg41
S'128'
p133
sg43
S'330'
p134
sg45
g3
sg46
S'1951-52'
p135
sg48
S'749'
p136
sg50
g3
sg51
S'.770'
p137
sg53
S'300'
p138
sg55
S'2543'
p139
sba(isrc.gp1.models.Totals
Totals
p140
(dp141
g8
g3
sg9
S'.388'
p142
sg11
S'268'
p143
sg13
g3
sg14
S'.388'
p144
sg16
S'690'
p145
sg18
g3
sg19
g20
sg21
S'770'
p146
sg22
S'510'
p147
sg24
S'NBA'
p148
sg26
g3
sg27
S'.388'
p149
sg29
g3
sg30
S'257'
p150
sg31
g3
sg32
S'29'
p151
sg34
S'SYR'
p152
sg36
S'69'
p153
sg38
g3
sg39
S'234'
p154
sg41
S'137'
p155
sg43
S'310'
p156
sg45
g3
sg46
S'1952-53'
p157
sg48
S'690'
p158
sg50
g3
sg51
S'.755'
p159
sg53
S'268'
p160
sg55
S'2454'
p161
sba(isrc.gp1.models.Totals
Totals
p162
(dp163
g8
g3
sg9
g3
sg11
g3
sg13
g3
sg14
g3
sg16
g3
sg18
g3
sg19
g3
sg21
g3
sg22
g3
sg24
g3
sg26
g3
sg27
g3
sg29
g3
sg30
g3
sg31
g3
sg32
S'30'
p164
sg34
S'Did Not Play\xc2\xa0(retired)'
p165
sg36
g3
sg38
g3
sg39
g3
sg41
g3
sg43
g3
sg45
g3
sg46
S'1953-54'
p166
sg48
g3
sg50
g3
sg51
g3
sg53
g3
sg55
g3
sba(isrc.gp1.models.Totals
Totals
p167
(dp168
g8
g3
sg9
S'.368'
p169
sg11
S'295'
p170
sg13
g3
sg14
S'.368'
p171
sg16
S'801'
p172
sg18
g3
sg19
g20
sg21
S'812'
p173
sg22
S'489'
p174
sg24
S'NBA'
p175
sg26
g3
sg27
S'.368'
p176
sg29
g3
sg30
S'242'
p177
sg31
g3
sg32
S'31'
p178
sg34
S'SYR'
p179
sg36
S'72'
p180
sg38
g3
sg39
S'222'
p181
sg41
S'178'
p182
sg43
S'284'
p183
sg45
g3
sg46
S'1954-55'
p184
sg48
S'801'
p185
sg50
g3
sg51
S'.782'
p186
sg53
S'295'
p187
sg55
S'2473'
p188
sba(isrc.gp1.models.Totals
Totals
p189
(dp190
g8
g3
sg9
S'.361'
p191
sg11
S'250'
p192
sg13
g3
sg14
S'.361'
p193
sg16
S'692'
p194
sg18
g3
sg19
g20
sg21
S'720'
p195
sg22
S'416'
p196
sg24
S'NBA'
p197
sg26
g3
sg27
S'.361'
p198
sg29
g3
sg30
S'244'
p199
sg31
g3
sg32
S'32'
p200
sg34
S'SYR'
p201
sg36
S'72'
p202
sg38
g3
sg39
S'220'
p203
sg41
S'131'
p204
sg43
S'281'
p205
sg45
g3
sg46
S'1955-56'
p206
sg48
S'692'
p207
sg50
g3
sg51
S'.783'
p208
sg53
S'250'
p209
sg55
S'1883'
p210
sba(isrc.gp1.models.Totals
Totals
p211
(dp212
g8
g3
sg9
S'.349'
p213
sg11
S'136'
p214
sg13
g3
sg14
S'.349'
p215
sg16
S'390'
p216
sg18
g3
sg19
g20
sg21
S'381'
p217
sg22
S'272'
p218
sg24
S'NBA'
p219
sg26
g3
sg27
S'.349'
p220
sg29
g3
sg30
S'162'
p221
sg31
g3
sg32
S'33'
p222
sg34
S'FTW'
p223
sg36
S'72'
p224
sg38
g3
sg39
S'109'
p225
sg41
S'81'
p226
sg43
S'144'
p227
sg45
g3
sg46
S'1956-57'
p228
sg48
S'390'
p229
sg50
g3
sg51
S'.757'
p230
sg53
S'136'
p231
sg55
S'1154'
p232
sbasS'_college'
p233
S'Oregon State University'
p234
sS'_toYear'
p235
S'1957'
p236
sS'_height'
p237
S'6-9'
p238
sS'_active'
p239
I00
sS'_shootingHand'
p240
VRight
p241
sS'_name'
p242
S'Red Rocha'
p243
sS'_per100Possessions'
p244
(lp245
sS'_advanced'
p246
(lp247
(isrc.gp1.models.Advanced
Advanced
p248
(dp249
S'_offensiveReboundPercentage'
p250
g3
sS'_turnOverPercentage'
p251
g3
sS'_winSharesPer48Minutes'
p252
g3
sS'_stealPercentage'
p253
g3
sS'_usagePercentage'
p254
g3
sS'_totalReboundsPercentage'
p255
g3
sS'_defensiveBoxPlusMinus'
p256
g3
sg19
g20
sS'_valueOverReplacementPlayer'
p257
g3
sS'_trueShootingPercentage'
p258
S'4.2'
p259
sS'_defensiveReboundPercentage'
p260
g3
sS'_freeThrowsAttempRate'
p261
S'7.2'
p262
sS'_threePointsAttempRate'
p263
S'3.1'
p264
sg24
S'BAA'
p265
sS'_offensiveBoxPlusMinues'
p266
g3
sS'_assistPercentage'
p267
g3
sS'_defensiveWinShares'
p268
g3
sg32
S'24'
p269
sg34
S'STB'
p270
sg36
S'48'
p271
sS'_blockPercentage'
p272
g3
sS'_playerEfficiencyRating'
p273
S'.288'
p274
sS'_offensiveWinShares'
p275
g3
sg53
S'.366'
p276
sS'_boxPlusMinus'
p277
g3
sg46
S'1947-48'
p278
sS'_winShares'
p279
g3
sba(isrc.gp1.models.Advanced
Advanced
p280
(dp281
g250
g3
sg251
g3
sg252
g3
sg253
g3
sg254
g3
sg255
g3
sg256
g3
sg19
g20
sg257
g3
sg258
S'5.1'
p282
sg260
g3
sg261
S'5.1'
p283
sg263
S'-0.1'
p284
sg24
S'BAA'
p285
sg266
g3
sg267
g3
sg268
g3
sg32
S'25'
p286
sg34
S'STB'
p287
sg36
S'58'
p288
sg272
g3
sg273
S'.368'
p289
sg275
g3
sg53
S'.456'
p290
sg277
g3
sg46
S'1948-49'
p291
sg279
g3
sba(isrc.gp1.models.Advanced
Advanced
p292
(dp293
g250
g3
sg251
g3
sg252
g3
sg253
g3
sg254
g3
sg255
g3
sg256
g3
sg19
g20
sg257
g3
sg258
S'6.2'
p294
sg260
g3
sg261
S'7.0'
p295
sg263
S'0.8'
p296
sg24
S'NBA'
p297
sg266
g3
sg267
g3
sg268
g3
sg32
S'26'
p298
sg34
S'STB'
p299
sg36
S'65'
p300
sg272
g3
sg273
S'.461'
p301
sg275
g3
sg53
S'.471'
p302
sg277
g3
sg46
S'1949-50'
p303
sg279
g3
sba(isrc.gp1.models.Advanced
Advanced
p304
(dp305
g250
g3
sg251
g3
sg252
g3
sg253
g3
sg254
g3
sg255
g3
sg256
g3
sg19
g20
sg257
g3
sg258
S'2.4'
p306
sg260
g3
sg261
S'4.6'
p307
sg263
S'2.3'
p308
sg24
S'NBA'
p309
sg266
g3
sg267
g3
sg268
g3
sg32
S'27'
p310
sg34
S'BLB'
p311
sg36
S'64'
p312
sg272
g3
sg273
S'.355'
p313
sg275
g3
sg53
S'.429'
p314
sg277
g3
sg46
S'1950-51'
p315
sg279
g3
sba(isrc.gp1.models.Advanced
Advanced
p316
(dp317
g250
S'3.2'
p318
sg251
g3
sg252
g3
sg253
g3
sg254
g3
sg255
S'.148'
p319
sg256
g3
sg19
g20
sg257
g3
sg258
S'.478'
p320
sg260
S'7.8'
p321
sg261
S'4.6'
p322
sg263
S'.441'
p323
sg24
S'NBA'
p324
sg266
g3
sg267
g3
sg268
g3
sg32
S'28'
p325
sg34
S'SYR'
p326
sg36
S'66'
p327
sg272
g3
sg273
S'15.2'
p328
sg275
g3
sg53
S'2543'
p329
sg277
g3
sg46
S'1951-52'
p330
sg279
g3
sba(isrc.gp1.models.Advanced
Advanced
p331
(dp332
g250
S'3.2'
p333
sg251
g3
sg252
g3
sg253
g3
sg254
g3
sg255
S'.126'
p334
sg256
g3
sg19
g20
sg257
g3
sg258
S'.466'
p335
sg260
S'6.5'
p336
sg261
S'3.3'
p337
sg263
S'.449'
p338
sg24
S'NBA'
p339
sg266
g3
sg267
g3
sg268
g3
sg32
S'29'
p340
sg34
S'SYR'
p341
sg36
S'69'
p342
sg272
g3
sg273
S'14.4'
p343
sg275
g3
sg53
S'2454'
p344
sg277
g3
sg46
S'1952-53'
p345
sg279
g3
sba(isrc.gp1.models.Advanced
Advanced
p346
(dp347
g250
S'3.8'
p348
sg251
g3
sg252
g3
sg253
g3
sg254
g3
sg255
S'.096'
p349
sg256
g3
sg19
g20
sg257
g3
sg258
S'.438'
p350
sg260
S'5.0'
p351
sg261
S'1.1'
p352
sg263
S'.355'
p353
sg24
S'NBA'
p354
sg266
g3
sg267
g3
sg268
g3
sg32
S'31'
p355
sg34
S'SYR'
p356
sg36
S'72'
p357
sg272
g3
sg273
S'12.0'
p358
sg275
g3
sg53
S'2473'
p359
sg277
g3
sg46
S'1954-55'
p360
sg279
g3
sba(isrc.gp1.models.Advanced
Advanced
p361
(dp362
g250
S'2.7'
p363
sg251
g3
sg252
g3
sg253
g3
sg254
g3
sg255
S'.092'
p364
sg256
g3
sg19
g20
sg257
g3
sg258
S'.441'
p365
sg260
S'3.6'
p366
sg261
S'1.0'
p367
sg263
S'.406'
p368
sg24
S'NBA'
p369
sg266
g3
sg267
g3
sg268
g3
sg32
S'32'
p370
sg34
S'SYR'
p371
sg36
S'72'
p372
sg272
g3
sg273
S'12.4'
p373
sg275
g3
sg53
S'1883'
p374
sg277
g3
sg46
S'1955-56'
p375
sg279
g3
sba(isrc.gp1.models.Advanced
Advanced
p376
(dp377
g250
S'0.8'
p378
sg251
g3
sg252
g3
sg253
g3
sg254
g3
sg255
S'.044'
p379
sg256
g3
sg19
g20
sg257
g3
sg258
S'.420'
p380
sg260
S'1.0'
p381
sg261
S'0.2'
p382
sg263
S'.369'
p383
sg24
S'NBA'
p384
sg266
g3
sg267
g3
sg268
g3
sg32
S'33'
p385
sg34
S'FTW'
p386
sg36
S'72'
p387
sg272
g3
sg273
S'11.0'
p388
sg275
g3
sg53
S'1154'
p389
sg277
g3
sg46
S'1956-57'
p390
sg279
g3
sbasS'_per36Minutes'
p391
(lp392
(isrc.gp1.models.Per36Minutes
Per36Minutes
p393
(dp394
g8
g3
sg9
g3
sg11
g3
sg13
g3
sg14
g3
sg16
g3
sg18
g3
sg19
g20
sg21
g3
sg24
S'BAA'
p395
sg26
g3
sg27
g3
sg29
g3
sg30
g3
sg31
g3
sg32
S'24'
p396
sg34
S'STB'
p397
sg36
S'48'
p398
sg38
g3
sg39
g3
sg41
g3
sg43
g3
sg45
g3
sg46
S'1947-48'
p399
sg48
S'.690'
p400
sg50
g3
sg51
g3
sg53
S'.314'
p401
sg55
S'.314'
p402
sba(isrc.gp1.models.Per36Minutes
Per36Minutes
p403
(dp404
g8
g3
sg9
g3
sg11
g3
sg13
g3
sg14
g3
sg16
g3
sg18
g3
sg19
g20
sg21
g3
sg24
S'BAA'
p405
sg26
g3
sg27
g3
sg29
g3
sg30
g3
sg31
g3
sg32
S'25'
p406
sg34
S'STB'
p407
sg36
S'58'
p408
sg38
g3
sg39
g3
sg41
g3
sg43
g3
sg45
g3
sg46
S'1948-49'
p409
sg48
S'.768'
p410
sg50
g3
sg51
g3
sg53
S'.389'
p411
sg55
S'.389'
p412
sba(isrc.gp1.models.Per36Minutes
Per36Minutes
p413
(dp414
g8
g3
sg9
g3
sg11
g3
sg13
g3
sg14
g3
sg16
g3
sg18
g3
sg19
g20
sg21
g3
sg24
S'NBA'
p415
sg26
g3
sg27
g3
sg29
g3
sg30
g3
sg31
g3
sg32
S'26'
p416
sg34
S'STB'
p417
sg36
S'65'
p418
sg38
g3
sg39
g3
sg41
g3
sg43
g3
sg45
g3
sg46
S'1949-50'
p419
sg48
S'.703'
p420
sg50
g3
sg51
g3
sg53
S'.405'
p421
sg55
S'.405'
p422
sba(isrc.gp1.models.Per36Minutes
Per36Minutes
p423
(dp424
g8
g3
sg9
g3
sg11
g3
sg13
g3
sg14
g3
sg16
g3
sg18
g3
sg19
g20
sg21
g3
sg24
S'NBA'
p425
sg26
g3
sg27
g3
sg29
g3
sg30
g3
sg31
g3
sg32
S'27'
p426
sg34
S'BLB'
p427
sg36
S'64'
p428
sg38
g3
sg39
g3
sg41
g3
sg43
g3
sg45
g3
sg46
S'1950-51'
p429
sg48
S'.809'
p430
sg50
g3
sg51
g3
sg53
S'.352'
p431
sg55
S'.352'
p432
sba(isrc.gp1.models.Per36Minutes
Per36Minutes
p433
(dp434
g8
g3
sg9
S'.401'
p435
sg11
S'4.2'
p436
sg13
g3
sg14
S'3.6'
p437
sg16
S'10.6'
p438
sg18
g3
sg19
g20
sg21
S'12.1'
p439
sg24
S'NBA'
p440
sg26
g3
sg27
S'.401'
p441
sg29
g3
sg30
S'3.5'
p442
sg31
g3
sg32
S'28'
p443
sg34
S'SYR'
p444
sg36
S'66'
p445
sg38
g3
sg39
S'4.7'
p446
sg41
S'1.8'
p447
sg43
S'.770'
p448
sg45
g3
sg46
S'1951-52'
p449
sg48
S'10.6'
p450
sg50
g3
sg51
S'7.8'
p451
sg53
S'4.2'
p452
sg55
S'2543'
p453
sba(isrc.gp1.models.Per36Minutes
Per36Minutes
p454
(dp455
g8
g3
sg9
S'.388'
p456
sg11
S'3.9'
p457
sg13
g3
sg14
S'3.4'
p458
sg16
S'10.1'
p459
sg18
g3
sg19
g20
sg21
S'11.3'
p460
sg24
S'NBA'
p461
sg26
g3
sg27
S'.388'
p462
sg29
g3
sg30
S'3.8'
p463
sg31
g3
sg32
S'29'
p464
sg34
S'SYR'
p465
sg36
S'69'
p466
sg38
g3
sg39
S'4.5'
p467
sg41
S'2.0'
p468
sg43
S'.755'
p469
sg45
g3
sg46
S'1952-53'
p470
sg48
S'10.1'
p471
sg50
g3
sg51
S'7.5'
p472
sg53
S'3.9'
p473
sg55
S'2454'
p474
sba(isrc.gp1.models.Per36Minutes
Per36Minutes
p475
(dp476
g8
g3
sg9
S'.368'
p477
sg11
S'4.3'
p478
sg13
g3
sg14
S'3.2'
p479
sg16
S'11.7'
p480
sg18
g3
sg19
g20
sg21
S'11.8'
p481
sg24
S'NBA'
p482
sg26
g3
sg27
S'.368'
p483
sg29
g3
sg30
S'3.5'
p484
sg31
g3
sg32
S'31'
p485
sg34
S'SYR'
p486
sg36
S'72'
p487
sg38
g3
sg39
S'4.1'
p488
sg41
S'2.6'
p489
sg43
S'.782'
p490
sg45
g3
sg46
S'1954-55'
p491
sg48
S'11.7'
p492
sg50
g3
sg51
S'7.1'
p493
sg53
S'4.3'
p494
sg55
S'2473'
p495
sba(isrc.gp1.models.Per36Minutes
Per36Minutes
p496
(dp497
g8
g3
sg9
S'.361'
p498
sg11
S'4.8'
p499
sg13
g3
sg14
S'4.2'
p500
sg16
S'13.2'
p501
sg18
g3
sg19
g20
sg21
S'13.8'
p502
sg24
S'NBA'
p503
sg26
g3
sg27
S'.361'
p504
sg29
g3
sg30
S'4.7'
p505
sg31
g3
sg32
S'32'
p506
sg34
S'SYR'
p507
sg36
S'72'
p508
sg38
g3
sg39
S'5.4'
p509
sg41
S'2.5'
p510
sg43
S'.783'
p511
sg45
g3
sg46
S'1955-56'
p512
sg48
S'13.2'
p513
sg50
g3
sg51
S'8.0'
p514
sg53
S'4.8'
p515
sg55
S'1883'
p516
sba(isrc.gp1.models.Per36Minutes
Per36Minutes
p517
(dp518
g8
g3
sg9
S'.349'
p519
sg11
S'4.2'
p520
sg13
g3
sg14
S'3.4'
p521
sg16
S'12.2'
p522
sg18
g3
sg19
g20
sg21
S'11.9'
p523
sg24
S'NBA'
p524
sg26
g3
sg27
S'.349'
p525
sg29
g3
sg30
S'5.1'
p526
sg31
g3
sg32
S'33'
p527
sg34
S'FTW'
p528
sg36
S'72'
p529
sg38
g3
sg39
S'4.5'
p530
sg41
S'2.5'
p531
sg43
S'.757'
p532
sg45
g3
sg46
S'1956-57'
p533
sg48
S'12.2'
p534
sg50
g3
sg51
S'8.5'
p535
sg53
S'4.2'
p536
sg55
S'1154'
p537
sbasS'_fromYear'
p538
S'1948'
p539
sS'_url'
p540
S'http://www.basketball-reference.com/players/r/rochare01.html'
p541
sS'_perGame'
p542
(isrc.gp1.models.PerGame
PerGame
p543
(dp544
g8
g3
sg9
S'.349'
p545
sg11
S'1.9'
p546
sS'_effectiveFieldGalPercentage'
p547
S'3.8'
p548
sg13
g3
sg14
S'.349'
p549
sg16
S'5.4'
p550
sg18
g3
sg19
g20
sg21
S'5.3'
p551
sg24
S'NBA'
p552
sg26
g3
sg29
g3
sS'_fieldGoalsttempted'
p553
S'.349'
p554
sg30
S'2.3'
p555
sg31
g3
sg32
S'33'
p556
sg34
S'FTW'
p557
sg36
S'72'
p558
sg38
g3
sg39
S'1.5'
p559
sg41
S'1.1'
p560
sg43
S'2.0'
p561
sg45
g3
sg46
S'1956-57'
p562
sg48
S'5.4'
p563
sg50
g3
sg51
S'.757'
p564
sg53
S'1.9'
p565
sg55
S'16.0'
p566
sbsS'_weight'
p567
S'185'
p568
sS'_dob'
p569
S'18-9-1923'
p570
sS'_salary'
p571
(lp572
sg19
S'C-F'
p573
sb.