(isrc.gp1.models.Player
Player
p0
(dp1
S'_experience'
p2
S'NA'
p3
sS'_totals'
p4
(lp5
(isrc.gp1.models.Totals
Totals
p6
(dp7
S'_offensiveRebounds'
p8
S'46'
p9
sS'_threePointsAttempted'
p10
S'4'
p11
sS'_fieldGoalsPercentage'
p12
S'.427'
p13
sS'_assist'
p14
S'26'
p15
sS'_threePointsPercentage'
p16
S'.500'
p17
sS'_threePoints'
p18
S'2'
p19
sS'_points'
p20
S'125'
p21
sS'_position'
p22
S'SG'
p23
sS'_freeThrowsPercentage'
p24
S'.686'
p25
sS'_effectiveFieldGoalPercentage'
p26
S'.437'
p27
sS'_league'
p28
S'NBA'
p29
sS'_steals'
p30
S'14'
p31
sS'_fieldGoalsAttempted'
p32
S'103'
p33
sS'_personalFouls'
p34
S'26'
p35
sS'_freeThrowsAttempted'
p36
S'51'
p37
sS'_totalRebounds'
p38
S'67'
p39
sS'_age'
p40
S'26'
p41
sS'_team'
p42
S'LAL'
p43
sS'_games'
p44
S'23'
p45
sS'_blocks'
p46
S'5'
p47
sS'_twoPoints'
p48
S'42'
p49
sS'_freeThrows'
p50
S'35'
p51
sS'_twoPointsAttempted'
p52
S'99'
p53
sS'_defensiveRebounds'
p54
S'21'
p55
sS'_season'
p56
S'1993-94'
p57
sS'_fieldGoals'
p58
S'44'
p59
sS'_turnOvers'
p60
S'14'
p61
sS'_twoPointsPercentage'
p62
S'.424'
p63
sS'_minutesPlayed'
p64
S'259'
p65
sS'_gamesStarted'
p66
S'0'
p67
sba(isrc.gp1.models.Totals
Totals
p68
(dp69
g8
g3
sg10
g3
sg12
g3
sg14
g3
sg16
g3
sg18
g3
sg20
g3
sg22
g3
sg24
g3
sg26
g3
sg28
g3
sg30
g3
sg32
g3
sg34
g3
sg36
g3
sg38
g3
sg40
S'27'
p70
sg42
S'Did Not Play\xc2\xa0(other pro league\xe2\x80\x94Greece)'
p71
sg44
g3
sg46
g3
sg48
g3
sg50
g3
sg52
g3
sg54
g3
sg56
S'1994-95'
p72
sg58
g3
sg60
g3
sg62
g3
sg64
g3
sg66
g3
sba(isrc.gp1.models.Totals
Totals
p73
(dp74
g8
S'23'
p75
sg10
g67
sg12
S'.507'
p76
sg14
S'29'
p77
sg16
g3
sg18
g67
sg20
S'94'
p78
sg22
S'PG'
p79
sg24
S'.579'
p80
sg26
S'.507'
p81
sg28
S'NBA'
p82
sg30
S'12'
p83
sg32
S'71'
p84
sg34
S'30'
p85
sg36
S'38'
p86
sg38
S'52'
p87
sg40
S'28'
p88
sg42
S'ATL'
p89
sg44
S'24'
p90
sg46
S'7'
p91
sg48
S'36'
p92
sg50
S'22'
p93
sg52
S'71'
p94
sg54
S'29'
p95
sg56
S'1995-96'
p96
sg58
S'36'
p97
sg60
S'19'
p98
sg62
S'.507'
p99
sg64
S'247'
p100
sg66
g67
sba(isrc.gp1.models.Totals
Totals
p101
(dp102
g8
S'11'
p103
sg10
g67
sg12
S'.615'
p104
sg14
S'12'
p105
sg16
g3
sg18
g67
sg20
S'40'
p106
sg22
S'SG'
p107
sg24
S'.471'
p108
sg26
S'.615'
p109
sg28
S'NBA'
p110
sg30
g91
sg32
S'26'
p111
sg34
S'15'
p112
sg36
S'17'
p113
sg38
S'27'
p114
sg40
S'29'
p115
sg42
S'TOT'
p116
sg44
S'19'
p117
sg46
S'3'
p118
sg48
S'16'
p119
sg50
S'8'
p120
sg52
S'26'
p121
sg54
S'16'
p122
sg56
S'1996-97'
p123
sg58
S'16'
p124
sg60
g120
sg62
S'.615'
p125
sg64
S'130'
p126
sg66
g67
sba(isrc.gp1.models.Totals
Totals
p127
(dp128
g8
S'11'
p129
sg10
g67
sg12
S'.500'
p130
sg14
S'11'
p131
sg16
g3
sg18
g67
sg20
S'20'
p132
sg22
S'SG'
p133
sg24
S'.400'
p134
sg26
S'.500'
p135
sg28
S'NBA'
p136
sg30
g47
sg32
S'16'
p137
sg34
S'13'
p138
sg36
S'10'
p139
sg38
S'23'
p140
sg40
S'29'
p141
sg42
S'POR'
p142
sg44
S'9'
p143
sg46
g118
sg48
g120
sg50
g11
sg52
S'16'
p144
sg54
S'12'
p145
sg56
S'1996-97'
p146
sg58
g120
sg60
S'6'
p147
sg62
S'.500'
p148
sg64
S'99'
p149
sg66
g67
sba(isrc.gp1.models.Totals
Totals
p150
(dp151
g8
g67
sg10
g67
sg12
S'.800'
p152
sg14
S'1'
p153
sg16
g3
sg18
g67
sg20
S'20'
p154
sg22
S'SG'
p155
sg24
S'.571'
p156
sg26
S'.800'
p157
sg28
S'NBA'
p158
sg30
g19
sg32
S'10'
p159
sg34
g19
sg36
g91
sg38
g11
sg40
S'29'
p160
sg42
S'MIN'
p161
sg44
S'10'
p162
sg46
g67
sg48
g120
sg50
g11
sg52
S'10'
p163
sg54
g11
sg56
S'1996-97'
p164
sg58
g120
sg60
g19
sg62
S'.800'
p165
sg64
S'31'
p166
sg66
g67
sba(isrc.gp1.models.Totals
Totals
p167
(dp168
g8
S'57'
p169
sg10
g153
sg12
S'.478'
p170
sg14
S'50'
p171
sg16
S'.000'
p172
sg18
g67
sg20
S'149'
p173
sg22
S'SG'
p174
sg24
S'.569'
p175
sg26
S'.478'
p176
sg28
S'NBA'
p177
sg30
S'35'
p178
sg32
S'113'
p179
sg34
S'63'
p180
sg36
S'72'
p181
sg38
S'97'
p182
sg40
S'30'
p183
sg42
S'MIN'
p184
sg44
S'57'
p185
sg46
g143
sg48
S'54'
p186
sg50
S'41'
p187
sg52
S'112'
p188
sg54
S'40'
p189
sg56
S'1997-98'
p190
sg58
S'54'
p191
sg60
S'30'
p192
sg62
S'.482'
p193
sg64
S'487'
p194
sg66
g153
sba(isrc.gp1.models.Totals
Totals
p195
(dp196
g8
S'27'
p197
sg10
g67
sg12
S'.278'
p198
sg14
S'41'
p199
sg16
g3
sg18
g67
sg20
S'51'
p200
sg22
S'SG'
p201
sg24
S'.553'
p202
sg26
S'.278'
p203
sg28
S'NBA'
p204
sg30
S'12'
p205
sg32
S'54'
p206
sg34
S'38'
p207
sg36
S'38'
p208
sg38
S'59'
p209
sg40
S'31'
p210
sg42
S'MIN'
p211
sg44
S'27'
p212
sg46
g47
sg48
S'15'
p213
sg50
S'21'
p214
sg52
S'54'
p215
sg54
S'32'
p216
sg56
S'1998-99'
p217
sg58
S'15'
p218
sg60
S'14'
p219
sg62
S'.278'
p220
sg64
S'296'
p221
sg66
g153
sba(isrc.gp1.models.Totals
Totals
p222
(dp223
g8
S'16'
p224
sg10
g153
sg12
S'.321'
p225
sg14
S'32'
p226
sg16
S'.000'
p227
sg18
g67
sg20
S'41'
p228
sg22
S'PG'
p229
sg24
S'.538'
p230
sg26
S'.321'
p231
sg28
S'NBA'
p232
sg30
S'12'
p233
sg32
S'53'
p234
sg34
S'29'
p235
sg36
S'13'
p236
sg38
S'41'
p237
sg40
S'32'
p238
sg42
S'WAS'
p239
sg44
S'36'
p240
sg46
g19
sg48
S'17'
p241
sg50
g91
sg52
S'52'
p242
sg54
S'25'
p243
sg56
S'1999-00'
p244
sg58
S'17'
p245
sg60
S'19'
p246
sg62
S'.327'
p247
sg64
S'243'
p248
sg66
g67
sbasS'_college'
p249
S'New Mexico State University'
p250
sS'_toYear'
p251
S'2000'
p252
sS'_height'
p253
S'6-4'
p254
sS'_active'
p255
I00
sS'_shootingHand'
p256
VLeft
p257
sS'_name'
p258
S'Reggie Jordan'
p259
sS'_per100Possessions'
p260
(lp261
(isrc.gp1.models.Per100Possession
Per100Possession
p262
(dp263
g8
S'8.9'
p264
sg10
S'0.8'
p265
sg12
S'.427'
p266
sS'_offensiveRating'
p267
S'113'
p268
sg14
S'5.0'
p269
sg16
S'.500'
p270
sg18
S'0.4'
p271
sg20
S'24.3'
p272
sg22
S'SG'
p273
sS'_defensiveRating'
p274
S'109'
p275
sg24
S'.686'
p276
sg28
S'NBA'
p277
sg30
S'2.7'
p278
sg32
S'20.0'
p279
sg34
S'5.0'
p280
sg36
S'9.9'
p281
sg38
S'13.0'
p282
sg40
S'26'
p283
sg42
S'LAL'
p284
sg44
S'23'
p285
sg46
S'1.0'
p286
sg48
S'8.2'
p287
sg50
S'6.8'
p288
sg52
S'19.2'
p289
sg54
S'4.1'
p290
sg56
S'1993-94'
p291
sg58
S'8.5'
p292
sg60
S'2.7'
p293
sg62
S'.424'
p294
sg64
S'259'
p295
sg66
g67
sba(isrc.gp1.models.Per100Possession
Per100Possession
p296
(dp297
g8
S'5.0'
p298
sg10
S'0.0'
p299
sg12
S'.507'
p300
sg267
S'109'
p301
sg14
S'6.3'
p302
sg16
g3
sg18
S'0.0'
p303
sg20
S'20.4'
p304
sg22
S'PG'
p305
sg274
S'106'
p306
sg24
S'.579'
p307
sg28
S'NBA'
p308
sg30
S'2.6'
p309
sg32
S'15.4'
p310
sg34
S'6.5'
p311
sg36
S'8.2'
p312
sg38
S'11.3'
p313
sg40
S'28'
p314
sg42
S'ATL'
p315
sg44
S'24'
p316
sg46
S'1.5'
p317
sg48
S'7.8'
p318
sg50
S'4.8'
p319
sg52
S'15.4'
p320
sg54
S'6.3'
p321
sg56
S'1995-96'
p322
sg58
S'7.8'
p323
sg60
S'4.1'
p324
sg62
S'.507'
p325
sg64
S'247'
p326
sg66
g67
sba(isrc.gp1.models.Per100Possession
Per100Possession
p327
(dp328
g8
S'4.5'
p329
sg10
S'0.0'
p330
sg12
S'.615'
p331
sg267
S'111'
p332
sg14
S'4.9'
p333
sg16
g3
sg18
S'0.0'
p334
sg20
S'16.3'
p335
sg22
S'SG'
p336
sg274
S'102'
p337
sg24
S'.471'
p338
sg28
S'NBA'
p339
sg30
S'2.8'
p340
sg32
S'10.6'
p341
sg34
S'6.1'
p342
sg36
S'6.9'
p343
sg38
S'11.0'
p344
sg40
S'29'
p345
sg42
S'TOT'
p346
sg44
S'19'
p347
sg46
S'1.2'
p348
sg48
S'6.5'
p349
sg50
S'3.3'
p350
sg52
S'10.6'
p351
sg54
S'6.5'
p352
sg56
S'1996-97'
p353
sg58
S'6.5'
p354
sg60
S'3.3'
p355
sg62
S'.615'
p356
sg64
S'130'
p357
sg66
g67
sba(isrc.gp1.models.Per100Possession
Per100Possession
p358
(dp359
g8
S'5.9'
p360
sg10
S'0.0'
p361
sg12
S'.500'
p362
sg267
S'106'
p363
sg14
S'5.9'
p364
sg16
g3
sg18
S'0.0'
p365
sg20
S'10.7'
p366
sg22
S'SG'
p367
sg274
S'101'
p368
sg24
S'.400'
p369
sg28
S'NBA'
p370
sg30
S'2.7'
p371
sg32
S'8.5'
p372
sg34
S'6.9'
p373
sg36
S'5.3'
p374
sg38
S'12.3'
p375
sg40
S'29'
p376
sg42
S'POR'
p377
sg44
g143
sg46
S'1.6'
p378
sg48
S'4.3'
p379
sg50
S'2.1'
p380
sg52
S'8.5'
p381
sg54
S'6.4'
p382
sg56
S'1996-97'
p383
sg58
S'4.3'
p384
sg60
S'3.2'
p385
sg62
S'.500'
p386
sg64
S'99'
p387
sg66
g67
sba(isrc.gp1.models.Per100Possession
Per100Possession
p388
(dp389
g8
S'0.0'
p390
sg10
S'0.0'
p391
sg12
S'.800'
p392
sg267
S'124'
p393
sg14
S'1.7'
p394
sg16
g3
sg18
S'0.0'
p395
sg20
S'34.1'
p396
sg22
S'SG'
p397
sg274
S'104'
p398
sg24
S'.571'
p399
sg28
S'NBA'
p400
sg30
S'3.4'
p401
sg32
S'17.1'
p402
sg34
S'3.4'
p403
sg36
S'12.0'
p404
sg38
S'6.8'
p405
sg40
S'29'
p406
sg42
S'MIN'
p407
sg44
S'10'
p408
sg46
S'0.0'
p409
sg48
S'13.7'
p410
sg50
S'6.8'
p411
sg52
S'17.1'
p412
sg54
S'6.8'
p413
sg56
S'1996-97'
p414
sg58
S'13.7'
p415
sg60
S'3.4'
p416
sg62
S'.800'
p417
sg64
S'31'
p418
sg66
g67
sba(isrc.gp1.models.Per100Possession
Per100Possession
p419
(dp420
g8
S'6.1'
p421
sg10
S'0.1'
p422
sg12
S'.478'
p423
sg267
S'108'
p424
sg14
S'5.3'
p425
sg16
S'.000'
p426
sg18
S'0.0'
p427
sg20
S'15.9'
p428
sg22
S'SG'
p429
sg274
S'104'
p430
sg24
S'.569'
p431
sg28
S'NBA'
p432
sg30
S'3.7'
p433
sg32
S'12.0'
p434
sg34
S'6.7'
p435
sg36
S'7.7'
p436
sg38
S'10.3'
p437
sg40
S'30'
p438
sg42
S'MIN'
p439
sg44
S'57'
p440
sg46
S'1.0'
p441
sg48
S'5.7'
p442
sg50
S'4.4'
p443
sg52
S'11.9'
p444
sg54
S'4.3'
p445
sg56
S'1997-98'
p446
sg58
S'5.7'
p447
sg60
S'3.2'
p448
sg62
S'.482'
p449
sg64
S'487'
p450
sg66
g153
sba(isrc.gp1.models.Per100Possession
Per100Possession
p451
(dp452
g8
S'4.8'
p453
sg10
S'0.0'
p454
sg12
S'.278'
p455
sg267
S'93'
p456
sg14
S'7.3'
p457
sg16
g3
sg18
S'0.0'
p458
sg20
S'9.1'
p459
sg22
S'SG'
p460
sg274
S'102'
p461
sg24
S'.553'
p462
sg28
S'NBA'
p463
sg30
S'2.1'
p464
sg32
S'9.6'
p465
sg34
S'6.8'
p466
sg36
S'6.8'
p467
sg38
S'10.5'
p468
sg40
S'31'
p469
sg42
S'MIN'
p470
sg44
S'27'
p471
sg46
S'0.9'
p472
sg48
S'2.7'
p473
sg50
S'3.7'
p474
sg52
S'9.6'
p475
sg54
S'5.7'
p476
sg56
S'1998-99'
p477
sg58
S'2.7'
p478
sg60
S'2.5'
p479
sg62
S'.278'
p480
sg64
S'296'
p481
sg66
g153
sba(isrc.gp1.models.Per100Possession
Per100Possession
p482
(dp483
g8
S'3.4'
p484
sg10
S'0.2'
p485
sg12
S'.321'
p486
sg267
S'80'
p487
sg14
S'6.8'
p488
sg16
S'.000'
p489
sg18
S'0.0'
p490
sg20
S'8.7'
p491
sg22
S'PG'
p492
sg274
S'106'
p493
sg24
S'.538'
p494
sg28
S'NBA'
p495
sg30
S'2.6'
p496
sg32
S'11.3'
p497
sg34
S'6.2'
p498
sg36
S'2.8'
p499
sg38
S'8.7'
p500
sg40
S'32'
p501
sg42
S'WAS'
p502
sg44
S'36'
p503
sg46
S'0.4'
p504
sg48
S'3.6'
p505
sg50
S'1.5'
p506
sg52
S'11.1'
p507
sg54
S'5.3'
p508
sg56
S'1999-00'
p509
sg58
S'3.6'
p510
sg60
S'4.0'
p511
sg62
S'.327'
p512
sg64
S'243'
p513
sg66
g67
sbasS'_advanced'
p514
(lp515
(isrc.gp1.models.Advanced
Advanced
p516
(dp517
S'_offensiveReboundPercentage'
p518
S'18.5'
p519
sS'_turnOverPercentage'
p520
S'10.0'
p521
sS'_winSharesPer48Minutes'
p522
S'.142'
p523
sS'_stealPercentage'
p524
S'2.7'
p525
sS'_usagePercentage'
p526
S'22.7'
p527
sS'_totalReboundsPercentage'
p528
S'14.0'
p529
sS'_defensiveBoxPlusMinus'
p530
S'-0.6'
p531
sg22
S'SG'
p532
sS'_valueOverReplacementPlayer'
p533
S'0.3'
p534
sS'_trueShootingPercentage'
p535
S'.498'
p536
sS'_defensiveReboundPercentage'
p537
S'9.2'
p538
sS'_freeThrowsAttempRate'
p539
S'.495'
p540
sS'_threePointsAttempRate'
p541
S'.039'
p542
sg28
S'NBA'
p543
sS'_offensiveBoxPlusMinues'
p544
S'3.0'
p545
sS'_assistPercentage'
p546
S'15.1'
p547
sS'_defensiveWinShares'
p548
S'0.2'
p549
sg40
S'26'
p550
sg42
S'LAL'
p551
sg44
S'23'
p552
sS'_blockPercentage'
p553
S'1.2'
p554
sS'_playerEfficiencyRating'
p555
S'20.1'
p556
sS'_offensiveWinShares'
p557
S'0.6'
p558
sg64
S'259'
p559
sS'_boxPlusMinus'
p560
S'2.3'
p561
sg56
S'1993-94'
p562
sS'_winShares'
p563
S'0.8'
p564
sba(isrc.gp1.models.Advanced
Advanced
p565
(dp566
g518
S'10.6'
p567
sg520
S'17.8'
p568
sg522
S'.118'
p569
sg524
S'2.6'
p570
sg526
S'19.4'
p571
sg528
S'12.4'
p572
sg530
S'1.2'
p573
sg22
S'PG'
p574
sg533
S'0.2'
p575
sg535
S'.536'
p576
sg537
S'14.5'
p577
sg539
S'.535'
p578
sg541
S'.000'
p579
sg28
S'NBA'
p580
sg544
S'-0.5'
p581
sg546
S'19.2'
p582
sg548
S'0.3'
p583
sg40
S'28'
p584
sg42
S'ATL'
p585
sg44
S'24'
p586
sg553
S'2.2'
p587
sg555
S'17.1'
p588
sg557
S'0.3'
p589
sg64
S'247'
p590
sg560
S'0.7'
p591
sg56
S'1995-96'
p592
sg563
S'0.6'
p593
sba(isrc.gp1.models.Advanced
Advanced
p594
(dp595
g518
S'10.3'
p596
sg520
S'19.3'
p597
sg522
S'.136'
p598
sg524
S'2.8'
p599
sg526
S'14.5'
p600
sg528
S'12.3'
p601
sg530
S'2.1'
p602
sg22
S'SG'
p603
sg533
S'0.1'
p604
sg535
S'.597'
p605
sg537
S'14.2'
p606
sg539
S'.654'
p607
sg541
S'.000'
p608
sg28
S'NBA'
p609
sg544
S'-0.3'
p610
sg546
S'14.1'
p611
sg548
S'0.2'
p612
sg40
S'29'
p613
sg42
S'TOT'
p614
sg44
S'19'
p615
sg553
S'1.8'
p616
sg555
S'15.7'
p617
sg557
S'0.2'
p618
sg64
S'130'
p619
sg560
S'1.8'
p620
sg56
S'1996-97'
p621
sg563
S'0.4'
p622
sba(isrc.gp1.models.Advanced
Advanced
p623
(dp624
g518
S'13.6'
p625
sg520
S'22.7'
p626
sg522
S'.114'
p627
sg524
S'2.7'
p628
sg526
S'12.0'
p629
sg528
S'13.8'
p630
sg530
S'3.4'
p631
sg22
S'SG'
p632
sg533
S'0.1'
p633
sg535
S'.490'
p634
sg537
S'14.0'
p635
sg539
S'.625'
p636
sg541
S'.000'
p637
sg28
S'NBA'
p638
sg544
S'-1.0'
p639
sg546
S'16.5'
p640
sg548
S'0.2'
p641
sg40
S'29'
p642
sg42
S'POR'
p643
sg44
g143
sg553
S'2.3'
p644
sg555
S'12.8'
p645
sg557
S'0.1'
p646
sg64
S'99'
p647
sg560
S'2.4'
p648
sg56
S'1996-97'
p649
sg563
S'0.2'
p650
sba(isrc.gp1.models.Advanced
Advanced
p651
(dp652
g518
S'0.0'
p653
sg520
S'13.3'
p654
sg522
S'.205'
p655
sg524
S'3.4'
p656
sg526
S'22.3'
p657
sg528
S'7.6'
p658
sg530
S'-1.9'
p659
sg22
S'SG'
p660
sg533
S'0.0'
p661
sg535
S'.765'
p662
sg537
S'15.1'
p663
sg539
S'.700'
p664
sg541
S'.000'
p665
sg28
S'NBA'
p666
sg544
S'1.7'
p667
sg546
S'6.7'
p668
sg548
S'0.0'
p669
sg40
S'29'
p670
sg42
S'MIN'
p671
sg44
S'10'
p672
sg553
S'0.0'
p673
sg555
S'25.2'
p674
sg557
S'0.1'
p675
sg64
S'31'
p676
sg560
S'-0.2'
p677
sg56
S'1996-97'
p678
sg563
S'0.1'
p679
sba(isrc.gp1.models.Advanced
Advanced
p680
(dp681
g518
S'13.4'
p682
sg520
S'17.2'
p683
sg522
S'.114'
p684
sg524
S'3.7'
p685
sg526
S'15.9'
p686
sg528
S'11.3'
p687
sg530
S'1.5'
p688
sg22
S'SG'
p689
sg533
S'0.5'
p690
sg535
S'.515'
p691
sg537
S'9.2'
p692
sg539
S'.637'
p693
sg541
S'.009'
p694
sg28
S'NBA'
p695
sg544
S'0.5'
p696
sg546
S'15.1'
p697
sg548
S'0.5'
p698
sg40
S'30'
p699
sg42
S'MIN'
p700
sg44
S'57'
p701
sg553
S'1.3'
p702
sg555
S'15.3'
p703
sg557
S'0.6'
p704
sg64
S'487'
p705
sg560
S'2.0'
p706
sg56
S'1997-98'
p707
sg563
S'1.2'
p708
sba(isrc.gp1.models.Advanced
Advanced
p709
(dp710
g518
S'9.5'
p711
sg520
S'16.5'
p712
sg522
S'.049'
p713
sg524
S'2.1'
p714
sg526
S'12.6'
p715
sg528
S'11.1'
p716
sg530
S'1.4'
p717
sg22
S'SG'
p718
sg533
S'0.0'
p719
sg535
S'.361'
p720
sg537
S'13.1'
p721
sg539
S'.704'
p722
sg541
S'.000'
p723
sg28
S'NBA'
p724
sg544
S'-3.3'
p725
sg546
S'19.4'
p726
sg548
S'0.3'
p727
sg40
S'31'
p728
sg42
S'MIN'
p729
sg44
S'27'
p730
sg553
S'1.3'
p731
sg555
S'9.8'
p732
sg557
S'0.0'
p733
sg64
S'296'
p734
sg560
S'-1.9'
p735
sg56
S'1998-99'
p736
sg563
S'0.3'
p737
sba(isrc.gp1.models.Advanced
Advanced
p738
(dp739
g518
S'7.5'
p740
sg520
S'24.4'
p741
sg522
S'-0.035'
p742
sg524
S'2.6'
p743
sg526
S'14.2'
p744
sg528
S'9.7'
p745
sg530
S'0.8'
p746
sg22
S'PG'
p747
sg533
S'-0.1'
p748
sg535
S'.349'
p749
sg537
S'12.0'
p750
sg539
S'.245'
p751
sg541
S'.019'
p752
sg28
S'NBA'
p753
sg544
S'-4.5'
p754
sg546
S'19.1'
p755
sg548
S'0.2'
p756
sg40
S'32'
p757
sg42
S'WAS'
p758
sg44
S'36'
p759
sg553
S'0.6'
p760
sg555
S'6.7'
p761
sg557
S'-0.4'
p762
sg64
S'243'
p763
sg560
S'-3.7'
p764
sg56
S'1999-00'
p765
sg563
S'-0.2'
p766
sbasS'_per36Minutes'
p767
(lp768
(isrc.gp1.models.Per36Minutes
Per36Minutes
p769
(dp770
g8
S'6.4'
p771
sg10
S'0.6'
p772
sg12
S'.427'
p773
sg14
S'3.6'
p774
sg16
S'.500'
p775
sg18
S'0.3'
p776
sg20
S'17.4'
p777
sg22
S'SG'
p778
sg24
S'.686'
p779
sg28
S'NBA'
p780
sg30
S'1.9'
p781
sg32
S'14.3'
p782
sg34
S'3.6'
p783
sg36
S'7.1'
p784
sg38
S'9.3'
p785
sg40
S'26'
p786
sg42
S'LAL'
p787
sg44
S'23'
p788
sg46
S'0.7'
p789
sg48
S'5.8'
p790
sg50
S'4.9'
p791
sg52
S'13.8'
p792
sg54
S'2.9'
p793
sg56
S'1993-94'
p794
sg58
S'6.1'
p795
sg60
S'1.9'
p796
sg62
S'.424'
p797
sg64
S'259'
p798
sg66
g67
sba(isrc.gp1.models.Per36Minutes
Per36Minutes
p799
(dp800
g8
S'3.4'
p801
sg10
S'0.0'
p802
sg12
S'.507'
p803
sg14
S'4.2'
p804
sg16
g3
sg18
S'0.0'
p805
sg20
S'13.7'
p806
sg22
S'PG'
p807
sg24
S'.579'
p808
sg28
S'NBA'
p809
sg30
S'1.7'
p810
sg32
S'10.3'
p811
sg34
S'4.4'
p812
sg36
S'5.5'
p813
sg38
S'7.6'
p814
sg40
S'28'
p815
sg42
S'ATL'
p816
sg44
S'24'
p817
sg46
S'1.0'
p818
sg48
S'5.2'
p819
sg50
S'3.2'
p820
sg52
S'10.3'
p821
sg54
S'4.2'
p822
sg56
S'1995-96'
p823
sg58
S'5.2'
p824
sg60
S'2.8'
p825
sg62
S'.507'
p826
sg64
S'247'
p827
sg66
g67
sba(isrc.gp1.models.Per36Minutes
Per36Minutes
p828
(dp829
g8
S'3.0'
p830
sg10
S'0.0'
p831
sg12
S'.615'
p832
sg14
S'3.3'
p833
sg16
g3
sg18
S'0.0'
p834
sg20
S'11.1'
p835
sg22
S'SG'
p836
sg24
S'.471'
p837
sg28
S'NBA'
p838
sg30
S'1.9'
p839
sg32
S'7.2'
p840
sg34
S'4.2'
p841
sg36
S'4.7'
p842
sg38
S'7.5'
p843
sg40
S'29'
p844
sg42
S'TOT'
p845
sg44
S'19'
p846
sg46
S'0.8'
p847
sg48
S'4.4'
p848
sg50
S'2.2'
p849
sg52
S'7.2'
p850
sg54
S'4.4'
p851
sg56
S'1996-97'
p852
sg58
S'4.4'
p853
sg60
S'2.2'
p854
sg62
S'.615'
p855
sg64
S'130'
p856
sg66
g67
sba(isrc.gp1.models.Per36Minutes
Per36Minutes
p857
(dp858
g8
S'4.0'
p859
sg10
S'0.0'
p860
sg12
S'.500'
p861
sg14
S'4.0'
p862
sg16
g3
sg18
S'0.0'
p863
sg20
S'7.3'
p864
sg22
S'SG'
p865
sg24
S'.400'
p866
sg28
S'NBA'
p867
sg30
S'1.8'
p868
sg32
S'5.8'
p869
sg34
S'4.7'
p870
sg36
S'3.6'
p871
sg38
S'8.4'
p872
sg40
S'29'
p873
sg42
S'POR'
p874
sg44
g143
sg46
S'1.1'
p875
sg48
S'2.9'
p876
sg50
S'1.5'
p877
sg52
S'5.8'
p878
sg54
S'4.4'
p879
sg56
S'1996-97'
p880
sg58
S'2.9'
p881
sg60
S'2.2'
p882
sg62
S'.500'
p883
sg64
S'99'
p884
sg66
g67
sba(isrc.gp1.models.Per36Minutes
Per36Minutes
p885
(dp886
g8
S'0.0'
p887
sg10
S'0.0'
p888
sg12
S'.800'
p889
sg14
S'1.2'
p890
sg16
g3
sg18
S'0.0'
p891
sg20
S'23.2'
p892
sg22
S'SG'
p893
sg24
S'.571'
p894
sg28
S'NBA'
p895
sg30
S'2.3'
p896
sg32
S'11.6'
p897
sg34
S'2.3'
p898
sg36
S'8.1'
p899
sg38
S'4.6'
p900
sg40
S'29'
p901
sg42
S'MIN'
p902
sg44
S'10'
p903
sg46
S'0.0'
p904
sg48
S'9.3'
p905
sg50
S'4.6'
p906
sg52
S'11.6'
p907
sg54
S'4.6'
p908
sg56
S'1996-97'
p909
sg58
S'9.3'
p910
sg60
S'2.3'
p911
sg62
S'.800'
p912
sg64
S'31'
p913
sg66
g67
sba(isrc.gp1.models.Per36Minutes
Per36Minutes
p914
(dp915
g8
S'4.2'
p916
sg10
S'0.1'
p917
sg12
S'.478'
p918
sg14
S'3.7'
p919
sg16
S'.000'
p920
sg18
S'0.0'
p921
sg20
S'11.0'
p922
sg22
S'SG'
p923
sg24
S'.569'
p924
sg28
S'NBA'
p925
sg30
S'2.6'
p926
sg32
S'8.4'
p927
sg34
S'4.7'
p928
sg36
S'5.3'
p929
sg38
S'7.2'
p930
sg40
S'30'
p931
sg42
S'MIN'
p932
sg44
S'57'
p933
sg46
S'0.7'
p934
sg48
S'4.0'
p935
sg50
S'3.0'
p936
sg52
S'8.3'
p937
sg54
S'3.0'
p938
sg56
S'1997-98'
p939
sg58
S'4.0'
p940
sg60
S'2.2'
p941
sg62
S'.482'
p942
sg64
S'487'
p943
sg66
g153
sba(isrc.gp1.models.Per36Minutes
Per36Minutes
p944
(dp945
g8
S'3.3'
p946
sg10
S'0.0'
p947
sg12
S'.278'
p948
sg14
S'5.0'
p949
sg16
g3
sg18
S'0.0'
p950
sg20
S'6.2'
p951
sg22
S'SG'
p952
sg24
S'.553'
p953
sg28
S'NBA'
p954
sg30
S'1.5'
p955
sg32
S'6.6'
p956
sg34
S'4.6'
p957
sg36
S'4.6'
p958
sg38
S'7.2'
p959
sg40
S'31'
p960
sg42
S'MIN'
p961
sg44
S'27'
p962
sg46
S'0.6'
p963
sg48
S'1.8'
p964
sg50
S'2.6'
p965
sg52
S'6.6'
p966
sg54
S'3.9'
p967
sg56
S'1998-99'
p968
sg58
S'1.8'
p969
sg60
S'1.7'
p970
sg62
S'.278'
p971
sg64
S'296'
p972
sg66
g153
sba(isrc.gp1.models.Per36Minutes
Per36Minutes
p973
(dp974
g8
S'2.4'
p975
sg10
S'0.1'
p976
sg12
S'.321'
p977
sg14
S'4.7'
p978
sg16
S'.000'
p979
sg18
S'0.0'
p980
sg20
S'6.1'
p981
sg22
S'PG'
p982
sg24
S'.538'
p983
sg28
S'NBA'
p984
sg30
S'1.8'
p985
sg32
S'7.9'
p986
sg34
S'4.3'
p987
sg36
S'1.9'
p988
sg38
S'6.1'
p989
sg40
S'32'
p990
sg42
S'WAS'
p991
sg44
S'36'
p992
sg46
S'0.3'
p993
sg48
S'2.5'
p994
sg50
S'1.0'
p995
sg52
S'7.7'
p996
sg54
S'3.7'
p997
sg56
S'1999-00'
p998
sg58
S'2.5'
p999
sg60
S'2.8'
p1000
sg62
S'.327'
p1001
sg64
S'243'
p1002
sg66
g67
sbasS'_fromYear'
p1003
S'1994'
p1004
sS'_url'
p1005
S'http://www.basketball-reference.com/players/j/jordare01.html'
p1006
sS'_perGame'
p1007
(isrc.gp1.models.PerGame
PerGame
p1008
(dp1009
g8
S'0.4'
p1010
sg10
S'0.0'
p1011
sg12
S'.321'
p1012
sS'_effectiveFieldGalPercentage'
p1013
S'.321'
p1014
sg14
S'0.9'
p1015
sg16
S'.000'
p1016
sg18
S'0.0'
p1017
sg20
S'1.1'
p1018
sg22
S'PG'
p1019
sg24
S'.538'
p1020
sg28
S'NBA'
p1021
sg30
S'0.3'
p1022
sg34
S'0.8'
p1023
sS'_fieldGoalsttempted'
p1024
S'1.5'
p1025
sg36
S'0.4'
p1026
sg38
S'1.1'
p1027
sg40
S'32'
p1028
sg42
S'WAS'
p1029
sg44
S'36'
p1030
sg46
S'0.1'
p1031
sg48
S'0.5'
p1032
sg50
S'0.2'
p1033
sg52
S'1.4'
p1034
sg54
S'0.7'
p1035
sg56
S'1999-00'
p1036
sg58
S'0.5'
p1037
sg60
S'0.5'
p1038
sg62
S'.327'
p1039
sg64
S'6.8'
p1040
sg66
g67
sbsS'_weight'
p1041
S'195'
p1042
sS'_dob'
p1043
S'26-1-1968'
p1044
sS'_salary'
p1045
(lp1046
(isrc.gp1.models.Salary
Salary
p1047
(dp1048
g42
S'Portland Trail Blazers'
p1049
sg28
S'NBA'
p1050
sg1045
S'$247,500'
p1051
sg56
S'1996-97'
p1052
sba(isrc.gp1.models.Salary
Salary
p1053
(dp1054
g42
S'Minnesota Timberwolves'
p1055
sg28
S'NBA'
p1056
sg1045
S'$272,250'
p1057
sg56
S'1997-98'
p1058
sba(isrc.gp1.models.Salary
Salary
p1059
(dp1060
g42
S'Washington Wizards'
p1061
sg28
S'NBA'
p1062
sg1045
S'$510,000'
p1063
sg56
S'1999-00'
p1064
sbasg22
S'G'
p1065
sb.