(isrc.gp1.models.Player
Player
p0
(dp1
S'_experience'
p2
S'NA'
p3
sS'_totals'
p4
(lp5
(isrc.gp1.models.Totals
Totals
p6
(dp7
S'_offensiveRebounds'
p8
S'78'
p9
sS'_threePointsAttempted'
p10
S'0'
p11
sS'_fieldGoalsPercentage'
p12
S'.567'
p13
sS'_assist'
p14
S'11'
p15
sS'_threePointsPercentage'
p16
g3
sS'_threePoints'
p17
g11
sS'_points'
p18
S'263'
p19
sS'_position'
p20
S'PF'
p21
sS'_freeThrowsPercentage'
p22
S'.662'
p23
sS'_effectiveFieldGoalPercentage'
p24
S'.567'
p25
sS'_league'
p26
S'NBA'
p27
sS'_steals'
p28
S'47'
p29
sS'_fieldGoalsAttempted'
p30
S'187'
p31
sS'_personalFouls'
p32
S'199'
p33
sS'_freeThrowsAttempted'
p34
S'77'
p35
sS'_totalRebounds'
p36
S'203'
p37
sS'_age'
p38
S'22'
p39
sS'_team'
p40
S'DET'
p41
sS'_games'
p42
S'69'
p43
sS'_blocks'
p44
S'40'
p45
sS'_twoPoints'
p46
S'106'
p47
sS'_freeThrows'
p48
S'51'
p49
sS'_twoPointsAttempted'
p50
S'187'
p51
sS'_defensiveRebounds'
p52
S'125'
p53
sS'_season'
p54
S'1995-96'
p55
sS'_fieldGoals'
p56
S'106'
p57
sS'_turnOvers'
p58
S'41'
p59
sS'_twoPointsPercentage'
p60
S'.567'
p61
sS'_minutesPlayed'
p62
S'997'
p63
sS'_gamesStarted'
p64
S'46'
p65
sba(isrc.gp1.models.Totals
Totals
p66
(dp67
g8
S'36'
p68
sg10
S'1'
p69
sg12
S'.482'
p70
sg14
S'14'
p71
sg16
S'.000'
p72
sg17
g11
sg18
S'132'
p73
sg20
S'PF'
p74
sg22
S'.750'
p75
sg24
S'.482'
p76
sg26
S'NBA'
p77
sg28
S'16'
p78
sg30
S'112'
p79
sg32
S'105'
p80
sg34
S'32'
p81
sg36
S'101'
p82
sg38
S'23'
p83
sg40
S'DET'
p84
sg42
S'47'
p85
sg44
S'15'
p86
sg46
S'54'
p87
sg48
S'24'
p88
sg50
S'111'
p89
sg52
S'65'
p90
sg54
S'1996-97'
p91
sg56
S'54'
p92
sg58
S'23'
p93
sg60
S'.486'
p94
sg62
S'462'
p95
sg64
S'14'
p96
sba(isrc.gp1.models.Totals
Totals
p97
(dp98
g8
S'77'
p99
sg10
g11
sg12
S'.534'
p100
sg14
S'26'
p101
sg16
g3
sg17
g11
sg18
S'238'
p102
sg20
S'PF'
p103
sg22
S'.704'
p104
sg24
S'.534'
p105
sg26
S'NBA'
p106
sg28
S'25'
p107
sg30
S'176'
p108
sg32
S'183'
p109
sg34
S'71'
p110
sg36
S'175'
p111
sg38
S'24'
p112
sg40
S'DET'
p113
sg42
S'68'
p114
sg44
S'55'
p115
sg46
S'94'
p116
sg48
S'50'
p117
sg50
S'176'
p118
sg52
S'98'
p119
sg54
S'1997-98'
p120
sg56
S'94'
p121
sg58
S'28'
p122
sg60
S'.534'
p123
sg62
S'994'
p124
sg64
S'44'
p125
sba(isrc.gp1.models.Totals
Totals
p126
(dp127
g8
S'66'
p128
sg10
g11
sg12
S'.557'
p129
sg14
S'33'
p130
sg16
g3
sg17
g11
sg18
S'242'
p131
sg20
S'PF'
p132
sg22
S'.608'
p133
sg24
S'.557'
p134
sg26
S'NBA'
p135
sg28
S'27'
p136
sg30
S'174'
p137
sg32
S'156'
p138
sg34
S'79'
p139
sg36
S'170'
p140
sg38
S'25'
p141
sg40
S'DET'
p142
sg42
S'47'
p143
sg44
S'43'
p144
sg46
S'97'
p145
sg48
S'48'
p146
sg50
S'174'
p147
sg52
S'104'
p148
sg54
S'1998-99'
p149
sg56
S'97'
p150
sg58
S'36'
p151
sg60
S'.557'
p152
sg62
S'935'
p153
sg64
S'30'
p154
sba(isrc.gp1.models.Totals
Totals
p155
(dp156
g8
S'31'
p157
sg10
g11
sg12
S'.536'
p158
sg14
S'11'
p159
sg16
g3
sg17
g11
sg18
S'144'
p160
sg20
S'PF'
p161
sg22
S'.706'
p162
sg24
S'.536'
p163
sg26
S'NBA'
p164
sg28
S'24'
p165
sg30
S'112'
p166
sg32
S'118'
p167
sg34
S'34'
p168
sg36
S'102'
p169
sg38
S'26'
p170
sg40
S'TOT'
p171
sg42
S'38'
p172
sg44
S'31'
p173
sg46
S'60'
p174
sg48
S'24'
p175
sg50
S'112'
p176
sg52
S'71'
p177
sg54
S'1999-00'
p178
sg56
S'60'
p179
sg58
S'23'
p180
sg60
S'.536'
p181
sg62
S'498'
p182
sg64
S'3'
p183
sba(isrc.gp1.models.Totals
Totals
p184
(dp185
g8
S'5'
p186
sg10
g11
sg12
S'.471'
p187
sg14
g69
sg16
g3
sg17
g11
sg18
S'35'
p188
sg20
S'PF'
p189
sg22
S'.500'
p190
sg24
S'.471'
p191
sg26
S'NBA'
p192
sg28
g186
sg30
S'34'
p193
sg32
S'45'
p194
sg34
S'6'
p195
sg36
S'25'
p196
sg38
S'26'
p197
sg40
S'DET'
p198
sg42
S'21'
p199
sg44
S'12'
p200
sg46
S'16'
p201
sg48
g183
sg50
S'34'
p202
sg52
S'20'
p203
sg54
S'1999-00'
p204
sg56
S'16'
p205
sg58
S'11'
p206
sg60
S'.471'
p207
sg62
S'165'
p208
sg64
g183
sba(isrc.gp1.models.Totals
Totals
p209
(dp210
g8
S'26'
p211
sg10
g11
sg12
S'.564'
p212
sg14
S'10'
p213
sg16
g3
sg17
g11
sg18
S'109'
p214
sg20
S'PF'
p215
sg22
S'.750'
p216
sg24
S'.564'
p217
sg26
S'NBA'
p218
sg28
S'19'
p219
sg30
S'78'
p220
sg32
S'73'
p221
sg34
S'28'
p222
sg36
S'77'
p223
sg38
S'26'
p224
sg40
S'WAS'
p225
sg42
S'17'
p226
sg44
S'19'
p227
sg46
S'44'
p228
sg48
S'21'
p229
sg50
S'78'
p230
sg52
S'51'
p231
sg54
S'1999-00'
p232
sg56
S'44'
p233
sg58
S'12'
p234
sg60
S'.564'
p235
sg62
S'333'
p236
sg64
g11
sba(isrc.gp1.models.Totals
Totals
p237
(dp238
g8
S'84'
p239
sg10
g11
sg12
S'.566'
p240
sg14
S'21'
p241
sg16
g3
sg17
g11
sg18
S'210'
p242
sg20
S'PF'
p243
sg22
S'.613'
p244
sg24
S'.566'
p245
sg26
S'NBA'
p246
sg28
S'23'
p247
sg30
S'145'
p248
sg32
S'190'
p249
sg34
S'75'
p250
sg36
S'242'
p251
sg38
S'27'
p252
sg40
S'ORL'
p253
sg42
S'65'
p254
sg44
S'54'
p255
sg46
S'82'
p256
sg48
S'46'
p257
sg50
S'145'
p258
sg52
S'158'
p259
sg54
S'2000-01'
p260
sg56
S'82'
p261
sg58
S'48'
p262
sg60
S'.566'
p263
sg62
S'764'
p264
sg64
S'7'
p265
sba(isrc.gp1.models.Totals
Totals
p266
(dp267
g8
S'65'
p268
sg10
g11
sg12
S'.474'
p269
sg14
S'27'
p270
sg16
g3
sg17
g11
sg18
S'224'
p271
sg20
S'PF'
p272
sg22
S'.647'
p273
sg24
S'.474'
p274
sg26
S'NBA'
p275
sg28
S'20'
p276
sg30
S'190'
p277
sg32
S'180'
p278
sg34
S'68'
p279
sg36
S'176'
p280
sg38
S'28'
p281
sg40
S'ORL'
p282
sg42
S'68'
p283
sg44
S'44'
p284
sg46
S'90'
p285
sg48
S'44'
p286
sg50
S'190'
p287
sg52
S'111'
p288
sg54
S'2001-02'
p289
sg56
S'90'
p290
sg58
S'54'
p291
sg60
S'.474'
p292
sg62
S'714'
p293
sg64
g186
sba(isrc.gp1.models.Totals
Totals
p294
(dp295
g8
g11
sg10
g11
sg12
S'.000'
p296
sg14
g11
sg16
g3
sg17
g11
sg18
g69
sg20
S'PF'
p297
sg22
S'.500'
p298
sg24
S'.000'
p299
sg26
S'NBA'
p300
sg28
g11
sg30
g183
sg32
S'4'
p301
sg34
S'2'
p302
sg36
g11
sg38
S'29'
p303
sg40
S'DET'
p304
sg42
g69
sg44
g11
sg46
g11
sg48
g69
sg50
g183
sg52
g11
sg54
S'2002-03'
p305
sg56
g11
sg58
g11
sg60
S'.000'
p306
sg62
S'10'
p307
sg64
g11
sbasS'_college'
p308
S'Georgetown University'
p309
sS'_toYear'
p310
S'2003'
p311
sS'_height'
p312
S'6-8'
p313
sS'_active'
p314
I00
sS'_shootingHand'
p315
VRight
p316
sS'_name'
p317
S'Don Reid'
p318
sS'_per100Possessions'
p319
(lp320
(isrc.gp1.models.Per100Possession
Per100Possession
p321
(dp322
g8
S'4.3'
p323
sg10
S'0.0'
p324
sg12
S'.567'
p325
sS'_offensiveRating'
p326
S'113'
p327
sg14
S'0.6'
p328
sg16
g3
sg17
S'0.0'
p329
sg18
S'14.4'
p330
sg20
S'PF'
p331
sS'_defensiveRating'
p332
S'101'
p333
sg22
S'.662'
p334
sg26
S'NBA'
p335
sg28
S'2.6'
p336
sg30
S'10.3'
p337
sg32
S'10.9'
p338
sg34
S'4.2'
p339
sg36
S'11.1'
p340
sg38
S'22'
p341
sg40
S'DET'
p342
sg42
S'69'
p343
sg44
S'2.2'
p344
sg46
S'5.8'
p345
sg48
S'2.8'
p346
sg50
S'10.3'
p347
sg52
S'6.9'
p348
sg54
S'1995-96'
p349
sg56
S'5.8'
p350
sg58
S'2.3'
p351
sg60
S'.567'
p352
sg62
S'997'
p353
sg64
S'46'
p354
sba(isrc.gp1.models.Per100Possession
Per100Possession
p355
(dp356
g8
S'4.4'
p357
sg10
S'0.1'
p358
sg12
S'.482'
p359
sg326
S'104'
p360
sg14
S'1.7'
p361
sg16
S'.000'
p362
sg17
S'0.0'
p363
sg18
S'16.2'
p364
sg20
S'PF'
p365
sg332
S'102'
p366
sg22
S'.750'
p367
sg26
S'NBA'
p368
sg28
S'2.0'
p369
sg30
S'13.8'
p370
sg32
S'12.9'
p371
sg34
S'3.9'
p372
sg36
S'12.4'
p373
sg38
S'23'
p374
sg40
S'DET'
p375
sg42
S'47'
p376
sg44
S'1.8'
p377
sg46
S'6.6'
p378
sg48
S'2.9'
p379
sg50
S'13.6'
p380
sg52
S'8.0'
p381
sg54
S'1996-97'
p382
sg56
S'6.6'
p383
sg58
S'2.8'
p384
sg60
S'.486'
p385
sg62
S'462'
p386
sg64
S'14'
p387
sba(isrc.gp1.models.Per100Possession
Per100Possession
p388
(dp389
g8
S'4.2'
p390
sg10
S'0.0'
p391
sg12
S'.534'
p392
sg326
S'119'
p393
sg14
S'1.4'
p394
sg16
g3
sg17
S'0.0'
p395
sg18
S'13.0'
p396
sg20
S'PF'
p397
sg332
S'103'
p398
sg22
S'.704'
p399
sg26
S'NBA'
p400
sg28
S'1.4'
p401
sg30
S'9.6'
p402
sg32
S'10.0'
p403
sg34
S'3.9'
p404
sg36
S'9.6'
p405
sg38
S'24'
p406
sg40
S'DET'
p407
sg42
S'68'
p408
sg44
S'3.0'
p409
sg46
S'5.1'
p410
sg48
S'2.7'
p411
sg50
S'9.6'
p412
sg52
S'5.4'
p413
sg54
S'1997-98'
p414
sg56
S'5.1'
p415
sg58
S'1.5'
p416
sg60
S'.534'
p417
sg62
S'994'
p418
sg64
S'44'
p419
sba(isrc.gp1.models.Per100Possession
Per100Possession
p420
(dp421
g8
S'3.9'
p422
sg10
S'0.0'
p423
sg12
S'.557'
p424
sg326
S'113'
p425
sg14
S'2.0'
p426
sg16
g3
sg17
S'0.0'
p427
sg18
S'14.4'
p428
sg20
S'PF'
p429
sg332
S'100'
p430
sg22
S'.608'
p431
sg26
S'NBA'
p432
sg28
S'1.6'
p433
sg30
S'10.3'
p434
sg32
S'9.3'
p435
sg34
S'4.7'
p436
sg36
S'10.1'
p437
sg38
S'25'
p438
sg40
S'DET'
p439
sg42
S'47'
p440
sg44
S'2.6'
p441
sg46
S'5.8'
p442
sg48
S'2.9'
p443
sg50
S'10.3'
p444
sg52
S'6.2'
p445
sg54
S'1998-99'
p446
sg56
S'5.8'
p447
sg58
S'2.1'
p448
sg60
S'.557'
p449
sg62
S'935'
p450
sg64
S'30'
p451
sba(isrc.gp1.models.Per100Possession
Per100Possession
p452
(dp453
g8
S'3.2'
p454
sg10
S'0.0'
p455
sg12
S'.536'
p456
sg326
S'107'
p457
sg14
S'1.1'
p458
sg16
g3
sg17
S'0.0'
p459
sg18
S'14.8'
p460
sg20
S'PF'
p461
sg332
S'101'
p462
sg22
S'.706'
p463
sg26
S'NBA'
p464
sg28
S'2.5'
p465
sg30
S'11.5'
p466
sg32
S'12.1'
p467
sg34
S'3.5'
p468
sg36
S'10.5'
p469
sg38
S'26'
p470
sg40
S'TOT'
p471
sg42
S'38'
p472
sg44
S'3.2'
p473
sg46
S'6.2'
p474
sg48
S'2.5'
p475
sg50
S'11.5'
p476
sg52
S'7.3'
p477
sg54
S'1999-00'
p478
sg56
S'6.2'
p479
sg58
S'2.4'
p480
sg60
S'.536'
p481
sg62
S'498'
p482
sg64
g183
sba(isrc.gp1.models.Per100Possession
Per100Possession
p483
(dp484
g8
S'1.5'
p485
sg10
S'0.0'
p486
sg12
S'.471'
p487
sg326
S'79'
p488
sg14
S'0.3'
p489
sg16
g3
sg17
S'0.0'
p490
sg18
S'10.6'
p491
sg20
S'PF'
p492
sg332
S'103'
p493
sg22
S'.500'
p494
sg26
S'NBA'
p495
sg28
S'1.5'
p496
sg30
S'10.3'
p497
sg32
S'13.7'
p498
sg34
S'1.8'
p499
sg36
S'7.6'
p500
sg38
S'26'
p501
sg40
S'DET'
p502
sg42
S'21'
p503
sg44
S'3.6'
p504
sg46
S'4.9'
p505
sg48
S'0.9'
p506
sg50
S'10.3'
p507
sg52
S'6.1'
p508
sg54
S'1999-00'
p509
sg56
S'4.9'
p510
sg58
S'3.3'
p511
sg60
S'.471'
p512
sg62
S'165'
p513
sg64
g183
sba(isrc.gp1.models.Per100Possession
Per100Possession
p514
(dp515
g8
S'4.0'
p516
sg10
S'0.0'
p517
sg12
S'.564'
p518
sg326
S'120'
p519
sg14
S'1.6'
p520
sg16
g3
sg17
S'0.0'
p521
sg18
S'16.9'
p522
sg20
S'PF'
p523
sg332
S'101'
p524
sg22
S'.750'
p525
sg26
S'NBA'
p526
sg28
S'3.0'
p527
sg30
S'12.1'
p528
sg32
S'11.3'
p529
sg34
S'4.4'
p530
sg36
S'12.0'
p531
sg38
S'26'
p532
sg40
S'WAS'
p533
sg42
S'17'
p534
sg44
S'3.0'
p535
sg46
S'6.8'
p536
sg48
S'3.3'
p537
sg50
S'12.1'
p538
sg52
S'7.9'
p539
sg54
S'1999-00'
p540
sg56
S'6.8'
p541
sg58
S'1.9'
p542
sg60
S'.564'
p543
sg62
S'333'
p544
sg64
g11
sba(isrc.gp1.models.Per100Possession
Per100Possession
p545
(dp546
g8
S'5.7'
p547
sg10
S'0.0'
p548
sg12
S'.566'
p549
sg326
S'107'
p550
sg14
S'1.4'
p551
sg16
g3
sg17
S'0.0'
p552
sg18
S'14.2'
p553
sg20
S'PF'
p554
sg332
S'97'
p555
sg22
S'.613'
p556
sg26
S'NBA'
p557
sg28
S'1.6'
p558
sg30
S'9.8'
p559
sg32
S'12.8'
p560
sg34
S'5.1'
p561
sg36
S'16.3'
p562
sg38
S'27'
p563
sg40
S'ORL'
p564
sg42
S'65'
p565
sg44
S'3.6'
p566
sg46
S'5.5'
p567
sg48
S'3.1'
p568
sg50
S'9.8'
p569
sg52
S'10.7'
p570
sg54
S'2000-01'
p571
sg56
S'5.5'
p572
sg58
S'3.2'
p573
sg60
S'.566'
p574
sg62
S'764'
p575
sg64
g265
sba(isrc.gp1.models.Per100Possession
Per100Possession
p576
(dp577
g8
S'4.7'
p578
sg10
S'0.0'
p579
sg12
S'.474'
p580
sg326
S'96'
p581
sg14
S'1.9'
p582
sg16
g3
sg17
S'0.0'
p583
sg18
S'16.2'
p584
sg20
S'PF'
p585
sg332
S'102'
p586
sg22
S'.647'
p587
sg26
S'NBA'
p588
sg28
S'1.4'
p589
sg30
S'13.7'
p590
sg32
S'13.0'
p591
sg34
S'4.9'
p592
sg36
S'12.7'
p593
sg38
S'28'
p594
sg40
S'ORL'
p595
sg42
S'68'
p596
sg44
S'3.2'
p597
sg46
S'6.5'
p598
sg48
S'3.2'
p599
sg50
S'13.7'
p600
sg52
S'8.0'
p601
sg54
S'2001-02'
p602
sg56
S'6.5'
p603
sg58
S'3.9'
p604
sg60
S'.474'
p605
sg62
S'714'
p606
sg64
g186
sba(isrc.gp1.models.Per100Possession
Per100Possession
p607
(dp608
g8
S'0.0'
p609
sg10
S'0.0'
p610
sg12
S'.000'
p611
sg326
S'32'
p612
sg14
S'0.0'
p613
sg16
g3
sg17
S'0.0'
p614
sg18
S'5.5'
p615
sg20
S'PF'
p616
sg332
S'108'
p617
sg22
S'.500'
p618
sg26
S'NBA'
p619
sg28
S'0.0'
p620
sg30
S'16.6'
p621
sg32
S'22.1'
p622
sg34
S'11.1'
p623
sg36
S'0.0'
p624
sg38
S'29'
p625
sg40
S'DET'
p626
sg42
g69
sg44
S'0.0'
p627
sg46
S'0.0'
p628
sg48
S'5.5'
p629
sg50
S'16.6'
p630
sg52
S'0.0'
p631
sg54
S'2002-03'
p632
sg56
S'0.0'
p633
sg58
S'0.0'
p634
sg60
S'.000'
p635
sg62
S'10'
p636
sg64
g11
sbasS'_advanced'
p637
(lp638
(isrc.gp1.models.Advanced
Advanced
p639
(dp640
S'_offensiveReboundPercentage'
p641
S'9.8'
p642
sS'_turnOverPercentage'
p643
S'15.7'
p644
sS'_winSharesPer48Minutes'
p645
S'.141'
p646
sS'_stealPercentage'
p647
S'2.6'
p648
sS'_usagePercentage'
p649
S'12.5'
p650
sS'_totalReboundsPercentage'
p651
S'12.3'
p652
sS'_defensiveBoxPlusMinus'
p653
S'2.1'
p654
sg20
S'PF'
p655
sS'_valueOverReplacementPlayer'
p656
S'0.5'
p657
sS'_trueShootingPercentage'
p658
S'.595'
p659
sS'_defensiveReboundPercentage'
p660
S'14.6'
p661
sS'_freeThrowsAttempRate'
p662
S'.412'
p663
sS'_threePointsAttempRate'
p664
S'.000'
p665
sg26
S'NBA'
p666
sS'_offensiveBoxPlusMinues'
p667
S'-2.1'
p668
sS'_assistPercentage'
p669
S'1.8'
p670
sS'_defensiveWinShares'
p671
S'1.8'
p672
sg38
S'22'
p673
sg40
S'DET'
p674
sg42
S'69'
p675
sS'_blockPercentage'
p676
S'3.2'
p677
sS'_playerEfficiencyRating'
p678
S'12.1'
p679
sS'_offensiveWinShares'
p680
S'1.1'
p681
sg62
S'997'
p682
sS'_boxPlusMinus'
p683
S'0.1'
p684
sg54
S'1995-96'
p685
sS'_winShares'
p686
S'2.9'
p687
sba(isrc.gp1.models.Advanced
Advanced
p688
(dp689
g641
S'9.9'
p690
sg643
S'15.4'
p691
sg645
S'.109'
p692
sg647
S'2.0'
p693
sg649
S'16.0'
p694
sg651
S'13.6'
p695
sg653
S'1.2'
p696
sg20
S'PF'
p697
sg656
S'0.0'
p698
sg658
S'.523'
p699
sg660
S'17.1'
p700
sg662
S'.286'
p701
sg664
S'.009'
p702
sg26
S'NBA'
p703
sg667
S'-3.1'
p704
sg669
S'5.1'
p705
sg671
S'0.8'
p706
sg38
S'23'
p707
sg40
S'DET'
p708
sg42
S'47'
p709
sg676
S'2.7'
p710
sg678
S'11.1'
p711
sg680
S'0.3'
p712
sg62
S'462'
p713
sg683
S'-1.9'
p714
sg54
S'1996-97'
p715
sg686
S'1.0'
p716
sba(isrc.gp1.models.Advanced
Advanced
p717
(dp718
g641
S'9.2'
p719
sg643
S'11.9'
p720
sg645
S'.135'
p721
sg647
S'1.4'
p722
sg649
S'11.0'
p723
sg651
S'10.5'
p724
sg653
S'2.0'
p725
sg20
S'PF'
p726
sg656
S'0.7'
p727
sg658
S'.574'
p728
sg660
S'11.8'
p729
sg662
S'.403'
p730
sg664
S'.000'
p731
sg26
S'NBA'
p732
sg667
S'-1.2'
p733
sg669
S'4.2'
p734
sg671
S'1.3'
p735
sg38
S'24'
p736
sg40
S'DET'
p737
sg42
S'68'
p738
sg676
S'4.2'
p739
sg678
S'11.4'
p740
sg680
S'1.5'
p741
sg62
S'994'
p742
sg683
S'0.8'
p743
sg54
S'1997-98'
p744
sg686
S'2.8'
p745
sba(isrc.gp1.models.Advanced
Advanced
p746
(dp747
g641
S'8.6'
p748
sg643
S'14.7'
p749
sg645
S'.139'
p750
sg647
S'1.6'
p751
sg649
S'12.4'
p752
sg651
S'11.1'
p753
sg653
S'2.2'
p754
sg20
S'PF'
p755
sg656
S'0.9'
p756
sg658
S'.580'
p757
sg660
S'13.7'
p758
sg662
S'.454'
p759
sg664
S'.000'
p760
sg26
S'NBA'
p761
sg667
S'-0.5'
p762
sg669
S'6.0'
p763
sg671
S'1.3'
p764
sg38
S'25'
p765
sg40
S'DET'
p766
sg42
S'47'
p767
sg676
S'3.7'
p768
sg678
S'12.5'
p769
sg680
S'1.4'
p770
sg62
S'935'
p771
sg683
S'1.7'
p772
sg54
S'1998-99'
p773
sg686
S'2.7'
p774
sba(isrc.gp1.models.Advanced
Advanced
p775
(dp776
g641
S'7.1'
p777
sg643
S'15.3'
p778
sg645
S'.110'
p779
sg647
S'2.5'
p780
sg649
S'13.3'
p781
sg651
S'11.8'
p782
sg653
S'2.3'
p783
sg20
S'PF'
p784
sg656
S'0.3'
p785
sg658
S'.567'
p786
sg660
S'16.6'
p787
sg662
S'.304'
p788
sg664
S'.000'
p789
sg26
S'NBA'
p790
sg667
S'-2.0'
p791
sg669
S'3.5'
p792
sg671
S'0.7'
p793
sg38
S'26'
p794
sg40
S'TOT'
p795
sg42
S'38'
p796
sg676
S'4.5'
p797
sg678
S'12.1'
p798
sg680
S'0.5'
p799
sg62
S'498'
p800
sg683
S'0.3'
p801
sg54
S'1999-00'
p802
sg686
S'1.1'
p803
sba(isrc.gp1.models.Advanced
Advanced
p804
(dp805
g641
S'3.5'
p806
sg643
S'23.1'
p807
sg645
S'-0.006'
p808
sg647
S'1.5'
p809
sg649
S'12.7'
p810
sg651
S'8.8'
p811
sg653
S'1.2'
p812
sg20
S'PF'
p813
sg656
S'-0.2'
p814
sg658
S'.478'
p815
sg660
S'14.0'
p816
sg662
S'.176'
p817
sg664
S'.000'
p818
sg26
S'NBA'
p819
sg667
S'-6.8'
p820
sg669
S'0.9'
p821
sg671
S'0.2'
p822
sg38
S'26'
p823
sg40
S'DET'
p824
sg42
S'21'
p825
sg676
S'5.3'
p826
sg678
S'4.1'
p827
sg680
S'-0.2'
p828
sg62
S'165'
p829
sg683
S'-5.6'
p830
sg54
S'1999-00'
p831
sg686
S'0.0'
p832
sba(isrc.gp1.models.Advanced
Advanced
p833
(dp834
g641
S'8.9'
p835
sg643
S'11.7'
p836
sg645
S'.167'
p837
sg647
S'3.0'
p838
sg649
S'13.6'
p839
sg651
S'13.3'
p840
sg653
S'2.9'
p841
sg20
S'PF'
p842
sg656
S'0.4'
p843
sg658
S'.603'
p844
sg660
S'17.8'
p845
sg662
S'.359'
p846
sg664
S'.000'
p847
sg26
S'NBA'
p848
sg667
S'0.3'
p849
sg669
S'4.8'
p850
sg671
S'0.5'
p851
sg38
S'26'
p852
sg40
S'WAS'
p853
sg42
S'17'
p854
sg676
S'4.1'
p855
sg678
S'16.0'
p856
sg680
S'0.7'
p857
sg62
S'333'
p858
sg683
S'3.2'
p859
sg54
S'1999-00'
p860
sg686
S'1.2'
p861
sba(isrc.gp1.models.Advanced
Advanced
p862
(dp863
g641
S'11.9'
p864
sg643
S'21.2'
p865
sg645
S'.141'
p866
sg647
S'1.6'
p867
sg649
S'13.1'
p868
sg651
S'17.6'
p869
sg653
S'2.2'
p870
sg20
S'PF'
p871
sg656
S'0.3'
p872
sg658
S'.590'
p873
sg660
S'23.5'
p874
sg662
S'.517'
p875
sg664
S'.000'
p876
sg26
S'NBA'
p877
sg667
S'-2.8'
p878
sg669
S'4.2'
p879
sg671
S'1.4'
p880
sg38
S'27'
p881
sg40
S'ORL'
p882
sg42
S'65'
p883
sg676
S'5.2'
p884
sg678
S'13.1'
p885
sg680
S'0.8'
p886
sg62
S'764'
p887
sg683
S'-0.6'
p888
sg54
S'2000-01'
p889
sg686
S'2.3'
p890
sba(isrc.gp1.models.Advanced
Advanced
p891
(dp892
g641
S'10.1'
p893
sg643
S'19.7'
p894
sg645
S'.062'
p895
sg647
S'1.4'
p896
sg649
S'17.2'
p897
sg651
S'13.8'
p898
sg653
S'1.0'
p899
sg20
S'PF'
p900
sg656
S'-0.2'
p901
sg658
S'.509'
p902
sg660
S'17.5'
p903
sg662
S'.358'
p904
sg664
S'.000'
p905
sg26
S'NBA'
p906
sg667
S'-4.2'
p907
sg669
S'5.8'
p908
sg671
S'0.9'
p909
sg38
S'28'
p910
sg40
S'ORL'
p911
sg42
S'68'
p912
sg676
S'4.3'
p913
sg678
S'10.1'
p914
sg680
S'0.0'
p915
sg62
S'714'
p916
sg683
S'-3.2'
p917
sg54
S'2001-02'
p918
sg686
S'0.9'
p919
sba(isrc.gp1.models.Advanced
Advanced
p920
(dp921
g641
S'0.0'
p922
sg643
S'0.0'
p923
sg645
S'-0.285'
p924
sg647
S'0.0'
p925
sg649
S'18.7'
p926
sg651
S'0.0'
p927
sg653
S'-4.7'
p928
sg20
S'PF'
p929
sg656
S'0.0'
p930
sg658
S'.129'
p931
sg660
S'0.0'
p932
sg662
S'.667'
p933
sg664
S'.000'
p934
sg26
S'NBA'
p935
sg667
S'-14.7'
p936
sg669
S'0.0'
p937
sg671
S'0.0'
p938
sg38
S'29'
p939
sg40
S'DET'
p940
sg42
g69
sg676
S'0.0'
p941
sg678
S'-17.3'
p942
sg680
S'-0.1'
p943
sg62
S'10'
p944
sg683
S'-19.5'
p945
sg54
S'2002-03'
p946
sg686
S'-0.1'
p947
sbasS'_per36Minutes'
p948
(lp949
(isrc.gp1.models.Per36Minutes
Per36Minutes
p950
(dp951
g8
S'2.8'
p952
sg10
S'0.0'
p953
sg12
S'.567'
p954
sg14
S'0.4'
p955
sg16
g3
sg17
S'0.0'
p956
sg18
S'9.5'
p957
sg20
S'PF'
p958
sg22
S'.662'
p959
sg26
S'NBA'
p960
sg28
S'1.7'
p961
sg30
S'6.8'
p962
sg32
S'7.2'
p963
sg34
S'2.8'
p964
sg36
S'7.3'
p965
sg38
S'22'
p966
sg40
S'DET'
p967
sg42
S'69'
p968
sg44
S'1.4'
p969
sg46
S'3.8'
p970
sg48
S'1.8'
p971
sg50
S'6.8'
p972
sg52
S'4.5'
p973
sg54
S'1995-96'
p974
sg56
S'3.8'
p975
sg58
S'1.5'
p976
sg60
S'.567'
p977
sg62
S'997'
p978
sg64
S'46'
p979
sba(isrc.gp1.models.Per36Minutes
Per36Minutes
p980
(dp981
g8
S'2.8'
p982
sg10
S'0.1'
p983
sg12
S'.482'
p984
sg14
S'1.1'
p985
sg16
S'.000'
p986
sg17
S'0.0'
p987
sg18
S'10.3'
p988
sg20
S'PF'
p989
sg22
S'.750'
p990
sg26
S'NBA'
p991
sg28
S'1.2'
p992
sg30
S'8.7'
p993
sg32
S'8.2'
p994
sg34
S'2.5'
p995
sg36
S'7.9'
p996
sg38
S'23'
p997
sg40
S'DET'
p998
sg42
S'47'
p999
sg44
S'1.2'
p1000
sg46
S'4.2'
p1001
sg48
S'1.9'
p1002
sg50
S'8.6'
p1003
sg52
S'5.1'
p1004
sg54
S'1996-97'
p1005
sg56
S'4.2'
p1006
sg58
S'1.8'
p1007
sg60
S'.486'
p1008
sg62
S'462'
p1009
sg64
S'14'
p1010
sba(isrc.gp1.models.Per36Minutes
Per36Minutes
p1011
(dp1012
g8
S'2.8'
p1013
sg10
S'0.0'
p1014
sg12
S'.534'
p1015
sg14
S'0.9'
p1016
sg16
g3
sg17
S'0.0'
p1017
sg18
S'8.6'
p1018
sg20
S'PF'
p1019
sg22
S'.704'
p1020
sg26
S'NBA'
p1021
sg28
S'0.9'
p1022
sg30
S'6.4'
p1023
sg32
S'6.6'
p1024
sg34
S'2.6'
p1025
sg36
S'6.3'
p1026
sg38
S'24'
p1027
sg40
S'DET'
p1028
sg42
S'68'
p1029
sg44
S'2.0'
p1030
sg46
S'3.4'
p1031
sg48
S'1.8'
p1032
sg50
S'6.4'
p1033
sg52
S'3.5'
p1034
sg54
S'1997-98'
p1035
sg56
S'3.4'
p1036
sg58
S'1.0'
p1037
sg60
S'.534'
p1038
sg62
S'994'
p1039
sg64
S'44'
p1040
sba(isrc.gp1.models.Per36Minutes
Per36Minutes
p1041
(dp1042
g8
S'2.5'
p1043
sg10
S'0.0'
p1044
sg12
S'.557'
p1045
sg14
S'1.3'
p1046
sg16
g3
sg17
S'0.0'
p1047
sg18
S'9.3'
p1048
sg20
S'PF'
p1049
sg22
S'.608'
p1050
sg26
S'NBA'
p1051
sg28
S'1.0'
p1052
sg30
S'6.7'
p1053
sg32
S'6.0'
p1054
sg34
S'3.0'
p1055
sg36
S'6.5'
p1056
sg38
S'25'
p1057
sg40
S'DET'
p1058
sg42
S'47'
p1059
sg44
S'1.7'
p1060
sg46
S'3.7'
p1061
sg48
S'1.8'
p1062
sg50
S'6.7'
p1063
sg52
S'4.0'
p1064
sg54
S'1998-99'
p1065
sg56
S'3.7'
p1066
sg58
S'1.4'
p1067
sg60
S'.557'
p1068
sg62
S'935'
p1069
sg64
S'30'
p1070
sba(isrc.gp1.models.Per36Minutes
Per36Minutes
p1071
(dp1072
g8
S'2.2'
p1073
sg10
S'0.0'
p1074
sg12
S'.536'
p1075
sg14
S'0.8'
p1076
sg16
g3
sg17
S'0.0'
p1077
sg18
S'10.4'
p1078
sg20
S'PF'
p1079
sg22
S'.706'
p1080
sg26
S'NBA'
p1081
sg28
S'1.7'
p1082
sg30
S'8.1'
p1083
sg32
S'8.5'
p1084
sg34
S'2.5'
p1085
sg36
S'7.4'
p1086
sg38
S'26'
p1087
sg40
S'TOT'
p1088
sg42
S'38'
p1089
sg44
S'2.2'
p1090
sg46
S'4.3'
p1091
sg48
S'1.7'
p1092
sg50
S'8.1'
p1093
sg52
S'5.1'
p1094
sg54
S'1999-00'
p1095
sg56
S'4.3'
p1096
sg58
S'1.7'
p1097
sg60
S'.536'
p1098
sg62
S'498'
p1099
sg64
g183
sba(isrc.gp1.models.Per36Minutes
Per36Minutes
p1100
(dp1101
g8
S'1.1'
p1102
sg10
S'0.0'
p1103
sg12
S'.471'
p1104
sg14
S'0.2'
p1105
sg16
g3
sg17
S'0.0'
p1106
sg18
S'7.6'
p1107
sg20
S'PF'
p1108
sg22
S'.500'
p1109
sg26
S'NBA'
p1110
sg28
S'1.1'
p1111
sg30
S'7.4'
p1112
sg32
S'9.8'
p1113
sg34
S'1.3'
p1114
sg36
S'5.5'
p1115
sg38
S'26'
p1116
sg40
S'DET'
p1117
sg42
S'21'
p1118
sg44
S'2.6'
p1119
sg46
S'3.5'
p1120
sg48
S'0.7'
p1121
sg50
S'7.4'
p1122
sg52
S'4.4'
p1123
sg54
S'1999-00'
p1124
sg56
S'3.5'
p1125
sg58
S'2.4'
p1126
sg60
S'.471'
p1127
sg62
S'165'
p1128
sg64
g183
sba(isrc.gp1.models.Per36Minutes
Per36Minutes
p1129
(dp1130
g8
S'2.8'
p1131
sg10
S'0.0'
p1132
sg12
S'.564'
p1133
sg14
S'1.1'
p1134
sg16
g3
sg17
S'0.0'
p1135
sg18
S'11.8'
p1136
sg20
S'PF'
p1137
sg22
S'.750'
p1138
sg26
S'NBA'
p1139
sg28
S'2.1'
p1140
sg30
S'8.4'
p1141
sg32
S'7.9'
p1142
sg34
S'3.0'
p1143
sg36
S'8.3'
p1144
sg38
S'26'
p1145
sg40
S'WAS'
p1146
sg42
S'17'
p1147
sg44
S'2.1'
p1148
sg46
S'4.8'
p1149
sg48
S'2.3'
p1150
sg50
S'8.4'
p1151
sg52
S'5.5'
p1152
sg54
S'1999-00'
p1153
sg56
S'4.8'
p1154
sg58
S'1.3'
p1155
sg60
S'.564'
p1156
sg62
S'333'
p1157
sg64
g11
sba(isrc.gp1.models.Per36Minutes
Per36Minutes
p1158
(dp1159
g8
S'4.0'
p1160
sg10
S'0.0'
p1161
sg12
S'.566'
p1162
sg14
S'1.0'
p1163
sg16
g3
sg17
S'0.0'
p1164
sg18
S'9.9'
p1165
sg20
S'PF'
p1166
sg22
S'.613'
p1167
sg26
S'NBA'
p1168
sg28
S'1.1'
p1169
sg30
S'6.8'
p1170
sg32
S'9.0'
p1171
sg34
S'3.5'
p1172
sg36
S'11.4'
p1173
sg38
S'27'
p1174
sg40
S'ORL'
p1175
sg42
S'65'
p1176
sg44
S'2.5'
p1177
sg46
S'3.9'
p1178
sg48
S'2.2'
p1179
sg50
S'6.8'
p1180
sg52
S'7.4'
p1181
sg54
S'2000-01'
p1182
sg56
S'3.9'
p1183
sg58
S'2.3'
p1184
sg60
S'.566'
p1185
sg62
S'764'
p1186
sg64
g265
sba(isrc.gp1.models.Per36Minutes
Per36Minutes
p1187
(dp1188
g8
S'3.3'
p1189
sg10
S'0.0'
p1190
sg12
S'.474'
p1191
sg14
S'1.4'
p1192
sg16
g3
sg17
S'0.0'
p1193
sg18
S'11.3'
p1194
sg20
S'PF'
p1195
sg22
S'.647'
p1196
sg26
S'NBA'
p1197
sg28
S'1.0'
p1198
sg30
S'9.6'
p1199
sg32
S'9.1'
p1200
sg34
S'3.4'
p1201
sg36
S'8.9'
p1202
sg38
S'28'
p1203
sg40
S'ORL'
p1204
sg42
S'68'
p1205
sg44
S'2.2'
p1206
sg46
S'4.5'
p1207
sg48
S'2.2'
p1208
sg50
S'9.6'
p1209
sg52
S'5.6'
p1210
sg54
S'2001-02'
p1211
sg56
S'4.5'
p1212
sg58
S'2.7'
p1213
sg60
S'.474'
p1214
sg62
S'714'
p1215
sg64
g186
sba(isrc.gp1.models.Per36Minutes
Per36Minutes
p1216
(dp1217
g8
S'0.0'
p1218
sg10
S'0.0'
p1219
sg12
S'.000'
p1220
sg14
S'0.0'
p1221
sg16
g3
sg17
S'0.0'
p1222
sg18
S'3.6'
p1223
sg20
S'PF'
p1224
sg22
S'.500'
p1225
sg26
S'NBA'
p1226
sg28
S'0.0'
p1227
sg30
S'10.8'
p1228
sg32
S'14.4'
p1229
sg34
S'7.2'
p1230
sg36
S'0.0'
p1231
sg38
S'29'
p1232
sg40
S'DET'
p1233
sg42
g69
sg44
S'0.0'
p1234
sg46
S'0.0'
p1235
sg48
S'3.6'
p1236
sg50
S'10.8'
p1237
sg52
S'0.0'
p1238
sg54
S'2002-03'
p1239
sg56
S'0.0'
p1240
sg58
S'0.0'
p1241
sg60
S'.000'
p1242
sg62
S'10'
p1243
sg64
g11
sbasS'_fromYear'
p1244
S'1996'
p1245
sS'_url'
p1246
S'http://www.basketball-reference.com/players/r/reiddo01.html'
p1247
sS'_perGame'
p1248
(isrc.gp1.models.PerGame
PerGame
p1249
(dp1250
g8
S'0.0'
p1251
sg10
S'0.0'
p1252
sg12
S'.000'
p1253
sS'_effectiveFieldGalPercentage'
p1254
S'.000'
p1255
sg14
S'0.0'
p1256
sg16
g3
sg17
S'0.0'
p1257
sg18
S'1.0'
p1258
sg20
S'PF'
p1259
sg22
S'.500'
p1260
sg26
S'NBA'
p1261
sg28
S'0.0'
p1262
sg32
S'4.0'
p1263
sS'_fieldGoalsttempted'
p1264
S'3.0'
p1265
sg34
S'2.0'
p1266
sg36
S'0.0'
p1267
sg38
S'29'
p1268
sg40
S'DET'
p1269
sg42
g69
sg44
S'0.0'
p1270
sg46
S'0.0'
p1271
sg48
S'1.0'
p1272
sg50
S'3.0'
p1273
sg52
S'0.0'
p1274
sg54
S'2002-03'
p1275
sg56
S'0.0'
p1276
sg58
S'0.0'
p1277
sg60
S'.000'
p1278
sg62
S'10.0'
p1279
sg64
g11
sbsS'_weight'
p1280
S'250'
p1281
sS'_dob'
p1282
S'30-12-1973'
p1283
sS'_salary'
p1284
(lp1285
(isrc.gp1.models.Salary
Salary
p1286
(dp1287
g40
S'Detroit Pistons'
p1288
sg26
S'NBA'
p1289
sg1284
S'$200,000'
p1290
sg54
S'1995-96'
p1291
sba(isrc.gp1.models.Salary
Salary
p1292
(dp1293
g40
S'Detroit Pistons'
p1294
sg26
S'NBA'
p1295
sg1284
S'$400,000'
p1296
sg54
S'1996-97'
p1297
sba(isrc.gp1.models.Salary
Salary
p1298
(dp1299
g40
S'Detroit Pistons'
p1300
sg26
S'NBA'
p1301
sg1284
S'$1,000,000'
p1302
sg54
S'1997-98'
p1303
sba(isrc.gp1.models.Salary
Salary
p1304
(dp1305
g40
S'Detroit Pistons'
p1306
sg26
S'NBA'
p1307
sg1284
S'$800,000'
p1308
sg54
S'1998-99'
p1309
sba(isrc.gp1.models.Salary
Salary
p1310
(dp1311
g40
S'Detroit Pistons'
p1312
sg26
S'NBA'
p1313
sg1284
S'$1,000,000'
p1314
sg54
S'1999-00'
p1315
sba(isrc.gp1.models.Salary
Salary
p1316
(dp1317
g40
S'Orlando Magic'
p1318
sg26
S'NBA'
p1319
sg1284
S'$611,000'
p1320
sg54
S'2000-01'
p1321
sba(isrc.gp1.models.Salary
Salary
p1322
(dp1323
g40
S'Orlando Magic'
p1324
sg26
S'NBA'
p1325
sg1284
S'$1,000,000'
p1326
sg54
S'2001-02'
p1327
sba(isrc.gp1.models.Salary
Salary
p1328
(dp1329
g40
S'Detroit Pistons'
p1330
sg26
S'NBA'
p1331
sg1284
S'$1,100,000'
p1332
sg54
S'2002-03'
p1333
sbasg20
S'F'
p1334
sb.