(isrc.gp1.models.Player
Player
p0
(dp1
S'_experience'
p2
S'NA'
p3
sS'_totals'
p4
(lp5
(isrc.gp1.models.Totals
Totals
p6
(dp7
S'_offensiveRebounds'
p8
g3
sS'_threePointsAttempted'
p9
g3
sS'_fieldGoalsPercentage'
p10
S'.402'
p11
sS'_assist'
p12
S'22'
p13
sS'_threePointsPercentage'
p14
g3
sS'_threePoints'
p15
g3
sS'_points'
p16
S'117'
p17
sS'_position'
p18
S'SG'
p19
sS'_freeThrowsPercentage'
p20
S'.648'
p21
sS'_effectiveFieldGoalPercentage'
p22
S'.402'
p23
sS'_league'
p24
S'NBA'
p25
sS'_steals'
p26
g3
sS'_fieldGoalsAttempted'
p27
S'102'
p28
sS'_personalFouls'
p29
S'58'
p30
sS'_freeThrowsAttempted'
p31
S'54'
p32
sS'_totalRebounds'
p33
S'61'
p34
sS'_age'
p35
S'22'
p36
sS'_team'
p37
S'BOS'
p38
sS'_games'
p39
S'34'
p40
sS'_blocks'
p41
g3
sS'_twoPoints'
p42
S'41'
p43
sS'_freeThrows'
p44
S'35'
p45
sS'_twoPointsAttempted'
p46
S'102'
p47
sS'_defensiveRebounds'
p48
g3
sS'_season'
p49
S'1970-71'
p50
sS'_fieldGoals'
p51
S'41'
p52
sS'_turnOvers'
p53
g3
sS'_twoPointsPercentage'
p54
S'.402'
p55
sS'_minutesPlayed'
p56
S'266'
p57
sS'_gamesStarted'
p58
g3
sba(isrc.gp1.models.Totals
Totals
p59
(dp60
g8
g3
sg9
g3
sg10
S'.320'
p61
sg12
S'17'
p62
sg14
g3
sg15
g3
sg16
S'55'
p63
sg18
S'SG'
p64
sg20
S'.742'
p65
sg22
S'.320'
p66
sg24
S'NBA'
p67
sg26
g3
sg27
S'50'
p68
sg29
S'34'
p69
sg31
S'31'
p70
sg33
S'30'
p71
sg35
S'23'
p72
sg37
S'BOS'
p73
sg39
S'28'
p74
sg41
g3
sg42
S'16'
p75
sg44
S'23'
p76
sg46
S'50'
p77
sg48
g3
sg49
S'1971-72'
p78
sg51
S'16'
p79
sg53
g3
sg54
S'.320'
p80
sg56
S'150'
p81
sg58
g3
sbasS'_college'
p82
S'Jacksonville University'
p83
sS'_toYear'
p84
S'1972'
p85
sS'_height'
p86
S'6-5'
p87
sS'_active'
p88
I00
sS'_shootingHand'
p89
VRight
p90
sS'_name'
p91
S'Rex Morgan'
p92
sS'_per100Possessions'
p93
(lp94
sS'_advanced'
p95
(lp96
(isrc.gp1.models.Advanced
Advanced
p97
(dp98
S'_offensiveReboundPercentage'
p99
g3
sS'_turnOverPercentage'
p100
g3
sS'_winSharesPer48Minutes'
p101
S'.074'
p102
sS'_stealPercentage'
p103
g3
sS'_usagePercentage'
p104
g3
sS'_totalReboundsPercentage'
p105
S'9.9'
p106
sS'_defensiveBoxPlusMinus'
p107
g3
sg18
S'SG'
p108
sS'_valueOverReplacementPlayer'
p109
g3
sS'_trueShootingPercentage'
p110
S'.465'
p111
sS'_defensiveReboundPercentage'
p112
g3
sS'_freeThrowsAttempRate'
p113
S'.529'
p114
sS'_threePointsAttempRate'
p115
g3
sg24
S'NBA'
p116
sS'_offensiveBoxPlusMinues'
p117
g3
sS'_assistPercentage'
p118
S'10.2'
p119
sS'_defensiveWinShares'
p120
S'0.4'
p121
sg35
S'22'
p122
sg37
S'BOS'
p123
sg39
S'34'
p124
sS'_blockPercentage'
p125
g3
sS'_playerEfficiencyRating'
p126
S'10.7'
p127
sS'_offensiveWinShares'
p128
S'0.0'
p129
sg56
S'266'
p130
sS'_boxPlusMinus'
p131
g3
sg49
S'1970-71'
p132
sS'_winShares'
p133
S'0.4'
p134
sba(isrc.gp1.models.Advanced
Advanced
p135
(dp136
g99
g3
sg100
g3
sg101
S'.045'
p137
sg103
g3
sg104
g3
sg105
S'9.1'
p138
sg107
g3
sg18
S'SG'
p139
sg109
g3
sg110
S'.432'
p140
sg112
g3
sg113
S'.620'
p141
sg115
g3
sg24
S'NBA'
p142
sg117
g3
sg118
S'13.2'
p143
sg120
S'0.2'
p144
sg35
S'23'
p145
sg37
S'BOS'
p146
sg39
S'28'
p147
sg125
g3
sg126
S'8.7'
p148
sg128
S'-0.1'
p149
sg56
S'150'
p150
sg131
g3
sg49
S'1971-72'
p151
sg133
S'0.1'
p152
sbasS'_per36Minutes'
p153
(lp154
(isrc.gp1.models.Per36Minutes
Per36Minutes
p155
(dp156
g8
g3
sg9
g3
sg10
S'.402'
p157
sg12
S'3.0'
p158
sg14
g3
sg15
g3
sg16
S'15.8'
p159
sg18
S'SG'
p160
sg20
S'.648'
p161
sg24
S'NBA'
p162
sg26
g3
sg27
S'13.8'
p163
sg29
S'7.8'
p164
sg31
S'7.3'
p165
sg33
S'8.3'
p166
sg35
S'22'
p167
sg37
S'BOS'
p168
sg39
S'34'
p169
sg41
g3
sg42
S'5.5'
p170
sg44
S'4.7'
p171
sg46
S'13.8'
p172
sg48
g3
sg49
S'1970-71'
p173
sg51
S'5.5'
p174
sg53
g3
sg54
S'.402'
p175
sg56
S'266'
p176
sg58
g3
sba(isrc.gp1.models.Per36Minutes
Per36Minutes
p177
(dp178
g8
g3
sg9
g3
sg10
S'.320'
p179
sg12
S'4.1'
p180
sg14
g3
sg15
g3
sg16
S'13.2'
p181
sg18
S'SG'
p182
sg20
S'.742'
p183
sg24
S'NBA'
p184
sg26
g3
sg27
S'12.0'
p185
sg29
S'8.2'
p186
sg31
S'7.4'
p187
sg33
S'7.2'
p188
sg35
S'23'
p189
sg37
S'BOS'
p190
sg39
S'28'
p191
sg41
g3
sg42
S'3.8'
p192
sg44
S'5.5'
p193
sg46
S'12.0'
p194
sg48
g3
sg49
S'1971-72'
p195
sg51
S'3.8'
p196
sg53
g3
sg54
S'.320'
p197
sg56
S'150'
p198
sg58
g3
sbasS'_fromYear'
p199
S'1971'
p200
sS'_url'
p201
S'http://www.basketball-reference.com/players/m/morgare01.html'
p202
sS'_perGame'
p203
(isrc.gp1.models.PerGame
PerGame
p204
(dp205
g8
g3
sg9
g3
sg10
S'.320'
p206
sS'_effectiveFieldGalPercentage'
p207
S'.320'
p208
sg12
S'0.6'
p209
sg14
g3
sg15
g3
sg16
S'2.0'
p210
sg18
S'SG'
p211
sg20
S'.742'
p212
sg24
S'NBA'
p213
sg26
g3
sg29
S'1.2'
p214
sS'_fieldGoalsttempted'
p215
S'1.8'
p216
sg31
S'1.1'
p217
sg33
S'1.1'
p218
sg35
S'23'
p219
sg37
S'BOS'
p220
sg39
S'28'
p221
sg41
g3
sg42
S'0.6'
p222
sg44
S'0.8'
p223
sg46
S'1.8'
p224
sg48
g3
sg49
S'1971-72'
p225
sg51
S'0.6'
p226
sg53
g3
sg54
S'.320'
p227
sg56
S'5.4'
p228
sg58
g3
sbsS'_weight'
p229
S'190'
p230
sS'_dob'
p231
S'27-10-1948'
p232
sS'_salary'
p233
(lp234
sg18
S'G'
p235
sb.