(isrc.gp1.models.Player
Player
p0
(dp1
S'_experience'
p2
S'NA'
p3
sS'_totals'
p4
(lp5
(isrc.gp1.models.Totals
Totals
p6
(dp7
S'_offensiveRebounds'
p8
S'2'
p9
sS'_threePointsAttempted'
p10
S'0'
p11
sS'_fieldGoalsPercentage'
p12
S'.429'
p13
sS'_assist'
p14
S'1'
p15
sS'_threePointsPercentage'
p16
g3
sS'_threePoints'
p17
g11
sS'_points'
p18
S'6'
p19
sS'_position'
p20
S'SF'
p21
sS'_freeThrowsPercentage'
p22
g3
sS'_effectiveFieldGoalPercentage'
p23
S'.429'
p24
sS'_league'
p25
S'NBA'
p26
sS'_steals'
p27
g9
sS'_fieldGoalsAttempted'
p28
S'7'
p29
sS'_personalFouls'
p30
g15
sS'_freeThrowsAttempted'
p31
g11
sS'_totalRebounds'
p32
S'3'
p33
sS'_age'
p34
S'26'
p35
sS'_team'
p36
S'CHI'
p37
sS'_games'
p38
g9
sS'_blocks'
p39
g11
sS'_twoPoints'
p40
g33
sS'_freeThrows'
p41
g11
sS'_twoPointsAttempted'
p42
g29
sS'_defensiveRebounds'
p43
g15
sS'_season'
p44
S'1992-93'
p45
sS'_fieldGoals'
p46
g33
sS'_turnOvers'
p47
g15
sS'_twoPointsPercentage'
p48
S'.429'
p49
sS'_minutesPlayed'
p50
S'13'
p51
sS'_gamesStarted'
p52
g11
sbasS'_college'
p53
S'Louisiana State University'
p54
sS'_toYear'
p55
S'1993'
p56
sS'_height'
p57
S'6-7'
p58
sS'_active'
p59
I00
sS'_shootingHand'
p60
VRight
p61
sS'_name'
p62
S'Ricky Blanton'
p63
sS'_per100Possessions'
p64
(lp65
(isrc.gp1.models.Per100Possession
Per100Possession
p66
(dp67
g8
S'8.0'
p68
sg10
S'0.0'
p69
sg12
S'.429'
p70
sS'_offensiveRating'
p71
S'96'
p72
sg14
S'4.0'
p73
sg16
g3
sg17
S'0.0'
p74
sg18
S'24.0'
p75
sg20
S'SF'
p76
sS'_defensiveRating'
p77
S'96'
p78
sg22
g3
sg25
S'NBA'
p79
sg27
S'8.0'
p80
sg28
S'27.9'
p81
sg30
S'4.0'
p82
sg31
S'0.0'
p83
sg32
S'12.0'
p84
sg34
S'26'
p85
sg36
S'CHI'
p86
sg38
g9
sg39
S'0.0'
p87
sg40
S'12.0'
p88
sg41
S'0.0'
p89
sg42
S'27.9'
p90
sg43
S'4.0'
p91
sg44
S'1992-93'
p92
sg46
S'12.0'
p93
sg47
S'4.0'
p94
sg48
S'.429'
p95
sg50
S'13'
p96
sg52
g11
sbasS'_advanced'
p97
(lp98
(isrc.gp1.models.Advanced
Advanced
p99
(dp100
S'_offensiveReboundPercentage'
p101
S'17.2'
p102
sS'_turnOverPercentage'
p103
S'12.5'
p104
sS'_winSharesPer48Minutes'
p105
S'.088'
p106
sS'_stealPercentage'
p107
S'8.0'
p108
sS'_usagePercentage'
p109
S'26.6'
p110
sS'_totalReboundsPercentage'
p111
S'13.3'
p112
sS'_defensiveBoxPlusMinus'
p113
S'2.7'
p114
sg20
S'SF'
p115
sS'_valueOverReplacementPlayer'
p116
S'0.0'
p117
sS'_trueShootingPercentage'
p118
S'.429'
p119
sS'_defensiveReboundPercentage'
p120
S'9.2'
p121
sS'_freeThrowsAttempRate'
p122
S'.000'
p123
sS'_threePointsAttempRate'
p124
S'.000'
p125
sg25
S'NBA'
p126
sS'_offensiveBoxPlusMinues'
p127
S'0.0'
p128
sS'_assistPercentage'
p129
S'11.9'
p130
sS'_defensiveWinShares'
p131
S'0.0'
p132
sg34
S'26'
p133
sg36
S'CHI'
p134
sg38
g9
sS'_blockPercentage'
p135
S'0.0'
p136
sS'_playerEfficiencyRating'
p137
S'19.3'
p138
sS'_offensiveWinShares'
p139
S'0.0'
p140
sg50
S'13'
p141
sS'_boxPlusMinus'
p142
S'2.6'
p143
sg44
S'1992-93'
p144
sS'_winShares'
p145
S'0.0'
p146
sbasS'_per36Minutes'
p147
(lp148
(isrc.gp1.models.Per36Minutes
Per36Minutes
p149
(dp150
g8
S'5.5'
p151
sg10
S'0.0'
p152
sg12
S'.429'
p153
sg14
S'2.8'
p154
sg16
g3
sg17
S'0.0'
p155
sg18
S'16.6'
p156
sg20
S'SF'
p157
sg22
g3
sg25
S'NBA'
p158
sg27
S'5.5'
p159
sg28
S'19.4'
p160
sg30
S'2.8'
p161
sg31
S'0.0'
p162
sg32
S'8.3'
p163
sg34
S'26'
p164
sg36
S'CHI'
p165
sg38
g9
sg39
S'0.0'
p166
sg40
S'8.3'
p167
sg41
S'0.0'
p168
sg42
S'19.4'
p169
sg43
S'2.8'
p170
sg44
S'1992-93'
p171
sg46
S'8.3'
p172
sg47
S'2.8'
p173
sg48
S'.429'
p174
sg50
S'13'
p175
sg52
g11
sbasS'_fromYear'
p176
S'1993'
p177
sS'_url'
p178
S'http://www.basketball-reference.com/players/b/blantri01.html'
p179
sS'_perGame'
p180
(isrc.gp1.models.PerGame
PerGame
p181
(dp182
g8
S'1.0'
p183
sg10
S'0.0'
p184
sg12
S'.429'
p185
sS'_effectiveFieldGalPercentage'
p186
S'.429'
p187
sg14
S'0.5'
p188
sg16
g3
sg17
S'0.0'
p189
sg18
S'3.0'
p190
sg20
S'SF'
p191
sg22
g3
sg25
S'NBA'
p192
sg27
S'1.0'
p193
sg30
S'0.5'
p194
sS'_fieldGoalsttempted'
p195
S'3.5'
p196
sg31
S'0.0'
p197
sg32
S'1.5'
p198
sg34
S'26'
p199
sg36
S'CHI'
p200
sg38
g9
sg39
S'0.0'
p201
sg40
S'1.5'
p202
sg41
S'0.0'
p203
sg42
S'3.5'
p204
sg43
S'0.5'
p205
sg44
S'1992-93'
p206
sg46
S'1.5'
p207
sg47
S'0.5'
p208
sg48
S'.429'
p209
sg50
S'6.5'
p210
sg52
g11
sbsS'_weight'
p211
S'215'
p212
sS'_dob'
p213
S'21-4-1966'
p214
sS'_salary'
p215
(lp216
(isrc.gp1.models.Salary
Salary
p217
(dp218
g36
S'Chicago Bulls'
p219
sg25
S'NBA'
p220
sg215
S'$8,000'
p221
sg44
S'1992-93'
p222
sbasg20
S'F'
p223
sb.