(isrc.gp1.models.Player
Player
p0
(dp1
S'_experience'
p2
S'NA'
p3
sS'_totals'
p4
(lp5
(isrc.gp1.models.Totals
Totals
p6
(dp7
S'_offensiveRebounds'
p8
S'106'
p9
sS'_threePointsAttempted'
p10
S'.449'
p11
sS'_fieldGoalsPercentage'
p12
S'280'
p13
sS'_assist'
p14
S'718'
p15
sS'_threePointsPercentage'
p16
S'.449'
p17
sS'_threePoints'
p18
S'623'
p19
sS'_points'
p20
g3
sS'_position'
p21
S'SG'
p22
sS'_freeThrowsPercentage'
p23
S'215'
p24
sS'_effectiveFieldGoalPercentage'
p25
S'80'
p26
sS'_league'
p27
S'NBA'
p28
sS'_steals'
p29
g3
sS'_fieldGoalsAttempted'
p30
S'.449'
p31
sS'_personalFouls'
p32
g3
sS'_freeThrowsAttempted'
p33
S'259'
p34
sS'_totalRebounds'
p35
S'253'
p36
sS'_age'
p37
S'23'
p38
sS'_team'
p39
S'PHO'
p40
sS'_games'
p41
S'78'
p42
sS'_blocks'
p43
g3
sS'_twoPoints'
p44
S'158'
p45
sS'_freeThrows'
p46
S'179'
p47
sS'_twoPointsAttempted'
p48
S'192'
p49
sS'_defensiveRebounds'
p50
S'7'
p51
sS'_season'
p52
S'1975-76'
p53
sS'_fieldGoals'
p54
S'623'
p55
sS'_turnOvers'
p56
g3
sS'_twoPointsPercentage'
p57
S'.823'
p58
sS'_minutesPlayed'
p59
S'280'
p60
sS'_gamesStarted'
p61
S'1898'
p62
sba(isrc.gp1.models.Totals
Totals
p63
(dp64
g8
S'93'
p65
sg10
S'.496'
p66
sg12
S'414'
p67
sg14
S'1071'
p68
sg16
S'.496'
p69
sg18
S'834'
p70
sg20
g3
sg21
S'SG'
p71
sg23
S'238'
p72
sg25
S'82'
p73
sg27
S'NBA'
p74
sg29
g3
sg30
S'.496'
p75
sg32
g3
sg33
S'234'
p76
sg35
S'258'
p77
sg37
S'24'
p78
sg39
S'PHO'
p79
sg41
S'79'
p80
sg43
g3
sg44
S'243'
p81
sg46
S'152'
p82
sg48
S'289'
p83
sg50
S'14'
p84
sg52
S'1976-77'
p85
sg54
S'834'
p86
sg56
g3
sg57
S'.841'
p87
sg59
S'414'
p88
sg61
S'2005'
p89
sba(isrc.gp1.models.Totals
Totals
p90
(dp91
g8
S'170'
p92
sg10
S'.453'
p93
sg12
S'553'
p94
sg14
S'308'
p95
sg16
S'.453'
p96
sg18
S'1221'
p97
sg20
g3
sg21
S'PG'
p98
sg23
S'584'
p99
sg25
S'92'
p100
sg27
S'NBA'
p101
sg29
S'1436'
p102
sg30
S'.453'
p103
sg32
g3
sg33
S'327'
p104
sg35
S'352'
p105
sg37
S'25'
p106
sg39
S'IND'
p107
sg41
S'79'
p108
sg43
g3
sg44
S'330'
p109
sg46
S'235'
p110
sg48
S'400'
p111
sg50
S'23'
p112
sg52
S'1977-78'
p113
sg54
S'1221'
p114
sg56
g3
sg57
S'.825'
p115
sg59
S'553'
p116
sg61
S'3019'
p117
sba(isrc.gp1.models.Totals
Totals
p118
(dp119
g8
S'138'
p120
sg10
S'.463'
p121
sg12
S'553'
p122
sg14
S'315'
p123
sg16
S'.463'
p124
sg18
S'1194'
p125
sg20
g3
sg21
S'SG'
p126
sg23
S'450'
p127
sg25
S'118'
p128
sg27
S'NBA'
p129
sg29
S'1404'
p130
sg30
S'.463'
p131
sg32
g3
sg33
S'301'
p132
sg35
S'304'
p133
sg37
S'26'
p134
sg39
S'IND'
p135
sg41
S'81'
p136
sg43
g3
sg44
S'298'
p137
sg46
S'183'
p138
sg48
S'338'
p139
sg50
S'23'
p140
sg52
S'1978-79'
p141
sg54
S'1194'
p142
sg56
g3
sg57
S'.882'
p143
sg59
S'553'
p144
sg61
S'2825'
p145
sba(isrc.gp1.models.Totals
Totals
p146
(dp147
g8
S'167'
p148
sg10
S'.309'
p149
sg12
S'21'
p150
sg14
S'136'
p151
sg16
S'449'
p152
sg18
S'68'
p153
sg20
g3
sg21
S'PG'
p154
sg23
S'75'
p155
sg25
S'200'
p156
sg27
S'NBA'
p157
sg29
S'17'
p158
sg30
S'.469'
p159
sg32
S'1161'
p160
sg33
S'.837'
p161
sg35
S'426'
p162
sg37
S'27'
p163
sg39
S'CHI'
p164
sg41
S'82'
p165
sg43
S'282'
p166
sg44
S'934'
p167
sg46
S'239'
p168
sg48
S'.481'
p169
sg50
S'242'
p170
sg52
S'1979-80'
p171
sg54
S'1002'
p172
sg56
S'294'
p173
sg57
S'.480'
p174
sg59
S'470'
p175
sg61
S'2673'
p176
sba(isrc.gp1.models.Totals
Totals
p177
(dp178
g8
S'98'
p179
sg10
S'.258'
p180
sg12
S'17'
p181
sg14
S'98'
p182
sg16
S'338'
p183
sg18
S'66'
p184
sg20
g3
sg21
S'PG'
p185
sg23
S'46'
p186
sg25
S'231'
p187
sg27
S'NBA'
p188
sg29
S'17'
p189
sg30
S'.462'
p190
sg32
S'958'
p191
sg33
S'.935'
p192
sg35
S'284'
p193
sg37
S'28'
p194
sg39
S'CHI'
p195
sg41
S'71'
p196
sg43
S'206'
p197
sg44
S'703'
p198
sg46
S'247'
p199
sg48
S'.481'
p200
sg50
S'144'
p201
sg52
S'1980-81'
p202
sg54
S'769'
p203
sg56
S'225'
p204
sg57
S'.473'
p205
sg59
S'355'
p206
sg61
S'1803'
p207
sba(isrc.gp1.models.Totals
Totals
p208
(dp209
g8
S'37'
p210
sg10
S'76'
p211
sg12
S'.453'
p212
sg14
S'301'
p213
sg16
S'.250'
p214
sg18
S'19'
p215
sg20
S'940'
p216
sg21
S'SG'
p217
sg23
S'.768'
p218
sg25
S'.465'
p219
sg27
S'NBA'
p220
sg29
S'73'
p221
sg30
S'801'
p222
sg32
S'238'
p223
sg33
S'254'
p224
sg35
S'142'
p225
sg37
S'29'
p226
sg39
S'CHI'
p227
sg41
S'80'
p228
sg43
S'18'
p229
sg44
S'344'
p230
sg46
S'195'
p231
sg48
S'725'
p232
sg50
S'105'
p233
sg52
S'1981-82'
p234
sg54
S'363'
p235
sg56
S'217'
p236
sg57
S'.474'
p237
sg59
S'1938'
p238
sg61
S'6'
p239
sba(isrc.gp1.models.Totals
Totals
p240
(dp241
g8
S'35'
p242
sg10
S'55'
p243
sg12
S'.438'
p244
sg14
S'218'
p245
sg16
S'.418'
p246
sg18
S'23'
p247
sg20
S'645'
p248
sg21
S'SG'
p249
sg23
S'.832'
p250
sg25
S'.460'
p251
sg27
S'NBA'
p252
sg29
S'61'
p253
sg30
S'534'
p254
sg32
S'158'
p255
sg33
S'185'
p256
sg35
S'102'
p257
sg37
S'30'
p258
sg39
S'WSB'
p259
sg41
S'41'
p260
sg43
S'14'
p261
sg44
S'211'
p262
sg46
S'154'
p263
sg48
S'479'
p264
sg50
S'67'
p265
sg52
S'1982-83'
p266
sg54
S'234'
p267
sg56
S'147'
p268
sg57
S'.441'
p269
sg59
S'1438'
p270
sg61
S'39'
p271
sba(isrc.gp1.models.Totals
Totals
p272
(dp273
g8
S'51'
p274
sg10
S'111'
p275
sg12
S'.456'
p276
sg14
S'377'
p277
sg16
S'.261'
p278
sg18
S'29'
p279
sg20
S'1266'
p280
sg21
S'SG'
p281
sg23
S'.837'
p282
sg25
S'.469'
p283
sg27
S'NBA'
p284
sg29
S'117'
p285
sg30
S'1115'
p286
sg32
S'278'
p287
sg33
S'264'
p288
sg35
S'179'
p289
sg37
S'31'
p290
sg39
S'WSB'
p291
sg41
S'81'
p292
sg43
S'17'
p293
sg44
S'479'
p294
sg46
S'221'
p295
sg48
S'1004'
p296
sg50
S'128'
p297
sg52
S'1983-84'
p298
sg54
S'508'
p299
sg56
S'222'
p300
sg57
S'.477'
p301
sg59
S'2624'
p302
sg61
S'81'
p303
sba(isrc.gp1.models.Totals
Totals
p304
(dp305
g8
S'27'
p306
sg10
S'28'
p307
sg12
S'.446'
p308
sg14
S'252'
p309
sg16
S'.286'
p310
sg18
S'8'
p311
sg20
S'700'
p312
sg21
S'SG'
p313
sg23
S'.815'
p314
sg25
S'.452'
p315
sg27
S'NBA'
p316
sg29
S'49'
p317
sg30
S'628'
p318
sg32
S'156'
p319
sg33
S'162'
p320
sg35
S'103'
p321
sg37
S'32'
p322
sg39
S'SEA'
p323
sg41
S'71'
p324
sg43
S'9'
p325
sg44
S'272'
p326
sg46
S'132'
p327
sg48
S'600'
p328
sg50
S'76'
p329
sg52
S'1984-85'
p330
sg54
S'280'
p331
sg56
S'158'
p332
sg57
S'.453'
p333
sg59
S'1490'
p334
sg61
S'12'
p335
sba(isrc.gp1.models.Totals
Totals
p336
(dp337
g8
S'29'
p338
sg10
S'43'
p339
sg12
S'.444'
p340
sg14
S'180'
p341
sg16
S'.302'
p342
sg18
S'13'
p343
sg20
S'603'
p344
sg21
S'SG'
p345
sg23
S'.880'
p346
sg25
S'.456'
p347
sg27
S'NBA'
p348
sg29
S'44'
p349
sg30
S'541'
p350
sg32
S'139'
p351
sg33
S'125'
p352
sg35
S'99'
p353
sg37
S'33'
p354
sg39
S'SEA'
p355
sg41
S'78'
p356
sg43
S'2'
p357
sg44
S'227'
p358
sg46
S'110'
p359
sg48
S'498'
p360
sg50
S'70'
p361
sg52
S'1985-86'
p362
sg54
S'240'
p363
sg56
S'85'
p364
sg57
S'.456'
p365
sg59
S'1279'
p366
sg61
S'0'
p367
sbasS'_college'
p368
S'University of Nevada, Las Vegas'
p369
sS'_toYear'
p370
S'1986'
p371
sS'_height'
p372
S'6-3'
p373
sS'_active'
p374
I00
sS'_shootingHand'
p375
VRight
p376
sS'_name'
p377
S'Ricky Sobers'
p378
sS'_per100Possessions'
p379
(lp380
(isrc.gp1.models.Per100Possession
Per100Possession
p381
(dp382
g8
S'2.5'
p383
sg10
S'.449'
p384
sg12
S'6.7'
p385
sS'_offensiveRating'
p386
g3
sg14
S'17.2'
p387
sg16
S'3.8'
p388
sg18
S'14.9'
p389
sg20
g3
sg21
S'SG'
p390
sS'_defensiveRating'
p391
g3
sg23
S'5.1'
p392
sg27
S'NBA'
p393
sg29
S'98'
p394
sg30
S'.449'
p395
sg32
g3
sg33
S'6.2'
p396
sg35
S'6.1'
p397
sg37
S'23'
p398
sg39
S'PHO'
p399
sg41
S'78'
p400
sg43
g3
sg44
S'4.6'
p401
sg46
S'4.3'
p402
sg48
S'.823'
p403
sg50
S'0.2'
p404
sg52
S'1975-76'
p405
sg54
S'14.9'
p406
sg56
g3
sg57
S'1.9'
p407
sg59
S'6.7'
p408
sg61
S'1898'
p409
sba(isrc.gp1.models.Per100Possession
Per100Possession
p410
(dp411
g8
S'2.1'
p412
sg10
S'.496'
p413
sg12
S'9.3'
p414
sg386
g3
sg14
S'24.0'
p415
sg16
S'5.5'
p416
sg18
S'18.7'
p417
sg20
g3
sg21
S'SG'
p418
sg391
g3
sg23
S'5.3'
p419
sg27
S'NBA'
p420
sg29
S'99'
p421
sg30
S'.496'
p422
sg32
g3
sg33
S'5.3'
p423
sg35
S'5.8'
p424
sg37
S'24'
p425
sg39
S'PHO'
p426
sg41
S'79'
p427
sg43
g3
sg44
S'6.5'
p428
sg46
S'3.4'
p429
sg48
S'.841'
p430
sg50
S'0.3'
p431
sg52
S'1976-77'
p432
sg54
S'18.7'
p433
sg56
g3
sg57
S'1.8'
p434
sg59
S'9.3'
p435
sg61
S'2005'
p436
sba(isrc.gp1.models.Per100Possession
Per100Possession
p437
(dp438
g8
S'2.5'
p439
sg10
S'.453'
p440
sg12
S'8.1'
p441
sg386
g3
sg14
S'4.5'
p442
sg16
S'4.9'
p443
sg18
S'17.9'
p444
sg20
g3
sg21
S'PG'
p445
sg391
g3
sg23
S'8.6'
p446
sg27
S'NBA'
p447
sg29
S'21.1'
p448
sg30
S'.453'
p449
sg32
g3
sg33
S'4.8'
p450
sg35
S'5.2'
p451
sg37
S'25'
p452
sg39
S'IND'
p453
sg41
S'79'
p454
sg43
S'98'
p455
sg44
S'5.9'
p456
sg46
S'3.5'
p457
sg48
S'.825'
p458
sg50
S'0.3'
p459
sg52
S'1977-78'
p460
sg54
S'17.9'
p461
sg56
S'103'
p462
sg57
S'1.4'
p463
sg59
S'8.1'
p464
sg61
S'3019'
p465
sba(isrc.gp1.models.Per100Possession
Per100Possession
p466
(dp467
g8
S'2.2'
p468
sg10
S'.463'
p469
sg12
S'8.9'
p470
sg386
g3
sg14
S'5.1'
p471
sg16
S'4.8'
p472
sg18
S'19.3'
p473
sg20
g3
sg21
S'SG'
p474
sg391
g3
sg23
S'7.3'
p475
sg27
S'NBA'
p476
sg29
S'22.6'
p477
sg30
S'.463'
p478
sg32
g3
sg33
S'4.9'
p479
sg35
S'4.9'
p480
sg37
S'26'
p481
sg39
S'IND'
p482
sg41
S'81'
p483
sg43
S'101'
p484
sg44
S'5.5'
p485
sg46
S'3.0'
p486
sg48
S'.882'
p487
sg50
S'0.4'
p488
sg52
S'1978-79'
p489
sg54
S'19.3'
p490
sg56
S'106'
p491
sg57
S'1.9'
p492
sg59
S'8.9'
p493
sg61
S'2825'
p494
sba(isrc.gp1.models.Per100Possession
Per100Possession
p495
(dp496
g8
S'2.9'
p497
sg10
S'.309'
p498
sg12
S'0.4'
p499
sg386
S'108'
p500
sg14
S'2.4'
p501
sg16
S'7.9'
p502
sg18
S'1.2'
p503
sg20
S'98'
p504
sg21
S'PG'
p505
sg391
g3
sg23
S'1.3'
p506
sg27
S'NBA'
p507
sg29
S'0.3'
p508
sg30
S'.469'
p509
sg32
S'20.5'
p510
sg33
S'.837'
p511
sg35
S'7.5'
p512
sg37
S'27'
p513
sg39
S'CHI'
p514
sg41
S'82'
p515
sg43
S'5.0'
p516
sg44
S'16.5'
p517
sg46
S'4.2'
p518
sg48
S'.481'
p519
sg50
S'4.3'
p520
sg52
S'1979-80'
p521
sg54
S'17.7'
p522
sg56
S'5.2'
p523
sg57
S'3.5'
p524
sg59
S'8.3'
p525
sg61
S'2673'
p526
sba(isrc.gp1.models.Per100Possession
Per100Possession
p527
(dp528
g8
S'2.6'
p529
sg10
S'.258'
p530
sg12
S'0.4'
p531
sg386
S'107'
p532
sg14
S'2.6'
p533
sg16
S'8.9'
p534
sg18
S'1.7'
p535
sg20
S'105'
p536
sg21
S'PG'
p537
sg391
g3
sg23
S'1.2'
p538
sg27
S'NBA'
p539
sg29
S'0.4'
p540
sg30
S'.462'
p541
sg32
S'25.3'
p542
sg33
S'.935'
p543
sg35
S'7.5'
p544
sg37
S'28'
p545
sg39
S'CHI'
p546
sg41
S'71'
p547
sg43
S'5.4'
p548
sg44
S'18.6'
p549
sg46
S'6.5'
p550
sg48
S'.481'
p551
sg50
S'3.8'
p552
sg52
S'1980-81'
p553
sg54
S'20.3'
p554
sg56
S'6.0'
p555
sg57
S'6.1'
p556
sg59
S'9.4'
p557
sg61
S'1803'
p558
sba(isrc.gp1.models.Per100Possession
Per100Possession
p559
(dp560
g8
S'0.9'
p561
sg10
S'1.9'
p562
sg12
S'.453'
p563
sg386
S'98'
p564
sg14
S'7.5'
p565
sg16
S'.250'
p566
sg18
S'0.5'
p567
sg20
S'23.5'
p568
sg21
S'SG'
p569
sg391
S'111'
p570
sg23
S'.768'
p571
sg27
S'NBA'
p572
sg29
S'1.8'
p573
sg30
S'20.0'
p574
sg32
S'6.0'
p575
sg33
S'6.4'
p576
sg35
S'3.6'
p577
sg37
S'29'
p578
sg39
S'CHI'
p579
sg41
S'80'
p580
sg43
S'0.5'
p581
sg44
S'8.6'
p582
sg46
S'4.9'
p583
sg48
S'18.1'
p584
sg50
S'2.6'
p585
sg52
S'1981-82'
p586
sg54
S'9.1'
p587
sg56
S'5.4'
p588
sg57
S'.474'
p589
sg59
S'1938'
p590
sg61
g239
sba(isrc.gp1.models.Per100Possession
Per100Possession
p591
(dp592
g8
S'1.2'
p593
sg10
S'1.8'
p594
sg12
S'.438'
p595
sg386
S'98'
p596
sg14
S'7.3'
p597
sg16
S'.418'
p598
sg18
S'0.8'
p599
sg20
S'21.7'
p600
sg21
S'SG'
p601
sg391
S'102'
p602
sg23
S'.832'
p603
sg27
S'NBA'
p604
sg29
S'2.0'
p605
sg30
S'17.9'
p606
sg32
S'5.3'
p607
sg33
S'6.2'
p608
sg35
S'3.4'
p609
sg37
S'30'
p610
sg39
S'WSB'
p611
sg41
S'41'
p612
sg43
S'0.5'
p613
sg44
S'7.1'
p614
sg46
S'5.2'
p615
sg48
S'16.1'
p616
sg50
S'2.2'
p617
sg52
S'1982-83'
p618
sg54
S'7.9'
p619
sg56
S'4.9'
p620
sg57
S'.441'
p621
sg59
S'1438'
p622
sg61
S'39'
p623
sba(isrc.gp1.models.Per100Possession
Per100Possession
p624
(dp625
g8
S'1.0'
p626
sg10
S'2.1'
p627
sg12
S'.456'
p628
sg386
S'100'
p629
sg14
S'7.1'
p630
sg16
S'.261'
p631
sg18
S'0.5'
p632
sg20
S'23.8'
p633
sg21
S'SG'
p634
sg391
S'108'
p635
sg23
S'.837'
p636
sg27
S'NBA'
p637
sg29
S'2.2'
p638
sg30
S'20.9'
p639
sg32
S'5.2'
p640
sg33
S'5.0'
p641
sg35
S'3.4'
p642
sg37
S'31'
p643
sg39
S'WSB'
p644
sg41
S'81'
p645
sg43
S'0.3'
p646
sg44
S'9.0'
p647
sg46
S'4.1'
p648
sg48
S'18.8'
p649
sg50
S'2.4'
p650
sg52
S'1983-84'
p651
sg54
S'9.5'
p652
sg56
S'4.2'
p653
sg57
S'.477'
p654
sg59
S'2624'
p655
sg61
S'81'
p656
sba(isrc.gp1.models.Per100Possession
Per100Possession
p657
(dp658
g8
S'0.9'
p659
sg10
S'0.9'
p660
sg12
S'.446'
p661
sg386
S'95'
p662
sg14
S'8.2'
p663
sg16
S'.286'
p664
sg18
S'0.3'
p665
sg20
S'22.7'
p666
sg21
S'SG'
p667
sg391
S'111'
p668
sg23
S'.815'
p669
sg27
S'NBA'
p670
sg29
S'1.6'
p671
sg30
S'20.4'
p672
sg32
S'5.1'
p673
sg33
S'5.3'
p674
sg35
S'3.3'
p675
sg37
S'32'
p676
sg39
S'SEA'
p677
sg41
S'71'
p678
sg43
S'0.3'
p679
sg44
S'8.8'
p680
sg46
S'4.3'
p681
sg48
S'19.5'
p682
sg50
S'2.5'
p683
sg52
S'1984-85'
p684
sg54
S'9.1'
p685
sg56
S'5.1'
p686
sg57
S'.453'
p687
sg59
S'1490'
p688
sg61
S'12'
p689
sba(isrc.gp1.models.Per100Possession
Per100Possession
p690
(dp691
g8
S'1.1'
p692
sg10
S'1.7'
p693
sg12
S'.444'
p694
sg386
S'105'
p695
sg14
S'6.9'
p696
sg16
S'.302'
p697
sg18
S'0.5'
p698
sg20
S'23.2'
p699
sg21
S'SG'
p700
sg391
S'109'
p701
sg23
S'.880'
p702
sg27
S'NBA'
p703
sg29
S'1.7'
p704
sg30
S'20.8'
p705
sg32
S'5.4'
p706
sg33
S'4.8'
p707
sg35
S'3.8'
p708
sg37
S'33'
p709
sg39
S'SEA'
p710
sg41
S'78'
p711
sg43
S'0.1'
p712
sg44
S'8.7'
p713
sg46
S'4.2'
p714
sg48
S'19.2'
p715
sg50
S'2.7'
p716
sg52
S'1985-86'
p717
sg54
S'9.2'
p718
sg56
S'3.3'
p719
sg57
S'.456'
p720
sg59
S'1279'
p721
sg61
g367
sbasS'_advanced'
p722
(lp723
(isrc.gp1.models.Advanced
Advanced
p724
(dp725
S'_offensiveReboundPercentage'
p726
S'10.1'
p727
sS'_turnOverPercentage'
p728
S'1.9'
p729
sS'_winSharesPer48Minutes'
p730
S'-0.9'
p731
sS'_stealPercentage'
p732
S'0.2'
p733
sS'_usagePercentage'
p734
S'2.8'
p735
sS'_totalReboundsPercentage'
p736
S'15.9'
p737
sS'_defensiveBoxPlusMinus'
p738
g3
sg21
S'SG'
p739
sS'_valueOverReplacementPlayer'
p740
g3
sS'_trueShootingPercentage'
p741
S'.507'
p742
sS'_defensiveReboundPercentage'
p743
S'7.4'
p744
sS'_freeThrowsAttempRate'
p745
S'4.6'
p746
sS'_threePointsAttempRate'
p747
S'.308'
p748
sg27
S'NBA'
p749
sS'_offensiveBoxPlusMinues'
p750
S'0.5'
p751
sS'_assistPercentage'
p752
S'2.5'
p753
sS'_defensiveWinShares'
p754
S'-0.8'
p755
sg37
S'23'
p756
sg39
S'PHO'
p757
sg41
S'78'
p758
sS'_blockPercentage'
p759
S'0.9'
p760
sS'_playerEfficiencyRating'
p761
S'13.1'
p762
sS'_offensiveWinShares'
p763
S'.072'
p764
sg59
S'1898'
p765
sS'_boxPlusMinus'
p766
g3
sg52
S'1975-76'
p767
sS'_winShares'
p768
S'-0.1'
p769
sba(isrc.gp1.models.Advanced
Advanced
p770
(dp771
g726
S'8.1'
p772
sg728
S'2.2'
p773
sg730
S'1.4'
p774
sg732
S'0.4'
p775
sg734
S'5.3'
p776
sg736
S'18.1'
p777
sg738
g3
sg21
S'SG'
p778
sg740
g3
sg741
S'.557'
p779
sg743
S'6.3'
p780
sg745
S'4.4'
p781
sg747
S'.347'
p782
sg27
S'NBA'
p783
sg750
S'1.7'
p784
sg752
S'2.1'
p785
sg754
S'1.9'
p786
sg37
S'24'
p787
sg39
S'PHO'
p788
sg41
S'79'
p789
sg759
S'3.0'
p790
sg761
S'16.5'
p791
sg763
S'.126'
p792
sg59
S'2005'
p793
sg766
g3
sg52
S'1976-77'
p794
sg768
S'-0.5'
p795
sba(isrc.gp1.models.Advanced
Advanced
p796
(dp797
g726
S'7.8'
p798
sg728
S'21.8'
p799
sg730
S'0.9'
p800
sg732
S'0.4'
p801
sg734
S'2.4'
p802
sg736
S'27.7'
p803
sg738
S'0.4'
p804
sg21
S'PG'
p805
sg740
g3
sg741
S'.514'
p806
sg743
S'5.3'
p807
sg745
S'2.9'
p808
sg747
S'.328'
p809
sg27
S'NBA'
p810
sg750
S'-0.5'
p811
sg752
S'2.5'
p812
sg754
S'4.8'
p813
sg37
S'25'
p814
sg39
S'IND'
p815
sg41
S'79'
p816
sg759
S'20.1'
p817
sg761
S'15.4'
p818
sg763
S'2.4'
p819
sg59
S'3019'
p820
sg766
S'1.8'
p821
sg52
S'1977-78'
p822
sg768
S'.076'
p823
sba(isrc.gp1.models.Advanced
Advanced
p824
(dp825
g726
S'6.7'
p826
sg728
S'22.8'
p827
sg730
S'0.6'
p828
sg732
S'0.4'
p829
sg734
S'2.1'
p830
sg736
S'22.4'
p831
sg738
S'0.2'
p832
sg21
S'SG'
p833
sg740
g3
sg741
S'.523'
p834
sg743
S'5.5'
p835
sg745
S'4.3'
p836
sg747
S'.283'
p837
sg27
S'NBA'
p838
sg750
S'-0.5'
p839
sg752
S'2.2'
p840
sg754
S'4.3'
p841
sg37
S'26'
p842
sg39
S'IND'
p843
sg41
S'81'
p844
sg759
S'18.5'
p845
sg761
S'14.8'
p846
sg763
S'2.3'
p847
sg59
S'2825'
p848
sg766
S'1.5'
p849
sg52
S'1978-79'
p850
sg768
S'.074'
p851
sba(isrc.gp1.models.Advanced
Advanced
p852
(dp853
g726
S'3.2'
p854
sg728
S'20.3'
p855
sg730
S'.044'
p856
sg732
S'2.4'
p857
sg734
S'21.2'
p858
sg736
S'5.1'
p859
sg738
S'-0.8'
p860
sg21
S'PG'
p861
sg740
S'0.5'
p862
sg741
S'.524'
p863
sg743
S'6.9'
p864
sg745
S'.239'
p865
sg747
S'.068'
p866
sg27
S'NBA'
p867
sg750
S'-0.5'
p868
sg752
S'23.8'
p869
sg754
S'1.9'
p870
sg37
S'27'
p871
sg39
S'CHI'
p872
sg41
S'82'
p873
sg759
S'0.4'
p874
sg761
S'12.5'
p875
sg763
S'0.5'
p876
sg59
S'2673'
p877
sg766
S'-1.3'
p878
sg52
S'1979-80'
p879
sg768
S'2.4'
p880
sba(isrc.gp1.models.Advanced
Advanced
p881
(dp882
g726
S'3.0'
p883
sg728
S'19.0'
p884
sg730
S'.101'
p885
sg732
S'2.6'
p886
sg734
S'24.5'
p887
sg736
S'4.6'
p888
sg738
S'-1.7'
p889
sg21
S'PG'
p890
sg740
S'0.4'
p891
sg741
S'.546'
p892
sg743
S'5.9'
p893
sg745
S'.321'
p894
sg747
S'.086'
p895
sg27
S'NBA'
p896
sg750
S'0.6'
p897
sg752
S'23.3'
p898
sg754
S'1.6'
p899
sg37
S'28'
p900
sg39
S'CHI'
p901
sg41
S'71'
p902
sg759
S'0.5'
p903
sg761
S'15.6'
p904
sg763
S'2.2'
p905
sg59
S'1803'
p906
sg766
S'-1.1'
p907
sg52
S'1980-81'
p908
sg768
S'3.8'
p909
sba(isrc.gp1.models.Advanced
Advanced
p910
(dp911
g726
S'2.3'
p912
sg728
S'19.2'
p913
sg730
S'.024'
p914
sg732
S'1.8'
p915
sg734
S'24.4'
p916
sg736
S'4.2'
p917
sg738
S'-2.4'
p918
sg21
S'SG'
p919
sg740
S'-0.9'
p920
sg741
S'.515'
p921
sg743
S'5.9'
p922
sg745
S'.317'
p923
sg747
S'.095'
p924
sg27
S'NBA'
p925
sg750
S'-1.5'
p926
sg752
S'23.5'
p927
sg754
S'1.2'
p928
sg37
S'29'
p929
sg39
S'CHI'
p930
sg41
S'80'
p931
sg759
S'0.5'
p932
sg761
S'12.2'
p933
sg763
S'-0.2'
p934
sg59
S'1938'
p935
sg766
S'-3.9'
p936
sg52
S'1981-82'
p937
sg768
S'1.0'
p938
sba(isrc.gp1.models.Advanced
Advanced
p939
(dp940
g726
S'2.7'
p941
sg728
S'19.3'
p942
sg730
S'.080'
p943
sg732
S'2.0'
p944
sg734
S'22.0'
p945
sg736
S'3.9'
p946
sg738
S'0.1'
p947
sg21
S'SG'
p948
sg740
S'0.6'
p949
sg741
S'.524'
p950
sg743
S'5.2'
p951
sg745
S'.346'
p952
sg747
S'.103'
p953
sg27
S'NBA'
p954
sg750
S'-0.6'
p955
sg752
S'22.6'
p956
sg754
S'2.0'
p957
sg37
S'30'
p958
sg39
S'WSB'
p959
sg41
S'41'
p960
sg759
S'0.6'
p961
sg761
S'12.8'
p962
sg763
S'0.4'
p963
sg59
S'1438'
p964
sg766
S'-0.5'
p965
sg52
S'1982-83'
p966
sg768
S'2.4'
p967
sba(isrc.gp1.models.Advanced
Advanced
p968
(dp969
g726
S'2.3'
p970
sg728
S'15.3'
p971
sg730
S'.053'
p972
sg732
S'2.2'
p973
sg734
S'23.6'
p974
sg736
S'4.0'
p975
sg738
S'-0.9'
p976
sg21
S'SG'
p977
sg740
S'0.4'
p978
sg741
S'.514'
p979
sg743
S'5.7'
p980
sg745
S'.237'
p981
sg747
S'.100'
p982
sg27
S'NBA'
p983
sg750
S'-0.5'
p984
sg752
S'22.2'
p985
sg754
S'2.5'
p986
sg37
S'31'
p987
sg39
S'WSB'
p988
sg41
S'81'
p989
sg759
S'0.4'
p990
sg761
S'13.2'
p991
sg763
S'0.4'
p992
sg59
S'2624'
p993
sg766
S'-1.4'
p994
sg52
S'1983-84'
p995
sg768
S'2.9'
p996
sba(isrc.gp1.models.Advanced
Advanced
p997
(dp998
g726
S'2.1'
p999
sg728
S'18.4'
p1000
sg730
S'.002'
p1001
sg732
S'1.6'
p1002
sg734
S'24.1'
p1003
sg736
S'4.0'
p1004
sg738
S'-2.6'
p1005
sg21
S'SG'
p1006
sg740
S'-1.2'
p1007
sg741
S'.501'
p1008
sg743
S'5.9'
p1009
sg745
S'.258'
p1010
sg747
S'.045'
p1011
sg27
S'NBA'
p1012
sg750
S'-2.7'
p1013
sg752
S'26.3'
p1014
sg754
S'1.0'
p1015
sg37
S'32'
p1016
sg39
S'SEA'
p1017
sg41
S'71'
p1018
sg759
S'0.3'
p1019
sg761
S'11.3'
p1020
sg763
S'-0.9'
p1021
sg59
S'1490'
p1022
sg766
S'-5.3'
p1023
sg52
S'1984-85'
p1024
sg768
S'0.1'
p1025
sba(isrc.gp1.models.Advanced
Advanced
p1026
(dp1027
g726
S'2.6'
p1028
sg728
S'12.5'
p1029
sg730
S'.081'
p1030
sg732
S'1.7'
p1031
sg734
S'22.3'
p1032
sg736
S'4.6'
p1033
sg738
S'-2.1'
p1034
sg21
S'SG'
p1035
sg740
S'-0.3'
p1036
sg741
S'.506'
p1037
sg743
S'6.6'
p1038
sg745
S'.231'
p1039
sg747
S'.079'
p1040
sg27
S'NBA'
p1041
sg750
S'-0.8'
p1042
sg752
S'21.7'
p1043
sg754
S'1.1'
p1044
sg37
S'33'
p1045
sg39
S'SEA'
p1046
sg41
S'78'
p1047
sg759
S'0.1'
p1048
sg761
S'13.4'
p1049
sg763
S'1.1'
p1050
sg59
S'1279'
p1051
sg766
S'-2.9'
p1052
sg52
S'1985-86'
p1053
sg768
S'2.2'
p1054
sbasS'_per36Minutes'
p1055
(lp1056
(isrc.gp1.models.Per36Minutes
Per36Minutes
p1057
(dp1058
g8
S'2.0'
p1059
sg10
S'.449'
p1060
sg12
S'5.3'
p1061
sg14
S'13.6'
p1062
sg16
S'3.0'
p1063
sg18
S'11.8'
p1064
sg20
g3
sg21
S'SG'
p1065
sg23
S'4.1'
p1066
sg27
S'NBA'
p1067
sg29
g3
sg30
S'.449'
p1068
sg32
g3
sg33
S'4.9'
p1069
sg35
S'4.8'
p1070
sg37
S'23'
p1071
sg39
S'PHO'
p1072
sg41
S'78'
p1073
sg43
g3
sg44
S'3.6'
p1074
sg46
S'3.4'
p1075
sg48
S'.823'
p1076
sg50
S'0.1'
p1077
sg52
S'1975-76'
p1078
sg54
S'11.8'
p1079
sg56
g3
sg57
S'1.5'
p1080
sg59
S'5.3'
p1081
sg61
S'1898'
p1082
sba(isrc.gp1.models.Per36Minutes
Per36Minutes
p1083
(dp1084
g8
S'1.7'
p1085
sg10
S'.496'
p1086
sg12
S'7.4'
p1087
sg14
S'19.2'
p1088
sg16
S'4.4'
p1089
sg18
S'15.0'
p1090
sg20
g3
sg21
S'SG'
p1091
sg23
S'4.3'
p1092
sg27
S'NBA'
p1093
sg29
g3
sg30
S'.496'
p1094
sg32
g3
sg33
S'4.2'
p1095
sg35
S'4.6'
p1096
sg37
S'24'
p1097
sg39
S'PHO'
p1098
sg41
S'79'
p1099
sg43
g3
sg44
S'5.2'
p1100
sg46
S'2.7'
p1101
sg48
S'.841'
p1102
sg50
S'0.3'
p1103
sg52
S'1976-77'
p1104
sg54
S'15.0'
p1105
sg56
g3
sg57
S'1.5'
p1106
sg59
S'7.4'
p1107
sg61
S'2005'
p1108
sba(isrc.gp1.models.Per36Minutes
Per36Minutes
p1109
(dp1110
g8
S'2.0'
p1111
sg10
S'.453'
p1112
sg12
S'6.6'
p1113
sg14
S'3.7'
p1114
sg16
S'3.9'
p1115
sg18
S'14.6'
p1116
sg20
g3
sg21
S'PG'
p1117
sg23
S'7.0'
p1118
sg27
S'NBA'
p1119
sg29
S'17.1'
p1120
sg30
S'.453'
p1121
sg32
g3
sg33
S'3.9'
p1122
sg35
S'4.2'
p1123
sg37
S'25'
p1124
sg39
S'IND'
p1125
sg41
S'79'
p1126
sg43
g3
sg44
S'4.8'
p1127
sg46
S'2.8'
p1128
sg48
S'.825'
p1129
sg50
S'0.3'
p1130
sg52
S'1977-78'
p1131
sg54
S'14.6'
p1132
sg56
g3
sg57
S'1.1'
p1133
sg59
S'6.6'
p1134
sg61
S'3019'
p1135
sba(isrc.gp1.models.Per36Minutes
Per36Minutes
p1136
(dp1137
g8
S'1.8'
p1138
sg10
S'.463'
p1139
sg12
S'7.0'
p1140
sg14
S'4.0'
p1141
sg16
S'3.8'
p1142
sg18
S'15.2'
p1143
sg20
g3
sg21
S'SG'
p1144
sg23
S'5.7'
p1145
sg27
S'NBA'
p1146
sg29
S'17.9'
p1147
sg30
S'.463'
p1148
sg32
g3
sg33
S'3.8'
p1149
sg35
S'3.9'
p1150
sg37
S'26'
p1151
sg39
S'IND'
p1152
sg41
S'81'
p1153
sg43
g3
sg44
S'4.3'
p1154
sg46
S'2.3'
p1155
sg48
S'.882'
p1156
sg50
S'0.3'
p1157
sg52
S'1978-79'
p1158
sg54
S'15.2'
p1159
sg56
g3
sg57
S'1.5'
p1160
sg59
S'7.0'
p1161
sg61
S'2825'
p1162
sba(isrc.gp1.models.Per36Minutes
Per36Minutes
p1163
(dp1164
g8
S'2.2'
p1165
sg10
S'.309'
p1166
sg12
S'0.3'
p1167
sg14
S'1.8'
p1168
sg16
S'6.0'
p1169
sg18
S'0.9'
p1170
sg20
g3
sg21
S'PG'
p1171
sg23
S'1.0'
p1172
sg27
S'NBA'
p1173
sg29
S'0.2'
p1174
sg30
S'.469'
p1175
sg32
S'15.6'
p1176
sg33
S'.837'
p1177
sg35
S'5.7'
p1178
sg37
S'27'
p1179
sg39
S'CHI'
p1180
sg41
S'82'
p1181
sg43
S'3.8'
p1182
sg44
S'12.6'
p1183
sg46
S'3.2'
p1184
sg48
S'.481'
p1185
sg50
S'3.3'
p1186
sg52
S'1979-80'
p1187
sg54
S'13.5'
p1188
sg56
S'4.0'
p1189
sg57
S'2.7'
p1190
sg59
S'6.3'
p1191
sg61
S'2673'
p1192
sba(isrc.gp1.models.Per36Minutes
Per36Minutes
p1193
(dp1194
g8
S'2.0'
p1195
sg10
S'.258'
p1196
sg12
S'0.3'
p1197
sg14
S'2.0'
p1198
sg16
S'6.7'
p1199
sg18
S'1.3'
p1200
sg20
g3
sg21
S'PG'
p1201
sg23
S'0.9'
p1202
sg27
S'NBA'
p1203
sg29
S'0.3'
p1204
sg30
S'.462'
p1205
sg32
S'19.1'
p1206
sg33
S'.935'
p1207
sg35
S'5.7'
p1208
sg37
S'28'
p1209
sg39
S'CHI'
p1210
sg41
S'71'
p1211
sg43
S'4.1'
p1212
sg44
S'14.0'
p1213
sg46
S'4.9'
p1214
sg48
S'.481'
p1215
sg50
S'2.9'
p1216
sg52
S'1980-81'
p1217
sg54
S'15.4'
p1218
sg56
S'4.5'
p1219
sg57
S'4.6'
p1220
sg59
S'7.1'
p1221
sg61
S'1803'
p1222
sba(isrc.gp1.models.Per36Minutes
Per36Minutes
p1223
(dp1224
g8
S'0.7'
p1225
sg10
S'1.4'
p1226
sg12
S'.453'
p1227
sg14
S'5.6'
p1228
sg16
S'.250'
p1229
sg18
S'0.4'
p1230
sg20
S'17.5'
p1231
sg21
S'SG'
p1232
sg23
S'.768'
p1233
sg27
S'NBA'
p1234
sg29
S'1.4'
p1235
sg30
S'14.9'
p1236
sg32
S'4.4'
p1237
sg33
S'4.7'
p1238
sg35
S'2.6'
p1239
sg37
S'29'
p1240
sg39
S'CHI'
p1241
sg41
S'80'
p1242
sg43
S'0.3'
p1243
sg44
S'6.4'
p1244
sg46
S'3.6'
p1245
sg48
S'13.5'
p1246
sg50
S'2.0'
p1247
sg52
S'1981-82'
p1248
sg54
S'6.7'
p1249
sg56
S'4.0'
p1250
sg57
S'.474'
p1251
sg59
S'1938'
p1252
sg61
g239
sba(isrc.gp1.models.Per36Minutes
Per36Minutes
p1253
(dp1254
g8
S'0.9'
p1255
sg10
S'1.4'
p1256
sg12
S'.438'
p1257
sg14
S'5.5'
p1258
sg16
S'.418'
p1259
sg18
S'0.6'
p1260
sg20
S'16.1'
p1261
sg21
S'SG'
p1262
sg23
S'.832'
p1263
sg27
S'NBA'
p1264
sg29
S'1.5'
p1265
sg30
S'13.4'
p1266
sg32
S'4.0'
p1267
sg33
S'4.6'
p1268
sg35
S'2.6'
p1269
sg37
S'30'
p1270
sg39
S'WSB'
p1271
sg41
S'41'
p1272
sg43
S'0.4'
p1273
sg44
S'5.3'
p1274
sg46
S'3.9'
p1275
sg48
S'12.0'
p1276
sg50
S'1.7'
p1277
sg52
S'1982-83'
p1278
sg54
S'5.9'
p1279
sg56
S'3.7'
p1280
sg57
S'.441'
p1281
sg59
S'1438'
p1282
sg61
S'39'
p1283
sba(isrc.gp1.models.Per36Minutes
Per36Minutes
p1284
(dp1285
g8
S'0.7'
p1286
sg10
S'1.5'
p1287
sg12
S'.456'
p1288
sg14
S'5.2'
p1289
sg16
S'.261'
p1290
sg18
S'0.4'
p1291
sg20
S'17.4'
p1292
sg21
S'SG'
p1293
sg23
S'.837'
p1294
sg27
S'NBA'
p1295
sg29
S'1.6'
p1296
sg30
S'15.3'
p1297
sg32
S'3.8'
p1298
sg33
S'3.6'
p1299
sg35
S'2.5'
p1300
sg37
S'31'
p1301
sg39
S'WSB'
p1302
sg41
S'81'
p1303
sg43
S'0.2'
p1304
sg44
S'6.6'
p1305
sg46
S'3.0'
p1306
sg48
S'13.8'
p1307
sg50
S'1.8'
p1308
sg52
S'1983-84'
p1309
sg54
S'7.0'
p1310
sg56
S'3.0'
p1311
sg57
S'.477'
p1312
sg59
S'2624'
p1313
sg61
S'81'
p1314
sba(isrc.gp1.models.Per36Minutes
Per36Minutes
p1315
(dp1316
g8
S'0.7'
p1317
sg10
S'0.7'
p1318
sg12
S'.446'
p1319
sg14
S'6.1'
p1320
sg16
S'.286'
p1321
sg18
S'0.2'
p1322
sg20
S'16.9'
p1323
sg21
S'SG'
p1324
sg23
S'.815'
p1325
sg27
S'NBA'
p1326
sg29
S'1.2'
p1327
sg30
S'15.2'
p1328
sg32
S'3.8'
p1329
sg33
S'3.9'
p1330
sg35
S'2.5'
p1331
sg37
S'32'
p1332
sg39
S'SEA'
p1333
sg41
S'71'
p1334
sg43
S'0.2'
p1335
sg44
S'6.6'
p1336
sg46
S'3.2'
p1337
sg48
S'14.5'
p1338
sg50
S'1.8'
p1339
sg52
S'1984-85'
p1340
sg54
S'6.8'
p1341
sg56
S'3.8'
p1342
sg57
S'.453'
p1343
sg59
S'1490'
p1344
sg61
S'12'
p1345
sba(isrc.gp1.models.Per36Minutes
Per36Minutes
p1346
(dp1347
g8
S'0.8'
p1348
sg10
S'1.2'
p1349
sg12
S'.444'
p1350
sg14
S'5.1'
p1351
sg16
S'.302'
p1352
sg18
S'0.4'
p1353
sg20
S'17.0'
p1354
sg21
S'SG'
p1355
sg23
S'.880'
p1356
sg27
S'NBA'
p1357
sg29
S'1.2'
p1358
sg30
S'15.2'
p1359
sg32
S'3.9'
p1360
sg33
S'3.5'
p1361
sg35
S'2.8'
p1362
sg37
S'33'
p1363
sg39
S'SEA'
p1364
sg41
S'78'
p1365
sg43
S'0.1'
p1366
sg44
S'6.4'
p1367
sg46
S'3.1'
p1368
sg48
S'14.0'
p1369
sg50
S'2.0'
p1370
sg52
S'1985-86'
p1371
sg54
S'6.8'
p1372
sg56
S'2.4'
p1373
sg57
S'.456'
p1374
sg59
S'1279'
p1375
sg61
g367
sbasS'_fromYear'
p1376
S'1976'
p1377
sS'_url'
p1378
S'http://www.basketball-reference.com/players/s/soberri01.html'
p1379
sS'_perGame'
p1380
(isrc.gp1.models.PerGame
PerGame
p1381
(dp1382
g8
S'0.4'
p1383
sg10
S'0.6'
p1384
sg12
S'.444'
p1385
sS'_effectiveFieldGalPercentage'
p1386
S'.456'
p1387
sg14
S'2.3'
p1388
sg16
S'.302'
p1389
sg18
S'0.2'
p1390
sg20
S'7.7'
p1391
sg21
S'SG'
p1392
sg23
S'.880'
p1393
sg27
S'NBA'
p1394
sg29
S'0.6'
p1395
sg32
S'1.8'
p1396
sS'_fieldGoalsttempted'
p1397
S'6.9'
p1398
sg33
S'1.6'
p1399
sg35
S'1.3'
p1400
sg37
S'33'
p1401
sg39
S'SEA'
p1402
sg41
S'78'
p1403
sg43
S'0.0'
p1404
sg44
S'2.9'
p1405
sg46
S'1.4'
p1406
sg48
S'6.4'
p1407
sg50
S'0.9'
p1408
sg52
S'1985-86'
p1409
sg54
S'3.1'
p1410
sg56
S'1.1'
p1411
sg57
S'.456'
p1412
sg59
S'16.4'
p1413
sg61
g367
sbsS'_weight'
p1414
S'198'
p1415
sS'_dob'
p1416
S'15-1-1953'
p1417
sS'_salary'
p1418
(lp1419
(isrc.gp1.models.Salary
Salary
p1420
(dp1421
g39
S'Seattle SuperSonics'
p1422
sg27
S'NBA'
p1423
sg1418
S'$425,000'
p1424
sg52
S'1985-86'
p1425
sbasg21
S'G'
p1426
sb.