(isrc.gp1.models.Player
Player
p0
(dp1
S'_experience'
p2
S'NA'
p3
sS'_totals'
p4
(lp5
(isrc.gp1.models.Totals
Totals
p6
(dp7
S'_offensiveRebounds'
p8
S'58'
p9
sS'_threePointsAttempted'
p10
S'.381'
p11
sS'_fieldGoalsPercentage'
p12
S'143'
p13
sS'_assist'
p14
S'95'
p15
sS'_threePointsPercentage'
p16
S'.381'
p17
sS'_threePoints'
p18
S'375'
p19
sS'_points'
p20
g3
sS'_position'
p21
S'PG'
p22
sS'_freeThrowsPercentage'
p23
S'149'
p24
sS'_effectiveFieldGoalPercentage'
p25
S'49'
p26
sS'_league'
p27
S'NBA'
p28
sS'_steals'
p29
S'340'
p30
sS'_fieldGoalsAttempted'
p31
S'.381'
p32
sS'_personalFouls'
p33
g3
sS'_freeThrowsAttempted'
p34
S'116'
p35
sS'_totalRebounds'
p36
S'79'
p37
sS'_age'
p38
S'23'
p39
sS'_team'
p40
S'GSW'
p41
sS'_games'
p42
S'76'
p43
sS'_blocks'
p44
g3
sS'_twoPoints'
p45
S'54'
p46
sS'_freeThrows'
p47
S'67'
p48
sS'_twoPointsAttempted'
p49
S'90'
p50
sS'_defensiveRebounds'
p51
S'1'
p52
sS'_season'
p53
S'1977-78'
p54
sS'_fieldGoals'
p55
S'375'
p56
sS'_turnOvers'
p57
g3
sS'_twoPointsPercentage'
p58
S'.600'
p59
sS'_minutesPlayed'
p60
S'143'
p61
sS'_gamesStarted'
p62
S'1098'
p63
sba(isrc.gp1.models.Totals
Totals
p64
(dp65
g8
S'25'
p66
sg10
S'.379'
p67
sg12
S'67'
p68
sg14
S'37'
p69
sg16
S'.379'
p70
sg18
S'177'
p71
sg20
g3
sg21
S'PG'
p72
sg23
S'63'
p73
sg25
S'15'
p74
sg27
S'NBA'
p75
sg29
S'179'
p76
sg31
S'.379'
p77
sg33
g3
sg34
S'40'
p78
sg36
S'44'
p79
sg38
S'24'
p80
sg40
S'DET'
p81
sg42
S'27'
p82
sg44
g3
sg45
S'45'
p83
sg47
S'25'
p84
sg49
S'67'
p85
sg51
g52
sg53
S'1978-79'
p86
sg55
S'177'
p87
sg57
g3
sg58
S'.672'
p88
sg60
S'67'
p89
sg62
S'431'
p90
sba(isrc.gp1.models.Totals
Totals
p91
(dp92
g8
g3
sg10
g3
sg12
g3
sg14
g3
sg16
g3
sg18
g3
sg20
g3
sg21
g3
sg23
g3
sg25
g3
sg27
g3
sg29
g3
sg31
g3
sg33
g3
sg34
g3
sg36
g3
sg38
S'25'
p93
sg40
S'Did Not Play\xc2\xa0(other pro league\xe2\x80\x94CBA)'
p94
sg42
g3
sg44
g3
sg45
g3
sg47
g3
sg49
g3
sg51
g3
sg53
S'1979-80'
p95
sg55
g3
sg57
g3
sg58
g3
sg60
g3
sg62
g3
sba(isrc.gp1.models.Totals
Totals
p96
(dp97
g8
S'86'
p98
sg10
S'.000'
p99
sg12
S'0'
p100
sg14
S'75'
p101
sg16
S'176'
p102
sg18
g52
sg20
g3
sg21
S'PG'
p103
sg23
S'30'
p104
sg25
S'70'
p105
sg27
S'NBA'
p106
sg29
g52
sg31
S'.481'
p107
sg33
S'422'
p108
sg34
S'.722'
p109
sg36
S'235'
p110
sg38
S'26'
p111
sg40
S'UTA'
p112
sg42
S'47'
p113
sg44
S'83'
p114
sg45
S'365'
p115
sg47
S'97'
p116
sg49
S'.482'
p117
sg51
S'116'
p118
sg53
S'1980-81'
p119
sg55
S'366'
p120
sg57
S'123'
p121
sg58
S'.481'
p122
sg60
S'176'
p123
sg62
S'1307'
p124
sba(isrc.gp1.models.Totals
Totals
p125
(dp126
g8
S'85'
p127
sg10
S'8'
p128
sg12
S'.493'
p129
sg14
S'630'
p130
sg16
S'.000'
p131
sg18
g100
sg20
S'1202'
p132
sg21
S'PG'
p133
sg23
S'.765'
p134
sg25
S'.493'
p135
sg27
S'NBA'
p136
sg29
S'185'
p137
sg31
S'1015'
p138
sg33
S'183'
p139
sg34
S'264'
p140
sg36
S'243'
p141
sg38
S'27'
p142
sg40
S'UTA'
p143
sg42
S'81'
p144
sg44
S'9'
p145
sg45
S'500'
p146
sg47
S'202'
p147
sg49
S'1007'
p148
sg51
S'158'
p149
sg53
S'1981-82'
p150
sg55
S'500'
p151
sg57
S'198'
p152
sg58
S'.497'
p153
sg60
S'2822'
p154
sg62
S'73'
p155
sba(isrc.gp1.models.Totals
Totals
p156
(dp157
g8
S'62'
p158
sg10
S'13'
p159
sg12
S'.493'
p160
sg14
S'697'
p161
sg16
S'.154'
p162
sg18
S'2'
p163
sg20
S'1115'
p164
sg21
S'PG'
p165
sg23
S'.797'
p166
sg25
S'.494'
p167
sg27
S'NBA'
p168
sg29
S'220'
p169
sg31
S'942'
p170
sg33
S'154'
p171
sg34
S'232'
p172
sg36
S'223'
p173
sg38
S'28'
p174
sg40
S'UTA'
p175
sg42
S'78'
p176
sg44
S'4'
p177
sg45
S'462'
p178
sg47
S'185'
p179
sg49
S'929'
p180
sg51
S'161'
p181
sg53
S'1982-83'
p182
sg55
S'464'
p183
sg57
S'222'
p184
sg58
S'.497'
p185
sg60
S'2783'
p186
sg62
S'78'
p187
sba(isrc.gp1.models.Totals
Totals
p188
(dp189
g8
S'56'
p190
sg10
S'17'
p191
sg12
S'.486'
p192
sg14
S'748'
p193
sg16
S'.118'
p194
sg18
g163
sg20
S'1072'
p195
sg21
S'PG'
p196
sg23
S'.821'
p197
sg25
S'.487'
p198
sg27
S'NBA'
p199
sg29
S'215'
p200
sg31
S'904'
p201
sg33
S'155'
p202
sg34
S'234'
p203
sg36
S'230'
p204
sg38
S'29'
p205
sg40
S'UTA'
p206
sg42
S'81'
p207
sg44
S'13'
p208
sg45
S'437'
p209
sg47
S'192'
p210
sg49
S'887'
p211
sg51
S'174'
p212
sg53
S'1983-84'
p213
sg55
S'439'
p214
sg57
S'172'
p215
sg58
S'.493'
p216
sg60
S'2768'
p217
sg62
S'81'
p218
sba(isrc.gp1.models.Totals
Totals
p219
(dp220
g8
S'37'
p221
sg10
S'20'
p222
sg12
S'.477'
p223
sg14
S'597'
p224
sg16
S'.300'
p225
sg18
S'6'
p226
sg20
S'1000'
p227
sg21
S'PG'
p228
sg23
S'.869'
p229
sg25
S'.481'
p230
sg27
S'NBA'
p231
sg29
S'132'
p232
sg31
S'798'
p233
sg33
S'131'
p234
sg34
S'267'
p235
sg36
S'189'
p236
sg38
S'30'
p237
sg40
S'UTA'
p238
sg42
S'77'
p239
sg44
S'3'
p240
sg45
S'375'
p241
sg47
S'232'
p242
sg49
S'778'
p243
sg51
S'152'
p244
sg53
S'1984-85'
p245
sg55
S'381'
p246
sg57
S'177'
p247
sg58
S'.482'
p248
sg60
S'2431'
p249
sg62
S'77'
p250
sba(isrc.gp1.models.Totals
Totals
p251
(dp252
g8
S'32'
p253
sg10
S'29'
p254
sg12
S'.471'
p255
sg14
S'411'
p256
sg16
S'.172'
p257
sg18
S'5'
p258
sg20
S'932'
p259
sg21
S'PG'
p260
sg23
S'.852'
p261
sg25
S'.474'
p262
sg27
S'NBA'
p263
sg29
S'106'
p264
sg31
S'758'
p265
sg33
S'130'
p266
sg34
S'250'
p267
sg36
S'135'
p268
sg38
S'31'
p269
sg40
S'UTA'
p270
sg42
S'80'
p271
sg44
g226
sg45
S'352'
p272
sg47
S'213'
p273
sg49
S'729'
p274
sg51
S'103'
p275
sg53
S'1985-86'
p276
sg55
S'357'
p277
sg57
S'132'
p278
sg58
S'.483'
p279
sg60
S'2012'
p280
sg62
S'44'
p281
sba(isrc.gp1.models.Totals
Totals
p282
(dp283
g8
S'38'
p284
sg10
S'19'
p285
sg12
S'.467'
p286
sg14
S'541'
p287
sg16
S'.368'
p288
sg18
S'7'
p289
sg20
S'781'
p290
sg21
S'PG'
p291
sg23
S'.827'
p292
sg25
S'.473'
p293
sg27
S'NBA'
p294
sg29
S'110'
p295
sg31
S'644'
p296
sg33
S'108'
p297
sg34
S'208'
p298
sg36
S'163'
p299
sg38
S'32'
p300
sg40
S'UTA'
p301
sg42
S'81'
p302
sg44
g163
sg45
S'294'
p303
sg47
S'172'
p304
sg49
S'625'
p305
sg51
S'125'
p306
sg53
S'1986-87'
p307
sg55
S'301'
p308
sg57
S'133'
p309
sg58
S'.470'
p310
sg60
S'2090'
p311
sg62
S'80'
p312
sba(isrc.gp1.models.Totals
Totals
p313
(dp314
g8
S'14'
p315
sg10
S'19'
p316
sg12
S'.424'
p317
sg14
S'300'
p318
sg16
S'.211'
p319
sg18
g177
sg20
S'393'
p320
sg21
S'PG'
p321
sg23
S'.904'
p322
sg25
S'.430'
p323
sg27
S'NBA'
p324
sg29
S'57'
p325
sg31
S'370'
p326
sg33
S'83'
p327
sg34
S'83'
p328
sg36
S'80'
p329
sg38
S'33'
p330
sg40
S'UTA'
p331
sg42
S'81'
p332
sg44
g52
sg45
S'153'
p333
sg47
S'75'
p334
sg49
S'351'
p335
sg51
S'66'
p336
sg53
S'1987-88'
p337
sg55
S'157'
p338
sg57
S'94'
p339
sg58
S'.436'
p340
sg60
S'1116'
p341
sg62
g240
sba(isrc.gp1.models.Totals
Totals
p342
(dp343
g8
S'11'
p344
sg10
S'11'
p345
sg12
S'.489'
p346
sg14
S'187'
p347
sg16
S'.273'
p348
sg18
g240
sg20
S'291'
p349
sg21
S'PG'
p350
sg23
S'.909'
p351
sg25
S'.494'
p352
sg27
S'NBA'
p353
sg29
S'40'
p354
sg31
S'264'
p355
sg33
S'35'
p356
sg34
S'33'
p357
sg36
S'69'
p358
sg38
S'34'
p359
sg40
S'TOT'
p360
sg42
S'63'
p361
sg44
g163
sg45
S'126'
p362
sg47
S'30'
p363
sg49
S'253'
p364
sg51
S'58'
p365
sg53
S'1988-89'
p366
sg55
S'129'
p367
sg57
S'61'
p368
sg58
S'.498'
p369
sg60
S'871'
p370
sg62
g163
sba(isrc.gp1.models.Totals
Totals
p371
(dp372
g8
g177
sg10
g258
sg12
S'.432'
p373
sg14
S'82'
p374
sg16
S'.200'
p375
sg18
g52
sg20
S'128'
p376
sg21
S'PG'
p377
sg23
S'.929'
p378
sg25
S'.436'
p379
sg27
S'NBA'
p380
sg29
S'18'
p381
sg31
S'132'
p382
sg33
S'16'
p383
sg34
S'14'
p384
sg36
S'23'
p385
sg38
S'34'
p386
sg40
S'CHH'
p387
sg42
S'33'
p388
sg44
g100
sg45
S'56'
p389
sg47
S'13'
p390
sg49
S'127'
p391
sg51
S'19'
p392
sg53
S'1988-89'
p393
sg55
S'57'
p394
sg57
S'28'
p395
sg58
S'.441'
p396
sg60
S'370'
p397
sg62
g163
sba(isrc.gp1.models.Totals
Totals
p398
(dp399
g8
g289
sg10
g226
sg12
S'.545'
p400
sg14
S'105'
p401
sg16
S'.333'
p402
sg18
g163
sg20
S'163'
p403
sg21
S'PG'
p404
sg23
S'.895'
p405
sg25
S'.553'
p406
sg27
S'NBA'
p407
sg29
S'22'
p408
sg31
S'132'
p409
sg33
S'19'
p410
sg34
S'19'
p411
sg36
S'46'
p412
sg38
S'34'
p413
sg40
S'MIL'
p414
sg42
S'30'
p415
sg44
g163
sg45
S'70'
p416
sg47
S'17'
p417
sg49
S'126'
p418
sg51
S'39'
p419
sg53
S'1988-89'
p420
sg55
S'72'
p421
sg57
S'33'
p422
sg58
S'.556'
p423
sg60
S'501'
p424
sg62
g100
sba(isrc.gp1.models.Totals
Totals
p425
(dp426
g8
g145
sg10
S'11'
p427
sg12
S'.433'
p428
sg14
S'182'
p429
sg16
S'.091'
p430
sg18
g52
sg20
S'244'
p431
sg21
S'PG'
p432
sg23
S'.843'
p433
sg25
S'.435'
p434
sg27
S'NBA'
p435
sg29
S'51'
p436
sg31
S'231'
p437
sg33
S'60'
p438
sg34
S'51'
p439
sg36
S'54'
p440
sg38
S'35'
p441
sg40
S'IND'
p442
sg42
S'69'
p443
sg44
g52
sg45
S'99'
p444
sg47
S'43'
p445
sg49
S'220'
p446
sg51
S'45'
p447
sg53
S'1989-90'
p448
sg55
S'100'
p449
sg57
S'62'
p450
sg58
S'.450'
p451
sg60
S'927'
p452
sg62
g100
sba(isrc.gp1.models.Totals
Totals
p453
(dp454
g8
S'33'
p455
sg10
S'36'
p456
sg12
S'.463'
p457
sg14
S'413'
p458
sg16
S'.222'
p459
sg18
g128
sg20
S'793'
p460
sg21
S'PG'
p461
sg23
S'.830'
p462
sg25
S'.468'
p463
sg27
S'NBA'
p464
sg29
S'57'
p465
sg31
S'722'
p466
sg33
S'130'
p467
sg34
S'141'
p468
sg36
S'137'
p469
sg38
S'36'
p470
sg40
S'PHI'
p471
sg42
S'79'
p472
sg44
g226
sg45
S'326'
p473
sg47
S'117'
p474
sg49
S'686'
p475
sg51
S'104'
p476
sg53
S'1990-91'
p477
sg55
S'334'
p478
sg57
S'108'
p479
sg58
S'.475'
p480
sg60
S'2248'
p481
sg62
S'75'
p482
sba(isrc.gp1.models.Totals
Totals
p483
(dp484
g8
g240
sg10
g177
sg12
S'.447'
p485
sg14
S'68'
p486
sg16
S'.250'
p487
sg18
g52
sg20
S'106'
p488
sg21
S'PG'
p489
sg23
S'.722'
p490
sg25
S'.451'
p491
sg27
S'NBA'
p492
sg29
S'17'
p493
sg31
S'103'
p494
sg33
S'28'
p495
sg34
S'18'
p496
sg36
S'24'
p497
sg38
S'37'
p498
sg40
S'BOS'
p499
sg42
S'26'
p500
sg44
g52
sg45
S'45'
p501
sg47
S'13'
p502
sg49
S'99'
p503
sg51
S'21'
p504
sg53
S'1991-92'
p505
sg55
S'46'
p506
sg57
S'18'
p507
sg58
S'.455'
p508
sg60
S'367'
p509
sg62
g100
sbasS'_college'
p510
S'University of Michigan'
p511
sS'_toYear'
p512
S'1992'
p513
sS'_height'
p514
S'6-0'
p515
sS'_active'
p516
I00
sS'_shootingHand'
p517
VRight
p518
sS'_name'
p519
S'Rickey Green'
p520
sS'_per100Possessions'
p521
(lp522
(isrc.gp1.models.Per100Possession
Per100Possession
p523
(dp524
g8
S'2.4'
p525
sg10
S'.381'
p526
sg12
S'5.9'
p527
sS'_offensiveRating'
p528
g3
sg14
S'3.9'
p529
sg16
S'2.2'
p530
sg18
S'15.5'
p531
sg20
g3
sg21
S'PG'
p532
sS'_defensiveRating'
p533
g3
sg23
S'6.1'
p534
sg27
S'NBA'
p535
sg29
S'14.0'
p536
sg31
S'.381'
p537
sg33
g3
sg34
S'4.8'
p538
sg36
S'3.3'
p539
sg38
S'23'
p540
sg40
S'GSW'
p541
sg42
S'76'
p542
sg44
S'87'
p543
sg45
S'3.7'
p544
sg47
S'2.8'
p545
sg49
S'.600'
p546
sg51
S'0.0'
p547
sg53
S'1977-78'
p548
sg55
S'15.5'
p549
sg57
S'101'
p550
sg58
S'2.0'
p551
sg60
S'5.9'
p552
sg62
S'1098'
p553
sba(isrc.gp1.models.Per100Possession
Per100Possession
p554
(dp555
g8
S'2.6'
p556
sg10
S'.379'
p557
sg12
S'7.0'
p558
sg528
g3
sg14
S'3.8'
p559
sg16
S'4.7'
p560
sg18
S'18.4'
p561
sg20
g3
sg21
S'PG'
p562
sg533
g3
sg23
S'6.5'
p563
sg27
S'NBA'
p564
sg29
S'18.6'
p565
sg31
S'.379'
p566
sg33
g3
sg34
S'4.2'
p567
sg36
S'4.6'
p568
sg38
S'24'
p569
sg40
S'DET'
p570
sg42
S'27'
p571
sg44
S'88'
p572
sg45
S'7.0'
p573
sg47
S'2.6'
p574
sg49
S'.672'
p575
sg51
S'0.1'
p576
sg53
S'1978-79'
p577
sg55
S'18.4'
p578
sg57
S'106'
p579
sg58
S'1.6'
p580
sg60
S'7.0'
p581
sg62
S'431'
p582
sba(isrc.gp1.models.Per100Possession
Per100Possession
p583
(dp584
g8
S'3.2'
p585
sg10
S'.000'
p586
sg12
S'0.0'
p587
sg528
S'109'
p588
sg14
S'2.8'
p589
sg16
S'6.6'
p590
sg18
S'0.0'
p591
sg20
S'105'
p592
sg21
S'PG'
p593
sg533
g3
sg23
S'1.1'
p594
sg27
S'NBA'
p595
sg29
S'0.0'
p596
sg31
S'.481'
p597
sg33
S'15.9'
p598
sg34
S'.722'
p599
sg36
S'8.8'
p600
sg38
S'26'
p601
sg40
S'UTA'
p602
sg42
S'47'
p603
sg44
S'3.1'
p604
sg45
S'13.7'
p605
sg47
S'3.6'
p606
sg49
S'.482'
p607
sg51
S'4.4'
p608
sg53
S'1980-81'
p609
sg55
S'13.8'
p610
sg57
S'4.6'
p611
sg58
S'2.6'
p612
sg60
S'6.6'
p613
sg62
S'1307'
p614
sba(isrc.gp1.models.Per100Possession
Per100Possession
p615
(dp616
g8
S'1.4'
p617
sg10
S'0.1'
p618
sg12
S'.493'
p619
sg528
S'111'
p620
sg14
S'10.3'
p621
sg16
S'.000'
p622
sg18
S'0.0'
p623
sg20
S'19.7'
p624
sg21
S'PG'
p625
sg533
S'111'
p626
sg23
S'.765'
p627
sg27
S'NBA'
p628
sg29
S'3.0'
p629
sg31
S'16.6'
p630
sg33
S'3.0'
p631
sg34
S'4.3'
p632
sg36
S'4.0'
p633
sg38
S'27'
p634
sg40
S'UTA'
p635
sg42
S'81'
p636
sg44
S'0.1'
p637
sg45
S'8.2'
p638
sg47
S'3.3'
p639
sg49
S'16.5'
p640
sg51
S'2.6'
p641
sg53
S'1981-82'
p642
sg55
S'8.2'
p643
sg57
S'3.2'
p644
sg58
S'.497'
p645
sg60
S'2822'
p646
sg62
S'73'
p647
sba(isrc.gp1.models.Per100Possession
Per100Possession
p648
(dp649
g8
S'1.0'
p650
sg10
S'0.2'
p651
sg12
S'.493'
p652
sg528
S'108'
p653
sg14
S'11.2'
p654
sg16
S'.154'
p655
sg18
S'0.0'
p656
sg20
S'17.9'
p657
sg21
S'PG'
p658
sg533
S'105'
p659
sg23
S'.797'
p660
sg27
S'NBA'
p661
sg29
S'3.5'
p662
sg31
S'15.1'
p663
sg33
S'2.5'
p664
sg34
S'3.7'
p665
sg36
S'3.6'
p666
sg38
S'28'
p667
sg40
S'UTA'
p668
sg42
S'78'
p669
sg44
S'0.1'
p670
sg45
S'7.4'
p671
sg47
S'3.0'
p672
sg49
S'14.9'
p673
sg51
S'2.6'
p674
sg53
S'1982-83'
p675
sg55
S'7.5'
p676
sg57
S'3.6'
p677
sg58
S'.497'
p678
sg60
S'2783'
p679
sg62
S'78'
p680
sba(isrc.gp1.models.Per100Possession
Per100Possession
p681
(dp682
g8
S'0.9'
p683
sg10
S'0.3'
p684
sg12
S'.486'
p685
sg528
S'115'
p686
sg14
S'12.4'
p687
sg16
S'.118'
p688
sg18
S'0.0'
p689
sg20
S'17.7'
p690
sg21
S'PG'
p691
sg533
S'107'
p692
sg23
S'.821'
p693
sg27
S'NBA'
p694
sg29
S'3.6'
p695
sg31
S'14.9'
p696
sg33
S'2.6'
p697
sg34
S'3.9'
p698
sg36
S'3.8'
p699
sg38
S'29'
p700
sg40
S'UTA'
p701
sg42
S'81'
p702
sg44
S'0.2'
p703
sg45
S'7.2'
p704
sg47
S'3.2'
p705
sg49
S'14.7'
p706
sg51
S'2.9'
p707
sg53
S'1983-84'
p708
sg55
S'7.3'
p709
sg57
S'2.8'
p710
sg58
S'.493'
p711
sg60
S'2768'
p712
sg62
S'81'
p713
sba(isrc.gp1.models.Per100Possession
Per100Possession
p714
(dp715
g8
S'0.7'
p716
sg10
S'0.4'
p717
sg12
S'.477'
p718
sg528
S'112'
p719
sg14
S'11.2'
p720
sg16
S'.300'
p721
sg18
S'0.1'
p722
sg20
S'18.8'
p723
sg21
S'PG'
p724
sg533
S'105'
p725
sg23
S'.869'
p726
sg27
S'NBA'
p727
sg29
S'2.5'
p728
sg31
S'15.0'
p729
sg33
S'2.5'
p730
sg34
S'5.0'
p731
sg36
S'3.5'
p732
sg38
S'30'
p733
sg40
S'UTA'
p734
sg42
S'77'
p735
sg44
S'0.1'
p736
sg45
S'7.0'
p737
sg47
S'4.4'
p738
sg49
S'14.6'
p739
sg51
S'2.9'
p740
sg53
S'1984-85'
p741
sg55
S'7.2'
p742
sg57
S'3.3'
p743
sg58
S'.482'
p744
sg60
S'2431'
p745
sg62
S'77'
p746
sba(isrc.gp1.models.Per100Possession
Per100Possession
p747
(dp748
g8
S'0.7'
p749
sg10
S'0.7'
p750
sg12
S'.471'
p751
sg528
S'111'
p752
sg14
S'9.5'
p753
sg16
S'.172'
p754
sg18
S'0.1'
p755
sg20
S'21.5'
p756
sg21
S'PG'
p757
sg533
S'107'
p758
sg23
S'.852'
p759
sg27
S'NBA'
p760
sg29
S'2.4'
p761
sg31
S'17.5'
p762
sg33
S'3.0'
p763
sg34
S'5.8'
p764
sg36
S'3.1'
p765
sg38
S'31'
p766
sg40
S'UTA'
p767
sg42
S'80'
p768
sg44
S'0.1'
p769
sg45
S'8.1'
p770
sg47
S'4.9'
p771
sg49
S'16.8'
p772
sg51
S'2.4'
p773
sg53
S'1985-86'
p774
sg55
S'8.2'
p775
sg57
S'3.0'
p776
sg58
S'.483'
p777
sg60
S'2012'
p778
sg62
S'44'
p779
sba(isrc.gp1.models.Per100Possession
Per100Possession
p780
(dp781
g8
S'0.8'
p782
sg10
S'0.4'
p783
sg12
S'.467'
p784
sg528
S'113'
p785
sg14
S'12.0'
p786
sg16
S'.368'
p787
sg18
S'0.2'
p788
sg20
S'17.4'
p789
sg21
S'PG'
p790
sg533
S'107'
p791
sg23
S'.827'
p792
sg27
S'NBA'
p793
sg29
S'2.4'
p794
sg31
S'14.3'
p795
sg33
S'2.4'
p796
sg34
S'4.6'
p797
sg36
S'3.6'
p798
sg38
S'32'
p799
sg40
S'UTA'
p800
sg42
S'81'
p801
sg44
S'0.0'
p802
sg45
S'6.5'
p803
sg47
S'3.8'
p804
sg49
S'13.9'
p805
sg51
S'2.8'
p806
sg53
S'1986-87'
p807
sg55
S'6.7'
p808
sg57
S'3.0'
p809
sg58
S'.470'
p810
sg60
S'2090'
p811
sg62
S'80'
p812
sba(isrc.gp1.models.Per100Possession
Per100Possession
p813
(dp814
g8
S'0.6'
p815
sg10
S'0.8'
p816
sg12
S'.424'
p817
sg528
S'102'
p818
sg14
S'12.7'
p819
sg16
S'.211'
p820
sg18
S'0.2'
p821
sg20
S'16.6'
p822
sg21
S'PG'
p823
sg533
S'106'
p824
sg23
S'.904'
p825
sg27
S'NBA'
p826
sg29
S'2.4'
p827
sg31
S'15.7'
p828
sg33
S'3.5'
p829
sg34
S'3.5'
p830
sg36
S'3.4'
p831
sg38
S'33'
p832
sg40
S'UTA'
p833
sg42
S'81'
p834
sg44
S'0.0'
p835
sg45
S'6.5'
p836
sg47
S'3.2'
p837
sg49
S'14.9'
p838
sg51
S'2.8'
p839
sg53
S'1987-88'
p840
sg55
S'6.7'
p841
sg57
S'4.0'
p842
sg58
S'.436'
p843
sg60
S'1116'
p844
sg62
g240
sba(isrc.gp1.models.Per100Possession
Per100Possession
p845
(dp846
g8
S'0.6'
p847
sg10
S'0.6'
p848
sg12
S'.489'
p849
sg528
S'106'
p850
sg14
S'10.4'
p851
sg16
S'.273'
p852
sg18
S'0.2'
p853
sg20
S'16.2'
p854
sg21
S'PG'
p855
sg533
S'111'
p856
sg23
S'.909'
p857
sg27
S'NBA'
p858
sg29
S'2.2'
p859
sg31
S'14.7'
p860
sg33
S'1.9'
p861
sg34
S'1.8'
p862
sg36
S'3.8'
p863
sg38
S'34'
p864
sg40
S'TOT'
p865
sg42
S'63'
p866
sg44
S'0.1'
p867
sg45
S'7.0'
p868
sg47
S'1.7'
p869
sg49
S'14.0'
p870
sg51
S'3.2'
p871
sg53
S'1988-89'
p872
sg55
S'7.2'
p873
sg57
S'3.4'
p874
sg58
S'.498'
p875
sg60
S'871'
p876
sg62
g163
sba(isrc.gp1.models.Per100Possession
Per100Possession
p877
(dp878
g8
S'0.5'
p879
sg10
S'0.6'
p880
sg12
S'.432'
p881
sg528
S'97'
p882
sg14
S'10.6'
p883
sg16
S'.200'
p884
sg18
S'0.1'
p885
sg20
S'16.6'
p886
sg21
S'PG'
p887
sg533
S'114'
p888
sg23
S'.929'
p889
sg27
S'NBA'
p890
sg29
S'2.3'
p891
sg31
S'17.1'
p892
sg33
S'2.1'
p893
sg34
S'1.8'
p894
sg36
S'3.0'
p895
sg38
S'34'
p896
sg40
S'CHH'
p897
sg42
S'33'
p898
sg44
S'0.0'
p899
sg45
S'7.2'
p900
sg47
S'1.7'
p901
sg49
S'16.4'
p902
sg51
S'2.5'
p903
sg53
S'1988-89'
p904
sg55
S'7.4'
p905
sg57
S'3.6'
p906
sg58
S'.441'
p907
sg60
S'370'
p908
sg62
g163
sba(isrc.gp1.models.Per100Possession
Per100Possession
p909
(dp910
g8
S'0.7'
p911
sg10
S'0.6'
p912
sg12
S'.545'
p913
sg528
S'114'
p914
sg14
S'10.2'
p915
sg16
S'.333'
p916
sg18
S'0.2'
p917
sg20
S'15.8'
p918
sg21
S'PG'
p919
sg533
S'108'
p920
sg23
S'.895'
p921
sg27
S'NBA'
p922
sg29
S'2.1'
p923
sg31
S'12.8'
p924
sg33
S'1.8'
p925
sg34
S'1.8'
p926
sg36
S'4.5'
p927
sg38
S'34'
p928
sg40
S'MIL'
p929
sg42
S'30'
p930
sg44
S'0.2'
p931
sg45
S'6.8'
p932
sg47
S'1.7'
p933
sg49
S'12.2'
p934
sg51
S'3.8'
p935
sg53
S'1988-89'
p936
sg55
S'7.0'
p937
sg57
S'3.2'
p938
sg58
S'.556'
p939
sg60
S'501'
p940
sg62
g100
sba(isrc.gp1.models.Per100Possession
Per100Possession
p941
(dp942
g8
S'0.5'
p943
sg10
S'0.6'
p944
sg12
S'.433'
p945
sg528
S'101'
p946
sg14
S'9.7'
p947
sg16
S'.091'
p948
sg18
S'0.1'
p949
sg20
S'13.0'
p950
sg21
S'PG'
p951
sg533
S'112'
p952
sg23
S'.843'
p953
sg27
S'NBA'
p954
sg29
S'2.7'
p955
sg31
S'12.3'
p956
sg33
S'3.2'
p957
sg34
S'2.7'
p958
sg36
S'2.9'
p959
sg38
S'35'
p960
sg40
S'IND'
p961
sg42
S'69'
p962
sg44
S'0.1'
p963
sg45
S'5.3'
p964
sg47
S'2.3'
p965
sg49
S'11.7'
p966
sg51
S'2.4'
p967
sg53
S'1989-90'
p968
sg55
S'5.3'
p969
sg57
S'3.3'
p970
sg58
S'.450'
p971
sg60
S'927'
p972
sg62
g100
sba(isrc.gp1.models.Per100Possession
Per100Possession
p973
(dp974
g8
S'0.7'
p975
sg10
S'0.8'
p976
sg12
S'.463'
p977
sg528
S'109'
p978
sg14
S'9.2'
p979
sg16
S'.222'
p980
sg18
S'0.2'
p981
sg20
S'17.7'
p982
sg21
S'PG'
p983
sg533
S'113'
p984
sg23
S'.830'
p985
sg27
S'NBA'
p986
sg29
S'1.3'
p987
sg31
S'16.1'
p988
sg33
S'2.9'
p989
sg34
S'3.1'
p990
sg36
S'3.1'
p991
sg38
S'36'
p992
sg40
S'PHI'
p993
sg42
S'79'
p994
sg44
S'0.1'
p995
sg45
S'7.3'
p996
sg47
S'2.6'
p997
sg49
S'15.3'
p998
sg51
S'2.3'
p999
sg53
S'1990-91'
p1000
sg55
S'7.5'
p1001
sg57
S'2.4'
p1002
sg58
S'.475'
p1003
sg60
S'2248'
p1004
sg62
S'75'
p1005
sba(isrc.gp1.models.Per100Possession
Per100Possession
p1006
(dp1007
g8
S'0.4'
p1008
sg10
S'0.5'
p1009
sg12
S'.447'
p1010
sg528
S'105'
p1011
sg14
S'9.3'
p1012
sg16
S'.250'
p1013
sg18
S'0.1'
p1014
sg20
S'14.5'
p1015
sg21
S'PG'
p1016
sg533
S'109'
p1017
sg23
S'.722'
p1018
sg27
S'NBA'
p1019
sg29
S'2.3'
p1020
sg31
S'14.1'
p1021
sg33
S'3.8'
p1022
sg34
S'2.5'
p1023
sg36
S'3.3'
p1024
sg38
S'37'
p1025
sg40
S'BOS'
p1026
sg42
S'26'
p1027
sg44
S'0.1'
p1028
sg45
S'6.1'
p1029
sg47
S'1.8'
p1030
sg49
S'13.5'
p1031
sg51
S'2.9'
p1032
sg53
S'1991-92'
p1033
sg55
S'6.3'
p1034
sg57
S'2.5'
p1035
sg58
S'.455'
p1036
sg60
S'367'
p1037
sg62
g100
sbasS'_advanced'
p1038
(lp1039
(isrc.gp1.models.Advanced
Advanced
p1040
(dp1041
S'_offensiveReboundPercentage'
p1042
S'6.3'
p1043
sS'_turnOverPercentage'
p1044
S'17.6'
p1045
sS'_winSharesPer48Minutes'
p1046
S'-3.1'
p1047
sS'_stealPercentage'
p1048
S'0.0'
p1049
sS'_usagePercentage'
p1050
S'-0.7'
p1051
sS'_totalReboundsPercentage'
p1052
S'17.6'
p1053
sS'_defensiveBoxPlusMinus'
p1054
S'-3.8'
p1055
sg21
S'PG'
p1056
sS'_valueOverReplacementPlayer'
p1057
g3
sS'_trueShootingPercentage'
p1058
S'.410'
p1059
sS'_defensiveReboundPercentage'
p1060
S'5.4'
p1061
sS'_freeThrowsAttempRate'
p1062
S'4.4'
p1063
sS'_threePointsAttempRate'
p1064
S'.240'
p1065
sg27
S'NBA'
p1066
sS'_offensiveBoxPlusMinues'
p1067
S'-0.6'
p1068
sS'_assistPercentage'
p1069
S'2.4'
p1070
sS'_defensiveWinShares'
p1071
S'0.3'
p1072
sg38
S'23'
p1073
sg40
S'GSW'
p1074
sg42
S'76'
p1075
sS'_blockPercentage'
p1076
S'16.0'
p1077
sS'_playerEfficiencyRating'
p1078
S'9.3'
p1079
sS'_offensiveWinShares'
p1080
S'1.1'
p1081
sg60
S'1098'
p1082
sS'_boxPlusMinus'
p1083
S'-0.5'
p1084
sg53
S'1977-78'
p1085
sS'_winShares'
p1086
S'.014'
p1087
sba(isrc.gp1.models.Advanced
Advanced
p1088
(dp1089
g1042
S'6.2'
p1090
sg1044
S'22.1'
p1091
sg1046
S'-3.4'
p1092
sg1048
S'0.1'
p1093
sg1050
S'-0.4'
p1094
sg1052
S'18.7'
p1095
sg1054
S'-4.7'
p1096
sg21
S'PG'
p1097
sg1057
g3
sg1058
S'.433'
p1098
sg1060
S'4.8'
p1099
sg1062
S'3.5'
p1100
sg1064
S'.379'
p1101
sg27
S'NBA'
p1102
sg1067
S'-1.3'
p1103
sg1069
S'2.6'
p1104
sg1071
S'-0.1'
p1105
sg38
S'24'
p1106
sg40
S'DET'
p1107
sg42
S'27'
p1108
sg1076
S'17.6'
p1109
sg1078
S'10.2'
p1110
sg1080
S'0.3'
p1111
sg60
S'431'
p1112
sg1083
S'-0.3'
p1113
sg53
S'1978-79'
p1114
sg1086
S'-0.012'
p1115
sba(isrc.gp1.models.Advanced
Advanced
p1116
(dp1117
g1042
S'2.7'
p1118
sg1044
S'16.9'
p1119
sg1046
S'.065'
p1120
sg1048
S'2.8'
p1121
sg1050
S'16.2'
p1122
sg1052
S'5.1'
p1123
sg1054
S'-1.1'
p1124
sg21
S'PG'
p1125
sg1057
S'0.1'
p1126
sg1058
S'.516'
p1127
sg1060
S'7.5'
p1128
sg1062
S'.265'
p1129
sg1064
S'.003'
p1130
sg27
S'NBA'
p1131
sg1067
S'-0.6'
p1132
sg1069
S'25.3'
p1133
sg1071
S'0.7'
p1134
sg38
S'26'
p1135
sg40
S'UTA'
p1136
sg42
S'47'
p1137
sg1076
S'0.0'
p1138
sg1078
S'13.6'
p1139
sg1080
S'1.0'
p1140
sg60
S'1307'
p1141
sg1083
S'-1.7'
p1142
sg53
S'1980-81'
p1143
sg1086
S'1.8'
p1144
sba(isrc.gp1.models.Advanced
Advanced
p1145
(dp1146
g1042
S'3.2'
p1147
sg1044
S'14.9'
p1148
sg1046
S'.096'
p1149
sg1048
S'3.0'
p1150
sg1050
S'18.8'
p1151
sg1052
S'4.6'
p1152
sg1054
S'-1.1'
p1153
sg21
S'PG'
p1154
sg1057
S'2.0'
p1155
sg1058
S'.531'
p1156
sg1060
S'6.1'
p1157
sg1062
S'.260'
p1158
sg1064
S'.008'
p1159
sg27
S'NBA'
p1160
sg1067
S'1.8'
p1161
sg1069
S'29.7'
p1162
sg1071
S'1.4'
p1163
sg38
S'27'
p1164
sg40
S'UTA'
p1165
sg42
S'81'
p1166
sg1076
S'0.2'
p1167
sg1078
S'17.4'
p1168
sg1080
S'4.3'
p1169
sg60
S'2822'
p1170
sg1083
S'0.8'
p1171
sg53
S'1981-82'
p1172
sg1086
S'5.7'
p1173
sba(isrc.gp1.models.Advanced
Advanced
p1174
(dp1175
g1042
S'2.3'
p1176
sg1044
S'17.5'
p1177
sg1046
S'.114'
p1178
sg1048
S'3.5'
p1179
sg1050
S'17.8'
p1180
sg1052
S'4.1'
p1181
sg1054
S'-0.7'
p1182
sg21
S'PG'
p1183
sg1057
S'1.8'
p1184
sg1058
S'.534'
p1185
sg1060
S'5.7'
p1186
sg1062
S'.246'
p1187
sg1064
S'.014'
p1188
sg27
S'NBA'
p1189
sg1067
S'1.3'
p1190
sg1069
S'34.5'
p1191
sg1071
S'2.8'
p1192
sg38
S'28'
p1193
sg40
S'UTA'
p1194
sg42
S'78'
p1195
sg1076
S'0.1'
p1196
sg1078
S'17.2'
p1197
sg1080
S'3.8'
p1198
sg60
S'2783'
p1199
sg1083
S'0.5'
p1200
sg53
S'1982-83'
p1201
sg1086
S'6.6'
p1202
sba(isrc.gp1.models.Advanced
Advanced
p1203
(dp1204
g1042
S'2.3'
p1205
sg1044
S'14.6'
p1206
sg1046
S'.138'
p1207
sg1048
S'3.6'
p1208
sg1050
S'16.9'
p1209
sg1052
S'4.4'
p1210
sg1054
S'-0.4'
p1211
sg21
S'PG'
p1212
sg1057
S'2.4'
p1213
sg1058
S'.532'
p1214
sg1060
S'6.2'
p1215
sg1062
S'.259'
p1216
sg1064
S'.019'
p1217
sg27
S'NBA'
p1218
sg1067
S'1.8'
p1219
sg1069
S'35.9'
p1220
sg1071
S'3.0'
p1221
sg38
S'29'
p1222
sg40
S'UTA'
p1223
sg42
S'81'
p1224
sg1076
S'0.2'
p1225
sg1078
S'18.0'
p1226
sg1080
S'5.0'
p1227
sg60
S'2768'
p1228
sg1083
S'1.4'
p1229
sg53
S'1983-84'
p1230
sg1086
S'7.9'
p1231
sba(isrc.gp1.models.Advanced
Advanced
p1232
(dp1233
g1042
S'1.6'
p1234
sg1044
S'16.2'
p1235
sg1046
S'.132'
p1236
sg1048
S'2.5'
p1237
sg1050
S'17.8'
p1238
sg1052
S'4.0'
p1239
sg1054
S'-0.5'
p1240
sg21
S'PG'
p1241
sg1057
S'1.3'
p1242
sg1058
S'.546'
p1243
sg1060
S'6.3'
p1244
sg1062
S'.335'
p1245
sg1064
S'.025'
p1246
sg27
S'NBA'
p1247
sg1067
S'0.7'
p1248
sg1069
S'33.9'
p1249
sg1071
S'3.2'
p1250
sg38
S'30'
p1251
sg40
S'UTA'
p1252
sg42
S'77'
p1253
sg1076
S'0.1'
p1254
sg1078
S'16.3'
p1255
sg1080
S'3.5'
p1256
sg60
S'2431'
p1257
sg1083
S'0.2'
p1258
sg53
S'1984-85'
p1259
sg1086
S'6.7'
p1260
sba(isrc.gp1.models.Advanced
Advanced
p1261
(dp1262
g1042
S'1.8'
p1263
sg1044
S'13.2'
p1264
sg1046
S'.124'
p1265
sg1048
S'2.4'
p1266
sg1050
S'20.1'
p1267
sg1052
S'3.7'
p1268
sg1054
S'-1.4'
p1269
sg21
S'PG'
p1270
sg1057
S'0.6'
p1271
sg1058
S'.537'
p1272
sg1060
S'5.5'
p1273
sg1062
S'.330'
p1274
sg1064
S'.038'
p1275
sg27
S'NBA'
p1276
sg1067
S'0.6'
p1277
sg1069
S'29.4'
p1278
sg1071
S'2.2'
p1279
sg38
S'31'
p1280
sg40
S'UTA'
p1281
sg42
S'80'
p1282
sg1076
S'0.2'
p1283
sg1078
S'16.4'
p1284
sg1080
S'3.0'
p1285
sg60
S'2012'
p1286
sg1083
S'-0.8'
p1287
sg53
S'1985-86'
p1288
sg1086
S'5.2'
p1289
sba(isrc.gp1.models.Advanced
Advanced
p1290
(dp1291
g1042
S'1.9'
p1292
sg1044
S'15.3'
p1293
sg1046
S'.128'
p1294
sg1048
S'2.4'
p1295
sg1050
S'16.5'
p1296
sg1052
S'4.1'
p1297
sg1054
S'-0.6'
p1298
sg21
S'PG'
p1299
sg1057
S'0.8'
p1300
sg1058
S'.531'
p1301
sg1060
S'6.3'
p1302
sg1062
S'.323'
p1303
sg1064
S'.030'
p1304
sg27
S'NBA'
p1305
sg1067
S'0.0'
p1306
sg1069
S'35.1'
p1307
sg1071
S'2.6'
p1308
sg38
S'32'
p1309
sg40
S'UTA'
p1310
sg42
S'81'
p1311
sg1076
S'0.1'
p1312
sg1078
S'15.9'
p1313
sg1080
S'3.0'
p1314
sg60
S'2090'
p1315
sg1083
S'-0.5'
p1316
sg53
S'1986-87'
p1317
sg1086
S'5.6'
p1318
sba(isrc.gp1.models.Advanced
Advanced
p1319
(dp1320
g1042
S'1.4'
p1321
sg1044
S'18.8'
p1322
sg1046
S'.078'
p1323
sg1048
S'2.4'
p1324
sg1050
S'18.4'
p1325
sg1052
S'3.8'
p1326
sg1054
S'-1.5'
p1327
sg21
S'PG'
p1328
sg1057
S'-0.5'
p1329
sg1058
S'.483'
p1330
sg1060
S'6.1'
p1331
sg1062
S'.224'
p1332
sg1064
S'.051'
p1333
sg27
S'NBA'
p1334
sg1067
S'-2.3'
p1335
sg1069
S'36.2'
p1336
sg1071
S'1.4'
p1337
sg38
S'33'
p1338
sg40
S'UTA'
p1339
sg42
S'81'
p1340
sg1076
S'0.1'
p1341
sg1078
S'13.2'
p1342
sg1080
S'0.4'
p1343
sg60
S'1116'
p1344
sg1083
S'-3.8'
p1345
sg53
S'1987-88'
p1346
sg1086
S'1.8'
p1347
sba(isrc.gp1.models.Advanced
Advanced
p1348
(dp1349
g1042
S'1.4'
p1350
sg1044
S'18.0'
p1351
sg1046
S'.067'
p1352
sg1048
S'2.2'
p1353
sg1050
S'16.1'
p1354
sg1052
S'4.5'
p1355
sg1054
S'-1.9'
p1356
sg21
S'PG'
p1357
sg1057
S'-0.3'
p1358
sg1058
S'.522'
p1359
sg1060
S'7.8'
p1360
sg1062
S'.125'
p1361
sg1064
S'.042'
p1362
sg27
S'NBA'
p1363
sg1067
S'-1.7'
p1364
sg1069
S'30.0'
p1365
sg1071
S'0.6'
p1366
sg38
S'34'
p1367
sg40
S'TOT'
p1368
sg42
S'63'
p1369
sg1076
S'0.1'
p1370
sg1078
S'13.7'
p1371
sg1080
S'0.6'
p1372
sg60
S'871'
p1373
sg1083
S'-3.6'
p1374
sg53
S'1988-89'
p1375
sg1086
S'1.2'
p1376
sba(isrc.gp1.models.Advanced
Advanced
p1377
(dp1378
g1042
S'1.1'
p1379
sg1044
S'16.9'
p1380
sg1046
S'.002'
p1381
sg1048
S'2.3'
p1382
sg1050
S'18.4'
p1383
sg1052
S'3.4'
p1384
sg1054
S'-2.9'
p1385
sg21
S'PG'
p1386
sg1057
S'-0.4'
p1387
sg1058
S'.463'
p1388
sg1060
S'6.0'
p1389
sg1062
S'.106'
p1390
sg1064
S'.038'
p1391
sg27
S'NBA'
p1392
sg1067
S'-3.2'
p1393
sg1069
S'31.1'
p1394
sg1071
S'0.1'
p1395
sg38
S'34'
p1396
sg40
S'CHH'
p1397
sg42
S'33'
p1398
sg1076
S'0.0'
p1399
sg1078
S'12.0'
p1400
sg1080
S'-0.1'
p1401
sg60
S'370'
p1402
sg1083
S'-6.1'
p1403
sg53
S'1988-89'
p1404
sg1086
S'0.0'
p1405
sba(isrc.gp1.models.Advanced
Advanced
p1406
(dp1407
g1042
S'1.6'
p1408
sg1044
S'19.0'
p1409
sg1046
S'.115'
p1410
sg1048
S'2.1'
p1411
sg1050
S'14.4'
p1412
sg1052
S'5.3'
p1413
sg1054
S'-1.2'
p1414
sg21
S'PG'
p1415
sg1057
S'0.0'
p1416
sg1058
S'.581'
p1417
sg1060
S'9.1'
p1418
sg1062
S'.144'
p1419
sg1064
S'.045'
p1420
sg27
S'NBA'
p1421
sg1067
S'-0.5'
p1422
sg1069
S'29.2'
p1423
sg1071
S'0.5'
p1424
sg38
S'34'
p1425
sg40
S'MIL'
p1426
sg42
S'30'
p1427
sg1076
S'0.2'
p1428
sg1078
S'14.9'
p1429
sg1080
S'0.7'
p1430
sg60
S'501'
p1431
sg1083
S'-1.7'
p1432
sg53
S'1988-89'
p1433
sg1086
S'1.2'
p1434
sba(isrc.gp1.models.Advanced
Advanced
p1435
(dp1436
g1042
S'1.2'
p1437
sg1044
S'19.7'
p1438
sg1046
S'.037'
p1439
sg1048
S'2.7'
p1440
sg1050
S'14.7'
p1441
sg1052
S'3.4'
p1442
sg1054
S'-2.2'
p1443
sg21
S'PG'
p1444
sg1057
S'-0.7'
p1445
sg1058
S'.481'
p1446
sg1060
S'5.4'
p1447
sg1062
S'.221'
p1448
sg1064
S'.048'
p1449
sg27
S'NBA'
p1450
sg1067
S'-3.0'
p1451
sg1069
S'26.4'
p1452
sg1071
S'0.5'
p1453
sg38
S'35'
p1454
sg40
S'IND'
p1455
sg42
S'69'
p1456
sg1076
S'0.1'
p1457
sg1078
S'10.9'
p1458
sg1080
S'0.2'
p1459
sg60
S'927'
p1460
sg1083
S'-5.2'
p1461
sg53
S'1989-90'
p1462
sg1086
S'0.7'
p1463
sba(isrc.gp1.models.Advanced
Advanced
p1464
(dp1465
g1042
S'1.7'
p1466
sg1044
S'12.1'
p1467
sg1046
S'.070'
p1468
sg1048
S'1.3'
p1469
sg1050
S'17.3'
p1470
sg1052
S'3.4'
p1471
sg1054
S'-2.6'
p1472
sg21
S'PG'
p1473
sg1057
S'-0.7'
p1474
sg1058
S'.506'
p1475
sg1060
S'5.1'
p1476
sg1062
S'.195'
p1477
sg1064
S'.050'
p1478
sg27
S'NBA'
p1479
sg1067
S'-0.7'
p1480
sg1069
S'27.4'
p1481
sg1071
S'1.0'
p1482
sg38
S'36'
p1483
sg40
S'PHI'
p1484
sg42
S'79'
p1485
sg1076
S'0.2'
p1486
sg1078
S'13.1'
p1487
sg1080
S'2.3'
p1488
sg60
S'2248'
p1489
sg1083
S'-3.3'
p1490
sg53
S'1990-91'
p1491
sg1086
S'3.3'
p1492
sba(isrc.gp1.models.Advanced
Advanced
p1493
(dp1494
g1042
S'0.9'
p1495
sg1044
S'14.0'
p1496
sg1046
S'.068'
p1497
sg1048
S'2.3'
p1498
sg1050
S'15.1'
p1499
sg1052
S'3.6'
p1500
sg1054
S'-1.2'
p1501
sg21
S'PG'
p1502
sg1057
S'-0.1'
p1503
sg1058
S'.478'
p1504
sg1060
S'6.0'
p1505
sg1062
S'.175'
p1506
sg1064
S'.039'
p1507
sg27
S'NBA'
p1508
sg1067
S'-2.1'
p1509
sg1069
S'24.1'
p1510
sg1071
S'0.3'
p1511
sg38
S'37'
p1512
sg40
S'BOS'
p1513
sg42
S'26'
p1514
sg1076
S'0.2'
p1515
sg1078
S'11.4'
p1516
sg1080
S'0.2'
p1517
sg60
S'367'
p1518
sg1083
S'-3.3'
p1519
sg53
S'1991-92'
p1520
sg1086
S'0.5'
p1521
sbasS'_per36Minutes'
p1522
(lp1523
(isrc.gp1.models.Per36Minutes
Per36Minutes
p1524
(dp1525
g8
S'1.9'
p1526
sg10
S'.381'
p1527
sg12
S'4.7'
p1528
sg14
S'3.1'
p1529
sg16
S'1.8'
p1530
sg18
S'12.3'
p1531
sg20
g3
sg21
S'PG'
p1532
sg23
S'4.9'
p1533
sg27
S'NBA'
p1534
sg29
S'11.1'
p1535
sg31
S'.381'
p1536
sg33
g3
sg34
S'3.8'
p1537
sg36
S'2.6'
p1538
sg38
S'23'
p1539
sg40
S'GSW'
p1540
sg42
S'76'
p1541
sg44
g3
sg45
S'3.0'
p1542
sg47
S'2.2'
p1543
sg49
S'.600'
p1544
sg51
S'0.0'
p1545
sg53
S'1977-78'
p1546
sg55
S'12.3'
p1547
sg57
g3
sg58
S'1.6'
p1548
sg60
S'4.7'
p1549
sg62
S'1098'
p1550
sba(isrc.gp1.models.Per36Minutes
Per36Minutes
p1551
(dp1552
g8
S'2.1'
p1553
sg10
S'.379'
p1554
sg12
S'5.6'
p1555
sg14
S'3.1'
p1556
sg16
S'3.8'
p1557
sg18
S'14.8'
p1558
sg20
g3
sg21
S'PG'
p1559
sg23
S'5.3'
p1560
sg27
S'NBA'
p1561
sg29
S'15.0'
p1562
sg31
S'.379'
p1563
sg33
g3
sg34
S'3.3'
p1564
sg36
S'3.7'
p1565
sg38
S'24'
p1566
sg40
S'DET'
p1567
sg42
S'27'
p1568
sg44
g3
sg45
S'5.6'
p1569
sg47
S'2.1'
p1570
sg49
S'.672'
p1571
sg51
S'0.1'
p1572
sg53
S'1978-79'
p1573
sg55
S'14.8'
p1574
sg57
g3
sg58
S'1.3'
p1575
sg60
S'5.6'
p1576
sg62
S'431'
p1577
sba(isrc.gp1.models.Per36Minutes
Per36Minutes
p1578
(dp1579
g8
S'2.4'
p1580
sg10
S'.000'
p1581
sg12
S'0.0'
p1582
sg14
S'2.1'
p1583
sg16
S'4.8'
p1584
sg18
S'0.0'
p1585
sg20
g3
sg21
S'PG'
p1586
sg23
S'0.8'
p1587
sg27
S'NBA'
p1588
sg29
S'0.0'
p1589
sg31
S'.481'
p1590
sg33
S'11.6'
p1591
sg34
S'.722'
p1592
sg36
S'6.5'
p1593
sg38
S'26'
p1594
sg40
S'UTA'
p1595
sg42
S'47'
p1596
sg44
S'2.3'
p1597
sg45
S'10.1'
p1598
sg47
S'2.7'
p1599
sg49
S'.482'
p1600
sg51
S'3.2'
p1601
sg53
S'1980-81'
p1602
sg55
S'10.1'
p1603
sg57
S'3.4'
p1604
sg58
S'1.9'
p1605
sg60
S'4.8'
p1606
sg62
S'1307'
p1607
sba(isrc.gp1.models.Per36Minutes
Per36Minutes
p1608
(dp1609
g8
S'1.1'
p1610
sg10
S'0.1'
p1611
sg12
S'.493'
p1612
sg14
S'8.0'
p1613
sg16
S'.000'
p1614
sg18
S'0.0'
p1615
sg20
S'15.3'
p1616
sg21
S'PG'
p1617
sg23
S'.765'
p1618
sg27
S'NBA'
p1619
sg29
S'2.4'
p1620
sg31
S'12.9'
p1621
sg33
S'2.3'
p1622
sg34
S'3.4'
p1623
sg36
S'3.1'
p1624
sg38
S'27'
p1625
sg40
S'UTA'
p1626
sg42
S'81'
p1627
sg44
S'0.1'
p1628
sg45
S'6.4'
p1629
sg47
S'2.6'
p1630
sg49
S'12.8'
p1631
sg51
S'2.0'
p1632
sg53
S'1981-82'
p1633
sg55
S'6.4'
p1634
sg57
S'2.5'
p1635
sg58
S'.497'
p1636
sg60
S'2822'
p1637
sg62
S'73'
p1638
sba(isrc.gp1.models.Per36Minutes
Per36Minutes
p1639
(dp1640
g8
S'0.8'
p1641
sg10
S'0.2'
p1642
sg12
S'.493'
p1643
sg14
S'9.0'
p1644
sg16
S'.154'
p1645
sg18
S'0.0'
p1646
sg20
S'14.4'
p1647
sg21
S'PG'
p1648
sg23
S'.797'
p1649
sg27
S'NBA'
p1650
sg29
S'2.8'
p1651
sg31
S'12.2'
p1652
sg33
S'2.0'
p1653
sg34
S'3.0'
p1654
sg36
S'2.9'
p1655
sg38
S'28'
p1656
sg40
S'UTA'
p1657
sg42
S'78'
p1658
sg44
S'0.1'
p1659
sg45
S'6.0'
p1660
sg47
S'2.4'
p1661
sg49
S'12.0'
p1662
sg51
S'2.1'
p1663
sg53
S'1982-83'
p1664
sg55
S'6.0'
p1665
sg57
S'2.9'
p1666
sg58
S'.497'
p1667
sg60
S'2783'
p1668
sg62
S'78'
p1669
sba(isrc.gp1.models.Per36Minutes
Per36Minutes
p1670
(dp1671
g8
S'0.7'
p1672
sg10
S'0.2'
p1673
sg12
S'.486'
p1674
sg14
S'9.7'
p1675
sg16
S'.118'
p1676
sg18
S'0.0'
p1677
sg20
S'13.9'
p1678
sg21
S'PG'
p1679
sg23
S'.821'
p1680
sg27
S'NBA'
p1681
sg29
S'2.8'
p1682
sg31
S'11.8'
p1683
sg33
S'2.0'
p1684
sg34
S'3.0'
p1685
sg36
S'3.0'
p1686
sg38
S'29'
p1687
sg40
S'UTA'
p1688
sg42
S'81'
p1689
sg44
S'0.2'
p1690
sg45
S'5.7'
p1691
sg47
S'2.5'
p1692
sg49
S'11.5'
p1693
sg51
S'2.3'
p1694
sg53
S'1983-84'
p1695
sg55
S'5.7'
p1696
sg57
S'2.2'
p1697
sg58
S'.493'
p1698
sg60
S'2768'
p1699
sg62
S'81'
p1700
sba(isrc.gp1.models.Per36Minutes
Per36Minutes
p1701
(dp1702
g8
S'0.5'
p1703
sg10
S'0.3'
p1704
sg12
S'.477'
p1705
sg14
S'8.8'
p1706
sg16
S'.300'
p1707
sg18
S'0.1'
p1708
sg20
S'14.8'
p1709
sg21
S'PG'
p1710
sg23
S'.869'
p1711
sg27
S'NBA'
p1712
sg29
S'2.0'
p1713
sg31
S'11.8'
p1714
sg33
S'1.9'
p1715
sg34
S'4.0'
p1716
sg36
S'2.8'
p1717
sg38
S'30'
p1718
sg40
S'UTA'
p1719
sg42
S'77'
p1720
sg44
S'0.0'
p1721
sg45
S'5.6'
p1722
sg47
S'3.4'
p1723
sg49
S'11.5'
p1724
sg51
S'2.3'
p1725
sg53
S'1984-85'
p1726
sg55
S'5.6'
p1727
sg57
S'2.6'
p1728
sg58
S'.482'
p1729
sg60
S'2431'
p1730
sg62
S'77'
p1731
sba(isrc.gp1.models.Per36Minutes
Per36Minutes
p1732
(dp1733
g8
S'0.6'
p1734
sg10
S'0.5'
p1735
sg12
S'.471'
p1736
sg14
S'7.4'
p1737
sg16
S'.172'
p1738
sg18
S'0.1'
p1739
sg20
S'16.7'
p1740
sg21
S'PG'
p1741
sg23
S'.852'
p1742
sg27
S'NBA'
p1743
sg29
S'1.9'
p1744
sg31
S'13.6'
p1745
sg33
S'2.3'
p1746
sg34
S'4.5'
p1747
sg36
S'2.4'
p1748
sg38
S'31'
p1749
sg40
S'UTA'
p1750
sg42
S'80'
p1751
sg44
S'0.1'
p1752
sg45
S'6.3'
p1753
sg47
S'3.8'
p1754
sg49
S'13.0'
p1755
sg51
S'1.8'
p1756
sg53
S'1985-86'
p1757
sg55
S'6.4'
p1758
sg57
S'2.4'
p1759
sg58
S'.483'
p1760
sg60
S'2012'
p1761
sg62
S'44'
p1762
sba(isrc.gp1.models.Per36Minutes
Per36Minutes
p1763
(dp1764
g8
S'0.7'
p1765
sg10
S'0.3'
p1766
sg12
S'.467'
p1767
sg14
S'9.3'
p1768
sg16
S'.368'
p1769
sg18
S'0.1'
p1770
sg20
S'13.5'
p1771
sg21
S'PG'
p1772
sg23
S'.827'
p1773
sg27
S'NBA'
p1774
sg29
S'1.9'
p1775
sg31
S'11.1'
p1776
sg33
S'1.9'
p1777
sg34
S'3.6'
p1778
sg36
S'2.8'
p1779
sg38
S'32'
p1780
sg40
S'UTA'
p1781
sg42
S'81'
p1782
sg44
S'0.0'
p1783
sg45
S'5.1'
p1784
sg47
S'3.0'
p1785
sg49
S'10.8'
p1786
sg51
S'2.2'
p1787
sg53
S'1986-87'
p1788
sg55
S'5.2'
p1789
sg57
S'2.3'
p1790
sg58
S'.470'
p1791
sg60
S'2090'
p1792
sg62
S'80'
p1793
sba(isrc.gp1.models.Per36Minutes
Per36Minutes
p1794
(dp1795
g8
S'0.5'
p1796
sg10
S'0.6'
p1797
sg12
S'.424'
p1798
sg14
S'9.7'
p1799
sg16
S'.211'
p1800
sg18
S'0.1'
p1801
sg20
S'12.7'
p1802
sg21
S'PG'
p1803
sg23
S'.904'
p1804
sg27
S'NBA'
p1805
sg29
S'1.8'
p1806
sg31
S'11.9'
p1807
sg33
S'2.7'
p1808
sg34
S'2.7'
p1809
sg36
S'2.6'
p1810
sg38
S'33'
p1811
sg40
S'UTA'
p1812
sg42
S'81'
p1813
sg44
S'0.0'
p1814
sg45
S'4.9'
p1815
sg47
S'2.4'
p1816
sg49
S'11.3'
p1817
sg51
S'2.1'
p1818
sg53
S'1987-88'
p1819
sg55
S'5.1'
p1820
sg57
S'3.0'
p1821
sg58
S'.436'
p1822
sg60
S'1116'
p1823
sg62
g240
sba(isrc.gp1.models.Per36Minutes
Per36Minutes
p1824
(dp1825
g8
S'0.5'
p1826
sg10
S'0.5'
p1827
sg12
S'.489'
p1828
sg14
S'7.7'
p1829
sg16
S'.273'
p1830
sg18
S'0.1'
p1831
sg20
S'12.0'
p1832
sg21
S'PG'
p1833
sg23
S'.909'
p1834
sg27
S'NBA'
p1835
sg29
S'1.7'
p1836
sg31
S'10.9'
p1837
sg33
S'1.4'
p1838
sg34
S'1.4'
p1839
sg36
S'2.9'
p1840
sg38
S'34'
p1841
sg40
S'TOT'
p1842
sg42
S'63'
p1843
sg44
S'0.1'
p1844
sg45
S'5.2'
p1845
sg47
S'1.2'
p1846
sg49
S'10.5'
p1847
sg51
S'2.4'
p1848
sg53
S'1988-89'
p1849
sg55
S'5.3'
p1850
sg57
S'2.5'
p1851
sg58
S'.498'
p1852
sg60
S'871'
p1853
sg62
g163
sba(isrc.gp1.models.Per36Minutes
Per36Minutes
p1854
(dp1855
g8
S'0.4'
p1856
sg10
S'0.5'
p1857
sg12
S'.432'
p1858
sg14
S'8.0'
p1859
sg16
S'.200'
p1860
sg18
S'0.1'
p1861
sg20
S'12.5'
p1862
sg21
S'PG'
p1863
sg23
S'.929'
p1864
sg27
S'NBA'
p1865
sg29
S'1.8'
p1866
sg31
S'12.8'
p1867
sg33
S'1.6'
p1868
sg34
S'1.4'
p1869
sg36
S'2.2'
p1870
sg38
S'34'
p1871
sg40
S'CHH'
p1872
sg42
S'33'
p1873
sg44
S'0.0'
p1874
sg45
S'5.4'
p1875
sg47
S'1.3'
p1876
sg49
S'12.4'
p1877
sg51
S'1.8'
p1878
sg53
S'1988-89'
p1879
sg55
S'5.5'
p1880
sg57
S'2.7'
p1881
sg58
S'.441'
p1882
sg60
S'370'
p1883
sg62
g163
sba(isrc.gp1.models.Per36Minutes
Per36Minutes
p1884
(dp1885
g8
S'0.5'
p1886
sg10
S'0.4'
p1887
sg12
S'.545'
p1888
sg14
S'7.5'
p1889
sg16
S'.333'
p1890
sg18
S'0.1'
p1891
sg20
S'11.7'
p1892
sg21
S'PG'
p1893
sg23
S'.895'
p1894
sg27
S'NBA'
p1895
sg29
S'1.6'
p1896
sg31
S'9.5'
p1897
sg33
S'1.4'
p1898
sg34
S'1.4'
p1899
sg36
S'3.3'
p1900
sg38
S'34'
p1901
sg40
S'MIL'
p1902
sg42
S'30'
p1903
sg44
S'0.1'
p1904
sg45
S'5.0'
p1905
sg47
S'1.2'
p1906
sg49
S'9.1'
p1907
sg51
S'2.8'
p1908
sg53
S'1988-89'
p1909
sg55
S'5.2'
p1910
sg57
S'2.4'
p1911
sg58
S'.556'
p1912
sg60
S'501'
p1913
sg62
g100
sba(isrc.gp1.models.Per36Minutes
Per36Minutes
p1914
(dp1915
g8
S'0.3'
p1916
sg10
S'0.4'
p1917
sg12
S'.433'
p1918
sg14
S'7.1'
p1919
sg16
S'.091'
p1920
sg18
S'0.0'
p1921
sg20
S'9.5'
p1922
sg21
S'PG'
p1923
sg23
S'.843'
p1924
sg27
S'NBA'
p1925
sg29
S'2.0'
p1926
sg31
S'9.0'
p1927
sg33
S'2.3'
p1928
sg34
S'2.0'
p1929
sg36
S'2.1'
p1930
sg38
S'35'
p1931
sg40
S'IND'
p1932
sg42
S'69'
p1933
sg44
S'0.0'
p1934
sg45
S'3.8'
p1935
sg47
S'1.7'
p1936
sg49
S'8.5'
p1937
sg51
S'1.7'
p1938
sg53
S'1989-90'
p1939
sg55
S'3.9'
p1940
sg57
S'2.4'
p1941
sg58
S'.450'
p1942
sg60
S'927'
p1943
sg62
g100
sba(isrc.gp1.models.Per36Minutes
Per36Minutes
p1944
(dp1945
g8
S'0.5'
p1946
sg10
S'0.6'
p1947
sg12
S'.463'
p1948
sg14
S'6.6'
p1949
sg16
S'.222'
p1950
sg18
S'0.1'
p1951
sg20
S'12.7'
p1952
sg21
S'PG'
p1953
sg23
S'.830'
p1954
sg27
S'NBA'
p1955
sg29
S'0.9'
p1956
sg31
S'11.6'
p1957
sg33
S'2.1'
p1958
sg34
S'2.3'
p1959
sg36
S'2.2'
p1960
sg38
S'36'
p1961
sg40
S'PHI'
p1962
sg42
S'79'
p1963
sg44
S'0.1'
p1964
sg45
S'5.2'
p1965
sg47
S'1.9'
p1966
sg49
S'11.0'
p1967
sg51
S'1.7'
p1968
sg53
S'1990-91'
p1969
sg55
S'5.3'
p1970
sg57
S'1.7'
p1971
sg58
S'.475'
p1972
sg60
S'2248'
p1973
sg62
S'75'
p1974
sba(isrc.gp1.models.Per36Minutes
Per36Minutes
p1975
(dp1976
g8
S'0.3'
p1977
sg10
S'0.4'
p1978
sg12
S'.447'
p1979
sg14
S'6.7'
p1980
sg16
S'.250'
p1981
sg18
S'0.1'
p1982
sg20
S'10.4'
p1983
sg21
S'PG'
p1984
sg23
S'.722'
p1985
sg27
S'NBA'
p1986
sg29
S'1.7'
p1987
sg31
S'10.1'
p1988
sg33
S'2.7'
p1989
sg34
S'1.8'
p1990
sg36
S'2.4'
p1991
sg38
S'37'
p1992
sg40
S'BOS'
p1993
sg42
S'26'
p1994
sg44
S'0.1'
p1995
sg45
S'4.4'
p1996
sg47
S'1.3'
p1997
sg49
S'9.7'
p1998
sg51
S'2.1'
p1999
sg53
S'1991-92'
p2000
sg55
S'4.5'
p2001
sg57
S'1.8'
p2002
sg58
S'.455'
p2003
sg60
S'367'
p2004
sg62
g100
sbasS'_fromYear'
p2005
S'1978'
p2006
sS'_url'
p2007
S'http://www.basketball-reference.com/players/g/greenri01.html'
p2008
sS'_perGame'
p2009
(isrc.gp1.models.PerGame
PerGame
p2010
(dp2011
g8
S'0.1'
p2012
sg10
S'0.2'
p2013
sg12
S'.447'
p2014
sS'_effectiveFieldGalPercentage'
p2015
S'.451'
p2016
sg14
S'2.6'
p2017
sg16
S'.250'
p2018
sg18
S'0.0'
p2019
sg20
S'4.1'
p2020
sg21
S'PG'
p2021
sg23
S'.722'
p2022
sg27
S'NBA'
p2023
sg29
S'0.7'
p2024
sg33
S'1.1'
p2025
sS'_fieldGoalsttempted'
p2026
S'4.0'
p2027
sg34
S'0.7'
p2028
sg36
S'0.9'
p2029
sg38
S'37'
p2030
sg40
S'BOS'
p2031
sg42
S'26'
p2032
sg44
S'0.0'
p2033
sg45
S'1.7'
p2034
sg47
S'0.5'
p2035
sg49
S'3.8'
p2036
sg51
S'0.8'
p2037
sg53
S'1991-92'
p2038
sg55
S'1.8'
p2039
sg57
S'0.7'
p2040
sg58
S'.455'
p2041
sg60
S'14.1'
p2042
sg62
g100
sbsS'_weight'
p2043
S'170'
p2044
sS'_dob'
p2045
S'18-8-1954'
p2046
sS'_salary'
p2047
(lp2048
(isrc.gp1.models.Salary
Salary
p2049
(dp2050
g40
S'Utah Jazz'
p2051
sg27
S'NBA'
p2052
sg2047
S'$250,000'
p2053
sg53
S'1985-86'
p2054
sba(isrc.gp1.models.Salary
Salary
p2055
(dp2056
g40
S'Utah Jazz'
p2057
sg27
S'NBA'
p2058
sg2047
S'$312,000'
p2059
sg53
S'1987-88'
p2060
sba(isrc.gp1.models.Salary
Salary
p2061
(dp2062
g40
S'Charlotte Hornets'
p2063
sg27
S'NBA'
p2064
sg2047
S'$300,000'
p2065
sg53
S'1988-89'
p2066
sba(isrc.gp1.models.Salary
Salary
p2067
(dp2068
g40
S'Philadelphia 76ers'
p2069
sg27
S'NBA'
p2070
sg2047
S'$120,000'
p2071
sg53
S'1990-91'
p2072
sba(isrc.gp1.models.Salary
Salary
p2073
(dp2074
g40
S'Boston Celtics'
p2075
sg27
S'NBA'
p2076
sg2047
S'$315,000'
p2077
sg53
S'1991-92'
p2078
sba(isrc.gp1.models.Salary
Salary
p2079
(dp2080
g40
S'Philadelphia 76ers'
p2081
sg27
S'NBA'
p2082
sg2047
S'$130,000'
p2083
sg53
S'1991-92'
p2084
sbasg21
S'G'
p2085
sb.