(isrc.gp1.models.Player
Player
p0
(dp1
S'_experience'
p2
S'NA'
p3
sS'_totals'
p4
(lp5
(isrc.gp1.models.Totals
Totals
p6
(dp7
S'_offensiveRebounds'
p8
g3
sS'_threePointsAttempted'
p9
S'.447'
p10
sS'_fieldGoalsPercentage'
p11
S'262'
p12
sS'_assist'
p13
g3
sS'_threePointsPercentage'
p14
S'.447'
p15
sS'_threePoints'
p16
S'586'
p17
sS'_points'
p18
g3
sS'_position'
p19
S'C'
p20
sS'_freeThrowsPercentage'
p21
S'644'
p22
sS'_effectiveFieldGoalPercentage'
p23
S'672'
p24
sS'_league'
p25
S'NBA'
p26
sS'_steals'
p27
g3
sS'_fieldGoalsAttempted'
p28
S'.447'
p29
sS'_personalFouls'
p30
g3
sS'_freeThrowsAttempted'
p31
S'256'
p32
sS'_totalRebounds'
p33
g3
sS'_age'
p34
S'22'
p35
sS'_team'
p36
S'LAL'
p37
sS'_games'
p38
S'74'
p39
sS'_blocks'
p40
g3
sS'_twoPoints'
p41
S'120'
p42
sS'_freeThrows'
p43
S'92'
p44
sS'_twoPointsAttempted'
p45
S'212'
p46
sS'_defensiveRebounds'
p47
g3
sS'_season'
p48
S'1969-70'
p49
sS'_fieldGoals'
p50
S'586'
p51
sS'_turnOvers'
p52
g3
sS'_twoPointsPercentage'
p53
S'.566'
p54
sS'_minutesPlayed'
p55
S'262'
p56
sS'_gamesStarted'
p57
S'2005'
p58
sba(isrc.gp1.models.Totals
Totals
p59
(dp60
g8
g3
sg9
S'.415'
p61
sg11
S'125'
p62
sg13
g3
sg14
S'.415'
p63
sg16
S'301'
p64
sg18
g3
sg19
g20
sg21
S'338'
p65
sg23
S'304'
p66
sg25
S'NBA'
p67
sg27
g3
sg28
S'.415'
p68
sg30
g3
sg31
S'125'
p69
sg33
g3
sg34
S'23'
p70
sg36
S'LAL'
p71
sg38
S'65'
p72
sg40
g3
sg41
S'88'
p73
sg43
S'47'
p74
sg45
S'143'
p75
sg47
g3
sg48
S'1970-71'
p76
sg50
S'301'
p77
sg52
g3
sg53
S'.615'
p78
sg55
S'125'
p79
sg57
S'909'
p80
sba(isrc.gp1.models.Totals
Totals
p81
(dp82
g8
g3
sg9
S'.442'
p83
sg11
S'304'
p84
sg13
g3
sg14
S'.442'
p85
sg16
S'688'
p86
sg18
g3
sg19
S'PF'
p87
sg21
S'823'
p88
sg23
S'801'
p89
sg25
S'NBA'
p90
sg27
g3
sg28
S'.442'
p91
sg30
g3
sg31
S'251'
p92
sg33
g3
sg34
S'24'
p93
sg36
S'CLE'
p94
sg38
S'63'
p95
sg40
g3
sg41
S'215'
p96
sg43
S'109'
p97
sg45
S'366'
p98
sg47
g3
sg48
S'1971-72'
p99
sg50
S'688'
p100
sg52
g3
sg53
S'.587'
p101
sg55
S'304'
p102
sg57
S'2207'
p103
sba(isrc.gp1.models.Totals
Totals
p104
(dp105
g8
g3
sg9
S'.433'
p106
sg11
S'307'
p107
sg13
g3
sg14
S'.433'
p108
sg16
S'709'
p109
sg18
g3
sg19
g20
sg21
S'781'
p110
sg23
S'693'
p111
sg25
S'NBA'
p112
sg27
g3
sg28
S'.433'
p113
sg30
g3
sg31
S'249'
p114
sg33
g3
sg34
S'25'
p115
sg36
S'CLE'
p116
sg38
S'62'
p117
sg40
g3
sg41
S'167'
p118
sg43
S'134'
p119
sg45
S'290'
p120
sg47
g3
sg48
S'1972-73'
p121
sg50
S'709'
p122
sg52
g3
sg53
S'.576'
p123
sg55
S'307'
p124
sg57
S'2127'
p125
sba(isrc.gp1.models.Totals
Totals
p126
(dp127
g8
S'65'
p128
sg9
S'.457'
p129
sg11
S'364'
p130
sg13
S'933'
p131
sg14
S'.457'
p132
sg16
S'797'
p133
sg18
g3
sg19
g20
sg21
S'133'
p134
sg23
S'251'
p135
sg25
S'NBA'
p136
sg27
g3
sg28
S'.457'
p137
sg30
g3
sg31
S'701'
p138
sg33
S'252'
p139
sg34
S'26'
p140
sg36
S'POR'
p141
sg38
S'69'
p142
sg40
g3
sg41
S'205'
p143
sg43
S'450'
p144
sg45
S'316'
p145
sg47
S'55'
p146
sg48
S'1973-74'
p147
sg50
S'797'
p148
sg52
g3
sg53
S'.649'
p149
sg55
S'364'
p150
sg57
S'2060'
p151
sba(isrc.gp1.models.Totals
Totals
p152
(dp153
g8
S'7'
p154
sg9
S'.444'
p155
sg11
S'48'
p156
sg13
S'119'
p157
sg14
S'.444'
p158
sg16
S'108'
p159
sg18
g3
sg19
g20
sg21
S'23'
p160
sg23
S'39'
p161
sg25
S'NBA'
p162
sg27
g3
sg28
S'.444'
p163
sg30
g3
sg31
S'118'
p164
sg33
S'49'
p165
sg34
S'27'
p166
sg36
S'NOJ'
p167
sg38
S'16'
p168
sg40
g3
sg41
S'23'
p169
sg43
S'79'
p170
sg45
S'40'
p171
sg47
S'8'
p172
sg48
S'1974-75'
p173
sg50
S'108'
p174
sg52
g3
sg53
S'.575'
p175
sg55
S'48'
p176
sg57
S'339'
p177
sba(isrc.gp1.models.Totals
Totals
p178
(dp179
g8
S'18'
p180
sg9
S'.406'
p181
sg11
S'73'
p182
sg13
S'188'
p183
sg14
S'.406'
p184
sg16
S'180'
p185
sg18
g3
sg19
g20
sg21
S'53'
p186
sg23
S'74'
p187
sg25
S'NBA'
p188
sg27
g3
sg28
S'.406'
p189
sg30
g3
sg31
S'233'
p190
sg33
S'126'
p191
sg34
S'28'
p192
sg36
S'KCK'
p193
sg38
S'74'
p194
sg40
g3
sg41
S'42'
p195
sg43
S'159'
p196
sg45
S'103'
p197
sg47
S'17'
p198
sg48
S'1975-76'
p199
sg50
S'180'
p200
sg52
g3
sg53
S'.408'
p201
sg55
S'73'
p202
sg57
S'709'
p203
sbasS'_college'
p204
S'University of Cincinnati'
p205
sS'_toYear'
p206
S'1976'
p207
sS'_height'
p208
S'6-9'
p209
sS'_active'
p210
I00
sS'_shootingHand'
p211
VRight
p212
sS'_name'
p213
S'Rick Roberson'
p214
sS'_per100Possessions'
p215
(lp216
(isrc.gp1.models.Per100Possession
Per100Possession
p217
(dp218
g8
S'1.4'
p219
sg9
S'.457'
p220
sg11
S'7.8'
p221
sS'_offensiveRating'
p222
g3
sg13
S'20.0'
p223
sg14
S'4.4'
p224
sg16
S'17.1'
p225
sg18
g3
sg19
g20
sS'_defensiveRating'
p226
g3
sg21
S'2.9'
p227
sg25
S'NBA'
p228
sg27
S'101'
p229
sg28
S'.457'
p230
sg30
g3
sg31
S'15.1'
p231
sg33
S'5.4'
p232
sg34
S'26'
p233
sg36
S'POR'
p234
sg38
S'69'
p235
sg40
g3
sg41
S'6.8'
p236
sg43
S'9.7'
p237
sg45
S'.649'
p238
sg47
S'1.2'
p239
sg48
S'1973-74'
p240
sg50
S'17.1'
p241
sg52
g3
sg53
S'5.4'
p242
sg55
S'7.8'
p243
sg57
S'2060'
p244
sba(isrc.gp1.models.Per100Possession
Per100Possession
p245
(dp246
g8
S'0.9'
p247
sg9
S'.444'
p248
sg11
S'6.2'
p249
sg222
g3
sg13
S'15.4'
p250
sg14
S'3.0'
p251
sg16
S'14.0'
p252
sg18
g3
sg19
g20
sg226
g3
sg21
S'3.0'
p253
sg25
S'NBA'
p254
sg27
S'98'
p255
sg28
S'.444'
p256
sg30
g3
sg31
S'15.3'
p257
sg33
S'6.3'
p258
sg34
S'27'
p259
sg36
S'NOJ'
p260
sg38
S'16'
p261
sg40
g3
sg41
S'5.2'
p262
sg43
S'10.2'
p263
sg45
S'.575'
p264
sg47
S'1.0'
p265
sg48
S'1974-75'
p266
sg50
S'14.0'
p267
sg52
g3
sg53
S'5.0'
p268
sg55
S'6.2'
p269
sg57
S'339'
p270
sba(isrc.gp1.models.Per100Possession
Per100Possession
p271
(dp272
g8
S'1.2'
p273
sg9
S'.406'
p274
sg11
S'4.7'
p275
sg222
g3
sg13
S'12.0'
p276
sg14
S'2.7'
p277
sg16
S'11.5'
p278
sg18
g3
sg19
g20
sg226
g3
sg21
S'3.4'
p279
sg25
S'NBA'
p280
sg27
S'98'
p281
sg28
S'.406'
p282
sg30
g3
sg31
S'14.9'
p283
sg33
S'8.1'
p284
sg34
S'28'
p285
sg36
S'KCK'
p286
sg38
S'74'
p287
sg40
g3
sg41
S'6.6'
p288
sg43
S'10.2'
p289
sg45
S'.408'
p290
sg47
S'1.1'
p291
sg48
S'1975-76'
p292
sg50
S'11.5'
p293
sg52
g3
sg53
S'4.7'
p294
sg55
S'4.7'
p295
sg57
S'709'
p296
sbasS'_advanced'
p297
(lp298
(isrc.gp1.models.Advanced
Advanced
p299
(dp300
S'_offensiveReboundPercentage'
p301
S'0.1'
p302
sS'_turnOverPercentage'
p303
g3
sS'_winSharesPer48Minutes'
p304
g3
sS'_stealPercentage'
p305
g3
sS'_usagePercentage'
p306
g3
sS'_totalReboundsPercentage'
p307
S'3.0'
p308
sS'_defensiveBoxPlusMinus'
p309
g3
sg19
g20
sS'_valueOverReplacementPlayer'
p310
g3
sS'_trueShootingPercentage'
p311
S'.474'
p312
sS'_defensiveReboundPercentage'
p313
S'2.9'
p314
sS'_freeThrowsAttempRate'
p315
S'5.8'
p316
sS'_threePointsAttempRate'
p317
S'.362'
p318
sg25
S'NBA'
p319
sS'_offensiveBoxPlusMinues'
p320
g3
sS'_assistPercentage'
p321
S'.072'
p322
sS'_defensiveWinShares'
p323
g3
sg34
S'22'
p324
sg36
S'LAL'
p325
sg38
S'74'
p326
sS'_blockPercentage'
p327
g3
sS'_playerEfficiencyRating'
p328
S'11.2'
p329
sS'_offensiveWinShares'
p330
g3
sg55
S'2005'
p331
sS'_boxPlusMinus'
p332
g3
sg48
S'1969-70'
p333
sS'_winShares'
p334
g3
sba(isrc.gp1.models.Advanced
Advanced
p335
(dp336
g301
S'6.4'
p337
sg303
g3
sg304
g3
sg305
S'.050'
p338
sg306
g3
sg307
S'0.9'
p339
sg309
g3
sg19
g20
sg310
g3
sg311
S'.464'
p340
sg313
S'0.1'
p341
sg315
S'15.0'
p342
sg317
S'.475'
p343
sg25
S'NBA'
p344
sg320
g3
sg321
S'1.0'
p345
sg323
g3
sg34
S'23'
p346
sg36
S'LAL'
p347
sg38
S'65'
p348
sg327
g3
sg328
S'11.8'
p349
sg330
g3
sg55
S'909'
p350
sg332
g3
sg48
S'1970-71'
p351
sg334
g3
sba(isrc.gp1.models.Advanced
Advanced
p352
(dp353
g301
S'6.7'
p354
sg303
g3
sg304
g3
sg305
S'.075'
p355
sg306
g3
sg307
S'2.5'
p356
sg309
g3
sg19
S'PF'
p357
sg310
g3
sg311
S'.485'
p358
sg313
S'0.9'
p359
sg315
S'17.6'
p360
sg317
S'.532'
p361
sg25
S'NBA'
p362
sg320
g3
sg321
S'3.5'
p363
sg323
g3
sg34
S'24'
p364
sg36
S'CLE'
p365
sg38
S'63'
p366
sg327
g3
sg328
S'13.6'
p367
sg330
g3
sg55
S'2207'
p368
sg332
g3
sg48
S'1971-72'
p369
sg334
g3
sba(isrc.gp1.models.Advanced
Advanced
p370
(dp371
g301
S'8.7'
p372
sg303
g3
sg304
g3
sg305
S'.080'
p373
sg306
g3
sg307
S'3.2'
p374
sg309
g3
sg19
g20
sg310
g3
sg311
S'.467'
p375
sg313
S'0.4'
p376
sg315
S'15.8'
p377
sg317
S'.409'
p378
sg25
S'NBA'
p379
sg320
g3
sg321
S'3.6'
p380
sg323
g3
sg34
S'25'
p381
sg36
S'CLE'
p382
sg38
S'62'
p383
sg327
g3
sg328
S'13.3'
p384
sg330
g3
sg55
S'2127'
p385
sg332
g3
sg48
S'1972-73'
p386
sg334
g3
sba(isrc.gp1.models.Advanced
Advanced
p387
(dp388
g301
S'22.7'
p389
sg303
S'1.4'
p390
sg304
S'-0.9'
p391
sg305
S'1.4'
p392
sg306
S'3.2'
p393
sg307
S'8.8'
p394
sg309
g3
sg19
g20
sg310
g3
sg311
S'.498'
p395
sg313
S'17.4'
p396
sg315
S'12.2'
p397
sg317
S'.396'
p398
sg25
S'NBA'
p399
sg320
S'0.6'
p400
sg321
S'1.4'
p401
sg323
S'0.0'
p402
sg34
S'26'
p403
sg36
S'POR'
p404
sg38
S'69'
p405
sg327
S'1.9'
p406
sg328
S'16.1'
p407
sg330
S'.075'
p408
sg55
S'2060'
p409
sg332
g3
sg48
S'1973-74'
p410
sg334
S'-0.9'
p411
sba(isrc.gp1.models.Advanced
Advanced
p412
(dp413
g301
S'24.1'
p414
sg303
S'0.4'
p415
sg304
S'-2.5'
p416
sg305
S'1.3'
p417
sg306
S'0.4'
p418
sg307
S'9.8'
p419
sg309
g3
sg19
g20
sg310
g3
sg311
S'.474'
p420
sg313
S'17.4'
p421
sg315
S'11.2'
p422
sg317
S'.370'
p423
sg25
S'NBA'
p424
sg320
S'0.0'
p425
sg321
S'0.9'
p426
sg323
S'-2.5'
p427
sg34
S'27'
p428
sg36
S'NOJ'
p429
sg38
S'16'
p430
sg327
S'0.0'
p431
sg328
S'13.1'
p432
sg330
S'.053'
p433
sg55
S'339'
p434
sg332
g3
sg48
S'1974-75'
p435
sg334
S'0.0'
p436
sba(isrc.gp1.models.Advanced
Advanced
p437
(dp438
g301
S'23.2'
p439
sg303
S'0.8'
p440
sg304
S'-4.4'
p441
sg305
S'1.3'
p442
sg306
S'0.0'
p443
sg307
S'10.1'
p444
sg309
g3
sg19
g20
sg310
g3
sg311
S'.417'
p445
sg313
S'16.8'
p446
sg315
S'10.5'
p447
sg317
S'.572'
p448
sg25
S'NBA'
p449
sg320
S'-0.4'
p450
sg321
S'1.2'
p451
sg323
S'-4.3'
p452
sg34
S'28'
p453
sg36
S'KCK'
p454
sg38
S'74'
p455
sg327
S'-0.7'
p456
sg328
S'10.3'
p457
sg330
S'.002'
p458
sg55
S'709'
p459
sg332
g3
sg48
S'1975-76'
p460
sg334
S'-0.1'
p461
sbasS'_per36Minutes'
p462
(lp463
(isrc.gp1.models.Per36Minutes
Per36Minutes
p464
(dp465
g8
g3
sg9
S'.447'
p466
sg11
S'4.7'
p467
sg13
g3
sg14
S'2.2'
p468
sg16
S'10.5'
p469
sg18
g3
sg19
g20
sg21
S'11.6'
p470
sg25
S'NBA'
p471
sg27
g3
sg28
S'.447'
p472
sg30
g3
sg31
S'4.6'
p473
sg33
g3
sg34
S'22'
p474
sg36
S'LAL'
p475
sg38
S'74'
p476
sg40
g3
sg41
S'3.8'
p477
sg43
S'1.7'
p478
sg45
S'.566'
p479
sg47
g3
sg48
S'1969-70'
p480
sg50
S'10.5'
p481
sg52
g3
sg53
S'12.1'
p482
sg55
S'4.7'
p483
sg57
S'2005'
p484
sba(isrc.gp1.models.Per36Minutes
Per36Minutes
p485
(dp486
g8
g3
sg9
S'.415'
p487
sg11
S'5.0'
p488
sg13
g3
sg14
S'3.5'
p489
sg16
S'11.9'
p490
sg18
g3
sg19
g20
sg21
S'13.4'
p491
sg25
S'NBA'
p492
sg27
g3
sg28
S'.415'
p493
sg30
g3
sg31
S'5.0'
p494
sg33
g3
sg34
S'23'
p495
sg36
S'LAL'
p496
sg38
S'65'
p497
sg40
g3
sg41
S'5.7'
p498
sg43
S'1.9'
p499
sg45
S'.615'
p500
sg47
g3
sg48
S'1970-71'
p501
sg50
S'11.9'
p502
sg52
g3
sg53
S'12.0'
p503
sg55
S'5.0'
p504
sg57
S'909'
p505
sba(isrc.gp1.models.Per36Minutes
Per36Minutes
p506
(dp507
g8
g3
sg9
S'.442'
p508
sg11
S'5.0'
p509
sg13
g3
sg14
S'3.5'
p510
sg16
S'11.2'
p511
sg18
g3
sg19
S'PF'
p512
sg21
S'13.4'
p513
sg25
S'NBA'
p514
sg27
g3
sg28
S'.442'
p515
sg30
g3
sg31
S'4.1'
p516
sg33
g3
sg34
S'24'
p517
sg36
S'CLE'
p518
sg38
S'63'
p519
sg40
g3
sg41
S'6.0'
p520
sg43
S'1.8'
p521
sg45
S'.587'
p522
sg47
g3
sg48
S'1971-72'
p523
sg50
S'11.2'
p524
sg52
g3
sg53
S'13.1'
p525
sg55
S'5.0'
p526
sg57
S'2207'
p527
sba(isrc.gp1.models.Per36Minutes
Per36Minutes
p528
(dp529
g8
g3
sg9
S'.433'
p530
sg11
S'5.2'
p531
sg13
g3
sg14
S'2.8'
p532
sg16
S'12.0'
p533
sg18
g3
sg19
g20
sg21
S'13.2'
p534
sg25
S'NBA'
p535
sg27
g3
sg28
S'.433'
p536
sg30
g3
sg31
S'4.2'
p537
sg33
g3
sg34
S'25'
p538
sg36
S'CLE'
p539
sg38
S'62'
p540
sg40
g3
sg41
S'4.9'
p541
sg43
S'2.3'
p542
sg45
S'.576'
p543
sg47
g3
sg48
S'1972-73'
p544
sg50
S'12.0'
p545
sg52
g3
sg53
S'11.7'
p546
sg55
S'5.2'
p547
sg57
S'2127'
p548
sba(isrc.gp1.models.Per36Minutes
Per36Minutes
p549
(dp550
g8
S'1.1'
p551
sg9
S'.457'
p552
sg11
S'6.4'
p553
sg13
S'16.3'
p554
sg14
S'3.6'
p555
sg16
S'13.9'
p556
sg18
g3
sg19
g20
sg21
S'2.3'
p557
sg25
S'NBA'
p558
sg27
g3
sg28
S'.457'
p559
sg30
g3
sg31
S'12.3'
p560
sg33
S'4.4'
p561
sg34
S'26'
p562
sg36
S'POR'
p563
sg38
S'69'
p564
sg40
g3
sg41
S'5.5'
p565
sg43
S'7.9'
p566
sg45
S'.649'
p567
sg47
S'1.0'
p568
sg48
S'1973-74'
p569
sg50
S'13.9'
p570
sg52
g3
sg53
S'4.4'
p571
sg55
S'6.4'
p572
sg57
S'2060'
p573
sba(isrc.gp1.models.Per36Minutes
Per36Minutes
p574
(dp575
g8
S'0.7'
p576
sg9
S'.444'
p577
sg11
S'5.1'
p578
sg13
S'12.6'
p579
sg14
S'2.4'
p580
sg16
S'11.5'
p581
sg18
g3
sg19
g20
sg21
S'2.4'
p582
sg25
S'NBA'
p583
sg27
g3
sg28
S'.444'
p584
sg30
g3
sg31
S'12.5'
p585
sg33
S'5.2'
p586
sg34
S'27'
p587
sg36
S'NOJ'
p588
sg38
S'16'
p589
sg40
g3
sg41
S'4.2'
p590
sg43
S'8.4'
p591
sg45
S'.575'
p592
sg47
S'0.8'
p593
sg48
S'1974-75'
p594
sg50
S'11.5'
p595
sg52
g3
sg53
S'4.1'
p596
sg55
S'5.1'
p597
sg57
S'339'
p598
sba(isrc.gp1.models.Per36Minutes
Per36Minutes
p599
(dp600
g8
S'0.9'
p601
sg9
S'.406'
p602
sg11
S'3.7'
p603
sg13
S'9.5'
p604
sg14
S'2.1'
p605
sg16
S'9.1'
p606
sg18
g3
sg19
g20
sg21
S'2.7'
p607
sg25
S'NBA'
p608
sg27
g3
sg28
S'.406'
p609
sg30
g3
sg31
S'11.8'
p610
sg33
S'6.4'
p611
sg34
S'28'
p612
sg36
S'KCK'
p613
sg38
S'74'
p614
sg40
g3
sg41
S'5.2'
p615
sg43
S'8.1'
p616
sg45
S'.408'
p617
sg47
S'0.9'
p618
sg48
S'1975-76'
p619
sg50
S'9.1'
p620
sg52
g3
sg53
S'3.8'
p621
sg55
S'3.7'
p622
sg57
S'709'
p623
sbasS'_fromYear'
p624
S'1970'
p625
sS'_url'
p626
S'http://www.basketball-reference.com/players/r/roberri01.html'
p627
sS'_perGame'
p628
(isrc.gp1.models.PerGame
PerGame
p629
(dp630
g8
S'0.2'
p631
sg9
S'.406'
p632
sg11
S'1.0'
p633
sS'_effectiveFieldGalPercentage'
p634
S'1.0'
p635
sg13
S'2.5'
p636
sg14
S'.406'
p637
sg16
S'2.4'
p638
sg18
g3
sg19
g20
sg21
S'0.7'
p639
sg25
S'NBA'
p640
sg27
g3
sg30
g3
sS'_fieldGoalsttempted'
p641
S'.406'
p642
sg31
S'3.1'
p643
sg33
S'1.7'
p644
sg34
S'28'
p645
sg36
S'KCK'
p646
sg38
S'74'
p647
sg40
g3
sg41
S'0.6'
p648
sg43
S'2.1'
p649
sg45
S'1.4'
p650
sg47
S'0.2'
p651
sg48
S'1975-76'
p652
sg50
S'2.4'
p653
sg52
g3
sg53
S'.408'
p654
sg55
S'1.0'
p655
sg57
S'9.6'
p656
sbsS'_weight'
p657
S'231'
p658
sS'_dob'
p659
S'7-7-1947'
p660
sS'_salary'
p661
(lp662
sg19
S'C-F'
p663
sb.