(isrc.gp1.models.Player
Player
p0
(dp1
S'_experience'
p2
S'NA'
p3
sS'_totals'
p4
(lp5
(isrc.gp1.models.Totals
Totals
p6
(dp7
S'_offensiveRebounds'
p8
S'24'
p9
sS'_threePointsAttempted'
p10
S'1'
p11
sS'_fieldGoalsPercentage'
p12
S'.486'
p13
sS'_assist'
p14
S'9'
p15
sS'_threePointsPercentage'
p16
S'.000'
p17
sS'_threePoints'
p18
S'0'
p19
sS'_points'
p20
S'88'
p21
sS'_position'
p22
S'C'
p23
sS'_freeThrowsPercentage'
p24
S'.541'
p25
sS'_effectiveFieldGoalPercentage'
p26
S'.486'
p27
sS'_league'
p28
S'NBA'
p29
sS'_steals'
p30
S'5'
p31
sS'_fieldGoalsAttempted'
p32
S'70'
p33
sS'_personalFouls'
p34
S'30'
p35
sS'_freeThrowsAttempted'
p36
S'37'
p37
sS'_totalRebounds'
p38
S'59'
p39
sS'_age'
p40
S'23'
p41
sS'_team'
p42
S'HOU'
p43
sS'_games'
p44
S'47'
p45
sS'_blocks'
p46
g15
sS'_twoPoints'
p47
S'34'
p48
sS'_freeThrows'
p49
S'20'
p50
sS'_twoPointsAttempted'
p51
S'69'
p52
sS'_defensiveRebounds'
p53
S'35'
p54
sS'_season'
p55
S'1993-94'
p56
sS'_fieldGoals'
p57
S'34'
p58
sS'_turnOvers'
p59
S'15'
p60
sS'_twoPointsPercentage'
p61
S'.493'
p62
sS'_minutesPlayed'
p63
S'219'
p64
sS'_gamesStarted'
p65
S'2'
p66
sba(isrc.gp1.models.Totals
Totals
p67
(dp68
g8
S'45'
p69
sg10
g11
sg12
S'.448'
p70
sg14
S'11'
p71
sg16
S'.000'
p72
sg18
g19
sg20
S'177'
p73
sg22
g23
sg24
S'.734'
p74
sg26
S'.448'
p75
sg28
S'NBA'
p76
sg30
S'17'
p77
sg32
S'145'
p78
sg34
S'78'
p79
sg36
S'64'
p80
sg38
S'112'
p81
sg40
S'24'
p82
sg42
S'LAC'
p83
sg44
S'40'
p84
sg46
S'35'
p85
sg47
S'65'
p86
sg49
S'47'
p87
sg51
S'144'
p88
sg53
S'67'
p89
sg55
S'1994-95'
p90
sg57
S'65'
p91
sg59
S'31'
p92
sg61
S'.451'
p93
sg63
S'434'
p94
sg65
S'4'
p95
sba(isrc.gp1.models.Totals
Totals
p96
(dp97
g8
S'32'
p98
sg10
g11
sg12
S'.473'
p99
sg14
g31
sg16
S'.000'
p100
sg18
g19
sg20
S'92'
p101
sg22
g23
sg24
S'.786'
p102
sg26
S'.473'
p103
sg28
S'NBA'
p104
sg30
S'8'
p105
sg32
S'74'
p106
sg34
S'42'
p107
sg36
S'28'
p108
sg38
S'76'
p109
sg40
S'25'
p110
sg42
S'MIN'
p111
sg44
S'25'
p112
sg46
S'16'
p113
sg47
S'35'
p114
sg49
S'22'
p115
sg51
S'73'
p116
sg53
S'44'
p117
sg55
S'1995-96'
p118
sg57
S'35'
p119
sg59
S'17'
p120
sg61
S'.479'
p121
sg63
S'310'
p122
sg65
S'10'
p123
sba(isrc.gp1.models.Totals
Totals
p124
(dp125
g8
g3
sg10
g3
sg12
g3
sg14
g3
sg16
g3
sg18
g3
sg20
g3
sg22
g3
sg24
g3
sg26
g3
sg28
g3
sg30
g3
sg32
g3
sg34
g3
sg36
g3
sg38
g3
sg40
S'26'
p126
sg42
S'Did Not Play\xc2\xa0(other pro league\xe2\x80\x94Greece)'
p127
sg44
g3
sg46
g3
sg47
g3
sg49
g3
sg51
g3
sg53
g3
sg55
S'1996-97'
p128
sg57
g3
sg59
g3
sg61
g3
sg63
g3
sg65
g3
sba(isrc.gp1.models.Totals
Totals
p129
(dp130
g8
S'43'
p131
sg10
g11
sg12
S'.415'
p132
sg14
S'22'
p133
sg16
S'.000'
p134
sg18
g19
sg20
S'139'
p135
sg22
g23
sg24
S'.750'
p136
sg26
S'.415'
p137
sg28
S'NBA'
p138
sg30
S'15'
p139
sg32
S'135'
p140
sg34
S'80'
p141
sg36
S'36'
p142
sg38
S'133'
p143
sg40
S'27'
p144
sg42
S'DAL'
p145
sg44
S'39'
p146
sg46
S'46'
p147
sg47
S'56'
p148
sg49
S'27'
p149
sg51
S'134'
p150
sg53
S'90'
p151
sg55
S'1997-98'
p152
sg57
S'56'
p153
sg59
S'37'
p154
sg61
S'.418'
p155
sg63
S'544'
p156
sg65
S'14'
p157
sba(isrc.gp1.models.Totals
Totals
p158
(dp159
g8
S'36'
p160
sg10
g19
sg12
S'.519'
p161
sg14
S'13'
p162
sg16
g3
sg18
g19
sg20
S'78'
p163
sg22
g23
sg24
S'.710'
p164
sg26
S'.519'
p165
sg28
S'NBA'
p166
sg30
g15
sg32
S'54'
p167
sg34
S'73'
p168
sg36
S'31'
p169
sg38
S'99'
p170
sg40
S'28'
p171
sg42
S'BOS'
p172
sg44
S'35'
p173
sg46
S'26'
p174
sg47
S'28'
p175
sg49
S'22'
p176
sg51
S'54'
p177
sg53
S'63'
p178
sg55
S'1998-99'
p179
sg57
S'28'
p180
sg59
S'26'
p181
sg61
S'.519'
p182
sg63
S'337'
p183
sg65
S'11'
p184
sbasS'_college'
p185
S'University of Michigan'
p186
sS'_toYear'
p187
S'1999'
p188
sS'_height'
p189
S'7-0'
p190
sS'_active'
p191
I00
sS'_shootingHand'
p192
VRight
p193
sS'_name'
p194
S'Eric Riley'
p195
sS'_per100Possessions'
p196
(lp197
(isrc.gp1.models.Per100Possession
Per100Possession
p198
(dp199
g8
S'5.5'
p200
sg10
S'0.2'
p201
sg12
S'.486'
p202
sS'_offensiveRating'
p203
S'101'
p204
sg14
S'2.1'
p205
sg16
S'.000'
p206
sg18
S'0.0'
p207
sg20
S'20.3'
p208
sg22
g23
sS'_defensiveRating'
p209
S'101'
p210
sg24
S'.541'
p211
sg28
S'NBA'
p212
sg30
S'1.2'
p213
sg32
S'16.2'
p214
sg34
S'6.9'
p215
sg36
S'8.5'
p216
sg38
S'13.6'
p217
sg40
S'23'
p218
sg42
S'HOU'
p219
sg44
S'47'
p220
sg46
S'2.1'
p221
sg47
S'7.8'
p222
sg49
S'4.6'
p223
sg51
S'15.9'
p224
sg53
S'8.1'
p225
sg55
S'1993-94'
p226
sg57
S'7.8'
p227
sg59
S'3.5'
p228
sg61
S'.493'
p229
sg63
S'219'
p230
sg65
g66
sba(isrc.gp1.models.Per100Possession
Per100Possession
p231
(dp232
g8
S'5.3'
p233
sg10
S'0.1'
p234
sg12
S'.448'
p235
sg203
S'100'
p236
sg14
S'1.3'
p237
sg16
S'.000'
p238
sg18
S'0.0'
p239
sg20
S'20.8'
p240
sg22
g23
sg209
S'107'
p241
sg24
S'.734'
p242
sg28
S'NBA'
p243
sg30
S'2.0'
p244
sg32
S'17.0'
p245
sg34
S'9.1'
p246
sg36
S'7.5'
p247
sg38
S'13.1'
p248
sg40
S'24'
p249
sg42
S'LAC'
p250
sg44
S'40'
p251
sg46
S'4.1'
p252
sg47
S'7.6'
p253
sg49
S'5.5'
p254
sg51
S'16.9'
p255
sg53
S'7.9'
p256
sg55
S'1994-95'
p257
sg57
S'7.6'
p258
sg59
S'3.6'
p259
sg61
S'.451'
p260
sg63
S'434'
p261
sg65
g95
sba(isrc.gp1.models.Per100Possession
Per100Possession
p262
(dp263
g8
S'5.3'
p264
sg10
S'0.2'
p265
sg12
S'.473'
p266
sg203
S'105'
p267
sg14
S'0.8'
p268
sg16
S'.000'
p269
sg18
S'0.0'
p270
sg20
S'15.2'
p271
sg22
g23
sg209
S'108'
p272
sg24
S'.786'
p273
sg28
S'NBA'
p274
sg30
S'1.3'
p275
sg32
S'12.3'
p276
sg34
S'7.0'
p277
sg36
S'4.6'
p278
sg38
S'12.6'
p279
sg40
S'25'
p280
sg42
S'MIN'
p281
sg44
S'25'
p282
sg46
S'2.6'
p283
sg47
S'5.8'
p284
sg49
S'3.6'
p285
sg51
S'12.1'
p286
sg53
S'7.3'
p287
sg55
S'1995-96'
p288
sg57
S'5.8'
p289
sg59
S'2.8'
p290
sg61
S'.479'
p291
sg63
S'310'
p292
sg65
S'10'
p293
sba(isrc.gp1.models.Per100Possession
Per100Possession
p294
(dp295
g8
S'4.2'
p296
sg10
S'0.1'
p297
sg12
S'.415'
p298
sg203
S'90'
p299
sg14
S'2.2'
p300
sg16
S'.000'
p301
sg18
S'0.0'
p302
sg20
S'13.6'
p303
sg22
g23
sg209
S'103'
p304
sg24
S'.750'
p305
sg28
S'NBA'
p306
sg30
S'1.5'
p307
sg32
S'13.2'
p308
sg34
S'7.8'
p309
sg36
S'3.5'
p310
sg38
S'13.0'
p311
sg40
S'27'
p312
sg42
S'DAL'
p313
sg44
S'39'
p314
sg46
S'4.5'
p315
sg47
S'5.5'
p316
sg49
S'2.6'
p317
sg51
S'13.1'
p318
sg53
S'8.8'
p319
sg55
S'1997-98'
p320
sg57
S'5.5'
p321
sg59
S'3.6'
p322
sg61
S'.418'
p323
sg63
S'544'
p324
sg65
S'14'
p325
sba(isrc.gp1.models.Per100Possession
Per100Possession
p326
(dp327
g8
S'5.6'
p328
sg10
S'0.0'
p329
sg12
S'.519'
p330
sg203
S'100'
p331
sg14
S'2.0'
p332
sg16
g3
sg18
S'0.0'
p333
sg20
S'12.1'
p334
sg22
g23
sg209
S'98'
p335
sg24
S'.710'
p336
sg28
S'NBA'
p337
sg30
S'1.4'
p338
sg32
S'8.4'
p339
sg34
S'11.4'
p340
sg36
S'4.8'
p341
sg38
S'15.4'
p342
sg40
S'28'
p343
sg42
S'BOS'
p344
sg44
S'35'
p345
sg46
S'4.0'
p346
sg47
S'4.4'
p347
sg49
S'3.4'
p348
sg51
S'8.4'
p349
sg53
S'9.8'
p350
sg55
S'1998-99'
p351
sg57
S'4.4'
p352
sg59
S'4.0'
p353
sg61
S'.519'
p354
sg63
S'337'
p355
sg65
S'11'
p356
sbasS'_advanced'
p357
(lp358
(isrc.gp1.models.Advanced
Advanced
p359
(dp360
S'_offensiveReboundPercentage'
p361
S'12.9'
p362
sS'_turnOverPercentage'
p363
S'14.8'
p364
sS'_winSharesPer48Minutes'
p365
S'.097'
p366
sS'_stealPercentage'
p367
S'1.2'
p368
sS'_usagePercentage'
p369
S'20.5'
p370
sS'_totalReboundsPercentage'
p371
S'15.0'
p372
sS'_defensiveBoxPlusMinus'
p373
S'-0.1'
p374
sg22
g23
sS'_valueOverReplacementPlayer'
p375
S'-0.1'
p376
sS'_trueShootingPercentage'
p377
S'.510'
p378
sS'_defensiveReboundPercentage'
p379
S'16.8'
p380
sS'_freeThrowsAttempRate'
p381
S'.529'
p382
sS'_threePointsAttempRate'
p383
S'.014'
p384
sg28
S'NBA'
p385
sS'_offensiveBoxPlusMinues'
p386
S'-3.6'
p387
sS'_assistPercentage'
p388
S'6.3'
p389
sS'_defensiveWinShares'
p390
S'0.4'
p391
sg40
S'23'
p392
sg42
S'HOU'
p393
sg44
S'47'
p394
sS'_blockPercentage'
p395
S'2.6'
p396
sS'_playerEfficiencyRating'
p397
S'13.4'
p398
sS'_offensiveWinShares'
p399
S'0.1'
p400
sg63
S'219'
p401
sS'_boxPlusMinus'
p402
S'-3.7'
p403
sg55
S'1993-94'
p404
sS'_winShares'
p405
S'0.4'
p406
sba(isrc.gp1.models.Advanced
Advanced
p407
(dp408
g361
S'11.5'
p409
sg363
S'15.2'
p410
sg365
S'.063'
p411
sg367
S'2.0'
p412
sg369
S'20.5'
p413
sg371
S'15.2'
p414
sg373
S'1.0'
p415
sg22
g23
sg375
S'-0.1'
p416
sg377
S'.511'
p417
sg379
S'19.4'
p418
sg381
S'.441'
p419
sg383
S'.007'
p420
sg28
S'NBA'
p421
sg386
S'-4.3'
p422
sg388
S'4.1'
p423
sg390
S'0.5'
p424
sg40
S'24'
p425
sg42
S'LAC'
p426
sg44
S'40'
p427
sg395
S'5.9'
p428
sg397
S'14.7'
p429
sg399
S'0.0'
p430
sg63
S'434'
p431
sg402
S'-3.3'
p432
sg55
S'1994-95'
p433
sg405
S'0.6'
p434
sba(isrc.gp1.models.Advanced
Advanced
p435
(dp436
g361
S'12.4'
p437
sg363
S'16.5'
p438
sg365
S'.071'
p439
sg367
S'1.3'
p440
sg369
S'14.8'
p441
sg371
S'14.7'
p442
sg373
S'-0.4'
p443
sg22
g23
sg375
S'-0.1'
p444
sg377
S'.533'
p445
sg379
S'17.0'
p446
sg381
S'.378'
p447
sg383
S'.014'
p448
sg28
S'NBA'
p449
sg386
S'-3.4'
p450
sg388
S'2.5'
p451
sg390
S'0.3'
p452
sg40
S'25'
p453
sg42
S'MIN'
p454
sg44
S'25'
p455
sg395
S'3.9'
p456
sg397
S'12.0'
p457
sg399
S'0.2'
p458
sg63
S'310'
p459
sg402
S'-3.8'
p460
sg55
S'1995-96'
p461
sg405
S'0.5'
p462
sba(isrc.gp1.models.Advanced
Advanced
p463
(dp464
g361
S'8.6'
p465
sg363
S'19.7'
p466
sg365
S'.029'
p467
sg367
S'1.5'
p468
sg369
S'15.8'
p469
sg371
S'13.6'
p470
sg373
S'2.3'
p471
sg22
g23
sg375
S'-0.2'
p472
sg377
S'.461'
p473
sg379
S'18.8'
p474
sg381
S'.267'
p475
sg383
S'.007'
p476
sg28
S'NBA'
p477
sg386
S'-5.6'
p478
sg388
S'6.5'
p479
sg390
S'0.7'
p480
sg40
S'27'
p481
sg42
S'DAL'
p482
sg44
S'39'
p483
sg395
S'5.9'
p484
sg397
S'11.2'
p485
sg399
S'-0.4'
p486
sg63
S'544'
p487
sg402
S'-3.3'
p488
sg55
S'1997-98'
p489
sg405
S'0.3'
p490
sba(isrc.gp1.models.Advanced
Advanced
p491
(dp492
g361
S'11.7'
p493
sg363
S'27.8'
p494
sg365
S'.102'
p495
sg367
S'1.4'
p496
sg369
S'12.4'
p497
sg371
S'16.5'
p498
sg373
S'2.6'
p499
sg22
g23
sg375
S'0.1'
p500
sg377
S'.577'
p501
sg379
S'21.6'
p502
sg381
S'.574'
p503
sg383
S'.000'
p504
sg28
S'NBA'
p505
sg386
S'-3.6'
p506
sg388
S'5.8'
p507
sg390
S'0.5'
p508
sg40
S'28'
p509
sg42
S'BOS'
p510
sg44
S'35'
p511
sg395
S'5.6'
p512
sg397
S'11.8'
p513
sg399
S'0.2'
p514
sg63
S'337'
p515
sg402
S'-1.0'
p516
sg55
S'1998-99'
p517
sg405
S'0.7'
p518
sbasS'_per36Minutes'
p519
(lp520
(isrc.gp1.models.Per36Minutes
Per36Minutes
p521
(dp522
g8
S'3.9'
p523
sg10
S'0.2'
p524
sg12
S'.486'
p525
sg14
S'1.5'
p526
sg16
S'.000'
p527
sg18
S'0.0'
p528
sg20
S'14.5'
p529
sg22
g23
sg24
S'.541'
p530
sg28
S'NBA'
p531
sg30
S'0.8'
p532
sg32
S'11.5'
p533
sg34
S'4.9'
p534
sg36
S'6.1'
p535
sg38
S'9.7'
p536
sg40
S'23'
p537
sg42
S'HOU'
p538
sg44
S'47'
p539
sg46
S'1.5'
p540
sg47
S'5.6'
p541
sg49
S'3.3'
p542
sg51
S'11.3'
p543
sg53
S'5.8'
p544
sg55
S'1993-94'
p545
sg57
S'5.6'
p546
sg59
S'2.5'
p547
sg61
S'.493'
p548
sg63
S'219'
p549
sg65
g66
sba(isrc.gp1.models.Per36Minutes
Per36Minutes
p550
(dp551
g8
S'3.7'
p552
sg10
S'0.1'
p553
sg12
S'.448'
p554
sg14
S'0.9'
p555
sg16
S'.000'
p556
sg18
S'0.0'
p557
sg20
S'14.7'
p558
sg22
g23
sg24
S'.734'
p559
sg28
S'NBA'
p560
sg30
S'1.4'
p561
sg32
S'12.0'
p562
sg34
S'6.5'
p563
sg36
S'5.3'
p564
sg38
S'9.3'
p565
sg40
S'24'
p566
sg42
S'LAC'
p567
sg44
S'40'
p568
sg46
S'2.9'
p569
sg47
S'5.4'
p570
sg49
S'3.9'
p571
sg51
S'11.9'
p572
sg53
S'5.6'
p573
sg55
S'1994-95'
p574
sg57
S'5.4'
p575
sg59
S'2.6'
p576
sg61
S'.451'
p577
sg63
S'434'
p578
sg65
g95
sba(isrc.gp1.models.Per36Minutes
Per36Minutes
p579
(dp580
g8
S'3.7'
p581
sg10
S'0.1'
p582
sg12
S'.473'
p583
sg14
S'0.6'
p584
sg16
S'.000'
p585
sg18
S'0.0'
p586
sg20
S'10.7'
p587
sg22
g23
sg24
S'.786'
p588
sg28
S'NBA'
p589
sg30
S'0.9'
p590
sg32
S'8.6'
p591
sg34
S'4.9'
p592
sg36
S'3.3'
p593
sg38
S'8.8'
p594
sg40
S'25'
p595
sg42
S'MIN'
p596
sg44
S'25'
p597
sg46
S'1.9'
p598
sg47
S'4.1'
p599
sg49
S'2.6'
p600
sg51
S'8.5'
p601
sg53
S'5.1'
p602
sg55
S'1995-96'
p603
sg57
S'4.1'
p604
sg59
S'2.0'
p605
sg61
S'.479'
p606
sg63
S'310'
p607
sg65
S'10'
p608
sba(isrc.gp1.models.Per36Minutes
Per36Minutes
p609
(dp610
g8
S'2.8'
p611
sg10
S'0.1'
p612
sg12
S'.415'
p613
sg14
S'1.5'
p614
sg16
S'.000'
p615
sg18
S'0.0'
p616
sg20
S'9.2'
p617
sg22
g23
sg24
S'.750'
p618
sg28
S'NBA'
p619
sg30
S'1.0'
p620
sg32
S'8.9'
p621
sg34
S'5.3'
p622
sg36
S'2.4'
p623
sg38
S'8.8'
p624
sg40
S'27'
p625
sg42
S'DAL'
p626
sg44
S'39'
p627
sg46
S'3.0'
p628
sg47
S'3.7'
p629
sg49
S'1.8'
p630
sg51
S'8.9'
p631
sg53
S'6.0'
p632
sg55
S'1997-98'
p633
sg57
S'3.7'
p634
sg59
S'2.4'
p635
sg61
S'.418'
p636
sg63
S'544'
p637
sg65
S'14'
p638
sba(isrc.gp1.models.Per36Minutes
Per36Minutes
p639
(dp640
g8
S'3.8'
p641
sg10
S'0.0'
p642
sg12
S'.519'
p643
sg14
S'1.4'
p644
sg16
g3
sg18
S'0.0'
p645
sg20
S'8.3'
p646
sg22
g23
sg24
S'.710'
p647
sg28
S'NBA'
p648
sg30
S'1.0'
p649
sg32
S'5.8'
p650
sg34
S'7.8'
p651
sg36
S'3.3'
p652
sg38
S'10.6'
p653
sg40
S'28'
p654
sg42
S'BOS'
p655
sg44
S'35'
p656
sg46
S'2.8'
p657
sg47
S'3.0'
p658
sg49
S'2.4'
p659
sg51
S'5.8'
p660
sg53
S'6.7'
p661
sg55
S'1998-99'
p662
sg57
S'3.0'
p663
sg59
S'2.8'
p664
sg61
S'.519'
p665
sg63
S'337'
p666
sg65
S'11'
p667
sbasS'_fromYear'
p668
S'1994'
p669
sS'_url'
p670
S'http://www.basketball-reference.com/players/r/rileyer01.html'
p671
sS'_perGame'
p672
(isrc.gp1.models.PerGame
PerGame
p673
(dp674
g8
S'1.0'
p675
sg10
S'0.0'
p676
sg12
S'.519'
p677
sS'_effectiveFieldGalPercentage'
p678
S'.519'
p679
sg14
S'0.4'
p680
sg16
g3
sg18
S'0.0'
p681
sg20
S'2.2'
p682
sg22
g23
sg24
S'.710'
p683
sg28
S'NBA'
p684
sg30
S'0.3'
p685
sg34
S'2.1'
p686
sS'_fieldGoalsttempted'
p687
S'1.5'
p688
sg36
S'0.9'
p689
sg38
S'2.8'
p690
sg40
S'28'
p691
sg42
S'BOS'
p692
sg44
S'35'
p693
sg46
S'0.7'
p694
sg47
S'0.8'
p695
sg49
S'0.6'
p696
sg51
S'1.5'
p697
sg53
S'1.8'
p698
sg55
S'1998-99'
p699
sg57
S'0.8'
p700
sg59
S'0.7'
p701
sg61
S'.519'
p702
sg63
S'9.6'
p703
sg65
S'11'
p704
sbsS'_weight'
p705
S'245'
p706
sS'_dob'
p707
S'2-6-1970'
p708
sS'_salary'
p709
(lp710
(isrc.gp1.models.Salary
Salary
p711
(dp712
g42
S'Houston Rockets'
p713
sg28
S'NBA'
p714
sg709
S'$150,000'
p715
sg55
S'1993-94'
p716
sba(isrc.gp1.models.Salary
Salary
p717
(dp718
g42
S'Houston Rockets'
p719
sg28
S'NBA'
p720
sg709
S'$305,000'
p721
sg55
S'1994-95'
p722
sba(isrc.gp1.models.Salary
Salary
p723
(dp724
g42
S'Minnesota Timberwolves'
p725
sg28
S'NBA'
p726
sg709
S'$300,000'
p727
sg55
S'1995-96'
p728
sba(isrc.gp1.models.Salary
Salary
p729
(dp730
g42
S'Boston Celtics'
p731
sg28
S'NBA'
p732
sg709
S'$537,500'
p733
sg55
S'1998-99'
p734
sba(isrc.gp1.models.Salary
Salary
p735
(dp736
g42
S'Minnesota Timberwolves'
p737
sg28
S'NBA'
p738
sg709
S'$50,206'
p739
sg55
S'1999-00'
p740
sbasg22
g23
sb.