(isrc.gp1.models.Player
Player
p0
(dp1
S'_experience'
p2
S'NA'
p3
sS'_totals'
p4
(lp5
(isrc.gp1.models.Totals
Totals
p6
(dp7
S'_offensiveRebounds'
p8
S'55'
p9
sS'_threePointsAttempted'
p10
S'.503'
p11
sS'_fieldGoalsPercentage'
p12
S'288'
p13
sS'_assist'
p14
S'697'
p15
sS'_threePointsPercentage'
p16
S'.503'
p17
sS'_threePoints'
p18
S'573'
p19
sS'_points'
p20
g3
sS'_position'
p21
S'C'
p22
sS'_freeThrowsPercentage'
p23
S'74'
p24
sS'_effectiveFieldGoalPercentage'
p25
S'201'
p26
sS'_league'
p27
S'NBA'
p28
sS'_steals'
p29
g3
sS'_fieldGoalsAttempted'
p30
S'.503'
p31
sS'_personalFouls'
p32
g3
sS'_freeThrowsAttempted'
p33
S'543'
p34
sS'_totalRebounds'
p35
S'224'
p36
sS'_age'
p37
S'23'
p38
sS'_team'
p39
S'GSW'
p40
sS'_games'
p41
S'77'
p42
sS'_blocks'
p43
g3
sS'_twoPoints'
p44
S'121'
p45
sS'_freeThrows'
p46
S'342'
p47
sS'_twoPointsAttempted'
p48
S'171'
p49
sS'_defensiveRebounds'
p50
S'94'
p51
sS'_season'
p52
S'1976-77'
p53
sS'_fieldGoals'
p54
S'573'
p55
sS'_turnOvers'
p56
g3
sS'_twoPointsPercentage'
p57
S'.708'
p58
sS'_minutesPlayed'
p59
S'288'
p60
sS'_gamesStarted'
p61
S'1384'
p62
sba(isrc.gp1.models.Totals
Totals
p63
(dp64
g8
S'79'
p65
sg10
S'.472'
p66
sg12
S'430'
p67
sg14
S'291'
p68
sg16
S'.472'
p69
sg18
S'911'
p70
sg20
g3
sg21
g22
sg23
S'95'
p71
sg25
S'211'
p72
sg27
S'NBA'
p73
sg29
S'1025'
p74
sg30
S'.472'
p75
sg32
g3
sg33
S'680'
p76
sg35
S'201'
p77
sg37
S'24'
p78
sg39
S'GSW'
p79
sg41
S'82'
p80
sg43
g3
sg44
S'165'
p81
sg46
S'469'
p82
sg48
S'264'
p83
sg50
S'123'
p84
sg52
S'1977-78'
p85
sg54
S'911'
p86
sg56
g3
sg57
S'.625'
p87
sg59
S'430'
p88
sg61
S'1969'
p89
sba(isrc.gp1.models.Totals
Totals
p90
(dp91
g8
S'100'
p92
sg10
S'.499'
p93
sg12
S'554'
p94
sg14
S'303'
p95
sg16
S'.499'
p96
sg18
S'1110'
p97
sg20
g3
sg21
g22
sg23
S'115'
p98
sg25
S'265'
p99
sg27
S'NBA'
p100
sg29
S'1304'
p101
sg30
S'.499'
p102
sg32
g3
sg33
S'916'
p103
sg35
S'233'
p104
sg37
S'25'
p105
sg39
S'GSW'
p106
sg41
S'76'
p107
sg43
g3
sg44
S'196'
p108
sg46
S'651'
p109
sg48
S'281'
p110
sg50
S'217'
p111
sg52
S'1978-79'
p112
sg54
S'1110'
p113
sg56
g3
sg57
S'.698'
p114
sg59
S'554'
p115
sg61
S'2411'
p116
sba(isrc.gp1.models.Totals
Totals
p117
(dp118
g8
S'536'
p119
sg10
S'.000'
p120
sg12
S'0'
p121
sg14
S'58'
p122
sg16
S'510'
p123
sg18
S'1'
p124
sg20
g3
sg21
g22
sg23
S'247'
p125
sg25
S'203'
p126
sg27
S'NBA'
p127
sg29
S'115'
p128
sg30
S'.507'
p129
sg32
S'1223'
p130
sg33
S'.715'
p131
sg35
S'122'
p132
sg37
S'26'
p133
sg39
S'GSW'
p134
sg41
S'72'
p135
sg43
S'225'
p136
sg44
S'1005'
p137
sg46
S'284'
p138
sg48
S'.507'
p139
sg50
S'783'
p140
sg52
S'1979-80'
p141
sg54
S'1006'
p142
sg56
S'248'
p143
sg57
S'.507'
p144
sg59
S'510'
p145
sg61
S'2119'
p146
sba(isrc.gp1.models.Totals
Totals
p147
(dp148
g8
S'245'
p149
sg10
g124
sg12
S'.545'
p150
sg14
S'144'
p151
sg16
S'.000'
p152
sg18
g121
sg20
S'1552'
p153
sg21
g22
sg23
S'.710'
p154
sg25
S'.545'
p155
sg27
S'NBA'
p156
sg29
S'81'
p157
sg30
S'1166'
p158
sg32
S'310'
p159
sg33
S'397'
p160
sg35
S'777'
p161
sg37
S'27'
p162
sg39
S'BOS'
p163
sg41
S'82'
p164
sg43
S'214'
p165
sg44
S'635'
p166
sg46
S'282'
p167
sg48
S'1165'
p168
sg50
S'532'
p169
sg52
S'1980-81'
p170
sg54
S'635'
p171
sg56
S'191'
p172
sg57
S'.545'
p173
sg59
S'2298'
p174
sg61
S'78'
p175
sba(isrc.gp1.models.Totals
Totals
p176
(dp177
g8
S'578'
p178
sg10
g121
sg12
S'.542'
p179
sg14
S'68'
p180
sg16
S'669'
p181
sg18
g121
sg20
g3
sg21
g22
sg23
S'288'
p182
sg25
S'252'
p183
sg27
S'NBA'
p184
sg29
S'192'
p185
sg30
S'1235'
p186
sg32
S'1590'
p187
sg33
S'.710'
p188
sg35
S'140'
p189
sg37
S'28'
p190
sg39
S'BOS'
p191
sg41
S'80'
p192
sg43
S'221'
p193
sg44
S'1235'
p194
sg46
S'355'
p195
sg48
S'.542'
p196
sg50
S'866'
p197
sg52
S'1981-82'
p198
sg54
S'669'
p199
sg56
S'267'
p200
sg57
S'.542'
p201
sg59
S'2534'
p202
sg61
S'78'
p203
sba(isrc.gp1.models.Totals
Totals
p204
(dp205
g8
S'260'
p206
sg10
g124
sg12
S'.550'
p207
sg14
S'141'
p208
sg16
S'.000'
p209
sg18
g121
sg20
S'1509'
p210
sg21
g22
sg23
S'.698'
p211
sg25
S'.550'
p212
sg27
S'NBA'
p213
sg29
S'79'
p214
sg30
S'1125'
p215
sg32
S'222'
p216
sg33
S'388'
p217
sg35
S'827'
p218
sg37
S'29'
p219
sg39
S'BOS'
p220
sg41
S'78'
p221
sg43
S'148'
p222
sg44
S'619'
p223
sg46
S'271'
p224
sg48
S'1124'
p225
sg50
S'567'
p226
sg52
S'1982-83'
p227
sg54
S'619'
p228
sg56
S'185'
p229
sg57
S'.551'
p230
sg59
S'2459'
p231
sg61
S'76'
p232
sba(isrc.gp1.models.Totals
Totals
p233
(dp234
g8
S'614'
p235
sg10
g121
sg12
S'.546'
p236
sg14
S'55'
p237
sg16
S'623'
p238
sg18
g121
sg20
g3
sg21
g22
sg23
S'243'
p239
sg25
S'274'
p240
sg27
S'NBA'
p241
sg29
S'116'
p242
sg30
S'1140'
p243
sg32
S'1520'
p244
sg33
S'.745'
p245
sg35
S'139'
p246
sg37
S'30'
p247
sg39
S'BOS'
p248
sg41
S'80'
p249
sg43
S'184'
p250
sg44
S'1140'
p251
sg46
S'368'
p252
sg48
S'.546'
p253
sg50
S'857'
p254
sg52
S'1983-84'
p255
sg54
S'623'
p256
sg56
S'266'
p257
sg57
S'.546'
p258
sg59
S'2867'
p259
sg61
S'79'
p260
sba(isrc.gp1.models.Totals
Totals
p261
(dp262
g8
S'577'
p263
sg10
g121
sg12
S'.542'
p264
sg14
S'56'
p265
sg16
S'551'
p266
sg18
g121
sg20
g3
sg21
g22
sg23
S'263'
p267
sg25
S'292'
p268
sg27
S'NBA'
p269
sg29
S'101'
p270
sg30
S'1016'
p271
sg32
S'1394'
p272
sg33
S'.743'
p273
sg35
S'125'
p274
sg37
S'31'
p275
sg39
S'BOS'
p276
sg41
S'79'
p277
sg43
S'186'
p278
sg44
S'1016'
p279
sg46
S'393'
p280
sg48
S'.542'
p281
sg50
S'840'
p282
sg52
S'1984-85'
p283
sg54
S'551'
p284
sg56
S'223'
p285
sg57
S'.542'
p286
sg59
S'2850'
p287
sg61
S'78'
p288
sba(isrc.gp1.models.Totals
Totals
p289
(dp290
g8
S'524'
p291
sg10
g121
sg12
S'.549'
p292
sg14
S'65'
p293
sg16
S'530'
p294
sg18
g121
sg20
g3
sg21
g22
sg23
S'246'
p295
sg25
S'245'
p296
sg27
S'NBA'
p297
sg29
S'116'
p298
sg30
S'966'
p299
sg32
S'1305'
p300
sg33
S'.731'
p301
sg35
S'145'
p302
sg37
S'32'
p303
sg39
S'BOS'
p304
sg41
S'81'
p305
sg43
S'187'
p306
sg44
S'966'
p307
sg46
S'335'
p308
sg48
S'.549'
p309
sg50
S'770'
p310
sg52
S'1985-86'
p311
sg54
S'530'
p312
sg56
S'215'
p313
sg57
S'.549'
p314
sg59
S'2567'
p315
sg61
S'80'
p316
sba(isrc.gp1.models.Totals
Totals
p317
(dp318
g8
S'254'
p319
sg10
g124
sg12
S'.556'
p320
sg14
S'173'
p321
sg16
S'.000'
p322
sg18
g121
sg20
S'1403'
p323
sg21
g22
sg23
S'.735'
p324
sg25
S'.556'
p325
sg27
S'NBA'
p326
sg29
S'64'
p327
sg30
S'1057'
p328
sg32
S'266'
p329
sg33
S'309'
p330
sg35
S'851'
p331
sg37
S'33'
p332
sg39
S'BOS'
p333
sg41
S'80'
p334
sg43
S'144'
p335
sg44
S'588'
p336
sg46
S'227'
p337
sg48
S'1056'
p338
sg50
S'597'
p339
sg52
S'1986-87'
p340
sg54
S'588'
p341
sg56
S'191'
p342
sg57
S'.557'
p343
sg59
S'2995'
p344
sg61
S'80'
p345
sba(isrc.gp1.models.Totals
Totals
p346
(dp347
g8
S'173'
p348
sg10
g124
sg12
S'.589'
p349
sg14
S'115'
p350
sg16
S'.000'
p351
sg18
g121
sg20
S'1061'
p352
sg21
g22
sg23
S'.734'
p353
sg25
S'.589'
p354
sg27
S'NBA'
p355
sg29
S'55'
p356
sg30
S'750'
p357
sg32
S'198'
p358
sg33
S'241'
p359
sg35
S'628'
p360
sg37
S'34'
p361
sg39
S'BOS'
p362
sg41
S'74'
p363
sg43
S'84'
p364
sg44
S'442'
p365
sg46
S'177'
p366
sg48
S'749'
p367
sg50
S'455'
p368
sg52
S'1987-88'
p369
sg54
S'442'
p370
sg56
S'154'
p371
sg57
S'.590'
p372
sg59
S'2312'
p373
sg61
S'73'
p374
sba(isrc.gp1.models.Totals
Totals
p375
(dp376
g8
S'654'
p377
sg10
g121
sg12
S'.570'
p378
sg14
S'79'
p379
sg16
S'596'
p380
sg18
g121
sg20
g3
sg21
g22
sg23
S'342'
p381
sg25
S'294'
p382
sg27
S'NBA'
p383
sg29
S'116'
p384
sg30
S'1045'
p385
sg32
S'1486'
p386
sg33
S'.719'
p387
sg35
S'175'
p388
sg37
S'35'
p389
sg39
S'BOS'
p390
sg41
S'80'
p391
sg43
S'200'
p392
sg44
S'1045'
p393
sg46
S'409'
p394
sg48
S'.570'
p395
sg50
S'996'
p396
sg52
S'1988-89'
p397
sg54
S'596'
p398
sg56
S'209'
p399
sg57
S'.570'
p400
sg59
S'2840'
p401
sg61
S'80'
p402
sba(isrc.gp1.models.Totals
Totals
p403
(dp404
g8
S'537'
p405
sg10
g121
sg12
S'.580'
p406
sg14
S'38'
p407
sg16
S'505'
p408
sg18
g121
sg20
g3
sg21
g22
sg23
S'259'
p409
sg25
S'233'
p410
sg27
S'NBA'
p411
sg29
S'69'
p412
sg30
S'871'
p413
sg32
S'1243'
p414
sg33
S'.747'
p415
sg35
S'103'
p416
sg37
S'36'
p417
sg39
S'BOS'
p418
sg41
S'79'
p419
sg43
S'169'
p420
sg44
S'871'
p421
sg46
S'312'
p422
sg48
S'.580'
p423
sg50
S'796'
p424
sg52
S'1989-90'
p425
sg54
S'505'
p426
sg56
S'189'
p427
sg57
S'.580'
p428
sg59
S'2396'
p429
sg61
S'78'
p430
sba(isrc.gp1.models.Totals
Totals
p431
(dp432
g8
S'271'
p433
sg10
g124
sg12
S'.598'
p434
sg14
S'66'
p435
sg16
S'.000'
p436
sg18
g121
sg20
S'1207'
p437
sg21
g22
sg23
S'.767'
p438
sg25
S'.598'
p439
sg27
S'NBA'
p440
sg29
S'66'
p441
sg30
S'811'
p442
sg32
S'197'
p443
sg33
S'309'
p444
sg35
S'856'
p445
sg37
S'37'
p446
sg39
S'BOS'
p447
sg41
S'81'
p448
sg43
S'103'
p449
sg44
S'485'
p450
sg46
S'237'
p451
sg48
S'810'
p452
sg50
S'585'
p453
sg52
S'1990-91'
p454
sg54
S'485'
p455
sg56
S'153'
p456
sg57
S'.599'
p457
sg59
S'2441'
p458
sg61
S'81'
p459
sba(isrc.gp1.models.Totals
Totals
p460
(dp461
g8
S'486'
p462
sg10
g121
sg12
S'.535'
p463
sg14
S'68'
p464
sg16
S'468'
p465
sg18
g121
sg20
g3
sg21
g22
sg23
S'219'
p466
sg25
S'179'
p467
sg27
S'NBA'
p468
sg29
S'97'
p469
sg30
S'874'
p470
sg32
S'1115'
p471
sg33
S'.772'
p472
sg35
S'70'
p473
sg37
S'38'
p474
sg39
S'BOS'
p475
sg41
S'79'
p476
sg43
S'131'
p477
sg44
S'874'
p478
sg46
S'232'
p479
sg48
S'.535'
p480
sg50
S'705'
p481
sg52
S'1991-92'
p482
sg54
S'468'
p483
sg56
S'172'
p484
sg57
S'.535'
p485
sg59
S'2285'
p486
sg61
S'79'
p487
sba(isrc.gp1.models.Totals
Totals
p488
(dp489
g8
S'494'
p490
sg10
g121
sg12
S'.535'
p491
sg14
S'57'
p492
sg16
S'416'
p493
sg18
g121
sg20
g3
sg21
g22
sg23
S'246'
p494
sg25
S'162'
p495
sg27
S'NBA'
p496
sg29
S'107'
p497
sg30
S'777'
p498
sg32
S'994'
p499
sg33
S'.689'
p500
sg35
S'61'
p501
sg37
S'39'
p502
sg39
S'BOS'
p503
sg41
S'79'
p504
sg43
S'120'
p505
sg44
S'777'
p506
sg46
S'235'
p507
sg48
S'.535'
p508
sg50
S'740'
p509
sg52
S'1992-93'
p510
sg54
S'416'
p511
sg56
S'201'
p512
sg57
S'.535'
p513
sg59
S'2146'
p514
sg61
S'79'
p515
sba(isrc.gp1.models.Totals
Totals
p516
(dp517
g8
S'401'
p518
sg10
g121
sg12
S'.491'
p519
sg14
S'42'
p520
sg16
S'356'
p521
sg18
g121
sg20
g3
sg21
g22
sg23
S'141'
p522
sg25
S'154'
p523
sg27
S'NBA'
p524
sg29
S'96'
p525
sg30
S'725'
p526
sg32
S'866'
p527
sg33
S'.740'
p528
sg35
S'82'
p529
sg37
S'40'
p530
sg39
S'BOS'
p531
sg41
S'74'
p532
sg43
S'108'
p533
sg44
S'725'
p534
sg46
S'208'
p535
sg48
S'.491'
p536
sg50
S'542'
p537
sg52
S'1993-94'
p538
sg54
S'356'
p539
sg56
S'190'
p540
sg57
S'.491'
p541
sg59
S'1987'
p542
sg61
S'74'
p543
sba(isrc.gp1.models.Totals
Totals
p544
(dp545
g8
S'257'
p546
sg10
g121
sg12
S'.427'
p547
sg14
S'27'
p548
sg16
S'159'
p549
sg18
g121
sg20
g3
sg21
g22
sg23
S'93'
p550
sg25
S'71'
p551
sg27
S'NBA'
p552
sg29
S'36'
p553
sg30
S'372'
p554
sg32
S'389'
p555
sg33
S'.703'
p556
sg35
S'44'
p557
sg37
S'41'
p558
sg39
S'CHH'
p559
sg41
S'81'
p560
sg43
S'66'
p561
sg44
S'372'
p562
sg46
S'101'
p563
sg48
S'.427'
p564
sg50
S'350'
p565
sg52
S'1994-95'
p566
sg54
S'159'
p567
sg56
S'132'
p568
sg57
S'.427'
p569
sg59
S'1352'
p570
sg61
S'4'
p571
sba(isrc.gp1.models.Totals
Totals
p572
(dp573
g8
S'214'
p574
sg10
g121
sg12
S'.498'
p575
sg14
S'21'
p576
sg16
S'120'
p577
sg18
g121
sg20
g3
sg21
g22
sg23
S'89'
p578
sg25
S'50'
p579
sg27
S'NBA'
p580
sg29
S'54'
p581
sg30
S'241'
p582
sg32
S'290'
p583
sg33
S'.704'
p584
sg35
S'29'
p585
sg37
S'42'
p586
sg39
S'CHH'
p587
sg41
S'74'
p588
sg43
S'50'
p589
sg44
S'241'
p590
sg46
S'71'
p591
sg48
S'.498'
p592
sg50
S'303'
p593
sg52
S'1995-96'
p594
sg54
S'120'
p595
sg56
S'80'
p596
sg57
S'.498'
p597
sg59
S'1086'
p598
sg61
S'34'
p599
sba(isrc.gp1.models.Totals
Totals
p600
(dp601
g8
S'47'
p602
sg10
g121
sg12
S'.490'
p603
sg14
S'6'
p604
sg16
S'70'
p605
sg18
g121
sg20
g3
sg21
g22
sg23
S'42'
p606
sg25
S'21'
p607
sg27
S'NBA'
p608
sg29
S'19'
p609
sg30
S'143'
p610
sg32
S'161'
p611
sg33
S'.677'
p612
sg35
S'22'
p613
sg37
S'43'
p614
sg39
S'CHI'
p615
sg41
S'43'
p616
sg43
S'28'
p617
sg44
S'143'
p618
sg46
S'31'
p619
sg48
S'.490'
p620
sg50
S'89'
p621
sg52
S'1996-97'
p622
sg54
S'70'
p623
sg56
S'40'
p624
sg57
S'.490'
p625
sg59
S'406'
p626
sg61
S'3'
p627
sbasS'_college'
p628
S'Centenary College of Louisiana'
p629
sS'_toYear'
p630
S'1997'
p631
sS'_height'
p632
S'7-0'
p633
sS'_active'
p634
I00
sS'_shootingHand'
p635
VRight
p636
sS'_name'
p637
S'Robert Parish'
p638
sS'_per100Possessions'
p639
(lp640
(isrc.gp1.models.Per100Possession
Per100Possession
p641
(dp642
g8
S'1.8'
p643
sg10
S'.503'
p644
sg12
S'9.3'
p645
sS'_offensiveRating'
p646
g3
sg14
S'22.4'
p647
sg16
S'3.9'
p648
sg18
S'18.4'
p649
sg20
g3
sg21
g22
sS'_defensiveRating'
p650
g3
sg23
S'2.4'
p651
sg27
S'NBA'
p652
sg29
S'95'
p653
sg30
S'.503'
p654
sg32
g3
sg33
S'17.5'
p655
sg35
S'7.2'
p656
sg37
S'23'
p657
sg39
S'GSW'
p658
sg41
S'77'
p659
sg43
g3
sg44
S'5.5'
p660
sg46
S'11.0'
p661
sg48
S'.708'
p662
sg50
S'3.0'
p663
sg52
S'1976-77'
p664
sg54
S'18.4'
p665
sg56
g3
sg57
S'6.5'
p666
sg59
S'9.3'
p667
sg61
S'1384'
p668
sba(isrc.gp1.models.Per100Possession
Per100Possession
p669
(dp670
g8
S'1.8'
p671
sg10
S'.472'
p672
sg12
S'9.9'
p673
sg646
g3
sg14
S'6.7'
p674
sg16
S'3.8'
p675
sg18
S'21.0'
p676
sg20
g3
sg21
g22
sg650
g3
sg23
S'2.2'
p677
sg27
S'NBA'
p678
sg29
S'23.6'
p679
sg30
S'.472'
p680
sg32
g3
sg33
S'15.6'
p681
sg35
S'4.6'
p682
sg37
S'24'
p683
sg39
S'GSW'
p684
sg41
S'82'
p685
sg43
S'94'
p686
sg44
S'6.1'
p687
sg46
S'10.8'
p688
sg48
S'.625'
p689
sg50
S'2.8'
p690
sg52
S'1977-78'
p691
sg54
S'21.0'
p692
sg56
S'95'
p693
sg57
S'4.9'
p694
sg59
S'9.9'
p695
sg61
S'1969'
p696
sba(isrc.gp1.models.Per100Possession
Per100Possession
p697
(dp698
g8
S'1.9'
p699
sg10
S'.499'
p700
sg12
S'10.8'
p701
sg646
g3
sg14
S'5.9'
p702
sg16
S'3.8'
p703
sg18
S'21.6'
p704
sg20
g3
sg21
g22
sg650
g3
sg23
S'2.2'
p705
sg27
S'NBA'
p706
sg29
S'25.4'
p707
sg30
S'.499'
p708
sg32
g3
sg33
S'17.8'
p709
sg35
S'4.5'
p710
sg37
S'25'
p711
sg39
S'GSW'
p712
sg41
S'76'
p713
sg43
S'100'
p714
sg44
S'5.5'
p715
sg46
S'12.7'
p716
sg48
S'.698'
p717
sg50
S'4.2'
p718
sg52
S'1978-79'
p719
sg54
S'21.6'
p720
sg56
S'94'
p721
sg57
S'5.2'
p722
sg59
S'10.8'
p723
sg61
S'2411'
p724
sba(isrc.gp1.models.Per100Possession
Per100Possession
p725
(dp726
g8
S'12.1'
p727
sg10
S'.000'
p728
sg12
S'0.0'
p729
sg646
S'102'
p730
sg14
S'1.3'
p731
sg16
S'11.5'
p732
sg18
S'0.0'
p733
sg20
S'101'
p734
sg21
g22
sg650
g3
sg23
S'5.6'
p735
sg27
S'NBA'
p736
sg29
S'2.6'
p737
sg30
S'.507'
p738
sg32
S'27.6'
p739
sg33
S'.715'
p740
sg35
S'2.7'
p741
sg37
S'26'
p742
sg39
S'GSW'
p743
sg41
S'72'
p744
sg43
S'5.1'
p745
sg44
S'22.7'
p746
sg46
S'6.4'
p747
sg48
S'.507'
p748
sg50
S'17.6'
p749
sg52
S'1979-80'
p750
sg54
S'22.7'
p751
sg56
S'5.6'
p752
sg57
S'4.6'
p753
sg59
S'11.5'
p754
sg61
S'2119'
p755
sba(isrc.gp1.models.Per100Possession
Per100Possession
p756
(dp757
g8
S'5.1'
p758
sg10
S'0.0'
p759
sg12
S'.545'
p760
sg646
S'113'
p761
sg14
S'3.0'
p762
sg16
S'.000'
p763
sg18
S'0.0'
p764
sg20
S'32.2'
p765
sg21
g22
sg650
S'96'
p766
sg23
S'.710'
p767
sg27
S'NBA'
p768
sg29
S'1.7'
p769
sg30
S'24.2'
p770
sg32
S'6.4'
p771
sg33
S'8.2'
p772
sg35
S'16.1'
p773
sg37
S'27'
p774
sg39
S'BOS'
p775
sg41
S'82'
p776
sg43
S'4.4'
p777
sg44
S'13.2'
p778
sg46
S'5.8'
p779
sg48
S'24.1'
p780
sg50
S'11.0'
p781
sg52
S'1980-81'
p782
sg54
S'13.2'
p783
sg56
S'4.0'
p784
sg57
S'.545'
p785
sg59
S'2298'
p786
sg61
S'78'
p787
sba(isrc.gp1.models.Per100Possession
Per100Possession
p788
(dp789
g8
S'10.8'
p790
sg10
S'0.0'
p791
sg12
S'.542'
p792
sg646
S'99'
p793
sg14
S'1.3'
p794
sg16
S'12.5'
p795
sg18
S'0.0'
p796
sg20
S'112'
p797
sg21
g22
sg650
g3
sg23
S'5.4'
p798
sg27
S'NBA'
p799
sg29
S'3.6'
p800
sg30
S'23.1'
p801
sg32
S'29.7'
p802
sg33
S'.710'
p803
sg35
S'2.6'
p804
sg37
S'28'
p805
sg39
S'BOS'
p806
sg41
S'80'
p807
sg43
S'4.1'
p808
sg44
S'23.1'
p809
sg46
S'6.6'
p810
sg48
S'.542'
p811
sg50
S'16.2'
p812
sg52
S'1981-82'
p813
sg54
S'12.5'
p814
sg56
S'5.0'
p815
sg57
S'4.7'
p816
sg59
S'2534'
p817
sg61
S'78'
p818
sba(isrc.gp1.models.Per100Possession
Per100Possession
p819
(dp820
g8
S'4.9'
p821
sg10
S'0.0'
p822
sg12
S'.550'
p823
sg646
S'114'
p824
sg14
S'2.6'
p825
sg16
S'.000'
p826
sg18
S'0.0'
p827
sg20
S'28.3'
p828
sg21
g22
sg650
S'98'
p829
sg23
S'.698'
p830
sg27
S'NBA'
p831
sg29
S'1.5'
p832
sg30
S'21.1'
p833
sg32
S'4.2'
p834
sg33
S'7.3'
p835
sg35
S'15.5'
p836
sg37
S'29'
p837
sg39
S'BOS'
p838
sg41
S'78'
p839
sg43
S'2.8'
p840
sg44
S'11.6'
p841
sg46
S'5.1'
p842
sg48
S'21.1'
p843
sg50
S'10.6'
p844
sg52
S'1982-83'
p845
sg54
S'11.6'
p846
sg56
S'3.5'
p847
sg57
S'.551'
p848
sg59
S'2459'
p849
sg61
S'76'
p850
sba(isrc.gp1.models.Per100Possession
Per100Possession
p851
(dp852
g8
S'10.3'
p853
sg10
S'0.0'
p854
sg12
S'.546'
p855
sg646
S'102'
p856
sg14
S'0.9'
p857
sg16
S'10.5'
p858
sg18
S'0.0'
p859
sg20
S'115'
p860
sg21
g22
sg650
g3
sg23
S'4.1'
p861
sg27
S'NBA'
p862
sg29
S'1.9'
p863
sg30
S'19.1'
p864
sg32
S'25.5'
p865
sg33
S'.745'
p866
sg35
S'2.3'
p867
sg37
S'30'
p868
sg39
S'BOS'
p869
sg41
S'80'
p870
sg43
S'3.1'
p871
sg44
S'19.1'
p872
sg46
S'6.2'
p873
sg48
S'.546'
p874
sg50
S'14.4'
p875
sg52
S'1983-84'
p876
sg54
S'10.5'
p877
sg56
S'4.5'
p878
sg57
S'4.6'
p879
sg59
S'2867'
p880
sg61
S'79'
p881
sba(isrc.gp1.models.Per100Possession
Per100Possession
p882
(dp883
g8
S'9.6'
p884
sg10
S'0.0'
p885
sg12
S'.542'
p886
sg646
S'105'
p887
sg14
S'0.9'
p888
sg16
S'9.1'
p889
sg18
S'0.0'
p890
sg20
S'114'
p891
sg21
g22
sg650
g3
sg23
S'4.4'
p892
sg27
S'NBA'
p893
sg29
S'1.7'
p894
sg30
S'16.8'
p895
sg32
S'23.1'
p896
sg33
S'.743'
p897
sg35
S'2.1'
p898
sg37
S'31'
p899
sg39
S'BOS'
p900
sg41
S'79'
p901
sg43
S'3.1'
p902
sg44
S'16.8'
p903
sg46
S'6.5'
p904
sg48
S'.542'
p905
sg50
S'13.9'
p906
sg52
S'1984-85'
p907
sg54
S'9.1'
p908
sg56
S'3.7'
p909
sg57
S'4.8'
p910
sg59
S'2850'
p911
sg61
S'78'
p912
sba(isrc.gp1.models.Per100Possession
Per100Possession
p913
(dp914
g8
S'9.7'
p915
sg10
S'0.0'
p916
sg12
S'.549'
p917
sg646
S'100'
p918
sg14
S'1.2'
p919
sg16
S'9.8'
p920
sg18
S'0.0'
p921
sg20
S'112'
p922
sg21
g22
sg650
g3
sg23
S'4.5'
p923
sg27
S'NBA'
p924
sg29
S'2.1'
p925
sg30
S'17.8'
p926
sg32
S'24.1'
p927
sg33
S'.731'
p928
sg35
S'2.7'
p929
sg37
S'32'
p930
sg39
S'BOS'
p931
sg41
S'81'
p932
sg43
S'3.5'
p933
sg44
S'17.8'
p934
sg46
S'6.2'
p935
sg48
S'.549'
p936
sg50
S'14.2'
p937
sg52
S'1985-86'
p938
sg54
S'9.8'
p939
sg56
S'4.0'
p940
sg57
S'4.5'
p941
sg59
S'2567'
p942
sg61
S'80'
p943
sba(isrc.gp1.models.Per100Possession
Per100Possession
p944
(dp945
g8
S'4.1'
p946
sg10
S'0.0'
p947
sg12
S'.556'
p948
sg646
S'113'
p949
sg14
S'2.8'
p950
sg16
S'.000'
p951
sg18
S'0.0'
p952
sg20
S'22.8'
p953
sg21
g22
sg650
S'104'
p954
sg23
S'.735'
p955
sg27
S'NBA'
p956
sg29
S'1.0'
p957
sg30
S'17.2'
p958
sg32
S'4.3'
p959
sg33
S'5.0'
p960
sg35
S'13.8'
p961
sg37
S'33'
p962
sg39
S'BOS'
p963
sg41
S'80'
p964
sg43
S'2.3'
p965
sg44
S'9.6'
p966
sg46
S'3.7'
p967
sg48
S'17.2'
p968
sg50
S'9.7'
p969
sg52
S'1986-87'
p970
sg54
S'9.6'
p971
sg56
S'3.1'
p972
sg57
S'.557'
p973
sg59
S'2995'
p974
sg61
S'80'
p975
sba(isrc.gp1.models.Per100Possession
Per100Possession
p976
(dp977
g8
S'3.7'
p978
sg10
S'0.0'
p979
sg12
S'.589'
p980
sg646
S'114'
p981
sg14
S'2.4'
p982
sg16
S'.000'
p983
sg18
S'0.0'
p984
sg20
S'22.5'
p985
sg21
g22
sg650
S'107'
p986
sg23
S'.734'
p987
sg27
S'NBA'
p988
sg29
S'1.2'
p989
sg30
S'15.9'
p990
sg32
S'4.2'
p991
sg33
S'5.1'
p992
sg35
S'13.3'
p993
sg37
S'34'
p994
sg39
S'BOS'
p995
sg41
S'74'
p996
sg43
S'1.8'
p997
sg44
S'9.4'
p998
sg46
S'3.8'
p999
sg48
S'15.9'
p1000
sg50
S'9.6'
p1001
sg52
S'1987-88'
p1002
sg54
S'9.4'
p1003
sg56
S'3.3'
p1004
sg57
S'.590'
p1005
sg59
S'2312'
p1006
sg61
S'73'
p1007
sba(isrc.gp1.models.Per100Possession
Per100Possession
p1008
(dp1009
g8
S'11.3'
p1010
sg10
S'0.0'
p1011
sg12
S'.570'
p1012
sg646
S'106'
p1013
sg14
S'1.4'
p1014
sg16
S'10.3'
p1015
sg18
S'0.0'
p1016
sg20
S'118'
p1017
sg21
g22
sg650
g3
sg23
S'5.9'
p1018
sg27
S'NBA'
p1019
sg29
S'2.0'
p1020
sg30
S'18.0'
p1021
sg32
S'25.6'
p1022
sg33
S'.719'
p1023
sg35
S'3.0'
p1024
sg37
S'35'
p1025
sg39
S'BOS'
p1026
sg41
S'80'
p1027
sg43
S'3.4'
p1028
sg44
S'18.0'
p1029
sg46
S'7.0'
p1030
sg48
S'.570'
p1031
sg50
S'17.2'
p1032
sg52
S'1988-89'
p1033
sg54
S'10.3'
p1034
sg56
S'3.6'
p1035
sg57
S'5.1'
p1036
sg59
S'2840'
p1037
sg61
S'80'
p1038
sba(isrc.gp1.models.Per100Possession
Per100Possession
p1039
(dp1040
g8
S'11.0'
p1041
sg10
S'0.0'
p1042
sg12
S'.580'
p1043
sg646
S'106'
p1044
sg14
S'0.8'
p1045
sg16
S'10.3'
p1046
sg18
S'0.0'
p1047
sg20
S'116'
p1048
sg21
g22
sg650
g3
sg23
S'5.3'
p1049
sg27
S'NBA'
p1050
sg29
S'1.4'
p1051
sg30
S'17.8'
p1052
sg32
S'25.4'
p1053
sg33
S'.747'
p1054
sg35
S'2.1'
p1055
sg37
S'36'
p1056
sg39
S'BOS'
p1057
sg41
S'79'
p1058
sg43
S'3.4'
p1059
sg44
S'17.8'
p1060
sg46
S'6.4'
p1061
sg48
S'.580'
p1062
sg50
S'16.2'
p1063
sg52
S'1989-90'
p1064
sg54
S'10.3'
p1065
sg56
S'3.9'
p1066
sg57
S'4.8'
p1067
sg59
S'2396'
p1068
sg61
S'78'
p1069
sba(isrc.gp1.models.Per100Possession
Per100Possession
p1070
(dp1071
g8
S'5.4'
p1072
sg10
S'0.0'
p1073
sg12
S'.598'
p1074
sg646
S'122'
p1075
sg14
S'1.3'
p1076
sg16
S'.000'
p1077
sg18
S'0.0'
p1078
sg20
S'24.1'
p1079
sg21
g22
sg650
S'103'
p1080
sg23
S'.767'
p1081
sg27
S'NBA'
p1082
sg29
S'1.3'
p1083
sg30
S'16.2'
p1084
sg32
S'3.9'
p1085
sg33
S'6.2'
p1086
sg35
S'17.1'
p1087
sg37
S'37'
p1088
sg39
S'BOS'
p1089
sg41
S'81'
p1090
sg43
S'2.1'
p1091
sg44
S'9.7'
p1092
sg46
S'4.7'
p1093
sg48
S'16.2'
p1094
sg50
S'11.7'
p1095
sg52
S'1990-91'
p1096
sg54
S'9.7'
p1097
sg56
S'3.1'
p1098
sg57
S'.599'
p1099
sg59
S'2441'
p1100
sg61
S'81'
p1101
sba(isrc.gp1.models.Per100Possession
Per100Possession
p1102
(dp1103
g8
S'10.7'
p1104
sg10
S'0.0'
p1105
sg12
S'.535'
p1106
sg646
S'104'
p1107
sg14
S'1.5'
p1108
sg16
S'10.3'
p1109
sg18
S'0.0'
p1110
sg20
S'113'
p1111
sg21
g22
sg650
g3
sg23
S'4.8'
p1112
sg27
S'NBA'
p1113
sg29
S'2.1'
p1114
sg30
S'19.2'
p1115
sg32
S'24.5'
p1116
sg33
S'.772'
p1117
sg35
S'1.5'
p1118
sg37
S'38'
p1119
sg39
S'BOS'
p1120
sg41
S'79'
p1121
sg43
S'2.9'
p1122
sg44
S'19.2'
p1123
sg46
S'5.1'
p1124
sg48
S'.535'
p1125
sg50
S'15.5'
p1126
sg52
S'1991-92'
p1127
sg54
S'10.3'
p1128
sg56
S'3.8'
p1129
sg57
S'3.9'
p1130
sg59
S'2285'
p1131
sg61
S'79'
p1132
sba(isrc.gp1.models.Per100Possession
Per100Possession
p1133
(dp1134
g8
S'11.6'
p1135
sg10
S'0.0'
p1136
sg12
S'.535'
p1137
sg646
S'103'
p1138
sg14
S'1.3'
p1139
sg16
S'9.8'
p1140
sg18
S'0.0'
p1141
sg20
S'113'
p1142
sg21
g22
sg650
g3
sg23
S'5.8'
p1143
sg27
S'NBA'
p1144
sg29
S'2.5'
p1145
sg30
S'18.3'
p1146
sg32
S'23.4'
p1147
sg33
S'.689'
p1148
sg35
S'1.4'
p1149
sg37
S'39'
p1150
sg39
S'BOS'
p1151
sg41
S'79'
p1152
sg43
S'2.8'
p1153
sg44
S'18.3'
p1154
sg46
S'5.5'
p1155
sg48
S'.535'
p1156
sg50
S'17.4'
p1157
sg52
S'1992-93'
p1158
sg54
S'9.8'
p1159
sg56
S'4.7'
p1160
sg57
S'3.8'
p1161
sg59
S'2146'
p1162
sg61
S'79'
p1163
sba(isrc.gp1.models.Per100Possession
Per100Possession
p1164
(dp1165
g8
S'10.1'
p1166
sg10
S'0.0'
p1167
sg12
S'.491'
p1168
sg646
S'106'
p1169
sg14
S'1.1'
p1170
sg16
S'9.0'
p1171
sg18
S'0.0'
p1172
sg20
S'105'
p1173
sg21
g22
sg650
g3
sg23
S'3.6'
p1174
sg27
S'NBA'
p1175
sg29
S'2.4'
p1176
sg30
S'18.3'
p1177
sg32
S'21.9'
p1178
sg33
S'.740'
p1179
sg35
S'2.1'
p1180
sg37
S'40'
p1181
sg39
S'BOS'
p1182
sg41
S'74'
p1183
sg43
S'2.7'
p1184
sg44
S'18.3'
p1185
sg46
S'5.3'
p1186
sg48
S'.491'
p1187
sg50
S'13.7'
p1188
sg52
S'1993-94'
p1189
sg54
S'9.0'
p1190
sg56
S'4.8'
p1191
sg57
S'3.9'
p1192
sg59
S'1987'
p1193
sg61
S'74'
p1194
sba(isrc.gp1.models.Per100Possession
Per100Possession
p1195
(dp1196
g8
S'10.0'
p1197
sg10
S'0.0'
p1198
sg12
S'.427'
p1199
sg646
S'104'
p1200
sg14
S'1.1'
p1201
sg16
S'6.2'
p1202
sg18
S'0.0'
p1203
sg20
S'95'
p1204
sg21
g22
sg650
g3
sg23
S'3.6'
p1205
sg27
S'NBA'
p1206
sg29
S'1.4'
p1207
sg30
S'14.5'
p1208
sg32
S'15.1'
p1209
sg33
S'.703'
p1210
sg35
S'1.7'
p1211
sg37
S'41'
p1212
sg39
S'CHH'
p1213
sg41
S'81'
p1214
sg43
S'2.6'
p1215
sg44
S'14.5'
p1216
sg46
S'3.9'
p1217
sg48
S'.427'
p1218
sg50
S'13.6'
p1219
sg52
S'1994-95'
p1220
sg54
S'6.2'
p1221
sg56
S'5.1'
p1222
sg57
S'2.8'
p1223
sg59
S'1352'
p1224
sg61
g571
sba(isrc.gp1.models.Per100Possession
Per100Possession
p1225
(dp1226
g8
S'10.3'
p1227
sg10
S'0.0'
p1228
sg12
S'.498'
p1229
sg646
S'108'
p1230
sg14
S'1.0'
p1231
sg16
S'5.8'
p1232
sg18
S'0.0'
p1233
sg20
S'106'
p1234
sg21
g22
sg650
g3
sg23
S'4.3'
p1235
sg27
S'NBA'
p1236
sg29
S'2.6'
p1237
sg30
S'11.6'
p1238
sg32
S'14.0'
p1239
sg33
S'.704'
p1240
sg35
S'1.4'
p1241
sg37
S'42'
p1242
sg39
S'CHH'
p1243
sg41
S'74'
p1244
sg43
S'2.4'
p1245
sg44
S'11.6'
p1246
sg46
S'3.4'
p1247
sg48
S'.498'
p1248
sg50
S'14.6'
p1249
sg52
S'1995-96'
p1250
sg54
S'5.8'
p1251
sg56
S'3.9'
p1252
sg57
S'2.4'
p1253
sg59
S'1086'
p1254
sg61
S'34'
p1255
sba(isrc.gp1.models.Per100Possession
Per100Possession
p1256
(dp1257
g8
S'6.2'
p1258
sg10
S'0.0'
p1259
sg12
S'.490'
p1260
sg646
S'104'
p1261
sg14
S'0.8'
p1262
sg16
S'9.2'
p1263
sg18
S'0.0'
p1264
sg20
S'104'
p1265
sg21
g22
sg650
g3
sg23
S'5.5'
p1266
sg27
S'NBA'
p1267
sg29
S'2.5'
p1268
sg30
S'18.8'
p1269
sg32
S'21.2'
p1270
sg33
S'.677'
p1271
sg35
S'2.9'
p1272
sg37
S'43'
p1273
sg39
S'CHI'
p1274
sg41
S'43'
p1275
sg43
S'3.7'
p1276
sg44
S'18.8'
p1277
sg46
S'4.1'
p1278
sg48
S'.490'
p1279
sg50
S'11.7'
p1280
sg52
S'1996-97'
p1281
sg54
S'9.2'
p1282
sg56
S'5.3'
p1283
sg57
S'2.8'
p1284
sg59
S'406'
p1285
sg61
g627
sbasS'_advanced'
p1286
(lp1287
(isrc.gp1.models.Advanced
Advanced
p1288
(dp1289
S'_offensiveReboundPercentage'
p1290
S'25.1'
p1291
sS'_turnOverPercentage'
p1292
S'2.3'
p1293
sS'_winSharesPer48Minutes'
p1294
S'1.5'
p1295
sS'_stealPercentage'
p1296
S'3.5'
p1297
sS'_usagePercentage'
p1298
S'4.8'
p1299
sS'_totalReboundsPercentage'
p1300
S'7.3'
p1301
sS'_defensiveBoxPlusMinus'
p1302
g3
sg21
g22
sS'_valueOverReplacementPlayer'
p1303
g3
sS'_trueShootingPercentage'
p1304
S'.538'
p1305
sS'_defensiveReboundPercentage'
p1306
S'19.8'
p1307
sS'_freeThrowsAttempRate'
p1308
S'14.6'
p1309
sS'_threePointsAttempRate'
p1310
S'.298'
p1311
sg27
S'NBA'
p1312
sS'_offensiveBoxPlusMinues'
p1313
S'1.2'
p1314
sS'_assistPercentage'
p1315
S'1.8'
p1316
sS'_defensiveWinShares'
p1317
S'0.9'
p1318
sg37
S'23'
p1319
sg39
S'GSW'
p1320
sg41
S'77'
p1321
sS'_blockPercentage'
p1322
S'2.5'
p1323
sS'_playerEfficiencyRating'
p1324
S'19.3'
p1325
sS'_offensiveWinShares'
p1326
S'.167'
p1327
sg59
S'1384'
p1328
sS'_boxPlusMinus'
p1329
g3
sg52
S'1976-77'
p1330
sS'_winShares'
p1331
S'0.6'
p1332
sba(isrc.gp1.models.Advanced
Advanced
p1333
(dp1334
g1290
S'24.7'
p1335
sg1292
S'24.5'
p1336
sg1294
S'-2.0'
p1337
sg1296
S'3.4'
p1338
sg1298
S'0.4'
p1339
sg1300
S'7.0'
p1340
sg1302
S'-0.9'
p1341
sg21
g22
sg1303
g3
sg1304
S'.499'
p1342
sg1306
S'17.5'
p1343
sg1308
S'10.7'
p1344
sg1310
S'.290'
p1345
sg27
S'NBA'
p1346
sg1313
S'1.0'
p1347
sg1315
S'1.8'
p1348
sg1317
S'4.0'
p1349
sg37
S'24'
p1350
sg39
S'GSW'
p1351
sg41
S'82'
p1352
sg1322
S'16.4'
p1353
sg1324
S'17.2'
p1354
sg1326
S'3.6'
p1355
sg59
S'1969'
p1356
sg1329
S'0.5'
p1357
sg52
S'1977-78'
p1358
sg1331
S'.098'
p1359
sba(isrc.gp1.models.Advanced
Advanced
p1360
(dp1361
g1290
S'29.2'
p1362
sg1292
S'24.6'
p1363
sg1294
S'-0.8'
p1364
sg1296
S'4.9'
p1365
sg1298
S'1.8'
p1366
sg1300
S'6.9'
p1367
sg1302
S'2.0'
p1368
sg21
g22
sg1303
g3
sg1304
S'.529'
p1369
sg1306
S'20.4'
p1370
sg1308
S'11.7'
p1371
sg1310
S'.253'
p1372
sg27
S'NBA'
p1373
sg1313
S'2.9'
p1374
sg1315
S'1.9'
p1375
sg1317
S'7.1'
p1376
sg37
S'25'
p1377
sg39
S'GSW'
p1378
sg41
S'76'
p1379
sg1322
S'15.9'
p1380
sg1324
S'20.8'
p1381
sg1326
S'5.4'
p1382
sg59
S'2411'
p1383
sg1329
S'2.5'
p1384
sg52
S'1978-79'
p1385
sg1331
S'.142'
p1386
sba(isrc.gp1.models.Advanced
Advanced
p1387
(dp1388
g1290
S'12.5'
p1389
sg1292
S'16.6'
p1390
sg1294
S'.104'
p1391
sg1296
S'1.3'
p1392
sg1298
S'26.4'
p1393
sg1300
S'20.4'
p1394
sg1302
S'0.7'
p1395
sg21
g22
sg1303
S'1.2'
p1396
sg1304
S'.541'
p1397
sg1306
S'28.8'
p1398
sg1308
S'.282'
p1399
sg1310
S'.001'
p1400
sg27
S'NBA'
p1401
sg1313
S'-0.5'
p1402
sg1315
S'8.9'
p1403
sg1317
S'3.1'
p1404
sg37
S'26'
p1405
sg39
S'GSW'
p1406
sg41
S'72'
p1407
sg1322
S'3.2'
p1408
sg1324
S'20.0'
p1409
sg1326
S'1.5'
p1410
sg59
S'2119'
p1411
sg1329
S'0.2'
p1412
sg52
S'1979-80'
p1413
sg1331
S'4.6'
p1414
sba(isrc.gp1.models.Advanced
Advanced
p1415
(dp1416
g1290
S'12.7'
p1417
sg1292
S'12.5'
p1418
sg1294
S'.228'
p1419
sg1296
S'1.7'
p1420
sg1298
S'27.1'
p1421
sg1300
S'19.3'
p1422
sg1302
S'2.3'
p1423
sg21
g22
sg1303
S'4.0'
p1424
sg1304
S'.579'
p1425
sg1306
S'25.3'
p1426
sg1308
S'.340'
p1427
sg1310
S'.001'
p1428
sg27
S'NBA'
p1429
sg1313
S'2.7'
p1430
sg1315
S'10.0'
p1431
sg1317
S'4.9'
p1432
sg37
S'27'
p1433
sg39
S'BOS'
p1434
sg41
S'82'
p1435
sg1322
S'5.1'
p1436
sg1324
S'25.2'
p1437
sg1326
S'6.0'
p1438
sg59
S'2298'
p1439
sg1329
S'5.0'
p1440
sg52
S'1980-81'
p1441
sg1331
S'10.9'
p1442
sba(isrc.gp1.models.Advanced
Advanced
p1443
(dp1444
g1290
S'12.8'
p1445
sg1292
S'13.7'
p1446
sg1294
S'.190'
p1447
sg1296
S'1.3'
p1448
sg1298
S'25.5'
p1449
sg1300
S'18.8'
p1450
sg1302
S'2.0'
p1451
sg21
g22
sg1303
S'3.7'
p1452
sg1304
S'.571'
p1453
sg1306
S'24.5'
p1454
sg1308
S'.287'
p1455
sg1310
S'.000'
p1456
sg27
S'NBA'
p1457
sg1313
S'1.9'
p1458
sg1315
S'8.4'
p1459
sg1317
S'5.1'
p1460
sg37
S'28'
p1461
sg39
S'BOS'
p1462
sg41
S'80'
p1463
sg1322
S'4.1'
p1464
sg1324
S'22.6'
p1465
sg1326
S'5.0'
p1466
sg59
S'2534'
p1467
sg1329
S'3.8'
p1468
sg52
S'1981-82'
p1469
sg1331
S'10.0'
p1470
sba(isrc.gp1.models.Advanced
Advanced
p1471
(dp1472
g1290
S'11.4'
p1473
sg1292
S'12.5'
p1474
sg1294
S'.211'
p1475
sg1296
S'1.5'
p1476
sg1298
S'23.6'
p1477
sg1300
S'18.1'
p1478
sg1302
S'1.5'
p1479
sg21
g22
sg1303
S'3.7'
p1480
sg1304
S'.582'
p1481
sg1306
S'24.6'
p1482
sg1308
S'.345'
p1483
sg1310
S'.001'
p1484
sg27
S'NBA'
p1485
sg1313
S'2.4'
p1486
sg1315
S'8.4'
p1487
sg1317
S'4.6'
p1488
sg37
S'29'
p1489
sg39
S'BOS'
p1490
sg41
S'78'
p1491
sg1322
S'3.3'
p1492
sg1324
S'23.0'
p1493
sg1326
S'6.2'
p1494
sg59
S'2459'
p1495
sg1329
S'4.0'
p1496
sg52
S'1982-83'
p1497
sg1331
S'10.8'
p1498
sba(isrc.gp1.models.Advanced
Advanced
p1499
(dp1500
g1290
S'10.0'
p1501
sg1292
S'12.4'
p1502
sg1294
S'.175'
p1503
sg1296
S'0.9'
p1504
sg1298
S'21.3'
p1505
sg1300
S'17.0'
p1506
sg1302
S'0.9'
p1507
sg21
g22
sg1303
S'2.9'
p1508
sg1304
S'.584'
p1509
sg1306
S'23.5'
p1510
sg1308
S'.323'
p1511
sg1310
S'.000'
p1512
sg27
S'NBA'
p1513
sg1313
S'1.1'
p1514
sg1315
S'7.0'
p1515
sg1317
S'4.8'
p1516
sg37
S'30'
p1517
sg39
S'BOS'
p1518
sg41
S'80'
p1519
sg1322
S'2.3'
p1520
sg1324
S'19.2'
p1521
sg1326
S'5.7'
p1522
sg59
S'2867'
p1523
sg1329
S'2.1'
p1524
sg52
S'1983-84'
p1525
sg1331
S'10.5'
p1526
sba(isrc.gp1.models.Advanced
Advanced
p1527
(dp1528
g1290
S'10.7'
p1529
sg1292
S'13.5'
p1530
sg1294
S'.151'
p1531
sg1296
S'0.9'
p1532
sg1298
S'19.7'
p1533
sg1300
S'16.3'
p1534
sg1302
S'0.4'
p1535
sg21
g22
sg1303
S'2.2'
p1536
sg1304
S'.586'
p1537
sg1306
S'21.4'
p1538
sg1308
S'.387'
p1539
sg1310
S'.000'
p1540
sg27
S'NBA'
p1541
sg1313
S'0.7'
p1542
sg1315
S'5.8'
p1543
sg1317
S'4.0'
p1544
sg37
S'31'
p1545
sg39
S'BOS'
p1546
sg41
S'79'
p1547
sg1322
S'1.9'
p1548
sg1324
S'17.6'
p1549
sg1326
S'5.0'
p1550
sg59
S'2850'
p1551
sg1329
S'1.0'
p1552
sg52
S'1984-85'
p1553
sg1331
S'9.0'
p1554
sba(isrc.gp1.models.Advanced
Advanced
p1555
(dp1556
g1290
S'11.3'
p1557
sg1292
S'14.4'
p1558
sg1294
S'.171'
p1559
sg1296
S'1.2'
p1560
sg1298
S'20.8'
p1561
sg1300
S'16.5'
p1562
sg1302
S'1.5'
p1563
sg21
g22
sg1303
S'3.0'
p1564
sg1304
S'.586'
p1565
sg1306
S'21.1'
p1566
sg1308
S'.347'
p1567
sg1310
S'.000'
p1568
sg27
S'NBA'
p1569
sg1313
S'1.1'
p1570
sg1315
S'7.7'
p1571
sg1317
S'4.8'
p1572
sg37
S'32'
p1573
sg39
S'BOS'
p1574
sg41
S'81'
p1575
sg1322
S'2.5'
p1576
sg1324
S'18.8'
p1577
sg1326
S'4.4'
p1578
sg59
S'2567'
p1579
sg1329
S'2.6'
p1580
sg52
S'1985-86'
p1581
sg1331
S'9.2'
p1582
sba(isrc.gp1.models.Advanced
Advanced
p1583
(dp1584
g1290
S'10.4'
p1585
sg1292
S'13.8'
p1586
sg1294
S'.147'
p1587
sg1296
S'1.0'
p1588
sg1298
S'19.7'
p1589
sg1300
S'16.0'
p1590
sg1302
S'1.5'
p1591
sg21
g22
sg1303
S'3.3'
p1592
sg1304
S'.588'
p1593
sg1306
S'20.7'
p1594
sg1308
S'.292'
p1595
sg1310
S'.001'
p1596
sg27
S'NBA'
p1597
sg1313
S'0.8'
p1598
sg1315
S'8.0'
p1599
sg1317
S'4.5'
p1600
sg37
S'33'
p1601
sg39
S'BOS'
p1602
sg41
S'80'
p1603
sg1322
S'2.7'
p1604
sg1324
S'17.7'
p1605
sg1326
S'4.6'
p1606
sg59
S'2995'
p1607
sg1329
S'2.3'
p1608
sg52
S'1986-87'
p1609
sg1331
S'9.2'
p1610
sba(isrc.gp1.models.Advanced
Advanced
p1611
(dp1612
g1290
S'9.5'
p1613
sg1292
S'15.2'
p1614
sg1294
S'.134'
p1615
sg1296
S'1.2'
p1616
sg1298
S'18.7'
p1617
sg1300
S'16.1'
p1618
sg1302
S'0.6'
p1619
sg21
g22
sg1303
S'2.0'
p1620
sg1304
S'.620'
p1621
sg1306
S'21.9'
p1622
sg1308
S'.321'
p1623
sg1310
S'.001'
p1624
sg27
S'NBA'
p1625
sg1313
S'0.9'
p1626
sg1315
S'6.9'
p1627
sg1317
S'2.6'
p1628
sg37
S'34'
p1629
sg39
S'BOS'
p1630
sg41
S'74'
p1631
sg1322
S'2.1'
p1632
sg1324
S'17.2'
p1633
sg1326
S'3.8'
p1634
sg59
S'2312'
p1635
sg1329
S'1.5'
p1636
sg52
S'1987-88'
p1637
sg1331
S'6.4'
p1638
sba(isrc.gp1.models.Advanced
Advanced
p1639
(dp1640
g1290
S'14.0'
p1641
sg1292
S'14.0'
p1642
sg1294
S'.177'
p1643
sg1296
S'1.4'
p1644
sg1298
S'20.9'
p1645
sg1300
S'20.1'
p1646
sg1302
S'1.2'
p1647
sg21
g22
sg1303
S'4.5'
p1648
sg1304
S'.607'
p1649
sg1306
S'26.1'
p1650
sg1308
S'.391'
p1651
sg1310
S'.000'
p1652
sg27
S'NBA'
p1653
sg1313
S'3.0'
p1654
sg1315
S'9.1'
p1655
sg1317
S'3.6'
p1656
sg37
S'35'
p1657
sg39
S'BOS'
p1658
sg41
S'80'
p1659
sg1322
S'2.4'
p1660
sg1324
S'21.6'
p1661
sg1326
S'6.9'
p1662
sg59
S'2840'
p1663
sg1329
S'4.2'
p1664
sg52
S'1988-89'
p1665
sg1331
S'10.5'
p1666
sba(isrc.gp1.models.Advanced
Advanced
p1667
(dp1668
g1290
S'12.6'
p1669
sg1292
S'14.4'
p1670
sg1294
S'.157'
p1671
sg1296
S'0.8'
p1672
sg1298
S'20.7'
p1673
sg1300
S'18.3'
p1674
sg1302
S'-0.1'
p1675
sg21
g22
sg1303
S'2.1'
p1676
sg1304
S'.616'
p1677
sg1306
S'23.5'
p1678
sg1308
S'.358'
p1679
sg1310
S'.000'
p1680
sg27
S'NBA'
p1681
sg1313
S'1.4'
p1682
sg1315
S'6.2'
p1683
sg1317
S'3.0'
p1684
sg37
S'36'
p1685
sg39
S'BOS'
p1686
sg41
S'79'
p1687
sg1322
S'1.7'
p1688
sg1324
S'19.2'
p1689
sg1326
S'4.8'
p1690
sg59
S'2396'
p1691
sg1329
S'1.4'
p1692
sg52
S'1989-90'
p1693
sg1331
S'7.8'
p1694
sba(isrc.gp1.models.Advanced
Advanced
p1695
(dp1696
g1290
S'13.4'
p1697
sg1292
S'13.9'
p1698
sg1294
S'.198'
p1699
sg1296
S'1.3'
p1700
sg1298
S'19.0'
p1701
sg1300
S'19.3'
p1702
sg1302
S'-0.1'
p1703
sg21
g22
sg1303
S'2.3'
p1704
sg1304
S'.637'
p1705
sg1306
S'24.4'
p1706
sg1308
S'.381'
p1707
sg1310
S'.001'
p1708
sg27
S'NBA'
p1709
sg1313
S'1.8'
p1710
sg1315
S'3.7'
p1711
sg1317
S'3.9'
p1712
sg37
S'37'
p1713
sg39
S'BOS'
p1714
sg41
S'81'
p1715
sg1322
S'2.4'
p1716
sg1324
S'20.6'
p1717
sg1326
S'6.1'
p1718
sg59
S'2441'
p1719
sg1329
S'1.7'
p1720
sg52
S'1990-91'
p1721
sg1331
S'10.0'
p1722
sba(isrc.gp1.models.Advanced
Advanced
p1723
(dp1724
g1290
S'11.1'
p1725
sg1292
S'11.8'
p1726
sg1294
S'.155'
p1727
sg1296
S'1.5'
p1728
sg1298
S'20.8'
p1729
sg1300
S'17.0'
p1730
sg1302
S'0.6'
p1731
sg21
g22
sg1303
S'1.7'
p1732
sg1304
S'.571'
p1733
sg1306
S'22.4'
p1734
sg1308
S'.265'
p1735
sg1310
S'.000'
p1736
sg27
S'NBA'
p1737
sg1313
S'0.3'
p1738
sg1315
S'4.4'
p1739
sg1317
S'3.6'
p1740
sg37
S'38'
p1741
sg39
S'BOS'
p1742
sg41
S'79'
p1743
sg1322
S'2.5'
p1744
sg1324
S'18.9'
p1745
sg1326
S'3.8'
p1746
sg59
S'2285'
p1747
sg1329
S'1.0'
p1748
sg52
S'1991-92'
p1749
sg1331
S'7.4'
p1750
sba(isrc.gp1.models.Advanced
Advanced
p1751
(dp1752
g1290
S'13.1'
p1753
sg1292
S'12.0'
p1754
sg1294
S'.152'
p1755
sg1296
S'1.3'
p1756
sg1298
S'20.2'
p1757
sg1300
S'19.5'
p1758
sg1302
S'0.7'
p1759
sg21
g22
sg1303
S'1.5'
p1760
sg1304
S'.565'
p1761
sg1306
S'25.8'
p1762
sg1308
S'.302'
p1763
sg1310
S'.000'
p1764
sg27
S'NBA'
p1765
sg1313
S'0.0'
p1766
sg1315
S'4.2'
p1767
sg1317
S'3.4'
p1768
sg37
S'39'
p1769
sg39
S'BOS'
p1770
sg41
S'79'
p1771
sg1322
S'3.1'
p1772
sg1324
S'19.2'
p1773
sg1326
S'3.4'
p1774
sg59
S'2146'
p1775
sg1329
S'0.7'
p1776
sg52
S'1992-93'
p1777
sg1331
S'6.8'
p1778
sba(isrc.gp1.models.Advanced
Advanced
p1779
(dp1780
g1290
S'8.0'
p1781
sg1292
S'11.7'
p1782
sg1294
S'.095'
p1783
sg1296
S'1.1'
p1784
sg1298
S'20.2'
p1785
sg1300
S'15.4'
p1786
sg1302
S'0.4'
p1787
sg21
g22
sg1303
S'0.4'
p1788
sg1304
S'.530'
p1789
sg1306
S'22.9'
p1790
sg1308
S'.287'
p1791
sg1310
S'.000'
p1792
sg27
S'NBA'
p1793
sg1313
S'-1.6'
p1794
sg1315
S'6.3'
p1795
sg1317
S'2.1'
p1796
sg37
S'40'
p1797
sg39
S'BOS'
p1798
sg41
S'74'
p1799
sg1322
S'3.0'
p1800
sg1324
S'16.1'
p1801
sg1326
S'1.8'
p1802
sg59
S'1987'
p1803
sg1329
S'-1.2'
p1804
sg52
S'1993-94'
p1805
sg1331
S'4.0'
p1806
sba(isrc.gp1.models.Advanced
Advanced
p1807
(dp1808
g1290
S'8.5'
p1809
sg1292
S'13.7'
p1810
sg1294
S'.051'
p1811
sg1296
S'1.1'
p1812
sg1298
S'16.5'
p1813
sg1300
S'15.3'
p1814
sg1302
S'0.5'
p1815
sg21
g22
sg1303
S'-0.9'
p1816
sg1304
S'.467'
p1817
sg1306
S'21.5'
p1818
sg1308
S'.272'
p1819
sg1310
S'.000'
p1820
sg27
S'NBA'
p1821
sg1313
S'-5.2'
p1822
sg1315
S'5.0'
p1823
sg1317
S'2.0'
p1824
sg37
S'41'
p1825
sg39
S'CHH'
p1826
sg41
S'81'
p1827
sg1322
S'1.9'
p1828
sg1324
S'10.1'
p1829
sg1326
S'-0.6'
p1830
sg59
S'1352'
p1831
sg1329
S'-4.7'
p1832
sg52
S'1994-95'
p1833
sg1331
S'1.4'
p1834
sba(isrc.gp1.models.Advanced
Advanced
p1835
(dp1836
g1290
S'9.7'
p1837
sg1292
S'15.5'
p1838
sg1294
S'.074'
p1839
sg1296
S'1.0'
p1840
sg1298
S'13.4'
p1841
sg1300
S'16.9'
p1842
sg1302
S'0.6'
p1843
sg21
g22
sg1303
S'-0.2'
p1844
sg1304
S'.533'
p1845
sg1306
S'24.4'
p1846
sg1308
S'.295'
p1847
sg1310
S'.000'
p1848
sg27
S'NBA'
p1849
sg1313
S'-3.5'
p1850
sg1315
S'4.0'
p1851
sg1317
S'1.0'
p1852
sg37
S'42'
p1853
sg39
S'CHH'
p1854
sg41
S'74'
p1855
sg1322
S'3.7'
p1856
sg1324
S'13.0'
p1857
sg1326
S'0.7'
p1858
sg59
S'1086'
p1859
sg1329
S'-2.9'
p1860
sg52
S'1995-96'
p1861
sg1331
S'1.7'
p1862
sba(isrc.gp1.models.Advanced
Advanced
p1863
(dp1864
g1290
S'11.9'
p1865
sg1292
S'15.2'
p1866
sg1294
S'.101'
p1867
sg1296
S'0.8'
p1868
sg1298
S'20.3'
p1869
sg1300
S'12.4'
p1870
sg1302
S'0.2'
p1871
sg21
g22
sg1303
S'0.0'
p1872
sg1304
S'.514'
p1873
sg1306
S'12.9'
p1874
sg1308
S'.217'
p1875
sg1310
S'.000'
p1876
sg27
S'NBA'
p1877
sg1313
S'-2.5'
p1878
sg1315
S'8.2'
p1879
sg1317
S'0.6'
p1880
sg37
S'43'
p1881
sg39
S'CHI'
p1882
sg41
S'43'
p1883
sg1322
S'3.5'
p1884
sg1324
S'14.3'
p1885
sg1326
S'0.3'
p1886
sg59
S'406'
p1887
sg1329
S'-2.3'
p1888
sg52
S'1996-97'
p1889
sg1331
S'0.9'
p1890
sbasS'_per36Minutes'
p1891
(lp1892
(isrc.gp1.models.Per36Minutes
Per36Minutes
p1893
(dp1894
g8
S'1.4'
p1895
sg10
S'.503'
p1896
sg12
S'7.5'
p1897
sg14
S'18.1'
p1898
sg16
S'3.1'
p1899
sg18
S'14.9'
p1900
sg20
g3
sg21
g22
sg23
S'1.9'
p1901
sg27
S'NBA'
p1902
sg29
g3
sg30
S'.503'
p1903
sg32
g3
sg33
S'14.1'
p1904
sg35
S'5.8'
p1905
sg37
S'23'
p1906
sg39
S'GSW'
p1907
sg41
S'77'
p1908
sg43
g3
sg44
S'4.4'
p1909
sg46
S'8.9'
p1910
sg48
S'.708'
p1911
sg50
S'2.4'
p1912
sg52
S'1976-77'
p1913
sg54
S'14.9'
p1914
sg56
g3
sg57
S'5.2'
p1915
sg59
S'7.5'
p1916
sg61
S'1384'
p1917
sba(isrc.gp1.models.Per36Minutes
Per36Minutes
p1918
(dp1919
g8
S'1.4'
p1920
sg10
S'.472'
p1921
sg12
S'7.9'
p1922
sg14
S'5.3'
p1923
sg16
S'3.0'
p1924
sg18
S'16.7'
p1925
sg20
g3
sg21
g22
sg23
S'1.7'
p1926
sg27
S'NBA'
p1927
sg29
S'18.7'
p1928
sg30
S'.472'
p1929
sg32
g3
sg33
S'12.4'
p1930
sg35
S'3.7'
p1931
sg37
S'24'
p1932
sg39
S'GSW'
p1933
sg41
S'82'
p1934
sg43
g3
sg44
S'4.8'
p1935
sg46
S'8.6'
p1936
sg48
S'.625'
p1937
sg50
S'2.2'
p1938
sg52
S'1977-78'
p1939
sg54
S'16.7'
p1940
sg56
g3
sg57
S'3.9'
p1941
sg59
S'7.9'
p1942
sg61
S'1969'
p1943
sba(isrc.gp1.models.Per36Minutes
Per36Minutes
p1944
(dp1945
g8
S'1.5'
p1946
sg10
S'.499'
p1947
sg12
S'8.3'
p1948
sg14
S'4.5'
p1949
sg16
S'2.9'
p1950
sg18
S'16.6'
p1951
sg20
g3
sg21
g22
sg23
S'1.7'
p1952
sg27
S'NBA'
p1953
sg29
S'19.5'
p1954
sg30
S'.499'
p1955
sg32
g3
sg33
S'13.7'
p1956
sg35
S'3.5'
p1957
sg37
S'25'
p1958
sg39
S'GSW'
p1959
sg41
S'76'
p1960
sg43
g3
sg44
S'4.2'
p1961
sg46
S'9.7'
p1962
sg48
S'.698'
p1963
sg50
S'3.2'
p1964
sg52
S'1978-79'
p1965
sg54
S'16.6'
p1966
sg56
g3
sg57
S'4.0'
p1967
sg59
S'8.3'
p1968
sg61
S'2411'
p1969
sba(isrc.gp1.models.Per36Minutes
Per36Minutes
p1970
(dp1971
g8
S'9.1'
p1972
sg10
S'.000'
p1973
sg12
S'0.0'
p1974
sg14
S'1.0'
p1975
sg16
S'8.7'
p1976
sg18
S'0.0'
p1977
sg20
g3
sg21
g22
sg23
S'4.2'
p1978
sg27
S'NBA'
p1979
sg29
S'2.0'
p1980
sg30
S'.507'
p1981
sg32
S'20.8'
p1982
sg33
S'.715'
p1983
sg35
S'2.1'
p1984
sg37
S'26'
p1985
sg39
S'GSW'
p1986
sg41
S'72'
p1987
sg43
S'3.8'
p1988
sg44
S'17.1'
p1989
sg46
S'4.8'
p1990
sg48
S'.507'
p1991
sg50
S'13.3'
p1992
sg52
S'1979-80'
p1993
sg54
S'17.1'
p1994
sg56
S'4.2'
p1995
sg57
S'3.4'
p1996
sg59
S'8.7'
p1997
sg61
S'2119'
p1998
sba(isrc.gp1.models.Per36Minutes
Per36Minutes
p1999
(dp2000
g8
S'3.8'
p2001
sg10
S'0.0'
p2002
sg12
S'.545'
p2003
sg14
S'2.3'
p2004
sg16
S'.000'
p2005
sg18
S'0.0'
p2006
sg20
S'24.3'
p2007
sg21
g22
sg23
S'.710'
p2008
sg27
S'NBA'
p2009
sg29
S'1.3'
p2010
sg30
S'18.3'
p2011
sg32
S'4.9'
p2012
sg33
S'6.2'
p2013
sg35
S'12.2'
p2014
sg37
S'27'
p2015
sg39
S'BOS'
p2016
sg41
S'82'
p2017
sg43
S'3.4'
p2018
sg44
S'9.9'
p2019
sg46
S'4.4'
p2020
sg48
S'18.3'
p2021
sg50
S'8.3'
p2022
sg52
S'1980-81'
p2023
sg54
S'9.9'
p2024
sg56
S'3.0'
p2025
sg57
S'.545'
p2026
sg59
S'2298'
p2027
sg61
S'78'
p2028
sba(isrc.gp1.models.Per36Minutes
Per36Minutes
p2029
(dp2030
g8
S'8.2'
p2031
sg10
S'0.0'
p2032
sg12
S'.542'
p2033
sg14
S'1.0'
p2034
sg16
S'9.5'
p2035
sg18
S'0.0'
p2036
sg20
g3
sg21
g22
sg23
S'4.1'
p2037
sg27
S'NBA'
p2038
sg29
S'2.7'
p2039
sg30
S'17.5'
p2040
sg32
S'22.6'
p2041
sg33
S'.710'
p2042
sg35
S'2.0'
p2043
sg37
S'28'
p2044
sg39
S'BOS'
p2045
sg41
S'80'
p2046
sg43
S'3.1'
p2047
sg44
S'17.5'
p2048
sg46
S'5.0'
p2049
sg48
S'.542'
p2050
sg50
S'12.3'
p2051
sg52
S'1981-82'
p2052
sg54
S'9.5'
p2053
sg56
S'3.8'
p2054
sg57
S'3.6'
p2055
sg59
S'2534'
p2056
sg61
S'78'
p2057
sba(isrc.gp1.models.Per36Minutes
Per36Minutes
p2058
(dp2059
g8
S'3.8'
p2060
sg10
S'0.0'
p2061
sg12
S'.550'
p2062
sg14
S'2.1'
p2063
sg16
S'.000'
p2064
sg18
S'0.0'
p2065
sg20
S'22.1'
p2066
sg21
g22
sg23
S'.698'
p2067
sg27
S'NBA'
p2068
sg29
S'1.2'
p2069
sg30
S'16.5'
p2070
sg32
S'3.3'
p2071
sg33
S'5.7'
p2072
sg35
S'12.1'
p2073
sg37
S'29'
p2074
sg39
S'BOS'
p2075
sg41
S'78'
p2076
sg43
S'2.2'
p2077
sg44
S'9.1'
p2078
sg46
S'4.0'
p2079
sg48
S'16.5'
p2080
sg50
S'8.3'
p2081
sg52
S'1982-83'
p2082
sg54
S'9.1'
p2083
sg56
S'2.7'
p2084
sg57
S'.551'
p2085
sg59
S'2459'
p2086
sg61
S'76'
p2087
sba(isrc.gp1.models.Per36Minutes
Per36Minutes
p2088
(dp2089
g8
S'7.7'
p2090
sg10
S'0.0'
p2091
sg12
S'.546'
p2092
sg14
S'0.7'
p2093
sg16
S'7.8'
p2094
sg18
S'0.0'
p2095
sg20
g3
sg21
g22
sg23
S'3.1'
p2096
sg27
S'NBA'
p2097
sg29
S'1.5'
p2098
sg30
S'14.3'
p2099
sg32
S'19.1'
p2100
sg33
S'.745'
p2101
sg35
S'1.7'
p2102
sg37
S'30'
p2103
sg39
S'BOS'
p2104
sg41
S'80'
p2105
sg43
S'2.3'
p2106
sg44
S'14.3'
p2107
sg46
S'4.6'
p2108
sg48
S'.546'
p2109
sg50
S'10.8'
p2110
sg52
S'1983-84'
p2111
sg54
S'7.8'
p2112
sg56
S'3.3'
p2113
sg57
S'3.4'
p2114
sg59
S'2867'
p2115
sg61
S'79'
p2116
sba(isrc.gp1.models.Per36Minutes
Per36Minutes
p2117
(dp2118
g8
S'7.3'
p2119
sg10
S'0.0'
p2120
sg12
S'.542'
p2121
sg14
S'0.7'
p2122
sg16
S'7.0'
p2123
sg18
S'0.0'
p2124
sg20
g3
sg21
g22
sg23
S'3.3'
p2125
sg27
S'NBA'
p2126
sg29
S'1.3'
p2127
sg30
S'12.8'
p2128
sg32
S'17.6'
p2129
sg33
S'.743'
p2130
sg35
S'1.6'
p2131
sg37
S'31'
p2132
sg39
S'BOS'
p2133
sg41
S'79'
p2134
sg43
S'2.3'
p2135
sg44
S'12.8'
p2136
sg46
S'5.0'
p2137
sg48
S'.542'
p2138
sg50
S'10.6'
p2139
sg52
S'1984-85'
p2140
sg54
S'7.0'
p2141
sg56
S'2.8'
p2142
sg57
S'3.7'
p2143
sg59
S'2850'
p2144
sg61
S'78'
p2145
sba(isrc.gp1.models.Per36Minutes
Per36Minutes
p2146
(dp2147
g8
S'7.3'
p2148
sg10
S'0.0'
p2149
sg12
S'.549'
p2150
sg14
S'0.9'
p2151
sg16
S'7.4'
p2152
sg18
S'0.0'
p2153
sg20
g3
sg21
g22
sg23
S'3.4'
p2154
sg27
S'NBA'
p2155
sg29
S'1.6'
p2156
sg30
S'13.5'
p2157
sg32
S'18.3'
p2158
sg33
S'.731'
p2159
sg35
S'2.0'
p2160
sg37
S'32'
p2161
sg39
S'BOS'
p2162
sg41
S'81'
p2163
sg43
S'2.6'
p2164
sg44
S'13.5'
p2165
sg46
S'4.7'
p2166
sg48
S'.549'
p2167
sg50
S'10.8'
p2168
sg52
S'1985-86'
p2169
sg54
S'7.4'
p2170
sg56
S'3.0'
p2171
sg57
S'3.4'
p2172
sg59
S'2567'
p2173
sg61
S'80'
p2174
sba(isrc.gp1.models.Per36Minutes
Per36Minutes
p2175
(dp2176
g8
S'3.1'
p2177
sg10
S'0.0'
p2178
sg12
S'.556'
p2179
sg14
S'2.1'
p2180
sg16
S'.000'
p2181
sg18
S'0.0'
p2182
sg20
S'16.9'
p2183
sg21
g22
sg23
S'.735'
p2184
sg27
S'NBA'
p2185
sg29
S'0.8'
p2186
sg30
S'12.7'
p2187
sg32
S'3.2'
p2188
sg33
S'3.7'
p2189
sg35
S'10.2'
p2190
sg37
S'33'
p2191
sg39
S'BOS'
p2192
sg41
S'80'
p2193
sg43
S'1.7'
p2194
sg44
S'7.1'
p2195
sg46
S'2.7'
p2196
sg48
S'12.7'
p2197
sg50
S'7.2'
p2198
sg52
S'1986-87'
p2199
sg54
S'7.1'
p2200
sg56
S'2.3'
p2201
sg57
S'.557'
p2202
sg59
S'2995'
p2203
sg61
S'80'
p2204
sba(isrc.gp1.models.Per36Minutes
Per36Minutes
p2205
(dp2206
g8
S'2.7'
p2207
sg10
S'0.0'
p2208
sg12
S'.589'
p2209
sg14
S'1.8'
p2210
sg16
S'.000'
p2211
sg18
S'0.0'
p2212
sg20
S'16.5'
p2213
sg21
g22
sg23
S'.734'
p2214
sg27
S'NBA'
p2215
sg29
S'0.9'
p2216
sg30
S'11.7'
p2217
sg32
S'3.1'
p2218
sg33
S'3.8'
p2219
sg35
S'9.8'
p2220
sg37
S'34'
p2221
sg39
S'BOS'
p2222
sg41
S'74'
p2223
sg43
S'1.3'
p2224
sg44
S'6.9'
p2225
sg46
S'2.8'
p2226
sg48
S'11.7'
p2227
sg50
S'7.1'
p2228
sg52
S'1987-88'
p2229
sg54
S'6.9'
p2230
sg56
S'2.4'
p2231
sg57
S'.590'
p2232
sg59
S'2312'
p2233
sg61
S'73'
p2234
sba(isrc.gp1.models.Per36Minutes
Per36Minutes
p2235
(dp2236
g8
S'8.3'
p2237
sg10
S'0.0'
p2238
sg12
S'.570'
p2239
sg14
S'1.0'
p2240
sg16
S'7.6'
p2241
sg18
S'0.0'
p2242
sg20
g3
sg21
g22
sg23
S'4.3'
p2243
sg27
S'NBA'
p2244
sg29
S'1.5'
p2245
sg30
S'13.2'
p2246
sg32
S'18.8'
p2247
sg33
S'.719'
p2248
sg35
S'2.2'
p2249
sg37
S'35'
p2250
sg39
S'BOS'
p2251
sg41
S'80'
p2252
sg43
S'2.5'
p2253
sg44
S'13.2'
p2254
sg46
S'5.2'
p2255
sg48
S'.570'
p2256
sg50
S'12.6'
p2257
sg52
S'1988-89'
p2258
sg54
S'7.6'
p2259
sg56
S'2.6'
p2260
sg57
S'3.7'
p2261
sg59
S'2840'
p2262
sg61
S'80'
p2263
sba(isrc.gp1.models.Per36Minutes
Per36Minutes
p2264
(dp2265
g8
S'8.1'
p2266
sg10
S'0.0'
p2267
sg12
S'.580'
p2268
sg14
S'0.6'
p2269
sg16
S'7.6'
p2270
sg18
S'0.0'
p2271
sg20
g3
sg21
g22
sg23
S'3.9'
p2272
sg27
S'NBA'
p2273
sg29
S'1.0'
p2274
sg30
S'13.1'
p2275
sg32
S'18.7'
p2276
sg33
S'.747'
p2277
sg35
S'1.5'
p2278
sg37
S'36'
p2279
sg39
S'BOS'
p2280
sg41
S'79'
p2281
sg43
S'2.5'
p2282
sg44
S'13.1'
p2283
sg46
S'4.7'
p2284
sg48
S'.580'
p2285
sg50
S'12.0'
p2286
sg52
S'1989-90'
p2287
sg54
S'7.6'
p2288
sg56
S'2.8'
p2289
sg57
S'3.5'
p2290
sg59
S'2396'
p2291
sg61
S'78'
p2292
sba(isrc.gp1.models.Per36Minutes
Per36Minutes
p2293
(dp2294
g8
S'4.0'
p2295
sg10
S'0.0'
p2296
sg12
S'.598'
p2297
sg14
S'1.0'
p2298
sg16
S'.000'
p2299
sg18
S'0.0'
p2300
sg20
S'17.8'
p2301
sg21
g22
sg23
S'.767'
p2302
sg27
S'NBA'
p2303
sg29
S'1.0'
p2304
sg30
S'12.0'
p2305
sg32
S'2.9'
p2306
sg33
S'4.6'
p2307
sg35
S'12.6'
p2308
sg37
S'37'
p2309
sg39
S'BOS'
p2310
sg41
S'81'
p2311
sg43
S'1.5'
p2312
sg44
S'7.2'
p2313
sg46
S'3.5'
p2314
sg48
S'11.9'
p2315
sg50
S'8.6'
p2316
sg52
S'1990-91'
p2317
sg54
S'7.2'
p2318
sg56
S'2.3'
p2319
sg57
S'.599'
p2320
sg59
S'2441'
p2321
sg61
S'81'
p2322
sba(isrc.gp1.models.Per36Minutes
Per36Minutes
p2323
(dp2324
g8
S'7.7'
p2325
sg10
S'0.0'
p2326
sg12
S'.535'
p2327
sg14
S'1.1'
p2328
sg16
S'7.4'
p2329
sg18
S'0.0'
p2330
sg20
g3
sg21
g22
sg23
S'3.5'
p2331
sg27
S'NBA'
p2332
sg29
S'1.5'
p2333
sg30
S'13.8'
p2334
sg32
S'17.6'
p2335
sg33
S'.772'
p2336
sg35
S'1.1'
p2337
sg37
S'38'
p2338
sg39
S'BOS'
p2339
sg41
S'79'
p2340
sg43
S'2.1'
p2341
sg44
S'13.8'
p2342
sg46
S'3.7'
p2343
sg48
S'.535'
p2344
sg50
S'11.1'
p2345
sg52
S'1991-92'
p2346
sg54
S'7.4'
p2347
sg56
S'2.7'
p2348
sg57
S'2.8'
p2349
sg59
S'2285'
p2350
sg61
S'79'
p2351
sba(isrc.gp1.models.Per36Minutes
Per36Minutes
p2352
(dp2353
g8
S'8.3'
p2354
sg10
S'0.0'
p2355
sg12
S'.535'
p2356
sg14
S'1.0'
p2357
sg16
S'7.0'
p2358
sg18
S'0.0'
p2359
sg20
g3
sg21
g22
sg23
S'4.1'
p2360
sg27
S'NBA'
p2361
sg29
S'1.8'
p2362
sg30
S'13.0'
p2363
sg32
S'16.7'
p2364
sg33
S'.689'
p2365
sg35
S'1.0'
p2366
sg37
S'39'
p2367
sg39
S'BOS'
p2368
sg41
S'79'
p2369
sg43
S'2.0'
p2370
sg44
S'13.0'
p2371
sg46
S'3.9'
p2372
sg48
S'.535'
p2373
sg50
S'12.4'
p2374
sg52
S'1992-93'
p2375
sg54
S'7.0'
p2376
sg56
S'3.4'
p2377
sg57
S'2.7'
p2378
sg59
S'2146'
p2379
sg61
S'79'
p2380
sba(isrc.gp1.models.Per36Minutes
Per36Minutes
p2381
(dp2382
g8
S'7.3'
p2383
sg10
S'0.0'
p2384
sg12
S'.491'
p2385
sg14
S'0.8'
p2386
sg16
S'6.4'
p2387
sg18
S'0.0'
p2388
sg20
g3
sg21
g22
sg23
S'2.6'
p2389
sg27
S'NBA'
p2390
sg29
S'1.7'
p2391
sg30
S'13.1'
p2392
sg32
S'15.7'
p2393
sg33
S'.740'
p2394
sg35
S'1.5'
p2395
sg37
S'40'
p2396
sg39
S'BOS'
p2397
sg41
S'74'
p2398
sg43
S'2.0'
p2399
sg44
S'13.1'
p2400
sg46
S'3.8'
p2401
sg48
S'.491'
p2402
sg50
S'9.8'
p2403
sg52
S'1993-94'
p2404
sg54
S'6.4'
p2405
sg56
S'3.4'
p2406
sg57
S'2.8'
p2407
sg59
S'1987'
p2408
sg61
S'74'
p2409
sba(isrc.gp1.models.Per36Minutes
Per36Minutes
p2410
(dp2411
g8
S'6.8'
p2412
sg10
S'0.0'
p2413
sg12
S'.427'
p2414
sg14
S'0.7'
p2415
sg16
S'4.2'
p2416
sg18
S'0.0'
p2417
sg20
g3
sg21
g22
sg23
S'2.5'
p2418
sg27
S'NBA'
p2419
sg29
S'1.0'
p2420
sg30
S'9.9'
p2421
sg32
S'10.4'
p2422
sg33
S'.703'
p2423
sg35
S'1.2'
p2424
sg37
S'41'
p2425
sg39
S'CHH'
p2426
sg41
S'81'
p2427
sg43
S'1.8'
p2428
sg44
S'9.9'
p2429
sg46
S'2.7'
p2430
sg48
S'.427'
p2431
sg50
S'9.3'
p2432
sg52
S'1994-95'
p2433
sg54
S'4.2'
p2434
sg56
S'3.5'
p2435
sg57
S'1.9'
p2436
sg59
S'1352'
p2437
sg61
g571
sba(isrc.gp1.models.Per36Minutes
Per36Minutes
p2438
(dp2439
g8
S'7.1'
p2440
sg10
S'0.0'
p2441
sg12
S'.498'
p2442
sg14
S'0.7'
p2443
sg16
S'4.0'
p2444
sg18
S'0.0'
p2445
sg20
g3
sg21
g22
sg23
S'3.0'
p2446
sg27
S'NBA'
p2447
sg29
S'1.8'
p2448
sg30
S'8.0'
p2449
sg32
S'9.6'
p2450
sg33
S'.704'
p2451
sg35
S'1.0'
p2452
sg37
S'42'
p2453
sg39
S'CHH'
p2454
sg41
S'74'
p2455
sg43
S'1.7'
p2456
sg44
S'8.0'
p2457
sg46
S'2.4'
p2458
sg48
S'.498'
p2459
sg50
S'10.0'
p2460
sg52
S'1995-96'
p2461
sg54
S'4.0'
p2462
sg56
S'2.7'
p2463
sg57
S'1.7'
p2464
sg59
S'1086'
p2465
sg61
S'34'
p2466
sba(isrc.gp1.models.Per36Minutes
Per36Minutes
p2467
(dp2468
g8
S'4.2'
p2469
sg10
S'0.0'
p2470
sg12
S'.490'
p2471
sg14
S'0.5'
p2472
sg16
S'6.2'
p2473
sg18
S'0.0'
p2474
sg20
g3
sg21
g22
sg23
S'3.7'
p2475
sg27
S'NBA'
p2476
sg29
S'1.7'
p2477
sg30
S'12.7'
p2478
sg32
S'14.3'
p2479
sg33
S'.677'
p2480
sg35
S'2.0'
p2481
sg37
S'43'
p2482
sg39
S'CHI'
p2483
sg41
S'43'
p2484
sg43
S'2.5'
p2485
sg44
S'12.7'
p2486
sg46
S'2.7'
p2487
sg48
S'.490'
p2488
sg50
S'7.9'
p2489
sg52
S'1996-97'
p2490
sg54
S'6.2'
p2491
sg56
S'3.5'
p2492
sg57
S'1.9'
p2493
sg59
S'406'
p2494
sg61
g627
sbasS'_fromYear'
p2495
S'1977'
p2496
sS'_url'
p2497
S'http://www.basketball-reference.com/players/p/parisro01.html'
p2498
sS'_perGame'
p2499
(isrc.gp1.models.PerGame
PerGame
p2500
(dp2501
g8
S'1.1'
p2502
sg10
S'0.0'
p2503
sg12
S'.490'
p2504
sS'_effectiveFieldGalPercentage'
p2505
S'0.5'
p2506
sg14
S'0.1'
p2507
sg16
S'1.6'
p2508
sg18
S'0.0'
p2509
sg20
g3
sg21
g22
sg23
S'1.0'
p2510
sg27
S'NBA'
p2511
sg29
S'0.4'
p2512
sg32
S'3.7'
p2513
sS'_fieldGoalsttempted'
p2514
S'3.3'
p2515
sg33
S'.677'
p2516
sg35
S'0.5'
p2517
sg37
S'43'
p2518
sg39
S'CHI'
p2519
sg41
S'43'
p2520
sg43
S'0.7'
p2521
sg44
S'3.3'
p2522
sg46
S'0.7'
p2523
sg48
S'.490'
p2524
sg50
S'2.1'
p2525
sg52
S'1996-97'
p2526
sg54
S'1.6'
p2527
sg56
S'0.9'
p2528
sg57
S'.490'
p2529
sg59
S'9.4'
p2530
sg61
g627
sbsS'_weight'
p2531
S'230'
p2532
sS'_dob'
p2533
S'30-8-1953'
p2534
sS'_salary'
p2535
(lp2536
(isrc.gp1.models.Salary
Salary
p2537
(dp2538
g39
S'Boston Celtics'
p2539
sg27
S'NBA'
p2540
sg2535
S'$700,000'
p2541
sg52
S'1985-86'
p2542
sba(isrc.gp1.models.Salary
Salary
p2543
(dp2544
g39
S'Boston Celtics'
p2545
sg27
S'NBA'
p2546
sg2535
S'$2,038,333'
p2547
sg52
S'1987-88'
p2548
sba(isrc.gp1.models.Salary
Salary
p2549
(dp2550
g39
S'Boston Celtics'
p2551
sg27
S'NBA'
p2552
sg2535
S'$2,038,333'
p2553
sg52
S'1988-89'
p2554
sba(isrc.gp1.models.Salary
Salary
p2555
(dp2556
g39
S'Boston Celtics'
p2557
sg27
S'NBA'
p2558
sg2535
S'$2,500,000'
p2559
sg52
S'1990-91'
p2560
sba(isrc.gp1.models.Salary
Salary
p2561
(dp2562
g39
S'Boston Celtics'
p2563
sg27
S'NBA'
p2564
sg2535
S'$3,000,000'
p2565
sg52
S'1991-92'
p2566
sba(isrc.gp1.models.Salary
Salary
p2567
(dp2568
g39
S'Boston Celtics'
p2569
sg27
S'NBA'
p2570
sg2535
S'$3,513,000'
p2571
sg52
S'1992-93'
p2572
sba(isrc.gp1.models.Salary
Salary
p2573
(dp2574
g39
S'Boston Celtics'
p2575
sg27
S'NBA'
p2576
sg2535
S'$4,000,000'
p2577
sg52
S'1993-94'
p2578
sba(isrc.gp1.models.Salary
Salary
p2579
(dp2580
g39
S'Charlotte Hornets'
p2581
sg27
S'NBA'
p2582
sg2535
S'$1,925,000'
p2583
sg52
S'1994-95'
p2584
sba(isrc.gp1.models.Salary
Salary
p2585
(dp2586
g39
S'Charlotte Hornets'
p2587
sg27
S'NBA'
p2588
sg2535
S'$2,500,000'
p2589
sg52
S'1995-96'
p2590
sba(isrc.gp1.models.Salary
Salary
p2591
(dp2592
g39
S'Chicago Bulls'
p2593
sg27
S'NBA'
p2594
sg2535
S'$1,000,000'
p2595
sg52
S'1996-97'
p2596
sba(isrc.gp1.models.Salary
Salary
p2597
(dp2598
g39
S'Chicago Bulls'
p2599
sg27
S'NBA'
p2600
sg2535
S'$1,150,000'
p2601
sg52
S'1997-98'
p2602
sbasg21
g22
sb.