(isrc.gp1.models.Player
Player
p0
(dp1
S'_experience'
p2
S'NA'
p3
sS'_totals'
p4
(lp5
(isrc.gp1.models.Totals
Totals
p6
(dp7
S'_offensiveRebounds'
p8
S'10'
p9
sS'_threePointsAttempted'
p10
S'.510'
p11
sS'_fieldGoalsPercentage'
p12
S'53'
p13
sS'_assist'
p14
S'126'
p15
sS'_threePointsPercentage'
p16
S'.510'
p17
sS'_threePoints'
p18
S'104'
p19
sS'_points'
p20
g3
sS'_position'
p21
S'SG'
p22
sS'_freeThrowsPercentage'
p23
S'16'
p24
sS'_effectiveFieldGoalPercentage'
p25
S'16'
p26
sS'_league'
p27
S'NBA'
p28
sS'_steals'
p29
g3
sS'_fieldGoalsAttempted'
p30
S'.510'
p31
sS'_personalFouls'
p32
g3
sS'_freeThrowsAttempted'
p33
S'30'
p34
sS'_totalRebounds'
p35
S'31'
p36
sS'_age'
p37
S'21'
p38
sS'_team'
p39
S'GSW'
p40
sS'_games'
p41
S'32'
p42
sS'_blocks'
p43
g3
sS'_twoPoints'
p44
S'20'
p45
sS'_freeThrows'
p46
S'14'
p47
sS'_twoPointsAttempted'
p48
S'31'
p49
sS'_defensiveRebounds'
p50
S'8'
p51
sS'_season'
p52
S'1975-76'
p53
sS'_fieldGoals'
p54
S'104'
p55
sS'_turnOvers'
p56
g3
sS'_twoPointsPercentage'
p57
S'.645'
p58
sS'_minutesPlayed'
p59
S'53'
p60
sS'_gamesStarted'
p61
S'153'
p62
sba(isrc.gp1.models.Totals
Totals
p63
(dp64
g8
S'77'
p65
sg10
S'.447'
p66
sg12
S'406'
p67
sg14
S'1006'
p68
sg16
S'.447'
p69
sg18
S'909'
p70
sg20
g3
sg21
S'SG'
p71
sg23
S'93'
p72
sg25
S'67'
p73
sg27
S'NBA'
p74
sg29
g3
sg30
S'.447'
p75
sg32
g3
sg33
S'154'
p76
sg35
S'163'
p77
sg37
S'22'
p78
sg39
S'NYN'
p79
sg41
S'52'
p80
sg43
g3
sg44
S'194'
p81
sg46
S'87'
p82
sg48
S'282'
p83
sg50
S'26'
p84
sg52
S'1976-77'
p85
sg54
S'909'
p86
sg56
g3
sg57
S'.688'
p87
sg59
S'406'
p88
sg61
S'1481'
p89
sba(isrc.gp1.models.Totals
Totals
p90
(dp91
g8
S'22'
p92
sg10
S'.460'
p93
sg12
S'69'
p94
sg14
S'51'
p95
sg16
S'.460'
p96
sg18
S'150'
p97
sg20
g3
sg21
S'SG'
p98
sg23
S'37'
p99
sg25
S'21'
p100
sg27
S'NBA'
p101
sg29
S'163'
p102
sg30
S'.460'
p103
sg32
g3
sg33
S'50'
p104
sg35
S'43'
p105
sg37
S'23'
p106
sg39
S'NJN'
p107
sg41
S'15'
p108
sg43
g3
sg44
S'25'
p109
sg46
S'29'
p110
sg48
S'29'
p111
sg50
S'13'
p112
sg52
S'1977-78'
p113
sg54
S'150'
p114
sg56
g3
sg57
S'.862'
p115
sg59
S'69'
p116
sg61
S'343'
p117
sba(isrc.gp1.models.Totals
Totals
p118
(dp119
g8
S'5'
p120
sg10
S'.375'
p121
sg12
S'6'
p122
sg14
S'7'
p123
sg16
S'.375'
p124
sg18
S'16'
p125
sg20
g3
sg21
S'SG'
p126
sg23
S'4'
p127
sg25
S'3'
p128
sg27
S'NBA'
p129
sg29
S'18'
p130
sg30
S'.375'
p131
sg32
g3
sg33
g122
sg35
S'2'
p132
sg37
S'24'
p133
sg39
S'DET'
p134
sg41
g127
sg43
g3
sg44
g122
sg46
g128
sg48
g122
sg50
S'0'
p135
sg52
S'1978-79'
p136
sg54
S'16'
p137
sg56
g3
sg57
S'1.000'
p138
sg59
g122
sg61
S'28'
p139
sbasS'_college'
p140
S'Illinois State University'
p141
sS'_toYear'
p142
S'1979'
p143
sS'_height'
p144
S'6-4'
p145
sS'_active'
p146
I00
sS'_shootingHand'
p147
VLeft
p148
sS'_name'
p149
S'Robert Hawkins'
p150
sS'_per100Possessions'
p151
(lp152
(isrc.gp1.models.Per100Possession
Per100Possession
p153
(dp154
g8
S'2.9'
p155
sg10
S'.510'
p156
sg12
S'15.4'
p157
sS'_offensiveRating'
p158
g3
sg14
S'36.5'
p159
sg16
S'5.8'
p160
sg18
S'30.1'
p161
sg20
g3
sg21
S'SG'
p162
sS'_defensiveRating'
p163
g3
sg23
S'4.6'
p164
sg27
S'NBA'
p165
sg29
S'93'
p166
sg30
S'.510'
p167
sg32
g3
sg33
S'8.7'
p168
sg35
S'9.0'
p169
sg37
S'21'
p170
sg39
S'GSW'
p171
sg41
S'32'
p172
sg43
g3
sg44
S'9.0'
p173
sg46
S'4.1'
p174
sg48
S'.645'
p175
sg50
S'2.3'
p176
sg52
S'1975-76'
p177
sg54
S'30.1'
p178
sg56
g3
sg57
S'4.6'
p179
sg59
S'15.4'
p180
sg61
S'153'
p181
sba(isrc.gp1.models.Per100Possession
Per100Possession
p182
(dp183
g8
S'2.4'
p184
sg10
S'.447'
p185
sg12
S'12.7'
p186
sg158
g3
sg14
S'31.4'
p187
sg16
S'6.1'
p188
sg18
S'28.4'
p189
sg20
g3
sg21
S'SG'
p190
sg163
g3
sg23
S'2.9'
p191
sg27
S'NBA'
p192
sg29
S'100'
p193
sg30
S'.447'
p194
sg32
g3
sg33
S'4.8'
p195
sg35
S'5.1'
p196
sg37
S'22'
p197
sg39
S'NYN'
p198
sg41
S'52'
p199
sg43
g3
sg44
S'8.8'
p200
sg46
S'2.7'
p201
sg48
S'.688'
p202
sg50
S'0.8'
p203
sg52
S'1976-77'
p204
sg54
S'28.4'
p205
sg56
g3
sg57
S'2.1'
p206
sg59
S'12.7'
p207
sg61
S'1481'
p208
sba(isrc.gp1.models.Per100Possession
Per100Possession
p209
(dp210
g8
S'2.8'
p211
sg10
S'.460'
p212
sg12
S'8.7'
p213
sg158
g3
sg14
S'6.4'
p214
sg16
S'3.2'
p215
sg18
S'18.9'
p216
sg20
g3
sg21
S'SG'
p217
sg163
g3
sg23
S'4.7'
p218
sg27
S'NBA'
p219
sg29
S'20.6'
p220
sg30
S'.460'
p221
sg32
g3
sg33
S'6.3'
p222
sg35
S'5.4'
p223
sg37
S'23'
p224
sg39
S'NJN'
p225
sg41
S'15'
p226
sg43
S'91'
p227
sg44
S'3.7'
p228
sg46
S'3.7'
p229
sg48
S'.862'
p230
sg50
S'1.6'
p231
sg52
S'1977-78'
p232
sg54
S'18.9'
p233
sg56
S'100'
p234
sg57
S'2.6'
p235
sg59
S'8.7'
p236
sg61
S'343'
p237
sba(isrc.gp1.models.Per100Possession
Per100Possession
p238
(dp239
g8
S'8.0'
p240
sg10
S'.375'
p241
sg12
S'9.6'
p242
sg158
g3
sg14
S'11.2'
p243
sg16
S'9.6'
p244
sg18
S'25.6'
p245
sg20
g3
sg21
S'SG'
p246
sg163
g3
sg23
S'6.4'
p247
sg27
S'NBA'
p248
sg29
S'28.8'
p249
sg30
S'.375'
p250
sg32
g3
sg33
S'9.6'
p251
sg35
S'3.2'
p252
sg37
S'24'
p253
sg39
S'DET'
p254
sg41
g127
sg43
S'109'
p255
sg44
S'9.6'
p256
sg46
S'4.8'
p257
sg48
S'1.000'
p258
sg50
S'0.0'
p259
sg52
S'1978-79'
p260
sg54
S'25.6'
p261
sg56
S'94'
p262
sg57
S'4.8'
p263
sg59
S'9.6'
p264
sg61
S'28'
p265
sbasS'_advanced'
p266
(lp267
(isrc.gp1.models.Advanced
Advanced
p268
(dp269
S'_offensiveReboundPercentage'
p270
S'8.6'
p271
sS'_turnOverPercentage'
p272
S'0.3'
p273
sS'_winSharesPer48Minutes'
p274
S'5.2'
p275
sS'_stealPercentage'
p276
S'2.7'
p277
sS'_usagePercentage'
p278
S'0.6'
p279
sS'_totalReboundsPercentage'
p280
S'17.9'
p281
sS'_defensiveBoxPlusMinus'
p282
g3
sg21
S'SG'
p283
sS'_valueOverReplacementPlayer'
p284
g3
sS'_trueShootingPercentage'
p285
S'.536'
p286
sS'_defensiveReboundPercentage'
p287
S'9.4'
p288
sS'_freeThrowsAttempRate'
p289
S'10.2'
p290
sS'_threePointsAttempRate'
p291
S'.298'
p292
sg27
S'NBA'
p293
sS'_offensiveBoxPlusMinues'
p294
S'0.3'
p295
sS'_assistPercentage'
p296
S'2.9'
p297
sS'_defensiveWinShares'
p298
S'5.9'
p299
sg37
S'21'
p300
sg39
S'GSW'
p301
sg41
S'32'
p302
sS'_blockPercentage'
p303
S'0.4'
p304
sS'_playerEfficiencyRating'
p305
S'25.0'
p306
sS'_offensiveWinShares'
p307
S'.196'
p308
sg59
S'153'
p309
sS'_boxPlusMinus'
p310
g3
sg52
S'1975-76'
p311
sS'_winShares'
p312
S'-0.7'
p313
sba(isrc.gp1.models.Advanced
Advanced
p314
(dp315
g270
S'6.3'
p316
sg272
S'1.4'
p317
sg274
S'-0.8'
p318
sg276
S'1.0'
p319
sg278
S'1.9'
p320
sg280
S'12.3'
p321
sg282
g3
sg21
S'SG'
p322
sg284
g3
sg285
S'.487'
p323
sg287
S'5.3'
p324
sg289
S'4.4'
p325
sg291
S'.310'
p326
sg27
S'NBA'
p327
sg294
S'0.5'
p328
sg296
S'2.4'
p329
sg298
S'1.4'
p330
sg37
S'22'
p331
sg39
S'NYN'
p332
sg41
S'52'
p333
sg303
S'0.5'
p334
sg305
S'18.2'
p335
sg307
S'.063'
p336
sg59
S'1481'
p337
sg310
g3
sg52
S'1976-77'
p338
sg312
S'-2.2'
p339
sba(isrc.gp1.models.Advanced
Advanced
p340
(dp341
g270
S'8.6'
p342
sg272
S'22.1'
p343
sg274
S'-1.5'
p344
sg276
S'2.0'
p345
sg278
S'-0.1'
p346
sg280
S'15.6'
p347
sg282
S'-0.5'
p348
sg21
S'SG'
p349
sg284
g3
sg285
S'.501'
p350
sg287
S'7.1'
p351
sg289
S'5.7'
p352
sg291
S'.193'
p353
sg27
S'NBA'
p354
sg294
S'1.0'
p355
sg296
S'2.8'
p356
sg298
S'0.3'
p357
sg37
S'23'
p358
sg39
S'NJN'
p359
sg41
S'15'
p360
sg303
S'20.9'
p361
sg305
S'13.3'
p362
sg307
S'0.4'
p363
sg59
S'343'
p364
sg310
S'0.1'
p365
sg52
S'1977-78'
p366
sg312
S'.042'
p367
sba(isrc.gp1.models.Advanced
Advanced
p368
(dp369
g270
S'11.5'
p370
sg272
S'28.1'
p371
sg274
S'4.0'
p372
sg276
S'0.0'
p373
sg278
S'0.1'
p374
sg280
S'19.8'
p375
sg282
S'7.3'
p376
sg21
S'SG'
p377
sg284
g3
sg285
S'.483'
p378
sg287
S'11.1'
p379
sg289
S'10.8'
p380
sg291
S'.375'
p381
sg27
S'NBA'
p382
sg294
S'3.3'
p383
sg296
S'8.0'
p384
sg298
S'0.1'
p385
sg37
S'24'
p386
sg39
S'DET'
p387
sg41
g127
sg303
S'9.7'
p388
sg305
S'23.8'
p389
sg307
S'0.1'
p390
sg59
S'28'
p391
sg310
S'0.1'
p392
sg52
S'1978-79'
p393
sg312
S'.221'
p394
sbasS'_per36Minutes'
p395
(lp396
(isrc.gp1.models.Per36Minutes
Per36Minutes
p397
(dp398
g8
S'2.4'
p399
sg10
S'.510'
p400
sg12
S'12.5'
p401
sg14
S'29.6'
p402
sg16
S'4.7'
p403
sg18
S'24.5'
p404
sg20
g3
sg21
S'SG'
p405
sg23
S'3.8'
p406
sg27
S'NBA'
p407
sg29
g3
sg30
S'.510'
p408
sg32
g3
sg33
S'7.1'
p409
sg35
S'7.3'
p410
sg37
S'21'
p411
sg39
S'GSW'
p412
sg41
S'32'
p413
sg43
g3
sg44
S'7.3'
p414
sg46
S'3.3'
p415
sg48
S'.645'
p416
sg50
S'1.9'
p417
sg52
S'1975-76'
p418
sg54
S'24.5'
p419
sg56
g3
sg57
S'3.8'
p420
sg59
S'12.5'
p421
sg61
S'153'
p422
sba(isrc.gp1.models.Per36Minutes
Per36Minutes
p423
(dp424
g8
S'1.9'
p425
sg10
S'.447'
p426
sg12
S'9.9'
p427
sg14
S'24.5'
p428
sg16
S'4.7'
p429
sg18
S'22.1'
p430
sg20
g3
sg21
S'SG'
p431
sg23
S'2.3'
p432
sg27
S'NBA'
p433
sg29
g3
sg30
S'.447'
p434
sg32
g3
sg33
S'3.7'
p435
sg35
S'4.0'
p436
sg37
S'22'
p437
sg39
S'NYN'
p438
sg41
S'52'
p439
sg43
g3
sg44
S'6.9'
p440
sg46
S'2.1'
p441
sg48
S'.688'
p442
sg50
S'0.6'
p443
sg52
S'1976-77'
p444
sg54
S'22.1'
p445
sg56
g3
sg57
S'1.6'
p446
sg59
S'9.9'
p447
sg61
S'1481'
p448
sba(isrc.gp1.models.Per36Minutes
Per36Minutes
p449
(dp450
g8
S'2.3'
p451
sg10
S'.460'
p452
sg12
S'7.2'
p453
sg14
S'5.4'
p454
sg16
S'2.6'
p455
sg18
S'15.7'
p456
sg20
g3
sg21
S'SG'
p457
sg23
S'3.9'
p458
sg27
S'NBA'
p459
sg29
S'17.1'
p460
sg30
S'.460'
p461
sg32
g3
sg33
S'5.2'
p462
sg35
S'4.5'
p463
sg37
S'23'
p464
sg39
S'NJN'
p465
sg41
S'15'
p466
sg43
g3
sg44
S'3.0'
p467
sg46
S'3.0'
p468
sg48
S'.862'
p469
sg50
S'1.4'
p470
sg52
S'1977-78'
p471
sg54
S'15.7'
p472
sg56
g3
sg57
S'2.2'
p473
sg59
S'7.2'
p474
sg61
S'343'
p475
sba(isrc.gp1.models.Per36Minutes
Per36Minutes
p476
(dp477
g8
S'6.4'
p478
sg10
S'.375'
p479
sg12
S'7.7'
p480
sg14
S'9.0'
p481
sg16
S'7.7'
p482
sg18
S'20.6'
p483
sg20
g3
sg21
S'SG'
p484
sg23
S'5.1'
p485
sg27
S'NBA'
p486
sg29
S'23.1'
p487
sg30
S'.375'
p488
sg32
g3
sg33
S'7.7'
p489
sg35
S'2.6'
p490
sg37
S'24'
p491
sg39
S'DET'
p492
sg41
g127
sg43
g3
sg44
S'7.7'
p493
sg46
S'3.9'
p494
sg48
S'1.000'
p495
sg50
S'0.0'
p496
sg52
S'1978-79'
p497
sg54
S'20.6'
p498
sg56
g3
sg57
S'3.9'
p499
sg59
S'7.7'
p500
sg61
S'28'
p501
sbasS'_fromYear'
p502
S'1976'
p503
sS'_url'
p504
S'http://www.basketball-reference.com/players/h/hawkiro01.html'
p505
sS'_perGame'
p506
(isrc.gp1.models.PerGame
PerGame
p507
(dp508
g8
S'1.3'
p509
sg10
S'.375'
p510
sg12
S'1.5'
p511
sS'_effectiveFieldGalPercentage'
p512
S'0.8'
p513
sg14
S'1.8'
p514
sg16
S'.375'
p515
sg18
S'4.0'
p516
sg20
g3
sg21
S'SG'
p517
sg23
S'1.0'
p518
sg27
S'NBA'
p519
sg29
S'4.5'
p520
sg32
g3
sS'_fieldGoalsttempted'
p521
S'.375'
p522
sg33
S'1.5'
p523
sg35
S'0.5'
p524
sg37
S'24'
p525
sg39
S'DET'
p526
sg41
g127
sg43
g3
sg44
S'1.5'
p527
sg46
S'0.8'
p528
sg48
S'1.5'
p529
sg50
S'0.0'
p530
sg52
S'1978-79'
p531
sg54
S'4.0'
p532
sg56
g3
sg57
S'1.000'
p533
sg59
S'1.5'
p534
sg61
S'7.0'
p535
sbsS'_weight'
p536
S'190'
p537
sS'_dob'
p538
S'30-6-1954'
p539
sS'_salary'
p540
(lp541
sg21
S'G'
p542
sb.