(isrc.gp1.models.Player
Player
p0
(dp1
S'_experience'
p2
S'NA'
p3
sS'_totals'
p4
(lp5
(isrc.gp1.models.Totals
Totals
p6
(dp7
S'_offensiveRebounds'
p8
S'128'
p9
sS'_threePointsAttempted'
p10
g3
sS'_fieldGoalsPercentage'
p11
S'.459'
p12
sS'_assist'
p13
S'60'
p14
sS'_threePointsPercentage'
p15
g3
sS'_threePoints'
p16
g3
sS'_points'
p17
S'603'
p18
sS'_position'
p19
S'PF'
p20
sS'_freeThrowsPercentage'
p21
S'.732'
p22
sS'_effectiveFieldGoalPercentage'
p23
S'.459'
p24
sS'_league'
p25
S'NBA'
p26
sS'_steals'
p27
S'80'
p28
sS'_fieldGoalsAttempted'
p29
S'499'
p30
sS'_personalFouls'
p31
S'290'
p32
sS'_freeThrowsAttempted'
p33
S'198'
p34
sS'_totalRebounds'
p35
S'355'
p36
sS'_age'
p37
S'23'
p38
sS'_team'
p39
S'KCK'
p40
sS'_games'
p41
S'75'
p42
sS'_blocks'
p43
S'8'
p44
sS'_twoPoints'
p45
S'229'
p46
sS'_freeThrows'
p47
S'145'
p48
sS'_twoPointsAttempted'
p49
S'499'
p50
sS'_defensiveRebounds'
p51
S'227'
p52
sS'_season'
p53
S'1975-76'
p54
sS'_fieldGoals'
p55
S'229'
p56
sS'_turnOvers'
p57
g3
sS'_twoPointsPercentage'
p58
S'.459'
p59
sS'_minutesPlayed'
p60
S'1327'
p61
sS'_gamesStarted'
p62
g3
sba(isrc.gp1.models.Totals
Totals
p63
(dp64
g8
S'164'
p65
sg10
g3
sg11
S'.453'
p66
sg13
S'95'
p67
sg15
g3
sg16
g3
sg17
S'773'
p68
sg19
S'PF'
p69
sg21
S'.736'
p70
sg23
S'.453'
p71
sg25
S'NBA'
p72
sg27
S'86'
p73
sg29
S'677'
p74
sg31
S'283'
p75
sg33
S'216'
p76
sg35
S'474'
p77
sg37
S'24'
p78
sg39
S'KCK'
p79
sg41
S'75'
p80
sg43
S'13'
p81
sg45
S'307'
p82
sg47
S'159'
p83
sg49
S'677'
p84
sg51
S'310'
p85
sg53
S'1976-77'
p86
sg55
S'307'
p87
sg57
g3
sg58
S'.453'
p88
sg60
S'1594'
p89
sg62
g3
sba(isrc.gp1.models.Totals
Totals
p90
(dp91
g8
S'173'
p92
sg10
g3
sg11
S'.451'
p93
sg13
S'72'
p94
sg15
g3
sg16
g3
sg17
S'816'
p95
sg19
S'PF'
p96
sg21
S'.760'
p97
sg23
S'.451'
p98
sg25
S'NBA'
p99
sg27
S'74'
p100
sg29
S'677'
p101
sg31
S'281'
p102
sg33
S'271'
p103
sg35
S'539'
p104
sg37
S'25'
p105
sg39
S'KCK'
p106
sg41
S'82'
p107
sg43
S'11'
p108
sg45
S'305'
p109
sg47
S'206'
p110
sg49
S'677'
p111
sg51
S'366'
p112
sg53
S'1977-78'
p113
sg55
S'305'
p114
sg57
S'172'
p115
sg58
S'.451'
p116
sg60
S'1748'
p117
sg62
g3
sba(isrc.gp1.models.Totals
Totals
p118
(dp119
g8
S'218'
p120
sg10
g3
sg11
S'.548'
p121
sg13
S'104'
p122
sg15
g3
sg16
g3
sg17
S'1098'
p123
sg19
S'PF'
p124
sg21
S'.732'
p125
sg23
S'.548'
p126
sg25
S'NBA'
p127
sg27
S'105'
p128
sg29
S'837'
p129
sg31
S'367'
p130
sg33
S'246'
p131
sg35
S'638'
p132
sg37
S'26'
p133
sg39
S'KCK'
p134
sg41
S'82'
p135
sg43
S'15'
p136
sg45
S'459'
p137
sg47
S'180'
p138
sg49
S'837'
p139
sg51
S'420'
p140
sg53
S'1978-79'
p141
sg55
S'459'
p142
sg57
S'179'
p143
sg58
S'.548'
p144
sg60
S'2179'
p145
sg62
g3
sba(isrc.gp1.models.Totals
Totals
p146
(dp147
g8
S'184'
p148
sg10
S'2'
p149
sg11
S'.501'
p150
sg13
S'62'
p151
sg15
S'.500'
p152
sg16
S'1'
p153
sg17
S'925'
p154
sg19
S'PF'
p155
sg21
S'.730'
p156
sg23
S'.501'
p157
sg25
S'NBA'
p158
sg27
S'106'
p159
sg29
S'723'
p160
sg31
S'311'
p161
sg33
S'274'
p162
sg35
S'526'
p163
sg37
S'27'
p164
sg39
S'KCK'
p165
sg41
S'81'
p166
sg43
S'23'
p167
sg45
S'361'
p168
sg47
S'200'
p169
sg49
S'721'
p170
sg51
S'342'
p171
sg53
S'1979-80'
p172
sg55
S'362'
p173
sg57
S'148'
p174
sg58
S'.501'
p175
sg60
S'1917'
p176
sg62
g3
sba(isrc.gp1.models.Totals
Totals
p177
(dp178
g8
S'168'
p179
sg10
S'6'
p180
sg11
S'.475'
p181
sg13
S'118'
p182
sg15
S'.167'
p183
sg16
g153
sg17
S'1003'
p184
sg19
S'PF'
p185
sg21
S'.776'
p186
sg23
S'.475'
p187
sg25
S'NBA'
p188
sg27
S'75'
p189
sg29
S'826'
p190
sg31
S'275'
p191
sg33
S'281'
p192
sg35
S'533'
p193
sg37
S'28'
p194
sg39
S'TOT'
p195
sg41
S'78'
p196
sg43
S'9'
p197
sg45
S'391'
p198
sg47
S'218'
p199
sg49
S'820'
p200
sg51
S'365'
p201
sg53
S'1980-81'
p202
sg55
S'392'
p203
sg57
S'187'
p204
sg58
S'.477'
p205
sg60
S'2016'
p206
sg62
g3
sba(isrc.gp1.models.Totals
Totals
p207
(dp208
g8
S'4'
p209
sg10
S'0'
p210
sg11
S'.438'
p211
sg13
S'5'
p212
sg15
g3
sg16
g210
sg17
S'33'
p213
sg19
S'PF'
p214
sg21
S'.625'
p215
sg23
S'.438'
p216
sg25
S'NBA'
p217
sg27
g209
sg29
S'32'
p218
sg31
S'19'
p219
sg33
g44
sg35
S'13'
p220
sg37
S'28'
p221
sg39
S'CLE'
p222
sg41
g44
sg43
g210
sg45
S'14'
p223
sg47
g212
sg49
S'32'
p224
sg51
g197
sg53
S'1980-81'
p225
sg55
S'14'
p226
sg57
S'10'
p227
sg58
S'.438'
p228
sg60
S'84'
p229
sg62
g3
sba(isrc.gp1.models.Totals
Totals
p230
(dp231
g8
S'164'
p232
sg10
g180
sg11
S'.476'
p233
sg13
S'113'
p234
sg15
S'.167'
p235
sg16
g153
sg17
S'970'
p236
sg19
S'PF'
p237
sg21
S'.780'
p238
sg23
S'.477'
p239
sg25
S'NBA'
p240
sg27
S'71'
p241
sg29
S'794'
p242
sg31
S'256'
p243
sg33
S'273'
p244
sg35
S'520'
p245
sg37
S'28'
p246
sg39
S'DAL'
p247
sg41
S'70'
p248
sg43
g197
sg45
S'377'
p249
sg47
S'213'
p250
sg49
S'788'
p251
sg51
S'356'
p252
sg53
S'1980-81'
p253
sg55
S'378'
p254
sg57
S'177'
p255
sg58
S'.478'
p256
sg60
S'1932'
p257
sg62
g3
sba(isrc.gp1.models.Totals
Totals
p258
(dp259
g8
S'56'
p260
sg10
g210
sg11
S'.446'
p261
sg13
S'49'
p262
sg15
g3
sg16
g210
sg17
S'323'
p263
sg19
S'PF'
p264
sg21
S'.813'
p265
sg23
S'.446'
p266
sg25
S'NBA'
p267
sg27
S'37'
p268
sg29
S'294'
p269
sg31
S'156'
p270
sg33
S'75'
p271
sg35
S'144'
p272
sg37
S'29'
p273
sg39
S'UTA'
p274
sg41
S'56'
p275
sg43
g212
sg45
S'131'
p276
sg47
S'61'
p277
sg49
S'294'
p278
sg51
S'88'
p279
sg53
S'1981-82'
p280
sg55
S'131'
p281
sg57
S'83'
p282
sg58
S'.446'
p283
sg60
S'651'
p284
sg62
g197
sbasS'_college'
p285
S'DePaul University'
p286
sS'_toYear'
p287
S'1982'
p288
sS'_height'
p289
S'6-7'
p290
sS'_active'
p291
I00
sS'_shootingHand'
p292
VRight
p293
sS'_name'
p294
S'Bill Robinzine'
p295
sS'_per100Possessions'
p296
(lp297
(isrc.gp1.models.Per100Possession
Per100Possession
p298
(dp299
g8
S'4.4'
p300
sg10
g3
sg11
S'.459'
p301
sS'_offensiveRating'
p302
g3
sg13
S'2.1'
p303
sg15
g3
sg16
g3
sg17
S'20.6'
p304
sg19
S'PF'
p305
sS'_defensiveRating'
p306
S'97'
p307
sg21
S'.732'
p308
sg25
S'NBA'
p309
sg27
S'2.7'
p310
sg29
S'17.1'
p311
sg31
S'9.9'
p312
sg33
S'6.8'
p313
sg35
S'12.1'
p314
sg37
S'23'
p315
sg39
S'KCK'
p316
sg41
S'75'
p317
sg43
S'0.3'
p318
sg45
S'7.8'
p319
sg47
S'5.0'
p320
sg49
S'17.1'
p321
sg51
S'7.8'
p322
sg53
S'1975-76'
p323
sg55
S'7.8'
p324
sg57
g3
sg58
S'.459'
p325
sg60
S'1327'
p326
sg62
g3
sba(isrc.gp1.models.Per100Possession
Per100Possession
p327
(dp328
g8
S'4.6'
p329
sg10
g3
sg11
S'.453'
p330
sg302
g3
sg13
S'2.7'
p331
sg15
g3
sg16
g3
sg17
S'21.9'
p332
sg19
S'PF'
p333
sg306
S'97'
p334
sg21
S'.736'
p335
sg25
S'NBA'
p336
sg27
S'2.4'
p337
sg29
S'19.2'
p338
sg31
S'8.0'
p339
sg33
S'6.1'
p340
sg35
S'13.4'
p341
sg37
S'24'
p342
sg39
S'KCK'
p343
sg41
S'75'
p344
sg43
S'0.4'
p345
sg45
S'8.7'
p346
sg47
S'4.5'
p347
sg49
S'19.2'
p348
sg51
S'8.8'
p349
sg53
S'1976-77'
p350
sg55
S'8.7'
p351
sg57
g3
sg58
S'.453'
p352
sg60
S'1594'
p353
sg62
g3
sba(isrc.gp1.models.Per100Possession
Per100Possession
p354
(dp355
g8
S'4.4'
p356
sg10
g3
sg11
S'.451'
p357
sg302
S'97'
p358
sg13
S'1.8'
p359
sg15
g3
sg16
g3
sg17
S'20.7'
p360
sg19
S'PF'
p361
sg306
S'100'
p362
sg21
S'.760'
p363
sg25
S'NBA'
p364
sg27
S'1.9'
p365
sg29
S'17.2'
p366
sg31
S'7.1'
p367
sg33
S'6.9'
p368
sg35
S'13.7'
p369
sg37
S'25'
p370
sg39
S'KCK'
p371
sg41
S'82'
p372
sg43
S'0.3'
p373
sg45
S'7.7'
p374
sg47
S'5.2'
p375
sg49
S'17.2'
p376
sg51
S'9.3'
p377
sg53
S'1977-78'
p378
sg55
S'7.7'
p379
sg57
S'4.4'
p380
sg58
S'.451'
p381
sg60
S'1748'
p382
sg62
g3
sba(isrc.gp1.models.Per100Possession
Per100Possession
p383
(dp384
g8
S'4.5'
p385
sg10
g3
sg11
S'.548'
p386
sg302
S'108'
p387
sg13
S'2.1'
p388
sg15
g3
sg16
g3
sg17
S'22.5'
p389
sg19
S'PF'
p390
sg306
S'99'
p391
sg21
S'.732'
p392
sg25
S'NBA'
p393
sg27
S'2.2'
p394
sg29
S'17.2'
p395
sg31
S'7.5'
p396
sg33
S'5.1'
p397
sg35
S'13.1'
p398
sg37
S'26'
p399
sg39
S'KCK'
p400
sg41
S'82'
p401
sg43
S'0.3'
p402
sg45
S'9.4'
p403
sg47
S'3.7'
p404
sg49
S'17.2'
p405
sg51
S'8.6'
p406
sg53
S'1978-79'
p407
sg55
S'9.4'
p408
sg57
S'3.7'
p409
sg58
S'.548'
p410
sg60
S'2179'
p411
sg62
g3
sba(isrc.gp1.models.Per100Possession
Per100Possession
p412
(dp413
g8
S'4.5'
p414
sg10
S'0.0'
p415
sg11
S'.501'
p416
sg302
S'105'
p417
sg13
S'1.5'
p418
sg15
S'.500'
p419
sg16
S'0.0'
p420
sg17
S'22.4'
p421
sg19
S'PF'
p422
sg306
S'98'
p423
sg21
S'.730'
p424
sg25
S'NBA'
p425
sg27
S'2.6'
p426
sg29
S'17.5'
p427
sg31
S'7.5'
p428
sg33
S'6.6'
p429
sg35
S'12.8'
p430
sg37
S'27'
p431
sg39
S'KCK'
p432
sg41
S'81'
p433
sg43
S'0.6'
p434
sg45
S'8.8'
p435
sg47
S'4.9'
p436
sg49
S'17.5'
p437
sg51
S'8.3'
p438
sg53
S'1979-80'
p439
sg55
S'8.8'
p440
sg57
S'3.6'
p441
sg58
S'.501'
p442
sg60
S'1917'
p443
sg62
g3
sba(isrc.gp1.models.Per100Possession
Per100Possession
p444
(dp445
g8
S'4.1'
p446
sg10
S'0.1'
p447
sg11
S'.475'
p448
sg302
S'100'
p449
sg13
S'2.8'
p450
sg15
S'.167'
p451
sg16
S'0.0'
p452
sg17
S'24.2'
p453
sg19
S'PF'
p454
sg306
S'108'
p455
sg21
S'.776'
p456
sg25
S'NBA'
p457
sg27
S'1.8'
p458
sg29
S'19.9'
p459
sg31
S'6.6'
p460
sg33
S'6.8'
p461
sg35
S'12.9'
p462
sg37
S'28'
p463
sg39
S'TOT'
p464
sg41
S'78'
p465
sg43
S'0.2'
p466
sg45
S'9.4'
p467
sg47
S'5.3'
p468
sg49
S'19.8'
p469
sg51
S'8.8'
p470
sg53
S'1980-81'
p471
sg55
S'9.5'
p472
sg57
S'4.5'
p473
sg58
S'.477'
p474
sg60
S'2016'
p475
sg62
g3
sba(isrc.gp1.models.Per100Possession
Per100Possession
p476
(dp477
g8
S'2.3'
p478
sg10
S'0.0'
p479
sg11
S'.438'
p480
sg302
S'83'
p481
sg13
S'2.8'
p482
sg15
g3
sg16
S'0.0'
p483
sg17
S'18.7'
p484
sg19
S'PF'
p485
sg306
S'108'
p486
sg21
S'.625'
p487
sg25
S'NBA'
p488
sg27
S'2.3'
p489
sg29
S'18.1'
p490
sg31
S'10.8'
p491
sg33
S'4.5'
p492
sg35
S'7.4'
p493
sg37
S'28'
p494
sg39
S'CLE'
p495
sg41
g44
sg43
S'0.0'
p496
sg45
S'7.9'
p497
sg47
S'2.8'
p498
sg49
S'18.1'
p499
sg51
S'5.1'
p500
sg53
S'1980-81'
p501
sg55
S'7.9'
p502
sg57
S'5.7'
p503
sg58
S'.438'
p504
sg60
S'84'
p505
sg62
g3
sba(isrc.gp1.models.Per100Possession
Per100Possession
p506
(dp507
g8
S'4.1'
p508
sg10
S'0.2'
p509
sg11
S'.476'
p510
sg302
S'100'
p511
sg13
S'2.8'
p512
sg15
S'.167'
p513
sg16
S'0.0'
p514
sg17
S'24.4'
p515
sg19
S'PF'
p516
sg306
S'108'
p517
sg21
S'.780'
p518
sg25
S'NBA'
p519
sg27
S'1.8'
p520
sg29
S'20.0'
p521
sg31
S'6.4'
p522
sg33
S'6.9'
p523
sg35
S'13.1'
p524
sg37
S'28'
p525
sg39
S'DAL'
p526
sg41
S'70'
p527
sg43
S'0.2'
p528
sg45
S'9.5'
p529
sg47
S'5.4'
p530
sg49
S'19.8'
p531
sg51
S'9.0'
p532
sg53
S'1980-81'
p533
sg55
S'9.5'
p534
sg57
S'4.5'
p535
sg58
S'.478'
p536
sg60
S'1932'
p537
sg62
g3
sba(isrc.gp1.models.Per100Possession
Per100Possession
p538
(dp539
g8
S'4.0'
p540
sg10
S'0.0'
p541
sg11
S'.446'
p542
sg302
S'92'
p543
sg13
S'3.5'
p544
sg15
g3
sg16
S'0.0'
p545
sg17
S'22.9'
p546
sg19
S'PF'
p547
sg306
S'109'
p548
sg21
S'.813'
p549
sg25
S'NBA'
p550
sg27
S'2.6'
p551
sg29
S'20.9'
p552
sg31
S'11.1'
p553
sg33
S'5.3'
p554
sg35
S'10.2'
p555
sg37
S'29'
p556
sg39
S'UTA'
p557
sg41
S'56'
p558
sg43
S'0.4'
p559
sg45
S'9.3'
p560
sg47
S'4.3'
p561
sg49
S'20.9'
p562
sg51
S'6.2'
p563
sg53
S'1981-82'
p564
sg55
S'9.3'
p565
sg57
S'5.9'
p566
sg58
S'.446'
p567
sg60
S'651'
p568
sg62
g197
sbasS'_advanced'
p569
(lp570
(isrc.gp1.models.Advanced
Advanced
p571
(dp572
S'_offensiveReboundPercentage'
p573
S'9.7'
p574
sS'_turnOverPercentage'
p575
g3
sS'_winSharesPer48Minutes'
p576
S'.087'
p577
sS'_stealPercentage'
p578
S'2.7'
p579
sS'_usagePercentage'
p580
g3
sS'_totalReboundsPercentage'
p581
S'13.7'
p582
sS'_defensiveBoxPlusMinus'
p583
S'-1.0'
p584
sg19
S'PF'
p585
sS'_valueOverReplacementPlayer'
p586
S'0.2'
p587
sS'_trueShootingPercentage'
p588
S'.514'
p589
sS'_defensiveReboundPercentage'
p590
S'17.7'
p591
sS'_freeThrowsAttempRate'
p592
S'.397'
p593
sS'_threePointsAttempRate'
p594
g3
sg25
S'NBA'
p595
sS'_offensiveBoxPlusMinues'
p596
S'-0.5'
p597
sS'_assistPercentage'
p598
S'6.7'
p599
sS'_defensiveWinShares'
p600
S'1.6'
p601
sg37
S'23'
p602
sg39
S'KCK'
p603
sg41
S'75'
p604
sS'_blockPercentage'
p605
S'0.3'
p606
sS'_playerEfficiencyRating'
p607
S'14.6'
p608
sS'_offensiveWinShares'
p609
S'0.8'
p610
sg60
S'1327'
p611
sS'_boxPlusMinus'
p612
S'-1.5'
p613
sg53
S'1975-76'
p614
sS'_winShares'
p615
S'2.4'
p616
sba(isrc.gp1.models.Advanced
Advanced
p617
(dp618
g573
S'10.3'
p619
sg575
g3
sg576
S'.104'
p620
sg578
S'2.4'
p621
sg580
g3
sg581
S'15.4'
p622
sg583
S'-0.5'
p623
sg19
S'PF'
p624
sg586
S'0.6'
p625
sg588
S'.501'
p626
sg590
S'20.9'
p627
sg592
S'.319'
p628
sg594
g3
sg25
S'NBA'
p629
sg596
S'0.0'
p630
sg598
S'8.5'
p631
sg600
S'2.2'
p632
sg37
S'24'
p633
sg39
S'KCK'
p634
sg41
S'75'
p635
sg605
S'0.4'
p636
sg607
S'15.6'
p637
sg609
S'1.3'
p638
sg60
S'1594'
p639
sg612
S'-0.5'
p640
sg53
S'1976-77'
p641
sg615
S'3.4'
p642
sba(isrc.gp1.models.Advanced
Advanced
p643
(dp644
g573
S'10.1'
p645
sg575
S'17.8'
p646
sg576
S'.082'
p647
sg578
S'1.9'
p648
sg580
S'21.1'
p649
sg581
S'15.8'
p650
sg583
S'-1.0'
p651
sg19
S'PF'
p652
sg586
S'-0.3'
p653
sg588
S'.512'
p654
sg590
S'21.5'
p655
sg592
S'.400'
p656
sg594
g3
sg25
S'NBA'
p657
sg596
S'-1.6'
p658
sg598
S'5.6'
p659
sg600
S'2.0'
p660
sg37
S'25'
p661
sg39
S'KCK'
p662
sg41
S'82'
p663
sg605
S'0.3'
p664
sg607
S'13.6'
p665
sg609
S'1.0'
p666
sg60
S'1748'
p667
sg612
S'-2.6'
p668
sg53
S'1977-78'
p669
sg615
S'3.0'
p670
sba(isrc.gp1.models.Advanced
Advanced
p671
(dp672
g573
S'10.6'
p673
sg575
S'15.9'
p674
sg576
S'.151'
p675
sg578
S'2.2'
p676
sg580
S'19.8'
p677
sg581
S'15.9'
p678
sg583
S'0.7'
p679
sg19
S'PF'
p680
sg586
S'2.0'
p681
sg588
S'.581'
p682
sg590
S'21.5'
p683
sg592
S'.294'
p684
sg594
g3
sg25
S'NBA'
p685
sg596
S'1.0'
p686
sg598
S'6.5'
p687
sg600
S'3.4'
p688
sg37
S'26'
p689
sg39
S'KCK'
p690
sg41
S'82'
p691
sg605
S'0.4'
p692
sg607
S'16.4'
p693
sg609
S'3.4'
p694
sg60
S'2179'
p695
sg612
S'1.7'
p696
sg53
S'1978-79'
p697
sg615
S'6.9'
p698
sba(isrc.gp1.models.Advanced
Advanced
p699
(dp700
g573
S'9.9'
p701
sg575
S'14.9'
p702
sg576
S'.137'
p703
sg578
S'2.6'
p704
sg580
S'20.7'
p705
sg581
S'14.7'
p706
sg583
S'0.9'
p707
sg19
S'PF'
p708
sg586
S'1.0'
p709
sg588
S'.548'
p710
sg590
S'19.8'
p711
sg592
S'.379'
p712
sg594
S'.003'
p713
sg25
S'NBA'
p714
sg596
S'-0.8'
p715
sg598
S'4.5'
p716
sg600
S'3.6'
p717
sg37
S'27'
p718
sg39
S'KCK'
p719
sg41
S'81'
p720
sg605
S'0.7'
p721
sg607
S'15.3'
p722
sg609
S'1.8'
p723
sg60
S'1917'
p724
sg612
S'0.0'
p725
sg53
S'1979-80'
p726
sg615
S'5.5'
p727
sba(isrc.gp1.models.Advanced
Advanced
p728
(dp729
g573
S'9.1'
p730
sg575
S'16.5'
p731
sg576
S'.054'
p732
sg578
S'1.8'
p733
sg580
S'23.5'
p734
sg581
S'15.0'
p735
sg583
S'-0.8'
p736
sg19
S'PF'
p737
sg586
S'0.1'
p738
sg588
S'.528'
p739
sg590
S'21.4'
p740
sg592
S'.340'
p741
sg594
S'.007'
p742
sg25
S'NBA'
p743
sg596
S'-1.0'
p744
sg598
S'9.5'
p745
sg600
S'1.5'
p746
sg37
S'28'
p747
sg39
S'TOT'
p748
sg41
S'78'
p749
sg605
S'0.3'
p750
sg607
S'14.8'
p751
sg609
S'0.7'
p752
sg60
S'2016'
p753
sg612
S'-1.8'
p754
sg53
S'1980-81'
p755
sg615
S'2.3'
p756
sba(isrc.gp1.models.Advanced
Advanced
p757
(dp758
g573
S'5.0'
p759
sg575
S'22.0'
p760
sg576
S'-0.057'
p761
sg578
S'2.3'
p762
sg580
S'21.8'
p763
sg581
S'8.6'
p764
sg583
S'-1.6'
p765
sg19
S'PF'
p766
sg586
S'-0.1'
p767
sg588
S'.465'
p768
sg590
S'12.5'
p769
sg592
S'.250'
p770
sg594
S'.000'
p771
sg25
S'NBA'
p772
sg596
S'-5.7'
p773
sg598
S'8.1'
p774
sg600
S'0.1'
p775
sg37
S'28'
p776
sg39
S'CLE'
p777
sg41
g44
sg605
S'0.0'
p778
sg607
S'6.0'
p779
sg609
S'-0.2'
p780
sg60
S'84'
p781
sg612
S'-7.2'
p782
sg53
S'1980-81'
p783
sg615
S'-0.1'
p784
sba(isrc.gp1.models.Advanced
Advanced
p785
(dp786
g573
S'9.3'
p787
sg575
S'16.2'
p788
sg576
S'.059'
p789
sg578
S'1.8'
p790
sg580
S'23.6'
p791
sg581
S'15.3'
p792
sg583
S'-0.7'
p793
sg19
S'PF'
p794
sg586
S'0.2'
p795
sg588
S'.531'
p796
sg590
S'21.8'
p797
sg592
S'.344'
p798
sg594
S'.008'
p799
sg25
S'NBA'
p800
sg596
S'-0.8'
p801
sg598
S'9.5'
p802
sg600
S'1.5'
p803
sg37
S'28'
p804
sg39
S'DAL'
p805
sg41
S'70'
p806
sg605
S'0.3'
p807
sg607
S'15.2'
p808
sg609
S'0.9'
p809
sg60
S'1932'
p810
sg612
S'-1.6'
p811
sg53
S'1980-81'
p812
sg615
S'2.4'
p813
sba(isrc.gp1.models.Advanced
Advanced
p814
(dp815
g573
S'9.1'
p816
sg575
S'20.2'
p817
sg576
S'-0.013'
p818
sg578
S'2.6'
p819
sg580
S'25.2'
p820
sg581
S'11.9'
p821
sg583
S'-1.4'
p822
sg19
S'PF'
p823
sg586
S'-0.4'
p824
sg588
S'.494'
p825
sg590
S'14.8'
p826
sg592
S'.255'
p827
sg594
S'.000'
p828
sg25
S'NBA'
p829
sg596
S'-3.3'
p830
sg598
S'10.3'
p831
sg600
S'0.5'
p832
sg37
S'29'
p833
sg39
S'UTA'
p834
sg41
S'56'
p835
sg605
S'0.4'
p836
sg607
S'11.3'
p837
sg609
S'-0.7'
p838
sg60
S'651'
p839
sg612
S'-4.7'
p840
sg53
S'1981-82'
p841
sg615
S'-0.2'
p842
sbasS'_per36Minutes'
p843
(lp844
(isrc.gp1.models.Per36Minutes
Per36Minutes
p845
(dp846
g8
S'3.5'
p847
sg10
g3
sg11
S'.459'
p848
sg13
S'1.6'
p849
sg15
g3
sg16
g3
sg17
S'16.4'
p850
sg19
S'PF'
p851
sg21
S'.732'
p852
sg25
S'NBA'
p853
sg27
S'2.2'
p854
sg29
S'13.5'
p855
sg31
S'7.9'
p856
sg33
S'5.4'
p857
sg35
S'9.6'
p858
sg37
S'23'
p859
sg39
S'KCK'
p860
sg41
S'75'
p861
sg43
S'0.2'
p862
sg45
S'6.2'
p863
sg47
S'3.9'
p864
sg49
S'13.5'
p865
sg51
S'6.2'
p866
sg53
S'1975-76'
p867
sg55
S'6.2'
p868
sg57
g3
sg58
S'.459'
p869
sg60
S'1327'
p870
sg62
g3
sba(isrc.gp1.models.Per36Minutes
Per36Minutes
p871
(dp872
g8
S'3.7'
p873
sg10
g3
sg11
S'.453'
p874
sg13
S'2.1'
p875
sg15
g3
sg16
g3
sg17
S'17.5'
p876
sg19
S'PF'
p877
sg21
S'.736'
p878
sg25
S'NBA'
p879
sg27
S'1.9'
p880
sg29
S'15.3'
p881
sg31
S'6.4'
p882
sg33
S'4.9'
p883
sg35
S'10.7'
p884
sg37
S'24'
p885
sg39
S'KCK'
p886
sg41
S'75'
p887
sg43
S'0.3'
p888
sg45
S'6.9'
p889
sg47
S'3.6'
p890
sg49
S'15.3'
p891
sg51
S'7.0'
p892
sg53
S'1976-77'
p893
sg55
S'6.9'
p894
sg57
g3
sg58
S'.453'
p895
sg60
S'1594'
p896
sg62
g3
sba(isrc.gp1.models.Per36Minutes
Per36Minutes
p897
(dp898
g8
S'3.6'
p899
sg10
g3
sg11
S'.451'
p900
sg13
S'1.5'
p901
sg15
g3
sg16
g3
sg17
S'16.8'
p902
sg19
S'PF'
p903
sg21
S'.760'
p904
sg25
S'NBA'
p905
sg27
S'1.5'
p906
sg29
S'13.9'
p907
sg31
S'5.8'
p908
sg33
S'5.6'
p909
sg35
S'11.1'
p910
sg37
S'25'
p911
sg39
S'KCK'
p912
sg41
S'82'
p913
sg43
S'0.2'
p914
sg45
S'6.3'
p915
sg47
S'4.2'
p916
sg49
S'13.9'
p917
sg51
S'7.5'
p918
sg53
S'1977-78'
p919
sg55
S'6.3'
p920
sg57
S'3.5'
p921
sg58
S'.451'
p922
sg60
S'1748'
p923
sg62
g3
sba(isrc.gp1.models.Per36Minutes
Per36Minutes
p924
(dp925
g8
S'3.6'
p926
sg10
g3
sg11
S'.548'
p927
sg13
S'1.7'
p928
sg15
g3
sg16
g3
sg17
S'18.1'
p929
sg19
S'PF'
p930
sg21
S'.732'
p931
sg25
S'NBA'
p932
sg27
S'1.7'
p933
sg29
S'13.8'
p934
sg31
S'6.1'
p935
sg33
S'4.1'
p936
sg35
S'10.5'
p937
sg37
S'26'
p938
sg39
S'KCK'
p939
sg41
S'82'
p940
sg43
S'0.2'
p941
sg45
S'7.6'
p942
sg47
S'3.0'
p943
sg49
S'13.8'
p944
sg51
S'6.9'
p945
sg53
S'1978-79'
p946
sg55
S'7.6'
p947
sg57
S'3.0'
p948
sg58
S'.548'
p949
sg60
S'2179'
p950
sg62
g3
sba(isrc.gp1.models.Per36Minutes
Per36Minutes
p951
(dp952
g8
S'3.5'
p953
sg10
S'0.0'
p954
sg11
S'.501'
p955
sg13
S'1.2'
p956
sg15
S'.500'
p957
sg16
S'0.0'
p958
sg17
S'17.4'
p959
sg19
S'PF'
p960
sg21
S'.730'
p961
sg25
S'NBA'
p962
sg27
S'2.0'
p963
sg29
S'13.6'
p964
sg31
S'5.8'
p965
sg33
S'5.1'
p966
sg35
S'9.9'
p967
sg37
S'27'
p968
sg39
S'KCK'
p969
sg41
S'81'
p970
sg43
S'0.4'
p971
sg45
S'6.8'
p972
sg47
S'3.8'
p973
sg49
S'13.5'
p974
sg51
S'6.4'
p975
sg53
S'1979-80'
p976
sg55
S'6.8'
p977
sg57
S'2.8'
p978
sg58
S'.501'
p979
sg60
S'1917'
p980
sg62
g3
sba(isrc.gp1.models.Per36Minutes
Per36Minutes
p981
(dp982
g8
S'3.0'
p983
sg10
S'0.1'
p984
sg11
S'.475'
p985
sg13
S'2.1'
p986
sg15
S'.167'
p987
sg16
S'0.0'
p988
sg17
S'17.9'
p989
sg19
S'PF'
p990
sg21
S'.776'
p991
sg25
S'NBA'
p992
sg27
S'1.3'
p993
sg29
S'14.7'
p994
sg31
S'4.9'
p995
sg33
S'5.0'
p996
sg35
S'9.5'
p997
sg37
S'28'
p998
sg39
S'TOT'
p999
sg41
S'78'
p1000
sg43
S'0.2'
p1001
sg45
S'7.0'
p1002
sg47
S'3.9'
p1003
sg49
S'14.6'
p1004
sg51
S'6.5'
p1005
sg53
S'1980-81'
p1006
sg55
S'7.0'
p1007
sg57
S'3.3'
p1008
sg58
S'.477'
p1009
sg60
S'2016'
p1010
sg62
g3
sba(isrc.gp1.models.Per36Minutes
Per36Minutes
p1011
(dp1012
g8
S'1.7'
p1013
sg10
S'0.0'
p1014
sg11
S'.438'
p1015
sg13
S'2.1'
p1016
sg15
g3
sg16
S'0.0'
p1017
sg17
S'14.1'
p1018
sg19
S'PF'
p1019
sg21
S'.625'
p1020
sg25
S'NBA'
p1021
sg27
S'1.7'
p1022
sg29
S'13.7'
p1023
sg31
S'8.1'
p1024
sg33
S'3.4'
p1025
sg35
S'5.6'
p1026
sg37
S'28'
p1027
sg39
S'CLE'
p1028
sg41
g44
sg43
S'0.0'
p1029
sg45
S'6.0'
p1030
sg47
S'2.1'
p1031
sg49
S'13.7'
p1032
sg51
S'3.9'
p1033
sg53
S'1980-81'
p1034
sg55
S'6.0'
p1035
sg57
S'4.3'
p1036
sg58
S'.438'
p1037
sg60
S'84'
p1038
sg62
g3
sba(isrc.gp1.models.Per36Minutes
Per36Minutes
p1039
(dp1040
g8
S'3.1'
p1041
sg10
S'0.1'
p1042
sg11
S'.476'
p1043
sg13
S'2.1'
p1044
sg15
S'.167'
p1045
sg16
S'0.0'
p1046
sg17
S'18.1'
p1047
sg19
S'PF'
p1048
sg21
S'.780'
p1049
sg25
S'NBA'
p1050
sg27
S'1.3'
p1051
sg29
S'14.8'
p1052
sg31
S'4.8'
p1053
sg33
S'5.1'
p1054
sg35
S'9.7'
p1055
sg37
S'28'
p1056
sg39
S'DAL'
p1057
sg41
S'70'
p1058
sg43
S'0.2'
p1059
sg45
S'7.0'
p1060
sg47
S'4.0'
p1061
sg49
S'14.7'
p1062
sg51
S'6.6'
p1063
sg53
S'1980-81'
p1064
sg55
S'7.0'
p1065
sg57
S'3.3'
p1066
sg58
S'.478'
p1067
sg60
S'1932'
p1068
sg62
g3
sba(isrc.gp1.models.Per36Minutes
Per36Minutes
p1069
(dp1070
g8
S'3.1'
p1071
sg10
S'0.0'
p1072
sg11
S'.446'
p1073
sg13
S'2.7'
p1074
sg15
g3
sg16
S'0.0'
p1075
sg17
S'17.9'
p1076
sg19
S'PF'
p1077
sg21
S'.813'
p1078
sg25
S'NBA'
p1079
sg27
S'2.0'
p1080
sg29
S'16.3'
p1081
sg31
S'8.6'
p1082
sg33
S'4.1'
p1083
sg35
S'8.0'
p1084
sg37
S'29'
p1085
sg39
S'UTA'
p1086
sg41
S'56'
p1087
sg43
S'0.3'
p1088
sg45
S'7.2'
p1089
sg47
S'3.4'
p1090
sg49
S'16.3'
p1091
sg51
S'4.9'
p1092
sg53
S'1981-82'
p1093
sg55
S'7.2'
p1094
sg57
S'4.6'
p1095
sg58
S'.446'
p1096
sg60
S'651'
p1097
sg62
g197
sbasS'_fromYear'
p1098
S'1976'
p1099
sS'_url'
p1100
S'http://www.basketball-reference.com/players/r/robinbi01.html'
p1101
sS'_perGame'
p1102
(isrc.gp1.models.PerGame
PerGame
p1103
(dp1104
g8
S'1.0'
p1105
sg10
S'0.0'
p1106
sg11
S'.446'
p1107
sS'_effectiveFieldGalPercentage'
p1108
S'.446'
p1109
sg13
S'0.9'
p1110
sg15
g3
sg16
S'0.0'
p1111
sg17
S'5.8'
p1112
sg19
S'PF'
p1113
sg21
S'.813'
p1114
sg25
S'NBA'
p1115
sg27
S'0.7'
p1116
sg31
S'2.8'
p1117
sS'_fieldGoalsttempted'
p1118
S'5.3'
p1119
sg33
S'1.3'
p1120
sg35
S'2.6'
p1121
sg37
S'29'
p1122
sg39
S'UTA'
p1123
sg41
S'56'
p1124
sg43
S'0.1'
p1125
sg45
S'2.3'
p1126
sg47
S'1.1'
p1127
sg49
S'5.3'
p1128
sg51
S'1.6'
p1129
sg53
S'1981-82'
p1130
sg55
S'2.3'
p1131
sg57
S'1.5'
p1132
sg58
S'.446'
p1133
sg60
S'11.6'
p1134
sg62
g197
sbsS'_weight'
p1135
S'230'
p1136
sS'_dob'
p1137
S'20-1-1953'
p1138
sS'_salary'
p1139
(lp1140
sg19
S'F'
p1141
sb.