(isrc.gp1.models.Player
Player
p0
(dp1
S'_experience'
p2
S'NA'
p3
sS'_totals'
p4
(lp5
(isrc.gp1.models.Totals
Totals
p6
(dp7
S'_offensiveRebounds'
p8
S'103'
p9
sS'_threePointsAttempted'
p10
S'1'
p11
sS'_fieldGoalsPercentage'
p12
S'.442'
p13
sS'_assist'
p14
S'49'
p15
sS'_threePointsPercentage'
p16
S'.000'
p17
sS'_threePoints'
p18
S'0'
p19
sS'_points'
p20
S'397'
p21
sS'_position'
p22
S'PF'
p23
sS'_freeThrowsPercentage'
p24
S'.671'
p25
sS'_effectiveFieldGoalPercentage'
p26
S'.442'
p27
sS'_league'
p28
S'ABA'
p29
sS'_steals'
p30
S'20'
p31
sS'_fieldGoalsAttempted'
p32
S'394'
p33
sS'_personalFouls'
p34
S'123'
p35
sS'_freeThrowsAttempted'
p36
S'73'
p37
sS'_totalRebounds'
p38
S'281'
p39
sS'_age'
p40
S'22'
p41
sS'_team'
p42
S'TOT'
p43
sS'_games'
p44
S'62'
p45
sS'_blocks'
p46
S'9'
p47
sS'_twoPoints'
p48
S'174'
p49
sS'_freeThrows'
p50
S'49'
p51
sS'_twoPointsAttempted'
p52
S'393'
p53
sS'_defensiveRebounds'
p54
S'178'
p55
sS'_season'
p56
S'1973-74'
p57
sS'_fieldGoals'
p58
S'174'
p59
sS'_turnOvers'
p60
S'68'
p61
sS'_twoPointsPercentage'
p62
S'.443'
p63
sS'_minutesPlayed'
p64
S'1170'
p65
sS'_gamesStarted'
p66
g3
sba(isrc.gp1.models.Totals
Totals
p67
(dp68
g8
S'18'
p69
sg10
g19
sg12
S'.411'
p70
sg14
S'12'
p71
sg16
g3
sg18
g19
sg20
S'110'
p72
sg22
S'PF'
p73
sg24
S'.667'
p74
sg26
S'.411'
p75
sg28
S'ABA'
p76
sg30
S'8'
p77
sg32
S'112'
p78
sg34
S'33'
p79
sg36
S'27'
p80
sg38
S'64'
p81
sg40
S'22'
p82
sg42
S'UTS'
p83
sg44
S'22'
p84
sg46
S'2'
p85
sg48
S'46'
p86
sg50
S'18'
p87
sg52
S'112'
p88
sg54
S'46'
p89
sg56
S'1973-74'
p90
sg58
S'46'
p91
sg60
S'23'
p92
sg62
S'.411'
p93
sg64
S'308'
p94
sg66
g3
sba(isrc.gp1.models.Totals
Totals
p95
(dp96
g8
S'85'
p97
sg10
g11
sg12
S'.454'
p98
sg14
S'37'
p99
sg16
S'.000'
p100
sg18
g19
sg20
S'287'
p101
sg22
S'PF'
p102
sg24
S'.674'
p103
sg26
S'.454'
p104
sg28
S'ABA'
p105
sg30
S'12'
p106
sg32
S'282'
p107
sg34
S'90'
p108
sg36
S'46'
p109
sg38
S'217'
p110
sg40
S'22'
p111
sg42
S'MMT'
p112
sg44
S'40'
p113
sg46
S'7'
p114
sg48
S'128'
p115
sg50
S'31'
p116
sg52
S'281'
p117
sg54
S'132'
p118
sg56
S'1973-74'
p119
sg58
S'128'
p120
sg60
S'45'
p121
sg62
S'.456'
p122
sg64
S'862'
p123
sg66
g3
sba(isrc.gp1.models.Totals
Totals
p124
(dp125
g8
S'10'
p126
sg10
g19
sg12
S'.474'
p127
sg14
S'4'
p128
sg16
g3
sg18
g19
sg20
S'40'
p129
sg22
S'PF'
p130
sg24
S'.667'
p131
sg26
S'.474'
p132
sg28
S'ABA'
p133
sg30
S'5'
p134
sg32
S'38'
p135
sg34
S'14'
p136
sg36
S'6'
p137
sg38
S'27'
p138
sg40
S'23'
p139
sg42
S'MMS'
p140
sg44
S'10'
p141
sg46
g19
sg48
S'18'
p142
sg50
g128
sg52
S'38'
p143
sg54
S'17'
p144
sg56
S'1974-75'
p145
sg58
S'18'
p146
sg60
g114
sg62
S'.474'
p147
sg64
S'102'
p148
sg66
g3
sbasS'_college'
p149
S'University of Memphis'
p150
sS'_toYear'
p151
S'1975'
p152
sS'_height'
p153
S'6-8'
p154
sS'_active'
p155
I00
sS'_shootingHand'
p156
VRight
p157
sS'_name'
p158
S'Ronnie Robinson'
p159
sS'_per100Possessions'
p160
(lp161
(isrc.gp1.models.Per100Possession
Per100Possession
p162
(dp163
g8
S'4.3'
p164
sg10
S'0.0'
p165
sg12
S'.442'
p166
sS'_offensiveRating'
p167
S'97'
p168
sg14
S'2.0'
p169
sg16
S'.000'
p170
sg18
S'0.0'
p171
sg20
S'16.4'
p172
sg22
S'PF'
p173
sS'_defensiveRating'
p174
S'108'
p175
sg24
S'.671'
p176
sg28
S'ABA'
p177
sg30
S'0.8'
p178
sg32
S'16.3'
p179
sg34
S'5.1'
p180
sg36
S'3.0'
p181
sg38
S'11.6'
p182
sg40
S'22'
p183
sg42
S'TOT'
p184
sg44
S'62'
p185
sg46
S'0.4'
p186
sg48
S'7.2'
p187
sg50
S'2.0'
p188
sg52
S'16.2'
p189
sg54
S'7.3'
p190
sg56
S'1973-74'
p191
sg58
S'7.2'
p192
sg60
S'2.8'
p193
sg62
S'.443'
p194
sg64
S'1170'
p195
sg66
g3
sba(isrc.gp1.models.Per100Possession
Per100Possession
p196
(dp197
g8
S'2.8'
p198
sg10
S'0.0'
p199
sg12
S'.411'
p200
sg167
S'88'
p201
sg14
S'1.9'
p202
sg16
g3
sg18
S'0.0'
p203
sg20
S'17.4'
p204
sg22
S'PF'
p205
sg174
S'106'
p206
sg24
S'.667'
p207
sg28
S'ABA'
p208
sg30
S'1.3'
p209
sg32
S'17.7'
p210
sg34
S'5.2'
p211
sg36
S'4.3'
p212
sg38
S'10.1'
p213
sg40
S'22'
p214
sg42
S'UTS'
p215
sg44
S'22'
p216
sg46
S'0.3'
p217
sg48
S'7.3'
p218
sg50
S'2.8'
p219
sg52
S'17.7'
p220
sg54
S'7.3'
p221
sg56
S'1973-74'
p222
sg58
S'7.3'
p223
sg60
S'3.6'
p224
sg62
S'.411'
p225
sg64
S'308'
p226
sg66
g3
sba(isrc.gp1.models.Per100Possession
Per100Possession
p227
(dp228
g8
S'4.8'
p229
sg10
S'0.1'
p230
sg12
S'.454'
p231
sg167
S'101'
p232
sg14
S'2.1'
p233
sg16
S'.000'
p234
sg18
S'0.0'
p235
sg20
S'16.0'
p236
sg22
S'PF'
p237
sg174
S'109'
p238
sg24
S'.674'
p239
sg28
S'ABA'
p240
sg30
S'0.7'
p241
sg32
S'15.8'
p242
sg34
S'5.0'
p243
sg36
S'2.6'
p244
sg38
S'12.1'
p245
sg40
S'22'
p246
sg42
S'MMT'
p247
sg44
S'40'
p248
sg46
S'0.4'
p249
sg48
S'7.2'
p250
sg50
S'1.7'
p251
sg52
S'15.7'
p252
sg54
S'7.4'
p253
sg56
S'1973-74'
p254
sg58
S'7.2'
p255
sg60
S'2.5'
p256
sg62
S'.456'
p257
sg64
S'862'
p258
sg66
g3
sba(isrc.gp1.models.Per100Possession
Per100Possession
p259
(dp260
g8
S'4.7'
p261
sg10
S'0.0'
p262
sg12
S'.474'
p263
sg167
S'96'
p264
sg14
S'1.9'
p265
sg16
g3
sg18
S'0.0'
p266
sg20
S'18.9'
p267
sg22
S'PF'
p268
sg174
S'105'
p269
sg24
S'.667'
p270
sg28
S'ABA'
p271
sg30
S'2.4'
p272
sg32
S'18.0'
p273
sg34
S'6.6'
p274
sg36
S'2.8'
p275
sg38
S'12.8'
p276
sg40
S'23'
p277
sg42
S'MMS'
p278
sg44
S'10'
p279
sg46
S'0.0'
p280
sg48
S'8.5'
p281
sg50
S'1.9'
p282
sg52
S'18.0'
p283
sg54
S'8.0'
p284
sg56
S'1974-75'
p285
sg58
S'8.5'
p286
sg60
S'3.3'
p287
sg62
S'.474'
p288
sg64
S'102'
p289
sg66
g3
sbasS'_advanced'
p290
(lp291
(isrc.gp1.models.Advanced
Advanced
p292
(dp293
S'_offensiveReboundPercentage'
p294
S'9.2'
p295
sS'_turnOverPercentage'
p296
S'13.8'
p297
sS'_winSharesPer48Minutes'
p298
S'.029'
p299
sS'_stealPercentage'
p300
S'0.8'
p301
sS'_usagePercentage'
p302
S'17.4'
p303
sS'_totalReboundsPercentage'
p304
S'12.5'
p305
sS'_defensiveBoxPlusMinus'
p306
S'-1.9'
p307
sg22
S'PF'
p308
sS'_valueOverReplacementPlayer'
p309
S'-0.8'
p310
sS'_trueShootingPercentage'
p311
S'.466'
p312
sS'_defensiveReboundPercentage'
p313
S'15.7'
p314
sS'_freeThrowsAttempRate'
p315
S'.185'
p316
sS'_threePointsAttempRate'
p317
S'.003'
p318
sg28
S'ABA'
p319
sS'_offensiveBoxPlusMinues'
p320
S'-2.7'
p321
sS'_assistPercentage'
p322
S'5.9'
p323
sS'_defensiveWinShares'
p324
S'0.5'
p325
sg40
S'22'
p326
sg42
S'TOT'
p327
sg44
S'62'
p328
sS'_blockPercentage'
p329
S'0.4'
p330
sS'_playerEfficiencyRating'
p331
S'10.6'
p332
sS'_offensiveWinShares'
p333
S'0.2'
p334
sg64
S'1170'
p335
sS'_boxPlusMinus'
p336
S'-4.6'
p337
sg56
S'1973-74'
p338
sS'_winShares'
p339
S'0.7'
p340
sba(isrc.gp1.models.Advanced
Advanced
p341
(dp342
g294
S'6.3'
p343
sg296
S'15.7'
p344
sg298
S'-0.008'
p345
sg300
S'1.3'
p346
sg302
S'19.9'
p347
sg304
S'10.8'
p348
sg306
S'-2.3'
p349
sg22
S'PF'
p350
sg309
S'-0.4'
p351
sg311
S'.444'
p352
sg313
S'14.9'
p353
sg315
S'.241'
p354
sg317
S'.000'
p355
sg28
S'ABA'
p356
sg320
S'-4.6'
p357
sg322
S'5.3'
p358
sg324
S'0.2'
p359
sg40
S'22'
p360
sg42
S'UTS'
p361
sg44
S'22'
p362
sg329
S'0.4'
p363
sg331
S'9.1'
p364
sg333
S'-0.3'
p365
sg64
S'308'
p366
sg336
S'-6.9'
p367
sg56
S'1973-74'
p368
sg339
S'-0.1'
p369
sba(isrc.gp1.models.Advanced
Advanced
p370
(dp371
g294
S'10.2'
p372
sg296
S'13.0'
p373
sg298
S'.042'
p374
sg300
S'0.7'
p375
sg302
S'16.5'
p376
sg304
S'13.1'
p377
sg306
S'-1.8'
p378
sg22
S'PF'
p379
sg309
S'-0.4'
p380
sg311
S'.475'
p381
sg313
S'16.0'
p382
sg315
S'.163'
p383
sg317
S'.004'
p384
sg28
S'ABA'
p385
sg320
S'-2.0'
p386
sg322
S'6.1'
p387
sg324
S'0.3'
p388
sg40
S'22'
p389
sg42
S'MMT'
p390
sg44
S'40'
p391
sg329
S'0.4'
p392
sg331
S'11.2'
p393
sg333
S'0.5'
p394
sg64
S'862'
p395
sg336
S'-3.8'
p396
sg56
S'1973-74'
p397
sg339
S'0.8'
p398
sba(isrc.gp1.models.Advanced
Advanced
p399
(dp400
g294
S'9.6'
p401
sg296
S'14.7'
p402
sg298
S'.046'
p403
sg300
S'2.4'
p404
sg302
S'19.5'
p405
sg304
S'13.5'
p406
sg306
S'-1.3'
p407
sg22
S'PF'
p408
sg309
S'-0.1'
p409
sg311
S'.492'
p410
sg313
S'17.6'
p411
sg315
S'.158'
p412
sg317
S'.000'
p413
sg28
S'ABA'
p414
sg320
S'-3.2'
p415
sg322
S'5.6'
p416
sg324
S'0.1'
p417
sg40
S'23'
p418
sg42
S'MMS'
p419
sg44
S'10'
p420
sg329
S'0.0'
p421
sg331
S'12.7'
p422
sg333
S'0.0'
p423
sg64
S'102'
p424
sg336
S'-4.5'
p425
sg56
S'1974-75'
p426
sg339
S'0.1'
p427
sbasS'_per36Minutes'
p428
(lp429
(isrc.gp1.models.Per36Minutes
Per36Minutes
p430
(dp431
g8
S'3.2'
p432
sg10
S'0.0'
p433
sg12
S'.442'
p434
sg14
S'1.5'
p435
sg16
S'.000'
p436
sg18
S'0.0'
p437
sg20
S'12.2'
p438
sg22
S'PF'
p439
sg24
S'.671'
p440
sg28
S'ABA'
p441
sg30
S'0.6'
p442
sg32
S'12.1'
p443
sg34
S'3.8'
p444
sg36
S'2.2'
p445
sg38
S'8.6'
p446
sg40
S'22'
p447
sg42
S'TOT'
p448
sg44
S'62'
p449
sg46
S'0.3'
p450
sg48
S'5.4'
p451
sg50
S'1.5'
p452
sg52
S'12.1'
p453
sg54
S'5.5'
p454
sg56
S'1973-74'
p455
sg58
S'5.4'
p456
sg60
S'2.1'
p457
sg62
S'.443'
p458
sg64
S'1170'
p459
sg66
g3
sba(isrc.gp1.models.Per36Minutes
Per36Minutes
p460
(dp461
g8
S'2.1'
p462
sg10
S'0.0'
p463
sg12
S'.411'
p464
sg14
S'1.4'
p465
sg16
g3
sg18
S'0.0'
p466
sg20
S'12.9'
p467
sg22
S'PF'
p468
sg24
S'.667'
p469
sg28
S'ABA'
p470
sg30
S'0.9'
p471
sg32
S'13.1'
p472
sg34
S'3.9'
p473
sg36
S'3.2'
p474
sg38
S'7.5'
p475
sg40
S'22'
p476
sg42
S'UTS'
p477
sg44
S'22'
p478
sg46
S'0.2'
p479
sg48
S'5.4'
p480
sg50
S'2.1'
p481
sg52
S'13.1'
p482
sg54
S'5.4'
p483
sg56
S'1973-74'
p484
sg58
S'5.4'
p485
sg60
S'2.7'
p486
sg62
S'.411'
p487
sg64
S'308'
p488
sg66
g3
sba(isrc.gp1.models.Per36Minutes
Per36Minutes
p489
(dp490
g8
S'3.5'
p491
sg10
S'0.0'
p492
sg12
S'.454'
p493
sg14
S'1.5'
p494
sg16
S'.000'
p495
sg18
S'0.0'
p496
sg20
S'12.0'
p497
sg22
S'PF'
p498
sg24
S'.674'
p499
sg28
S'ABA'
p500
sg30
S'0.5'
p501
sg32
S'11.8'
p502
sg34
S'3.8'
p503
sg36
S'1.9'
p504
sg38
S'9.1'
p505
sg40
S'22'
p506
sg42
S'MMT'
p507
sg44
S'40'
p508
sg46
S'0.3'
p509
sg48
S'5.3'
p510
sg50
S'1.3'
p511
sg52
S'11.7'
p512
sg54
S'5.5'
p513
sg56
S'1973-74'
p514
sg58
S'5.3'
p515
sg60
S'1.9'
p516
sg62
S'.456'
p517
sg64
S'862'
p518
sg66
g3
sba(isrc.gp1.models.Per36Minutes
Per36Minutes
p519
(dp520
g8
S'3.5'
p521
sg10
S'0.0'
p522
sg12
S'.474'
p523
sg14
S'1.4'
p524
sg16
g3
sg18
S'0.0'
p525
sg20
S'14.1'
p526
sg22
S'PF'
p527
sg24
S'.667'
p528
sg28
S'ABA'
p529
sg30
S'1.8'
p530
sg32
S'13.4'
p531
sg34
S'4.9'
p532
sg36
S'2.1'
p533
sg38
S'9.5'
p534
sg40
S'23'
p535
sg42
S'MMS'
p536
sg44
S'10'
p537
sg46
S'0.0'
p538
sg48
S'6.4'
p539
sg50
S'1.4'
p540
sg52
S'13.4'
p541
sg54
S'6.0'
p542
sg56
S'1974-75'
p543
sg58
S'6.4'
p544
sg60
S'2.5'
p545
sg62
S'.474'
p546
sg64
S'102'
p547
sg66
g3
sbasS'_fromYear'
p548
S'1974'
p549
sS'_url'
p550
S'http://www.basketball-reference.com/players/r/robinro01.html'
p551
sS'_perGame'
p552
(isrc.gp1.models.PerGame
PerGame
p553
(dp554
g8
S'1.0'
p555
sg10
S'0.0'
p556
sg12
S'.474'
p557
sS'_effectiveFieldGalPercentage'
p558
S'.474'
p559
sg14
S'0.4'
p560
sg16
g3
sg18
S'0.0'
p561
sg20
S'4.0'
p562
sg22
S'PF'
p563
sg24
S'.667'
p564
sg28
S'ABA'
p565
sg30
S'0.5'
p566
sg34
S'1.4'
p567
sS'_fieldGoalsttempted'
p568
S'3.8'
p569
sg36
S'0.6'
p570
sg38
S'2.7'
p571
sg40
S'23'
p572
sg42
S'MMS'
p573
sg44
S'10'
p574
sg46
S'0.0'
p575
sg48
S'1.8'
p576
sg50
S'0.4'
p577
sg52
S'3.8'
p578
sg54
S'1.7'
p579
sg56
S'1974-75'
p580
sg58
S'1.8'
p581
sg60
S'0.7'
p582
sg62
S'.474'
p583
sg64
S'10.2'
p584
sg66
g3
sbsS'_weight'
p585
S'200'
p586
sS'_dob'
p587
S'9-3-1951'
p588
sS'_salary'
p589
(lp590
sg22
S'F'
p591
sb.