(isrc.gp1.models.Player
Player
p0
(dp1
S'_experience'
p2
S'NA'
p3
sS'_totals'
p4
(lp5
(isrc.gp1.models.Totals
Totals
p6
(dp7
S'_offensiveRebounds'
p8
S'37'
p9
sS'_threePointsAttempted'
p10
S'.465'
p11
sS'_fieldGoalsPercentage'
p12
S'139'
p13
sS'_assist'
p14
S'344'
p15
sS'_threePointsPercentage'
p16
S'.465'
p17
sS'_threePoints'
p18
S'299'
p19
sS'_points'
p20
g3
sS'_position'
p21
S'C'
p22
sS'_freeThrowsPercentage'
p23
S'80'
p24
sS'_effectiveFieldGoalPercentage'
p25
S'103'
p26
sS'_league'
p27
S'NBA'
p28
sS'_steals'
p29
g3
sS'_fieldGoalsAttempted'
p30
S'.465'
p31
sS'_personalFouls'
p32
g3
sS'_freeThrowsAttempted'
p33
S'296'
p34
sS'_totalRebounds'
p35
S'124'
p36
sS'_age'
p37
S'22'
p38
sS'_team'
p39
S'POR'
p40
sS'_games'
p41
S'63'
p42
sS'_blocks'
p43
g3
sS'_twoPoints'
p44
S'66'
p45
sS'_freeThrows'
p46
S'193'
p47
sS'_twoPointsAttempted'
p48
S'109'
p49
sS'_defensiveRebounds'
p50
S'38'
p51
sS'_season'
p52
S'1976-77'
p53
sS'_fieldGoals'
p54
S'299'
p55
sS'_turnOvers'
p56
g3
sS'_twoPointsPercentage'
p57
S'.606'
p58
sS'_minutesPlayed'
p59
S'139'
p60
sS'_gamesStarted'
p61
S'1065'
p62
sba(isrc.gp1.models.Totals
Totals
p63
(dp64
g8
S'1'
p65
sg10
S'.550'
p66
sg12
S'11'
p67
sg14
S'16'
p68
sg16
S'.550'
p69
sg18
S'20'
p70
sg20
g3
sg21
g22
sg23
S'2'
p71
sg25
S'5'
p72
sg27
S'NBA'
p73
sg29
S'26'
p74
sg30
S'.550'
p75
sg32
g3
sg33
S'14'
p76
sg35
S'7'
p77
sg37
S'23'
p78
sg39
S'HOU'
p79
sg41
S'12'
p80
sg43
g3
sg44
S'4'
p81
sg46
S'9'
p82
sg48
S'10'
p83
sg50
g65
sg52
S'1977-78'
p84
sg54
S'20'
p85
sg56
g3
sg57
S'.400'
p86
sg59
S'11'
p87
sg61
S'66'
p88
sbasS'_college'
p89
S'Saint Louis University'
p90
sS'_toYear'
p91
S'1978'
p92
sS'_height'
p93
S'6-9'
p94
sS'_active'
p95
I00
sS'_shootingHand'
p96
VRight
p97
sS'_name'
p98
S'Robin Jones'
p99
sS'_per100Possessions'
p100
(lp101
(isrc.gp1.models.Per100Possession
Per100Possession
p102
(dp103
g8
S'1.5'
p104
sg10
S'.465'
p105
sg12
S'5.8'
p106
sS'_offensiveRating'
p107
g3
sg14
S'14.4'
p108
sg16
S'2.8'
p109
sg18
S'12.5'
p110
sg20
g3
sg21
g22
sS'_defensiveRating'
p111
g3
sg23
S'3.3'
p112
sg27
S'NBA'
p113
sg29
S'97'
p114
sg30
S'.465'
p115
sg32
g3
sg33
S'12.3'
p116
sg35
S'5.2'
p117
sg37
S'22'
p118
sg39
S'POR'
p119
sg41
S'63'
p120
sg43
g3
sg44
S'4.5'
p121
sg46
S'8.1'
p122
sg48
S'.606'
p123
sg50
S'1.6'
p124
sg52
S'1976-77'
p125
sg54
S'12.5'
p126
sg56
g3
sg57
S'4.3'
p127
sg59
S'5.8'
p128
sg61
S'1065'
p129
sba(isrc.gp1.models.Per100Possession
Per100Possession
p130
(dp131
g8
S'0.7'
p132
sg10
S'.550'
p133
sg12
S'7.9'
p134
sg107
g3
sg14
S'11.5'
p135
sg16
S'2.9'
p136
sg18
S'14.4'
p137
sg20
g3
sg21
g22
sg111
g3
sg23
S'1.4'
p138
sg27
S'NBA'
p139
sg29
S'18.7'
p140
sg30
S'.550'
p141
sg32
g3
sg33
S'10.0'
p142
sg35
S'5.0'
p143
sg37
S'23'
p144
sg39
S'HOU'
p145
sg41
S'12'
p146
sg43
S'90'
p147
sg44
S'7.2'
p148
sg46
S'6.5'
p149
sg48
S'.400'
p150
sg50
S'0.7'
p151
sg52
S'1977-78'
p152
sg54
S'14.4'
p153
sg56
S'107'
p154
sg57
S'3.6'
p155
sg59
S'7.9'
p156
sg61
S'66'
p157
sbasS'_advanced'
p158
(lp159
(isrc.gp1.models.Advanced
Advanced
p160
(dp161
S'_offensiveReboundPercentage'
p162
S'18.3'
p163
sS'_turnOverPercentage'
p164
S'1.4'
p165
sS'_winSharesPer48Minutes'
p166
S'-0.5'
p167
sS'_stealPercentage'
p168
S'1.9'
p169
sS'_usagePercentage'
p170
S'2.2'
p171
sS'_totalReboundsPercentage'
p172
S'9.5'
p173
sS'_defensiveBoxPlusMinus'
p174
g3
sg21
g22
sS'_valueOverReplacementPlayer'
p175
g3
sS'_trueShootingPercentage'
p176
S'.496'
p177
sS'_defensiveReboundPercentage'
p178
S'14.3'
p179
sS'_freeThrowsAttempRate'
p180
S'10.1'
p181
sS'_threePointsAttempRate'
p182
S'.365'
p183
sg27
S'NBA'
p184
sS'_offensiveBoxPlusMinues'
p185
S'0.4'
p186
sS'_assistPercentage'
p187
S'1.5'
p188
sS'_defensiveWinShares'
p189
S'-1.5'
p190
sg37
S'22'
p191
sg39
S'POR'
p192
sg41
S'63'
p193
sS'_blockPercentage'
p194
S'0.7'
p195
sS'_playerEfficiencyRating'
p196
S'13.1'
p197
sS'_offensiveWinShares'
p198
S'.097'
p199
sg59
S'1065'
p200
sS'_boxPlusMinus'
p201
g3
sg52
S'1976-77'
p202
sS'_winShares'
p203
S'1.1'
p204
sba(isrc.gp1.models.Advanced
Advanced
p205
(dp206
g162
S'14.9'
p207
sg164
S'19.0'
p208
sg166
S'-3.6'
p209
sg168
S'0.8'
p210
sg170
S'0.0'
p211
sg172
S'4.2'
p212
sg174
S'-6.3'
p213
sg21
g22
sg175
g3
sg176
S'.533'
p214
sg178
S'11.2'
p215
sg180
S'7.8'
p216
sg182
S'.500'
p217
sg27
S'NBA'
p218
sg185
S'-2.7'
p219
sg187
S'0.7'
p220
sg189
S'0.0'
p221
sg37
S'23'
p222
sg39
S'HOU'
p223
sg41
S'12'
p224
sg194
S'22.3'
p225
sg196
S'7.7'
p226
sg198
S'0.0'
p227
sg59
S'66'
p228
sg201
S'-0.1'
p229
sg52
S'1977-78'
p230
sg203
S'-0.008'
p231
sbasS'_per36Minutes'
p232
(lp233
(isrc.gp1.models.Per36Minutes
Per36Minutes
p234
(dp235
g8
S'1.3'
p236
sg10
S'.465'
p237
sg12
S'4.7'
p238
sg14
S'11.6'
p239
sg16
S'2.2'
p240
sg18
S'10.1'
p241
sg20
g3
sg21
g22
sg23
S'2.7'
p242
sg27
S'NBA'
p243
sg29
g3
sg30
S'.465'
p244
sg32
g3
sg33
S'10.0'
p245
sg35
S'4.2'
p246
sg37
S'22'
p247
sg39
S'POR'
p248
sg41
S'63'
p249
sg43
g3
sg44
S'3.7'
p250
sg46
S'6.5'
p251
sg48
S'.606'
p252
sg50
S'1.3'
p253
sg52
S'1976-77'
p254
sg54
S'10.1'
p255
sg56
g3
sg57
S'3.5'
p256
sg59
S'4.7'
p257
sg61
S'1065'
p258
sba(isrc.gp1.models.Per36Minutes
Per36Minutes
p259
(dp260
g8
S'0.5'
p261
sg10
S'.550'
p262
sg12
S'6.0'
p263
sg14
S'8.7'
p264
sg16
S'2.2'
p265
sg18
S'10.9'
p266
sg20
g3
sg21
g22
sg23
S'1.1'
p267
sg27
S'NBA'
p268
sg29
S'14.2'
p269
sg30
S'.550'
p270
sg32
g3
sg33
S'7.6'
p271
sg35
S'3.8'
p272
sg37
S'23'
p273
sg39
S'HOU'
p274
sg41
S'12'
p275
sg43
g3
sg44
S'5.5'
p276
sg46
S'4.9'
p277
sg48
S'.400'
p278
sg50
S'0.5'
p279
sg52
S'1977-78'
p280
sg54
S'10.9'
p281
sg56
g3
sg57
S'2.7'
p282
sg59
S'6.0'
p283
sg61
S'66'
p284
sbasS'_fromYear'
p285
S'1977'
p286
sS'_url'
p287
S'http://www.basketball-reference.com/players/j/jonesro01.html'
p288
sS'_perGame'
p289
(isrc.gp1.models.PerGame
PerGame
p290
(dp291
g8
S'0.1'
p292
sg10
S'.550'
p293
sg12
S'0.9'
p294
sS'_effectiveFieldGalPercentage'
p295
S'0.4'
p296
sg14
S'1.3'
p297
sg16
S'.550'
p298
sg18
S'1.7'
p299
sg20
g3
sg21
g22
sg23
S'0.2'
p300
sg27
S'NBA'
p301
sg29
S'2.2'
p302
sg32
g3
sS'_fieldGoalsttempted'
p303
S'.550'
p304
sg33
S'1.2'
p305
sg35
S'0.6'
p306
sg37
S'23'
p307
sg39
S'HOU'
p308
sg41
S'12'
p309
sg43
g3
sg44
S'0.3'
p310
sg46
S'0.8'
p311
sg48
S'0.8'
p312
sg50
S'0.1'
p313
sg52
S'1977-78'
p314
sg54
S'1.7'
p315
sg56
g3
sg57
S'.400'
p316
sg59
S'0.9'
p317
sg61
S'5.5'
p318
sbsS'_weight'
p319
S'225'
p320
sS'_dob'
p321
S'2-2-1954'
p322
sS'_salary'
p323
(lp324
sg21
S'F-C'
p325
sb.