(isrc.gp1.models.Player
Player
p0
(dp1
S'_experience'
p2
S'NA'
p3
sS'_totals'
p4
(lp5
(isrc.gp1.models.Totals
Totals
p6
(dp7
S'_offensiveRebounds'
p8
g3
sS'_threePointsAttempted'
p9
g3
sS'_fieldGoalsPercentage'
p10
S'.457'
p11
sS'_assist'
p12
S'110'
p13
sS'_threePointsPercentage'
p14
g3
sS'_threePoints'
p15
g3
sS'_points'
p16
S'668'
p17
sS'_position'
p18
S'PG'
p19
sS'_freeThrowsPercentage'
p20
S'.779'
p21
sS'_effectiveFieldGoalPercentage'
p22
S'.457'
p23
sS'_league'
p24
S'NBA'
p25
sS'_steals'
p26
g3
sS'_fieldGoalsAttempted'
p27
S'599'
p28
sS'_personalFouls'
p29
S'197'
p30
sS'_freeThrowsAttempted'
p31
S'154'
p32
sS'_totalRebounds'
p33
S'133'
p34
sS'_age'
p35
S'25'
p36
sS'_team'
p37
S'CIN'
p38
sS'_games'
p39
S'76'
p40
sS'_blocks'
p41
g3
sS'_twoPoints'
p42
S'274'
p43
sS'_freeThrows'
p44
S'120'
p45
sS'_twoPointsAttempted'
p46
S'599'
p47
sS'_defensiveRebounds'
p48
g3
sS'_season'
p49
S'1966-67'
p50
sS'_fieldGoals'
p51
S'274'
p52
sS'_turnOvers'
p53
g3
sS'_twoPointsPercentage'
p54
S'.457'
p55
sS'_minutesPlayed'
p56
S'1140'
p57
sS'_gamesStarted'
p58
g3
sba(isrc.gp1.models.Totals
Totals
p59
(dp60
g8
g3
sg9
g3
sg10
S'.440'
p61
sg12
S'219'
p62
sg14
g3
sg15
g3
sg16
S'1176'
p63
sg18
S'PG'
p64
sg20
S'.821'
p65
sg22
S'.440'
p66
sg24
S'NBA'
p67
sg26
g3
sg27
S'1010'
p68
sg29
S'184'
p69
sg31
S'351'
p70
sg33
S'272'
p71
sg35
S'26'
p72
sg37
S'TOT'
p73
sg39
S'75'
p74
sg41
g3
sg42
S'444'
p75
sg44
S'288'
p76
sg46
S'1010'
p77
sg48
g3
sg49
S'1967-68'
p78
sg51
S'444'
p79
sg53
g3
sg54
S'.440'
p80
sg56
S'2046'
p81
sg58
g3
sba(isrc.gp1.models.Totals
Totals
p82
(dp83
g8
g3
sg9
g3
sg10
S'.300'
p84
sg12
S'5'
p85
sg14
g3
sg15
g3
sg16
S'9'
p86
sg18
S'PG'
p87
sg20
S'.429'
p88
sg22
S'.300'
p89
sg24
S'NBA'
p90
sg26
g3
sg27
S'10'
p91
sg29
S'4'
p92
sg31
S'7'
p93
sg33
g92
sg35
S'26'
p94
sg37
S'CIN'
p95
sg39
S'2'
p96
sg41
g3
sg42
S'3'
p97
sg44
g97
sg46
S'10'
p98
sg48
g3
sg49
S'1967-68'
p99
sg51
g97
sg53
g3
sg54
S'.300'
p100
sg56
S'16'
p101
sg58
g3
sba(isrc.gp1.models.Totals
Totals
p102
(dp103
g8
g3
sg9
g3
sg10
S'.441'
p104
sg12
S'214'
p105
sg14
g3
sg15
g3
sg16
S'1167'
p106
sg18
S'PG'
p107
sg20
S'.828'
p108
sg22
S'.441'
p109
sg24
S'NBA'
p110
sg26
g3
sg27
S'1000'
p111
sg29
S'180'
p112
sg31
S'344'
p113
sg33
S'268'
p114
sg35
S'26'
p115
sg37
S'CHI'
p116
sg39
S'73'
p117
sg41
g3
sg42
S'441'
p118
sg44
S'285'
p119
sg46
S'1000'
p120
sg48
g3
sg49
S'1967-68'
p121
sg51
S'441'
p122
sg53
g3
sg54
S'.441'
p123
sg56
S'2030'
p124
sg58
g3
sba(isrc.gp1.models.Totals
Totals
p125
(dp126
g8
g3
sg9
g3
sg10
S'.433'
p127
sg12
S'377'
p128
sg14
g3
sg15
g3
sg16
S'1662'
p129
sg18
S'PG'
p130
sg20
S'.839'
p131
sg22
S'.433'
p132
sg24
S'NBA'
p133
sg26
g3
sg27
S'1442'
p134
sg29
S'261'
p135
sg31
S'491'
p136
sg33
S'306'
p137
sg35
S'27'
p138
sg37
S'TOT'
p139
sg39
S'83'
p140
sg41
g3
sg42
S'625'
p141
sg44
S'412'
p142
sg46
S'1442'
p143
sg48
g3
sg49
S'1968-69'
p144
sg51
S'625'
p145
sg53
g3
sg54
S'.433'
p146
sg56
S'2616'
p147
sg58
g3
sba(isrc.gp1.models.Totals
Totals
p148
(dp149
g8
g3
sg9
g3
sg10
S'.423'
p150
sg12
S'57'
p151
sg14
g3
sg15
g3
sg16
S'343'
p152
sg18
S'PG'
p153
sg20
S'.833'
p154
sg22
S'.423'
p155
sg24
S'NBA'
p156
sg26
g3
sg27
S'293'
p157
sg29
S'52'
p158
sg31
S'114'
p159
sg33
S'69'
p160
sg35
S'27'
p161
sg37
S'CHI'
p162
sg39
S'18'
p163
sg41
g3
sg42
S'124'
p164
sg44
S'95'
p165
sg46
S'293'
p166
sg48
g3
sg49
S'1968-69'
p167
sg51
S'124'
p168
sg53
g3
sg54
S'.423'
p169
sg56
S'550'
p170
sg58
g3
sba(isrc.gp1.models.Totals
Totals
p171
(dp172
g8
g3
sg9
g3
sg10
S'.436'
p173
sg12
S'320'
p174
sg14
g3
sg15
g3
sg16
S'1319'
p175
sg18
S'PG'
p176
sg20
S'.841'
p177
sg22
S'.436'
p178
sg24
S'NBA'
p179
sg26
g3
sg27
S'1149'
p180
sg29
S'209'
p181
sg31
S'377'
p182
sg33
S'237'
p183
sg35
S'27'
p184
sg37
S'MIL'
p185
sg39
S'65'
p186
sg41
g3
sg42
S'501'
p187
sg44
S'317'
p188
sg46
S'1149'
p189
sg48
g3
sg49
S'1968-69'
p190
sg51
S'501'
p191
sg53
g3
sg54
S'.436'
p192
sg56
S'2066'
p193
sg58
g3
sba(isrc.gp1.models.Totals
Totals
p194
(dp195
g8
g3
sg9
g3
sg10
S'.477'
p196
sg12
S'449'
p197
sg14
g3
sg15
g3
sg16
S'1765'
p198
sg18
S'PG'
p199
sg20
S'.898'
p200
sg22
S'.477'
p201
sg24
S'NBA'
p202
sg26
g3
sg27
S'1391'
p203
sg29
S'254'
p204
sg31
S'489'
p205
sg33
S'263'
p206
sg35
S'28'
p207
sg37
S'MIL'
p208
sg39
S'81'
p209
sg41
g3
sg42
S'663'
p210
sg44
S'439'
p211
sg46
S'1391'
p212
sg48
g3
sg49
S'1969-70'
p213
sg51
S'663'
p214
sg53
g3
sg54
S'.477'
p215
sg56
S'2762'
p216
sg58
g3
sba(isrc.gp1.models.Totals
Totals
p217
(dp218
g8
g3
sg9
g3
sg10
S'.458'
p219
sg12
S'138'
p220
sg14
g3
sg15
g3
sg16
S'943'
p221
sg18
S'SG'
p222
sg20
S'.855'
p223
sg22
S'.458'
p224
sg24
S'NBA'
p225
sg26
g3
sg27
S'817'
p226
sg29
S'161'
p227
sg31
S'228'
p228
sg33
S'143'
p229
sg35
S'29'
p230
sg37
S'CIN'
p231
sg39
S'71'
p232
sg41
g3
sg42
S'374'
p233
sg44
S'195'
p234
sg46
S'817'
p235
sg48
g3
sg49
S'1970-71'
p236
sg51
S'374'
p237
sg53
g3
sg54
S'.458'
p238
sg56
S'1368'
p239
sg58
g3
sba(isrc.gp1.models.Totals
Totals
p240
(dp241
g8
g3
sg9
g3
sg10
S'.490'
p242
sg12
S'138'
p243
sg14
g3
sg15
g3
sg16
S'635'
p244
sg18
S'SG'
p245
sg20
S'.860'
p246
sg22
S'.490'
p247
sg24
S'NBA'
p248
sg26
g3
sg27
S'535'
p249
sg29
S'139'
p250
sg31
S'129'
p251
sg33
S'115'
p252
sg35
S'30'
p253
sg37
S'LAL'
p254
sg39
S'64'
p255
sg41
g3
sg42
S'262'
p256
sg44
S'111'
p257
sg46
S'535'
p258
sg48
g3
sg49
S'1971-72'
p259
sg51
S'262'
p260
sg53
g3
sg54
S'.490'
p261
sg56
S'1007'
p262
sg58
g3
sba(isrc.gp1.models.Totals
Totals
p263
(dp264
g8
g3
sg9
g3
sg10
S'.462'
p265
sg12
S'85'
p266
sg14
g3
sg15
g3
sg16
S'298'
p267
sg18
S'SG'
p268
sg20
S'.821'
p269
sg22
S'.462'
p270
sg24
S'NBA'
p271
sg26
g3
sg27
S'288'
p272
sg29
S'71'
p273
sg31
S'39'
p274
sg33
S'62'
p275
sg35
S'31'
p276
sg37
S'TOT'
p277
sg39
S'44'
p278
sg41
g3
sg42
S'133'
p279
sg44
S'32'
p280
sg46
S'288'
p281
sg48
g3
sg49
S'1972-73'
p282
sg51
S'133'
p283
sg53
g3
sg54
S'.462'
p284
sg56
S'630'
p285
sg58
g3
sba(isrc.gp1.models.Totals
Totals
p286
(dp287
g8
g3
sg9
g3
sg10
S'.500'
p288
sg12
S'8'
p289
sg14
g3
sg15
g3
sg16
S'34'
p290
sg18
S'SG'
p291
sg20
S'.750'
p292
sg22
S'.500'
p293
sg24
S'NBA'
p294
sg26
g3
sg27
S'28'
p295
sg29
S'11'
p296
sg31
g289
sg33
g93
sg35
S'31'
p297
sg37
S'LAL'
p298
sg39
S'6'
p299
sg41
g3
sg42
S'14'
p300
sg44
g299
sg46
S'28'
p301
sg48
g3
sg49
S'1972-73'
p302
sg51
S'14'
p303
sg53
g3
sg54
S'.500'
p304
sg56
S'47'
p305
sg58
g3
sba(isrc.gp1.models.Totals
Totals
p306
(dp307
g8
g3
sg9
g3
sg10
S'.458'
p308
sg12
S'77'
p309
sg14
g3
sg15
g3
sg16
S'264'
p310
sg18
S'SG'
p311
sg20
S'.839'
p312
sg22
S'.458'
p313
sg24
S'NBA'
p314
sg26
g3
sg27
S'260'
p315
sg29
S'60'
p316
sg31
S'31'
p317
sg33
S'55'
p318
sg35
S'31'
p319
sg37
S'BAL'
p320
sg39
S'38'
p321
sg41
g3
sg42
S'119'
p322
sg44
S'26'
p323
sg46
S'260'
p324
sg48
g3
sg49
S'1972-73'
p325
sg51
S'119'
p326
sg53
g3
sg54
S'.458'
p327
sg56
S'583'
p328
sg58
g3
sba(isrc.gp1.models.Totals
Totals
p329
(dp330
g8
S'28'
p331
sg9
S'30'
p332
sg10
S'.457'
p333
sg12
S'112'
p334
sg14
S'.267'
p335
sg15
g289
sg16
S'430'
p336
sg18
S'SG'
p337
sg20
S'.765'
p338
sg22
S'.467'
p339
sg24
S'ABA'
p340
sg26
S'23'
p341
sg27
S'405'
p342
sg29
S'72'
p343
sg31
S'68'
p344
sg33
S'78'
p345
sg35
S'32'
p346
sg37
S'SDA'
p347
sg39
S'49'
p348
sg41
g96
sg42
S'177'
p349
sg44
S'52'
p350
sg46
S'375'
p351
sg48
S'50'
p352
sg49
S'1973-74'
p353
sg51
S'185'
p354
sg53
S'50'
p355
sg54
S'.472'
p356
sg56
S'779'
p357
sg58
g3
sbasS'_college'
p358
S'University of Wyoming'
p359
sS'_toYear'
p360
S'1974'
p361
sS'_height'
p362
S'6-1'
p363
sS'_active'
p364
I00
sS'_shootingHand'
p365
VRight
p366
sS'_name'
p367
S'Flynn Robinson'
p368
sS'_per100Possessions'
p369
(lp370
(isrc.gp1.models.Per100Possession
Per100Possession
p371
(dp372
g8
S'1.6'
p373
sg9
S'1.7'
p374
sg10
S'.457'
p375
sS'_offensiveRating'
p376
S'104'
p377
sg12
S'6.3'
p378
sg14
S'.267'
p379
sg15
S'0.5'
p380
sg16
S'24.2'
p381
sg18
S'SG'
p382
sS'_defensiveRating'
p383
S'109'
p384
sg20
S'.765'
p385
sg24
S'ABA'
p386
sg26
S'1.3'
p387
sg27
S'22.8'
p388
sg29
S'4.1'
p389
sg31
S'3.8'
p390
sg33
S'4.4'
p391
sg35
S'32'
p392
sg37
S'SDA'
p393
sg39
S'49'
p394
sg41
S'0.1'
p395
sg42
S'10.0'
p396
sg44
S'2.9'
p397
sg46
S'21.1'
p398
sg48
S'2.8'
p399
sg49
S'1973-74'
p400
sg51
S'10.4'
p401
sg53
S'2.8'
p402
sg54
S'.472'
p403
sg56
S'779'
p404
sg58
g3
sbasS'_advanced'
p405
(lp406
(isrc.gp1.models.Advanced
Advanced
p407
(dp408
S'_offensiveReboundPercentage'
p409
g3
sS'_turnOverPercentage'
p410
g3
sS'_winSharesPer48Minutes'
p411
S'.093'
p412
sS'_stealPercentage'
p413
g3
sS'_usagePercentage'
p414
g3
sS'_totalReboundsPercentage'
p415
g3
sS'_defensiveBoxPlusMinus'
p416
g3
sg18
S'PG'
p417
sS'_valueOverReplacementPlayer'
p418
g3
sS'_trueShootingPercentage'
p419
S'.501'
p420
sS'_defensiveReboundPercentage'
p421
g3
sS'_freeThrowsAttempRate'
p422
S'.257'
p423
sS'_threePointsAttempRate'
p424
g3
sg24
S'NBA'
p425
sS'_offensiveBoxPlusMinues'
p426
g3
sS'_assistPercentage'
p427
S'13.9'
p428
sS'_defensiveWinShares'
p429
S'0.6'
p430
sg35
S'25'
p431
sg37
S'CIN'
p432
sg39
S'76'
p433
sS'_blockPercentage'
p434
g3
sS'_playerEfficiencyRating'
p435
S'14.0'
p436
sS'_offensiveWinShares'
p437
S'1.6'
p438
sg56
S'1140'
p439
sS'_boxPlusMinus'
p440
g3
sg49
S'1966-67'
p441
sS'_winShares'
p442
S'2.2'
p443
sba(isrc.gp1.models.Advanced
Advanced
p444
(dp445
g409
g3
sg410
g3
sg411
S'.116'
p446
sg413
g3
sg414
g3
sg415
g3
sg416
g3
sg18
S'PG'
p447
sg418
g3
sg419
S'.505'
p448
sg421
g3
sg422
S'.348'
p449
sg424
g3
sg24
S'NBA'
p450
sg426
g3
sg427
S'16.1'
p451
sg429
S'1.9'
p452
sg35
S'26'
p453
sg37
S'TOT'
p454
sg39
S'75'
p455
sg434
g3
sg435
S'17.2'
p456
sg437
S'3.1'
p457
sg56
S'2046'
p458
sg440
g3
sg49
S'1967-68'
p459
sg442
S'4.9'
p460
sba(isrc.gp1.models.Advanced
Advanced
p461
(dp462
g409
g3
sg410
g3
sg411
S'-0.208'
p463
sg413
g3
sg414
g3
sg415
g3
sg416
g3
sg18
S'PG'
p464
sg418
g3
sg419
S'.344'
p465
sg421
g3
sg422
S'.700'
p466
sg424
g3
sg24
S'NBA'
p467
sg426
g3
sg427
S'42.2'
p468
sg429
S'0.0'
p469
sg35
S'26'
p470
sg37
S'CIN'
p471
sg39
g96
sg434
g3
sg435
S'12.4'
p472
sg437
S'-0.1'
p473
sg56
S'16'
p474
sg440
g3
sg49
S'1967-68'
p475
sg442
S'-0.1'
p476
sba(isrc.gp1.models.Advanced
Advanced
p477
(dp478
g409
g3
sg410
g3
sg411
S'.119'
p479
sg413
g3
sg414
g3
sg415
g3
sg416
g3
sg18
S'PG'
p480
sg418
g3
sg419
S'.507'
p481
sg421
g3
sg422
S'.344'
p482
sg424
g3
sg24
S'NBA'
p483
sg426
g3
sg427
S'15.9'
p484
sg429
S'1.8'
p485
sg35
S'26'
p486
sg37
S'CHI'
p487
sg39
S'73'
p488
sg434
g3
sg435
S'17.2'
p489
sg437
S'3.2'
p490
sg56
S'2030'
p491
sg440
g3
sg49
S'1967-68'
p492
sg442
S'5.0'
p493
sba(isrc.gp1.models.Advanced
Advanced
p494
(dp495
g409
g3
sg410
g3
sg411
S'.123'
p496
sg413
g3
sg414
g3
sg415
g3
sg416
g3
sg18
S'PG'
p497
sg418
g3
sg419
S'.501'
p498
sg421
g3
sg422
S'.340'
p499
sg424
g3
sg24
S'NBA'
p500
sg426
g3
sg427
S'22.1'
p501
sg429
S'2.0'
p502
sg35
S'27'
p503
sg37
S'TOT'
p504
sg39
S'83'
p505
sg434
g3
sg435
S'18.6'
p506
sg437
S'4.7'
p507
sg56
S'2616'
p508
sg440
g3
sg49
S'1968-69'
p509
sg442
S'6.7'
p510
sba(isrc.gp1.models.Advanced
Advanced
p511
(dp512
g409
g3
sg410
g3
sg411
S'.142'
p513
sg413
g3
sg414
g3
sg415
g3
sg416
g3
sg18
S'PG'
p514
sg418
g3
sg419
S'.500'
p515
sg421
g3
sg422
S'.389'
p516
sg424
g3
sg24
S'NBA'
p517
sg426
g3
sg427
S'16.6'
p518
sg429
S'0.6'
p519
sg35
S'27'
p520
sg37
S'CHI'
p521
sg39
S'18'
p522
sg434
g3
sg435
S'18.6'
p523
sg437
S'1.0'
p524
sg56
S'550'
p525
sg440
g3
sg49
S'1968-69'
p526
sg442
S'1.6'
p527
sba(isrc.gp1.models.Advanced
Advanced
p528
(dp529
g409
g3
sg410
g3
sg411
S'.118'
p530
sg413
g3
sg414
g3
sg415
g3
sg416
g3
sg18
S'PG'
p531
sg418
g3
sg419
S'.502'
p532
sg421
g3
sg422
S'.328'
p533
sg424
g3
sg24
S'NBA'
p534
sg426
g3
sg427
S'23.6'
p535
sg429
S'1.4'
p536
sg35
S'27'
p537
sg37
S'MIL'
p538
sg39
S'65'
p539
sg434
g3
sg435
S'18.6'
p540
sg437
S'3.7'
p541
sg56
S'2066'
p542
sg440
g3
sg49
S'1968-69'
p543
sg442
S'5.1'
p544
sba(isrc.gp1.models.Advanced
Advanced
p545
(dp546
g409
g3
sg410
g3
sg411
S'.162'
p547
sg413
g3
sg414
g3
sg415
g3
sg416
g3
sg18
S'PG'
p548
sg418
g3
sg419
S'.549'
p549
sg421
g3
sg422
S'.352'
p550
sg424
g3
sg24
S'NBA'
p551
sg426
g3
sg427
S'21.6'
p552
sg429
S'2.4'
p553
sg35
S'28'
p554
sg37
S'MIL'
p555
sg39
S'81'
p556
sg434
g3
sg435
S'19.3'
p557
sg437
S'6.9'
p558
sg56
S'2762'
p559
sg440
g3
sg49
S'1969-70'
p560
sg442
S'9.3'
p561
sba(isrc.gp1.models.Advanced
Advanced
p562
(dp563
g409
g3
sg410
g3
sg411
S'.115'
p564
sg413
g3
sg414
g3
sg415
S'4.7'
p565
sg416
g3
sg18
S'SG'
p566
sg418
g3
sg419
S'.514'
p567
sg421
g3
sg422
S'.279'
p568
sg424
g3
sg24
S'NBA'
p569
sg426
g3
sg427
S'14.7'
p570
sg429
S'0.7'
p571
sg35
S'29'
p572
sg37
S'CIN'
p573
sg39
S'71'
p574
sg434
g3
sg435
S'17.3'
p575
sg437
S'2.6'
p576
sg56
S'1368'
p577
sg440
g3
sg49
S'1970-71'
p578
sg442
S'3.3'
p579
sba(isrc.gp1.models.Advanced
Advanced
p580
(dp581
g409
g3
sg410
g3
sg411
S'.172'
p582
sg413
g3
sg414
g3
sg415
S'5.1'
p583
sg416
g3
sg18
S'SG'
p584
sg418
g3
sg419
S'.537'
p585
sg421
g3
sg422
S'.241'
p586
sg424
g3
sg24
S'NBA'
p587
sg426
g3
sg427
S'18.7'
p588
sg429
S'1.3'
p589
sg35
S'30'
p590
sg37
S'LAL'
p591
sg39
S'64'
p592
sg434
g3
sg435
S'17.7'
p593
sg437
S'2.3'
p594
sg56
S'1007'
p595
sg440
g3
sg49
S'1971-72'
p596
sg442
S'3.6'
p597
sba(isrc.gp1.models.Advanced
Advanced
p598
(dp599
g409
g3
sg410
g3
sg411
S'.100'
p600
sg413
g3
sg414
g3
sg415
S'4.6'
p601
sg416
g3
sg18
S'SG'
p602
sg418
g3
sg419
S'.488'
p603
sg421
g3
sg422
S'.135'
p604
sg424
g3
sg24
S'NBA'
p605
sg426
g3
sg427
S'18.9'
p606
sg429
S'0.8'
p607
sg35
S'31'
p608
sg37
S'TOT'
p609
sg39
S'44'
p610
sg434
g3
sg435
S'14.3'
p611
sg437
S'0.6'
p612
sg56
S'630'
p613
sg440
g3
sg49
S'1972-73'
p614
sg442
S'1.3'
p615
sba(isrc.gp1.models.Advanced
Advanced
p616
(dp617
g409
g3
sg410
g3
sg411
S'.219'
p618
sg413
g3
sg414
g3
sg415
S'6.8'
p619
sg416
g3
sg18
S'SG'
p620
sg418
g3
sg419
S'.539'
p621
sg421
g3
sg422
S'.286'
p622
sg424
g3
sg24
S'NBA'
p623
sg426
g3
sg427
S'26.2'
p624
sg429
S'0.1'
p625
sg35
S'31'
p626
sg37
S'LAL'
p627
sg39
g299
sg434
g3
sg435
S'20.8'
p628
sg437
S'0.1'
p629
sg56
S'47'
p630
sg440
g3
sg49
S'1972-73'
p631
sg442
S'0.2'
p632
sba(isrc.gp1.models.Advanced
Advanced
p633
(dp634
g409
g3
sg410
g3
sg411
S'.091'
p635
sg413
g3
sg414
g3
sg415
S'4.4'
p636
sg416
g3
sg18
S'SG'
p637
sg418
g3
sg419
S'.482'
p638
sg421
g3
sg422
S'.119'
p639
sg424
g3
sg24
S'NBA'
p640
sg426
g3
sg427
S'18.3'
p641
sg429
S'0.7'
p642
sg35
S'31'
p643
sg37
S'BAL'
p644
sg39
S'38'
p645
sg434
g3
sg435
S'13.8'
p646
sg437
S'0.4'
p647
sg56
S'583'
p648
sg440
g3
sg49
S'1972-73'
p649
sg442
S'1.1'
p650
sba(isrc.gp1.models.Advanced
Advanced
p651
(dp652
g409
S'3.2'
p653
sg410
S'10.3'
p654
sg411
S'.074'
p655
sg413
S'1.3'
p656
sg414
S'22.9'
p657
sg415
S'4.6'
p658
sg416
S'-2.9'
p659
sg18
S'SG'
p660
sg418
S'0.0'
p661
sg419
S'.494'
p662
sg421
S'6.0'
p663
sg422
S'.168'
p664
sg424
S'.074'
p665
sg24
S'ABA'
p666
sg426
S'0.8'
p667
sg427
S'19.8'
p668
sg429
S'0.2'
p669
sg35
S'32'
p670
sg37
S'SDA'
p671
sg39
S'49'
p672
sg434
S'0.1'
p673
sg435
S'15.5'
p674
sg437
S'1.0'
p675
sg56
S'779'
p676
sg440
S'-2.1'
p677
sg49
S'1973-74'
p678
sg442
S'1.2'
p679
sbasS'_per36Minutes'
p680
(lp681
(isrc.gp1.models.Per36Minutes
Per36Minutes
p682
(dp683
g8
g3
sg9
g3
sg10
S'.457'
p684
sg12
S'3.5'
p685
sg14
g3
sg15
g3
sg16
S'21.1'
p686
sg18
S'PG'
p687
sg20
S'.779'
p688
sg24
S'NBA'
p689
sg26
g3
sg27
S'18.9'
p690
sg29
S'6.2'
p691
sg31
S'4.9'
p692
sg33
S'4.2'
p693
sg35
S'25'
p694
sg37
S'CIN'
p695
sg39
S'76'
p696
sg41
g3
sg42
S'8.7'
p697
sg44
S'3.8'
p698
sg46
S'18.9'
p699
sg48
g3
sg49
S'1966-67'
p700
sg51
S'8.7'
p701
sg53
g3
sg54
S'.457'
p702
sg56
S'1140'
p703
sg58
g3
sba(isrc.gp1.models.Per36Minutes
Per36Minutes
p704
(dp705
g8
g3
sg9
g3
sg10
S'.440'
p706
sg12
S'3.9'
p707
sg14
g3
sg15
g3
sg16
S'20.7'
p708
sg18
S'PG'
p709
sg20
S'.821'
p710
sg24
S'NBA'
p711
sg26
g3
sg27
S'17.8'
p712
sg29
S'3.2'
p713
sg31
S'6.2'
p714
sg33
S'4.8'
p715
sg35
S'26'
p716
sg37
S'TOT'
p717
sg39
S'75'
p718
sg41
g3
sg42
S'7.8'
p719
sg44
S'5.1'
p720
sg46
S'17.8'
p721
sg48
g3
sg49
S'1967-68'
p722
sg51
S'7.8'
p723
sg53
g3
sg54
S'.440'
p724
sg56
S'2046'
p725
sg58
g3
sba(isrc.gp1.models.Per36Minutes
Per36Minutes
p726
(dp727
g8
g3
sg9
g3
sg10
S'.300'
p728
sg12
S'11.3'
p729
sg14
g3
sg15
g3
sg16
S'20.3'
p730
sg18
S'PG'
p731
sg20
S'.429'
p732
sg24
S'NBA'
p733
sg26
g3
sg27
S'22.5'
p734
sg29
S'9.0'
p735
sg31
S'15.8'
p736
sg33
S'9.0'
p737
sg35
S'26'
p738
sg37
S'CIN'
p739
sg39
g96
sg41
g3
sg42
S'6.8'
p740
sg44
S'6.8'
p741
sg46
S'22.5'
p742
sg48
g3
sg49
S'1967-68'
p743
sg51
S'6.8'
p744
sg53
g3
sg54
S'.300'
p745
sg56
S'16'
p746
sg58
g3
sba(isrc.gp1.models.Per36Minutes
Per36Minutes
p747
(dp748
g8
g3
sg9
g3
sg10
S'.441'
p749
sg12
S'3.8'
p750
sg14
g3
sg15
g3
sg16
S'20.7'
p751
sg18
S'PG'
p752
sg20
S'.828'
p753
sg24
S'NBA'
p754
sg26
g3
sg27
S'17.7'
p755
sg29
S'3.2'
p756
sg31
S'6.1'
p757
sg33
S'4.8'
p758
sg35
S'26'
p759
sg37
S'CHI'
p760
sg39
S'73'
p761
sg41
g3
sg42
S'7.8'
p762
sg44
S'5.1'
p763
sg46
S'17.7'
p764
sg48
g3
sg49
S'1967-68'
p765
sg51
S'7.8'
p766
sg53
g3
sg54
S'.441'
p767
sg56
S'2030'
p768
sg58
g3
sba(isrc.gp1.models.Per36Minutes
Per36Minutes
p769
(dp770
g8
g3
sg9
g3
sg10
S'.433'
p771
sg12
S'5.2'
p772
sg14
g3
sg15
g3
sg16
S'22.9'
p773
sg18
S'PG'
p774
sg20
S'.839'
p775
sg24
S'NBA'
p776
sg26
g3
sg27
S'19.8'
p777
sg29
S'3.6'
p778
sg31
S'6.8'
p779
sg33
S'4.2'
p780
sg35
S'27'
p781
sg37
S'TOT'
p782
sg39
S'83'
p783
sg41
g3
sg42
S'8.6'
p784
sg44
S'5.7'
p785
sg46
S'19.8'
p786
sg48
g3
sg49
S'1968-69'
p787
sg51
S'8.6'
p788
sg53
g3
sg54
S'.433'
p789
sg56
S'2616'
p790
sg58
g3
sba(isrc.gp1.models.Per36Minutes
Per36Minutes
p791
(dp792
g8
g3
sg9
g3
sg10
S'.423'
p793
sg12
S'3.7'
p794
sg14
g3
sg15
g3
sg16
S'22.5'
p795
sg18
S'PG'
p796
sg20
S'.833'
p797
sg24
S'NBA'
p798
sg26
g3
sg27
S'19.2'
p799
sg29
S'3.4'
p800
sg31
S'7.5'
p801
sg33
S'4.5'
p802
sg35
S'27'
p803
sg37
S'CHI'
p804
sg39
S'18'
p805
sg41
g3
sg42
S'8.1'
p806
sg44
S'6.2'
p807
sg46
S'19.2'
p808
sg48
g3
sg49
S'1968-69'
p809
sg51
S'8.1'
p810
sg53
g3
sg54
S'.423'
p811
sg56
S'550'
p812
sg58
g3
sba(isrc.gp1.models.Per36Minutes
Per36Minutes
p813
(dp814
g8
g3
sg9
g3
sg10
S'.436'
p815
sg12
S'5.6'
p816
sg14
g3
sg15
g3
sg16
S'23.0'
p817
sg18
S'PG'
p818
sg20
S'.841'
p819
sg24
S'NBA'
p820
sg26
g3
sg27
S'20.0'
p821
sg29
S'3.6'
p822
sg31
S'6.6'
p823
sg33
S'4.1'
p824
sg35
S'27'
p825
sg37
S'MIL'
p826
sg39
S'65'
p827
sg41
g3
sg42
S'8.7'
p828
sg44
S'5.5'
p829
sg46
S'20.0'
p830
sg48
g3
sg49
S'1968-69'
p831
sg51
S'8.7'
p832
sg53
g3
sg54
S'.436'
p833
sg56
S'2066'
p834
sg58
g3
sba(isrc.gp1.models.Per36Minutes
Per36Minutes
p835
(dp836
g8
g3
sg9
g3
sg10
S'.477'
p837
sg12
S'5.9'
p838
sg14
g3
sg15
g3
sg16
S'23.0'
p839
sg18
S'PG'
p840
sg20
S'.898'
p841
sg24
S'NBA'
p842
sg26
g3
sg27
S'18.1'
p843
sg29
S'3.3'
p844
sg31
S'6.4'
p845
sg33
S'3.4'
p846
sg35
S'28'
p847
sg37
S'MIL'
p848
sg39
S'81'
p849
sg41
g3
sg42
S'8.6'
p850
sg44
S'5.7'
p851
sg46
S'18.1'
p852
sg48
g3
sg49
S'1969-70'
p853
sg51
S'8.6'
p854
sg53
g3
sg54
S'.477'
p855
sg56
S'2762'
p856
sg58
g3
sba(isrc.gp1.models.Per36Minutes
Per36Minutes
p857
(dp858
g8
g3
sg9
g3
sg10
S'.458'
p859
sg12
S'3.6'
p860
sg14
g3
sg15
g3
sg16
S'24.8'
p861
sg18
S'SG'
p862
sg20
S'.855'
p863
sg24
S'NBA'
p864
sg26
g3
sg27
S'21.5'
p865
sg29
S'4.2'
p866
sg31
S'6.0'
p867
sg33
S'3.8'
p868
sg35
S'29'
p869
sg37
S'CIN'
p870
sg39
S'71'
p871
sg41
g3
sg42
S'9.8'
p872
sg44
S'5.1'
p873
sg46
S'21.5'
p874
sg48
g3
sg49
S'1970-71'
p875
sg51
S'9.8'
p876
sg53
g3
sg54
S'.458'
p877
sg56
S'1368'
p878
sg58
g3
sba(isrc.gp1.models.Per36Minutes
Per36Minutes
p879
(dp880
g8
g3
sg9
g3
sg10
S'.490'
p881
sg12
S'4.9'
p882
sg14
g3
sg15
g3
sg16
S'22.7'
p883
sg18
S'SG'
p884
sg20
S'.860'
p885
sg24
S'NBA'
p886
sg26
g3
sg27
S'19.1'
p887
sg29
S'5.0'
p888
sg31
S'4.6'
p889
sg33
S'4.1'
p890
sg35
S'30'
p891
sg37
S'LAL'
p892
sg39
S'64'
p893
sg41
g3
sg42
S'9.4'
p894
sg44
S'4.0'
p895
sg46
S'19.1'
p896
sg48
g3
sg49
S'1971-72'
p897
sg51
S'9.4'
p898
sg53
g3
sg54
S'.490'
p899
sg56
S'1007'
p900
sg58
g3
sba(isrc.gp1.models.Per36Minutes
Per36Minutes
p901
(dp902
g8
g3
sg9
g3
sg10
S'.462'
p903
sg12
S'4.9'
p904
sg14
g3
sg15
g3
sg16
S'17.0'
p905
sg18
S'SG'
p906
sg20
S'.821'
p907
sg24
S'NBA'
p908
sg26
g3
sg27
S'16.5'
p909
sg29
S'4.1'
p910
sg31
S'2.2'
p911
sg33
S'3.5'
p912
sg35
S'31'
p913
sg37
S'TOT'
p914
sg39
S'44'
p915
sg41
g3
sg42
S'7.6'
p916
sg44
S'1.8'
p917
sg46
S'16.5'
p918
sg48
g3
sg49
S'1972-73'
p919
sg51
S'7.6'
p920
sg53
g3
sg54
S'.462'
p921
sg56
S'630'
p922
sg58
g3
sba(isrc.gp1.models.Per36Minutes
Per36Minutes
p923
(dp924
g8
g3
sg9
g3
sg10
S'.500'
p925
sg12
S'6.1'
p926
sg14
g3
sg15
g3
sg16
S'26.0'
p927
sg18
S'SG'
p928
sg20
S'.750'
p929
sg24
S'NBA'
p930
sg26
g3
sg27
S'21.4'
p931
sg29
S'8.4'
p932
sg31
S'6.1'
p933
sg33
S'5.4'
p934
sg35
S'31'
p935
sg37
S'LAL'
p936
sg39
g299
sg41
g3
sg42
S'10.7'
p937
sg44
S'4.6'
p938
sg46
S'21.4'
p939
sg48
g3
sg49
S'1972-73'
p940
sg51
S'10.7'
p941
sg53
g3
sg54
S'.500'
p942
sg56
S'47'
p943
sg58
g3
sba(isrc.gp1.models.Per36Minutes
Per36Minutes
p944
(dp945
g8
g3
sg9
g3
sg10
S'.458'
p946
sg12
S'4.8'
p947
sg14
g3
sg15
g3
sg16
S'16.3'
p948
sg18
S'SG'
p949
sg20
S'.839'
p950
sg24
S'NBA'
p951
sg26
g3
sg27
S'16.1'
p952
sg29
S'3.7'
p953
sg31
S'1.9'
p954
sg33
S'3.4'
p955
sg35
S'31'
p956
sg37
S'BAL'
p957
sg39
S'38'
p958
sg41
g3
sg42
S'7.3'
p959
sg44
S'1.6'
p960
sg46
S'16.1'
p961
sg48
g3
sg49
S'1972-73'
p962
sg51
S'7.3'
p963
sg53
g3
sg54
S'.458'
p964
sg56
S'583'
p965
sg58
g3
sba(isrc.gp1.models.Per36Minutes
Per36Minutes
p966
(dp967
g8
S'1.3'
p968
sg9
S'1.4'
p969
sg10
S'.457'
p970
sg12
S'5.2'
p971
sg14
S'.267'
p972
sg15
S'0.4'
p973
sg16
S'19.9'
p974
sg18
S'SG'
p975
sg20
S'.765'
p976
sg24
S'ABA'
p977
sg26
S'1.1'
p978
sg27
S'18.7'
p979
sg29
S'3.3'
p980
sg31
S'3.1'
p981
sg33
S'3.6'
p982
sg35
S'32'
p983
sg37
S'SDA'
p984
sg39
S'49'
p985
sg41
S'0.1'
p986
sg42
S'8.2'
p987
sg44
S'2.4'
p988
sg46
S'17.3'
p989
sg48
S'2.3'
p990
sg49
S'1973-74'
p991
sg51
S'8.5'
p992
sg53
S'2.3'
p993
sg54
S'.472'
p994
sg56
S'779'
p995
sg58
g3
sbasS'_fromYear'
p996
S'1967'
p997
sS'_url'
p998
S'http://www.basketball-reference.com/players/r/robinfl01.html'
p999
sS'_perGame'
p1000
(isrc.gp1.models.PerGame
PerGame
p1001
(dp1002
g8
S'0.6'
p1003
sg9
S'0.6'
p1004
sg10
S'.457'
p1005
sS'_effectiveFieldGalPercentage'
p1006
S'.467'
p1007
sg12
S'2.3'
p1008
sg14
S'.267'
p1009
sg15
S'0.2'
p1010
sg16
S'8.8'
p1011
sg18
S'SG'
p1012
sg20
S'.765'
p1013
sg24
S'ABA'
p1014
sg26
S'0.5'
p1015
sg29
S'1.5'
p1016
sS'_fieldGoalsttempted'
p1017
S'8.3'
p1018
sg31
S'1.4'
p1019
sg33
S'1.6'
p1020
sg35
S'32'
p1021
sg37
S'SDA'
p1022
sg39
S'49'
p1023
sg41
S'0.0'
p1024
sg42
S'3.6'
p1025
sg44
S'1.1'
p1026
sg46
S'7.7'
p1027
sg48
S'1.0'
p1028
sg49
S'1973-74'
p1029
sg51
S'3.8'
p1030
sg53
S'1.0'
p1031
sg54
S'.472'
p1032
sg56
S'15.9'
p1033
sg58
g3
sbsS'_weight'
p1034
S'185'
p1035
sS'_dob'
p1036
S'28-4-1941'
p1037
sS'_salary'
p1038
(lp1039
sg18
S'G'
p1040
sb.