(isrc.gp1.models.Player
Player
p0
(dp1
S'_experience'
p2
S'NA'
p3
sS'_totals'
p4
(lp5
(isrc.gp1.models.Totals
Totals
p6
(dp7
S'_offensiveRebounds'
p8
S'9'
p9
sS'_threePointsAttempted'
p10
S'4'
p11
sS'_fieldGoalsPercentage'
p12
S'0'
p13
sS'_assist'
p14
S'11'
p15
sS'_threePointsPercentage'
p16
S'14'
p17
sS'_threePoints'
p18
g13
sS'_points'
p19
g3
sS'_position'
p20
S'C'
p21
sS'_freeThrowsPercentage'
p22
g9
sS'_effectiveFieldGoalPercentage'
p23
S'3'
p24
sS'_league'
p25
S'TOT'
p26
sS'_steals'
p27
g9
sS'_fieldGoalsAttempted'
p28
S'.286'
p29
sS'_personalFouls'
p30
g3
sS'_freeThrowsAttempted'
p31
g13
sS'_totalRebounds'
p32
g13
sS'_age'
p33
S'22'
p34
sS'_team'
p35
S'TOT'
p36
sS'_games'
p37
g9
sS'_blocks'
p38
g3
sS'_twoPoints'
p39
S'.286'
p40
sS'_freeThrows'
p41
S'.333'
p42
sS'_twoPointsAttempted'
p43
S'.286'
p44
sS'_defensiveRebounds'
p45
g13
sS'_season'
p46
S'1968-69'
p47
sS'_fieldGoals'
p48
S'14'
p49
sS'_turnOvers'
p50
g3
sS'_twoPointsPercentage'
p51
S'1'
p52
sS'_minutesPlayed'
p53
g11
sS'_gamesStarted'
p54
S'43'
p55
sba(isrc.gp1.models.Totals
Totals
p56
(dp57
g8
g3
sg10
S'.286'
p58
sg12
S'14'
p59
sg14
g3
sg16
g52
sg18
S'.286'
p60
sg19
g3
sg20
S'8'
p61
sg22
g3
sg23
g13
sg25
S'NBA'
p62
sg27
g3
sg28
g11
sg30
g3
sg31
g9
sg32
g3
sg33
S'22'
p63
sg35
S'PHO'
p64
sg37
S'40'
p65
sg38
g3
sg39
g24
sg41
S'10'
p66
sg43
S'.333'
p67
sg45
g3
sg46
S'1968-69'
p68
sg48
S'.286'
p69
sg50
g3
sg51
g9
sg53
S'14'
p70
sg54
g11
sba(isrc.gp1.models.Totals
Totals
p71
(dp72
g8
g13
sg10
g13
sg12
g13
sg14
g3
sg16
g13
sg18
g13
sg19
g3
sg20
g21
sg22
g52
sg23
g13
sg25
S'ABA'
p73
sg27
g3
sg28
g13
sg30
g3
sg31
g13
sg32
g3
sg33
S'22'
p74
sg35
S'NYA'
p75
sg37
g52
sg38
g3
sg39
g13
sg41
g13
sg43
g13
sg45
g3
sg46
S'1968-69'
p76
sg48
g13
sg50
g3
sg51
g13
sg53
g13
sg54
g24
sbasS'_college'
p77
S'Davidson College'
p78
sS'_toYear'
p79
S'1969'
p80
sS'_height'
p81
S'6-9'
p82
sS'_active'
p83
I00
sS'_shootingHand'
p84
VRight
p85
sS'_name'
p86
S'Rod Knowles'
p87
sS'_per100Possessions'
p88
(lp89
sS'_advanced'
p90
(lp91
(isrc.gp1.models.Advanced
Advanced
p92
(dp93
S'_offensiveReboundPercentage'
p94
S'0.0'
p95
sS'_turnOverPercentage'
p96
S'-0.137'
p97
sS'_winSharesPer48Minutes'
p98
g3
sS'_stealPercentage'
p99
S'0.0'
p100
sS'_usagePercentage'
p101
g3
sS'_totalReboundsPercentage'
p102
S'0.0'
p103
sS'_defensiveBoxPlusMinus'
p104
g3
sg20
g21
sS'_valueOverReplacementPlayer'
p105
g3
sS'_trueShootingPercentage'
p106
S'.294'
p107
sS'_defensiveReboundPercentage'
p108
S'0.0'
p109
sS'_freeThrowsAttempRate'
p110
S'.214'
p111
sS'_threePointsAttempRate'
p112
S'.000'
p113
sg25
S'TOT'
p114
sS'_offensiveBoxPlusMinues'
p115
g3
sS'_assistPercentage'
p116
S'-0.1'
p117
sS'_defensiveWinShares'
p118
g3
sg33
S'22'
p119
sg35
S'TOT'
p120
sg37
g9
sS'_blockPercentage'
p121
S'-0.1'
p122
sS'_playerEfficiencyRating'
p123
S'-0.6'
p124
sS'_offensiveWinShares'
p125
g3
sg53
S'43'
p126
sS'_boxPlusMinus'
p127
g3
sg46
S'1968-69'
p128
sS'_winShares'
p129
g3
sba(isrc.gp1.models.Advanced
Advanced
p130
(dp131
g94
S'0.0'
p132
sg96
g3
sg98
g3
sg99
g3
sg101
g3
sg102
S'-0.148'
p133
sg104
g3
sg20
g61
sg105
g3
sg106
S'.214'
p134
sg108
S'-0.1'
p135
sg110
S'-0.1'
p136
sg112
S'0.0'
p137
sg25
S'NBA'
p138
sg115
g3
sg116
g3
sg118
g3
sg33
S'22'
p139
sg35
S'PHO'
p140
sg37
S'40'
p141
sg121
g3
sg123
S'.294'
p142
sg125
g3
sg53
S'-0.1'
p143
sg127
g3
sg46
S'1968-69'
p144
sg129
g3
sba(isrc.gp1.models.Advanced
Advanced
p145
(dp146
g94
S'0.0'
p147
sg96
g3
sg98
g3
sg99
g3
sg101
g3
sg102
S'0.0'
p148
sg104
g3
sg20
g21
sg105
g3
sg106
S'0.0'
p149
sg108
S'0.0'
p150
sg110
S'0.0'
p151
sg112
S'0.0'
p152
sg25
S'ABA'
p153
sg115
g3
sg116
S'.007'
p154
sg118
g3
sg33
S'22'
p155
sg35
S'NYA'
p156
sg37
g52
sg121
g3
sg123
S'-7.0'
p157
sg125
g3
sg53
g24
sg127
g3
sg46
S'1968-69'
p158
sg129
g3
sbasS'_per36Minutes'
p159
(lp160
(isrc.gp1.models.Per36Minutes
Per36Minutes
p161
(dp162
g8
S'7.5'
p163
sg10
S'3.3'
p164
sg12
S'0.0'
p165
sg14
S'9.2'
p166
sg16
S'11.7'
p167
sg18
S'0.0'
p168
sg19
g3
sg20
g21
sg22
S'0.0'
p169
sg25
S'TOT'
p170
sg27
S'7.5'
p171
sg28
S'.286'
p172
sg30
g3
sg31
S'0.0'
p173
sg32
S'0.0'
p174
sg33
S'22'
p175
sg35
S'TOT'
p176
sg37
g9
sg38
g3
sg39
S'.286'
p177
sg41
S'.333'
p178
sg43
S'0.8'
p179
sg45
S'0.0'
p180
sg46
S'1968-69'
p181
sg48
S'11.7'
p182
sg50
g3
sg51
S'2.5'
p183
sg53
S'3.3'
p184
sg54
S'43'
p185
sba(isrc.gp1.models.Per36Minutes
Per36Minutes
p186
(dp187
g8
g3
sg10
S'0.9'
p188
sg12
S'12.6'
p189
sg14
g3
sg16
S'2.7'
p190
sg18
S'.286'
p191
sg19
g3
sg20
g61
sg22
g3
sg25
S'NBA'
p192
sg27
g3
sg28
S'3.6'
p193
sg30
g3
sg31
S'8.1'
p194
sg32
g3
sg33
S'22'
p195
sg35
S'PHO'
p196
sg37
S'40'
p197
sg38
g3
sg39
S'.333'
p198
sg41
S'9.0'
p199
sg43
S'8.1'
p200
sg45
g3
sg46
S'1968-69'
p201
sg48
S'.286'
p202
sg50
g3
sg51
S'0.0'
p203
sg53
S'12.6'
p204
sg54
S'3.6'
p205
sba(isrc.gp1.models.Per36Minutes
Per36Minutes
p206
(dp207
g8
S'12.0'
p208
sg10
S'0.0'
p209
sg12
S'0.0'
p210
sg14
g3
sg16
S'0.0'
p211
sg18
S'0.0'
p212
sg19
g3
sg20
g21
sg22
S'0.0'
p213
sg25
S'ABA'
p214
sg27
g3
sg28
S'0.0'
p215
sg30
g3
sg31
S'0.0'
p216
sg32
g3
sg33
S'22'
p217
sg35
S'NYA'
p218
sg37
g52
sg38
g3
sg39
S'0.0'
p219
sg41
S'0.0'
p220
sg43
S'0.0'
p221
sg45
S'0.0'
p222
sg46
S'1968-69'
p223
sg48
S'0.0'
p224
sg50
g3
sg51
S'0.0'
p225
sg53
S'0.0'
p226
sg54
g24
sbasS'_fromYear'
p227
S'1969'
p228
sS'_url'
p229
S'http://www.basketball-reference.com/players/k/knowlro01.html'
p230
sS'_perGame'
p231
(isrc.gp1.models.PerGame
PerGame
p232
(dp233
g8
S'0.0'
p234
sg10
S'0.0'
p235
sg12
S'0.0'
p236
sS'_effectiveFieldGalPercentage'
p237
S'0.0'
p238
sg14
g3
sg16
S'0.0'
p239
sg18
S'0.0'
p240
sg19
g3
sg20
g21
sg22
S'1.0'
p241
sg25
S'ABA'
p242
sg27
g3
sg30
g3
sS'_fieldGoalsttempted'
p243
S'0.0'
p244
sg31
S'0.0'
p245
sg32
g3
sg33
S'22'
p246
sg35
S'NYA'
p247
sg37
g52
sg38
g3
sg39
S'0.0'
p248
sg41
S'0.0'
p249
sg43
S'0.0'
p250
sg45
g3
sg46
S'1968-69'
p251
sg48
S'0.0'
p252
sg50
g3
sg51
S'0.0'
p253
sg53
S'0.0'
p254
sg54
S'3.0'
p255
sbsS'_weight'
p256
S'215'
p257
sS'_dob'
p258
S'27-2-1946'
p259
sS'_salary'
p260
(lp261
sg20
S'F-C'
p262
sb.