(isrc.gp1.models.Player
Player
p0
(dp1
S'_experience'
p2
S'NA'
p3
sS'_totals'
p4
(lp5
(isrc.gp1.models.Totals
Totals
p6
(dp7
S'_offensiveRebounds'
p8
g3
sS'_threePointsAttempted'
p9
S'.333'
p10
sS'_fieldGoalsPercentage'
p11
S'3'
p12
sS'_assist'
p13
g3
sS'_threePointsPercentage'
p14
S'0'
p15
sS'_threePoints'
p16
S'.333'
p17
sS'_points'
p18
g3
sS'_position'
p19
S'1'
p20
sS'_freeThrowsPercentage'
p21
g3
sS'_effectiveFieldGoalPercentage'
p22
g20
sS'_league'
p23
S'NBA'
p24
sS'_steals'
p25
g3
sS'_fieldGoalsAttempted'
p26
g20
sS'_personalFouls'
p27
g3
sS'_freeThrowsAttempted'
p28
g3
sS'_totalRebounds'
p29
g3
sS'_age'
p30
S'23'
p31
sS'_team'
p32
S'BAL'
p33
sS'_games'
p34
S'4'
p35
sS'_blocks'
p36
g3
sS'_twoPoints'
p37
g15
sS'_freeThrows'
p38
S'2'
p39
sS'_twoPointsAttempted'
p40
g15
sS'_defensiveRebounds'
p41
g3
sS'_season'
p42
S'1963-64'
p43
sS'_fieldGoals'
p44
S'.333'
p45
sS'_turnOvers'
p46
g3
sS'_twoPointsPercentage'
p47
g15
sS'_minutesPlayed'
p48
g12
sS'_gamesStarted'
p49
g20
sbasS'_college'
p50
S'Jacksonville University'
p51
sS'_toYear'
p52
S'1964'
p53
sS'_height'
p54
S'6-5'
p55
sS'_active'
p56
I00
sS'_shootingHand'
p57
VRight
p58
sS'_name'
p59
S'Roger Strickland'
p60
sS'_per100Possessions'
p61
(lp62
sS'_advanced'
p63
(lp64
(isrc.gp1.models.Advanced
Advanced
p65
(dp66
S'_offensiveReboundPercentage'
p67
S'0.0'
p68
sS'_turnOverPercentage'
p69
g3
sS'_winSharesPer48Minutes'
p70
g3
sS'_stealPercentage'
p71
g3
sS'_usagePercentage'
p72
g3
sS'_totalReboundsPercentage'
p73
g3
sS'_defensiveBoxPlusMinus'
p74
g3
sg19
g20
sS'_valueOverReplacementPlayer'
p75
g3
sS'_trueShootingPercentage'
p76
S'.000'
p77
sS'_defensiveReboundPercentage'
p78
S'-0.224'
p79
sS'_freeThrowsAttempRate'
p80
S'0.0'
p81
sS'_threePointsAttempRate'
p82
S'0.0'
p83
sg23
S'NBA'
p84
sS'_offensiveBoxPlusMinues'
p85
g3
sS'_assistPercentage'
p86
g3
sS'_defensiveWinShares'
p87
g3
sg30
S'23'
p88
sg32
S'BAL'
p89
sg34
g35
sS'_blockPercentage'
p90
g3
sS'_playerEfficiencyRating'
p91
S'.333'
p92
sS'_offensiveWinShares'
p93
g3
sg48
S'-0.1'
p94
sS'_boxPlusMinus'
p95
g3
sg42
S'1963-64'
p96
sS'_winShares'
p97
g3
sbasS'_per36Minutes'
p98
(lp99
(isrc.gp1.models.Per36Minutes
Per36Minutes
p100
(dp101
g8
g3
sg9
S'0.0'
p102
sg11
S'27.0'
p103
sg13
g3
sg14
S'0.0'
p104
sg16
S'.333'
p105
sg18
g3
sg19
g20
sg21
g3
sg23
S'NBA'
p106
sg25
g3
sg26
S'9.0'
p107
sg27
g3
sg28
g3
sg29
g3
sg30
S'23'
p108
sg32
S'BAL'
p109
sg34
g35
sg36
g3
sg37
S'0.0'
p110
sg38
S'18.0'
p111
sg40
S'0.0'
p112
sg41
g3
sg42
S'1963-64'
p113
sg44
S'.333'
p114
sg46
g3
sg47
S'9.0'
p115
sg48
S'27.0'
p116
sg49
S'9.0'
p117
sbasS'_fromYear'
p118
S'1964'
p119
sS'_url'
p120
S'http://www.basketball-reference.com/players/s/stricro01.html'
p121
sS'_perGame'
p122
(isrc.gp1.models.PerGame
PerGame
p123
(dp124
g8
g3
sg9
S'.333'
p125
sg11
S'3.0'
p126
sS'_effectiveFieldGalPercentage'
p127
S'1.0'
p128
sg13
g3
sg14
S'0.0'
p129
sg16
S'.333'
p130
sg18
g3
sg19
g20
sg21
g3
sg23
S'NBA'
p131
sg25
g3
sg27
g3
sS'_fieldGoalsttempted'
p132
S'1.0'
p133
sg28
g3
sg29
g3
sg30
S'23'
p134
sg32
S'BAL'
p135
sg34
S'4.0'
p136
sg36
g3
sg37
S'0.0'
p137
sg38
S'2.0'
p138
sg40
S'0.0'
p139
sg41
g3
sg42
S'1963-64'
p140
sg44
S'.333'
p141
sg46
g3
sg47
S'0.0'
p142
sg48
S'3.0'
p143
sg49
S'1.0'
p144
sbsS'_weight'
p145
S'200'
p146
sS'_dob'
p147
S'4-9-1940'
p148
sS'_salary'
p149
(lp150
sg19
S'F'
p151
sb.