(isrc.gp1.models.Player
Player
p0
(dp1
S'_experience'
p2
S'NA'
p3
sS'_totals'
p4
(lp5
(isrc.gp1.models.Totals
Totals
p6
(dp7
S'_offensiveRebounds'
p8
S'5'
p9
sS'_threePointsAttempted'
p10
g3
sS'_fieldGoalsPercentage'
p11
S'.359'
p12
sS'_assist'
p13
S'15'
p14
sS'_threePointsPercentage'
p15
g3
sS'_threePoints'
p16
g3
sS'_points'
p17
S'80'
p18
sS'_position'
p19
S'SG'
p20
sS'_freeThrowsPercentage'
p21
S'.828'
p22
sS'_effectiveFieldGoalPercentage'
p23
S'.359'
p24
sS'_league'
p25
S'NBA'
p26
sS'_steals'
p27
g9
sS'_fieldGoalsAttempted'
p28
S'78'
p29
sS'_personalFouls'
p30
S'21'
p31
sS'_freeThrowsAttempted'
p32
S'29'
p33
sS'_totalRebounds'
p34
S'22'
p35
sS'_age'
p36
S'22'
p37
sS'_team'
p38
S'WSB'
p39
sS'_games'
p40
S'29'
p41
sS'_blocks'
p42
S'2'
p43
sS'_twoPoints'
p44
S'28'
p45
sS'_freeThrows'
p46
S'24'
p47
sS'_twoPointsAttempted'
p48
S'78'
p49
sS'_defensiveRebounds'
p50
S'17'
p51
sS'_season'
p52
S'1978-79'
p53
sS'_fieldGoals'
p54
S'28'
p55
sS'_turnOvers'
p56
S'17'
p57
sS'_twoPointsPercentage'
p58
S'.359'
p59
sS'_minutesPlayed'
p60
S'153'
p61
sS'_gamesStarted'
p62
g3
sba(isrc.gp1.models.Totals
Totals
p63
(dp64
g8
S'75'
p65
sg10
S'9'
p66
sg11
S'.477'
p67
sg13
S'102'
p68
sg15
S'.444'
p69
sg16
S'4'
p70
sg17
S'881'
p71
sg19
S'SG'
p72
sg21
S'.872'
p73
sg23
S'.480'
p74
sg25
S'NBA'
p75
sg27
S'34'
p76
sg28
S'733'
p77
sg30
S'158'
p78
sg32
S'203'
p79
sg34
S'185'
p80
sg36
S'23'
p81
sg38
S'TOT'
p82
sg40
S'78'
p83
sg42
S'7'
p84
sg44
S'346'
p85
sg46
S'177'
p86
sg48
S'724'
p87
sg50
S'110'
p88
sg52
S'1979-80'
p89
sg54
S'350'
p90
sg56
S'119'
p91
sg58
S'.478'
p92
sg60
S'1512'
p93
sg62
g3
sba(isrc.gp1.models.Totals
Totals
p94
(dp95
g8
S'49'
p96
sg10
g9
sg11
S'.474'
p97
sg13
S'70'
p98
sg15
S'.400'
p99
sg16
g43
sg17
S'554'
p100
sg19
S'SG'
p101
sg21
S'.867'
p102
sg23
S'.476'
p103
sg25
S'NBA'
p104
sg27
S'19'
p105
sg28
S'473'
p106
sg30
S'106'
p107
sg32
S'120'
p108
sg34
S'115'
p109
sg36
S'23'
p110
sg38
S'WSB'
p111
sg40
S'50'
p112
sg42
S'3'
p113
sg44
S'222'
p114
sg46
S'104'
p115
sg48
S'468'
p116
sg50
S'66'
p117
sg52
S'1979-80'
p118
sg54
S'224'
p119
sg56
S'70'
p120
sg58
S'.474'
p121
sg60
S'971'
p122
sg62
g3
sba(isrc.gp1.models.Totals
Totals
p123
(dp124
g8
S'26'
p125
sg10
g70
sg11
S'.485'
p126
sg13
S'32'
p127
sg15
S'.500'
p128
sg16
g43
sg17
S'327'
p129
sg19
S'SG'
p130
sg21
S'.880'
p131
sg23
S'.488'
p132
sg25
S'NBA'
p133
sg27
S'15'
p134
sg28
S'260'
p135
sg30
S'52'
p136
sg32
S'83'
p137
sg34
S'70'
p138
sg36
S'23'
p139
sg38
S'NJN'
p140
sg40
S'28'
p141
sg42
g70
sg44
S'124'
p142
sg46
S'73'
p143
sg48
S'256'
p144
sg50
S'44'
p145
sg52
S'1979-80'
p146
sg54
S'126'
p147
sg56
S'49'
p148
sg58
S'.484'
p149
sg60
S'541'
p150
sg62
g3
sba(isrc.gp1.models.Totals
Totals
p151
(dp152
g8
S'90'
p153
sg10
S'28'
p154
sg11
S'.491'
p155
sg13
S'184'
p156
sg15
S'.286'
p157
sg16
S'8'
p158
sg17
S'1180'
p159
sg19
S'SG'
p160
sg21
S'.839'
p161
sg23
S'.495'
p162
sg25
S'NBA'
p163
sg27
S'65'
p164
sg28
S'965'
p165
sg30
S'262'
p166
sg32
S'267'
p167
sg34
S'246'
p168
sg36
S'24'
p169
sg38
S'CLE'
p170
sg40
S'82'
p171
sg42
S'15'
p172
sg44
S'466'
p173
sg46
S'224'
p174
sg48
S'937'
p175
sg50
S'156'
p176
sg52
S'1980-81'
p177
sg54
S'474'
p178
sg56
S'165'
p179
sg58
S'.497'
p180
sg60
S'2269'
p181
sg62
g3
sba(isrc.gp1.models.Totals
Totals
p182
(dp183
g8
S'61'
p184
sg10
S'31'
p185
sg11
S'.460'
p186
sg13
S'114'
p187
sg15
S'.161'
p188
sg16
g9
sg17
S'556'
p189
sg19
S'SG'
p190
sg21
S'.780'
p191
sg23
S'.464'
p192
sg25
S'NBA'
p193
sg27
S'36'
p194
sg28
S'507'
p195
sg30
S'152'
p196
sg32
S'109'
p197
sg34
S'154'
p198
sg36
S'25'
p199
sg38
S'TOT'
p200
sg40
S'81'
p201
sg42
g158
sg44
S'228'
p202
sg46
S'85'
p203
sg48
S'476'
p204
sg50
S'93'
p205
sg52
S'1981-82'
p206
sg54
S'233'
p207
sg56
S'66'
p208
sg58
S'.479'
p209
sg60
S'1183'
p210
sg62
g66
sba(isrc.gp1.models.Totals
Totals
p211
(dp212
g8
S'28'
p213
sg10
S'13'
p214
sg11
S'.486'
p215
sg13
S'53'
p216
sg15
S'.308'
p217
sg16
g70
sg17
S'248'
p218
sg19
S'SG'
p219
sg21
S'.800'
p220
sg23
S'.495'
p221
sg25
S'NBA'
p222
sg27
S'16'
p223
sg28
S'214'
p224
sg30
S'61'
p225
sg32
S'45'
p226
sg34
S'71'
p227
sg36
S'25'
p228
sg38
S'CLE'
p229
sg40
S'27'
p230
sg42
g43
sg44
S'100'
p231
sg46
S'36'
p232
sg48
S'201'
p233
sg50
S'43'
p234
sg52
S'1981-82'
p235
sg54
S'104'
p236
sg56
S'33'
p237
sg58
S'.498'
p238
sg60
S'566'
p239
sg62
g158
sba(isrc.gp1.models.Totals
Totals
p240
(dp241
g8
S'33'
p242
sg10
S'18'
p243
sg11
S'.440'
p244
sg13
S'61'
p245
sg15
S'.056'
p246
sg16
S'1'
p247
sg17
S'308'
p248
sg19
S'SG'
p249
sg21
S'.766'
p250
sg23
S'.442'
p251
sg25
S'NBA'
p252
sg27
S'20'
p253
sg28
S'293'
p254
sg30
S'91'
p255
sg32
S'64'
p256
sg34
S'83'
p257
sg36
S'25'
p258
sg38
S'SAS'
p259
sg40
S'54'
p260
sg42
S'6'
p261
sg44
S'128'
p262
sg46
S'49'
p263
sg48
S'275'
p264
sg50
S'50'
p265
sg52
S'1981-82'
p266
sg54
S'129'
p267
sg56
S'33'
p268
sg58
S'.465'
p269
sg60
S'617'
p270
sg62
g247
sba(isrc.gp1.models.Totals
Totals
p271
(dp272
g8
S'39'
p273
sg10
S'14'
p274
sg11
S'.449'
p275
sg13
S'60'
p276
sg15
S'.214'
p277
sg16
g113
sg17
S'286'
p278
sg19
S'SG'
p279
sg21
S'.768'
p280
sg23
S'.455'
p281
sg25
S'NBA'
p282
sg27
S'30'
p283
sg28
S'267'
p284
sg30
S'92'
p285
sg32
S'56'
p286
sg34
S'84'
p287
sg36
S'26'
p288
sg38
S'SAS'
p289
sg40
S'62'
p290
sg42
g158
sg44
S'117'
p291
sg46
S'43'
p292
sg48
S'253'
p293
sg50
S'45'
p294
sg52
S'1982-83'
p295
sg54
S'120'
p296
sg56
S'49'
p297
sg58
S'.462'
p298
sg60
S'599'
p299
sg62
g70
sba(isrc.gp1.models.Totals
Totals
p300
(dp301
g8
g43
sg10
g9
sg11
S'.314'
p302
sg13
S'11'
p303
sg15
S'.400'
p304
sg16
g43
sg17
S'28'
p305
sg19
S'SG'
p306
sg21
S'1.000'
p307
sg23
S'.343'
p308
sg25
S'NBA'
p309
sg27
g247
sg28
S'35'
p310
sg30
S'11'
p311
sg32
g70
sg34
S'11'
p312
sg36
S'27'
p313
sg38
S'TOT'
p314
sg40
S'13'
p315
sg42
S'0'
p316
sg44
g66
sg46
g70
sg48
S'30'
p317
sg50
g66
sg52
S'1983-84'
p318
sg54
S'11'
p319
sg56
g261
sg58
S'.300'
p320
sg60
S'87'
p321
sg62
g316
sba(isrc.gp1.models.Totals
Totals
p322
(dp323
g8
g316
sg10
g247
sg11
S'.500'
p324
sg13
g43
sg15
S'1.000'
p325
sg16
g247
sg17
g84
sg19
S'SG'
p326
sg21
S'1.000'
p327
sg23
S'.625'
p328
sg25
S'NBA'
p329
sg27
g316
sg28
g70
sg30
g247
sg32
g43
sg34
g43
sg36
S'27'
p330
sg38
S'SAS'
p331
sg40
g113
sg42
g316
sg44
g247
sg46
g43
sg48
g113
sg50
g43
sg52
S'1983-84'
p332
sg54
g43
sg56
g247
sg58
S'.333'
p333
sg60
S'11'
p334
sg62
g316
sba(isrc.gp1.models.Totals
Totals
p335
(dp336
g8
g43
sg10
g70
sg11
S'.290'
p337
sg13
g66
sg15
S'.250'
p338
sg16
g247
sg17
S'21'
p339
sg19
S'SG'
p340
sg21
S'1.000'
p341
sg23
S'.306'
p342
sg25
S'NBA'
p343
sg27
g247
sg28
S'31'
p344
sg30
S'10'
p345
sg32
g43
sg34
g66
sg36
S'27'
p346
sg38
S'DAL'
p347
sg40
S'10'
p348
sg42
g316
sg44
g158
sg46
g43
sg48
S'27'
p349
sg50
g84
sg52
S'1983-84'
p350
sg54
g66
sg56
g9
sg58
S'.296'
p351
sg60
S'76'
p352
sg62
g316
sbasS'_college'
p353
S'Bradley University'
p354
sS'_toYear'
p355
S'1984'
p356
sS'_height'
p357
S'6-6'
p358
sS'_active'
p359
I00
sS'_shootingHand'
p360
VRight
p361
sS'_name'
p362
S'Roger Phegley'
p363
sS'_per100Possessions'
p364
(lp365
(isrc.gp1.models.Per100Possession
Per100Possession
p366
(dp367
g8
S'1.5'
p368
sg10
g3
sg11
S'.359'
p369
sS'_offensiveRating'
p370
S'89'
p371
sg13
S'4.4'
p372
sg15
g3
sg16
g3
sg17
S'23.6'
p373
sg19
S'SG'
p374
sS'_defensiveRating'
p375
S'104'
p376
sg21
S'.828'
p377
sg25
S'NBA'
p378
sg27
S'1.5'
p379
sg28
S'23.0'
p380
sg30
S'6.2'
p381
sg32
S'8.5'
p382
sg34
S'6.5'
p383
sg36
S'22'
p384
sg38
S'WSB'
p385
sg40
S'29'
p386
sg42
S'0.6'
p387
sg44
S'8.2'
p388
sg46
S'7.1'
p389
sg48
S'23.0'
p390
sg50
S'5.0'
p391
sg52
S'1978-79'
p392
sg54
S'8.2'
p393
sg56
S'5.0'
p394
sg58
S'.359'
p395
sg60
S'153'
p396
sg62
g3
sba(isrc.gp1.models.Per100Possession
Per100Possession
p397
(dp398
g8
S'2.3'
p399
sg10
S'0.3'
p400
sg11
S'.477'
p401
sg370
S'104'
p402
sg13
S'3.1'
p403
sg15
S'.444'
p404
sg16
S'0.1'
p405
sg17
S'26.9'
p406
sg19
S'SG'
p407
sg375
S'108'
p408
sg21
S'.872'
p409
sg25
S'NBA'
p410
sg27
S'1.0'
p411
sg28
S'22.4'
p412
sg30
S'4.8'
p413
sg32
S'6.2'
p414
sg34
S'5.7'
p415
sg36
S'23'
p416
sg38
S'TOT'
p417
sg40
S'78'
p418
sg42
S'0.2'
p419
sg44
S'10.6'
p420
sg46
S'5.4'
p421
sg48
S'22.1'
p422
sg50
S'3.4'
p423
sg52
S'1979-80'
p424
sg54
S'10.7'
p425
sg56
S'3.6'
p426
sg58
S'.478'
p427
sg60
S'1512'
p428
sg62
g3
sba(isrc.gp1.models.Per100Possession
Per100Possession
p429
(dp430
g8
S'2.4'
p431
sg10
S'0.2'
p432
sg11
S'.474'
p433
sg370
S'105'
p434
sg13
S'3.4'
p435
sg15
S'.400'
p436
sg16
S'0.1'
p437
sg17
S'26.7'
p438
sg19
S'SG'
p439
sg375
S'109'
p440
sg21
S'.867'
p441
sg25
S'NBA'
p442
sg27
S'0.9'
p443
sg28
S'22.8'
p444
sg30
S'5.1'
p445
sg32
S'5.8'
p446
sg34
S'5.5'
p447
sg36
S'23'
p448
sg38
S'WSB'
p449
sg40
S'50'
p450
sg42
S'0.1'
p451
sg44
S'10.7'
p452
sg46
S'5.0'
p453
sg48
S'22.5'
p454
sg50
S'3.2'
p455
sg52
S'1979-80'
p456
sg54
S'10.8'
p457
sg56
S'3.4'
p458
sg58
S'.474'
p459
sg60
S'971'
p460
sg62
g3
sba(isrc.gp1.models.Per100Possession
Per100Possession
p461
(dp462
g8
S'2.2'
p463
sg10
S'0.3'
p464
sg11
S'.485'
p465
sg370
S'104'
p466
sg13
S'2.7'
p467
sg15
S'.500'
p468
sg16
S'0.2'
p469
sg17
S'27.4'
p470
sg19
S'SG'
p471
sg375
S'106'
p472
sg21
S'.880'
p473
sg25
S'NBA'
p474
sg27
S'1.3'
p475
sg28
S'21.8'
p476
sg30
S'4.4'
p477
sg32
S'6.9'
p478
sg34
S'5.9'
p479
sg36
S'23'
p480
sg38
S'NJN'
p481
sg40
S'28'
p482
sg42
S'0.3'
p483
sg44
S'10.4'
p484
sg46
S'6.1'
p485
sg48
S'21.4'
p486
sg50
S'3.7'
p487
sg52
S'1979-80'
p488
sg54
S'10.5'
p489
sg56
S'4.1'
p490
sg58
S'.484'
p491
sg60
S'541'
p492
sg62
g3
sba(isrc.gp1.models.Per100Possession
Per100Possession
p493
(dp494
g8
S'1.9'
p495
sg10
S'0.6'
p496
sg11
S'.491'
p497
sg370
S'107'
p498
sg13
S'3.9'
p499
sg15
S'.286'
p500
sg16
S'0.2'
p501
sg17
S'24.8'
p502
sg19
S'SG'
p503
sg375
S'111'
p504
sg21
S'.839'
p505
sg25
S'NBA'
p506
sg27
S'1.4'
p507
sg28
S'20.2'
p508
sg30
S'5.5'
p509
sg32
S'5.6'
p510
sg34
S'5.2'
p511
sg36
S'24'
p512
sg38
S'CLE'
p513
sg40
S'82'
p514
sg42
S'0.3'
p515
sg44
S'9.8'
p516
sg46
S'4.7'
p517
sg48
S'19.7'
p518
sg50
S'3.3'
p519
sg52
S'1980-81'
p520
sg54
S'9.9'
p521
sg56
S'3.5'
p522
sg58
S'.497'
p523
sg60
S'2269'
p524
sg62
g3
sba(isrc.gp1.models.Per100Possession
Per100Possession
p525
(dp526
g8
S'2.5'
p527
sg10
S'1.2'
p528
sg11
S'.460'
p529
sg370
S'105'
p530
sg13
S'4.6'
p531
sg15
S'.161'
p532
sg16
S'0.2'
p533
sg17
S'22.3'
p534
sg19
S'SG'
p535
sg375
S'112'
p536
sg21
S'.780'
p537
sg25
S'NBA'
p538
sg27
S'1.4'
p539
sg28
S'20.4'
p540
sg30
S'6.1'
p541
sg32
S'4.4'
p542
sg34
S'6.2'
p543
sg36
S'25'
p544
sg38
S'TOT'
p545
sg40
S'81'
p546
sg42
S'0.3'
p547
sg44
S'9.2'
p548
sg46
S'3.4'
p549
sg48
S'19.1'
p550
sg50
S'3.7'
p551
sg52
S'1981-82'
p552
sg54
S'9.4'
p553
sg56
S'2.7'
p554
sg58
S'.479'
p555
sg60
S'1183'
p556
sg62
g66
sba(isrc.gp1.models.Per100Possession
Per100Possession
p557
(dp558
g8
S'2.4'
p559
sg10
S'1.1'
p560
sg11
S'.486'
p561
sg370
S'107'
p562
sg13
S'4.5'
p563
sg15
S'.308'
p564
sg16
S'0.3'
p565
sg17
S'21.2'
p566
sg19
S'SG'
p567
sg375
S'114'
p568
sg21
S'.800'
p569
sg25
S'NBA'
p570
sg27
S'1.4'
p571
sg28
S'18.3'
p572
sg30
S'5.2'
p573
sg32
S'3.8'
p574
sg34
S'6.1'
p575
sg36
S'25'
p576
sg38
S'CLE'
p577
sg40
S'27'
p578
sg42
S'0.2'
p579
sg44
S'8.5'
p580
sg46
S'3.1'
p581
sg48
S'17.2'
p582
sg50
S'3.7'
p583
sg52
S'1981-82'
p584
sg54
S'8.9'
p585
sg56
S'2.8'
p586
sg58
S'.498'
p587
sg60
S'566'
p588
sg62
g158
sba(isrc.gp1.models.Per100Possession
Per100Possession
p589
(dp590
g8
S'2.5'
p591
sg10
S'1.4'
p592
sg11
S'.440'
p593
sg370
S'104'
p594
sg13
S'4.6'
p595
sg15
S'.056'
p596
sg16
S'0.1'
p597
sg17
S'23.4'
p598
sg19
S'SG'
p599
sg375
S'110'
p600
sg21
S'.766'
p601
sg25
S'NBA'
p602
sg27
S'1.5'
p603
sg28
S'22.2'
p604
sg30
S'6.9'
p605
sg32
S'4.9'
p606
sg34
S'6.3'
p607
sg36
S'25'
p608
sg38
S'SAS'
p609
sg40
S'54'
p610
sg42
S'0.5'
p611
sg44
S'9.7'
p612
sg46
S'3.7'
p613
sg48
S'20.9'
p614
sg50
S'3.8'
p615
sg52
S'1981-82'
p616
sg54
S'9.8'
p617
sg56
S'2.5'
p618
sg58
S'.465'
p619
sg60
S'617'
p620
sg62
g247
sba(isrc.gp1.models.Per100Possession
Per100Possession
p621
(dp622
g8
S'3.0'
p623
sg10
S'1.1'
p624
sg11
S'.449'
p625
sg370
S'100'
p626
sg13
S'4.7'
p627
sg15
S'.214'
p628
sg16
S'0.2'
p629
sg17
S'22.2'
p630
sg19
S'SG'
p631
sg375
S'107'
p632
sg21
S'.768'
p633
sg25
S'NBA'
p634
sg27
S'2.3'
p635
sg28
S'20.7'
p636
sg30
S'7.1'
p637
sg32
S'4.3'
p638
sg34
S'6.5'
p639
sg36
S'26'
p640
sg38
S'SAS'
p641
sg40
S'62'
p642
sg42
S'0.6'
p643
sg44
S'9.1'
p644
sg46
S'3.3'
p645
sg48
S'19.6'
p646
sg50
S'3.5'
p647
sg52
S'1982-83'
p648
sg54
S'9.3'
p649
sg56
S'3.8'
p650
sg58
S'.462'
p651
sg60
S'599'
p652
sg62
g70
sba(isrc.gp1.models.Per100Possession
Per100Possession
p653
(dp654
g8
S'1.1'
p655
sg10
S'2.8'
p656
sg11
S'.314'
p657
sg370
S'84'
p658
sg13
S'6.1'
p659
sg15
S'.400'
p660
sg16
S'1.1'
p661
sg17
S'15.5'
p662
sg19
S'SG'
p663
sg375
S'113'
p664
sg21
S'1.000'
p665
sg25
S'NBA'
p666
sg27
S'0.6'
p667
sg28
S'19.3'
p668
sg30
S'6.1'
p669
sg32
S'2.2'
p670
sg34
S'6.1'
p671
sg36
S'27'
p672
sg38
S'TOT'
p673
sg40
S'13'
p674
sg42
S'0.0'
p675
sg44
S'5.0'
p676
sg46
S'2.2'
p677
sg48
S'16.6'
p678
sg50
S'5.0'
p679
sg52
S'1983-84'
p680
sg54
S'6.1'
p681
sg56
S'3.3'
p682
sg58
S'.300'
p683
sg60
S'87'
p684
sg62
g316
sba(isrc.gp1.models.Per100Possession
Per100Possession
p685
(dp686
g8
S'0.0'
p687
sg10
S'4.1'
p688
sg11
S'.500'
p689
sg370
S'132'
p690
sg13
S'8.2'
p691
sg15
S'1.000'
p692
sg16
S'4.1'
p693
sg17
S'28.7'
p694
sg19
S'SG'
p695
sg375
S'114'
p696
sg21
S'1.000'
p697
sg25
S'NBA'
p698
sg27
S'0.0'
p699
sg28
S'16.4'
p700
sg30
S'4.1'
p701
sg32
S'8.2'
p702
sg34
S'8.2'
p703
sg36
S'27'
p704
sg38
S'SAS'
p705
sg40
g113
sg42
S'0.0'
p706
sg44
S'4.1'
p707
sg46
S'8.2'
p708
sg48
S'12.3'
p709
sg50
S'8.2'
p710
sg52
S'1983-84'
p711
sg54
S'8.2'
p712
sg56
S'4.1'
p713
sg58
S'.333'
p714
sg60
S'11'
p715
sg62
g316
sba(isrc.gp1.models.Per100Possession
Per100Possession
p716
(dp717
g8
S'1.3'
p718
sg10
S'2.6'
p719
sg11
S'.290'
p720
sg370
S'77'
p721
sg13
S'5.7'
p722
sg15
S'.250'
p723
sg16
S'0.6'
p724
sg17
S'13.4'
p725
sg19
S'SG'
p726
sg375
S'113'
p727
sg21
S'1.000'
p728
sg25
S'NBA'
p729
sg27
S'0.6'
p730
sg28
S'19.8'
p731
sg30
S'6.4'
p732
sg32
S'1.3'
p733
sg34
S'5.7'
p734
sg36
S'27'
p735
sg38
S'DAL'
p736
sg40
S'10'
p737
sg42
S'0.0'
p738
sg44
S'5.1'
p739
sg46
S'1.3'
p740
sg48
S'17.2'
p741
sg50
S'4.5'
p742
sg52
S'1983-84'
p743
sg54
S'5.7'
p744
sg56
S'3.2'
p745
sg58
S'.296'
p746
sg60
S'76'
p747
sg62
g316
sbasS'_advanced'
p748
(lp749
(isrc.gp1.models.Advanced
Advanced
p750
(dp751
S'_offensiveReboundPercentage'
p752
S'3.4'
p753
sS'_turnOverPercentage'
p754
S'15.8'
p755
sS'_winSharesPer48Minutes'
p756
S'.001'
p757
sS'_stealPercentage'
p758
S'1.5'
p759
sS'_usagePercentage'
p760
S'26.9'
p761
sS'_totalReboundsPercentage'
p762
S'7.3'
p763
sS'_defensiveBoxPlusMinus'
p764
S'-2.1'
p765
sg19
S'SG'
p766
sS'_valueOverReplacementPlayer'
p767
S'-0.2'
p768
sS'_trueShootingPercentage'
p769
S'.441'
p770
sS'_defensiveReboundPercentage'
p771
S'11.1'
p772
sS'_freeThrowsAttempRate'
p773
S'.372'
p774
sS'_threePointsAttempRate'
p775
g3
sg25
S'NBA'
p776
sS'_offensiveBoxPlusMinues'
p777
S'-4.6'
p778
sS'_assistPercentage'
p779
S'12.5'
p780
sS'_defensiveWinShares'
p781
S'0.2'
p782
sg36
S'22'
p783
sg38
S'WSB'
p784
sg40
S'29'
p785
sS'_blockPercentage'
p786
S'0.6'
p787
sS'_playerEfficiencyRating'
p788
S'9.8'
p789
sS'_offensiveWinShares'
p790
S'-0.2'
p791
sg60
S'153'
p792
sS'_boxPlusMinus'
p793
S'-6.7'
p794
sg52
S'1978-79'
p795
sS'_winShares'
p796
S'0.0'
p797
sba(isrc.gp1.models.Advanced
Advanced
p798
(dp799
g752
S'5.0'
p800
sg754
S'12.6'
p801
sg756
S'.083'
p802
sg758
S'1.0'
p803
sg760
S'24.4'
p804
sg762
S'6.2'
p805
sg764
S'-2.5'
p806
sg19
S'SG'
p807
sg767
S'-0.4'
p808
sg769
S'.536'
p809
sg771
S'7.4'
p810
sg773
S'.277'
p811
sg775
S'.012'
p812
sg25
S'NBA'
p813
sg777
S'-0.6'
p814
sg779
S'10.2'
p815
sg781
S'1.0'
p816
sg36
S'23'
p817
sg38
S'TOT'
p818
sg40
S'78'
p819
sg786
S'0.2'
p820
sg788
S'14.2'
p821
sg790
S'1.6'
p822
sg60
S'1512'
p823
sg793
S'-3.0'
p824
sg52
S'1979-80'
p825
sg796
S'2.6'
p826
sba(isrc.gp1.models.Advanced
Advanced
p827
(dp828
g752
S'5.0'
p829
sg754
S'11.7'
p830
sg756
S'.078'
p831
sg758
S'0.9'
p832
sg760
S'24.2'
p833
sg762
S'5.9'
p834
sg764
S'-2.4'
p835
sg19
S'SG'
p836
sg767
S'-0.2'
p837
sg769
S'.527'
p838
sg771
S'6.9'
p839
sg773
S'.254'
p840
sg775
S'.011'
p841
sg25
S'NBA'
p842
sg777
S'-0.3'
p843
sg779
S'10.8'
p844
sg781
S'0.5'
p845
sg36
S'23'
p846
sg38
S'WSB'
p847
sg40
S'50'
p848
sg786
S'0.2'
p849
sg788
S'14.0'
p850
sg790
S'1.1'
p851
sg60
S'971'
p852
sg793
S'-2.7'
p853
sg52
S'1979-80'
p854
sg796
S'1.6'
p855
sba(isrc.gp1.models.Advanced
Advanced
p856
(dp857
g752
S'5.0'
p858
sg754
S'14.2'
p859
sg756
S'.092'
p860
sg758
S'1.3'
p861
sg760
S'24.6'
p862
sg762
S'6.7'
p863
sg764
S'-2.5'
p864
sg19
S'SG'
p865
sg767
S'-0.2'
p866
sg769
S'.551'
p867
sg771
S'8.4'
p868
sg773
S'.319'
p869
sg775
S'.015'
p870
sg25
S'NBA'
p871
sg777
S'-1.1'
p872
sg779
S'9.2'
p873
sg781
S'0.5'
p874
sg36
S'23'
p875
sg38
S'NJN'
p876
sg40
S'28'
p877
sg786
S'0.4'
p878
sg788
S'14.8'
p879
sg790
S'0.6'
p880
sg60
S'541'
p881
sg793
S'-3.6'
p882
sg52
S'1979-80'
p883
sg796
S'1.0'
p884
sba(isrc.gp1.models.Advanced
Advanced
p885
(dp886
g752
S'4.2'
p887
sg754
S'13.2'
p888
sg756
S'.078'
p889
sg758
S'1.4'
p890
sg760
S'22.1'
p891
sg762
S'6.0'
p892
sg764
S'-1.9'
p893
sg19
S'SG'
p894
sg767
S'0.3'
p895
sg769
S'.545'
p896
sg771
S'8.0'
p897
sg773
S'.277'
p898
sg775
S'.029'
p899
sg25
S'NBA'
p900
sg777
S'0.4'
p901
sg779
S'11.8'
p902
sg781
S'0.8'
p903
sg36
S'24'
p904
sg38
S'CLE'
p905
sg40
S'82'
p906
sg786
S'0.4'
p907
sg788
S'14.3'
p908
sg790
S'2.9'
p909
sg60
S'2269'
p910
sg793
S'-1.5'
p911
sg52
S'1980-81'
p912
sg796
S'3.7'
p913
sba(isrc.gp1.models.Advanced
Advanced
p914
(dp915
g752
S'5.5'
p916
sg754
S'10.6'
p917
sg756
S'.063'
p918
sg758
S'1.4'
p919
sg760
S'21.2'
p920
sg762
S'7.1'
p921
sg764
S'-1.9'
p922
sg19
S'SG'
p923
sg767
S'-0.1'
p924
sg769
S'.501'
p925
sg771
S'8.9'
p926
sg773
S'.215'
p927
sg775
S'.061'
p928
sg25
S'NBA'
p929
sg777
S'-0.4'
p930
sg779
S'13.7'
p931
sg781
S'0.6'
p932
sg36
S'25'
p933
sg38
S'TOT'
p934
sg40
S'81'
p935
sg786
S'0.4'
p936
sg788
S'13.0'
p937
sg790
S'1.0'
p938
sg60
S'1183'
p939
sg793
S'-2.3'
p940
sg52
S'1981-82'
p941
sg796
S'1.6'
p942
sba(isrc.gp1.models.Advanced
Advanced
p943
(dp944
g752
S'5.3'
p945
sg754
S'12.4'
p946
sg756
S'.058'
p947
sg758
S'1.4'
p948
sg760
S'19.4'
p949
sg762
S'7.1'
p950
sg764
S'-1.8'
p951
sg19
S'SG'
p952
sg767
S'0.0'
p953
sg769
S'.530'
p954
sg771
S'9.1'
p955
sg773
S'.210'
p956
sg775
S'.061'
p957
sg25
S'NBA'
p958
sg777
S'0.0'
p959
sg779
S'13.9'
p960
sg781
S'0.1'
p961
sg36
S'25'
p962
sg38
S'CLE'
p963
sg40
S'27'
p964
sg786
S'0.2'
p965
sg788
S'13.3'
p966
sg790
S'0.6'
p967
sg60
S'566'
p968
sg793
S'-1.8'
p969
sg52
S'1981-82'
p970
sg796
S'0.7'
p971
sba(isrc.gp1.models.Advanced
Advanced
p972
(dp973
g752
S'5.7'
p974
sg754
S'9.3'
p975
sg756
S'.067'
p976
sg758
S'1.5'
p977
sg760
S'22.8'
p978
sg762
S'7.2'
p979
sg764
S'-2.0'
p980
sg19
S'SG'
p981
sg767
S'-0.1'
p982
sg769
S'.480'
p983
sg771
S'8.7'
p984
sg773
S'.218'
p985
sg775
S'.061'
p986
sg25
S'NBA'
p987
sg777
S'-0.7'
p988
sg779
S'13.6'
p989
sg781
S'0.4'
p990
sg36
S'25'
p991
sg38
S'SAS'
p992
sg40
S'54'
p993
sg786
S'0.5'
p994
sg788
S'12.8'
p995
sg790
S'0.4'
p996
sg60
S'617'
p997
sg793
S'-2.7'
p998
sg52
S'1981-82'
p999
sg796
S'0.9'
p1000
sba(isrc.gp1.models.Advanced
Advanced
p1001
(dp1002
g752
S'7.4'
p1003
sg754
S'14.4'
p1004
sg756
S'.063'
p1005
sg758
S'2.3'
p1006
sg760
S'22.7'
p1007
sg762
S'7.6'
p1008
sg764
S'-1.5'
p1009
sg19
S'SG'
p1010
sg767
S'0.0'
p1011
sg769
S'.490'
p1012
sg771
S'7.9'
p1013
sg773
S'.210'
p1014
sg775
S'.052'
p1015
sg25
S'NBA'
p1016
sg777
S'-0.8'
p1017
sg779
S'13.6'
p1018
sg781
S'0.5'
p1019
sg36
S'26'
p1020
sg38
S'SAS'
p1021
sg40
S'62'
p1022
sg786
S'0.7'
p1023
sg788
S'13.0'
p1024
sg790
S'0.3'
p1025
sg60
S'599'
p1026
sg793
S'-2.3'
p1027
sg52
S'1982-83'
p1028
sg796
S'0.8'
p1029
sba(isrc.gp1.models.Advanced
Advanced
p1030
(dp1031
g752
S'2.7'
p1032
sg754
S'14.0'
p1033
sg756
S'-0.066'
p1034
sg758
S'0.6'
p1035
sg760
S'20.3'
p1036
sg762
S'7.2'
p1037
sg764
S'-3.2'
p1038
sg19
S'SG'
p1039
sg767
S'-0.2'
p1040
sg769
S'.381'
p1041
sg771
S'11.7'
p1042
sg773
S'.114'
p1043
sg775
S'.143'
p1044
sg25
S'NBA'
p1045
sg777
S'-5.8'
p1046
sg779
S'16.0'
p1047
sg781
S'0.0'
p1048
sg36
S'27'
p1049
sg38
S'TOT'
p1050
sg40
S'13'
p1051
sg786
S'0.0'
p1052
sg788
S'4.9'
p1053
sg790
S'-0.2'
p1054
sg60
S'87'
p1055
sg793
S'-9.0'
p1056
sg52
S'1983-84'
p1057
sg796
S'-0.1'
p1058
sba(isrc.gp1.models.Advanced
Advanced
p1059
(dp1060
g752
S'0.0'
p1061
sg754
S'17.0'
p1062
sg756
S'.212'
p1063
sg758
S'0.0'
p1064
sg760
S'20.7'
p1065
sg762
S'9.7'
p1066
sg764
S'-3.3'
p1067
sg19
S'SG'
p1068
sg767
S'0.0'
p1069
sg769
S'.717'
p1070
sg771
S'19.0'
p1071
sg773
S'.500'
p1072
sg775
S'.250'
p1073
sg25
S'NBA'
p1074
sg777
S'3.0'
p1075
sg779
S'22.8'
p1076
sg781
S'0.0'
p1077
sg36
S'27'
p1078
sg38
S'SAS'
p1079
sg40
g113
sg786
S'0.0'
p1080
sg788
S'20.7'
p1081
sg790
S'0.0'
p1082
sg60
S'11'
p1083
sg793
S'-0.3'
p1084
sg52
S'1983-84'
p1085
sg796
S'0.0'
p1086
sba(isrc.gp1.models.Advanced
Advanced
p1087
(dp1088
g752
S'3.1'
p1089
sg754
S'13.6'
p1090
sg756
S'-0.106'
p1091
sg758
S'0.6'
p1092
sg760
S'20.2'
p1093
sg762
S'6.9'
p1094
sg764
S'-3.1'
p1095
sg19
S'SG'
p1096
sg767
S'-0.2'
p1097
sg769
S'.329'
p1098
sg771
S'10.7'
p1099
sg773
S'.065'
p1100
sg775
S'.129'
p1101
sg25
S'NBA'
p1102
sg777
S'-7.1'
p1103
sg779
S'15.0'
p1104
sg781
S'0.0'
p1105
sg36
S'27'
p1106
sg38
S'DAL'
p1107
sg40
S'10'
p1108
sg786
S'0.0'
p1109
sg788
S'2.6'
p1110
sg790
S'-0.2'
p1111
sg60
S'76'
p1112
sg793
S'-10.2'
p1113
sg52
S'1983-84'
p1114
sg796
S'-0.2'
p1115
sbasS'_per36Minutes'
p1116
(lp1117
(isrc.gp1.models.Per36Minutes
Per36Minutes
p1118
(dp1119
g8
S'1.2'
p1120
sg10
g3
sg11
S'.359'
p1121
sg13
S'3.5'
p1122
sg15
g3
sg16
g3
sg17
S'18.8'
p1123
sg19
S'SG'
p1124
sg21
S'.828'
p1125
sg25
S'NBA'
p1126
sg27
S'1.2'
p1127
sg28
S'18.4'
p1128
sg30
S'4.9'
p1129
sg32
S'6.8'
p1130
sg34
S'5.2'
p1131
sg36
S'22'
p1132
sg38
S'WSB'
p1133
sg40
S'29'
p1134
sg42
S'0.5'
p1135
sg44
S'6.6'
p1136
sg46
S'5.6'
p1137
sg48
S'18.4'
p1138
sg50
S'4.0'
p1139
sg52
S'1978-79'
p1140
sg54
S'6.6'
p1141
sg56
S'4.0'
p1142
sg58
S'.359'
p1143
sg60
S'153'
p1144
sg62
g3
sba(isrc.gp1.models.Per36Minutes
Per36Minutes
p1145
(dp1146
g8
S'1.8'
p1147
sg10
S'0.2'
p1148
sg11
S'.477'
p1149
sg13
S'2.4'
p1150
sg15
S'.444'
p1151
sg16
S'0.1'
p1152
sg17
S'21.0'
p1153
sg19
S'SG'
p1154
sg21
S'.872'
p1155
sg25
S'NBA'
p1156
sg27
S'0.8'
p1157
sg28
S'17.5'
p1158
sg30
S'3.8'
p1159
sg32
S'4.8'
p1160
sg34
S'4.4'
p1161
sg36
S'23'
p1162
sg38
S'TOT'
p1163
sg40
S'78'
p1164
sg42
S'0.2'
p1165
sg44
S'8.2'
p1166
sg46
S'4.2'
p1167
sg48
S'17.2'
p1168
sg50
S'2.6'
p1169
sg52
S'1979-80'
p1170
sg54
S'8.3'
p1171
sg56
S'2.8'
p1172
sg58
S'.478'
p1173
sg60
S'1512'
p1174
sg62
g3
sba(isrc.gp1.models.Per36Minutes
Per36Minutes
p1175
(dp1176
g8
S'1.8'
p1177
sg10
S'0.2'
p1178
sg11
S'.474'
p1179
sg13
S'2.6'
p1180
sg15
S'.400'
p1181
sg16
S'0.1'
p1182
sg17
S'20.5'
p1183
sg19
S'SG'
p1184
sg21
S'.867'
p1185
sg25
S'NBA'
p1186
sg27
S'0.7'
p1187
sg28
S'17.5'
p1188
sg30
S'3.9'
p1189
sg32
S'4.4'
p1190
sg34
S'4.3'
p1191
sg36
S'23'
p1192
sg38
S'WSB'
p1193
sg40
S'50'
p1194
sg42
S'0.1'
p1195
sg44
S'8.2'
p1196
sg46
S'3.9'
p1197
sg48
S'17.4'
p1198
sg50
S'2.4'
p1199
sg52
S'1979-80'
p1200
sg54
S'8.3'
p1201
sg56
S'2.6'
p1202
sg58
S'.474'
p1203
sg60
S'971'
p1204
sg62
g3
sba(isrc.gp1.models.Per36Minutes
Per36Minutes
p1205
(dp1206
g8
S'1.7'
p1207
sg10
S'0.3'
p1208
sg11
S'.485'
p1209
sg13
S'2.1'
p1210
sg15
S'.500'
p1211
sg16
S'0.1'
p1212
sg17
S'21.8'
p1213
sg19
S'SG'
p1214
sg21
S'.880'
p1215
sg25
S'NBA'
p1216
sg27
S'1.0'
p1217
sg28
S'17.3'
p1218
sg30
S'3.5'
p1219
sg32
S'5.5'
p1220
sg34
S'4.7'
p1221
sg36
S'23'
p1222
sg38
S'NJN'
p1223
sg40
S'28'
p1224
sg42
S'0.3'
p1225
sg44
S'8.3'
p1226
sg46
S'4.9'
p1227
sg48
S'17.0'
p1228
sg50
S'2.9'
p1229
sg52
S'1979-80'
p1230
sg54
S'8.4'
p1231
sg56
S'3.3'
p1232
sg58
S'.484'
p1233
sg60
S'541'
p1234
sg62
g3
sba(isrc.gp1.models.Per36Minutes
Per36Minutes
p1235
(dp1236
g8
S'1.4'
p1237
sg10
S'0.4'
p1238
sg11
S'.491'
p1239
sg13
S'2.9'
p1240
sg15
S'.286'
p1241
sg16
S'0.1'
p1242
sg17
S'18.7'
p1243
sg19
S'SG'
p1244
sg21
S'.839'
p1245
sg25
S'NBA'
p1246
sg27
S'1.0'
p1247
sg28
S'15.3'
p1248
sg30
S'4.2'
p1249
sg32
S'4.2'
p1250
sg34
S'3.9'
p1251
sg36
S'24'
p1252
sg38
S'CLE'
p1253
sg40
S'82'
p1254
sg42
S'0.2'
p1255
sg44
S'7.4'
p1256
sg46
S'3.6'
p1257
sg48
S'14.9'
p1258
sg50
S'2.5'
p1259
sg52
S'1980-81'
p1260
sg54
S'7.5'
p1261
sg56
S'2.6'
p1262
sg58
S'.497'
p1263
sg60
S'2269'
p1264
sg62
g3
sba(isrc.gp1.models.Per36Minutes
Per36Minutes
p1265
(dp1266
g8
S'1.9'
p1267
sg10
S'0.9'
p1268
sg11
S'.460'
p1269
sg13
S'3.5'
p1270
sg15
S'.161'
p1271
sg16
S'0.2'
p1272
sg17
S'16.9'
p1273
sg19
S'SG'
p1274
sg21
S'.780'
p1275
sg25
S'NBA'
p1276
sg27
S'1.1'
p1277
sg28
S'15.4'
p1278
sg30
S'4.6'
p1279
sg32
S'3.3'
p1280
sg34
S'4.7'
p1281
sg36
S'25'
p1282
sg38
S'TOT'
p1283
sg40
S'81'
p1284
sg42
S'0.2'
p1285
sg44
S'6.9'
p1286
sg46
S'2.6'
p1287
sg48
S'14.5'
p1288
sg50
S'2.8'
p1289
sg52
S'1981-82'
p1290
sg54
S'7.1'
p1291
sg56
S'2.0'
p1292
sg58
S'.479'
p1293
sg60
S'1183'
p1294
sg62
g66
sba(isrc.gp1.models.Per36Minutes
Per36Minutes
p1295
(dp1296
g8
S'1.8'
p1297
sg10
S'0.8'
p1298
sg11
S'.486'
p1299
sg13
S'3.4'
p1300
sg15
S'.308'
p1301
sg16
S'0.3'
p1302
sg17
S'15.8'
p1303
sg19
S'SG'
p1304
sg21
S'.800'
p1305
sg25
S'NBA'
p1306
sg27
S'1.0'
p1307
sg28
S'13.6'
p1308
sg30
S'3.9'
p1309
sg32
S'2.9'
p1310
sg34
S'4.5'
p1311
sg36
S'25'
p1312
sg38
S'CLE'
p1313
sg40
S'27'
p1314
sg42
S'0.1'
p1315
sg44
S'6.4'
p1316
sg46
S'2.3'
p1317
sg48
S'12.8'
p1318
sg50
S'2.7'
p1319
sg52
S'1981-82'
p1320
sg54
S'6.6'
p1321
sg56
S'2.1'
p1322
sg58
S'.498'
p1323
sg60
S'566'
p1324
sg62
g158
sba(isrc.gp1.models.Per36Minutes
Per36Minutes
p1325
(dp1326
g8
S'1.9'
p1327
sg10
S'1.1'
p1328
sg11
S'.440'
p1329
sg13
S'3.6'
p1330
sg15
S'.056'
p1331
sg16
S'0.1'
p1332
sg17
S'18.0'
p1333
sg19
S'SG'
p1334
sg21
S'.766'
p1335
sg25
S'NBA'
p1336
sg27
S'1.2'
p1337
sg28
S'17.1'
p1338
sg30
S'5.3'
p1339
sg32
S'3.7'
p1340
sg34
S'4.8'
p1341
sg36
S'25'
p1342
sg38
S'SAS'
p1343
sg40
S'54'
p1344
sg42
S'0.4'
p1345
sg44
S'7.5'
p1346
sg46
S'2.9'
p1347
sg48
S'16.0'
p1348
sg50
S'2.9'
p1349
sg52
S'1981-82'
p1350
sg54
S'7.5'
p1351
sg56
S'1.9'
p1352
sg58
S'.465'
p1353
sg60
S'617'
p1354
sg62
g247
sba(isrc.gp1.models.Per36Minutes
Per36Minutes
p1355
(dp1356
g8
S'2.3'
p1357
sg10
S'0.8'
p1358
sg11
S'.449'
p1359
sg13
S'3.6'
p1360
sg15
S'.214'
p1361
sg16
S'0.2'
p1362
sg17
S'17.2'
p1363
sg19
S'SG'
p1364
sg21
S'.768'
p1365
sg25
S'NBA'
p1366
sg27
S'1.8'
p1367
sg28
S'16.0'
p1368
sg30
S'5.5'
p1369
sg32
S'3.4'
p1370
sg34
S'5.0'
p1371
sg36
S'26'
p1372
sg38
S'SAS'
p1373
sg40
S'62'
p1374
sg42
S'0.5'
p1375
sg44
S'7.0'
p1376
sg46
S'2.6'
p1377
sg48
S'15.2'
p1378
sg50
S'2.7'
p1379
sg52
S'1982-83'
p1380
sg54
S'7.2'
p1381
sg56
S'2.9'
p1382
sg58
S'.462'
p1383
sg60
S'599'
p1384
sg62
g70
sba(isrc.gp1.models.Per36Minutes
Per36Minutes
p1385
(dp1386
g8
S'0.8'
p1387
sg10
S'2.1'
p1388
sg11
S'.314'
p1389
sg13
S'4.6'
p1390
sg15
S'.400'
p1391
sg16
S'0.8'
p1392
sg17
S'11.6'
p1393
sg19
S'SG'
p1394
sg21
S'1.000'
p1395
sg25
S'NBA'
p1396
sg27
S'0.4'
p1397
sg28
S'14.5'
p1398
sg30
S'4.6'
p1399
sg32
S'1.7'
p1400
sg34
S'4.6'
p1401
sg36
S'27'
p1402
sg38
S'TOT'
p1403
sg40
S'13'
p1404
sg42
S'0.0'
p1405
sg44
S'3.7'
p1406
sg46
S'1.7'
p1407
sg48
S'12.4'
p1408
sg50
S'3.7'
p1409
sg52
S'1983-84'
p1410
sg54
S'4.6'
p1411
sg56
S'2.5'
p1412
sg58
S'.300'
p1413
sg60
S'87'
p1414
sg62
g316
sba(isrc.gp1.models.Per36Minutes
Per36Minutes
p1415
(dp1416
g8
S'0.0'
p1417
sg10
S'3.3'
p1418
sg11
S'.500'
p1419
sg13
S'6.5'
p1420
sg15
S'1.000'
p1421
sg16
S'3.3'
p1422
sg17
S'22.9'
p1423
sg19
S'SG'
p1424
sg21
S'1.000'
p1425
sg25
S'NBA'
p1426
sg27
S'0.0'
p1427
sg28
S'13.1'
p1428
sg30
S'3.3'
p1429
sg32
S'6.5'
p1430
sg34
S'6.5'
p1431
sg36
S'27'
p1432
sg38
S'SAS'
p1433
sg40
g113
sg42
S'0.0'
p1434
sg44
S'3.3'
p1435
sg46
S'6.5'
p1436
sg48
S'9.8'
p1437
sg50
S'6.5'
p1438
sg52
S'1983-84'
p1439
sg54
S'6.5'
p1440
sg56
S'3.3'
p1441
sg58
S'.333'
p1442
sg60
S'11'
p1443
sg62
g316
sba(isrc.gp1.models.Per36Minutes
Per36Minutes
p1444
(dp1445
g8
S'0.9'
p1446
sg10
S'1.9'
p1447
sg11
S'.290'
p1448
sg13
S'4.3'
p1449
sg15
S'.250'
p1450
sg16
S'0.5'
p1451
sg17
S'9.9'
p1452
sg19
S'SG'
p1453
sg21
S'1.000'
p1454
sg25
S'NBA'
p1455
sg27
S'0.5'
p1456
sg28
S'14.7'
p1457
sg30
S'4.7'
p1458
sg32
S'0.9'
p1459
sg34
S'4.3'
p1460
sg36
S'27'
p1461
sg38
S'DAL'
p1462
sg40
S'10'
p1463
sg42
S'0.0'
p1464
sg44
S'3.8'
p1465
sg46
S'0.9'
p1466
sg48
S'12.8'
p1467
sg50
S'3.3'
p1468
sg52
S'1983-84'
p1469
sg54
S'4.3'
p1470
sg56
S'2.4'
p1471
sg58
S'.296'
p1472
sg60
S'76'
p1473
sg62
g316
sbasS'_fromYear'
p1474
S'1979'
p1475
sS'_url'
p1476
S'http://www.basketball-reference.com/players/p/pheglro01.html'
p1477
sS'_perGame'
p1478
(isrc.gp1.models.PerGame
PerGame
p1479
(dp1480
g8
S'0.2'
p1481
sg10
S'0.4'
p1482
sg11
S'.290'
p1483
sS'_effectiveFieldGalPercentage'
p1484
S'.306'
p1485
sg13
S'0.9'
p1486
sg15
S'.250'
p1487
sg16
S'0.1'
p1488
sg17
S'2.1'
p1489
sg19
S'SG'
p1490
sg21
S'1.000'
p1491
sg25
S'NBA'
p1492
sg27
S'0.1'
p1493
sg30
S'1.0'
p1494
sS'_fieldGoalsttempted'
p1495
S'3.1'
p1496
sg32
S'0.2'
p1497
sg34
S'0.9'
p1498
sg36
S'27'
p1499
sg38
S'DAL'
p1500
sg40
S'10'
p1501
sg42
S'0.0'
p1502
sg44
S'0.8'
p1503
sg46
S'0.2'
p1504
sg48
S'2.7'
p1505
sg50
S'0.7'
p1506
sg52
S'1983-84'
p1507
sg54
S'0.9'
p1508
sg56
S'0.5'
p1509
sg58
S'.296'
p1510
sg60
S'7.6'
p1511
sg62
g316
sbsS'_weight'
p1512
S'205'
p1513
sS'_dob'
p1514
S'16-10-1956'
p1515
sS'_salary'
p1516
(lp1517
sg19
S'G-F'
p1518
sb.