(isrc.gp1.models.Player
Player
p0
(dp1
S'_experience'
p2
S'NA'
p3
sS'_totals'
p4
(lp5
(isrc.gp1.models.Totals
Totals
p6
(dp7
S'_offensiveRebounds'
p8
S'3'
p9
sS'_threePointsAttempted'
p10
S'1'
p11
sS'_fieldGoalsPercentage'
p12
S'.000'
p13
sS'_assist'
p14
S'0'
p15
sS'_threePointsPercentage'
p16
S'.000'
p17
sS'_threePoints'
p18
g15
sS'_points'
p19
S'2'
p20
sS'_position'
p21
S'SF'
p22
sS'_freeThrowsPercentage'
p23
S'1.000'
p24
sS'_effectiveFieldGoalPercentage'
p25
S'.000'
p26
sS'_league'
p27
S'NBA'
p28
sS'_steals'
p29
g15
sS'_fieldGoalsAttempted'
p30
g9
sS'_personalFouls'
p31
g20
sS'_freeThrowsAttempted'
p32
g20
sS'_totalRebounds'
p33
g9
sS'_age'
p34
S'24'
p35
sS'_team'
p36
S'UTA'
p37
sS'_games'
p38
g9
sS'_blocks'
p39
g15
sS'_twoPoints'
p40
g15
sS'_freeThrows'
p41
g20
sS'_twoPointsAttempted'
p42
g20
sS'_defensiveRebounds'
p43
g15
sS'_season'
p44
S'2006-07'
p45
sS'_fieldGoals'
p46
g15
sS'_turnOvers'
p47
g9
sS'_twoPointsPercentage'
p48
S'.000'
p49
sS'_minutesPlayed'
p50
S'13'
p51
sS'_gamesStarted'
p52
g15
sbasS'_college'
p53
S'University of Illinois at Urbana-Champaign'
p54
sS'_toYear'
p55
S'2007'
p56
sS'_height'
p57
S'6-6'
p58
sS'_active'
p59
I00
sS'_shootingHand'
p60
VRight
p61
sS'_name'
p62
S'Roger Powell'
p63
sS'_per100Possessions'
p64
(lp65
(isrc.gp1.models.Per100Possession
Per100Possession
p66
(dp67
g8
S'12.1'
p68
sg10
S'4.0'
p69
sg12
S'.000'
p70
sS'_offensiveRating'
p71
S'56'
p72
sg14
S'0.0'
p73
sg16
S'.000'
p74
sg18
S'0.0'
p75
sg19
S'8.1'
p76
sg21
S'SF'
p77
sS'_defensiveRating'
p78
S'115'
p79
sg23
S'1.000'
p80
sg27
S'NBA'
p81
sg29
S'0.0'
p82
sg30
S'12.1'
p83
sg31
S'8.1'
p84
sg32
S'8.1'
p85
sg33
S'12.1'
p86
sg34
S'24'
p87
sg36
S'UTA'
p88
sg38
g9
sg39
S'0.0'
p89
sg40
S'0.0'
p90
sg41
S'8.1'
p91
sg42
S'8.1'
p92
sg43
S'0.0'
p93
sg44
S'2006-07'
p94
sg46
S'0.0'
p95
sg47
S'12.1'
p96
sg48
S'.000'
p97
sg50
S'13'
p98
sg52
g15
sbasS'_advanced'
p99
(lp100
(isrc.gp1.models.Advanced
Advanced
p101
(dp102
S'_offensiveReboundPercentage'
p103
S'28.1'
p104
sS'_turnOverPercentage'
p105
S'43.6'
p106
sS'_winSharesPer48Minutes'
p107
S'-0.327'
p108
sS'_stealPercentage'
p109
S'0.0'
p110
sS'_usagePercentage'
p111
S'23.7'
p112
sS'_totalReboundsPercentage'
p113
S'14.0'
p114
sS'_defensiveBoxPlusMinus'
p115
S'-6.8'
p116
sg21
S'SF'
p117
sS'_valueOverReplacementPlayer'
p118
S'-0.1'
p119
sS'_trueShootingPercentage'
p120
S'.258'
p121
sS'_defensiveReboundPercentage'
p122
S'0.0'
p123
sS'_freeThrowsAttempRate'
p124
S'.667'
p125
sS'_threePointsAttempRate'
p126
S'.333'
p127
sg27
S'NBA'
p128
sS'_offensiveBoxPlusMinues'
p129
S'-11.6'
p130
sS'_assistPercentage'
p131
S'0.0'
p132
sS'_defensiveWinShares'
p133
S'0.0'
p134
sg34
S'24'
p135
sg36
S'UTA'
p136
sg38
g9
sS'_blockPercentage'
p137
S'0.0'
p138
sS'_playerEfficiencyRating'
p139
S'-8.3'
p140
sS'_offensiveWinShares'
p141
S'-0.1'
p142
sg50
S'13'
p143
sS'_boxPlusMinus'
p144
S'-18.4'
p145
sg44
S'2006-07'
p146
sS'_winShares'
p147
S'-0.1'
p148
sbasS'_per36Minutes'
p149
(lp150
(isrc.gp1.models.Per36Minutes
Per36Minutes
p151
(dp152
g8
S'8.3'
p153
sg10
S'2.8'
p154
sg12
S'.000'
p155
sg14
S'0.0'
p156
sg16
S'.000'
p157
sg18
S'0.0'
p158
sg19
S'5.5'
p159
sg21
S'SF'
p160
sg23
S'1.000'
p161
sg27
S'NBA'
p162
sg29
S'0.0'
p163
sg30
S'8.3'
p164
sg31
S'5.5'
p165
sg32
S'5.5'
p166
sg33
S'8.3'
p167
sg34
S'24'
p168
sg36
S'UTA'
p169
sg38
g9
sg39
S'0.0'
p170
sg40
S'0.0'
p171
sg41
S'5.5'
p172
sg42
S'5.5'
p173
sg43
S'0.0'
p174
sg44
S'2006-07'
p175
sg46
S'0.0'
p176
sg47
S'8.3'
p177
sg48
S'.000'
p178
sg50
S'13'
p179
sg52
g15
sbasS'_fromYear'
p180
S'2007'
p181
sS'_url'
p182
S'http://www.basketball-reference.com/players/p/powelro01.html'
p183
sS'_perGame'
p184
(isrc.gp1.models.PerGame
PerGame
p185
(dp186
g8
S'1.0'
p187
sg10
S'0.3'
p188
sg12
S'.000'
p189
sS'_effectiveFieldGalPercentage'
p190
S'.000'
p191
sg14
S'0.0'
p192
sg16
S'.000'
p193
sg18
S'0.0'
p194
sg19
S'0.7'
p195
sg21
S'SF'
p196
sg23
S'1.000'
p197
sg27
S'NBA'
p198
sg29
S'0.0'
p199
sg31
S'0.7'
p200
sS'_fieldGoalsttempted'
p201
S'1.0'
p202
sg32
S'0.7'
p203
sg33
S'1.0'
p204
sg34
S'24'
p205
sg36
S'UTA'
p206
sg38
g9
sg39
S'0.0'
p207
sg40
S'0.0'
p208
sg41
S'0.7'
p209
sg42
S'0.7'
p210
sg43
S'0.0'
p211
sg44
S'2006-07'
p212
sg46
S'0.0'
p213
sg47
S'1.0'
p214
sg48
S'.000'
p215
sg50
S'4.3'
p216
sg52
g15
sbsS'_weight'
p217
S'235'
p218
sS'_dob'
p219
S'15-1-1983'
p220
sS'_salary'
p221
(lp222
(isrc.gp1.models.Salary
Salary
p223
(dp224
g36
S'Utah Jazz'
p225
sg27
S'NBA'
p226
sg221
S'$412,718'
p227
sg44
S'2006-07'
p228
sbasg21
S'F'
p229
sb.