(isrc.gp1.models.Player
Player
p0
(dp1
S'_experience'
p2
S'NA'
p3
sS'_totals'
p4
(lp5
(isrc.gp1.models.Totals
Totals
p6
(dp7
S'_offensiveRebounds'
p8
S'5'
p9
sS'_threePointsAttempted'
p10
S'.359'
p11
sS'_fieldGoalsPercentage'
p12
S'28'
p13
sS'_assist'
p14
S'21'
p15
sS'_threePointsPercentage'
p16
S'.359'
p17
sS'_threePoints'
p18
S'78'
p19
sS'_points'
p20
g3
sS'_position'
p21
S'SG'
p22
sS'_freeThrowsPercentage'
p23
S'15'
p24
sS'_effectiveFieldGoalPercentage'
p25
g9
sS'_league'
p26
S'NBA'
p27
sS'_steals'
p28
S'80'
p29
sS'_fieldGoalsAttempted'
p30
S'.359'
p31
sS'_personalFouls'
p32
g3
sS'_freeThrowsAttempted'
p33
S'22'
p34
sS'_totalRebounds'
p35
S'17'
p36
sS'_age'
p37
S'22'
p38
sS'_team'
p39
S'WSB'
p40
sS'_games'
p41
S'29'
p42
sS'_blocks'
p43
g3
sS'_twoPoints'
p44
S'24'
p45
sS'_freeThrows'
p46
S'17'
p47
sS'_twoPointsAttempted'
p48
S'29'
p49
sS'_defensiveRebounds'
p50
S'2'
p51
sS'_season'
p52
S'1978-79'
p53
sS'_fieldGoals'
p54
S'78'
p55
sS'_turnOvers'
p56
g3
sS'_twoPointsPercentage'
p57
S'.828'
p58
sS'_minutesPlayed'
p59
S'28'
p60
sS'_gamesStarted'
p61
S'153'
p62
sba(isrc.gp1.models.Totals
Totals
p63
(dp64
g8
S'110'
p65
sg10
S'.444'
p66
sg12
S'4'
p67
sg14
S'34'
p68
sg16
S'346'
p69
sg18
S'9'
p70
sg20
g3
sg21
S'SG'
p71
sg23
S'75'
p72
sg25
S'177'
p73
sg26
S'NBA'
p74
sg28
S'7'
p75
sg30
S'.477'
p76
sg32
S'881'
p77
sg33
S'.872'
p78
sg35
S'102'
p79
sg37
S'23'
p80
sg39
S'TOT'
p81
sg41
S'78'
p82
sg43
S'119'
p83
sg44
S'724'
p84
sg46
S'203'
p85
sg48
S'.478'
p86
sg50
S'185'
p87
sg52
S'1979-80'
p88
sg54
S'733'
p89
sg56
S'158'
p90
sg57
S'.480'
p91
sg59
S'350'
p92
sg61
S'1512'
p93
sba(isrc.gp1.models.Totals
Totals
p94
(dp95
g8
S'66'
p96
sg10
S'.400'
p97
sg12
g51
sg14
S'19'
p98
sg16
S'222'
p99
sg18
g9
sg20
g3
sg21
S'SG'
p100
sg23
S'49'
p101
sg25
S'104'
p102
sg26
S'NBA'
p103
sg28
S'3'
p104
sg30
S'.474'
p105
sg32
S'554'
p106
sg33
S'.867'
p107
sg35
S'70'
p108
sg37
S'23'
p109
sg39
S'WSB'
p110
sg41
S'50'
p111
sg43
S'70'
p112
sg44
S'468'
p113
sg46
S'120'
p114
sg48
S'.474'
p115
sg50
S'115'
p116
sg52
S'1979-80'
p117
sg54
S'473'
p118
sg56
S'106'
p119
sg57
S'.476'
p120
sg59
S'224'
p121
sg61
S'971'
p122
sba(isrc.gp1.models.Totals
Totals
p123
(dp124
g8
S'44'
p125
sg10
S'.500'
p126
sg12
g51
sg14
S'15'
p127
sg16
S'124'
p128
sg18
g67
sg20
g3
sg21
S'SG'
p129
sg23
S'26'
p130
sg25
S'73'
p131
sg26
S'NBA'
p132
sg28
g67
sg30
S'.485'
p133
sg32
S'327'
p134
sg33
S'.880'
p135
sg35
S'32'
p136
sg37
S'23'
p137
sg39
S'NJN'
p138
sg41
S'28'
p139
sg43
S'49'
p140
sg44
S'256'
p141
sg46
S'83'
p142
sg48
S'.484'
p143
sg50
S'70'
p144
sg52
S'1979-80'
p145
sg54
S'260'
p146
sg56
S'52'
p147
sg57
S'.488'
p148
sg59
S'126'
p149
sg61
S'541'
p150
sba(isrc.gp1.models.Totals
Totals
p151
(dp152
g8
S'156'
p153
sg10
S'.286'
p154
sg12
S'8'
p155
sg14
S'65'
p156
sg16
S'466'
p157
sg18
S'28'
p158
sg20
g3
sg21
S'SG'
p159
sg23
S'90'
p160
sg25
S'224'
p161
sg26
S'NBA'
p162
sg28
S'15'
p163
sg30
S'.491'
p164
sg32
S'1180'
p165
sg33
S'.839'
p166
sg35
S'184'
p167
sg37
S'24'
p168
sg39
S'CLE'
p169
sg41
S'82'
p170
sg43
S'165'
p171
sg44
S'937'
p172
sg46
S'267'
p173
sg48
S'.497'
p174
sg50
S'246'
p175
sg52
S'1980-81'
p176
sg54
S'965'
p177
sg56
S'262'
p178
sg57
S'.495'
p179
sg59
S'474'
p180
sg61
S'2269'
p181
sba(isrc.gp1.models.Totals
Totals
p182
(dp183
g8
S'61'
p184
sg10
S'31'
p185
sg12
S'.460'
p186
sg14
S'114'
p187
sg16
S'.161'
p188
sg18
g9
sg20
S'556'
p189
sg21
S'SG'
p190
sg23
S'.780'
p191
sg25
S'.464'
p192
sg26
S'NBA'
p193
sg28
S'36'
p194
sg30
S'507'
p195
sg32
S'152'
p196
sg33
S'109'
p197
sg35
S'154'
p198
sg37
S'25'
p199
sg39
S'TOT'
p200
sg41
S'81'
p201
sg43
g155
sg44
S'228'
p202
sg46
S'85'
p203
sg48
S'476'
p204
sg50
S'93'
p205
sg52
S'1981-82'
p206
sg54
S'233'
p207
sg56
S'66'
p208
sg57
S'.479'
p209
sg59
S'1183'
p210
sg61
g70
sba(isrc.gp1.models.Totals
Totals
p211
(dp212
g8
S'28'
p213
sg10
S'13'
p214
sg12
S'.486'
p215
sg14
S'53'
p216
sg16
S'.308'
p217
sg18
g67
sg20
S'248'
p218
sg21
S'SG'
p219
sg23
S'.800'
p220
sg25
S'.495'
p221
sg26
S'NBA'
p222
sg28
S'16'
p223
sg30
S'214'
p224
sg32
S'61'
p225
sg33
S'45'
p226
sg35
S'71'
p227
sg37
S'25'
p228
sg39
S'CLE'
p229
sg41
S'27'
p230
sg43
g51
sg44
S'100'
p231
sg46
S'36'
p232
sg48
S'201'
p233
sg50
S'43'
p234
sg52
S'1981-82'
p235
sg54
S'104'
p236
sg56
S'33'
p237
sg57
S'.498'
p238
sg59
S'566'
p239
sg61
g155
sba(isrc.gp1.models.Totals
Totals
p240
(dp241
g8
S'33'
p242
sg10
S'18'
p243
sg12
S'.440'
p244
sg14
S'61'
p245
sg16
S'.056'
p246
sg18
S'1'
p247
sg20
S'308'
p248
sg21
S'SG'
p249
sg23
S'.766'
p250
sg25
S'.442'
p251
sg26
S'NBA'
p252
sg28
S'20'
p253
sg30
S'293'
p254
sg32
S'91'
p255
sg33
S'64'
p256
sg35
S'83'
p257
sg37
S'25'
p258
sg39
S'SAS'
p259
sg41
S'54'
p260
sg43
S'6'
p261
sg44
S'128'
p262
sg46
S'49'
p263
sg48
S'275'
p264
sg50
S'50'
p265
sg52
S'1981-82'
p266
sg54
S'129'
p267
sg56
S'33'
p268
sg57
S'.465'
p269
sg59
S'617'
p270
sg61
g247
sba(isrc.gp1.models.Totals
Totals
p271
(dp272
g8
S'39'
p273
sg10
S'14'
p274
sg12
S'.449'
p275
sg14
S'60'
p276
sg16
S'.214'
p277
sg18
g104
sg20
S'286'
p278
sg21
S'SG'
p279
sg23
S'.768'
p280
sg25
S'.455'
p281
sg26
S'NBA'
p282
sg28
S'30'
p283
sg30
S'267'
p284
sg32
S'92'
p285
sg33
S'56'
p286
sg35
S'84'
p287
sg37
S'26'
p288
sg39
S'SAS'
p289
sg41
S'62'
p290
sg43
g155
sg44
S'117'
p291
sg46
S'43'
p292
sg48
S'253'
p293
sg50
S'45'
p294
sg52
S'1982-83'
p295
sg54
S'120'
p296
sg56
S'49'
p297
sg57
S'.462'
p298
sg59
S'599'
p299
sg61
g67
sba(isrc.gp1.models.Totals
Totals
p300
(dp301
g8
g51
sg10
g9
sg12
S'.314'
p302
sg14
S'11'
p303
sg16
S'.400'
p304
sg18
g51
sg20
S'28'
p305
sg21
S'SG'
p306
sg23
S'1.000'
p307
sg25
S'.343'
p308
sg26
S'NBA'
p309
sg28
g247
sg30
S'35'
p310
sg32
S'11'
p311
sg33
g67
sg35
S'11'
p312
sg37
S'27'
p313
sg39
S'TOT'
p314
sg41
S'13'
p315
sg43
S'0'
p316
sg44
g70
sg46
g67
sg48
S'30'
p317
sg50
g70
sg52
S'1983-84'
p318
sg54
S'11'
p319
sg56
g261
sg57
S'.300'
p320
sg59
S'87'
p321
sg61
g316
sba(isrc.gp1.models.Totals
Totals
p322
(dp323
g8
g316
sg10
g247
sg12
S'.500'
p324
sg14
g51
sg16
S'1.000'
p325
sg18
g247
sg20
g75
sg21
S'SG'
p326
sg23
S'1.000'
p327
sg25
S'.625'
p328
sg26
S'NBA'
p329
sg28
g316
sg30
g67
sg32
g247
sg33
g51
sg35
g51
sg37
S'27'
p330
sg39
S'SAS'
p331
sg41
g104
sg43
g316
sg44
g247
sg46
g51
sg48
g104
sg50
g51
sg52
S'1983-84'
p332
sg54
g51
sg56
g247
sg57
S'.333'
p333
sg59
S'11'
p334
sg61
g316
sba(isrc.gp1.models.Totals
Totals
p335
(dp336
g8
g51
sg10
g67
sg12
S'.290'
p337
sg14
g70
sg16
S'.250'
p338
sg18
g247
sg20
S'21'
p339
sg21
S'SG'
p340
sg23
S'1.000'
p341
sg25
S'.306'
p342
sg26
S'NBA'
p343
sg28
g247
sg30
S'31'
p344
sg32
S'10'
p345
sg33
g51
sg35
g70
sg37
S'27'
p346
sg39
S'DAL'
p347
sg41
S'10'
p348
sg43
g316
sg44
g155
sg46
g51
sg48
S'27'
p349
sg50
g75
sg52
S'1983-84'
p350
sg54
g70
sg56
g9
sg57
S'.296'
p351
sg59
S'76'
p352
sg61
g316
sbasS'_college'
p353
S'Bradley University'
p354
sS'_toYear'
p355
S'1984'
p356
sS'_height'
p357
S'6-6'
p358
sS'_active'
p359
I00
sS'_shootingHand'
p360
VRight
p361
sS'_name'
p362
S'Roger Phegley'
p363
sS'_per100Possessions'
p364
(lp365
(isrc.gp1.models.Per100Possession
Per100Possession
p366
(dp367
g8
S'1.5'
p368
sg10
S'.359'
p369
sg12
S'8.2'
p370
sS'_offensiveRating'
p371
g3
sg14
S'6.2'
p372
sg16
S'7.1'
p373
sg18
S'23.0'
p374
sg20
g3
sg21
S'SG'
p375
sS'_defensiveRating'
p376
g3
sg23
S'4.4'
p377
sg26
S'NBA'
p378
sg28
S'23.6'
p379
sg30
S'.359'
p380
sg32
g3
sg33
S'6.5'
p381
sg35
S'5.0'
p382
sg37
S'22'
p383
sg39
S'WSB'
p384
sg41
S'29'
p385
sg43
S'89'
p386
sg44
S'8.5'
p387
sg46
S'5.0'
p388
sg48
S'.828'
p389
sg50
S'0.6'
p390
sg52
S'1978-79'
p391
sg54
S'23.0'
p392
sg56
S'104'
p393
sg57
S'1.5'
p394
sg59
S'8.2'
p395
sg61
S'153'
p396
sba(isrc.gp1.models.Per100Possession
Per100Possession
p397
(dp398
g8
S'3.4'
p399
sg10
S'.444'
p400
sg12
S'0.1'
p401
sg371
S'108'
p402
sg14
S'1.0'
p403
sg16
S'10.6'
p404
sg18
S'0.3'
p405
sg20
S'104'
p406
sg21
S'SG'
p407
sg376
g3
sg23
S'2.3'
p408
sg26
S'NBA'
p409
sg28
S'0.2'
p410
sg30
S'.477'
p411
sg32
S'26.9'
p412
sg33
S'.872'
p413
sg35
S'3.1'
p414
sg37
S'23'
p415
sg39
S'TOT'
p416
sg41
S'78'
p417
sg43
S'3.6'
p418
sg44
S'22.1'
p419
sg46
S'6.2'
p420
sg48
S'.478'
p421
sg50
S'5.7'
p422
sg52
S'1979-80'
p423
sg54
S'22.4'
p424
sg56
S'4.8'
p425
sg57
S'5.4'
p426
sg59
S'10.7'
p427
sg61
S'1512'
p428
sba(isrc.gp1.models.Per100Possession
Per100Possession
p429
(dp430
g8
S'3.2'
p431
sg10
S'.400'
p432
sg12
S'0.1'
p433
sg371
S'109'
p434
sg14
S'0.9'
p435
sg16
S'10.7'
p436
sg18
S'0.2'
p437
sg20
S'105'
p438
sg21
S'SG'
p439
sg376
g3
sg23
S'2.4'
p440
sg26
S'NBA'
p441
sg28
S'0.1'
p442
sg30
S'.474'
p443
sg32
S'26.7'
p444
sg33
S'.867'
p445
sg35
S'3.4'
p446
sg37
S'23'
p447
sg39
S'WSB'
p448
sg41
S'50'
p449
sg43
S'3.4'
p450
sg44
S'22.5'
p451
sg46
S'5.8'
p452
sg48
S'.474'
p453
sg50
S'5.5'
p454
sg52
S'1979-80'
p455
sg54
S'22.8'
p456
sg56
S'5.1'
p457
sg57
S'5.0'
p458
sg59
S'10.8'
p459
sg61
S'971'
p460
sba(isrc.gp1.models.Per100Possession
Per100Possession
p461
(dp462
g8
S'3.7'
p463
sg10
S'.500'
p464
sg12
S'0.2'
p465
sg371
S'106'
p466
sg14
S'1.3'
p467
sg16
S'10.4'
p468
sg18
S'0.3'
p469
sg20
S'104'
p470
sg21
S'SG'
p471
sg376
g3
sg23
S'2.2'
p472
sg26
S'NBA'
p473
sg28
S'0.3'
p474
sg30
S'.485'
p475
sg32
S'27.4'
p476
sg33
S'.880'
p477
sg35
S'2.7'
p478
sg37
S'23'
p479
sg39
S'NJN'
p480
sg41
S'28'
p481
sg43
S'4.1'
p482
sg44
S'21.4'
p483
sg46
S'6.9'
p484
sg48
S'.484'
p485
sg50
S'5.9'
p486
sg52
S'1979-80'
p487
sg54
S'21.8'
p488
sg56
S'4.4'
p489
sg57
S'6.1'
p490
sg59
S'10.5'
p491
sg61
S'541'
p492
sba(isrc.gp1.models.Per100Possession
Per100Possession
p493
(dp494
g8
S'3.3'
p495
sg10
S'.286'
p496
sg12
S'0.2'
p497
sg371
S'111'
p498
sg14
S'1.4'
p499
sg16
S'9.8'
p500
sg18
S'0.6'
p501
sg20
S'107'
p502
sg21
S'SG'
p503
sg376
g3
sg23
S'1.9'
p504
sg26
S'NBA'
p505
sg28
S'0.3'
p506
sg30
S'.491'
p507
sg32
S'24.8'
p508
sg33
S'.839'
p509
sg35
S'3.9'
p510
sg37
S'24'
p511
sg39
S'CLE'
p512
sg41
S'82'
p513
sg43
S'3.5'
p514
sg44
S'19.7'
p515
sg46
S'5.6'
p516
sg48
S'.497'
p517
sg50
S'5.2'
p518
sg52
S'1980-81'
p519
sg54
S'20.2'
p520
sg56
S'5.5'
p521
sg57
S'4.7'
p522
sg59
S'9.9'
p523
sg61
S'2269'
p524
sba(isrc.gp1.models.Per100Possession
Per100Possession
p525
(dp526
g8
S'2.5'
p527
sg10
S'1.2'
p528
sg12
S'.460'
p529
sg371
S'105'
p530
sg14
S'4.6'
p531
sg16
S'.161'
p532
sg18
S'0.2'
p533
sg20
S'22.3'
p534
sg21
S'SG'
p535
sg376
S'112'
p536
sg23
S'.780'
p537
sg26
S'NBA'
p538
sg28
S'1.4'
p539
sg30
S'20.4'
p540
sg32
S'6.1'
p541
sg33
S'4.4'
p542
sg35
S'6.2'
p543
sg37
S'25'
p544
sg39
S'TOT'
p545
sg41
S'81'
p546
sg43
S'0.3'
p547
sg44
S'9.2'
p548
sg46
S'3.4'
p549
sg48
S'19.1'
p550
sg50
S'3.7'
p551
sg52
S'1981-82'
p552
sg54
S'9.4'
p553
sg56
S'2.7'
p554
sg57
S'.479'
p555
sg59
S'1183'
p556
sg61
g70
sba(isrc.gp1.models.Per100Possession
Per100Possession
p557
(dp558
g8
S'2.4'
p559
sg10
S'1.1'
p560
sg12
S'.486'
p561
sg371
S'107'
p562
sg14
S'4.5'
p563
sg16
S'.308'
p564
sg18
S'0.3'
p565
sg20
S'21.2'
p566
sg21
S'SG'
p567
sg376
S'114'
p568
sg23
S'.800'
p569
sg26
S'NBA'
p570
sg28
S'1.4'
p571
sg30
S'18.3'
p572
sg32
S'5.2'
p573
sg33
S'3.8'
p574
sg35
S'6.1'
p575
sg37
S'25'
p576
sg39
S'CLE'
p577
sg41
S'27'
p578
sg43
S'0.2'
p579
sg44
S'8.5'
p580
sg46
S'3.1'
p581
sg48
S'17.2'
p582
sg50
S'3.7'
p583
sg52
S'1981-82'
p584
sg54
S'8.9'
p585
sg56
S'2.8'
p586
sg57
S'.498'
p587
sg59
S'566'
p588
sg61
g155
sba(isrc.gp1.models.Per100Possession
Per100Possession
p589
(dp590
g8
S'2.5'
p591
sg10
S'1.4'
p592
sg12
S'.440'
p593
sg371
S'104'
p594
sg14
S'4.6'
p595
sg16
S'.056'
p596
sg18
S'0.1'
p597
sg20
S'23.4'
p598
sg21
S'SG'
p599
sg376
S'110'
p600
sg23
S'.766'
p601
sg26
S'NBA'
p602
sg28
S'1.5'
p603
sg30
S'22.2'
p604
sg32
S'6.9'
p605
sg33
S'4.9'
p606
sg35
S'6.3'
p607
sg37
S'25'
p608
sg39
S'SAS'
p609
sg41
S'54'
p610
sg43
S'0.5'
p611
sg44
S'9.7'
p612
sg46
S'3.7'
p613
sg48
S'20.9'
p614
sg50
S'3.8'
p615
sg52
S'1981-82'
p616
sg54
S'9.8'
p617
sg56
S'2.5'
p618
sg57
S'.465'
p619
sg59
S'617'
p620
sg61
g247
sba(isrc.gp1.models.Per100Possession
Per100Possession
p621
(dp622
g8
S'3.0'
p623
sg10
S'1.1'
p624
sg12
S'.449'
p625
sg371
S'100'
p626
sg14
S'4.7'
p627
sg16
S'.214'
p628
sg18
S'0.2'
p629
sg20
S'22.2'
p630
sg21
S'SG'
p631
sg376
S'107'
p632
sg23
S'.768'
p633
sg26
S'NBA'
p634
sg28
S'2.3'
p635
sg30
S'20.7'
p636
sg32
S'7.1'
p637
sg33
S'4.3'
p638
sg35
S'6.5'
p639
sg37
S'26'
p640
sg39
S'SAS'
p641
sg41
S'62'
p642
sg43
S'0.6'
p643
sg44
S'9.1'
p644
sg46
S'3.3'
p645
sg48
S'19.6'
p646
sg50
S'3.5'
p647
sg52
S'1982-83'
p648
sg54
S'9.3'
p649
sg56
S'3.8'
p650
sg57
S'.462'
p651
sg59
S'599'
p652
sg61
g67
sba(isrc.gp1.models.Per100Possession
Per100Possession
p653
(dp654
g8
S'1.1'
p655
sg10
S'2.8'
p656
sg12
S'.314'
p657
sg371
S'84'
p658
sg14
S'6.1'
p659
sg16
S'.400'
p660
sg18
S'1.1'
p661
sg20
S'15.5'
p662
sg21
S'SG'
p663
sg376
S'113'
p664
sg23
S'1.000'
p665
sg26
S'NBA'
p666
sg28
S'0.6'
p667
sg30
S'19.3'
p668
sg32
S'6.1'
p669
sg33
S'2.2'
p670
sg35
S'6.1'
p671
sg37
S'27'
p672
sg39
S'TOT'
p673
sg41
S'13'
p674
sg43
S'0.0'
p675
sg44
S'5.0'
p676
sg46
S'2.2'
p677
sg48
S'16.6'
p678
sg50
S'5.0'
p679
sg52
S'1983-84'
p680
sg54
S'6.1'
p681
sg56
S'3.3'
p682
sg57
S'.300'
p683
sg59
S'87'
p684
sg61
g316
sba(isrc.gp1.models.Per100Possession
Per100Possession
p685
(dp686
g8
S'0.0'
p687
sg10
S'4.1'
p688
sg12
S'.500'
p689
sg371
S'132'
p690
sg14
S'8.2'
p691
sg16
S'1.000'
p692
sg18
S'4.1'
p693
sg20
S'28.7'
p694
sg21
S'SG'
p695
sg376
S'114'
p696
sg23
S'1.000'
p697
sg26
S'NBA'
p698
sg28
S'0.0'
p699
sg30
S'16.4'
p700
sg32
S'4.1'
p701
sg33
S'8.2'
p702
sg35
S'8.2'
p703
sg37
S'27'
p704
sg39
S'SAS'
p705
sg41
g104
sg43
S'0.0'
p706
sg44
S'4.1'
p707
sg46
S'8.2'
p708
sg48
S'12.3'
p709
sg50
S'8.2'
p710
sg52
S'1983-84'
p711
sg54
S'8.2'
p712
sg56
S'4.1'
p713
sg57
S'.333'
p714
sg59
S'11'
p715
sg61
g316
sba(isrc.gp1.models.Per100Possession
Per100Possession
p716
(dp717
g8
S'1.3'
p718
sg10
S'2.6'
p719
sg12
S'.290'
p720
sg371
S'77'
p721
sg14
S'5.7'
p722
sg16
S'.250'
p723
sg18
S'0.6'
p724
sg20
S'13.4'
p725
sg21
S'SG'
p726
sg376
S'113'
p727
sg23
S'1.000'
p728
sg26
S'NBA'
p729
sg28
S'0.6'
p730
sg30
S'19.8'
p731
sg32
S'6.4'
p732
sg33
S'1.3'
p733
sg35
S'5.7'
p734
sg37
S'27'
p735
sg39
S'DAL'
p736
sg41
S'10'
p737
sg43
S'0.0'
p738
sg44
S'5.1'
p739
sg46
S'1.3'
p740
sg48
S'17.2'
p741
sg50
S'4.5'
p742
sg52
S'1983-84'
p743
sg54
S'5.7'
p744
sg56
S'3.2'
p745
sg57
S'.296'
p746
sg59
S'76'
p747
sg61
g316
sbasS'_advanced'
p748
(lp749
(isrc.gp1.models.Advanced
Advanced
p750
(dp751
S'_offensiveReboundPercentage'
p752
S'11.1'
p753
sS'_turnOverPercentage'
p754
S'26.9'
p755
sS'_winSharesPer48Minutes'
p756
S'-4.6'
p757
sS'_stealPercentage'
p758
S'0.6'
p759
sS'_usagePercentage'
p760
S'-0.2'
p761
sS'_totalReboundsPercentage'
p762
S'12.5'
p763
sS'_defensiveBoxPlusMinus'
p764
S'-6.7'
p765
sg21
S'SG'
p766
sS'_valueOverReplacementPlayer'
p767
g3
sS'_trueShootingPercentage'
p768
S'.441'
p769
sS'_defensiveReboundPercentage'
p770
S'7.3'
p771
sS'_freeThrowsAttempRate'
p772
S'3.4'
p773
sS'_threePointsAttempRate'
p774
S'.372'
p775
sg26
S'NBA'
p776
sS'_offensiveBoxPlusMinues'
p777
S'-2.1'
p778
sS'_assistPercentage'
p779
S'1.5'
p780
sS'_defensiveWinShares'
p781
S'0.0'
p782
sg37
S'22'
p783
sg39
S'WSB'
p784
sg41
S'29'
p785
sS'_blockPercentage'
p786
S'15.8'
p787
sS'_playerEfficiencyRating'
p788
S'9.8'
p789
sS'_offensiveWinShares'
p790
S'0.2'
p791
sg59
S'153'
p792
sS'_boxPlusMinus'
p793
S'-0.2'
p794
sg52
S'1978-79'
p795
sS'_winShares'
p796
S'.001'
p797
sba(isrc.gp1.models.Advanced
Advanced
p798
(dp799
g752
S'5.0'
p800
sg754
S'12.6'
p801
sg756
S'.083'
p802
sg758
S'1.0'
p803
sg760
S'24.4'
p804
sg762
S'6.2'
p805
sg764
S'-2.5'
p806
sg21
S'SG'
p807
sg767
S'-0.4'
p808
sg768
S'.536'
p809
sg770
S'7.4'
p810
sg772
S'.277'
p811
sg774
S'.012'
p812
sg26
S'NBA'
p813
sg777
S'-0.6'
p814
sg779
S'10.2'
p815
sg781
S'1.0'
p816
sg37
S'23'
p817
sg39
S'TOT'
p818
sg41
S'78'
p819
sg786
S'0.2'
p820
sg788
S'14.2'
p821
sg790
S'1.6'
p822
sg59
S'1512'
p823
sg793
S'-3.0'
p824
sg52
S'1979-80'
p825
sg796
S'2.6'
p826
sba(isrc.gp1.models.Advanced
Advanced
p827
(dp828
g752
S'5.0'
p829
sg754
S'11.7'
p830
sg756
S'.078'
p831
sg758
S'0.9'
p832
sg760
S'24.2'
p833
sg762
S'5.9'
p834
sg764
S'-2.4'
p835
sg21
S'SG'
p836
sg767
S'-0.2'
p837
sg768
S'.527'
p838
sg770
S'6.9'
p839
sg772
S'.254'
p840
sg774
S'.011'
p841
sg26
S'NBA'
p842
sg777
S'-0.3'
p843
sg779
S'10.8'
p844
sg781
S'0.5'
p845
sg37
S'23'
p846
sg39
S'WSB'
p847
sg41
S'50'
p848
sg786
S'0.2'
p849
sg788
S'14.0'
p850
sg790
S'1.1'
p851
sg59
S'971'
p852
sg793
S'-2.7'
p853
sg52
S'1979-80'
p854
sg796
S'1.6'
p855
sba(isrc.gp1.models.Advanced
Advanced
p856
(dp857
g752
S'5.0'
p858
sg754
S'14.2'
p859
sg756
S'.092'
p860
sg758
S'1.3'
p861
sg760
S'24.6'
p862
sg762
S'6.7'
p863
sg764
S'-2.5'
p864
sg21
S'SG'
p865
sg767
S'-0.2'
p866
sg768
S'.551'
p867
sg770
S'8.4'
p868
sg772
S'.319'
p869
sg774
S'.015'
p870
sg26
S'NBA'
p871
sg777
S'-1.1'
p872
sg779
S'9.2'
p873
sg781
S'0.5'
p874
sg37
S'23'
p875
sg39
S'NJN'
p876
sg41
S'28'
p877
sg786
S'0.4'
p878
sg788
S'14.8'
p879
sg790
S'0.6'
p880
sg59
S'541'
p881
sg793
S'-3.6'
p882
sg52
S'1979-80'
p883
sg796
S'1.0'
p884
sba(isrc.gp1.models.Advanced
Advanced
p885
(dp886
g752
S'4.2'
p887
sg754
S'13.2'
p888
sg756
S'.078'
p889
sg758
S'1.4'
p890
sg760
S'22.1'
p891
sg762
S'6.0'
p892
sg764
S'-1.9'
p893
sg21
S'SG'
p894
sg767
S'0.3'
p895
sg768
S'.545'
p896
sg770
S'8.0'
p897
sg772
S'.277'
p898
sg774
S'.029'
p899
sg26
S'NBA'
p900
sg777
S'0.4'
p901
sg779
S'11.8'
p902
sg781
S'0.8'
p903
sg37
S'24'
p904
sg39
S'CLE'
p905
sg41
S'82'
p906
sg786
S'0.4'
p907
sg788
S'14.3'
p908
sg790
S'2.9'
p909
sg59
S'2269'
p910
sg793
S'-1.5'
p911
sg52
S'1980-81'
p912
sg796
S'3.7'
p913
sba(isrc.gp1.models.Advanced
Advanced
p914
(dp915
g752
S'5.5'
p916
sg754
S'10.6'
p917
sg756
S'.063'
p918
sg758
S'1.4'
p919
sg760
S'21.2'
p920
sg762
S'7.1'
p921
sg764
S'-1.9'
p922
sg21
S'SG'
p923
sg767
S'-0.1'
p924
sg768
S'.501'
p925
sg770
S'8.9'
p926
sg772
S'.215'
p927
sg774
S'.061'
p928
sg26
S'NBA'
p929
sg777
S'-0.4'
p930
sg779
S'13.7'
p931
sg781
S'0.6'
p932
sg37
S'25'
p933
sg39
S'TOT'
p934
sg41
S'81'
p935
sg786
S'0.4'
p936
sg788
S'13.0'
p937
sg790
S'1.0'
p938
sg59
S'1183'
p939
sg793
S'-2.3'
p940
sg52
S'1981-82'
p941
sg796
S'1.6'
p942
sba(isrc.gp1.models.Advanced
Advanced
p943
(dp944
g752
S'5.3'
p945
sg754
S'12.4'
p946
sg756
S'.058'
p947
sg758
S'1.4'
p948
sg760
S'19.4'
p949
sg762
S'7.1'
p950
sg764
S'-1.8'
p951
sg21
S'SG'
p952
sg767
S'0.0'
p953
sg768
S'.530'
p954
sg770
S'9.1'
p955
sg772
S'.210'
p956
sg774
S'.061'
p957
sg26
S'NBA'
p958
sg777
S'0.0'
p959
sg779
S'13.9'
p960
sg781
S'0.1'
p961
sg37
S'25'
p962
sg39
S'CLE'
p963
sg41
S'27'
p964
sg786
S'0.2'
p965
sg788
S'13.3'
p966
sg790
S'0.6'
p967
sg59
S'566'
p968
sg793
S'-1.8'
p969
sg52
S'1981-82'
p970
sg796
S'0.7'
p971
sba(isrc.gp1.models.Advanced
Advanced
p972
(dp973
g752
S'5.7'
p974
sg754
S'9.3'
p975
sg756
S'.067'
p976
sg758
S'1.5'
p977
sg760
S'22.8'
p978
sg762
S'7.2'
p979
sg764
S'-2.0'
p980
sg21
S'SG'
p981
sg767
S'-0.1'
p982
sg768
S'.480'
p983
sg770
S'8.7'
p984
sg772
S'.218'
p985
sg774
S'.061'
p986
sg26
S'NBA'
p987
sg777
S'-0.7'
p988
sg779
S'13.6'
p989
sg781
S'0.4'
p990
sg37
S'25'
p991
sg39
S'SAS'
p992
sg41
S'54'
p993
sg786
S'0.5'
p994
sg788
S'12.8'
p995
sg790
S'0.4'
p996
sg59
S'617'
p997
sg793
S'-2.7'
p998
sg52
S'1981-82'
p999
sg796
S'0.9'
p1000
sba(isrc.gp1.models.Advanced
Advanced
p1001
(dp1002
g752
S'7.4'
p1003
sg754
S'14.4'
p1004
sg756
S'.063'
p1005
sg758
S'2.3'
p1006
sg760
S'22.7'
p1007
sg762
S'7.6'
p1008
sg764
S'-1.5'
p1009
sg21
S'SG'
p1010
sg767
S'0.0'
p1011
sg768
S'.490'
p1012
sg770
S'7.9'
p1013
sg772
S'.210'
p1014
sg774
S'.052'
p1015
sg26
S'NBA'
p1016
sg777
S'-0.8'
p1017
sg779
S'13.6'
p1018
sg781
S'0.5'
p1019
sg37
S'26'
p1020
sg39
S'SAS'
p1021
sg41
S'62'
p1022
sg786
S'0.7'
p1023
sg788
S'13.0'
p1024
sg790
S'0.3'
p1025
sg59
S'599'
p1026
sg793
S'-2.3'
p1027
sg52
S'1982-83'
p1028
sg796
S'0.8'
p1029
sba(isrc.gp1.models.Advanced
Advanced
p1030
(dp1031
g752
S'2.7'
p1032
sg754
S'14.0'
p1033
sg756
S'-0.066'
p1034
sg758
S'0.6'
p1035
sg760
S'20.3'
p1036
sg762
S'7.2'
p1037
sg764
S'-3.2'
p1038
sg21
S'SG'
p1039
sg767
S'-0.2'
p1040
sg768
S'.381'
p1041
sg770
S'11.7'
p1042
sg772
S'.114'
p1043
sg774
S'.143'
p1044
sg26
S'NBA'
p1045
sg777
S'-5.8'
p1046
sg779
S'16.0'
p1047
sg781
S'0.0'
p1048
sg37
S'27'
p1049
sg39
S'TOT'
p1050
sg41
S'13'
p1051
sg786
S'0.0'
p1052
sg788
S'4.9'
p1053
sg790
S'-0.2'
p1054
sg59
S'87'
p1055
sg793
S'-9.0'
p1056
sg52
S'1983-84'
p1057
sg796
S'-0.1'
p1058
sba(isrc.gp1.models.Advanced
Advanced
p1059
(dp1060
g752
S'0.0'
p1061
sg754
S'17.0'
p1062
sg756
S'.212'
p1063
sg758
S'0.0'
p1064
sg760
S'20.7'
p1065
sg762
S'9.7'
p1066
sg764
S'-3.3'
p1067
sg21
S'SG'
p1068
sg767
S'0.0'
p1069
sg768
S'.717'
p1070
sg770
S'19.0'
p1071
sg772
S'.500'
p1072
sg774
S'.250'
p1073
sg26
S'NBA'
p1074
sg777
S'3.0'
p1075
sg779
S'22.8'
p1076
sg781
S'0.0'
p1077
sg37
S'27'
p1078
sg39
S'SAS'
p1079
sg41
g104
sg786
S'0.0'
p1080
sg788
S'20.7'
p1081
sg790
S'0.0'
p1082
sg59
S'11'
p1083
sg793
S'-0.3'
p1084
sg52
S'1983-84'
p1085
sg796
S'0.0'
p1086
sba(isrc.gp1.models.Advanced
Advanced
p1087
(dp1088
g752
S'3.1'
p1089
sg754
S'13.6'
p1090
sg756
S'-0.106'
p1091
sg758
S'0.6'
p1092
sg760
S'20.2'
p1093
sg762
S'6.9'
p1094
sg764
S'-3.1'
p1095
sg21
S'SG'
p1096
sg767
S'-0.2'
p1097
sg768
S'.329'
p1098
sg770
S'10.7'
p1099
sg772
S'.065'
p1100
sg774
S'.129'
p1101
sg26
S'NBA'
p1102
sg777
S'-7.1'
p1103
sg779
S'15.0'
p1104
sg781
S'0.0'
p1105
sg37
S'27'
p1106
sg39
S'DAL'
p1107
sg41
S'10'
p1108
sg786
S'0.0'
p1109
sg788
S'2.6'
p1110
sg790
S'-0.2'
p1111
sg59
S'76'
p1112
sg793
S'-10.2'
p1113
sg52
S'1983-84'
p1114
sg796
S'-0.2'
p1115
sbasS'_per36Minutes'
p1116
(lp1117
(isrc.gp1.models.Per36Minutes
Per36Minutes
p1118
(dp1119
g8
S'1.2'
p1120
sg10
S'.359'
p1121
sg12
S'6.6'
p1122
sg14
S'4.9'
p1123
sg16
S'5.6'
p1124
sg18
S'18.4'
p1125
sg20
g3
sg21
S'SG'
p1126
sg23
S'3.5'
p1127
sg26
S'NBA'
p1128
sg28
S'18.8'
p1129
sg30
S'.359'
p1130
sg32
g3
sg33
S'5.2'
p1131
sg35
S'4.0'
p1132
sg37
S'22'
p1133
sg39
S'WSB'
p1134
sg41
S'29'
p1135
sg43
g3
sg44
S'6.8'
p1136
sg46
S'4.0'
p1137
sg48
S'.828'
p1138
sg50
S'0.5'
p1139
sg52
S'1978-79'
p1140
sg54
S'18.4'
p1141
sg56
g3
sg57
S'1.2'
p1142
sg59
S'6.6'
p1143
sg61
S'153'
p1144
sba(isrc.gp1.models.Per36Minutes
Per36Minutes
p1145
(dp1146
g8
S'2.6'
p1147
sg10
S'.444'
p1148
sg12
S'0.1'
p1149
sg14
S'0.8'
p1150
sg16
S'8.2'
p1151
sg18
S'0.2'
p1152
sg20
g3
sg21
S'SG'
p1153
sg23
S'1.8'
p1154
sg26
S'NBA'
p1155
sg28
S'0.2'
p1156
sg30
S'.477'
p1157
sg32
S'21.0'
p1158
sg33
S'.872'
p1159
sg35
S'2.4'
p1160
sg37
S'23'
p1161
sg39
S'TOT'
p1162
sg41
S'78'
p1163
sg43
S'2.8'
p1164
sg44
S'17.2'
p1165
sg46
S'4.8'
p1166
sg48
S'.478'
p1167
sg50
S'4.4'
p1168
sg52
S'1979-80'
p1169
sg54
S'17.5'
p1170
sg56
S'3.8'
p1171
sg57
S'4.2'
p1172
sg59
S'8.3'
p1173
sg61
S'1512'
p1174
sba(isrc.gp1.models.Per36Minutes
Per36Minutes
p1175
(dp1176
g8
S'2.4'
p1177
sg10
S'.400'
p1178
sg12
S'0.1'
p1179
sg14
S'0.7'
p1180
sg16
S'8.2'
p1181
sg18
S'0.2'
p1182
sg20
g3
sg21
S'SG'
p1183
sg23
S'1.8'
p1184
sg26
S'NBA'
p1185
sg28
S'0.1'
p1186
sg30
S'.474'
p1187
sg32
S'20.5'
p1188
sg33
S'.867'
p1189
sg35
S'2.6'
p1190
sg37
S'23'
p1191
sg39
S'WSB'
p1192
sg41
S'50'
p1193
sg43
S'2.6'
p1194
sg44
S'17.4'
p1195
sg46
S'4.4'
p1196
sg48
S'.474'
p1197
sg50
S'4.3'
p1198
sg52
S'1979-80'
p1199
sg54
S'17.5'
p1200
sg56
S'3.9'
p1201
sg57
S'3.9'
p1202
sg59
S'8.3'
p1203
sg61
S'971'
p1204
sba(isrc.gp1.models.Per36Minutes
Per36Minutes
p1205
(dp1206
g8
S'2.9'
p1207
sg10
S'.500'
p1208
sg12
S'0.1'
p1209
sg14
S'1.0'
p1210
sg16
S'8.3'
p1211
sg18
S'0.3'
p1212
sg20
g3
sg21
S'SG'
p1213
sg23
S'1.7'
p1214
sg26
S'NBA'
p1215
sg28
S'0.3'
p1216
sg30
S'.485'
p1217
sg32
S'21.8'
p1218
sg33
S'.880'
p1219
sg35
S'2.1'
p1220
sg37
S'23'
p1221
sg39
S'NJN'
p1222
sg41
S'28'
p1223
sg43
S'3.3'
p1224
sg44
S'17.0'
p1225
sg46
S'5.5'
p1226
sg48
S'.484'
p1227
sg50
S'4.7'
p1228
sg52
S'1979-80'
p1229
sg54
S'17.3'
p1230
sg56
S'3.5'
p1231
sg57
S'4.9'
p1232
sg59
S'8.4'
p1233
sg61
S'541'
p1234
sba(isrc.gp1.models.Per36Minutes
Per36Minutes
p1235
(dp1236
g8
S'2.5'
p1237
sg10
S'.286'
p1238
sg12
S'0.1'
p1239
sg14
S'1.0'
p1240
sg16
S'7.4'
p1241
sg18
S'0.4'
p1242
sg20
g3
sg21
S'SG'
p1243
sg23
S'1.4'
p1244
sg26
S'NBA'
p1245
sg28
S'0.2'
p1246
sg30
S'.491'
p1247
sg32
S'18.7'
p1248
sg33
S'.839'
p1249
sg35
S'2.9'
p1250
sg37
S'24'
p1251
sg39
S'CLE'
p1252
sg41
S'82'
p1253
sg43
S'2.6'
p1254
sg44
S'14.9'
p1255
sg46
S'4.2'
p1256
sg48
S'.497'
p1257
sg50
S'3.9'
p1258
sg52
S'1980-81'
p1259
sg54
S'15.3'
p1260
sg56
S'4.2'
p1261
sg57
S'3.6'
p1262
sg59
S'7.5'
p1263
sg61
S'2269'
p1264
sba(isrc.gp1.models.Per36Minutes
Per36Minutes
p1265
(dp1266
g8
S'1.9'
p1267
sg10
S'0.9'
p1268
sg12
S'.460'
p1269
sg14
S'3.5'
p1270
sg16
S'.161'
p1271
sg18
S'0.2'
p1272
sg20
S'16.9'
p1273
sg21
S'SG'
p1274
sg23
S'.780'
p1275
sg26
S'NBA'
p1276
sg28
S'1.1'
p1277
sg30
S'15.4'
p1278
sg32
S'4.6'
p1279
sg33
S'3.3'
p1280
sg35
S'4.7'
p1281
sg37
S'25'
p1282
sg39
S'TOT'
p1283
sg41
S'81'
p1284
sg43
S'0.2'
p1285
sg44
S'6.9'
p1286
sg46
S'2.6'
p1287
sg48
S'14.5'
p1288
sg50
S'2.8'
p1289
sg52
S'1981-82'
p1290
sg54
S'7.1'
p1291
sg56
S'2.0'
p1292
sg57
S'.479'
p1293
sg59
S'1183'
p1294
sg61
g70
sba(isrc.gp1.models.Per36Minutes
Per36Minutes
p1295
(dp1296
g8
S'1.8'
p1297
sg10
S'0.8'
p1298
sg12
S'.486'
p1299
sg14
S'3.4'
p1300
sg16
S'.308'
p1301
sg18
S'0.3'
p1302
sg20
S'15.8'
p1303
sg21
S'SG'
p1304
sg23
S'.800'
p1305
sg26
S'NBA'
p1306
sg28
S'1.0'
p1307
sg30
S'13.6'
p1308
sg32
S'3.9'
p1309
sg33
S'2.9'
p1310
sg35
S'4.5'
p1311
sg37
S'25'
p1312
sg39
S'CLE'
p1313
sg41
S'27'
p1314
sg43
S'0.1'
p1315
sg44
S'6.4'
p1316
sg46
S'2.3'
p1317
sg48
S'12.8'
p1318
sg50
S'2.7'
p1319
sg52
S'1981-82'
p1320
sg54
S'6.6'
p1321
sg56
S'2.1'
p1322
sg57
S'.498'
p1323
sg59
S'566'
p1324
sg61
g155
sba(isrc.gp1.models.Per36Minutes
Per36Minutes
p1325
(dp1326
g8
S'1.9'
p1327
sg10
S'1.1'
p1328
sg12
S'.440'
p1329
sg14
S'3.6'
p1330
sg16
S'.056'
p1331
sg18
S'0.1'
p1332
sg20
S'18.0'
p1333
sg21
S'SG'
p1334
sg23
S'.766'
p1335
sg26
S'NBA'
p1336
sg28
S'1.2'
p1337
sg30
S'17.1'
p1338
sg32
S'5.3'
p1339
sg33
S'3.7'
p1340
sg35
S'4.8'
p1341
sg37
S'25'
p1342
sg39
S'SAS'
p1343
sg41
S'54'
p1344
sg43
S'0.4'
p1345
sg44
S'7.5'
p1346
sg46
S'2.9'
p1347
sg48
S'16.0'
p1348
sg50
S'2.9'
p1349
sg52
S'1981-82'
p1350
sg54
S'7.5'
p1351
sg56
S'1.9'
p1352
sg57
S'.465'
p1353
sg59
S'617'
p1354
sg61
g247
sba(isrc.gp1.models.Per36Minutes
Per36Minutes
p1355
(dp1356
g8
S'2.3'
p1357
sg10
S'0.8'
p1358
sg12
S'.449'
p1359
sg14
S'3.6'
p1360
sg16
S'.214'
p1361
sg18
S'0.2'
p1362
sg20
S'17.2'
p1363
sg21
S'SG'
p1364
sg23
S'.768'
p1365
sg26
S'NBA'
p1366
sg28
S'1.8'
p1367
sg30
S'16.0'
p1368
sg32
S'5.5'
p1369
sg33
S'3.4'
p1370
sg35
S'5.0'
p1371
sg37
S'26'
p1372
sg39
S'SAS'
p1373
sg41
S'62'
p1374
sg43
S'0.5'
p1375
sg44
S'7.0'
p1376
sg46
S'2.6'
p1377
sg48
S'15.2'
p1378
sg50
S'2.7'
p1379
sg52
S'1982-83'
p1380
sg54
S'7.2'
p1381
sg56
S'2.9'
p1382
sg57
S'.462'
p1383
sg59
S'599'
p1384
sg61
g67
sba(isrc.gp1.models.Per36Minutes
Per36Minutes
p1385
(dp1386
g8
S'0.8'
p1387
sg10
S'2.1'
p1388
sg12
S'.314'
p1389
sg14
S'4.6'
p1390
sg16
S'.400'
p1391
sg18
S'0.8'
p1392
sg20
S'11.6'
p1393
sg21
S'SG'
p1394
sg23
S'1.000'
p1395
sg26
S'NBA'
p1396
sg28
S'0.4'
p1397
sg30
S'14.5'
p1398
sg32
S'4.6'
p1399
sg33
S'1.7'
p1400
sg35
S'4.6'
p1401
sg37
S'27'
p1402
sg39
S'TOT'
p1403
sg41
S'13'
p1404
sg43
S'0.0'
p1405
sg44
S'3.7'
p1406
sg46
S'1.7'
p1407
sg48
S'12.4'
p1408
sg50
S'3.7'
p1409
sg52
S'1983-84'
p1410
sg54
S'4.6'
p1411
sg56
S'2.5'
p1412
sg57
S'.300'
p1413
sg59
S'87'
p1414
sg61
g316
sba(isrc.gp1.models.Per36Minutes
Per36Minutes
p1415
(dp1416
g8
S'0.0'
p1417
sg10
S'3.3'
p1418
sg12
S'.500'
p1419
sg14
S'6.5'
p1420
sg16
S'1.000'
p1421
sg18
S'3.3'
p1422
sg20
S'22.9'
p1423
sg21
S'SG'
p1424
sg23
S'1.000'
p1425
sg26
S'NBA'
p1426
sg28
S'0.0'
p1427
sg30
S'13.1'
p1428
sg32
S'3.3'
p1429
sg33
S'6.5'
p1430
sg35
S'6.5'
p1431
sg37
S'27'
p1432
sg39
S'SAS'
p1433
sg41
g104
sg43
S'0.0'
p1434
sg44
S'3.3'
p1435
sg46
S'6.5'
p1436
sg48
S'9.8'
p1437
sg50
S'6.5'
p1438
sg52
S'1983-84'
p1439
sg54
S'6.5'
p1440
sg56
S'3.3'
p1441
sg57
S'.333'
p1442
sg59
S'11'
p1443
sg61
g316
sba(isrc.gp1.models.Per36Minutes
Per36Minutes
p1444
(dp1445
g8
S'0.9'
p1446
sg10
S'1.9'
p1447
sg12
S'.290'
p1448
sg14
S'4.3'
p1449
sg16
S'.250'
p1450
sg18
S'0.5'
p1451
sg20
S'9.9'
p1452
sg21
S'SG'
p1453
sg23
S'1.000'
p1454
sg26
S'NBA'
p1455
sg28
S'0.5'
p1456
sg30
S'14.7'
p1457
sg32
S'4.7'
p1458
sg33
S'0.9'
p1459
sg35
S'4.3'
p1460
sg37
S'27'
p1461
sg39
S'DAL'
p1462
sg41
S'10'
p1463
sg43
S'0.0'
p1464
sg44
S'3.8'
p1465
sg46
S'0.9'
p1466
sg48
S'12.8'
p1467
sg50
S'3.3'
p1468
sg52
S'1983-84'
p1469
sg54
S'4.3'
p1470
sg56
S'2.4'
p1471
sg57
S'.296'
p1472
sg59
S'76'
p1473
sg61
g316
sbasS'_fromYear'
p1474
S'1979'
p1475
sS'_url'
p1476
S'http://www.basketball-reference.com/players/p/pheglro01.html'
p1477
sS'_perGame'
p1478
(isrc.gp1.models.PerGame
PerGame
p1479
(dp1480
g8
S'0.2'
p1481
sg10
S'0.4'
p1482
sg12
S'.290'
p1483
sS'_effectiveFieldGalPercentage'
p1484
S'.306'
p1485
sg14
S'0.9'
p1486
sg16
S'.250'
p1487
sg18
S'0.1'
p1488
sg20
S'2.1'
p1489
sg21
S'SG'
p1490
sg23
S'1.000'
p1491
sg26
S'NBA'
p1492
sg28
S'0.1'
p1493
sg32
S'1.0'
p1494
sS'_fieldGoalsttempted'
p1495
S'3.1'
p1496
sg33
S'0.2'
p1497
sg35
S'0.9'
p1498
sg37
S'27'
p1499
sg39
S'DAL'
p1500
sg41
S'10'
p1501
sg43
S'0.0'
p1502
sg44
S'0.8'
p1503
sg46
S'0.2'
p1504
sg48
S'2.7'
p1505
sg50
S'0.7'
p1506
sg52
S'1983-84'
p1507
sg54
S'0.9'
p1508
sg56
S'0.5'
p1509
sg57
S'.296'
p1510
sg59
S'7.6'
p1511
sg61
g316
sbsS'_weight'
p1512
S'205'
p1513
sS'_dob'
p1514
S'16-10-1956'
p1515
sS'_salary'
p1516
(lp1517
sg21
S'G-F'
p1518
sb.