(isrc.gp1.models.Player
Player
p0
(dp1
S'_experience'
p2
S'NA'
p3
sS'_totals'
p4
(lp5
(isrc.gp1.models.Totals
Totals
p6
(dp7
S'_offensiveRebounds'
p8
S'62'
p9
sS'_threePointsAttempted'
p10
S'.000'
p11
sS'_fieldGoalsPercentage'
p12
S'0'
p13
sS'_assist'
p14
S'21'
p15
sS'_threePointsPercentage'
p16
S'62'
p17
sS'_threePoints'
p18
S'2'
p19
sS'_points'
p20
g3
sS'_position'
p21
S'PF'
p22
sS'_freeThrowsPercentage'
p23
S'53'
p24
sS'_effectiveFieldGoalPercentage'
p25
S'21'
p26
sS'_league'
p27
S'ABA'
p28
sS'_steals'
p29
S'73'
p30
sS'_fieldGoalsAttempted'
p31
S'.470'
p32
sS'_personalFouls'
p33
g3
sS'_freeThrowsAttempted'
p34
S'.512'
p35
sS'_totalRebounds'
p36
S'23'
p37
sS'_age'
p38
S'22'
p39
sS'_team'
p40
S'KEN'
p41
sS'_games'
p42
S'31'
p43
sS'_blocks'
p44
S'145'
p45
sS'_twoPoints'
p46
S'130'
p47
sS'_freeThrows'
p48
S'41'
p49
sS'_twoPointsAttempted'
p50
S'.477'
p51
sS'_defensiveRebounds'
p52
S'115'
p53
sS'_season'
p54
S'1972-73'
p55
sS'_fieldGoals'
p56
S'132'
p57
sS'_turnOvers'
p58
g3
sS'_twoPointsPercentage'
p59
S'.470'
p60
sS'_minutesPlayed'
p61
S'62'
p62
sS'_gamesStarted'
p63
S'369'
p64
sba(isrc.gp1.models.Totals
Totals
p65
(dp66
g8
S'177'
p67
sg10
S'.143'
p68
sg12
S'1'
p69
sg14
S'48'
p70
sg16
S'127'
p71
sg18
S'7'
p72
sg20
g3
sg21
S'PF'
p73
sg23
S'112'
p74
sg25
S'37'
p75
sg27
S'ABA'
p76
sg29
g72
sg31
S'.469'
p77
sg33
S'294'
p78
sg34
S'.587'
p79
sg36
S'62'
p80
sg38
S'23'
p81
sg40
S'KEN'
p82
sg42
S'71'
p83
sg44
S'71'
p84
sg46
S'266'
p85
sg48
S'63'
p86
sg50
S'.477'
p87
sg52
S'289'
p88
sg54
S'1973-74'
p89
sg56
S'273'
p90
sg58
S'156'
p91
sg59
S'.471'
p92
sg61
S'128'
p93
sg63
S'976'
p94
sba(isrc.gp1.models.Totals
Totals
p95
(dp96
g8
S'176'
p97
sg10
S'.333'
p98
sg12
g69
sg14
S'51'
p99
sg16
S'114'
p100
sg18
S'3'
p101
sg20
g3
sg21
S'PF'
p102
sg23
S'124'
p103
sg25
S'57'
p104
sg27
S'ABA'
p105
sg29
S'14'
p106
sg31
S'.449'
p107
sg33
S'288'
p108
sg34
S'.479'
p109
sg36
S'46'
p110
sg38
S'24'
p111
sg40
S'KEN'
p112
sg42
S'79'
p113
sg44
S'71'
p114
sg46
S'253'
p115
sg48
S'119'
p116
sg50
S'.451'
p117
sg52
S'300'
p118
sg54
S'1974-75'
p119
sg56
S'256'
p120
sg58
S'133'
p121
sg59
S'.451'
p122
sg61
S'115'
p123
sg63
S'830'
p124
sba(isrc.gp1.models.Totals
Totals
p125
(dp126
g8
S'223'
p127
sg10
S'.500'
p128
sg12
g69
sg14
S'61'
p129
sg16
S'133'
p130
sg18
g19
sg20
g3
sg21
S'PF'
p131
sg23
S'148'
p132
sg25
S'55'
p133
sg27
S'ABA'
p134
sg29
S'18'
p135
sg31
S'.484'
p136
sg33
S'324'
p137
sg34
S'.585'
p138
sg36
S'67'
p139
sg38
S'25'
p140
sg40
S'KEN'
p141
sg42
S'83'
p142
sg44
S'71'
p143
sg46
S'275'
p144
sg48
S'94'
p145
sg50
S'.484'
p146
sg52
S'371'
p147
sg54
S'1975-76'
p148
sg56
S'277'
p149
sg58
S'168'
p150
sg59
S'.486'
p151
sg61
S'134'
p152
sg63
S'1117'
p153
sbasS'_college'
p154
S'University of Louisville'
p155
sS'_toYear'
p156
S'1976'
p157
sS'_height'
p158
S'6-6'
p159
sS'_active'
p160
I00
sS'_shootingHand'
p161
VRight
p162
sS'_name'
p163
S'Ronald Thomas'
p164
sS'_per100Possessions'
p165
(lp166
(isrc.gp1.models.Per100Possession
Per100Possession
p167
(dp168
g8
S'8.4'
p169
sg10
S'.143'
p170
sg12
S'0.0'
p171
sS'_offensiveRating'
p172
S'97'
p173
sg14
S'2.3'
p174
sg16
S'6.0'
p175
sg18
S'0.3'
p176
sg20
S'98'
p177
sg21
S'PF'
p178
sS'_defensiveRating'
p179
g3
sg23
S'5.3'
p180
sg27
S'ABA'
p181
sg29
S'0.3'
p182
sg31
S'.469'
p183
sg33
S'14.0'
p184
sg34
S'.587'
p185
sg36
S'2.9'
p186
sg38
S'23'
p187
sg40
S'KEN'
p188
sg42
S'71'
p189
sg44
S'3.4'
p190
sg46
S'12.7'
p191
sg48
S'3.0'
p192
sg50
S'.477'
p193
sg52
S'13.7'
p194
sg54
S'1973-74'
p195
sg56
S'13.0'
p196
sg58
S'7.4'
p197
sg59
S'1.8'
p198
sg61
S'6.1'
p199
sg63
S'976'
p200
sba(isrc.gp1.models.Per100Possession
Per100Possession
p201
(dp202
g8
S'9.9'
p203
sg10
S'.333'
p204
sg12
S'0.1'
p205
sg172
S'94'
p206
sg14
S'2.9'
p207
sg16
S'6.4'
p208
sg18
S'0.2'
p209
sg20
S'95'
p210
sg21
S'PF'
p211
sg179
g3
sg23
S'7.0'
p212
sg27
S'ABA'
p213
sg29
S'0.8'
p214
sg31
S'.449'
p215
sg33
S'16.3'
p216
sg34
S'.479'
p217
sg36
S'2.6'
p218
sg38
S'24'
p219
sg40
S'KEN'
p220
sg42
S'79'
p221
sg44
S'4.0'
p222
sg46
S'14.3'
p223
sg48
S'6.7'
p224
sg50
S'.451'
p225
sg52
S'16.9'
p226
sg54
S'1974-75'
p227
sg56
S'14.5'
p228
sg58
S'7.5'
p229
sg59
S'3.2'
p230
sg61
S'6.5'
p231
sg63
S'830'
p232
sba(isrc.gp1.models.Per100Possession
Per100Possession
p233
(dp234
g8
S'9.1'
p235
sg10
S'.500'
p236
sg12
S'0.0'
p237
sg172
S'99'
p238
sg14
S'2.5'
p239
sg16
S'5.4'
p240
sg18
S'0.1'
p241
sg20
S'104'
p242
sg21
S'PF'
p243
sg179
g3
sg23
S'6.0'
p244
sg27
S'ABA'
p245
sg29
S'0.7'
p246
sg31
S'.484'
p247
sg33
S'13.2'
p248
sg34
S'.585'
p249
sg36
S'2.7'
p250
sg38
S'25'
p251
sg40
S'KEN'
p252
sg42
S'83'
p253
sg44
S'2.9'
p254
sg46
S'11.2'
p255
sg48
S'3.8'
p256
sg50
S'.484'
p257
sg52
S'15.1'
p258
sg54
S'1975-76'
p259
sg56
S'11.2'
p260
sg58
S'6.8'
p261
sg59
S'2.2'
p262
sg61
S'5.4'
p263
sg63
S'1117'
p264
sbasS'_advanced'
p265
(lp266
(isrc.gp1.models.Advanced
Advanced
p267
(dp268
S'_offensiveReboundPercentage'
p269
S'13.6'
p270
sS'_turnOverPercentage'
p271
S'0.0'
p272
sS'_winSharesPer48Minutes'
p273
g3
sS'_stealPercentage'
p274
S'12.3'
p275
sS'_usagePercentage'
p276
S'0.8'
p277
sS'_totalReboundsPercentage'
p278
S'14.9'
p279
sS'_defensiveBoxPlusMinus'
p280
g3
sg21
S'PF'
p281
sS'_valueOverReplacementPlayer'
p282
g3
sS'_trueShootingPercentage'
p283
S'.483'
p284
sS'_defensiveReboundPercentage'
p285
S'16.2'
p286
sS'_freeThrowsAttempRate'
p287
S'.311'
p288
sS'_threePointsAttempRate'
p289
S'.015'
p290
sg27
S'ABA'
p291
sS'_offensiveBoxPlusMinues'
p292
g3
sS'_assistPercentage'
p293
S'8.1'
p294
sS'_defensiveWinShares'
p295
S'.103'
p296
sg38
S'22'
p297
sg40
S'KEN'
p298
sg42
S'31'
p299
sS'_blockPercentage'
p300
S'18.1'
p301
sS'_playerEfficiencyRating'
p302
S'12.5'
p303
sS'_offensiveWinShares'
p304
S'0.8'
p305
sg61
S'369'
p306
sS'_boxPlusMinus'
p307
g3
sg54
S'1972-73'
p308
sS'_winShares'
p309
g3
sba(isrc.gp1.models.Advanced
Advanced
p310
(dp311
g269
S'10.9'
p312
sg271
S'19.1'
p313
sg273
S'.098'
p314
sg274
S'2.3'
p315
sg276
S'14.7'
p316
sg278
S'13.9'
p317
sg280
S'1.8'
p318
sg21
S'PF'
p319
sg282
S'0.5'
p320
sg283
S'.489'
p321
sg285
S'16.9'
p322
sg287
S'.231'
p323
sg289
S'.026'
p324
sg27
S'ABA'
p325
sg292
S'-1.7'
p326
sg293
S'8.2'
p327
sg295
S'1.7'
p328
sg38
S'23'
p329
sg40
S'KEN'
p330
sg42
S'71'
p331
sg300
S'0.4'
p332
sg302
S'11.6'
p333
sg304
S'0.3'
p334
sg61
S'976'
p335
sg307
S'0.1'
p336
sg54
S'1973-74'
p337
sg309
S'2.0'
p338
sba(isrc.gp1.models.Advanced
Advanced
p339
(dp340
g269
S'15.2'
p341
sg271
S'18.7'
p342
sg273
S'.107'
p343
sg274
S'2.9'
p344
sg276
S'18.0'
p345
sg278
S'18.0'
p346
sg280
S'2.1'
p347
sg21
S'PF'
p348
sg282
S'0.4'
p349
sg283
S'.467'
p350
sg285
S'20.7'
p351
sg287
S'.465'
p352
sg289
S'.012'
p353
sg27
S'ABA'
p354
sg292
S'-2.1'
p355
sg293
S'7.1'
p356
sg295
S'2.0'
p357
sg38
S'24'
p358
sg40
S'KEN'
p359
sg42
S'79'
p360
sg300
S'0.9'
p361
sg302
S'13.3'
p362
sg304
S'-0.1'
p363
sg61
S'830'
p364
sg307
S'0.0'
p365
sg54
S'1974-75'
p366
sg309
S'1.8'
p367
sba(isrc.gp1.models.Advanced
Advanced
p368
(dp369
g269
S'12.9'
p370
sg271
S'18.2'
p371
sg273
S'.117'
p372
sg274
S'2.5'
p373
sg276
S'13.3'
p374
sg278
S'15.9'
p375
sg280
S'1.9'
p376
sg21
S'PF'
p377
sg282
S'0.8'
p378
sg283
S'.509'
p379
sg285
S'18.8'
p380
sg287
S'.339'
p381
sg289
S'.007'
p382
sg27
S'ABA'
p383
sg292
S'-1.0'
p384
sg293
S'7.5'
p385
sg295
S'1.9'
p386
sg38
S'25'
p387
sg40
S'KEN'
p388
sg42
S'83'
p389
sg300
S'0.9'
p390
sg302
S'12.9'
p391
sg304
S'0.9'
p392
sg61
S'1117'
p393
sg307
S'1.0'
p394
sg54
S'1975-76'
p395
sg309
S'2.7'
p396
sbasS'_per36Minutes'
p397
(lp398
(isrc.gp1.models.Per36Minutes
Per36Minutes
p399
(dp400
g8
S'6.0'
p401
sg10
S'.000'
p402
sg12
S'0.0'
p403
sg14
S'2.0'
p404
sg16
S'6.0'
p405
sg18
S'0.2'
p406
sg20
g3
sg21
S'PF'
p407
sg23
S'5.2'
p408
sg27
S'ABA'
p409
sg29
S'7.1'
p410
sg31
S'.470'
p411
sg33
g3
sg34
S'.512'
p412
sg36
S'2.2'
p413
sg38
S'22'
p414
sg40
S'KEN'
p415
sg42
S'31'
p416
sg44
S'14.1'
p417
sg46
S'12.7'
p418
sg48
S'4.0'
p419
sg50
S'.477'
p420
sg52
S'11.2'
p421
sg54
S'1972-73'
p422
sg56
S'12.9'
p423
sg58
g3
sg59
S'2.0'
p424
sg61
S'6.0'
p425
sg63
S'369'
p426
sba(isrc.gp1.models.Per36Minutes
Per36Minutes
p427
(dp428
g8
S'6.5'
p429
sg10
S'.143'
p430
sg12
S'0.0'
p431
sg14
S'1.8'
p432
sg16
S'4.7'
p433
sg18
S'0.3'
p434
sg20
g3
sg21
S'PF'
p435
sg23
S'4.1'
p436
sg27
S'ABA'
p437
sg29
S'0.3'
p438
sg31
S'.469'
p439
sg33
S'10.8'
p440
sg34
S'.587'
p441
sg36
S'2.3'
p442
sg38
S'23'
p443
sg40
S'KEN'
p444
sg42
S'71'
p445
sg44
S'2.6'
p446
sg46
S'9.8'
p447
sg48
S'2.3'
p448
sg50
S'.477'
p449
sg52
S'10.7'
p450
sg54
S'1973-74'
p451
sg56
S'10.1'
p452
sg58
S'5.8'
p453
sg59
S'1.4'
p454
sg61
S'4.7'
p455
sg63
S'976'
p456
sba(isrc.gp1.models.Per36Minutes
Per36Minutes
p457
(dp458
g8
S'7.6'
p459
sg10
S'.333'
p460
sg12
S'0.0'
p461
sg14
S'2.2'
p462
sg16
S'4.9'
p463
sg18
S'0.1'
p464
sg20
g3
sg21
S'PF'
p465
sg23
S'5.4'
p466
sg27
S'ABA'
p467
sg29
S'0.6'
p468
sg31
S'.449'
p469
sg33
S'12.5'
p470
sg34
S'.479'
p471
sg36
S'2.0'
p472
sg38
S'24'
p473
sg40
S'KEN'
p474
sg42
S'79'
p475
sg44
S'3.1'
p476
sg46
S'11.0'
p477
sg48
S'5.2'
p478
sg50
S'.451'
p479
sg52
S'13.0'
p480
sg54
S'1974-75'
p481
sg56
S'11.1'
p482
sg58
S'5.8'
p483
sg59
S'2.5'
p484
sg61
S'5.0'
p485
sg63
S'830'
p486
sba(isrc.gp1.models.Per36Minutes
Per36Minutes
p487
(dp488
g8
S'7.2'
p489
sg10
S'.500'
p490
sg12
S'0.0'
p491
sg14
S'2.0'
p492
sg16
S'4.3'
p493
sg18
S'0.1'
p494
sg20
g3
sg21
S'PF'
p495
sg23
S'4.8'
p496
sg27
S'ABA'
p497
sg29
S'0.6'
p498
sg31
S'.484'
p499
sg33
S'10.4'
p500
sg34
S'.585'
p501
sg36
S'2.2'
p502
sg38
S'25'
p503
sg40
S'KEN'
p504
sg42
S'83'
p505
sg44
S'2.3'
p506
sg46
S'8.9'
p507
sg48
S'3.0'
p508
sg50
S'.484'
p509
sg52
S'12.0'
p510
sg54
S'1975-76'
p511
sg56
S'8.9'
p512
sg58
S'5.4'
p513
sg59
S'1.8'
p514
sg61
S'4.3'
p515
sg63
S'1117'
p516
sbasS'_fromYear'
p517
S'1973'
p518
sS'_url'
p519
S'http://www.basketball-reference.com/players/t/thomaro01.html'
p520
sS'_perGame'
p521
(isrc.gp1.models.PerGame
PerGame
p522
(dp523
g8
S'2.7'
p524
sg10
S'.500'
p525
sg12
S'0.0'
p526
sS'_effectiveFieldGalPercentage'
p527
S'0.7'
p528
sg14
S'0.7'
p529
sg16
S'1.6'
p530
sg18
S'0.0'
p531
sg20
g3
sg21
S'PF'
p532
sg23
S'1.8'
p533
sg27
S'ABA'
p534
sg29
S'0.2'
p535
sg33
S'3.9'
p536
sS'_fieldGoalsttempted'
p537
S'.484'
p538
sg34
S'.585'
p539
sg36
S'0.8'
p540
sg38
S'25'
p541
sg40
S'KEN'
p542
sg42
S'83'
p543
sg44
S'0.9'
p544
sg46
S'3.3'
p545
sg48
S'1.1'
p546
sg50
S'.484'
p547
sg52
S'4.5'
p548
sg54
S'1975-76'
p549
sg56
S'3.3'
p550
sg58
S'2.0'
p551
sg59
S'.486'
p552
sg61
S'1.6'
p553
sg63
S'13.5'
p554
sbsS'_weight'
p555
S'215'
p556
sS'_dob'
p557
S'19-11-1950'
p558
sS'_salary'
p559
(lp560
sg21
S'F'
p561
sb.