(isrc.gp1.models.Player
Player
p0
(dp1
S'_experience'
p2
S'NA'
p3
sS'_totals'
p4
(lp5
(isrc.gp1.models.Totals
Totals
p6
(dp7
S'_offensiveRebounds'
p8
S'56'
p9
sS'_threePointsAttempted'
p10
S'.432'
p11
sS'_fieldGoalsPercentage'
p12
S'357'
p13
sS'_assist'
p14
S'876'
p15
sS'_threePointsPercentage'
p16
S'.432'
p17
sS'_threePoints'
p18
S'827'
p19
sS'_points'
p20
g3
sS'_position'
p21
S'PF'
p22
sS'_freeThrowsPercentage'
p23
S'134'
p24
sS'_effectiveFieldGoalPercentage'
p25
S'188'
p26
sS'_league'
p27
S'NBA'
p28
sS'_steals'
p29
g3
sS'_fieldGoalsAttempted'
p30
S'.432'
p31
sS'_personalFouls'
p32
g3
sS'_freeThrowsAttempted'
p33
S'567'
p34
sS'_totalRebounds'
p35
S'291'
p36
sS'_age'
p37
S'23'
p38
sS'_team'
p39
S'KCO'
p40
sS'_games'
p41
S'80'
p42
sS'_blocks'
p43
g3
sS'_twoPoints'
p44
S'162'
p45
sS'_freeThrows'
p46
S'379'
p47
sS'_twoPointsAttempted'
p48
S'212'
p49
sS'_defensiveRebounds'
p50
S'37'
p51
sS'_season'
p52
S'1973-74'
p53
sS'_fieldGoals'
p54
S'827'
p55
sS'_turnOvers'
p56
g3
sS'_twoPointsPercentage'
p57
S'.764'
p58
sS'_minutesPlayed'
p59
S'357'
p60
sS'_gamesStarted'
p61
S'2059'
p62
sba(isrc.gp1.models.Totals
Totals
p63
(dp64
g8
S'60'
p65
sg10
S'.399'
p66
sg12
S'333'
p67
sg14
S'865'
p68
sg16
S'.399'
p69
sg18
S'834'
p70
sg20
g3
sg21
S'PF'
p71
sg23
S'153'
p72
sg25
S'146'
p73
sg27
S'NBA'
p74
sg29
g3
sg30
S'.399'
p75
sg32
g3
sg33
S'592'
p76
sg35
S'301'
p77
sg37
S'24'
p78
sg39
S'KCO'
p79
sg41
S'81'
p80
sg43
g3
sg44
S'199'
p81
sg46
S'446'
p82
sg48
S'264'
p83
sg50
S'42'
p84
sg52
S'1974-75'
p85
sg54
S'834'
p86
sg56
g3
sg57
S'.754'
p87
sg59
S'333'
p88
sg61
S'2205'
p89
sba(isrc.gp1.models.Totals
Totals
p90
(dp91
g8
S'67'
p92
sg10
S'.446'
p93
sg12
S'308'
p94
sg14
S'760'
p95
sg16
S'.446'
p96
sg18
S'691'
p97
sg20
g3
sg21
S'PF'
p98
sg23
S'139'
p99
sg25
S'190'
p100
sg27
S'NBA'
p101
sg29
g3
sg30
S'.446'
p102
sg32
g3
sg33
S'553'
p103
sg35
S'222'
p104
sg37
S'25'
p105
sg39
S'NOJ'
p106
sg41
S'66'
p107
sg43
g3
sg44
S'144'
p108
sg46
S'363'
p109
sg48
S'179'
p110
sg50
S'26'
p111
sg52
S'1975-76'
p112
sg54
S'691'
p113
sg56
g3
sg57
S'.804'
p114
sg59
S'308'
p115
sg61
S'1733'
p116
sba(isrc.gp1.models.Totals
Totals
p117
(dp118
g8
S'41'
p119
sg10
S'.418'
p120
sg12
S'213'
p121
sg14
S'516'
p122
sg16
S'.418'
p123
sg18
S'509'
p124
sg20
g3
sg21
S'PF'
p125
sg23
S'83'
p126
sg25
S'144'
p127
sg27
S'NBA'
p128
sg29
g3
sg30
S'.418'
p129
sg32
g3
sg33
S'431'
p130
sg35
S'166'
p131
sg37
S'26'
p132
sg39
S'NOJ'
p133
sg41
S'60'
p134
sg43
g3
sg44
S'90'
p135
sg46
S'287'
p136
sg48
S'126'
p137
sg50
S'19'
p138
sg52
S'1976-77'
p139
sg54
S'509'
p140
sg56
g3
sg57
S'.714'
p141
sg59
S'213'
p142
sg61
S'1170'
p143
sba(isrc.gp1.models.Totals
Totals
p144
(dp145
g8
S'62'
p146
sg10
S'.430'
p147
sg12
S'346'
p148
sg14
S'263'
p149
sg16
S'.430'
p150
sg18
S'804'
p151
sg20
g3
sg21
S'PF'
p152
sg23
S'101'
p153
sg25
S'201'
p154
sg27
S'NBA'
p155
sg29
S'871'
p156
sg30
S'.430'
p157
sg32
g3
sg33
S'513'
p158
sg35
S'174'
p159
sg37
S'27'
p160
sg39
S'TOT'
p161
sg41
S'80'
p162
sg43
g3
sg44
S'179'
p163
sg46
S'312'
p164
sg48
S'247'
p165
sg50
S'31'
p166
sg52
S'1977-78'
p167
sg54
S'804'
p168
sg56
g3
sg57
S'.725'
p169
sg59
S'346'
p170
sg61
S'1735'
p171
sba(isrc.gp1.models.Totals
Totals
p172
(dp173
g8
S'30'
p174
sg10
S'.470'
p175
sg12
S'117'
p176
sg14
S'97'
p177
sg16
S'.470'
p178
sg18
S'249'
p179
sg20
g3
sg21
S'PF'
p180
sg23
S'34'
p181
sg25
S'53'
p182
sg27
S'NBA'
p183
sg29
S'285'
p184
sg30
S'.470'
p185
sg32
g3
sg33
S'173'
p186
sg35
S'58'
p187
sg37
S'27'
p188
sg39
S'ATL'
p189
sg41
S'26'
p190
sg43
g3
sg44
S'51'
p191
sg46
S'120'
p192
sg48
S'70'
p193
sg50
S'12'
p194
sg52
S'1977-78'
p195
sg54
S'249'
p196
sg56
g3
sg57
S'.729'
p197
sg59
S'117'
p198
sg61
S'571'
p199
sba(isrc.gp1.models.Totals
Totals
p200
(dp201
g8
S'0'
p202
sg10
S'.636'
p203
sg12
S'7'
p204
sg14
S'6'
p205
sg16
S'.636'
p206
sg18
S'11'
p207
sg20
g3
sg21
S'PF'
p208
sg23
S'2'
p209
sg25
g209
sg27
S'NBA'
p210
sg29
S'14'
p211
sg30
S'.636'
p212
sg32
g3
sg33
g204
sg35
S'3'
p213
sg37
S'27'
p214
sg39
S'HOU'
p215
sg41
g213
sg43
g3
sg44
g202
sg46
S'5'
p216
sg48
S'1'
p217
sg50
g202
sg52
S'1977-78'
p218
sg54
S'11'
p219
sg56
g3
sg57
S'.000'
p220
sg59
g204
sg61
S'33'
p221
sba(isrc.gp1.models.Totals
Totals
p222
(dp223
g8
S'32'
p224
sg10
S'.408'
p225
sg12
S'222'
p226
sg14
S'160'
p227
sg16
S'.408'
p228
sg18
S'544'
p229
sg20
g3
sg21
S'PF'
p230
sg23
S'65'
p231
sg25
S'146'
p232
sg27
S'NBA'
p233
sg29
S'572'
p234
sg30
S'.408'
p235
sg32
g3
sg33
S'333'
p236
sg35
S'113'
p237
sg37
S'27'
p238
sg39
S'IND'
p239
sg41
S'51'
p240
sg43
g3
sg44
S'128'
p241
sg46
S'187'
p242
sg48
S'176'
p243
sg50
S'19'
p244
sg52
S'1977-78'
p245
sg54
S'544'
p246
sg56
g3
sg57
S'.727'
p247
sg59
S'222'
p248
sg61
S'1131'
p249
sba(isrc.gp1.models.Totals
Totals
p250
(dp251
g8
S'4'
p252
sg10
S'.452'
p253
sg12
S'28'
p254
sg14
S'36'
p255
sg16
S'.452'
p256
sg18
S'62'
p257
sg20
g3
sg21
S'PF'
p258
sg23
g204
sg25
S'13'
p259
sg27
S'NBA'
p260
sg29
S'66'
p261
sg30
S'.452'
p262
sg32
g3
sg33
S'42'
p263
sg35
S'11'
p264
sg37
S'28'
p265
sg39
S'TOT'
p266
sg41
S'15'
p267
sg43
g3
sg44
S'10'
p268
sg46
S'29'
p269
sg48
S'13'
p270
sg50
g217
sg52
S'1978-79'
p271
sg54
S'62'
p272
sg56
g3
sg57
S'.769'
p273
sg59
S'28'
p274
sg61
S'165'
p275
sba(isrc.gp1.models.Totals
Totals
p276
(dp277
g8
g202
sg10
g202
sg12
g202
sg14
g3
sg16
g202
sg18
g202
sg20
g3
sg21
S'PF'
p278
sg23
g217
sg25
g202
sg27
S'NBA'
p279
sg29
g3
sg30
g202
sg32
g3
sg33
g217
sg35
g3
sg37
S'28'
p280
sg39
S'DET'
p281
sg41
g217
sg43
g3
sg44
g202
sg46
g202
sg48
g202
sg50
g3
sg52
S'1978-79'
p282
sg54
g202
sg56
g3
sg57
g202
sg59
g202
sg61
g217
sba(isrc.gp1.models.Totals
Totals
p283
(dp284
g8
g209
sg10
S'.417'
p285
sg12
g216
sg14
S'8'
p286
sg16
S'.417'
p287
sg18
S'12'
p288
sg20
g3
sg21
S'PF'
p289
sg23
g209
sg25
g209
sg27
S'NBA'
p290
sg29
S'12'
p291
sg30
S'.417'
p292
sg32
g3
sg33
S'11'
p293
sg35
g252
sg37
S'28'
p294
sg39
S'NYK'
p295
sg41
g216
sg43
g3
sg44
g209
sg46
S'9'
p296
sg48
g209
sg50
g202
sg52
S'1978-79'
p297
sg54
S'12'
p298
sg56
g3
sg57
S'1.000'
p299
sg59
g216
sg61
S'38'
p300
sba(isrc.gp1.models.Totals
Totals
p301
(dp302
g8
g209
sg10
S'.460'
p303
sg12
S'23'
p304
sg14
S'27'
p305
sg16
S'.460'
p306
sg18
S'50'
p307
sg20
g3
sg21
S'PF'
p308
sg23
g216
sg25
S'11'
p309
sg27
S'NBA'
p310
sg29
S'54'
p311
sg30
S'.460'
p312
sg32
g3
sg33
S'31'
p313
sg35
g205
sg37
S'28'
p314
sg39
S'KCK'
p315
sg41
g296
sg43
g3
sg44
g286
sg46
S'20'
p316
sg48
S'11'
p317
sg50
g217
sg52
S'1978-79'
p318
sg54
S'50'
p319
sg56
g3
sg57
S'.727'
p320
sg59
S'23'
p321
sg61
S'126'
p322
sba(isrc.gp1.models.Totals
Totals
p323
(dp324
g8
S'14'
p325
sg10
g296
sg12
g202
sg14
g252
sg16
S'23'
p326
sg18
g202
sg20
g3
sg21
S'PF'
p327
sg23
g286
sg25
g205
sg27
S'NBA'
p328
sg29
g252
sg30
S'.391'
p329
sg32
g3
sg33
g205
sg35
g202
sg37
S'29'
p330
sg39
S'WSB'
p331
sg41
g205
sg43
S'14'
p332
sg44
S'.391'
p333
sg46
S'.833'
p334
sg48
S'.391'
p335
sg50
g204
sg52
S'1979-80'
p336
sg54
S'23'
p337
sg56
S'23'
p338
sg57
g216
sg59
g296
sg61
S'64'
p339
sbasS'_college'
p340
S'University of Minnesota'
p341
sS'_toYear'
p342
S'1980'
p343
sS'_height'
p344
S'6-9'
p345
sS'_active'
p346
I00
sS'_shootingHand'
p347
VRight
p348
sS'_name'
p349
S'Ron Behagen'
p350
sS'_per100Possessions'
p351
(lp352
(isrc.gp1.models.Per100Possession
Per100Possession
p353
(dp354
g8
S'1.2'
p355
sg10
S'.432'
p356
sg12
S'7.8'
p357
sS'_offensiveRating'
p358
g3
sg14
S'19.2'
p359
sg16
S'3.6'
p360
sg18
S'18.2'
p361
sg20
g3
sg21
S'PF'
p362
sS'_defensiveRating'
p363
g3
sg23
S'2.9'
p364
sg27
S'NBA'
p365
sg29
S'99'
p366
sg30
S'.432'
p367
sg32
g3
sg33
S'12.5'
p368
sg35
S'6.4'
p369
sg37
S'23'
p370
sg39
S'KCO'
p371
sg41
S'80'
p372
sg43
g3
sg44
S'4.7'
p373
sg46
S'8.3'
p374
sg48
S'.764'
p375
sg50
S'0.8'
p376
sg52
S'1973-74'
p377
sg54
S'18.2'
p378
sg56
g3
sg57
S'4.1'
p379
sg59
S'7.8'
p380
sg61
S'2059'
p381
sba(isrc.gp1.models.Per100Possession
Per100Possession
p382
(dp383
g8
S'1.3'
p384
sg10
S'.399'
p385
sg12
S'6.9'
p386
sg358
g3
sg14
S'18.0'
p387
sg16
S'4.1'
p388
sg18
S'17.4'
p389
sg20
g3
sg21
S'PF'
p390
sg363
g3
sg23
S'3.2'
p391
sg27
S'NBA'
p392
sg29
S'96'
p393
sg30
S'.399'
p394
sg32
g3
sg33
S'12.3'
p395
sg35
S'6.3'
p396
sg37
S'24'
p397
sg39
S'KCO'
p398
sg41
S'81'
p399
sg43
g3
sg44
S'5.5'
p400
sg46
S'9.3'
p401
sg48
S'.754'
p402
sg50
S'0.9'
p403
sg52
S'1974-75'
p404
sg54
S'17.4'
p405
sg56
g3
sg57
S'3.0'
p406
sg59
S'6.9'
p407
sg61
S'2205'
p408
sba(isrc.gp1.models.Per100Possession
Per100Possession
p409
(dp410
g8
S'1.7'
p411
sg10
S'.446'
p412
sg12
S'8.0'
p413
sg358
g3
sg14
S'19.7'
p414
sg16
S'3.7'
p415
sg18
S'17.9'
p416
sg20
g3
sg21
S'PF'
p417
sg363
g3
sg23
S'3.6'
p418
sg27
S'NBA'
p419
sg29
S'95'
p420
sg30
S'.446'
p421
sg32
g3
sg33
S'14.4'
p422
sg35
S'5.8'
p423
sg37
S'25'
p424
sg39
S'NOJ'
p425
sg41
S'66'
p426
sg43
g3
sg44
S'4.6'
p427
sg46
S'9.4'
p428
sg48
S'.804'
p429
sg50
S'0.7'
p430
sg52
S'1975-76'
p431
sg54
S'17.9'
p432
sg56
g3
sg57
S'4.9'
p433
sg59
S'8.0'
p434
sg61
S'1733'
p435
sba(isrc.gp1.models.Per100Possession
Per100Possession
p436
(dp437
g8
S'1.6'
p438
sg10
S'.418'
p439
sg12
S'8.2'
p440
sg358
g3
sg14
S'19.7'
p441
sg16
S'3.4'
p442
sg18
S'19.5'
p443
sg20
g3
sg21
S'PF'
p444
sg363
g3
sg23
S'3.2'
p445
sg27
S'NBA'
p446
sg29
S'96'
p447
sg30
S'.418'
p448
sg32
g3
sg33
S'16.5'
p449
sg35
S'6.4'
p450
sg37
S'26'
p451
sg39
S'NOJ'
p452
sg41
S'60'
p453
sg43
g3
sg44
S'4.8'
p454
sg46
S'11.0'
p455
sg48
S'.714'
p456
sg50
S'0.7'
p457
sg52
S'1976-77'
p458
sg54
S'19.5'
p459
sg56
g3
sg57
S'5.5'
p460
sg59
S'8.2'
p461
sg61
S'1170'
p462
sba(isrc.gp1.models.Per100Possession
Per100Possession
p463
(dp464
g8
S'1.6'
p465
sg10
S'.430'
p466
sg12
S'9.0'
p467
sg358
g3
sg14
S'6.8'
p468
sg16
S'4.7'
p469
sg18
S'20.9'
p470
sg20
g3
sg21
S'PF'
p471
sg363
g3
sg23
S'2.6'
p472
sg27
S'NBA'
p473
sg29
S'22.6'
p474
sg30
S'.430'
p475
sg32
g3
sg33
S'13.3'
p476
sg35
S'4.5'
p477
sg37
S'27'
p478
sg39
S'TOT'
p479
sg41
S'80'
p480
sg43
S'94'
p481
sg44
S'6.4'
p482
sg46
S'8.1'
p483
sg48
S'.725'
p484
sg50
S'0.8'
p485
sg52
S'1977-78'
p486
sg54
S'20.9'
p487
sg56
S'100'
p488
sg57
S'5.2'
p489
sg59
S'9.0'
p490
sg61
S'1735'
p491
sba(isrc.gp1.models.Per100Possession
Per100Possession
p492
(dp493
g8
S'2.4'
p494
sg10
S'.470'
p495
sg12
S'9.5'
p496
sg358
g3
sg14
S'7.9'
p497
sg16
S'4.2'
p498
sg18
S'20.3'
p499
sg20
g3
sg21
S'PF'
p500
sg363
g3
sg23
S'2.8'
p501
sg27
S'NBA'
p502
sg29
S'23.2'
p503
sg30
S'.470'
p504
sg32
g3
sg33
S'14.1'
p505
sg35
S'4.7'
p506
sg37
S'27'
p507
sg39
S'ATL'
p508
sg41
S'26'
p509
sg43
S'96'
p510
sg44
S'5.7'
p511
sg46
S'9.8'
p512
sg48
S'.729'
p513
sg50
S'1.0'
p514
sg52
S'1977-78'
p515
sg54
S'20.3'
p516
sg56
S'96'
p517
sg57
S'4.3'
p518
sg59
S'9.5'
p519
sg61
S'571'
p520
sba(isrc.gp1.models.Per100Possession
Per100Possession
p521
(dp522
g8
S'0.0'
p523
sg10
S'.636'
p524
sg12
S'10.0'
p525
sg358
g3
sg14
S'8.6'
p526
sg16
S'0.0'
p527
sg18
S'15.8'
p528
sg20
g3
sg21
S'PF'
p529
sg363
g3
sg23
S'2.9'
p530
sg27
S'NBA'
p531
sg29
S'20.1'
p532
sg30
S'.636'
p533
sg32
g3
sg33
S'10.0'
p534
sg35
S'4.3'
p535
sg37
S'27'
p536
sg39
S'HOU'
p537
sg41
g213
sg43
S'101'
p538
sg44
S'1.4'
p539
sg46
S'7.2'
p540
sg48
S'.000'
p541
sg50
S'0.0'
p542
sg52
S'1977-78'
p543
sg54
S'15.8'
p544
sg56
S'109'
p545
sg57
S'2.9'
p546
sg59
S'10.0'
p547
sg61
S'33'
p548
sba(isrc.gp1.models.Per100Possession
Per100Possession
p549
(dp550
g8
S'1.3'
p551
sg10
S'.408'
p552
sg12
S'8.7'
p553
sg358
g3
sg14
S'6.3'
p554
sg16
S'5.0'
p555
sg18
S'21.3'
p556
sg20
g3
sg21
S'PF'
p557
sg363
g3
sg23
S'2.6'
p558
sg27
S'NBA'
p559
sg29
S'22.4'
p560
sg30
S'.408'
p561
sg32
g3
sg33
S'13.1'
p562
sg35
S'4.4'
p563
sg37
S'27'
p564
sg39
S'IND'
p565
sg41
S'51'
p566
sg43
S'94'
p567
sg44
S'6.9'
p568
sg46
S'7.3'
p569
sg48
S'.727'
p570
sg50
S'0.7'
p571
sg52
S'1977-78'
p572
sg54
S'21.3'
p573
sg56
S'102'
p574
sg57
S'5.7'
p575
sg59
S'8.7'
p576
sg61
S'1131'
p577
sba(isrc.gp1.models.Per100Possession
Per100Possession
p578
(dp579
g8
S'1.1'
p580
sg10
S'.452'
p581
sg12
S'7.6'
p582
sg358
g3
sg14
S'9.8'
p583
sg16
S'2.7'
p584
sg18
S'16.9'
p585
sg20
g3
sg21
S'PF'
p586
sg363
g3
sg23
S'1.9'
p587
sg27
S'NBA'
p588
sg29
S'18.0'
p589
sg30
S'.452'
p590
sg32
g3
sg33
S'11.4'
p591
sg35
S'3.0'
p592
sg37
S'28'
p593
sg39
S'TOT'
p594
sg41
S'15'
p595
sg43
S'97'
p596
sg44
S'3.5'
p597
sg46
S'7.9'
p598
sg48
S'.769'
p599
sg50
S'0.3'
p600
sg52
S'1978-79'
p601
sg54
S'16.9'
p602
sg56
S'103'
p603
sg57
S'3.5'
p604
sg59
S'7.6'
p605
sg61
S'165'
p606
sba(isrc.gp1.models.Per100Possession
Per100Possession
p607
(dp608
g8
S'44.8'
p609
sg10
S'0.0'
p610
sg12
S'0.0'
p611
sg358
g3
sg14
S'111'
p612
sg16
S'0.0'
p613
sg18
S'0.0'
p614
sg20
g3
sg21
S'PF'
p615
sg363
g3
sg23
S'44.8'
p616
sg27
S'NBA'
p617
sg29
g3
sg30
S'0.0'
p618
sg32
g3
sg33
S'0.0'
p619
sg35
g202
sg37
S'28'
p620
sg39
S'DET'
p621
sg41
g217
sg43
g3
sg44
S'0.0'
p622
sg46
S'0.0'
p623
sg48
S'0.0'
p624
sg50
S'0.0'
p625
sg52
S'1978-79'
p626
sg54
S'0.0'
p627
sg56
g3
sg57
S'0.0'
p628
sg59
S'0.0'
p629
sg61
g217
sba(isrc.gp1.models.Per100Possession
Per100Possession
p630
(dp631
g8
S'2.4'
p632
sg10
S'.417'
p633
sg12
S'6.0'
p634
sg358
g3
sg14
S'9.6'
p635
sg16
S'2.4'
p636
sg18
S'14.5'
p637
sg20
g3
sg21
S'PF'
p638
sg363
g3
sg23
S'2.4'
p639
sg27
S'NBA'
p640
sg29
S'14.5'
p641
sg30
S'.417'
p642
sg32
g3
sg33
S'13.2'
p643
sg35
S'4.8'
p644
sg37
S'28'
p645
sg39
S'NYK'
p646
sg41
g216
sg43
S'83'
p647
sg44
S'2.4'
p648
sg46
S'10.8'
p649
sg48
S'1.000'
p650
sg50
S'0.0'
p651
sg52
S'1978-79'
p652
sg54
S'14.5'
p653
sg56
S'101'
p654
sg57
S'2.4'
p655
sg59
S'6.0'
p656
sg61
S'38'
p657
sba(isrc.gp1.models.Per100Possession
Per100Possession
p658
(dp659
g8
S'0.7'
p660
sg10
S'.460'
p661
sg12
S'8.2'
p662
sg358
g3
sg14
S'9.6'
p663
sg16
S'2.8'
p664
sg18
S'17.8'
p665
sg20
g3
sg21
S'PF'
p666
sg363
g3
sg23
S'1.8'
p667
sg27
S'NBA'
p668
sg29
S'19.2'
p669
sg30
S'.460'
p670
sg32
g3
sg33
S'11.0'
p671
sg35
S'2.1'
p672
sg37
S'28'
p673
sg39
S'KCK'
p674
sg41
g296
sg43
S'104'
p675
sg44
S'3.9'
p676
sg46
S'7.1'
p677
sg48
S'.727'
p678
sg50
S'0.4'
p679
sg52
S'1978-79'
p680
sg54
S'17.8'
p681
sg56
S'103'
p682
sg57
S'3.9'
p683
sg59
S'8.2'
p684
sg61
S'126'
p685
sba(isrc.gp1.models.Per100Possession
Per100Possession
p686
(dp687
g8
S'10.2'
p688
sg10
S'6.6'
p689
sg12
S'0.0'
p690
sg358
g3
sg14
S'2.9'
p691
sg16
S'16.8'
p692
sg18
S'0.0'
p693
sg20
S'107'
p694
sg21
S'PF'
p695
sg363
g3
sg23
S'5.8'
p696
sg27
S'NBA'
p697
sg29
S'2.9'
p698
sg30
S'.391'
p699
sg32
S'99'
p700
sg33
S'4.4'
p701
sg35
S'0.0'
p702
sg37
S'29'
p703
sg39
S'WSB'
p704
sg41
g205
sg43
S'10.2'
p705
sg44
S'.391'
p706
sg46
S'.833'
p707
sg48
S'3.7'
p708
sg50
S'5.1'
p709
sg52
S'1979-80'
p710
sg54
S'16.8'
p711
sg56
S'16.8'
p712
sg57
S'4.4'
p713
sg59
S'6.6'
p714
sg61
S'64'
p715
sbasS'_advanced'
p716
(lp717
(isrc.gp1.models.Advanced
Advanced
p718
(dp719
S'_offensiveReboundPercentage'
p720
S'19.3'
p721
sS'_turnOverPercentage'
p722
S'1.8'
p723
sS'_winSharesPer48Minutes'
p724
S'-2.1'
p725
sS'_stealPercentage'
p726
S'0.9'
p727
sS'_usagePercentage'
p728
S'2.0'
p729
sS'_totalReboundsPercentage'
p730
S'9.5'
p731
sS'_defensiveBoxPlusMinus'
p732
g3
sg21
S'PF'
p733
sS'_valueOverReplacementPlayer'
p734
g3
sS'_trueShootingPercentage'
p735
S'.476'
p736
sS'_defensiveReboundPercentage'
p737
S'14.4'
p738
sS'_freeThrowsAttempRate'
p739
S'9.6'
p740
sS'_threePointsAttempRate'
p741
S'.256'
p742
sg27
S'NBA'
p743
sS'_offensiveBoxPlusMinues'
p744
S'0.0'
p745
sS'_assistPercentage'
p746
S'1.2'
p747
sS'_defensiveWinShares'
p748
S'-1.2'
p749
sg37
S'23'
p750
sg39
S'KCO'
p751
sg41
S'80'
p752
sS'_blockPercentage'
p753
S'0.2'
p754
sS'_playerEfficiencyRating'
p755
S'13.9'
p756
sS'_offensiveWinShares'
p757
S'.046'
p758
sg59
S'2059'
p759
sS'_boxPlusMinus'
p760
g3
sg52
S'1973-74'
p761
sS'_winShares'
p762
S'-0.9'
p763
sba(isrc.gp1.models.Advanced
Advanced
p764
(dp765
g720
S'21.0'
p766
sg722
S'2.8'
p767
sg724
S'-2.6'
p768
sg726
S'1.0'
p769
sg728
S'2.2'
p770
sg730
S'10.3'
p771
sg732
g3
sg21
S'PF'
p772
sg734
g3
sg735
S'.455'
p773
sg737
S'13.9'
p774
sg739
S'6.9'
p775
sg741
S'.317'
p776
sg27
S'NBA'
p777
sg744
S'-0.4'
p778
sg746
S'1.3'
p779
sg748
S'-2.7'
p780
sg37
S'24'
p781
sg39
S'KCO'
p782
sg41
S'81'
p783
sg753
S'-0.5'
p784
sg755
S'12.6'
p785
sg757
S'.049'
p786
sg59
S'2205'
p787
sg760
g3
sg52
S'1974-75'
p788
sg762
S'0.0'
p789
sba(isrc.gp1.models.Advanced
Advanced
p790
(dp791
g720
S'21.0'
p792
sg722
S'2.5'
p793
sg724
S'1.4'
p794
sg726
S'0.8'
p795
sg728
S'4.3'
p796
sg730
S'12.1'
p797
sg732
g3
sg21
S'PF'
p798
sg734
g3
sg735
S'.494'
p799
sg737
S'15.9'
p800
sg739
S'10.8'
p801
sg741
S'.259'
p802
sg27
S'NBA'
p803
sg744
S'1.5'
p804
sg746
S'1.7'
p805
sg748
S'0.5'
p806
sg37
S'25'
p807
sg39
S'NOJ'
p808
sg41
S'66'
p809
sg753
S'1.8'
p810
sg755
S'16.3'
p811
sg757
S'.118'
p812
sg59
S'1733'
p813
sg760
g3
sg52
S'1975-76'
p814
sg762
S'0.9'
p815
sba(isrc.gp1.models.Advanced
Advanced
p816
(dp817
g720
S'23.4'
p818
sg722
S'1.8'
p819
sg724
S'-1.5'
p820
sg726
S'0.8'
p821
sg728
S'1.8'
p822
sg730
S'10.3'
p823
sg732
g3
sg21
S'PF'
p824
sg734
g3
sg735
S'.457'
p825
sg737
S'17.8'
p826
sg739
S'12.1'
p827
sg741
S'.248'
p828
sg27
S'NBA'
p829
sg744
S'0.1'
p830
sg746
S'1.6'
p831
sg748
S'-1.5'
p832
sg37
S'26'
p833
sg39
S'NOJ'
p834
sg41
S'60'
p835
sg753
S'0.0'
p836
sg755
S'15.1'
p837
sg757
S'.073'
p838
sg59
S'1170'
p839
sg760
g3
sg52
S'1976-77'
p840
sg762
S'0.0'
p841
sba(isrc.gp1.models.Advanced
Advanced
p842
(dp843
g720
S'18.9'
p844
sg722
S'24.1'
p845
sg724
S'-1.5'
p846
sg726
S'1.0'
p847
sg728
S'0.4'
p848
sg730
S'8.7'
p849
sg732
S'-2.4'
p850
sg21
S'PF'
p851
sg734
g3
sg735
S'.477'
p852
sg737
S'15.0'
p853
sg739
S'11.3'
p854
sg741
S'.307'
p855
sg27
S'NBA'
p856
sg744
S'-1.0'
p857
sg746
S'1.6'
p858
sg748
S'2.4'
p859
sg37
S'27'
p860
sg39
S'TOT'
p861
sg41
S'80'
p862
sg753
S'16.0'
p863
sg755
S'14.2'
p864
sg757
S'2.0'
p865
sg59
S'1735'
p866
sg760
S'-0.2'
p867
sg52
S'1977-78'
p868
sg762
S'.066'
p869
sba(isrc.gp1.models.Advanced
Advanced
p870
(dp871
g720
S'23.7'
p872
sg722
S'23.8'
p873
sg724
S'-1.2'
p874
sg726
S'1.2'
p875
sg728
S'0.3'
p876
sg730
S'9.4'
p877
sg732
S'-0.6'
p878
sg21
S'PF'
p879
sg734
g3
sg735
S'.509'
p880
sg737
S'16.5'
p881
sg739
S'9.8'
p882
sg741
S'.281'
p883
sg27
S'NBA'
p884
sg744
S'0.5'
p885
sg746
S'2.4'
p886
sg748
S'1.2'
p887
sg37
S'27'
p888
sg39
S'ATL'
p889
sg41
S'26'
p890
sg753
S'17.2'
p891
sg755
S'15.9'
p892
sg757
S'1.0'
p893
sg59
S'571'
p894
sg760
S'0.2'
p895
sg52
S'1977-78'
p896
sg762
S'.103'
p897
sba(isrc.gp1.models.Advanced
Advanced
p898
(dp899
g720
S'16.5'
p900
sg722
S'17.4'
p901
sg724
S'-1.3'
p902
sg726
S'0.0'
p903
sg728
S'0.0'
p904
sg730
S'8.9'
p905
sg732
S'-4.2'
p906
sg21
S'PF'
p907
sg734
g3
sg735
S'.612'
p908
sg737
S'11.2'
p909
sg739
S'6.3'
p910
sg741
S'.091'
p911
sg27
S'NBA'
p912
sg744
S'-2.9'
p913
sg746
S'0.0'
p914
sg748
S'0.0'
p915
sg37
S'27'
p916
sg39
S'HOU'
p917
sg41
g213
sg753
S'20.8'
p918
sg755
S'11.6'
p919
sg757
S'0.0'
p920
sg59
S'33'
p921
sg760
S'0.0'
p922
sg52
S'1977-78'
p923
sg762
S'.045'
p924
sba(isrc.gp1.models.Advanced
Advanced
p925
(dp926
g720
S'16.5'
p927
sg722
S'24.4'
p928
sg724
S'-1.6'
p929
sg726
S'0.9'
p930
sg728
S'0.1'
p931
sg730
S'8.4'
p932
sg732
S'-3.3'
p933
sg21
S'PF'
p934
sg734
g3
sg735
S'.460'
p935
sg737
S'14.3'
p936
sg739
S'12.3'
p937
sg741
S'.324'
p938
sg27
S'NBA'
p939
sg744
S'-1.7'
p940
sg746
S'1.3'
p941
sg748
S'1.1'
p942
sg37
S'27'
p943
sg39
S'IND'
p944
sg41
S'51'
p945
sg753
S'15.4'
p946
sg755
S'13.5'
p947
sg757
S'1.0'
p948
sg59
S'1131'
p949
sg760
S'-0.4'
p950
sg52
S'1977-78'
p951
sg762
S'.048'
p952
sba(isrc.gp1.models.Advanced
Advanced
p953
(dp954
g720
S'19.4'
p955
sg722
S'18.4'
p956
sg724
S'-3.3'
p957
sg726
S'0.3'
p958
sg728
S'0.0'
p959
sg730
S'5.5'
p960
sg732
S'-4.8'
p961
sg21
S'PF'
p962
sg734
g3
sg735
S'.487'
p963
sg737
S'13.8'
p964
sg739
S'8.4'
p965
sg741
S'.210'
p966
sg27
S'NBA'
p967
sg744
S'-1.5'
p968
sg746
S'1.1'
p969
sg748
S'0.2'
p970
sg37
S'28'
p971
sg39
S'TOT'
p972
sg41
S'15'
p973
sg753
S'14.0'
p974
sg755
S'9.6'
p975
sg757
S'0.2'
p976
sg59
S'165'
p977
sg760
S'-0.1'
p978
sg52
S'1978-79'
p979
sg762
S'.066'
p980
sba(isrc.gp1.models.Advanced
Advanced
p981
(dp982
g720
S'0.0'
p983
sg722
S'0.0'
p984
sg724
S'-41.1'
p985
sg726
S'38.1'
p986
sg728
S'0.0'
p987
sg730
S'0.0'
p988
sg732
g3
sg21
S'PF'
p989
sg734
g3
sg735
S'0.0'
p990
sg737
S'0.0'
p991
sg739
S'0.0'
p992
sg741
S'0.0'
p993
sg27
S'NBA'
p994
sg744
S'0.0'
p995
sg746
S'100.0'
p996
sg748
S'-41.7'
p997
sg37
S'28'
p998
sg39
S'DET'
p999
sg41
g217
sg753
S'0.0'
p1000
sg755
S'-60.3'
p1001
sg757
S'-1.277'
p1002
sg59
g217
sg760
g3
sg52
S'1978-79'
p1003
sg762
S'0.6'
p1004
sba(isrc.gp1.models.Advanced
Advanced
p1005
(dp1006
g720
S'25.6'
p1007
sg722
S'17.4'
p1008
sg724
S'-6.2'
p1009
sg726
S'0.0'
p1010
sg728
S'-0.1'
p1011
sg730
S'6.6'
p1012
sg732
S'-6.4'
p1013
sg21
S'PF'
p1014
sg734
g3
sg735
S'.466'
p1015
sg737
S'15.6'
p1016
sg739
S'5.6'
p1017
sg741
S'.167'
p1018
sg27
S'NBA'
p1019
sg744
S'-0.2'
p1020
sg746
S'2.4'
p1021
sg748
S'0.0'
p1022
sg37
S'28'
p1023
sg39
S'NYK'
p1024
sg41
g216
sg753
S'23.7'
p1025
sg755
S'7.5'
p1026
sg757
S'0.1'
p1027
sg59
S'38'
p1028
sg760
S'0.0'
p1029
sg52
S'1978-79'
p1030
sg762
S'.004'
p1031
sba(isrc.gp1.models.Advanced
Advanced
p1032
(dp1033
g720
S'17.7'
p1034
sg722
S'18.6'
p1035
sg724
S'-2.1'
p1036
sg726
S'0.4'
p1037
sg728
S'0.1'
p1038
sg730
S'5.2'
p1039
sg732
S'-4.0'
p1040
sg21
S'PF'
p1041
sg734
g3
sg735
S'.492'
p1042
sg737
S'13.4'
p1043
sg739
S'9.3'
p1044
sg741
S'.220'
p1045
sg27
S'NBA'
p1046
sg744
S'-1.9'
p1047
sg746
S'0.7'
p1048
sg748
S'0.3'
p1049
sg37
S'28'
p1050
sg39
S'KCK'
p1051
sg41
g296
sg753
S'9.9'
p1052
sg755
S'10.8'
p1053
sg757
S'0.1'
p1054
sg59
S'126'
p1055
sg760
S'-0.1'
p1056
sg52
S'1978-79'
p1057
sg762
S'.096'
p1058
sba(isrc.gp1.models.Advanced
Advanced
p1059
(dp1060
g720
S'9.3'
p1061
sg722
S'13.5'
p1062
sg724
S'.055'
p1063
sg726
S'0.0'
p1064
sg728
S'18.3'
p1065
sg730
S'11.0'
p1066
sg732
S'0.1'
p1067
sg21
S'PF'
p1068
sg734
S'0.0'
p1069
sg735
S'.449'
p1070
sg737
S'12.7'
p1071
sg739
S'.261'
p1072
sg741
S'.000'
p1073
sg27
S'NBA'
p1074
sg744
S'-2.7'
p1075
sg746
S'14.4'
p1076
sg748
S'0.1'
p1077
sg37
S'29'
p1078
sg39
S'WSB'
p1079
sg41
g205
sg753
S'3.3'
p1080
sg755
S'10.2'
p1081
sg757
S'0.0'
p1082
sg59
S'64'
p1083
sg760
S'-2.6'
p1084
sg52
S'1979-80'
p1085
sg762
S'0.1'
p1086
sbasS'_per36Minutes'
p1087
(lp1088
(isrc.gp1.models.Per36Minutes
Per36Minutes
p1089
(dp1090
g8
S'1.0'
p1091
sg10
S'.432'
p1092
sg12
S'6.2'
p1093
sg14
S'15.3'
p1094
sg16
S'2.8'
p1095
sg18
S'14.5'
p1096
sg20
g3
sg21
S'PF'
p1097
sg23
S'2.3'
p1098
sg27
S'NBA'
p1099
sg29
g3
sg30
S'.432'
p1100
sg32
g3
sg33
S'9.9'
p1101
sg35
S'5.1'
p1102
sg37
S'23'
p1103
sg39
S'KCO'
p1104
sg41
S'80'
p1105
sg43
g3
sg44
S'3.7'
p1106
sg46
S'6.6'
p1107
sg48
S'.764'
p1108
sg50
S'0.6'
p1109
sg52
S'1973-74'
p1110
sg54
S'14.5'
p1111
sg56
g3
sg57
S'3.3'
p1112
sg59
S'6.2'
p1113
sg61
S'2059'
p1114
sba(isrc.gp1.models.Per36Minutes
Per36Minutes
p1115
(dp1116
g8
S'1.0'
p1117
sg10
S'.399'
p1118
sg12
S'5.4'
p1119
sg14
S'14.1'
p1120
sg16
S'3.2'
p1121
sg18
S'13.6'
p1122
sg20
g3
sg21
S'PF'
p1123
sg23
S'2.5'
p1124
sg27
S'NBA'
p1125
sg29
g3
sg30
S'.399'
p1126
sg32
g3
sg33
S'9.7'
p1127
sg35
S'4.9'
p1128
sg37
S'24'
p1129
sg39
S'KCO'
p1130
sg41
S'81'
p1131
sg43
g3
sg44
S'4.3'
p1132
sg46
S'7.3'
p1133
sg48
S'.754'
p1134
sg50
S'0.7'
p1135
sg52
S'1974-75'
p1136
sg54
S'13.6'
p1137
sg56
g3
sg57
S'2.4'
p1138
sg59
S'5.4'
p1139
sg61
S'2205'
p1140
sba(isrc.gp1.models.Per36Minutes
Per36Minutes
p1141
(dp1142
g8
S'1.4'
p1143
sg10
S'.446'
p1144
sg12
S'6.4'
p1145
sg14
S'15.8'
p1146
sg16
S'3.0'
p1147
sg18
S'14.4'
p1148
sg20
g3
sg21
S'PF'
p1149
sg23
S'2.9'
p1150
sg27
S'NBA'
p1151
sg29
g3
sg30
S'.446'
p1152
sg32
g3
sg33
S'11.5'
p1153
sg35
S'4.6'
p1154
sg37
S'25'
p1155
sg39
S'NOJ'
p1156
sg41
S'66'
p1157
sg43
g3
sg44
S'3.7'
p1158
sg46
S'7.5'
p1159
sg48
S'.804'
p1160
sg50
S'0.5'
p1161
sg52
S'1975-76'
p1162
sg54
S'14.4'
p1163
sg56
g3
sg57
S'3.9'
p1164
sg59
S'6.4'
p1165
sg61
S'1733'
p1166
sba(isrc.gp1.models.Per36Minutes
Per36Minutes
p1167
(dp1168
g8
S'1.3'
p1169
sg10
S'.418'
p1170
sg12
S'6.6'
p1171
sg14
S'15.9'
p1172
sg16
S'2.8'
p1173
sg18
S'15.7'
p1174
sg20
g3
sg21
S'PF'
p1175
sg23
S'2.6'
p1176
sg27
S'NBA'
p1177
sg29
g3
sg30
S'.418'
p1178
sg32
g3
sg33
S'13.3'
p1179
sg35
S'5.1'
p1180
sg37
S'26'
p1181
sg39
S'NOJ'
p1182
sg41
S'60'
p1183
sg43
g3
sg44
S'3.9'
p1184
sg46
S'8.8'
p1185
sg48
S'.714'
p1186
sg50
S'0.6'
p1187
sg52
S'1976-77'
p1188
sg54
S'15.7'
p1189
sg56
g3
sg57
S'4.4'
p1190
sg59
S'6.6'
p1191
sg61
S'1170'
p1192
sba(isrc.gp1.models.Per36Minutes
Per36Minutes
p1193
(dp1194
g8
S'1.3'
p1195
sg10
S'.430'
p1196
sg12
S'7.2'
p1197
sg14
S'5.5'
p1198
sg16
S'3.7'
p1199
sg18
S'16.7'
p1200
sg20
g3
sg21
S'PF'
p1201
sg23
S'2.1'
p1202
sg27
S'NBA'
p1203
sg29
S'18.1'
p1204
sg30
S'.430'
p1205
sg32
g3
sg33
S'10.6'
p1206
sg35
S'3.6'
p1207
sg37
S'27'
p1208
sg39
S'TOT'
p1209
sg41
S'80'
p1210
sg43
g3
sg44
S'5.1'
p1211
sg46
S'6.5'
p1212
sg48
S'.725'
p1213
sg50
S'0.6'
p1214
sg52
S'1977-78'
p1215
sg54
S'16.7'
p1216
sg56
g3
sg57
S'4.2'
p1217
sg59
S'7.2'
p1218
sg61
S'1735'
p1219
sba(isrc.gp1.models.Per36Minutes
Per36Minutes
p1220
(dp1221
g8
S'1.9'
p1222
sg10
S'.470'
p1223
sg12
S'7.4'
p1224
sg14
S'6.1'
p1225
sg16
S'3.2'
p1226
sg18
S'15.7'
p1227
sg20
g3
sg21
S'PF'
p1228
sg23
S'2.1'
p1229
sg27
S'NBA'
p1230
sg29
S'18.0'
p1231
sg30
S'.470'
p1232
sg32
g3
sg33
S'10.9'
p1233
sg35
S'3.7'
p1234
sg37
S'27'
p1235
sg39
S'ATL'
p1236
sg41
S'26'
p1237
sg43
g3
sg44
S'4.4'
p1238
sg46
S'7.6'
p1239
sg48
S'.729'
p1240
sg50
S'0.8'
p1241
sg52
S'1977-78'
p1242
sg54
S'15.7'
p1243
sg56
g3
sg57
S'3.3'
p1244
sg59
S'7.4'
p1245
sg61
S'571'
p1246
sba(isrc.gp1.models.Per36Minutes
Per36Minutes
p1247
(dp1248
g8
S'0.0'
p1249
sg10
S'.636'
p1250
sg12
S'7.6'
p1251
sg14
S'6.5'
p1252
sg16
S'0.0'
p1253
sg18
S'12.0'
p1254
sg20
g3
sg21
S'PF'
p1255
sg23
S'2.2'
p1256
sg27
S'NBA'
p1257
sg29
S'15.3'
p1258
sg30
S'.636'
p1259
sg32
g3
sg33
S'7.6'
p1260
sg35
S'3.3'
p1261
sg37
S'27'
p1262
sg39
S'HOU'
p1263
sg41
g213
sg43
g3
sg44
S'1.1'
p1264
sg46
S'5.5'
p1265
sg48
S'.000'
p1266
sg50
S'0.0'
p1267
sg52
S'1977-78'
p1268
sg54
S'12.0'
p1269
sg56
g3
sg57
S'2.2'
p1270
sg59
S'7.6'
p1271
sg61
S'33'
p1272
sba(isrc.gp1.models.Per36Minutes
Per36Minutes
p1273
(dp1274
g8
S'1.0'
p1275
sg10
S'.408'
p1276
sg12
S'7.1'
p1277
sg14
S'5.1'
p1278
sg16
S'4.1'
p1279
sg18
S'17.3'
p1280
sg20
g3
sg21
S'PF'
p1281
sg23
S'2.1'
p1282
sg27
S'NBA'
p1283
sg29
S'18.2'
p1284
sg30
S'.408'
p1285
sg32
g3
sg33
S'10.6'
p1286
sg35
S'3.6'
p1287
sg37
S'27'
p1288
sg39
S'IND'
p1289
sg41
S'51'
p1290
sg43
g3
sg44
S'5.6'
p1291
sg46
S'6.0'
p1292
sg48
S'.727'
p1293
sg50
S'0.6'
p1294
sg52
S'1977-78'
p1295
sg54
S'17.3'
p1296
sg56
g3
sg57
S'4.6'
p1297
sg59
S'7.1'
p1298
sg61
S'1131'
p1299
sba(isrc.gp1.models.Per36Minutes
Per36Minutes
p1300
(dp1301
g8
S'0.9'
p1302
sg10
S'.452'
p1303
sg12
S'6.1'
p1304
sg14
S'7.9'
p1305
sg16
S'2.2'
p1306
sg18
S'13.5'
p1307
sg20
g3
sg21
S'PF'
p1308
sg23
S'1.5'
p1309
sg27
S'NBA'
p1310
sg29
S'14.4'
p1311
sg30
S'.452'
p1312
sg32
g3
sg33
S'9.2'
p1313
sg35
S'2.4'
p1314
sg37
S'28'
p1315
sg39
S'TOT'
p1316
sg41
S'15'
p1317
sg43
g3
sg44
S'2.8'
p1318
sg46
S'6.3'
p1319
sg48
S'.769'
p1320
sg50
S'0.2'
p1321
sg52
S'1978-79'
p1322
sg54
S'13.5'
p1323
sg56
g3
sg57
S'2.8'
p1324
sg59
S'6.1'
p1325
sg61
S'165'
p1326
sba(isrc.gp1.models.Per36Minutes
Per36Minutes
p1327
(dp1328
g8
S'36.0'
p1329
sg10
S'0.0'
p1330
sg12
S'0.0'
p1331
sg14
g3
sg16
S'0.0'
p1332
sg18
S'0.0'
p1333
sg20
g3
sg21
S'PF'
p1334
sg23
S'36.0'
p1335
sg27
S'NBA'
p1336
sg29
g3
sg30
S'0.0'
p1337
sg32
g3
sg33
S'0.0'
p1338
sg35
g3
sg37
S'28'
p1339
sg39
S'DET'
p1340
sg41
g217
sg43
g3
sg44
S'0.0'
p1341
sg46
S'0.0'
p1342
sg48
S'0.0'
p1343
sg50
S'0.0'
p1344
sg52
S'1978-79'
p1345
sg54
S'0.0'
p1346
sg56
g3
sg57
S'0.0'
p1347
sg59
S'0.0'
p1348
sg61
g217
sba(isrc.gp1.models.Per36Minutes
Per36Minutes
p1349
(dp1350
g8
S'1.9'
p1351
sg10
S'.417'
p1352
sg12
S'4.7'
p1353
sg14
S'7.6'
p1354
sg16
S'1.9'
p1355
sg18
S'11.4'
p1356
sg20
g3
sg21
S'PF'
p1357
sg23
S'1.9'
p1358
sg27
S'NBA'
p1359
sg29
S'11.4'
p1360
sg30
S'.417'
p1361
sg32
g3
sg33
S'10.4'
p1362
sg35
S'3.8'
p1363
sg37
S'28'
p1364
sg39
S'NYK'
p1365
sg41
g216
sg43
g3
sg44
S'1.9'
p1366
sg46
S'8.5'
p1367
sg48
S'1.000'
p1368
sg50
S'0.0'
p1369
sg52
S'1978-79'
p1370
sg54
S'11.4'
p1371
sg56
g3
sg57
S'1.9'
p1372
sg59
S'4.7'
p1373
sg61
S'38'
p1374
sba(isrc.gp1.models.Per36Minutes
Per36Minutes
p1375
(dp1376
g8
S'0.6'
p1377
sg10
S'.460'
p1378
sg12
S'6.6'
p1379
sg14
S'7.7'
p1380
sg16
S'2.3'
p1381
sg18
S'14.3'
p1382
sg20
g3
sg21
S'PF'
p1383
sg23
S'1.4'
p1384
sg27
S'NBA'
p1385
sg29
S'15.4'
p1386
sg30
S'.460'
p1387
sg32
g3
sg33
S'8.9'
p1388
sg35
S'1.7'
p1389
sg37
S'28'
p1390
sg39
S'KCK'
p1391
sg41
g296
sg43
g3
sg44
S'3.1'
p1392
sg46
S'5.7'
p1393
sg48
S'.727'
p1394
sg50
S'0.3'
p1395
sg52
S'1978-79'
p1396
sg54
S'14.3'
p1397
sg56
g3
sg57
S'3.1'
p1398
sg59
S'6.6'
p1399
sg61
S'126'
p1400
sba(isrc.gp1.models.Per36Minutes
Per36Minutes
p1401
(dp1402
g8
S'7.9'
p1403
sg10
S'5.1'
p1404
sg12
S'0.0'
p1405
sg14
S'2.3'
p1406
sg16
S'12.9'
p1407
sg18
S'0.0'
p1408
sg20
g3
sg21
S'PF'
p1409
sg23
S'4.5'
p1410
sg27
S'NBA'
p1411
sg29
S'2.3'
p1412
sg30
S'.391'
p1413
sg32
g3
sg33
S'3.4'
p1414
sg35
S'0.0'
p1415
sg37
S'29'
p1416
sg39
S'WSB'
p1417
sg41
g205
sg43
S'7.9'
p1418
sg44
S'.391'
p1419
sg46
S'.833'
p1420
sg48
S'2.8'
p1421
sg50
S'3.9'
p1422
sg52
S'1979-80'
p1423
sg54
S'12.9'
p1424
sg56
S'12.9'
p1425
sg57
S'3.4'
p1426
sg59
S'5.1'
p1427
sg61
S'64'
p1428
sbasS'_fromYear'
p1429
S'1974'
p1430
sS'_url'
p1431
S'http://www.basketball-reference.com/players/b/behagro01.html'
p1432
sS'_perGame'
p1433
(isrc.gp1.models.PerGame
PerGame
p1434
(dp1435
g8
S'2.3'
p1436
sg10
S'1.5'
p1437
sg12
S'0.0'
p1438
sS'_effectiveFieldGalPercentage'
p1439
S'1.0'
p1440
sg14
S'0.7'
p1441
sg16
S'3.8'
p1442
sg18
S'0.0'
p1443
sg20
g3
sg21
S'PF'
p1444
sg23
S'1.3'
p1445
sg27
S'NBA'
p1446
sg29
S'0.7'
p1447
sg32
g3
sS'_fieldGoalsttempted'
p1448
S'.391'
p1449
sg33
S'1.0'
p1450
sg35
S'0.0'
p1451
sg37
S'29'
p1452
sg39
S'WSB'
p1453
sg41
g205
sg43
S'2.3'
p1454
sg44
S'.391'
p1455
sg46
S'.833'
p1456
sg48
S'.391'
p1457
sg50
S'1.2'
p1458
sg52
S'1979-80'
p1459
sg54
S'3.8'
p1460
sg56
S'3.8'
p1461
sg57
S'0.8'
p1462
sg59
S'1.5'
p1463
sg61
S'10.7'
p1464
sbsS'_weight'
p1465
S'185'
p1466
sS'_dob'
p1467
S'14-1-1951'
p1468
sS'_salary'
p1469
(lp1470
sg21
S'F-C'
p1471
sb.