(isrc.gp1.models.Player
Player
p0
(dp1
S'_experience'
p2
S'NA'
p3
sS'_totals'
p4
(lp5
(isrc.gp1.models.Totals
Totals
p6
(dp7
S'_offensiveRebounds'
p8
S'0'
p9
sS'_threePointsAttempted'
p10
g9
sS'_fieldGoalsPercentage'
p11
S'.000'
p12
sS'_assist'
p13
g9
sS'_threePointsPercentage'
p14
g9
sS'_threePoints'
p15
g9
sS'_points'
p16
g3
sS'_position'
p17
S'C'
p18
sS'_freeThrowsPercentage'
p19
S'1'
p20
sS'_effectiveFieldGoalPercentage'
p21
g9
sS'_league'
p22
S'NBA'
p23
sS'_steals'
p24
g9
sS'_fieldGoalsAttempted'
p25
S'3'
p26
sS'_personalFouls'
p27
g9
sS'_freeThrowsAttempted'
p28
S'.000'
p29
sS'_totalRebounds'
p30
g9
sS'_age'
p31
S'27'
p32
sS'_team'
p33
S'TOT'
p34
sS'_games'
p35
g26
sS'_blocks'
p36
g9
sS'_twoPoints'
p37
g26
sS'_freeThrows'
p38
S'2'
p39
sS'_twoPointsAttempted'
p40
S'.000'
p41
sS'_defensiveRebounds'
p42
g20
sS'_season'
p43
S'1985-86'
p44
sS'_fieldGoals'
p45
g9
sS'_turnOvers'
p46
g39
sS'_twoPointsPercentage'
p47
S'.000'
p48
sS'_minutesPlayed'
p49
S'4'
p50
sS'_gamesStarted'
p51
g9
sba(isrc.gp1.models.Totals
Totals
p52
(dp53
g8
g9
sg10
g9
sg11
S'.000'
p54
sg13
g9
sg14
g9
sg15
g9
sg16
g3
sg17
g18
sg19
g9
sg21
g9
sg22
S'NBA'
p55
sg24
g9
sg25
g20
sg27
g3
sg28
g9
sg30
g9
sg31
S'27'
p56
sg33
S'GSW'
p57
sg35
g20
sg36
g9
sg37
g20
sg38
g9
sg40
S'.000'
p58
sg42
g9
sg43
S'1985-86'
p59
sg45
g9
sg46
g9
sg47
S'.000'
p60
sg49
g20
sg51
g9
sba(isrc.gp1.models.Totals
Totals
p61
(dp62
g8
g9
sg10
g9
sg11
S'.000'
p63
sg13
g9
sg14
g9
sg15
g9
sg16
g3
sg17
g18
sg19
g20
sg21
g9
sg22
S'NBA'
p64
sg24
g9
sg25
g39
sg27
g9
sg28
S'.000'
p65
sg30
g9
sg31
S'27'
p66
sg33
S'DET'
p67
sg35
g39
sg36
g9
sg37
g39
sg38
g39
sg40
S'.000'
p68
sg42
g20
sg43
S'1985-86'
p69
sg45
g9
sg46
g39
sg47
S'.000'
p70
sg49
g26
sg51
g9
sbasS'_college'
p71
S'Boston College'
p72
sS'_toYear'
p73
S'1986'
p74
sS'_height'
p75
S'7-0'
p76
sS'_active'
p77
I00
sS'_shootingHand'
p78
VRight
p79
sS'_name'
p80
S'Ron Crevier'
p81
sS'_per100Possessions'
p82
(lp83
(isrc.gp1.models.Per100Possession
Per100Possession
p84
(dp85
g8
S'0.0'
p86
sg10
S'0.0'
p87
sg11
S'.000'
p88
sS'_offensiveRating'
p89
S'116'
p90
sg13
S'0.0'
p91
sg14
S'0.0'
p92
sg15
S'0.0'
p93
sg16
S'20'
p94
sg17
g18
sS'_defensiveRating'
p95
g3
sg19
S'11.5'
p96
sg22
S'NBA'
p97
sg24
S'0.0'
p98
sg25
S'34.6'
p99
sg27
S'0.0'
p100
sg28
S'.000'
p101
sg30
S'0.0'
p102
sg31
S'27'
p103
sg33
S'TOT'
p104
sg35
g26
sg36
S'0.0'
p105
sg37
S'34.6'
p106
sg38
S'23.0'
p107
sg40
S'.000'
p108
sg42
S'11.5'
p109
sg43
S'1985-86'
p110
sg45
S'0.0'
p111
sg46
S'23.0'
p112
sg47
S'0.0'
p113
sg49
g50
sg51
g9
sba(isrc.gp1.models.Per100Possession
Per100Possession
p114
(dp115
g8
S'0.0'
p116
sg10
S'0.0'
p117
sg11
S'.000'
p118
sg89
g3
sg13
S'0.0'
p119
sg14
S'0.0'
p120
sg15
S'0.0'
p121
sg16
S'119'
p122
sg17
g18
sg95
g3
sg19
S'0.0'
p123
sg22
S'NBA'
p124
sg24
S'0.0'
p125
sg25
S'46.1'
p126
sg27
g9
sg28
S'0.0'
p127
sg30
S'0.0'
p128
sg31
S'27'
p129
sg33
S'GSW'
p130
sg35
g20
sg36
S'0.0'
p131
sg37
S'46.1'
p132
sg38
S'0.0'
p133
sg40
S'.000'
p134
sg42
S'0.0'
p135
sg43
S'1985-86'
p136
sg45
S'0.0'
p137
sg46
S'0.0'
p138
sg47
S'0.0'
p139
sg49
g20
sg51
g9
sba(isrc.gp1.models.Per100Possession
Per100Possession
p140
(dp141
g8
S'0.0'
p142
sg10
S'0.0'
p143
sg11
S'.000'
p144
sg89
S'114'
p145
sg13
S'0.0'
p146
sg14
S'0.0'
p147
sg15
S'0.0'
p148
sg16
S'25'
p149
sg17
g18
sg95
g3
sg19
S'15.4'
p150
sg22
S'NBA'
p151
sg24
S'0.0'
p152
sg25
S'30.7'
p153
sg27
S'0.0'
p154
sg28
S'.000'
p155
sg30
S'0.0'
p156
sg31
S'27'
p157
sg33
S'DET'
p158
sg35
g39
sg36
S'0.0'
p159
sg37
S'30.7'
p160
sg38
S'30.7'
p161
sg40
S'.000'
p162
sg42
S'15.4'
p163
sg43
S'1985-86'
p164
sg45
S'0.0'
p165
sg46
S'30.7'
p166
sg47
S'0.0'
p167
sg49
g26
sg51
g9
sbasS'_advanced'
p168
(lp169
(isrc.gp1.models.Advanced
Advanced
p170
(dp171
S'_offensiveReboundPercentage'
p172
S'25.9'
p173
sS'_turnOverPercentage'
p174
S'0.0'
p175
sS'_winSharesPer48Minutes'
p176
S'-0.795'
p177
sS'_stealPercentage'
p178
S'0.0'
p179
sS'_usagePercentage'
p180
S'38.0'
p181
sS'_totalReboundsPercentage'
p182
S'13.3'
p183
sS'_defensiveBoxPlusMinus'
p184
S'-13.5'
p185
sg17
g18
sS'_valueOverReplacementPlayer'
p186
S'0.0'
p187
sS'_trueShootingPercentage'
p188
S'.000'
p189
sS'_defensiveReboundPercentage'
p190
S'0.0'
p191
sS'_freeThrowsAttempRate'
p192
S'.667'
p193
sS'_threePointsAttempRate'
p194
S'.000'
p195
sg22
S'NBA'
p196
sS'_offensiveBoxPlusMinues'
p197
S'-24.0'
p198
sS'_assistPercentage'
p199
S'0.0'
p200
sS'_defensiveWinShares'
p201
S'0.0'
p202
sg31
S'27'
p203
sg33
S'TOT'
p204
sg35
g26
sS'_blockPercentage'
p205
S'0.0'
p206
sS'_playerEfficiencyRating'
p207
S'-31.7'
p208
sS'_offensiveWinShares'
p209
S'-0.1'
p210
sg49
g50
sS'_boxPlusMinus'
p211
S'-37.4'
p212
sg43
S'1985-86'
p213
sS'_winShares'
p214
S'-0.1'
p215
sba(isrc.gp1.models.Advanced
Advanced
p216
(dp217
g172
S'0.0'
p218
sg174
S'0.0'
p219
sg176
S'-0.865'
p220
sg178
S'0.0'
p221
sg180
S'39.3'
p222
sg182
S'0.0'
p223
sg184
S'-12.1'
p224
sg17
g18
sg186
S'0.0'
p225
sg188
S'.000'
p226
sg190
S'0.0'
p227
sg192
S'.000'
p228
sg194
S'.000'
p229
sg22
S'NBA'
p230
sg197
S'-30.3'
p231
sg199
S'0.0'
p232
sg201
S'0.0'
p233
sg31
S'27'
p234
sg33
S'GSW'
p235
sg35
g20
sg205
S'0.0'
p236
sg207
S'-31.1'
p237
sg209
S'0.0'
p238
sg49
g20
sg211
S'-42.3'
p239
sg43
S'1985-86'
p240
sg214
S'0.0'
p241
sba(isrc.gp1.models.Advanced
Advanced
p242
(dp243
g172
S'34.6'
p244
sg174
S'0.0'
p245
sg176
S'-0.771'
p246
sg178
S'0.0'
p247
sg180
S'37.6'
p248
sg182
S'17.7'
p249
sg184
S'-13.9'
p250
sg17
g18
sg186
S'0.0'
p251
sg188
S'.000'
p252
sg190
S'0.0'
p253
sg192
S'1.000'
p254
sg194
S'.000'
p255
sg22
S'NBA'
p256
sg197
S'-21.9'
p257
sg199
S'0.0'
p258
sg201
S'0.0'
p259
sg31
S'27'
p260
sg33
S'DET'
p261
sg35
g39
sg205
S'0.0'
p262
sg207
S'-31.9'
p263
sg209
S'0.0'
p264
sg49
g26
sg211
S'-35.8'
p265
sg43
S'1985-86'
p266
sg214
S'0.0'
p267
sbasS'_per36Minutes'
p268
(lp269
(isrc.gp1.models.Per36Minutes
Per36Minutes
p270
(dp271
g8
S'0.0'
p272
sg10
S'0.0'
p273
sg11
S'.000'
p274
sg13
S'0.0'
p275
sg14
S'0.0'
p276
sg15
S'0.0'
p277
sg16
g3
sg17
g18
sg19
S'9.0'
p278
sg22
S'NBA'
p279
sg24
S'0.0'
p280
sg25
S'27.0'
p281
sg27
S'0.0'
p282
sg28
S'.000'
p283
sg30
S'0.0'
p284
sg31
S'27'
p285
sg33
S'TOT'
p286
sg35
g26
sg36
S'0.0'
p287
sg37
S'27.0'
p288
sg38
S'18.0'
p289
sg40
S'.000'
p290
sg42
S'9.0'
p291
sg43
S'1985-86'
p292
sg45
S'0.0'
p293
sg46
S'18.0'
p294
sg47
S'0.0'
p295
sg49
g50
sg51
g9
sba(isrc.gp1.models.Per36Minutes
Per36Minutes
p296
(dp297
g8
S'0.0'
p298
sg10
S'0.0'
p299
sg11
S'.000'
p300
sg13
S'0.0'
p301
sg14
S'0.0'
p302
sg15
S'0.0'
p303
sg16
g3
sg17
g18
sg19
S'0.0'
p304
sg22
S'NBA'
p305
sg24
S'0.0'
p306
sg25
S'36.0'
p307
sg27
g3
sg28
S'0.0'
p308
sg30
S'0.0'
p309
sg31
S'27'
p310
sg33
S'GSW'
p311
sg35
g20
sg36
S'0.0'
p312
sg37
S'36.0'
p313
sg38
S'0.0'
p314
sg40
S'.000'
p315
sg42
S'0.0'
p316
sg43
S'1985-86'
p317
sg45
S'0.0'
p318
sg46
S'0.0'
p319
sg47
S'0.0'
p320
sg49
g20
sg51
g9
sba(isrc.gp1.models.Per36Minutes
Per36Minutes
p321
(dp322
g8
S'0.0'
p323
sg10
S'0.0'
p324
sg11
S'.000'
p325
sg13
S'0.0'
p326
sg14
S'0.0'
p327
sg15
S'0.0'
p328
sg16
g3
sg17
g18
sg19
S'12.0'
p329
sg22
S'NBA'
p330
sg24
S'0.0'
p331
sg25
S'24.0'
p332
sg27
S'0.0'
p333
sg28
S'.000'
p334
sg30
S'0.0'
p335
sg31
S'27'
p336
sg33
S'DET'
p337
sg35
g39
sg36
S'0.0'
p338
sg37
S'24.0'
p339
sg38
S'24.0'
p340
sg40
S'.000'
p341
sg42
S'12.0'
p342
sg43
S'1985-86'
p343
sg45
S'0.0'
p344
sg46
S'24.0'
p345
sg47
S'0.0'
p346
sg49
g26
sg51
g9
sbasS'_fromYear'
p347
S'1986'
p348
sS'_url'
p349
S'http://www.basketball-reference.com/players/c/creviro01.html'
p350
sS'_perGame'
p351
(isrc.gp1.models.PerGame
PerGame
p352
(dp353
g8
S'0.0'
p354
sg10
S'0.0'
p355
sg11
S'.000'
p356
sS'_effectiveFieldGalPercentage'
p357
S'0.0'
p358
sg13
S'0.0'
p359
sg14
S'0.0'
p360
sg15
S'0.0'
p361
sg16
g3
sg17
g18
sg19
S'0.5'
p362
sg22
S'NBA'
p363
sg24
S'0.0'
p364
sg27
S'0.0'
p365
sS'_fieldGoalsttempted'
p366
S'1.0'
p367
sg28
S'.000'
p368
sg30
S'0.0'
p369
sg31
S'27'
p370
sg33
S'DET'
p371
sg35
g39
sg36
S'0.0'
p372
sg37
S'1.0'
p373
sg38
S'1.0'
p374
sg40
S'.000'
p375
sg42
S'0.5'
p376
sg43
S'1985-86'
p377
sg45
S'0.0'
p378
sg46
S'1.0'
p379
sg47
S'.000'
p380
sg49
S'1.5'
p381
sg51
g9
sbsS'_weight'
p382
S'235'
p383
sS'_dob'
p384
S'14-4-1958'
p385
sS'_salary'
p386
(lp387
sg17
g18
sb.