(isrc.gp1.models.Player
Player
p0
(dp1
S'_experience'
p2
S'NA'
p3
sS'_totals'
p4
(lp5
(isrc.gp1.models.Totals
Totals
p6
(dp7
S'_offensiveRebounds'
p8
S'2'
p9
sS'_threePointsAttempted'
p10
g3
sS'_fieldGoalsPercentage'
p11
S'.229'
p12
sS'_assist'
p13
g9
sS'_threePointsPercentage'
p14
g3
sS'_threePoints'
p15
g3
sS'_points'
p16
S'20'
p17
sS'_position'
p18
S'SF'
p19
sS'_freeThrowsPercentage'
p20
S'.308'
p21
sS'_effectiveFieldGoalPercentage'
p22
S'.229'
p23
sS'_league'
p24
S'NBA'
p25
sS'_steals'
p26
S'7'
p27
sS'_fieldGoalsAttempted'
p28
S'35'
p29
sS'_personalFouls'
p30
S'9'
p31
sS'_freeThrowsAttempted'
p32
S'13'
p33
sS'_totalRebounds'
p34
g27
sS'_age'
p35
S'22'
p36
sS'_team'
p37
S'ATL'
p38
sS'_games'
p39
g27
sS'_blocks'
p40
S'0'
p41
sS'_twoPoints'
p42
S'8'
p43
sS'_freeThrows'
p44
S'4'
p45
sS'_twoPointsAttempted'
p46
S'35'
p47
sS'_defensiveRebounds'
p48
S'5'
p49
sS'_season'
p50
S'1976-77'
p51
sS'_fieldGoals'
p52
g43
sS'_turnOvers'
p53
g3
sS'_twoPointsPercentage'
p54
S'.229'
p55
sS'_minutesPlayed'
p56
S'67'
p57
sS'_gamesStarted'
p58
g3
sba(isrc.gp1.models.Totals
Totals
p59
(dp60
g8
g3
sg10
g3
sg11
g3
sg13
g3
sg14
g3
sg15
g3
sg16
g3
sg18
g3
sg20
g3
sg22
g3
sg24
g3
sg26
g3
sg28
g3
sg30
g3
sg32
g3
sg34
g3
sg35
S'23'
p61
sg37
S'Did Not Play\xc2\xa0(other pro league\xe2\x80\x94CBA)'
p62
sg39
g3
sg40
g3
sg42
g3
sg44
g3
sg46
g3
sg48
g3
sg50
S'1977-78'
p63
sg52
g3
sg53
g3
sg54
g3
sg56
g3
sg58
g3
sba(isrc.gp1.models.Totals
Totals
p64
(dp65
g8
g3
sg10
g3
sg11
g3
sg13
g3
sg14
g3
sg15
g3
sg16
g3
sg18
g3
sg20
g3
sg22
g3
sg24
g3
sg26
g3
sg28
g3
sg30
g3
sg32
g3
sg34
g3
sg35
S'24'
p66
sg37
S'Did Not Play\xc2\xa0(other pro league\xe2\x80\x94CBA)'
p67
sg39
g3
sg40
g3
sg42
g3
sg44
g3
sg46
g3
sg48
g3
sg50
S'1978-79'
p68
sg52
g3
sg53
g3
sg54
g3
sg56
g3
sg58
g3
sba(isrc.gp1.models.Totals
Totals
p69
(dp70
g8
g3
sg10
g3
sg11
g3
sg13
g3
sg14
g3
sg15
g3
sg16
g3
sg18
g3
sg20
g3
sg22
g3
sg24
g3
sg26
g3
sg28
g3
sg30
g3
sg32
g3
sg34
g3
sg35
S'25'
p71
sg37
S'Did Not Play\xc2\xa0(other pro league\xe2\x80\x94CBA)'
p72
sg39
g3
sg40
g3
sg42
g3
sg44
g3
sg46
g3
sg48
g3
sg50
S'1979-80'
p73
sg52
g3
sg53
g3
sg54
g3
sg56
g3
sg58
g3
sba(isrc.gp1.models.Totals
Totals
p74
(dp75
g8
S'47'
p76
sg10
g43
sg11
S'.443'
p77
sg13
S'47'
p78
sg14
S'.250'
p79
sg15
g9
sg16
S'374'
p80
sg18
S'SF'
p81
sg20
S'.595'
p82
sg22
S'.446'
p83
sg24
S'NBA'
p84
sg26
S'36'
p85
sg28
S'314'
p86
sg30
S'98'
p87
sg32
S'158'
p88
sg34
S'119'
p89
sg35
S'26'
p90
sg37
S'SDC'
p91
sg39
S'64'
p92
sg40
S'11'
p93
sg42
S'137'
p94
sg44
S'94'
p95
sg46
S'306'
p96
sg48
S'72'
p97
sg50
S'1980-81'
p98
sg52
S'139'
p99
sg53
S'61'
p100
sg54
S'.448'
p101
sg56
S'817'
p102
sg58
g3
sba(isrc.gp1.models.Totals
Totals
p103
(dp104
g8
g27
sg10
g41
sg11
S'.400'
p105
sg13
g45
sg14
g3
sg15
g41
sg16
S'23'
p106
sg18
S'SF'
p107
sg20
S'.500'
p108
sg22
S'.400'
p109
sg24
S'NBA'
p110
sg26
g41
sg28
S'25'
p111
sg30
g43
sg32
S'6'
p112
sg34
S'13'
p113
sg35
S'27'
p114
sg37
S'SDC'
p115
sg39
g27
sg40
g41
sg42
S'10'
p116
sg44
S'3'
p117
sg46
S'25'
p118
sg48
g112
sg50
S'1981-82'
p119
sg52
S'10'
p120
sg53
g49
sg54
S'.400'
p121
sg56
S'67'
p122
sg58
g41
sbasS'_college'
p123
S'Washington State University'
p124
sS'_toYear'
p125
S'1982'
p126
sS'_height'
p127
S'6-6'
p128
sS'_active'
p129
I00
sS'_shootingHand'
p130
VRight
p131
sS'_name'
p132
S'Ron Davis'
p133
sS'_per100Possessions'
p134
(lp135
(isrc.gp1.models.Per100Possession
Per100Possession
p136
(dp137
g8
S'1.4'
p138
sg10
g3
sg11
S'.229'
p139
sS'_offensiveRating'
p140
g3
sg13
S'1.4'
p141
sg14
g3
sg15
g3
sg16
S'13.7'
p142
sg18
S'SF'
p143
sS'_defensiveRating'
p144
S'98'
p145
sg20
S'.308'
p146
sg24
S'NBA'
p147
sg26
S'4.8'
p148
sg28
S'24.0'
p149
sg30
S'6.2'
p150
sg32
S'8.9'
p151
sg34
S'4.8'
p152
sg35
S'22'
p153
sg37
S'ATL'
p154
sg39
g27
sg40
S'0.0'
p155
sg42
S'5.5'
p156
sg44
S'2.7'
p157
sg46
S'24.0'
p158
sg48
S'3.4'
p159
sg50
S'1976-77'
p160
sg52
S'5.5'
p161
sg53
g3
sg54
S'.229'
p162
sg56
S'67'
p163
sg58
g3
sba(isrc.gp1.models.Per100Possession
Per100Possession
p164
(dp165
g8
S'2.8'
p166
sg10
S'0.5'
p167
sg11
S'.443'
p168
sg140
S'97'
p169
sg13
S'2.8'
p170
sg14
S'.250'
p171
sg15
S'0.1'
p172
sg16
S'21.9'
p173
sg18
S'SF'
p174
sg144
S'108'
p175
sg20
S'.595'
p176
sg24
S'NBA'
p177
sg26
S'2.1'
p178
sg28
S'18.4'
p179
sg30
S'5.7'
p180
sg32
S'9.3'
p181
sg34
S'7.0'
p182
sg35
S'26'
p183
sg37
S'SDC'
p184
sg39
S'64'
p185
sg40
S'0.6'
p186
sg42
S'8.0'
p187
sg44
S'5.5'
p188
sg46
S'17.9'
p189
sg48
S'4.2'
p190
sg50
S'1980-81'
p191
sg52
S'8.1'
p192
sg53
S'3.6'
p193
sg54
S'.448'
p194
sg56
S'817'
p195
sg58
g3
sba(isrc.gp1.models.Per100Possession
Per100Possession
p196
(dp197
g8
S'4.9'
p198
sg10
S'0.0'
p199
sg11
S'.400'
p200
sg140
S'90'
p201
sg13
S'2.8'
p202
sg14
g3
sg15
S'0.0'
p203
sg16
S'16.3'
p204
sg18
S'SF'
p205
sg144
S'118'
p206
sg20
S'.500'
p207
sg24
S'NBA'
p208
sg26
S'0.0'
p209
sg28
S'17.7'
p210
sg30
S'5.7'
p211
sg32
S'4.2'
p212
sg34
S'9.2'
p213
sg35
S'27'
p214
sg37
S'SDC'
p215
sg39
g27
sg40
S'0.0'
p216
sg42
S'7.1'
p217
sg44
S'2.1'
p218
sg46
S'17.7'
p219
sg48
S'4.2'
p220
sg50
S'1981-82'
p221
sg52
S'7.1'
p222
sg53
S'3.5'
p223
sg54
S'.400'
p224
sg56
S'67'
p225
sg58
g41
sbasS'_advanced'
p226
(lp227
(isrc.gp1.models.Advanced
Advanced
p228
(dp229
S'_offensiveReboundPercentage'
p230
S'3.1'
p231
sS'_turnOverPercentage'
p232
g3
sS'_winSharesPer48Minutes'
p233
S'-0.256'
p234
sS'_stealPercentage'
p235
S'4.8'
p236
sS'_usagePercentage'
p237
g3
sS'_totalReboundsPercentage'
p238
S'5.6'
p239
sS'_defensiveBoxPlusMinus'
p240
S'-1.6'
p241
sg18
S'SF'
p242
sS'_valueOverReplacementPlayer'
p243
S'-0.2'
p244
sS'_trueShootingPercentage'
p245
S'.246'
p246
sS'_defensiveReboundPercentage'
p247
S'8.1'
p248
sS'_freeThrowsAttempRate'
p249
S'.371'
p250
sS'_threePointsAttempRate'
p251
g3
sg24
S'NBA'
p252
sS'_offensiveBoxPlusMinues'
p253
S'-12.0'
p254
sS'_assistPercentage'
p255
S'4.2'
p256
sS'_defensiveWinShares'
p257
S'0.1'
p258
sg35
S'22'
p259
sg37
S'ATL'
p260
sg39
g27
sS'_blockPercentage'
p261
S'0.0'
p262
sS'_playerEfficiencyRating'
p263
S'2.1'
p264
sS'_offensiveWinShares'
p265
S'-0.4'
p266
sg56
S'67'
p267
sS'_boxPlusMinus'
p268
S'-13.6'
p269
sg50
S'1976-77'
p270
sS'_winShares'
p271
S'-0.4'
p272
sba(isrc.gp1.models.Advanced
Advanced
p273
(dp274
g230
S'6.4'
p275
sg232
S'13.7'
p276
sg233
S'.035'
p277
sg235
S'2.1'
p278
sg237
S'22.2'
p279
sg238
S'8.5'
p280
sg240
S'-1.4'
p281
sg18
S'SF'
p282
sg243
S'-0.4'
p283
sg245
S'.488'
p284
sg247
S'10.7'
p285
sg249
S'.503'
p286
sg251
S'.025'
p287
sg24
S'NBA'
p288
sg253
S'-2.6'
p289
sg255
S'8.1'
p290
sg257
S'0.6'
p291
sg35
S'26'
p292
sg37
S'SDC'
p293
sg39
S'64'
p294
sg261
S'0.8'
p295
sg263
S'11.8'
p296
sg265
S'0.0'
p297
sg56
S'817'
p298
sg268
S'-4.0'
p299
sg50
S'1980-81'
p300
sg271
S'0.6'
p301
sba(isrc.gp1.models.Advanced
Advanced
p302
(dp303
g230
S'12.1'
p304
sg232
S'15.3'
p305
sg233
S'-0.066'
p306
sg235
S'0.0'
p307
sg237
S'19.8'
p308
sg238
S'11.6'
p309
sg240
S'-4.3'
p310
sg18
S'SF'
p311
sg243
S'-0.1'
p312
sg245
S'.416'
p313
sg247
S'11.0'
p314
sg249
S'.240'
p315
sg251
S'.000'
p316
sg24
S'NBA'
p317
sg253
S'-4.1'
p318
sg255
S'8.0'
p319
sg257
S'0.0'
p320
sg35
S'27'
p321
sg37
S'SDC'
p322
sg39
g27
sg261
S'0.0'
p323
sg263
S'6.6'
p324
sg265
S'-0.1'
p325
sg56
S'67'
p326
sg268
S'-8.4'
p327
sg50
S'1981-82'
p328
sg271
S'-0.1'
p329
sbasS'_per36Minutes'
p330
(lp331
(isrc.gp1.models.Per36Minutes
Per36Minutes
p332
(dp333
g8
S'1.1'
p334
sg10
g3
sg11
S'.229'
p335
sg13
S'1.1'
p336
sg14
g3
sg15
g3
sg16
S'10.7'
p337
sg18
S'SF'
p338
sg20
S'.308'
p339
sg24
S'NBA'
p340
sg26
S'3.8'
p341
sg28
S'18.8'
p342
sg30
S'4.8'
p343
sg32
S'7.0'
p344
sg34
S'3.8'
p345
sg35
S'22'
p346
sg37
S'ATL'
p347
sg39
g27
sg40
S'0.0'
p348
sg42
S'4.3'
p349
sg44
S'2.1'
p350
sg46
S'18.8'
p351
sg48
S'2.7'
p352
sg50
S'1976-77'
p353
sg52
S'4.3'
p354
sg53
g3
sg54
S'.229'
p355
sg56
S'67'
p356
sg58
g3
sba(isrc.gp1.models.Per36Minutes
Per36Minutes
p357
(dp358
g8
S'2.1'
p359
sg10
S'0.4'
p360
sg11
S'.443'
p361
sg13
S'2.1'
p362
sg14
S'.250'
p363
sg15
S'0.1'
p364
sg16
S'16.5'
p365
sg18
S'SF'
p366
sg20
S'.595'
p367
sg24
S'NBA'
p368
sg26
S'1.6'
p369
sg28
S'13.8'
p370
sg30
S'4.3'
p371
sg32
S'7.0'
p372
sg34
S'5.2'
p373
sg35
S'26'
p374
sg37
S'SDC'
p375
sg39
S'64'
p376
sg40
S'0.5'
p377
sg42
S'6.0'
p378
sg44
S'4.1'
p379
sg46
S'13.5'
p380
sg48
S'3.2'
p381
sg50
S'1980-81'
p382
sg52
S'6.1'
p383
sg53
S'2.7'
p384
sg54
S'.448'
p385
sg56
S'817'
p386
sg58
g3
sba(isrc.gp1.models.Per36Minutes
Per36Minutes
p387
(dp388
g8
S'3.8'
p389
sg10
S'0.0'
p390
sg11
S'.400'
p391
sg13
S'2.1'
p392
sg14
g3
sg15
S'0.0'
p393
sg16
S'12.4'
p394
sg18
S'SF'
p395
sg20
S'.500'
p396
sg24
S'NBA'
p397
sg26
S'0.0'
p398
sg28
S'13.4'
p399
sg30
S'4.3'
p400
sg32
S'3.2'
p401
sg34
S'7.0'
p402
sg35
S'27'
p403
sg37
S'SDC'
p404
sg39
g27
sg40
S'0.0'
p405
sg42
S'5.4'
p406
sg44
S'1.6'
p407
sg46
S'13.4'
p408
sg48
S'3.2'
p409
sg50
S'1981-82'
p410
sg52
S'5.4'
p411
sg53
S'2.7'
p412
sg54
S'.400'
p413
sg56
S'67'
p414
sg58
g41
sbasS'_fromYear'
p415
S'1977'
p416
sS'_url'
p417
S'http://www.basketball-reference.com/players/d/davisro01.html'
p418
sS'_perGame'
p419
(isrc.gp1.models.PerGame
PerGame
p420
(dp421
g8
S'1.0'
p422
sg10
S'0.0'
p423
sg11
S'.400'
p424
sS'_effectiveFieldGalPercentage'
p425
S'.400'
p426
sg13
S'0.6'
p427
sg14
g3
sg15
S'0.0'
p428
sg16
S'3.3'
p429
sg18
S'SF'
p430
sg20
S'.500'
p431
sg24
S'NBA'
p432
sg26
S'0.0'
p433
sg30
S'1.1'
p434
sS'_fieldGoalsttempted'
p435
S'3.6'
p436
sg32
S'0.9'
p437
sg34
S'1.9'
p438
sg35
S'27'
p439
sg37
S'SDC'
p440
sg39
g27
sg40
S'0.0'
p441
sg42
S'1.4'
p442
sg44
S'0.4'
p443
sg46
S'3.6'
p444
sg48
S'0.9'
p445
sg50
S'1981-82'
p446
sg52
S'1.4'
p447
sg53
S'0.7'
p448
sg54
S'.400'
p449
sg56
S'9.6'
p450
sg58
g41
sbsS'_weight'
p451
S'198'
p452
sS'_dob'
p453
S'1-5-1954'
p454
sS'_salary'
p455
(lp456
sg18
S'G-F'
p457
sb.