(isrc.gp1.models.Player
Player
p0
(dp1
S'_experience'
p2
S'NA'
p3
sS'_totals'
p4
(lp5
(isrc.gp1.models.Totals
Totals
p6
(dp7
S'_offensiveRebounds'
p8
g3
sS'_threePointsAttempted'
p9
S'.383'
p10
sS'_fieldGoalsPercentage'
p11
S'47'
p12
sS'_assist'
p13
g3
sS'_threePointsPercentage'
p14
S'7'
p15
sS'_threePoints'
p16
S'.383'
p17
sS'_points'
p18
g3
sS'_position'
p19
S'19'
p20
sS'_freeThrowsPercentage'
p21
g3
sS'_effectiveFieldGoalPercentage'
p22
g15
sS'_league'
p23
S'NBA'
p24
sS'_steals'
p25
g3
sS'_fieldGoalsAttempted'
p26
S'18'
p27
sS'_personalFouls'
p28
g3
sS'_freeThrowsAttempted'
p29
S'43'
p30
sS'_totalRebounds'
p31
g3
sS'_age'
p32
S'23'
p33
sS'_team'
p34
S'PHI'
p35
sS'_games'
p36
S'73'
p37
sS'_blocks'
p38
g3
sS'_twoPoints'
p39
S'14'
p40
sS'_freeThrows'
p41
S'12'
p42
sS'_twoPointsAttempted'
p43
S'.500'
p44
sS'_defensiveRebounds'
p45
g3
sS'_season'
p46
S'1967-68'
p47
sS'_fieldGoals'
p48
S'.383'
p49
sS'_turnOvers'
p50
g3
sS'_twoPointsPercentage'
p51
S'25'
p52
sS'_minutesPlayed'
p53
S'47'
p54
sS'_gamesStarted'
p55
S'18'
p56
sbasS'_college'
p57
S'Tennessee Technological University'
p58
sS'_toYear'
p59
S'1968'
p60
sS'_height'
p61
S'6-5'
p62
sS'_active'
p63
I00
sS'_shootingHand'
p64
VRight
p65
sS'_name'
p66
S'Ron Filipek'
p67
sS'_per100Possessions'
p68
(lp69
sS'_advanced'
p70
(lp71
(isrc.gp1.models.Advanced
Advanced
p72
(dp73
S'_offensiveReboundPercentage'
p74
S'0.1'
p75
sS'_turnOverPercentage'
p76
g3
sS'_winSharesPer48Minutes'
p77
g3
sS'_stealPercentage'
p78
g3
sS'_usagePercentage'
p79
g3
sS'_totalReboundsPercentage'
p80
S'-0.009'
p81
sS'_defensiveBoxPlusMinus'
p82
g3
sg19
S'19'
p83
sS'_valueOverReplacementPlayer'
p84
g3
sS'_trueShootingPercentage'
p85
S'.298'
p86
sS'_defensiveReboundPercentage'
p87
S'0.0'
p88
sS'_freeThrowsAttempRate'
p89
S'-0.2'
p90
sS'_threePointsAttempRate'
p91
S'12.7'
p92
sg23
S'NBA'
p93
sS'_offensiveBoxPlusMinues'
p94
g3
sS'_assistPercentage'
p95
g3
sS'_defensiveWinShares'
p96
g3
sg32
S'23'
p97
sg34
S'PHI'
p98
sg36
S'73'
p99
sS'_blockPercentage'
p100
g3
sS'_playerEfficiencyRating'
p101
S'.404'
p102
sS'_offensiveWinShares'
p103
g3
sg53
S'13.5'
p104
sS'_boxPlusMinus'
p105
g3
sg46
S'1967-68'
p106
sS'_winShares'
p107
g3
sbasS'_per36Minutes'
p108
(lp109
(isrc.gp1.models.Per36Minutes
Per36Minutes
p110
(dp111
g8
g3
sg9
S'3.5'
p112
sg11
S'23.2'
p113
sg13
g3
sg14
S'6.9'
p114
sg16
S'.383'
p115
sg18
g3
sg19
S'19'
p116
sg21
g3
sg23
S'NBA'
p117
sg25
g3
sg26
S'8.9'
p118
sg28
g3
sg29
S'21.2'
p119
sg31
g3
sg32
S'23'
p120
sg34
S'PHI'
p121
sg36
S'73'
p122
sg38
g3
sg39
S'.500'
p123
sg41
S'5.9'
p124
sg43
S'12.3'
p125
sg45
g3
sg46
S'1967-68'
p126
sg48
S'.383'
p127
sg50
g3
sg51
S'3.5'
p128
sg53
S'23.2'
p129
sg55
S'8.9'
p130
sbasS'_fromYear'
p131
S'1968'
p132
sS'_url'
p133
S'http://www.basketball-reference.com/players/f/filipro01.html'
p134
sS'_perGame'
p135
(isrc.gp1.models.PerGame
PerGame
p136
(dp137
g8
g3
sg9
S'.383'
p138
sg11
S'2.5'
p139
sS'_effectiveFieldGalPercentage'
p140
S'0.4'
p141
sg13
g3
sg14
S'0.4'
p142
sg16
S'.383'
p143
sg18
g3
sg19
S'19'
p144
sg21
g3
sg23
S'NBA'
p145
sg25
g3
sg28
g3
sS'_fieldGoalsttempted'
p146
S'0.9'
p147
sg29
S'2.3'
p148
sg31
g3
sg32
S'23'
p149
sg34
S'PHI'
p150
sg36
S'3.8'
p151
sg38
g3
sg39
S'0.7'
p152
sg41
S'0.6'
p153
sg43
S'.500'
p154
sg45
g3
sg46
S'1967-68'
p155
sg48
S'.383'
p156
sg50
g3
sg51
S'1.3'
p157
sg53
S'2.5'
p158
sg55
S'0.9'
p159
sbsS'_weight'
p160
S'205'
p161
sS'_dob'
p162
S'5-2-1944'
p163
sS'_salary'
p164
(lp165
sg19
S'F'
p166
sb.