(isrc.gp1.models.Player
Player
p0
(dp1
S'_experience'
p2
S'NA'
p3
sS'_totals'
p4
(lp5
(isrc.gp1.models.Totals
Totals
p6
(dp7
S'_offensiveRebounds'
p8
S'6'
p9
sS'_threePointsAttempted'
p10
S'10'
p11
sS'_fieldGoalsPercentage'
p12
S'0'
p13
sS'_assist'
p14
g13
sS'_threePointsPercentage'
p15
S'24'
p16
sS'_threePoints'
p17
g13
sS'_points'
p18
g3
sS'_position'
p19
S'PG'
p20
sS'_freeThrowsPercentage'
p21
S'3'
p22
sS'_effectiveFieldGoalPercentage'
p23
S'11'
p24
sS'_league'
p25
S'NBA'
p26
sS'_steals'
p27
S'9'
p28
sS'_fieldGoalsAttempted'
p29
S'.417'
p30
sS'_personalFouls'
p31
g3
sS'_freeThrowsAttempted'
p32
g22
sS'_totalRebounds'
p33
S'2'
p34
sS'_age'
p35
S'22'
p36
sS'_team'
p37
S'CHI'
p38
sS'_games'
p39
S'8'
p40
sS'_blocks'
p41
S'5'
p42
sS'_twoPoints'
p43
S'.417'
p44
sS'_freeThrows'
p45
S'.909'
p46
sS'_twoPointsAttempted'
p47
S'.417'
p48
sS'_defensiveRebounds'
p49
S'7'
p50
sS'_season'
p51
S'1980-81'
p52
sS'_fieldGoals'
p53
S'24'
p54
sS'_turnOvers'
p55
S'30'
p56
sS'_twoPointsPercentage'
p57
S'10'
p58
sS'_minutesPlayed'
p59
S'10'
p60
sS'_gamesStarted'
p61
S'83'
p62
sba(isrc.gp1.models.Totals
Totals
p63
(dp64
g8
S'75'
p65
sg10
g40
sg12
S'.501'
p66
sg14
S'362'
p67
sg15
S'.500'
p68
sg17
S'4'
p69
sg18
S'870'
p70
sg19
S'PG'
p71
sg21
S'.813'
p72
sg23
S'.504'
p73
sg25
S'NBA'
p74
sg27
S'80'
p75
sg29
S'657'
p76
sg31
S'158'
p77
sg32
S'256'
p78
sg33
S'213'
p79
sg35
S'23'
p80
sg37
S'CHI'
p81
sg39
S'75'
p82
sg41
S'14'
p83
sg43
S'325'
p84
sg45
S'208'
p85
sg47
S'649'
p86
sg49
S'138'
p87
sg51
S'1981-82'
p88
sg53
S'329'
p89
sg55
S'185'
p90
sg57
S'.501'
p91
sg59
S'2252'
p92
sg61
S'74'
p93
sba(isrc.gp1.models.Totals
Totals
p94
(dp95
g8
S'46'
p96
sg10
g42
sg12
S'.453'
p97
sg14
S'332'
p98
sg15
S'.000'
p99
sg17
g13
sg18
S'528'
p100
sg19
S'PG'
p101
sg21
S'.725'
p102
sg23
S'.453'
p103
sg25
S'NBA'
p104
sg27
S'51'
p105
sg29
S'446'
p106
sg31
S'121'
p107
sg32
S'171'
p108
sg33
S'172'
p109
sg35
S'24'
p110
sg37
S'CHI'
p111
sg39
S'65'
p112
sg41
g9
sg43
S'202'
p113
sg45
S'124'
p114
sg47
S'441'
p115
sg49
S'126'
p116
sg51
S'1982-83'
p117
sg53
S'202'
p118
sg55
S'134'
p119
sg57
S'.458'
p120
sg59
S'1437'
p121
sg61
S'38'
p122
sba(isrc.gp1.models.Totals
Totals
p123
(dp124
g8
S'20'
p125
sg10
g42
sg12
S'.415'
p126
sg14
S'168'
p127
sg15
S'.200'
p128
sg17
S'1'
p129
sg18
S'232'
p130
sg19
S'PG'
p131
sg21
S'.862'
p132
sg23
S'.418'
p133
sg25
S'NBA'
p134
sg27
S'30'
p135
sg29
S'188'
p136
sg31
S'59'
p137
sg32
S'87'
p138
sg33
S'46'
p139
sg35
S'25'
p140
sg37
S'CHI'
p141
sg39
S'43'
p142
sg41
g9
sg43
S'77'
p143
sg45
S'75'
p144
sg47
S'183'
p145
sg49
S'26'
p146
sg51
S'1983-84'
p147
sg53
S'78'
p148
sg55
S'72'
p149
sg57
S'.421'
p150
sg59
S'687'
p151
sg61
g22
sba(isrc.gp1.models.Totals
Totals
p152
(dp153
g8
g69
sg10
g129
sg12
S'.415'
p154
sg14
S'80'
p155
sg15
S'.000'
p156
sg17
g13
sg18
S'89'
p157
sg19
S'PG'
p158
sg21
S'.677'
p159
sg23
S'.415'
p160
sg25
S'NBA'
p161
sg27
S'15'
p162
sg29
S'82'
p163
sg31
S'25'
p164
sg32
S'31'
p165
sg33
S'26'
p166
sg35
S'26'
p167
sg37
S'LAL'
p168
sg39
S'32'
p169
sg41
g22
sg43
S'34'
p170
sg45
S'21'
p171
sg47
S'81'
p172
sg49
S'22'
p173
sg51
S'1984-85'
p174
sg53
S'34'
p175
sg55
S'32'
p176
sg57
S'.420'
p177
sg59
S'278'
p178
sg61
g129
sba(isrc.gp1.models.Totals
Totals
p179
(dp180
g8
g13
sg10
g22
sg12
S'.500'
p181
sg14
S'54'
p182
sg15
S'.000'
p183
sg17
g13
sg18
S'67'
p184
sg19
S'PG'
p185
sg21
S'.789'
p186
sg23
S'.500'
p187
sg25
S'NBA'
p188
sg27
g28
sg29
S'52'
p189
sg31
S'27'
p190
sg32
S'19'
p191
sg33
S'10'
p192
sg35
S'27'
p193
sg37
S'LAL'
p194
sg39
S'27'
p195
sg41
g22
sg43
S'26'
p196
sg45
S'15'
p197
sg47
S'49'
p198
sg49
S'10'
p199
sg51
S'1985-86'
p200
sg53
S'26'
p201
sg55
S'42'
p202
sg57
S'.531'
p203
sg59
S'222'
p204
sg61
g13
sbasS'_college'
p205
S'University of Iowa'
p206
sS'_toYear'
p207
S'1986'
p208
sS'_height'
p209
S'6-2'
p210
sS'_active'
p211
I00
sS'_shootingHand'
p212
VRight
p213
sS'_name'
p214
S'Ronnie Lester'
p215
sS'_per100Possessions'
p216
(lp217
(isrc.gp1.models.Per100Possession
Per100Possession
p218
(dp219
g8
S'3.4'
p220
sg10
S'5.7'
p221
sg12
S'0.0'
p222
sS'_offensiveRating'
p223
g3
sg14
S'0.0'
p224
sg15
S'13.8'
p225
sg17
S'0.0'
p226
sg18
S'111'
p227
sg19
S'PG'
p228
sS'_defensiveRating'
p229
g3
sg21
S'1.7'
p230
sg25
S'NBA'
p231
sg27
S'5.2'
p232
sg29
S'.417'
p233
sg31
S'95'
p234
sg32
S'1.7'
p235
sg33
S'1.1'
p236
sg35
S'22'
p237
sg37
S'CHI'
p238
sg39
g40
sg41
S'2.9'
p239
sg43
S'.417'
p240
sg45
S'.909'
p241
sg47
S'5.7'
p242
sg49
S'4.0'
p243
sg51
S'1980-81'
p244
sg53
S'13.8'
p245
sg55
S'17.2'
p246
sg57
S'6.3'
p247
sg59
S'5.7'
p248
sg61
S'83'
p249
sba(isrc.gp1.models.Per100Possession
Per100Possession
p250
(dp251
g8
S'1.6'
p252
sg10
S'0.2'
p253
sg12
S'.501'
p254
sg223
S'109'
p255
sg14
S'7.8'
p256
sg15
S'.500'
p257
sg17
S'0.1'
p258
sg18
S'18.7'
p259
sg19
S'PG'
p260
sg229
S'111'
p261
sg21
S'.813'
p262
sg25
S'NBA'
p263
sg27
S'1.7'
p264
sg29
S'14.1'
p265
sg31
S'3.4'
p266
sg32
S'5.5'
p267
sg33
S'4.6'
p268
sg35
S'23'
p269
sg37
S'CHI'
p270
sg39
S'75'
p271
sg41
S'0.3'
p272
sg43
S'7.0'
p273
sg45
S'4.5'
p274
sg47
S'14.0'
p275
sg49
S'3.0'
p276
sg51
S'1981-82'
p277
sg53
S'7.1'
p278
sg55
S'4.0'
p279
sg57
S'.501'
p280
sg59
S'2252'
p281
sg61
S'74'
p282
sba(isrc.gp1.models.Per100Possession
Per100Possession
p283
(dp284
g8
S'1.4'
p285
sg10
S'0.2'
p286
sg12
S'.453'
p287
sg223
S'103'
p288
sg14
S'10.4'
p289
sg15
S'.000'
p290
sg17
S'0.0'
p291
sg18
S'16.6'
p292
sg19
S'PG'
p293
sg229
S'110'
p294
sg21
S'.725'
p295
sg25
S'NBA'
p296
sg27
S'1.6'
p297
sg29
S'14.0'
p298
sg31
S'3.8'
p299
sg32
S'5.4'
p300
sg33
S'5.4'
p301
sg35
S'24'
p302
sg37
S'CHI'
p303
sg39
S'65'
p304
sg41
S'0.2'
p305
sg43
S'6.4'
p306
sg45
S'3.9'
p307
sg47
S'13.9'
p308
sg49
S'4.0'
p309
sg51
S'1982-83'
p310
sg53
S'6.4'
p311
sg55
S'4.2'
p312
sg57
S'.458'
p313
sg59
S'1437'
p314
sg61
S'38'
p315
sba(isrc.gp1.models.Per100Possession
Per100Possession
p316
(dp317
g8
S'1.4'
p318
sg10
S'0.4'
p319
sg12
S'.415'
p320
sg223
S'101'
p321
sg14
S'11.8'
p322
sg15
S'.200'
p323
sg17
S'0.1'
p324
sg18
S'16.2'
p325
sg19
S'PG'
p326
sg229
S'110'
p327
sg21
S'.862'
p328
sg25
S'NBA'
p329
sg27
S'2.1'
p330
sg29
S'13.2'
p331
sg31
S'4.1'
p332
sg32
S'6.1'
p333
sg33
S'3.2'
p334
sg35
S'25'
p335
sg37
S'CHI'
p336
sg39
S'43'
p337
sg41
S'0.4'
p338
sg43
S'5.4'
p339
sg45
S'5.3'
p340
sg47
S'12.8'
p341
sg49
S'1.8'
p342
sg51
S'1983-84'
p343
sg53
S'5.5'
p344
sg55
S'5.0'
p345
sg57
S'.421'
p346
sg59
S'687'
p347
sg61
g22
sba(isrc.gp1.models.Per100Possession
Per100Possession
p348
(dp349
g8
S'0.7'
p350
sg10
S'0.2'
p351
sg12
S'.415'
p352
sg223
S'97'
p353
sg14
S'13.4'
p354
sg15
S'.000'
p355
sg17
S'0.0'
p356
sg18
S'14.9'
p357
sg19
S'PG'
p358
sg229
S'107'
p359
sg21
S'.677'
p360
sg25
S'NBA'
p361
sg27
S'2.5'
p362
sg29
S'13.7'
p363
sg31
S'4.2'
p364
sg32
S'5.2'
p365
sg33
S'4.3'
p366
sg35
S'26'
p367
sg37
S'LAL'
p368
sg39
S'32'
p369
sg41
S'0.5'
p370
sg43
S'5.7'
p371
sg45
S'3.5'
p372
sg47
S'13.5'
p373
sg49
S'3.7'
p374
sg51
S'1984-85'
p375
sg53
S'5.7'
p376
sg55
S'5.4'
p377
sg57
S'.420'
p378
sg59
S'278'
p379
sg61
g129
sba(isrc.gp1.models.Per100Possession
Per100Possession
p380
(dp381
g8
S'0.0'
p382
sg10
S'0.6'
p383
sg12
S'.500'
p384
sg223
S'83'
p385
sg14
S'11.4'
p386
sg15
S'.000'
p387
sg17
S'0.0'
p388
sg18
S'14.1'
p389
sg19
S'PG'
p390
sg229
S'108'
p391
sg21
S'.789'
p392
sg25
S'NBA'
p393
sg27
S'1.9'
p394
sg29
S'10.9'
p395
sg31
S'5.7'
p396
sg32
S'4.0'
p397
sg33
S'2.1'
p398
sg35
S'27'
p399
sg37
S'LAL'
p400
sg39
S'27'
p401
sg41
S'0.6'
p402
sg43
S'5.5'
p403
sg45
S'3.2'
p404
sg47
S'10.3'
p405
sg49
S'2.1'
p406
sg51
S'1985-86'
p407
sg53
S'5.5'
p408
sg55
S'8.8'
p409
sg57
S'.531'
p410
sg59
S'222'
p411
sg61
g13
sbasS'_advanced'
p412
(lp413
(isrc.gp1.models.Advanced
Advanced
p414
(dp415
S'_offensiveReboundPercentage'
p416
S'4.3'
p417
sS'_turnOverPercentage'
p418
S'23.8'
p419
sS'_winSharesPer48Minutes'
p420
S'.008'
p421
sS'_stealPercentage'
p422
S'1.1'
p423
sS'_usagePercentage'
p424
S'18.6'
p425
sS'_totalReboundsPercentage'
p426
S'4.1'
p427
sS'_defensiveBoxPlusMinus'
p428
S'-3.1'
p429
sg19
S'PG'
p430
sS'_valueOverReplacementPlayer'
p431
S'-0.1'
p432
sS'_trueShootingPercentage'
p433
S'.520'
p434
sS'_defensiveReboundPercentage'
p435
S'3.9'
p436
sS'_freeThrowsAttempRate'
p437
S'.458'
p438
sS'_threePointsAttempRate'
p439
S'.000'
p440
sg25
S'NBA'
p441
sS'_offensiveBoxPlusMinues'
p442
S'-4.0'
p443
sS'_assistPercentage'
p444
S'11.2'
p445
sS'_defensiveWinShares'
p446
S'0.0'
p447
sg35
S'22'
p448
sg37
S'CHI'
p449
sg39
g40
sS'_blockPercentage'
p450
S'0.0'
p451
sS'_playerEfficiencyRating'
p452
S'8.2'
p453
sS'_offensiveWinShares'
p454
S'0.0'
p455
sg59
S'83'
p456
sS'_boxPlusMinus'
p457
S'-7.1'
p458
sg51
S'1980-81'
p459
sS'_winShares'
p460
S'0.0'
p461
sba(isrc.gp1.models.Advanced
Advanced
p462
(dp463
g416
S'4.0'
p464
sg418
S'19.4'
p465
sg420
S'.084'
p466
sg422
S'1.7'
p467
sg424
S'17.8'
p468
sg426
S'5.4'
p469
sg428
S'-1.1'
p470
sg19
S'PG'
p471
sg431
S'0.7'
p472
sg433
S'.565'
p473
sg435
S'6.7'
p474
sg437
S'.390'
p475
sg439
S'.012'
p476
sg25
S'NBA'
p477
sg442
S'0.3'
p478
sg444
S'22.9'
p479
sg446
S'1.3'
p480
sg35
S'23'
p481
sg37
S'CHI'
p482
sg39
S'75'
p483
sg450
S'0.3'
p484
sg452
S'13.8'
p485
sg454
S'2.6'
p486
sg59
S'2252'
p487
sg457
S'-0.8'
p488
sg51
S'1981-82'
p489
sg460
S'3.9'
p490
sba(isrc.gp1.models.Advanced
Advanced
p491
(dp492
g416
S'3.4'
p493
sg418
S'20.5'
p494
sg420
S'.057'
p495
sg422
S'1.6'
p496
sg424
S'17.6'
p497
sg426
S'6.4'
p498
sg428
S'-2.0'
p499
sg19
S'PG'
p500
sg431
S'-0.3'
p501
sg433
S'.506'
p502
sg435
S'9.4'
p503
sg437
S'.383'
p504
sg439
S'.011'
p505
sg25
S'NBA'
p506
sg442
S'-0.9'
p507
sg444
S'30.9'
p508
sg446
S'0.6'
p509
sg35
S'24'
p510
sg37
S'CHI'
p511
sg39
S'65'
p512
sg450
S'0.2'
p513
sg452
S'13.4'
p514
sg454
S'1.1'
p515
sg59
S'1437'
p516
sg457
S'-2.9'
p517
sg51
S'1982-83'
p518
sg460
S'1.7'
p519
sba(isrc.gp1.models.Advanced
Advanced
p520
(dp521
g416
S'3.3'
p522
sg418
S'24.1'
p523
sg420
S'.048'
p524
sg422
S'2.1'
p525
sg424
S'18.0'
p526
sg426
S'3.8'
p527
sg428
S'-2.4'
p528
sg19
S'PG'
p529
sg431
S'-0.5'
p530
sg433
S'.513'
p531
sg435
S'4.4'
p532
sg437
S'.463'
p533
sg439
S'.027'
p534
sg25
S'NBA'
p535
sg442
S'-2.4'
p536
sg444
S'34.3'
p537
sg446
S'0.5'
p538
sg35
S'25'
p539
sg37
S'CHI'
p540
sg39
S'43'
p541
sg450
S'0.5'
p542
sg452
S'12.5'
p543
sg454
S'0.2'
p544
sg59
S'687'
p545
sg457
S'-4.8'
p546
sg51
S'1983-84'
p547
sg460
S'0.7'
p548
sba(isrc.gp1.models.Advanced
Advanced
p549
(dp550
g416
S'1.8'
p551
sg418
S'25.1'
p552
sg420
S'.039'
p553
sg422
S'2.5'
p554
sg424
S'18.6'
p555
sg426
S'5.3'
p556
sg428
S'-1.4'
p557
sg19
S'PG'
p558
sg431
S'-0.2'
p559
sg433
S'.465'
p560
sg435
S'8.2'
p561
sg437
S'.378'
p562
sg439
S'.012'
p563
sg25
S'NBA'
p564
sg442
S'-3.7'
p565
sg444
S'32.8'
p566
sg446
S'0.3'
p567
sg35
S'26'
p568
sg37
S'LAL'
p569
sg39
S'32'
p570
sg450
S'0.6'
p571
sg452
S'11.9'
p572
sg454
S'-0.1'
p573
sg59
S'278'
p574
sg457
S'-5.0'
p575
sg51
S'1984-85'
p576
sg460
S'0.2'
p577
sba(isrc.gp1.models.Advanced
Advanced
p578
(dp579
g416
S'0.0'
p580
sg418
S'41.0'
p581
sg420
S'-0.050'
p582
sg422
S'1.9'
p583
sg424
S'18.6'
p584
sg426
S'2.6'
p585
sg428
S'-2.6'
p586
sg19
S'PG'
p587
sg431
S'-0.4'
p588
sg433
S'.555'
p589
sg435
S'4.9'
p590
sg437
S'.365'
p591
sg439
S'.058'
p592
sg25
S'NBA'
p593
sg442
S'-6.5'
p594
sg444
S'28.6'
p595
sg446
S'0.2'
p596
sg35
S'27'
p597
sg37
S'LAL'
p598
sg39
S'27'
p599
sg450
S'0.7'
p600
sg452
S'6.7'
p601
sg454
S'-0.4'
p602
sg59
S'222'
p603
sg457
S'-9.1'
p604
sg51
S'1985-86'
p605
sg460
S'-0.2'
p606
sbasS'_per36Minutes'
p607
(lp608
(isrc.gp1.models.Per36Minutes
Per36Minutes
p609
(dp610
g8
S'2.6'
p611
sg10
S'4.3'
p612
sg12
S'0.0'
p613
sg14
S'0.0'
p614
sg15
S'10.4'
p615
sg17
S'0.0'
p616
sg18
g3
sg19
S'PG'
p617
sg21
S'1.3'
p618
sg25
S'NBA'
p619
sg27
S'3.9'
p620
sg29
S'.417'
p621
sg31
g3
sg32
S'1.3'
p622
sg33
S'0.9'
p623
sg35
S'22'
p624
sg37
S'CHI'
p625
sg39
g40
sg41
S'2.2'
p626
sg43
S'.417'
p627
sg45
S'.909'
p628
sg47
S'4.3'
p629
sg49
S'3.0'
p630
sg51
S'1980-81'
p631
sg53
S'10.4'
p632
sg55
S'13.0'
p633
sg57
S'4.8'
p634
sg59
S'4.3'
p635
sg61
S'83'
p636
sba(isrc.gp1.models.Per36Minutes
Per36Minutes
p637
(dp638
g8
S'1.2'
p639
sg10
S'0.1'
p640
sg12
S'.501'
p641
sg14
S'5.8'
p642
sg15
S'.500'
p643
sg17
S'0.1'
p644
sg18
S'13.9'
p645
sg19
S'PG'
p646
sg21
S'.813'
p647
sg25
S'NBA'
p648
sg27
S'1.3'
p649
sg29
S'10.5'
p650
sg31
S'2.5'
p651
sg32
S'4.1'
p652
sg33
S'3.4'
p653
sg35
S'23'
p654
sg37
S'CHI'
p655
sg39
S'75'
p656
sg41
S'0.2'
p657
sg43
S'5.2'
p658
sg45
S'3.3'
p659
sg47
S'10.4'
p660
sg49
S'2.2'
p661
sg51
S'1981-82'
p662
sg53
S'5.3'
p663
sg55
S'3.0'
p664
sg57
S'.501'
p665
sg59
S'2252'
p666
sg61
S'74'
p667
sba(isrc.gp1.models.Per36Minutes
Per36Minutes
p668
(dp669
g8
S'1.2'
p670
sg10
S'0.1'
p671
sg12
S'.453'
p672
sg14
S'8.3'
p673
sg15
S'.000'
p674
sg17
S'0.0'
p675
sg18
S'13.2'
p676
sg19
S'PG'
p677
sg21
S'.725'
p678
sg25
S'NBA'
p679
sg27
S'1.3'
p680
sg29
S'11.2'
p681
sg31
S'3.0'
p682
sg32
S'4.3'
p683
sg33
S'4.3'
p684
sg35
S'24'
p685
sg37
S'CHI'
p686
sg39
S'65'
p687
sg41
S'0.2'
p688
sg43
S'5.1'
p689
sg45
S'3.1'
p690
sg47
S'11.0'
p691
sg49
S'3.2'
p692
sg51
S'1982-83'
p693
sg53
S'5.1'
p694
sg55
S'3.4'
p695
sg57
S'.458'
p696
sg59
S'1437'
p697
sg61
S'38'
p698
sba(isrc.gp1.models.Per36Minutes
Per36Minutes
p699
(dp700
g8
S'1.0'
p701
sg10
S'0.3'
p702
sg12
S'.415'
p703
sg14
S'8.8'
p704
sg15
S'.200'
p705
sg17
S'0.1'
p706
sg18
S'12.2'
p707
sg19
S'PG'
p708
sg21
S'.862'
p709
sg25
S'NBA'
p710
sg27
S'1.6'
p711
sg29
S'9.9'
p712
sg31
S'3.1'
p713
sg32
S'4.6'
p714
sg33
S'2.4'
p715
sg35
S'25'
p716
sg37
S'CHI'
p717
sg39
S'43'
p718
sg41
S'0.3'
p719
sg43
S'4.0'
p720
sg45
S'3.9'
p721
sg47
S'9.6'
p722
sg49
S'1.4'
p723
sg51
S'1983-84'
p724
sg53
S'4.1'
p725
sg55
S'3.8'
p726
sg57
S'.421'
p727
sg59
S'687'
p728
sg61
g22
sba(isrc.gp1.models.Per36Minutes
Per36Minutes
p729
(dp730
g8
S'0.5'
p731
sg10
S'0.1'
p732
sg12
S'.415'
p733
sg14
S'10.4'
p734
sg15
S'.000'
p735
sg17
S'0.0'
p736
sg18
S'11.5'
p737
sg19
S'PG'
p738
sg21
S'.677'
p739
sg25
S'NBA'
p740
sg27
S'1.9'
p741
sg29
S'10.6'
p742
sg31
S'3.2'
p743
sg32
S'4.0'
p744
sg33
S'3.4'
p745
sg35
S'26'
p746
sg37
S'LAL'
p747
sg39
S'32'
p748
sg41
S'0.4'
p749
sg43
S'4.4'
p750
sg45
S'2.7'
p751
sg47
S'10.5'
p752
sg49
S'2.8'
p753
sg51
S'1984-85'
p754
sg53
S'4.4'
p755
sg55
S'4.1'
p756
sg57
S'.420'
p757
sg59
S'278'
p758
sg61
g129
sba(isrc.gp1.models.Per36Minutes
Per36Minutes
p759
(dp760
g8
S'0.0'
p761
sg10
S'0.5'
p762
sg12
S'.500'
p763
sg14
S'8.8'
p764
sg15
S'.000'
p765
sg17
S'0.0'
p766
sg18
S'10.9'
p767
sg19
S'PG'
p768
sg21
S'.789'
p769
sg25
S'NBA'
p770
sg27
S'1.5'
p771
sg29
S'8.4'
p772
sg31
S'4.4'
p773
sg32
S'3.1'
p774
sg33
S'1.6'
p775
sg35
S'27'
p776
sg37
S'LAL'
p777
sg39
S'27'
p778
sg41
S'0.5'
p779
sg43
S'4.2'
p780
sg45
S'2.4'
p781
sg47
S'7.9'
p782
sg49
S'1.6'
p783
sg51
S'1985-86'
p784
sg53
S'4.2'
p785
sg55
S'6.8'
p786
sg57
S'.531'
p787
sg59
S'222'
p788
sg61
g13
sbasS'_fromYear'
p789
S'1981'
p790
sS'_url'
p791
S'http://www.basketball-reference.com/players/l/lestero01.html'
p792
sS'_perGame'
p793
(isrc.gp1.models.PerGame
PerGame
p794
(dp795
g8
S'0.0'
p796
sg10
S'0.1'
p797
sg12
S'.500'
p798
sS'_effectiveFieldGalPercentage'
p799
S'.500'
p800
sg14
S'2.0'
p801
sg15
S'.000'
p802
sg17
S'0.0'
p803
sg18
S'2.5'
p804
sg19
S'PG'
p805
sg21
S'.789'
p806
sg25
S'NBA'
p807
sg27
S'0.3'
p808
sg31
S'1.0'
p809
sS'_fieldGoalsttempted'
p810
S'1.9'
p811
sg32
S'0.7'
p812
sg33
S'0.4'
p813
sg35
S'27'
p814
sg37
S'LAL'
p815
sg39
S'27'
p816
sg41
S'0.1'
p817
sg43
S'1.0'
p818
sg45
S'0.6'
p819
sg47
S'1.8'
p820
sg49
S'0.4'
p821
sg51
S'1985-86'
p822
sg53
S'1.0'
p823
sg55
S'1.6'
p824
sg57
S'.531'
p825
sg59
S'8.2'
p826
sg61
g13
sbsS'_weight'
p827
S'175'
p828
sS'_dob'
p829
S'1-1-1959'
p830
sS'_salary'
p831
(lp832
(isrc.gp1.models.Salary
Salary
p833
(dp834
g37
S'Los Angeles Lakers'
p835
sg25
S'NBA'
p836
sg831
S'$100,000'
p837
sg51
S'1985-86'
p838
sbasg19
S'G'
p839
sb.