(isrc.gp1.models.Player
Player
p0
(dp1
S'_experience'
p2
S'NA'
p3
sS'_totals'
p4
(lp5
(isrc.gp1.models.Totals
Totals
p6
(dp7
S'_offensiveRebounds'
p8
S'2'
p9
sS'_threePointsAttempted'
p10
S'4'
p11
sS'_fieldGoalsPercentage'
p12
S'.333'
p13
sS'_assist'
p14
S'1'
p15
sS'_threePointsPercentage'
p16
S'.500'
p17
sS'_threePoints'
p18
g9
sS'_points'
p19
S'21'
p20
sS'_position'
p21
S'SG'
p22
sS'_freeThrowsPercentage'
p23
S'.750'
p24
sS'_effectiveFieldGoalPercentage'
p25
S'.375'
p26
sS'_league'
p27
S'ABA'
p28
sS'_steals'
p29
g15
sS'_fieldGoalsAttempted'
p30
S'24'
p31
sS'_personalFouls'
p32
S'5'
p33
sS'_freeThrowsAttempted'
p34
g11
sS'_totalRebounds'
p35
g33
sS'_age'
p36
S'24'
p37
sS'_team'
p38
S'UTS'
p39
sS'_games'
p40
g33
sS'_blocks'
p41
S'0'
p42
sS'_twoPoints'
p43
S'6'
p44
sS'_freeThrows'
p45
S'3'
p46
sS'_twoPointsAttempted'
p47
S'20'
p48
sS'_defensiveRebounds'
p49
g46
sS'_season'
p50
S'1974-75'
p51
sS'_fieldGoals'
p52
S'8'
p53
sS'_turnOvers'
p54
S'10'
p55
sS'_twoPointsPercentage'
p56
S'.300'
p57
sS'_minutesPlayed'
p58
S'44'
p59
sS'_gamesStarted'
p60
g3
sbasS'_college'
p61
S'Montana State University, Billings'
p62
sS'_toYear'
p63
S'1975'
p64
sS'_height'
p65
S'6-3'
p66
sS'_active'
p67
I00
sS'_shootingHand'
p68
VRight
p69
sS'_name'
p70
S'Roy McPipe'
p71
sS'_per100Possessions'
p72
(lp73
(isrc.gp1.models.Per100Possession
Per100Possession
p74
(dp75
g8
S'2.2'
p76
sg10
S'4.5'
p77
sg12
S'.333'
p78
sS'_offensiveRating'
p79
S'65'
p80
sg14
S'1.1'
p81
sg16
S'.500'
p82
sg18
S'2.2'
p83
sg19
S'23.4'
p84
sg21
S'SG'
p85
sS'_defensiveRating'
p86
S'108'
p87
sg23
S'.750'
p88
sg27
S'ABA'
p89
sg29
S'1.1'
p90
sg30
S'26.7'
p91
sg32
S'5.6'
p92
sg34
S'4.5'
p93
sg35
S'5.6'
p94
sg36
S'24'
p95
sg38
S'UTS'
p96
sg40
g33
sg41
S'0.0'
p97
sg43
S'6.7'
p98
sg45
S'3.3'
p99
sg47
S'22.3'
p100
sg49
S'3.3'
p101
sg50
S'1974-75'
p102
sg52
S'8.9'
p103
sg54
S'11.1'
p104
sg56
S'.300'
p105
sg58
S'44'
p106
sg60
g3
sbasS'_advanced'
p107
(lp108
(isrc.gp1.models.Advanced
Advanced
p109
(dp110
S'_offensiveReboundPercentage'
p111
S'5.0'
p112
sS'_turnOverPercentage'
p113
S'28.0'
p114
sS'_winSharesPer48Minutes'
p115
S'-0.265'
p116
sS'_stealPercentage'
p117
S'1.1'
p118
sS'_usagePercentage'
p119
S'33.8'
p120
sS'_totalReboundsPercentage'
p121
S'5.9'
p122
sS'_defensiveBoxPlusMinus'
p123
S'-3.7'
p124
sg21
S'SG'
p125
sS'_valueOverReplacementPlayer'
p126
S'-0.1'
p127
sS'_trueShootingPercentage'
p128
S'.408'
p129
sS'_defensiveReboundPercentage'
p130
S'6.8'
p131
sS'_freeThrowsAttempRate'
p132
S'.167'
p133
sS'_threePointsAttempRate'
p134
S'.167'
p135
sg27
S'ABA'
p136
sS'_offensiveBoxPlusMinues'
p137
S'-9.9'
p138
sS'_assistPercentage'
p139
S'3.5'
p140
sS'_defensiveWinShares'
p141
S'0.0'
p142
sg36
S'24'
p143
sg38
S'UTS'
p144
sg40
g33
sS'_blockPercentage'
p145
S'0.0'
p146
sS'_playerEfficiencyRating'
p147
S'-0.8'
p148
sS'_offensiveWinShares'
p149
S'-0.3'
p150
sg58
S'44'
p151
sS'_boxPlusMinus'
p152
S'-13.6'
p153
sg50
S'1974-75'
p154
sS'_winShares'
p155
S'-0.2'
p156
sbasS'_per36Minutes'
p157
(lp158
(isrc.gp1.models.Per36Minutes
Per36Minutes
p159
(dp160
g8
S'1.6'
p161
sg10
S'3.3'
p162
sg12
S'.333'
p163
sg14
S'0.8'
p164
sg16
S'.500'
p165
sg18
S'1.6'
p166
sg19
S'17.2'
p167
sg21
S'SG'
p168
sg23
S'.750'
p169
sg27
S'ABA'
p170
sg29
S'0.8'
p171
sg30
S'19.6'
p172
sg32
S'4.1'
p173
sg34
S'3.3'
p174
sg35
S'4.1'
p175
sg36
S'24'
p176
sg38
S'UTS'
p177
sg40
g33
sg41
S'0.0'
p178
sg43
S'4.9'
p179
sg45
S'2.5'
p180
sg47
S'16.4'
p181
sg49
S'2.5'
p182
sg50
S'1974-75'
p183
sg52
S'6.5'
p184
sg54
S'8.2'
p185
sg56
S'.300'
p186
sg58
S'44'
p187
sg60
g3
sbasS'_fromYear'
p188
S'1975'
p189
sS'_url'
p190
S'http://www.basketball-reference.com/players/m/mcpipro01.html'
p191
sS'_perGame'
p192
(isrc.gp1.models.PerGame
PerGame
p193
(dp194
g8
S'0.4'
p195
sg10
S'0.8'
p196
sg12
S'.333'
p197
sS'_effectiveFieldGalPercentage'
p198
S'.375'
p199
sg14
S'0.2'
p200
sg16
S'.500'
p201
sg18
S'0.4'
p202
sg19
S'4.2'
p203
sg21
S'SG'
p204
sg23
S'.750'
p205
sg27
S'ABA'
p206
sg29
S'0.2'
p207
sg32
S'1.0'
p208
sS'_fieldGoalsttempted'
p209
S'4.8'
p210
sg34
S'0.8'
p211
sg35
S'1.0'
p212
sg36
S'24'
p213
sg38
S'UTS'
p214
sg40
g33
sg41
S'0.0'
p215
sg43
S'1.2'
p216
sg45
S'0.6'
p217
sg47
S'4.0'
p218
sg49
S'0.6'
p219
sg50
S'1974-75'
p220
sg52
S'1.6'
p221
sg54
S'2.0'
p222
sg56
S'.300'
p223
sg58
S'8.8'
p224
sg60
g3
sbsS'_weight'
p225
S'205'
p226
sS'_dob'
p227
S'5-5-1950'
p228
sS'_salary'
p229
(lp230
sg21
S'G'
p231
sb.