(isrc.gp1.models.Player
Player
p0
(dp1
S'_experience'
p2
S'NA'
p3
sS'_totals'
p4
(lp5
(isrc.gp1.models.Totals
Totals
p6
(dp7
S'_offensiveRebounds'
p8
S'34'
p9
sS'_threePointsAttempted'
p10
S'0'
p11
sS'_fieldGoalsPercentage'
p12
S'.406'
p13
sS'_assist'
p14
S'3'
p15
sS'_threePointsPercentage'
p16
S'13'
p17
sS'_threePoints'
p18
g11
sS'_points'
p19
g3
sS'_position'
p20
S'C'
p21
sS'_freeThrowsPercentage'
p22
S'21'
p23
sS'_effectiveFieldGoalPercentage'
p24
S'13'
p25
sS'_league'
p26
S'NBA'
p27
sS'_steals'
p28
S'16'
p29
sS'_fieldGoalsAttempted'
p30
S'32'
p31
sS'_personalFouls'
p32
S'39'
p33
sS'_freeThrowsAttempted'
p34
S'.520'
p35
sS'_totalRebounds'
p36
S'4'
p37
sS'_age'
p38
S'23'
p39
sS'_team'
p40
S'POR'
p41
sS'_games'
p42
S'33'
p43
sS'_blocks'
p44
S'14'
p45
sS'_twoPoints'
p46
S'32'
p47
sS'_freeThrows'
p48
S'25'
p49
sS'_twoPointsAttempted'
p50
S'.406'
p51
sS'_defensiveRebounds'
p52
S'55'
p53
sS'_season'
p54
S'2001-02'
p55
sS'_fieldGoals'
p56
S'13'
p57
sS'_turnOvers'
p58
S'38'
p59
sS'_twoPointsPercentage'
p60
S'.406'
p61
sS'_minutesPlayed'
p62
S'245'
p63
sS'_gamesStarted'
p64
S'1'
p65
sba(isrc.gp1.models.Totals
Totals
p66
(dp67
g8
g65
sg10
g11
sg12
S'.000'
p68
sg14
g11
sg16
g11
sg18
g11
sg19
g3
sg20
g21
sg22
g11
sg24
g11
sg26
S'NBA'
p69
sg28
g11
sg30
g65
sg32
g3
sg34
g65
sg36
g65
sg38
S'24'
p70
sg40
S'POR'
p71
sg42
S'2'
p72
sg44
g11
sg46
g65
sg48
g11
sg50
S'.000'
p73
sg52
g65
sg54
S'2002-03'
p74
sg56
g11
sg58
g11
sg60
S'.000'
p75
sg62
S'5'
p76
sg64
g11
sba(isrc.gp1.models.Totals
Totals
p77
(dp78
g8
g65
sg10
g11
sg12
S'.200'
p79
sg14
g11
sg16
g65
sg18
g11
sg19
g3
sg20
g21
sg22
g11
sg24
g72
sg26
S'NBA'
p80
sg28
g65
sg30
g76
sg32
g37
sg34
S'1.000'
p81
sg36
g65
sg38
S'25'
p82
sg40
S'POR'
p83
sg42
S'9'
p84
sg44
g11
sg46
g76
sg48
g72
sg50
S'.200'
p85
sg52
g65
sg54
S'2003-04'
p86
sg56
g65
sg58
g72
sg60
S'.200'
p87
sg62
S'26'
p88
sg64
g11
sbasS'_college'
p89
S'Georgetown University'
p90
sS'_toYear'
p91
S'2004'
p92
sS'_height'
p93
S'7-0'
p94
sS'_active'
p95
I00
sS'_shootingHand'
p96
VRight
p97
sS'_name'
p98
S'Ruben Boumtje-Boumtje'
p99
sS'_per100Possessions'
p100
(lp101
(isrc.gp1.models.Per100Possession
Per100Possession
p102
(dp103
g8
S'7.5'
p104
sg10
S'0.0'
p105
sg12
S'.406'
p106
sS'_offensiveRating'
p107
S'103'
p108
sg14
S'0.7'
p109
sg16
S'2.9'
p110
sg18
S'0.0'
p111
sg19
S'88'
p112
sg20
g21
sS'_defensiveRating'
p113
g3
sg22
S'4.6'
p114
sg26
S'NBA'
p115
sg28
S'3.5'
p116
sg30
S'7.0'
p117
sg32
S'8.6'
p118
sg34
S'.520'
p119
sg36
S'0.9'
p120
sg38
S'23'
p121
sg40
S'POR'
p122
sg42
S'33'
p123
sg44
S'3.1'
p124
sg46
S'7.0'
p125
sg48
S'5.5'
p126
sg50
S'.406'
p127
sg52
S'12.1'
p128
sg54
S'2001-02'
p129
sg56
S'2.9'
p130
sg58
S'8.3'
p131
sg60
S'2.9'
p132
sg62
S'245'
p133
sg64
g65
sba(isrc.gp1.models.Per100Possession
Per100Possession
p134
(dp135
g8
S'10.7'
p136
sg10
S'0.0'
p137
sg12
S'.000'
p138
sg107
g3
sg14
S'0.0'
p139
sg16
S'0.0'
p140
sg18
S'0.0'
p141
sg19
S'90'
p142
sg20
g21
sg113
g3
sg22
S'0.0'
p143
sg26
S'NBA'
p144
sg28
S'0.0'
p145
sg30
S'10.7'
p146
sg32
S'90'
p147
sg34
S'10.7'
p148
sg36
S'10.7'
p149
sg38
S'24'
p150
sg40
S'POR'
p151
sg42
g72
sg44
S'0.0'
p152
sg46
S'10.7'
p153
sg48
S'0.0'
p154
sg50
S'.000'
p155
sg52
S'10.7'
p156
sg54
S'2002-03'
p157
sg56
S'0.0'
p158
sg58
S'0.0'
p159
sg60
S'0.0'
p160
sg62
g76
sg64
g11
sba(isrc.gp1.models.Per100Possession
Per100Possession
p161
(dp162
g8
S'2.1'
p163
sg10
S'0.0'
p164
sg12
S'.200'
p165
sg107
S'111'
p166
sg14
S'0.0'
p167
sg16
S'2.1'
p168
sg18
S'0.0'
p169
sg19
S'90'
p170
sg20
g21
sg113
g3
sg22
S'0.0'
p171
sg26
S'NBA'
p172
sg28
S'2.1'
p173
sg30
S'10.7'
p174
sg32
S'8.6'
p175
sg34
S'1.000'
p176
sg36
S'2.1'
p177
sg38
S'25'
p178
sg40
S'POR'
p179
sg42
g84
sg44
S'0.0'
p180
sg46
S'10.7'
p181
sg48
S'4.3'
p182
sg50
S'.200'
p183
sg52
S'2.1'
p184
sg54
S'2003-04'
p185
sg56
S'2.1'
p186
sg58
S'4.3'
p187
sg60
S'4.3'
p188
sg62
S'26'
p189
sg64
g11
sbasS'_advanced'
p190
(lp191
(isrc.gp1.models.Advanced
Advanced
p192
(dp193
S'_offensiveReboundPercentage'
p194
S'10.0'
p195
sS'_turnOverPercentage'
p196
S'24.6'
p197
sS'_winSharesPer48Minutes'
p198
S'.030'
p199
sS'_stealPercentage'
p200
S'0.7'
p201
sS'_usagePercentage'
p202
S'10.6'
p203
sS'_totalReboundsPercentage'
p204
S'13.2'
p205
sS'_defensiveBoxPlusMinus'
p206
S'1.4'
p207
sg20
g21
sS'_valueOverReplacementPlayer'
p208
S'-0.1'
p209
sS'_trueShootingPercentage'
p210
S'.453'
p211
sS'_defensiveReboundPercentage'
p212
S'16.5'
p213
sS'_freeThrowsAttempRate'
p214
S'.781'
p215
sS'_threePointsAttempRate'
p216
S'.000'
p217
sg26
S'NBA'
p218
sS'_offensiveBoxPlusMinues'
p219
S'-5.8'
p220
sS'_assistPercentage'
p221
S'2.3'
p222
sS'_defensiveWinShares'
p223
S'0.3'
p224
sg38
S'23'
p225
sg40
S'POR'
p226
sg42
S'33'
p227
sS'_blockPercentage'
p228
S'5.0'
p229
sS'_playerEfficiencyRating'
p230
S'6.5'
p231
sS'_offensiveWinShares'
p232
S'-0.1'
p233
sg62
S'245'
p234
sS'_boxPlusMinus'
p235
S'-4.3'
p236
sg54
S'2001-02'
p237
sS'_winShares'
p238
S'0.2'
p239
sba(isrc.gp1.models.Advanced
Advanced
p240
(dp241
g194
S'24.2'
p242
sg196
S'0.0'
p243
sg198
S'.114'
p244
sg200
S'10.7'
p245
sg202
S'9.2'
p246
sg204
S'12.1'
p247
sg206
S'8.0'
p248
sg20
g21
sg208
S'0.0'
p249
sg210
S'.000'
p250
sg212
S'0.0'
p251
sg214
S'.000'
p252
sg216
S'.000'
p253
sg26
S'NBA'
p254
sg219
S'1.8'
p255
sg221
S'26.6'
p256
sg223
S'0.0'
p257
sg38
S'24'
p258
sg40
S'POR'
p259
sg42
g72
sg228
S'0.0'
p260
sg230
S'18.4'
p261
sg232
S'0.0'
p262
sg62
g76
sg235
S'9.8'
p263
sg54
S'2002-03'
p264
sg238
S'0.0'
p265
sba(isrc.gp1.models.Advanced
Advanced
p266
(dp267
g194
S'0.0'
p268
sg196
S'0.0'
p269
sg198
S'-0.014'
p270
sg200
S'0.0'
p271
sg202
S'10.7'
p272
sg204
S'2.3'
p273
sg206
S'-2.1'
p274
sg20
g21
sg208
S'0.0'
p275
sg210
S'.340'
p276
sg212
S'4.5'
p277
sg214
S'.400'
p278
sg216
S'.000'
p279
sg26
S'NBA'
p280
sg219
S'-6.7'
p281
sg221
S'5.6'
p282
sg223
S'0.0'
p283
sg38
S'25'
p284
sg40
S'POR'
p285
sg42
g84
sg228
S'2.9'
p286
sg230
S'3.4'
p287
sg232
S'0.0'
p288
sg62
S'26'
p289
sg235
S'-8.8'
p290
sg54
S'2003-04'
p291
sg238
S'0.0'
p292
sbasS'_per36Minutes'
p293
(lp294
(isrc.gp1.models.Per36Minutes
Per36Minutes
p295
(dp296
g8
S'5.0'
p297
sg10
S'0.0'
p298
sg12
S'.406'
p299
sg14
S'0.4'
p300
sg16
S'1.9'
p301
sg18
S'0.0'
p302
sg19
g3
sg20
g21
sg22
S'3.1'
p303
sg26
S'NBA'
p304
sg28
S'2.4'
p305
sg30
S'4.7'
p306
sg32
S'5.7'
p307
sg34
S'.520'
p308
sg36
S'0.6'
p309
sg38
S'23'
p310
sg40
S'POR'
p311
sg42
S'33'
p312
sg44
S'2.1'
p313
sg46
S'4.7'
p314
sg48
S'3.7'
p315
sg50
S'.406'
p316
sg52
S'8.1'
p317
sg54
S'2001-02'
p318
sg56
S'1.9'
p319
sg58
S'5.6'
p320
sg60
S'1.9'
p321
sg62
S'245'
p322
sg64
g65
sba(isrc.gp1.models.Per36Minutes
Per36Minutes
p323
(dp324
g8
S'7.2'
p325
sg10
S'0.0'
p326
sg12
S'.000'
p327
sg14
S'0.0'
p328
sg16
S'0.0'
p329
sg18
S'0.0'
p330
sg19
g3
sg20
g21
sg22
S'0.0'
p331
sg26
S'NBA'
p332
sg28
S'0.0'
p333
sg30
S'7.2'
p334
sg32
g3
sg34
S'7.2'
p335
sg36
S'7.2'
p336
sg38
S'24'
p337
sg40
S'POR'
p338
sg42
g72
sg44
S'0.0'
p339
sg46
S'7.2'
p340
sg48
S'0.0'
p341
sg50
S'.000'
p342
sg52
S'7.2'
p343
sg54
S'2002-03'
p344
sg56
S'0.0'
p345
sg58
S'0.0'
p346
sg60
S'0.0'
p347
sg62
g76
sg64
g11
sba(isrc.gp1.models.Per36Minutes
Per36Minutes
p348
(dp349
g8
S'1.4'
p350
sg10
S'0.0'
p351
sg12
S'.200'
p352
sg14
S'0.0'
p353
sg16
S'1.4'
p354
sg18
S'0.0'
p355
sg19
g3
sg20
g21
sg22
S'0.0'
p356
sg26
S'NBA'
p357
sg28
S'1.4'
p358
sg30
S'6.9'
p359
sg32
S'5.5'
p360
sg34
S'1.000'
p361
sg36
S'1.4'
p362
sg38
S'25'
p363
sg40
S'POR'
p364
sg42
g84
sg44
S'0.0'
p365
sg46
S'6.9'
p366
sg48
S'2.8'
p367
sg50
S'.200'
p368
sg52
S'1.4'
p369
sg54
S'2003-04'
p370
sg56
S'1.4'
p371
sg58
S'2.8'
p372
sg60
S'2.8'
p373
sg62
S'26'
p374
sg64
g11
sbasS'_fromYear'
p375
S'2002'
p376
sS'_url'
p377
S'http://www.basketball-reference.com/players/b/boumtru01.html'
p378
sS'_perGame'
p379
(isrc.gp1.models.PerGame
PerGame
p380
(dp381
g8
S'0.1'
p382
sg10
S'0.0'
p383
sg12
S'.200'
p384
sS'_effectiveFieldGalPercentage'
p385
S'0.2'
p386
sg14
S'0.0'
p387
sg16
S'0.1'
p388
sg18
S'0.0'
p389
sg19
g3
sg20
g21
sg22
S'0.0'
p390
sg26
S'NBA'
p391
sg28
S'0.1'
p392
sg32
S'0.4'
p393
sS'_fieldGoalsttempted'
p394
S'0.6'
p395
sg34
S'1.000'
p396
sg36
S'0.1'
p397
sg38
S'25'
p398
sg40
S'POR'
p399
sg42
g84
sg44
S'0.0'
p400
sg46
S'0.6'
p401
sg48
S'0.2'
p402
sg50
S'.200'
p403
sg52
S'0.1'
p404
sg54
S'2003-04'
p405
sg56
S'0.1'
p406
sg58
S'0.2'
p407
sg60
S'.200'
p408
sg62
S'2.9'
p409
sg64
g11
sbsS'_weight'
p410
S'257'
p411
sS'_dob'
p412
S'20-5-1978'
p413
sS'_salary'
p414
(lp415
(isrc.gp1.models.Salary
Salary
p416
(dp417
g40
S'Portland Trail Blazers'
p418
sg26
S'NBA'
p419
sg414
S'$332,817'
p420
sg54
S'2001-02'
p421
sba(isrc.gp1.models.Salary
Salary
p422
(dp423
g40
S'Portland Trail Blazers'
p424
sg26
S'NBA'
p425
sg414
S'$512,435'
p426
sg54
S'2002-03'
p427
sba(isrc.gp1.models.Salary
Salary
p428
(dp429
g40
S'Portland Trail Blazers'
p430
sg26
S'NBA'
p431
sg414
S'$663,679'
p432
sg54
S'2003-04'
p433
sbasg20
g21
sb.