(isrc.gp1.models.Player
Player
p0
(dp1
S'_experience'
p2
S'NA'
p3
sS'_totals'
p4
(lp5
(isrc.gp1.models.Totals
Totals
p6
(dp7
S'_offensiveRebounds'
p8
S'12'
p9
sS'_threePointsAttempted'
p10
S'216'
p11
sS'_fieldGoalsPercentage'
p12
S'.415'
p13
sS'_assist'
p14
S'75'
p15
sS'_threePointsPercentage'
p16
S'.380'
p17
sS'_threePoints'
p18
S'82'
p19
sS'_points'
p20
S'589'
p21
sS'_position'
p22
S'SG'
p23
sS'_freeThrowsPercentage'
p24
S'.900'
p25
sS'_effectiveFieldGoalPercentage'
p26
S'.498'
p27
sS'_league'
p28
S'NBA'
p29
sS'_steals'
p30
S'27'
p31
sS'_fieldGoalsAttempted'
p32
S'492'
p33
sS'_personalFouls'
p34
S'118'
p35
sS'_freeThrowsAttempted'
p36
S'110'
p37
sS'_totalRebounds'
p38
S'116'
p39
sS'_age'
p40
S'23'
p41
sS'_team'
p42
S'ATL'
p43
sS'_games'
p44
S'61'
p45
sS'_blocks'
p46
S'3'
p47
sS'_twoPoints'
p48
S'122'
p49
sS'_freeThrows'
p50
S'99'
p51
sS'_twoPointsAttempted'
p52
S'276'
p53
sS'_defensiveRebounds'
p54
S'104'
p55
sS'_season'
p56
S'2005-06'
p57
sS'_fieldGoals'
p58
S'204'
p59
sS'_turnOvers'
p60
S'82'
p61
sS'_twoPointsPercentage'
p62
S'.442'
p63
sS'_minutesPlayed'
p64
S'1236'
p65
sS'_gamesStarted'
p66
S'1'
p67
sba(isrc.gp1.models.Totals
Totals
p68
(dp69
g8
S'6'
p70
sg10
S'155'
p71
sg12
S'.416'
p72
sg14
S'61'
p73
sg16
S'.361'
p74
sg18
S'56'
p75
sg20
S'471'
p76
sg22
S'SG'
p77
sg24
S'.897'
p78
sg26
S'.482'
p79
sg28
S'NBA'
p80
sg30
S'21'
p81
sg32
S'425'
p82
sg34
S'88'
p83
sg36
S'68'
p84
sg38
S'74'
p85
sg40
S'24'
p86
sg42
S'ATL'
p87
sg44
S'61'
p88
sg46
S'2'
p89
sg48
S'121'
p90
sg50
S'61'
p91
sg52
S'270'
p92
sg54
S'68'
p93
sg56
S'2006-07'
p94
sg58
S'177'
p95
sg60
S'55'
p96
sg62
S'.448'
p97
sg64
S'1034'
p98
sg66
S'0'
p99
sba(isrc.gp1.models.Totals
Totals
p100
(dp101
g8
S'4'
p102
sg10
S'85'
p103
sg12
S'.361'
p104
sg14
S'28'
p105
sg16
S'.341'
p106
sg18
S'29'
p107
sg20
S'200'
p108
sg22
S'PG'
p109
sg24
S'.820'
p110
sg26
S'.442'
p111
sg28
S'NBA'
p112
sg30
S'7'
p113
sg32
S'180'
p114
sg34
S'34'
p115
sg36
S'50'
p116
sg38
S'24'
p117
sg40
S'25'
p118
sg42
S'ATL'
p119
sg44
S'35'
p120
sg46
S'5'
p121
sg48
S'36'
p122
sg50
S'41'
p123
sg52
S'95'
p124
sg54
S'20'
p125
sg56
S'2007-08'
p126
sg58
S'65'
p127
sg60
S'21'
p128
sg62
S'.379'
p129
sg64
S'402'
p130
sg66
g99
sbasS'_college'
p131
S'University of Arizona'
p132
sS'_toYear'
p133
S'2008'
p134
sS'_height'
p135
S'6-1'
p136
sS'_active'
p137
I00
sS'_shootingHand'
p138
VLeft
p139
sS'_name'
p140
S'Salim Stoudamire'
p141
sS'_per100Possessions'
p142
(lp143
(isrc.gp1.models.Per100Possession
Per100Possession
p144
(dp145
g8
S'0.5'
p146
sg10
S'9.3'
p147
sg12
S'.415'
p148
sS'_offensiveRating'
p149
S'105'
p150
sg14
S'3.2'
p151
sg16
S'.380'
p152
sg18
S'3.5'
p153
sg20
S'25.3'
p154
sg22
S'SG'
p155
sS'_defensiveRating'
p156
S'114'
p157
sg24
S'.900'
p158
sg28
S'NBA'
p159
sg30
S'1.2'
p160
sg32
S'21.1'
p161
sg34
S'5.1'
p162
sg36
S'4.7'
p163
sg38
S'5.0'
p164
sg40
S'23'
p165
sg42
S'ATL'
p166
sg44
S'61'
p167
sg46
S'0.1'
p168
sg48
S'5.2'
p169
sg50
S'4.3'
p170
sg52
S'11.9'
p171
sg54
S'4.5'
p172
sg56
S'2005-06'
p173
sg58
S'8.8'
p174
sg60
S'3.5'
p175
sg62
S'.442'
p176
sg64
S'1236'
p177
sg66
g67
sba(isrc.gp1.models.Per100Possession
Per100Possession
p178
(dp179
g8
S'0.3'
p180
sg10
S'8.0'
p181
sg12
S'.416'
p182
sg149
S'101'
p183
sg14
S'3.1'
p184
sg16
S'.361'
p185
sg18
S'2.9'
p186
sg20
S'24.3'
p187
sg22
S'SG'
p188
sg156
S'112'
p189
sg24
S'.897'
p190
sg28
S'NBA'
p191
sg30
S'1.1'
p192
sg32
S'21.9'
p193
sg34
S'4.5'
p194
sg36
S'3.5'
p195
sg38
S'3.8'
p196
sg40
S'24'
p197
sg42
S'ATL'
p198
sg44
S'61'
p199
sg46
S'0.1'
p200
sg48
S'6.2'
p201
sg50
S'3.1'
p202
sg52
S'13.9'
p203
sg54
S'3.5'
p204
sg56
S'2006-07'
p205
sg58
S'9.1'
p206
sg60
S'2.8'
p207
sg62
S'.448'
p208
sg64
S'1034'
p209
sg66
g99
sba(isrc.gp1.models.Per100Possession
Per100Possession
p210
(dp211
g8
S'0.5'
p212
sg10
S'11.1'
p213
sg12
S'.361'
p214
sg149
S'101'
p215
sg14
S'3.7'
p216
sg16
S'.341'
p217
sg18
S'3.8'
p218
sg20
S'26.2'
p219
sg22
S'PG'
p220
sg156
S'114'
p221
sg24
S'.820'
p222
sg28
S'NBA'
p223
sg30
S'0.9'
p224
sg32
S'23.6'
p225
sg34
S'4.5'
p226
sg36
S'6.6'
p227
sg38
S'3.1'
p228
sg40
S'25'
p229
sg42
S'ATL'
p230
sg44
S'35'
p231
sg46
S'0.7'
p232
sg48
S'4.7'
p233
sg50
S'5.4'
p234
sg52
S'12.5'
p235
sg54
S'2.6'
p236
sg56
S'2007-08'
p237
sg58
S'8.5'
p238
sg60
S'2.8'
p239
sg62
S'.379'
p240
sg64
S'402'
p241
sg66
g99
sbasS'_advanced'
p242
(lp243
(isrc.gp1.models.Advanced
Advanced
p244
(dp245
S'_offensiveReboundPercentage'
p246
S'1.1'
p247
sS'_turnOverPercentage'
p248
S'13.2'
p249
sS'_winSharesPer48Minutes'
p250
S'.046'
p251
sS'_stealPercentage'
p252
S'1.2'
p253
sS'_usagePercentage'
p254
S'22.9'
p255
sS'_totalReboundsPercentage'
p256
S'5.6'
p257
sS'_defensiveBoxPlusMinus'
p258
S'-4.3'
p259
sg22
S'SG'
p260
sS'_valueOverReplacementPlayer'
p261
S'-0.8'
p262
sS'_trueShootingPercentage'
p263
S'.545'
p264
sS'_defensiveReboundPercentage'
p265
S'10.4'
p266
sS'_freeThrowsAttempRate'
p267
S'.224'
p268
sS'_threePointsAttempRate'
p269
S'.439'
p270
sg28
S'NBA'
p271
sS'_offensiveBoxPlusMinues'
p272
S'-0.2'
p273
sS'_assistPercentage'
p274
S'10.5'
p275
sS'_defensiveWinShares'
p276
S'0.0'
p277
sg40
S'23'
p278
sg42
S'ATL'
p279
sg44
S'61'
p280
sS'_blockPercentage'
p281
S'0.2'
p282
sS'_playerEfficiencyRating'
p283
S'12.5'
p284
sS'_offensiveWinShares'
p285
S'1.1'
p286
sg64
S'1236'
p287
sS'_boxPlusMinus'
p288
S'-4.5'
p289
sg56
S'2005-06'
p290
sS'_winShares'
p291
S'1.2'
p292
sba(isrc.gp1.models.Advanced
Advanced
p293
(dp294
g246
S'0.7'
p295
sg248
S'10.8'
p296
sg250
S'.036'
p297
sg252
S'1.1'
p298
sg254
S'22.7'
p299
sg256
S'4.3'
p300
sg258
S'-4.2'
p301
sg22
S'SG'
p302
sg261
S'-0.9'
p303
sg263
S'.518'
p304
sg265
S'8.0'
p305
sg267
S'.160'
p306
sg269
S'.365'
p307
sg28
S'NBA'
p308
sg272
S'-1.2'
p309
sg274
S'10.9'
p310
sg276
S'0.3'
p311
sg40
S'24'
p312
sg42
S'ATL'
p313
sg44
S'61'
p314
sg281
S'0.2'
p315
sg283
S'11.4'
p316
sg285
S'0.5'
p317
sg64
S'1034'
p318
sg288
S'-5.4'
p319
sg56
S'2006-07'
p320
sg291
S'0.8'
p321
sba(isrc.gp1.models.Advanced
Advanced
p322
(dp323
g246
S'1.2'
p324
sg248
S'9.4'
p325
sg250
S'.031'
p326
sg252
S'0.9'
p327
sg254
S'25.2'
p328
sg256
S'3.5'
p329
sg258
S'-5.0'
p330
sg22
S'PG'
p331
sg261
S'-0.4'
p332
sg263
S'.495'
p333
sg265
S'5.8'
p334
sg267
S'.278'
p335
sg269
S'.472'
p336
sg28
S'NBA'
p337
sg272
S'-1.2'
p338
sg274
S'11.9'
p339
sg276
S'0.1'
p340
sg40
S'25'
p341
sg42
S'ATL'
p342
sg44
S'35'
p343
sg281
S'0.9'
p344
sg283
S'11.1'
p345
sg285
S'0.1'
p346
sg64
S'402'
p347
sg288
S'-6.2'
p348
sg56
S'2007-08'
p349
sg291
S'0.3'
p350
sbasS'_per36Minutes'
p351
(lp352
(isrc.gp1.models.Per36Minutes
Per36Minutes
p353
(dp354
g8
S'0.3'
p355
sg10
S'6.3'
p356
sg12
S'.415'
p357
sg14
S'2.2'
p358
sg16
S'.380'
p359
sg18
S'2.4'
p360
sg20
S'17.2'
p361
sg22
S'SG'
p362
sg24
S'.900'
p363
sg28
S'NBA'
p364
sg30
S'0.8'
p365
sg32
S'14.3'
p366
sg34
S'3.4'
p367
sg36
S'3.2'
p368
sg38
S'3.4'
p369
sg40
S'23'
p370
sg42
S'ATL'
p371
sg44
S'61'
p372
sg46
S'0.1'
p373
sg48
S'3.6'
p374
sg50
S'2.9'
p375
sg52
S'8.0'
p376
sg54
S'3.0'
p377
sg56
S'2005-06'
p378
sg58
S'5.9'
p379
sg60
S'2.4'
p380
sg62
S'.442'
p381
sg64
S'1236'
p382
sg66
g67
sba(isrc.gp1.models.Per36Minutes
Per36Minutes
p383
(dp384
g8
S'0.2'
p385
sg10
S'5.4'
p386
sg12
S'.416'
p387
sg14
S'2.1'
p388
sg16
S'.361'
p389
sg18
S'1.9'
p390
sg20
S'16.4'
p391
sg22
S'SG'
p392
sg24
S'.897'
p393
sg28
S'NBA'
p394
sg30
S'0.7'
p395
sg32
S'14.8'
p396
sg34
S'3.1'
p397
sg36
S'2.4'
p398
sg38
S'2.6'
p399
sg40
S'24'
p400
sg42
S'ATL'
p401
sg44
S'61'
p402
sg46
S'0.1'
p403
sg48
S'4.2'
p404
sg50
S'2.1'
p405
sg52
S'9.4'
p406
sg54
S'2.4'
p407
sg56
S'2006-07'
p408
sg58
S'6.2'
p409
sg60
S'1.9'
p410
sg62
S'.448'
p411
sg64
S'1034'
p412
sg66
g99
sba(isrc.gp1.models.Per36Minutes
Per36Minutes
p413
(dp414
g8
S'0.4'
p415
sg10
S'7.6'
p416
sg12
S'.361'
p417
sg14
S'2.5'
p418
sg16
S'.341'
p419
sg18
S'2.6'
p420
sg20
S'17.9'
p421
sg22
S'PG'
p422
sg24
S'.820'
p423
sg28
S'NBA'
p424
sg30
S'0.6'
p425
sg32
S'16.1'
p426
sg34
S'3.0'
p427
sg36
S'4.5'
p428
sg38
S'2.1'
p429
sg40
S'25'
p430
sg42
S'ATL'
p431
sg44
S'35'
p432
sg46
S'0.4'
p433
sg48
S'3.2'
p434
sg50
S'3.7'
p435
sg52
S'8.5'
p436
sg54
S'1.8'
p437
sg56
S'2007-08'
p438
sg58
S'5.8'
p439
sg60
S'1.9'
p440
sg62
S'.379'
p441
sg64
S'402'
p442
sg66
g99
sbasS'_fromYear'
p443
S'2006'
p444
sS'_url'
p445
S'http://www.basketball-reference.com/players/s/stoudsa01.html'
p446
sS'_perGame'
p447
(isrc.gp1.models.PerGame
PerGame
p448
(dp449
g8
S'0.1'
p450
sg10
S'2.4'
p451
sg12
S'.361'
p452
sS'_effectiveFieldGalPercentage'
p453
S'.442'
p454
sg14
S'0.8'
p455
sg16
S'.341'
p456
sg18
S'0.8'
p457
sg20
S'5.7'
p458
sg22
S'PG'
p459
sg24
S'.820'
p460
sg28
S'NBA'
p461
sg30
S'0.2'
p462
sg34
S'1.0'
p463
sS'_fieldGoalsttempted'
p464
S'5.1'
p465
sg36
S'1.4'
p466
sg38
S'0.7'
p467
sg40
S'25'
p468
sg42
S'ATL'
p469
sg44
S'35'
p470
sg46
S'0.1'
p471
sg48
S'1.0'
p472
sg50
S'1.2'
p473
sg52
S'2.7'
p474
sg54
S'0.6'
p475
sg56
S'2007-08'
p476
sg58
S'1.9'
p477
sg60
S'0.6'
p478
sg62
S'.379'
p479
sg64
S'11.5'
p480
sg66
g99
sbsS'_weight'
p481
S'179'
p482
sS'_dob'
p483
S'11-10-1982'
p484
sS'_salary'
p485
(lp486
(isrc.gp1.models.Salary
Salary
p487
(dp488
g42
S'Atlanta Hawks'
p489
sg28
S'NBA'
p490
sg485
S'$675,000'
p491
sg56
S'2005-06'
p492
sba(isrc.gp1.models.Salary
Salary
p493
(dp494
g42
S'Atlanta Hawks'
p495
sg28
S'NBA'
p496
sg485
S'$729,000'
p497
sg56
S'2006-07'
p498
sba(isrc.gp1.models.Salary
Salary
p499
(dp500
g42
S'Atlanta Hawks'
p501
sg28
S'NBA'
p502
sg485
S'$783,000'
p503
sg56
S'2007-08'
p504
sbasg22
S'G'
p505
sb.