(isrc.gp1.models.Player
Player
p0
(dp1
S'_experience'
p2
S'NA'
p3
sS'_totals'
p4
(lp5
(isrc.gp1.models.Totals
Totals
p6
(dp7
S'_offensiveRebounds'
p8
S'22'
p9
sS'_threePointsAttempted'
p10
S'0'
p11
sS'_fieldGoalsPercentage'
p12
S'.375'
p13
sS'_assist'
p14
S'1'
p15
sS'_threePointsPercentage'
p16
g3
sS'_threePoints'
p17
g11
sS'_points'
p18
S'46'
p19
sS'_position'
p20
S'C'
p21
sS'_freeThrowsPercentage'
p22
S'.417'
p23
sS'_effectiveFieldGoalPercentage'
p24
S'.375'
p25
sS'_league'
p26
S'NBA'
p27
sS'_steals'
p28
S'2'
p29
sS'_fieldGoalsAttempted'
p30
S'48'
p31
sS'_personalFouls'
p32
S'23'
p33
sS'_freeThrowsAttempted'
p34
S'24'
p35
sS'_totalRebounds'
p36
S'53'
p37
sS'_age'
p38
S'22'
p39
sS'_team'
p40
S'NJN'
p41
sS'_games'
p42
S'34'
p43
sS'_blocks'
p44
S'14'
p45
sS'_twoPoints'
p46
S'18'
p47
sS'_freeThrows'
p48
S'10'
p49
sS'_twoPointsAttempted'
p50
S'48'
p51
sS'_defensiveRebounds'
p52
S'31'
p53
sS'_season'
p54
S'2000-01'
p55
sS'_fieldGoals'
p56
S'18'
p57
sS'_turnOvers'
p58
S'4'
p59
sS'_twoPointsPercentage'
p60
S'.375'
p61
sS'_minutesPlayed'
p62
S'226'
p63
sS'_gamesStarted'
p64
g11
sba(isrc.gp1.models.Totals
Totals
p65
(dp66
g8
g3
sg10
g3
sg12
g3
sg14
g3
sg16
g3
sg17
g3
sg18
g3
sg20
g3
sg22
g3
sg24
g3
sg26
g3
sg28
g3
sg30
g3
sg32
g3
sg34
g3
sg36
g3
sg38
S'23'
p67
sg40
S'Did Not Play\xc2\xa0(other pro league\xe2\x80\x94Italy)'
p68
sg42
g3
sg44
g3
sg46
g3
sg48
g3
sg50
g3
sg52
g3
sg54
S'2001-02'
p69
sg56
g3
sg58
g3
sg60
g3
sg62
g3
sg64
g3
sba(isrc.gp1.models.Totals
Totals
p70
(dp71
g8
S'10'
p72
sg10
g11
sg12
S'.417'
p73
sg14
g59
sg16
g3
sg17
g11
sg18
S'22'
p74
sg20
g21
sg22
S'1.000'
p75
sg24
S'.417'
p76
sg26
S'NBA'
p77
sg28
g11
sg30
S'24'
p78
sg32
S'13'
p79
sg34
g29
sg36
S'23'
p80
sg38
S'24'
p81
sg40
S'LAL'
p82
sg42
S'13'
p83
sg44
S'5'
p84
sg46
S'10'
p85
sg48
g29
sg50
S'24'
p86
sg52
S'13'
p87
sg54
S'2002-03'
p88
sg56
S'10'
p89
sg58
g29
sg60
S'.417'
p90
sg62
S'77'
p91
sg64
g15
sbasS'_college'
p92
S'NA'
p93
sS'_toYear'
p94
S'2003'
p95
sS'_height'
p96
S'7-0'
p97
sS'_active'
p98
I00
sS'_shootingHand'
p99
VRight
p100
sS'_name'
p101
S'Soumaila Samake'
p102
sS'_per100Possessions'
p103
(lp104
(isrc.gp1.models.Per100Possession
Per100Possession
p105
(dp106
g8
S'5.1'
p107
sg10
S'0.0'
p108
sg12
S'.375'
p109
sS'_offensiveRating'
p110
S'93'
p111
sg14
S'0.2'
p112
sg16
g3
sg17
S'0.0'
p113
sg18
S'10.6'
p114
sg20
g21
sS'_defensiveRating'
p115
S'106'
p116
sg22
S'.417'
p117
sg26
S'NBA'
p118
sg28
S'0.5'
p119
sg30
S'11.1'
p120
sg32
S'5.3'
p121
sg34
S'5.6'
p122
sg36
S'12.3'
p123
sg38
S'22'
p124
sg40
S'NJN'
p125
sg42
S'34'
p126
sg44
S'3.2'
p127
sg46
S'4.2'
p128
sg48
S'2.3'
p129
sg50
S'11.1'
p130
sg52
S'7.2'
p131
sg54
S'2000-01'
p132
sg56
S'4.2'
p133
sg58
S'0.9'
p134
sg60
S'.375'
p135
sg62
S'226'
p136
sg64
g11
sba(isrc.gp1.models.Per100Possession
Per100Possession
p137
(dp138
g8
S'6.7'
p139
sg10
S'0.0'
p140
sg12
S'.417'
p141
sg110
S'107'
p142
sg14
S'2.7'
p143
sg16
g3
sg17
S'0.0'
p144
sg18
S'14.8'
p145
sg20
g21
sg115
S'105'
p146
sg22
S'1.000'
p147
sg26
S'NBA'
p148
sg28
S'0.0'
p149
sg30
S'16.2'
p150
sg32
S'8.8'
p151
sg34
S'1.3'
p152
sg36
S'15.5'
p153
sg38
S'24'
p154
sg40
S'LAL'
p155
sg42
S'13'
p156
sg44
S'3.4'
p157
sg46
S'6.7'
p158
sg48
S'1.3'
p159
sg50
S'16.2'
p160
sg52
S'8.8'
p161
sg54
S'2002-03'
p162
sg56
S'6.7'
p163
sg58
S'1.3'
p164
sg60
S'.417'
p165
sg62
S'77'
p166
sg64
g15
sbasS'_advanced'
p167
(lp168
(isrc.gp1.models.Advanced
Advanced
p169
(dp170
S'_offensiveReboundPercentage'
p171
S'10.9'
p172
sS'_turnOverPercentage'
p173
S'6.4'
p174
sS'_winSharesPer48Minutes'
p175
S'.028'
p176
sS'_stealPercentage'
p177
S'0.5'
p178
sS'_usagePercentage'
p179
S'12.6'
p180
sS'_totalReboundsPercentage'
p181
S'13.5'
p182
sS'_defensiveBoxPlusMinus'
p183
S'-1.5'
p184
sg20
g21
sS'_valueOverReplacementPlayer'
p185
S'-0.3'
p186
sS'_trueShootingPercentage'
p187
S'.393'
p188
sS'_defensiveReboundPercentage'
p189
S'16.2'
p190
sS'_freeThrowsAttempRate'
p191
S'.500'
p192
sS'_threePointsAttempRate'
p193
S'.000'
p194
sg26
S'NBA'
p195
sS'_offensiveBoxPlusMinues'
p196
S'-6.0'
p197
sS'_assistPercentage'
p198
S'0.7'
p199
sS'_defensiveWinShares'
p200
S'0.2'
p201
sg38
S'22'
p202
sg40
S'NJN'
p203
sg42
S'34'
p204
sS'_blockPercentage'
p205
S'4.6'
p206
sS'_playerEfficiencyRating'
p207
S'9.0'
p208
sS'_offensiveWinShares'
p209
S'0.0'
p210
sg62
S'226'
p211
sS'_boxPlusMinus'
p212
S'-7.5'
p213
sg54
S'2000-01'
p214
sS'_winShares'
p215
S'0.1'
p216
sba(isrc.gp1.models.Advanced
Advanced
p217
(dp218
g171
S'14.5'
p219
sg173
S'7.4'
p220
sg175
S'.102'
p221
sg177
S'0.0'
p222
sg179
S'15.5'
p223
sg181
S'16.8'
p224
sg183
S'-0.6'
p225
sg20
g21
sg185
S'0.0'
p226
sg187
S'.442'
p227
sg189
S'19.2'
p228
sg191
S'.083'
p229
sg193
S'.000'
p230
sg26
S'NBA'
p231
sg196
S'-2.7'
p232
sg198
S'8.0'
p233
sg200
S'0.1'
p234
sg38
S'24'
p235
sg40
S'LAL'
p236
sg42
S'13'
p237
sg205
S'4.7'
p238
sg207
S'12.9'
p239
sg209
S'0.1'
p240
sg62
S'77'
p241
sg212
S'-3.3'
p242
sg54
S'2002-03'
p243
sg215
S'0.2'
p244
sbasS'_per36Minutes'
p245
(lp246
(isrc.gp1.models.Per36Minutes
Per36Minutes
p247
(dp248
g8
S'3.5'
p249
sg10
S'0.0'
p250
sg12
S'.375'
p251
sg14
S'0.2'
p252
sg16
g3
sg17
S'0.0'
p253
sg18
S'7.3'
p254
sg20
g21
sg22
S'.417'
p255
sg26
S'NBA'
p256
sg28
S'0.3'
p257
sg30
S'7.6'
p258
sg32
S'3.7'
p259
sg34
S'3.8'
p260
sg36
S'8.4'
p261
sg38
S'22'
p262
sg40
S'NJN'
p263
sg42
S'34'
p264
sg44
S'2.2'
p265
sg46
S'2.9'
p266
sg48
S'1.6'
p267
sg50
S'7.6'
p268
sg52
S'4.9'
p269
sg54
S'2000-01'
p270
sg56
S'2.9'
p271
sg58
S'0.6'
p272
sg60
S'.375'
p273
sg62
S'226'
p274
sg64
g11
sba(isrc.gp1.models.Per36Minutes
Per36Minutes
p275
(dp276
g8
S'4.7'
p277
sg10
S'0.0'
p278
sg12
S'.417'
p279
sg14
S'1.9'
p280
sg16
g3
sg17
S'0.0'
p281
sg18
S'10.3'
p282
sg20
g21
sg22
S'1.000'
p283
sg26
S'NBA'
p284
sg28
S'0.0'
p285
sg30
S'11.2'
p286
sg32
S'6.1'
p287
sg34
S'0.9'
p288
sg36
S'10.8'
p289
sg38
S'24'
p290
sg40
S'LAL'
p291
sg42
S'13'
p292
sg44
S'2.3'
p293
sg46
S'4.7'
p294
sg48
S'0.9'
p295
sg50
S'11.2'
p296
sg52
S'6.1'
p297
sg54
S'2002-03'
p298
sg56
S'4.7'
p299
sg58
S'0.9'
p300
sg60
S'.417'
p301
sg62
S'77'
p302
sg64
g15
sbasS'_fromYear'
p303
S'2001'
p304
sS'_url'
p305
S'http://www.basketball-reference.com/players/s/samakso01.html'
p306
sS'_perGame'
p307
(isrc.gp1.models.PerGame
PerGame
p308
(dp309
g8
S'0.8'
p310
sg10
S'0.0'
p311
sg12
S'.417'
p312
sS'_effectiveFieldGalPercentage'
p313
S'.417'
p314
sg14
S'0.3'
p315
sg16
g3
sg17
S'0.0'
p316
sg18
S'1.7'
p317
sg20
g21
sg22
S'1.000'
p318
sg26
S'NBA'
p319
sg28
S'0.0'
p320
sg32
S'1.0'
p321
sS'_fieldGoalsttempted'
p322
S'1.8'
p323
sg34
S'0.2'
p324
sg36
S'1.8'
p325
sg38
S'24'
p326
sg40
S'LAL'
p327
sg42
S'13'
p328
sg44
S'0.4'
p329
sg46
S'0.8'
p330
sg48
S'0.2'
p331
sg50
S'1.8'
p332
sg52
S'1.0'
p333
sg54
S'2002-03'
p334
sg56
S'0.8'
p335
sg58
S'0.2'
p336
sg60
S'.417'
p337
sg62
S'5.9'
p338
sg64
g15
sbsS'_weight'
p339
S'230'
p340
sS'_dob'
p341
S'18-3-1978'
p342
sS'_salary'
p343
(lp344
(isrc.gp1.models.Salary
Salary
p345
(dp346
g40
S'New Jersey Nets'
p347
sg26
S'NBA'
p348
sg343
S'$316,969'
p349
sg54
S'2000-01'
p350
sba(isrc.gp1.models.Salary
Salary
p351
(dp352
g40
S'Chicago Bulls'
p353
sg26
S'NBA'
p354
sg343
S'$465,850'
p355
sg54
S'2001-02'
p356
sba(isrc.gp1.models.Salary
Salary
p357
(dp358
g40
S'Los Angeles Lakers'
p359
sg26
S'NBA'
p360
sg343
S'$124,984'
p361
sg54
S'2002-03'
p362
sbasg20
g21
sb.