(isrc.gp1.models.Player
Player
p0
(dp1
S'_experience'
p2
S'NA'
p3
sS'_totals'
p4
(lp5
(isrc.gp1.models.Totals
Totals
p6
(dp7
S'_offensiveRebounds'
p8
S'11'
p9
sS'_threePointsAttempted'
p10
S'0'
p11
sS'_fieldGoalsPercentage'
p12
S'.222'
p13
sS'_assist'
p14
g11
sS'_threePointsPercentage'
p15
g3
sS'_threePoints'
p16
g11
sS'_points'
p17
S'20'
p18
sS'_position'
p19
S'PF'
p20
sS'_freeThrowsPercentage'
p21
S'.706'
p22
sS'_effectiveFieldGoalPercentage'
p23
S'.222'
p24
sS'_league'
p25
S'ABA'
p26
sS'_steals'
p27
S'5'
p28
sS'_fieldGoalsAttempted'
p29
S'18'
p30
sS'_personalFouls'
p31
S'11'
p32
sS'_freeThrowsAttempted'
p33
S'17'
p34
sS'_totalRebounds'
p35
S'19'
p36
sS'_age'
p37
S'22'
p38
sS'_team'
p39
S'MMT'
p40
sS'_games'
p41
S'7'
p42
sS'_blocks'
p43
S'3'
p44
sS'_twoPoints'
p45
S'4'
p46
sS'_freeThrows'
p47
S'12'
p48
sS'_twoPointsAttempted'
p49
S'18'
p50
sS'_defensiveRebounds'
p51
S'8'
p52
sS'_season'
p53
S'1972-73'
p54
sS'_fieldGoals'
p55
g46
sS'_turnOvers'
p56
S'16'
p57
sS'_twoPointsPercentage'
p58
S'.222'
p59
sS'_minutesPlayed'
p60
S'52'
p61
sS'_gamesStarted'
p62
g3
sbasS'_college'
p63
S'University of California, Riverside'
p64
sS'_toYear'
p65
S'1973'
p66
sS'_height'
p67
S'6-8'
p68
sS'_active'
p69
I00
sS'_shootingHand'
p70
VRight
p71
sS'_name'
p72
S'Sam Cash'
p73
sS'_per100Possessions'
p74
(lp75
sS'_advanced'
p76
(lp77
(isrc.gp1.models.Advanced
Advanced
p78
(dp79
S'_offensiveReboundPercentage'
p80
S'20.0'
p81
sS'_turnOverPercentage'
p82
S'38.6'
p83
sS'_winSharesPer48Minutes'
p84
S'-0.103'
p85
sS'_stealPercentage'
p86
S'4.4'
p87
sS'_usagePercentage'
p88
S'30.9'
p89
sS'_totalReboundsPercentage'
p90
S'17.7'
p91
sS'_defensiveBoxPlusMinus'
p92
g3
sg19
S'PF'
p93
sS'_valueOverReplacementPlayer'
p94
g3
sS'_trueShootingPercentage'
p95
S'.392'
p96
sS'_defensiveReboundPercentage'
p97
S'15.3'
p98
sS'_freeThrowsAttempRate'
p99
S'.944'
p100
sS'_threePointsAttempRate'
p101
S'.000'
p102
sg25
S'ABA'
p103
sS'_offensiveBoxPlusMinues'
p104
g3
sS'_assistPercentage'
p105
S'0.0'
p106
sS'_defensiveWinShares'
p107
S'0.0'
p108
sg37
S'22'
p109
sg39
S'MMT'
p110
sg41
g42
sS'_blockPercentage'
p111
S'3.1'
p112
sS'_playerEfficiencyRating'
p113
S'3.2'
p114
sS'_offensiveWinShares'
p115
S'-0.1'
p116
sg60
S'52'
p117
sS'_boxPlusMinus'
p118
g3
sg53
S'1972-73'
p119
sS'_winShares'
p120
S'-0.1'
p121
sbasS'_per36Minutes'
p122
(lp123
(isrc.gp1.models.Per36Minutes
Per36Minutes
p124
(dp125
g8
S'7.6'
p126
sg10
S'0.0'
p127
sg12
S'.222'
p128
sg14
S'0.0'
p129
sg15
g3
sg16
S'0.0'
p130
sg17
S'13.8'
p131
sg19
S'PF'
p132
sg21
S'.706'
p133
sg25
S'ABA'
p134
sg27
S'3.5'
p135
sg29
S'12.5'
p136
sg31
S'7.6'
p137
sg33
S'11.8'
p138
sg35
S'13.2'
p139
sg37
S'22'
p140
sg39
S'MMT'
p141
sg41
g42
sg43
S'2.1'
p142
sg45
S'2.8'
p143
sg47
S'8.3'
p144
sg49
S'12.5'
p145
sg51
S'5.5'
p146
sg53
S'1972-73'
p147
sg55
S'2.8'
p148
sg56
S'11.1'
p149
sg58
S'.222'
p150
sg60
S'52'
p151
sg62
g3
sbasS'_fromYear'
p152
S'1973'
p153
sS'_url'
p154
S'http://www.basketball-reference.com/players/c/cashsa01.html'
p155
sS'_perGame'
p156
(isrc.gp1.models.PerGame
PerGame
p157
(dp158
g8
S'1.6'
p159
sg10
S'0.0'
p160
sg12
S'.222'
p161
sS'_effectiveFieldGalPercentage'
p162
S'.222'
p163
sg14
S'0.0'
p164
sg15
g3
sg16
S'0.0'
p165
sg17
S'2.9'
p166
sg19
S'PF'
p167
sg21
S'.706'
p168
sg25
S'ABA'
p169
sg27
S'0.7'
p170
sg31
S'1.6'
p171
sS'_fieldGoalsttempted'
p172
S'2.6'
p173
sg33
S'2.4'
p174
sg35
S'2.7'
p175
sg37
S'22'
p176
sg39
S'MMT'
p177
sg41
g42
sg43
S'0.4'
p178
sg45
S'0.6'
p179
sg47
S'1.7'
p180
sg49
S'2.6'
p181
sg51
S'1.1'
p182
sg53
S'1972-73'
p183
sg55
S'0.6'
p184
sg56
S'2.3'
p185
sg58
S'.222'
p186
sg60
S'7.4'
p187
sg62
g3
sbsS'_weight'
p188
S'230'
p189
sS'_dob'
p190
S'13-11-1950'
p191
sS'_salary'
p192
(lp193
sg19
S'F'
p194
sb.