(isrc.gp1.models.Player
Player
p0
(dp1
S'_experience'
p2
S'NA'
p3
sS'_totals'
p4
(lp5
(isrc.gp1.models.Totals
Totals
p6
(dp7
S'_offensiveRebounds'
p8
S'0'
p9
sS'_threePointsAttempted'
p10
S'1'
p11
sS'_fieldGoalsPercentage'
p12
S'.500'
p13
sS'_assist'
p14
S'2'
p15
sS'_threePointsPercentage'
p16
S'.000'
p17
sS'_threePoints'
p18
g9
sS'_points'
p19
S'5'
p20
sS'_position'
p21
g3
sS'_freeThrowsPercentage'
p22
S'1.000'
p23
sS'_effectiveFieldGoalPercentage'
p24
S'.500'
p25
sS'_league'
p26
S'ABA'
p27
sS'_steals'
p28
g3
sS'_fieldGoalsAttempted'
p29
S'4'
p30
sS'_personalFouls'
p31
g30
sS'_freeThrowsAttempted'
p32
g11
sS'_totalRebounds'
p33
g11
sS'_age'
p34
S'23'
p35
sS'_team'
p36
S'KEN'
p37
sS'_games'
p38
S'3'
p39
sS'_blocks'
p40
g3
sS'_twoPoints'
p41
g15
sS'_freeThrows'
p42
g11
sS'_twoPointsAttempted'
p43
g39
sS'_defensiveRebounds'
p44
g11
sS'_season'
p45
S'1969-70'
p46
sS'_fieldGoals'
p47
g15
sS'_turnOvers'
p48
g11
sS'_twoPointsPercentage'
p49
S'.667'
p50
sS'_minutesPlayed'
p51
S'11'
p52
sS'_gamesStarted'
p53
g3
sbasS'_college'
p54
S'Delta State University'
p55
sS'_toYear'
p56
S'1970'
p57
sS'_height'
p58
S'6-0'
p59
sS'_active'
p60
I00
sS'_shootingHand'
p61
VRight
p62
sS'_name'
p63
S'Samuel Little'
p64
sS'_per100Possessions'
p65
(lp66
sS'_advanced'
p67
(lp68
(isrc.gp1.models.Advanced
Advanced
p69
(dp70
S'_offensiveReboundPercentage'
p71
g3
sS'_turnOverPercentage'
p72
S'18.4'
p73
sS'_winSharesPer48Minutes'
p74
S'.168'
p75
sS'_stealPercentage'
p76
g3
sS'_usagePercentage'
p77
S'18.0'
p78
sS'_totalReboundsPercentage'
p79
S'4.0'
p80
sS'_defensiveBoxPlusMinus'
p81
g3
sg21
g3
sS'_valueOverReplacementPlayer'
p82
g3
sS'_trueShootingPercentage'
p83
S'.563'
p84
sS'_defensiveReboundPercentage'
p85
g3
sS'_freeThrowsAttempRate'
p86
S'.250'
p87
sS'_threePointsAttempRate'
p88
S'.250'
p89
sg26
S'ABA'
p90
sS'_offensiveBoxPlusMinues'
p91
g3
sS'_assistPercentage'
p92
S'26.0'
p93
sS'_defensiveWinShares'
p94
S'0.0'
p95
sg34
S'23'
p96
sg36
S'KEN'
p97
sg38
g39
sS'_blockPercentage'
p98
g3
sS'_playerEfficiencyRating'
p99
S'10.3'
p100
sS'_offensiveWinShares'
p101
S'0.0'
p102
sg51
S'11'
p103
sS'_boxPlusMinus'
p104
g3
sg45
S'1969-70'
p105
sS'_winShares'
p106
S'0.0'
p107
sbasS'_per36Minutes'
p108
(lp109
(isrc.gp1.models.Per36Minutes
Per36Minutes
p110
(dp111
g8
S'0.0'
p112
sg10
S'3.3'
p113
sg12
S'.500'
p114
sg14
S'6.5'
p115
sg16
S'.000'
p116
sg18
S'0.0'
p117
sg19
S'16.4'
p118
sg21
g3
sg22
S'1.000'
p119
sg26
S'ABA'
p120
sg28
g3
sg29
S'13.1'
p121
sg31
S'13.1'
p122
sg32
S'3.3'
p123
sg33
S'3.3'
p124
sg34
S'23'
p125
sg36
S'KEN'
p126
sg38
g39
sg40
g3
sg41
S'6.5'
p127
sg42
S'3.3'
p128
sg43
S'9.8'
p129
sg44
S'3.3'
p130
sg45
S'1969-70'
p131
sg47
S'6.5'
p132
sg48
S'3.3'
p133
sg49
S'.667'
p134
sg51
S'11'
p135
sg53
g3
sbasS'_fromYear'
p136
S'1970'
p137
sS'_url'
p138
S'http://www.basketball-reference.com/players/l/littlsa01.html'
p139
sS'_perGame'
p140
(isrc.gp1.models.PerGame
PerGame
p141
(dp142
g8
S'0.0'
p143
sg10
S'0.3'
p144
sg12
S'.500'
p145
sS'_effectiveFieldGalPercentage'
p146
S'.500'
p147
sg14
S'0.7'
p148
sg16
S'.000'
p149
sg18
S'0.0'
p150
sg19
S'1.7'
p151
sg21
g3
sg22
S'1.000'
p152
sg26
S'ABA'
p153
sg28
g3
sg31
S'1.3'
p154
sS'_fieldGoalsttempted'
p155
S'1.3'
p156
sg32
S'0.3'
p157
sg33
S'0.3'
p158
sg34
S'23'
p159
sg36
S'KEN'
p160
sg38
g39
sg40
g3
sg41
S'0.7'
p161
sg42
S'0.3'
p162
sg43
S'1.0'
p163
sg44
S'0.3'
p164
sg45
S'1969-70'
p165
sg47
S'0.7'
p166
sg48
S'0.3'
p167
sg49
S'.667'
p168
sg51
S'3.7'
p169
sg53
g3
sbsS'_weight'
p170
S'180'
p171
sS'_dob'
p172
S'29-3-1946'
p173
sS'_salary'
p174
(lp175
sg21
S'G'
p176
sb.