(isrc.gp1.models.Player
Player
p0
(dp1
S'_experience'
p2
S'NA'
p3
sS'_totals'
p4
(lp5
(isrc.gp1.models.Totals
Totals
p6
(dp7
S'_offensiveRebounds'
p8
S'17'
p9
sS'_threePointsAttempted'
p10
S'0'
p11
sS'_fieldGoalsPercentage'
p12
S'.325'
p13
sS'_assist'
p14
S'9'
p15
sS'_threePointsPercentage'
p16
g3
sS'_threePoints'
p17
g11
sS'_points'
p18
S'28'
p19
sS'_position'
p20
S'PF'
p21
sS'_freeThrowsPercentage'
p22
S'.500'
p23
sS'_effectiveFieldGoalPercentage'
p24
S'.325'
p25
sS'_league'
p26
S'NBA'
p27
sS'_steals'
p28
S'4'
p29
sS'_fieldGoalsAttempted'
p30
S'40'
p31
sS'_personalFouls'
p32
S'27'
p33
sS'_freeThrowsAttempted'
p34
g29
sS'_totalRebounds'
p35
S'39'
p36
sS'_age'
p37
S'24'
p38
sS'_team'
p39
S'CHI'
p40
sS'_games'
p41
S'31'
p42
sS'_blocks'
p43
g29
sS'_twoPoints'
p44
S'13'
p45
sS'_freeThrows'
p46
S'2'
p47
sS'_twoPointsAttempted'
p48
S'40'
p49
sS'_defensiveRebounds'
p50
S'22'
p51
sS'_season'
p52
S'1989-90'
p53
sS'_fieldGoals'
p54
S'13'
p55
sS'_turnOvers'
p56
S'15'
p57
sS'_twoPointsPercentage'
p58
S'.325'
p59
sS'_minutesPlayed'
p60
S'182'
p61
sS'_gamesStarted'
p62
g11
sba(isrc.gp1.models.Totals
Totals
p63
(dp64
g8
S'3'
p65
sg10
g11
sg12
S'.429'
p66
sg14
S'1'
p67
sg16
g3
sg17
g11
sg18
S'13'
p68
sg20
S'PF'
p69
sg22
S'.500'
p70
sg24
S'.429'
p71
sg26
S'NBA'
p72
sg28
g67
sg30
S'14'
p73
sg32
S'6'
p74
sg34
g47
sg35
g15
sg37
S'25'
p75
sg39
S'CHH'
p76
sg41
g65
sg43
g67
sg44
g74
sg46
g67
sg48
S'14'
p77
sg50
g74
sg52
S'1990-91'
p78
sg54
g74
sg56
g67
sg58
S'.429'
p79
sg60
S'43'
p80
sg62
g11
sba(isrc.gp1.models.Totals
Totals
p81
(dp82
g8
g15
sg10
g11
sg12
S'.444'
p83
sg14
g15
sg16
g3
sg17
g11
sg18
S'47'
p84
sg20
S'SF'
p85
sg22
S'.778'
p86
sg24
S'.444'
p87
sg26
S'NBA'
p88
sg28
S'5'
p89
sg30
S'45'
p90
sg32
S'15'
p91
sg34
g15
sg35
S'26'
p92
sg37
S'26'
p93
sg39
S'ATL'
p94
sg41
S'12'
p95
sg43
g65
sg44
S'20'
p96
sg46
S'7'
p97
sg48
S'45'
p98
sg50
S'17'
p99
sg52
S'1991-92'
p100
sg54
S'20'
p101
sg56
g89
sg58
S'.444'
p102
sg60
S'117'
p103
sg62
g11
sba(isrc.gp1.models.Totals
Totals
p104
(dp105
g8
S'12'
p106
sg10
g11
sg12
S'.400'
p107
sg14
g74
sg16
g3
sg17
g11
sg18
S'24'
p108
sg20
S'PF'
p109
sg22
S'.500'
p110
sg24
S'.400'
p111
sg26
S'NBA'
p112
sg28
S'8'
p113
sg30
S'25'
p114
sg32
S'16'
p115
sg34
g113
sg35
S'29'
p116
sg37
S'27'
p117
sg39
S'ATL'
p118
sg41
g15
sg43
g67
sg44
S'10'
p119
sg46
g29
sg48
S'25'
p120
sg50
S'17'
p121
sg52
S'1992-93'
p122
sg54
S'10'
p123
sg56
S'11'
p124
sg58
S'.400'
p125
sg60
S'120'
p126
sg62
g11
sbasS'_college'
p127
S'Georgia Southern University'
p128
sS'_toYear'
p129
S'1993'
p130
sS'_height'
p131
S'6-8'
p132
sS'_active'
p133
I00
sS'_shootingHand'
p134
VRight
p135
sS'_name'
p136
S'Jeff Sanders'
p137
sS'_per100Possessions'
p138
(lp139
(isrc.gp1.models.Per100Possession
Per100Possession
p140
(dp141
g8
S'4.6'
p142
sg10
S'0.0'
p143
sg12
S'.325'
p144
sS'_offensiveRating'
p145
S'74'
p146
sg14
S'2.5'
p147
sg16
g3
sg17
S'0.0'
p148
sg18
S'7.6'
p149
sg20
S'PF'
p150
sS'_defensiveRating'
p151
S'110'
p152
sg22
S'.500'
p153
sg26
S'NBA'
p154
sg28
S'1.1'
p155
sg30
S'10.9'
p156
sg32
S'7.4'
p157
sg34
S'1.1'
p158
sg35
S'10.6'
p159
sg37
S'24'
p160
sg39
S'CHI'
p161
sg41
S'31'
p162
sg43
S'1.1'
p163
sg44
S'3.5'
p164
sg46
S'0.5'
p165
sg48
S'10.9'
p166
sg50
S'6.0'
p167
sg52
S'1989-90'
p168
sg54
S'3.5'
p169
sg56
S'4.1'
p170
sg58
S'.325'
p171
sg60
S'182'
p172
sg62
g11
sba(isrc.gp1.models.Per100Possession
Per100Possession
p173
(dp174
g8
S'3.4'
p175
sg10
S'0.0'
p176
sg12
S'.429'
p177
sg145
S'96'
p178
sg14
S'1.1'
p179
sg16
g3
sg17
S'0.0'
p180
sg18
S'14.9'
p181
sg20
S'PF'
p182
sg151
S'111'
p183
sg22
S'.500'
p184
sg26
S'NBA'
p185
sg28
S'1.1'
p186
sg30
S'16.1'
p187
sg32
S'6.9'
p188
sg34
S'2.3'
p189
sg35
S'10.3'
p190
sg37
S'25'
p191
sg39
S'CHH'
p192
sg41
g65
sg43
S'1.1'
p193
sg44
S'6.9'
p194
sg46
S'1.1'
p195
sg48
S'16.1'
p196
sg50
S'6.9'
p197
sg52
S'1990-91'
p198
sg54
S'6.9'
p199
sg56
S'1.1'
p200
sg58
S'.429'
p201
sg60
S'43'
p202
sg62
g11
sba(isrc.gp1.models.Per100Possession
Per100Possession
p203
(dp204
g8
S'3.8'
p205
sg10
S'0.0'
p206
sg12
S'.444'
p207
sg145
S'106'
p208
sg14
S'3.8'
p209
sg16
g3
sg17
S'0.0'
p210
sg18
S'19.7'
p211
sg20
S'SF'
p212
sg151
S'107'
p213
sg22
S'.778'
p214
sg26
S'NBA'
p215
sg28
S'2.1'
p216
sg30
S'18.9'
p217
sg32
S'6.3'
p218
sg34
S'3.8'
p219
sg35
S'10.9'
p220
sg37
S'26'
p221
sg39
S'ATL'
p222
sg41
S'12'
p223
sg43
S'1.3'
p224
sg44
S'8.4'
p225
sg46
S'2.9'
p226
sg48
S'18.9'
p227
sg50
S'7.1'
p228
sg52
S'1991-92'
p229
sg54
S'8.4'
p230
sg56
S'2.1'
p231
sg58
S'.444'
p232
sg60
S'117'
p233
sg62
g11
sba(isrc.gp1.models.Per100Possession
Per100Possession
p234
(dp235
g8
S'4.9'
p236
sg10
S'0.0'
p237
sg12
S'.400'
p238
sg145
S'81'
p239
sg14
S'2.5'
p240
sg16
g3
sg17
S'0.0'
p241
sg18
S'9.8'
p242
sg20
S'PF'
p243
sg151
S'107'
p244
sg22
S'.500'
p245
sg26
S'NBA'
p246
sg28
S'3.3'
p247
sg30
S'10.2'
p248
sg32
S'6.6'
p249
sg34
S'3.3'
p250
sg35
S'11.9'
p251
sg37
S'27'
p252
sg39
S'ATL'
p253
sg41
g15
sg43
S'0.4'
p254
sg44
S'4.1'
p255
sg46
S'1.6'
p256
sg48
S'10.2'
p257
sg50
S'7.0'
p258
sg52
S'1992-93'
p259
sg54
S'4.1'
p260
sg56
S'4.5'
p261
sg58
S'.400'
p262
sg60
S'120'
p263
sg62
g11
sbasS'_advanced'
p264
(lp265
(isrc.gp1.models.Advanced
Advanced
p266
(dp267
S'_offensiveReboundPercentage'
p268
S'11.0'
p269
sS'_turnOverPercentage'
p270
S'26.4'
p271
sS'_winSharesPer48Minutes'
p272
S'-0.069'
p273
sS'_stealPercentage'
p274
S'1.1'
p275
sS'_usagePercentage'
p276
S'13.3'
p277
sS'_totalReboundsPercentage'
p278
S'12.7'
p279
sS'_defensiveBoxPlusMinus'
p280
S'-0.7'
p281
sg20
S'PF'
p282
sS'_valueOverReplacementPlayer'
p283
S'-0.3'
p284
sS'_trueShootingPercentage'
p285
S'.335'
p286
sS'_defensiveReboundPercentage'
p287
S'14.3'
p288
sS'_freeThrowsAttempRate'
p289
S'.100'
p290
sS'_threePointsAttempRate'
p291
S'.000'
p292
sg26
S'NBA'
p293
sS'_offensiveBoxPlusMinues'
p294
S'-7.3'
p295
sS'_assistPercentage'
p296
S'6.0'
p297
sS'_defensiveWinShares'
p298
S'0.1'
p299
sg37
S'24'
p300
sg39
S'CHI'
p301
sg41
S'31'
p302
sS'_blockPercentage'
p303
S'1.4'
p304
sS'_playerEfficiencyRating'
p305
S'2.5'
p306
sS'_offensiveWinShares'
p307
S'-0.4'
p308
sg60
S'182'
p309
sS'_boxPlusMinus'
p310
S'-8.0'
p311
sg52
S'1989-90'
p312
sS'_winShares'
p313
S'-0.3'
p314
sba(isrc.gp1.models.Advanced
Advanced
p315
(dp316
g268
S'7.8'
p317
sg270
S'6.3'
p318
sg272
S'.022'
p319
sg274
S'1.1'
p320
sg276
S'15.7'
p321
sg278
S'12.0'
p322
sg280
S'-1.5'
p323
sg20
S'PF'
p324
sg283
S'0.0'
p325
sg285
S'.437'
p326
sg287
S'16.5'
p327
sg289
S'.143'
p328
sg291
S'.000'
p329
sg26
S'NBA'
p330
sg294
S'-4.7'
p331
sg296
S'3.4'
p332
sg298
S'0.0'
p333
sg37
S'25'
p334
sg39
S'CHH'
p335
sg41
g65
sg303
S'1.4'
p336
sg305
S'8.6'
p337
sg307
S'0.0'
p338
sg60
S'43'
p339
sg310
S'-6.2'
p340
sg52
S'1990-91'
p341
sg313
S'0.0'
p342
sba(isrc.gp1.models.Advanced
Advanced
p343
(dp344
g268
S'8.0'
p345
sg270
S'9.3'
p346
sg272
S'.086'
p347
sg274
S'2.1'
p348
sg276
S'19.0'
p349
sg278
S'11.8'
p350
sg280
S'0.0'
p351
sg20
S'SF'
p352
sg283
S'0.0'
p353
sg285
S'.480'
p354
sg287
S'15.8'
p355
sg289
S'.200'
p356
sg291
S'.000'
p357
sg26
S'NBA'
p358
sg294
S'-2.3'
p359
sg296
S'10.9'
p360
sg298
S'0.1'
p361
sg37
S'26'
p362
sg39
S'ATL'
p363
sg41
S'12'
p364
sg303
S'1.5'
p365
sg305
S'13.8'
p366
sg307
S'0.1'
p367
sg60
S'117'
p368
sg310
S'-2.3'
p369
sg52
S'1991-92'
p370
sg313
S'0.2'
p371
sba(isrc.gp1.models.Advanced
Advanced
p372
(dp373
g268
S'10.7'
p374
sg270
S'27.8'
p375
sg272
S'-0.020'
p376
sg274
S'3.3'
p377
sg276
S'13.6'
p378
sg278
S'13.4'
p379
sg280
S'1.6'
p380
sg20
S'PF'
p381
sg283
S'0.0'
p382
sg285
S'.421'
p383
sg287
S'16.4'
p384
sg289
S'.320'
p385
sg291
S'.000'
p386
sg26
S'NBA'
p387
sg294
S'-5.2'
p388
sg296
S'6.5'
p389
sg298
S'0.1'
p390
sg37
S'27'
p391
sg39
S'ATL'
p392
sg41
g15
sg303
S'0.5'
p393
sg305
S'6.9'
p394
sg307
S'-0.2'
p395
sg60
S'120'
p396
sg310
S'-3.6'
p397
sg52
S'1992-93'
p398
sg313
S'-0.1'
p399
sbasS'_per36Minutes'
p400
(lp401
(isrc.gp1.models.Per36Minutes
Per36Minutes
p402
(dp403
g8
S'3.4'
p404
sg10
S'0.0'
p405
sg12
S'.325'
p406
sg14
S'1.8'
p407
sg16
g3
sg17
S'0.0'
p408
sg18
S'5.5'
p409
sg20
S'PF'
p410
sg22
S'.500'
p411
sg26
S'NBA'
p412
sg28
S'0.8'
p413
sg30
S'7.9'
p414
sg32
S'5.3'
p415
sg34
S'0.8'
p416
sg35
S'7.7'
p417
sg37
S'24'
p418
sg39
S'CHI'
p419
sg41
S'31'
p420
sg43
S'0.8'
p421
sg44
S'2.6'
p422
sg46
S'0.4'
p423
sg48
S'7.9'
p424
sg50
S'4.4'
p425
sg52
S'1989-90'
p426
sg54
S'2.6'
p427
sg56
S'3.0'
p428
sg58
S'.325'
p429
sg60
S'182'
p430
sg62
g11
sba(isrc.gp1.models.Per36Minutes
Per36Minutes
p431
(dp432
g8
S'2.5'
p433
sg10
S'0.0'
p434
sg12
S'.429'
p435
sg14
S'0.8'
p436
sg16
g3
sg17
S'0.0'
p437
sg18
S'10.9'
p438
sg20
S'PF'
p439
sg22
S'.500'
p440
sg26
S'NBA'
p441
sg28
S'0.8'
p442
sg30
S'11.7'
p443
sg32
S'5.0'
p444
sg34
S'1.7'
p445
sg35
S'7.5'
p446
sg37
S'25'
p447
sg39
S'CHH'
p448
sg41
g65
sg43
S'0.8'
p449
sg44
S'5.0'
p450
sg46
S'0.8'
p451
sg48
S'11.7'
p452
sg50
S'5.0'
p453
sg52
S'1990-91'
p454
sg54
S'5.0'
p455
sg56
S'0.8'
p456
sg58
S'.429'
p457
sg60
S'43'
p458
sg62
g11
sba(isrc.gp1.models.Per36Minutes
Per36Minutes
p459
(dp460
g8
S'2.8'
p461
sg10
S'0.0'
p462
sg12
S'.444'
p463
sg14
S'2.8'
p464
sg16
g3
sg17
S'0.0'
p465
sg18
S'14.5'
p466
sg20
S'SF'
p467
sg22
S'.778'
p468
sg26
S'NBA'
p469
sg28
S'1.5'
p470
sg30
S'13.8'
p471
sg32
S'4.6'
p472
sg34
S'2.8'
p473
sg35
S'8.0'
p474
sg37
S'26'
p475
sg39
S'ATL'
p476
sg41
S'12'
p477
sg43
S'0.9'
p478
sg44
S'6.2'
p479
sg46
S'2.2'
p480
sg48
S'13.8'
p481
sg50
S'5.2'
p482
sg52
S'1991-92'
p483
sg54
S'6.2'
p484
sg56
S'1.5'
p485
sg58
S'.444'
p486
sg60
S'117'
p487
sg62
g11
sba(isrc.gp1.models.Per36Minutes
Per36Minutes
p488
(dp489
g8
S'3.6'
p490
sg10
S'0.0'
p491
sg12
S'.400'
p492
sg14
S'1.8'
p493
sg16
g3
sg17
S'0.0'
p494
sg18
S'7.2'
p495
sg20
S'PF'
p496
sg22
S'.500'
p497
sg26
S'NBA'
p498
sg28
S'2.4'
p499
sg30
S'7.5'
p500
sg32
S'4.8'
p501
sg34
S'2.4'
p502
sg35
S'8.7'
p503
sg37
S'27'
p504
sg39
S'ATL'
p505
sg41
g15
sg43
S'0.3'
p506
sg44
S'3.0'
p507
sg46
S'1.2'
p508
sg48
S'7.5'
p509
sg50
S'5.1'
p510
sg52
S'1992-93'
p511
sg54
S'3.0'
p512
sg56
S'3.3'
p513
sg58
S'.400'
p514
sg60
S'120'
p515
sg62
g11
sbasS'_fromYear'
p516
S'1990'
p517
sS'_url'
p518
S'http://www.basketball-reference.com/players/s/sandeje01.html'
p519
sS'_perGame'
p520
(isrc.gp1.models.PerGame
PerGame
p521
(dp522
g8
S'1.3'
p523
sg10
S'0.0'
p524
sg12
S'.400'
p525
sS'_effectiveFieldGalPercentage'
p526
S'.400'
p527
sg14
S'0.7'
p528
sg16
g3
sg17
S'0.0'
p529
sg18
S'2.7'
p530
sg20
S'PF'
p531
sg22
S'.500'
p532
sg26
S'NBA'
p533
sg28
S'0.9'
p534
sg32
S'1.8'
p535
sS'_fieldGoalsttempted'
p536
S'2.8'
p537
sg34
S'0.9'
p538
sg35
S'3.2'
p539
sg37
S'27'
p540
sg39
S'ATL'
p541
sg41
g15
sg43
S'0.1'
p542
sg44
S'1.1'
p543
sg46
S'0.4'
p544
sg48
S'2.8'
p545
sg50
S'1.9'
p546
sg52
S'1992-93'
p547
sg54
S'1.1'
p548
sg56
S'1.2'
p549
sg58
S'.400'
p550
sg60
S'13.3'
p551
sg62
g11
sbsS'_weight'
p552
S'225'
p553
sS'_dob'
p554
S'14-1-1966'
p555
sS'_salary'
p556
(lp557
(isrc.gp1.models.Salary
Salary
p558
(dp559
g39
S'Miami Heat'
p560
sg26
S'NBA'
p561
sg556
S'$385,000'
p562
sg52
S'1991-92'
p563
sba(isrc.gp1.models.Salary
Salary
p564
(dp565
g39
S'Atlanta Hawks'
p566
sg26
S'NBA'
p567
sg556
S'$250,000'
p568
sg52
S'1992-93'
p569
sba(isrc.gp1.models.Salary
Salary
p570
(dp571
g39
S'Chicago Bulls'
p572
sg26
S'NBA'
p573
sg556
S'$475,000'
p574
sg52
S'1998-99'
p575
sbasg20
S'F'
p576
sb.