(isrc.gp1.models.Player
Player
p0
(dp1
S'_experience'
p2
S'NA'
p3
sS'_totals'
p4
(lp5
(isrc.gp1.models.Totals
Totals
p6
(dp7
S'_offensiveRebounds'
p8
S'19'
p9
sS'_threePointsAttempted'
p10
S'236'
p11
sS'_fieldGoalsPercentage'
p12
S'.396'
p13
sS'_assist'
p14
S'227'
p15
sS'_threePointsPercentage'
p16
S'.364'
p17
sS'_threePoints'
p18
S'86'
p19
sS'_points'
p20
S'547'
p21
sS'_position'
p22
S'PG'
p23
sS'_freeThrowsPercentage'
p24
S'.910'
p25
sS'_effectiveFieldGoalPercentage'
p26
S'.497'
p27
sS'_league'
p28
S'NBA'
p29
sS'_steals'
p30
S'40'
p31
sS'_fieldGoalsAttempted'
p32
S'429'
p33
sS'_personalFouls'
p34
S'108'
p35
sS'_freeThrowsAttempted'
p36
S'133'
p37
sS'_totalRebounds'
p38
S'153'
p39
sS'_age'
p40
S'29'
p41
sS'_team'
p42
S'IND'
p43
sS'_games'
p44
S'75'
p45
sS'_blocks'
p46
S'4'
p47
sS'_twoPoints'
p48
S'84'
p49
sS'_freeThrows'
p50
S'121'
p51
sS'_twoPointsAttempted'
p52
S'193'
p53
sS'_defensiveRebounds'
p54
S'134'
p55
sS'_season'
p56
S'2005-06'
p57
sS'_fieldGoals'
p58
S'170'
p59
sS'_turnOvers'
p60
S'116'
p61
sS'_twoPointsPercentage'
p62
S'.435'
p63
sS'_minutesPlayed'
p64
S'1557'
p65
sS'_gamesStarted'
p66
S'15'
p67
sba(isrc.gp1.models.Totals
Totals
p68
(dp69
g8
S'15'
p70
sg10
S'130'
p71
sg12
S'.398'
p72
sg14
S'172'
p73
sg16
S'.338'
p74
sg18
S'44'
p75
sg20
S'386'
p76
sg22
S'SG-PG'
p77
sg24
S'.905'
p78
sg26
S'.466'
p79
sg28
S'NBA'
p80
sg30
S'26'
p81
sg32
S'322'
p82
sg34
S'75'
p83
sg36
S'95'
p84
sg38
S'69'
p85
sg40
S'30'
p86
sg42
S'TOT'
p87
sg44
S'63'
p88
sg46
S'1'
p89
sg48
S'84'
p90
sg50
S'86'
p91
sg52
S'192'
p92
sg54
S'54'
p93
sg56
S'2006-07'
p94
sg58
S'128'
p95
sg60
S'90'
p96
sg62
S'.438'
p97
sg64
S'973'
p98
sg66
S'3'
p99
sba(isrc.gp1.models.Totals
Totals
p100
(dp101
g8
S'10'
p102
sg10
S'86'
p103
sg12
S'.412'
p104
sg14
S'111'
p105
sg16
S'.372'
p106
sg18
S'32'
p107
sg20
S'273'
p108
sg22
S'SG'
p109
sg24
S'.922'
p110
sg26
S'.484'
p111
sg28
S'NBA'
p112
sg30
S'13'
p113
sg32
S'221'
p114
sg34
S'53'
p115
sg36
S'64'
p116
sg38
S'48'
p117
sg40
S'30'
p118
sg42
S'IND'
p119
sg44
S'37'
p120
sg46
S'0'
p121
sg48
S'59'
p122
sg50
S'59'
p123
sg52
S'135'
p124
sg54
S'38'
p125
sg56
S'2006-07'
p126
sg58
S'91'
p127
sg60
S'59'
p128
sg62
S'.437'
p129
sg64
S'664'
p130
sg66
g89
sba(isrc.gp1.models.Totals
Totals
p131
(dp132
g8
S'5'
p133
sg10
S'44'
p134
sg12
S'.366'
p135
sg14
S'61'
p136
sg16
S'.273'
p137
sg18
S'12'
p138
sg20
S'113'
p139
sg22
S'PG'
p140
sg24
S'.871'
p141
sg26
S'.426'
p142
sg28
S'NBA'
p143
sg30
S'13'
p144
sg32
S'101'
p145
sg34
S'22'
p146
sg36
S'31'
p147
sg38
S'21'
p148
sg40
S'30'
p149
sg42
S'GSW'
p150
sg44
S'26'
p151
sg46
g89
sg48
S'25'
p152
sg50
S'27'
p153
sg52
S'57'
p154
sg54
S'16'
p155
sg56
S'2006-07'
p156
sg58
S'37'
p157
sg60
S'31'
p158
sg62
S'.439'
p159
sg64
S'309'
p160
sg66
S'2'
p161
sbasS'_college'
p162
S'University of Maryland'
p163
sS'_toYear'
p164
S'2007'
p165
sS'_height'
p166
S'6-4'
p167
sS'_active'
p168
I00
sS'_shootingHand'
p169
VRight
p170
sS'_name'
p171
S'Sarunas Jasikevicius'
p172
sS'_per100Possessions'
p173
(lp174
(isrc.gp1.models.Per100Possession
Per100Possession
p175
(dp176
g8
S'0.7'
p177
sg10
S'8.1'
p178
sg12
S'.396'
p179
sS'_offensiveRating'
p180
S'107'
p181
sg14
S'7.8'
p182
sg16
S'.364'
p183
sg18
S'3.0'
p184
sg20
S'18.8'
p185
sg22
S'PG'
p186
sS'_defensiveRating'
p187
S'106'
p188
sg24
S'.910'
p189
sg28
S'NBA'
p190
sg30
S'1.4'
p191
sg32
S'14.8'
p192
sg34
S'3.7'
p193
sg36
S'4.6'
p194
sg38
S'5.3'
p195
sg40
S'29'
p196
sg42
S'IND'
p197
sg44
S'75'
p198
sg46
S'0.1'
p199
sg48
S'2.9'
p200
sg50
S'4.2'
p201
sg52
S'6.6'
p202
sg54
S'4.6'
p203
sg56
S'2005-06'
p204
sg58
S'5.8'
p205
sg60
S'4.0'
p206
sg62
S'.435'
p207
sg64
S'1557'
p208
sg66
S'15'
p209
sba(isrc.gp1.models.Per100Possession
Per100Possession
p210
(dp211
g8
S'0.8'
p212
sg10
S'6.8'
p213
sg12
S'.398'
p214
sg180
S'103'
p215
sg14
S'9.0'
p216
sg16
S'.338'
p217
sg18
S'2.3'
p218
sg20
S'20.1'
p219
sg22
S'SG-PG'
p220
sg187
S'110'
p221
sg24
S'.905'
p222
sg28
S'NBA'
p223
sg30
S'1.4'
p224
sg32
S'16.8'
p225
sg34
S'3.9'
p226
sg36
S'5.0'
p227
sg38
S'3.6'
p228
sg40
S'30'
p229
sg42
S'TOT'
p230
sg44
S'63'
p231
sg46
S'0.1'
p232
sg48
S'4.4'
p233
sg50
S'4.5'
p234
sg52
S'10.0'
p235
sg54
S'2.8'
p236
sg56
S'2006-07'
p237
sg58
S'6.7'
p238
sg60
S'4.7'
p239
sg62
S'.438'
p240
sg64
S'973'
p241
sg66
g99
sba(isrc.gp1.models.Per100Possession
Per100Possession
p242
(dp243
g8
S'0.8'
p244
sg10
S'6.7'
p245
sg12
S'.412'
p246
sg180
S'105'
p247
sg14
S'8.7'
p248
sg16
S'.372'
p249
sg18
S'2.5'
p250
sg20
S'21.3'
p251
sg22
S'SG'
p252
sg187
S'110'
p253
sg24
S'.922'
p254
sg28
S'NBA'
p255
sg30
S'1.0'
p256
sg32
S'17.3'
p257
sg34
S'4.1'
p258
sg36
S'5.0'
p259
sg38
S'3.8'
p260
sg40
S'30'
p261
sg42
S'IND'
p262
sg44
S'37'
p263
sg46
S'0.0'
p264
sg48
S'4.6'
p265
sg50
S'4.6'
p266
sg52
S'10.6'
p267
sg54
S'3.0'
p268
sg56
S'2006-07'
p269
sg58
S'7.1'
p270
sg60
S'4.6'
p271
sg62
S'.437'
p272
sg64
S'664'
p273
sg66
g89
sba(isrc.gp1.models.Per100Possession
Per100Possession
p274
(dp275
g8
S'0.8'
p276
sg10
S'6.9'
p277
sg12
S'.366'
p278
sg180
S'98'
p279
sg14
S'9.6'
p280
sg16
S'.273'
p281
sg18
S'1.9'
p282
sg20
S'17.7'
p283
sg22
S'PG'
p284
sg187
S'111'
p285
sg24
S'.871'
p286
sg28
S'NBA'
p287
sg30
S'2.0'
p288
sg32
S'15.8'
p289
sg34
S'3.4'
p290
sg36
S'4.9'
p291
sg38
S'3.3'
p292
sg40
S'30'
p293
sg42
S'GSW'
p294
sg44
S'26'
p295
sg46
S'0.2'
p296
sg48
S'3.9'
p297
sg50
S'4.2'
p298
sg52
S'8.9'
p299
sg54
S'2.5'
p300
sg56
S'2006-07'
p301
sg58
S'5.8'
p302
sg60
S'4.9'
p303
sg62
S'.439'
p304
sg64
S'309'
p305
sg66
g161
sbasS'_advanced'
p306
(lp307
(isrc.gp1.models.Advanced
Advanced
p308
(dp309
S'_offensiveReboundPercentage'
p310
S'1.5'
p311
sS'_turnOverPercentage'
p312
S'19.2'
p313
sS'_winSharesPer48Minutes'
p314
S'.103'
p315
sS'_stealPercentage'
p316
S'1.4'
p317
sS'_usagePercentage'
p318
S'18.0'
p319
sS'_totalReboundsPercentage'
p320
S'5.7'
p321
sS'_defensiveBoxPlusMinus'
p322
S'-0.9'
p323
sg22
S'PG'
p324
sS'_valueOverReplacementPlayer'
p325
S'0.6'
p326
sS'_trueShootingPercentage'
p327
S'.561'
p328
sS'_defensiveReboundPercentage'
p329
S'9.6'
p330
sS'_freeThrowsAttempRate'
p331
S'.310'
p332
sS'_threePointsAttempRate'
p333
S'.550'
p334
sg28
S'NBA'
p335
sS'_offensiveBoxPlusMinues'
p336
S'0.3'
p337
sS'_assistPercentage'
p338
S'24.4'
p339
sS'_defensiveWinShares'
p340
S'1.7'
p341
sg40
S'29'
p342
sg42
S'IND'
p343
sg44
S'75'
p344
sS'_blockPercentage'
p345
S'0.2'
p346
sS'_playerEfficiencyRating'
p347
S'12.9'
p348
sS'_offensiveWinShares'
p349
S'1.6'
p350
sg64
S'1557'
p351
sS'_boxPlusMinus'
p352
S'-0.6'
p353
sg56
S'2005-06'
p354
sS'_winShares'
p355
S'3.3'
p356
sba(isrc.gp1.models.Advanced
Advanced
p357
(dp358
g310
S'1.7'
p359
sg312
S'19.8'
p360
sg314
S'.056'
p361
sg316
S'1.3'
p362
sg318
S'20.6'
p363
sg320
S'4.0'
p364
sg322
S'-3.5'
p365
sg22
S'SG-PG'
p366
sg325
S'-0.6'
p367
sg327
S'.531'
p368
sg329
S'6.4'
p369
sg331
S'.295'
p370
sg333
S'.404'
p371
sg28
S'NBA'
p372
sg336
S'-1.0'
p373
sg338
S'28.3'
p374
sg340
S'0.5'
p375
sg40
S'30'
p376
sg42
S'TOT'
p377
sg44
S'63'
p378
sg345
S'0.1'
p379
sg347
S'12.4'
p380
sg349
S'0.6'
p381
sg64
S'973'
p382
sg352
S'-4.5'
p383
sg56
S'2006-07'
p384
sg355
S'1.1'
p385
sba(isrc.gp1.models.Advanced
Advanced
p386
(dp387
g310
S'1.7'
p388
sg312
S'19.1'
p389
sg314
S'.072'
p390
sg316
S'1.0'
p391
sg318
S'20.8'
p392
sg320
S'4.2'
p393
sg322
S'-3.5'
p394
sg22
S'SG'
p395
sg325
S'-0.3'
p396
sg327
S'.548'
p397
sg329
S'6.7'
p398
sg331
S'.290'
p399
sg333
S'.389'
p400
sg28
S'NBA'
p401
sg336
S'-0.2'
p402
sg338
S'28.4'
p403
sg340
S'0.4'
p404
sg40
S'30'
p405
sg42
S'IND'
p406
sg44
S'37'
p407
sg345
S'0.0'
p408
sg347
S'12.9'
p409
sg349
S'0.6'
p410
sg64
S'664'
p411
sg352
S'-3.8'
p412
sg56
S'2006-07'
p413
sg355
S'1.0'
p414
sba(isrc.gp1.models.Advanced
Advanced
p415
(dp416
g310
S'1.7'
p417
sg312
S'21.3'
p418
sg314
S'.023'
p419
sg316
S'2.0'
p420
sg318
S'20.1'
p421
sg320
S'3.7'
p422
sg322
S'-3.5'
p423
sg22
S'PG'
p424
sg325
S'-0.3'
p425
sg327
S'.493'
p426
sg329
S'5.8'
p427
sg331
S'.307'
p428
sg333
S'.436'
p429
sg28
S'NBA'
p430
sg336
S'-2.5'
p431
sg338
S'28.0'
p432
sg340
S'0.2'
p433
sg40
S'30'
p434
sg42
S'GSW'
p435
sg44
S'26'
p436
sg345
S'0.2'
p437
sg347
S'11.3'
p438
sg349
S'0.0'
p439
sg64
S'309'
p440
sg352
S'-6.0'
p441
sg56
S'2006-07'
p442
sg355
S'0.2'
p443
sbasS'_per36Minutes'
p444
(lp445
(isrc.gp1.models.Per36Minutes
Per36Minutes
p446
(dp447
g8
S'0.4'
p448
sg10
S'5.5'
p449
sg12
S'.396'
p450
sg14
S'5.2'
p451
sg16
S'.364'
p452
sg18
S'2.0'
p453
sg20
S'12.6'
p454
sg22
S'PG'
p455
sg24
S'.910'
p456
sg28
S'NBA'
p457
sg30
S'0.9'
p458
sg32
S'9.9'
p459
sg34
S'2.5'
p460
sg36
S'3.1'
p461
sg38
S'3.5'
p462
sg40
S'29'
p463
sg42
S'IND'
p464
sg44
S'75'
p465
sg46
S'0.1'
p466
sg48
S'1.9'
p467
sg50
S'2.8'
p468
sg52
S'4.5'
p469
sg54
S'3.1'
p470
sg56
S'2005-06'
p471
sg58
S'3.9'
p472
sg60
S'2.7'
p473
sg62
S'.435'
p474
sg64
S'1557'
p475
sg66
S'15'
p476
sba(isrc.gp1.models.Per36Minutes
Per36Minutes
p477
(dp478
g8
S'0.6'
p479
sg10
S'4.8'
p480
sg12
S'.398'
p481
sg14
S'6.4'
p482
sg16
S'.338'
p483
sg18
S'1.6'
p484
sg20
S'14.3'
p485
sg22
S'SG-PG'
p486
sg24
S'.905'
p487
sg28
S'NBA'
p488
sg30
S'1.0'
p489
sg32
S'11.9'
p490
sg34
S'2.8'
p491
sg36
S'3.5'
p492
sg38
S'2.6'
p493
sg40
S'30'
p494
sg42
S'TOT'
p495
sg44
S'63'
p496
sg46
S'0.0'
p497
sg48
S'3.1'
p498
sg50
S'3.2'
p499
sg52
S'7.1'
p500
sg54
S'2.0'
p501
sg56
S'2006-07'
p502
sg58
S'4.7'
p503
sg60
S'3.3'
p504
sg62
S'.438'
p505
sg64
S'973'
p506
sg66
g99
sba(isrc.gp1.models.Per36Minutes
Per36Minutes
p507
(dp508
g8
S'0.5'
p509
sg10
S'4.7'
p510
sg12
S'.412'
p511
sg14
S'6.0'
p512
sg16
S'.372'
p513
sg18
S'1.7'
p514
sg20
S'14.8'
p515
sg22
S'SG'
p516
sg24
S'.922'
p517
sg28
S'NBA'
p518
sg30
S'0.7'
p519
sg32
S'12.0'
p520
sg34
S'2.9'
p521
sg36
S'3.5'
p522
sg38
S'2.6'
p523
sg40
S'30'
p524
sg42
S'IND'
p525
sg44
S'37'
p526
sg46
S'0.0'
p527
sg48
S'3.2'
p528
sg50
S'3.2'
p529
sg52
S'7.3'
p530
sg54
S'2.1'
p531
sg56
S'2006-07'
p532
sg58
S'4.9'
p533
sg60
S'3.2'
p534
sg62
S'.437'
p535
sg64
S'664'
p536
sg66
g89
sba(isrc.gp1.models.Per36Minutes
Per36Minutes
p537
(dp538
g8
S'0.6'
p539
sg10
S'5.1'
p540
sg12
S'.366'
p541
sg14
S'7.1'
p542
sg16
S'.273'
p543
sg18
S'1.4'
p544
sg20
S'13.2'
p545
sg22
S'PG'
p546
sg24
S'.871'
p547
sg28
S'NBA'
p548
sg30
S'1.5'
p549
sg32
S'11.8'
p550
sg34
S'2.6'
p551
sg36
S'3.6'
p552
sg38
S'2.4'
p553
sg40
S'30'
p554
sg42
S'GSW'
p555
sg44
S'26'
p556
sg46
S'0.1'
p557
sg48
S'2.9'
p558
sg50
S'3.1'
p559
sg52
S'6.6'
p560
sg54
S'1.9'
p561
sg56
S'2006-07'
p562
sg58
S'4.3'
p563
sg60
S'3.6'
p564
sg62
S'.439'
p565
sg64
S'309'
p566
sg66
g161
sbasS'_fromYear'
p567
S'2006'
p568
sS'_url'
p569
S'http://www.basketball-reference.com/players/j/jasiksa01.html'
p570
sS'_perGame'
p571
(isrc.gp1.models.PerGame
PerGame
p572
(dp573
g8
S'0.2'
p574
sg10
S'1.7'
p575
sg12
S'.366'
p576
sS'_effectiveFieldGalPercentage'
p577
S'.426'
p578
sg14
S'2.3'
p579
sg16
S'.273'
p580
sg18
S'0.5'
p581
sg20
S'4.3'
p582
sg22
S'PG'
p583
sg24
S'.871'
p584
sg28
S'NBA'
p585
sg30
S'0.5'
p586
sg34
S'0.8'
p587
sS'_fieldGoalsttempted'
p588
S'3.9'
p589
sg36
S'1.2'
p590
sg38
S'0.8'
p591
sg40
S'30'
p592
sg42
S'GSW'
p593
sg44
S'26'
p594
sg46
S'0.0'
p595
sg48
S'1.0'
p596
sg50
S'1.0'
p597
sg52
S'2.2'
p598
sg54
S'0.6'
p599
sg56
S'2006-07'
p600
sg58
S'1.4'
p601
sg60
S'1.2'
p602
sg62
S'.439'
p603
sg64
S'11.9'
p604
sg66
g161
sbsS'_weight'
p605
S'195'
p606
sS'_dob'
p607
S'5-3-1976'
p608
sS'_salary'
p609
(lp610
(isrc.gp1.models.Salary
Salary
p611
(dp612
g42
S'Indiana Pacers'
p613
sg28
S'NBA'
p614
sg609
S'$4,000,000'
p615
sg56
S'2005-06'
p616
sba(isrc.gp1.models.Salary
Salary
p617
(dp618
g42
S'Golden State Warriors'
p619
sg28
S'NBA'
p620
sg609
S'$4,000,000'
p621
sg56
S'2006-07'
p622
sbasg22
S'G'
p623
sb.