(isrc.gp1.models.Player
Player
p0
(dp1
S'_experience'
p2
VRookie
p3
sS'_totals'
p4
(lp5
(isrc.gp1.models.Totals
Totals
p6
(dp7
S'_offensiveRebounds'
p8
S'2'
p9
sS'_threePointsAttempted'
p10
S'0'
p11
sS'_fieldGoalsPercentage'
p12
S'.600'
p13
sS'_assist'
p14
g9
sS'_threePointsPercentage'
p15
S'3'
p16
sS'_threePoints'
p17
g11
sS'_points'
p18
S'NA'
p19
sS'_position'
p20
S'C'
p21
sS'_freeThrowsPercentage'
p22
S'8'
p23
sS'_effectiveFieldGoalPercentage'
p24
g9
sS'_league'
p25
S'NBA'
p26
sS'_steals'
p27
g9
sS'_fieldGoalsAttempted'
p28
S'5'
p29
sS'_personalFouls'
p30
g23
sS'_freeThrowsAttempted'
p31
S'.500'
p32
sS'_totalRebounds'
p33
g9
sS'_age'
p34
S'30'
p35
sS'_team'
p36
S'CLE'
p37
sS'_games'
p38
S'9'
p39
sS'_blocks'
p40
S'6'
p41
sS'_twoPoints'
p42
g29
sS'_freeThrows'
p43
S'4'
p44
sS'_twoPointsAttempted'
p45
S'.600'
p46
sS'_defensiveRebounds'
p47
S'10'
p48
sS'_season'
p49
S'2015-16'
p50
sS'_fieldGoals'
p51
g16
sS'_turnOvers'
p52
g41
sS'_twoPointsPercentage'
p53
S'.600'
p54
sS'_minutesPlayed'
p55
S'39'
p56
sS'_gamesStarted'
p57
g11
sbasS'_college'
p58
S'University of Kansas'
p59
sS'_toYear'
p60
S'2016'
p61
sS'_height'
p62
S'6-11'
p63
sS'_active'
p64
I01
sS'_shootingHand'
p65
VRight
p66
sS'_name'
p67
S'Sasha Kaun'
p68
sS'_per100Possessions'
p69
(lp70
(isrc.gp1.models.Per100Possession
Per100Possession
p71
(dp72
g8
S'2.7'
p73
sg10
S'0.0'
p74
sg12
S'.600'
p75
sS'_offensiveRating'
p76
S'101'
p77
sg14
S'2.7'
p78
sg15
S'4.0'
p79
sg17
S'0.0'
p80
sg18
S'91'
p81
sg20
g21
sS'_defensiveRating'
p82
g19
sg22
S'10.6'
p83
sg25
S'NBA'
p84
sg27
S'2.7'
p85
sg28
S'6.6'
p86
sg30
S'10.6'
p87
sg31
S'.500'
p88
sg33
S'2.7'
p89
sg34
S'30'
p90
sg36
S'CLE'
p91
sg38
g39
sg40
S'8.0'
p92
sg42
S'6.6'
p93
sg43
S'5.3'
p94
sg45
S'.600'
p95
sg47
S'13.3'
p96
sg49
S'2015-16'
p97
sg51
S'4.0'
p98
sg52
S'8.0'
p99
sg53
S'2.7'
p100
sg55
S'39'
p101
sg57
g11
sbasS'_advanced'
p102
(lp103
(isrc.gp1.models.Advanced
Advanced
p104
(dp105
S'_offensiveReboundPercentage'
p106
S'23.3'
p107
sS'_turnOverPercentage'
p108
S'47.0'
p109
sS'_winSharesPer48Minutes'
p110
S'.044'
p111
sS'_stealPercentage'
p112
S'2.7'
p113
sS'_usagePercentage'
p114
S'14.8'
p115
sS'_totalReboundsPercentage'
p116
S'14.5'
p117
sS'_defensiveBoxPlusMinus'
p118
S'3.8'
p119
sg20
g21
sS'_valueOverReplacementPlayer'
p120
S'0.0'
p121
sS'_trueShootingPercentage'
p122
S'.592'
p123
sS'_defensiveReboundPercentage'
p124
S'5.8'
p125
sS'_freeThrowsAttempRate'
p126
S'.800'
p127
sS'_threePointsAttempRate'
p128
S'.000'
p129
sg25
S'NBA'
p130
sS'_offensiveBoxPlusMinues'
p131
S'-2.3'
p132
sS'_assistPercentage'
p133
S'7.3'
p134
sS'_defensiveWinShares'
p135
S'0.1'
p136
sg34
S'30'
p137
sg36
S'CLE'
p138
sg38
g39
sS'_blockPercentage'
p139
S'4.2'
p140
sS'_playerEfficiencyRating'
p141
S'10.8'
p142
sS'_offensiveWinShares'
p143
S'0.0'
p144
sg55
S'39'
p145
sS'_boxPlusMinus'
p146
S'1.4'
p147
sg49
S'2015-16'
p148
sS'_winShares'
p149
S'0.0'
p150
sbasS'_per36Minutes'
p151
(lp152
(isrc.gp1.models.Per36Minutes
Per36Minutes
p153
(dp154
g8
S'1.8'
p155
sg10
S'0.0'
p156
sg12
S'.600'
p157
sg14
S'1.8'
p158
sg15
S'2.8'
p159
sg17
S'0.0'
p160
sg18
g19
sg20
g21
sg22
S'7.4'
p161
sg25
S'NBA'
p162
sg27
S'1.8'
p163
sg28
S'4.6'
p164
sg30
S'7.4'
p165
sg31
S'.500'
p166
sg33
S'1.8'
p167
sg34
S'30'
p168
sg36
S'CLE'
p169
sg38
g39
sg40
S'5.5'
p170
sg42
S'4.6'
p171
sg43
S'3.7'
p172
sg45
S'.600'
p173
sg47
S'9.2'
p174
sg49
S'2015-16'
p175
sg51
S'2.8'
p176
sg52
S'5.5'
p177
sg53
S'1.8'
p178
sg55
S'39'
p179
sg57
g11
sbasS'_fromYear'
p180
S'2016'
p181
sS'_url'
p182
S'http://www.basketball-reference.com/players/k/kaunsa01.html'
p183
sS'_perGame'
p184
(isrc.gp1.models.PerGame
PerGame
p185
(dp186
g8
S'0.2'
p187
sg10
S'0.0'
p188
sg12
S'.600'
p189
sS'_effectiveFieldGalPercentage'
p190
S'0.2'
p191
sg14
S'0.2'
p192
sg15
S'0.3'
p193
sg17
S'0.0'
p194
sg18
g19
sg20
g21
sg22
S'0.9'
p195
sg25
S'NBA'
p196
sg27
S'0.2'
p197
sg30
S'0.9'
p198
sS'_fieldGoalsttempted'
p199
S'0.6'
p200
sg31
S'.500'
p201
sg33
S'0.2'
p202
sg34
S'30'
p203
sg36
S'CLE'
p204
sg38
g39
sg40
S'0.7'
p205
sg42
S'0.6'
p206
sg43
S'0.4'
p207
sg45
S'.600'
p208
sg47
S'1.1'
p209
sg49
S'2015-16'
p210
sg51
S'0.3'
p211
sg52
S'0.7'
p212
sg53
S'.600'
p213
sg55
S'4.3'
p214
sg57
g11
sbsS'_weight'
p215
S'260'
p216
sS'_dob'
p217
S'8-5-1985'
p218
sS'_salary'
p219
(lp220
sg20
g21
sb.