(isrc.gp1.models.Player
Player
p0
(dp1
S'_experience'
p2
S'NA'
p3
sS'_totals'
p4
(lp5
(isrc.gp1.models.Totals
Totals
p6
(dp7
S'_offensiveRebounds'
p8
S'82'
p9
sS'_threePointsAttempted'
p10
g3
sS'_fieldGoalsPercentage'
p11
S'.433'
p12
sS'_assist'
p13
S'80'
p14
sS'_threePointsPercentage'
p15
g3
sS'_threePoints'
p16
g3
sS'_points'
p17
S'418'
p18
sS'_position'
p19
S'SF'
p20
sS'_freeThrowsPercentage'
p21
S'.695'
p22
sS'_effectiveFieldGoalPercentage'
p23
S'.433'
p24
sS'_league'
p25
S'NBA'
p26
sS'_steals'
p27
S'41'
p28
sS'_fieldGoalsAttempted'
p29
S'406'
p30
sS'_personalFouls'
p31
S'151'
p32
sS'_freeThrowsAttempted'
p33
S'95'
p34
sS'_totalRebounds'
p35
S'253'
p36
sS'_age'
p37
S'23'
p38
sS'_team'
p39
S'PHO'
p40
sS'_games'
p41
S'69'
p42
sS'_blocks'
p43
S'15'
p44
sS'_twoPoints'
p45
S'176'
p46
sS'_freeThrows'
p47
S'66'
p48
sS'_twoPointsAttempted'
p49
S'406'
p50
sS'_defensiveRebounds'
p51
S'171'
p52
sS'_season'
p53
S'1974-75'
p54
sS'_fieldGoals'
p55
S'176'
p56
sS'_turnOvers'
p57
g3
sS'_twoPointsPercentage'
p58
S'.433'
p59
sS'_minutesPlayed'
p60
S'1059'
p61
sS'_gamesStarted'
p62
g3
sba(isrc.gp1.models.Totals
Totals
p63
(dp64
g8
S'11'
p65
sg10
g3
sg11
S'.438'
p66
sg13
S'13'
p67
sg15
g3
sg16
g3
sg17
S'62'
p68
sg19
S'SF'
p69
sg21
S'.545'
p70
sg23
S'.438'
p71
sg25
S'NBA'
p72
sg27
S'5'
p73
sg29
S'64'
p74
sg31
S'23'
p75
sg33
S'11'
p76
sg35
S'37'
p77
sg37
S'24'
p78
sg39
S'PHO'
p79
sg41
S'17'
p80
sg43
S'1'
p81
sg45
S'28'
p82
sg47
S'6'
p83
sg49
S'64'
p84
sg51
S'26'
p85
sg53
S'1975-76'
p86
sg55
S'28'
p87
sg57
g3
sg58
S'.438'
p88
sg60
S'146'
p89
sg62
g3
sba(isrc.gp1.models.Totals
Totals
p90
(dp91
g8
S'73'
p92
sg10
g3
sg11
S'.466'
p93
sg13
S'85'
p94
sg15
g3
sg16
g3
sg17
S'403'
p95
sg19
S'SF'
p96
sg21
S'.660'
p97
sg23
S'.466'
p98
sg25
S'NBA'
p99
sg27
S'26'
p100
sg29
S'395'
p101
sg31
S'191'
p102
sg33
S'53'
p103
sg35
S'223'
p104
sg37
S'25'
p105
sg39
S'BOS'
p106
sg41
S'68'
p107
sg43
S'7'
p108
sg45
S'184'
p109
sg47
S'35'
p110
sg49
S'395'
p111
sg51
S'150'
p112
sg53
S'1976-77'
p113
sg55
S'184'
p114
sg57
g3
sg58
S'.466'
p115
sg60
S'1051'
p116
sg62
g3
sba(isrc.gp1.models.Totals
Totals
p117
(dp118
g8
S'38'
p119
sg10
g3
sg11
S'.423'
p120
sg13
S'46'
p121
sg15
g3
sg16
g3
sg17
S'224'
p122
sg19
S'SF'
p123
sg21
S'.722'
p124
sg23
S'.423'
p125
sg25
S'NBA'
p126
sg27
S'21'
p127
sg29
S'234'
p128
sg31
S'106'
p129
sg33
S'36'
p130
sg35
S'111'
p131
sg37
S'26'
p132
sg39
S'TOT'
p133
sg41
S'56'
p134
sg43
S'14'
p135
sg45
S'99'
p136
sg47
S'26'
p137
sg49
S'234'
p138
sg51
S'73'
p139
sg53
S'1977-78'
p140
sg55
S'99'
p141
sg57
S'42'
p142
sg58
S'.423'
p143
sg60
S'643'
p144
sg62
g3
sba(isrc.gp1.models.Totals
Totals
p145
(dp146
g8
S'11'
p147
sg10
g3
sg11
S'.330'
p148
sg13
S'11'
p149
sg15
g3
sg16
g3
sg17
S'74'
p150
sg19
S'SF'
p151
sg21
S'.824'
p152
sg23
S'.330'
p153
sg25
S'NBA'
p154
sg27
g108
sg29
S'91'
p155
sg31
S'34'
p156
sg33
S'17'
p157
sg35
S'37'
p158
sg37
S'26'
p159
sg39
S'BOS'
p160
sg41
S'26'
p161
sg43
S'4'
p162
sg45
S'30'
p163
sg47
S'14'
p164
sg49
S'91'
p165
sg51
S'26'
p166
sg53
S'1977-78'
p167
sg55
S'30'
p168
sg57
S'20'
p169
sg58
S'.330'
p170
sg60
S'243'
p171
sg62
g3
sba(isrc.gp1.models.Totals
Totals
p172
(dp173
g8
S'27'
p174
sg10
g3
sg11
S'.483'
p175
sg13
S'35'
p176
sg15
g3
sg16
g3
sg17
S'150'
p177
sg19
S'SF'
p178
sg21
S'.632'
p179
sg23
S'.483'
p180
sg25
S'NBA'
p181
sg27
S'14'
p182
sg29
S'143'
p183
sg31
S'72'
p184
sg33
S'19'
p185
sg35
S'74'
p186
sg37
S'26'
p187
sg39
S'NOJ'
p188
sg41
S'30'
p189
sg43
S'10'
p190
sg45
S'69'
p191
sg47
S'12'
p192
sg49
S'143'
p193
sg51
S'47'
p194
sg53
S'1977-78'
p195
sg55
S'69'
p196
sg57
S'22'
p197
sg58
S'.483'
p198
sg60
S'400'
p199
sg62
g3
sbasS'_college'
p200
S'Syracuse University'
p201
sS'_toYear'
p202
S'1978'
p203
sS'_height'
p204
S'6-7'
p205
sS'_active'
p206
I00
sS'_shootingHand'
p207
VRight
p208
sS'_name'
p209
S'Fred Saunders'
p210
sS'_per100Possessions'
p211
(lp212
(isrc.gp1.models.Per100Possession
Per100Possession
p213
(dp214
g8
S'3.6'
p215
sg10
g3
sg11
S'.433'
p216
sS'_offensiveRating'
p217
g3
sg13
S'3.5'
p218
sg15
g3
sg16
g3
sg17
S'18.2'
p219
sg19
S'SF'
p220
sS'_defensiveRating'
p221
S'97'
p222
sg21
S'.695'
p223
sg25
S'NBA'
p224
sg27
S'1.8'
p225
sg29
S'17.6'
p226
sg31
S'6.6'
p227
sg33
S'4.1'
p228
sg35
S'11.0'
p229
sg37
S'23'
p230
sg39
S'PHO'
p231
sg41
S'69'
p232
sg43
S'0.7'
p233
sg45
S'7.6'
p234
sg47
S'2.9'
p235
sg49
S'17.6'
p236
sg51
S'7.4'
p237
sg53
S'1974-75'
p238
sg55
S'7.6'
p239
sg57
g3
sg58
S'.433'
p240
sg60
S'1059'
p241
sg62
g3
sba(isrc.gp1.models.Per100Possession
Per100Possession
p242
(dp243
g8
S'3.4'
p244
sg10
g3
sg11
S'.438'
p245
sg217
g3
sg13
S'4.0'
p246
sg15
g3
sg16
g3
sg17
S'19.3'
p247
sg19
S'SF'
p248
sg221
S'98'
p249
sg21
S'.545'
p250
sg25
S'NBA'
p251
sg27
S'1.6'
p252
sg29
S'19.9'
p253
sg31
S'7.2'
p254
sg33
S'3.4'
p255
sg35
S'11.5'
p256
sg37
S'24'
p257
sg39
S'PHO'
p258
sg41
S'17'
p259
sg43
S'0.3'
p260
sg45
S'8.7'
p261
sg47
S'1.9'
p262
sg49
S'19.9'
p263
sg51
S'8.1'
p264
sg53
S'1975-76'
p265
sg55
S'8.7'
p266
sg57
g3
sg58
S'.438'
p267
sg60
S'146'
p268
sg62
g3
sba(isrc.gp1.models.Per100Possession
Per100Possession
p269
(dp270
g8
S'3.1'
p271
sg10
g3
sg11
S'.466'
p272
sg217
g3
sg13
S'3.6'
p273
sg15
g3
sg16
g3
sg17
S'17.1'
p274
sg19
S'SF'
p275
sg221
S'99'
p276
sg21
S'.660'
p277
sg25
S'NBA'
p278
sg27
S'1.1'
p279
sg29
S'16.8'
p280
sg31
S'8.1'
p281
sg33
S'2.3'
p282
sg35
S'9.5'
p283
sg37
S'25'
p284
sg39
S'BOS'
p285
sg41
S'68'
p286
sg43
S'0.3'
p287
sg45
S'7.8'
p288
sg47
S'1.5'
p289
sg49
S'16.8'
p290
sg51
S'6.4'
p291
sg53
S'1976-77'
p292
sg55
S'7.8'
p293
sg57
g3
sg58
S'.466'
p294
sg60
S'1051'
p295
sg62
g3
sba(isrc.gp1.models.Per100Possession
Per100Possession
p296
(dp297
g8
S'2.6'
p298
sg10
g3
sg11
S'.423'
p299
sg217
S'92'
p300
sg13
S'3.2'
p301
sg15
g3
sg16
g3
sg17
S'15.6'
p302
sg19
S'SF'
p303
sg221
S'102'
p304
sg21
S'.722'
p305
sg25
S'NBA'
p306
sg27
S'1.5'
p307
sg29
S'16.3'
p308
sg31
S'7.4'
p309
sg33
S'2.5'
p310
sg35
S'7.7'
p311
sg37
S'26'
p312
sg39
S'TOT'
p313
sg41
S'56'
p314
sg43
S'1.0'
p315
sg45
S'6.9'
p316
sg47
S'1.8'
p317
sg49
S'16.3'
p318
sg51
S'5.1'
p319
sg53
S'1977-78'
p320
sg55
S'6.9'
p321
sg57
S'2.9'
p322
sg58
S'.423'
p323
sg60
S'643'
p324
sg62
g3
sba(isrc.gp1.models.Per100Possession
Per100Possession
p325
(dp326
g8
S'2.1'
p327
sg10
g3
sg11
S'.330'
p328
sg217
S'76'
p329
sg13
S'2.1'
p330
sg15
g3
sg16
g3
sg17
S'13.8'
p331
sg19
S'SF'
p332
sg221
S'102'
p333
sg21
S'.824'
p334
sg25
S'NBA'
p335
sg27
S'1.3'
p336
sg29
S'17.0'
p337
sg31
S'6.3'
p338
sg33
S'3.2'
p339
sg35
S'6.9'
p340
sg37
S'26'
p341
sg39
S'BOS'
p342
sg41
S'26'
p343
sg43
S'0.7'
p344
sg45
S'5.6'
p345
sg47
S'2.6'
p346
sg49
S'17.0'
p347
sg51
S'4.8'
p348
sg53
S'1977-78'
p349
sg55
S'5.6'
p350
sg57
S'3.7'
p351
sg58
S'.330'
p352
sg60
S'243'
p353
sg62
g3
sba(isrc.gp1.models.Per100Possession
Per100Possession
p354
(dp355
g8
S'3.0'
p356
sg10
g3
sg11
S'.483'
p357
sg217
S'102'
p358
sg13
S'3.9'
p359
sg15
g3
sg16
g3
sg17
S'16.6'
p360
sg19
S'SF'
p361
sg221
S'101'
p362
sg21
S'.632'
p363
sg25
S'NBA'
p364
sg27
S'1.6'
p365
sg29
S'15.8'
p366
sg31
S'8.0'
p367
sg33
S'2.1'
p368
sg35
S'8.2'
p369
sg37
S'26'
p370
sg39
S'NOJ'
p371
sg41
S'30'
p372
sg43
S'1.1'
p373
sg45
S'7.6'
p374
sg47
S'1.3'
p375
sg49
S'15.8'
p376
sg51
S'5.2'
p377
sg53
S'1977-78'
p378
sg55
S'7.6'
p379
sg57
S'2.4'
p380
sg58
S'.483'
p381
sg60
S'400'
p382
sg62
g3
sbasS'_advanced'
p383
(lp384
(isrc.gp1.models.Advanced
Advanced
p385
(dp386
S'_offensiveReboundPercentage'
p387
S'7.8'
p388
sS'_turnOverPercentage'
p389
g3
sS'_winSharesPer48Minutes'
p390
S'.060'
p391
sS'_stealPercentage'
p392
S'1.8'
p393
sS'_usagePercentage'
p394
g3
sS'_totalReboundsPercentage'
p395
S'12.3'
p396
sS'_defensiveBoxPlusMinus'
p397
S'-0.4'
p398
sg19
S'SF'
p399
sS'_valueOverReplacementPlayer'
p400
S'-0.1'
p401
sS'_trueShootingPercentage'
p402
S'.467'
p403
sS'_defensiveReboundPercentage'
p404
S'16.8'
p405
sS'_freeThrowsAttempRate'
p406
S'.234'
p407
sS'_threePointsAttempRate'
p408
g3
sg25
S'NBA'
p409
sS'_offensiveBoxPlusMinues'
p410
S'-2.0'
p411
sS'_assistPercentage'
p412
S'11.0'
p413
sS'_defensiveWinShares'
p414
S'1.1'
p415
sg37
S'23'
p416
sg39
S'PHO'
p417
sg41
S'69'
p418
sS'_blockPercentage'
p419
S'0.8'
p420
sS'_playerEfficiencyRating'
p421
S'13.2'
p422
sS'_offensiveWinShares'
p423
S'0.2'
p424
sg60
S'1059'
p425
sS'_boxPlusMinus'
p426
S'-2.5'
p427
sg53
S'1974-75'
p428
sS'_winShares'
p429
S'1.3'
p430
sba(isrc.gp1.models.Advanced
Advanced
p431
(dp432
g387
S'8.3'
p433
sg389
g3
sg390
S'.026'
p434
sg392
S'1.6'
p435
sg394
g3
sg395
S'13.8'
p436
sg397
S'-1.5'
p437
sg19
S'SF'
p438
sg400
S'-0.1'
p439
sg402
S'.450'
p440
sg404
S'19.1'
p441
sg406
S'.172'
p442
sg408
g3
sg25
S'NBA'
p443
sg410
S'-3.0'
p444
sg412
S'13.3'
p445
sg414
S'0.2'
p446
sg37
S'24'
p447
sg39
S'PHO'
p448
sg41
S'17'
p449
sg419
S'0.4'
p450
sg421
S'12.7'
p451
sg423
S'-0.1'
p452
sg60
S'146'
p453
sg426
S'-4.5'
p454
sg53
S'1975-76'
p455
sg429
S'0.1'
p456
sba(isrc.gp1.models.Advanced
Advanced
p457
(dp458
g387
S'6.9'
p459
sg389
g3
sg390
S'.054'
p460
sg392
S'1.1'
p461
sg394
g3
sg395
S'10.4'
p462
sg397
S'-0.3'
p463
sg19
S'SF'
p464
sg400
S'-0.2'
p465
sg402
S'.482'
p466
sg404
S'13.9'
p467
sg406
S'.134'
p468
sg408
g3
sg25
S'NBA'
p469
sg410
S'-2.3'
p470
sg412
S'11.6'
p471
sg414
S'1.2'
p472
sg37
S'25'
p473
sg39
S'BOS'
p474
sg41
S'68'
p475
sg419
S'0.3'
p476
sg421
S'10.9'
p477
sg423
S'0.0'
p478
sg60
S'1051'
p479
sg426
S'-2.6'
p480
sg53
S'1976-77'
p481
sg429
S'1.2'
p482
sba(isrc.gp1.models.Advanced
Advanced
p483
(dp484
g387
S'5.9'
p485
sg389
S'14.4'
p486
sg390
S'.039'
p487
sg392
S'1.5'
p488
sg394
S'17.4'
p489
sg395
S'8.5'
p490
sg397
S'-0.5'
p491
sg19
S'SF'
p492
sg400
S'-0.3'
p493
sg402
S'.448'
p494
sg404
S'10.9'
p495
sg406
S'.154'
p496
sg408
g3
sg25
S'NBA'
p497
sg410
S'-3.1'
p498
sg412
S'9.7'
p499
sg414
S'0.6'
p500
sg37
S'26'
p501
sg39
S'TOT'
p502
sg41
S'56'
p503
sg419
S'1.1'
p504
sg421
S'8.9'
p505
sg423
S'-0.1'
p506
sg60
S'643'
p507
sg426
S'-3.7'
p508
sg53
S'1977-78'
p509
sg429
S'0.5'
p510
sba(isrc.gp1.models.Advanced
Advanced
p511
(dp512
g387
S'4.7'
p513
sg389
S'16.9'
p514
sg390
S'-0.050'
p515
sg392
S'1.3'
p516
sg394
S'18.9'
p517
sg395
S'7.7'
p518
sg397
S'-1.4'
p519
sg19
S'SF'
p520
sg400
S'-0.4'
p521
sg402
S'.376'
p522
sg404
S'10.6'
p523
sg406
S'.187'
p524
sg408
g3
sg25
S'NBA'
p525
sg410
S'-6.6'
p526
sg412
S'6.0'
p527
sg414
S'0.2'
p528
sg37
S'26'
p529
sg39
S'BOS'
p530
sg41
S'26'
p531
sg419
S'0.8'
p532
sg421
S'4.1'
p533
sg423
S'-0.5'
p534
sg60
S'243'
p535
sg426
S'-8.0'
p536
sg53
S'1977-78'
p537
sg429
S'-0.3'
p538
sba(isrc.gp1.models.Advanced
Advanced
p539
(dp540
g387
S'6.6'
p541
sg389
S'12.7'
p542
sg390
S'.092'
p543
sg392
S'1.6'
p544
sg394
S'16.4'
p545
sg395
S'8.9'
p546
sg397
S'0.0'
p547
sg19
S'SF'
p548
sg400
S'0.1'
p549
sg402
S'.496'
p550
sg404
S'11.1'
p551
sg406
S'.133'
p552
sg408
g3
sg25
S'NBA'
p553
sg410
S'-1.0'
p554
sg412
S'12.0'
p555
sg414
S'0.4'
p556
sg37
S'26'
p557
sg39
S'NOJ'
p558
sg41
S'30'
p559
sg419
S'1.2'
p560
sg421
S'11.8'
p561
sg423
S'0.4'
p562
sg60
S'400'
p563
sg426
S'-1.0'
p564
sg53
S'1977-78'
p565
sg429
S'0.8'
p566
sbasS'_per36Minutes'
p567
(lp568
(isrc.gp1.models.Per36Minutes
Per36Minutes
p569
(dp570
g8
S'2.8'
p571
sg10
g3
sg11
S'.433'
p572
sg13
S'2.7'
p573
sg15
g3
sg16
g3
sg17
S'14.2'
p574
sg19
S'SF'
p575
sg21
S'.695'
p576
sg25
S'NBA'
p577
sg27
S'1.4'
p578
sg29
S'13.8'
p579
sg31
S'5.1'
p580
sg33
S'3.2'
p581
sg35
S'8.6'
p582
sg37
S'23'
p583
sg39
S'PHO'
p584
sg41
S'69'
p585
sg43
S'0.5'
p586
sg45
S'6.0'
p587
sg47
S'2.2'
p588
sg49
S'13.8'
p589
sg51
S'5.8'
p590
sg53
S'1974-75'
p591
sg55
S'6.0'
p592
sg57
g3
sg58
S'.433'
p593
sg60
S'1059'
p594
sg62
g3
sba(isrc.gp1.models.Per36Minutes
Per36Minutes
p595
(dp596
g8
S'2.7'
p597
sg10
g3
sg11
S'.438'
p598
sg13
S'3.2'
p599
sg15
g3
sg16
g3
sg17
S'15.3'
p600
sg19
S'SF'
p601
sg21
S'.545'
p602
sg25
S'NBA'
p603
sg27
S'1.2'
p604
sg29
S'15.8'
p605
sg31
S'5.7'
p606
sg33
S'2.7'
p607
sg35
S'9.1'
p608
sg37
S'24'
p609
sg39
S'PHO'
p610
sg41
S'17'
p611
sg43
S'0.2'
p612
sg45
S'6.9'
p613
sg47
S'1.5'
p614
sg49
S'15.8'
p615
sg51
S'6.4'
p616
sg53
S'1975-76'
p617
sg55
S'6.9'
p618
sg57
g3
sg58
S'.438'
p619
sg60
S'146'
p620
sg62
g3
sba(isrc.gp1.models.Per36Minutes
Per36Minutes
p621
(dp622
g8
S'2.5'
p623
sg10
g3
sg11
S'.466'
p624
sg13
S'2.9'
p625
sg15
g3
sg16
g3
sg17
S'13.8'
p626
sg19
S'SF'
p627
sg21
S'.660'
p628
sg25
S'NBA'
p629
sg27
S'0.9'
p630
sg29
S'13.5'
p631
sg31
S'6.5'
p632
sg33
S'1.8'
p633
sg35
S'7.6'
p634
sg37
S'25'
p635
sg39
S'BOS'
p636
sg41
S'68'
p637
sg43
S'0.2'
p638
sg45
S'6.3'
p639
sg47
S'1.2'
p640
sg49
S'13.5'
p641
sg51
S'5.1'
p642
sg53
S'1976-77'
p643
sg55
S'6.3'
p644
sg57
g3
sg58
S'.466'
p645
sg60
S'1051'
p646
sg62
g3
sba(isrc.gp1.models.Per36Minutes
Per36Minutes
p647
(dp648
g8
S'2.1'
p649
sg10
g3
sg11
S'.423'
p650
sg13
S'2.6'
p651
sg15
g3
sg16
g3
sg17
S'12.5'
p652
sg19
S'SF'
p653
sg21
S'.722'
p654
sg25
S'NBA'
p655
sg27
S'1.2'
p656
sg29
S'13.1'
p657
sg31
S'5.9'
p658
sg33
S'2.0'
p659
sg35
S'6.2'
p660
sg37
S'26'
p661
sg39
S'TOT'
p662
sg41
S'56'
p663
sg43
S'0.8'
p664
sg45
S'5.5'
p665
sg47
S'1.5'
p666
sg49
S'13.1'
p667
sg51
S'4.1'
p668
sg53
S'1977-78'
p669
sg55
S'5.5'
p670
sg57
S'2.4'
p671
sg58
S'.423'
p672
sg60
S'643'
p673
sg62
g3
sba(isrc.gp1.models.Per36Minutes
Per36Minutes
p674
(dp675
g8
S'1.6'
p676
sg10
g3
sg11
S'.330'
p677
sg13
S'1.6'
p678
sg15
g3
sg16
g3
sg17
S'11.0'
p679
sg19
S'SF'
p680
sg21
S'.824'
p681
sg25
S'NBA'
p682
sg27
S'1.0'
p683
sg29
S'13.5'
p684
sg31
S'5.0'
p685
sg33
S'2.5'
p686
sg35
S'5.5'
p687
sg37
S'26'
p688
sg39
S'BOS'
p689
sg41
S'26'
p690
sg43
S'0.6'
p691
sg45
S'4.4'
p692
sg47
S'2.1'
p693
sg49
S'13.5'
p694
sg51
S'3.9'
p695
sg53
S'1977-78'
p696
sg55
S'4.4'
p697
sg57
S'3.0'
p698
sg58
S'.330'
p699
sg60
S'243'
p700
sg62
g3
sba(isrc.gp1.models.Per36Minutes
Per36Minutes
p701
(dp702
g8
S'2.4'
p703
sg10
g3
sg11
S'.483'
p704
sg13
S'3.2'
p705
sg15
g3
sg16
g3
sg17
S'13.5'
p706
sg19
S'SF'
p707
sg21
S'.632'
p708
sg25
S'NBA'
p709
sg27
S'1.3'
p710
sg29
S'12.9'
p711
sg31
S'6.5'
p712
sg33
S'1.7'
p713
sg35
S'6.7'
p714
sg37
S'26'
p715
sg39
S'NOJ'
p716
sg41
S'30'
p717
sg43
S'0.9'
p718
sg45
S'6.2'
p719
sg47
S'1.1'
p720
sg49
S'12.9'
p721
sg51
S'4.2'
p722
sg53
S'1977-78'
p723
sg55
S'6.2'
p724
sg57
S'2.0'
p725
sg58
S'.483'
p726
sg60
S'400'
p727
sg62
g3
sbasS'_fromYear'
p728
S'1975'
p729
sS'_url'
p730
S'http://www.basketball-reference.com/players/s/saundfr01.html'
p731
sS'_perGame'
p732
(isrc.gp1.models.PerGame
PerGame
p733
(dp734
g8
S'0.9'
p735
sg10
g3
sg11
S'.483'
p736
sS'_effectiveFieldGalPercentage'
p737
S'.483'
p738
sg13
S'1.2'
p739
sg15
g3
sg16
g3
sg17
S'5.0'
p740
sg19
S'SF'
p741
sg21
S'.632'
p742
sg25
S'NBA'
p743
sg27
S'0.5'
p744
sg31
S'2.4'
p745
sS'_fieldGoalsttempted'
p746
S'4.8'
p747
sg33
S'0.6'
p748
sg35
S'2.5'
p749
sg37
S'26'
p750
sg39
S'NOJ'
p751
sg41
S'30'
p752
sg43
S'0.3'
p753
sg45
S'2.3'
p754
sg47
S'0.4'
p755
sg49
S'4.8'
p756
sg51
S'1.6'
p757
sg53
S'1977-78'
p758
sg55
S'2.3'
p759
sg57
S'0.7'
p760
sg58
S'.483'
p761
sg60
S'13.3'
p762
sg62
g3
sbsS'_weight'
p763
S'210'
p764
sS'_dob'
p765
S'13-6-1951'
p766
sS'_salary'
p767
(lp768
sg19
S'F'
p769
sb.