(isrc.gp1.models.Player
Player
p0
(dp1
S'_experience'
p2
S'NA'
p3
sS'_totals'
p4
(lp5
(isrc.gp1.models.Totals
Totals
p6
(dp7
S'_offensiveRebounds'
p8
g3
sS'_threePointsAttempted'
p9
g3
sS'_fieldGoalsPercentage'
p10
S'.237'
p11
sS'_assist'
p12
S'56'
p13
sS'_threePointsPercentage'
p14
g3
sS'_threePoints'
p15
g3
sS'_points'
p16
S'354'
p17
sS'_position'
p18
g3
sS'_freeThrowsPercentage'
p19
S'.681'
p20
sS'_effectiveFieldGoalPercentage'
p21
S'.237'
p22
sS'_league'
p23
S'BAA'
p24
sS'_steals'
p25
g3
sS'_fieldGoalsAttempted'
p26
S'548'
p27
sS'_personalFouls'
p28
S'123'
p29
sS'_freeThrowsAttempted'
p30
S'138'
p31
sS'_totalRebounds'
p32
g3
sS'_age'
p33
S'30'
p34
sS'_team'
p35
S'TOT'
p36
sS'_games'
p37
S'57'
p38
sS'_blocks'
p39
g3
sS'_twoPoints'
p40
S'130'
p41
sS'_freeThrows'
p42
S'94'
p43
sS'_twoPointsAttempted'
p44
S'548'
p45
sS'_defensiveRebounds'
p46
g3
sS'_season'
p47
S'1946-47'
p48
sS'_fieldGoals'
p49
S'130'
p50
sS'_turnOvers'
p51
g3
sS'_twoPointsPercentage'
p52
S'.237'
p53
sS'_minutesPlayed'
p54
g3
sS'_gamesStarted'
p55
g3
sba(isrc.gp1.models.Totals
Totals
p56
(dp57
g8
g3
sg9
g3
sg10
S'.244'
p58
sg12
S'17'
p59
sg14
g3
sg15
g3
sg16
S'106'
p60
sg18
g3
sg19
S'.645'
p61
sg21
S'.244'
p62
sg23
S'BAA'
p63
sg25
g3
sg26
S'176'
p64
sg28
S'29'
p65
sg30
S'31'
p66
sg32
g3
sg33
S'30'
p67
sg35
S'CLR'
p68
sg37
S'16'
p69
sg39
g3
sg40
S'43'
p70
sg42
S'20'
p71
sg44
S'176'
p72
sg46
g3
sg47
S'1946-47'
p73
sg49
S'43'
p74
sg51
g3
sg52
S'.244'
p75
sg54
g3
sg55
g3
sba(isrc.gp1.models.Totals
Totals
p76
(dp77
g8
g3
sg9
g3
sg10
S'.234'
p78
sg12
S'39'
p79
sg14
g3
sg15
g3
sg16
S'248'
p80
sg18
g3
sg19
S'.692'
p81
sg21
S'.234'
p82
sg23
S'BAA'
p83
sg25
g3
sg26
S'372'
p84
sg28
S'94'
p85
sg30
S'107'
p86
sg32
g3
sg33
S'30'
p87
sg35
S'TRH'
p88
sg37
S'41'
p89
sg39
g3
sg40
S'87'
p90
sg42
S'74'
p91
sg44
S'372'
p92
sg46
g3
sg47
S'1946-47'
p93
sg49
S'87'
p94
sg51
g3
sg52
S'.234'
p95
sg54
g3
sg55
g3
sba(isrc.gp1.models.Totals
Totals
p96
(dp97
g8
g3
sg9
g3
sg10
S'.284'
p98
sg12
S'28'
p99
sg14
g3
sg15
g3
sg16
S'383'
p100
sg18
g3
sg19
S'.731'
p101
sg21
S'.284'
p102
sg23
S'BAA'
p103
sg25
g3
sg26
S'469'
p104
sg28
S'116'
p105
sg30
S'160'
p106
sg32
g3
sg33
S'31'
p107
sg35
S'BLB'
p108
sg37
S'48'
p109
sg39
g3
sg40
S'133'
p110
sg42
S'117'
p111
sg44
S'469'
p112
sg46
g3
sg47
S'1947-48'
p113
sg49
S'133'
p114
sg51
g3
sg52
S'.284'
p115
sg54
g3
sg55
g3
sba(isrc.gp1.models.Totals
Totals
p116
(dp117
g8
g3
sg9
g3
sg10
S'.234'
p118
sg12
S'53'
p119
sg14
g3
sg15
g3
sg16
S'195'
p120
sg18
g3
sg19
S'.714'
p121
sg21
S'.234'
p122
sg23
S'BAA'
p123
sg25
g3
sg26
S'278'
p124
sg28
S'107'
p125
sg30
S'91'
p126
sg32
g3
sg33
S'32'
p127
sg35
S'WSC'
p128
sg37
S'50'
p129
sg39
g3
sg40
S'65'
p130
sg42
S'65'
p131
sg44
S'278'
p132
sg46
g3
sg47
S'1948-49'
p133
sg49
S'65'
p134
sg51
g3
sg52
S'.234'
p135
sg54
g3
sg55
g3
sba(isrc.gp1.models.Totals
Totals
p136
(dp137
g8
g3
sg9
g3
sg10
S'.297'
p138
sg12
S'66'
p139
sg14
g3
sg15
g3
sg16
S'209'
p140
sg18
g3
sg19
S'.755'
p141
sg21
S'.297'
p142
sg23
S'NBA'
p143
sg25
g3
sg26
S'212'
p144
sg28
S'106'
p145
sg30
S'110'
p146
sg32
g3
sg33
S'33'
p147
sg35
S'TOT'
p148
sg37
S'50'
p149
sg39
g3
sg40
S'63'
p150
sg42
S'83'
p151
sg44
S'212'
p152
sg46
g3
sg47
S'1949-50'
p153
sg49
S'63'
p154
sg51
g3
sg52
S'.297'
p155
sg54
g3
sg55
g3
sba(isrc.gp1.models.Totals
Totals
p156
(dp157
g8
g3
sg9
g3
sg10
S'.267'
p158
sg12
S'10'
p159
sg14
g3
sg15
g3
sg16
S'43'
p160
sg18
g3
sg19
S'.679'
p161
sg21
S'.267'
p162
sg23
S'NBA'
p163
sg25
g3
sg26
S'45'
p164
sg28
S'27'
p165
sg30
S'28'
p166
sg32
g3
sg33
S'33'
p167
sg35
S'WSC'
p168
sg37
S'13'
p169
sg39
g3
sg40
S'12'
p170
sg42
S'19'
p171
sg44
S'45'
p172
sg46
g3
sg47
S'1949-50'
p173
sg49
S'12'
p174
sg51
g3
sg52
S'.267'
p175
sg54
g3
sg55
g3
sba(isrc.gp1.models.Totals
Totals
p176
(dp177
g8
g3
sg9
g3
sg10
S'.289'
p178
sg12
S'8'
p179
sg14
g3
sg15
g3
sg16
S'41'
p180
sg18
g3
sg19
S'.714'
p181
sg21
S'.289'
p182
sg23
S'NBA'
p183
sg25
g3
sg26
S'45'
p184
sg28
S'12'
p185
sg30
S'21'
p186
sg32
g3
sg33
S'33'
p187
sg35
S'TRI'
p188
sg37
g179
sg39
g3
sg40
S'13'
p189
sg42
S'15'
p190
sg44
S'45'
p191
sg46
g3
sg47
S'1949-50'
p192
sg49
S'13'
p193
sg51
g3
sg52
S'.289'
p194
sg54
g3
sg55
g3
sba(isrc.gp1.models.Totals
Totals
p195
(dp196
g8
g3
sg9
g3
sg10
S'.311'
p197
sg12
S'48'
p198
sg14
g3
sg15
g3
sg16
S'125'
p199
sg18
g3
sg19
S'.803'
p200
sg21
S'.311'
p201
sg23
S'NBA'
p202
sg25
g3
sg26
S'122'
p203
sg28
S'67'
p204
sg30
S'61'
p205
sg32
g3
sg33
S'33'
p206
sg35
S'SHE'
p207
sg37
S'29'
p208
sg39
g3
sg40
S'38'
p209
sg42
S'49'
p210
sg44
S'122'
p211
sg46
g3
sg47
S'1949-50'
p212
sg49
S'38'
p213
sg51
g3
sg52
S'.311'
p214
sg54
g3
sg55
g3
sbasS'_college'
p215
S'University of Wisconsin'
p216
sS'_toYear'
p217
S'1950'
p218
sS'_height'
p219
S'6-2'
p220
sS'_active'
p221
I00
sS'_shootingHand'
p222
VRight
p223
sS'_name'
p224
S'Dick Schulz'
p225
sS'_per100Possessions'
p226
(lp227
sS'_advanced'
p228
(lp229
(isrc.gp1.models.Advanced
Advanced
p230
(dp231
S'_offensiveReboundPercentage'
p232
g3
sS'_turnOverPercentage'
p233
g3
sS'_winSharesPer48Minutes'
p234
g3
sS'_stealPercentage'
p235
g3
sS'_usagePercentage'
p236
g3
sS'_totalReboundsPercentage'
p237
g3
sS'_defensiveBoxPlusMinus'
p238
g3
sg18
g3
sS'_valueOverReplacementPlayer'
p239
g3
sS'_trueShootingPercentage'
p240
S'.291'
p241
sS'_defensiveReboundPercentage'
p242
g3
sS'_freeThrowsAttempRate'
p243
S'.252'
p244
sS'_threePointsAttempRate'
p245
g3
sg23
S'BAA'
p246
sS'_offensiveBoxPlusMinues'
p247
g3
sS'_assistPercentage'
p248
g3
sS'_defensiveWinShares'
p249
S'0.9'
p250
sg33
S'30'
p251
sg35
S'TOT'
p252
sg37
S'57'
p253
sS'_blockPercentage'
p254
g3
sS'_playerEfficiencyRating'
p255
g3
sS'_offensiveWinShares'
p256
S'-0.4'
p257
sg54
g3
sS'_boxPlusMinus'
p258
g3
sg47
S'1946-47'
p259
sS'_winShares'
p260
S'0.6'
p261
sba(isrc.gp1.models.Advanced
Advanced
p262
(dp263
g232
g3
sg233
g3
sg234
g3
sg235
g3
sg236
g3
sg237
g3
sg238
g3
sg18
g3
sg239
g3
sg240
S'.279'
p264
sg242
g3
sg243
S'.176'
p265
sg245
g3
sg23
S'BAA'
p266
sg247
g3
sg248
g3
sg249
S'0.2'
p267
sg33
S'30'
p268
sg35
S'CLR'
p269
sg37
S'16'
p270
sg254
g3
sg255
g3
sg256
S'-0.3'
p271
sg54
g3
sg258
g3
sg47
S'1946-47'
p272
sg260
S'-0.1'
p273
sba(isrc.gp1.models.Advanced
Advanced
p274
(dp275
g232
g3
sg233
g3
sg234
g3
sg235
g3
sg236
g3
sg237
g3
sg238
g3
sg18
g3
sg239
g3
sg240
S'.296'
p276
sg242
g3
sg243
S'.288'
p277
sg245
g3
sg23
S'BAA'
p278
sg247
g3
sg248
g3
sg249
S'0.7'
p279
sg33
S'30'
p280
sg35
S'TRH'
p281
sg37
S'41'
p282
sg254
g3
sg255
g3
sg256
S'-0.1'
p283
sg54
g3
sg258
g3
sg47
S'1946-47'
p284
sg260
S'0.7'
p285
sba(isrc.gp1.models.Advanced
Advanced
p286
(dp287
g232
g3
sg233
g3
sg234
g3
sg235
g3
sg236
g3
sg237
g3
sg238
g3
sg18
g3
sg239
g3
sg240
S'.355'
p288
sg242
g3
sg243
S'.341'
p289
sg245
g3
sg23
S'BAA'
p290
sg247
g3
sg248
g3
sg249
S'0.9'
p291
sg33
S'31'
p292
sg35
S'BLB'
p293
sg37
S'48'
p294
sg254
g3
sg255
g3
sg256
S'2.1'
p295
sg54
g3
sg258
g3
sg47
S'1947-48'
p296
sg260
S'2.9'
p297
sba(isrc.gp1.models.Advanced
Advanced
p298
(dp299
g232
g3
sg233
g3
sg234
g3
sg235
g3
sg236
g3
sg237
g3
sg238
g3
sg18
g3
sg239
g3
sg240
S'.307'
p300
sg242
g3
sg243
S'.327'
p301
sg245
g3
sg23
S'BAA'
p302
sg247
g3
sg248
g3
sg249
S'1.3'
p303
sg33
S'32'
p304
sg35
S'WSC'
p305
sg37
S'50'
p306
sg254
g3
sg255
g3
sg256
S'-1.2'
p307
sg54
g3
sg258
g3
sg47
S'1948-49'
p308
sg260
S'0.0'
p309
sba(isrc.gp1.models.Advanced
Advanced
p310
(dp311
g232
g3
sg233
g3
sg234
g3
sg235
g3
sg236
g3
sg237
g3
sg238
g3
sg18
g3
sg239
g3
sg240
S'.401'
p312
sg242
g3
sg243
S'.519'
p313
sg245
g3
sg23
S'NBA'
p314
sg247
g3
sg248
g3
sg249
S'0.2'
p315
sg33
S'33'
p316
sg35
S'TOT'
p317
sg37
S'50'
p318
sg254
g3
sg255
g3
sg256
S'0.6'
p319
sg54
g3
sg258
g3
sg47
S'1949-50'
p320
sg260
S'0.8'
p321
sba(isrc.gp1.models.Advanced
Advanced
p322
(dp323
g232
g3
sg233
g3
sg234
g3
sg235
g3
sg236
g3
sg237
g3
sg238
g3
sg18
g3
sg239
g3
sg240
S'.375'
p324
sg242
g3
sg243
S'.622'
p325
sg245
g3
sg23
S'NBA'
p326
sg247
g3
sg248
g3
sg249
S'0.2'
p327
sg33
S'33'
p328
sg35
S'WSC'
p329
sg37
S'13'
p330
sg254
g3
sg255
g3
sg256
S'0.0'
p331
sg54
g3
sg258
g3
sg47
S'1949-50'
p332
sg260
S'0.2'
p333
sba(isrc.gp1.models.Advanced
Advanced
p334
(dp335
g232
g3
sg233
g3
sg234
g3
sg235
g3
sg236
g3
sg237
g3
sg238
g3
sg18
g3
sg239
g3
sg240
S'.378'
p336
sg242
g3
sg243
S'.467'
p337
sg245
g3
sg23
S'NBA'
p338
sg247
g3
sg248
g3
sg249
S'0.1'
p339
sg33
S'33'
p340
sg35
S'TRI'
p341
sg37
g179
sg254
g3
sg255
g3
sg256
S'0.0'
p342
sg54
g3
sg258
g3
sg47
S'1949-50'
p343
sg260
S'0.1'
p344
sba(isrc.gp1.models.Advanced
Advanced
p345
(dp346
g232
g3
sg233
g3
sg234
g3
sg235
g3
sg236
g3
sg237
g3
sg238
g3
sg18
g3
sg239
g3
sg240
S'.420'
p347
sg242
g3
sg243
S'.500'
p348
sg245
g3
sg23
S'NBA'
p349
sg247
g3
sg248
g3
sg249
S'-0.1'
p350
sg33
S'33'
p351
sg35
S'SHE'
p352
sg37
S'29'
p353
sg254
g3
sg255
g3
sg256
S'0.6'
p354
sg54
g3
sg258
g3
sg47
S'1949-50'
p355
sg260
S'0.4'
p356
sbasS'_per36Minutes'
p357
(lp358
(isrc.gp1.models.Per36Minutes
Per36Minutes
p359
(dp360
g8
g3
sg9
g3
sg10
S'.237'
p361
sg12
g3
sg14
g3
sg15
g3
sg16
g3
sg18
g3
sg19
S'.681'
p362
sg23
S'BAA'
p363
sg25
g3
sg26
g3
sg28
g3
sg30
g3
sg32
g3
sg33
S'30'
p364
sg35
S'TOT'
p365
sg37
S'57'
p366
sg39
g3
sg40
g3
sg42
g3
sg44
g3
sg46
g3
sg47
S'1946-47'
p367
sg49
g3
sg51
g3
sg52
S'.237'
p368
sg54
g3
sg55
g3
sba(isrc.gp1.models.Per36Minutes
Per36Minutes
p369
(dp370
g8
g3
sg9
g3
sg10
S'.244'
p371
sg12
g3
sg14
g3
sg15
g3
sg16
g3
sg18
g3
sg19
S'.645'
p372
sg23
S'BAA'
p373
sg25
g3
sg26
g3
sg28
g3
sg30
g3
sg32
g3
sg33
S'30'
p374
sg35
S'CLR'
p375
sg37
S'16'
p376
sg39
g3
sg40
g3
sg42
g3
sg44
g3
sg46
g3
sg47
S'1946-47'
p377
sg49
g3
sg51
g3
sg52
S'.244'
p378
sg54
g3
sg55
g3
sba(isrc.gp1.models.Per36Minutes
Per36Minutes
p379
(dp380
g8
g3
sg9
g3
sg10
S'.234'
p381
sg12
g3
sg14
g3
sg15
g3
sg16
g3
sg18
g3
sg19
S'.692'
p382
sg23
S'BAA'
p383
sg25
g3
sg26
g3
sg28
g3
sg30
g3
sg32
g3
sg33
S'30'
p384
sg35
S'TRH'
p385
sg37
S'41'
p386
sg39
g3
sg40
g3
sg42
g3
sg44
g3
sg46
g3
sg47
S'1946-47'
p387
sg49
g3
sg51
g3
sg52
S'.234'
p388
sg54
g3
sg55
g3
sba(isrc.gp1.models.Per36Minutes
Per36Minutes
p389
(dp390
g8
g3
sg9
g3
sg10
S'.284'
p391
sg12
g3
sg14
g3
sg15
g3
sg16
g3
sg18
g3
sg19
S'.731'
p392
sg23
S'BAA'
p393
sg25
g3
sg26
g3
sg28
g3
sg30
g3
sg32
g3
sg33
S'31'
p394
sg35
S'BLB'
p395
sg37
S'48'
p396
sg39
g3
sg40
g3
sg42
g3
sg44
g3
sg46
g3
sg47
S'1947-48'
p397
sg49
g3
sg51
g3
sg52
S'.284'
p398
sg54
g3
sg55
g3
sba(isrc.gp1.models.Per36Minutes
Per36Minutes
p399
(dp400
g8
g3
sg9
g3
sg10
S'.234'
p401
sg12
g3
sg14
g3
sg15
g3
sg16
g3
sg18
g3
sg19
S'.714'
p402
sg23
S'BAA'
p403
sg25
g3
sg26
g3
sg28
g3
sg30
g3
sg32
g3
sg33
S'32'
p404
sg35
S'WSC'
p405
sg37
S'50'
p406
sg39
g3
sg40
g3
sg42
g3
sg44
g3
sg46
g3
sg47
S'1948-49'
p407
sg49
g3
sg51
g3
sg52
S'.234'
p408
sg54
g3
sg55
g3
sba(isrc.gp1.models.Per36Minutes
Per36Minutes
p409
(dp410
g8
g3
sg9
g3
sg10
S'.297'
p411
sg12
g3
sg14
g3
sg15
g3
sg16
g3
sg18
g3
sg19
S'.755'
p412
sg23
S'NBA'
p413
sg25
g3
sg26
g3
sg28
g3
sg30
g3
sg32
g3
sg33
S'33'
p414
sg35
S'TOT'
p415
sg37
S'50'
p416
sg39
g3
sg40
g3
sg42
g3
sg44
g3
sg46
g3
sg47
S'1949-50'
p417
sg49
g3
sg51
g3
sg52
S'.297'
p418
sg54
g3
sg55
g3
sba(isrc.gp1.models.Per36Minutes
Per36Minutes
p419
(dp420
g8
g3
sg9
g3
sg10
S'.267'
p421
sg12
g3
sg14
g3
sg15
g3
sg16
g3
sg18
g3
sg19
S'.679'
p422
sg23
S'NBA'
p423
sg25
g3
sg26
g3
sg28
g3
sg30
g3
sg32
g3
sg33
S'33'
p424
sg35
S'WSC'
p425
sg37
S'13'
p426
sg39
g3
sg40
g3
sg42
g3
sg44
g3
sg46
g3
sg47
S'1949-50'
p427
sg49
g3
sg51
g3
sg52
S'.267'
p428
sg54
g3
sg55
g3
sba(isrc.gp1.models.Per36Minutes
Per36Minutes
p429
(dp430
g8
g3
sg9
g3
sg10
S'.289'
p431
sg12
g3
sg14
g3
sg15
g3
sg16
g3
sg18
g3
sg19
S'.714'
p432
sg23
S'NBA'
p433
sg25
g3
sg26
g3
sg28
g3
sg30
g3
sg32
g3
sg33
S'33'
p434
sg35
S'TRI'
p435
sg37
g179
sg39
g3
sg40
g3
sg42
g3
sg44
g3
sg46
g3
sg47
S'1949-50'
p436
sg49
g3
sg51
g3
sg52
S'.289'
p437
sg54
g3
sg55
g3
sba(isrc.gp1.models.Per36Minutes
Per36Minutes
p438
(dp439
g8
g3
sg9
g3
sg10
S'.311'
p440
sg12
g3
sg14
g3
sg15
g3
sg16
g3
sg18
g3
sg19
S'.803'
p441
sg23
S'NBA'
p442
sg25
g3
sg26
g3
sg28
g3
sg30
g3
sg32
g3
sg33
S'33'
p443
sg35
S'SHE'
p444
sg37
S'29'
p445
sg39
g3
sg40
g3
sg42
g3
sg44
g3
sg46
g3
sg47
S'1949-50'
p446
sg49
g3
sg51
g3
sg52
S'.311'
p447
sg54
g3
sg55
g3
sbasS'_fromYear'
p448
S'1947'
p449
sS'_url'
p450
S'http://www.basketball-reference.com/players/s/schuldi01.html'
p451
sS'_perGame'
p452
(isrc.gp1.models.PerGame
PerGame
p453
(dp454
g8
g3
sg9
g3
sg10
S'.311'
p455
sS'_effectiveFieldGalPercentage'
p456
S'.311'
p457
sg12
S'1.7'
p458
sg14
g3
sg15
g3
sg16
S'4.3'
p459
sg18
g3
sg19
S'.803'
p460
sg23
S'NBA'
p461
sg25
g3
sg28
S'2.3'
p462
sS'_fieldGoalsttempted'
p463
S'4.2'
p464
sg30
S'2.1'
p465
sg32
g3
sg33
S'33'
p466
sg35
S'SHE'
p467
sg37
S'29'
p468
sg39
g3
sg40
S'1.3'
p469
sg42
S'1.7'
p470
sg44
S'4.2'
p471
sg46
g3
sg47
S'1949-50'
p472
sg49
S'1.3'
p473
sg51
g3
sg52
S'.311'
p474
sg54
g3
sg55
g3
sbsS'_weight'
p475
S'192'
p476
sS'_dob'
p477
S'3-1-1917'
p478
sS'_salary'
p479
(lp480
sg18
S'F-G'
p481
sb.