(isrc.gp1.models.Player
Player
p0
(dp1
S'_experience'
p2
S'NA'
p3
sS'_totals'
p4
(lp5
(isrc.gp1.models.Totals
Totals
p6
(dp7
S'_offensiveRebounds'
p8
S'5'
p9
sS'_threePointsAttempted'
p10
g3
sS'_fieldGoalsPercentage'
p11
S'.385'
p12
sS'_assist'
p13
S'20'
p14
sS'_threePointsPercentage'
p15
g3
sS'_threePoints'
p16
g3
sS'_points'
p17
S'30'
p18
sS'_position'
p19
S'PG'
p20
sS'_freeThrowsPercentage'
p21
S'.667'
p22
sS'_effectiveFieldGoalPercentage'
p23
S'.385'
p24
sS'_league'
p25
S'NBA'
p26
sS'_steals'
p27
S'3'
p28
sS'_fieldGoalsAttempted'
p29
S'26'
p30
sS'_personalFouls'
p31
S'16'
p32
sS'_freeThrowsAttempted'
p33
S'15'
p34
sS'_totalRebounds'
p35
S'13'
p36
sS'_age'
p37
S'22'
p38
sS'_team'
p39
S'SAS'
p40
sS'_games'
p41
S'12'
p42
sS'_blocks'
p43
S'0'
p44
sS'_twoPoints'
p45
S'10'
p46
sS'_freeThrows'
p47
S'10'
p48
sS'_twoPointsAttempted'
p49
S'26'
p50
sS'_defensiveRebounds'
p51
S'8'
p52
sS'_season'
p53
S'1977-78'
p54
sS'_fieldGoals'
p55
S'10'
p56
sS'_turnOvers'
p57
S'19'
p58
sS'_twoPointsPercentage'
p59
S'.385'
p60
sS'_minutesPlayed'
p61
S'95'
p62
sS'_gamesStarted'
p63
g3
sbasS'_college'
p64
S'University of Missouri'
p65
sS'_toYear'
p66
S'1978'
p67
sS'_height'
p68
S'6-1'
p69
sS'_active'
p70
I00
sS'_shootingHand'
p71
VRight
p72
sS'_name'
p73
S'Scott Sims'
p74
sS'_per100Possessions'
p75
(lp76
(isrc.gp1.models.Per100Possession
Per100Possession
p77
(dp78
g8
S'2.3'
p79
sg10
g3
sg11
S'.385'
p80
sS'_offensiveRating'
p81
S'77'
p82
sg13
S'9.3'
p83
sg15
g3
sg16
g3
sg17
S'13.9'
p84
sg19
S'PG'
p85
sS'_defensiveRating'
p86
S'105'
p87
sg21
S'.667'
p88
sg25
S'NBA'
p89
sg27
S'1.4'
p90
sg29
S'12.1'
p91
sg31
S'7.4'
p92
sg33
S'7.0'
p93
sg35
S'6.0'
p94
sg37
S'22'
p95
sg39
S'SAS'
p96
sg41
S'12'
p97
sg43
S'0.0'
p98
sg45
S'4.6'
p99
sg47
S'4.6'
p100
sg49
S'12.1'
p101
sg51
S'3.7'
p102
sg53
S'1977-78'
p103
sg55
S'4.6'
p104
sg57
S'8.8'
p105
sg59
S'.385'
p106
sg61
S'95'
p107
sg63
g3
sbasS'_advanced'
p108
(lp109
(isrc.gp1.models.Advanced
Advanced
p110
(dp111
S'_offensiveReboundPercentage'
p112
S'5.8'
p113
sS'_turnOverPercentage'
p114
S'36.8'
p115
sS'_winSharesPer48Minutes'
p116
S'-0.088'
p117
sS'_stealPercentage'
p118
S'1.4'
p119
sS'_usagePercentage'
p120
S'21.0'
p121
sS'_totalReboundsPercentage'
p122
S'7.2'
p123
sS'_defensiveBoxPlusMinus'
p124
S'-2.2'
p125
sg19
S'PG'
p126
sS'_valueOverReplacementPlayer'
p127
S'-0.1'
p128
sS'_trueShootingPercentage'
p129
S'.460'
p130
sS'_defensiveReboundPercentage'
p131
S'8.5'
p132
sS'_freeThrowsAttempRate'
p133
S'.577'
p134
sS'_threePointsAttempRate'
p135
g3
sg25
S'NBA'
p136
sS'_offensiveBoxPlusMinues'
p137
S'-5.8'
p138
sS'_assistPercentage'
p139
S'24.7'
p140
sS'_defensiveWinShares'
p141
S'0.1'
p142
sg37
S'22'
p143
sg39
S'SAS'
p144
sg41
S'12'
p145
sS'_blockPercentage'
p146
S'0.0'
p147
sS'_playerEfficiencyRating'
p148
S'5.2'
p149
sS'_offensiveWinShares'
p150
S'-0.2'
p151
sg61
S'95'
p152
sS'_boxPlusMinus'
p153
S'-8.0'
p154
sg53
S'1977-78'
p155
sS'_winShares'
p156
S'-0.2'
p157
sbasS'_per36Minutes'
p158
(lp159
(isrc.gp1.models.Per36Minutes
Per36Minutes
p160
(dp161
g8
S'1.9'
p162
sg10
g3
sg11
S'.385'
p163
sg13
S'7.6'
p164
sg15
g3
sg16
g3
sg17
S'11.4'
p165
sg19
S'PG'
p166
sg21
S'.667'
p167
sg25
S'NBA'
p168
sg27
S'1.1'
p169
sg29
S'9.9'
p170
sg31
S'6.1'
p171
sg33
S'5.7'
p172
sg35
S'4.9'
p173
sg37
S'22'
p174
sg39
S'SAS'
p175
sg41
S'12'
p176
sg43
S'0.0'
p177
sg45
S'3.8'
p178
sg47
S'3.8'
p179
sg49
S'9.9'
p180
sg51
S'3.0'
p181
sg53
S'1977-78'
p182
sg55
S'3.8'
p183
sg57
S'7.2'
p184
sg59
S'.385'
p185
sg61
S'95'
p186
sg63
g3
sbasS'_fromYear'
p187
S'1978'
p188
sS'_url'
p189
S'http://www.basketball-reference.com/players/s/simssc01.html'
p190
sS'_perGame'
p191
(isrc.gp1.models.PerGame
PerGame
p192
(dp193
g8
S'0.4'
p194
sg10
g3
sg11
S'.385'
p195
sS'_effectiveFieldGalPercentage'
p196
S'.385'
p197
sg13
S'1.7'
p198
sg15
g3
sg16
g3
sg17
S'2.5'
p199
sg19
S'PG'
p200
sg21
S'.667'
p201
sg25
S'NBA'
p202
sg27
S'0.3'
p203
sg31
S'1.3'
p204
sS'_fieldGoalsttempted'
p205
S'2.2'
p206
sg33
S'1.3'
p207
sg35
S'1.1'
p208
sg37
S'22'
p209
sg39
S'SAS'
p210
sg41
S'12'
p211
sg43
S'0.0'
p212
sg45
S'0.8'
p213
sg47
S'0.8'
p214
sg49
S'2.2'
p215
sg51
S'0.7'
p216
sg53
S'1977-78'
p217
sg55
S'0.8'
p218
sg57
S'1.6'
p219
sg59
S'.385'
p220
sg61
S'7.9'
p221
sg63
g3
sbsS'_weight'
p222
S'170'
p223
sS'_dob'
p224
S'18-4-1955'
p225
sS'_salary'
p226
(lp227
sg19
S'G'
p228
sb.