(isrc.gp1.models.Player
Player
p0
(dp1
S'_experience'
p2
S'NA'
p3
sS'_totals'
p4
(lp5
(isrc.gp1.models.Totals
Totals
p6
(dp7
S'_offensiveRebounds'
p8
g3
sS'_threePointsAttempted'
p9
S'.387'
p10
sS'_fieldGoalsPercentage'
p11
S'36'
p12
sS'_assist'
p13
g3
sS'_threePointsPercentage'
p14
S'.387'
p15
sS'_threePoints'
p16
S'93'
p17
sS'_points'
p18
g3
sS'_position'
p19
S'SF'
p20
sS'_freeThrowsPercentage'
p21
S'93'
p22
sS'_effectiveFieldGoalPercentage'
p23
S'44'
p24
sS'_league'
p25
S'NBA'
p26
sS'_steals'
p27
g3
sS'_fieldGoalsAttempted'
p28
S'.387'
p29
sS'_personalFouls'
p30
g3
sS'_freeThrowsAttempted'
p31
S'38'
p32
sS'_totalRebounds'
p33
g3
sS'_age'
p34
S'22'
p35
sS'_team'
p36
S'PHO'
p37
sS'_games'
p38
S'29'
p39
sS'_blocks'
p40
g3
sS'_twoPoints'
p41
S'21'
p42
sS'_freeThrows'
p43
S'15'
p44
sS'_twoPointsAttempted'
p45
S'29'
p46
sS'_defensiveRebounds'
p47
g3
sS'_season'
p48
S'1972-73'
p49
sS'_fieldGoals'
p50
S'93'
p51
sS'_turnOvers'
p52
g3
sS'_twoPointsPercentage'
p53
S'.724'
p54
sS'_minutesPlayed'
p55
S'36'
p56
sS'_gamesStarted'
p57
S'196'
p58
sba(isrc.gp1.models.Totals
Totals
p59
(dp60
g8
S'16'
p61
sg9
S'3'
p62
sg11
S'0'
p63
sg13
g63
sg14
S'15'
p64
sg16
g63
sg18
g3
sg19
S'SF'
p65
sg21
S'13'
p66
sg23
S'4'
p67
sg25
S'ABA'
p68
sg27
S'9'
p69
sg28
S'.200'
p70
sg30
g3
sg31
g62
sg33
g62
sg34
S'23'
p71
sg36
S'VIR'
p72
sg38
S'5'
p73
sg40
g69
sg41
S'.200'
p74
sg43
S'1.000'
p75
sg45
S'.200'
p76
sg47
g67
sg48
S'1973-74'
p77
sg50
S'15'
p78
sg52
S'10'
p79
sg53
g67
sg55
g62
sg57
S'48'
p80
sba(isrc.gp1.models.Totals
Totals
p81
(dp82
g8
S'233'
p83
sg9
S'.100'
p84
sg11
S'1'
p85
sg13
S'47'
p86
sg14
S'209'
p87
sg16
S'10'
p88
sg18
g3
sg19
S'SF'
p89
sg21
S'130'
p90
sg23
S'69'
p91
sg25
S'ABA'
p92
sg27
S'20'
p93
sg28
S'.425'
p94
sg30
S'490'
p95
sg31
S'.775'
p96
sg33
S'88'
p97
sg34
S'24'
p98
sg36
S'SDA'
p99
sg38
S'71'
p100
sg40
S'88'
p101
sg41
S'484'
p102
sg43
S'89'
p103
sg45
S'.432'
p104
sg47
S'363'
p105
sg48
S'1974-75'
p106
sg50
S'494'
p107
sg52
S'115'
p108
sg53
S'.426'
p109
sg55
S'210'
p110
sg57
S'1316'
p111
sbasS'_college'
p112
S'University of Texas at El Paso'
p113
sS'_toYear'
p114
S'1975'
p115
sS'_height'
p116
S'6-6'
p117
sS'_active'
p118
I00
sS'_shootingHand'
p119
VRight
p120
sS'_name'
p121
S'Scott English'
p122
sS'_per100Possessions'
p123
(lp124
(isrc.gp1.models.Per100Possession
Per100Possession
p125
(dp126
g8
S'15.3'
p127
sg9
S'2.9'
p128
sg11
S'0.0'
p129
sS'_offensiveRating'
p130
g3
sg13
S'0.0'
p131
sg14
S'14.3'
p132
sg16
S'0.0'
p133
sg18
S'98'
p134
sg19
S'SF'
p135
sS'_defensiveRating'
p136
g3
sg21
S'12.4'
p137
sg25
S'ABA'
p138
sg27
S'8.6'
p139
sg28
S'.200'
p140
sg30
S'55'
p141
sg31
S'2.9'
p142
sg33
S'2.9'
p143
sg34
S'23'
p144
sg36
S'VIR'
p145
sg38
g73
sg40
S'8.6'
p146
sg41
S'.200'
p147
sg43
S'1.000'
p148
sg45
S'3.8'
p149
sg47
S'3.8'
p150
sg48
S'1973-74'
p151
sg50
S'14.3'
p152
sg52
S'9.5'
p153
sg53
S'3.8'
p154
sg55
S'2.9'
p155
sg57
S'48'
p156
sba(isrc.gp1.models.Per100Possession
Per100Possession
p157
(dp158
g8
S'8.1'
p159
sg9
S'.100'
p160
sg11
S'0.0'
p161
sg130
S'107'
p162
sg13
S'1.6'
p163
sg14
S'7.2'
p164
sg16
S'0.3'
p165
sg18
S'96'
p166
sg19
S'SF'
p167
sg136
g3
sg21
S'4.5'
p168
sg25
S'ABA'
p169
sg27
S'0.7'
p170
sg28
S'.425'
p171
sg30
S'16.9'
p172
sg31
S'.775'
p173
sg33
S'3.0'
p174
sg34
S'24'
p175
sg36
S'SDA'
p176
sg38
S'71'
p177
sg40
S'3.0'
p178
sg41
S'16.7'
p179
sg43
S'3.1'
p180
sg45
S'.432'
p181
sg47
S'12.6'
p182
sg48
S'1974-75'
p183
sg50
S'17.1'
p184
sg52
S'4.0'
p185
sg53
S'2.4'
p186
sg55
S'7.3'
p187
sg57
S'1316'
p188
sbasS'_advanced'
p189
(lp190
(isrc.gp1.models.Advanced
Advanced
p191
(dp192
S'_offensiveReboundPercentage'
p193
S'10.5'
p194
sS'_turnOverPercentage'
p195
g3
sS'_winSharesPer48Minutes'
p196
g3
sS'_stealPercentage'
p197
S'.002'
p198
sS'_usagePercentage'
p199
g3
sS'_totalReboundsPercentage'
p200
S'0.1'
p201
sS'_defensiveBoxPlusMinus'
p202
g3
sg19
S'SF'
p203
sS'_valueOverReplacementPlayer'
p204
g3
sS'_trueShootingPercentage'
p205
S'.440'
p206
sS'_defensiveReboundPercentage'
p207
S'-0.1'
p208
sS'_freeThrowsAttempRate'
p209
S'10.9'
p210
sS'_threePointsAttempRate'
p211
S'.312'
p212
sg25
S'NBA'
p213
sS'_offensiveBoxPlusMinues'
p214
g3
sS'_assistPercentage'
p215
S'0.0'
p216
sS'_defensiveWinShares'
p217
g3
sg34
S'22'
p218
sg36
S'PHO'
p219
sg38
S'29'
p220
sS'_blockPercentage'
p221
g3
sS'_playerEfficiencyRating'
p222
S'11.2'
p223
sS'_offensiveWinShares'
p224
g3
sg55
S'196'
p225
sS'_boxPlusMinus'
p226
g3
sg48
S'1972-73'
p227
sS'_winShares'
p228
g3
sba(isrc.gp1.models.Advanced
Advanced
p229
(dp230
g193
S'6.3'
p231
sg195
S'34.9'
p232
sg196
S'-0.182'
p233
sg197
S'2.9'
p234
sg199
S'20.8'
p235
sg200
S'16.7'
p236
sg202
S'1.5'
p237
sg19
S'SF'
p238
sg204
S'-0.1'
p239
sg205
S'.298'
p240
sg207
S'27.0'
p241
sg209
S'.267'
p242
sg211
S'.000'
p243
sg25
S'ABA'
p244
sg214
S'-9.6'
p245
sg215
S'10.6'
p246
sg217
S'0.1'
p247
sg34
S'23'
p248
sg36
S'VIR'
p249
sg38
g73
sg221
S'0.0'
p250
sg222
S'0.7'
p251
sg224
S'-0.3'
p252
sg55
S'48'
p253
sg226
S'-8.1'
p254
sg48
S'1973-74'
p255
sg228
S'-0.2'
p256
sba(isrc.gp1.models.Advanced
Advanced
p257
(dp258
g193
S'9.4'
p259
sg195
S'14.2'
p260
sg196
S'.038'
p261
sg197
S'1.6'
p262
sg199
S'18.2'
p263
sg200
S'13.3'
p264
sg202
S'-0.3'
p265
sg19
S'SF'
p266
sg204
S'-0.2'
p267
sg205
S'.460'
p268
sg207
S'17.3'
p269
sg209
S'.180'
p270
sg211
S'.020'
p271
sg25
S'ABA'
p272
sg214
S'-2.4'
p273
sg215
S'8.5'
p274
sg217
S'1.0'
p275
sg34
S'24'
p276
sg36
S'SDA'
p277
sg38
S'71'
p278
sg221
S'0.8'
p279
sg222
S'12.4'
p280
sg224
S'0.0'
p281
sg55
S'1316'
p282
sg226
S'-2.7'
p283
sg48
S'1974-75'
p284
sg228
S'1.0'
p285
sbasS'_per36Minutes'
p286
(lp287
(isrc.gp1.models.Per36Minutes
Per36Minutes
p288
(dp289
g8
g3
sg9
S'.387'
p290
sg11
S'6.6'
p291
sg13
g3
sg14
S'3.9'
p292
sg16
S'17.1'
p293
sg18
g3
sg19
S'SF'
p294
sg21
S'17.1'
p295
sg25
S'NBA'
p296
sg27
g3
sg28
S'.387'
p297
sg30
g3
sg31
S'7.0'
p298
sg33
g3
sg34
S'22'
p299
sg36
S'PHO'
p300
sg38
S'29'
p301
sg40
g3
sg41
S'5.3'
p302
sg43
S'2.8'
p303
sg45
S'.724'
p304
sg47
g3
sg48
S'1972-73'
p305
sg50
S'17.1'
p306
sg52
g3
sg53
S'8.1'
p307
sg55
S'6.6'
p308
sg57
S'196'
p309
sba(isrc.gp1.models.Per36Minutes
Per36Minutes
p310
(dp311
g8
S'12.0'
p312
sg9
S'2.3'
p313
sg11
S'0.0'
p314
sg13
S'0.0'
p315
sg14
S'11.3'
p316
sg16
S'0.0'
p317
sg18
g3
sg19
S'SF'
p318
sg21
S'9.7'
p319
sg25
S'ABA'
p320
sg27
S'6.8'
p321
sg28
S'.200'
p322
sg30
g3
sg31
S'2.3'
p323
sg33
S'2.3'
p324
sg34
S'23'
p325
sg36
S'VIR'
p326
sg38
g73
sg40
S'6.8'
p327
sg41
S'.200'
p328
sg43
S'1.000'
p329
sg45
S'3.0'
p330
sg47
S'3.0'
p331
sg48
S'1973-74'
p332
sg50
S'11.3'
p333
sg52
S'7.5'
p334
sg53
S'3.0'
p335
sg55
S'2.3'
p336
sg57
S'48'
p337
sba(isrc.gp1.models.Per36Minutes
Per36Minutes
p338
(dp339
g8
S'6.4'
p340
sg9
S'.100'
p341
sg11
S'0.0'
p342
sg13
S'1.3'
p343
sg14
S'5.7'
p344
sg16
S'0.3'
p345
sg18
g3
sg19
S'SF'
p346
sg21
S'3.6'
p347
sg25
S'ABA'
p348
sg27
S'0.5'
p349
sg28
S'.425'
p350
sg30
S'13.4'
p351
sg31
S'.775'
p352
sg33
S'2.4'
p353
sg34
S'24'
p354
sg36
S'SDA'
p355
sg38
S'71'
p356
sg40
S'2.4'
p357
sg41
S'13.2'
p358
sg43
S'2.4'
p359
sg45
S'.432'
p360
sg47
S'9.9'
p361
sg48
S'1974-75'
p362
sg50
S'13.5'
p363
sg52
S'3.1'
p364
sg53
S'1.9'
p365
sg55
S'5.7'
p366
sg57
S'1316'
p367
sbasS'_fromYear'
p368
S'1973'
p369
sS'_url'
p370
S'http://www.basketball-reference.com/players/e/englisc01.html'
p371
sS'_perGame'
p372
(isrc.gp1.models.PerGame
PerGame
p373
(dp374
g8
S'3.3'
p375
sg9
S'.100'
p376
sg11
S'0.0'
p377
sS'_effectiveFieldGalPercentage'
p378
S'1.0'
p379
sg13
S'0.7'
p380
sg14
S'2.9'
p381
sg16
S'0.1'
p382
sg18
g3
sg19
S'SF'
p383
sg21
S'1.8'
p384
sg25
S'ABA'
p385
sg27
S'0.3'
p386
sg30
S'6.9'
p387
sS'_fieldGoalsttempted'
p388
S'.425'
p389
sg31
S'.775'
p390
sg33
S'1.2'
p391
sg34
S'24'
p392
sg36
S'SDA'
p393
sg38
S'71'
p394
sg40
S'1.2'
p395
sg41
S'6.8'
p396
sg43
S'1.3'
p397
sg45
S'.432'
p398
sg47
S'5.1'
p399
sg48
S'1974-75'
p400
sg50
S'7.0'
p401
sg52
S'1.6'
p402
sg53
S'.426'
p403
sg55
S'3.0'
p404
sg57
S'18.5'
p405
sbsS'_weight'
p406
S'205'
p407
sS'_dob'
p408
S'20-10-1950'
p409
sS'_salary'
p410
(lp411
sg19
S'F'
p412
sb.