(isrc.gp1.models.Player
Player
p0
(dp1
S'_experience'
p2
S'NA'
p3
sS'_totals'
p4
(lp5
(isrc.gp1.models.Totals
Totals
p6
(dp7
S'_offensiveRebounds'
p8
S'50'
p9
sS'_threePointsAttempted'
p10
S'34'
p11
sS'_fieldGoalsPercentage'
p12
S'.484'
p13
sS'_assist'
p14
S'177'
p15
sS'_threePointsPercentage'
p16
S'.235'
p17
sS'_threePoints'
p18
S'8'
p19
sS'_points'
p20
S'788'
p21
sS'_position'
p22
S'SG'
p23
sS'_freeThrowsPercentage'
p24
S'.806'
p25
sS'_effectiveFieldGoalPercentage'
p26
S'.490'
p27
sS'_league'
p28
S'NBA'
p29
sS'_steals'
p30
S'81'
p31
sS'_fieldGoalsAttempted'
p32
S'690'
p33
sS'_personalFouls'
p34
S'174'
p35
sS'_freeThrowsAttempted'
p36
S'139'
p37
sS'_totalRebounds'
p38
S'164'
p39
sS'_age'
p40
S'22'
p41
sS'_team'
p42
S'LAL'
p43
sS'_games'
p44
S'74'
p45
sS'_blocks'
p46
S'19'
p47
sS'_twoPoints'
p48
S'326'
p49
sS'_freeThrows'
p50
S'112'
p51
sS'_twoPointsAttempted'
p52
S'656'
p53
sS'_defensiveRebounds'
p54
S'114'
p55
sS'_season'
p56
S'1983-84'
p57
sS'_fieldGoals'
p58
S'334'
p59
sS'_turnOvers'
p60
S'116'
p61
sS'_twoPointsPercentage'
p62
S'.497'
p63
sS'_minutesPlayed'
p64
S'1637'
p65
sS'_gamesStarted'
p66
S'49'
p67
sba(isrc.gp1.models.Totals
Totals
p68
(dp69
g8
S'57'
p70
sg10
S'60'
p71
sg12
S'.539'
p72
sg14
S'244'
p73
sg16
S'.433'
p74
sg18
S'26'
p75
sg20
S'1295'
p76
sg22
S'SG'
p77
sg24
S'.820'
p78
sg26
S'.552'
p79
sg28
S'NBA'
p80
sg30
S'100'
p81
sg32
S'1003'
p82
sg34
S'197'
p83
sg36
S'228'
p84
sg38
S'210'
p85
sg40
S'23'
p86
sg42
S'LAL'
p87
sg44
S'81'
p88
sg46
S'17'
p89
sg48
S'515'
p90
sg50
S'187'
p91
sg52
S'943'
p92
sg54
S'153'
p93
sg56
S'1984-85'
p94
sg58
S'541'
p95
sg60
S'138'
p96
sg62
S'.546'
p97
sg64
S'2305'
p98
sg66
S'65'
p99
sba(isrc.gp1.models.Totals
Totals
p100
(dp101
g8
S'55'
p102
sg10
S'61'
p103
sg12
S'.513'
p104
sg14
S'164'
p105
sg16
S'.361'
p106
sg18
S'22'
p107
sg20
S'1174'
p108
sg22
S'SG'
p109
sg24
S'.784'
p110
sg26
S'.524'
p111
sg28
S'NBA'
p112
sg30
S'85'
p113
sg32
S'989'
p114
sg34
S'167'
p115
sg36
S'176'
p116
sg38
S'189'
p117
sg40
S'24'
p118
sg42
S'LAL'
p119
sg44
S'76'
p120
sg46
S'15'
p121
sg48
S'485'
p122
sg50
S'138'
p123
sg52
S'928'
p124
sg54
S'134'
p125
sg56
S'1985-86'
p126
sg58
S'507'
p127
sg60
S'110'
p128
sg62
S'.523'
p129
sg64
S'2190'
p130
sg66
S'62'
p131
sba(isrc.gp1.models.Totals
Totals
p132
(dp133
g8
S'63'
p134
sg10
S'149'
p135
sg12
S'.489'
p136
sg14
S'281'
p137
sg16
S'.436'
p138
sg18
S'65'
p139
sg20
S'1397'
p140
sg22
S'SG'
p141
sg24
S'.892'
p142
sg26
S'.517'
p143
sg28
S'NBA'
p144
sg30
S'125'
p145
sg32
S'1134'
p146
sg34
S'163'
p147
sg36
S'251'
p148
sg38
S'286'
p149
sg40
S'25'
p150
sg42
S'LAL'
p151
sg44
S'82'
p152
sg46
S'18'
p153
sg48
S'489'
p154
sg50
S'224'
p155
sg52
S'985'
p156
sg54
S'223'
p157
sg56
S'1986-87'
p158
sg58
S'554'
p159
sg60
S'144'
p160
sg62
S'.496'
p161
sg64
S'2729'
p162
sg66
S'82'
p163
sba(isrc.gp1.models.Totals
Totals
p164
(dp165
g8
S'76'
p166
sg10
S'179'
p167
sg12
S'.527'
p168
sg14
S'335'
p169
sg16
S'.346'
p170
sg18
S'62'
p171
sg20
S'1754'
p172
sg22
S'SG'
p173
sg24
S'.858'
p174
sg26
S'.550'
p175
sg28
S'NBA'
p176
sg30
S'155'
p177
sg32
S'1348'
p178
sg34
S'204'
p179
sg36
S'317'
p180
sg38
S'333'
p181
sg40
S'26'
p182
sg42
S'LAL'
p183
sg44
S'81'
p184
sg46
S'27'
p185
sg48
S'648'
p186
sg50
S'272'
p187
sg52
S'1169'
p188
sg54
S'257'
p189
sg56
S'1987-88'
p190
sg58
S'710'
p191
sg60
S'161'
p192
sg62
S'.554'
p193
sg64
S'3048'
p194
sg66
S'81'
p195
sba(isrc.gp1.models.Totals
Totals
p196
(dp197
g8
S'72'
p198
sg10
S'193'
p199
sg12
S'.491'
p200
sg14
S'231'
p201
sg16
S'.399'
p202
sg18
S'77'
p203
sg20
S'1448'
p204
sg22
S'SG'
p205
sg24
S'.863'
p206
sg26
S'.523'
p207
sg28
S'NBA'
p208
sg30
S'114'
p209
sg32
S'1198'
p210
sg34
S'181'
p211
sg36
S'226'
p212
sg38
S'302'
p213
sg40
S'27'
p214
sg42
S'LAL'
p215
sg44
S'74'
p216
sg46
S'27'
p217
sg48
S'511'
p218
sg50
S'195'
p219
sg52
S'1005'
p220
sg54
S'230'
p221
sg56
S'1988-89'
p222
sg58
S'588'
p223
sg60
S'157'
p224
sg62
S'.508'
p225
sg64
S'2605'
p226
sg66
S'73'
p227
sba(isrc.gp1.models.Totals
Totals
p228
(dp229
g8
S'51'
p230
sg10
S'220'
p231
sg12
S'.470'
p232
sg14
S'274'
p233
sg16
S'.423'
p234
sg18
S'93'
p235
sg20
S'1197'
p236
sg22
S'SG'
p237
sg24
S'.766'
p238
sg26
S'.516'
p239
sg28
S'NBA'
p240
sg30
S'77'
p241
sg32
S'1005'
p242
sg34
S'180'
p243
sg36
S'209'
p244
sg38
S'242'
p245
sg40
S'28'
p246
sg42
S'LAL'
p247
sg44
S'77'
p248
sg46
S'31'
p249
sg48
S'379'
p250
sg50
S'160'
p251
sg52
S'785'
p252
sg54
S'191'
p253
sg56
S'1989-90'
p254
sg58
S'472'
p255
sg60
S'122'
p256
sg62
S'.483'
p257
sg64
S'2593'
p258
sg66
S'77'
p259
sba(isrc.gp1.models.Totals
Totals
p260
(dp261
g8
S'54'
p262
sg10
S'219'
p263
sg12
S'.477'
p264
sg14
S'177'
p265
sg16
S'.324'
p266
sg18
S'71'
p267
sg20
S'1191'
p268
sg22
S'SG'
p269
sg24
S'.797'
p270
sg26
S'.510'
p271
sg28
S'NBA'
p272
sg30
S'95'
p273
sg32
S'1051'
p274
sg34
S'146'
p275
sg36
S'148'
p276
sg38
S'246'
p277
sg40
S'29'
p278
sg42
S'LAL'
p279
sg44
S'82'
p280
sg46
S'21'
p281
sg48
S'430'
p282
sg50
S'118'
p283
sg52
S'832'
p284
sg54
S'192'
p285
sg56
S'1990-91'
p286
sg58
S'501'
p287
sg60
S'85'
p288
sg62
S'.517'
p289
sg64
S'2630'
p290
sg66
S'82'
p291
sba(isrc.gp1.models.Totals
Totals
p292
(dp293
g8
S'74'
p294
sg10
S'157'
p295
sg12
S'.458'
p296
sg14
S'226'
p297
sg16
S'.344'
p298
sg18
S'54'
p299
sg20
S'1218'
p300
sg22
S'SG'
p301
sg24
S'.838'
p302
sg26
S'.485'
p303
sg28
S'NBA'
p304
sg30
S'105'
p305
sg32
S'1005'
p306
sg34
S'140'
p307
sg36
S'291'
p308
sg38
S'310'
p309
sg40
S'30'
p310
sg42
S'LAL'
p311
sg44
S'82'
p312
sg46
S'28'
p313
sg48
S'406'
p314
sg50
S'244'
p315
sg52
S'848'
p316
sg54
S'236'
p317
sg56
S'1991-92'
p318
sg58
S'460'
p319
sg60
S'119'
p320
sg62
S'.479'
p321
sg64
S'2679'
p322
sg66
S'82'
p323
sba(isrc.gp1.models.Totals
Totals
p324
(dp325
g8
S'27'
p326
sg10
S'135'
p327
sg12
S'.449'
p328
sg14
S'157'
p329
sg16
S'.326'
p330
sg18
S'44'
p331
sg20
S'792'
p332
sg22
S'SG'
p333
sg24
S'.848'
p334
sg26
S'.483'
p335
sg28
S'NBA'
p336
sg30
S'55'
p337
sg32
S'659'
p338
sg34
S'98'
p339
sg36
S'184'
p340
sg38
S'134'
p341
sg40
S'31'
p342
sg42
S'LAL'
p343
sg44
S'58'
p344
sg46
S'13'
p345
sg48
S'252'
p346
sg50
S'156'
p347
sg52
S'524'
p348
sg54
S'107'
p349
sg56
S'1992-93'
p350
sg58
S'296'
p351
sg60
S'70'
p352
sg62
S'.481'
p353
sg64
S'1677'
p354
sg66
S'53'
p355
sba(isrc.gp1.models.Totals
Totals
p356
(dp357
g8
S'19'
p358
sg10
S'74'
p359
sg12
S'.467'
p360
sg14
S'133'
p361
sg16
S'.365'
p362
sg18
S'27'
p363
sg20
S'696'
p364
sg22
S'SG'
p365
sg24
S'.805'
p366
sg26
S'.492'
p367
sg28
S'NBA'
p368
sg30
S'62'
p369
sg32
S'548'
p370
sg34
S'80'
p371
sg36
S'195'
p372
sg38
S'110'
p373
sg40
S'32'
p374
sg42
S'IND'
p375
sg44
S'67'
p376
sg46
S'9'
p377
sg48
S'229'
p378
sg50
S'157'
p379
sg52
S'474'
p380
sg54
S'91'
p381
sg56
S'1993-94'
p382
sg58
S'256'
p383
sg60
S'103'
p384
sg62
S'.483'
p385
sg64
S'1197'
p386
sg66
S'2'
p387
sba(isrc.gp1.models.Totals
Totals
p388
(dp389
g8
S'18'
p390
sg10
S'203'
p391
sg12
S'.455'
p392
sg14
S'108'
p393
sg16
S'.389'
p394
sg18
S'79'
p395
sg20
S'802'
p396
sg22
S'PG'
p397
sg24
S'.850'
p398
sg26
S'.522'
p399
sg28
S'NBA'
p400
sg30
S'61'
p401
sg32
S'583'
p402
sg34
S'123'
p403
sg36
S'227'
p404
sg38
S'151'
p405
sg40
S'33'
p406
sg42
S'IND'
p407
sg44
S'80'
p408
sg46
S'13'
p409
sg48
S'186'
p410
sg50
S'193'
p411
sg52
S'380'
p412
sg54
S'133'
p413
sg56
S'1994-95'
p414
sg58
S'265'
p415
sg60
S'119'
p416
sg62
S'.489'
p417
sg64
S'1528'
p418
sg66
S'1'
p419
sba(isrc.gp1.models.Totals
Totals
p420
(dp421
g8
S'40'
p422
sg10
S'221'
p423
sg12
S'.401'
p424
sg14
S'123'
p425
sg16
S'.335'
p426
sg18
S'74'
p427
sg20
S'819'
p428
sg22
S'SG'
p429
sg24
S'.835'
p430
sg26
S'.456'
p431
sg28
S'NBA'
p432
sg30
S'63'
p433
sg32
S'676'
p434
sg34
S'126'
p435
sg36
S'243'
p436
sg38
S'192'
p437
sg40
S'34'
p438
sg42
S'VAN'
p439
sg44
S'80'
p440
sg46
S'22'
p441
sg48
S'197'
p442
sg50
S'203'
p443
sg52
S'455'
p444
sg54
S'152'
p445
sg56
S'1995-96'
p446
sg58
S'271'
p447
sg60
S'100'
p448
sg62
S'.433'
p449
sg64
S'1894'
p450
sg66
S'0'
p451
sba(isrc.gp1.models.Totals
Totals
p452
(dp453
g8
S'21'
p454
sg10
S'188'
p455
sg12
S'.430'
p456
sg14
S'99'
p457
sg16
S'.388'
p458
sg18
S'73'
p459
sg20
S'526'
p460
sg22
S'SG'
p461
sg24
S'.841'
p462
sg26
S'.526'
p463
sg28
S'NBA'
p464
sg30
S'46'
p465
sg32
S'379'
p466
sg34
S'72'
p467
sg36
S'151'
p468
sg38
S'118'
p469
sg40
S'35'
p470
sg42
S'LAL'
p471
sg44
S'79'
p472
sg46
S'16'
p473
sg48
S'90'
p474
sg50
S'127'
p475
sg52
S'191'
p476
sg54
S'97'
p477
sg56
S'1996-97'
p478
sg58
S'163'
p479
sg60
S'53'
p480
sg62
S'.471'
p481
sg64
S'1440'
p482
sg66
g19
sbasS'_college'
p483
S'Arizona State University'
p484
sS'_toYear'
p485
S'1997'
p486
sS'_height'
p487
S'6-3'
p488
sS'_active'
p489
I00
sS'_shootingHand'
p490
VRight
p491
sS'_name'
p492
S'Byron Scott'
p493
sS'_per100Possessions'
p494
(lp495
(isrc.gp1.models.Per100Possession
Per100Possession
p496
(dp497
g8
S'1.4'
p498
sg10
S'1.0'
p499
sg12
S'.484'
p500
sS'_offensiveRating'
p501
S'105'
p502
sg14
S'5.0'
p503
sg16
S'.235'
p504
sg18
S'0.2'
p505
sg20
S'22.3'
p506
sg22
S'SG'
p507
sS'_defensiveRating'
p508
S'108'
p509
sg24
S'.806'
p510
sg28
S'NBA'
p511
sg30
S'2.3'
p512
sg32
S'19.5'
p513
sg34
S'4.9'
p514
sg36
S'3.9'
p515
sg38
S'4.6'
p516
sg40
S'22'
p517
sg42
S'LAL'
p518
sg44
S'74'
p519
sg46
S'0.5'
p520
sg48
S'9.2'
p521
sg50
S'3.2'
p522
sg52
S'18.6'
p523
sg54
S'3.2'
p524
sg56
S'1983-84'
p525
sg58
S'9.4'
p526
sg60
S'3.3'
p527
sg62
S'.497'
p528
sg64
S'1637'
p529
sg66
S'49'
p530
sba(isrc.gp1.models.Per100Possession
Per100Possession
p531
(dp532
g8
S'1.1'
p533
sg10
S'1.2'
p534
sg12
S'.539'
p535
sg501
S'116'
p536
sg14
S'4.9'
p537
sg16
S'.433'
p538
sg18
S'0.5'
p539
sg20
S'26.1'
p540
sg22
S'SG'
p541
sg508
S'109'
p542
sg24
S'.820'
p543
sg28
S'NBA'
p544
sg30
S'2.0'
p545
sg32
S'20.2'
p546
sg34
S'4.0'
p547
sg36
S'4.6'
p548
sg38
S'4.2'
p549
sg40
S'23'
p550
sg42
S'LAL'
p551
sg44
S'81'
p552
sg46
S'0.3'
p553
sg48
S'10.4'
p554
sg50
S'3.8'
p555
sg52
S'19.0'
p556
sg54
S'3.1'
p557
sg56
S'1984-85'
p558
sg58
S'10.9'
p559
sg60
S'2.8'
p560
sg62
S'.546'
p561
sg64
S'2305'
p562
sg66
S'65'
p563
sba(isrc.gp1.models.Per100Possession
Per100Possession
p564
(dp565
g8
S'1.2'
p566
sg10
S'1.3'
p567
sg12
S'.513'
p568
sg501
S'111'
p569
sg14
S'3.5'
p570
sg16
S'.361'
p571
sg18
S'0.5'
p572
sg20
S'25.0'
p573
sg22
S'SG'
p574
sg508
S'108'
p575
sg24
S'.784'
p576
sg28
S'NBA'
p577
sg30
S'1.8'
p578
sg32
S'21.1'
p579
sg34
S'3.6'
p580
sg36
S'3.8'
p581
sg38
S'4.0'
p582
sg40
S'24'
p583
sg42
S'LAL'
p584
sg44
S'76'
p585
sg46
S'0.3'
p586
sg48
S'10.3'
p587
sg50
S'2.9'
p588
sg52
S'19.8'
p589
sg54
S'2.9'
p590
sg56
S'1985-86'
p591
sg58
S'10.8'
p592
sg60
S'2.3'
p593
sg62
S'.523'
p594
sg64
S'2190'
p595
sg66
S'62'
p596
sba(isrc.gp1.models.Per100Possession
Per100Possession
p597
(dp598
g8
S'1.1'
p599
sg10
S'2.6'
p600
sg12
S'.489'
p601
sg501
S'115'
p602
sg14
S'4.9'
p603
sg16
S'.436'
p604
sg18
S'1.1'
p605
sg20
S'24.2'
p606
sg22
S'SG'
p607
sg508
S'108'
p608
sg24
S'.892'
p609
sg28
S'NBA'
p610
sg30
S'2.2'
p611
sg32
S'19.6'
p612
sg34
S'2.8'
p613
sg36
S'4.3'
p614
sg38
S'5.0'
p615
sg40
S'25'
p616
sg42
S'LAL'
p617
sg44
S'82'
p618
sg46
S'0.3'
p619
sg48
S'8.5'
p620
sg50
S'3.9'
p621
sg52
S'17.1'
p622
sg54
S'3.9'
p623
sg56
S'1986-87'
p624
sg58
S'9.6'
p625
sg60
S'2.5'
p626
sg62
S'.496'
p627
sg64
S'2729'
p628
sg66
S'82'
p629
sba(isrc.gp1.models.Per100Possession
Per100Possession
p630
(dp631
g8
S'1.2'
p632
sg10
S'2.8'
p633
sg12
S'.527'
p634
sg501
S'118'
p635
sg14
S'5.3'
p636
sg16
S'.346'
p637
sg18
S'1.0'
p638
sg20
S'27.9'
p639
sg22
S'SG'
p640
sg508
S'108'
p641
sg24
S'.858'
p642
sg28
S'NBA'
p643
sg30
S'2.5'
p644
sg32
S'21.4'
p645
sg34
S'3.2'
p646
sg36
S'5.0'
p647
sg38
S'5.3'
p648
sg40
S'26'
p649
sg42
S'LAL'
p650
sg44
S'81'
p651
sg46
S'0.4'
p652
sg48
S'10.3'
p653
sg50
S'4.3'
p654
sg52
S'18.6'
p655
sg54
S'4.1'
p656
sg56
S'1987-88'
p657
sg58
S'11.3'
p658
sg60
S'2.6'
p659
sg62
S'.554'
p660
sg64
S'3048'
p661
sg66
S'81'
p662
sba(isrc.gp1.models.Per100Possession
Per100Possession
p663
(dp664
g8
S'1.3'
p665
sg10
S'3.6'
p666
sg12
S'.491'
p667
sg501
S'111'
p668
sg14
S'4.3'
p669
sg16
S'.399'
p670
sg18
S'1.4'
p671
sg20
S'26.6'
p672
sg22
S'SG'
p673
sg508
S'108'
p674
sg24
S'.863'
p675
sg28
S'NBA'
p676
sg30
S'2.1'
p677
sg32
S'22.0'
p678
sg34
S'3.3'
p679
sg36
S'4.2'
p680
sg38
S'5.6'
p681
sg40
S'27'
p682
sg42
S'LAL'
p683
sg44
S'74'
p684
sg46
S'0.5'
p685
sg48
S'9.4'
p686
sg50
S'3.6'
p687
sg52
S'18.5'
p688
sg54
S'4.2'
p689
sg56
S'1988-89'
p690
sg58
S'10.8'
p691
sg60
S'2.9'
p692
sg62
S'.508'
p693
sg64
S'2605'
p694
sg66
S'73'
p695
sba(isrc.gp1.models.Per100Possession
Per100Possession
p696
(dp697
g8
S'1.0'
p698
sg10
S'4.2'
p699
sg12
S'.470'
p700
sg501
S'112'
p701
sg14
S'5.3'
p702
sg16
S'.423'
p703
sg18
S'1.8'
p704
sg20
S'23.0'
p705
sg22
S'SG'
p706
sg508
S'110'
p707
sg24
S'.766'
p708
sg28
S'NBA'
p709
sg30
S'1.5'
p710
sg32
S'19.3'
p711
sg34
S'3.5'
p712
sg36
S'4.0'
p713
sg38
S'4.7'
p714
sg40
S'28'
p715
sg42
S'LAL'
p716
sg44
S'77'
p717
sg46
S'0.6'
p718
sg48
S'7.3'
p719
sg50
S'3.1'
p720
sg52
S'15.1'
p721
sg54
S'3.7'
p722
sg56
S'1989-90'
p723
sg58
S'9.1'
p724
sg60
S'2.3'
p725
sg62
S'.483'
p726
sg64
S'2593'
p727
sg66
S'77'
p728
sba(isrc.gp1.models.Per100Possession
Per100Possession
p729
(dp730
g8
S'1.0'
p731
sg10
S'4.2'
p732
sg12
S'.477'
p733
sg501
S'112'
p734
sg14
S'3.4'
p735
sg16
S'.324'
p736
sg18
S'1.4'
p737
sg20
S'23.1'
p738
sg22
S'SG'
p739
sg508
S'107'
p740
sg24
S'.797'
p741
sg28
S'NBA'
p742
sg30
S'1.8'
p743
sg32
S'20.4'
p744
sg34
S'2.8'
p745
sg36
S'2.9'
p746
sg38
S'4.8'
p747
sg40
S'29'
p748
sg42
S'LAL'
p749
sg44
S'82'
p750
sg46
S'0.4'
p751
sg48
S'8.3'
p752
sg50
S'2.3'
p753
sg52
S'16.1'
p754
sg54
S'3.7'
p755
sg56
S'1990-91'
p756
sg58
S'9.7'
p757
sg60
S'1.6'
p758
sg62
S'.517'
p759
sg64
S'2630'
p760
sg66
S'82'
p761
sba(isrc.gp1.models.Per100Possession
Per100Possession
p762
(dp763
g8
S'1.4'
p764
sg10
S'3.0'
p765
sg12
S'.458'
p766
sg501
S'112'
p767
sg14
S'4.4'
p768
sg16
S'.344'
p769
sg18
S'1.0'
p770
sg20
S'23.6'
p771
sg22
S'SG'
p772
sg508
S'110'
p773
sg24
S'.838'
p774
sg28
S'NBA'
p775
sg30
S'2.0'
p776
sg32
S'19.5'
p777
sg34
S'2.7'
p778
sg36
S'5.6'
p779
sg38
S'6.0'
p780
sg40
S'30'
p781
sg42
S'LAL'
p782
sg44
S'82'
p783
sg46
S'0.5'
p784
sg48
S'7.9'
p785
sg50
S'4.7'
p786
sg52
S'16.4'
p787
sg54
S'4.6'
p788
sg56
S'1991-92'
p789
sg58
S'8.9'
p790
sg60
S'2.3'
p791
sg62
S'.479'
p792
sg64
S'2679'
p793
sg66
S'82'
p794
sba(isrc.gp1.models.Per100Possession
Per100Possession
p795
(dp796
g8
S'0.8'
p797
sg10
S'4.0'
p798
sg12
S'.449'
p799
sg501
S'112'
p800
sg14
S'4.7'
p801
sg16
S'.326'
p802
sg18
S'1.3'
p803
sg20
S'23.6'
p804
sg22
S'SG'
p805
sg508
S'112'
p806
sg24
S'.848'
p807
sg28
S'NBA'
p808
sg30
S'1.6'
p809
sg32
S'19.6'
p810
sg34
S'2.9'
p811
sg36
S'5.5'
p812
sg38
S'4.0'
p813
sg40
S'31'
p814
sg42
S'LAL'
p815
sg44
S'58'
p816
sg46
S'0.4'
p817
sg48
S'7.5'
p818
sg50
S'4.6'
p819
sg52
S'15.6'
p820
sg54
S'3.2'
p821
sg56
S'1992-93'
p822
sg58
S'8.8'
p823
sg60
S'2.1'
p824
sg62
S'.481'
p825
sg64
S'1677'
p826
sg66
S'53'
p827
sba(isrc.gp1.models.Per100Possession
Per100Possession
p828
(dp829
g8
S'0.8'
p830
sg10
S'3.2'
p831
sg12
S'.467'
p832
sg501
S'107'
p833
sg14
S'5.7'
p834
sg16
S'.365'
p835
sg18
S'1.2'
p836
sg20
S'29.9'
p837
sg22
S'SG'
p838
sg508
S'105'
p839
sg24
S'.805'
p840
sg28
S'NBA'
p841
sg30
S'2.7'
p842
sg32
S'23.6'
p843
sg34
S'3.4'
p844
sg36
S'8.4'
p845
sg38
S'4.7'
p846
sg40
S'32'
p847
sg42
S'IND'
p848
sg44
S'67'
p849
sg46
S'0.4'
p850
sg48
S'9.8'
p851
sg50
S'6.7'
p852
sg52
S'20.4'
p853
sg54
S'3.9'
p854
sg56
S'1993-94'
p855
sg58
S'11.0'
p856
sg60
S'4.4'
p857
sg62
S'.483'
p858
sg64
S'1197'
p859
sg66
g387
sba(isrc.gp1.models.Per100Possession
Per100Possession
p860
(dp861
g8
S'0.6'
p862
sg10
S'7.1'
p863
sg12
S'.455'
p864
sg501
S'110'
p865
sg14
S'3.8'
p866
sg16
S'.389'
p867
sg18
S'2.8'
p868
sg20
S'28.0'
p869
sg22
S'PG'
p870
sg508
S'107'
p871
sg24
S'.850'
p872
sg28
S'NBA'
p873
sg30
S'2.1'
p874
sg32
S'20.3'
p875
sg34
S'4.3'
p876
sg36
S'7.9'
p877
sg38
S'5.3'
p878
sg40
S'33'
p879
sg42
S'IND'
p880
sg44
S'80'
p881
sg46
S'0.5'
p882
sg48
S'6.5'
p883
sg50
S'6.7'
p884
sg52
S'13.3'
p885
sg54
S'4.6'
p886
sg56
S'1994-95'
p887
sg58
S'9.2'
p888
sg60
S'4.2'
p889
sg62
S'.489'
p890
sg64
S'1528'
p891
sg66
g419
sba(isrc.gp1.models.Per100Possession
Per100Possession
p892
(dp893
g8
S'1.1'
p894
sg10
S'6.2'
p895
sg12
S'.401'
p896
sg501
S'103'
p897
sg14
S'3.4'
p898
sg16
S'.335'
p899
sg18
S'2.1'
p900
sg20
S'22.8'
p901
sg22
S'SG'
p902
sg508
S'110'
p903
sg24
S'.835'
p904
sg28
S'NBA'
p905
sg30
S'1.8'
p906
sg32
S'18.8'
p907
sg34
S'3.5'
p908
sg36
S'6.8'
p909
sg38
S'5.3'
p910
sg40
S'34'
p911
sg42
S'VAN'
p912
sg44
S'80'
p913
sg46
S'0.6'
p914
sg48
S'5.5'
p915
sg50
S'5.7'
p916
sg52
S'12.7'
p917
sg54
S'4.2'
p918
sg56
S'1995-96'
p919
sg58
S'7.5'
p920
sg60
S'2.8'
p921
sg62
S'.433'
p922
sg64
S'1894'
p923
sg66
g451
sba(isrc.gp1.models.Per100Possession
Per100Possession
p924
(dp925
g8
S'0.8'
p926
sg10
S'6.9'
p927
sg12
S'.430'
p928
sg501
S'120'
p929
sg14
S'3.6'
p930
sg16
S'.388'
p931
sg18
S'2.7'
p932
sg20
S'19.2'
p933
sg22
S'SG'
p934
sg508
S'108'
p935
sg24
S'.841'
p936
sg28
S'NBA'
p937
sg30
S'1.7'
p938
sg32
S'13.9'
p939
sg34
S'2.6'
p940
sg36
S'5.5'
p941
sg38
S'4.3'
p942
sg40
S'35'
p943
sg42
S'LAL'
p944
sg44
S'79'
p945
sg46
S'0.6'
p946
sg48
S'3.3'
p947
sg50
S'4.6'
p948
sg52
S'7.0'
p949
sg54
S'3.5'
p950
sg56
S'1996-97'
p951
sg58
S'6.0'
p952
sg60
S'1.9'
p953
sg62
S'.471'
p954
sg64
S'1440'
p955
sg66
g19
sbasS'_advanced'
p956
(lp957
(isrc.gp1.models.Advanced
Advanced
p958
(dp959
S'_offensiveReboundPercentage'
p960
S'3.7'
p961
sS'_turnOverPercentage'
p962
S'13.4'
p963
sS'_winSharesPer48Minutes'
p964
S'.079'
p965
sS'_stealPercentage'
p966
S'2.3'
p967
sS'_usagePercentage'
p968
S'21.3'
p969
sS'_totalReboundsPercentage'
p970
S'5.7'
p971
sS'_defensiveBoxPlusMinus'
p972
S'-0.8'
p973
sg22
S'SG'
p974
sS'_valueOverReplacementPlayer'
p975
S'0.2'
p976
sS'_trueShootingPercentage'
p977
S'.525'
p978
sS'_defensiveReboundPercentage'
p979
S'7.3'
p980
sS'_freeThrowsAttempRate'
p981
S'.201'
p982
sS'_threePointsAttempRate'
p983
S'.049'
p984
sg28
S'NBA'
p985
sS'_offensiveBoxPlusMinues'
p986
S'-0.7'
p987
sS'_assistPercentage'
p988
S'14.0'
p989
sS'_defensiveWinShares'
p990
S'1.5'
p991
sg40
S'22'
p992
sg42
S'LAL'
p993
sg44
S'74'
p994
sS'_blockPercentage'
p995
S'0.6'
p996
sS'_playerEfficiencyRating'
p997
S'13.4'
p998
sS'_offensiveWinShares'
p999
S'1.1'
p1000
sg64
S'1637'
p1001
sS'_boxPlusMinus'
p1002
S'-1.5'
p1003
sg56
S'1983-84'
p1004
sS'_winShares'
p1005
S'2.7'
p1006
sba(isrc.gp1.models.Advanced
Advanced
p1007
(dp1008
g960
S'3.1'
p1009
sg962
S'11.1'
p1010
sg964
S'.143'
p1011
sg966
S'2.0'
p1012
sg968
S'21.8'
p1013
sg970
S'5.2'
p1014
sg972
S'-1.0'
p1015
sg22
S'SG'
p1016
sg975
S'1.7'
p1017
sg977
S'.587'
p1018
sg979
S'6.9'
p1019
sg981
S'.227'
p1020
sg983
S'.060'
p1021
sg28
S'NBA'
p1022
sg986
S'1.9'
p1023
sg988
S'13.8'
p1024
sg990
S'2.1'
p1025
sg40
S'23'
p1026
sg42
S'LAL'
p1027
sg44
S'81'
p1028
sg995
S'0.4'
p1029
sg997
S'16.8'
p1030
sg999
S'4.8'
p1031
sg64
S'2305'
p1032
sg1002
S'0.9'
p1033
sg56
S'1984-85'
p1034
sg1005
S'6.9'
p1035
sba(isrc.gp1.models.Advanced
Advanced
p1036
(dp1037
g960
S'3.0'
p1038
sg962
S'9.4'
p1039
sg964
S'.113'
p1040
sg966
S'1.8'
p1041
sg968
S'21.7'
p1042
sg970
S'4.9'
p1043
sg972
S'-1.0'
p1044
sg22
S'SG'
p1045
sg975
S'1.0'
p1046
sg977
S'.550'
p1047
sg979
S'6.6'
p1048
sg981
S'.178'
p1049
sg983
S'.062'
p1050
sg28
S'NBA'
p1051
sg986
S'0.8'
p1052
sg988
S'10.2'
p1053
sg990
S'2.0'
p1054
sg40
S'24'
p1055
sg42
S'LAL'
p1056
sg44
S'76'
p1057
sg995
S'0.4'
p1058
sg997
S'15.0'
p1059
sg999
S'3.2'
p1060
sg64
S'2190'
p1061
sg1002
S'-0.2'
p1062
sg56
S'1985-86'
p1063
sg1005
S'5.2'
p1064
sba(isrc.gp1.models.Advanced
Advanced
p1065
(dp1066
g960
S'2.8'
p1067
sg962
S'10.4'
p1068
sg964
S'.136'
p1069
sg966
S'2.2'
p1070
sg968
S'20.6'
p1071
sg970
S'5.8'
p1072
sg972
S'-0.3'
p1073
sg22
S'SG'
p1074
sg975
S'2.2'
p1075
sg977
S'.561'
p1076
sg979
S'8.5'
p1077
sg981
S'.221'
p1078
sg983
S'.131'
p1079
sg28
S'NBA'
p1080
sg986
S'1.5'
p1081
sg988
S'13.8'
p1082
sg990
S'2.9'
p1083
sg40
S'25'
p1084
sg42
S'LAL'
p1085
sg44
S'82'
p1086
sg995
S'0.4'
p1087
sg997
S'16.0'
p1088
sg999
S'4.8'
p1089
sg64
S'2729'
p1090
sg1002
S'1.1'
p1091
sg56
S'1986-87'
p1092
sg1005
S'7.7'
p1093
sba(isrc.gp1.models.Advanced
Advanced
p1094
(dp1095
g960
S'3.0'
p1096
sg962
S'9.8'
p1097
sg964
S'.168'
p1098
sg966
S'2.5'
p1099
sg968
S'22.6'
p1100
sg970
S'6.2'
p1101
sg972
S'0.0'
p1102
sg22
S'SG'
p1103
sg975
S'4.4'
p1104
sg977
S'.590'
p1105
sg979
S'9.1'
p1106
sg981
S'.235'
p1107
sg983
S'.133'
p1108
sg28
S'NBA'
p1109
sg986
S'3.6'
p1110
sg988
S'16.4'
p1111
sg990
S'3.3'
p1112
sg40
S'26'
p1113
sg42
S'LAL'
p1114
sg44
S'81'
p1115
sg995
S'0.5'
p1116
sg997
S'19.2'
p1117
sg999
S'7.4'
p1118
sg64
S'3048'
p1119
sg1002
S'3.7'
p1120
sg56
S'1987-88'
p1121
sg1005
S'10.7'
p1122
sba(isrc.gp1.models.Advanced
Advanced
p1123
(dp1124
g960
S'3.3'
p1125
sg962
S'10.8'
p1126
sg964
S'.125'
p1127
sg966
S'2.1'
p1128
sg968
S'23.1'
p1129
sg970
S'6.5'
p1130
sg972
S'-0.5'
p1131
sg22
S'SG'
p1132
sg975
S'2.2'
p1133
sg977
S'.558'
p1134
sg979
S'9.2'
p1135
sg981
S'.189'
p1136
sg983
S'.161'
p1137
sg28
S'NBA'
p1138
sg986
S'1.8'
p1139
sg988
S'13.1'
p1140
sg990
S'2.6'
p1141
sg40
S'27'
p1142
sg42
S'LAL'
p1143
sg44
S'74'
p1144
sg995
S'0.6'
p1145
sg997
S'16.6'
p1146
sg999
S'4.1'
p1147
sg64
S'2605'
p1148
sg1002
S'1.3'
p1149
sg56
S'1988-89'
p1150
sg1005
S'6.8'
p1151
sba(isrc.gp1.models.Advanced
Advanced
p1152
(dp1153
g960
S'2.3'
p1154
sg962
S'10.0'
p1155
sg964
S'.111'
p1156
sg966
S'1.5'
p1157
sg968
S'20.1'
p1158
sg970
S'5.3'
p1159
sg972
S'-0.8'
p1160
sg22
S'SG'
p1161
sg975
S'1.7'
p1162
sg977
S'.546'
p1163
sg979
S'8.1'
p1164
sg981
S'.208'
p1165
sg983
S'.219'
p1166
sg28
S'NBA'
p1167
sg986
S'1.4'
p1168
sg988
S'15.5'
p1169
sg990
S'2.2'
p1170
sg40
S'28'
p1171
sg42
S'LAL'
p1172
sg44
S'77'
p1173
sg995
S'0.7'
p1174
sg997
S'14.3'
p1175
sg999
S'3.8'
p1176
sg64
S'2593'
p1177
sg1002
S'0.7'
p1178
sg56
S'1989-90'
p1179
sg1005
S'6.0'
p1180
sba(isrc.gp1.models.Advanced
Advanced
p1181
(dp1182
g960
S'2.5'
p1183
sg962
S'7.1'
p1184
sg964
S'.120'
p1185
sg966
S'1.8'
p1186
sg968
S'19.9'
p1187
sg970
S'5.4'
p1188
sg972
S'-0.1'
p1189
sg22
S'SG'
p1190
sg975
S'1.9'
p1191
sg977
S'.534'
p1192
sg979
S'8.1'
p1193
sg981
S'.141'
p1194
sg983
S'.208'
p1195
sg28
S'NBA'
p1196
sg986
S'0.9'
p1197
sg988
S'10.3'
p1198
sg990
S'2.9'
p1199
sg40
S'29'
p1200
sg42
S'LAL'
p1201
sg44
S'82'
p1202
sg995
S'0.5'
p1203
sg997
S'14.2'
p1204
sg999
S'3.6'
p1205
sg64
S'2630'
p1206
sg1002
S'0.9'
p1207
sg56
S'1990-91'
p1208
sg1005
S'6.6'
p1209
sba(isrc.gp1.models.Advanced
Advanced
p1210
(dp1211
g960
S'3.1'
p1212
sg962
S'9.5'
p1213
sg964
S'.107'
p1214
sg966
S'2.0'
p1215
sg968
S'20.4'
p1216
sg970
S'6.6'
p1217
sg972
S'-0.6'
p1218
sg22
S'SG'
p1219
sg975
S'1.7'
p1220
sg977
S'.537'
p1221
sg979
S'10.2'
p1222
sg981
S'.290'
p1223
sg983
S'.156'
p1224
sg28
S'NBA'
p1225
sg986
S'1.1'
p1226
sg988
S'13.4'
p1227
sg990
S'2.1'
p1228
sg40
S'30'
p1229
sg42
S'LAL'
p1230
sg44
S'82'
p1231
sg995
S'0.6'
p1232
sg997
S'15.5'
p1233
sg999
S'3.9'
p1234
sg64
S'2679'
p1235
sg1002
S'0.5'
p1236
sg56
S'1991-92'
p1237
sg1005
S'6.0'
p1238
sba(isrc.gp1.models.Advanced
Advanced
p1239
(dp1240
g960
S'1.8'
p1241
sg962
S'8.6'
p1242
sg964
S'.094'
p1243
sg966
S'1.6'
p1244
sg968
S'20.7'
p1245
sg970
S'4.6'
p1246
sg972
S'-1.9'
p1247
sg22
S'SG'
p1248
sg975
S'0.3'
p1249
sg977
S'.535'
p1250
sg979
S'7.3'
p1251
sg981
S'.279'
p1252
sg983
S'.205'
p1253
sg28
S'NBA'
p1254
sg986
S'0.6'
p1255
sg988
S'14.2'
p1256
sg990
S'0.9'
p1257
sg40
S'31'
p1258
sg42
S'LAL'
p1259
sg44
S'58'
p1260
sg995
S'0.5'
p1261
sg997
S'14.4'
p1262
sg999
S'2.4'
p1263
sg64
S'1677'
p1264
sg1002
S'-1.3'
p1265
sg56
S'1992-93'
p1266
sg1005
S'3.3'
p1267
sba(isrc.gp1.models.Advanced
Advanced
p1268
(dp1269
g960
S'1.9'
p1270
sg962
S'14.0'
p1271
sg964
S'.123'
p1272
sg966
S'2.7'
p1273
sg968
S'27.0'
p1274
sg970
S'5.3'
p1275
sg972
S'-1.4'
p1276
sg22
S'SG'
p1277
sg975
S'0.4'
p1278
sg977
S'.549'
p1279
sg979
S'8.5'
p1280
sg981
S'.356'
p1281
sg983
S'.135'
p1282
sg28
S'NBA'
p1283
sg986
S'0.7'
p1284
sg988
S'18.9'
p1285
sg990
S'1.4'
p1286
sg40
S'32'
p1287
sg42
S'IND'
p1288
sg44
S'67'
p1289
sg995
S'0.5'
p1290
sg997
S'17.6'
p1291
sg999
S'1.7'
p1292
sg64
S'1197'
p1293
sg1002
S'-0.7'
p1294
sg56
S'1993-94'
p1295
sg1005
S'3.1'
p1296
sba(isrc.gp1.models.Advanced
Advanced
p1297
(dp1298
g960
S'1.5'
p1299
sg962
S'14.8'
p1300
sg964
S'.124'
p1301
sg966
S'2.1'
p1302
sg968
S'24.0'
p1303
sg970
S'6.0'
p1304
sg972
S'-1.0'
p1305
sg22
S'PG'
p1306
sg975
S'0.7'
p1307
sg977
S'.587'
p1308
sg979
S'10.3'
p1309
sg981
S'.389'
p1310
sg983
S'.348'
p1311
sg28
S'NBA'
p1312
sg986
S'0.9'
p1313
sg988
S'12.2'
p1314
sg990
S'1.9'
p1315
sg40
S'33'
p1316
sg42
S'IND'
p1317
sg44
S'80'
p1318
sg995
S'0.7'
p1319
sg997
S'15.8'
p1320
sg999
S'2.1'
p1321
sg64
S'1528'
p1322
sg1002
S'-0.1'
p1323
sg56
S'1994-95'
p1324
sg1005
S'3.9'
p1325
sba(isrc.gp1.models.Advanced
Advanced
p1326
(dp1327
g960
S'2.4'
p1328
sg962
S'11.3'
p1329
sg964
S'.059'
p1330
sg966
S'1.8'
p1331
sg968
S'21.3'
p1332
sg970
S'5.9'
p1333
sg972
S'-1.3'
p1334
sg22
S'SG'
p1335
sg975
S'-0.2'
p1336
sg977
S'.523'
p1337
sg979
S'9.8'
p1338
sg981
S'.359'
p1339
sg983
S'.327'
p1340
sg28
S'NBA'
p1341
sg986
S'-1.2'
p1342
sg988
S'11.7'
p1343
sg990
S'1.3'
p1344
sg40
S'34'
p1345
sg42
S'VAN'
p1346
sg44
S'80'
p1347
sg995
S'0.9'
p1348
sg997
S'13.0'
p1349
sg999
S'1.0'
p1350
sg64
S'1894'
p1351
sg1002
S'-2.5'
p1352
sg56
S'1995-96'
p1353
sg1005
S'2.3'
p1354
sba(isrc.gp1.models.Advanced
Advanced
p1355
(dp1356
g960
S'1.7'
p1357
sg962
S'10.6'
p1358
sg964
S'.137'
p1359
sg966
S'1.7'
p1360
sg968
S'15.5'
p1361
sg970
S'4.7'
p1362
sg972
S'-1.1'
p1363
sg22
S'SG'
p1364
sg975
S'0.6'
p1365
sg977
S'.590'
p1366
sg979
S'7.6'
p1367
sg981
S'.398'
p1368
sg983
S'.496'
p1369
sg28
S'NBA'
p1370
sg986
S'0.7'
p1371
sg988
S'10.7'
p1372
sg990
S'1.3'
p1373
sg40
S'35'
p1374
sg42
S'LAL'
p1375
sg44
S'79'
p1376
sg995
S'0.8'
p1377
sg997
S'13.5'
p1378
sg999
S'2.8'
p1379
sg64
S'1440'
p1380
sg1002
S'-0.4'
p1381
sg56
S'1996-97'
p1382
sg1005
S'4.1'
p1383
sbasS'_per36Minutes'
p1384
(lp1385
(isrc.gp1.models.Per36Minutes
Per36Minutes
p1386
(dp1387
g8
S'1.1'
p1388
sg10
S'0.7'
p1389
sg12
S'.484'
p1390
sg14
S'3.9'
p1391
sg16
S'.235'
p1392
sg18
S'0.2'
p1393
sg20
S'17.3'
p1394
sg22
S'SG'
p1395
sg24
S'.806'
p1396
sg28
S'NBA'
p1397
sg30
S'1.8'
p1398
sg32
S'15.2'
p1399
sg34
S'3.8'
p1400
sg36
S'3.1'
p1401
sg38
S'3.6'
p1402
sg40
S'22'
p1403
sg42
S'LAL'
p1404
sg44
S'74'
p1405
sg46
S'0.4'
p1406
sg48
S'7.2'
p1407
sg50
S'2.5'
p1408
sg52
S'14.4'
p1409
sg54
S'2.5'
p1410
sg56
S'1983-84'
p1411
sg58
S'7.3'
p1412
sg60
S'2.6'
p1413
sg62
S'.497'
p1414
sg64
S'1637'
p1415
sg66
S'49'
p1416
sba(isrc.gp1.models.Per36Minutes
Per36Minutes
p1417
(dp1418
g8
S'0.9'
p1419
sg10
S'0.9'
p1420
sg12
S'.539'
p1421
sg14
S'3.8'
p1422
sg16
S'.433'
p1423
sg18
S'0.4'
p1424
sg20
S'20.2'
p1425
sg22
S'SG'
p1426
sg24
S'.820'
p1427
sg28
S'NBA'
p1428
sg30
S'1.6'
p1429
sg32
S'15.7'
p1430
sg34
S'3.1'
p1431
sg36
S'3.6'
p1432
sg38
S'3.3'
p1433
sg40
S'23'
p1434
sg42
S'LAL'
p1435
sg44
S'81'
p1436
sg46
S'0.3'
p1437
sg48
S'8.0'
p1438
sg50
S'2.9'
p1439
sg52
S'14.7'
p1440
sg54
S'2.4'
p1441
sg56
S'1984-85'
p1442
sg58
S'8.4'
p1443
sg60
S'2.2'
p1444
sg62
S'.546'
p1445
sg64
S'2305'
p1446
sg66
S'65'
p1447
sba(isrc.gp1.models.Per36Minutes
Per36Minutes
p1448
(dp1449
g8
S'0.9'
p1450
sg10
S'1.0'
p1451
sg12
S'.513'
p1452
sg14
S'2.7'
p1453
sg16
S'.361'
p1454
sg18
S'0.4'
p1455
sg20
S'19.3'
p1456
sg22
S'SG'
p1457
sg24
S'.784'
p1458
sg28
S'NBA'
p1459
sg30
S'1.4'
p1460
sg32
S'16.3'
p1461
sg34
S'2.7'
p1462
sg36
S'2.9'
p1463
sg38
S'3.1'
p1464
sg40
S'24'
p1465
sg42
S'LAL'
p1466
sg44
S'76'
p1467
sg46
S'0.2'
p1468
sg48
S'8.0'
p1469
sg50
S'2.3'
p1470
sg52
S'15.3'
p1471
sg54
S'2.2'
p1472
sg56
S'1985-86'
p1473
sg58
S'8.3'
p1474
sg60
S'1.8'
p1475
sg62
S'.523'
p1476
sg64
S'2190'
p1477
sg66
S'62'
p1478
sba(isrc.gp1.models.Per36Minutes
Per36Minutes
p1479
(dp1480
g8
S'0.8'
p1481
sg10
S'2.0'
p1482
sg12
S'.489'
p1483
sg14
S'3.7'
p1484
sg16
S'.436'
p1485
sg18
S'0.9'
p1486
sg20
S'18.4'
p1487
sg22
S'SG'
p1488
sg24
S'.892'
p1489
sg28
S'NBA'
p1490
sg30
S'1.6'
p1491
sg32
S'15.0'
p1492
sg34
S'2.2'
p1493
sg36
S'3.3'
p1494
sg38
S'3.8'
p1495
sg40
S'25'
p1496
sg42
S'LAL'
p1497
sg44
S'82'
p1498
sg46
S'0.2'
p1499
sg48
S'6.5'
p1500
sg50
S'3.0'
p1501
sg52
S'13.0'
p1502
sg54
S'2.9'
p1503
sg56
S'1986-87'
p1504
sg58
S'7.3'
p1505
sg60
S'1.9'
p1506
sg62
S'.496'
p1507
sg64
S'2729'
p1508
sg66
S'82'
p1509
sba(isrc.gp1.models.Per36Minutes
Per36Minutes
p1510
(dp1511
g8
S'0.9'
p1512
sg10
S'2.1'
p1513
sg12
S'.527'
p1514
sg14
S'4.0'
p1515
sg16
S'.346'
p1516
sg18
S'0.7'
p1517
sg20
S'20.7'
p1518
sg22
S'SG'
p1519
sg24
S'.858'
p1520
sg28
S'NBA'
p1521
sg30
S'1.8'
p1522
sg32
S'15.9'
p1523
sg34
S'2.4'
p1524
sg36
S'3.7'
p1525
sg38
S'3.9'
p1526
sg40
S'26'
p1527
sg42
S'LAL'
p1528
sg44
S'81'
p1529
sg46
S'0.3'
p1530
sg48
S'7.7'
p1531
sg50
S'3.2'
p1532
sg52
S'13.8'
p1533
sg54
S'3.0'
p1534
sg56
S'1987-88'
p1535
sg58
S'8.4'
p1536
sg60
S'1.9'
p1537
sg62
S'.554'
p1538
sg64
S'3048'
p1539
sg66
S'81'
p1540
sba(isrc.gp1.models.Per36Minutes
Per36Minutes
p1541
(dp1542
g8
S'1.0'
p1543
sg10
S'2.7'
p1544
sg12
S'.491'
p1545
sg14
S'3.2'
p1546
sg16
S'.399'
p1547
sg18
S'1.1'
p1548
sg20
S'20.0'
p1549
sg22
S'SG'
p1550
sg24
S'.863'
p1551
sg28
S'NBA'
p1552
sg30
S'1.6'
p1553
sg32
S'16.6'
p1554
sg34
S'2.5'
p1555
sg36
S'3.1'
p1556
sg38
S'4.2'
p1557
sg40
S'27'
p1558
sg42
S'LAL'
p1559
sg44
S'74'
p1560
sg46
S'0.4'
p1561
sg48
S'7.1'
p1562
sg50
S'2.7'
p1563
sg52
S'13.9'
p1564
sg54
S'3.2'
p1565
sg56
S'1988-89'
p1566
sg58
S'8.1'
p1567
sg60
S'2.2'
p1568
sg62
S'.508'
p1569
sg64
S'2605'
p1570
sg66
S'73'
p1571
sba(isrc.gp1.models.Per36Minutes
Per36Minutes
p1572
(dp1573
g8
S'0.7'
p1574
sg10
S'3.1'
p1575
sg12
S'.470'
p1576
sg14
S'3.8'
p1577
sg16
S'.423'
p1578
sg18
S'1.3'
p1579
sg20
S'16.6'
p1580
sg22
S'SG'
p1581
sg24
S'.766'
p1582
sg28
S'NBA'
p1583
sg30
S'1.1'
p1584
sg32
S'14.0'
p1585
sg34
S'2.5'
p1586
sg36
S'2.9'
p1587
sg38
S'3.4'
p1588
sg40
S'28'
p1589
sg42
S'LAL'
p1590
sg44
S'77'
p1591
sg46
S'0.4'
p1592
sg48
S'5.3'
p1593
sg50
S'2.2'
p1594
sg52
S'10.9'
p1595
sg54
S'2.7'
p1596
sg56
S'1989-90'
p1597
sg58
S'6.6'
p1598
sg60
S'1.7'
p1599
sg62
S'.483'
p1600
sg64
S'2593'
p1601
sg66
S'77'
p1602
sba(isrc.gp1.models.Per36Minutes
Per36Minutes
p1603
(dp1604
g8
S'0.7'
p1605
sg10
S'3.0'
p1606
sg12
S'.477'
p1607
sg14
S'2.4'
p1608
sg16
S'.324'
p1609
sg18
S'1.0'
p1610
sg20
S'16.3'
p1611
sg22
S'SG'
p1612
sg24
S'.797'
p1613
sg28
S'NBA'
p1614
sg30
S'1.3'
p1615
sg32
S'14.4'
p1616
sg34
S'2.0'
p1617
sg36
S'2.0'
p1618
sg38
S'3.4'
p1619
sg40
S'29'
p1620
sg42
S'LAL'
p1621
sg44
S'82'
p1622
sg46
S'0.3'
p1623
sg48
S'5.9'
p1624
sg50
S'1.6'
p1625
sg52
S'11.4'
p1626
sg54
S'2.6'
p1627
sg56
S'1990-91'
p1628
sg58
S'6.9'
p1629
sg60
S'1.2'
p1630
sg62
S'.517'
p1631
sg64
S'2630'
p1632
sg66
S'82'
p1633
sba(isrc.gp1.models.Per36Minutes
Per36Minutes
p1634
(dp1635
g8
S'1.0'
p1636
sg10
S'2.1'
p1637
sg12
S'.458'
p1638
sg14
S'3.0'
p1639
sg16
S'.344'
p1640
sg18
S'0.7'
p1641
sg20
S'16.4'
p1642
sg22
S'SG'
p1643
sg24
S'.838'
p1644
sg28
S'NBA'
p1645
sg30
S'1.4'
p1646
sg32
S'13.5'
p1647
sg34
S'1.9'
p1648
sg36
S'3.9'
p1649
sg38
S'4.2'
p1650
sg40
S'30'
p1651
sg42
S'LAL'
p1652
sg44
S'82'
p1653
sg46
S'0.4'
p1654
sg48
S'5.5'
p1655
sg50
S'3.3'
p1656
sg52
S'11.4'
p1657
sg54
S'3.2'
p1658
sg56
S'1991-92'
p1659
sg58
S'6.2'
p1660
sg60
S'1.6'
p1661
sg62
S'.479'
p1662
sg64
S'2679'
p1663
sg66
S'82'
p1664
sba(isrc.gp1.models.Per36Minutes
Per36Minutes
p1665
(dp1666
g8
S'0.6'
p1667
sg10
S'2.9'
p1668
sg12
S'.449'
p1669
sg14
S'3.4'
p1670
sg16
S'.326'
p1671
sg18
S'0.9'
p1672
sg20
S'17.0'
p1673
sg22
S'SG'
p1674
sg24
S'.848'
p1675
sg28
S'NBA'
p1676
sg30
S'1.2'
p1677
sg32
S'14.1'
p1678
sg34
S'2.1'
p1679
sg36
S'3.9'
p1680
sg38
S'2.9'
p1681
sg40
S'31'
p1682
sg42
S'LAL'
p1683
sg44
S'58'
p1684
sg46
S'0.3'
p1685
sg48
S'5.4'
p1686
sg50
S'3.3'
p1687
sg52
S'11.2'
p1688
sg54
S'2.3'
p1689
sg56
S'1992-93'
p1690
sg58
S'6.4'
p1691
sg60
S'1.5'
p1692
sg62
S'.481'
p1693
sg64
S'1677'
p1694
sg66
S'53'
p1695
sba(isrc.gp1.models.Per36Minutes
Per36Minutes
p1696
(dp1697
g8
S'0.6'
p1698
sg10
S'2.2'
p1699
sg12
S'.467'
p1700
sg14
S'4.0'
p1701
sg16
S'.365'
p1702
sg18
S'0.8'
p1703
sg20
S'20.9'
p1704
sg22
S'SG'
p1705
sg24
S'.805'
p1706
sg28
S'NBA'
p1707
sg30
S'1.9'
p1708
sg32
S'16.5'
p1709
sg34
S'2.4'
p1710
sg36
S'5.9'
p1711
sg38
S'3.3'
p1712
sg40
S'32'
p1713
sg42
S'IND'
p1714
sg44
S'67'
p1715
sg46
S'0.3'
p1716
sg48
S'6.9'
p1717
sg50
S'4.7'
p1718
sg52
S'14.3'
p1719
sg54
S'2.7'
p1720
sg56
S'1993-94'
p1721
sg58
S'7.7'
p1722
sg60
S'3.1'
p1723
sg62
S'.483'
p1724
sg64
S'1197'
p1725
sg66
g387
sba(isrc.gp1.models.Per36Minutes
Per36Minutes
p1726
(dp1727
g8
S'0.4'
p1728
sg10
S'4.8'
p1729
sg12
S'.455'
p1730
sg14
S'2.5'
p1731
sg16
S'.389'
p1732
sg18
S'1.9'
p1733
sg20
S'18.9'
p1734
sg22
S'PG'
p1735
sg24
S'.850'
p1736
sg28
S'NBA'
p1737
sg30
S'1.4'
p1738
sg32
S'13.7'
p1739
sg34
S'2.9'
p1740
sg36
S'5.3'
p1741
sg38
S'3.6'
p1742
sg40
S'33'
p1743
sg42
S'IND'
p1744
sg44
S'80'
p1745
sg46
S'0.3'
p1746
sg48
S'4.4'
p1747
sg50
S'4.5'
p1748
sg52
S'9.0'
p1749
sg54
S'3.1'
p1750
sg56
S'1994-95'
p1751
sg58
S'6.2'
p1752
sg60
S'2.8'
p1753
sg62
S'.489'
p1754
sg64
S'1528'
p1755
sg66
g419
sba(isrc.gp1.models.Per36Minutes
Per36Minutes
p1756
(dp1757
g8
S'0.8'
p1758
sg10
S'4.2'
p1759
sg12
S'.401'
p1760
sg14
S'2.3'
p1761
sg16
S'.335'
p1762
sg18
S'1.4'
p1763
sg20
S'15.6'
p1764
sg22
S'SG'
p1765
sg24
S'.835'
p1766
sg28
S'NBA'
p1767
sg30
S'1.2'
p1768
sg32
S'12.8'
p1769
sg34
S'2.4'
p1770
sg36
S'4.6'
p1771
sg38
S'3.6'
p1772
sg40
S'34'
p1773
sg42
S'VAN'
p1774
sg44
S'80'
p1775
sg46
S'0.4'
p1776
sg48
S'3.7'
p1777
sg50
S'3.9'
p1778
sg52
S'8.6'
p1779
sg54
S'2.9'
p1780
sg56
S'1995-96'
p1781
sg58
S'5.2'
p1782
sg60
S'1.9'
p1783
sg62
S'.433'
p1784
sg64
S'1894'
p1785
sg66
g451
sba(isrc.gp1.models.Per36Minutes
Per36Minutes
p1786
(dp1787
g8
S'0.5'
p1788
sg10
S'4.7'
p1789
sg12
S'.430'
p1790
sg14
S'2.5'
p1791
sg16
S'.388'
p1792
sg18
S'1.8'
p1793
sg20
S'13.1'
p1794
sg22
S'SG'
p1795
sg24
S'.841'
p1796
sg28
S'NBA'
p1797
sg30
S'1.1'
p1798
sg32
S'9.5'
p1799
sg34
S'1.8'
p1800
sg36
S'3.8'
p1801
sg38
S'2.9'
p1802
sg40
S'35'
p1803
sg42
S'LAL'
p1804
sg44
S'79'
p1805
sg46
S'0.4'
p1806
sg48
S'2.3'
p1807
sg50
S'3.2'
p1808
sg52
S'4.8'
p1809
sg54
S'2.4'
p1810
sg56
S'1996-97'
p1811
sg58
S'4.1'
p1812
sg60
S'1.3'
p1813
sg62
S'.471'
p1814
sg64
S'1440'
p1815
sg66
g19
sbasS'_fromYear'
p1816
S'1984'
p1817
sS'_url'
p1818
S'http://www.basketball-reference.com/players/s/scottby01.html'
p1819
sS'_perGame'
p1820
(isrc.gp1.models.PerGame
PerGame
p1821
(dp1822
g8
S'0.3'
p1823
sg10
S'2.4'
p1824
sg12
S'.430'
p1825
sS'_effectiveFieldGalPercentage'
p1826
S'.526'
p1827
sg14
S'1.3'
p1828
sg16
S'.388'
p1829
sg18
S'0.9'
p1830
sg20
S'6.7'
p1831
sg22
S'SG'
p1832
sg24
S'.841'
p1833
sg28
S'NBA'
p1834
sg30
S'0.6'
p1835
sg34
S'0.9'
p1836
sS'_fieldGoalsttempted'
p1837
S'4.8'
p1838
sg36
S'1.9'
p1839
sg38
S'1.5'
p1840
sg40
S'35'
p1841
sg42
S'LAL'
p1842
sg44
S'79'
p1843
sg46
S'0.2'
p1844
sg48
S'1.1'
p1845
sg50
S'1.6'
p1846
sg52
S'2.4'
p1847
sg54
S'1.2'
p1848
sg56
S'1996-97'
p1849
sg58
S'2.1'
p1850
sg60
S'0.7'
p1851
sg62
S'.471'
p1852
sg64
S'18.2'
p1853
sg66
g19
sbsS'_weight'
p1854
S'195'
p1855
sS'_dob'
p1856
S'28-3-1961'
p1857
sS'_salary'
p1858
(lp1859
(isrc.gp1.models.Salary
Salary
p1860
(dp1861
g42
S'Los Angeles Lakers'
p1862
sg28
S'NBA'
p1863
sg1858
S'$420,000'
p1864
sg56
S'1985-86'
p1865
sba(isrc.gp1.models.Salary
Salary
p1866
(dp1867
g42
S'Los Angeles Lakers'
p1868
sg28
S'NBA'
p1869
sg1858
S'$600,000'
p1870
sg56
S'1987-88'
p1871
sba(isrc.gp1.models.Salary
Salary
p1872
(dp1873
g42
S'Los Angeles Lakers'
p1874
sg28
S'NBA'
p1875
sg1858
S'$1,000,000'
p1876
sg56
S'1988-89'
p1877
sba(isrc.gp1.models.Salary
Salary
p1878
(dp1879
g42
S'Los Angeles Lakers'
p1880
sg28
S'NBA'
p1881
sg1858
S'$1,100,000'
p1882
sg56
S'1990-91'
p1883
sba(isrc.gp1.models.Salary
Salary
p1884
(dp1885
g42
S'Los Angeles Lakers'
p1886
sg28
S'NBA'
p1887
sg1858
S'$1,100,000'
p1888
sg56
S'1991-92'
p1889
sba(isrc.gp1.models.Salary
Salary
p1890
(dp1891
g42
S'Los Angeles Lakers'
p1892
sg28
S'NBA'
p1893
sg1858
S'$1,100,000'
p1894
sg56
S'1992-93'
p1895
sba(isrc.gp1.models.Salary
Salary
p1896
(dp1897
g42
S'Indiana Pacers'
p1898
sg28
S'NBA'
p1899
sg1858
S'$650,000'
p1900
sg56
S'1993-94'
p1901
sba(isrc.gp1.models.Salary
Salary
p1902
(dp1903
g42
S'Indiana Pacers'
p1904
sg28
S'NBA'
p1905
sg1858
S'$1,550,000'
p1906
sg56
S'1994-95'
p1907
sba(isrc.gp1.models.Salary
Salary
p1908
(dp1909
g42
S'Vancouver Grizzlies'
p1910
sg28
S'NBA'
p1911
sg1858
S'$1,650,000'
p1912
sg56
S'1995-96'
p1913
sba(isrc.gp1.models.Salary
Salary
p1914
(dp1915
g42
S'Los Angeles Lakers'
p1916
sg28
S'NBA'
p1917
sg1858
S'$247,500'
p1918
sg56
S'1996-97'
p1919
sba(isrc.gp1.models.Salary
Salary
p1920
(dp1921
g42
S'Los Angeles Lakers'
p1922
sg28
S'NBA'
p1923
sg1858
S'$510,000'
p1924
sg56
S'1999-00'
p1925
sbasg22
S'G'
p1926
sb.