(isrc.gp1.models.Player
Player
p0
(dp1
S'_experience'
p2
S'NA'
p3
sS'_totals'
p4
(lp5
(isrc.gp1.models.Totals
Totals
p6
(dp7
S'_offensiveRebounds'
p8
S'2'
p9
sS'_threePointsAttempted'
p10
g9
sS'_fieldGoalsPercentage'
p11
S'.328'
p12
sS'_assist'
p13
S'36'
p14
sS'_threePointsPercentage'
p15
S'.000'
p16
sS'_threePoints'
p17
S'0'
p18
sS'_points'
p19
S'61'
p20
sS'_position'
p21
S'PG'
p22
sS'_freeThrowsPercentage'
p23
S'.767'
p24
sS'_effectiveFieldGoalPercentage'
p25
S'.328'
p26
sS'_league'
p27
S'NBA'
p28
sS'_steals'
p29
S'7'
p30
sS'_fieldGoalsAttempted'
p31
S'58'
p32
sS'_personalFouls'
p33
S'27'
p34
sS'_freeThrowsAttempted'
p35
S'30'
p36
sS'_totalRebounds'
p37
g30
sS'_age'
p38
S'21'
p39
sS'_team'
p40
S'WAS'
p41
sS'_games'
p42
S'20'
p43
sS'_blocks'
p44
S'1'
p45
sS'_twoPoints'
p46
S'19'
p47
sS'_freeThrows'
p48
S'23'
p49
sS'_twoPointsAttempted'
p50
S'56'
p51
sS'_defensiveRebounds'
p52
S'5'
p53
sS'_season'
p54
S'1997-98'
p55
sS'_fieldGoals'
p56
S'19'
p57
sS'_turnOvers'
p58
S'21'
p59
sS'_twoPointsPercentage'
p60
S'.339'
p61
sS'_minutesPlayed'
p62
S'146'
p63
sS'_gamesStarted'
p64
g18
sbasS'_college'
p65
S'Providence College'
p66
sS'_toYear'
p67
S'1998'
p68
sS'_height'
p69
S'6-0'
p70
sS'_active'
p71
I00
sS'_shootingHand'
p72
VRight
p73
sS'_name'
p74
S'God Shammgod'
p75
sS'_per100Possessions'
p76
(lp77
(isrc.gp1.models.Per100Possession
Per100Possession
p78
(dp79
g8
S'0.7'
p80
sg10
S'0.7'
p81
sg11
S'.328'
p82
sS'_offensiveRating'
p83
S'87'
p84
sg13
S'12.9'
p85
sg15
S'.000'
p86
sg17
S'0.0'
p87
sg19
S'21.8'
p88
sg21
S'PG'
p89
sS'_defensiveRating'
p90
S'107'
p91
sg23
S'.767'
p92
sg27
S'NBA'
p93
sg29
S'2.5'
p94
sg31
S'20.8'
p95
sg33
S'9.7'
p96
sg35
S'10.7'
p97
sg37
S'2.5'
p98
sg38
S'21'
p99
sg40
S'WAS'
p100
sg42
S'20'
p101
sg44
S'0.4'
p102
sg46
S'6.8'
p103
sg48
S'8.2'
p104
sg50
S'20.1'
p105
sg52
S'1.8'
p106
sg54
S'1997-98'
p107
sg56
S'6.8'
p108
sg58
S'7.5'
p109
sg60
S'.339'
p110
sg62
S'146'
p111
sg64
g18
sbasS'_advanced'
p112
(lp113
(isrc.gp1.models.Advanced
Advanced
p114
(dp115
S'_offensiveReboundPercentage'
p116
S'1.5'
p117
sS'_turnOverPercentage'
p118
S'22.8'
p119
sS'_winSharesPer48Minutes'
p120
S'-0.049'
p121
sS'_stealPercentage'
p122
S'2.5'
p123
sS'_usagePercentage'
p124
S'28.1'
p125
sS'_totalReboundsPercentage'
p126
S'2.7'
p127
sS'_defensiveBoxPlusMinus'
p128
S'-4.1'
p129
sg21
S'PG'
p130
sS'_valueOverReplacementPlayer'
p131
S'-0.3'
p132
sS'_trueShootingPercentage'
p133
S'.428'
p134
sS'_defensiveReboundPercentage'
p135
S'4.0'
p136
sS'_freeThrowsAttempRate'
p137
S'.517'
p138
sS'_threePointsAttempRate'
p139
S'.034'
p140
sg27
S'NBA'
p141
sS'_offensiveBoxPlusMinues'
p142
S'-5.6'
p143
sS'_assistPercentage'
p144
S'38.1'
p145
sS'_defensiveWinShares'
p146
S'0.1'
p147
sg38
S'21'
p148
sg40
S'WAS'
p149
sg42
S'20'
p150
sS'_blockPercentage'
p151
S'0.5'
p152
sS'_playerEfficiencyRating'
p153
S'9.2'
p154
sS'_offensiveWinShares'
p155
S'-0.3'
p156
sg62
S'146'
p157
sS'_boxPlusMinus'
p158
S'-9.6'
p159
sg54
S'1997-98'
p160
sS'_winShares'
p161
S'-0.1'
p162
sbasS'_per36Minutes'
p163
(lp164
(isrc.gp1.models.Per36Minutes
Per36Minutes
p165
(dp166
g8
S'0.5'
p167
sg10
S'0.5'
p168
sg11
S'.328'
p169
sg13
S'8.9'
p170
sg15
S'.000'
p171
sg17
S'0.0'
p172
sg19
S'15.0'
p173
sg21
S'PG'
p174
sg23
S'.767'
p175
sg27
S'NBA'
p176
sg29
S'1.7'
p177
sg31
S'14.3'
p178
sg33
S'6.7'
p179
sg35
S'7.4'
p180
sg37
S'1.7'
p181
sg38
S'21'
p182
sg40
S'WAS'
p183
sg42
S'20'
p184
sg44
S'0.2'
p185
sg46
S'4.7'
p186
sg48
S'5.7'
p187
sg50
S'13.8'
p188
sg52
S'1.2'
p189
sg54
S'1997-98'
p190
sg56
S'4.7'
p191
sg58
S'5.2'
p192
sg60
S'.339'
p193
sg62
S'146'
p194
sg64
g18
sbasS'_fromYear'
p195
S'1998'
p196
sS'_url'
p197
S'http://www.basketball-reference.com/players/s/shammgo01.html'
p198
sS'_perGame'
p199
(isrc.gp1.models.PerGame
PerGame
p200
(dp201
g8
S'0.1'
p202
sg10
S'0.1'
p203
sg11
S'.328'
p204
sS'_effectiveFieldGalPercentage'
p205
S'.328'
p206
sg13
S'1.8'
p207
sg15
S'.000'
p208
sg17
S'0.0'
p209
sg19
S'3.1'
p210
sg21
S'PG'
p211
sg23
S'.767'
p212
sg27
S'NBA'
p213
sg29
S'0.4'
p214
sg33
S'1.4'
p215
sS'_fieldGoalsttempted'
p216
S'2.9'
p217
sg35
S'1.5'
p218
sg37
S'0.4'
p219
sg38
S'21'
p220
sg40
S'WAS'
p221
sg42
S'20'
p222
sg44
S'0.1'
p223
sg46
S'1.0'
p224
sg48
S'1.2'
p225
sg50
S'2.8'
p226
sg52
S'0.3'
p227
sg54
S'1997-98'
p228
sg56
S'1.0'
p229
sg58
S'1.1'
p230
sg60
S'.339'
p231
sg62
S'7.3'
p232
sg64
g18
sbsS'_weight'
p233
S'169'
p234
sS'_dob'
p235
S'29-4-1976'
p236
sS'_salary'
p237
(lp238
(isrc.gp1.models.Salary
Salary
p239
(dp240
g40
S'Washington Wizards'
p241
sg27
S'NBA'
p242
sg237
S'$242,250'
p243
sg54
S'1997-98'
p244
sbasg21
S'G'
p245
sb.