(isrc.gp1.models.Player
Player
p0
(dp1
S'_experience'
p2
S'NA'
p3
sS'_totals'
p4
(lp5
(isrc.gp1.models.Totals
Totals
p6
(dp7
S'_offensiveRebounds'
p8
g3
sS'_threePointsAttempted'
p9
g3
sS'_fieldGoalsPercentage'
p10
S'.322'
p11
sS'_assist'
p12
S'66'
p13
sS'_threePointsPercentage'
p14
g3
sS'_threePoints'
p15
g3
sS'_points'
p16
S'248'
p17
sS'_position'
p18
S'C'
p19
sS'_freeThrowsPercentage'
p20
S'.619'
p21
sS'_effectiveFieldGoalPercentage'
p22
S'.322'
p23
sS'_league'
p24
S'NBA'
p25
sS'_steals'
p26
g3
sS'_fieldGoalsAttempted'
p27
S'236'
p28
sS'_personalFouls'
p29
S'141'
p30
sS'_freeThrowsAttempted'
p31
S'155'
p32
sS'_totalRebounds'
p33
S'331'
p34
sS'_age'
p35
S'24'
p36
sS'_team'
p37
S'FTW'
p38
sS'_games'
p39
S'63'
p40
sS'_blocks'
p41
g3
sS'_twoPoints'
p42
S'76'
p43
sS'_freeThrows'
p44
S'96'
p45
sS'_twoPointsAttempted'
p46
S'236'
p47
sS'_defensiveRebounds'
p48
g3
sS'_season'
p49
S'1951-52'
p50
sS'_fieldGoals'
p51
S'76'
p52
sS'_turnOvers'
p53
g3
sS'_twoPointsPercentage'
p54
S'.322'
p55
sS'_minutesPlayed'
p56
S'882'
p57
sS'_gamesStarted'
p58
g3
sba(isrc.gp1.models.Totals
Totals
p59
(dp60
g8
g3
sg9
g3
sg10
S'.358'
p61
sg12
S'74'
p62
sg14
g3
sg15
g3
sg16
S'354'
p63
sg18
g19
sg20
S'.735'
p64
sg22
S'.358'
p65
sg24
S'NBA'
p66
sg26
g3
sg27
S'254'
p67
sg29
S'213'
p68
sg31
S'234'
p69
sg33
S'373'
p70
sg35
S'25'
p71
sg37
S'FTW'
p72
sg39
S'67'
p73
sg41
g3
sg42
S'91'
p74
sg44
S'172'
p75
sg46
S'254'
p76
sg48
g3
sg49
S'1952-53'
p77
sg51
S'91'
p78
sg53
g3
sg54
S'.358'
p79
sg56
S'1044'
p80
sg58
g3
sba(isrc.gp1.models.Totals
Totals
p81
(dp82
g8
g3
sg9
g3
sg10
S'.381'
p83
sg12
S'80'
p84
sg14
g3
sg15
g3
sg16
S'564'
p85
sg18
g19
sg20
S'.684'
p86
sg22
S'.381'
p87
sg24
S'NBA'
p88
sg26
g3
sg27
S'493'
p89
sg29
S'210'
p90
sg31
S'275'
p91
sg33
S'555'
p92
sg35
S'26'
p93
sg37
S'TOT'
p94
sg39
S'68'
p95
sg41
g3
sg42
S'188'
p96
sg44
S'188'
p97
sg46
S'493'
p98
sg48
g3
sg49
S'1953-54'
p99
sg51
S'188'
p100
sg53
g3
sg54
S'.381'
p101
sg56
S'1576'
p102
sg58
g3
sba(isrc.gp1.models.Totals
Totals
p103
(dp104
g8
g3
sg9
g3
sg10
S'.257'
p105
sg12
S'10'
p106
sg14
g3
sg15
g3
sg16
S'36'
p107
sg18
g19
sg20
S'.600'
p108
sg22
S'.257'
p109
sg24
S'NBA'
p110
sg26
g3
sg27
S'35'
p111
sg29
S'26'
p112
sg31
S'30'
p113
sg33
S'62'
p114
sg35
S'26'
p115
sg37
S'FTW'
p116
sg39
S'21'
p117
sg41
g3
sg42
S'9'
p118
sg44
S'18'
p119
sg46
S'35'
p120
sg48
g3
sg49
S'1953-54'
p121
sg51
g118
sg53
g3
sg54
S'.257'
p122
sg56
S'155'
p123
sg58
g3
sba(isrc.gp1.models.Totals
Totals
p124
(dp125
g8
g3
sg9
g3
sg10
S'.391'
p126
sg12
S'70'
p127
sg14
g3
sg15
g3
sg16
S'528'
p128
sg18
g19
sg20
S'.694'
p129
sg22
S'.391'
p130
sg24
S'NBA'
p131
sg26
g3
sg27
S'458'
p132
sg29
S'184'
p133
sg31
S'245'
p134
sg33
S'493'
p135
sg35
S'26'
p136
sg37
S'MLH'
p137
sg39
S'47'
p138
sg41
g3
sg42
S'179'
p139
sg44
S'170'
p140
sg46
S'458'
p141
sg48
g3
sg49
S'1953-54'
p142
sg51
S'179'
p143
sg53
g3
sg54
S'.391'
p144
sg56
S'1421'
p145
sg58
g3
sba(isrc.gp1.models.Totals
Totals
p146
(dp147
g8
g3
sg9
g3
sg10
S'.407'
p148
sg12
S'84'
p149
sg14
g3
sg15
g3
sg16
S'821'
p150
sg18
g19
sg20
S'.713'
p151
sg22
S'.407'
p152
sg24
S'NBA'
p153
sg26
g3
sg27
S'577'
p154
sg29
S'273'
p155
sg31
S'492'
p156
sg33
S'684'
p157
sg35
S'27'
p158
sg37
S'MLH'
p159
sg39
S'69'
p160
sg41
g3
sg42
S'235'
p161
sg44
S'351'
p162
sg46
S'577'
p163
sg48
g3
sg49
S'1954-55'
p164
sg51
S'235'
p165
sg53
g3
sg54
S'.407'
p166
sg56
S'1685'
p167
sg58
g3
sba(isrc.gp1.models.Totals
Totals
p168
(dp169
g8
g3
sg9
g3
sg10
S'.430'
p170
sg12
S'131'
p171
sg14
g3
sg15
g3
sg16
S'976'
p172
sg18
g19
sg20
S'.695'
p173
sg22
S'.430'
p174
sg24
S'NBA'
p175
sg26
g3
sg27
S'733'
p176
sg29
S'318'
p177
sg31
S'498'
p178
sg33
S'774'
p179
sg35
S'28'
p180
sg37
S'STL'
p181
sg39
S'72'
p182
sg41
g3
sg42
S'315'
p183
sg44
S'346'
p184
sg46
S'733'
p185
sg48
g3
sg49
S'1955-56'
p186
sg51
S'315'
p187
sg53
g3
sg54
S'.430'
p188
sg56
S'1975'
p189
sg58
g3
sba(isrc.gp1.models.Totals
Totals
p190
(dp191
g8
g3
sg9
g3
sg10
S'.439'
p192
sg12
S'79'
p193
sg14
g3
sg15
g3
sg16
S'739'
p194
sg18
g19
sg20
S'.684'
p195
sg22
S'.439'
p196
sg24
S'NBA'
p197
sg26
g3
sg27
S'535'
p198
sg29
S'269'
p199
sg31
S'393'
p200
sg33
S'642'
p201
sg35
S'29'
p202
sg37
S'STL'
p203
sg39
S'72'
p204
sg41
g3
sg42
S'235'
p205
sg44
S'269'
p206
sg46
S'535'
p207
sg48
g3
sg49
S'1956-57'
p208
sg51
S'235'
p209
sg53
g3
sg54
S'.439'
p210
sg56
S'1673'
p211
sg58
g3
sba(isrc.gp1.models.Totals
Totals
p212
(dp213
g8
g3
sg9
g3
sg10
S'.396'
p214
sg12
S'130'
p215
sg14
g3
sg15
g3
sg16
S'622'
p216
sg18
g19
sg20
S'.648'
p217
sg22
S'.396'
p218
sg24
S'NBA'
p219
sg26
g3
sg27
S'545'
p220
sg29
S'279'
p221
sg31
S'293'
p222
sg33
S'749'
p223
sg35
S'30'
p224
sg37
S'STL'
p225
sg39
S'72'
p226
sg41
g3
sg42
S'216'
p227
sg44
S'190'
p228
sg46
S'545'
p229
sg48
g3
sg49
S'1957-58'
p230
sg51
S'216'
p231
sg53
g3
sg54
S'.396'
p232
sg56
S'1824'
p233
sg58
g3
sba(isrc.gp1.models.Totals
Totals
p234
(dp235
g8
g3
sg9
g3
sg10
S'.386'
p236
sg12
S'103'
p237
sg14
g3
sg15
g3
sg16
S'433'
p238
sg18
g19
sg20
S'.755'
p239
sg22
S'.386'
p240
sg24
S'NBA'
p241
sg26
g3
sg27
S'381'
p242
sg29
S'261'
p243
sg31
S'184'
p244
sg33
S'657'
p245
sg35
S'31'
p246
sg37
S'STL'
p247
sg39
S'72'
p248
sg41
g3
sg42
S'147'
p249
sg44
S'139'
p250
sg46
S'381'
p251
sg48
g3
sg49
S'1958-59'
p252
sg51
S'147'
p253
sg53
g3
sg54
S'.386'
p254
sg56
S'1713'
p255
sg58
g3
sba(isrc.gp1.models.Totals
Totals
p256
(dp257
g8
g3
sg9
g3
sg10
S'.391'
p258
sg12
S'62'
p259
sg14
g3
sg15
g3
sg16
S'171'
p260
sg18
g3
sg20
S'.663'
p261
sg22
S'.391'
p262
sg24
S'NBA'
p263
sg26
g3
sg27
S'151'
p264
sg29
S'142'
p265
sg31
S'80'
p266
sg33
S'221'
p267
sg35
S'32'
p268
sg37
S'TOT'
p269
sg39
S'41'
p270
sg41
g3
sg42
S'59'
p271
sg44
S'53'
p272
sg46
S'151'
p273
sg48
g3
sg49
S'1959-60'
p274
sg51
S'59'
p275
sg53
g3
sg54
S'.391'
p276
sg56
S'651'
p277
sg58
g3
sba(isrc.gp1.models.Totals
Totals
p278
(dp279
g8
g3
sg9
g3
sg10
g3
sg12
g3
sg14
g3
sg15
g3
sg16
g3
sg18
g3
sg20
g3
sg22
g3
sg24
S'NBA'
p280
sg26
g3
sg27
g3
sg29
g3
sg31
g3
sg33
g3
sg35
S'32'
p281
sg37
S'STL'
p282
sg39
S'38'
p283
sg41
g3
sg42
g3
sg44
g3
sg46
g3
sg48
g3
sg49
S'1959-60'
p284
sg51
g3
sg53
g3
sg54
g3
sg56
g3
sg58
g3
sba(isrc.gp1.models.Totals
Totals
p285
(dp286
g8
g3
sg9
g3
sg10
g3
sg12
g3
sg14
g3
sg15
g3
sg16
g3
sg18
g3
sg20
g3
sg22
g3
sg24
S'NBA'
p287
sg26
g3
sg27
g3
sg29
g3
sg31
g3
sg33
g3
sg35
S'32'
p288
sg37
S'MNL'
p289
sg39
S'3'
p290
sg41
g3
sg42
g3
sg44
g3
sg46
g3
sg48
g3
sg49
S'1959-60'
p291
sg51
g3
sg53
g3
sg54
g3
sg56
g3
sg58
g3
sbasS'_college'
p292
S'Bowling Green State University'
p293
sS'_toYear'
p294
S'1960'
p295
sS'_height'
p296
S'6-11'
p297
sS'_active'
p298
I00
sS'_shootingHand'
p299
VRight
p300
sS'_name'
p301
S'Chuck Share'
p302
sS'_per100Possessions'
p303
(lp304
sS'_advanced'
p305
(lp306
(isrc.gp1.models.Advanced
Advanced
p307
(dp308
S'_offensiveReboundPercentage'
p309
g3
sS'_turnOverPercentage'
p310
g3
sS'_winSharesPer48Minutes'
p311
S'.070'
p312
sS'_stealPercentage'
p313
g3
sS'_usagePercentage'
p314
g3
sS'_totalReboundsPercentage'
p315
g3
sS'_defensiveBoxPlusMinus'
p316
g3
sg18
g19
sS'_valueOverReplacementPlayer'
p317
g3
sS'_trueShootingPercentage'
p318
S'.408'
p319
sS'_defensiveReboundPercentage'
p320
g3
sS'_freeThrowsAttempRate'
p321
S'.657'
p322
sS'_threePointsAttempRate'
p323
g3
sg24
S'NBA'
p324
sS'_offensiveBoxPlusMinues'
p325
g3
sS'_assistPercentage'
p326
g3
sS'_defensiveWinShares'
p327
S'1.2'
p328
sg35
S'24'
p329
sg37
S'FTW'
p330
sg39
S'63'
p331
sS'_blockPercentage'
p332
g3
sS'_playerEfficiencyRating'
p333
S'15.9'
p334
sS'_offensiveWinShares'
p335
S'0.1'
p336
sg56
S'882'
p337
sS'_boxPlusMinus'
p338
g3
sg49
S'1951-52'
p339
sS'_winShares'
p340
S'1.3'
p341
sba(isrc.gp1.models.Advanced
Advanced
p342
(dp343
g309
g3
sg310
g3
sg311
S'.186'
p344
sg313
g3
sg314
g3
sg315
g3
sg316
g3
sg18
g19
sg317
g3
sg318
S'.496'
p345
sg320
g3
sg321
S'.921'
p346
sg323
g3
sg24
S'NBA'
p347
sg325
g3
sg326
g3
sg327
S'1.7'
p348
sg35
S'25'
p349
sg37
S'FTW'
p350
sg39
S'67'
p351
sg332
g3
sg333
S'19.1'
p352
sg335
S'2.4'
p353
sg56
S'1044'
p354
sg338
g3
sg49
S'1952-53'
p355
sg340
S'4.0'
p356
sba(isrc.gp1.models.Advanced
Advanced
p357
(dp358
g309
g3
sg310
g3
sg311
S'.143'
p359
sg313
g3
sg314
g3
sg315
g3
sg316
g3
sg18
g19
sg317
g3
sg318
S'.459'
p360
sg320
g3
sg321
S'.558'
p361
sg323
g3
sg24
S'NBA'
p362
sg325
g3
sg326
g3
sg327
S'2.2'
p363
sg35
S'26'
p364
sg37
S'TOT'
p365
sg39
S'68'
p366
sg332
g3
sg333
S'20.1'
p367
sg335
S'2.5'
p368
sg56
S'1576'
p369
sg338
g3
sg49
S'1953-54'
p370
sg340
S'4.7'
p371
sba(isrc.gp1.models.Advanced
Advanced
p372
(dp373
g309
g3
sg310
g3
sg311
S'.039'
p374
sg313
g3
sg314
g3
sg315
g3
sg316
g3
sg18
g19
sg317
g3
sg318
S'.373'
p375
sg320
g3
sg321
S'.857'
p376
sg323
g3
sg24
S'NBA'
p377
sg325
g3
sg326
g3
sg327
S'0.2'
p378
sg35
S'26'
p379
sg37
S'FTW'
p380
sg39
S'21'
p381
sg332
g3
sg333
S'13.8'
p382
sg335
S'-0.1'
p383
sg56
S'155'
p384
sg338
g3
sg49
S'1953-54'
p385
sg340
S'0.1'
p386
sba(isrc.gp1.models.Advanced
Advanced
p387
(dp388
g309
g3
sg310
g3
sg311
S'.155'
p389
sg313
g3
sg314
g3
sg315
g3
sg316
g3
sg18
g19
sg317
g3
sg318
S'.467'
p390
sg320
g3
sg321
S'.535'
p391
sg323
g3
sg24
S'NBA'
p392
sg325
g3
sg326
g3
sg327
S'1.9'
p393
sg35
S'26'
p394
sg37
S'MLH'
p395
sg39
S'47'
p396
sg332
g3
sg333
S'20.7'
p397
sg335
S'2.7'
p398
sg56
S'1421'
p399
sg338
g3
sg49
S'1953-54'
p400
sg340
S'4.6'
p401
sba(isrc.gp1.models.Advanced
Advanced
p402
(dp403
g309
g3
sg310
g3
sg311
S'.232'
p404
sg313
g3
sg314
g3
sg315
g3
sg316
g3
sg18
g19
sg317
g3
sg318
S'.517'
p405
sg320
g3
sg321
S'.853'
p406
sg323
g3
sg24
S'NBA'
p407
sg325
g3
sg326
g3
sg327
S'2.9'
p408
sg35
S'27'
p409
sg37
S'MLH'
p410
sg39
S'69'
p411
sg332
g3
sg333
S'22.0'
p412
sg335
S'5.3'
p413
sg56
S'1685'
p414
sg338
g3
sg49
S'1954-55'
p415
sg340
S'8.1'
p416
sba(isrc.gp1.models.Advanced
Advanced
p417
(dp418
g309
g3
sg310
g3
sg311
S'.210'
p419
sg313
g3
sg314
g3
sg315
g3
sg316
g3
sg18
g19
sg317
g3
sg318
S'.513'
p420
sg320
g3
sg321
S'.679'
p421
sg323
g3
sg24
S'NBA'
p422
sg325
g3
sg326
g3
sg327
S'3.3'
p423
sg35
S'28'
p424
sg37
S'STL'
p425
sg39
S'72'
p426
sg332
g3
sg333
S'20.6'
p427
sg335
S'5.4'
p428
sg56
S'1975'
p429
sg338
g3
sg49
S'1955-56'
p430
sg340
S'8.6'
p431
sba(isrc.gp1.models.Advanced
Advanced
p432
(dp433
g309
g3
sg310
g3
sg311
S'.193'
p434
sg313
g3
sg314
g3
sg315
g3
sg316
g3
sg18
g19
sg317
g3
sg318
S'.522'
p435
sg320
g3
sg321
S'.735'
p436
sg323
g3
sg24
S'NBA'
p437
sg325
g3
sg326
g3
sg327
S'2.0'
p438
sg35
S'29'
p439
sg37
S'STL'
p440
sg39
S'72'
p441
sg332
g3
sg333
S'18.9'
p442
sg335
S'4.7'
p443
sg56
S'1673'
p444
sg338
g3
sg49
S'1956-57'
p445
sg340
S'6.7'
p446
sba(isrc.gp1.models.Advanced
Advanced
p447
(dp448
g309
g3
sg310
g3
sg311
S'.110'
p449
sg313
g3
sg314
g3
sg315
g3
sg316
g3
sg18
g19
sg317
g3
sg318
S'.461'
p450
sg320
g3
sg321
S'.538'
p451
sg323
g3
sg24
S'NBA'
p452
sg325
g3
sg326
g3
sg327
S'2.2'
p453
sg35
S'30'
p454
sg37
S'STL'
p455
sg39
S'72'
p456
sg332
g3
sg333
S'14.7'
p457
sg335
S'1.9'
p458
sg56
S'1824'
p459
sg338
g3
sg49
S'1957-58'
p460
sg340
S'4.2'
p461
sba(isrc.gp1.models.Advanced
Advanced
p462
(dp463
g309
g3
sg310
g3
sg311
S'.091'
p464
sg313
g3
sg314
g3
sg315
g3
sg316
g3
sg18
g19
sg317
g3
sg318
S'.469'
p465
sg320
g3
sg321
S'.483'
p466
sg323
g3
sg24
S'NBA'
p467
sg325
g3
sg326
g3
sg327
S'1.9'
p468
sg35
S'31'
p469
sg37
S'STL'
p470
sg39
S'72'
p471
sg332
g3
sg333
S'12.1'
p472
sg335
S'1.3'
p473
sg56
S'1713'
p474
sg338
g3
sg49
S'1958-59'
p475
sg340
S'3.3'
p476
sba(isrc.gp1.models.Advanced
Advanced
p477
(dp478
g309
g3
sg310
g3
sg311
g3
sg313
g3
sg314
g3
sg315
g3
sg316
g3
sg18
g3
sg317
g3
sg318
S'.459'
p479
sg320
g3
sg321
S'.530'
p480
sg323
g3
sg24
S'NBA'
p481
sg325
g3
sg326
g3
sg327
g3
sg35
S'32'
p482
sg37
S'TOT'
p483
sg39
S'41'
p484
sg332
g3
sg333
g3
sg335
g3
sg56
S'651'
p485
sg338
g3
sg49
S'1959-60'
p486
sg340
g3
sba(isrc.gp1.models.Advanced
Advanced
p487
(dp488
g309
g3
sg310
g3
sg311
g3
sg313
g3
sg314
g3
sg315
g3
sg316
g3
sg18
g3
sg317
g3
sg318
g3
sg320
g3
sg321
g3
sg323
g3
sg24
S'NBA'
p489
sg325
g3
sg326
g3
sg327
g3
sg35
S'32'
p490
sg37
S'STL'
p491
sg39
S'38'
p492
sg332
g3
sg333
g3
sg335
g3
sg56
g3
sg338
g3
sg49
S'1959-60'
p493
sg340
g3
sba(isrc.gp1.models.Advanced
Advanced
p494
(dp495
g309
g3
sg310
g3
sg311
g3
sg313
g3
sg314
g3
sg315
g3
sg316
g3
sg18
g3
sg317
g3
sg318
g3
sg320
g3
sg321
g3
sg323
g3
sg24
S'NBA'
p496
sg325
g3
sg326
g3
sg327
g3
sg35
S'32'
p497
sg37
S'MNL'
p498
sg39
g290
sg332
g3
sg333
g3
sg335
g3
sg56
g3
sg338
g3
sg49
S'1959-60'
p499
sg340
g3
sbasS'_per36Minutes'
p500
(lp501
(isrc.gp1.models.Per36Minutes
Per36Minutes
p502
(dp503
g8
g3
sg9
g3
sg10
S'.322'
p504
sg12
S'2.7'
p505
sg14
g3
sg15
g3
sg16
S'10.1'
p506
sg18
g19
sg20
S'.619'
p507
sg24
S'NBA'
p508
sg26
g3
sg27
S'9.6'
p509
sg29
S'5.8'
p510
sg31
S'6.3'
p511
sg33
S'13.5'
p512
sg35
S'24'
p513
sg37
S'FTW'
p514
sg39
S'63'
p515
sg41
g3
sg42
S'3.1'
p516
sg44
S'3.9'
p517
sg46
S'9.6'
p518
sg48
g3
sg49
S'1951-52'
p519
sg51
S'3.1'
p520
sg53
g3
sg54
S'.322'
p521
sg56
S'882'
p522
sg58
g3
sba(isrc.gp1.models.Per36Minutes
Per36Minutes
p523
(dp524
g8
g3
sg9
g3
sg10
S'.358'
p525
sg12
S'2.6'
p526
sg14
g3
sg15
g3
sg16
S'12.2'
p527
sg18
g19
sg20
S'.735'
p528
sg24
S'NBA'
p529
sg26
g3
sg27
S'8.8'
p530
sg29
S'7.3'
p531
sg31
S'8.1'
p532
sg33
S'12.9'
p533
sg35
S'25'
p534
sg37
S'FTW'
p535
sg39
S'67'
p536
sg41
g3
sg42
S'3.1'
p537
sg44
S'5.9'
p538
sg46
S'8.8'
p539
sg48
g3
sg49
S'1952-53'
p540
sg51
S'3.1'
p541
sg53
g3
sg54
S'.358'
p542
sg56
S'1044'
p543
sg58
g3
sba(isrc.gp1.models.Per36Minutes
Per36Minutes
p544
(dp545
g8
g3
sg9
g3
sg10
S'.381'
p546
sg12
S'1.8'
p547
sg14
g3
sg15
g3
sg16
S'12.9'
p548
sg18
g19
sg20
S'.684'
p549
sg24
S'NBA'
p550
sg26
g3
sg27
S'11.3'
p551
sg29
S'4.8'
p552
sg31
S'6.3'
p553
sg33
S'12.7'
p554
sg35
S'26'
p555
sg37
S'TOT'
p556
sg39
S'68'
p557
sg41
g3
sg42
S'4.3'
p558
sg44
S'4.3'
p559
sg46
S'11.3'
p560
sg48
g3
sg49
S'1953-54'
p561
sg51
S'4.3'
p562
sg53
g3
sg54
S'.381'
p563
sg56
S'1576'
p564
sg58
g3
sba(isrc.gp1.models.Per36Minutes
Per36Minutes
p565
(dp566
g8
g3
sg9
g3
sg10
S'.257'
p567
sg12
S'2.3'
p568
sg14
g3
sg15
g3
sg16
S'8.4'
p569
sg18
g19
sg20
S'.600'
p570
sg24
S'NBA'
p571
sg26
g3
sg27
S'8.1'
p572
sg29
S'6.0'
p573
sg31
S'7.0'
p574
sg33
S'14.4'
p575
sg35
S'26'
p576
sg37
S'FTW'
p577
sg39
S'21'
p578
sg41
g3
sg42
S'2.1'
p579
sg44
S'4.2'
p580
sg46
S'8.1'
p581
sg48
g3
sg49
S'1953-54'
p582
sg51
S'2.1'
p583
sg53
g3
sg54
S'.257'
p584
sg56
S'155'
p585
sg58
g3
sba(isrc.gp1.models.Per36Minutes
Per36Minutes
p586
(dp587
g8
g3
sg9
g3
sg10
S'.391'
p588
sg12
S'1.8'
p589
sg14
g3
sg15
g3
sg16
S'13.4'
p590
sg18
g19
sg20
S'.694'
p591
sg24
S'NBA'
p592
sg26
g3
sg27
S'11.6'
p593
sg29
S'4.7'
p594
sg31
S'6.2'
p595
sg33
S'12.5'
p596
sg35
S'26'
p597
sg37
S'MLH'
p598
sg39
S'47'
p599
sg41
g3
sg42
S'4.5'
p600
sg44
S'4.3'
p601
sg46
S'11.6'
p602
sg48
g3
sg49
S'1953-54'
p603
sg51
S'4.5'
p604
sg53
g3
sg54
S'.391'
p605
sg56
S'1421'
p606
sg58
g3
sba(isrc.gp1.models.Per36Minutes
Per36Minutes
p607
(dp608
g8
g3
sg9
g3
sg10
S'.407'
p609
sg12
S'1.8'
p610
sg14
g3
sg15
g3
sg16
S'17.5'
p611
sg18
g19
sg20
S'.713'
p612
sg24
S'NBA'
p613
sg26
g3
sg27
S'12.3'
p614
sg29
S'5.8'
p615
sg31
S'10.5'
p616
sg33
S'14.6'
p617
sg35
S'27'
p618
sg37
S'MLH'
p619
sg39
S'69'
p620
sg41
g3
sg42
S'5.0'
p621
sg44
S'7.5'
p622
sg46
S'12.3'
p623
sg48
g3
sg49
S'1954-55'
p624
sg51
S'5.0'
p625
sg53
g3
sg54
S'.407'
p626
sg56
S'1685'
p627
sg58
g3
sba(isrc.gp1.models.Per36Minutes
Per36Minutes
p628
(dp629
g8
g3
sg9
g3
sg10
S'.430'
p630
sg12
S'2.4'
p631
sg14
g3
sg15
g3
sg16
S'17.8'
p632
sg18
g19
sg20
S'.695'
p633
sg24
S'NBA'
p634
sg26
g3
sg27
S'13.4'
p635
sg29
S'5.8'
p636
sg31
S'9.1'
p637
sg33
S'14.1'
p638
sg35
S'28'
p639
sg37
S'STL'
p640
sg39
S'72'
p641
sg41
g3
sg42
S'5.7'
p642
sg44
S'6.3'
p643
sg46
S'13.4'
p644
sg48
g3
sg49
S'1955-56'
p645
sg51
S'5.7'
p646
sg53
g3
sg54
S'.430'
p647
sg56
S'1975'
p648
sg58
g3
sba(isrc.gp1.models.Per36Minutes
Per36Minutes
p649
(dp650
g8
g3
sg9
g3
sg10
S'.439'
p651
sg12
S'1.7'
p652
sg14
g3
sg15
g3
sg16
S'15.9'
p653
sg18
g19
sg20
S'.684'
p654
sg24
S'NBA'
p655
sg26
g3
sg27
S'11.5'
p656
sg29
S'5.8'
p657
sg31
S'8.5'
p658
sg33
S'13.8'
p659
sg35
S'29'
p660
sg37
S'STL'
p661
sg39
S'72'
p662
sg41
g3
sg42
S'5.1'
p663
sg44
S'5.8'
p664
sg46
S'11.5'
p665
sg48
g3
sg49
S'1956-57'
p666
sg51
S'5.1'
p667
sg53
g3
sg54
S'.439'
p668
sg56
S'1673'
p669
sg58
g3
sba(isrc.gp1.models.Per36Minutes
Per36Minutes
p670
(dp671
g8
g3
sg9
g3
sg10
S'.396'
p672
sg12
S'2.6'
p673
sg14
g3
sg15
g3
sg16
S'12.3'
p674
sg18
g19
sg20
S'.648'
p675
sg24
S'NBA'
p676
sg26
g3
sg27
S'10.8'
p677
sg29
S'5.5'
p678
sg31
S'5.8'
p679
sg33
S'14.8'
p680
sg35
S'30'
p681
sg37
S'STL'
p682
sg39
S'72'
p683
sg41
g3
sg42
S'4.3'
p684
sg44
S'3.7'
p685
sg46
S'10.8'
p686
sg48
g3
sg49
S'1957-58'
p687
sg51
S'4.3'
p688
sg53
g3
sg54
S'.396'
p689
sg56
S'1824'
p690
sg58
g3
sba(isrc.gp1.models.Per36Minutes
Per36Minutes
p691
(dp692
g8
g3
sg9
g3
sg10
S'.386'
p693
sg12
S'2.2'
p694
sg14
g3
sg15
g3
sg16
S'9.1'
p695
sg18
g19
sg20
S'.755'
p696
sg24
S'NBA'
p697
sg26
g3
sg27
S'8.0'
p698
sg29
S'5.5'
p699
sg31
S'3.9'
p700
sg33
S'13.8'
p701
sg35
S'31'
p702
sg37
S'STL'
p703
sg39
S'72'
p704
sg41
g3
sg42
S'3.1'
p705
sg44
S'2.9'
p706
sg46
S'8.0'
p707
sg48
g3
sg49
S'1958-59'
p708
sg51
S'3.1'
p709
sg53
g3
sg54
S'.386'
p710
sg56
S'1713'
p711
sg58
g3
sba(isrc.gp1.models.Per36Minutes
Per36Minutes
p712
(dp713
g8
g3
sg9
g3
sg10
S'.391'
p714
sg12
S'3.4'
p715
sg14
g3
sg15
g3
sg16
S'9.5'
p716
sg18
g3
sg20
S'.663'
p717
sg24
S'NBA'
p718
sg26
g3
sg27
S'8.4'
p719
sg29
S'7.9'
p720
sg31
S'4.4'
p721
sg33
S'12.2'
p722
sg35
S'32'
p723
sg37
S'TOT'
p724
sg39
S'41'
p725
sg41
g3
sg42
S'3.3'
p726
sg44
S'2.9'
p727
sg46
S'8.4'
p728
sg48
g3
sg49
S'1959-60'
p729
sg51
S'3.3'
p730
sg53
g3
sg54
S'.391'
p731
sg56
S'651'
p732
sg58
g3
sba(isrc.gp1.models.Per36Minutes
Per36Minutes
p733
(dp734
g8
g3
sg9
g3
sg10
g3
sg12
g3
sg14
g3
sg15
g3
sg16
g3
sg18
g3
sg20
g3
sg24
S'NBA'
p735
sg26
g3
sg27
g3
sg29
g3
sg31
g3
sg33
g3
sg35
S'32'
p736
sg37
S'STL'
p737
sg39
S'38'
p738
sg41
g3
sg42
g3
sg44
g3
sg46
g3
sg48
g3
sg49
S'1959-60'
p739
sg51
g3
sg53
g3
sg54
g3
sg56
g3
sg58
g3
sba(isrc.gp1.models.Per36Minutes
Per36Minutes
p740
(dp741
g8
g3
sg9
g3
sg10
g3
sg12
g3
sg14
g3
sg15
g3
sg16
g3
sg18
g3
sg20
g3
sg24
S'NBA'
p742
sg26
g3
sg27
g3
sg29
g3
sg31
g3
sg33
g3
sg35
S'32'
p743
sg37
S'MNL'
p744
sg39
g290
sg41
g3
sg42
g3
sg44
g3
sg46
g3
sg48
g3
sg49
S'1959-60'
p745
sg51
g3
sg53
g3
sg54
g3
sg56
g3
sg58
g3
sbasS'_fromYear'
p746
S'1952'
p747
sS'_url'
p748
S'http://www.basketball-reference.com/players/s/sharech01.html'
p749
sS'_perGame'
p750
(isrc.gp1.models.PerGame
PerGame
p751
(dp752
g8
g3
sg9
g3
sg10
g3
sS'_effectiveFieldGalPercentage'
p753
g3
sg12
g3
sg14
g3
sg15
g3
sg16
g3
sg18
g3
sg20
g3
sg24
S'NBA'
p754
sg26
g3
sg29
g3
sS'_fieldGoalsttempted'
p755
g3
sg31
g3
sg33
g3
sg35
S'32'
p756
sg37
S'MNL'
p757
sg39
g290
sg41
g3
sg42
g3
sg44
g3
sg46
g3
sg48
g3
sg49
S'1959-60'
p758
sg51
g3
sg53
g3
sg54
g3
sg56
g3
sg58
g3
sbsS'_weight'
p759
S'235'
p760
sS'_dob'
p761
S'14-3-1927'
p762
sS'_salary'
p763
(lp764
sg18
g19
sb.