(isrc.gp1.models.Player
Player
p0
(dp1
S'_experience'
p2
S'NA'
p3
sS'_totals'
p4
(lp5
(isrc.gp1.models.Totals
Totals
p6
(dp7
S'_offensiveRebounds'
p8
S'0'
p9
sS'_threePointsAttempted'
p10
S'2'
p11
sS'_fieldGoalsPercentage'
p12
S'.364'
p13
sS'_assist'
p14
g9
sS'_threePointsPercentage'
p15
S'.000'
p16
sS'_threePoints'
p17
g9
sS'_points'
p18
S'8'
p19
sS'_position'
p20
S'PF'
p21
sS'_freeThrowsPercentage'
p22
S'.000'
p23
sS'_effectiveFieldGoalPercentage'
p24
S'.364'
p25
sS'_league'
p26
S'NBA'
p27
sS'_steals'
p28
g9
sS'_fieldGoalsAttempted'
p29
S'11'
p30
sS'_personalFouls'
p31
S'3'
p32
sS'_freeThrowsAttempted'
p33
g11
sS'_totalRebounds'
p34
g32
sS'_age'
p35
S'22'
p36
sS'_team'
p37
S'DET'
p38
sS'_games'
p39
g19
sS'_blocks'
p40
g11
sS'_twoPoints'
p41
S'4'
p42
sS'_freeThrows'
p43
g9
sS'_twoPointsAttempted'
p44
S'9'
p45
sS'_defensiveRebounds'
p46
g32
sS'_season'
p47
S'2008-09'
p48
sS'_fieldGoals'
p49
g42
sS'_turnOvers'
p50
g9
sS'_twoPointsPercentage'
p51
S'.444'
p52
sS'_minutesPlayed'
p53
S'20'
p54
sS'_gamesStarted'
p55
g9
sbasS'_college'
p56
S'University of Alabama at Birmingham'
p57
sS'_toYear'
p58
S'2009'
p59
sS'_height'
p60
S'6-9'
p61
sS'_active'
p62
I00
sS'_shootingHand'
p63
VRight
p64
sS'_name'
p65
S'Walter Sharpe'
p66
sS'_per100Possessions'
p67
(lp68
(isrc.gp1.models.Per100Possession
Per100Possession
p69
(dp70
g8
S'0.0'
p71
sg10
S'5.5'
p72
sg12
S'.364'
p73
sS'_offensiveRating'
p74
S'71'
p75
sg14
S'0.0'
p76
sg15
S'.000'
p77
sg17
S'0.0'
p78
sg18
S'22.1'
p79
sg20
S'PF'
p80
sS'_defensiveRating'
p81
S'105'
p82
sg22
S'.000'
p83
sg26
S'NBA'
p84
sg28
S'0.0'
p85
sg29
S'30.4'
p86
sg31
S'8.3'
p87
sg33
S'5.5'
p88
sg34
S'8.3'
p89
sg35
S'22'
p90
sg37
S'DET'
p91
sg39
g19
sg40
S'5.5'
p92
sg41
S'11.1'
p93
sg43
S'0.0'
p94
sg44
S'24.9'
p95
sg46
S'8.3'
p96
sg47
S'2008-09'
p97
sg49
S'11.1'
p98
sg50
S'0.0'
p99
sg51
S'.444'
p100
sg53
S'20'
p101
sg55
g9
sbasS'_advanced'
p102
(lp103
(isrc.gp1.models.Advanced
Advanced
p104
(dp105
S'_offensiveReboundPercentage'
p106
S'0.0'
p107
sS'_turnOverPercentage'
p108
S'0.0'
p109
sS'_winSharesPer48Minutes'
p110
S'-0.131'
p111
sS'_stealPercentage'
p112
S'0.0'
p113
sS'_usagePercentage'
p114
S'28.3'
p115
sS'_totalReboundsPercentage'
p116
S'8.9'
p117
sS'_defensiveBoxPlusMinus'
p118
S'-4.5'
p119
sg20
S'PF'
p120
sS'_valueOverReplacementPlayer'
p121
S'-0.1'
p122
sS'_trueShootingPercentage'
p123
S'.337'
p124
sS'_defensiveReboundPercentage'
p125
S'18.0'
p126
sS'_freeThrowsAttempRate'
p127
S'.182'
p128
sS'_threePointsAttempRate'
p129
S'.182'
p130
sg26
S'NBA'
p131
sS'_offensiveBoxPlusMinues'
p132
S'-12.0'
p133
sS'_assistPercentage'
p134
S'0.0'
p135
sS'_defensiveWinShares'
p136
S'0.0'
p137
sg35
S'22'
p138
sg37
S'DET'
p139
sg39
g19
sS'_blockPercentage'
p140
S'7.7'
p141
sS'_playerEfficiencyRating'
p142
S'4.8'
p143
sS'_offensiveWinShares'
p144
S'-0.1'
p145
sg53
S'20'
p146
sS'_boxPlusMinus'
p147
S'-16.5'
p148
sg47
S'2008-09'
p149
sS'_winShares'
p150
S'-0.1'
p151
sbasS'_per36Minutes'
p152
(lp153
(isrc.gp1.models.Per36Minutes
Per36Minutes
p154
(dp155
g8
S'0.0'
p156
sg10
S'3.6'
p157
sg12
S'.364'
p158
sg14
S'0.0'
p159
sg15
S'.000'
p160
sg17
S'0.0'
p161
sg18
S'14.4'
p162
sg20
S'PF'
p163
sg22
S'.000'
p164
sg26
S'NBA'
p165
sg28
S'0.0'
p166
sg29
S'19.8'
p167
sg31
S'5.4'
p168
sg33
S'3.6'
p169
sg34
S'5.4'
p170
sg35
S'22'
p171
sg37
S'DET'
p172
sg39
g19
sg40
S'3.6'
p173
sg41
S'7.2'
p174
sg43
S'0.0'
p175
sg44
S'16.2'
p176
sg46
S'5.4'
p177
sg47
S'2008-09'
p178
sg49
S'7.2'
p179
sg50
S'0.0'
p180
sg51
S'.444'
p181
sg53
S'20'
p182
sg55
g9
sbasS'_fromYear'
p183
S'2009'
p184
sS'_url'
p185
S'http://www.basketball-reference.com/players/s/sharpwa01.html'
p186
sS'_perGame'
p187
(isrc.gp1.models.PerGame
PerGame
p188
(dp189
g8
S'0.0'
p190
sg10
S'0.3'
p191
sg12
S'.364'
p192
sS'_effectiveFieldGalPercentage'
p193
S'.364'
p194
sg14
S'0.0'
p195
sg15
S'.000'
p196
sg17
S'0.0'
p197
sg18
S'1.0'
p198
sg20
S'PF'
p199
sg22
S'.000'
p200
sg26
S'NBA'
p201
sg28
S'0.0'
p202
sg31
S'0.4'
p203
sS'_fieldGoalsttempted'
p204
S'1.4'
p205
sg33
S'0.3'
p206
sg34
S'0.4'
p207
sg35
S'22'
p208
sg37
S'DET'
p209
sg39
g19
sg40
S'0.3'
p210
sg41
S'0.5'
p211
sg43
S'0.0'
p212
sg44
S'1.1'
p213
sg46
S'0.4'
p214
sg47
S'2008-09'
p215
sg49
S'0.5'
p216
sg50
S'0.0'
p217
sg51
S'.444'
p218
sg53
S'2.5'
p219
sg55
g9
sbsS'_weight'
p220
S'245'
p221
sS'_dob'
p222
S'18-7-1986'
p223
sS'_salary'
p224
(lp225
(isrc.gp1.models.Salary
Salary
p226
(dp227
g37
S'Detroit Pistons'
p228
sg26
S'NBA'
p229
sg224
S'$442,114'
p230
sg47
S'2008-09'
p231
sbasg20
S'F'
p232
sb.