(isrc.gp1.models.Player
Player
p0
(dp1
S'_experience'
p2
S'NA'
p3
sS'_totals'
p4
(lp5
(isrc.gp1.models.Totals
Totals
p6
(dp7
S'_offensiveRebounds'
p8
g3
sS'_threePointsAttempted'
p9
S'.427'
p10
sS'_fieldGoalsPercentage'
p11
S'784'
p12
sS'_assist'
p13
g3
sS'_threePointsPercentage'
p14
S'.427'
p15
sS'_threePoints'
p16
S'1837'
p17
sS'_points'
p18
g3
sS'_position'
p19
S'PF'
p20
sS'_freeThrowsPercentage'
p21
S'2009'
p22
sS'_effectiveFieldGoalPercentage'
p23
S'943'
p24
sS'_league'
p25
S'NBA'
p26
sS'_steals'
p27
g3
sS'_fieldGoalsAttempted'
p28
S'.427'
p29
sS'_personalFouls'
p30
g3
sS'_freeThrowsAttempted'
p31
S'186'
p32
sS'_totalRebounds'
p33
g3
sS'_age'
p34
S'22'
p35
sS'_team'
p36
S'POR'
p37
sS'_games'
p38
S'82'
p39
sS'_blocks'
p40
g3
sS'_twoPoints'
p41
S'441'
p42
sS'_freeThrows'
p43
S'350'
p44
sS'_twoPointsAttempted'
p45
S'621'
p46
sS'_defensiveRebounds'
p47
g3
sS'_season'
p48
S'1971-72'
p49
sS'_fieldGoals'
p50
S'1837'
p51
sS'_turnOvers'
p52
g3
sS'_twoPointsPercentage'
p53
S'.710'
p54
sS'_minutesPlayed'
p55
S'784'
p56
sS'_gamesStarted'
p57
S'3245'
p58
sba(isrc.gp1.models.Totals
Totals
p59
(dp60
g8
g3
sg9
S'.452'
p61
sg11
S'761'
p62
sg13
g3
sg14
S'.452'
p63
sg16
S'1684'
p64
sg18
g3
sg19
S'PF'
p65
sg21
S'1906'
p66
sg23
S'870'
p67
sg25
S'NBA'
p68
sg27
g3
sg28
S'.452'
p69
sg30
g3
sg31
S'253'
p70
sg33
g3
sg34
S'23'
p71
sg36
S'POR'
p72
sg38
S'80'
p73
sg40
g3
sg41
S'384'
p74
sg43
S'440'
p75
sg45
S'531'
p76
sg47
g3
sg48
S'1972-73'
p77
sg50
S'1684'
p78
sg52
g3
sg53
S'.723'
p79
sg55
S'761'
p80
sg57
S'3152'
p81
sba(isrc.gp1.models.Totals
Totals
p82
(dp83
g8
S'90'
p84
sg9
S'.459'
p85
sg11
S'685'
p86
sg13
S'1684'
p87
sg14
S'.459'
p88
sg16
S'1492'
p89
sg18
g3
sg19
S'PF'
p90
sg21
S'326'
p91
sg23
S'196'
p92
sg25
S'NBA'
p93
sg27
g3
sg28
S'.459'
p94
sg30
g3
sg31
S'684'
p95
sg33
S'214'
p96
sg34
S'24'
p97
sg36
S'POR'
p98
sg38
S'75'
p99
sg40
g3
sg41
S'314'
p100
sg43
S'488'
p101
sg45
S'412'
p102
sg47
S'63'
p103
sg48
S'1973-74'
p104
sg50
S'1492'
p105
sg52
g3
sg53
S'.762'
p106
sg55
S'685'
p107
sg57
S'2853'
p108
sba(isrc.gp1.models.Totals
Totals
p109
(dp110
g8
S'108'
p111
sg9
S'.497'
p112
sg11
S'692'
p113
sg13
S'1778'
p114
sg14
S'.497'
p115
sg16
S'1391'
p116
sg18
g3
sg19
S'PF'
p117
sg21
S'287'
p118
sg23
S'231'
p119
sg25
S'NBA'
p120
sg27
g3
sg28
S'.497'
p121
sg30
g3
sg31
S'877'
p122
sg33
S'289'
p123
sg34
S'25'
p124
sg36
S'POR'
p125
sg38
S'82'
p126
sg40
g3
sg41
S'394'
p127
sg43
S'646'
p128
sg45
S'558'
p129
sg47
S'80'
p130
sg48
S'1974-75'
p131
sg50
S'1391'
p132
sg52
g3
sg53
S'.706'
p133
sg55
S'692'
p134
sg57
S'3162'
p135
sba(isrc.gp1.models.Totals
Totals
p136
(dp137
g8
S'77'
p138
sg9
S'.483'
p139
sg11
S'580'
p140
sg13
S'1505'
p141
sg14
S'.483'
p142
sg16
S'1201'
p143
sg18
g3
sg19
S'PF'
p144
sg21
S'244'
p145
sg23
S'245'
p146
sg25
S'NBA'
p147
sg27
g3
sg28
S'.483'
p148
sg30
g3
sg31
S'712'
p149
sg33
S'250'
p150
sg34
S'26'
p151
sg36
S'POR'
p152
sg38
S'79'
p153
sg40
g3
sg41
S'345'
p154
sg43
S'467'
p155
sg45
S'512'
p156
sg47
S'53'
p157
sg48
S'1975-76'
p158
sg50
S'1201'
p159
sg52
g3
sg53
S'.674'
p160
sg55
S'580'
p161
sg57
S'3044'
p162
sba(isrc.gp1.models.Totals
Totals
p163
(dp164
g8
S'64'
p165
sg9
S'.458'
p166
sg11
S'464'
p167
sg13
S'1238'
p168
sg14
S'.458'
p169
sg16
S'1012'
p170
sg18
g3
sg19
S'PF'
p171
sg21
S'169'
p172
sg23
S'268'
p173
sg25
S'NBA'
p174
sg27
g3
sg28
S'.458'
p175
sg30
g3
sg31
S'824'
p176
sg33
S'331'
p177
sg34
S'27'
p178
sg36
S'BOS'
p179
sg38
S'82'
p180
sg40
g3
sg41
S'310'
p181
sg43
S'556'
p182
sg45
S'464'
p183
sg47
S'61'
p184
sg48
S'1976-77'
p185
sg50
S'1012'
p186
sg52
g3
sg53
S'.668'
p187
sg55
S'464'
p188
sg57
S'2642'
p189
sba(isrc.gp1.models.Totals
Totals
p190
(dp191
g8
S'67'
p192
sg9
S'.467'
p193
sg11
S'433'
p194
sg13
S'318'
p195
sg14
S'.467'
p196
sg16
S'927'
p197
sg18
g3
sg19
S'PF'
p198
sg21
S'171'
p199
sg23
S'223'
p200
sg25
S'NBA'
p201
sg27
S'1083'
p202
sg28
S'.467'
p203
sg30
g3
sg31
S'673'
p204
sg33
S'226'
p205
sg34
S'28'
p206
sg36
S'BOS'
p207
sg38
S'81'
p208
sg40
g3
sg41
S'217'
p209
sg43
S'450'
p210
sg45
S'329'
p211
sg47
S'46'
p212
sg48
S'1977-78'
p213
sg50
S'927'
p214
sg52
g3
sg53
S'.660'
p215
sg55
S'433'
p216
sg57
S'2413'
p217
sba(isrc.gp1.models.Totals
Totals
p218
(dp219
g8
S'70'
p220
sg9
S'.462'
p221
sg11
S'312'
p222
sg13
S'274'
p223
sg14
S'.462'
p224
sg16
S'676'
p225
sg18
g3
sg19
S'PF'
p226
sg21
S'126'
p227
sg23
S'159'
p228
sg25
S'NBA'
p229
sg27
S'771'
p230
sg28
S'.462'
p231
sg30
g3
sg31
S'405'
p232
sg33
S'180'
p233
sg34
S'29'
p234
sg36
S'SDC'
p235
sg38
S'79'
p236
sg40
g3
sg41
S'147'
p237
sg43
S'246'
p238
sg45
S'226'
p239
sg47
S'36'
p240
sg48
S'1978-79'
p241
sg50
S'676'
p242
sg52
g3
sg53
S'.650'
p243
sg55
S'312'
p244
sg57
S'2022'
p245
sba(isrc.gp1.models.Totals
Totals
p246
(dp247
g8
S'271'
p248
sg9
S'.000'
p249
sg11
S'0'
p250
sg13
S'76'
p251
sg14
S'210'
p252
sg16
S'1'
p253
sg18
g3
sg19
S'PF'
p254
sg21
S'138'
p255
sg23
S'83'
p256
sg25
S'NBA'
p257
sg27
S'52'
p258
sg28
S'.423'
p259
sg30
S'503'
p260
sg31
S'.546'
p261
sg33
S'213'
p262
sg34
S'30'
p263
sg36
S'SDC'
p264
sg38
S'71'
p265
sg40
S'167'
p266
sg41
S'495'
p267
sg43
S'152'
p268
sg45
S'.424'
p269
sg47
S'409'
p270
sg48
S'1979-80'
p271
sg50
S'496'
p272
sg52
S'241'
p273
sg53
S'.423'
p274
sg55
S'210'
p275
sg57
S'2146'
p276
sba(isrc.gp1.models.Totals
Totals
p277
(dp278
g8
S'144'
p279
sg9
S'.000'
p280
sg11
g250
sg13
S'40'
p281
sg14
S'125'
p282
sg16
g253
sg18
g3
sg19
S'PF'
p283
sg21
S'79'
p284
sg23
S'76'
p285
sg25
S'NBA'
p286
sg27
S'40'
p287
sg28
S'.437'
p288
sg30
S'326'
p289
sg31
S'.507'
p290
sg33
S'111'
p291
sg34
S'31'
p292
sg36
S'SDC'
p293
sg38
S'49'
p294
sg40
S'94'
p295
sg41
S'285'
p296
sg43
S'150'
p297
sg45
S'.439'
p298
sg47
S'223'
p299
sg48
S'1980-81'
p300
sg50
S'286'
p301
sg52
S'168'
p302
sg53
S'.437'
p303
sg55
S'125'
p304
sg57
S'1083'
p305
sbasS'_college'
p306
S'University of California, Los Angeles'
p307
sS'_toYear'
p308
S'1981'
p309
sS'_height'
p310
S'6-8'
p311
sS'_active'
p312
I00
sS'_shootingHand'
p313
VRight
p314
sS'_name'
p315
S'Sidney Wicks'
p316
sS'_per100Possessions'
p317
(lp318
(isrc.gp1.models.Per100Possession
Per100Possession
p319
(dp320
g8
S'1.4'
p321
sg9
S'.459'
p322
sg11
S'10.6'
p323
sS'_offensiveRating'
p324
g3
sg13
S'26.1'
p325
sg14
S'4.9'
p326
sg16
S'23.1'
p327
sg18
g3
sg19
S'PF'
p328
sS'_defensiveRating'
p329
g3
sg21
S'5.1'
p330
sg25
S'NBA'
p331
sg27
S'102'
p332
sg28
S'.459'
p333
sg30
g3
sg31
S'10.6'
p334
sg33
S'3.3'
p335
sg34
S'24'
p336
sg36
S'POR'
p337
sg38
S'75'
p338
sg40
g3
sg41
S'6.4'
p339
sg43
S'7.6'
p340
sg45
S'.762'
p341
sg47
S'1.0'
p342
sg48
S'1973-74'
p343
sg50
S'23.1'
p344
sg52
g3
sg53
S'3.0'
p345
sg55
S'10.6'
p346
sg57
S'2853'
p347
sba(isrc.gp1.models.Per100Possession
Per100Possession
p348
(dp349
g8
S'1.6'
p350
sg9
S'.497'
p351
sg11
S'10.0'
p352
sg324
g3
sg13
S'25.8'
p353
sg14
S'5.7'
p354
sg16
S'20.2'
p355
sg18
g3
sg19
S'PF'
p356
sg329
g3
sg21
S'4.2'
p357
sg25
S'NBA'
p358
sg27
S'96'
p359
sg28
S'.497'
p360
sg30
g3
sg31
S'12.7'
p361
sg33
S'4.2'
p362
sg34
S'25'
p363
sg36
S'POR'
p364
sg38
S'82'
p365
sg40
g3
sg41
S'8.1'
p366
sg43
S'9.4'
p367
sg45
S'.706'
p368
sg47
S'1.2'
p369
sg48
S'1974-75'
p370
sg50
S'20.2'
p371
sg52
g3
sg53
S'3.3'
p372
sg55
S'10.0'
p373
sg57
S'3162'
p374
sba(isrc.gp1.models.Per100Possession
Per100Possession
p375
(dp376
g8
S'1.1'
p377
sg9
S'.483'
p378
sg11
S'8.5'
p379
sg324
g3
sg13
S'22.0'
p380
sg14
S'5.1'
p381
sg16
S'17.6'
p382
sg18
g3
sg19
S'PF'
p383
sg329
g3
sg21
S'3.6'
p384
sg25
S'NBA'
p385
sg27
S'99'
p386
sg28
S'.483'
p387
sg30
g3
sg31
S'10.4'
p388
sg33
S'3.7'
p389
sg34
S'26'
p390
sg36
S'POR'
p391
sg38
S'79'
p392
sg40
g3
sg41
S'7.5'
p393
sg43
S'6.8'
p394
sg45
S'.674'
p395
sg47
S'0.8'
p396
sg48
S'1975-76'
p397
sg50
S'17.6'
p398
sg52
g3
sg53
S'3.6'
p399
sg55
S'8.5'
p400
sg57
S'3044'
p401
sba(isrc.gp1.models.Per100Possession
Per100Possession
p402
(dp403
g8
S'1.1'
p404
sg9
S'.458'
p405
sg11
S'7.8'
p406
sg324
g3
sg13
S'20.9'
p407
sg14
S'5.2'
p408
sg16
S'17.1'
p409
sg18
g3
sg19
S'PF'
p410
sg329
g3
sg21
S'2.9'
p411
sg25
S'NBA'
p412
sg27
S'96'
p413
sg28
S'.458'
p414
sg30
g3
sg31
S'13.9'
p415
sg33
S'5.6'
p416
sg34
S'27'
p417
sg36
S'BOS'
p418
sg38
S'82'
p419
sg40
g3
sg41
S'7.8'
p420
sg43
S'9.4'
p421
sg45
S'.668'
p422
sg47
S'1.0'
p423
sg48
S'1976-77'
p424
sg50
S'17.1'
p425
sg52
g3
sg53
S'4.5'
p426
sg55
S'7.8'
p427
sg57
S'2642'
p428
sba(isrc.gp1.models.Per100Possession
Per100Possession
p429
(dp430
g8
S'1.3'
p431
sg9
S'.467'
p432
sg11
S'8.1'
p433
sg324
g3
sg13
S'6.0'
p434
sg14
S'4.1'
p435
sg16
S'17.4'
p436
sg18
g3
sg19
S'PF'
p437
sg329
g3
sg21
S'3.2'
p438
sg25
S'NBA'
p439
sg27
S'20.3'
p440
sg28
S'.467'
p441
sg30
g3
sg31
S'12.6'
p442
sg33
S'4.2'
p443
sg34
S'28'
p444
sg36
S'BOS'
p445
sg38
S'81'
p446
sg40
S'97'
p447
sg41
S'6.2'
p448
sg43
S'8.4'
p449
sg45
S'.660'
p450
sg47
S'0.9'
p451
sg48
S'1977-78'
p452
sg50
S'17.4'
p453
sg52
S'100'
p454
sg53
S'4.2'
p455
sg55
S'8.1'
p456
sg57
S'2413'
p457
sba(isrc.gp1.models.Per100Possession
Per100Possession
p458
(dp459
g8
S'1.6'
p460
sg9
S'.462'
p461
sg11
S'7.0'
p462
sg324
g3
sg13
S'6.1'
p463
sg14
S'3.3'
p464
sg16
S'15.1'
p465
sg18
g3
sg19
S'PF'
p466
sg329
g3
sg21
S'2.8'
p467
sg25
S'NBA'
p468
sg27
S'17.2'
p469
sg28
S'.462'
p470
sg30
g3
sg31
S'9.0'
p471
sg33
S'4.0'
p472
sg34
S'29'
p473
sg36
S'SDC'
p474
sg38
S'79'
p475
sg40
S'98'
p476
sg41
S'5.0'
p477
sg43
S'5.5'
p478
sg45
S'.650'
p479
sg47
S'0.8'
p480
sg48
S'1978-79'
p481
sg50
S'15.1'
p482
sg52
S'108'
p483
sg53
S'3.6'
p484
sg55
S'7.0'
p485
sg57
S'2022'
p486
sba(isrc.gp1.models.Per100Possession
Per100Possession
p487
(dp488
g8
S'6.0'
p489
sg9
S'.000'
p490
sg11
S'0.0'
p491
sg324
S'109'
p492
sg13
S'1.7'
p493
sg14
S'4.6'
p494
sg16
S'0.0'
p495
sg18
S'90'
p496
sg19
S'PF'
p497
sg329
g3
sg21
S'3.0'
p498
sg25
S'NBA'
p499
sg27
S'1.1'
p500
sg28
S'.423'
p501
sg30
S'11.1'
p502
sg31
S'.546'
p503
sg33
S'4.7'
p504
sg34
S'30'
p505
sg36
S'SDC'
p506
sg38
S'71'
p507
sg40
S'3.7'
p508
sg41
S'10.9'
p509
sg43
S'3.4'
p510
sg45
S'.424'
p511
sg47
S'9.0'
p512
sg48
S'1979-80'
p513
sg50
S'10.9'
p514
sg52
S'5.3'
p515
sg53
S'1.8'
p516
sg55
S'4.6'
p517
sg57
S'2146'
p518
sba(isrc.gp1.models.Per100Possession
Per100Possession
p519
(dp520
g8
S'6.4'
p521
sg9
S'.000'
p522
sg11
S'0.0'
p523
sg324
S'106'
p524
sg13
S'1.8'
p525
sg14
S'5.5'
p526
sg16
S'0.0'
p527
sg18
S'91'
p528
sg19
S'PF'
p529
sg329
g3
sg21
S'3.5'
p530
sg25
S'NBA'
p531
sg27
S'1.8'
p532
sg28
S'.437'
p533
sg30
S'14.4'
p534
sg31
S'.507'
p535
sg33
S'4.9'
p536
sg34
S'31'
p537
sg36
S'SDC'
p538
sg38
S'49'
p539
sg40
S'4.2'
p540
sg41
S'12.6'
p541
sg43
S'6.6'
p542
sg45
S'.439'
p543
sg47
S'9.9'
p544
sg48
S'1980-81'
p545
sg50
S'12.6'
p546
sg52
S'7.4'
p547
sg53
S'3.4'
p548
sg55
S'5.5'
p549
sg57
S'1083'
p550
sbasS'_advanced'
p551
(lp552
(isrc.gp1.models.Advanced
Advanced
p553
(dp554
S'_offensiveReboundPercentage'
p555
S'17.1'
p556
sS'_turnOverPercentage'
p557
g3
sS'_winSharesPer48Minutes'
p558
g3
sS'_stealPercentage'
p559
S'.034'
p560
sS'_usagePercentage'
p561
g3
sS'_totalReboundsPercentage'
p562
S'1.0'
p563
sS'_defensiveBoxPlusMinus'
p564
g3
sg19
S'PF'
p565
sS'_valueOverReplacementPlayer'
p566
g3
sS'_trueShootingPercentage'
p567
S'.476'
p568
sS'_defensiveReboundPercentage'
p569
S'1.3'
p570
sS'_freeThrowsAttempRate'
p571
S'13.6'
p572
sS'_threePointsAttempRate'
p573
S'.338'
p574
sg25
S'NBA'
p575
sS'_offensiveBoxPlusMinues'
p576
g3
sS'_assistPercentage'
p577
S'2.3'
p578
sS'_defensiveWinShares'
p579
g3
sg34
S'22'
p580
sg36
S'POR'
p581
sg38
S'82'
p582
sS'_blockPercentage'
p583
g3
sS'_playerEfficiencyRating'
p584
S'19.2'
p585
sS'_offensiveWinShares'
p586
g3
sg55
S'3245'
p587
sS'_boxPlusMinus'
p588
g3
sg48
S'1971-72'
p589
sS'_winShares'
p590
g3
sba(isrc.gp1.models.Advanced
Advanced
p591
(dp592
g555
S'20.9'
p593
sg557
g3
sg558
g3
sg559
S'.085'
p594
sg561
g3
sg562
S'1.3'
p595
sg564
g3
sg19
S'PF'
p596
sg566
g3
sg567
S'.497'
p597
sg569
S'4.2'
p598
sg571
S'13.3'
p599
sg573
S'.315'
p600
sg25
S'NBA'
p601
sg576
g3
sg577
S'5.6'
p602
sg579
g3
sg34
S'23'
p603
sg36
S'POR'
p604
sg38
S'80'
p605
sg583
g3
sg584
S'20.3'
p606
sg586
g3
sg55
S'3152'
p607
sg588
g3
sg48
S'1972-73'
p608
sg590
g3
sba(isrc.gp1.models.Advanced
Advanced
p609
(dp610
g555
S'17.8'
p611
sg557
S'1.3'
p612
sg558
S'1.4'
p613
sg559
S'1.2'
p614
sg561
S'5.6'
p615
sg562
S'17.1'
p616
sg564
g3
sg19
S'PF'
p617
sg566
g3
sg567
S'.503'
p618
sg569
S'12.2'
p619
sg571
S'6.9'
p620
sg573
S'.276'
p621
sg25
S'NBA'
p622
sg576
S'2.5'
p623
sg577
S'1.4'
p624
sg579
S'2.3'
p625
sg34
S'24'
p626
sg36
S'POR'
p627
sg38
S'75'
p628
sg583
S'4.3'
p629
sg584
S'19.0'
p630
sg586
S'.094'
p631
sg55
S'2853'
p632
sg588
g3
sg48
S'1973-74'
p633
sg590
S'-0.8'
p634
sba(isrc.gp1.models.Advanced
Advanced
p635
(dp636
g555
S'20.5'
p637
sg557
S'4.0'
p638
sg558
S'3.5'
p639
sg559
S'1.3'
p640
sg561
S'9.7'
p641
sg562
S'14.2'
p642
sg564
g3
sg19
S'PF'
p643
sg566
g3
sg567
S'.543'
p644
sg569
S'14.5'
p645
sg571
S'8.0'
p646
sg573
S'.401'
p647
sg25
S'NBA'
p648
sg576
S'4.4'
p649
sg577
S'1.6'
p650
sg579
S'2.7'
p651
sg34
S'25'
p652
sg36
S'POR'
p653
sg38
S'82'
p654
sg583
S'5.7'
p655
sg584
S'19.7'
p656
sg586
S'.147'
p657
sg55
S'3162'
p658
sg588
g3
sg48
S'1974-75'
p659
sg590
S'0.8'
p660
sba(isrc.gp1.models.Advanced
Advanced
p661
(dp662
g555
S'15.3'
p663
sg557
S'2.9'
p664
sg558
S'1.2'
p665
sg559
S'0.9'
p666
sg561
S'7.1'
p667
sg562
S'11.9'
p668
sg564
g3
sg19
S'PF'
p669
sg566
g3
sg567
S'.528'
p670
sg569
S'11.9'
p671
sg571
S'8.4'
p672
sg573
S'.426'
p673
sg25
S'NBA'
p674
sg576
S'2.5'
p675
sg577
S'1.1'
p676
sg579
S'1.1'
p677
sg34
S'26'
p678
sg36
S'POR'
p679
sg38
S'79'
p680
sg583
S'4.2'
p681
sg584
S'16.4'
p682
sg586
S'.112'
p683
sg55
S'3044'
p684
sg588
g3
sg48
S'1975-76'
p685
sg590
S'0.1'
p686
sba(isrc.gp1.models.Advanced
Advanced
p687
(dp688
g555
S'20.5'
p689
sg557
S'3.8'
p690
sg558
S'0.8'
p691
sg559
S'1.2'
p692
sg561
S'6.1'
p693
sg562
S'9.2'
p694
sg564
g3
sg19
S'PF'
p695
sg566
g3
sg567
S'.509'
p696
sg569
S'15.3'
p697
sg571
S'10.1'
p698
sg573
S'.458'
p699
sg25
S'NBA'
p700
sg576
S'1.9'
p701
sg577
S'1.1'
p702
sg579
S'0.1'
p703
sg34
S'27'
p704
sg36
S'BOS'
p705
sg38
S'82'
p706
sg583
S'2.2'
p707
sg584
S'15.4'
p708
sg586
S'.110'
p709
sg55
S'2642'
p710
sg588
g3
sg48
S'1976-77'
p711
sg590
S'0.8'
p712
sba(isrc.gp1.models.Advanced
Advanced
p713
(dp714
g555
S'18.5'
p715
sg557
S'20.8'
p716
sg558
S'-0.7'
p717
sg559
S'1.0'
p718
sg561
S'1.4'
p719
sg562
S'10.1'
p720
sg564
S'-0.2'
p721
sg19
S'PF'
p722
sg566
g3
sg567
S'.505'
p723
sg569
S'14.2'
p724
sg571
S'9.6'
p725
sg573
S'.355'
p726
sg25
S'NBA'
p727
sg576
S'0.5'
p728
sg577
S'1.3'
p729
sg579
S'4.2'
p730
sg34
S'28'
p731
sg36
S'BOS'
p732
sg38
S'81'
p733
sg583
S'17.4'
p734
sg584
S'13.9'
p735
sg586
S'2.8'
p736
sg55
S'2413'
p737
sg588
S'1.1'
p738
sg48
S'1977-78'
p739
sg590
S'.084'
p740
sba(isrc.gp1.models.Advanced
Advanced
p741
(dp742
g555
S'13.0'
p743
sg557
S'17.9'
p744
sg558
S'-1.2'
p745
sg559
S'0.9'
p746
sg561
S'0.5'
p747
sg562
S'7.9'
p748
sg564
S'-1.8'
p749
sg19
S'PF'
p750
sg566
g3
sg567
S'.497'
p751
sg569
S'10.7'
p752
sg571
S'8.4'
p753
sg573
S'.334'
p754
sg25
S'NBA'
p755
sg576
S'-0.6'
p756
sg577
S'1.6'
p757
sg579
S'1.5'
p758
sg34
S'29'
p759
sg36
S'SDC'
p760
sg38
S'79'
p761
sg583
S'18.8'
p762
sg584
S'11.1'
p763
sg586
S'1.0'
p764
sg55
S'2022'
p765
sg588
S'0.1'
p766
sg48
S'1978-79'
p767
sg590
S'.037'
p768
sba(isrc.gp1.models.Advanced
Advanced
p769
(dp770
g555
S'6.7'
p771
sg557
S'22.9'
p772
sg558
S'-0.001'
p773
sg559
S'1.7'
p774
sg561
S'13.6'
p775
sg562
S'10.3'
p776
sg564
S'1.3'
p777
sg19
S'PF'
p778
sg566
S'0.3'
p779
sg567
S'.447'
p780
sg569
S'14.1'
p781
sg571
S'.306'
p782
sg573
S'.002'
p783
sg25
S'NBA'
p784
sg576
S'-2.8'
p785
sg577
S'12.5'
p786
sg579
S'1.2'
p787
sg34
S'30'
p788
sg36
S'SDC'
p789
sg38
S'71'
p790
sg583
S'1.3'
p791
sg584
S'8.5'
p792
sg586
S'-1.3'
p793
sg55
S'2146'
p794
sg588
S'-1.5'
p795
sg48
S'1979-80'
p796
sg590
S'-0.1'
p797
sba(isrc.gp1.models.Advanced
Advanced
p798
(dp799
g555
S'8.1'
p800
sg557
S'21.1'
p801
sg558
S'.016'
p802
sg559
S'1.8'
p803
sg561
S'16.8'
p804
sg562
S'12.0'
p805
sg564
S'1.7'
p806
sg19
S'PF'
p807
sg566
S'0.2'
p808
sg567
S'.463'
p809
sg569
S'16.2'
p810
sg571
S'.524'
p811
sg573
S'.003'
p812
sg25
S'NBA'
p813
sg576
S'-2.9'
p814
sg577
S'13.4'
p815
sg579
S'1.0'
p816
sg34
S'31'
p817
sg36
S'SDC'
p818
sg38
S'49'
p819
sg583
S'2.1'
p820
sg584
S'9.7'
p821
sg586
S'-0.7'
p822
sg55
S'1083'
p823
sg588
S'-1.2'
p824
sg48
S'1980-81'
p825
sg590
S'0.4'
p826
sbasS'_per36Minutes'
p827
(lp828
(isrc.gp1.models.Per36Minutes
Per36Minutes
p829
(dp830
g8
g3
sg9
S'.427'
p831
sg11
S'8.7'
p832
sg13
g3
sg14
S'4.9'
p833
sg16
S'20.4'
p834
sg18
g3
sg19
S'PF'
p835
sg21
S'22.3'
p836
sg25
S'NBA'
p837
sg27
g3
sg28
S'.427'
p838
sg30
g3
sg31
S'2.1'
p839
sg33
g3
sg34
S'22'
p840
sg36
S'POR'
p841
sg38
S'82'
p842
sg40
g3
sg41
S'6.9'
p843
sg43
S'3.9'
p844
sg45
S'.710'
p845
sg47
g3
sg48
S'1971-72'
p846
sg50
S'20.4'
p847
sg52
g3
sg53
S'10.5'
p848
sg55
S'8.7'
p849
sg57
S'3245'
p850
sba(isrc.gp1.models.Per36Minutes
Per36Minutes
p851
(dp852
g8
g3
sg9
S'.452'
p853
sg11
S'8.7'
p854
sg13
g3
sg14
S'4.4'
p855
sg16
S'19.2'
p856
sg18
g3
sg19
S'PF'
p857
sg21
S'21.8'
p858
sg25
S'NBA'
p859
sg27
g3
sg28
S'.452'
p860
sg30
g3
sg31
S'2.9'
p861
sg33
g3
sg34
S'23'
p862
sg36
S'POR'
p863
sg38
S'80'
p864
sg40
g3
sg41
S'6.1'
p865
sg43
S'5.0'
p866
sg45
S'.723'
p867
sg47
g3
sg48
S'1972-73'
p868
sg50
S'19.2'
p869
sg52
g3
sg53
S'9.9'
p870
sg55
S'8.7'
p871
sg57
S'3152'
p872
sba(isrc.gp1.models.Per36Minutes
Per36Minutes
p873
(dp874
g8
S'1.1'
p875
sg9
S'.459'
p876
sg11
S'8.6'
p877
sg13
S'21.2'
p878
sg14
S'4.0'
p879
sg16
S'18.8'
p880
sg18
g3
sg19
S'PF'
p881
sg21
S'4.1'
p882
sg25
S'NBA'
p883
sg27
g3
sg28
S'.459'
p884
sg30
g3
sg31
S'8.6'
p885
sg33
S'2.7'
p886
sg34
S'24'
p887
sg36
S'POR'
p888
sg38
S'75'
p889
sg40
g3
sg41
S'5.2'
p890
sg43
S'6.2'
p891
sg45
S'.762'
p892
sg47
S'0.8'
p893
sg48
S'1973-74'
p894
sg50
S'18.8'
p895
sg52
g3
sg53
S'2.5'
p896
sg55
S'8.6'
p897
sg57
S'2853'
p898
sba(isrc.gp1.models.Per36Minutes
Per36Minutes
p899
(dp900
g8
S'1.2'
p901
sg9
S'.497'
p902
sg11
S'7.9'
p903
sg13
S'20.2'
p904
sg14
S'4.5'
p905
sg16
S'15.8'
p906
sg18
g3
sg19
S'PF'
p907
sg21
S'3.3'
p908
sg25
S'NBA'
p909
sg27
g3
sg28
S'.497'
p910
sg30
g3
sg31
S'10.0'
p911
sg33
S'3.3'
p912
sg34
S'25'
p913
sg36
S'POR'
p914
sg38
S'82'
p915
sg40
g3
sg41
S'6.4'
p916
sg43
S'7.4'
p917
sg45
S'.706'
p918
sg47
S'0.9'
p919
sg48
S'1974-75'
p920
sg50
S'15.8'
p921
sg52
g3
sg53
S'2.6'
p922
sg55
S'7.9'
p923
sg57
S'3162'
p924
sba(isrc.gp1.models.Per36Minutes
Per36Minutes
p925
(dp926
g8
S'0.9'
p927
sg9
S'.483'
p928
sg11
S'6.9'
p929
sg13
S'17.8'
p930
sg14
S'4.1'
p931
sg16
S'14.2'
p932
sg18
g3
sg19
S'PF'
p933
sg21
S'2.9'
p934
sg25
S'NBA'
p935
sg27
g3
sg28
S'.483'
p936
sg30
g3
sg31
S'8.4'
p937
sg33
S'3.0'
p938
sg34
S'26'
p939
sg36
S'POR'
p940
sg38
S'79'
p941
sg40
g3
sg41
S'6.1'
p942
sg43
S'5.5'
p943
sg45
S'.674'
p944
sg47
S'0.6'
p945
sg48
S'1975-76'
p946
sg50
S'14.2'
p947
sg52
g3
sg53
S'2.9'
p948
sg55
S'6.9'
p949
sg57
S'3044'
p950
sba(isrc.gp1.models.Per36Minutes
Per36Minutes
p951
(dp952
g8
S'0.9'
p953
sg9
S'.458'
p954
sg11
S'6.3'
p955
sg13
S'16.9'
p956
sg14
S'4.2'
p957
sg16
S'13.8'
p958
sg18
g3
sg19
S'PF'
p959
sg21
S'2.3'
p960
sg25
S'NBA'
p961
sg27
g3
sg28
S'.458'
p962
sg30
g3
sg31
S'11.2'
p963
sg33
S'4.5'
p964
sg34
S'27'
p965
sg36
S'BOS'
p966
sg38
S'82'
p967
sg40
g3
sg41
S'6.3'
p968
sg43
S'7.6'
p969
sg45
S'.668'
p970
sg47
S'0.8'
p971
sg48
S'1976-77'
p972
sg50
S'13.8'
p973
sg52
g3
sg53
S'3.7'
p974
sg55
S'6.3'
p975
sg57
S'2642'
p976
sba(isrc.gp1.models.Per36Minutes
Per36Minutes
p977
(dp978
g8
S'1.0'
p979
sg9
S'.467'
p980
sg11
S'6.5'
p981
sg13
S'4.7'
p982
sg14
S'3.2'
p983
sg16
S'13.8'
p984
sg18
g3
sg19
S'PF'
p985
sg21
S'2.6'
p986
sg25
S'NBA'
p987
sg27
S'16.2'
p988
sg28
S'.467'
p989
sg30
g3
sg31
S'10.0'
p990
sg33
S'3.4'
p991
sg34
S'28'
p992
sg36
S'BOS'
p993
sg38
S'81'
p994
sg40
g3
sg41
S'4.9'
p995
sg43
S'6.7'
p996
sg45
S'.660'
p997
sg47
S'0.7'
p998
sg48
S'1977-78'
p999
sg50
S'13.8'
p1000
sg52
g3
sg53
S'3.3'
p1001
sg55
S'6.5'
p1002
sg57
S'2413'
p1003
sba(isrc.gp1.models.Per36Minutes
Per36Minutes
p1004
(dp1005
g8
S'1.2'
p1006
sg9
S'.462'
p1007
sg11
S'5.6'
p1008
sg13
S'4.9'
p1009
sg14
S'2.6'
p1010
sg16
S'12.0'
p1011
sg18
g3
sg19
S'PF'
p1012
sg21
S'2.2'
p1013
sg25
S'NBA'
p1014
sg27
S'13.7'
p1015
sg28
S'.462'
p1016
sg30
g3
sg31
S'7.2'
p1017
sg33
S'3.2'
p1018
sg34
S'29'
p1019
sg36
S'SDC'
p1020
sg38
S'79'
p1021
sg40
g3
sg41
S'4.0'
p1022
sg43
S'4.4'
p1023
sg45
S'.650'
p1024
sg47
S'0.6'
p1025
sg48
S'1978-79'
p1026
sg50
S'12.0'
p1027
sg52
g3
sg53
S'2.8'
p1028
sg55
S'5.6'
p1029
sg57
S'2022'
p1030
sba(isrc.gp1.models.Per36Minutes
Per36Minutes
p1031
(dp1032
g8
S'4.5'
p1033
sg9
S'.000'
p1034
sg11
S'0.0'
p1035
sg13
S'1.3'
p1036
sg14
S'3.5'
p1037
sg16
S'0.0'
p1038
sg18
g3
sg19
S'PF'
p1039
sg21
S'2.3'
p1040
sg25
S'NBA'
p1041
sg27
S'0.9'
p1042
sg28
S'.423'
p1043
sg30
S'8.4'
p1044
sg31
S'.546'
p1045
sg33
S'3.6'
p1046
sg34
S'30'
p1047
sg36
S'SDC'
p1048
sg38
S'71'
p1049
sg40
S'2.8'
p1050
sg41
S'8.3'
p1051
sg43
S'2.5'
p1052
sg45
S'.424'
p1053
sg47
S'6.9'
p1054
sg48
S'1979-80'
p1055
sg50
S'8.3'
p1056
sg52
S'4.0'
p1057
sg53
S'1.4'
p1058
sg55
S'3.5'
p1059
sg57
S'2146'
p1060
sba(isrc.gp1.models.Per36Minutes
Per36Minutes
p1061
(dp1062
g8
S'4.8'
p1063
sg9
S'.000'
p1064
sg11
S'0.0'
p1065
sg13
S'1.3'
p1066
sg14
S'4.2'
p1067
sg16
S'0.0'
p1068
sg18
g3
sg19
S'PF'
p1069
sg21
S'2.6'
p1070
sg25
S'NBA'
p1071
sg27
S'1.3'
p1072
sg28
S'.437'
p1073
sg30
S'10.8'
p1074
sg31
S'.507'
p1075
sg33
S'3.7'
p1076
sg34
S'31'
p1077
sg36
S'SDC'
p1078
sg38
S'49'
p1079
sg40
S'3.1'
p1080
sg41
S'9.5'
p1081
sg43
S'5.0'
p1082
sg45
S'.439'
p1083
sg47
S'7.4'
p1084
sg48
S'1980-81'
p1085
sg50
S'9.5'
p1086
sg52
S'5.6'
p1087
sg53
S'2.5'
p1088
sg55
S'4.2'
p1089
sg57
S'1083'
p1090
sbasS'_fromYear'
p1091
S'1972'
p1092
sS'_url'
p1093
S'http://www.basketball-reference.com/players/w/wickssi01.html'
p1094
sS'_perGame'
p1095
(isrc.gp1.models.PerGame
PerGame
p1096
(dp1097
g8
S'2.9'
p1098
sg9
S'.000'
p1099
sg11
S'0.0'
p1100
sS'_effectiveFieldGalPercentage'
p1101
S'1.6'
p1102
sg13
S'0.8'
p1103
sg14
S'2.6'
p1104
sg16
S'0.0'
p1105
sg18
g3
sg19
S'PF'
p1106
sg21
S'1.6'
p1107
sg25
S'NBA'
p1108
sg27
S'0.8'
p1109
sg30
S'6.7'
p1110
sS'_fieldGoalsttempted'
p1111
S'.437'
p1112
sg31
S'.507'
p1113
sg33
S'2.3'
p1114
sg34
S'31'
p1115
sg36
S'SDC'
p1116
sg38
S'49'
p1117
sg40
S'1.9'
p1118
sg41
S'5.8'
p1119
sg43
S'3.1'
p1120
sg45
S'.439'
p1121
sg47
S'4.6'
p1122
sg48
S'1980-81'
p1123
sg50
S'5.8'
p1124
sg52
S'3.4'
p1125
sg53
S'.437'
p1126
sg55
S'2.6'
p1127
sg57
S'22.1'
p1128
sbsS'_weight'
p1129
S'225'
p1130
sS'_dob'
p1131
S'19-9-1949'
p1132
sS'_salary'
p1133
(lp1134
sg19
S'F-C'
p1135
sb.