(isrc.gp1.models.Player
Player
p0
(dp1
S'_experience'
p2
S'NA'
p3
sS'_totals'
p4
(lp5
(isrc.gp1.models.Totals
Totals
p6
(dp7
S'_offensiveRebounds'
p8
g3
sS'_threePointsAttempted'
p9
g3
sS'_fieldGoalsPercentage'
p10
S'.318'
p11
sS'_assist'
p12
S'40'
p13
sS'_threePointsPercentage'
p14
g3
sS'_threePoints'
p15
g3
sS'_points'
p16
S'101'
p17
sS'_position'
p18
S'SG'
p19
sS'_freeThrowsPercentage'
p20
S'.795'
p21
sS'_effectiveFieldGoalPercentage'
p22
S'.318'
p23
sS'_league'
p24
S'NBA'
p25
sS'_steals'
p26
g3
sS'_fieldGoalsAttempted'
p27
S'110'
p28
sS'_personalFouls'
p29
S'33'
p30
sS'_freeThrowsAttempted'
p31
S'39'
p32
sS'_totalRebounds'
p33
S'51'
p34
sS'_age'
p35
S'24'
p36
sS'_team'
p37
S'BOS'
p38
sS'_games'
p39
S'31'
p40
sS'_blocks'
p41
g3
sS'_twoPoints'
p42
S'35'
p43
sS'_freeThrows'
p44
S'31'
p45
sS'_twoPointsAttempted'
p46
S'110'
p47
sS'_defensiveRebounds'
p48
g3
sS'_season'
p49
S'1963-64'
p50
sS'_fieldGoals'
p51
S'35'
p52
sS'_turnOvers'
p53
g3
sS'_twoPointsPercentage'
p54
S'.318'
p55
sS'_minutesPlayed'
p56
S'261'
p57
sS'_gamesStarted'
p58
g3
sba(isrc.gp1.models.Totals
Totals
p59
(dp60
g8
g3
sg9
g3
sg10
S'.415'
p61
sg12
S'119'
p62
sg14
g3
sg15
g3
sg16
S'455'
p63
sg18
S'SG'
p64
sg20
S'.779'
p65
sg22
S'.415'
p66
sg24
S'NBA'
p67
sg26
g3
sg27
S'417'
p68
sg29
S'108'
p69
sg31
S'140'
p70
sg33
S'134'
p71
sg35
S'25'
p72
sg37
S'BOS'
p73
sg39
S'72'
p74
sg41
g3
sg42
S'173'
p75
sg44
S'109'
p76
sg46
S'417'
p77
sg48
g3
sg49
S'1964-65'
p78
sg51
S'173'
p79
sg53
g3
sg54
S'.415'
p80
sg56
S'996'
p81
sg58
g3
sba(isrc.gp1.models.Totals
Totals
p82
(dp83
g8
g3
sg9
g3
sg10
S'.423'
p84
sg12
S'165'
p85
sg14
g3
sg15
g3
sg16
S'972'
p86
sg18
S'PG'
p87
sg20
S'.881'
p88
sg22
S'.423'
p89
sg24
S'NBA'
p90
sg26
g3
sg27
S'825'
p91
sg29
S'157'
p92
sg31
S'311'
p93
sg33
S'196'
p94
sg35
S'26'
p95
sg37
S'BOS'
p96
sg39
S'71'
p97
sg41
g3
sg42
S'349'
p98
sg44
S'274'
p99
sg46
S'825'
p100
sg48
g3
sg49
S'1965-66'
p101
sg51
S'349'
p102
sg53
g3
sg54
S'.423'
p103
sg56
S'1675'
p104
sg58
g3
sba(isrc.gp1.models.Totals
Totals
p105
(dp106
g8
g3
sg9
g3
sg10
S'.442'
p107
sg12
S'250'
p108
sg14
g3
sg15
g3
sg16
S'1030'
p109
sg18
S'PG'
p110
sg20
S'.847'
p111
sg22
S'.442'
p112
sg24
S'NBA'
p113
sg26
g3
sg27
S'833'
p114
sg29
S'207'
p115
sg31
S'347'
p116
sg33
S'228'
p117
sg35
S'27'
p118
sg37
S'BOS'
p119
sg39
S'73'
p120
sg41
g3
sg42
S'368'
p121
sg44
S'294'
p122
sg46
S'833'
p123
sg48
g3
sg49
S'1966-67'
p124
sg51
S'368'
p125
sg53
g3
sg54
S'.442'
p126
sg56
S'1891'
p127
sg58
g3
sba(isrc.gp1.models.Totals
Totals
p128
(dp129
g8
g3
sg9
g3
sg10
S'.415'
p130
sg12
S'289'
p131
sg14
g3
sg15
g3
sg16
S'758'
p132
sg18
S'PG'
p133
sg20
S'.868'
p134
sg22
S'.415'
p135
sg24
S'NBA'
p136
sg26
g3
sg27
S'629'
p137
sg29
S'194'
p138
sg31
S'272'
p139
sg33
S'215'
p140
sg35
S'28'
p141
sg37
S'BOS'
p142
sg39
S'62'
p143
sg41
g3
sg42
S'261'
p144
sg44
S'236'
p145
sg46
S'629'
p146
sg48
g3
sg49
S'1967-68'
p147
sg51
S'261'
p148
sg53
g3
sg54
S'.415'
p149
sg56
S'1937'
p150
sg58
g3
sba(isrc.gp1.models.Totals
Totals
p151
(dp152
g8
g3
sg9
g3
sg10
S'.380'
p153
sg12
S'370'
p154
sg14
g3
sg15
g3
sg16
S'1120'
p155
sg18
S'PG'
p156
sg20
S'.864'
p157
sg22
S'.380'
p158
sg24
S'NBA'
p159
sg26
g3
sg27
S'1031'
p160
sg29
S'222'
p161
sg31
S'389'
p162
sg33
S'282'
p163
sg35
S'29'
p164
sg37
S'BOS'
p165
sg39
S'79'
p166
sg41
g3
sg42
S'392'
p167
sg44
S'336'
p168
sg46
S'1031'
p169
sg48
g3
sg49
S'1968-69'
p170
sg51
S'392'
p171
sg53
g3
sg54
S'.380'
p172
sg56
S'2560'
p173
sg58
g3
sba(isrc.gp1.models.Totals
Totals
p174
(dp175
g8
g3
sg9
g3
sg10
S'.424'
p176
sg12
S'299'
p177
sg14
g3
sg15
g3
sg16
S'984'
p178
sg18
S'PG'
p179
sg20
S'.856'
p180
sg22
S'.424'
p181
sg24
S'NBA'
p182
sg26
g3
sg27
S'902'
p183
sg29
S'187'
p184
sg31
S'257'
p185
sg33
S'212'
p186
sg35
S'30'
p187
sg37
S'BOS'
p188
sg39
S'78'
p189
sg41
g3
sg42
S'382'
p190
sg44
S'220'
p191
sg46
S'902'
p192
sg48
g3
sg49
S'1969-70'
p193
sg51
S'382'
p194
sg53
g3
sg54
S'.424'
p195
sg56
S'2081'
p196
sg58
g3
sba(isrc.gp1.models.Totals
Totals
p197
(dp198
g8
g3
sg9
g3
sg10
S'.386'
p199
sg12
S'346'
p200
sg14
g3
sg15
g3
sg16
S'422'
p201
sg18
S'PG'
p202
sg20
S'.850'
p203
sg22
S'.386'
p204
sg24
S'NBA'
p205
sg26
g3
sg27
S'378'
p206
sg29
S'146'
p207
sg31
S'153'
p208
sg33
S'207'
p209
sg35
S'31'
p210
sg37
S'SDR'
p211
sg39
S'53'
p212
sg41
g3
sg42
S'146'
p213
sg44
S'130'
p214
sg46
S'378'
p215
sg48
g3
sg49
S'1970-71'
p216
sg51
S'146'
p217
sg53
g3
sg54
S'.386'
p218
sg56
S'1673'
p219
sg58
g3
sba(isrc.gp1.models.Totals
Totals
p220
(dp221
g8
g3
sg9
g3
sg10
S'.350'
p222
sg12
S'72'
p223
sg14
g3
sg15
g3
sg16
S'118'
p224
sg18
S'PG'
p225
sg20
S'.865'
p226
sg22
S'.350'
p227
sg24
S'NBA'
p228
sg26
g3
sg27
S'123'
p229
sg29
S'53'
p230
sg31
S'37'
p231
sg33
S'42'
p232
sg35
S'32'
p233
sg37
S'TOT'
p234
sg39
S'31'
p235
sg41
g3
sg42
S'43'
p236
sg44
S'32'
p237
sg46
S'123'
p238
sg48
g3
sg49
S'1971-72'
p239
sg51
S'43'
p240
sg53
g3
sg54
S'.350'
p241
sg56
S'558'
p242
sg58
g3
sba(isrc.gp1.models.Totals
Totals
p243
(dp244
g8
g3
sg9
g3
sg10
S'.391'
p245
sg12
S'20'
p246
sg14
g3
sg15
g3
sg16
S'48'
p247
sg18
S'PG'
p248
sg20
S'.857'
p249
sg22
S'.391'
p250
sg24
S'NBA'
p251
sg26
g3
sg27
S'46'
p252
sg29
S'21'
p253
sg31
S'14'
p254
sg33
S'10'
p255
sg35
S'32'
p256
sg37
S'HOU'
p257
sg39
S'10'
p258
sg41
g3
sg42
S'18'
p259
sg44
S'12'
p260
sg46
S'46'
p261
sg48
g3
sg49
S'1971-72'
p262
sg51
S'18'
p263
sg53
g3
sg54
S'.391'
p264
sg56
S'223'
p265
sg58
g3
sba(isrc.gp1.models.Totals
Totals
p266
(dp267
g8
g3
sg9
g3
sg10
S'.325'
p268
sg12
S'52'
p269
sg14
g3
sg15
g3
sg16
S'70'
p270
sg18
S'PG'
p271
sg20
S'.870'
p272
sg22
S'.325'
p273
sg24
S'NBA'
p274
sg26
g3
sg27
S'77'
p275
sg29
S'32'
p276
sg31
S'23'
p277
sg33
S'32'
p278
sg35
S'32'
p279
sg37
S'ATL'
p280
sg39
S'21'
p281
sg41
g3
sg42
S'25'
p282
sg44
S'20'
p283
sg46
S'77'
p284
sg48
g3
sg49
S'1971-72'
p285
sg51
S'25'
p286
sg53
g3
sg54
S'.325'
p287
sg56
S'335'
p288
sg58
g3
sbasS'_college'
p289
S'Ohio State University'
p290
sS'_toYear'
p291
S'1972'
p292
sS'_height'
p293
S'6-3'
p294
sS'_active'
p295
I00
sS'_shootingHand'
p296
VRight
p297
sS'_name'
p298
S'Larry Siegfried'
p299
sS'_per100Possessions'
p300
(lp301
sS'_advanced'
p302
(lp303
(isrc.gp1.models.Advanced
Advanced
p304
(dp305
S'_offensiveReboundPercentage'
p306
g3
sS'_turnOverPercentage'
p307
g3
sS'_winSharesPer48Minutes'
p308
S'.084'
p309
sS'_stealPercentage'
p310
g3
sS'_usagePercentage'
p311
g3
sS'_totalReboundsPercentage'
p312
g3
sS'_defensiveBoxPlusMinus'
p313
g3
sg18
S'SG'
p314
sS'_valueOverReplacementPlayer'
p315
g3
sS'_trueShootingPercentage'
p316
S'.397'
p317
sS'_defensiveReboundPercentage'
p318
g3
sS'_freeThrowsAttempRate'
p319
S'.355'
p320
sS'_threePointsAttempRate'
p321
g3
sg24
S'NBA'
p322
sS'_offensiveBoxPlusMinues'
p323
g3
sS'_assistPercentage'
p324
g3
sS'_defensiveWinShares'
p325
S'0.8'
p326
sg35
S'24'
p327
sg37
S'BOS'
p328
sg39
S'31'
p329
sS'_blockPercentage'
p330
g3
sS'_playerEfficiencyRating'
p331
S'11.8'
p332
sS'_offensiveWinShares'
p333
S'-0.3'
p334
sg56
S'261'
p335
sS'_boxPlusMinus'
p336
g3
sg49
S'1963-64'
p337
sS'_winShares'
p338
S'0.5'
p339
sba(isrc.gp1.models.Advanced
Advanced
p340
(dp341
g306
g3
sg307
g3
sg308
S'.152'
p342
sg310
g3
sg311
g3
sg312
g3
sg313
g3
sg18
S'SG'
p343
sg315
g3
sg316
S'.475'
p344
sg318
g3
sg319
S'.336'
p345
sg321
g3
sg24
S'NBA'
p346
sg323
g3
sg324
S'15.9'
p347
sg325
S'2.1'
p348
sg35
S'25'
p349
sg37
S'BOS'
p350
sg39
S'72'
p351
sg330
g3
sg331
S'14.0'
p352
sg333
S'1.0'
p353
sg56
S'996'
p354
sg336
g3
sg49
S'1964-65'
p355
sg338
S'3.2'
p356
sba(isrc.gp1.models.Advanced
Advanced
p357
(dp358
g306
g3
sg307
g3
sg308
S'.166'
p359
sg310
g3
sg311
g3
sg312
g3
sg313
g3
sg18
S'PG'
p360
sg315
g3
sg316
S'.505'
p361
sg318
g3
sg319
S'.377'
p362
sg321
g3
sg24
S'NBA'
p363
sg323
g3
sg324
S'14.1'
p364
sg325
S'2.7'
p365
sg35
S'26'
p366
sg37
S'BOS'
p367
sg39
S'71'
p368
sg330
g3
sg331
S'16.5'
p369
sg333
S'3.1'
p370
sg56
S'1675'
p371
sg336
g3
sg49
S'1965-66'
p372
sg338
S'5.8'
p373
sba(isrc.gp1.models.Advanced
Advanced
p374
(dp375
g306
g3
sg307
g3
sg308
S'.163'
p376
sg310
g3
sg311
g3
sg312
g3
sg313
g3
sg18
S'PG'
p377
sg315
g3
sg316
S'.522'
p378
sg318
g3
sg319
S'.417'
p379
sg321
g3
sg24
S'NBA'
p380
sg323
g3
sg324
S'17.5'
p381
sg325
S'2.7'
p382
sg35
S'27'
p383
sg37
S'BOS'
p384
sg39
S'73'
p385
sg330
g3
sg331
S'16.2'
p386
sg333
S'3.7'
p387
sg56
S'1891'
p388
sg336
g3
sg49
S'1966-67'
p389
sg338
S'6.4'
p390
sba(isrc.gp1.models.Advanced
Advanced
p391
(dp392
g306
g3
sg307
g3
sg308
S'.126'
p393
sg310
g3
sg311
g3
sg312
g3
sg313
g3
sg18
S'PG'
p394
sg315
g3
sg316
S'.506'
p395
sg318
g3
sg319
S'.432'
p396
sg321
g3
sg24
S'NBA'
p397
sg323
g3
sg324
S'18.6'
p398
sg325
S'2.9'
p399
sg35
S'28'
p400
sg37
S'BOS'
p401
sg39
S'62'
p402
sg330
g3
sg331
S'13.1'
p403
sg333
S'2.2'
p404
sg56
S'1937'
p405
sg336
g3
sg49
S'1967-68'
p406
sg338
S'5.1'
p407
sba(isrc.gp1.models.Advanced
Advanced
p408
(dp409
g306
g3
sg307
g3
sg308
S'.106'
p410
sg310
g3
sg311
g3
sg312
g3
sg313
g3
sg18
S'PG'
p411
sg315
g3
sg316
S'.466'
p412
sg318
g3
sg319
S'.377'
p413
sg321
g3
sg24
S'NBA'
p414
sg323
g3
sg324
S'19.3'
p415
sg325
S'4.4'
p416
sg35
S'29'
p417
sg37
S'BOS'
p418
sg39
S'79'
p419
sg330
g3
sg331
S'13.6'
p420
sg333
S'1.2'
p421
sg56
S'2560'
p422
sg336
g3
sg49
S'1968-69'
p423
sg338
S'5.6'
p424
sba(isrc.gp1.models.Advanced
Advanced
p425
(dp426
g306
g3
sg307
g3
sg308
S'.067'
p427
sg310
g3
sg311
g3
sg312
g3
sg313
g3
sg18
S'PG'
p428
sg315
g3
sg316
S'.485'
p429
sg318
g3
sg319
S'.285'
p430
sg321
g3
sg24
S'NBA'
p431
sg323
g3
sg324
S'19.5'
p432
sg325
S'2.0'
p433
sg35
S'30'
p434
sg37
S'BOS'
p435
sg39
S'78'
p436
sg330
g3
sg331
S'13.7'
p437
sg333
S'0.9'
p438
sg56
S'2081'
p439
sg336
g3
sg49
S'1969-70'
p440
sg338
S'2.9'
p441
sba(isrc.gp1.models.Advanced
Advanced
p442
(dp443
g306
g3
sg307
g3
sg308
S'.101'
p444
sg310
g3
sg311
g3
sg312
S'5.4'
p445
sg313
g3
sg18
S'PG'
p446
sg315
g3
sg316
S'.474'
p447
sg318
g3
sg319
S'.405'
p448
sg321
g3
sg24
S'NBA'
p449
sg323
g3
sg324
S'25.5'
p450
sg325
S'2.9'
p451
sg35
S'31'
p452
sg37
S'SDR'
p453
sg39
S'53'
p454
sg330
g3
sg331
S'11.6'
p455
sg333
S'0.6'
p456
sg56
S'1673'
p457
sg336
g3
sg49
S'1970-71'
p458
sg338
S'3.5'
p459
sba(isrc.gp1.models.Advanced
Advanced
p460
(dp461
g306
g3
sg307
g3
sg308
S'.010'
p462
sg310
g3
sg311
g3
sg312
S'3.6'
p463
sg313
g3
sg18
S'PG'
p464
sg315
g3
sg316
S'.424'
p465
sg318
g3
sg319
S'.301'
p466
sg321
g3
sg24
S'NBA'
p467
sg323
g3
sg324
S'15.9'
p468
sg325
S'0.4'
p469
sg35
S'32'
p470
sg37
S'TOT'
p471
sg39
S'31'
p472
sg330
g3
sg331
S'6.9'
p473
sg333
S'-0.3'
p474
sg56
S'558'
p475
sg336
g3
sg49
S'1971-72'
p476
sg338
S'0.1'
p477
sba(isrc.gp1.models.Advanced
Advanced
p478
(dp479
g306
g3
sg307
g3
sg308
S'.044'
p480
sg310
g3
sg311
g3
sg312
S'2.0'
p481
sg313
g3
sg18
S'PG'
p482
sg315
g3
sg316
S'.460'
p483
sg318
g3
sg319
S'.304'
p484
sg321
g3
sg24
S'NBA'
p485
sg323
g3
sg324
S'10.8'
p486
sg325
S'0.2'
p487
sg35
S'32'
p488
sg37
S'HOU'
p489
sg39
S'10'
p490
sg330
g3
sg331
S'6.0'
p491
sg333
S'0.0'
p492
sg56
S'223'
p493
sg336
g3
sg49
S'1971-72'
p494
sg338
S'0.2'
p495
sba(isrc.gp1.models.Advanced
Advanced
p496
(dp497
g306
g3
sg307
g3
sg308
S'-0.012'
p498
sg310
g3
sg311
g3
sg312
S'4.7'
p499
sg313
g3
sg18
S'PG'
p500
sg315
g3
sg316
S'.402'
p501
sg318
g3
sg319
S'.299'
p502
sg321
g3
sg24
S'NBA'
p503
sg323
g3
sg324
S'19.2'
p504
sg325
S'0.2'
p505
sg35
S'32'
p506
sg37
S'ATL'
p507
sg39
S'21'
p508
sg330
g3
sg331
S'7.6'
p509
sg333
S'-0.3'
p510
sg56
S'335'
p511
sg336
g3
sg49
S'1971-72'
p512
sg338
S'-0.1'
p513
sbasS'_per36Minutes'
p514
(lp515
(isrc.gp1.models.Per36Minutes
Per36Minutes
p516
(dp517
g8
g3
sg9
g3
sg10
S'.318'
p518
sg12
S'5.5'
p519
sg14
g3
sg15
g3
sg16
S'13.9'
p520
sg18
S'SG'
p521
sg20
S'.795'
p522
sg24
S'NBA'
p523
sg26
g3
sg27
S'15.2'
p524
sg29
S'4.6'
p525
sg31
S'5.4'
p526
sg33
S'7.0'
p527
sg35
S'24'
p528
sg37
S'BOS'
p529
sg39
S'31'
p530
sg41
g3
sg42
S'4.8'
p531
sg44
S'4.3'
p532
sg46
S'15.2'
p533
sg48
g3
sg49
S'1963-64'
p534
sg51
S'4.8'
p535
sg53
g3
sg54
S'.318'
p536
sg56
S'261'
p537
sg58
g3
sba(isrc.gp1.models.Per36Minutes
Per36Minutes
p538
(dp539
g8
g3
sg9
g3
sg10
S'.415'
p540
sg12
S'4.3'
p541
sg14
g3
sg15
g3
sg16
S'16.4'
p542
sg18
S'SG'
p543
sg20
S'.779'
p544
sg24
S'NBA'
p545
sg26
g3
sg27
S'15.1'
p546
sg29
S'3.9'
p547
sg31
S'5.1'
p548
sg33
S'4.8'
p549
sg35
S'25'
p550
sg37
S'BOS'
p551
sg39
S'72'
p552
sg41
g3
sg42
S'6.3'
p553
sg44
S'3.9'
p554
sg46
S'15.1'
p555
sg48
g3
sg49
S'1964-65'
p556
sg51
S'6.3'
p557
sg53
g3
sg54
S'.415'
p558
sg56
S'996'
p559
sg58
g3
sba(isrc.gp1.models.Per36Minutes
Per36Minutes
p560
(dp561
g8
g3
sg9
g3
sg10
S'.423'
p562
sg12
S'3.5'
p563
sg14
g3
sg15
g3
sg16
S'20.9'
p564
sg18
S'PG'
p565
sg20
S'.881'
p566
sg24
S'NBA'
p567
sg26
g3
sg27
S'17.7'
p568
sg29
S'3.4'
p569
sg31
S'6.7'
p570
sg33
S'4.2'
p571
sg35
S'26'
p572
sg37
S'BOS'
p573
sg39
S'71'
p574
sg41
g3
sg42
S'7.5'
p575
sg44
S'5.9'
p576
sg46
S'17.7'
p577
sg48
g3
sg49
S'1965-66'
p578
sg51
S'7.5'
p579
sg53
g3
sg54
S'.423'
p580
sg56
S'1675'
p581
sg58
g3
sba(isrc.gp1.models.Per36Minutes
Per36Minutes
p582
(dp583
g8
g3
sg9
g3
sg10
S'.442'
p584
sg12
S'4.8'
p585
sg14
g3
sg15
g3
sg16
S'19.6'
p586
sg18
S'PG'
p587
sg20
S'.847'
p588
sg24
S'NBA'
p589
sg26
g3
sg27
S'15.9'
p590
sg29
S'3.9'
p591
sg31
S'6.6'
p592
sg33
S'4.3'
p593
sg35
S'27'
p594
sg37
S'BOS'
p595
sg39
S'73'
p596
sg41
g3
sg42
S'7.0'
p597
sg44
S'5.6'
p598
sg46
S'15.9'
p599
sg48
g3
sg49
S'1966-67'
p600
sg51
S'7.0'
p601
sg53
g3
sg54
S'.442'
p602
sg56
S'1891'
p603
sg58
g3
sba(isrc.gp1.models.Per36Minutes
Per36Minutes
p604
(dp605
g8
g3
sg9
g3
sg10
S'.415'
p606
sg12
S'5.4'
p607
sg14
g3
sg15
g3
sg16
S'14.1'
p608
sg18
S'PG'
p609
sg20
S'.868'
p610
sg24
S'NBA'
p611
sg26
g3
sg27
S'11.7'
p612
sg29
S'3.6'
p613
sg31
S'5.1'
p614
sg33
S'4.0'
p615
sg35
S'28'
p616
sg37
S'BOS'
p617
sg39
S'62'
p618
sg41
g3
sg42
S'4.9'
p619
sg44
S'4.4'
p620
sg46
S'11.7'
p621
sg48
g3
sg49
S'1967-68'
p622
sg51
S'4.9'
p623
sg53
g3
sg54
S'.415'
p624
sg56
S'1937'
p625
sg58
g3
sba(isrc.gp1.models.Per36Minutes
Per36Minutes
p626
(dp627
g8
g3
sg9
g3
sg10
S'.380'
p628
sg12
S'5.2'
p629
sg14
g3
sg15
g3
sg16
S'15.8'
p630
sg18
S'PG'
p631
sg20
S'.864'
p632
sg24
S'NBA'
p633
sg26
g3
sg27
S'14.5'
p634
sg29
S'3.1'
p635
sg31
S'5.5'
p636
sg33
S'4.0'
p637
sg35
S'29'
p638
sg37
S'BOS'
p639
sg39
S'79'
p640
sg41
g3
sg42
S'5.5'
p641
sg44
S'4.7'
p642
sg46
S'14.5'
p643
sg48
g3
sg49
S'1968-69'
p644
sg51
S'5.5'
p645
sg53
g3
sg54
S'.380'
p646
sg56
S'2560'
p647
sg58
g3
sba(isrc.gp1.models.Per36Minutes
Per36Minutes
p648
(dp649
g8
g3
sg9
g3
sg10
S'.424'
p650
sg12
S'5.2'
p651
sg14
g3
sg15
g3
sg16
S'17.0'
p652
sg18
S'PG'
p653
sg20
S'.856'
p654
sg24
S'NBA'
p655
sg26
g3
sg27
S'15.6'
p656
sg29
S'3.2'
p657
sg31
S'4.4'
p658
sg33
S'3.7'
p659
sg35
S'30'
p660
sg37
S'BOS'
p661
sg39
S'78'
p662
sg41
g3
sg42
S'6.6'
p663
sg44
S'3.8'
p664
sg46
S'15.6'
p665
sg48
g3
sg49
S'1969-70'
p666
sg51
S'6.6'
p667
sg53
g3
sg54
S'.424'
p668
sg56
S'2081'
p669
sg58
g3
sba(isrc.gp1.models.Per36Minutes
Per36Minutes
p670
(dp671
g8
g3
sg9
g3
sg10
S'.386'
p672
sg12
S'7.4'
p673
sg14
g3
sg15
g3
sg16
S'9.1'
p674
sg18
S'PG'
p675
sg20
S'.850'
p676
sg24
S'NBA'
p677
sg26
g3
sg27
S'8.1'
p678
sg29
S'3.1'
p679
sg31
S'3.3'
p680
sg33
S'4.5'
p681
sg35
S'31'
p682
sg37
S'SDR'
p683
sg39
S'53'
p684
sg41
g3
sg42
S'3.1'
p685
sg44
S'2.8'
p686
sg46
S'8.1'
p687
sg48
g3
sg49
S'1970-71'
p688
sg51
S'3.1'
p689
sg53
g3
sg54
S'.386'
p690
sg56
S'1673'
p691
sg58
g3
sba(isrc.gp1.models.Per36Minutes
Per36Minutes
p692
(dp693
g8
g3
sg9
g3
sg10
S'.350'
p694
sg12
S'4.6'
p695
sg14
g3
sg15
g3
sg16
S'7.6'
p696
sg18
S'PG'
p697
sg20
S'.865'
p698
sg24
S'NBA'
p699
sg26
g3
sg27
S'7.9'
p700
sg29
S'3.4'
p701
sg31
S'2.4'
p702
sg33
S'2.7'
p703
sg35
S'32'
p704
sg37
S'TOT'
p705
sg39
S'31'
p706
sg41
g3
sg42
S'2.8'
p707
sg44
S'2.1'
p708
sg46
S'7.9'
p709
sg48
g3
sg49
S'1971-72'
p710
sg51
S'2.8'
p711
sg53
g3
sg54
S'.350'
p712
sg56
S'558'
p713
sg58
g3
sba(isrc.gp1.models.Per36Minutes
Per36Minutes
p714
(dp715
g8
g3
sg9
g3
sg10
S'.391'
p716
sg12
S'3.2'
p717
sg14
g3
sg15
g3
sg16
S'7.7'
p718
sg18
S'PG'
p719
sg20
S'.857'
p720
sg24
S'NBA'
p721
sg26
g3
sg27
S'7.4'
p722
sg29
S'3.4'
p723
sg31
S'2.3'
p724
sg33
S'1.6'
p725
sg35
S'32'
p726
sg37
S'HOU'
p727
sg39
S'10'
p728
sg41
g3
sg42
S'2.9'
p729
sg44
S'1.9'
p730
sg46
S'7.4'
p731
sg48
g3
sg49
S'1971-72'
p732
sg51
S'2.9'
p733
sg53
g3
sg54
S'.391'
p734
sg56
S'223'
p735
sg58
g3
sba(isrc.gp1.models.Per36Minutes
Per36Minutes
p736
(dp737
g8
g3
sg9
g3
sg10
S'.325'
p738
sg12
S'5.6'
p739
sg14
g3
sg15
g3
sg16
S'7.5'
p740
sg18
S'PG'
p741
sg20
S'.870'
p742
sg24
S'NBA'
p743
sg26
g3
sg27
S'8.3'
p744
sg29
S'3.4'
p745
sg31
S'2.5'
p746
sg33
S'3.4'
p747
sg35
S'32'
p748
sg37
S'ATL'
p749
sg39
S'21'
p750
sg41
g3
sg42
S'2.7'
p751
sg44
S'2.1'
p752
sg46
S'8.3'
p753
sg48
g3
sg49
S'1971-72'
p754
sg51
S'2.7'
p755
sg53
g3
sg54
S'.325'
p756
sg56
S'335'
p757
sg58
g3
sbasS'_fromYear'
p758
S'1964'
p759
sS'_url'
p760
S'http://www.basketball-reference.com/players/s/siegfla01.html'
p761
sS'_perGame'
p762
(isrc.gp1.models.PerGame
PerGame
p763
(dp764
g8
g3
sg9
g3
sg10
S'.325'
p765
sS'_effectiveFieldGalPercentage'
p766
S'.325'
p767
sg12
S'2.5'
p768
sg14
g3
sg15
g3
sg16
S'3.3'
p769
sg18
S'PG'
p770
sg20
S'.870'
p771
sg24
S'NBA'
p772
sg26
g3
sg29
S'1.5'
p773
sS'_fieldGoalsttempted'
p774
S'3.7'
p775
sg31
S'1.1'
p776
sg33
S'1.5'
p777
sg35
S'32'
p778
sg37
S'ATL'
p779
sg39
S'21'
p780
sg41
g3
sg42
S'1.2'
p781
sg44
S'1.0'
p782
sg46
S'3.7'
p783
sg48
g3
sg49
S'1971-72'
p784
sg51
S'1.2'
p785
sg53
g3
sg54
S'.325'
p786
sg56
S'16.0'
p787
sg58
g3
sbsS'_weight'
p788
S'190'
p789
sS'_dob'
p790
S'22-5-1939'
p791
sS'_salary'
p792
(lp793
sg18
S'F'
p794
sb.