(isrc.gp1.models.Player
Player
p0
(dp1
S'_experience'
p2
V1 year
p3
sS'_totals'
p4
(lp5
(isrc.gp1.models.Totals
Totals
p6
(dp7
S'_offensiveRebounds'
p8
S'2'
p9
sS'_threePointsAttempted'
p10
S'6'
p11
sS'_fieldGoalsPercentage'
p12
S'.267'
p13
sS'_assist'
p14
S'3'
p15
sS'_threePointsPercentage'
p16
S'.167'
p17
sS'_threePoints'
p18
S'1'
p19
sS'_points'
p20
S'11'
p21
sS'_position'
p22
S'SG'
p23
sS'_freeThrowsPercentage'
p24
S'.667'
p25
sS'_effectiveFieldGoalPercentage'
p26
S'.300'
p27
sS'_league'
p28
S'NBA'
p29
sS'_steals'
p30
S'0'
p31
sS'_fieldGoalsAttempted'
p32
S'15'
p33
sS'_personalFouls'
p34
S'5'
p35
sS'_freeThrowsAttempted'
p36
g15
sS'_totalRebounds'
p37
S'4'
p38
sS'_age'
p39
S'24'
p40
sS'_team'
p41
S'PHI'
p42
sS'_games'
p43
g9
sS'_blocks'
p44
g31
sS'_twoPoints'
p45
g15
sS'_freeThrows'
p46
g9
sS'_twoPointsAttempted'
p47
S'9'
p48
sS'_defensiveRebounds'
p49
g9
sS'_season'
p50
S'2011-12'
p51
sS'_fieldGoals'
p52
g38
sS'_turnOvers'
p53
g15
sS'_twoPointsPercentage'
p54
S'.333'
p55
sS'_minutesPlayed'
p56
S'39'
p57
sS'_gamesStarted'
p58
g31
sbasS'_college'
p59
S'Northern Illinois University'
p60
sS'_toYear'
p61
S'2012'
p62
sS'_height'
p63
S'6-5'
p64
sS'_active'
p65
I01
sS'_shootingHand'
p66
VRight
p67
sS'_name'
p68
S'Xavier Silas'
p69
sS'_per100Possessions'
p70
(lp71
(isrc.gp1.models.Per100Possession
Per100Possession
p72
(dp73
g8
S'2.7'
p74
sg10
S'8.2'
p75
sg12
S'.267'
p76
sS'_offensiveRating'
p77
S'72'
p78
sg14
S'4.1'
p79
sg16
S'.167'
p80
sg18
S'1.4'
p81
sg20
S'15.1'
p82
sg22
S'SG'
p83
sS'_defensiveRating'
p84
S'107'
p85
sg24
S'.667'
p86
sg28
S'NBA'
p87
sg30
S'0.0'
p88
sg32
S'20.6'
p89
sg34
S'6.9'
p90
sg36
S'4.1'
p91
sg37
S'5.5'
p92
sg39
S'24'
p93
sg41
S'PHI'
p94
sg43
g9
sg44
S'0.0'
p95
sg45
S'4.1'
p96
sg46
S'2.7'
p97
sg47
S'12.4'
p98
sg49
S'2.7'
p99
sg50
S'2011-12'
p100
sg52
S'5.5'
p101
sg53
S'4.1'
p102
sg54
S'.333'
p103
sg56
S'39'
p104
sg58
g31
sbasS'_advanced'
p105
(lp106
(isrc.gp1.models.Advanced
Advanced
p107
(dp108
S'_offensiveReboundPercentage'
p109
S'5.7'
p110
sS'_turnOverPercentage'
p111
S'15.5'
p112
sS'_winSharesPer48Minutes'
p113
S'-0.131'
p114
sS'_stealPercentage'
p115
S'0.0'
p116
sS'_usagePercentage'
p117
S'23.3'
p118
sS'_totalReboundsPercentage'
p119
S'5.7'
p120
sS'_defensiveBoxPlusMinus'
p121
S'-3.7'
p122
sg22
S'SG'
p123
sS'_valueOverReplacementPlayer'
p124
S'-0.1'
p125
sS'_trueShootingPercentage'
p126
S'.337'
p127
sS'_defensiveReboundPercentage'
p128
S'5.7'
p129
sS'_freeThrowsAttempRate'
p130
S'.200'
p131
sS'_threePointsAttempRate'
p132
S'.400'
p133
sg28
S'NBA'
p134
sS'_offensiveBoxPlusMinues'
p135
S'-6.8'
p136
sS'_assistPercentage'
p137
S'11.4'
p138
sS'_defensiveWinShares'
p139
S'0.0'
p140
sg39
S'24'
p141
sg41
S'PHI'
p142
sg43
g9
sS'_blockPercentage'
p143
S'0.0'
p144
sS'_playerEfficiencyRating'
p145
S'0.1'
p146
sS'_offensiveWinShares'
p147
S'-0.1'
p148
sg56
S'39'
p149
sS'_boxPlusMinus'
p150
S'-10.5'
p151
sg50
S'2011-12'
p152
sS'_winShares'
p153
S'-0.1'
p154
sbasS'_per36Minutes'
p155
(lp156
(isrc.gp1.models.Per36Minutes
Per36Minutes
p157
(dp158
g8
S'1.8'
p159
sg10
S'5.5'
p160
sg12
S'.267'
p161
sg14
S'2.8'
p162
sg16
S'.167'
p163
sg18
S'0.9'
p164
sg20
S'10.2'
p165
sg22
S'SG'
p166
sg24
S'.667'
p167
sg28
S'NBA'
p168
sg30
S'0.0'
p169
sg32
S'13.8'
p170
sg34
S'4.6'
p171
sg36
S'2.8'
p172
sg37
S'3.7'
p173
sg39
S'24'
p174
sg41
S'PHI'
p175
sg43
g9
sg44
S'0.0'
p176
sg45
S'2.8'
p177
sg46
S'1.8'
p178
sg47
S'8.3'
p179
sg49
S'1.8'
p180
sg50
S'2011-12'
p181
sg52
S'3.7'
p182
sg53
S'2.8'
p183
sg54
S'.333'
p184
sg56
S'39'
p185
sg58
g31
sbasS'_fromYear'
p186
S'2012'
p187
sS'_url'
p188
S'http://www.basketball-reference.com/players/s/silasxa01.html'
p189
sS'_perGame'
p190
(isrc.gp1.models.PerGame
PerGame
p191
(dp192
g8
S'1.0'
p193
sg10
S'3.0'
p194
sg12
S'.267'
p195
sS'_effectiveFieldGalPercentage'
p196
S'.300'
p197
sg14
S'1.5'
p198
sg16
S'.167'
p199
sg18
S'0.5'
p200
sg20
S'5.5'
p201
sg22
S'SG'
p202
sg24
S'.667'
p203
sg28
S'NBA'
p204
sg30
S'0.0'
p205
sg34
S'2.5'
p206
sS'_fieldGoalsttempted'
p207
S'7.5'
p208
sg36
S'1.5'
p209
sg37
S'2.0'
p210
sg39
S'24'
p211
sg41
S'PHI'
p212
sg43
g9
sg44
S'0.0'
p213
sg45
S'1.5'
p214
sg46
S'1.0'
p215
sg47
S'4.5'
p216
sg49
S'1.0'
p217
sg50
S'2011-12'
p218
sg52
S'2.0'
p219
sg53
S'1.5'
p220
sg54
S'.333'
p221
sg56
S'19.5'
p222
sg58
g31
sbsS'_weight'
p223
S'205'
p224
sS'_dob'
p225
S'22-1-1988'
p226
sS'_salary'
p227
(lp228
sg22
S'G'
p229
sb.