(isrc.gp1.models.Player
Player
p0
(dp1
S'_experience'
p2
V1 year
p3
sS'_totals'
p4
(lp5
(isrc.gp1.models.Totals
Totals
p6
(dp7
S'_offensiveRebounds'
p8
S'0'
p9
sS'_threePointsAttempted'
p10
g9
sS'_fieldGoalsPercentage'
p11
S'.500'
p12
sS'_assist'
p13
S'1'
p14
sS'_threePointsPercentage'
p15
S'NA'
p16
sS'_threePoints'
p17
g9
sS'_points'
p18
S'2'
p19
sS'_position'
p20
S'C'
p21
sS'_freeThrowsPercentage'
p22
g16
sS'_effectiveFieldGoalPercentage'
p23
S'.500'
p24
sS'_league'
p25
S'NBA'
p26
sS'_steals'
p27
g9
sS'_fieldGoalsAttempted'
p28
g19
sS'_personalFouls'
p29
g9
sS'_freeThrowsAttempted'
p30
g9
sS'_totalRebounds'
p31
g14
sS'_age'
p32
S'22'
p33
sS'_team'
p34
S'SAC'
p35
sS'_games'
p36
S'3'
p37
sS'_blocks'
p38
g14
sS'_twoPoints'
p39
g14
sS'_freeThrows'
p40
g9
sS'_twoPointsAttempted'
p41
g19
sS'_defensiveRebounds'
p42
g14
sS'_season'
p43
S'2014-15'
p44
sS'_fieldGoals'
p45
g14
sS'_turnOvers'
p46
g9
sS'_twoPointsPercentage'
p47
S'.500'
p48
sS'_minutesPlayed'
p49
g37
sS'_gamesStarted'
p50
g9
sbasS'_college'
p51
S'New Mexico State University'
p52
sS'_toYear'
p53
S'2015'
p54
sS'_height'
p55
S'7-5'
p56
sS'_active'
p57
I01
sS'_shootingHand'
p58
VRight
p59
sS'_name'
p60
S'Sim Bhullar'
p61
sS'_per100Possessions'
p62
(lp63
(isrc.gp1.models.Per100Possession
Per100Possession
p64
(dp65
g8
S'0.0'
p66
sg10
S'0.0'
p67
sg11
S'.500'
p68
sS'_offensiveRating'
p69
S'124'
p70
sg13
S'16.8'
p71
sg15
g16
sg17
S'0.0'
p72
sg18
S'33.6'
p73
sg20
g21
sS'_defensiveRating'
p74
S'88'
p75
sg22
g16
sg25
S'NBA'
p76
sg27
S'0.0'
p77
sg28
S'33.6'
p78
sg29
S'0.0'
p79
sg30
S'0.0'
p80
sg31
S'16.8'
p81
sg32
S'22'
p82
sg34
S'SAC'
p83
sg36
g37
sg38
S'16.8'
p84
sg39
S'16.8'
p85
sg40
S'0.0'
p86
sg41
S'33.6'
p87
sg42
S'16.8'
p88
sg43
S'2014-15'
p89
sg45
S'16.8'
p90
sg46
S'0.0'
p91
sg47
S'.500'
p92
sg49
g37
sg50
g9
sbasS'_advanced'
p93
(lp94
(isrc.gp1.models.Advanced
Advanced
p95
(dp96
S'_offensiveReboundPercentage'
p97
S'0.0'
p98
sS'_turnOverPercentage'
p99
S'0.0'
p100
sS'_winSharesPer48Minutes'
p101
S'.389'
p102
sS'_stealPercentage'
p103
S'0.0'
p104
sS'_usagePercentage'
p105
S'29.4'
p106
sS'_totalReboundsPercentage'
p107
S'18.9'
p108
sS'_defensiveBoxPlusMinus'
p109
S'17.1'
p110
sg20
g21
sS'_valueOverReplacementPlayer'
p111
S'0.0'
p112
sS'_trueShootingPercentage'
p113
S'.500'
p114
sS'_defensiveReboundPercentage'
p115
S'36.5'
p116
sS'_freeThrowsAttempRate'
p117
S'.000'
p118
sS'_threePointsAttempRate'
p119
S'.000'
p120
sg25
S'NBA'
p121
sS'_offensiveBoxPlusMinues'
p122
S'9.4'
p123
sS'_assistPercentage'
p124
S'78.5'
p125
sS'_defensiveWinShares'
p126
S'0.0'
p127
sg32
S'22'
p128
sg34
S'SAC'
p129
sg36
g37
sS'_blockPercentage'
p130
S'26.3'
p131
sS'_playerEfficiencyRating'
p132
S'44.3'
p133
sS'_offensiveWinShares'
p134
S'0.0'
p135
sg49
g37
sS'_boxPlusMinus'
p136
S'26.6'
p137
sg43
S'2014-15'
p138
sS'_winShares'
p139
S'0.0'
p140
sbasS'_per36Minutes'
p141
(lp142
(isrc.gp1.models.Per36Minutes
Per36Minutes
p143
(dp144
g8
S'0.0'
p145
sg10
S'0.0'
p146
sg11
S'.500'
p147
sg13
S'12.0'
p148
sg15
g16
sg17
S'0.0'
p149
sg18
S'24.0'
p150
sg20
g21
sg22
g16
sg25
S'NBA'
p151
sg27
S'0.0'
p152
sg28
S'24.0'
p153
sg29
S'0.0'
p154
sg30
S'0.0'
p155
sg31
S'12.0'
p156
sg32
S'22'
p157
sg34
S'SAC'
p158
sg36
g37
sg38
S'12.0'
p159
sg39
S'12.0'
p160
sg40
S'0.0'
p161
sg41
S'24.0'
p162
sg42
S'12.0'
p163
sg43
S'2014-15'
p164
sg45
S'12.0'
p165
sg46
S'0.0'
p166
sg47
S'.500'
p167
sg49
g37
sg50
g9
sbasS'_fromYear'
p168
S'2015'
p169
sS'_url'
p170
S'http://www.basketball-reference.com/players/b/bhullsi01.html'
p171
sS'_perGame'
p172
(isrc.gp1.models.PerGame
PerGame
p173
(dp174
g8
S'0.0'
p175
sg10
S'0.0'
p176
sg11
S'.500'
p177
sS'_effectiveFieldGalPercentage'
p178
S'.500'
p179
sg13
S'0.3'
p180
sg15
g16
sg17
S'0.0'
p181
sg18
S'0.7'
p182
sg20
g21
sg22
g16
sg25
S'NBA'
p183
sg27
S'0.0'
p184
sg29
S'0.0'
p185
sS'_fieldGoalsttempted'
p186
S'0.7'
p187
sg30
S'0.0'
p188
sg31
S'0.3'
p189
sg32
S'22'
p190
sg34
S'SAC'
p191
sg36
g37
sg38
S'0.3'
p192
sg39
S'0.3'
p193
sg40
S'0.0'
p194
sg41
S'0.7'
p195
sg42
S'0.3'
p196
sg43
S'2014-15'
p197
sg45
S'0.3'
p198
sg46
S'0.0'
p199
sg47
S'.500'
p200
sg49
S'1.0'
p201
sg50
g9
sbsS'_weight'
p202
S'360'
p203
sS'_dob'
p204
S'2-12-1992'
p205
sS'_salary'
p206
(lp207
(isrc.gp1.models.Salary
Salary
p208
(dp209
g34
S'Sacramento Kings'
p210
sg25
S'NBA'
p211
sg206
S'$29,843'
p212
sg43
S'2014-15'
p213
sbasg20
g21
sb.