(isrc.gp1.models.Player
Player
p0
(dp1
S'_experience'
p2
S'NA'
p3
sS'_totals'
p4
(lp5
(isrc.gp1.models.Totals
Totals
p6
(dp7
S'_offensiveRebounds'
p8
g3
sS'_threePointsAttempted'
p9
g3
sS'_fieldGoalsPercentage'
p10
S'.400'
p11
sS'_assist'
p12
S'0'
p13
sS'_threePointsPercentage'
p14
g3
sS'_threePoints'
p15
g3
sS'_points'
p16
S'4'
p17
sS'_position'
p18
g3
sS'_freeThrowsPercentage'
p19
g3
sS'_effectiveFieldGoalPercentage'
p20
S'.400'
p21
sS'_league'
p22
S'NBA'
p23
sS'_steals'
p24
g3
sS'_fieldGoalsAttempted'
p25
S'5'
p26
sS'_personalFouls'
p27
g17
sS'_freeThrowsAttempted'
p28
g13
sS'_totalRebounds'
p29
g17
sS'_age'
p30
S'25'
p31
sS'_team'
p32
S'CIN'
p33
sS'_games'
p34
g17
sS'_blocks'
p35
g3
sS'_twoPoints'
p36
S'2'
p37
sS'_freeThrows'
p38
g13
sS'_twoPointsAttempted'
p39
g26
sS'_defensiveRebounds'
p40
g3
sS'_season'
p41
S'1968-69'
p42
sS'_fieldGoals'
p43
g37
sS'_turnOvers'
p44
g3
sS'_twoPointsPercentage'
p45
S'.400'
p46
sS'_minutesPlayed'
p47
S'12'
p48
sS'_gamesStarted'
p49
g3
sbasS'_college'
p50
S'Kent State University'
p51
sS'_toYear'
p52
S'1969'
p53
sS'_height'
p54
S'6-7'
p55
sS'_active'
p56
I00
sS'_shootingHand'
p57
VRight
p58
sS'_name'
p59
S'Doug Sims'
p60
sS'_per100Possessions'
p61
(lp62
sS'_advanced'
p63
(lp64
(isrc.gp1.models.Advanced
Advanced
p65
(dp66
S'_offensiveReboundPercentage'
p67
g3
sS'_turnOverPercentage'
p68
g3
sS'_winSharesPer48Minutes'
p69
S'-0.053'
p70
sS'_stealPercentage'
p71
g3
sS'_usagePercentage'
p72
g3
sS'_totalReboundsPercentage'
p73
g3
sS'_defensiveBoxPlusMinus'
p74
g3
sg18
g3
sS'_valueOverReplacementPlayer'
p75
g3
sS'_trueShootingPercentage'
p76
S'.400'
p77
sS'_defensiveReboundPercentage'
p78
g3
sS'_freeThrowsAttempRate'
p79
S'.000'
p80
sS'_threePointsAttempRate'
p81
g3
sg22
S'NBA'
p82
sS'_offensiveBoxPlusMinues'
p83
g3
sS'_assistPercentage'
p84
S'0.0'
p85
sS'_defensiveWinShares'
p86
S'0.0'
p87
sg30
S'25'
p88
sg32
S'CIN'
p89
sg34
g17
sS'_blockPercentage'
p90
g3
sS'_playerEfficiencyRating'
p91
S'5.0'
p92
sS'_offensiveWinShares'
p93
S'0.0'
p94
sg47
S'12'
p95
sS'_boxPlusMinus'
p96
g3
sg41
S'1968-69'
p97
sS'_winShares'
p98
S'0.0'
p99
sbasS'_per36Minutes'
p100
(lp101
(isrc.gp1.models.Per36Minutes
Per36Minutes
p102
(dp103
g8
g3
sg9
g3
sg10
S'.400'
p104
sg12
S'0.0'
p105
sg14
g3
sg15
g3
sg16
S'12.0'
p106
sg18
g3
sg19
g3
sg22
S'NBA'
p107
sg24
g3
sg25
S'15.0'
p108
sg27
S'12.0'
p109
sg28
S'0.0'
p110
sg29
S'12.0'
p111
sg30
S'25'
p112
sg32
S'CIN'
p113
sg34
g17
sg35
g3
sg36
S'6.0'
p114
sg38
S'0.0'
p115
sg39
S'15.0'
p116
sg40
g3
sg41
S'1968-69'
p117
sg43
S'6.0'
p118
sg44
g3
sg45
S'.400'
p119
sg47
S'12'
p120
sg49
g3
sbasS'_fromYear'
p121
S'1969'
p122
sS'_url'
p123
S'http://www.basketball-reference.com/players/s/simsdo01.html'
p124
sS'_perGame'
p125
(isrc.gp1.models.PerGame
PerGame
p126
(dp127
g8
g3
sg9
g3
sg10
S'.400'
p128
sS'_effectiveFieldGalPercentage'
p129
S'.400'
p130
sg12
S'0.0'
p131
sg14
g3
sg15
g3
sg16
S'1.0'
p132
sg18
g3
sg19
g3
sg22
S'NBA'
p133
sg24
g3
sg27
S'1.0'
p134
sS'_fieldGoalsttempted'
p135
S'1.3'
p136
sg28
S'0.0'
p137
sg29
S'1.0'
p138
sg30
S'25'
p139
sg32
S'CIN'
p140
sg34
g17
sg35
g3
sg36
S'0.5'
p141
sg38
S'0.0'
p142
sg39
S'1.3'
p143
sg40
g3
sg41
S'1968-69'
p144
sg43
S'0.5'
p145
sg44
g3
sg45
S'.400'
p146
sg47
S'3.0'
p147
sg49
g3
sbsS'_weight'
p148
S'195'
p149
sS'_dob'
p150
S'29-6-1943'
p151
sS'_salary'
p152
(lp153
sg18
S'F'
p154
sb.