(isrc.gp1.models.Player
Player
p0
(dp1
S'_experience'
p2
S'NA'
p3
sS'_totals'
p4
(lp5
(isrc.gp1.models.Totals
Totals
p6
(dp7
S'_offensiveRebounds'
p8
g3
sS'_threePointsAttempted'
p9
g3
sS'_fieldGoalsPercentage'
p10
S'.250'
p11
sS'_assist'
p12
S'0'
p13
sS'_threePointsPercentage'
p14
g3
sS'_threePoints'
p15
g3
sS'_points'
p16
S'2'
p17
sS'_position'
p18
g3
sS'_freeThrowsPercentage'
p19
S'.000'
p20
sS'_effectiveFieldGoalPercentage'
p21
S'.250'
p22
sS'_league'
p23
S'NBA'
p24
sS'_steals'
p25
g3
sS'_fieldGoalsAttempted'
p26
S'4'
p27
sS'_personalFouls'
p28
g17
sS'_freeThrowsAttempted'
p29
g17
sS'_totalRebounds'
p30
S'1'
p31
sS'_age'
p32
S'23'
p33
sS'_team'
p34
S'FTW'
p35
sS'_games'
p36
S'3'
p37
sS'_blocks'
p38
g3
sS'_twoPoints'
p39
g31
sS'_freeThrows'
p40
g13
sS'_twoPointsAttempted'
p41
g27
sS'_defensiveRebounds'
p42
g3
sS'_season'
p43
S'1951-52'
p44
sS'_fieldGoals'
p45
g31
sS'_turnOvers'
p46
g3
sS'_twoPointsPercentage'
p47
S'.250'
p48
sS'_minutesPlayed'
p49
S'15'
p50
sS'_gamesStarted'
p51
g3
sba(isrc.gp1.models.Totals
Totals
p52
(dp53
g8
g3
sg9
g3
sg10
g3
sg12
g3
sg14
g3
sg15
g3
sg16
g3
sg18
g3
sg19
g3
sg21
g3
sg23
g3
sg25
g3
sg26
g3
sg28
g3
sg29
g3
sg30
g3
sg32
S'24'
p54
sg34
S'Did Not Play\xc2\xa0(military service)'
p55
sg36
g3
sg38
g3
sg39
g3
sg40
g3
sg41
g3
sg42
g3
sg43
S'1952-53'
p56
sg45
g3
sg46
g3
sg47
g3
sg49
g3
sg51
g3
sba(isrc.gp1.models.Totals
Totals
p57
(dp58
g8
g3
sg9
g3
sg10
S'.250'
p59
sg12
g37
sg14
g3
sg15
g3
sg16
S'11'
p60
sg18
g3
sg19
S'.500'
p61
sg21
S'.250'
p62
sg23
S'NBA'
p63
sg25
g3
sg26
S'16'
p64
sg28
S'8'
p65
sg29
S'6'
p66
sg30
g31
sg32
S'25'
p67
sg34
S'FTW'
p68
sg36
S'9'
p69
sg38
g3
sg39
g27
sg40
g37
sg41
S'16'
p70
sg42
g3
sg43
S'1953-54'
p71
sg45
g27
sg46
g3
sg47
S'.250'
p72
sg49
S'33'
p73
sg51
g3
sbasS'_college'
p74
S'Niagara University'
p75
sS'_toYear'
p76
S'1954'
p77
sS'_height'
p78
S'5-10'
p79
sS'_active'
p80
I00
sS'_shootingHand'
p81
VRight
p82
sS'_name'
p83
S'Zeke Sinicola'
p84
sS'_per100Possessions'
p85
(lp86
sS'_advanced'
p87
(lp88
(isrc.gp1.models.Advanced
Advanced
p89
(dp90
S'_offensiveReboundPercentage'
p91
g3
sS'_turnOverPercentage'
p92
g3
sS'_winSharesPer48Minutes'
p93
S'-0.236'
p94
sS'_stealPercentage'
p95
g3
sS'_usagePercentage'
p96
g3
sS'_totalReboundsPercentage'
p97
g3
sS'_defensiveBoxPlusMinus'
p98
g3
sg18
g3
sS'_valueOverReplacementPlayer'
p99
g3
sS'_trueShootingPercentage'
p100
S'.205'
p101
sS'_defensiveReboundPercentage'
p102
g3
sS'_freeThrowsAttempRate'
p103
S'.500'
p104
sS'_threePointsAttempRate'
p105
g3
sg23
S'NBA'
p106
sS'_offensiveBoxPlusMinues'
p107
g3
sS'_assistPercentage'
p108
g3
sS'_defensiveWinShares'
p109
S'0.0'
p110
sg32
S'23'
p111
sg34
S'FTW'
p112
sg36
g37
sS'_blockPercentage'
p113
g3
sS'_playerEfficiencyRating'
p114
S'-7.1'
p115
sS'_offensiveWinShares'
p116
S'-0.1'
p117
sg49
S'15'
p118
sS'_boxPlusMinus'
p119
g3
sg43
S'1951-52'
p120
sS'_winShares'
p121
S'-0.1'
p122
sba(isrc.gp1.models.Advanced
Advanced
p123
(dp124
g91
g3
sg92
g3
sg93
S'-0.216'
p125
sg95
g3
sg96
g3
sg97
g3
sg98
g3
sg18
g3
sg99
g3
sg100
S'.295'
p126
sg102
g3
sg103
S'.375'
p127
sg105
g3
sg23
S'NBA'
p128
sg107
g3
sg108
g3
sg109
S'0.0'
p129
sg32
S'25'
p130
sg34
S'FTW'
p131
sg36
g69
sg113
g3
sg114
S'-1.7'
p132
sg116
S'-0.2'
p133
sg49
S'33'
p134
sg119
g3
sg43
S'1953-54'
p135
sg121
S'-0.1'
p136
sbasS'_per36Minutes'
p137
(lp138
(isrc.gp1.models.Per36Minutes
Per36Minutes
p139
(dp140
g8
g3
sg9
g3
sg10
S'.250'
p141
sg12
S'0.0'
p142
sg14
g3
sg15
g3
sg16
S'4.8'
p143
sg18
g3
sg19
S'.000'
p144
sg23
S'NBA'
p145
sg25
g3
sg26
S'9.6'
p146
sg28
S'4.8'
p147
sg29
S'4.8'
p148
sg30
S'2.4'
p149
sg32
S'23'
p150
sg34
S'FTW'
p151
sg36
g37
sg38
g3
sg39
S'2.4'
p152
sg40
S'0.0'
p153
sg41
S'9.6'
p154
sg42
g3
sg43
S'1951-52'
p155
sg45
S'2.4'
p156
sg46
g3
sg47
S'.250'
p157
sg49
S'15'
p158
sg51
g3
sba(isrc.gp1.models.Per36Minutes
Per36Minutes
p159
(dp160
g8
g3
sg9
g3
sg10
S'.250'
p161
sg12
S'3.3'
p162
sg14
g3
sg15
g3
sg16
S'12.0'
p163
sg18
g3
sg19
S'.500'
p164
sg23
S'NBA'
p165
sg25
g3
sg26
S'17.5'
p166
sg28
S'8.7'
p167
sg29
S'6.5'
p168
sg30
S'1.1'
p169
sg32
S'25'
p170
sg34
S'FTW'
p171
sg36
g69
sg38
g3
sg39
S'4.4'
p172
sg40
S'3.3'
p173
sg41
S'17.5'
p174
sg42
g3
sg43
S'1953-54'
p175
sg45
S'4.4'
p176
sg46
g3
sg47
S'.250'
p177
sg49
S'33'
p178
sg51
g3
sbasS'_fromYear'
p179
S'1952'
p180
sS'_url'
p181
S'http://www.basketball-reference.com/players/s/sinicze01.html'
p182
sS'_perGame'
p183
(isrc.gp1.models.PerGame
PerGame
p184
(dp185
g8
g3
sg9
g3
sg10
S'.250'
p186
sS'_effectiveFieldGalPercentage'
p187
S'.250'
p188
sg12
S'0.3'
p189
sg14
g3
sg15
g3
sg16
S'1.2'
p190
sg18
g3
sg19
S'.500'
p191
sg23
S'NBA'
p192
sg25
g3
sg28
S'0.9'
p193
sS'_fieldGoalsttempted'
p194
S'1.8'
p195
sg29
S'0.7'
p196
sg30
S'0.1'
p197
sg32
S'25'
p198
sg34
S'FTW'
p199
sg36
g69
sg38
g3
sg39
S'0.4'
p200
sg40
S'0.3'
p201
sg41
S'1.8'
p202
sg42
g3
sg43
S'1953-54'
p203
sg45
S'0.4'
p204
sg46
g3
sg47
S'.250'
p205
sg49
S'3.7'
p206
sg51
g3
sbsS'_weight'
p207
S'165'
p208
sS'_dob'
p209
S'25-1-1929'
p210
sS'_salary'
p211
(lp212
sg18
S'G'
p213
sb.