(isrc.gp1.models.Player
Player
p0
(dp1
S'_experience'
p2
S'NA'
p3
sS'_totals'
p4
(lp5
(isrc.gp1.models.Totals
Totals
p6
(dp7
S'_offensiveRebounds'
p8
S'59'
p9
sS'_threePointsAttempted'
p10
S'.000'
p11
sS'_fieldGoalsPercentage'
p12
S'0'
p13
sS'_assist'
p14
S'514'
p15
sS'_threePointsPercentage'
p16
S'206'
p17
sS'_threePoints'
p18
S'1'
p19
sS'_points'
p20
g3
sS'_position'
p21
S'C'
p22
sS'_freeThrowsPercentage'
p23
S'436'
p24
sS'_effectiveFieldGoalPercentage'
p25
S'102'
p26
sS'_league'
p27
S'ABA'
p28
sS'_steals'
p29
g3
sS'_fieldGoalsAttempted'
p30
S'.434'
p31
sS'_personalFouls'
p32
g3
sS'_freeThrowsAttempted'
p33
S'.622'
p34
sS'_totalRebounds'
p35
S'124'
p36
sS'_age'
p37
S'24'
p38
sS'_team'
p39
S'MNM'
p40
sS'_games'
p41
S'63'
p42
sS'_blocks'
p43
g3
sS'_twoPoints'
p44
S'474'
p45
sS'_freeThrows'
p46
S'164'
p47
sS'_twoPointsAttempted'
p48
S'.435'
p49
sS'_defensiveRebounds'
p50
S'77'
p51
sS'_season'
p52
S'1967-68'
p53
sS'_fieldGoals'
p54
S'475'
p55
sS'_turnOvers'
p56
g3
sS'_twoPointsPercentage'
p57
S'.434'
p58
sS'_minutesPlayed'
p59
S'206'
p60
sS'_gamesStarted'
p61
S'1203'
p62
sba(isrc.gp1.models.Totals
Totals
p63
(dp64
g8
S'1046'
p65
sg10
S'532'
p66
sg12
S'2'
p67
sg14
S'324'
p68
sg16
S'1098'
p69
sg18
S'.000'
p70
sg20
g3
sg21
S'78'
p71
sg23
S'655'
p72
sg25
S'392'
p73
sg27
g22
sg29
S'1305'
p74
sg30
g13
sg32
g3
sg33
S'391'
p75
sg35
S'180'
p76
sg37
S'MMF'
p77
sg39
S'ABA'
p78
sg41
S'2645'
p79
sg43
g3
sg44
S'.485'
p80
sg46
S'.615'
p81
sg48
S'.484'
p82
sg50
S'195'
p83
sg52
S'25'
p84
sg54
S'.484'
p85
sg56
g3
sg57
S'241'
p86
sg59
S'1100'
p87
sg61
S'532'
p88
sba(isrc.gp1.models.Totals
Totals
p89
(dp90
g8
S'284'
p91
sg10
S'.000'
p92
sg12
g13
sg14
S'91'
p93
sg16
S'164'
p94
sg18
g67
sg20
g3
sg21
g22
sg23
S'109'
p95
sg25
S'92'
p96
sg27
S'ABA'
p97
sg29
S'112'
p98
sg30
S'.451'
p99
sg32
g3
sg33
S'.594'
p100
sg35
S'75'
p101
sg37
S'26'
p102
sg39
S'MMF'
p103
sg41
S'29'
p104
sg43
S'420'
p105
sg44
S'362'
p106
sg46
S'155'
p107
sg48
S'.453'
p108
sg50
S'393'
p109
sg52
S'1969-70'
p110
sg54
S'364'
p111
sg56
g3
sg57
S'.451'
p112
sg59
S'164'
p113
sg61
S'1020'
p114
sbasS'_college'
p115
S'University of Illinois at Urbana-Champaign'
p116
sS'_toYear'
p117
S'1970'
p118
sS'_height'
p119
S'6-10'
p120
sS'_active'
p121
I00
sS'_shootingHand'
p122
VRight
p123
sS'_name'
p124
S'Skip Thoren'
p125
sS'_per100Possessions'
p126
(lp127
sS'_advanced'
p128
(lp129
(isrc.gp1.models.Advanced
Advanced
p130
(dp131
S'_offensiveReboundPercentage'
p132
S'15.7'
p133
sS'_turnOverPercentage'
p134
S'4.4'
p135
sS'_winSharesPer48Minutes'
p136
g3
sS'_stealPercentage'
p137
S'0.8'
p138
sS'_usagePercentage'
p139
S'.176'
p140
sS'_totalReboundsPercentage'
p141
S'12.3'
p142
sS'_defensiveBoxPlusMinus'
p143
g3
sg21
g22
sS'_valueOverReplacementPlayer'
p144
g3
sS'_trueShootingPercentage'
p145
S'.470'
p146
sS'_defensiveReboundPercentage'
p147
S'7.1'
p148
sS'_freeThrowsAttempRate'
p149
S'.345'
p150
sS'_threePointsAttempRate'
p151
S'.002'
p152
sg27
S'ABA'
p153
sS'_offensiveBoxPlusMinues'
p154
g3
sS'_assistPercentage'
p155
S'18.3'
p156
sS'_defensiveWinShares'
p157
g3
sg37
S'24'
p158
sg39
S'MNM'
p159
sg41
S'63'
p160
sS'_blockPercentage'
p161
S'3.6'
p162
sS'_playerEfficiencyRating'
p163
S'17.7'
p164
sS'_offensiveWinShares'
p165
g3
sg59
S'1203'
p166
sS'_boxPlusMinus'
p167
g3
sg52
S'1967-68'
p168
sS'_winShares'
p169
g3
sba(isrc.gp1.models.Advanced
Advanced
p170
(dp171
g132
S'10.5'
p172
sg134
S'.126'
p173
sg136
g3
sg137
S'3.6'
p174
sg139
g3
sg141
S'19.8'
p175
sg143
g3
sg21
S'78'
p176
sg144
g3
sg145
S'.002'
p177
sg147
S'12.4'
p178
sg149
S'18.5'
p179
sg151
S'.356'
p180
sg27
g22
sg154
g3
sg155
S'3.3'
p181
sg157
g3
sg37
S'MMF'
p182
sg39
S'ABA'
p183
sg41
S'2645'
p184
sg161
S'7.0'
p185
sg163
S'.513'
p186
sg165
g3
sg59
S'20.1'
p187
sg167
g3
sg52
S'25'
p188
sg169
g3
sba(isrc.gp1.models.Advanced
Advanced
p189
(dp190
g132
S'17.5'
p191
sg134
S'1.6'
p192
sg136
g3
sg137
S'0.5'
p193
sg139
S'.077'
p194
sg141
S'17.4'
p195
sg143
g3
sg21
g22
sg144
g3
sg145
S'.486'
p196
sg147
S'10.1'
p197
sg149
S'.426'
p198
sg151
S'.005'
p199
sg27
S'ABA'
p200
sg154
g3
sg155
S'18.4'
p201
sg157
g3
sg37
S'26'
p202
sg39
S'MMF'
p203
sg41
S'29'
p204
sg161
S'1.2'
p205
sg163
S'15.7'
p206
sg165
g3
sg59
S'1020'
p207
sg167
g3
sg52
S'1969-70'
p208
sg169
g3
sbasS'_per36Minutes'
p209
(lp210
(isrc.gp1.models.Per36Minutes
Per36Minutes
p211
(dp212
g8
S'1.8'
p213
sg10
S'.000'
p214
sg12
S'0.0'
p215
sg14
S'15.4'
p216
sg16
S'6.2'
p217
sg18
S'0.0'
p218
sg20
g3
sg21
g22
sg23
S'13.0'
p219
sg27
S'ABA'
p220
sg29
g3
sg30
S'.434'
p221
sg32
g3
sg33
S'.622'
p222
sg35
S'3.7'
p223
sg37
S'24'
p224
sg39
S'MNM'
p225
sg41
S'63'
p226
sg43
g3
sg44
S'14.2'
p227
sg46
S'4.9'
p228
sg48
S'.435'
p229
sg50
S'2.3'
p230
sg52
S'1967-68'
p231
sg54
S'14.2'
p232
sg56
g3
sg57
S'3.1'
p233
sg59
S'6.2'
p234
sg61
S'1203'
p235
sba(isrc.gp1.models.Per36Minutes
Per36Minutes
p236
(dp237
g8
S'14.2'
p238
sg10
S'7.2'
p239
sg12
S'0.0'
p240
sg14
S'4.4'
p241
sg16
S'14.9'
p242
sg18
S'.000'
p243
sg20
g3
sg21
S'78'
p244
sg23
S'8.9'
p245
sg27
g22
sg29
S'17.8'
p246
sg30
S'0.0'
p247
sg32
g3
sg33
S'5.3'
p248
sg35
S'2.4'
p249
sg37
S'MMF'
p250
sg39
S'ABA'
p251
sg41
S'2645'
p252
sg43
g3
sg44
S'.485'
p253
sg46
S'.615'
p254
sg48
S'3.3'
p255
sg50
S'2.7'
p256
sg52
S'25'
p257
sg54
S'.484'
p258
sg56
g3
sg57
S'5.3'
p259
sg59
S'15.0'
p260
sg61
S'7.2'
p261
sba(isrc.gp1.models.Per36Minutes
Per36Minutes
p262
(dp263
g8
S'10.0'
p264
sg10
S'.000'
p265
sg12
S'0.0'
p266
sg14
S'3.2'
p267
sg16
S'5.8'
p268
sg18
S'0.1'
p269
sg20
g3
sg21
g22
sg23
S'3.8'
p270
sg27
S'ABA'
p271
sg29
S'4.0'
p272
sg30
S'.451'
p273
sg32
g3
sg33
S'.594'
p274
sg35
S'2.6'
p275
sg37
S'26'
p276
sg39
S'MMF'
p277
sg41
S'29'
p278
sg43
S'14.8'
p279
sg44
S'12.8'
p280
sg46
S'5.5'
p281
sg48
S'.453'
p282
sg50
S'13.9'
p283
sg52
S'1969-70'
p284
sg54
S'12.8'
p285
sg56
g3
sg57
S'3.2'
p286
sg59
S'5.8'
p287
sg61
S'1020'
p288
sbasS'_fromYear'
p289
S'1968'
p290
sS'_url'
p291
S'http://www.basketball-reference.com/players/t/thoresk01.html'
p292
sS'_perGame'
p293
(isrc.gp1.models.PerGame
PerGame
p294
(dp295
g8
S'9.8'
p296
sg10
S'.000'
p297
sg12
S'0.0'
p298
sS'_effectiveFieldGalPercentage'
p299
S'3.2'
p300
sg14
S'3.1'
p301
sg16
S'5.7'
p302
sg18
S'0.1'
p303
sg20
g3
sg21
g22
sg23
S'3.8'
p304
sg27
S'ABA'
p305
sg29
S'3.9'
p306
sg32
g3
sS'_fieldGoalsttempted'
p307
S'.451'
p308
sg33
S'.594'
p309
sg35
S'2.6'
p310
sg37
S'26'
p311
sg39
S'MMF'
p312
sg41
S'29'
p313
sg43
S'14.5'
p314
sg44
S'12.5'
p315
sg46
S'5.3'
p316
sg48
S'.453'
p317
sg50
S'13.6'
p318
sg52
S'1969-70'
p319
sg54
S'12.6'
p320
sg56
g3
sg57
S'.451'
p321
sg59
S'5.7'
p322
sg61
S'35.2'
p323
sbsS'_weight'
p324
S'230'
p325
sS'_dob'
p326
S'5-4-1943'
p327
sS'_salary'
p328
(lp329
sg21
g22
sb.