(isrc.gp1.models.Player
Player
p0
(dp1
S'_experience'
p2
S'NA'
p3
sS'_totals'
p4
(lp5
(isrc.gp1.models.Totals
Totals
p6
(dp7
S'_offensiveRebounds'
p8
g3
sS'_threePointsAttempted'
p9
g3
sS'_fieldGoalsPercentage'
p10
S'.416'
p11
sS'_assist'
p12
S'19'
p13
sS'_threePointsPercentage'
p14
g3
sS'_threePoints'
p15
g3
sS'_points'
p16
S'182'
p17
sS'_position'
p18
S'C'
p19
sS'_freeThrowsPercentage'
p20
S'.594'
p21
sS'_effectiveFieldGoalPercentage'
p22
S'.416'
p23
sS'_league'
p24
S'NBA'
p25
sS'_steals'
p26
g3
sS'_fieldGoalsAttempted'
p27
S'173'
p28
sS'_personalFouls'
p29
S'73'
p30
sS'_freeThrowsAttempted'
p31
S'64'
p32
sS'_totalRebounds'
p33
S'135'
p34
sS'_age'
p35
S'22'
p36
sS'_team'
p37
S'POR'
p38
sS'_games'
p39
S'22'
p40
sS'_blocks'
p41
g3
sS'_twoPoints'
p42
S'72'
p43
sS'_freeThrows'
p44
S'38'
p45
sS'_twoPointsAttempted'
p46
S'173'
p47
sS'_defensiveRebounds'
p48
g3
sS'_season'
p49
S'1971-72'
p50
sS'_fieldGoals'
p51
S'72'
p52
sS'_turnOvers'
p53
g3
sS'_twoPointsPercentage'
p54
S'.416'
p55
sS'_minutesPlayed'
p56
S'448'
p57
sS'_gamesStarted'
p58
g3
sba(isrc.gp1.models.Totals
Totals
p59
(dp60
g8
g3
sg9
g3
sg10
S'.600'
p61
sg12
S'1'
p62
sg14
g3
sg15
g3
sg16
S'23'
p63
sg18
g19
sg20
S'.625'
p64
sg22
S'.600'
p65
sg24
S'NBA'
p66
sg26
g3
sg27
S'15'
p67
sg29
S'8'
p68
sg31
g68
sg33
g68
sg35
S'23'
p69
sg37
S'POR'
p70
sg39
g68
sg41
g3
sg42
S'9'
p71
sg44
S'5'
p72
sg46
S'15'
p73
sg48
g3
sg49
S'1972-73'
p74
sg51
g71
sg53
g3
sg54
S'.600'
p75
sg56
S'43'
p76
sg58
g3
sbasS'_college'
p77
S'Syracuse University'
p78
sS'_toYear'
p79
S'1973'
p80
sS'_height'
p81
S'7-0'
p82
sS'_active'
p83
I00
sS'_shootingHand'
p84
VRight
p85
sS'_name'
p86
S'William Smith'
p87
sS'_per100Possessions'
p88
(lp89
sS'_advanced'
p90
(lp91
(isrc.gp1.models.Advanced
Advanced
p92
(dp93
S'_offensiveReboundPercentage'
p94
g3
sS'_turnOverPercentage'
p95
g3
sS'_winSharesPer48Minutes'
p96
S'-0.003'
p97
sS'_stealPercentage'
p98
g3
sS'_usagePercentage'
p99
g3
sS'_totalReboundsPercentage'
p100
S'14.2'
p101
sS'_defensiveBoxPlusMinus'
p102
g3
sg18
g19
sS'_valueOverReplacementPlayer'
p103
g3
sS'_trueShootingPercentage'
p104
S'.452'
p105
sS'_defensiveReboundPercentage'
p106
g3
sS'_freeThrowsAttempRate'
p107
S'.370'
p108
sS'_threePointsAttempRate'
p109
g3
sg24
S'NBA'
p110
sS'_offensiveBoxPlusMinues'
p111
g3
sS'_assistPercentage'
p112
S'5.9'
p113
sS'_defensiveWinShares'
p114
S'0.1'
p115
sg35
S'22'
p116
sg37
S'POR'
p117
sg39
S'22'
p118
sS'_blockPercentage'
p119
g3
sS'_playerEfficiencyRating'
p120
S'10.8'
p121
sS'_offensiveWinShares'
p122
S'-0.2'
p123
sg56
S'448'
p124
sS'_boxPlusMinus'
p125
g3
sg49
S'1971-72'
p126
sS'_winShares'
p127
S'0.0'
p128
sba(isrc.gp1.models.Advanced
Advanced
p129
(dp130
g94
g3
sg95
g3
sg96
S'.199'
p131
sg98
g3
sg99
g3
sg100
S'9.0'
p132
sg102
g3
sg18
g19
sg103
g3
sg104
S'.621'
p133
sg106
g3
sg107
S'.533'
p134
sg109
g3
sg24
S'NBA'
p135
sg111
g3
sg112
S'3.3'
p136
sg114
S'0.0'
p137
sg35
S'23'
p138
sg37
S'POR'
p139
sg39
g68
sg119
g3
sg120
S'15.5'
p140
sg122
S'0.2'
p141
sg56
S'43'
p142
sg125
g3
sg49
S'1972-73'
p143
sg127
S'0.2'
p144
sbasS'_per36Minutes'
p145
(lp146
(isrc.gp1.models.Per36Minutes
Per36Minutes
p147
(dp148
g8
g3
sg9
g3
sg10
S'.416'
p149
sg12
S'1.5'
p150
sg14
g3
sg15
g3
sg16
S'14.6'
p151
sg18
g19
sg20
S'.594'
p152
sg24
S'NBA'
p153
sg26
g3
sg27
S'13.9'
p154
sg29
S'5.9'
p155
sg31
S'5.1'
p156
sg33
S'10.8'
p157
sg35
S'22'
p158
sg37
S'POR'
p159
sg39
S'22'
p160
sg41
g3
sg42
S'5.8'
p161
sg44
S'3.1'
p162
sg46
S'13.9'
p163
sg48
g3
sg49
S'1971-72'
p164
sg51
S'5.8'
p165
sg53
g3
sg54
S'.416'
p166
sg56
S'448'
p167
sg58
g3
sba(isrc.gp1.models.Per36Minutes
Per36Minutes
p168
(dp169
g8
g3
sg9
g3
sg10
S'.600'
p170
sg12
S'0.8'
p171
sg14
g3
sg15
g3
sg16
S'19.3'
p172
sg18
g19
sg20
S'.625'
p173
sg24
S'NBA'
p174
sg26
g3
sg27
S'12.6'
p175
sg29
S'6.7'
p176
sg31
S'6.7'
p177
sg33
S'6.7'
p178
sg35
S'23'
p179
sg37
S'POR'
p180
sg39
g68
sg41
g3
sg42
S'7.5'
p181
sg44
S'4.2'
p182
sg46
S'12.6'
p183
sg48
g3
sg49
S'1972-73'
p184
sg51
S'7.5'
p185
sg53
g3
sg54
S'.600'
p186
sg56
S'43'
p187
sg58
g3
sbasS'_fromYear'
p188
S'1972'
p189
sS'_url'
p190
S'http://www.basketball-reference.com/players/s/smithwi01.html'
p191
sS'_perGame'
p192
(isrc.gp1.models.PerGame
PerGame
p193
(dp194
g8
g3
sg9
g3
sg10
S'.600'
p195
sS'_effectiveFieldGalPercentage'
p196
S'.600'
p197
sg12
S'0.1'
p198
sg14
g3
sg15
g3
sg16
S'2.9'
p199
sg18
g19
sg20
S'.625'
p200
sg24
S'NBA'
p201
sg26
g3
sg29
S'1.0'
p202
sS'_fieldGoalsttempted'
p203
S'1.9'
p204
sg31
S'1.0'
p205
sg33
S'1.0'
p206
sg35
S'23'
p207
sg37
S'POR'
p208
sg39
g68
sg41
g3
sg42
S'1.1'
p209
sg44
S'0.6'
p210
sg46
S'1.9'
p211
sg48
g3
sg49
S'1972-73'
p212
sg51
S'1.1'
p213
sg53
g3
sg54
S'.600'
p214
sg56
S'5.4'
p215
sg58
g3
sbsS'_weight'
p216
S'220'
p217
sS'_dob'
p218
S'14-2-1949'
p219
sS'_salary'
p220
(lp221
sg18
g19
sb.