(isrc.gp1.models.Player
Player
p0
(dp1
S'_experience'
p2
S'NA'
p3
sS'_totals'
p4
(lp5
(isrc.gp1.models.Totals
Totals
p6
(dp7
S'_offensiveRebounds'
p8
S'26'
p9
sS'_threePointsAttempted'
p10
S'2'
p11
sS'_fieldGoalsPercentage'
p12
S'.427'
p13
sS'_assist'
p14
S'45'
p15
sS'_threePointsPercentage'
p16
S'.000'
p17
sS'_threePoints'
p18
S'0'
p19
sS'_points'
p20
S'127'
p21
sS'_position'
p22
S'SG'
p23
sS'_freeThrowsPercentage'
p24
S'.750'
p25
sS'_effectiveFieldGoalPercentage'
p26
S'.427'
p27
sS'_league'
p28
S'NBA'
p29
sS'_steals'
p30
S'13'
p31
sS'_fieldGoalsAttempted'
p32
S'117'
p33
sS'_personalFouls'
p34
S'36'
p35
sS'_freeThrowsAttempted'
p36
S'36'
p37
sS'_totalRebounds'
p38
S'56'
p39
sS'_age'
p40
S'23'
p41
sS'_team'
p42
S'GSW'
p43
sS'_games'
p44
S'41'
p45
sS'_blocks'
p46
S'1'
p47
sS'_twoPoints'
p48
S'50'
p49
sS'_freeThrows'
p50
S'27'
p51
sS'_twoPointsAttempted'
p52
S'115'
p53
sS'_defensiveRebounds'
p54
S'30'
p55
sS'_season'
p56
S'1986-87'
p57
sS'_fieldGoals'
p58
S'50'
p59
sS'_turnOvers'
p60
S'26'
p61
sS'_twoPointsPercentage'
p62
S'.435'
p63
sS'_minutesPlayed'
p64
S'341'
p65
sS'_gamesStarted'
p66
g19
sba(isrc.gp1.models.Totals
Totals
p67
(dp68
g8
g3
sg10
g3
sg12
g3
sg14
g3
sg16
g3
sg18
g3
sg20
g3
sg22
g3
sg24
g3
sg26
g3
sg28
g3
sg30
g3
sg32
g3
sg34
g3
sg36
g3
sg38
g3
sg40
S'24'
p69
sg42
S'Did Not Play\xc2\xa0(other pro league\xe2\x80\x94CBA)'
p70
sg44
g3
sg46
g3
sg48
g3
sg50
g3
sg52
g3
sg54
g3
sg56
S'1987-88'
p71
sg58
g3
sg60
g3
sg62
g3
sg64
g3
sg66
g3
sba(isrc.gp1.models.Totals
Totals
p72
(dp73
g8
g3
sg10
g3
sg12
g3
sg14
g3
sg16
g3
sg18
g3
sg20
g3
sg22
g3
sg24
g3
sg26
g3
sg28
g3
sg30
g3
sg32
g3
sg34
g3
sg36
g3
sg38
g3
sg40
S'25'
p74
sg42
S'Did Not Play'
p75
sg44
g3
sg46
g3
sg48
g3
sg50
g3
sg52
g3
sg54
g3
sg56
S'1988-89'
p76
sg58
g3
sg60
g3
sg62
g3
sg64
g3
sg66
g3
sba(isrc.gp1.models.Totals
Totals
p77
(dp78
g8
g3
sg10
g3
sg12
g3
sg14
g3
sg16
g3
sg18
g3
sg20
g3
sg22
g3
sg24
g3
sg26
g3
sg28
g3
sg30
g3
sg32
g3
sg34
g3
sg36
g3
sg38
g3
sg40
S'26'
p79
sg42
S'Did Not Play\xc2\xa0(other pro league\xe2\x80\x94CBA)'
p80
sg44
g3
sg46
g3
sg48
g3
sg50
g3
sg52
g3
sg54
g3
sg56
S'1989-90'
p81
sg58
g3
sg60
g3
sg62
g3
sg64
g3
sg66
g3
sba(isrc.gp1.models.Totals
Totals
p82
(dp83
g8
g11
sg10
g19
sg12
S'.500'
p84
sg14
S'4'
p85
sg16
g3
sg18
g19
sg20
S'7'
p86
sg22
S'SG'
p87
sg24
S'.500'
p88
sg26
S'.500'
p89
sg28
S'NBA'
p90
sg30
g47
sg32
g85
sg34
S'3'
p91
sg36
S'6'
p92
sg38
g85
sg40
S'27'
p93
sg42
S'WSB'
p94
sg44
S'5'
p95
sg46
g19
sg48
g11
sg50
g91
sg52
g85
sg54
g11
sg56
S'1990-91'
p96
sg58
g11
sg60
g47
sg62
S'.500'
p97
sg64
S'45'
p98
sg66
g19
sbasS'_college'
p99
S'Cleveland State University'
p100
sS'_toYear'
p101
S'1991'
p102
sS'_height'
p103
S'6-6'
p104
sS'_active'
p105
I00
sS'_shootingHand'
p106
VRight
p107
sS'_name'
p108
S'Clinton Smith'
p109
sS'_per100Possessions'
p110
(lp111
(isrc.gp1.models.Per100Possession
Per100Possession
p112
(dp113
g8
S'3.6'
p114
sg10
S'0.3'
p115
sg12
S'.427'
p116
sS'_offensiveRating'
p117
S'101'
p118
sg14
S'6.2'
p119
sg16
S'.000'
p120
sg18
S'0.0'
p121
sg20
S'17.6'
p122
sg22
S'SG'
p123
sS'_defensiveRating'
p124
S'113'
p125
sg24
S'.750'
p126
sg28
S'NBA'
p127
sg30
S'1.8'
p128
sg32
S'16.2'
p129
sg34
S'5.0'
p130
sg36
S'5.0'
p131
sg38
S'7.8'
p132
sg40
S'23'
p133
sg42
S'GSW'
p134
sg44
S'41'
p135
sg46
S'0.1'
p136
sg48
S'6.9'
p137
sg50
S'3.7'
p138
sg52
S'15.9'
p139
sg54
S'4.2'
p140
sg56
S'1986-87'
p141
sg58
S'6.9'
p142
sg60
S'3.6'
p143
sg62
S'.435'
p144
sg64
S'341'
p145
sg66
g19
sba(isrc.gp1.models.Per100Possession
Per100Possession
p146
(dp147
g8
S'2.2'
p148
sg10
S'0.0'
p149
sg12
S'.500'
p150
sg117
S'116'
p151
sg14
S'4.4'
p152
sg16
g3
sg18
S'0.0'
p153
sg20
S'7.7'
p154
sg22
S'SG'
p155
sg124
S'113'
p156
sg24
S'.500'
p157
sg28
S'NBA'
p158
sg30
S'1.1'
p159
sg32
S'4.4'
p160
sg34
S'3.3'
p161
sg36
S'6.6'
p162
sg38
S'4.4'
p163
sg40
S'27'
p164
sg42
S'WSB'
p165
sg44
g95
sg46
S'0.0'
p166
sg48
S'2.2'
p167
sg50
S'3.3'
p168
sg52
S'4.4'
p169
sg54
S'2.2'
p170
sg56
S'1990-91'
p171
sg58
S'2.2'
p172
sg60
S'1.1'
p173
sg62
S'.500'
p174
sg64
S'45'
p175
sg66
g19
sbasS'_advanced'
p176
(lp177
(isrc.gp1.models.Advanced
Advanced
p178
(dp179
S'_offensiveReboundPercentage'
p180
S'8.3'
p181
sS'_turnOverPercentage'
p182
S'16.4'
p183
sS'_winSharesPer48Minutes'
p184
S'.032'
p185
sS'_stealPercentage'
p186
S'1.8'
p187
sS'_usagePercentage'
p188
S'18.8'
p189
sS'_totalReboundsPercentage'
p190
S'9.0'
p191
sS'_defensiveBoxPlusMinus'
p192
S'-1.0'
p193
sg22
S'SG'
p194
sS'_valueOverReplacementPlayer'
p195
S'-0.1'
p196
sS'_trueShootingPercentage'
p197
S'.478'
p198
sS'_defensiveReboundPercentage'
p199
S'9.7'
p200
sS'_freeThrowsAttempRate'
p201
S'.308'
p202
sS'_threePointsAttempRate'
p203
S'.017'
p204
sg28
S'NBA'
p205
sS'_offensiveBoxPlusMinues'
p206
S'-1.8'
p207
sS'_assistPercentage'
p208
S'17.7'
p209
sS'_defensiveWinShares'
p210
S'0.2'
p211
sg40
S'23'
p212
sg42
S'GSW'
p213
sg44
S'41'
p214
sS'_blockPercentage'
p215
S'0.2'
p216
sS'_playerEfficiencyRating'
p217
S'11.5'
p218
sS'_offensiveWinShares'
p219
S'0.0'
p220
sg64
S'341'
p221
sS'_boxPlusMinus'
p222
S'-2.8'
p223
sg56
S'1986-87'
p224
sS'_winShares'
p225
S'0.2'
p226
sba(isrc.gp1.models.Advanced
Advanced
p227
(dp228
g180
S'4.8'
p229
sg182
S'13.1'
p230
sg184
S'.061'
p231
sg186
S'1.1'
p232
sg188
S'7.1'
p233
sg190
S'4.9'
p234
sg192
S'-1.1'
p235
sg22
S'SG'
p236
sg195
S'0.0'
p237
sg197
S'.527'
p238
sg199
S'4.9'
p239
sg201
S'1.500'
p240
sg203
S'.000'
p241
sg28
S'NBA'
p242
sg206
S'-3.4'
p243
sg208
S'11.0'
p244
sg210
S'0.0'
p245
sg40
S'27'
p246
sg42
S'WSB'
p247
sg44
g95
sg215
S'0.0'
p248
sg217
S'7.2'
p249
sg219
S'0.0'
p250
sg64
S'45'
p251
sg222
S'-4.5'
p252
sg56
S'1990-91'
p253
sg225
S'0.1'
p254
sbasS'_per36Minutes'
p255
(lp256
(isrc.gp1.models.Per36Minutes
Per36Minutes
p257
(dp258
g8
S'2.7'
p259
sg10
S'0.2'
p260
sg12
S'.427'
p261
sg14
S'4.8'
p262
sg16
S'.000'
p263
sg18
S'0.0'
p264
sg20
S'13.4'
p265
sg22
S'SG'
p266
sg24
S'.750'
p267
sg28
S'NBA'
p268
sg30
S'1.4'
p269
sg32
S'12.4'
p270
sg34
S'3.8'
p271
sg36
S'3.8'
p272
sg38
S'5.9'
p273
sg40
S'23'
p274
sg42
S'GSW'
p275
sg44
S'41'
p276
sg46
S'0.1'
p277
sg48
S'5.3'
p278
sg50
S'2.9'
p279
sg52
S'12.1'
p280
sg54
S'3.2'
p281
sg56
S'1986-87'
p282
sg58
S'5.3'
p283
sg60
S'2.7'
p284
sg62
S'.435'
p285
sg64
S'341'
p286
sg66
g19
sba(isrc.gp1.models.Per36Minutes
Per36Minutes
p287
(dp288
g8
S'1.6'
p289
sg10
S'0.0'
p290
sg12
S'.500'
p291
sg14
S'3.2'
p292
sg16
g3
sg18
S'0.0'
p293
sg20
S'5.6'
p294
sg22
S'SG'
p295
sg24
S'.500'
p296
sg28
S'NBA'
p297
sg30
S'0.8'
p298
sg32
S'3.2'
p299
sg34
S'2.4'
p300
sg36
S'4.8'
p301
sg38
S'3.2'
p302
sg40
S'27'
p303
sg42
S'WSB'
p304
sg44
g95
sg46
S'0.0'
p305
sg48
S'1.6'
p306
sg50
S'2.4'
p307
sg52
S'3.2'
p308
sg54
S'1.6'
p309
sg56
S'1990-91'
p310
sg58
S'1.6'
p311
sg60
S'0.8'
p312
sg62
S'.500'
p313
sg64
S'45'
p314
sg66
g19
sbasS'_fromYear'
p315
S'1987'
p316
sS'_url'
p317
S'http://www.basketball-reference.com/players/s/smithcl01.html'
p318
sS'_perGame'
p319
(isrc.gp1.models.PerGame
PerGame
p320
(dp321
g8
S'0.4'
p322
sg10
S'0.0'
p323
sg12
S'.500'
p324
sS'_effectiveFieldGalPercentage'
p325
S'.500'
p326
sg14
S'0.8'
p327
sg16
g3
sg18
S'0.0'
p328
sg20
S'1.4'
p329
sg22
S'SG'
p330
sg24
S'.500'
p331
sg28
S'NBA'
p332
sg30
S'0.2'
p333
sg34
S'0.6'
p334
sS'_fieldGoalsttempted'
p335
S'0.8'
p336
sg36
S'1.2'
p337
sg38
S'0.8'
p338
sg40
S'27'
p339
sg42
S'WSB'
p340
sg44
g95
sg46
S'0.0'
p341
sg48
S'0.4'
p342
sg50
S'0.6'
p343
sg52
S'0.8'
p344
sg54
S'0.4'
p345
sg56
S'1990-91'
p346
sg58
S'0.4'
p347
sg60
S'0.2'
p348
sg62
S'.500'
p349
sg64
S'9.0'
p350
sg66
g19
sbsS'_weight'
p351
S'210'
p352
sS'_dob'
p353
S'19-1-1964'
p354
sS'_salary'
p355
(lp356
sg22
S'F'
p357
sb.