(isrc.gp1.models.Player
Player
p0
(dp1
S'_experience'
p2
V2
p3
sS'_totals'
p4
(lp5
(isrc.gp1.models.Totals
Totals
p6
(dp7
S'_offensiveRebounds'
p8
S'7'
p9
sS'_threePointsAttempted'
p10
S'0'
p11
sS'_fieldGoalsPercentage'
p12
S'.200'
p13
sS'_assist'
p14
S'2'
p15
sS'_threePointsPercentage'
p16
S'3'
p17
sS'_threePoints'
p18
g11
sS'_points'
p19
S'NA'
p20
sS'_position'
p21
S'C'
p22
sS'_freeThrowsPercentage'
p23
g9
sS'_effectiveFieldGoalPercentage'
p24
g11
sS'_league'
p25
S'NBA'
p26
sS'_steals'
p27
g15
sS'_fieldGoalsAttempted'
p28
S'15'
p29
sS'_personalFouls'
p30
S'6'
p31
sS'_freeThrowsAttempted'
p32
S'.000'
p33
sS'_totalRebounds'
p34
g15
sS'_age'
p35
S'22'
p36
sS'_team'
p37
S'TOR'
p38
sS'_games'
p39
S'12'
p40
sS'_blocks'
p41
g17
sS'_twoPoints'
p42
S'15'
p43
sS'_freeThrows'
p44
g15
sS'_twoPointsAttempted'
p45
S'.200'
p46
sS'_defensiveRebounds'
p47
S'14'
p48
sS'_season'
p49
S'2010-11'
p50
sS'_fieldGoals'
p51
g17
sS'_turnOvers'
p52
S'5'
p53
sS'_twoPointsPercentage'
p54
S'.200'
p55
sS'_minutesPlayed'
p56
S'59'
p57
sS'_gamesStarted'
p58
g11
sba(isrc.gp1.models.Totals
Totals
p59
(dp60
g8
S'32'
p61
sg10
g11
sg12
S'.361'
p62
sg14
g15
sg16
S'13'
p63
sg18
g11
sg19
g20
sg21
g22
sg23
S'15'
p64
sg24
g9
sg25
S'NBA'
p65
sg27
S'9'
p66
sg28
S'36'
p67
sg30
S'33'
p68
sg32
S'.875'
p69
sg34
g17
sg35
S'23'
p70
sg37
S'TOR'
p71
sg39
S'14'
p72
sg41
g53
sg42
S'36'
p73
sg44
S'8'
p74
sg45
S'.361'
p75
sg47
S'47'
p76
sg49
S'2011-12'
p77
sg51
S'13'
p78
sg52
S'11'
p79
sg54
S'.361'
p80
sg56
S'122'
p81
sg58
g11
sbasS'_college'
p82
S'Florida State University'
p83
sS'_toYear'
p84
S'2012'
p85
sS'_height'
p86
S'7-1'
p87
sS'_active'
p88
I01
sS'_shootingHand'
p89
VRight
p90
sS'_name'
p91
S'Solomon Alabi'
p92
sS'_per100Possessions'
p93
(lp94
(isrc.gp1.models.Per100Possession
Per100Possession
p95
(dp96
g8
S'6.1'
p97
sg10
S'0.0'
p98
sg12
S'.200'
p99
sS'_offensiveRating'
p100
S'112'
p101
sg14
S'1.8'
p102
sg16
S'2.6'
p103
sg18
S'0.0'
p104
sg19
S'61'
p105
sg21
g22
sS'_defensiveRating'
p106
g20
sg23
S'6.1'
p107
sg25
S'NBA'
p108
sg27
S'1.8'
p109
sg28
S'13.1'
p110
sg30
S'5.3'
p111
sg32
S'.000'
p112
sg34
S'1.8'
p113
sg35
S'22'
p114
sg37
S'TOR'
p115
sg39
S'12'
p116
sg41
S'2.6'
p117
sg42
S'13.1'
p118
sg44
S'1.8'
p119
sg45
S'.200'
p120
sg47
S'12.3'
p121
sg49
S'2010-11'
p122
sg51
S'2.6'
p123
sg52
S'4.4'
p124
sg54
S'0.0'
p125
sg56
S'59'
p126
sg58
g11
sba(isrc.gp1.models.Per100Possession
Per100Possession
p127
(dp128
g8
S'14.1'
p129
sg10
S'0.0'
p130
sg12
S'.361'
p131
sg100
S'98'
p132
sg14
S'0.9'
p133
sg16
S'5.7'
p134
sg18
S'0.0'
p135
sg19
S'95'
p136
sg21
g22
sg106
g20
sg23
S'6.6'
p137
sg25
S'NBA'
p138
sg27
S'4.0'
p139
sg28
S'15.9'
p140
sg30
S'14.5'
p141
sg32
S'.875'
p142
sg34
S'1.3'
p143
sg35
S'23'
p144
sg37
S'TOR'
p145
sg39
S'14'
p146
sg41
S'2.2'
p147
sg42
S'15.9'
p148
sg44
S'3.5'
p149
sg45
S'.361'
p150
sg47
S'20.7'
p151
sg49
S'2011-12'
p152
sg51
S'5.7'
p153
sg52
S'4.8'
p154
sg54
S'3.1'
p155
sg56
S'122'
p156
sg58
g11
sbasS'_advanced'
p157
(lp158
(isrc.gp1.models.Advanced
Advanced
p159
(dp160
S'_offensiveReboundPercentage'
p161
S'13.7'
p162
sS'_turnOverPercentage'
p163
S'15.9'
p164
sS'_winSharesPer48Minutes'
p165
S'-0.142'
p166
sS'_stealPercentage'
p167
S'1.8'
p168
sS'_usagePercentage'
p169
S'14.3'
p170
sS'_totalReboundsPercentage'
p171
S'14.1'
p172
sS'_defensiveBoxPlusMinus'
p173
S'0.0'
p174
sg21
g22
sS'_valueOverReplacementPlayer'
p175
S'-0.1'
p176
sS'_trueShootingPercentage'
p177
S'.189'
p178
sS'_defensiveReboundPercentage'
p179
S'14.4'
p180
sS'_freeThrowsAttempRate'
p181
S'.133'
p182
sS'_threePointsAttempRate'
p183
S'.000'
p184
sg25
S'NBA'
p185
sS'_offensiveBoxPlusMinues'
p186
S'-8.2'
p187
sS'_assistPercentage'
p188
S'4.6'
p189
sS'_defensiveWinShares'
p190
S'0.0'
p191
sg35
S'22'
p192
sg37
S'TOR'
p193
sg39
S'12'
p194
sS'_blockPercentage'
p195
S'2.6'
p196
sS'_playerEfficiencyRating'
p197
S'2.0'
p198
sS'_offensiveWinShares'
p199
S'-0.2'
p200
sg56
S'59'
p201
sS'_boxPlusMinus'
p202
S'-8.2'
p203
sg49
S'2010-11'
p204
sS'_winShares'
p205
S'-0.2'
p206
sba(isrc.gp1.models.Advanced
Advanced
p207
(dp208
g161
S'14.6'
p209
sg163
S'11.2'
p210
sg165
S'.083'
p211
sg167
S'0.9'
p212
sg169
S'17.2'
p213
sg171
S'22.6'
p214
sg173
S'1.5'
p215
sg21
g22
sg175
S'-0.1'
p216
sg177
S'.418'
p217
sg179
S'30.4'
p218
sg181
S'.222'
p219
sg183
S'.000'
p220
sg25
S'NBA'
p221
sg186
S'-5.6'
p222
sg188
S'4.1'
p223
sg190
S'0.2'
p224
sg35
S'23'
p225
sg37
S'TOR'
p226
sg39
S'14'
p227
sg195
S'6.0'
p228
sg197
S'14.2'
p229
sg199
S'0.0'
p230
sg56
S'122'
p231
sg202
S'-4.1'
p232
sg49
S'2011-12'
p233
sg205
S'0.2'
p234
sbasS'_per36Minutes'
p235
(lp236
(isrc.gp1.models.Per36Minutes
Per36Minutes
p237
(dp238
g8
S'4.3'
p239
sg10
S'0.0'
p240
sg12
S'.200'
p241
sg14
S'1.2'
p242
sg16
S'1.8'
p243
sg18
S'0.0'
p244
sg19
g20
sg21
g22
sg23
S'4.3'
p245
sg25
S'NBA'
p246
sg27
S'1.2'
p247
sg28
S'9.2'
p248
sg30
S'3.7'
p249
sg32
S'.000'
p250
sg34
S'1.2'
p251
sg35
S'22'
p252
sg37
S'TOR'
p253
sg39
S'12'
p254
sg41
S'1.8'
p255
sg42
S'9.2'
p256
sg44
S'1.2'
p257
sg45
S'.200'
p258
sg47
S'8.5'
p259
sg49
S'2010-11'
p260
sg51
S'1.8'
p261
sg52
S'3.1'
p262
sg54
S'0.0'
p263
sg56
S'59'
p264
sg58
g11
sba(isrc.gp1.models.Per36Minutes
Per36Minutes
p265
(dp266
g8
S'9.4'
p267
sg10
S'0.0'
p268
sg12
S'.361'
p269
sg14
S'0.6'
p270
sg16
S'3.8'
p271
sg18
S'0.0'
p272
sg19
g20
sg21
g22
sg23
S'4.4'
p273
sg25
S'NBA'
p274
sg27
S'2.7'
p275
sg28
S'10.6'
p276
sg30
S'9.7'
p277
sg32
S'.875'
p278
sg34
S'0.9'
p279
sg35
S'23'
p280
sg37
S'TOR'
p281
sg39
S'14'
p282
sg41
S'1.5'
p283
sg42
S'10.6'
p284
sg44
S'2.4'
p285
sg45
S'.361'
p286
sg47
S'13.9'
p287
sg49
S'2011-12'
p288
sg51
S'3.8'
p289
sg52
S'3.2'
p290
sg54
S'2.1'
p291
sg56
S'122'
p292
sg58
g11
sbasS'_fromYear'
p293
S'2011'
p294
sS'_url'
p295
S'http://www.basketball-reference.com/players/a/alabiso01.html'
p296
sS'_perGame'
p297
(isrc.gp1.models.PerGame
PerGame
p298
(dp299
g8
S'2.3'
p300
sg10
S'0.0'
p301
sg12
S'.361'
p302
sS'_effectiveFieldGalPercentage'
p303
S'0.5'
p304
sg14
S'0.1'
p305
sg16
S'0.9'
p306
sg18
S'0.0'
p307
sg19
g20
sg21
g22
sg23
S'1.1'
p308
sg25
S'NBA'
p309
sg27
S'0.6'
p310
sg30
S'2.4'
p311
sS'_fieldGoalsttempted'
p312
S'2.6'
p313
sg32
S'.875'
p314
sg34
S'0.2'
p315
sg35
S'23'
p316
sg37
S'TOR'
p317
sg39
S'14'
p318
sg41
S'0.4'
p319
sg42
S'2.6'
p320
sg44
S'0.6'
p321
sg45
S'.361'
p322
sg47
S'3.4'
p323
sg49
S'2011-12'
p324
sg51
S'0.9'
p325
sg52
S'0.8'
p326
sg54
S'.361'
p327
sg56
S'8.7'
p328
sg58
g11
sbsS'_weight'
p329
S'251'
p330
sS'_dob'
p331
S'21-3-1988'
p332
sS'_salary'
p333
(lp334
(isrc.gp1.models.Salary
Salary
p335
(dp336
g37
S'Toronto Raptors'
p337
sg25
S'NBA'
p338
sg333
S'$770,000'
p339
sg49
S'2010-11'
p340
sba(isrc.gp1.models.Salary
Salary
p341
(dp342
g37
S'Toronto Raptors'
p343
sg25
S'NBA'
p344
sg333
S'$830,000'
p345
sg49
S'2011-12'
p346
sbasg21
g22
sb.