(isrc.gp1.models.Player
Player
p0
(dp1
S'_experience'
p2
S'NA'
p3
sS'_totals'
p4
(lp5
(isrc.gp1.models.Totals
Totals
p6
(dp7
S'_offensiveRebounds'
p8
S'1104'
p9
sS'_threePointsAttempted'
p10
S'.000'
p11
sS'_fieldGoalsPercentage'
p12
S'0'
p13
sS'_assist'
p14
S'253'
p15
sS'_threePointsPercentage'
p16
S'986'
p17
sS'_threePoints'
p18
S'11'
p19
sS'_points'
p20
g3
sS'_position'
p21
S'PF'
p22
sS'_freeThrowsPercentage'
p23
S'533'
p24
sS'_effectiveFieldGoalPercentage'
p25
S'547'
p26
sS'_league'
p27
S'ABA'
p28
sS'_steals'
p29
S'221'
p30
sS'_fieldGoalsAttempted'
p31
S'.493'
p32
sS'_personalFouls'
p33
g3
sS'_freeThrowsAttempted'
p34
S'.776'
p35
sS'_totalRebounds'
p36
S'190'
p37
sS'_age'
p38
S'20'
p39
sS'_team'
p40
S'DNR'
p41
sS'_games'
p42
S'84'
p43
sS'_blocks'
p44
S'2519'
p45
sS'_twoPoints'
p46
S'1987'
p47
sS'_freeThrows'
p48
S'705'
p49
sS'_twoPointsAttempted'
p50
S'.496'
p51
sS'_defensiveRebounds'
p52
S'1637'
p53
sS'_season'
p54
S'1969-70'
p55
sS'_fieldGoals'
p56
S'1998'
p57
sS'_turnOvers'
p58
g3
sS'_twoPointsPercentage'
p59
S'.493'
p60
sS'_minutesPlayed'
p61
S'986'
p62
sS'_gamesStarted'
p63
S'3808'
p64
sba(isrc.gp1.models.Totals
Totals
p65
(dp66
g8
g3
sg10
S'.449'
p67
sg12
S'260'
p68
sg14
g3
sg16
S'.449'
p69
sg18
S'579'
p70
sg20
g3
sg21
S'PF'
p71
sg23
S'680'
p72
sg25
S'396'
p73
sg27
S'NBA'
p74
sg29
g3
sg31
S'.449'
p75
sg33
g3
sg34
S'84'
p76
sg36
g3
sg38
S'21'
p77
sg40
S'SEA'
p78
sg42
S'33'
p79
sg44
g3
sg46
S'160'
p80
sg48
S'48'
p81
sg50
S'218'
p82
sg52
g3
sg54
S'1970-71'
p83
sg56
S'579'
p84
sg58
g3
sg59
S'.734'
p85
sg61
S'260'
p86
sg63
S'1162'
p87
sba(isrc.gp1.models.Totals
Totals
p88
(dp89
g8
g3
sg10
S'.461'
p90
sg12
S'717'
p91
sg14
g3
sg16
S'.461'
p92
sg18
S'1557'
p93
sg20
g3
sg21
S'PF'
p94
sg23
S'1914'
p95
sg25
S'926'
p96
sg27
S'NBA'
p97
sg29
g3
sg31
S'.461'
p98
sg33
g3
sg34
S'208'
p99
sg36
g3
sg38
S'22'
p100
sg40
S'SEA'
p101
sg42
S'73'
p102
sg44
g3
sg46
S'480'
p103
sg48
S'148'
p104
sg50
S'586'
p105
sg52
g3
sg54
S'1971-72'
p106
sg56
S'1557'
p107
sg58
g3
sg59
S'.819'
p108
sg61
S'717'
p109
sg63
S'3167'
p110
sba(isrc.gp1.models.Totals
Totals
p111
(dp112
g8
g3
sg10
S'.476'
p113
sg12
S'889'
p114
sg14
g3
sg16
S'.476'
p115
sg18
S'1868'
p116
sg20
g3
sg21
S'PF'
p117
sg23
S'2251'
p118
sg25
S'995'
p119
sg27
S'NBA'
p120
sg29
g3
sg31
S'.476'
p121
sg33
g3
sg34
S'213'
p122
sg36
g3
sg38
S'23'
p123
sg40
S'SEA'
p124
sg42
S'77'
p125
sg44
g3
sg46
S'473'
p126
sg48
S'196'
p127
sg50
S'564'
p128
sg52
g3
sg54
S'1972-73'
p129
sg56
S'1868'
p130
sg58
g3
sg59
S'.839'
p131
sg61
S'889'
p132
sg63
S'3259'
p133
sba(isrc.gp1.models.Totals
Totals
p134
(dp135
g8
S'65'
p136
sg10
S'.457'
p137
sg12
S'694'
p138
sg14
S'1761'
p139
sg16
S'.457'
p140
sg18
S'1520'
p141
sg20
g3
sg21
S'PF'
p142
sg23
S'240'
p143
sg25
S'318'
p144
sg27
S'NBA'
p145
sg29
g3
sg31
S'.457'
p146
sg33
g3
sg34
S'1007'
p147
sg36
S'198'
p148
sg38
S'24'
p149
sg40
S'SEA'
p150
sg42
S'75'
p151
sg44
g3
sg46
S'373'
p152
sg48
S'689'
p153
sg50
S'458'
p154
sg52
S'106'
p155
sg54
S'1973-74'
p156
sg56
S'1520'
p157
sg58
g3
sg59
S'.814'
p158
sg61
S'694'
p159
sg63
S'3039'
p160
sba(isrc.gp1.models.Totals
Totals
p161
(dp162
g8
S'54'
p163
sg10
S'.459'
p164
sg12
S'608'
p165
sg14
S'1525'
p166
sg16
S'.459'
p167
sg18
S'1325'
p168
sg20
g3
sg21
S'PF'
p169
sg23
S'137'
p170
sg25
S'198'
p171
sg27
S'NBA'
p172
sg29
g3
sg31
S'.459'
p173
sg33
g3
sg34
S'630'
p174
sg36
S'173'
p175
sg38
S'25'
p176
sg40
S'SEA'
p177
sg42
S'68'
p178
sg44
g3
sg46
S'309'
p179
sg48
S'432'
p180
sg50
S'381'
p181
sg52
S'108'
p182
sg54
S'1974-75'
p183
sg56
S'1325'
p184
sg58
g3
sg59
S'.811'
p185
sg61
S'608'
p186
sg63
S'2529'
p187
sba(isrc.gp1.models.Totals
Totals
p188
(dp189
g8
S'53'
p190
sg10
S'.445'
p191
sg12
S'605'
p192
sg14
S'1549'
p193
sg16
S'.445'
p194
sg18
S'1360'
p195
sg20
g3
sg21
S'PF'
p196
sg23
S'92'
p197
sg25
S'234'
p198
sg27
S'NBA'
p199
sg29
g3
sg31
S'.445'
p200
sg33
g3
sg34
S'878'
p201
sg36
S'255'
p202
sg38
S'26'
p203
sg40
S'NYK'
p204
sg42
S'78'
p205
sg44
g3
sg46
S'339'
p206
sg48
S'644'
p207
sg50
S'448'
p208
sg52
S'80'
p209
sg54
S'1975-76'
p210
sg56
S'1360'
p211
sg58
g3
sg59
S'.757'
p212
sg61
S'605'
p213
sg63
S'2892'
p214
sba(isrc.gp1.models.Totals
Totals
p215
(dp216
g8
S'14'
p217
sg10
S'.450'
p218
sg12
S'202'
p219
sg14
S'513'
p220
sg16
S'.450'
p221
sg18
S'449'
p222
sg20
g3
sg21
S'PF'
p223
sg23
S'50'
p224
sg25
S'77'
p225
sg27
S'NBA'
p226
sg29
g3
sg31
S'.450'
p227
sg33
g3
sg34
S'280'
p228
sg36
S'72'
p229
sg38
S'27'
p230
sg40
S'NYK'
p231
sg42
S'31'
p232
sg44
g3
sg46
S'109'
p233
sg48
S'203'
p234
sg50
S'131'
p235
sg52
S'29'
p236
sg54
S'1976-77'
p237
sg56
S'449'
p238
sg58
g3
sg59
S'.832'
p239
sg61
S'202'
p240
sg63
S'1021'
p241
sba(isrc.gp1.models.Totals
Totals
p242
(dp243
g8
S'37'
p244
sg10
S'.484'
p245
sg12
S'412'
p246
sg14
S'188'
p247
sg16
S'.484'
p248
sg18
S'852'
p249
sg20
g3
sg21
S'PF'
p250
sg23
S'126'
p251
sg25
S'141'
p252
sg27
S'NBA'
p253
sg29
S'920'
p254
sg31
S'.484'
p255
sg33
g3
sg34
S'442'
p256
sg36
S'140'
p257
sg38
S'28'
p258
sg40
S'NYK'
p259
sg42
S'67'
p260
sg44
g3
sg46
S'96'
p261
sg48
S'301'
p262
sg50
S'135'
p263
sg52
S'72'
p264
sg54
S'1977-78'
p265
sg56
S'852'
p266
sg58
g3
sg59
S'.711'
p267
sg61
S'412'
p268
sg63
S'1765'
p269
sba(isrc.gp1.models.Totals
Totals
p270
(dp271
g8
S'40'
p272
sg10
S'.494'
p273
sg12
S'595'
p274
sg14
S'236'
p275
sg16
S'.494'
p276
sg18
S'1205'
p277
sg20
g3
sg21
S'PF'
p278
sg23
S'127'
p279
sg25
S'172'
p280
sg27
S'NBA'
p281
sg29
S'1421'
p282
sg31
S'.494'
p283
sg33
g3
sg34
S'533'
p284
sg36
S'200'
p285
sg38
S'29'
p286
sg40
S'TOT'
p287
sg42
S'68'
p288
sg44
g3
sg46
S'231'
p289
sg48
S'361'
p290
sg50
S'292'
p291
sg52
S'82'
p292
sg54
S'1978-79'
p293
sg56
S'1205'
p294
sg58
g3
sg59
S'.791'
p295
sg61
S'595'
p296
sg63
S'2361'
p297
sba(isrc.gp1.models.Totals
Totals
p298
(dp299
g8
S'10'
p300
sg10
S'.489'
p301
sg12
S'249'
p302
sg14
S'108'
p303
sg16
S'.489'
p304
sg18
S'509'
p305
sg20
g3
sg21
S'PF'
p306
sg23
S'56'
p307
sg25
S'66'
p308
sg27
S'NBA'
p309
sg29
S'605'
p310
sg31
S'.489'
p311
sg33
g3
sg34
S'206'
p312
sg36
S'87'
p313
sg38
S'29'
p314
sg40
S'NYK'
p315
sg42
S'34'
p316
sg44
g3
sg46
S'107'
p317
sg48
S'140'
p318
sg50
S'146'
p319
sg52
S'29'
p320
sg54
S'1978-79'
p321
sg56
S'509'
p322
sg58
g3
sg59
S'.733'
p323
sg61
S'249'
p324
sg63
S'1023'
p325
sba(isrc.gp1.models.Totals
Totals
p326
(dp327
g8
S'30'
p328
sg10
S'.497'
p329
sg12
S'346'
p330
sg14
S'128'
p331
sg16
S'.497'
p332
sg18
S'696'
p333
sg20
g3
sg21
S'PF'
p334
sg23
S'71'
p335
sg25
S'106'
p336
sg27
S'NBA'
p337
sg29
S'816'
p338
sg31
S'.497'
p339
sg33
g3
sg34
S'327'
p340
sg36
S'113'
p341
sg38
S'29'
p342
sg40
S'NOJ'
p343
sg42
S'34'
p344
sg44
g3
sg46
S'124'
p345
sg48
S'221'
p346
sg50
S'146'
p347
sg52
S'53'
p348
sg54
S'1978-79'
p349
sg56
S'696'
p350
sg58
g3
sg59
S'.849'
p351
sg61
S'346'
p352
sg63
S'1338'
p353
sba(isrc.gp1.models.Totals
Totals
p354
(dp355
g8
S'214'
p356
sg10
S'.250'
p357
sg12
S'1'
p358
sg14
S'35'
p359
sg16
S'287'
p360
sg18
S'4'
p361
sg20
g3
sg21
S'PF'
p362
sg23
S'132'
p363
sg25
S'159'
p364
sg27
S'NBA'
p365
sg29
S'57'
p366
sg31
S'.487'
p367
sg33
S'736'
p368
sg34
S'.772'
p369
sg36
S'93'
p370
sg38
S'30'
p371
sg40
S'LAL'
p372
sg42
S'76'
p373
sg44
S'134'
p374
sg46
S'587'
p375
sg48
S'206'
p376
sg50
S'.489'
p377
sg52
S'346'
p378
sg54
S'1979-80'
p379
sg56
S'591'
p380
sg58
S'197'
p381
sg59
S'.488'
p382
sg61
S'288'
p383
sg63
S'1544'
p384
sba(isrc.gp1.models.Totals
Totals
p385
(dp386
g8
g3
sg10
g3
sg12
g3
sg14
g3
sg16
g3
sg18
g3
sg20
g3
sg21
g3
sg23
g3
sg25
g3
sg27
g3
sg29
g3
sg31
g3
sg33
g3
sg34
g3
sg36
g3
sg38
S'31'
p387
sg40
S'Did Not Play\xc2\xa0(other pro league\xe2\x80\x94Italy)'
p388
sg42
g3
sg44
g3
sg46
g3
sg48
g3
sg50
g3
sg52
g3
sg54
S'1980-81'
p389
sg56
g3
sg58
g3
sg59
g3
sg61
g3
sg63
g3
sba(isrc.gp1.models.Totals
Totals
p390
(dp391
g8
S'144'
p392
sg10
S'3'
p393
sg12
S'.476'
p394
sg14
S'64'
p395
sg16
S'.000'
p396
sg18
g13
sg20
S'1009'
p397
sg21
S'PF'
p398
sg23
S'.842'
p399
sg25
S'.476'
p400
sg27
S'NBA'
p401
sg29
S'45'
p402
sg31
S'829'
p403
sg33
S'249'
p404
sg34
S'260'
p405
sg36
S'422'
p406
sg38
S'32'
p407
sg40
S'WSB'
p408
sg42
S'76'
p409
sg44
S'68'
p410
sg46
S'395'
p411
sg48
S'219'
p412
sg50
S'826'
p413
sg52
S'278'
p414
sg54
S'1981-82'
p415
sg56
S'395'
p416
sg58
S'175'
p417
sg59
S'.478'
p418
sg61
S'2086'
p419
sg63
S'63'
p420
sba(isrc.gp1.models.Totals
Totals
p421
(dp422
g8
S'77'
p423
sg10
g358
sg12
S'.401'
p424
sg14
S'30'
p425
sg16
S'.000'
p426
sg18
g13
sg20
S'313'
p427
sg21
S'PF'
p428
sg23
S'.724'
p429
sg25
S'.401'
p430
sg27
S'NBA'
p431
sg29
S'12'
p432
sg31
S'312'
p433
sg33
S'94'
p434
sg34
S'87'
p435
sg36
S'183'
p436
sg38
S'33'
p437
sg40
S'WSB'
p438
sg42
S'38'
p439
sg44
S'27'
p440
sg46
S'125'
p441
sg48
S'63'
p442
sg50
S'311'
p443
sg52
S'106'
p444
sg54
S'1982-83'
p445
sg56
S'125'
p446
sg58
S'67'
p447
sg59
S'.402'
p448
sg61
S'775'
p449
sg63
S'25'
p450
sbasS'_college'
p451
S'University of Detroit Mercy'
p452
sS'_toYear'
p453
S'1983'
p454
sS'_height'
p455
S'6-8'
p456
sS'_active'
p457
I00
sS'_shootingHand'
p458
VRight
p459
sS'_name'
p460
S'Spencer Haywood'
p461
sS'_per100Possessions'
p462
(lp463
(isrc.gp1.models.Per100Possession
Per100Possession
p464
(dp465
g8
S'0.9'
p466
sg10
S'.457'
p467
sg12
S'9.9'
p468
sS'_offensiveRating'
p469
g3
sg14
S'25.2'
p470
sg16
S'5.3'
p471
sg18
S'21.8'
p472
sg20
g3
sg21
S'PF'
p473
sS'_defensiveRating'
p474
g3
sg23
S'3.4'
p475
sg27
S'NBA'
p476
sg29
S'97'
p477
sg31
S'.457'
p478
sg33
g3
sg34
S'14.4'
p479
sg36
S'2.8'
p480
sg38
S'24'
p481
sg40
S'SEA'
p482
sg42
S'75'
p483
sg44
g3
sg46
S'6.6'
p484
sg48
S'9.9'
p485
sg50
S'.814'
p486
sg52
S'1.5'
p487
sg54
S'1973-74'
p488
sg56
S'21.8'
p489
sg58
g3
sg59
S'4.6'
p490
sg61
S'9.9'
p491
sg63
S'3039'
p492
sba(isrc.gp1.models.Per100Possession
Per100Possession
p493
(dp494
g8
S'1.0'
p495
sg10
S'.459'
p496
sg12
S'10.9'
p497
sg469
g3
sg14
S'27.4'
p498
sg16
S'5.6'
p499
sg18
S'23.8'
p500
sg20
g3
sg21
S'PF'
p501
sg474
g3
sg23
S'2.5'
p502
sg27
S'NBA'
p503
sg29
S'98'
p504
sg31
S'.459'
p505
sg33
g3
sg34
S'11.3'
p506
sg36
S'3.1'
p507
sg38
S'25'
p508
sg40
S'SEA'
p509
sg42
S'68'
p510
sg44
g3
sg46
S'6.9'
p511
sg48
S'7.8'
p512
sg50
S'.811'
p513
sg52
S'1.9'
p514
sg54
S'1974-75'
p515
sg56
S'23.8'
p516
sg58
g3
sg59
S'3.6'
p517
sg61
S'10.9'
p518
sg63
S'2529'
p519
sba(isrc.gp1.models.Per100Possession
Per100Possession
p520
(dp521
g8
S'0.8'
p522
sg10
S'.445'
p523
sg12
S'9.6'
p524
sg469
g3
sg14
S'24.7'
p525
sg16
S'5.4'
p526
sg18
S'21.7'
p527
sg20
g3
sg21
S'PF'
p528
sg474
g3
sg23
S'1.5'
p529
sg27
S'NBA'
p530
sg29
S'97'
p531
sg31
S'.445'
p532
sg33
g3
sg34
S'14.0'
p533
sg36
S'4.1'
p534
sg38
S'26'
p535
sg40
S'NYK'
p536
sg42
S'78'
p537
sg44
g3
sg46
S'7.1'
p538
sg48
S'10.3'
p539
sg50
S'.757'
p540
sg52
S'1.3'
p541
sg54
S'1975-76'
p542
sg56
S'21.7'
p543
sg58
g3
sg59
S'3.7'
p544
sg61
S'9.6'
p545
sg63
S'2892'
p546
sba(isrc.gp1.models.Per100Possession
Per100Possession
p547
(dp548
g8
S'0.6'
p549
sg10
S'.450'
p550
sg12
S'8.8'
p551
sg469
g3
sg14
S'22.3'
p552
sg16
S'4.7'
p553
sg18
S'19.5'
p554
sg20
g3
sg21
S'PF'
p555
sg474
g3
sg23
S'2.2'
p556
sg27
S'NBA'
p557
sg29
S'100'
p558
sg31
S'.450'
p559
sg33
g3
sg34
S'12.2'
p560
sg36
S'3.1'
p561
sg38
S'27'
p562
sg40
S'NYK'
p563
sg42
S'31'
p564
sg44
g3
sg46
S'5.7'
p565
sg48
S'8.8'
p566
sg50
S'.832'
p567
sg52
S'1.3'
p568
sg54
S'1976-77'
p569
sg56
S'19.5'
p570
sg58
g3
sg59
S'3.3'
p571
sg61
S'8.8'
p572
sg63
S'1021'
p573
sba(isrc.gp1.models.Per100Possession
Per100Possession
p574
(dp575
g8
S'0.9'
p576
sg10
S'.484'
p577
sg12
S'10.2'
p578
sg469
g3
sg14
S'4.7'
p579
sg16
S'2.4'
p580
sg18
S'21.1'
p581
sg20
g3
sg21
S'PF'
p582
sg474
g3
sg23
S'3.1'
p583
sg27
S'NBA'
p584
sg29
S'22.8'
p585
sg31
S'.484'
p586
sg33
g3
sg34
S'11.0'
p587
sg36
S'3.5'
p588
sg38
S'28'
p589
sg40
S'NYK'
p590
sg42
S'67'
p591
sg44
S'99'
p592
sg46
S'3.3'
p593
sg48
S'7.5'
p594
sg50
S'.711'
p595
sg52
S'1.8'
p596
sg54
S'1977-78'
p597
sg56
S'21.1'
p598
sg58
S'102'
p599
sg59
S'3.5'
p600
sg61
S'10.2'
p601
sg63
S'1765'
p602
sba(isrc.gp1.models.Per100Possession
Per100Possession
p603
(dp604
g8
S'0.8'
p605
sg10
S'.494'
p606
sg12
S'11.3'
p607
sg469
g3
sg14
S'4.5'
p608
sg16
S'4.4'
p609
sg18
S'22.9'
p610
sg20
g3
sg21
S'PF'
p611
sg474
g3
sg23
S'2.4'
p612
sg27
S'NBA'
p613
sg29
S'27.0'
p614
sg31
S'.494'
p615
sg33
g3
sg34
S'10.1'
p616
sg36
S'3.8'
p617
sg38
S'29'
p618
sg40
S'TOT'
p619
sg42
S'68'
p620
sg44
S'103'
p621
sg46
S'5.5'
p622
sg48
S'6.9'
p623
sg50
S'.791'
p624
sg52
S'1.6'
p625
sg54
S'1978-79'
p626
sg56
S'22.9'
p627
sg58
S'106'
p628
sg59
S'3.3'
p629
sg61
S'11.3'
p630
sg63
S'2361'
p631
sba(isrc.gp1.models.Per100Possession
Per100Possession
p632
(dp633
g8
S'0.4'
p634
sg10
S'.489'
p635
sg12
S'11.1'
p636
sg469
g3
sg14
S'4.8'
p637
sg16
S'4.8'
p638
sg18
S'22.8'
p639
sg20
g3
sg21
S'PF'
p640
sg474
g3
sg23
S'2.5'
p641
sg27
S'NBA'
p642
sg29
S'27.1'
p643
sg31
S'.489'
p644
sg33
g3
sg34
S'9.2'
p645
sg36
S'3.9'
p646
sg38
S'29'
p647
sg40
S'NYK'
p648
sg42
S'34'
p649
sg44
S'102'
p650
sg46
S'6.5'
p651
sg48
S'6.3'
p652
sg50
S'.733'
p653
sg52
S'1.3'
p654
sg54
S'1978-79'
p655
sg56
S'22.8'
p656
sg58
S'107'
p657
sg59
S'3.0'
p658
sg61
S'11.1'
p659
sg63
S'1023'
p660
sba(isrc.gp1.models.Per100Possession
Per100Possession
p661
(dp662
g8
S'1.0'
p663
sg10
S'.497'
p664
sg12
S'11.4'
p665
sg469
g3
sg14
S'4.2'
p666
sg16
S'4.1'
p667
sg18
S'23.0'
p668
sg20
g3
sg21
S'PF'
p669
sg474
g3
sg23
S'2.3'
p670
sg27
S'NBA'
p671
sg29
S'27.0'
p672
sg31
S'.497'
p673
sg33
g3
sg34
S'10.8'
p674
sg36
S'3.7'
p675
sg38
S'29'
p676
sg40
S'NOJ'
p677
sg42
S'34'
p678
sg44
S'103'
p679
sg46
S'4.8'
p680
sg48
S'7.3'
p681
sg50
S'.849'
p682
sg52
S'1.8'
p683
sg54
S'1978-79'
p684
sg56
S'23.0'
p685
sg58
S'105'
p686
sg59
S'3.5'
p687
sg61
S'11.4'
p688
sg63
S'1338'
p689
sba(isrc.gp1.models.Per100Possession
Per100Possession
p690
(dp691
g8
S'6.4'
p692
sg10
S'.250'
p693
sg12
S'0.0'
p694
sg469
S'105'
p695
sg14
S'1.0'
p696
sg16
S'8.6'
p697
sg18
S'0.1'
p698
sg20
S'104'
p699
sg21
S'PF'
p700
sg474
g3
sg23
S'3.9'
p701
sg27
S'NBA'
p702
sg29
S'1.7'
p703
sg31
S'.487'
p704
sg33
S'22.0'
p705
sg34
S'.772'
p706
sg36
S'2.8'
p707
sg38
S'30'
p708
sg40
S'LAL'
p709
sg42
S'76'
p710
sg44
S'4.0'
p711
sg46
S'17.5'
p712
sg48
S'6.2'
p713
sg50
S'.489'
p714
sg52
S'10.3'
p715
sg54
S'1979-80'
p716
sg56
S'17.7'
p717
sg58
S'5.9'
p718
sg59
S'4.7'
p719
sg61
S'8.6'
p720
sg63
S'1544'
p721
sba(isrc.gp1.models.Per100Possession
Per100Possession
p722
(dp723
g8
S'3.3'
p724
sg10
S'0.1'
p725
sg12
S'.476'
p726
sg469
S'100'
p727
sg14
S'1.5'
p728
sg16
S'.000'
p729
sg18
S'0.0'
p730
sg20
S'23.4'
p731
sg21
S'PF'
p732
sg474
S'103'
p733
sg23
S'.842'
p734
sg27
S'NBA'
p735
sg29
S'1.0'
p736
sg31
S'19.2'
p737
sg33
S'5.8'
p738
sg34
S'6.0'
p739
sg36
S'9.8'
p740
sg38
S'32'
p741
sg40
S'WSB'
p742
sg42
S'76'
p743
sg44
S'1.6'
p744
sg46
S'9.1'
p745
sg48
S'5.1'
p746
sg50
S'19.1'
p747
sg52
S'6.4'
p748
sg54
S'1981-82'
p749
sg56
S'9.1'
p750
sg58
S'4.1'
p751
sg59
S'.478'
p752
sg61
S'2086'
p753
sg63
S'63'
p754
sba(isrc.gp1.models.Per100Possession
Per100Possession
p755
(dp756
g8
S'4.8'
p757
sg10
S'0.1'
p758
sg12
S'.401'
p759
sg469
S'89'
p760
sg14
S'1.9'
p761
sg16
S'.000'
p762
sg18
S'0.0'
p763
sg20
S'19.5'
p764
sg21
S'PF'
p765
sg474
S'100'
p766
sg23
S'.724'
p767
sg27
S'NBA'
p768
sg29
S'0.7'
p769
sg31
S'19.4'
p770
sg33
S'5.9'
p771
sg34
S'5.4'
p772
sg36
S'11.4'
p773
sg38
S'33'
p774
sg40
S'WSB'
p775
sg42
S'38'
p776
sg44
S'1.7'
p777
sg46
S'7.8'
p778
sg48
S'3.9'
p779
sg50
S'19.4'
p780
sg52
S'6.6'
p781
sg54
S'1982-83'
p782
sg56
S'7.8'
p783
sg58
S'4.2'
p784
sg59
S'.402'
p785
sg61
S'775'
p786
sg63
S'25'
p787
sbasS'_advanced'
p788
(lp789
(isrc.gp1.models.Advanced
Advanced
p790
(dp791
S'_offensiveReboundPercentage'
p792
S'18.8'
p793
sS'_turnOverPercentage'
p794
S'17.1'
p795
sS'_winSharesPer48Minutes'
p796
g3
sS'_stealPercentage'
p797
S'9.6'
p798
sS'_usagePercentage'
p799
S'.216'
p800
sS'_totalReboundsPercentage'
p801
S'9.9'
p802
sS'_defensiveBoxPlusMinus'
p803
g3
sg21
S'PF'
p804
sS'_valueOverReplacementPlayer'
p805
g3
sS'_trueShootingPercentage'
p806
S'.546'
p807
sS'_defensiveReboundPercentage'
p808
S'7.6'
p809
sS'_freeThrowsAttempRate'
p810
S'.353'
p811
sS'_threePointsAttempRate'
p812
S'.006'
p813
sg27
S'ABA'
p814
sS'_offensiveBoxPlusMinues'
p815
g3
sS'_assistPercentage'
p816
S'24.9'
p817
sS'_defensiveWinShares'
p818
g3
sg38
S'20'
p819
sg40
S'DNR'
p820
sg42
S'84'
p821
sS'_blockPercentage'
p822
S'7.5'
p823
sS'_playerEfficiencyRating'
p824
S'28.0'
p825
sS'_offensiveWinShares'
p826
g3
sg61
S'3808'
p827
sS'_boxPlusMinus'
p828
g3
sg54
S'1969-70'
p829
sS'_winShares'
p830
g3
sba(isrc.gp1.models.Advanced
Advanced
p831
(dp832
g792
S'5.9'
p833
sg794
g3
sg796
g3
sg797
S'.091'
p834
sg799
g3
sg801
S'0.7'
p835
sg803
g3
sg21
S'PF'
p836
sg805
g3
sg806
S'.504'
p837
sg808
S'1.5'
p838
sg810
S'15.6'
p839
sg812
S'.377'
p840
sg27
S'NBA'
p841
sg815
g3
sg816
S'2.2'
p842
sg818
g3
sg38
S'21'
p843
sg40
S'SEA'
p844
sg42
S'33'
p845
sg822
g3
sg824
S'18.0'
p846
sg826
g3
sg61
S'1162'
p847
sg828
g3
sg54
S'1970-71'
p848
sg830
g3
sba(isrc.gp1.models.Advanced
Advanced
p849
(dp850
g792
S'7.2'
p851
sg794
g3
sg796
g3
sg797
S'.131'
p852
sg799
g3
sg801
S'2.4'
p853
sg803
g3
sg21
S'PF'
p854
sg805
g3
sg806
S'.527'
p855
sg808
S'6.3'
p856
sg810
S'13.9'
p857
sg812
S'.376'
p858
sg27
S'NBA'
p859
sg815
g3
sg816
S'8.7'
p860
sg818
g3
sg38
S'22'
p861
sg40
S'SEA'
p862
sg42
S'73'
p863
sg822
g3
sg824
S'19.7'
p864
sg826
g3
sg61
S'3167'
p865
sg828
g3
sg54
S'1971-72'
p866
sg830
g3
sba(isrc.gp1.models.Advanced
Advanced
p867
(dp868
g792
S'10.0'
p869
sg794
g3
sg796
g3
sg797
S'.150'
p870
sg799
g3
sg801
S'1.4'
p871
sg803
g3
sg21
S'PF'
p872
sg805
g3
sg806
S'.532'
p873
sg808
S'8.8'
p874
sg810
S'14.5'
p875
sg812
S'.302'
p876
sg27
S'NBA'
p877
sg815
g3
sg816
S'10.2'
p878
sg818
g3
sg38
S'23'
p879
sg40
S'SEA'
p880
sg42
S'77'
p881
sg822
g3
sg824
S'22.7'
p882
sg826
g3
sg61
S'3259'
p883
sg828
g3
sg54
S'1972-73'
p884
sg830
g3
sba(isrc.gp1.models.Advanced
Advanced
p885
(dp886
g792
S'23.1'
p887
sg794
S'3.5'
p888
sg796
S'2.6'
p889
sg797
S'1.8'
p890
sg799
S'9.7'
p891
sg801
S'11.6'
p892
sg803
g3
sg21
S'PF'
p893
sg805
g3
sg806
S'.511'
p894
sg808
S'16.1'
p895
sg810
S'9.7'
p896
sg812
S'.301'
p897
sg27
S'NBA'
p898
sg815
S'3.5'
p899
sg816
S'0.9'
p900
sg818
S'2.2'
p901
sg38
S'24'
p902
sg40
S'SEA'
p903
sg42
S'75'
p904
sg822
S'6.2'
p905
sg824
S'19.4'
p906
sg826
S'.153'
p907
sg61
S'3039'
p908
sg828
g3
sg54
S'1973-74'
p909
sg830
S'0.4'
p910
sba(isrc.gp1.models.Advanced
Advanced
p911
(dp912
g792
S'17.6'
p913
sg794
S'2.6'
p914
sg796
S'0.6'
p915
sg797
S'2.2'
p916
sg799
S'7.3'
p917
sg801
S'8.5'
p918
sg803
g3
sg21
S'PF'
p919
sg805
g3
sg806
S'.511'
p920
sg808
S'12.8'
p921
sg810
S'8.0'
p922
sg812
S'.288'
p923
sg27
S'NBA'
p924
sg815
S'1.6'
p925
sg816
S'1.0'
p926
sg818
S'1.3'
p927
sg38
S'25'
p928
sg40
S'SEA'
p929
sg42
S'68'
p930
sg822
S'4.6'
p931
sg824
S'19.0'
p932
sg826
S'.138'
p933
sg61
S'2529'
p934
sg828
g3
sg54
S'1974-75'
p935
sg830
S'-0.7'
p936
sba(isrc.gp1.models.Advanced
Advanced
p937
(dp938
g792
S'23.3'
p939
sg794
S'3.4'
p940
sg796
S'-1.6'
p941
sg797
S'1.5'
p942
sg799
S'6.8'
p943
sg801
S'4.8'
p944
sg803
g3
sg21
S'PF'
p945
sg805
g3
sg806
S'.497'
p946
sg808
S'15.6'
p947
sg810
S'8.2'
p948
sg812
S'.329'
p949
sg27
S'NBA'
p950
sg815
S'0.3'
p951
sg816
S'0.8'
p952
sg818
S'-0.4'
p953
sg38
S'26'
p954
sg40
S'NYK'
p955
sg42
S'78'
p956
sg822
S'3.5'
p957
sg824
S'17.2'
p958
sg826
S'.114'
p959
sg61
S'2892'
p960
sg828
g3
sg54
S'1975-76'
p961
sg830
S'-1.2'
p962
sba(isrc.gp1.models.Advanced
Advanced
p963
(dp964
g792
S'20.4'
p965
sg794
S'1.0'
p966
sg796
S'-1.9'
p967
sg797
S'1.5'
p968
sg799
S'2.1'
p969
sg801
S'6.7'
p970
sg803
g3
sg21
S'PF'
p971
sg805
g3
sg806
S'.506'
p972
sg808
S'14.4'
p973
sg810
S'8.1'
p974
sg812
S'.292'
p975
sg27
S'NBA'
p976
sg815
S'0.0'
p977
sg816
S'0.6'
p978
sg818
S'-1.1'
p979
sg38
S'27'
p980
sg40
S'NYK'
p981
sg42
S'31'
p982
sg822
S'1.1'
p983
sg824
S'15.6'
p984
sg826
S'.096'
p985
sg61
S'1021'
p986
sg828
g3
sg54
S'1976-77'
p987
sg830
S'-0.8'
p988
sba(isrc.gp1.models.Advanced
Advanced
p989
(dp990
g792
S'17.3'
p991
sg794
S'22.6'
p992
sg796
S'-0.5'
p993
sg797
S'2.1'
p994
sg799
S'1.5'
p995
sg801
S'9.9'
p996
sg803
S'-1.2'
p997
sg21
S'PF'
p998
sg805
g3
sg806
S'.505'
p999
sg808
S'12.9'
p1000
sg810
S'8.4'
p1001
sg812
S'.158'
p1002
sg27
S'NBA'
p1003
sg815
S'-0.7'
p1004
sg816
S'0.9'
p1005
sg818
S'3.1'
p1006
sg38
S'28'
p1007
sg40
S'NYK'
p1008
sg42
S'67'
p1009
sg822
S'13.3'
p1010
sg824
S'15.7'
p1011
sg826
S'1.5'
p1012
sg61
S'1765'
p1013
sg828
S'0.3'
p1014
sg54
S'1977-78'
p1015
sg830
S'.083'
p1016
sba(isrc.gp1.models.Advanced
Advanced
p1017
(dp1018
g792
S'15.3'
p1019
sg794
S'25.1'
p1020
sg796
S'0.0'
p1021
sg797
S'1.8'
p1022
sg799
S'2.5'
p1023
sg801
S'8.2'
p1024
sg803
S'-1.4'
p1025
sg21
S'PF'
p1026
sg805
g3
sg806
S'.533'
p1027
sg808
S'11.5'
p1028
sg810
S'7.5'
p1029
sg812
S'.242'
p1030
sg27
S'NBA'
p1031
sg815
S'-1.4'
p1032
sg816
S'0.8'
p1033
sg818
S'4.3'
p1034
sg38
S'29'
p1035
sg40
S'TOT'
p1036
sg42
S'68'
p1037
sg822
S'13.0'
p1038
sg824
S'16.8'
p1039
sg826
S'1.8'
p1040
sg61
S'2361'
p1041
sg828
S'0.3'
p1042
sg54
S'1978-79'
p1043
sg830
S'.087'
p1044
sba(isrc.gp1.models.Advanced
Advanced
p1045
(dp1046
g792
S'14.8'
p1047
sg794
S'25.3'
p1048
sg796
S'-0.7'
p1049
sg797
S'1.5'
p1050
sg799
S'1.0'
p1051
sg801
S'8.0'
p1052
sg803
S'-2.8'
p1053
sg21
S'PF'
p1054
sg805
g3
sg806
S'.528'
p1055
sg808
S'10.8'
p1056
sg810
S'6.9'
p1057
sg812
S'.287'
p1058
sg27
S'NBA'
p1059
sg815
S'-2.1'
p1060
sg816
S'0.4'
p1061
sg818
S'1.6'
p1062
sg38
S'29'
p1063
sg40
S'NYK'
p1064
sg42
S'34'
p1065
sg822
S'13.2'
p1066
sg824
S'15.6'
p1067
sg826
S'0.7'
p1068
sg61
S'1023'
p1069
sg828
S'-0.2'
p1070
sg54
S'1978-79'
p1071
sg830
S'.077'
p1072
sba(isrc.gp1.models.Advanced
Advanced
p1073
(dp1074
g792
S'15.6'
p1075
sg794
S'24.9'
p1076
sg796
S'0.5'
p1077
sg797
S'1.9'
p1078
sg799
S'1.5'
p1079
sg801
S'8.4'
p1080
sg803
S'-0.4'
p1081
sg21
S'PF'
p1082
sg805
g3
sg806
S'.537'
p1083
sg808
S'11.9'
p1084
sg810
S'8.0'
p1085
sg812
S'.210'
p1086
sg27
S'NBA'
p1087
sg815
S'-0.9'
p1088
sg816
S'1.0'
p1089
sg818
S'2.7'
p1090
sg38
S'29'
p1091
sg40
S'NOJ'
p1092
sg42
S'34'
p1093
sg822
S'12.9'
p1094
sg824
S'17.7'
p1095
sg826
S'1.2'
p1096
sg61
S'1338'
p1097
sg828
S'0.6'
p1098
sg54
S'1978-79'
p1099
sg830
S'.096'
p1100
sba(isrc.gp1.models.Advanced
Advanced
p1101
(dp1102
g792
S'10.2'
p1103
sg794
S'16.4'
p1104
sg796
S'.095'
p1105
sg797
S'1.0'
p1106
sg799
S'21.2'
p1107
sg801
S'12.2'
p1108
sg803
S'-1.1'
p1109
sg21
S'PF'
p1110
sg805
S'-0.2'
p1111
sg806
S'.540'
p1112
sg808
S'13.9'
p1113
sg810
S'.349'
p1114
sg812
S'.007'
p1115
sg27
S'NBA'
p1116
sg815
S'-1.3'
p1117
sg816
S'7.6'
p1118
sg818
S'1.7'
p1119
sg38
S'30'
p1120
sg40
S'LAL'
p1121
sg42
S'76'
p1122
sg822
S'1.9'
p1123
sg824
S'13.9'
p1124
sg826
S'1.4'
p1125
sg61
S'1544'
p1126
sg828
S'-2.4'
p1127
sg54
S'1979-80'
p1128
sg830
S'3.1'
p1129
sba(isrc.gp1.models.Advanced
Advanced
p1130
(dp1131
g792
S'7.7'
p1132
sg794
S'15.6'
p1133
sg796
S'.083'
p1134
sg797
S'1.0'
p1135
sg799
S'22.4'
p1136
sg801
S'11.1'
p1137
sg803
S'0.3'
p1138
sg21
S'PF'
p1139
sg805
S'0.1'
p1140
sg806
S'.535'
p1141
sg808
S'14.3'
p1142
sg810
S'.314'
p1143
sg812
S'.004'
p1144
sg27
S'NBA'
p1145
sg815
S'-2.2'
p1146
sg816
S'4.6'
p1147
sg818
S'3.2'
p1148
sg38
S'32'
p1149
sg40
S'WSB'
p1150
sg42
S'76'
p1151
sg822
S'1.8'
p1152
sg824
S'13.2'
p1153
sg826
S'0.4'
p1154
sg61
S'2086'
p1155
sg828
S'-1.9'
p1156
sg54
S'1981-82'
p1157
sg830
S'3.6'
p1158
sba(isrc.gp1.models.Advanced
Advanced
p1159
(dp1160
g792
S'10.9'
p1161
sg794
S'16.1'
p1162
sg796
S'.025'
p1163
sg797
S'0.7'
p1164
sg799
S'22.3'
p1165
sg801
S'13.1'
p1166
sg803
S'0.0'
p1167
sg21
S'PF'
p1168
sg805
S'-0.5'
p1169
sg806
S'.447'
p1170
sg808
S'15.3'
p1171
sg810
S'.279'
p1172
sg812
S'.003'
p1173
sg27
S'NBA'
p1174
sg815
S'-4.5'
p1175
sg816
S'5.7'
p1176
sg818
S'1.2'
p1177
sg38
S'33'
p1178
sg40
S'WSB'
p1179
sg42
S'38'
p1180
sg822
S'2.0'
p1181
sg824
S'10.0'
p1182
sg826
S'-0.8'
p1183
sg61
S'775'
p1184
sg828
S'-4.6'
p1185
sg54
S'1982-83'
p1186
sg830
S'0.4'
p1187
sbasS'_per36Minutes'
p1188
(lp1189
(isrc.gp1.models.Per36Minutes
Per36Minutes
p1190
(dp1191
g8
S'10.4'
p1192
sg10
S'.000'
p1193
sg12
S'0.0'
p1194
sg14
S'2.4'
p1195
sg16
S'9.3'
p1196
sg18
S'0.1'
p1197
sg20
g3
sg21
S'PF'
p1198
sg23
S'5.0'
p1199
sg27
S'ABA'
p1200
sg29
S'2.1'
p1201
sg31
S'.493'
p1202
sg33
g3
sg34
S'.776'
p1203
sg36
S'1.8'
p1204
sg38
S'20'
p1205
sg40
S'DNR'
p1206
sg42
S'84'
p1207
sg44
S'23.8'
p1208
sg46
S'18.8'
p1209
sg48
S'6.7'
p1210
sg50
S'.496'
p1211
sg52
S'15.5'
p1212
sg54
S'1969-70'
p1213
sg56
S'18.9'
p1214
sg58
g3
sg59
S'5.2'
p1215
sg61
S'9.3'
p1216
sg63
S'3808'
p1217
sba(isrc.gp1.models.Per36Minutes
Per36Minutes
p1218
(dp1219
g8
g3
sg10
S'.449'
p1220
sg12
S'8.1'
p1221
sg14
g3
sg16
S'5.0'
p1222
sg18
S'17.9'
p1223
sg20
g3
sg21
S'PF'
p1224
sg23
S'21.1'
p1225
sg27
S'NBA'
p1226
sg29
g3
sg31
S'.449'
p1227
sg33
g3
sg34
S'2.6'
p1228
sg36
g3
sg38
S'21'
p1229
sg40
S'SEA'
p1230
sg42
S'33'
p1231
sg44
g3
sg46
S'6.8'
p1232
sg48
S'1.5'
p1233
sg50
S'.734'
p1234
sg52
g3
sg54
S'1970-71'
p1235
sg56
S'17.9'
p1236
sg58
g3
sg59
S'12.3'
p1237
sg61
S'8.1'
p1238
sg63
S'1162'
p1239
sba(isrc.gp1.models.Per36Minutes
Per36Minutes
p1240
(dp1241
g8
g3
sg10
S'.461'
p1242
sg12
S'8.2'
p1243
sg14
g3
sg16
S'5.5'
p1244
sg18
S'17.7'
p1245
sg20
g3
sg21
S'PF'
p1246
sg23
S'21.8'
p1247
sg27
S'NBA'
p1248
sg29
g3
sg31
S'.461'
p1249
sg33
g3
sg34
S'2.4'
p1250
sg36
g3
sg38
S'22'
p1251
sg40
S'SEA'
p1252
sg42
S'73'
p1253
sg44
g3
sg46
S'6.7'
p1254
sg48
S'1.7'
p1255
sg50
S'.819'
p1256
sg52
g3
sg54
S'1971-72'
p1257
sg56
S'17.7'
p1258
sg58
g3
sg59
S'10.5'
p1259
sg61
S'8.2'
p1260
sg63
S'3167'
p1261
sba(isrc.gp1.models.Per36Minutes
Per36Minutes
p1262
(dp1263
g8
g3
sg10
S'.476'
p1264
sg12
S'9.8'
p1265
sg14
g3
sg16
S'5.2'
p1266
sg18
S'20.6'
p1267
sg20
g3
sg21
S'PF'
p1268
sg23
S'24.9'
p1269
sg27
S'NBA'
p1270
sg29
g3
sg31
S'.476'
p1271
sg33
g3
sg34
S'2.4'
p1272
sg36
g3
sg38
S'23'
p1273
sg40
S'SEA'
p1274
sg42
S'77'
p1275
sg44
g3
sg46
S'6.2'
p1276
sg48
S'2.2'
p1277
sg50
S'.839'
p1278
sg52
g3
sg54
S'1972-73'
p1279
sg56
S'20.6'
p1280
sg58
g3
sg59
S'11.0'
p1281
sg61
S'9.8'
p1282
sg63
S'3259'
p1283
sba(isrc.gp1.models.Per36Minutes
Per36Minutes
p1284
(dp1285
g8
S'0.8'
p1286
sg10
S'.457'
p1287
sg12
S'8.2'
p1288
sg14
S'20.9'
p1289
sg16
S'4.4'
p1290
sg18
S'18.0'
p1291
sg20
g3
sg21
S'PF'
p1292
sg23
S'2.8'
p1293
sg27
S'NBA'
p1294
sg29
g3
sg31
S'.457'
p1295
sg33
g3
sg34
S'11.9'
p1296
sg36
S'2.3'
p1297
sg38
S'24'
p1298
sg40
S'SEA'
p1299
sg42
S'75'
p1300
sg44
g3
sg46
S'5.4'
p1301
sg48
S'8.2'
p1302
sg50
S'.814'
p1303
sg52
S'1.3'
p1304
sg54
S'1973-74'
p1305
sg56
S'18.0'
p1306
sg58
g3
sg59
S'3.8'
p1307
sg61
S'8.2'
p1308
sg63
S'3039'
p1309
sba(isrc.gp1.models.Per36Minutes
Per36Minutes
p1310
(dp1311
g8
S'0.8'
p1312
sg10
S'.459'
p1313
sg12
S'8.7'
p1314
sg14
S'21.7'
p1315
sg16
S'4.4'
p1316
sg18
S'18.9'
p1317
sg20
g3
sg21
S'PF'
p1318
sg23
S'2.0'
p1319
sg27
S'NBA'
p1320
sg29
g3
sg31
S'.459'
p1321
sg33
g3
sg34
S'9.0'
p1322
sg36
S'2.5'
p1323
sg38
S'25'
p1324
sg40
S'SEA'
p1325
sg42
S'68'
p1326
sg44
g3
sg46
S'5.4'
p1327
sg48
S'6.1'
p1328
sg50
S'.811'
p1329
sg52
S'1.5'
p1330
sg54
S'1974-75'
p1331
sg56
S'18.9'
p1332
sg58
g3
sg59
S'2.8'
p1333
sg61
S'8.7'
p1334
sg63
S'2529'
p1335
sba(isrc.gp1.models.Per36Minutes
Per36Minutes
p1336
(dp1337
g8
S'0.7'
p1338
sg10
S'.445'
p1339
sg12
S'7.5'
p1340
sg14
S'19.3'
p1341
sg16
S'4.2'
p1342
sg18
S'16.9'
p1343
sg20
g3
sg21
S'PF'
p1344
sg23
S'1.1'
p1345
sg27
S'NBA'
p1346
sg29
g3
sg31
S'.445'
p1347
sg33
g3
sg34
S'10.9'
p1348
sg36
S'3.2'
p1349
sg38
S'26'
p1350
sg40
S'NYK'
p1351
sg42
S'78'
p1352
sg44
g3
sg46
S'5.6'
p1353
sg48
S'8.0'
p1354
sg50
S'.757'
p1355
sg52
S'1.0'
p1356
sg54
S'1975-76'
p1357
sg56
S'16.9'
p1358
sg58
g3
sg59
S'2.9'
p1359
sg61
S'7.5'
p1360
sg63
S'2892'
p1361
sba(isrc.gp1.models.Per36Minutes
Per36Minutes
p1362
(dp1363
g8
S'0.5'
p1364
sg10
S'.450'
p1365
sg12
S'7.1'
p1366
sg14
S'18.1'
p1367
sg16
S'3.8'
p1368
sg18
S'15.8'
p1369
sg20
g3
sg21
S'PF'
p1370
sg23
S'1.8'
p1371
sg27
S'NBA'
p1372
sg29
g3
sg31
S'.450'
p1373
sg33
g3
sg34
S'9.9'
p1374
sg36
S'2.5'
p1375
sg38
S'27'
p1376
sg40
S'NYK'
p1377
sg42
S'31'
p1378
sg44
g3
sg46
S'4.6'
p1379
sg48
S'7.2'
p1380
sg50
S'.832'
p1381
sg52
S'1.0'
p1382
sg54
S'1976-77'
p1383
sg56
S'15.8'
p1384
sg58
g3
sg59
S'2.7'
p1385
sg61
S'7.1'
p1386
sg63
S'1021'
p1387
sba(isrc.gp1.models.Per36Minutes
Per36Minutes
p1388
(dp1389
g8
S'0.8'
p1390
sg10
S'.484'
p1391
sg12
S'8.4'
p1392
sg14
S'3.8'
p1393
sg16
S'2.0'
p1394
sg18
S'17.4'
p1395
sg20
g3
sg21
S'PF'
p1396
sg23
S'2.6'
p1397
sg27
S'NBA'
p1398
sg29
S'18.8'
p1399
sg31
S'.484'
p1400
sg33
g3
sg34
S'9.0'
p1401
sg36
S'2.9'
p1402
sg38
S'28'
p1403
sg40
S'NYK'
p1404
sg42
S'67'
p1405
sg44
g3
sg46
S'2.8'
p1406
sg48
S'6.1'
p1407
sg50
S'.711'
p1408
sg52
S'1.5'
p1409
sg54
S'1977-78'
p1410
sg56
S'17.4'
p1411
sg58
g3
sg59
S'2.9'
p1412
sg61
S'8.4'
p1413
sg63
S'1765'
p1414
sba(isrc.gp1.models.Per36Minutes
Per36Minutes
p1415
(dp1416
g8
S'0.6'
p1417
sg10
S'.494'
p1418
sg12
S'9.1'
p1419
sg14
S'3.6'
p1420
sg16
S'3.5'
p1421
sg18
S'18.4'
p1422
sg20
g3
sg21
S'PF'
p1423
sg23
S'1.9'
p1424
sg27
S'NBA'
p1425
sg29
S'21.7'
p1426
sg31
S'.494'
p1427
sg33
g3
sg34
S'8.1'
p1428
sg36
S'3.0'
p1429
sg38
S'29'
p1430
sg40
S'TOT'
p1431
sg42
S'68'
p1432
sg44
g3
sg46
S'4.5'
p1433
sg48
S'5.5'
p1434
sg50
S'.791'
p1435
sg52
S'1.3'
p1436
sg54
S'1978-79'
p1437
sg56
S'18.4'
p1438
sg58
g3
sg59
S'2.6'
p1439
sg61
S'9.1'
p1440
sg63
S'2361'
p1441
sba(isrc.gp1.models.Per36Minutes
Per36Minutes
p1442
(dp1443
g8
S'0.4'
p1444
sg10
S'.489'
p1445
sg12
S'8.8'
p1446
sg14
S'3.8'
p1447
sg16
S'3.8'
p1448
sg18
S'17.9'
p1449
sg20
g3
sg21
S'PF'
p1450
sg23
S'2.0'
p1451
sg27
S'NBA'
p1452
sg29
S'21.3'
p1453
sg31
S'.489'
p1454
sg33
g3
sg34
S'7.2'
p1455
sg36
S'3.1'
p1456
sg38
S'29'
p1457
sg40
S'NYK'
p1458
sg42
S'34'
p1459
sg44
g3
sg46
S'5.1'
p1460
sg48
S'4.9'
p1461
sg50
S'.733'
p1462
sg52
S'1.0'
p1463
sg54
S'1978-79'
p1464
sg56
S'17.9'
p1465
sg58
g3
sg59
S'2.3'
p1466
sg61
S'8.8'
p1467
sg63
S'1023'
p1468
sba(isrc.gp1.models.Per36Minutes
Per36Minutes
p1469
(dp1470
g8
S'0.8'
p1471
sg10
S'.497'
p1472
sg12
S'9.3'
p1473
sg14
S'3.4'
p1474
sg16
S'3.3'
p1475
sg18
S'18.7'
p1476
sg20
g3
sg21
S'PF'
p1477
sg23
S'1.9'
p1478
sg27
S'NBA'
p1479
sg29
S'22.0'
p1480
sg31
S'.497'
p1481
sg33
g3
sg34
S'8.8'
p1482
sg36
S'3.0'
p1483
sg38
S'29'
p1484
sg40
S'NOJ'
p1485
sg42
S'34'
p1486
sg44
g3
sg46
S'3.9'
p1487
sg48
S'5.9'
p1488
sg50
S'.849'
p1489
sg52
S'1.4'
p1490
sg54
S'1978-79'
p1491
sg56
S'18.7'
p1492
sg58
g3
sg59
S'2.9'
p1493
sg61
S'9.3'
p1494
sg63
S'1338'
p1495
sba(isrc.gp1.models.Per36Minutes
Per36Minutes
p1496
(dp1497
g8
S'5.0'
p1498
sg10
S'.250'
p1499
sg12
S'0.0'
p1500
sg14
S'0.8'
p1501
sg16
S'6.7'
p1502
sg18
S'0.1'
p1503
sg20
g3
sg21
S'PF'
p1504
sg23
S'3.1'
p1505
sg27
S'NBA'
p1506
sg29
S'1.3'
p1507
sg31
S'.487'
p1508
sg33
S'17.2'
p1509
sg34
S'.772'
p1510
sg36
S'2.2'
p1511
sg38
S'30'
p1512
sg40
S'LAL'
p1513
sg42
S'76'
p1514
sg44
S'3.1'
p1515
sg46
S'13.7'
p1516
sg48
S'4.8'
p1517
sg50
S'.489'
p1518
sg52
S'8.1'
p1519
sg54
S'1979-80'
p1520
sg56
S'13.8'
p1521
sg58
S'4.6'
p1522
sg59
S'3.7'
p1523
sg61
S'6.7'
p1524
sg63
S'1544'
p1525
sba(isrc.gp1.models.Per36Minutes
Per36Minutes
p1526
(dp1527
g8
S'2.5'
p1528
sg10
S'0.1'
p1529
sg12
S'.476'
p1530
sg14
S'1.1'
p1531
sg16
S'.000'
p1532
sg18
S'0.0'
p1533
sg20
S'17.4'
p1534
sg21
S'PF'
p1535
sg23
S'.842'
p1536
sg27
S'NBA'
p1537
sg29
S'0.8'
p1538
sg31
S'14.3'
p1539
sg33
S'4.3'
p1540
sg34
S'4.5'
p1541
sg36
S'7.3'
p1542
sg38
S'32'
p1543
sg40
S'WSB'
p1544
sg42
S'76'
p1545
sg44
S'1.2'
p1546
sg46
S'6.8'
p1547
sg48
S'3.8'
p1548
sg50
S'14.3'
p1549
sg52
S'4.8'
p1550
sg54
S'1981-82'
p1551
sg56
S'6.8'
p1552
sg58
S'3.0'
p1553
sg59
S'.478'
p1554
sg61
S'2086'
p1555
sg63
S'63'
p1556
sba(isrc.gp1.models.Per36Minutes
Per36Minutes
p1557
(dp1558
g8
S'3.6'
p1559
sg10
S'0.0'
p1560
sg12
S'.401'
p1561
sg14
S'1.4'
p1562
sg16
S'.000'
p1563
sg18
S'0.0'
p1564
sg20
S'14.5'
p1565
sg21
S'PF'
p1566
sg23
S'.724'
p1567
sg27
S'NBA'
p1568
sg29
S'0.6'
p1569
sg31
S'14.5'
p1570
sg33
S'4.4'
p1571
sg34
S'4.0'
p1572
sg36
S'8.5'
p1573
sg38
S'33'
p1574
sg40
S'WSB'
p1575
sg42
S'38'
p1576
sg44
S'1.3'
p1577
sg46
S'5.8'
p1578
sg48
S'2.9'
p1579
sg50
S'14.4'
p1580
sg52
S'4.9'
p1581
sg54
S'1982-83'
p1582
sg56
S'5.8'
p1583
sg58
S'3.1'
p1584
sg59
S'.402'
p1585
sg61
S'775'
p1586
sg63
S'25'
p1587
sbasS'_fromYear'
p1588
S'1970'
p1589
sS'_url'
p1590
S'http://www.basketball-reference.com/players/h/haywosp01.html'
p1591
sS'_perGame'
p1592
(isrc.gp1.models.PerGame
PerGame
p1593
(dp1594
g8
S'2.0'
p1595
sg10
S'0.0'
p1596
sg12
S'.401'
p1597
sS'_effectiveFieldGalPercentage'
p1598
S'.401'
p1599
sg14
S'0.8'
p1600
sg16
S'.000'
p1601
sg18
S'0.0'
p1602
sg20
S'8.2'
p1603
sg21
S'PF'
p1604
sg23
S'.724'
p1605
sg27
S'NBA'
p1606
sg29
S'0.3'
p1607
sg33
S'2.5'
p1608
sS'_fieldGoalsttempted'
p1609
S'8.2'
p1610
sg34
S'2.3'
p1611
sg36
S'4.8'
p1612
sg38
S'33'
p1613
sg40
S'WSB'
p1614
sg42
S'38'
p1615
sg44
S'0.7'
p1616
sg46
S'3.3'
p1617
sg48
S'1.7'
p1618
sg50
S'8.2'
p1619
sg52
S'2.8'
p1620
sg54
S'1982-83'
p1621
sg56
S'3.3'
p1622
sg58
S'1.8'
p1623
sg59
S'.402'
p1624
sg61
S'20.4'
p1625
sg63
S'25'
p1626
sbsS'_weight'
p1627
S'225'
p1628
sS'_dob'
p1629
S'22-4-1949'
p1630
sS'_salary'
p1631
(lp1632
sg21
S'F-C'
p1633
sb.