(isrc.gp1.models.Player
Player
p0
(dp1
S'_experience'
p2
S'NA'
p3
sS'_totals'
p4
(lp5
(isrc.gp1.models.Totals
Totals
p6
(dp7
S'_offensiveRebounds'
p8
g3
sS'_threePointsAttempted'
p9
S'5'
p10
sS'_fieldGoalsPercentage'
p11
S'.446'
p12
sS'_assist'
p13
S'66'
p14
sS'_threePointsPercentage'
p15
S'.400'
p16
sS'_threePoints'
p17
S'2'
p18
sS'_points'
p19
S'852'
p20
sS'_position'
p21
S'SF'
p22
sS'_freeThrowsPercentage'
p23
S'.708'
p24
sS'_effectiveFieldGoalPercentage'
p25
S'.448'
p26
sS'_league'
p27
S'ABA'
p28
sS'_steals'
p29
g3
sS'_fieldGoalsAttempted'
p30
S'686'
p31
sS'_personalFouls'
p32
S'173'
p33
sS'_freeThrowsAttempted'
p34
S'336'
p35
sS'_totalRebounds'
p36
S'329'
p37
sS'_age'
p38
g3
sS'_team'
p39
S'NJA'
p40
sS'_games'
p41
S'70'
p42
sS'_blocks'
p43
g3
sS'_twoPoints'
p44
S'304'
p45
sS'_freeThrows'
p46
S'238'
p47
sS'_twoPointsAttempted'
p48
S'681'
p49
sS'_defensiveRebounds'
p50
g3
sS'_season'
p51
S'1967-68'
p52
sS'_fieldGoals'
p53
S'306'
p54
sS'_turnOvers'
p55
S'81'
p56
sS'_twoPointsPercentage'
p57
S'.446'
p58
sS'_minutesPlayed'
p59
S'1590'
p60
sS'_gamesStarted'
p61
g3
sbasS'_college'
p62
S'Virginia Union University'
p63
sS'_toYear'
p64
S'1968'
p65
sS'_height'
p66
S'6-5'
p67
sS'_active'
p68
I00
sS'_shootingHand'
p69
VRight
p70
sS'_name'
p71
S'Bruce Spraggins'
p72
sS'_per100Possessions'
p73
(lp74
sS'_advanced'
p75
(lp76
(isrc.gp1.models.Advanced
Advanced
p77
(dp78
S'_offensiveReboundPercentage'
p79
g3
sS'_turnOverPercentage'
p80
S'8.9'
p81
sS'_winSharesPer48Minutes'
p82
S'.131'
p83
sS'_stealPercentage'
p84
g3
sS'_usagePercentage'
p85
S'21.1'
p86
sS'_totalReboundsPercentage'
p87
S'9.1'
p88
sS'_defensiveBoxPlusMinus'
p89
g3
sg21
S'SF'
p90
sS'_valueOverReplacementPlayer'
p91
g3
sS'_trueShootingPercentage'
p92
S'.511'
p93
sS'_defensiveReboundPercentage'
p94
g3
sS'_freeThrowsAttempRate'
p95
S'.490'
p96
sS'_threePointsAttempRate'
p97
S'.007'
p98
sg27
S'ABA'
p99
sS'_offensiveBoxPlusMinues'
p100
g3
sS'_assistPercentage'
p101
S'6.3'
p102
sS'_defensiveWinShares'
p103
S'1.3'
p104
sg38
g3
sg39
S'NJA'
p105
sg41
S'70'
p106
sS'_blockPercentage'
p107
g3
sS'_playerEfficiencyRating'
p108
S'18.0'
p109
sS'_offensiveWinShares'
p110
S'3.0'
p111
sg59
S'1590'
p112
sS'_boxPlusMinus'
p113
g3
sg51
S'1967-68'
p114
sS'_winShares'
p115
S'4.3'
p116
sbasS'_per36Minutes'
p117
(lp118
(isrc.gp1.models.Per36Minutes
Per36Minutes
p119
(dp120
g8
g3
sg9
S'0.1'
p121
sg11
S'.446'
p122
sg13
S'1.5'
p123
sg15
S'.400'
p124
sg17
S'0.0'
p125
sg19
S'19.3'
p126
sg21
S'SF'
p127
sg23
S'.708'
p128
sg27
S'ABA'
p129
sg29
g3
sg30
S'15.5'
p130
sg32
S'3.9'
p131
sg34
S'7.6'
p132
sg36
S'7.4'
p133
sg38
g3
sg39
S'NJA'
p134
sg41
S'70'
p135
sg43
g3
sg44
S'6.9'
p136
sg46
S'5.4'
p137
sg48
S'15.4'
p138
sg50
g3
sg51
S'1967-68'
p139
sg53
S'6.9'
p140
sg55
S'1.8'
p141
sg57
S'.446'
p142
sg59
S'1590'
p143
sg61
g3
sbasS'_fromYear'
p144
S'1968'
p145
sS'_url'
p146
S'http://www.basketball-reference.com/players/s/spragbr01.html'
p147
sS'_perGame'
p148
(isrc.gp1.models.PerGame
PerGame
p149
(dp150
g8
g3
sg9
S'0.1'
p151
sg11
S'.446'
p152
sS'_effectiveFieldGalPercentage'
p153
S'.448'
p154
sg13
S'0.9'
p155
sg15
S'.400'
p156
sg17
S'0.0'
p157
sg19
S'12.2'
p158
sg21
S'SF'
p159
sg23
S'.708'
p160
sg27
S'ABA'
p161
sg29
g3
sg32
S'2.5'
p162
sS'_fieldGoalsttempted'
p163
S'9.8'
p164
sg34
S'4.8'
p165
sg36
S'4.7'
p166
sg38
g3
sg39
S'NJA'
p167
sg41
S'70'
p168
sg43
g3
sg44
S'4.3'
p169
sg46
S'3.4'
p170
sg48
S'9.7'
p171
sg50
g3
sg51
S'1967-68'
p172
sg53
S'4.4'
p173
sg55
S'1.2'
p174
sg57
S'.446'
p175
sg59
S'22.7'
p176
sg61
g3
sbsS'_weight'
p177
S'188'
p178
sS'_dob'
p179
S'NA'
p180
sS'_salary'
p181
(lp182
sg21
S'F'
p183
sb.