(isrc.gp1.models.Player
Player
p0
(dp1
S'_experience'
p2
S'NA'
p3
sS'_totals'
p4
(lp5
(isrc.gp1.models.Totals
Totals
p6
(dp7
S'_offensiveRebounds'
p8
S'1'
p9
sS'_threePointsAttempted'
p10
S'.125'
p11
sS'_fieldGoalsPercentage'
p12
g9
sS'_assist'
p13
S'5'
p14
sS'_threePointsPercentage'
p15
S'.125'
p16
sS'_threePoints'
p17
S'8'
p18
sS'_points'
p19
g3
sS'_position'
p20
S'SG'
p21
sS'_freeThrowsPercentage'
p22
S'3'
p23
sS'_effectiveFieldGoalPercentage'
p24
S'0'
p25
sS'_league'
p26
S'NBA'
p27
sS'_steals'
p28
S'4'
p29
sS'_fieldGoalsAttempted'
p30
S'.125'
p31
sS'_personalFouls'
p32
g3
sS'_freeThrowsAttempted'
p33
S'6'
p34
sS'_totalRebounds'
p35
g9
sS'_age'
p36
S'22'
p37
sS'_team'
p38
S'SDC'
p39
sS'_games'
p40
g29
sS'_blocks'
p41
g3
sS'_twoPoints'
p42
S'2'
p43
sS'_freeThrows'
p44
g34
sS'_twoPointsAttempted'
p45
g43
sS'_defensiveRebounds'
p46
g25
sS'_season'
p47
S'1978-79'
p48
sS'_fieldGoals'
p49
g18
sS'_turnOvers'
p50
g3
sS'_twoPointsPercentage'
p51
S'1.000'
p52
sS'_minutesPlayed'
p53
g9
sS'_gamesStarted'
p54
S'32'
p55
sba(isrc.gp1.models.Totals
Totals
p56
(dp57
g8
S'19'
p58
sg10
S'.250'
p59
sg12
S'9'
p60
sg13
S'25'
p61
sg15
S'82'
p62
sg17
S'36'
p63
sg19
g3
sg20
S'PG'
p64
sg22
S'26'
p65
sg24
S'37'
p66
sg26
S'NBA'
p67
sg28
g29
sg30
S'.508'
p68
sg32
S'228'
p69
sg33
S'.804'
p70
sg35
S'94'
p71
sg36
S'23'
p72
sg38
S'SDC'
p73
sg40
S'50'
p74
sg41
S'51'
p75
sg42
S'143'
p76
sg44
S'46'
p77
sg45
S'.573'
p78
sg46
S'45'
p79
sg47
S'1979-80'
p80
sg49
S'179'
p81
sg50
S'52'
p82
sg51
S'.534'
p83
sg53
S'91'
p84
sg54
S'577'
p85
sba(isrc.gp1.models.Totals
Totals
p86
(dp87
g8
S'29'
p88
sg10
S'.396'
p89
sg12
S'19'
p90
sg13
S'15'
p91
sg15
S'38'
p92
sg17
S'48'
p93
sg19
g3
sg20
S'SG'
p94
sg22
S'13'
p95
sg24
S'11'
p96
sg26
S'NBA'
p97
sg28
g43
sg30
S'.413'
p98
sg32
S'144'
p99
sg33
S'.786'
p100
sg35
S'77'
p101
sg36
S'24'
p102
sg38
S'TOT'
p103
sg40
S'42'
p104
sg41
S'22'
p105
sg42
S'90'
p106
sg44
S'14'
p107
sg45
S'.422'
p108
sg46
S'42'
p109
sg47
S'1980-81'
p110
sg49
S'138'
p111
sg50
S'28'
p112
sg51
S'.482'
p113
sg53
S'57'
p114
sg54
S'461'
p115
sba(isrc.gp1.models.Totals
Totals
p116
(dp117
g8
g43
sg10
g43
sg12
g25
sg13
g14
sg15
g14
sg17
g25
sg19
g3
sg20
S'SG'
p118
sg22
g9
sg24
g25
sg26
S'NBA'
p119
sg28
g43
sg30
S'.400'
p120
sg32
g3
sg33
g9
sg35
g25
sg36
S'24'
p121
sg38
S'SDC'
p122
sg40
g34
sg41
g29
sg42
S'.400'
p123
sg44
g25
sg45
S'.400'
p124
sg46
g25
sg47
S'1980-81'
p125
sg49
g14
sg50
g3
sg51
g25
sg53
g43
sg54
S'30'
p126
sba(isrc.gp1.models.Totals
Totals
p127
(dp128
g8
S'28'
p129
sg10
S'.396'
p130
sg12
S'19'
p131
sg13
S'15'
p132
sg15
S'36'
p133
sg17
S'48'
p134
sg19
g3
sg20
S'SG'
p135
sg22
S'13'
p136
sg24
S'11'
p137
sg26
S'NBA'
p138
sg28
g43
sg30
S'.414'
p139
sg32
S'140'
p140
sg33
S'.786'
p141
sg35
S'75'
p142
sg36
S'24'
p143
sg38
S'DAL'
p144
sg40
S'36'
p145
sg41
S'17'
p146
sg42
S'85'
p147
sg44
S'14'
p148
sg45
S'.424'
p149
sg46
S'41'
p150
sg47
S'1980-81'
p151
sg49
S'133'
p152
sg50
S'26'
p153
sg51
S'.485'
p154
sg53
S'55'
p155
sg54
S'431'
p156
sbasS'_college'
p157
S'Auburn University'
p158
sS'_toYear'
p159
S'1981'
p160
sS'_height'
p161
S'6-5'
p162
sS'_active'
p163
I00
sS'_shootingHand'
p164
VRight
p165
sS'_name'
p166
S'Stan Pietkiewicz'
p167
sS'_per100Possessions'
p168
(lp169
(isrc.gp1.models.Per100Possession
Per100Possession
p170
(dp171
g8
S'1.4'
p172
sg10
S'.125'
p173
sg12
S'1.4'
p174
sS'_offensiveRating'
p175
g3
sg13
S'7.1'
p176
sg15
S'2.8'
p177
sg17
S'11.3'
p178
sg19
g3
sg20
S'SG'
p179
sS'_defensiveRating'
p180
g3
sg22
S'4.2'
p181
sg26
S'NBA'
p182
sg28
S'5.6'
p183
sg30
S'.125'
p184
sg32
g3
sg33
S'8.5'
p185
sg35
S'1.4'
p186
sg36
S'22'
p187
sg38
S'SDC'
p188
sg40
g29
sg41
S'66'
p189
sg42
S'2.8'
p190
sg44
S'8.5'
p191
sg45
S'1.000'
p192
sg46
S'0.0'
p193
sg47
S'1978-79'
p194
sg49
S'11.3'
p195
sg50
S'107'
p196
sg51
S'0.0'
p197
sg53
S'1.4'
p198
sg54
S'32'
p199
sba(isrc.gp1.models.Per100Possession
Per100Possession
p200
(dp201
g8
S'1.6'
p202
sg10
S'.250'
p203
sg12
S'0.7'
p204
sg175
S'112'
p205
sg13
S'2.1'
p206
sg15
S'6.7'
p207
sg17
S'3.0'
p208
sg19
S'110'
p209
sg20
S'PG'
p210
sg180
g3
sg22
S'2.1'
p211
sg26
S'NBA'
p212
sg28
S'0.3'
p213
sg30
S'.508'
p214
sg32
S'18.7'
p215
sg33
S'.804'
p216
sg35
S'7.7'
p217
sg36
S'23'
p218
sg38
S'SDC'
p219
sg40
S'50'
p220
sg41
S'4.2'
p221
sg42
S'11.7'
p222
sg44
S'3.8'
p223
sg45
S'.573'
p224
sg46
S'3.7'
p225
sg47
S'1979-80'
p226
sg49
S'14.7'
p227
sg50
S'4.3'
p228
sg51
S'3.0'
p229
sg53
S'7.5'
p230
sg54
S'577'
p231
sba(isrc.gp1.models.Per100Possession
Per100Possession
p232
(dp233
g8
S'3.1'
p234
sg10
S'.396'
p235
sg12
S'2.0'
p236
sg175
S'112'
p237
sg13
S'1.6'
p238
sg15
S'4.0'
p239
sg17
S'5.1'
p240
sg19
S'107'
p241
sg20
S'SG'
p242
sg180
g3
sg22
S'1.4'
p243
sg26
S'NBA'
p244
sg28
S'0.2'
p245
sg30
S'.413'
p246
sg32
S'15.2'
p247
sg33
S'.786'
p248
sg35
S'8.1'
p249
sg36
S'24'
p250
sg38
S'TOT'
p251
sg40
S'42'
p252
sg41
S'2.3'
p253
sg42
S'9.5'
p254
sg44
S'1.5'
p255
sg45
S'.422'
p256
sg46
S'4.4'
p257
sg47
S'1980-81'
p258
sg49
S'14.6'
p259
sg50
S'3.0'
p260
sg51
S'1.2'
p261
sg53
S'6.0'
p262
sg54
S'461'
p263
sba(isrc.gp1.models.Per100Possession
Per100Possession
p264
(dp265
g8
S'3.2'
p266
sg10
S'3.2'
p267
sg12
S'0.0'
p268
sg175
g3
sg13
S'8.0'
p269
sg15
S'8.0'
p270
sg17
S'0.0'
p271
sg19
g3
sg20
S'SG'
p272
sg180
g3
sg22
S'1.6'
p273
sg26
S'NBA'
p274
sg28
S'3.2'
p275
sg30
S'.400'
p276
sg32
S'115'
p277
sg33
S'1.6'
p278
sg35
S'0.0'
p279
sg36
S'24'
p280
sg38
S'SDC'
p281
sg40
g34
sg41
S'6.4'
p282
sg42
S'.400'
p283
sg44
S'0.0'
p284
sg45
S'0.0'
p285
sg46
S'0.0'
p286
sg47
S'1980-81'
p287
sg49
S'8.0'
p288
sg50
S'46'
p289
sg51
S'0.0'
p290
sg53
S'3.2'
p291
sg54
S'30'
p292
sba(isrc.gp1.models.Per100Possession
Per100Possession
p293
(dp294
g8
S'3.2'
p295
sg10
S'.396'
p296
sg12
S'2.1'
p297
sg175
S'112'
p298
sg13
S'1.7'
p299
sg15
S'4.1'
p300
sg17
S'5.4'
p301
sg19
S'111'
p302
sg20
S'SG'
p303
sg180
g3
sg22
S'1.5'
p304
sg26
S'NBA'
p305
sg28
S'0.2'
p306
sg30
S'.414'
p307
sg32
S'15.8'
p308
sg33
S'.786'
p309
sg35
S'8.5'
p310
sg36
S'24'
p311
sg38
S'DAL'
p312
sg40
S'36'
p313
sg41
S'1.9'
p314
sg42
S'9.6'
p315
sg44
S'1.6'
p316
sg45
S'.424'
p317
sg46
S'4.6'
p318
sg47
S'1980-81'
p319
sg49
S'15.0'
p320
sg50
S'2.9'
p321
sg51
S'1.2'
p322
sg53
S'6.2'
p323
sg54
S'431'
p324
sbasS'_advanced'
p325
(lp326
(isrc.gp1.models.Advanced
Advanced
p327
(dp328
S'_offensiveReboundPercentage'
p329
S'20.0'
p330
sS'_turnOverPercentage'
p331
S'11.7'
p332
sS'_winSharesPer48Minutes'
p333
S'-7.7'
p334
sS'_stealPercentage'
p335
S'0.0'
p336
sS'_usagePercentage'
p337
S'-0.1'
p338
sS'_totalReboundsPercentage'
p339
S'10.3'
p340
sS'_defensiveBoxPlusMinus'
p341
S'-8.5'
p342
sg20
S'SG'
p343
sS'_valueOverReplacementPlayer'
p344
g3
sS'_trueShootingPercentage'
p345
S'.225'
p346
sS'_defensiveReboundPercentage'
p347
S'10.0'
p348
sS'_freeThrowsAttempRate'
p349
S'0.0'
p350
sS'_threePointsAttempRate'
p351
S'.250'
p352
sg26
S'NBA'
p353
sS'_offensiveBoxPlusMinues'
p354
S'-0.8'
p355
sS'_assistPercentage'
p356
S'1.4'
p357
sS'_defensiveWinShares'
p358
S'0.0'
p359
sg36
S'22'
p360
sg38
S'SDC'
p361
sg40
g29
sS'_blockPercentage'
p362
S'10.1'
p363
sS'_playerEfficiencyRating'
p364
S'1.6'
p365
sS'_offensiveWinShares'
p366
S'0.0'
p367
sg53
S'32'
p368
sS'_boxPlusMinus'
p369
S'-0.1'
p370
sg47
S'1978-79'
p371
sS'_winShares'
p372
S'-0.060'
p373
sba(isrc.gp1.models.Advanced
Advanced
p374
(dp375
g329
S'4.7'
p376
sg331
S'20.4'
p377
sg333
S'.080'
p378
sg335
S'2.1'
p379
sg337
S'17.3'
p380
sg339
S'4.2'
p381
sg341
S'-2.8'
p382
sg20
S'PG'
p383
sg344
S'-0.1'
p384
sg345
S'.572'
p385
sg347
S'3.7'
p386
sg349
S'.257'
p387
sg351
S'.201'
p388
sg26
S'NBA'
p389
sg354
S'0.3'
p390
sg356
S'22.2'
p391
sg358
S'0.1'
p392
sg36
S'23'
p393
sg38
S'SDC'
p394
sg40
S'50'
p395
sg362
S'0.4'
p396
sg364
S'14.3'
p397
sg366
S'0.8'
p398
sg53
S'577'
p399
sg369
S'-2.5'
p400
sg47
S'1979-80'
p401
sg372
S'1.0'
p402
sba(isrc.gp1.models.Advanced
Advanced
p403
(dp404
g329
S'3.1'
p405
sg331
S'13.2'
p406
sg333
S'.058'
p407
sg335
S'1.6'
p408
sg337
S'15.0'
p409
sg339
S'5.2'
p410
sg341
S'-2.6'
p411
sg20
S'SG'
p412
sg344
S'-0.1'
p413
sg345
S'.499'
p414
sg347
S'7.4'
p415
sg349
S'.101'
p416
sg351
S'.348'
p417
sg26
S'NBA'
p418
sg354
S'-0.2'
p419
sg356
S'24.4'
p420
sg358
S'0.1'
p421
sg36
S'24'
p422
sg38
S'TOT'
p423
sg40
S'42'
p424
sg362
S'0.2'
p425
sg364
S'12.3'
p426
sg366
S'0.5'
p427
sg53
S'461'
p428
sg369
S'-2.9'
p429
sg47
S'1980-81'
p430
sg372
S'0.6'
p431
sba(isrc.gp1.models.Advanced
Advanced
p432
(dp433
g329
S'0.0'
p434
sg331
S'50.0'
p435
sg333
S'-0.219'
p436
sg335
S'0.0'
p437
sg337
S'13.6'
p438
sg339
S'1.9'
p439
sg341
S'-2.6'
p440
sg20
S'SG'
p441
sg344
S'-0.1'
p442
sg345
S'.400'
p443
sg347
S'4.1'
p444
sg349
S'.000'
p445
sg351
S'.000'
p446
sg26
S'NBA'
p447
sg354
S'-11.5'
p448
sg356
S'8.2'
p449
sg358
S'0.0'
p450
sg36
S'24'
p451
sg38
S'SDC'
p452
sg40
g34
sg362
S'0.0'
p453
sg364
S'-4.5'
p454
sg366
S'-0.1'
p455
sg53
S'30'
p456
sg369
S'-14.1'
p457
sg47
S'1980-81'
p458
sg372
S'-0.1'
p459
sba(isrc.gp1.models.Advanced
Advanced
p460
(dp461
g329
S'3.3'
p462
sg331
S'10.9'
p463
sg333
S'.077'
p464
sg335
S'1.7'
p465
sg337
S'15.1'
p466
sg339
S'5.4'
p467
sg341
S'-2.6'
p468
sg20
S'SG'
p469
sg344
S'0.0'
p470
sg345
S'.503'
p471
sg347
S'7.7'
p472
sg349
S'.105'
p473
sg351
S'.361'
p474
sg26
S'NBA'
p475
sg354
S'0.5'
p476
sg356
S'25.5'
p477
sg358
S'0.1'
p478
sg36
S'24'
p479
sg38
S'DAL'
p480
sg40
S'36'
p481
sg362
S'0.3'
p482
sg364
S'13.5'
p483
sg366
S'0.6'
p484
sg53
S'431'
p485
sg369
S'-2.1'
p486
sg47
S'1980-81'
p487
sg372
S'0.7'
p488
sbasS'_per36Minutes'
p489
(lp490
(isrc.gp1.models.Per36Minutes
Per36Minutes
p491
(dp492
g8
S'1.1'
p493
sg10
S'.125'
p494
sg12
S'1.1'
p495
sg13
S'5.6'
p496
sg15
S'2.3'
p497
sg17
S'9.0'
p498
sg19
g3
sg20
S'SG'
p499
sg22
S'3.4'
p500
sg26
S'NBA'
p501
sg28
S'4.5'
p502
sg30
S'.125'
p503
sg32
g3
sg33
S'6.8'
p504
sg35
S'1.1'
p505
sg36
S'22'
p506
sg38
S'SDC'
p507
sg40
g29
sg41
g3
sg42
S'2.3'
p508
sg44
S'6.8'
p509
sg45
S'1.000'
p510
sg46
S'0.0'
p511
sg47
S'1978-79'
p512
sg49
S'9.0'
p513
sg50
g3
sg51
S'0.0'
p514
sg53
S'1.1'
p515
sg54
S'32'
p516
sba(isrc.gp1.models.Per36Minutes
Per36Minutes
p517
(dp518
g8
S'1.2'
p519
sg10
S'.250'
p520
sg12
S'0.6'
p521
sg13
S'1.6'
p522
sg15
S'5.1'
p523
sg17
S'2.2'
p524
sg19
g3
sg20
S'PG'
p525
sg22
S'1.6'
p526
sg26
S'NBA'
p527
sg28
S'0.2'
p528
sg30
S'.508'
p529
sg32
S'14.2'
p530
sg33
S'.804'
p531
sg35
S'5.9'
p532
sg36
S'23'
p533
sg38
S'SDC'
p534
sg40
S'50'
p535
sg41
S'3.2'
p536
sg42
S'8.9'
p537
sg44
S'2.9'
p538
sg45
S'.573'
p539
sg46
S'2.8'
p540
sg47
S'1979-80'
p541
sg49
S'11.2'
p542
sg50
S'3.2'
p543
sg51
S'2.3'
p544
sg53
S'5.7'
p545
sg54
S'577'
p546
sba(isrc.gp1.models.Per36Minutes
Per36Minutes
p547
(dp548
g8
S'2.3'
p549
sg10
S'.396'
p550
sg12
S'1.5'
p551
sg13
S'1.2'
p552
sg15
S'3.0'
p553
sg17
S'3.7'
p554
sg19
g3
sg20
S'SG'
p555
sg22
S'1.0'
p556
sg26
S'NBA'
p557
sg28
S'0.2'
p558
sg30
S'.413'
p559
sg32
S'11.2'
p560
sg33
S'.786'
p561
sg35
S'6.0'
p562
sg36
S'24'
p563
sg38
S'TOT'
p564
sg40
S'42'
p565
sg41
S'1.7'
p566
sg42
S'7.0'
p567
sg44
S'1.1'
p568
sg45
S'.422'
p569
sg46
S'3.3'
p570
sg47
S'1980-81'
p571
sg49
S'10.8'
p572
sg50
S'2.2'
p573
sg51
S'0.9'
p574
sg53
S'4.5'
p575
sg54
S'461'
p576
sba(isrc.gp1.models.Per36Minutes
Per36Minutes
p577
(dp578
g8
S'2.4'
p579
sg10
S'2.4'
p580
sg12
S'0.0'
p581
sg13
S'6.0'
p582
sg15
S'6.0'
p583
sg17
S'0.0'
p584
sg19
g3
sg20
S'SG'
p585
sg22
S'1.2'
p586
sg26
S'NBA'
p587
sg28
S'2.4'
p588
sg30
S'.400'
p589
sg32
g3
sg33
S'1.2'
p590
sg35
S'0.0'
p591
sg36
S'24'
p592
sg38
S'SDC'
p593
sg40
g34
sg41
S'4.8'
p594
sg42
S'.400'
p595
sg44
S'0.0'
p596
sg45
S'0.0'
p597
sg46
S'0.0'
p598
sg47
S'1980-81'
p599
sg49
S'6.0'
p600
sg50
g3
sg51
S'0.0'
p601
sg53
S'2.4'
p602
sg54
S'30'
p603
sba(isrc.gp1.models.Per36Minutes
Per36Minutes
p604
(dp605
g8
S'2.3'
p606
sg10
S'.396'
p607
sg12
S'1.6'
p608
sg13
S'1.3'
p609
sg15
S'3.0'
p610
sg17
S'4.0'
p611
sg19
g3
sg20
S'SG'
p612
sg22
S'1.1'
p613
sg26
S'NBA'
p614
sg28
S'0.2'
p615
sg30
S'.414'
p616
sg32
S'11.7'
p617
sg33
S'.786'
p618
sg35
S'6.3'
p619
sg36
S'24'
p620
sg38
S'DAL'
p621
sg40
S'36'
p622
sg41
S'1.4'
p623
sg42
S'7.1'
p624
sg44
S'1.2'
p625
sg45
S'.424'
p626
sg46
S'3.4'
p627
sg47
S'1980-81'
p628
sg49
S'11.1'
p629
sg50
S'2.2'
p630
sg51
S'0.9'
p631
sg53
S'4.6'
p632
sg54
S'431'
p633
sbasS'_fromYear'
p634
S'1979'
p635
sS'_url'
p636
S'http://www.basketball-reference.com/players/p/pietkst01.html'
p637
sS'_perGame'
p638
(isrc.gp1.models.PerGame
PerGame
p639
(dp640
g8
S'0.8'
p641
sg10
S'.396'
p642
sg12
S'0.5'
p643
sS'_effectiveFieldGalPercentage'
p644
S'0.3'
p645
sg13
S'0.4'
p646
sg15
S'1.0'
p647
sg17
S'1.3'
p648
sg19
g3
sg20
S'SG'
p649
sg22
S'0.4'
p650
sg26
S'NBA'
p651
sg28
S'0.1'
p652
sg32
S'3.9'
p653
sS'_fieldGoalsttempted'
p654
S'.414'
p655
sg33
S'.786'
p656
sg35
S'2.1'
p657
sg36
S'24'
p658
sg38
S'DAL'
p659
sg40
S'36'
p660
sg41
S'0.5'
p661
sg42
S'2.4'
p662
sg44
S'0.4'
p663
sg45
S'.424'
p664
sg46
S'1.1'
p665
sg47
S'1980-81'
p666
sg49
S'3.7'
p667
sg50
S'0.7'
p668
sg51
S'.485'
p669
sg53
S'1.5'
p670
sg54
S'12.0'
p671
sbsS'_weight'
p672
S'200'
p673
sS'_dob'
p674
S'14-7-1956'
p675
sS'_salary'
p676
(lp677
sg20
S'G-F'
p678
sb.