(isrc.gp1.models.Player
Player
p0
(dp1
S'_experience'
p2
S'NA'
p3
sS'_totals'
p4
(lp5
(isrc.gp1.models.Totals
Totals
p6
(dp7
S'_offensiveRebounds'
p8
S'3'
p9
sS'_threePointsAttempted'
p10
S'0'
p11
sS'_fieldGoalsPercentage'
p12
S'.333'
p13
sS'_assist'
p14
g11
sS'_threePointsPercentage'
p15
g9
sS'_threePoints'
p16
g11
sS'_points'
p17
g3
sS'_position'
p18
S'PF'
p19
sS'_freeThrowsPercentage'
p20
g9
sS'_effectiveFieldGoalPercentage'
p21
S'2'
p22
sS'_league'
p23
S'NBA'
p24
sS'_steals'
p25
g22
sS'_fieldGoalsAttempted'
p26
S'9'
p27
sS'_personalFouls'
p28
S'8'
p29
sS'_freeThrowsAttempted'
p30
S'.400'
p31
sS'_totalRebounds'
p32
g9
sS'_age'
p33
S'27'
p34
sS'_team'
p35
S'PHO'
p36
sS'_games'
p37
S'7'
p38
sS'_blocks'
p39
g9
sS'_twoPoints'
p40
g27
sS'_freeThrows'
p41
S'5'
p42
sS'_twoPointsAttempted'
p43
S'.333'
p44
sS'_defensiveRebounds'
p45
S'6'
p46
sS'_season'
p47
S'1995-96'
p48
sS'_fieldGoals'
p49
g9
sS'_turnOvers'
p50
S'10'
p51
sS'_twoPointsPercentage'
p52
S'.333'
p53
sS'_minutesPlayed'
p54
S'30'
p55
sS'_gamesStarted'
p56
g11
sbasS'_college'
p57
S'NA'
p58
sS'_toYear'
p59
S'1996'
p60
sS'_height'
p61
S'6-9'
p62
sS'_active'
p63
I00
sS'_shootingHand'
p64
VRight
p65
sS'_name'
p66
S'Stefano Rusconi'
p67
sS'_per100Possessions'
p68
(lp69
(isrc.gp1.models.Per100Possession
Per100Possession
p70
(dp71
g8
S'5.1'
p72
sg10
S'0.0'
p73
sg12
S'.333'
p74
sS'_offensiveRating'
p75
S'111'
p76
sg14
S'0.0'
p77
sg15
S'5.1'
p78
sg16
S'0.0'
p79
sg17
S'78'
p80
sg18
S'PF'
p81
sS'_defensiveRating'
p82
g3
sg20
S'5.1'
p83
sg23
S'NBA'
p84
sg25
S'3.4'
p85
sg26
S'15.4'
p86
sg28
S'13.7'
p87
sg30
S'.400'
p88
sg32
S'5.1'
p89
sg33
S'27'
p90
sg35
S'PHO'
p91
sg37
g38
sg39
S'5.1'
p92
sg40
S'15.4'
p93
sg41
S'8.6'
p94
sg43
S'.333'
p95
sg45
S'10.3'
p96
sg47
S'1995-96'
p97
sg49
S'5.1'
p98
sg50
S'17.2'
p99
sg52
S'3.4'
p100
sg54
S'30'
p101
sg56
g11
sbasS'_advanced'
p102
(lp103
(isrc.gp1.models.Advanced
Advanced
p104
(dp105
S'_offensiveReboundPercentage'
p106
S'11.8'
p107
sS'_turnOverPercentage'
p108
S'21.1'
p109
sS'_winSharesPer48Minutes'
p110
S'-0.104'
p111
sS'_stealPercentage'
p112
S'0.0'
p113
sS'_usagePercentage'
p114
S'21.1'
p115
sS'_totalReboundsPercentage'
p116
S'11.6'
p117
sS'_defensiveBoxPlusMinus'
p118
S'-0.2'
p119
sg18
S'PF'
p120
sS'_valueOverReplacementPlayer'
p121
S'0.0'
p122
sS'_trueShootingPercentage'
p123
S'.357'
p124
sS'_defensiveReboundPercentage'
p125
S'11.4'
p126
sS'_freeThrowsAttempRate'
p127
S'.556'
p128
sS'_threePointsAttempRate'
p129
S'.000'
p130
sg23
S'NBA'
p131
sS'_offensiveBoxPlusMinues'
p132
S'-7.4'
p133
sS'_assistPercentage'
p134
S'14.5'
p135
sS'_defensiveWinShares'
p136
S'0.0'
p137
sg33
S'27'
p138
sg35
S'PHO'
p139
sg37
g38
sS'_blockPercentage'
p140
S'5.0'
p141
sS'_playerEfficiencyRating'
p142
S'2.4'
p143
sS'_offensiveWinShares'
p144
S'-0.1'
p145
sg54
S'30'
p146
sS'_boxPlusMinus'
p147
S'-7.6'
p148
sg47
S'1995-96'
p149
sS'_winShares'
p150
S'-0.1'
p151
sbasS'_per36Minutes'
p152
(lp153
(isrc.gp1.models.Per36Minutes
Per36Minutes
p154
(dp155
g8
S'3.6'
p156
sg10
S'0.0'
p157
sg12
S'.333'
p158
sg14
S'0.0'
p159
sg15
S'3.6'
p160
sg16
S'0.0'
p161
sg17
g3
sg18
S'PF'
p162
sg20
S'3.6'
p163
sg23
S'NBA'
p164
sg25
S'2.4'
p165
sg26
S'10.8'
p166
sg28
S'9.6'
p167
sg30
S'.400'
p168
sg32
S'3.6'
p169
sg33
S'27'
p170
sg35
S'PHO'
p171
sg37
g38
sg39
S'3.6'
p172
sg40
S'10.8'
p173
sg41
S'6.0'
p174
sg43
S'.333'
p175
sg45
S'7.2'
p176
sg47
S'1995-96'
p177
sg49
S'3.6'
p178
sg50
S'12.0'
p179
sg52
S'2.4'
p180
sg54
S'30'
p181
sg56
g11
sbasS'_fromYear'
p182
S'1996'
p183
sS'_url'
p184
S'http://www.basketball-reference.com/players/r/ruscost01.html'
p185
sS'_perGame'
p186
(isrc.gp1.models.PerGame
PerGame
p187
(dp188
g8
S'0.4'
p189
sg10
S'0.0'
p190
sg12
S'.333'
p191
sS'_effectiveFieldGalPercentage'
p192
S'0.3'
p193
sg14
S'0.0'
p194
sg15
S'0.4'
p195
sg16
S'0.0'
p196
sg17
g3
sg18
S'PF'
p197
sg20
S'0.4'
p198
sg23
S'NBA'
p199
sg25
S'0.3'
p200
sg28
S'1.1'
p201
sS'_fieldGoalsttempted'
p202
S'1.3'
p203
sg30
S'.400'
p204
sg32
S'0.4'
p205
sg33
S'27'
p206
sg35
S'PHO'
p207
sg37
g38
sg39
S'0.4'
p208
sg40
S'1.3'
p209
sg41
S'0.7'
p210
sg43
S'.333'
p211
sg45
S'0.9'
p212
sg47
S'1995-96'
p213
sg49
S'0.4'
p214
sg50
S'1.4'
p215
sg52
S'.333'
p216
sg54
S'4.3'
p217
sg56
g11
sbsS'_weight'
p218
S'240'
p219
sS'_dob'
p220
S'2-10-1968'
p221
sS'_salary'
p222
(lp223
(isrc.gp1.models.Salary
Salary
p224
(dp225
g35
S'Phoenix Suns'
p226
sg23
S'NBA'
p227
sg222
S'$415,000'
p228
sg47
S'1995-96'
p229
sbasg18
S'C-F'
p230
sb.