(isrc.gp1.models.Player
Player
p0
(dp1
S'_experience'
p2
S'NA'
p3
sS'_totals'
p4
(lp5
(isrc.gp1.models.Totals
Totals
p6
(dp7
S'_offensiveRebounds'
p8
S'9'
p9
sS'_threePointsAttempted'
p10
S'13'
p11
sS'_fieldGoalsPercentage'
p12
S'0'
p13
sS'_assist'
p14
g3
sS'_threePointsPercentage'
p15
S'35'
p16
sS'_threePoints'
p17
g13
sS'_points'
p18
g3
sS'_position'
p19
S'PG'
p20
sS'_freeThrowsPercentage'
p21
S'8'
p22
sS'_effectiveFieldGoalPercentage'
p23
S'15'
p24
sS'_league'
p25
S'ABA'
p26
sS'_steals'
p27
g3
sS'_fieldGoalsAttempted'
p28
S'.371'
p29
sS'_personalFouls'
p30
g3
sS'_freeThrowsAttempted'
p31
S'15'
p32
sS'_totalRebounds'
p33
S'36'
p34
sS'_age'
p35
S'23'
p36
sS'_team'
p37
S'PTP'
p38
sS'_games'
p39
g9
sS'_blocks'
p40
g3
sS'_twoPoints'
p41
S'.371'
p42
sS'_freeThrows'
p43
S'.667'
p44
sS'_twoPointsAttempted'
p45
S'.371'
p46
sS'_defensiveRebounds'
p47
S'14'
p48
sS'_season'
p49
S'1967-68'
p50
sS'_fieldGoals'
p51
S'35'
p52
sS'_turnOvers'
p53
g3
sS'_twoPointsPercentage'
p54
S'10'
p55
sS'_minutesPlayed'
p56
S'13'
p57
sS'_gamesStarted'
p58
S'73'
p59
sba(isrc.gp1.models.Totals
Totals
p60
(dp61
g8
S'120'
p62
sg10
S'.250'
p63
sg12
S'2'
p64
sg14
S'139'
p65
sg15
S'286'
p66
sg17
g22
sg18
g3
sg19
S'PG'
p67
sg21
S'90'
p68
sg23
S'167'
p69
sg25
S'ABA'
p70
sg27
S'158'
p71
sg28
S'.402'
p72
sg30
g3
sg31
S'.777'
p73
sg33
S'166'
p74
sg35
S'24'
p75
sg37
S'MNP'
p76
sg39
S'60'
p77
sg40
S'745'
p78
sg41
S'708'
p79
sg43
S'215'
p80
sg45
S'.404'
p81
sg47
S'210'
p82
sg49
S'1968-69'
p83
sg51
S'716'
p84
sg53
g3
sg54
S'.404'
p85
sg56
S'288'
p86
sg58
S'1589'
p87
sba(isrc.gp1.models.Totals
Totals
p88
(dp89
g8
g22
sg10
S'.000'
p90
sg12
g13
sg14
S'10'
p91
sg15
S'15'
p92
sg17
g64
sg18
g3
sg19
S'PG'
p93
sg21
S'5'
p94
sg23
S'13'
p95
sg25
S'ABA'
p96
sg27
S'22'
p97
sg28
S'.254'
p98
sg30
g3
sg31
S'.591'
p99
sg33
S'20'
p100
sg35
S'25'
p101
sg37
S'TOT'
p102
sg39
S'14'
p103
sg40
S'43'
p104
sg41
S'57'
p105
sg43
S'22'
p106
sg45
S'.263'
p107
sg47
S'13'
p108
sg49
S'1969-70'
p109
sg51
S'59'
p110
sg53
g3
sg54
S'.254'
p111
sg56
S'15'
p112
sg58
S'173'
p113
sba(isrc.gp1.models.Totals
Totals
p114
(dp115
g8
S'1'
p116
sg10
g64
sg12
g13
sg14
S'4'
p117
sg15
S'13'
p118
sg17
g13
sg18
g3
sg19
S'PG'
p119
sg21
g13
sg23
g64
sg25
S'ABA'
p120
sg27
S'6'
p121
sg28
S'.154'
p122
sg30
g3
sg31
g116
sg33
g64
sg35
S'25'
p123
sg37
S'PTP'
p124
sg39
g64
sg40
g3
sg41
S'.154'
p125
sg43
S'1.000'
p126
sg45
S'.154'
p127
sg47
S'3'
p128
sg49
S'1969-70'
p129
sg51
S'13'
p130
sg53
g3
sg54
g64
sg56
g64
sg58
S'36'
p131
sba(isrc.gp1.models.Totals
Totals
p132
(dp133
g8
g22
sg10
S'.000'
p134
sg12
g13
sg14
g22
sg15
S'13'
p135
sg17
g64
sg18
g3
sg19
S'PG'
p136
sg21
g117
sg23
S'11'
p137
sg25
S'ABA'
p138
sg27
S'18'
p139
sg28
S'.283'
p140
sg30
g3
sg31
S'.550'
p141
sg33
S'17'
p142
sg35
S'25'
p143
sg37
S'MMF'
p144
sg39
S'12'
p145
sg40
S'37'
p146
sg41
S'44'
p147
sg43
S'20'
p148
sg45
S'.295'
p149
sg47
S'12'
p150
sg49
S'1969-70'
p151
sg51
S'46'
p152
sg53
g3
sg54
S'.283'
p153
sg56
S'13'
p154
sg58
S'137'
p155
sbasS'_college'
p156
S'Duke University'
p157
sS'_toYear'
p158
S'1970'
p159
sS'_height'
p160
S'6-1'
p161
sS'_active'
p162
I00
sS'_shootingHand'
p163
VRight
p164
sS'_name'
p165
S'Stephen Vacendak'
p166
sS'_per100Possessions'
p167
(lp168
sS'_advanced'
p169
(lp170
(isrc.gp1.models.Advanced
Advanced
p171
(dp172
S'_offensiveReboundPercentage'
p173
S'8.7'
p174
sS'_turnOverPercentage'
p175
S'0.1'
p176
sS'_winSharesPer48Minutes'
p177
g3
sS'_stealPercentage'
p178
S'0.0'
p179
sS'_usagePercentage'
p180
S'.040'
p181
sS'_totalReboundsPercentage'
p182
S'17.8'
p183
sS'_defensiveBoxPlusMinus'
p184
g3
sg19
S'PG'
p185
sS'_valueOverReplacementPlayer'
p186
g3
sS'_trueShootingPercentage'
p187
S'.433'
p188
sS'_defensiveReboundPercentage'
p189
S'16.1'
p190
sS'_freeThrowsAttempRate'
p191
S'.429'
p192
sS'_threePointsAttempRate'
p193
S'.000'
p194
sg25
S'ABA'
p195
sS'_offensiveBoxPlusMinues'
p196
g3
sS'_assistPercentage'
p197
S'25.8'
p198
sS'_defensiveWinShares'
p199
g3
sg35
S'23'
p200
sg37
S'PTP'
p201
sg39
g9
sS'_blockPercentage'
p202
S'0.1'
p203
sS'_playerEfficiencyRating'
p204
S'9.6'
p205
sS'_offensiveWinShares'
p206
g3
sg56
S'73'
p207
sS'_boxPlusMinus'
p208
g3
sg49
S'1967-68'
p209
sS'_winShares'
p210
g3
sba(isrc.gp1.models.Advanced
Advanced
p211
(dp212
g173
S'5.9'
p213
sg175
S'2.2'
p214
sg177
g3
sg178
S'0.0'
p215
sg180
S'.067'
p216
sg182
S'14.6'
p217
sg184
g3
sg19
S'PG'
p218
sg186
g3
sg187
S'.460'
p219
sg189
S'15.0'
p220
sg191
S'.300'
p221
sg193
S'.011'
p222
sg25
S'ABA'
p223
sg196
g3
sg197
S'21.2'
p224
sg199
g3
sg35
S'24'
p225
sg37
S'MNP'
p226
sg39
S'60'
p227
sg202
S'2.2'
p228
sg204
S'12.4'
p229
sg206
g3
sg56
S'1589'
p230
sg208
g3
sg49
S'1968-69'
p231
sg210
g3
sba(isrc.gp1.models.Advanced
Advanced
p232
(dp233
g173
S'3.4'
p234
sg175
S'-0.4'
p235
sg177
g3
sg178
S'-0.5'
p236
sg180
S'-0.115'
p237
sg182
S'12.7'
p238
sg184
g3
sg19
S'PG'
p239
sg186
g3
sg187
S'.313'
p240
sg189
S'14.4'
p241
sg191
S'.373'
p242
sg193
S'.034'
p243
sg25
S'ABA'
p244
sg196
g3
sg197
S'16.4'
p245
sg199
g3
sg35
S'25'
p246
sg37
S'TOT'
p247
sg39
S'14'
p248
sg202
S'0.1'
p249
sg204
S'2.2'
p250
sg206
g3
sg56
S'173'
p251
sg208
g3
sg49
S'1969-70'
p252
sg210
g3
sba(isrc.gp1.models.Advanced
Advanced
p253
(dp254
g173
S'1.2'
p255
sg175
S'-0.2'
p256
sg177
g3
sg178
S'-0.2'
p257
sg180
S'-0.219'
p258
sg182
S'12.6'
p259
sg184
g3
sg19
S'PG'
p260
sg186
g3
sg187
S'.216'
p261
sg189
S'9.7'
p262
sg191
S'.154'
p263
sg193
S'.000'
p264
sg25
S'ABA'
p265
sg196
g3
sg197
S'15.9'
p266
sg199
g3
sg35
S'25'
p267
sg37
S'PTP'
p268
sg39
g64
sg202
S'0.0'
p269
sg204
S'-4.1'
p270
sg206
g3
sg56
S'36'
p271
sg208
g3
sg49
S'1969-70'
p272
sg210
g3
sba(isrc.gp1.models.Advanced
Advanced
p273
(dp274
g173
S'4.0'
p275
sg175
S'-0.3'
p276
sg177
g3
sg178
S'-0.4'
p277
sg180
S'-0.088'
p278
sg182
S'12.7'
p279
sg184
g3
sg19
S'PG'
p280
sg186
g3
sg187
S'.338'
p281
sg189
S'15.6'
p282
sg191
S'.435'
p283
sg193
S'.043'
p284
sg25
S'ABA'
p285
sg196
g3
sg197
S'16.5'
p286
sg199
g3
sg35
S'25'
p287
sg37
S'MMF'
p288
sg39
S'12'
p289
sg202
S'0.1'
p290
sg204
S'3.9'
p291
sg206
g3
sg56
S'137'
p292
sg208
g3
sg49
S'1969-70'
p293
sg210
g3
sbasS'_per36Minutes'
p294
(lp295
(isrc.gp1.models.Per36Minutes
Per36Minutes
p296
(dp297
g8
S'4.4'
p298
sg10
S'6.4'
p299
sg12
S'0.0'
p300
sg14
g3
sg15
S'17.3'
p301
sg17
S'0.0'
p302
sg18
g3
sg19
S'PG'
p303
sg21
S'3.9'
p304
sg25
S'ABA'
p305
sg27
g3
sg28
S'.371'
p306
sg30
g3
sg31
S'7.4'
p307
sg33
S'17.8'
p308
sg35
S'23'
p309
sg37
S'PTP'
p310
sg39
g9
sg40
g3
sg41
S'.371'
p311
sg43
S'.667'
p312
sg45
S'4.9'
p313
sg47
S'6.9'
p314
sg49
S'1967-68'
p315
sg51
S'17.3'
p316
sg53
g3
sg54
S'7.4'
p317
sg56
S'6.4'
p318
sg58
S'73'
p319
sba(isrc.gp1.models.Per36Minutes
Per36Minutes
p320
(dp321
g8
S'2.7'
p322
sg10
S'.250'
p323
sg12
S'0.0'
p324
sg14
S'3.1'
p325
sg15
S'6.5'
p326
sg17
S'0.2'
p327
sg18
g3
sg19
S'PG'
p328
sg21
S'2.0'
p329
sg25
S'ABA'
p330
sg27
S'3.6'
p331
sg28
S'.402'
p332
sg30
g3
sg31
S'.777'
p333
sg33
S'3.8'
p334
sg35
S'24'
p335
sg37
S'MNP'
p336
sg39
S'60'
p337
sg40
S'16.9'
p338
sg41
S'16.0'
p339
sg43
S'4.9'
p340
sg45
S'.404'
p341
sg47
S'4.8'
p342
sg49
S'1968-69'
p343
sg51
S'16.2'
p344
sg53
g3
sg54
S'3.8'
p345
sg56
S'6.5'
p346
sg58
S'1589'
p347
sba(isrc.gp1.models.Per36Minutes
Per36Minutes
p348
(dp349
g8
S'1.7'
p350
sg10
S'.000'
p351
sg12
S'0.0'
p352
sg14
S'2.1'
p353
sg15
S'3.1'
p354
sg17
S'0.4'
p355
sg18
g3
sg19
S'PG'
p356
sg21
S'1.0'
p357
sg25
S'ABA'
p358
sg27
S'4.6'
p359
sg28
S'.254'
p360
sg30
g3
sg31
S'.591'
p361
sg33
S'4.2'
p362
sg35
S'25'
p363
sg37
S'TOT'
p364
sg39
S'14'
p365
sg40
S'8.9'
p366
sg41
S'11.9'
p367
sg43
S'4.6'
p368
sg45
S'.263'
p369
sg47
S'2.7'
p370
sg49
S'1969-70'
p371
sg51
S'12.3'
p372
sg53
g3
sg54
S'2.7'
p373
sg56
S'3.1'
p374
sg58
S'173'
p375
sba(isrc.gp1.models.Per36Minutes
Per36Minutes
p376
(dp377
g8
S'1.0'
p378
sg10
S'2.0'
p379
sg12
S'0.0'
p380
sg14
S'4.0'
p381
sg15
S'13.0'
p382
sg17
S'0.0'
p383
sg18
g3
sg19
S'PG'
p384
sg21
S'0.0'
p385
sg25
S'ABA'
p386
sg27
S'6.0'
p387
sg28
S'.154'
p388
sg30
g3
sg31
S'1.0'
p389
sg33
S'2.0'
p390
sg35
S'25'
p391
sg37
S'PTP'
p392
sg39
g64
sg40
g3
sg41
S'.154'
p393
sg43
S'1.000'
p394
sg45
S'2.0'
p395
sg47
S'3.0'
p396
sg49
S'1969-70'
p397
sg51
S'13.0'
p398
sg53
g3
sg54
S'2.0'
p399
sg56
S'2.0'
p400
sg58
S'36'
p401
sba(isrc.gp1.models.Per36Minutes
Per36Minutes
p402
(dp403
g8
S'2.1'
p404
sg10
S'.000'
p405
sg12
S'0.0'
p406
sg14
S'2.1'
p407
sg15
S'3.4'
p408
sg17
S'0.5'
p409
sg18
g3
sg19
S'PG'
p410
sg21
S'1.1'
p411
sg25
S'ABA'
p412
sg27
S'4.7'
p413
sg28
S'.283'
p414
sg30
g3
sg31
S'.550'
p415
sg33
S'4.5'
p416
sg35
S'25'
p417
sg37
S'MMF'
p418
sg39
S'12'
p419
sg40
S'9.7'
p420
sg41
S'11.6'
p421
sg43
S'5.3'
p422
sg45
S'.295'
p423
sg47
S'3.2'
p424
sg49
S'1969-70'
p425
sg51
S'12.1'
p426
sg53
g3
sg54
S'2.9'
p427
sg56
S'3.4'
p428
sg58
S'137'
p429
sbasS'_fromYear'
p430
S'1968'
p431
sS'_url'
p432
S'http://www.basketball-reference.com/players/v/vacenst01.html'
p433
sS'_perGame'
p434
(isrc.gp1.models.PerGame
PerGame
p435
(dp436
g8
S'0.7'
p437
sg10
S'.000'
p438
sg12
S'0.0'
p439
sS'_effectiveFieldGalPercentage'
p440
S'0.9'
p441
sg14
S'0.7'
p442
sg15
S'1.1'
p443
sg17
S'0.2'
p444
sg18
g3
sg19
S'PG'
p445
sg21
S'0.3'
p446
sg25
S'ABA'
p447
sg27
S'1.5'
p448
sg30
g3
sS'_fieldGoalsttempted'
p449
S'.283'
p450
sg31
S'.550'
p451
sg33
S'1.4'
p452
sg35
S'25'
p453
sg37
S'MMF'
p454
sg39
S'12'
p455
sg40
S'3.1'
p456
sg41
S'3.7'
p457
sg43
S'1.7'
p458
sg45
S'.295'
p459
sg47
S'1.0'
p460
sg49
S'1969-70'
p461
sg51
S'3.8'
p462
sg53
g3
sg54
S'.283'
p463
sg56
S'1.1'
p464
sg58
S'11.4'
p465
sbsS'_weight'
p466
S'185'
p467
sS'_dob'
p468
S'15-8-1944'
p469
sS'_salary'
p470
(lp471
sg19
S'G'
p472
sb.