(isrc.gp1.models.Player
Player
p0
(dp1
S'_experience'
p2
V6
p3
sS'_totals'
p4
(lp5
(isrc.gp1.models.Totals
Totals
p6
(dp7
S'_offensiveRebounds'
p8
S'48'
p9
sS'_threePointsAttempted'
p10
S'380'
p11
sS'_fieldGoalsPercentage'
p12
S'.462'
p13
sS'_assist'
p14
S'472'
p15
sS'_threePointsPercentage'
p16
S'.437'
p17
sS'_threePoints'
p18
S'166'
p19
sS'_points'
p20
S'1399'
p21
sS'_position'
p22
S'PG'
p23
sS'_freeThrowsPercentage'
p24
S'.885'
p25
sS'_effectiveFieldGoalPercentage'
p26
S'.535'
p27
sS'_league'
p28
S'NBA'
p29
sS'_steals'
p30
S'152'
p31
sS'_fieldGoalsAttempted'
p32
S'1143'
p33
sS'_personalFouls'
p34
S'252'
p35
sS'_freeThrowsAttempted'
p36
S'200'
p37
sS'_totalRebounds'
p38
S'356'
p39
sS'_age'
p40
S'21'
p41
sS'_team'
p42
S'GSW'
p43
sS'_games'
p44
S'80'
p45
sS'_blocks'
p46
S'19'
p47
sS'_twoPoints'
p48
S'362'
p49
sS'_freeThrows'
p50
S'177'
p51
sS'_twoPointsAttempted'
p52
S'763'
p53
sS'_defensiveRebounds'
p54
S'308'
p55
sS'_season'
p56
S'2009-10'
p57
sS'_fieldGoals'
p58
S'528'
p59
sS'_turnOvers'
p60
S'243'
p61
sS'_twoPointsPercentage'
p62
S'.474'
p63
sS'_minutesPlayed'
p64
S'2896'
p65
sS'_gamesStarted'
p66
S'77'
p67
sba(isrc.gp1.models.Totals
Totals
p68
(dp69
g8
S'52'
p70
sg10
S'342'
p71
sg12
S'.480'
p72
sg14
S'432'
p73
sg16
S'.442'
p74
sg18
S'151'
p75
sg20
S'1373'
p76
sg22
S'PG'
p77
sg24
S'.934'
p78
sg26
S'.551'
p79
sg28
S'NBA'
p80
sg30
S'109'
p81
sg32
S'1053'
p82
sg34
S'233'
p83
sg36
S'227'
p84
sg38
S'286'
p85
sg40
S'22'
p86
sg42
S'GSW'
p87
sg44
S'74'
p88
sg46
S'20'
p89
sg48
S'354'
p90
sg50
S'212'
p91
sg52
S'711'
p92
sg54
S'234'
p93
sg56
S'2010-11'
p94
sg58
S'505'
p95
sg60
S'226'
p96
sg62
S'.498'
p97
sg64
S'2489'
p98
sg66
S'74'
p99
sba(isrc.gp1.models.Totals
Totals
p100
(dp101
g8
S'15'
p102
sg10
S'121'
p103
sg12
S'.490'
p104
sg14
S'138'
p105
sg16
S'.455'
p106
sg18
S'55'
p107
sg20
S'383'
p108
sg22
S'PG'
p109
sg24
S'.809'
p110
sg26
S'.583'
p111
sg28
S'NBA'
p112
sg30
S'39'
p113
sg32
S'296'
p114
sg34
S'62'
p115
sg36
S'47'
p116
sg38
S'88'
p117
sg40
S'23'
p118
sg42
S'GSW'
p119
sg44
S'26'
p120
sg46
S'8'
p121
sg48
S'90'
p122
sg50
S'38'
p123
sg52
S'175'
p124
sg54
S'73'
p125
sg56
S'2011-12'
p126
sg58
S'145'
p127
sg60
S'65'
p128
sg62
S'.514'
p129
sg64
S'732'
p130
sg66
S'23'
p131
sba(isrc.gp1.models.Totals
Totals
p132
(dp133
g8
S'59'
p134
sg10
S'600'
p135
sg12
S'.451'
p136
sg14
S'539'
p137
sg16
S'.453'
p138
sg18
S'272'
p139
sg20
S'1786'
p140
sg22
S'PG'
p141
sg24
S'.900'
p142
sg26
S'.549'
p143
sg28
S'NBA'
p144
sg30
S'126'
p145
sg32
S'1388'
p146
sg34
S'198'
p147
sg36
S'291'
p148
sg38
S'314'
p149
sg40
S'24'
p150
sg42
S'GSW'
p151
sg44
S'78'
p152
sg46
S'12'
p153
sg48
S'354'
p154
sg50
S'262'
p155
sg52
S'788'
p156
sg54
S'255'
p157
sg56
S'2012-13'
p158
sg58
S'626'
p159
sg60
S'240'
p160
sg62
S'.449'
p161
sg64
S'2983'
p162
sg66
S'78'
p163
sba(isrc.gp1.models.Totals
Totals
p164
(dp165
g8
S'46'
p166
sg10
S'615'
p167
sg12
S'.471'
p168
sg14
S'666'
p169
sg16
S'.424'
p170
sg18
S'261'
p171
sg20
S'1873'
p172
sg22
S'PG'
p173
sg24
S'.885'
p174
sg26
S'.566'
p175
sg28
S'NBA'
p176
sg30
S'128'
p177
sg32
S'1383'
p178
sg34
S'194'
p179
sg36
S'348'
p180
sg38
S'334'
p181
sg40
S'25'
p182
sg42
S'GSW'
p183
sg44
S'78'
p184
sg46
S'14'
p185
sg48
S'391'
p186
sg50
S'308'
p187
sg52
S'768'
p188
sg54
S'288'
p189
sg56
S'2013-14'
p190
sg58
S'652'
p191
sg60
S'294'
p192
sg62
S'.509'
p193
sg64
S'2846'
p194
sg66
S'78'
p195
sba(isrc.gp1.models.Totals
Totals
p196
(dp197
g8
S'56'
p198
sg10
S'646'
p199
sg12
S'.487'
p200
sg14
S'619'
p201
sg16
S'.443'
p202
sg18
S'286'
p203
sg20
S'1900'
p204
sg22
S'PG'
p205
sg24
S'.914'
p206
sg26
S'.594'
p207
sg28
S'NBA'
p208
sg30
S'163'
p209
sg32
S'1341'
p210
sg34
S'158'
p211
sg36
S'337'
p212
sg38
S'341'
p213
sg40
S'26'
p214
sg42
S'GSW'
p215
sg44
S'80'
p216
sg46
S'16'
p217
sg48
S'367'
p218
sg50
S'308'
p219
sg52
S'695'
p220
sg54
S'285'
p221
sg56
S'2014-15'
p222
sg58
S'653'
p223
sg60
S'249'
p224
sg62
S'.528'
p225
sg64
S'2613'
p226
sg66
S'80'
p227
sba(isrc.gp1.models.Totals
Totals
p228
(dp229
g8
S'37'
p230
sg10
S'506'
p231
sg12
S'.511'
p232
sg14
S'301'
p233
sg16
S'.458'
p234
sg18
S'232'
p235
sg20
S'1402'
p236
sg22
S'PG'
p237
sg24
S'.911'
p238
sg26
S'.638'
p239
sg28
S'NBA'
p240
sg30
S'102'
p241
sg32
S'914'
p242
sg34
S'95'
p243
sg36
S'259'
p244
sg38
S'247'
p245
sg40
S'27'
p246
sg42
S'GSW'
p247
sg44
S'47'
p248
sg46
S'9'
p249
sg48
S'235'
p250
sg50
S'236'
p251
sg52
S'408'
p252
sg54
S'210'
p253
sg56
S'2015-16'
p254
sg58
S'467'
p255
sg60
S'160'
p256
sg62
S'.576'
p257
sg64
S'1586'
p258
sg66
S'47'
p259
sbasS'_college'
p260
S'Davidson College'
p261
sS'_toYear'
p262
S'2016'
p263
sS'_height'
p264
S'6-3'
p265
sS'_active'
p266
I01
sS'_shootingHand'
p267
VRight
p268
sS'_name'
p269
S'Stephen Curry'
p270
sS'_per100Possessions'
p271
(lp272
(isrc.gp1.models.Per100Possession
Per100Possession
p273
(dp274
g8
S'0.8'
p275
sg10
S'6.3'
p276
sg12
S'.462'
p277
sS'_offensiveRating'
p278
S'107'
p279
sg14
S'7.8'
p280
sg16
S'.437'
p281
sg18
S'2.7'
p282
sg20
S'23.1'
p283
sg22
S'PG'
p284
sS'_defensiveRating'
p285
S'111'
p286
sg24
S'.885'
p287
sg28
S'NBA'
p288
sg30
S'2.5'
p289
sg32
S'18.9'
p290
sg34
S'4.2'
p291
sg36
S'3.3'
p292
sg38
S'5.9'
p293
sg40
S'21'
p294
sg42
S'GSW'
p295
sg44
S'80'
p296
sg46
S'0.3'
p297
sg48
S'6.0'
p298
sg50
S'2.9'
p299
sg52
S'12.6'
p300
sg54
S'5.1'
p301
sg56
S'2009-10'
p302
sg58
S'8.7'
p303
sg60
S'4.0'
p304
sg62
S'.474'
p305
sg64
S'2896'
p306
sg66
S'77'
p307
sba(isrc.gp1.models.Per100Possession
Per100Possession
p308
(dp309
g8
S'1.1'
p310
sg10
S'7.0'
p311
sg12
S'.480'
p312
sg278
S'113'
p313
sg14
S'8.8'
p314
sg16
S'.442'
p315
sg18
S'3.1'
p316
sg20
S'27.9'
p317
sg22
S'PG'
p318
sg285
S'112'
p319
sg24
S'.934'
p320
sg28
S'NBA'
p321
sg30
S'2.2'
p322
sg32
S'21.4'
p323
sg34
S'4.7'
p324
sg36
S'4.6'
p325
sg38
S'5.8'
p326
sg40
S'22'
p327
sg42
S'GSW'
p328
sg44
S'74'
p329
sg46
S'0.4'
p330
sg48
S'7.2'
p331
sg50
S'4.3'
p332
sg52
S'14.5'
p333
sg54
S'4.8'
p334
sg56
S'2010-11'
p335
sg58
S'10.3'
p336
sg60
S'4.6'
p337
sg62
S'.498'
p338
sg64
S'2489'
p339
sg66
S'74'
p340
sba(isrc.gp1.models.Per100Possession
Per100Possession
p341
(dp342
g8
S'1.1'
p343
sg10
S'8.6'
p344
sg12
S'.490'
p345
sg278
S'112'
p346
sg14
S'9.8'
p347
sg16
S'.455'
p348
sg18
S'3.9'
p349
sg20
S'27.2'
p350
sg22
S'PG'
p351
sg285
S'108'
p352
sg24
S'.809'
p353
sg28
S'NBA'
p354
sg30
S'2.8'
p355
sg32
S'21.0'
p356
sg34
S'4.4'
p357
sg36
S'3.3'
p358
sg38
S'6.2'
p359
sg40
S'23'
p360
sg42
S'GSW'
p361
sg44
S'26'
p362
sg46
S'0.6'
p363
sg48
S'6.4'
p364
sg50
S'2.7'
p365
sg52
S'12.4'
p366
sg54
S'5.2'
p367
sg56
S'2011-12'
p368
sg58
S'10.3'
p369
sg60
S'4.6'
p370
sg62
S'.514'
p371
sg64
S'732'
p372
sg66
S'23'
p373
sba(isrc.gp1.models.Per100Possession
Per100Possession
p374
(dp375
g8
S'1.0'
p376
sg10
S'10.2'
p377
sg12
S'.451'
p378
sg278
S'115'
p379
sg14
S'9.2'
p380
sg16
S'.453'
p381
sg18
S'4.6'
p382
sg20
S'30.4'
p383
sg22
S'PG'
p384
sg285
S'107'
p385
sg24
S'.900'
p386
sg28
S'NBA'
p387
sg30
S'2.1'
p388
sg32
S'23.6'
p389
sg34
S'3.4'
p390
sg36
S'5.0'
p391
sg38
S'5.3'
p392
sg40
S'24'
p393
sg42
S'GSW'
p394
sg44
S'78'
p395
sg46
S'0.2'
p396
sg48
S'6.0'
p397
sg50
S'4.5'
p398
sg52
S'13.4'
p399
sg54
S'4.3'
p400
sg56
S'2012-13'
p401
sg58
S'10.7'
p402
sg60
S'4.1'
p403
sg62
S'.449'
p404
sg64
S'2983'
p405
sg66
S'78'
p406
sba(isrc.gp1.models.Per100Possession
Per100Possession
p407
(dp408
g8
S'0.8'
p409
sg10
S'10.8'
p410
sg12
S'.471'
p411
sg278
S'117'
p412
sg14
S'11.7'
p413
sg16
S'.424'
p414
sg18
S'4.6'
p415
sg20
S'32.8'
p416
sg22
S'PG'
p417
sg285
S'104'
p418
sg24
S'.885'
p419
sg28
S'NBA'
p420
sg30
S'2.2'
p421
sg32
S'24.2'
p422
sg34
S'3.4'
p423
sg36
S'6.1'
p424
sg38
S'5.9'
p425
sg40
S'25'
p426
sg42
S'GSW'
p427
sg44
S'78'
p428
sg46
S'0.2'
p429
sg48
S'6.9'
p430
sg50
S'5.4'
p431
sg52
S'13.5'
p432
sg54
S'5.0'
p433
sg56
S'2013-14'
p434
sg58
S'11.4'
p435
sg60
S'5.2'
p436
sg62
S'.509'
p437
sg64
S'2846'
p438
sg66
S'78'
p439
sba(isrc.gp1.models.Per100Possession
Per100Possession
p440
(dp441
g8
S'1.0'
p442
sg10
S'12.1'
p443
sg12
S'.487'
p444
sg278
S'122'
p445
sg14
S'11.6'
p446
sg16
S'.443'
p447
sg18
S'5.3'
p448
sg20
S'35.5'
p449
sg22
S'PG'
p450
sg285
S'101'
p451
sg24
S'.914'
p452
sg28
S'NBA'
p453
sg30
S'3.0'
p454
sg32
S'25.1'
p455
sg34
S'3.0'
p456
sg36
S'6.3'
p457
sg38
S'6.4'
p458
sg40
S'26'
p459
sg42
S'GSW'
p460
sg44
S'80'
p461
sg46
S'0.3'
p462
sg48
S'6.9'
p463
sg50
S'5.8'
p464
sg52
S'13.0'
p465
sg54
S'5.3'
p466
sg56
S'2014-15'
p467
sg58
S'12.2'
p468
sg60
S'4.7'
p469
sg62
S'.528'
p470
sg64
S'2613'
p471
sg66
S'80'
p472
sba(isrc.gp1.models.Per100Possession
Per100Possession
p473
(dp474
g8
S'1.1'
p475
sg10
S'15.4'
p476
sg12
S'.511'
p477
sg278
S'126'
p478
sg14
S'9.1'
p479
sg16
S'.458'
p480
sg18
S'7.1'
p481
sg20
S'42.6'
p482
sg22
S'PG'
p483
sg285
S'101'
p484
sg24
S'.911'
p485
sg28
S'NBA'
p486
sg30
S'3.1'
p487
sg32
S'27.8'
p488
sg34
S'2.9'
p489
sg36
S'7.9'
p490
sg38
S'7.5'
p491
sg40
S'27'
p492
sg42
S'GSW'
p493
sg44
S'47'
p494
sg46
S'0.3'
p495
sg48
S'7.1'
p496
sg50
S'7.2'
p497
sg52
S'12.4'
p498
sg54
S'6.4'
p499
sg56
S'2015-16'
p500
sg58
S'14.2'
p501
sg60
S'4.9'
p502
sg62
S'.576'
p503
sg64
S'1586'
p504
sg66
S'47'
p505
sbasS'_advanced'
p506
(lp507
(isrc.gp1.models.Advanced
Advanced
p508
(dp509
S'_offensiveReboundPercentage'
p510
S'1.8'
p511
sS'_turnOverPercentage'
p512
S'16.5'
p513
sS'_winSharesPer48Minutes'
p514
S'.077'
p515
sS'_stealPercentage'
p516
S'2.5'
p517
sS'_usagePercentage'
p518
S'21.8'
p519
sS'_totalReboundsPercentage'
p520
S'6.8'
p521
sS'_defensiveBoxPlusMinus'
p522
S'-0.7'
p523
sg22
S'PG'
p524
sS'_valueOverReplacementPlayer'
p525
S'2.2'
p526
sS'_trueShootingPercentage'
p527
S'.568'
p528
sS'_defensiveReboundPercentage'
p529
S'12.0'
p530
sS'_freeThrowsAttempRate'
p531
S'.175'
p532
sS'_threePointsAttempRate'
p533
S'.332'
p534
sg28
S'NBA'
p535
sS'_offensiveBoxPlusMinues'
p536
S'1.8'
p537
sS'_assistPercentage'
p538
S'24.6'
p539
sS'_defensiveWinShares'
p540
S'1.6'
p541
sg40
S'21'
p542
sg42
S'GSW'
p543
sg44
S'80'
p544
sS'_blockPercentage'
p545
S'0.5'
p546
sS'_playerEfficiencyRating'
p547
S'16.3'
p548
sS'_offensiveWinShares'
p549
S'3.0'
p550
sg64
S'2896'
p551
sS'_boxPlusMinus'
p552
S'1.0'
p553
sg56
S'2009-10'
p554
sS'_winShares'
p555
S'4.7'
p556
sba(isrc.gp1.models.Advanced
Advanced
p557
(dp558
g510
S'2.3'
p559
sg512
S'16.4'
p560
sg514
S'.128'
p561
sg516
S'2.2'
p562
sg518
S'24.4'
p563
sg520
S'6.5'
p564
sg522
S'-1.6'
p565
sg22
S'PG'
p566
sg525
S'2.4'
p567
sg527
S'.595'
p568
sg529
S'10.9'
p569
sg531
S'.216'
p570
sg533
S'.325'
p571
sg28
S'NBA'
p572
sg536
S'3.5'
p573
sg538
S'28.1'
p574
sg540
S'1.3'
p575
sg40
S'22'
p576
sg42
S'GSW'
p577
sg44
S'74'
p578
sg545
S'0.6'
p579
sg547
S'19.4'
p580
sg549
S'5.4'
p581
sg64
S'2489'
p582
sg552
S'1.9'
p583
sg56
S'2010-11'
p584
sg555
S'6.6'
p585
sba(isrc.gp1.models.Advanced
Advanced
p586
(dp587
g510
S'2.3'
p588
sg512
S'17.0'
p589
sg514
S'.144'
p590
sg516
S'2.8'
p591
sg518
S'24.0'
p592
sg520
S'6.8'
p593
sg522
S'-1.3'
p594
sg22
S'PG'
p595
sg525
S'1.0'
p596
sg527
S'.605'
p597
sg529
S'11.3'
p598
sg531
S'.159'
p599
sg533
S'.409'
p600
sg28
S'NBA'
p601
sg536
S'4.7'
p602
sg538
S'32.3'
p603
sg540
S'0.4'
p604
sg40
S'23'
p605
sg42
S'GSW'
p606
sg44
S'26'
p607
sg545
S'0.8'
p608
sg547
S'21.2'
p609
sg549
S'1.8'
p610
sg64
S'732'
p611
sg552
S'3.4'
p612
sg56
S'2011-12'
p613
sg555
S'2.2'
p614
sba(isrc.gp1.models.Advanced
Advanced
p615
(dp616
g510
S'2.3'
p617
sg512
S'13.7'
p618
sg514
S'.180'
p619
sg516
S'2.1'
p620
sg518
S'26.4'
p621
sg520
S'5.8'
p622
sg522
S'-0.9'
p623
sg22
S'PG'
p624
sg525
S'5.6'
p625
sg527
S'.589'
p626
sg529
S'9.1'
p627
sg531
S'.210'
p628
sg533
S'.432'
p629
sg28
S'NBA'
p630
sg536
S'6.3'
p631
sg538
S'31.1'
p632
sg540
S'2.8'
p633
sg40
S'24'
p634
sg42
S'GSW'
p635
sg44
S'78'
p636
sg545
S'0.3'
p637
sg547
S'21.3'
p638
sg549
S'8.4'
p639
sg64
S'2983'
p640
sg552
S'5.4'
p641
sg56
S'2012-13'
p642
sg555
S'11.2'
p643
sba(isrc.gp1.models.Advanced
Advanced
p644
(dp645
g510
S'1.8'
p646
sg512
S'16.1'
p647
sg514
S'.225'
p648
sg516
S'2.2'
p649
sg518
S'28.3'
p650
sg520
S'6.4'
p651
sg522
S'0.0'
p652
sg22
S'PG'
p653
sg525
S'6.7'
p654
sg527
S'.610'
p655
sg529
S'10.9'
p656
sg531
S'.252'
p657
sg533
S'.445'
p658
sg28
S'NBA'
p659
sg536
S'7.4'
p660
sg538
S'39.9'
p661
sg540
S'4.0'
p662
sg40
S'25'
p663
sg42
S'GSW'
p664
sg44
S'78'
p665
sg545
S'0.4'
p666
sg547
S'24.1'
p667
sg549
S'9.3'
p668
sg64
S'2846'
p669
sg552
S'7.4'
p670
sg56
S'2013-14'
p671
sg555
S'13.4'
p672
sba(isrc.gp1.models.Advanced
Advanced
p673
(dp674
g510
S'2.4'
p675
sg512
S'14.3'
p676
sg514
S'.288'
p677
sg516
S'3.0'
p678
sg518
S'28.9'
p679
sg520
S'7.0'
p680
sg522
S'0.3'
p681
sg22
S'PG'
p682
sg525
S'7.9'
p683
sg527
S'.638'
p684
sg529
S'11.4'
p685
sg531
S'.251'
p686
sg533
S'.482'
p687
sg28
S'NBA'
p688
sg536
S'9.6'
p689
sg538
S'38.6'
p690
sg540
S'4.1'
p691
sg40
S'26'
p692
sg42
S'GSW'
p693
sg44
S'80'
p694
sg545
S'0.5'
p695
sg547
S'28.0'
p696
sg549
S'11.5'
p697
sg64
S'2613'
p698
sg552
S'9.9'
p699
sg56
S'2014-15'
p700
sg555
S'15.7'
p701
sba(isrc.gp1.models.Advanced
Advanced
p702
(dp703
g510
S'2.7'
p704
sg512
S'13.5'
p705
sg514
S'.338'
p706
sg516
S'3.1'
p707
sg518
S'32.3'
p708
sg520
S'8.4'
p709
sg522
S'0.1'
p710
sg22
S'PG'
p711
sg525
S'5.8'
p712
sg527
S'.682'
p713
sg529
S'13.3'
p714
sg531
S'.283'
p715
sg533
S'.554'
p716
sg28
S'NBA'
p717
sg536
S'12.4'
p718
sg538
S'32.4'
p719
sg540
S'2.5'
p720
sg40
S'27'
p721
sg42
S'GSW'
p722
sg44
S'47'
p723
sg545
S'0.4'
p724
sg547
S'32.1'
p725
sg549
S'8.6'
p726
sg64
S'1586'
p727
sg552
S'12.5'
p728
sg56
S'2015-16'
p729
sg555
S'11.2'
p730
sbasS'_per36Minutes'
p731
(lp732
(isrc.gp1.models.Per36Minutes
Per36Minutes
p733
(dp734
g8
S'0.6'
p735
sg10
S'4.7'
p736
sg12
S'.462'
p737
sg14
S'5.9'
p738
sg16
S'.437'
p739
sg18
S'2.1'
p740
sg20
S'17.4'
p741
sg22
S'PG'
p742
sg24
S'.885'
p743
sg28
S'NBA'
p744
sg30
S'1.9'
p745
sg32
S'14.2'
p746
sg34
S'3.1'
p747
sg36
S'2.5'
p748
sg38
S'4.4'
p749
sg40
S'21'
p750
sg42
S'GSW'
p751
sg44
S'80'
p752
sg46
S'0.2'
p753
sg48
S'4.5'
p754
sg50
S'2.2'
p755
sg52
S'9.5'
p756
sg54
S'3.8'
p757
sg56
S'2009-10'
p758
sg58
S'6.6'
p759
sg60
S'3.0'
p760
sg62
S'.474'
p761
sg64
S'2896'
p762
sg66
S'77'
p763
sba(isrc.gp1.models.Per36Minutes
Per36Minutes
p764
(dp765
g8
S'0.8'
p766
sg10
S'4.9'
p767
sg12
S'.480'
p768
sg14
S'6.2'
p769
sg16
S'.442'
p770
sg18
S'2.2'
p771
sg20
S'19.9'
p772
sg22
S'PG'
p773
sg24
S'.934'
p774
sg28
S'NBA'
p775
sg30
S'1.6'
p776
sg32
S'15.2'
p777
sg34
S'3.4'
p778
sg36
S'3.3'
p779
sg38
S'4.1'
p780
sg40
S'22'
p781
sg42
S'GSW'
p782
sg44
S'74'
p783
sg46
S'0.3'
p784
sg48
S'5.1'
p785
sg50
S'3.1'
p786
sg52
S'10.3'
p787
sg54
S'3.4'
p788
sg56
S'2010-11'
p789
sg58
S'7.3'
p790
sg60
S'3.3'
p791
sg62
S'.498'
p792
sg64
S'2489'
p793
sg66
S'74'
p794
sba(isrc.gp1.models.Per36Minutes
Per36Minutes
p795
(dp796
g8
S'0.7'
p797
sg10
S'6.0'
p798
sg12
S'.490'
p799
sg14
S'6.8'
p800
sg16
S'.455'
p801
sg18
S'2.7'
p802
sg20
S'18.8'
p803
sg22
S'PG'
p804
sg24
S'.809'
p805
sg28
S'NBA'
p806
sg30
S'1.9'
p807
sg32
S'14.6'
p808
sg34
S'3.0'
p809
sg36
S'2.3'
p810
sg38
S'4.3'
p811
sg40
S'23'
p812
sg42
S'GSW'
p813
sg44
S'26'
p814
sg46
S'0.4'
p815
sg48
S'4.4'
p816
sg50
S'1.9'
p817
sg52
S'8.6'
p818
sg54
S'3.6'
p819
sg56
S'2011-12'
p820
sg58
S'7.1'
p821
sg60
S'3.2'
p822
sg62
S'.514'
p823
sg64
S'732'
p824
sg66
S'23'
p825
sba(isrc.gp1.models.Per36Minutes
Per36Minutes
p826
(dp827
g8
S'0.7'
p828
sg10
S'7.2'
p829
sg12
S'.451'
p830
sg14
S'6.5'
p831
sg16
S'.453'
p832
sg18
S'3.3'
p833
sg20
S'21.6'
p834
sg22
S'PG'
p835
sg24
S'.900'
p836
sg28
S'NBA'
p837
sg30
S'1.5'
p838
sg32
S'16.8'
p839
sg34
S'2.4'
p840
sg36
S'3.5'
p841
sg38
S'3.8'
p842
sg40
S'24'
p843
sg42
S'GSW'
p844
sg44
S'78'
p845
sg46
S'0.1'
p846
sg48
S'4.3'
p847
sg50
S'3.2'
p848
sg52
S'9.5'
p849
sg54
S'3.1'
p850
sg56
S'2012-13'
p851
sg58
S'7.6'
p852
sg60
S'2.9'
p853
sg62
S'.449'
p854
sg64
S'2983'
p855
sg66
S'78'
p856
sba(isrc.gp1.models.Per36Minutes
Per36Minutes
p857
(dp858
g8
S'0.6'
p859
sg10
S'7.8'
p860
sg12
S'.471'
p861
sg14
S'8.4'
p862
sg16
S'.424'
p863
sg18
S'3.3'
p864
sg20
S'23.7'
p865
sg22
S'PG'
p866
sg24
S'.885'
p867
sg28
S'NBA'
p868
sg30
S'1.6'
p869
sg32
S'17.5'
p870
sg34
S'2.5'
p871
sg36
S'4.4'
p872
sg38
S'4.2'
p873
sg40
S'25'
p874
sg42
S'GSW'
p875
sg44
S'78'
p876
sg46
S'0.2'
p877
sg48
S'4.9'
p878
sg50
S'3.9'
p879
sg52
S'9.7'
p880
sg54
S'3.6'
p881
sg56
S'2013-14'
p882
sg58
S'8.2'
p883
sg60
S'3.7'
p884
sg62
S'.509'
p885
sg64
S'2846'
p886
sg66
S'78'
p887
sba(isrc.gp1.models.Per36Minutes
Per36Minutes
p888
(dp889
g8
S'0.8'
p890
sg10
S'8.9'
p891
sg12
S'.487'
p892
sg14
S'8.5'
p893
sg16
S'.443'
p894
sg18
S'3.9'
p895
sg20
S'26.2'
p896
sg22
S'PG'
p897
sg24
S'.914'
p898
sg28
S'NBA'
p899
sg30
S'2.2'
p900
sg32
S'18.5'
p901
sg34
S'2.2'
p902
sg36
S'4.6'
p903
sg38
S'4.7'
p904
sg40
S'26'
p905
sg42
S'GSW'
p906
sg44
S'80'
p907
sg46
S'0.2'
p908
sg48
S'5.1'
p909
sg50
S'4.2'
p910
sg52
S'9.6'
p911
sg54
S'3.9'
p912
sg56
S'2014-15'
p913
sg58
S'9.0'
p914
sg60
S'3.4'
p915
sg62
S'.528'
p916
sg64
S'2613'
p917
sg66
S'80'
p918
sba(isrc.gp1.models.Per36Minutes
Per36Minutes
p919
(dp920
g8
S'0.8'
p921
sg10
S'11.5'
p922
sg12
S'.511'
p923
sg14
S'6.8'
p924
sg16
S'.458'
p925
sg18
S'5.3'
p926
sg20
S'31.8'
p927
sg22
S'PG'
p928
sg24
S'.911'
p929
sg28
S'NBA'
p930
sg30
S'2.3'
p931
sg32
S'20.7'
p932
sg34
S'2.2'
p933
sg36
S'5.9'
p934
sg38
S'5.6'
p935
sg40
S'27'
p936
sg42
S'GSW'
p937
sg44
S'47'
p938
sg46
S'0.2'
p939
sg48
S'5.3'
p940
sg50
S'5.4'
p941
sg52
S'9.3'
p942
sg54
S'4.8'
p943
sg56
S'2015-16'
p944
sg58
S'10.6'
p945
sg60
S'3.6'
p946
sg62
S'.576'
p947
sg64
S'1586'
p948
sg66
S'47'
p949
sbasS'_fromYear'
p950
S'2010'
p951
sS'_url'
p952
S'http://www.basketball-reference.com/players/c/curryst01.html'
p953
sS'_perGame'
p954
(isrc.gp1.models.PerGame
PerGame
p955
(dp956
g8
S'0.8'
p957
sg10
S'10.8'
p958
sg12
S'.511'
p959
sS'_effectiveFieldGalPercentage'
p960
S'.638'
p961
sg14
S'6.4'
p962
sg16
S'.458'
p963
sg18
S'4.9'
p964
sg20
S'29.8'
p965
sg22
S'PG'
p966
sg24
S'.911'
p967
sg28
S'NBA'
p968
sg30
S'2.2'
p969
sg34
S'2.0'
p970
sS'_fieldGoalsttempted'
p971
S'19.4'
p972
sg36
S'5.5'
p973
sg38
S'5.3'
p974
sg40
S'27'
p975
sg42
S'GSW'
p976
sg44
S'47'
p977
sg46
S'0.2'
p978
sg48
S'5.0'
p979
sg50
S'5.0'
p980
sg52
S'8.7'
p981
sg54
S'4.5'
p982
sg56
S'2015-16'
p983
sg58
S'9.9'
p984
sg60
S'3.4'
p985
sg62
S'.576'
p986
sg64
S'33.7'
p987
sg66
S'47'
p988
sbsS'_weight'
p989
S'185'
p990
sS'_dob'
p991
S'14-3-1988'
p992
sS'_salary'
p993
(lp994
(isrc.gp1.models.Salary
Salary
p995
(dp996
g42
S'Golden State Warriors'
p997
sg28
S'NBA'
p998
sg993
S'$2,710,560'
p999
sg56
S'2009-10'
p1000
sba(isrc.gp1.models.Salary
Salary
p1001
(dp1002
g42
S'Golden State Warriors'
p1003
sg28
S'NBA'
p1004
sg993
S'$2,913,840'
p1005
sg56
S'2010-11'
p1006
sba(isrc.gp1.models.Salary
Salary
p1007
(dp1008
g42
S'Golden State Warriors'
p1009
sg28
S'NBA'
p1010
sg993
S'$3,117,120'
p1011
sg56
S'2011-12'
p1012
sba(isrc.gp1.models.Salary
Salary
p1013
(dp1014
g42
S'Golden State Warriors'
p1015
sg28
S'NBA'
p1016
sg993
S'$3,958,742'
p1017
sg56
S'2012-13'
p1018
sba(isrc.gp1.models.Salary
Salary
p1019
(dp1020
g42
S'Golden State Warriors'
p1021
sg28
S'NBA'
p1022
sg993
S'$9,887,642'
p1023
sg56
S'2013-14'
p1024
sba(isrc.gp1.models.Salary
Salary
p1025
(dp1026
g42
S'Golden State Warriors'
p1027
sg28
S'NBA'
p1028
sg993
S'$10,629,213'
p1029
sg56
S'2014-15'
p1030
sbasg22
S'G'
p1031
sb.