(isrc.gp1.models.Player
Player
p0
(dp1
S'_experience'
p2
V1 year
p3
sS'_totals'
p4
(lp5
(isrc.gp1.models.Totals
Totals
p6
(dp7
S'_offensiveRebounds'
p8
S'1'
p9
sS'_threePointsAttempted'
p10
S'0'
p11
sS'_fieldGoalsPercentage'
p12
S'.429'
p13
sS'_assist'
p14
g11
sS'_threePointsPercentage'
p15
S'NA'
p16
sS'_threePoints'
p17
g11
sS'_points'
p18
S'7'
p19
sS'_position'
p20
S'SG'
p21
sS'_freeThrowsPercentage'
p22
S'1.000'
p23
sS'_effectiveFieldGoalPercentage'
p24
S'.429'
p25
sS'_league'
p26
S'NBA'
p27
sS'_steals'
p28
g11
sS'_fieldGoalsAttempted'
p29
g19
sS'_personalFouls'
p30
g11
sS'_freeThrowsAttempted'
p31
g9
sS'_totalRebounds'
p32
S'5'
p33
sS'_age'
p34
S'23'
p35
sS'_team'
p36
S'MIL'
p37
sS'_games'
p38
S'3'
p39
sS'_blocks'
p40
g11
sS'_twoPoints'
p41
g39
sS'_freeThrows'
p42
g9
sS'_twoPointsAttempted'
p43
g19
sS'_defensiveRebounds'
p44
S'4'
p45
sS'_season'
p46
S'2013-14'
p47
sS'_fieldGoals'
p48
g39
sS'_turnOvers'
p49
g11
sS'_twoPointsPercentage'
p50
S'.429'
p51
sS'_minutesPlayed'
p52
S'15'
p53
sS'_gamesStarted'
p54
g11
sbasS'_college'
p55
S'University of Memphis'
p56
sS'_toYear'
p57
S'2014'
p58
sS'_height'
p59
S'6-5'
p60
sS'_active'
p61
I01
sS'_shootingHand'
p62
VRight
p63
sS'_name'
p64
S'D.J. Stephens'
p65
sS'_per100Possessions'
p66
(lp67
(isrc.gp1.models.Per100Possession
Per100Possession
p68
(dp69
g8
S'3.5'
p70
sg10
S'0.0'
p71
sg12
S'.429'
p72
sS'_offensiveRating'
p73
S'106'
p74
sg14
S'0.0'
p75
sg15
g16
sg17
S'0.0'
p76
sg18
S'24.4'
p77
sg20
S'SG'
p78
sS'_defensiveRating'
p79
S'111'
p80
sg22
S'1.000'
p81
sg26
S'NBA'
p82
sg28
S'0.0'
p83
sg29
S'24.4'
p84
sg30
S'0.0'
p85
sg31
S'3.5'
p86
sg32
S'17.4'
p87
sg34
S'23'
p88
sg36
S'MIL'
p89
sg38
g39
sg40
S'0.0'
p90
sg41
S'10.5'
p91
sg42
S'3.5'
p92
sg43
S'24.4'
p93
sg44
S'13.9'
p94
sg46
S'2013-14'
p95
sg48
S'10.5'
p96
sg49
S'0.0'
p97
sg50
S'.429'
p98
sg52
S'15'
p99
sg54
g11
sbasS'_advanced'
p100
(lp101
(isrc.gp1.models.Advanced
Advanced
p102
(dp103
S'_offensiveReboundPercentage'
p104
S'7.4'
p105
sS'_turnOverPercentage'
p106
S'0.0'
p107
sS'_winSharesPer48Minutes'
p108
S'.067'
p109
sS'_stealPercentage'
p110
S'0.0'
p111
sS'_usagePercentage'
p112
S'22.4'
p113
sS'_totalReboundsPercentage'
p114
S'19.1'
p115
sS'_defensiveBoxPlusMinus'
p116
S'-10.1'
p117
sg20
S'SG'
p118
sS'_valueOverReplacementPlayer'
p119
S'-0.1'
p120
sS'_trueShootingPercentage'
p121
S'.470'
p122
sS'_defensiveReboundPercentage'
p123
S'31.6'
p124
sS'_freeThrowsAttempRate'
p125
S'.143'
p126
sS'_threePointsAttempRate'
p127
S'.000'
p128
sg26
S'NBA'
p129
sS'_offensiveBoxPlusMinues'
p130
S'-7.6'
p131
sS'_assistPercentage'
p132
S'0.0'
p133
sS'_defensiveWinShares'
p134
S'0.0'
p135
sg34
S'23'
p136
sg36
S'MIL'
p137
sg38
g39
sS'_blockPercentage'
p138
S'0.0'
p139
sS'_playerEfficiencyRating'
p140
S'16.1'
p141
sS'_offensiveWinShares'
p142
S'0.0'
p143
sg52
S'15'
p144
sS'_boxPlusMinus'
p145
S'-17.7'
p146
sg46
S'2013-14'
p147
sS'_winShares'
p148
S'0.0'
p149
sbasS'_per36Minutes'
p150
(lp151
(isrc.gp1.models.Per36Minutes
Per36Minutes
p152
(dp153
g8
S'2.4'
p154
sg10
S'0.0'
p155
sg12
S'.429'
p156
sg14
S'0.0'
p157
sg15
g16
sg17
S'0.0'
p158
sg18
S'16.8'
p159
sg20
S'SG'
p160
sg22
S'1.000'
p161
sg26
S'NBA'
p162
sg28
S'0.0'
p163
sg29
S'16.8'
p164
sg30
S'0.0'
p165
sg31
S'2.4'
p166
sg32
S'12.0'
p167
sg34
S'23'
p168
sg36
S'MIL'
p169
sg38
g39
sg40
S'0.0'
p170
sg41
S'7.2'
p171
sg42
S'2.4'
p172
sg43
S'16.8'
p173
sg44
S'9.6'
p174
sg46
S'2013-14'
p175
sg48
S'7.2'
p176
sg49
S'0.0'
p177
sg50
S'.429'
p178
sg52
S'15'
p179
sg54
g11
sbasS'_fromYear'
p180
S'2014'
p181
sS'_url'
p182
S'http://www.basketball-reference.com/players/s/stephdj01.html'
p183
sS'_perGame'
p184
(isrc.gp1.models.PerGame
PerGame
p185
(dp186
g8
S'0.3'
p187
sg10
S'0.0'
p188
sg12
S'.429'
p189
sS'_effectiveFieldGalPercentage'
p190
S'.429'
p191
sg14
S'0.0'
p192
sg15
g16
sg17
S'0.0'
p193
sg18
S'2.3'
p194
sg20
S'SG'
p195
sg22
S'1.000'
p196
sg26
S'NBA'
p197
sg28
S'0.0'
p198
sg30
S'0.0'
p199
sS'_fieldGoalsttempted'
p200
S'2.3'
p201
sg31
S'0.3'
p202
sg32
S'1.7'
p203
sg34
S'23'
p204
sg36
S'MIL'
p205
sg38
g39
sg40
S'0.0'
p206
sg41
S'1.0'
p207
sg42
S'0.3'
p208
sg43
S'2.3'
p209
sg44
S'1.3'
p210
sg46
S'2013-14'
p211
sg48
S'1.0'
p212
sg49
S'0.0'
p213
sg50
S'.429'
p214
sg52
S'5.0'
p215
sg54
g11
sbsS'_weight'
p216
S'190'
p217
sS'_dob'
p218
S'19-12-1990'
p219
sS'_salary'
p220
(lp221
sg20
S'G-F'
p222
sb.