(isrc.gp1.models.Player
Player
p0
(dp1
S'_experience'
p2
S'NA'
p3
sS'_totals'
p4
(lp5
(isrc.gp1.models.Totals
Totals
p6
(dp7
S'_offensiveRebounds'
p8
S'7'
p9
sS'_threePointsAttempted'
p10
S'3'
p11
sS'_fieldGoalsPercentage'
p12
S'.389'
p13
sS'_assist'
p14
S'6'
p15
sS'_threePointsPercentage'
p16
S'.333'
p17
sS'_threePoints'
p18
S'1'
p19
sS'_points'
p20
S'19'
p21
sS'_position'
p22
S'PF'
p23
sS'_freeThrowsPercentage'
p24
S'.571'
p25
sS'_effectiveFieldGoalPercentage'
p26
S'.417'
p27
sS'_league'
p28
S'NBA'
p29
sS'_steals'
p30
S'2'
p31
sS'_fieldGoalsAttempted'
p32
S'18'
p33
sS'_personalFouls'
p34
S'14'
p35
sS'_freeThrowsAttempted'
p36
g9
sS'_totalRebounds'
p37
S'21'
p38
sS'_age'
p39
S'24'
p40
sS'_team'
p41
S'CHI'
p42
sS'_games'
p43
S'12'
p44
sS'_blocks'
p45
g19
sS'_twoPoints'
p46
g15
sS'_freeThrows'
p47
S'4'
p48
sS'_twoPointsAttempted'
p49
S'15'
p50
sS'_defensiveRebounds'
p51
S'14'
p52
sS'_season'
p53
S'2000-01'
p54
sS'_fieldGoals'
p55
g9
sS'_turnOvers'
p56
S'8'
p57
sS'_twoPointsPercentage'
p58
S'.400'
p59
sS'_minutesPlayed'
p60
S'133'
p61
sS'_gamesStarted'
p62
S'0'
p63
sba(isrc.gp1.models.Totals
Totals
p64
(dp65
g8
g19
sg10
g63
sg12
S'.200'
p66
sg14
S'5'
p67
sg16
g3
sg18
g63
sg20
g67
sg22
S'SF'
p68
sg24
S'.500'
p69
sg26
S'.200'
p70
sg28
S'NBA'
p71
sg30
g19
sg32
S'10'
p72
sg34
S'10'
p73
sg36
g31
sg37
g67
sg39
S'25'
p74
sg41
S'NJN'
p75
sg43
S'9'
p76
sg45
g31
sg46
g31
sg47
g19
sg49
S'10'
p77
sg51
g48
sg53
S'2001-02'
p78
sg55
g31
sg56
g11
sg58
S'.200'
p79
sg60
S'50'
p80
sg62
g63
sbasS'_college'
p81
S'Princeton University'
p82
sS'_toYear'
p83
S'2002'
p84
sS'_height'
p85
S'6-10'
p86
sS'_active'
p87
I00
sS'_shootingHand'
p88
VRight
p89
sS'_name'
p90
S'Steve Goodrich'
p91
sS'_per100Possessions'
p92
(lp93
(isrc.gp1.models.Per100Possession
Per100Possession
p94
(dp95
g8
S'2.8'
p96
sg10
S'1.2'
p97
sg12
S'.389'
p98
sS'_offensiveRating'
p99
S'82'
p100
sg14
S'2.4'
p101
sg16
S'.333'
p102
sg18
S'0.4'
p103
sg20
S'7.7'
p104
sg22
S'PF'
p105
sS'_defensiveRating'
p106
S'110'
p107
sg24
S'.571'
p108
sg28
S'NBA'
p109
sg30
S'0.8'
p110
sg32
S'7.3'
p111
sg34
S'5.7'
p112
sg36
S'2.8'
p113
sg37
S'8.5'
p114
sg39
S'24'
p115
sg41
S'CHI'
p116
sg43
S'12'
p117
sg45
S'0.4'
p118
sg46
S'2.4'
p119
sg47
S'1.6'
p120
sg49
S'6.1'
p121
sg51
S'5.7'
p122
sg53
S'2000-01'
p123
sg55
S'2.8'
p124
sg56
S'3.2'
p125
sg58
S'.400'
p126
sg60
S'133'
p127
sg62
g63
sba(isrc.gp1.models.Per100Possession
Per100Possession
p128
(dp129
g8
S'1.0'
p130
sg10
S'0.0'
p131
sg12
S'.200'
p132
sg99
S'59'
p133
sg14
S'5.2'
p134
sg16
g3
sg18
S'0.0'
p135
sg20
S'5.2'
p136
sg22
S'SF'
p137
sg106
S'102'
p138
sg24
S'.500'
p139
sg28
S'NBA'
p140
sg30
S'1.0'
p141
sg32
S'10.5'
p142
sg34
S'10.5'
p143
sg36
S'2.1'
p144
sg37
S'5.2'
p145
sg39
S'25'
p146
sg41
S'NJN'
p147
sg43
g76
sg45
S'2.1'
p148
sg46
S'2.1'
p149
sg47
S'1.0'
p150
sg49
S'10.5'
p151
sg51
S'4.2'
p152
sg53
S'2001-02'
p153
sg55
S'2.1'
p154
sg56
S'3.1'
p155
sg58
S'.200'
p156
sg60
S'50'
p157
sg62
g63
sbasS'_advanced'
p158
(lp159
(isrc.gp1.models.Advanced
Advanced
p160
(dp161
S'_offensiveReboundPercentage'
p162
S'6.0'
p163
sS'_turnOverPercentage'
p164
S'27.5'
p165
sS'_winSharesPer48Minutes'
p166
S'-0.038'
p167
sS'_stealPercentage'
p168
S'0.8'
p169
sS'_usagePercentage'
p170
S'10.2'
p171
sS'_totalReboundsPercentage'
p172
S'9.4'
p173
sS'_defensiveBoxPlusMinus'
p174
S'-1.6'
p175
sg22
S'PF'
p176
sS'_valueOverReplacementPlayer'
p177
S'-0.2'
p178
sS'_trueShootingPercentage'
p179
S'.451'
p180
sS'_defensiveReboundPercentage'
p181
S'13.0'
p182
sS'_freeThrowsAttempRate'
p183
S'.389'
p184
sS'_threePointsAttempRate'
p185
S'.167'
p186
sg28
S'NBA'
p187
sS'_offensiveBoxPlusMinues'
p188
S'-6.0'
p189
sS'_assistPercentage'
p190
S'7.1'
p191
sS'_defensiveWinShares'
p192
S'0.0'
p193
sg39
S'24'
p194
sg41
S'CHI'
p195
sg43
S'12'
p196
sS'_blockPercentage'
p197
S'0.6'
p198
sS'_playerEfficiencyRating'
p199
S'4.1'
p200
sS'_offensiveWinShares'
p201
S'-0.1'
p202
sg60
S'133'
p203
sS'_boxPlusMinus'
p204
S'-7.5'
p205
sg53
S'2000-01'
p206
sS'_winShares'
p207
S'-0.1'
p208
sba(isrc.gp1.models.Advanced
Advanced
p209
(dp210
g162
S'2.2'
p211
sg164
S'21.6'
p212
sg166
S'-0.078'
p213
sg168
S'1.0'
p214
sg170
S'12.4'
p215
sg172
S'5.6'
p216
sg174
S'1.0'
p217
sg22
S'SF'
p218
sg177
S'-0.1'
p219
sg179
S'.230'
p220
sg181
S'9.0'
p221
sg183
S'.200'
p222
sg185
S'.000'
p223
sg28
S'NBA'
p224
sg188
S'-9.5'
p225
sg190
S'13.8'
p226
sg192
S'0.1'
p227
sg39
S'25'
p228
sg41
S'NJN'
p229
sg43
g76
sg197
S'2.9'
p230
sg199
S'-0.9'
p231
sg201
S'-0.1'
p232
sg60
S'50'
p233
sg204
S'-8.6'
p234
sg53
S'2001-02'
p235
sg207
S'-0.1'
p236
sbasS'_per36Minutes'
p237
(lp238
(isrc.gp1.models.Per36Minutes
Per36Minutes
p239
(dp240
g8
S'1.9'
p241
sg10
S'0.8'
p242
sg12
S'.389'
p243
sg14
S'1.6'
p244
sg16
S'.333'
p245
sg18
S'0.3'
p246
sg20
S'5.1'
p247
sg22
S'PF'
p248
sg24
S'.571'
p249
sg28
S'NBA'
p250
sg30
S'0.5'
p251
sg32
S'4.9'
p252
sg34
S'3.8'
p253
sg36
S'1.9'
p254
sg37
S'5.7'
p255
sg39
S'24'
p256
sg41
S'CHI'
p257
sg43
S'12'
p258
sg45
S'0.3'
p259
sg46
S'1.6'
p260
sg47
S'1.1'
p261
sg49
S'4.1'
p262
sg51
S'3.8'
p263
sg53
S'2000-01'
p264
sg55
S'1.9'
p265
sg56
S'2.2'
p266
sg58
S'.400'
p267
sg60
S'133'
p268
sg62
g63
sba(isrc.gp1.models.Per36Minutes
Per36Minutes
p269
(dp270
g8
S'0.7'
p271
sg10
S'0.0'
p272
sg12
S'.200'
p273
sg14
S'3.6'
p274
sg16
g3
sg18
S'0.0'
p275
sg20
S'3.6'
p276
sg22
S'SF'
p277
sg24
S'.500'
p278
sg28
S'NBA'
p279
sg30
S'0.7'
p280
sg32
S'7.2'
p281
sg34
S'7.2'
p282
sg36
S'1.4'
p283
sg37
S'3.6'
p284
sg39
S'25'
p285
sg41
S'NJN'
p286
sg43
g76
sg45
S'1.4'
p287
sg46
S'1.4'
p288
sg47
S'0.7'
p289
sg49
S'7.2'
p290
sg51
S'2.9'
p291
sg53
S'2001-02'
p292
sg55
S'1.4'
p293
sg56
S'2.2'
p294
sg58
S'.200'
p295
sg60
S'50'
p296
sg62
g63
sbasS'_fromYear'
p297
S'2001'
p298
sS'_url'
p299
S'http://www.basketball-reference.com/players/g/goodrst01.html'
p300
sS'_perGame'
p301
(isrc.gp1.models.PerGame
PerGame
p302
(dp303
g8
S'0.1'
p304
sg10
S'0.0'
p305
sg12
S'.200'
p306
sS'_effectiveFieldGalPercentage'
p307
S'.200'
p308
sg14
S'0.6'
p309
sg16
g3
sg18
S'0.0'
p310
sg20
S'0.6'
p311
sg22
S'SF'
p312
sg24
S'.500'
p313
sg28
S'NBA'
p314
sg30
S'0.1'
p315
sg34
S'1.1'
p316
sS'_fieldGoalsttempted'
p317
S'1.1'
p318
sg36
S'0.2'
p319
sg37
S'0.6'
p320
sg39
S'25'
p321
sg41
S'NJN'
p322
sg43
g76
sg45
S'0.2'
p323
sg46
S'0.2'
p324
sg47
S'0.1'
p325
sg49
S'1.1'
p326
sg51
S'0.4'
p327
sg53
S'2001-02'
p328
sg55
S'0.2'
p329
sg56
S'0.3'
p330
sg58
S'.200'
p331
sg60
S'5.6'
p332
sg62
g63
sbsS'_weight'
p333
S'220'
p334
sS'_dob'
p335
S'18-3-1976'
p336
sS'_salary'
p337
(lp338
(isrc.gp1.models.Salary
Salary
p339
(dp340
g41
S'Philadelphia 76ers'
p341
sg28
S'NBA'
p342
sg337
S'$4,529'
p343
sg53
S'1999-00'
p344
sba(isrc.gp1.models.Salary
Salary
p345
(dp346
g41
S'New Jersey Nets'
p347
sg28
S'NBA'
p348
sg337
S'$465,850'
p349
sg53
S'2001-02'
p350
sbasg22
S'F'
p351
sb.