(isrc.gp1.models.Player
Player
p0
(dp1
S'_experience'
p2
S'NA'
p3
sS'_totals'
p4
(lp5
(isrc.gp1.models.Totals
Totals
p6
(dp7
S'_offensiveRebounds'
p8
S'110'
p9
sS'_threePointsAttempted'
p10
S'.000'
p11
sS'_fieldGoalsPercentage'
p12
S'0'
p13
sS'_assist'
p14
S'31'
p15
sS'_threePointsPercentage'
p16
S'195'
p17
sS'_threePoints'
p18
S'5'
p19
sS'_points'
p20
g3
sS'_position'
p21
S'SF'
p22
sS'_freeThrowsPercentage'
p23
S'84'
p24
sS'_effectiveFieldGoalPercentage'
p25
S'84'
p26
sS'_league'
p27
S'ABA'
p28
sS'_steals'
p29
S'10'
p30
sS'_fieldGoalsAttempted'
p31
S'.445'
p32
sS'_personalFouls'
p33
S'474'
p34
sS'_freeThrowsAttempted'
p35
S'.778'
p36
sS'_totalRebounds'
p37
S'64'
p38
sS'_age'
p39
S'22'
p40
sS'_team'
p41
S'TOT'
p42
sS'_games'
p43
S'52'
p44
sS'_blocks'
p45
S'72'
p46
sS'_twoPoints'
p47
S'433'
p48
sS'_freeThrows'
p49
S'108'
p50
sS'_twoPointsAttempted'
p51
S'.450'
p52
sS'_defensiveRebounds'
p53
S'194'
p54
sS'_season'
p55
S'1975-76'
p56
sS'_fieldGoals'
p57
S'438'
p58
sS'_turnOvers'
p59
S'150'
p60
sS'_twoPointsPercentage'
p61
S'.445'
p62
sS'_minutesPlayed'
p63
S'195'
p64
sS'_gamesStarted'
p65
S'1068'
p66
sba(isrc.gp1.models.Totals
Totals
p67
(dp68
g8
S'112'
p69
sg10
S'96'
p70
sg12
g13
sg14
S'3'
p71
sg16
S'195'
p72
sg18
g13
sg20
g3
sg21
S'SF'
p73
sg23
S'66'
p74
sg25
S'56'
p75
sg27
S'ABA'
p76
sg29
S'40'
p77
sg31
S'.492'
p78
sg33
g3
sg35
S'46'
p79
sg37
S'12'
p80
sg39
S'22'
p81
sg41
S'UTS'
p82
sg43
S'16'
p83
sg45
S'71'
p84
sg47
S'.492'
p85
sg49
S'.821'
p86
sg51
S'.492'
p87
sg53
S'29'
p88
sg55
S'1975-76'
p89
sg57
S'195'
p90
sg59
S'238'
p91
sg61
S'46'
p92
sg63
S'96'
p93
sg65
S'534'
p94
sba(isrc.gp1.models.Totals
Totals
p95
(dp96
g8
S'44'
p97
sg10
S'.000'
p98
sg12
g13
sg14
S'19'
p99
sg16
S'99'
p100
sg18
g19
sg20
g3
sg21
S'SF'
p101
sg23
S'38'
p102
sg25
S'38'
p103
sg27
S'ABA'
p104
sg29
S'7'
p105
sg31
S'.407'
p106
sg33
S'236'
p107
sg35
S'.731'
p108
sg37
S'35'
p109
sg39
S'22'
p110
sg41
S'SSL'
p111
sg43
S'36'
p112
sg45
S'32'
p113
sg47
S'238'
p114
sg49
S'52'
p115
sg51
S'.416'
p116
sg53
S'82'
p117
sg55
S'1975-76'
p118
sg57
S'243'
p119
sg59
S'79'
p120
sg61
S'.407'
p121
sg63
S'99'
p122
sg65
S'534'
p123
sba(isrc.gp1.models.Totals
Totals
p124
(dp125
g8
S'46'
p126
sg10
S'.432'
p127
sg12
S'183'
p128
sg14
S'450'
p129
sg16
S'.432'
p130
sg18
S'424'
p131
sg20
g3
sg21
S'SF'
p132
sg23
S'46'
p133
sg25
S'79'
p134
sg27
S'NBA'
p135
sg29
g3
sg31
S'.432'
p136
sg33
g3
sg35
S'177'
p137
sg37
S'157'
p138
sg39
S'23'
p139
sg41
S'IND'
p140
sg43
S'70'
p141
sg45
g3
sg47
S'84'
p142
sg49
S'98'
p143
sg51
S'113'
p144
sg53
S'12'
p145
sg55
S'1976-77'
p146
sg57
S'424'
p147
sg59
g3
sg61
S'.743'
p148
sg63
S'183'
p149
sg65
S'918'
p150
sba(isrc.gp1.models.Totals
Totals
p151
(dp152
g8
S'14'
p153
sg10
S'.438'
p154
sg12
S'56'
p155
sg14
S'67'
p156
sg16
S'.438'
p157
sg18
S'128'
p158
sg20
g3
sg21
S'SF'
p159
sg23
S'30'
p160
sg25
S'31'
p161
sg27
S'NBA'
p162
sg29
S'151'
p163
sg31
S'.438'
p164
sg33
g3
sg35
S'71'
p165
sg37
S'23'
p166
sg39
S'24'
p167
sg41
S'IND'
p168
sg43
S'44'
p169
sg45
g3
sg47
S'39'
p170
sg49
S'40'
p171
sg51
S'56'
p172
sg53
S'2'
p173
sg55
S'1977-78'
p174
sg57
S'128'
p175
sg59
g3
sg61
S'.696'
p176
sg63
S'56'
p177
sg65
S'449'
p178
sba(isrc.gp1.models.Totals
Totals
p179
(dp180
g8
S'11'
p181
sg10
S'.472'
p182
sg12
S'42'
p183
sg14
S'39'
p184
sg16
S'.472'
p185
sg18
S'89'
p186
sg20
g3
sg21
S'SF'
p187
sg23
S'21'
p188
sg25
S'22'
p189
sg27
S'NBA'
p190
sg29
S'104'
p191
sg31
S'.472'
p192
sg33
g3
sg35
S'52'
p193
sg37
S'17'
p194
sg39
S'25'
p195
sg41
S'IND'
p196
sg43
S'39'
p197
sg45
g3
sg47
S'20'
p198
sg49
S'30'
p199
sg51
S'34'
p200
sg53
g71
sg55
S'1978-79'
p201
sg57
S'89'
p202
sg59
g3
sg61
S'.588'
p203
sg63
S'42'
p204
sg65
S'265'
p205
sbasS'_college'
p206
S'Indiana University'
p207
sS'_toYear'
p208
S'1979'
p209
sS'_height'
p210
S'6-7'
p211
sS'_active'
p212
I00
sS'_shootingHand'
p213
VRight
p214
sS'_name'
p215
S'Steve Green'
p216
sS'_per100Possessions'
p217
(lp218
(isrc.gp1.models.Per100Possession
Per100Possession
p219
(dp220
g8
S'4.7'
p221
sg10
S'.000'
p222
sg12
S'0.0'
p223
sS'_offensiveRating'
p224
S'109'
p225
sg14
S'1.3'
p226
sg16
S'8.4'
p227
sg18
S'0.2'
p228
sg20
S'102'
p229
sg21
S'SF'
p230
sS'_defensiveRating'
p231
g3
sg23
S'3.6'
p232
sg27
S'ABA'
p233
sg29
S'0.4'
p234
sg31
S'.445'
p235
sg33
S'20.4'
p236
sg35
S'.778'
p237
sg37
S'2.7'
p238
sg39
S'22'
p239
sg41
S'TOT'
p240
sg43
S'52'
p241
sg45
S'3.1'
p242
sg47
S'18.6'
p243
sg49
S'4.6'
p244
sg51
S'.450'
p245
sg53
S'8.3'
p246
sg55
S'1975-76'
p247
sg57
S'18.8'
p248
sg59
S'6.4'
p249
sg61
S'3.6'
p250
sg63
S'8.4'
p251
sg65
S'1068'
p252
sba(isrc.gp1.models.Per100Possession
Per100Possession
p253
(dp254
g8
S'9.7'
p255
sg10
S'8.3'
p256
sg12
S'0.0'
p257
sg224
g3
sg14
S'0.3'
p258
sg16
S'16.9'
p259
sg18
S'0.0'
p260
sg20
S'111'
p261
sg21
S'SF'
p262
sg231
g3
sg23
S'5.7'
p263
sg27
S'ABA'
p264
sg29
S'3.5'
p265
sg31
S'.492'
p266
sg33
S'107'
p267
sg35
S'4.0'
p268
sg37
S'1.0'
p269
sg39
S'22'
p270
sg41
S'UTS'
p271
sg43
S'16'
p272
sg45
S'6.2'
p273
sg47
S'.492'
p274
sg49
S'.821'
p275
sg51
S'4.0'
p276
sg53
S'2.5'
p277
sg55
S'1975-76'
p278
sg57
S'16.9'
p279
sg59
S'20.6'
p280
sg61
S'4.9'
p281
sg63
S'8.3'
p282
sg65
S'534'
p283
sba(isrc.gp1.models.Per100Possession
Per100Possession
p284
(dp285
g8
S'3.7'
p286
sg10
S'.000'
p287
sg12
S'0.0'
p288
sg224
S'107'
p289
sg14
S'1.6'
p290
sg16
S'8.4'
p291
sg18
S'0.4'
p292
sg20
S'96'
p293
sg21
S'SF'
p294
sg231
g3
sg23
S'3.2'
p295
sg27
S'ABA'
p296
sg29
S'0.6'
p297
sg31
S'.407'
p298
sg33
S'20.1'
p299
sg35
S'.731'
p300
sg37
S'3.0'
p301
sg39
S'22'
p302
sg41
S'SSL'
p303
sg43
S'36'
p304
sg45
S'2.7'
p305
sg47
S'20.2'
p306
sg49
S'4.4'
p307
sg51
S'.416'
p308
sg53
S'7.0'
p309
sg55
S'1975-76'
p310
sg57
S'20.7'
p311
sg59
S'6.7'
p312
sg61
S'3.2'
p313
sg63
S'8.4'
p314
sg65
S'534'
p315
sba(isrc.gp1.models.Per100Possession
Per100Possession
p316
(dp317
g8
S'2.2'
p318
sg10
S'.432'
p319
sg12
S'8.9'
p320
sg224
g3
sg14
S'22.0'
p321
sg16
S'4.1'
p322
sg18
S'20.7'
p323
sg20
g3
sg21
S'SF'
p324
sg231
g3
sg23
S'2.2'
p325
sg27
S'NBA'
p326
sg29
S'102'
p327
sg31
S'.432'
p328
sg33
g3
sg35
S'8.6'
p329
sg37
S'7.7'
p330
sg39
S'23'
p331
sg41
S'IND'
p332
sg43
S'70'
p333
sg45
g3
sg47
S'5.5'
p334
sg49
S'4.8'
p335
sg51
S'.743'
p336
sg53
S'0.6'
p337
sg55
S'1976-77'
p338
sg57
S'20.7'
p339
sg59
g3
sg61
S'3.9'
p340
sg63
S'8.9'
p341
sg65
S'918'
p342
sba(isrc.gp1.models.Per100Possession
Per100Possession
p343
(dp344
g8
S'1.4'
p345
sg10
S'.438'
p346
sg12
S'5.5'
p347
sg224
g3
sg14
S'6.6'
p348
sg16
S'3.9'
p349
sg18
S'12.7'
p350
sg20
g3
sg21
S'SF'
p351
sg231
g3
sg23
S'3.0'
p352
sg27
S'NBA'
p353
sg29
S'14.9'
p354
sg31
S'.438'
p355
sg33
g3
sg35
S'7.0'
p356
sg37
S'2.3'
p357
sg39
S'24'
p358
sg41
S'IND'
p359
sg43
S'44'
p360
sg45
S'103'
p361
sg47
S'5.5'
p362
sg49
S'4.0'
p363
sg51
S'.696'
p364
sg53
S'0.2'
p365
sg55
S'1977-78'
p366
sg57
S'12.7'
p367
sg59
S'105'
p368
sg61
S'3.1'
p369
sg63
S'5.5'
p370
sg65
S'449'
p371
sba(isrc.gp1.models.Per100Possession
Per100Possession
p372
(dp373
g8
S'1.9'
p374
sg10
S'.472'
p375
sg12
S'7.2'
p376
sg224
g3
sg14
S'6.7'
p377
sg16
S'3.4'
p378
sg18
S'15.3'
p379
sg20
g3
sg21
S'SF'
p380
sg231
g3
sg23
S'3.6'
p381
sg27
S'NBA'
p382
sg29
S'17.9'
p383
sg31
S'.472'
p384
sg33
g3
sg35
S'8.9'
p385
sg37
S'2.9'
p386
sg39
S'25'
p387
sg41
S'IND'
p388
sg43
S'39'
p389
sg45
S'102'
p390
sg47
S'5.8'
p391
sg49
S'5.2'
p392
sg51
S'.588'
p393
sg53
S'0.5'
p394
sg55
S'1978-79'
p395
sg57
S'15.3'
p396
sg59
S'105'
p397
sg61
S'3.8'
p398
sg63
S'7.2'
p399
sg65
S'265'
p400
sbasS'_advanced'
p401
(lp402
(isrc.gp1.models.Advanced
Advanced
p403
(dp404
S'_offensiveReboundPercentage'
p405
S'8.0'
p406
sS'_turnOverPercentage'
p407
S'12.9'
p408
sS'_winSharesPer48Minutes'
p409
S'.053'
p410
sS'_stealPercentage'
p411
S'1.3'
p412
sS'_usagePercentage'
p413
S'20.2'
p414
sS'_totalReboundsPercentage'
p415
S'9.1'
p416
sS'_defensiveBoxPlusMinus'
p417
S'-1.9'
p418
sg21
S'SF'
p419
sS'_valueOverReplacementPlayer'
p420
S'0.4'
p421
sS'_trueShootingPercentage'
p422
S'.488'
p423
sS'_defensiveReboundPercentage'
p424
S'10.2'
p425
sS'_freeThrowsAttempRate'
p426
S'.247'
p427
sS'_threePointsAttempRate'
p428
S'.011'
p429
sg27
S'ABA'
p430
sS'_offensiveBoxPlusMinues'
p431
S'-1.1'
p432
sS'_assistPercentage'
p433
S'8.1'
p434
sS'_defensiveWinShares'
p435
S'0.4'
p436
sg39
S'22'
p437
sg41
S'TOT'
p438
sg43
S'52'
p439
sS'_blockPercentage'
p440
S'0.5'
p441
sS'_playerEfficiencyRating'
p442
S'11.8'
p443
sS'_offensiveWinShares'
p444
S'0.8'
p445
sg63
S'1068'
p446
sS'_boxPlusMinus'
p447
S'-3.0'
p448
sg55
S'1975-76'
p449
sS'_winShares'
p450
S'1.2'
p451
sba(isrc.gp1.models.Advanced
Advanced
p452
(dp453
g405
S'9.0'
p454
sg407
S'15.4'
p455
sg409
S'.073'
p456
sg411
S'1.0'
p457
sg413
S'19.1'
p458
sg415
S'10.8'
p459
sg417
S'-1.3'
p460
sg21
S'SF'
p461
sg420
S'0.8'
p462
sg422
S'.542'
p463
sg424
S'12.5'
p464
sg426
S'.287'
p465
sg428
S'.000'
p466
sg27
S'ABA'
p467
sg431
S'0.5'
p468
sg433
S'7.4'
p469
sg435
S'0.1'
p470
sg39
S'22'
p471
sg41
S'UTS'
p472
sg43
S'16'
p473
sg440
S'0.3'
p474
sg442
S'13.0'
p475
sg444
S'0.7'
p476
sg63
S'534'
p477
sg447
S'-0.8'
p478
sg55
S'1975-76'
p479
sg450
S'0.8'
p480
sba(isrc.gp1.models.Advanced
Advanced
p481
(dp482
g405
S'6.9'
p483
sg407
S'10.7'
p484
sg409
S'.033'
p485
sg411
S'1.6'
p486
sg413
S'21.3'
p487
sg415
S'7.4'
p488
sg417
S'-2.5'
p489
sg21
S'SF'
p490
sg420
S'-0.4'
p491
sg422
S'.444'
p492
sg424
S'8.0'
p493
sg426
S'.214'
p494
sg428
S'.021'
p495
sg27
S'ABA'
p496
sg431
S'-2.6'
p497
sg433
S'8.8'
p498
sg435
S'0.3'
p499
sg39
S'22'
p500
sg41
S'SSL'
p501
sg43
S'36'
p502
sg440
S'0.7'
p503
sg442
S'10.5'
p504
sg444
S'0.0'
p505
sg63
S'534'
p506
sg447
S'-5.2'
p507
sg55
S'1975-76'
p508
sg450
S'0.4'
p509
sba(isrc.gp1.models.Advanced
Advanced
p510
(dp511
g405
S'10.6'
p512
sg407
S'0.7'
p513
sg409
S'-3.8'
p514
sg411
S'0.7'
p515
sg413
S'1.1'
p516
sg415
S'7.2'
p517
sg417
g3
sg21
S'SF'
p518
sg420
g3
sg422
S'.475'
p519
sg424
S'9.4'
p520
sg426
S'8.1'
p521
sg428
S'.267'
p522
sg27
S'NBA'
p523
sg431
S'-0.4'
p524
sg433
S'2.2'
p525
sg435
S'-1.6'
p526
sg39
S'23'
p527
sg41
S'IND'
p528
sg43
S'70'
p529
sg440
S'0.4'
p530
sg442
S'13.3'
p531
sg444
S'.055'
p532
sg63
S'918'
p533
sg447
g3
sg55
S'1976-77'
p534
sg450
S'-2.2'
p535
sba(isrc.gp1.models.Advanced
Advanced
p536
(dp537
g405
S'8.9'
p538
sg407
S'14.7'
p539
sg409
S'-1.7'
p540
sg411
S'0.2'
p541
sg413
S'0.4'
p542
sg415
S'8.8'
p543
sg417
S'-3.2'
p544
sg21
S'SF'
p545
sg420
g3
sg422
S'.495'
p546
sg424
S'7.7'
p547
sg426
S'6.6'
p548
sg428
S'.438'
p549
sg27
S'NBA'
p550
sg431
S'-1.5'
p551
sg433
S'1.4'
p552
sg435
S'0.7'
p553
sg39
S'24'
p554
sg41
S'IND'
p555
sg43
S'44'
p556
sg440
S'13.1'
p557
sg442
S'9.9'
p558
sg444
S'0.2'
p559
sg63
S'449'
p560
sg447
S'-0.1'
p561
sg55
S'1977-78'
p562
sg450
S'.074'
p563
sba(isrc.gp1.models.Advanced
Advanced
p564
(dp565
g405
S'11.7'
p566
sg407
S'17.8'
p567
sg409
S'-1.4'
p568
sg411
S'0.6'
p569
sg413
S'0.2'
p570
sg415
S'10.6'
p571
sg417
S'-2.2'
p572
sg21
S'SF'
p573
sg420
g3
sg422
S'.500'
p574
sg424
S'10.1'
p575
sg426
S'8.5'
p576
sg428
S'.382'
p577
sg27
S'NBA'
p578
sg431
S'-0.7'
p579
sg433
S'1.9'
p580
sg435
S'0.4'
p581
sg39
S'25'
p582
sg41
S'IND'
p583
sg43
S'39'
p584
sg440
S'14.1'
p585
sg442
S'12.4'
p586
sg444
S'0.3'
p587
sg63
S'265'
p588
sg447
S'0.0'
p589
sg55
S'1978-79'
p590
sg450
S'.080'
p591
sbasS'_per36Minutes'
p592
(lp593
(isrc.gp1.models.Per36Minutes
Per36Minutes
p594
(dp595
g8
S'3.7'
p596
sg10
S'.000'
p597
sg12
S'0.0'
p598
sg14
S'1.0'
p599
sg16
S'6.6'
p600
sg18
S'0.2'
p601
sg20
g3
sg21
S'SF'
p602
sg23
S'2.8'
p603
sg27
S'ABA'
p604
sg29
S'0.3'
p605
sg31
S'.445'
p606
sg33
S'16.0'
p607
sg35
S'.778'
p608
sg37
S'2.2'
p609
sg39
S'22'
p610
sg41
S'TOT'
p611
sg43
S'52'
p612
sg45
S'2.4'
p613
sg47
S'14.6'
p614
sg49
S'3.6'
p615
sg51
S'.450'
p616
sg53
S'6.5'
p617
sg55
S'1975-76'
p618
sg57
S'14.8'
p619
sg59
S'5.1'
p620
sg61
S'2.8'
p621
sg63
S'6.6'
p622
sg65
S'1068'
p623
sba(isrc.gp1.models.Per36Minutes
Per36Minutes
p624
(dp625
g8
S'7.6'
p626
sg10
S'6.5'
p627
sg12
S'0.0'
p628
sg14
S'0.2'
p629
sg16
S'13.1'
p630
sg18
S'0.0'
p631
sg20
g3
sg21
S'SF'
p632
sg23
S'4.4'
p633
sg27
S'ABA'
p634
sg29
S'2.7'
p635
sg31
S'.492'
p636
sg33
g3
sg35
S'3.1'
p637
sg37
S'0.8'
p638
sg39
S'22'
p639
sg41
S'UTS'
p640
sg43
S'16'
p641
sg45
S'4.8'
p642
sg47
S'.492'
p643
sg49
S'.821'
p644
sg51
S'3.1'
p645
sg53
S'2.0'
p646
sg55
S'1975-76'
p647
sg57
S'13.1'
p648
sg59
S'16.0'
p649
sg61
S'3.8'
p650
sg63
S'6.5'
p651
sg65
S'534'
p652
sba(isrc.gp1.models.Per36Minutes
Per36Minutes
p653
(dp654
g8
S'3.0'
p655
sg10
S'.000'
p656
sg12
S'0.0'
p657
sg14
S'1.3'
p658
sg16
S'6.7'
p659
sg18
S'0.3'
p660
sg20
g3
sg21
S'SF'
p661
sg23
S'2.6'
p662
sg27
S'ABA'
p663
sg29
S'0.5'
p664
sg31
S'.407'
p665
sg33
S'15.9'
p666
sg35
S'.731'
p667
sg37
S'2.4'
p668
sg39
S'22'
p669
sg41
S'SSL'
p670
sg43
S'36'
p671
sg45
S'2.2'
p672
sg47
S'16.0'
p673
sg49
S'3.5'
p674
sg51
S'.416'
p675
sg53
S'5.5'
p676
sg55
S'1975-76'
p677
sg57
S'16.4'
p678
sg59
S'5.3'
p679
sg61
S'2.6'
p680
sg63
S'6.7'
p681
sg65
S'534'
p682
sba(isrc.gp1.models.Per36Minutes
Per36Minutes
p683
(dp684
g8
S'1.8'
p685
sg10
S'.432'
p686
sg12
S'7.2'
p687
sg14
S'17.6'
p688
sg16
S'3.3'
p689
sg18
S'16.6'
p690
sg20
g3
sg21
S'SF'
p691
sg23
S'1.8'
p692
sg27
S'NBA'
p693
sg29
g3
sg31
S'.432'
p694
sg33
g3
sg35
S'6.9'
p695
sg37
S'6.2'
p696
sg39
S'23'
p697
sg41
S'IND'
p698
sg43
S'70'
p699
sg45
g3
sg47
S'4.4'
p700
sg49
S'3.8'
p701
sg51
S'.743'
p702
sg53
S'0.5'
p703
sg55
S'1976-77'
p704
sg57
S'16.6'
p705
sg59
g3
sg61
S'3.1'
p706
sg63
S'7.2'
p707
sg65
S'918'
p708
sba(isrc.gp1.models.Per36Minutes
Per36Minutes
p709
(dp710
g8
S'1.1'
p711
sg10
S'.438'
p712
sg12
S'4.5'
p713
sg14
S'5.4'
p714
sg16
S'3.1'
p715
sg18
S'10.3'
p716
sg20
g3
sg21
S'SF'
p717
sg23
S'2.4'
p718
sg27
S'NBA'
p719
sg29
S'12.1'
p720
sg31
S'.438'
p721
sg33
g3
sg35
S'5.7'
p722
sg37
S'1.8'
p723
sg39
S'24'
p724
sg41
S'IND'
p725
sg43
S'44'
p726
sg45
g3
sg47
S'4.5'
p727
sg49
S'3.2'
p728
sg51
S'.696'
p729
sg53
S'0.2'
p730
sg55
S'1977-78'
p731
sg57
S'10.3'
p732
sg59
g3
sg61
S'2.5'
p733
sg63
S'4.5'
p734
sg65
S'449'
p735
sba(isrc.gp1.models.Per36Minutes
Per36Minutes
p736
(dp737
g8
S'1.5'
p738
sg10
S'.472'
p739
sg12
S'5.7'
p740
sg14
S'5.3'
p741
sg16
S'2.7'
p742
sg18
S'12.1'
p743
sg20
g3
sg21
S'SF'
p744
sg23
S'2.9'
p745
sg27
S'NBA'
p746
sg29
S'14.1'
p747
sg31
S'.472'
p748
sg33
g3
sg35
S'7.1'
p749
sg37
S'2.3'
p750
sg39
S'25'
p751
sg41
S'IND'
p752
sg43
S'39'
p753
sg45
g3
sg47
S'4.6'
p754
sg49
S'4.1'
p755
sg51
S'.588'
p756
sg53
S'0.4'
p757
sg55
S'1978-79'
p758
sg57
S'12.1'
p759
sg59
g3
sg61
S'3.0'
p760
sg63
S'5.7'
p761
sg65
S'265'
p762
sbasS'_fromYear'
p763
S'1976'
p764
sS'_url'
p765
S'http://www.basketball-reference.com/players/g/greenst01.html'
p766
sS'_perGame'
p767
(isrc.gp1.models.PerGame
PerGame
p768
(dp769
g8
S'0.3'
p770
sg10
S'.472'
p771
sg12
S'1.1'
p772
sS'_effectiveFieldGalPercentage'
p773
S'0.6'
p774
sg14
S'1.0'
p775
sg16
S'.472'
p776
sg18
S'2.3'
p777
sg20
g3
sg21
S'SF'
p778
sg23
S'0.5'
p779
sg27
S'NBA'
p780
sg29
S'2.7'
p781
sg33
g3
sS'_fieldGoalsttempted'
p782
S'.472'
p783
sg35
S'1.3'
p784
sg37
S'0.4'
p785
sg39
S'25'
p786
sg41
S'IND'
p787
sg43
S'39'
p788
sg45
g3
sg47
S'0.5'
p789
sg49
S'0.8'
p790
sg51
S'0.9'
p791
sg53
S'0.1'
p792
sg55
S'1978-79'
p793
sg57
S'2.3'
p794
sg59
g3
sg61
S'.588'
p795
sg63
S'1.1'
p796
sg65
S'6.8'
p797
sbsS'_weight'
p798
S'220'
p799
sS'_dob'
p800
S'4-10-1953'
p801
sS'_salary'
p802
(lp803
sg21
S'F'
p804
sb.