(isrc.gp1.models.Player
Player
p0
(dp1
S'_experience'
p2
S'NA'
p3
sS'_totals'
p4
(lp5
(isrc.gp1.models.Totals
Totals
p6
(dp7
S'_offensiveRebounds'
p8
S'14'
p9
sS'_threePointsAttempted'
p10
g3
sS'_fieldGoalsPercentage'
p11
S'.328'
p12
sS'_assist'
p13
S'11'
p14
sS'_threePointsPercentage'
p15
g3
sS'_threePoints'
p16
g3
sS'_points'
p17
S'64'
p18
sS'_position'
p19
S'C'
p20
sS'_freeThrowsPercentage'
p21
S'.579'
p22
sS'_effectiveFieldGoalPercentage'
p23
S'.328'
p24
sS'_league'
p25
S'NBA'
p26
sS'_steals'
p27
S'5'
p28
sS'_fieldGoalsAttempted'
p29
S'64'
p30
sS'_personalFouls'
p31
S'33'
p32
sS'_freeThrowsAttempted'
p33
S'38'
p34
sS'_totalRebounds'
p35
S'39'
p36
sS'_age'
p37
S'23'
p38
sS'_team'
p39
S'BOS'
p40
sS'_games'
p41
S'24'
p42
sS'_blocks'
p43
S'0'
p44
sS'_twoPoints'
p45
S'21'
p46
sS'_freeThrows'
p47
S'22'
p48
sS'_twoPointsAttempted'
p49
S'64'
p50
sS'_defensiveRebounds'
p51
S'25'
p52
sS'_season'
p53
S'1973-74'
p54
sS'_fieldGoals'
p55
S'21'
p56
sS'_turnOvers'
p57
g3
sS'_twoPointsPercentage'
p58
S'.328'
p59
sS'_minutesPlayed'
p60
S'137'
p61
sS'_gamesStarted'
p62
g3
sba(isrc.gp1.models.Totals
Totals
p63
(dp64
g8
g44
sg10
g3
sg11
S'.000'
p65
sg13
g44
sg15
g3
sg16
g3
sg17
g44
sg19
g20
sg21
S'.000'
p66
sg23
S'.000'
p67
sg25
S'NBA'
p68
sg27
g44
sg29
S'2'
p69
sg31
g44
sg33
g69
sg35
g69
sg37
S'24'
p70
sg39
S'BOS'
p71
sg41
S'3'
p72
sg43
g44
sg45
g44
sg47
g44
sg49
g69
sg51
g69
sg53
S'1974-75'
p73
sg55
g44
sg57
g3
sg58
S'.000'
p74
sg60
S'9'
p75
sg62
g3
sbasS'_college'
p76
S'Indiana University'
p77
sS'_toYear'
p78
S'1975'
p79
sS'_height'
p80
S'6-8'
p81
sS'_active'
p82
I00
sS'_shootingHand'
p83
VRight
p84
sS'_name'
p85
S'Steve Downing'
p86
sS'_per100Possessions'
p87
(lp88
(isrc.gp1.models.Per100Possession
Per100Possession
p89
(dp90
g8
S'4.5'
p91
sg10
g3
sg11
S'.328'
p92
sS'_offensiveRating'
p93
g3
sg13
S'3.5'
p94
sg15
g3
sg16
g3
sg17
S'20.4'
p95
sg19
g20
sS'_defensiveRating'
p96
S'94'
p97
sg21
S'.579'
p98
sg25
S'NBA'
p99
sg27
S'1.6'
p100
sg29
S'20.4'
p101
sg31
S'10.5'
p102
sg33
S'12.1'
p103
sg35
S'12.4'
p104
sg37
S'23'
p105
sg39
S'BOS'
p106
sg41
S'24'
p107
sg43
S'0.0'
p108
sg45
S'6.7'
p109
sg47
S'7.0'
p110
sg49
S'20.4'
p111
sg51
S'8.0'
p112
sg53
S'1973-74'
p113
sg55
S'6.7'
p114
sg57
g3
sg58
S'.328'
p115
sg60
S'137'
p116
sg62
g3
sba(isrc.gp1.models.Per100Possession
Per100Possession
p117
(dp118
g8
S'0.0'
p119
sg10
g3
sg11
S'.000'
p120
sg93
g3
sg13
S'0.0'
p121
sg15
g3
sg16
g3
sg17
S'0.0'
p122
sg19
g20
sg96
S'97'
p123
sg21
S'.000'
p124
sg25
S'NBA'
p125
sg27
S'0.0'
p126
sg29
S'10.1'
p127
sg31
S'0.0'
p128
sg33
S'10.1'
p129
sg35
S'10.1'
p130
sg37
S'24'
p131
sg39
S'BOS'
p132
sg41
g72
sg43
S'0.0'
p133
sg45
S'0.0'
p134
sg47
S'0.0'
p135
sg49
S'10.1'
p136
sg51
S'10.1'
p137
sg53
S'1974-75'
p138
sg55
S'0.0'
p139
sg57
g3
sg58
S'.000'
p140
sg60
g75
sg62
g3
sbasS'_advanced'
p141
(lp142
(isrc.gp1.models.Advanced
Advanced
p143
(dp144
S'_offensiveReboundPercentage'
p145
S'10.2'
p146
sS'_turnOverPercentage'
p147
g3
sS'_winSharesPer48Minutes'
p148
S'-0.038'
p149
sS'_stealPercentage'
p150
S'1.6'
p151
sS'_usagePercentage'
p152
g3
sS'_totalReboundsPercentage'
p153
S'13.8'
p154
sS'_defensiveBoxPlusMinus'
p155
S'-2.2'
p156
sg19
g20
sS'_valueOverReplacementPlayer'
p157
S'-0.1'
p158
sS'_trueShootingPercentage'
p159
S'.396'
p160
sS'_defensiveReboundPercentage'
p161
S'17.2'
p162
sS'_freeThrowsAttempRate'
p163
S'.594'
p164
sS'_threePointsAttempRate'
p165
g3
sg25
S'NBA'
p166
sS'_offensiveBoxPlusMinues'
p167
S'-4.0'
p168
sS'_assistPercentage'
p169
S'10.5'
p170
sS'_defensiveWinShares'
p171
S'0.2'
p172
sg37
S'23'
p173
sg39
S'BOS'
p174
sg41
S'24'
p175
sS'_blockPercentage'
p176
S'0.0'
p177
sS'_playerEfficiencyRating'
p178
S'10.2'
p179
sS'_offensiveWinShares'
p180
S'-0.3'
p181
sg60
S'137'
p182
sS'_boxPlusMinus'
p183
S'-6.3'
p184
sg53
S'1973-74'
p185
sS'_winShares'
p186
S'-0.1'
p187
sba(isrc.gp1.models.Advanced
Advanced
p188
(dp189
g145
S'0.0'
p190
sg147
g3
sg148
S'-0.387'
p191
sg150
S'0.0'
p192
sg152
g3
sg153
S'11.0'
p193
sg155
S'-4.0'
p194
sg19
g20
sg157
S'0.0'
p195
sg159
S'.000'
p196
sg161
S'21.9'
p197
sg163
S'1.000'
p198
sg165
g3
sg25
S'NBA'
p199
sg167
S'-19.6'
p200
sg169
S'0.0'
p201
sg171
S'0.0'
p202
sg37
S'24'
p203
sg39
S'BOS'
p204
sg41
g72
sg176
S'0.0'
p205
sg178
S'-6.5'
p206
sg180
S'-0.1'
p207
sg60
g75
sg183
S'-23.6'
p208
sg53
S'1974-75'
p209
sg186
S'-0.1'
p210
sbasS'_per36Minutes'
p211
(lp212
(isrc.gp1.models.Per36Minutes
Per36Minutes
p213
(dp214
g8
S'3.7'
p215
sg10
g3
sg11
S'.328'
p216
sg13
S'2.9'
p217
sg15
g3
sg16
g3
sg17
S'16.8'
p218
sg19
g20
sg21
S'.579'
p219
sg25
S'NBA'
p220
sg27
S'1.3'
p221
sg29
S'16.8'
p222
sg31
S'8.7'
p223
sg33
S'10.0'
p224
sg35
S'10.2'
p225
sg37
S'23'
p226
sg39
S'BOS'
p227
sg41
S'24'
p228
sg43
S'0.0'
p229
sg45
S'5.5'
p230
sg47
S'5.8'
p231
sg49
S'16.8'
p232
sg51
S'6.6'
p233
sg53
S'1973-74'
p234
sg55
S'5.5'
p235
sg57
g3
sg58
S'.328'
p236
sg60
S'137'
p237
sg62
g3
sba(isrc.gp1.models.Per36Minutes
Per36Minutes
p238
(dp239
g8
S'0.0'
p240
sg10
g3
sg11
S'.000'
p241
sg13
S'0.0'
p242
sg15
g3
sg16
g3
sg17
S'0.0'
p243
sg19
g20
sg21
S'.000'
p244
sg25
S'NBA'
p245
sg27
S'0.0'
p246
sg29
S'8.0'
p247
sg31
S'0.0'
p248
sg33
S'8.0'
p249
sg35
S'8.0'
p250
sg37
S'24'
p251
sg39
S'BOS'
p252
sg41
g72
sg43
S'0.0'
p253
sg45
S'0.0'
p254
sg47
S'0.0'
p255
sg49
S'8.0'
p256
sg51
S'8.0'
p257
sg53
S'1974-75'
p258
sg55
S'0.0'
p259
sg57
g3
sg58
S'.000'
p260
sg60
g75
sg62
g3
sbasS'_fromYear'
p261
S'1974'
p262
sS'_url'
p263
S'http://www.basketball-reference.com/players/d/downist01.html'
p264
sS'_perGame'
p265
(isrc.gp1.models.PerGame
PerGame
p266
(dp267
g8
S'0.0'
p268
sg10
g3
sg11
S'.000'
p269
sS'_effectiveFieldGalPercentage'
p270
S'.000'
p271
sg13
S'0.0'
p272
sg15
g3
sg16
g3
sg17
S'0.0'
p273
sg19
g20
sg21
S'.000'
p274
sg25
S'NBA'
p275
sg27
S'0.0'
p276
sg31
S'0.0'
p277
sS'_fieldGoalsttempted'
p278
S'0.7'
p279
sg33
S'0.7'
p280
sg35
S'0.7'
p281
sg37
S'24'
p282
sg39
S'BOS'
p283
sg41
g72
sg43
S'0.0'
p284
sg45
S'0.0'
p285
sg47
S'0.0'
p286
sg49
S'0.7'
p287
sg51
S'0.7'
p288
sg53
S'1974-75'
p289
sg55
S'0.0'
p290
sg57
g3
sg58
S'.000'
p291
sg60
S'3.0'
p292
sg62
g3
sbsS'_weight'
p293
S'225'
p294
sS'_dob'
p295
S'9-9-1950'
p296
sS'_salary'
p297
(lp298
sg19
g20
sb.