(isrc.gp1.models.Player
Player
p0
(dp1
S'_experience'
p2
S'NA'
p3
sS'_totals'
p4
(lp5
(isrc.gp1.models.Totals
Totals
p6
(dp7
S'_offensiveRebounds'
p8
S'9'
p9
sS'_threePointsAttempted'
p10
S'0'
p11
sS'_fieldGoalsPercentage'
p12
S'.462'
p13
sS'_assist'
p14
S'2'
p15
sS'_threePointsPercentage'
p16
g3
sS'_threePoints'
p17
g11
sS'_points'
p18
S'40'
p19
sS'_position'
p20
S'PF'
p21
sS'_freeThrowsPercentage'
p22
S'.640'
p23
sS'_effectiveFieldGoalPercentage'
p24
S'.462'
p25
sS'_league'
p26
S'NBA'
p27
sS'_steals'
p28
S'5'
p29
sS'_fieldGoalsAttempted'
p30
S'26'
p31
sS'_personalFouls'
p32
S'13'
p33
sS'_freeThrowsAttempted'
p34
S'25'
p35
sS'_totalRebounds'
p36
S'31'
p37
sS'_age'
p38
S'24'
p39
sS'_team'
p40
S'PHI'
p41
sS'_games'
p42
S'15'
p43
sS'_blocks'
p44
g15
sS'_twoPoints'
p45
S'12'
p46
sS'_freeThrows'
p47
S'16'
p48
sS'_twoPointsAttempted'
p49
S'26'
p50
sS'_defensiveRebounds'
p51
S'22'
p52
sS'_season'
p53
S'1997-98'
p54
sS'_fieldGoals'
p55
S'12'
p56
sS'_turnOvers'
p57
S'8'
p58
sS'_twoPointsPercentage'
p59
S'.462'
p60
sS'_minutesPlayed'
p61
S'110'
p62
sS'_gamesStarted'
p63
g11
sbasS'_college'
p64
S'California State University, Bakersfield'
p65
sS'_toYear'
p66
S'1998'
p67
sS'_height'
p68
S'6-8'
p69
sS'_active'
p70
I00
sS'_shootingHand'
p71
VRight
p72
sS'_name'
p73
S'Kebu Stewart'
p74
sS'_per100Possessions'
p75
(lp76
(isrc.gp1.models.Per100Possession
Per100Possession
p77
(dp78
g8
S'4.3'
p79
sg10
S'0.0'
p80
sg12
S'.462'
p81
sS'_offensiveRating'
p82
S'101'
p83
sg14
S'1.0'
p84
sg16
g3
sg17
S'0.0'
p85
sg18
S'19.3'
p86
sg20
S'PF'
p87
sS'_defensiveRating'
p88
S'101'
p89
sg22
S'.640'
p90
sg26
S'NBA'
p91
sg28
S'2.4'
p92
sg30
S'12.5'
p93
sg32
S'6.3'
p94
sg34
S'12.1'
p95
sg36
S'15.0'
p96
sg38
S'24'
p97
sg40
S'PHI'
p98
sg42
S'15'
p99
sg44
S'1.0'
p100
sg45
S'5.8'
p101
sg47
S'7.7'
p102
sg49
S'12.5'
p103
sg51
S'10.6'
p104
sg53
S'1997-98'
p105
sg55
S'5.8'
p106
sg57
S'3.9'
p107
sg59
S'.462'
p108
sg61
S'110'
p109
sg63
g11
sbasS'_advanced'
p110
(lp111
(isrc.gp1.models.Advanced
Advanced
p112
(dp113
S'_offensiveReboundPercentage'
p114
S'9.3'
p115
sS'_turnOverPercentage'
p116
S'17.8'
p117
sS'_winSharesPer48Minutes'
p118
S'.098'
p119
sS'_stealPercentage'
p120
S'2.4'
p121
sS'_usagePercentage'
p122
S'18.4'
p123
sS'_totalReboundsPercentage'
p124
S'16.2'
p125
sS'_defensiveBoxPlusMinus'
p126
S'-1.3'
p127
sg20
S'PF'
p128
sS'_valueOverReplacementPlayer'
p129
S'-0.1'
p130
sS'_trueShootingPercentage'
p131
S'.541'
p132
sS'_defensiveReboundPercentage'
p133
S'23.2'
p134
sS'_freeThrowsAttempRate'
p135
S'.962'
p136
sS'_threePointsAttempRate'
p137
S'.000'
p138
sg26
S'NBA'
p139
sS'_offensiveBoxPlusMinues'
p140
S'-4.2'
p141
sS'_assistPercentage'
p142
S'3.0'
p143
sS'_defensiveWinShares'
p144
S'0.2'
p145
sg38
S'24'
p146
sg40
S'PHI'
p147
sg42
S'15'
p148
sS'_blockPercentage'
p149
S'1.3'
p150
sS'_playerEfficiencyRating'
p151
S'14.0'
p152
sS'_offensiveWinShares'
p153
S'0.1'
p154
sg61
S'110'
p155
sS'_boxPlusMinus'
p156
S'-5.5'
p157
sg53
S'1997-98'
p158
sS'_winShares'
p159
S'0.2'
p160
sbasS'_per36Minutes'
p161
(lp162
(isrc.gp1.models.Per36Minutes
Per36Minutes
p163
(dp164
g8
S'2.9'
p165
sg10
S'0.0'
p166
sg12
S'.462'
p167
sg14
S'0.7'
p168
sg16
g3
sg17
S'0.0'
p169
sg18
S'13.1'
p170
sg20
S'PF'
p171
sg22
S'.640'
p172
sg26
S'NBA'
p173
sg28
S'1.6'
p174
sg30
S'8.5'
p175
sg32
S'4.3'
p176
sg34
S'8.2'
p177
sg36
S'10.1'
p178
sg38
S'24'
p179
sg40
S'PHI'
p180
sg42
S'15'
p181
sg44
S'0.7'
p182
sg45
S'3.9'
p183
sg47
S'5.2'
p184
sg49
S'8.5'
p185
sg51
S'7.2'
p186
sg53
S'1997-98'
p187
sg55
S'3.9'
p188
sg57
S'2.6'
p189
sg59
S'.462'
p190
sg61
S'110'
p191
sg63
g11
sbasS'_fromYear'
p192
S'1998'
p193
sS'_url'
p194
S'http://www.basketball-reference.com/players/s/stewake01.html'
p195
sS'_perGame'
p196
(isrc.gp1.models.PerGame
PerGame
p197
(dp198
g8
S'0.6'
p199
sg10
S'0.0'
p200
sg12
S'.462'
p201
sS'_effectiveFieldGalPercentage'
p202
S'.462'
p203
sg14
S'0.1'
p204
sg16
g3
sg17
S'0.0'
p205
sg18
S'2.7'
p206
sg20
S'PF'
p207
sg22
S'.640'
p208
sg26
S'NBA'
p209
sg28
S'0.3'
p210
sg32
S'0.9'
p211
sS'_fieldGoalsttempted'
p212
S'1.7'
p213
sg34
S'1.7'
p214
sg36
S'2.1'
p215
sg38
S'24'
p216
sg40
S'PHI'
p217
sg42
S'15'
p218
sg44
S'0.1'
p219
sg45
S'0.8'
p220
sg47
S'1.1'
p221
sg49
S'1.7'
p222
sg51
S'1.5'
p223
sg53
S'1997-98'
p224
sg55
S'0.8'
p225
sg57
S'0.5'
p226
sg59
S'.462'
p227
sg61
S'7.3'
p228
sg63
g11
sbsS'_weight'
p229
S'239'
p230
sS'_dob'
p231
S'19-12-1973'
p232
sS'_salary'
p233
(lp234
(isrc.gp1.models.Salary
Salary
p235
(dp236
g40
S'Philadelphia 76ers'
p237
sg26
S'NBA'
p238
sg233
S'$242,000'
p239
sg53
S'1997-98'
p240
sba(isrc.gp1.models.Salary
Salary
p241
(dp242
g40
S'Dallas Mavericks'
p243
sg26
S'NBA'
p244
sg233
S'$18,941'
p245
sg53
S'1999-00'
p246
sbasg20
S'F'
p247
sb.