(isrc.gp1.models.Player
Player
p0
(dp1
S'_experience'
p2
S'NA'
p3
sS'_totals'
p4
(lp5
(isrc.gp1.models.Totals
Totals
p6
(dp7
S'_offensiveRebounds'
p8
g3
sS'_threePointsAttempted'
p9
S'0'
p10
sS'_fieldGoalsPercentage'
p11
S'.478'
p12
sS'_assist'
p13
S'12'
p14
sS'_threePointsPercentage'
p15
g3
sS'_threePoints'
p16
g10
sS'_points'
p17
S'142'
p18
sS'_position'
p19
S'PF'
p20
sS'_freeThrowsPercentage'
p21
S'.400'
p22
sS'_effectiveFieldGoalPercentage'
p23
S'.478'
p24
sS'_league'
p25
S'ABA'
p26
sS'_steals'
p27
g3
sS'_fieldGoalsAttempted'
p28
S'138'
p29
sS'_personalFouls'
p30
S'42'
p31
sS'_freeThrowsAttempted'
p32
S'25'
p33
sS'_totalRebounds'
p34
S'91'
p35
sS'_age'
p36
g3
sS'_team'
p37
S'ANA'
p38
sS'_games'
p39
S'25'
p40
sS'_blocks'
p41
g3
sS'_twoPoints'
p42
S'66'
p43
sS'_freeThrows'
p44
S'10'
p45
sS'_twoPointsAttempted'
p46
S'138'
p47
sS'_defensiveRebounds'
p48
g3
sS'_season'
p49
S'1967-68'
p50
sS'_fieldGoals'
p51
S'66'
p52
sS'_turnOvers'
p53
S'28'
p54
sS'_twoPointsPercentage'
p55
S'.478'
p56
sS'_minutesPlayed'
p57
S'403'
p58
sS'_gamesStarted'
p59
g3
sbasS'_college'
p60
S'Washington State University'
p61
sS'_toYear'
p62
S'1968'
p63
sS'_height'
p64
S'6-7'
p65
sS'_active'
p66
I00
sS'_shootingHand'
p67
VRight
p68
sS'_name'
p69
S'Randy Stoll'
p70
sS'_per100Possessions'
p71
(lp72
sS'_advanced'
p73
(lp74
(isrc.gp1.models.Advanced
Advanced
p75
(dp76
S'_offensiveReboundPercentage'
p77
g3
sS'_turnOverPercentage'
p78
S'15.8'
p79
sS'_winSharesPer48Minutes'
p80
S'.042'
p81
sS'_stealPercentage'
p82
g3
sS'_usagePercentage'
p83
S'15.9'
p84
sS'_totalReboundsPercentage'
p85
S'9.9'
p86
sS'_defensiveBoxPlusMinus'
p87
g3
sg19
S'PF'
p88
sS'_valueOverReplacementPlayer'
p89
g3
sS'_trueShootingPercentage'
p90
S'.477'
p91
sS'_defensiveReboundPercentage'
p92
g3
sS'_freeThrowsAttempRate'
p93
S'.181'
p94
sS'_threePointsAttempRate'
p95
S'.000'
p96
sg25
S'ABA'
p97
sS'_offensiveBoxPlusMinues'
p98
g3
sS'_assistPercentage'
p99
S'4.4'
p100
sS'_defensiveWinShares'
p101
S'0.1'
p102
sg36
g3
sg37
S'ANA'
p103
sg39
S'25'
p104
sS'_blockPercentage'
p105
g3
sS'_playerEfficiencyRating'
p106
S'9.9'
p107
sS'_offensiveWinShares'
p108
S'0.2'
p109
sg57
S'403'
p110
sS'_boxPlusMinus'
p111
g3
sg49
S'1967-68'
p112
sS'_winShares'
p113
S'0.3'
p114
sbasS'_per36Minutes'
p115
(lp116
(isrc.gp1.models.Per36Minutes
Per36Minutes
p117
(dp118
g8
g3
sg9
S'0.0'
p119
sg11
S'.478'
p120
sg13
S'1.1'
p121
sg15
g3
sg16
S'0.0'
p122
sg17
S'12.7'
p123
sg19
S'PF'
p124
sg21
S'.400'
p125
sg25
S'ABA'
p126
sg27
g3
sg28
S'12.3'
p127
sg30
S'3.8'
p128
sg32
S'2.2'
p129
sg34
S'8.1'
p130
sg36
g3
sg37
S'ANA'
p131
sg39
S'25'
p132
sg41
g3
sg42
S'5.9'
p133
sg44
S'0.9'
p134
sg46
S'12.3'
p135
sg48
g3
sg49
S'1967-68'
p136
sg51
S'5.9'
p137
sg53
S'2.5'
p138
sg55
S'.478'
p139
sg57
S'403'
p140
sg59
g3
sbasS'_fromYear'
p141
S'1968'
p142
sS'_url'
p143
S'http://www.basketball-reference.com/players/s/stollra01.html'
p144
sS'_perGame'
p145
(isrc.gp1.models.PerGame
PerGame
p146
(dp147
g8
g3
sg9
S'0.0'
p148
sg11
S'.478'
p149
sS'_effectiveFieldGalPercentage'
p150
S'.478'
p151
sg13
S'0.5'
p152
sg15
g3
sg16
S'0.0'
p153
sg17
S'5.7'
p154
sg19
S'PF'
p155
sg21
S'.400'
p156
sg25
S'ABA'
p157
sg27
g3
sg30
S'1.7'
p158
sS'_fieldGoalsttempted'
p159
S'5.5'
p160
sg32
S'1.0'
p161
sg34
S'3.6'
p162
sg36
g3
sg37
S'ANA'
p163
sg39
S'25'
p164
sg41
g3
sg42
S'2.6'
p165
sg44
S'0.4'
p166
sg46
S'5.5'
p167
sg48
g3
sg49
S'1967-68'
p168
sg51
S'2.6'
p169
sg53
S'1.1'
p170
sg55
S'.478'
p171
sg57
S'16.1'
p172
sg59
g3
sbsS'_weight'
p173
S'235'
p174
sS'_dob'
p175
S'NA'
p176
sS'_salary'
p177
(lp178
sg19
S'C'
p179
sb.