(isrc.gp1.models.Player
Player
p0
(dp1
S'_experience'
p2
S'NA'
p3
sS'_totals'
p4
(lp5
(isrc.gp1.models.Totals
Totals
p6
(dp7
S'_offensiveRebounds'
p8
S'59'
p9
sS'_threePointsAttempted'
p10
S'337'
p11
sS'_fieldGoalsPercentage'
p12
S'.426'
p13
sS'_assist'
p14
S'653'
p15
sS'_threePointsPercentage'
p16
S'.395'
p17
sS'_threePoints'
p18
S'133'
p19
sS'_points'
p20
S'1331'
p21
sS'_position'
p22
S'PG'
p23
sS'_freeThrowsPercentage'
p24
S'.797'
p25
sS'_effectiveFieldGoalPercentage'
p26
S'.485'
p27
sS'_league'
p28
S'NBA'
p29
sS'_steals'
p30
S'98'
p31
sS'_fieldGoalsAttempted'
p32
S'1129'
p33
sS'_personalFouls'
p34
S'166'
p35
sS'_freeThrowsAttempted'
p36
S'296'
p37
sS'_totalRebounds'
p38
S'281'
p39
sS'_age'
p40
S'22'
p41
sS'_team'
p42
S'TOR'
p43
sS'_games'
p44
S'70'
p45
sS'_blocks'
p46
S'19'
p47
sS'_twoPoints'
p48
S'348'
p49
sS'_freeThrows'
p50
S'236'
p51
sS'_twoPointsAttempted'
p52
S'792'
p53
sS'_defensiveRebounds'
p54
S'222'
p55
sS'_season'
p56
S'1995-96'
p57
sS'_fieldGoals'
p58
S'481'
p59
sS'_turnOvers'
p60
S'267'
p61
sS'_twoPointsPercentage'
p62
S'.439'
p63
sS'_minutesPlayed'
p64
S'2865'
p65
sS'_gamesStarted'
p66
S'70'
p67
sba(isrc.gp1.models.Totals
Totals
p68
(dp69
g8
S'86'
p70
sg10
S'496'
p71
sg12
S'.401'
p72
sg14
S'709'
p73
sg16
S'.355'
p74
sg18
S'176'
p75
sg20
S'1634'
p76
sg22
S'PG'
p77
sg24
S'.823'
p78
sg26
S'.463'
p79
sg28
S'NBA'
p80
sg30
S'123'
p81
sg32
S'1407'
p82
sg34
S'162'
p83
sg36
S'401'
p84
sg38
S'330'
p85
sg40
S'23'
p86
sg42
S'TOR'
p87
sg44
S'81'
p88
sg46
S'13'
p89
sg48
S'388'
p90
sg50
S'330'
p91
sg52
S'911'
p92
sg54
S'244'
p93
sg56
S'1996-97'
p94
sg58
S'564'
p95
sg60
S'288'
p96
sg62
S'.426'
p97
sg64
S'3311'
p98
sg66
S'81'
p99
sba(isrc.gp1.models.Totals
Totals
p100
(dp101
g8
S'87'
p102
sg10
S'304'
p103
sg12
S'.411'
p104
sg14
S'580'
p105
sg16
S'.299'
p106
sg18
S'91'
p107
sg20
S'1225'
p108
sg22
S'PG'
p109
sg24
S'.829'
p110
sg26
S'.452'
p111
sg28
S'NBA'
p112
sg30
S'113'
p113
sg32
S'1091'
p114
sg34
S'150'
p115
sg36
S'287'
p116
sg38
S'298'
p117
sg40
S'24'
p118
sg42
S'TOT'
p119
sg44
S'71'
p120
sg46
S'7'
p121
sg48
S'357'
p122
sg50
S'238'
p123
sg52
S'787'
p124
sg54
S'211'
p125
sg56
S'1997-98'
p126
sg58
S'448'
p127
sg60
S'223'
p128
sg62
S'.454'
p129
sg64
S'2839'
p130
sg66
S'71'
p131
sba(isrc.gp1.models.Totals
Totals
p132
(dp133
g8
S'63'
p134
sg10
S'205'
p135
sg12
S'.425'
p136
sg14
S'399'
p137
sg16
S'.317'
p138
sg18
S'65'
p139
sg20
S'952'
p140
sg22
S'PG'
p141
sg24
S'.844'
p142
sg26
S'.464'
p143
sg28
S'NBA'
p144
sg30
S'80'
p145
sg32
S'833'
p146
sg34
S'112'
p147
sg36
S'212'
p148
sg38
S'217'
p149
sg40
S'24'
p150
sg42
S'TOR'
p151
sg44
S'49'
p152
sg46
S'5'
p153
sg48
S'289'
p154
sg50
S'179'
p155
sg52
S'628'
p156
sg54
S'154'
p157
sg56
S'1997-98'
p158
sg58
S'354'
p159
sg60
S'159'
p160
sg62
S'.460'
p161
sg64
S'2033'
p162
sg66
S'49'
p163
sba(isrc.gp1.models.Totals
Totals
p164
(dp165
g8
S'24'
p166
sg10
S'99'
p167
sg12
S'.364'
p168
sg14
S'181'
p169
sg16
S'.263'
p170
sg18
S'26'
p171
sg20
S'273'
p172
sg22
S'PG'
p173
sg24
S'.787'
p174
sg26
S'.415'
p175
sg28
S'NBA'
p176
sg30
S'33'
p177
sg32
S'258'
p178
sg34
S'38'
p179
sg36
S'75'
p180
sg38
S'81'
p181
sg40
S'24'
p182
sg42
S'POR'
p183
sg44
S'22'
p184
sg46
S'2'
p185
sg48
S'68'
p186
sg50
S'59'
p187
sg52
S'159'
p188
sg54
S'57'
p189
sg56
S'1997-98'
p190
sg58
S'94'
p191
sg60
S'64'
p192
sg62
S'.428'
p193
sg64
S'806'
p194
sg66
S'22'
p195
sba(isrc.gp1.models.Totals
Totals
p196
(dp197
g8
S'41'
p198
sg10
S'142'
p199
sg12
S'.396'
p200
sg14
S'312'
p201
sg16
S'.310'
p202
sg18
S'44'
p203
sg20
S'631'
p204
sg22
S'PG'
p205
sg24
S'.730'
p206
sg26
S'.431'
p207
sg28
S'NBA'
p208
sg30
S'49'
p209
sg32
S'629'
p210
sg34
S'81'
p211
sg36
S'122'
p212
sg38
S'167'
p213
sg40
S'25'
p214
sg42
S'POR'
p215
sg44
S'50'
p216
sg46
S'4'
p217
sg48
S'205'
p218
sg50
S'89'
p219
sg52
S'487'
p220
sg54
S'126'
p221
sg56
S'1998-99'
p222
sg58
S'249'
p223
sg60
S'110'
p224
sg62
S'.421'
p225
sg64
S'1673'
p226
sg66
S'50'
p227
sba(isrc.gp1.models.Totals
Totals
p228
(dp229
g8
S'61'
p230
sg10
S'212'
p231
sg12
S'.432'
p232
sg14
S'405'
p233
sg16
S'.377'
p234
sg18
S'80'
p235
sg20
S'974'
p236
sg22
S'PG'
p237
sg24
S'.841'
p238
sg26
S'.477'
p239
sg28
S'NBA'
p240
sg30
S'77'
p241
sg32
S'894'
p242
sg34
S'173'
p243
sg36
S'145'
p244
sg38
S'243'
p245
sg40
S'26'
p246
sg42
S'POR'
p247
sg44
S'78'
p248
sg46
S'1'
p249
sg48
S'306'
p250
sg50
S'122'
p251
sg52
S'682'
p252
sg54
S'182'
p253
sg56
S'1999-00'
p254
sg58
S'386'
p255
sg60
S'149'
p256
sg62
S'.449'
p257
sg64
S'2372'
p258
sg66
S'78'
p259
sba(isrc.gp1.models.Totals
Totals
p260
(dp261
g8
S'69'
p262
sg10
S'219'
p263
sg12
S'.434'
p264
sg14
S'468'
p265
sg16
S'.374'
p266
sg18
S'82'
p267
sg20
S'1066'
p268
sg22
S'PG'
p269
sg24
S'.831'
p270
sg26
S'.478'
p271
sg28
S'NBA'
p272
sg30
S'106'
p273
sg32
S'935'
p274
sg34
S'202'
p275
sg36
S'207'
p276
sg38
S'303'
p277
sg40
S'27'
p278
sg42
S'POR'
p279
sg44
S'82'
p280
sg46
S'8'
p281
sg48
S'324'
p282
sg50
S'172'
p283
sg52
S'716'
p284
sg54
S'234'
p285
sg56
S'2000-01'
p286
sg58
S'406'
p287
sg60
S'191'
p288
sg62
S'.453'
p289
sg64
S'2655'
p290
sg66
S'82'
p291
sba(isrc.gp1.models.Totals
Totals
p292
(dp293
g8
S'78'
p294
sg10
S'295'
p295
sg12
S'.402'
p296
sg14
S'490'
p297
sg16
S'.353'
p298
sg18
S'104'
p299
sg20
S'1016'
p300
sg22
S'PG'
p301
sg24
S'.888'
p302
sg26
S'.459'
p303
sg28
S'NBA'
p304
sg30
S'67'
p305
sg32
S'918'
p306
sg34
S'153'
p307
sg36
S'196'
p308
sg38
S'292'
p309
sg40
S'28'
p310
sg42
S'POR'
p311
sg44
S'75'
p312
sg46
g121
sg48
S'265'
p313
sg50
S'174'
p314
sg52
S'623'
p315
sg54
S'214'
p316
sg56
S'2001-02'
p317
sg58
S'369'
p318
sg60
S'149'
p319
sg62
S'.425'
p320
sg64
S'2796'
p321
sg66
S'71'
p322
sba(isrc.gp1.models.Totals
Totals
p323
(dp324
g8
S'40'
p325
sg10
S'114'
p326
sg12
S'.376'
p327
sg14
S'204'
p328
sg16
S'.386'
p329
sg18
S'44'
p330
sg20
S'409'
p331
sg22
S'PG'
p332
sg24
S'.791'
p333
sg26
S'.429'
p334
sg28
S'NBA'
p335
sg30
S'39'
p336
sg32
S'415'
p337
sg34
S'67'
p338
sg36
S'67'
p339
sg38
S'155'
p340
sg40
S'29'
p341
sg42
S'POR'
p342
sg44
S'59'
p343
sg46
S'6'
p344
sg48
S'112'
p345
sg50
S'53'
p346
sg52
S'301'
p347
sg54
S'115'
p348
sg56
S'2002-03'
p349
sg58
S'156'
p350
sg60
S'82'
p351
sg62
S'.372'
p352
sg64
S'1315'
p353
sg66
S'27'
p354
sba(isrc.gp1.models.Totals
Totals
p355
(dp356
g8
S'52'
p357
sg10
S'427'
p358
sg12
S'.401'
p359
sg14
S'500'
p360
sg16
S'.365'
p361
sg18
S'156'
p362
sg20
S'1099'
p363
sg22
S'PG'
p364
sg24
S'.876'
p365
sg26
S'.477'
p366
sg28
S'NBA'
p367
sg30
S'99'
p368
sg32
S'1018'
p369
sg34
S'173'
p370
sg36
S'145'
p371
sg38
S'308'
p372
sg40
S'30'
p373
sg42
S'POR'
p374
sg44
S'82'
p375
sg46
S'9'
p376
sg48
S'252'
p377
sg50
S'127'
p378
sg52
S'591'
p379
sg54
S'256'
p380
sg56
S'2003-04'
p381
sg58
S'408'
p382
sg60
S'180'
p383
sg62
S'.426'
p384
sg64
S'3118'
p385
sg66
S'82'
p386
sba(isrc.gp1.models.Totals
Totals
p387
(dp388
g8
S'56'
p389
sg10
S'490'
p390
sg12
S'.392'
p391
sg14
S'458'
p392
sg16
S'.369'
p393
sg18
S'181'
p394
sg20
S'1277'
p395
sg22
S'PG'
p396
sg24
S'.915'
p397
sg26
S'.470'
p398
sg28
S'NBA'
p399
sg30
S'86'
p400
sg32
S'1165'
p401
sg34
S'158'
p402
sg36
S'199'
p403
sg38
S'310'
p404
sg40
S'31'
p405
sg42
S'POR'
p406
sg44
S'81'
p407
sg46
g185
sg48
S'276'
p408
sg50
S'182'
p409
sg52
S'675'
p410
sg54
S'254'
p411
sg56
S'2004-05'
p412
sg58
S'457'
p413
sg60
S'164'
p414
sg62
S'.409'
p415
sg64
S'2762'
p416
sg66
S'70'
p417
sba(isrc.gp1.models.Totals
Totals
p418
(dp419
g8
S'23'
p420
sg10
S'104'
p421
sg12
S'.397'
p422
sg14
S'128'
p423
sg16
S'.346'
p424
sg18
S'36'
p425
sg20
S'317'
p426
sg22
S'PG'
p427
sg24
S'.855'
p428
sg26
S'.460'
p429
sg28
S'NBA'
p430
sg30
S'19'
p431
sg32
S'287'
p432
sg34
S'49'
p433
sg36
S'62'
p434
sg38
S'95'
p435
sg40
S'32'
p436
sg42
S'MEM'
p437
sg44
S'27'
p438
sg46
g249
sg48
S'78'
p439
sg50
S'53'
p440
sg52
S'183'
p441
sg54
S'72'
p442
sg56
S'2005-06'
p443
sg58
S'114'
p444
sg60
S'55'
p445
sg62
S'.426'
p446
sg64
S'862'
p447
sg66
S'27'
p448
sba(isrc.gp1.models.Totals
Totals
p449
(dp450
g8
S'31'
p451
sg10
S'175'
p452
sg12
S'.391'
p453
sg14
S'299'
p454
sg16
S'.337'
p455
sg18
S'59'
p456
sg20
S'467'
p457
sg22
S'PG'
p458
sg24
S'.795'
p459
sg26
S'.459'
p460
sg28
S'NBA'
p461
sg30
S'47'
p462
sg32
S'437'
p463
sg34
S'95'
p464
sg36
S'83'
p465
sg38
S'139'
p466
sg40
S'33'
p467
sg42
S'MEM'
p468
sg44
S'62'
p469
sg46
g185
sg48
S'112'
p470
sg50
S'66'
p471
sg52
S'262'
p472
sg54
S'108'
p473
sg56
S'2006-07'
p474
sg58
S'171'
p475
sg60
S'101'
p476
sg62
S'.427'
p477
sg64
S'1501'
p478
sg66
S'51'
p479
sba(isrc.gp1.models.Totals
Totals
p480
(dp481
g8
S'20'
p482
sg10
S'149'
p483
sg12
S'.356'
p484
sg14
S'165'
p485
sg16
S'.336'
p486
sg18
S'50'
p487
sg20
S'317'
p488
sg22
S'PG'
p489
sg24
S'.794'
p490
sg26
S'.430'
p491
sg28
S'NBA'
p492
sg30
S'30'
p493
sg32
S'337'
p494
sg34
S'76'
p495
sg36
S'34'
p496
sg38
S'118'
p497
sg40
S'34'
p498
sg42
S'TOT'
p499
sg44
S'60'
p500
sg46
g185
sg48
S'70'
p501
sg50
S'27'
p502
sg52
S'188'
p503
sg54
S'98'
p504
sg56
S'2007-08'
p505
sg58
S'120'
p506
sg60
S'80'
p507
sg62
S'.372'
p508
sg64
S'1037'
p509
sg66
S'33'
p510
sba(isrc.gp1.models.Totals
Totals
p511
(dp512
g8
S'14'
p513
sg10
S'94'
p514
sg12
S'.397'
p515
sg14
S'112'
p516
sg16
S'.383'
p517
sg18
S'36'
p518
sg20
S'211'
p519
sg22
S'PG'
p520
sg24
S'.808'
p521
sg26
S'.490'
p522
sg28
S'NBA'
p523
sg30
S'19'
p524
sg32
S'194'
p525
sg34
S'46'
p526
sg36
S'26'
p527
sg38
S'71'
p528
sg40
S'34'
p529
sg42
S'MEM'
p530
sg44
S'29'
p531
sg46
S'0'
p532
sg48
S'41'
p533
sg50
S'21'
p534
sg52
S'100'
p535
sg54
S'57'
p536
sg56
S'2007-08'
p537
sg58
S'77'
p538
sg60
S'50'
p539
sg62
S'.410'
p540
sg64
S'624'
p541
sg66
S'29'
p542
sba(isrc.gp1.models.Totals
Totals
p543
(dp544
g8
g344
sg10
S'55'
p545
sg12
S'.301'
p546
sg14
S'53'
p547
sg16
S'.255'
p548
sg18
S'14'
p549
sg20
S'106'
p550
sg22
S'PG'
p551
sg24
S'.750'
p552
sg26
S'.350'
p553
sg28
S'NBA'
p554
sg30
S'11'
p555
sg32
S'143'
p556
sg34
S'30'
p557
sg36
g281
sg38
S'47'
p558
sg40
S'34'
p559
sg42
S'SAS'
p560
sg44
S'31'
p561
sg46
g185
sg48
S'29'
p562
sg50
g344
sg52
S'88'
p563
sg54
S'41'
p564
sg56
S'2007-08'
p565
sg58
S'43'
p566
sg60
S'30'
p567
sg62
S'.330'
p568
sg64
S'413'
p569
sg66
g217
sbasS'_college'
p570
S'University of Arizona'
p571
sS'_toYear'
p572
S'2008'
p573
sS'_height'
p574
S'5-10'
p575
sS'_active'
p576
I00
sS'_shootingHand'
p577
VLeft
p578
sS'_name'
p579
S'Damon Stoudamire'
p580
sS'_per100Possessions'
p581
(lp582
(isrc.gp1.models.Per100Possession
Per100Possession
p583
(dp584
g8
S'1.1'
p585
sg10
S'6.1'
p586
sg12
S'.426'
p587
sS'_offensiveRating'
p588
S'108'
p589
sg14
S'11.7'
p590
sg16
S'.395'
p591
sg18
S'2.4'
p592
sg20
S'23.9'
p593
sg22
S'PG'
p594
sS'_defensiveRating'
p595
S'115'
p596
sg24
S'.797'
p597
sg28
S'NBA'
p598
sg30
S'1.8'
p599
sg32
S'20.3'
p600
sg34
S'3.0'
p601
sg36
S'5.3'
p602
sg38
S'5.1'
p603
sg40
S'22'
p604
sg42
S'TOR'
p605
sg44
S'70'
p606
sg46
S'0.3'
p607
sg48
S'6.3'
p608
sg50
S'4.2'
p609
sg52
S'14.2'
p610
sg54
S'4.0'
p611
sg56
S'1995-96'
p612
sg58
S'8.6'
p613
sg60
S'4.8'
p614
sg62
S'.439'
p615
sg64
S'2865'
p616
sg66
S'70'
p617
sba(isrc.gp1.models.Per100Possession
Per100Possession
p618
(dp619
g8
S'1.4'
p620
sg10
S'7.9'
p621
sg12
S'.401'
p622
sg588
S'109'
p623
sg14
S'11.3'
p624
sg16
S'.355'
p625
sg18
S'2.8'
p626
sg20
S'26.2'
p627
sg22
S'PG'
p628
sg595
S'111'
p629
sg24
S'.823'
p630
sg28
S'NBA'
p631
sg30
S'2.0'
p632
sg32
S'22.5'
p633
sg34
S'2.6'
p634
sg36
S'6.4'
p635
sg38
S'5.3'
p636
sg40
S'23'
p637
sg42
S'TOR'
p638
sg44
S'81'
p639
sg46
S'0.2'
p640
sg48
S'6.2'
p641
sg50
S'5.3'
p642
sg52
S'14.6'
p643
sg54
S'3.9'
p644
sg56
S'1996-97'
p645
sg58
S'9.0'
p646
sg60
S'4.6'
p647
sg62
S'.426'
p648
sg64
S'3311'
p649
sg66
S'81'
p650
sba(isrc.gp1.models.Per100Possession
Per100Possession
p651
(dp652
g8
S'1.6'
p653
sg10
S'5.6'
p654
sg12
S'.411'
p655
sg588
S'106'
p656
sg14
S'10.7'
p657
sg16
S'.299'
p658
sg18
S'1.7'
p659
sg20
S'22.5'
p660
sg22
S'PG'
p661
sg595
S'111'
p662
sg24
S'.829'
p663
sg28
S'NBA'
p664
sg30
S'2.1'
p665
sg32
S'20.1'
p666
sg34
S'2.8'
p667
sg36
S'5.3'
p668
sg38
S'5.5'
p669
sg40
S'24'
p670
sg42
S'TOT'
p671
sg44
S'71'
p672
sg46
S'0.1'
p673
sg48
S'6.6'
p674
sg50
S'4.4'
p675
sg52
S'14.5'
p676
sg54
S'3.9'
p677
sg56
S'1997-98'
p678
sg58
S'8.2'
p679
sg60
S'4.1'
p680
sg62
S'.454'
p681
sg64
S'2839'
p682
sg66
S'71'
p683
sba(isrc.gp1.models.Per100Possession
Per100Possession
p684
(dp685
g8
S'1.6'
p686
sg10
S'5.2'
p687
sg12
S'.425'
p688
sg588
S'107'
p689
sg14
S'10.2'
p690
sg16
S'.317'
p691
sg18
S'1.7'
p692
sg20
S'24.3'
p693
sg22
S'PG'
p694
sg595
S'114'
p695
sg24
S'.844'
p696
sg28
S'NBA'
p697
sg30
S'2.0'
p698
sg32
S'21.2'
p699
sg34
S'2.9'
p700
sg36
S'5.4'
p701
sg38
S'5.5'
p702
sg40
S'24'
p703
sg42
S'TOR'
p704
sg44
S'49'
p705
sg46
S'0.1'
p706
sg48
S'7.4'
p707
sg50
S'4.6'
p708
sg52
S'16.0'
p709
sg54
S'3.9'
p710
sg56
S'1997-98'
p711
sg58
S'9.0'
p712
sg60
S'4.1'
p713
sg62
S'.460'
p714
sg64
S'2033'
p715
sg66
S'49'
p716
sba(isrc.gp1.models.Per100Possession
Per100Possession
p717
(dp718
g8
S'1.6'
p719
sg10
S'6.6'
p720
sg12
S'.364'
p721
sg588
S'103'
p722
sg14
S'12.0'
p723
sg16
S'.263'
p724
sg18
S'1.7'
p725
sg20
S'18.1'
p726
sg22
S'PG'
p727
sg595
S'105'
p728
sg24
S'.787'
p729
sg28
S'NBA'
p730
sg30
S'2.2'
p731
sg32
S'17.1'
p732
sg34
S'2.5'
p733
sg36
S'5.0'
p734
sg38
S'5.4'
p735
sg40
S'24'
p736
sg42
S'POR'
p737
sg44
S'22'
p738
sg46
S'0.1'
p739
sg48
S'4.5'
p740
sg50
S'3.9'
p741
sg52
S'10.5'
p742
sg54
S'3.8'
p743
sg56
S'1997-98'
p744
sg58
S'6.2'
p745
sg60
S'4.2'
p746
sg62
S'.428'
p747
sg64
S'806'
p748
sg66
S'22'
p749
sba(isrc.gp1.models.Per100Possession
Per100Possession
p750
(dp751
g8
S'1.3'
p752
sg10
S'4.6'
p753
sg12
S'.396'
p754
sg588
S'101'
p755
sg14
S'10.0'
p756
sg16
S'.310'
p757
sg18
S'1.4'
p758
sg20
S'20.3'
p759
sg22
S'PG'
p760
sg595
S'102'
p761
sg24
S'.730'
p762
sg28
S'NBA'
p763
sg30
S'1.6'
p764
sg32
S'20.2'
p765
sg34
S'2.6'
p766
sg36
S'3.9'
p767
sg38
S'5.4'
p768
sg40
S'25'
p769
sg42
S'POR'
p770
sg44
S'50'
p771
sg46
S'0.1'
p772
sg48
S'6.6'
p773
sg50
S'2.9'
p774
sg52
S'15.7'
p775
sg54
S'4.1'
p776
sg56
S'1998-99'
p777
sg58
S'8.0'
p778
sg60
S'3.5'
p779
sg62
S'.421'
p780
sg64
S'1673'
p781
sg66
S'50'
p782
sba(isrc.gp1.models.Per100Possession
Per100Possession
p783
(dp784
g8
S'1.4'
p785
sg10
S'4.8'
p786
sg12
S'.432'
p787
sg588
S'107'
p788
sg14
S'9.1'
p789
sg16
S'.377'
p790
sg18
S'1.8'
p791
sg20
S'21.9'
p792
sg22
S'PG'
p793
sg595
S'104'
p794
sg24
S'.841'
p795
sg28
S'NBA'
p796
sg30
S'1.7'
p797
sg32
S'20.1'
p798
sg34
S'3.9'
p799
sg36
S'3.3'
p800
sg38
S'5.5'
p801
sg40
S'26'
p802
sg42
S'POR'
p803
sg44
S'78'
p804
sg46
S'0.0'
p805
sg48
S'6.9'
p806
sg50
S'2.7'
p807
sg52
S'15.4'
p808
sg54
S'4.1'
p809
sg56
S'1999-00'
p810
sg58
S'8.7'
p811
sg60
S'3.4'
p812
sg62
S'.449'
p813
sg64
S'2372'
p814
sg66
S'78'
p815
sba(isrc.gp1.models.Per100Possession
Per100Possession
p816
(dp817
g8
S'1.4'
p818
sg10
S'4.4'
p819
sg12
S'.434'
p820
sg588
S'106'
p821
sg14
S'9.5'
p822
sg16
S'.374'
p823
sg18
S'1.7'
p824
sg20
S'21.6'
p825
sg22
S'PG'
p826
sg595
S'104'
p827
sg24
S'.831'
p828
sg28
S'NBA'
p829
sg30
S'2.1'
p830
sg32
S'19.0'
p831
sg34
S'4.1'
p832
sg36
S'4.2'
p833
sg38
S'6.1'
p834
sg40
S'27'
p835
sg42
S'POR'
p836
sg44
S'82'
p837
sg46
S'0.2'
p838
sg48
S'6.6'
p839
sg50
S'3.5'
p840
sg52
S'14.5'
p841
sg54
S'4.7'
p842
sg56
S'2000-01'
p843
sg58
S'8.2'
p844
sg60
S'3.9'
p845
sg62
S'.453'
p846
sg64
S'2655'
p847
sg66
S'82'
p848
sba(isrc.gp1.models.Per100Possession
Per100Possession
p849
(dp850
g8
S'1.5'
p851
sg10
S'5.7'
p852
sg12
S'.402'
p853
sg588
S'111'
p854
sg14
S'9.4'
p855
sg16
S'.353'
p856
sg18
S'2.0'
p857
sg20
S'19.5'
p858
sg22
S'PG'
p859
sg595
S'108'
p860
sg24
S'.888'
p861
sg28
S'NBA'
p862
sg30
S'1.3'
p863
sg32
S'17.6'
p864
sg34
S'2.9'
p865
sg36
S'3.8'
p866
sg38
S'5.6'
p867
sg40
S'28'
p868
sg42
S'POR'
p869
sg44
S'75'
p870
sg46
S'0.1'
p871
sg48
S'5.1'
p872
sg50
S'3.3'
p873
sg52
S'12.0'
p874
sg54
S'4.1'
p875
sg56
S'2001-02'
p876
sg58
S'7.1'
p877
sg60
S'2.9'
p878
sg62
S'.425'
p879
sg64
S'2796'
p880
sg66
S'71'
p881
sba(isrc.gp1.models.Per100Possession
Per100Possession
p882
(dp883
g8
S'1.6'
p884
sg10
S'4.7'
p885
sg12
S'.376'
p886
sg588
S'99'
p887
sg14
S'8.3'
p888
sg16
S'.386'
p889
sg18
S'1.8'
p890
sg20
S'16.7'
p891
sg22
S'PG'
p892
sg595
S'106'
p893
sg24
S'.791'
p894
sg28
S'NBA'
p895
sg30
S'1.6'
p896
sg32
S'16.9'
p897
sg34
S'2.7'
p898
sg36
S'2.7'
p899
sg38
S'6.3'
p900
sg40
S'29'
p901
sg42
S'POR'
p902
sg44
S'59'
p903
sg46
S'0.2'
p904
sg48
S'4.6'
p905
sg50
S'2.2'
p906
sg52
S'12.3'
p907
sg54
S'4.7'
p908
sg56
S'2002-03'
p909
sg58
S'6.4'
p910
sg60
S'3.3'
p911
sg62
S'.372'
p912
sg64
S'1315'
p913
sg66
S'27'
p914
sba(isrc.gp1.models.Per100Possession
Per100Possession
p915
(dp916
g8
S'0.9'
p917
sg10
S'7.6'
p918
sg12
S'.401'
p919
sg588
S'107'
p920
sg14
S'8.9'
p921
sg16
S'.365'
p922
sg18
S'2.8'
p923
sg20
S'19.6'
p924
sg22
S'PG'
p925
sg595
S'108'
p926
sg24
S'.876'
p927
sg28
S'NBA'
p928
sg30
S'1.8'
p929
sg32
S'18.2'
p930
sg34
S'3.1'
p931
sg36
S'2.6'
p932
sg38
S'5.5'
p933
sg40
S'30'
p934
sg42
S'POR'
p935
sg44
S'82'
p936
sg46
S'0.2'
p937
sg48
S'4.5'
p938
sg50
S'2.3'
p939
sg52
S'10.6'
p940
sg54
S'4.6'
p941
sg56
S'2003-04'
p942
sg58
S'7.3'
p943
sg60
S'3.2'
p944
sg62
S'.426'
p945
sg64
S'3118'
p946
sg66
S'82'
p947
sba(isrc.gp1.models.Per100Possession
Per100Possession
p948
(dp949
g8
S'1.1'
p950
sg10
S'9.5'
p951
sg12
S'.392'
p952
sg588
S'108'
p953
sg14
S'8.9'
p954
sg16
S'.369'
p955
sg18
S'3.5'
p956
sg20
S'24.7'
p957
sg22
S'PG'
p958
sg595
S'110'
p959
sg24
S'.915'
p960
sg28
S'NBA'
p961
sg30
S'1.7'
p962
sg32
S'22.5'
p963
sg34
S'3.1'
p964
sg36
S'3.9'
p965
sg38
S'6.0'
p966
sg40
S'31'
p967
sg42
S'POR'
p968
sg44
S'81'
p969
sg46
S'0.0'
p970
sg48
S'5.3'
p971
sg50
S'3.5'
p972
sg52
S'13.1'
p973
sg54
S'4.9'
p974
sg56
S'2004-05'
p975
sg58
S'8.8'
p976
sg60
S'3.2'
p977
sg62
S'.409'
p978
sg64
S'2762'
p979
sg66
S'70'
p980
sba(isrc.gp1.models.Per100Possession
Per100Possession
p981
(dp982
g8
S'1.5'
p983
sg10
S'6.7'
p984
sg12
S'.397'
p985
sg588
S'104'
p986
sg14
S'8.3'
p987
sg16
S'.346'
p988
sg18
S'2.3'
p989
sg20
S'20.5'
p990
sg22
S'PG'
p991
sg595
S'105'
p992
sg24
S'.855'
p993
sg28
S'NBA'
p994
sg30
S'1.2'
p995
sg32
S'18.5'
p996
sg34
S'3.2'
p997
sg36
S'4.0'
p998
sg38
S'6.1'
p999
sg40
S'32'
p1000
sg42
S'MEM'
p1001
sg44
S'27'
p1002
sg46
S'0.1'
p1003
sg48
S'5.0'
p1004
sg50
S'3.4'
p1005
sg52
S'11.8'
p1006
sg54
S'4.6'
p1007
sg56
S'2005-06'
p1008
sg58
S'7.4'
p1009
sg60
S'3.5'
p1010
sg62
S'.426'
p1011
sg64
S'862'
p1012
sg66
S'27'
p1013
sba(isrc.gp1.models.Per100Possession
Per100Possession
p1014
(dp1015
g8
S'1.1'
p1016
sg10
S'6.0'
p1017
sg12
S'.391'
p1018
sg588
S'104'
p1019
sg14
S'10.2'
p1020
sg16
S'.337'
p1021
sg18
S'2.0'
p1022
sg20
S'16.0'
p1023
sg22
S'PG'
p1024
sg595
S'115'
p1025
sg24
S'.795'
p1026
sg28
S'NBA'
p1027
sg30
S'1.6'
p1028
sg32
S'14.9'
p1029
sg34
S'3.2'
p1030
sg36
S'2.8'
p1031
sg38
S'4.7'
p1032
sg40
S'33'
p1033
sg42
S'MEM'
p1034
sg44
S'62'
p1035
sg46
S'0.1'
p1036
sg48
S'3.8'
p1037
sg50
S'2.3'
p1038
sg52
S'9.0'
p1039
sg54
S'3.7'
p1040
sg56
S'2006-07'
p1041
sg58
S'5.8'
p1042
sg60
S'3.5'
p1043
sg62
S'.427'
p1044
sg64
S'1501'
p1045
sg66
S'51'
p1046
sba(isrc.gp1.models.Per100Possession
Per100Possession
p1047
(dp1048
g8
S'1.0'
p1049
sg10
S'7.4'
p1050
sg12
S'.356'
p1051
sg588
S'92'
p1052
sg14
S'8.2'
p1053
sg16
S'.336'
p1054
sg18
S'2.5'
p1055
sg20
S'15.8'
p1056
sg22
S'PG'
p1057
sg595
S'110'
p1058
sg24
S'.794'
p1059
sg28
S'NBA'
p1060
sg30
S'1.5'
p1061
sg32
S'16.8'
p1062
sg34
S'3.8'
p1063
sg36
S'1.7'
p1064
sg38
S'5.9'
p1065
sg40
S'34'
p1066
sg42
S'TOT'
p1067
sg44
S'60'
p1068
sg46
S'0.1'
p1069
sg48
S'3.5'
p1070
sg50
S'1.3'
p1071
sg52
S'9.4'
p1072
sg54
S'4.9'
p1073
sg56
S'2007-08'
p1074
sg58
S'6.0'
p1075
sg60
S'4.0'
p1076
sg62
S'.372'
p1077
sg64
S'1037'
p1078
sg66
S'33'
p1079
sba(isrc.gp1.models.Per100Possession
Per100Possession
p1080
(dp1081
g8
S'1.1'
p1082
sg10
S'7.6'
p1083
sg12
S'.397'
p1084
sg588
S'102'
p1085
sg14
S'9.0'
p1086
sg16
S'.383'
p1087
sg18
S'2.9'
p1088
sg20
S'17.0'
p1089
sg22
S'PG'
p1090
sg595
S'113'
p1091
sg24
S'.808'
p1092
sg28
S'NBA'
p1093
sg30
S'1.5'
p1094
sg32
S'15.7'
p1095
sg34
S'3.7'
p1096
sg36
S'2.1'
p1097
sg38
S'5.7'
p1098
sg40
S'34'
p1099
sg42
S'MEM'
p1100
sg44
S'29'
p1101
sg46
S'0.0'
p1102
sg48
S'3.3'
p1103
sg50
S'1.7'
p1104
sg52
S'8.1'
p1105
sg54
S'4.6'
p1106
sg56
S'2007-08'
p1107
sg58
S'6.2'
p1108
sg60
S'4.0'
p1109
sg62
S'.410'
p1110
sg64
S'624'
p1111
sg66
S'29'
p1112
sba(isrc.gp1.models.Per100Possession
Per100Possession
p1113
(dp1114
g8
S'0.8'
p1115
sg10
S'7.2'
p1116
sg12
S'.301'
p1117
sg588
S'77'
p1118
sg14
S'6.9'
p1119
sg16
S'.255'
p1120
sg18
S'1.8'
p1121
sg20
S'13.9'
p1122
sg22
S'PG'
p1123
sg595
S'104'
p1124
sg24
S'.750'
p1125
sg28
S'NBA'
p1126
sg30
S'1.4'
p1127
sg32
S'18.7'
p1128
sg34
S'3.9'
p1129
sg36
S'1.0'
p1130
sg38
S'6.2'
p1131
sg40
S'34'
p1132
sg42
S'SAS'
p1133
sg44
S'31'
p1134
sg46
S'0.3'
p1135
sg48
S'3.8'
p1136
sg50
S'0.8'
p1137
sg52
S'11.5'
p1138
sg54
S'5.4'
p1139
sg56
S'2007-08'
p1140
sg58
S'5.6'
p1141
sg60
S'3.9'
p1142
sg62
S'.330'
p1143
sg64
S'413'
p1144
sg66
g217
sbasS'_advanced'
p1145
(lp1146
(isrc.gp1.models.Advanced
Advanced
p1147
(dp1148
S'_offensiveReboundPercentage'
p1149
S'2.4'
p1150
sS'_turnOverPercentage'
p1151
S'17.5'
p1152
sS'_winSharesPer48Minutes'
p1153
S'.072'
p1154
sS'_stealPercentage'
p1155
S'1.8'
p1156
sS'_usagePercentage'
p1157
S'23.5'
p1158
sS'_totalReboundsPercentage'
p1159
S'5.8'
p1160
sS'_defensiveBoxPlusMinus'
p1161
S'-2.7'
p1162
sg22
S'PG'
p1163
sS'_valueOverReplacementPlayer'
p1164
S'1.0'
p1165
sS'_trueShootingPercentage'
p1166
S'.528'
p1167
sS'_defensiveReboundPercentage'
p1168
S'9.3'
p1169
sS'_freeThrowsAttempRate'
p1170
S'.262'
p1171
sS'_threePointsAttempRate'
p1172
S'.298'
p1173
sg28
S'NBA'
p1174
sS'_offensiveBoxPlusMinues'
p1175
S'2.2'
p1176
sS'_assistPercentage'
p1177
S'37.4'
p1178
sS'_defensiveWinShares'
p1179
S'0.6'
p1180
sg40
S'22'
p1181
sg42
S'TOR'
p1182
sg44
S'70'
p1183
sS'_blockPercentage'
p1184
S'0.5'
p1185
sS'_playerEfficiencyRating'
p1186
S'16.7'
p1187
sS'_offensiveWinShares'
p1188
S'3.7'
p1189
sg64
S'2865'
p1190
sS'_boxPlusMinus'
p1191
S'-0.6'
p1192
sg56
S'1995-96'
p1193
sS'_winShares'
p1194
S'4.3'
p1195
sba(isrc.gp1.models.Advanced
Advanced
p1196
(dp1197
g1149
S'3.0'
p1198
sg1151
S'15.4'
p1199
sg1153
S'.110'
p1200
sg1155
S'2.0'
p1201
sg1157
S'25.3'
p1202
sg1159
S'5.8'
p1203
sg1161
S'-2.1'
p1204
sg22
S'PG'
p1205
sg1164
S'2.8'
p1206
sg1166
S'.516'
p1207
sg1168
S'8.9'
p1208
sg1170
S'.285'
p1209
sg1172
S'.353'
p1210
sg28
S'NBA'
p1211
sg1175
S'3.4'
p1212
sg1177
S'38.2'
p1213
sg1179
S'1.8'
p1214
sg40
S'23'
p1215
sg42
S'TOR'
p1216
sg44
S'81'
p1217
sg1184
S'0.3'
p1218
sg1186
S'18.1'
p1219
sg1188
S'5.8'
p1220
sg64
S'3311'
p1221
sg1191
S'1.3'
p1222
sg56
S'1996-97'
p1223
sg1194
S'7.6'
p1224
sba(isrc.gp1.models.Advanced
Advanced
p1225
(dp1226
g1149
S'3.4'
p1227
sg1151
S'15.5'
p1228
sg1153
S'.079'
p1229
sg1155
S'2.1'
p1230
sg1157
S'22.4'
p1231
sg1159
S'5.9'
p1232
sg1161
S'-2.5'
p1233
sg22
S'PG'
p1234
sg1164
S'1.4'
p1235
sg1166
S'.503'
p1236
sg1168
S'8.6'
p1237
sg1170
S'.263'
p1238
sg1172
S'.279'
p1239
sg28
S'NBA'
p1240
sg1175
S'2.5'
p1241
sg1177
S'35.1'
p1242
sg1179
S'0.8'
p1243
sg40
S'24'
p1244
sg42
S'TOT'
p1245
sg44
S'71'
p1246
sg1184
S'0.2'
p1247
sg1186
S'16.8'
p1248
sg1188
S'3.9'
p1249
sg64
S'2839'
p1250
sg1191
S'-0.1'
p1251
sg56
S'1997-98'
p1252
sg1194
S'4.7'
p1253
sba(isrc.gp1.models.Advanced
Advanced
p1254
(dp1255
g1149
S'3.3'
p1256
sg1151
S'14.7'
p1257
sg1153
S'.074'
p1258
sg1155
S'2.0'
p1259
sg1157
S'23.4'
p1260
sg1159
S'6.0'
p1261
sg1161
S'-3.2'
p1262
sg22
S'PG'
p1263
sg1164
S'1.0'
p1264
sg1166
S'.514'
p1265
sg1168
S'8.8'
p1266
sg1170
S'.255'
p1267
sg1172
S'.246'
p1268
sg28
S'NBA'
p1269
sg1175
S'3.0'
p1270
sg1177
S'34.4'
p1271
sg1179
S'-0.1'
p1272
sg40
S'24'
p1273
sg42
S'TOR'
p1274
sg44
S'49'
p1275
sg1184
S'0.2'
p1276
sg1186
S'17.7'
p1277
sg1188
S'3.2'
p1278
sg64
S'2033'
p1279
sg1191
S'-0.1'
p1280
sg56
S'1997-98'
p1281
sg1194
S'3.2'
p1282
sba(isrc.gp1.models.Advanced
Advanced
p1283
(dp1284
g1149
S'3.6'
p1285
sg1151
S'18.0'
p1286
sg1153
S'.091'
p1287
sg1155
S'2.2'
p1288
sg1157
S'19.9'
p1289
sg1159
S'5.8'
p1290
sg1161
S'-1.0'
p1291
sg22
S'PG'
p1292
sg1164
S'0.4'
p1293
sg1166
S'.469'
p1294
sg1168
S'7.9'
p1295
sg1170
S'.291'
p1296
sg1172
S'.384'
p1297
sg28
S'NBA'
p1298
sg1175
S'1.1'
p1299
sg1177
S'36.8'
p1300
sg1179
S'0.9'
p1301
sg40
S'24'
p1302
sg42
S'POR'
p1303
sg44
S'22'
p1304
sg1184
S'0.2'
p1305
sg1186
S'14.5'
p1306
sg1188
S'0.7'
p1307
sg64
S'806'
p1308
sg1191
S'0.1'
p1309
sg56
S'1997-98'
p1310
sg1194
S'1.5'
p1311
sba(isrc.gp1.models.Advanced
Advanced
p1312
(dp1313
g1149
S'2.9'
p1314
sg1151
S'13.9'
p1315
sg1153
S'.102'
p1316
sg1155
S'1.6'
p1317
sg1157
S'21.7'
p1318
sg1159
S'5.8'
p1319
sg1161
S'-0.8'
p1320
sg22
S'PG'
p1321
sg1164
S'0.9'
p1322
sg1166
S'.462'
p1323
sg1168
S'8.4'
p1324
sg1170
S'.194'
p1325
sg1172
S'.226'
p1326
sg28
S'NBA'
p1327
sg1175
S'0.9'
p1328
sg1177
S'32.8'
p1329
sg1179
S'1.8'
p1330
sg40
S'25'
p1331
sg42
S'POR'
p1332
sg44
S'50'
p1333
sg1184
S'0.2'
p1334
sg1186
S'14.7'
p1335
sg1188
S'1.7'
p1336
sg64
S'1673'
p1337
sg1191
S'0.1'
p1338
sg56
S'1998-99'
p1339
sg1194
S'3.6'
p1340
sba(isrc.gp1.models.Advanced
Advanced
p1341
(dp1342
g1149
S'3.2'
p1343
sg1151
S'13.5'
p1344
sg1153
S'.124'
p1345
sg1155
S'1.7'
p1346
sg1157
S'21.5'
p1347
sg1159
S'6.0'
p1348
sg1161
S'-1.0'
p1349
sg22
S'PG'
p1350
sg1164
S'1.6'
p1351
sg1166
S'.508'
p1352
sg1168
S'8.6'
p1353
sg1170
S'.162'
p1354
sg1172
S'.237'
p1355
sg28
S'NBA'
p1356
sg1175
S'1.7'
p1357
sg1177
S'28.4'
p1358
sg1179
S'2.5'
p1359
sg40
S'26'
p1360
sg42
S'POR'
p1361
sg44
S'78'
p1362
sg1184
S'0.0'
p1363
sg1186
S'15.5'
p1364
sg1188
S'3.6'
p1365
sg64
S'2372'
p1366
sg1191
S'0.7'
p1367
sg56
S'1999-00'
p1368
sg1194
S'6.1'
p1369
sba(isrc.gp1.models.Advanced
Advanced
p1370
(dp1371
g1149
S'3.2'
p1372
sg1151
S'15.7'
p1373
sg1153
S'.121'
p1374
sg1155
S'2.1'
p1375
sg1157
S'21.3'
p1376
sg1159
S'6.8'
p1377
sg1161
S'-0.7'
p1378
sg22
S'PG'
p1379
sg1164
S'2.1'
p1380
sg1166
S'.519'
p1381
sg1168
S'10.2'
p1382
sg1170
S'.221'
p1383
sg1172
S'.234'
p1384
sg28
S'NBA'
p1385
sg1175
S'1.8'
p1386
sg1177
S'29.1'
p1387
sg1179
S'2.5'
p1388
sg40
S'27'
p1389
sg42
S'POR'
p1390
sg44
S'82'
p1391
sg1184
S'0.2'
p1392
sg1186
S'16.3'
p1393
sg1188
S'4.1'
p1394
sg64
S'2655'
p1395
sg1191
S'1.1'
p1396
sg56
S'2000-01'
p1397
sg1194
S'6.7'
p1398
sba(isrc.gp1.models.Advanced
Advanced
p1399
(dp1400
g1149
S'3.2'
p1401
sg1151
S'12.9'
p1402
sg1153
S'.113'
p1403
sg1155
S'1.3'
p1404
sg1157
S'18.8'
p1405
sg1159
S'6.1'
p1406
sg1161
S'-1.3'
p1407
sg22
S'PG'
p1408
sg1164
S'1.8'
p1409
sg1166
S'.506'
p1410
sg1168
S'9.1'
p1411
sg1170
S'.214'
p1412
sg1172
S'.321'
p1413
sg28
S'NBA'
p1414
sg1175
S'1.9'
p1415
sg1177
S'28.0'
p1416
sg1179
S'1.7'
p1417
sg40
S'28'
p1418
sg42
S'POR'
p1419
sg44
S'75'
p1420
sg1184
S'0.2'
p1421
sg1186
S'14.7'
p1422
sg1188
S'4.9'
p1423
sg64
S'2796'
p1424
sg1191
S'0.6'
p1425
sg56
S'2001-02'
p1426
sg1194
S'6.6'
p1427
sba(isrc.gp1.models.Advanced
Advanced
p1428
(dp1429
g1149
S'3.7'
p1430
sg1151
S'15.6'
p1431
sg1153
S'.059'
p1432
sg1155
S'1.6'
p1433
sg1157
S'18.5'
p1434
sg1159
S'7.1'
p1435
sg1161
S'-1.0'
p1436
sg22
S'PG'
p1437
sg1164
S'0.0'
p1438
sg1166
S'.460'
p1439
sg1168
S'10.6'
p1440
sg1170
S'.161'
p1441
sg1172
S'.275'
p1442
sg28
S'NBA'
p1443
sg1175
S'-0.9'
p1444
sg1177
S'24.5'
p1445
sg1179
S'1.1'
p1446
sg40
S'29'
p1447
sg42
S'POR'
p1448
sg44
S'59'
p1449
sg1184
S'0.3'
p1450
sg1186
S'12.1'
p1451
sg1188
S'0.6'
p1452
sg64
S'1315'
p1453
sg1191
S'-1.9'
p1454
sg56
S'2002-03'
p1455
sg1194
S'1.6'
p1456
sba(isrc.gp1.models.Advanced
Advanced
p1457
(dp1458
g1149
S'2.0'
p1459
sg1151
S'14.3'
p1460
sg1153
S'.091'
p1461
sg1155
S'1.8'
p1462
sg1157
S'19.2'
p1463
sg1159
S'5.9'
p1464
sg1161
S'-1.5'
p1465
sg22
S'PG'
p1466
sg1164
S'2.1'
p1467
sg1166
S'.508'
p1468
sg1168
S'9.7'
p1469
sg1170
S'.142'
p1470
sg1172
S'.419'
p1471
sg28
S'NBA'
p1472
sg1175
S'2.2'
p1473
sg1177
S'27.0'
p1474
sg1179
S'1.4'
p1475
sg40
S'30'
p1476
sg42
S'POR'
p1477
sg44
S'82'
p1478
sg1184
S'0.2'
p1479
sg1186
S'14.8'
p1480
sg1188
S'4.5'
p1481
sg64
S'3118'
p1482
sg1191
S'0.6'
p1483
sg56
S'2003-04'
p1484
sg1194
S'5.9'
p1485
sba(isrc.gp1.models.Advanced
Advanced
p1486
(dp1487
g1149
S'2.4'
p1488
sg1151
S'11.6'
p1489
sg1153
S'.099'
p1490
sg1155
S'1.7'
p1491
sg1157
S'23.6'
p1492
sg1159
S'6.5'
p1493
sg1161
S'-2.0'
p1494
sg22
S'PG'
p1495
sg1164
S'2.2'
p1496
sg1166
S'.510'
p1497
sg1168
S'10.2'
p1498
sg1170
S'.171'
p1499
sg1172
S'.421'
p1500
sg28
S'NBA'
p1501
sg1175
S'3.2'
p1502
sg1177
S'29.2'
p1503
sg1179
S'1.4'
p1504
sg40
S'31'
p1505
sg42
S'POR'
p1506
sg44
S'81'
p1507
sg1184
S'0.1'
p1508
sg1186
S'16.6'
p1509
sg1188
S'4.2'
p1510
sg64
S'2762'
p1511
sg1191
S'1.1'
p1512
sg56
S'2004-05'
p1513
sg1194
S'5.7'
p1514
sba(isrc.gp1.models.Advanced
Advanced
p1515
(dp1516
g1149
S'3.3'
p1517
sg1151
S'14.9'
p1518
sg1153
S'.093'
p1519
sg1155
S'1.2'
p1520
sg1157
S'20.8'
p1521
sg1159
S'6.7'
p1522
sg1161
S'-1.0'
p1523
sg22
S'PG'
p1524
sg1164
S'0.3'
p1525
sg1166
S'.504'
p1526
sg1168
S'10.0'
p1527
sg1170
S'.216'
p1528
sg1172
S'.362'
p1529
sg28
S'NBA'
p1530
sg1175
S'0.5'
p1531
sg1177
S'26.6'
p1532
sg1179
S'1.0'
p1533
sg40
S'32'
p1534
sg42
S'MEM'
p1535
sg44
S'27'
p1536
sg1184
S'0.1'
p1537
sg1186
S'13.7'
p1538
sg1188
S'0.7'
p1539
sg64
S'862'
p1540
sg1191
S'-0.6'
p1541
sg56
S'2005-06'
p1542
sg1194
S'1.7'
p1543
sba(isrc.gp1.models.Advanced
Advanced
p1544
(dp1545
g1149
S'2.5'
p1546
sg1151
S'17.6'
p1547
sg1153
S'.036'
p1548
sg1155
S'1.6'
p1549
sg1157
S'17.3'
p1550
sg1159
S'5.5'
p1551
sg1161
S'-2.9'
p1552
sg22
S'PG'
p1553
sg1164
S'-0.2'
p1554
sg1166
S'.493'
p1555
sg1168
S'8.6'
p1556
sg1170
S'.190'
p1557
sg1172
S'.400'
p1558
sg28
S'NBA'
p1559
sg1175
S'0.3'
p1560
sg1177
S'31.3'
p1561
sg1179
S'0.1'
p1562
sg40
S'33'
p1563
sg42
S'MEM'
p1564
sg44
S'62'
p1565
sg1184
S'0.1'
p1566
sg1186
S'12.6'
p1567
sg1188
S'1.1'
p1568
sg64
S'1501'
p1569
sg1191
S'-2.6'
p1570
sg56
S'2006-07'
p1571
sg1194
S'1.1'
p1572
sba(isrc.gp1.models.Advanced
Advanced
p1573
(dp1574
g1149
S'2.2'
p1575
sg1151
S'18.5'
p1576
sg1153
S'-0.004'
p1577
sg1155
S'1.5'
p1578
sg1157
S'19.1'
p1579
sg1159
S'6.5'
p1580
sg1161
S'-1.4'
p1581
sg22
S'PG'
p1582
sg1164
S'-0.6'
p1583
sg1166
S'.450'
p1584
sg1168
S'10.8'
p1585
sg1170
S'.101'
p1586
sg1172
S'.442'
p1587
sg28
S'NBA'
p1588
sg1175
S'-2.7'
p1589
sg1177
S'24.6'
p1590
sg1179
S'0.8'
p1591
sg40
S'34'
p1592
sg42
S'TOT'
p1593
sg44
S'60'
p1594
sg1184
S'0.1'
p1595
sg1186
S'8.9'
p1596
sg1188
S'-0.9'
p1597
sg64
S'1037'
p1598
sg1191
S'-4.1'
p1599
sg56
S'2007-08'
p1600
sg1194
S'-0.1'
p1601
sba(isrc.gp1.models.Advanced
Advanced
p1602
(dp1603
g1149
S'2.5'
p1604
sg1151
S'19.6'
p1605
sg1153
S'.033'
p1606
sg1155
S'1.5'
p1607
sg1157
S'18.2'
p1608
sg1159
S'6.4'
p1609
sg1161
S'-2.3'
p1610
sg22
S'PG'
p1611
sg1164
S'-0.1'
p1612
sg1166
S'.514'
p1613
sg1168
S'10.3'
p1614
sg1170
S'.134'
p1615
sg1172
S'.485'
p1616
sg28
S'NBA'
p1617
sg1175
S'-0.4'
p1618
sg1177
S'27.7'
p1619
sg1179
S'0.2'
p1620
sg40
S'34'
p1621
sg42
S'MEM'
p1622
sg44
S'29'
p1623
sg1184
S'0.0'
p1624
sg1186
S'11.8'
p1625
sg1188
S'0.2'
p1626
sg64
S'624'
p1627
sg1191
S'-2.7'
p1628
sg56
S'2007-08'
p1629
sg1194
S'0.4'
p1630
sba(isrc.gp1.models.Advanced
Advanced
p1631
(dp1632
g1149
S'1.7'
p1633
sg1151
S'17.0'
p1634
sg1153
S'-0.060'
p1635
sg1155
S'1.4'
p1636
sg1157
S'20.5'
p1637
sg1159
S'6.7'
p1638
sg1161
S'-0.1'
p1639
sg22
S'PG'
p1640
sg1164
S'-0.4'
p1641
sg1166
S'.362'
p1642
sg1168
S'11.6'
p1643
sg1170
S'.056'
p1644
sg1172
S'.385'
p1645
sg28
S'NBA'
p1646
sg1175
S'-6.1'
p1647
sg1177
S'20.0'
p1648
sg1179
S'0.6'
p1649
sg40
S'34'
p1650
sg42
S'SAS'
p1651
sg44
S'31'
p1652
sg1184
S'0.4'
p1653
sg1186
S'4.6'
p1654
sg1188
S'-1.1'
p1655
sg64
S'413'
p1656
sg1191
S'-6.2'
p1657
sg56
S'2007-08'
p1658
sg1194
S'-0.5'
p1659
sbasS'_per36Minutes'
p1660
(lp1661
(isrc.gp1.models.Per36Minutes
Per36Minutes
p1662
(dp1663
g8
S'0.7'
p1664
sg10
S'4.2'
p1665
sg12
S'.426'
p1666
sg14
S'8.2'
p1667
sg16
S'.395'
p1668
sg18
S'1.7'
p1669
sg20
S'16.7'
p1670
sg22
S'PG'
p1671
sg24
S'.797'
p1672
sg28
S'NBA'
p1673
sg30
S'1.2'
p1674
sg32
S'14.2'
p1675
sg34
S'2.1'
p1676
sg36
S'3.7'
p1677
sg38
S'3.5'
p1678
sg40
S'22'
p1679
sg42
S'TOR'
p1680
sg44
S'70'
p1681
sg46
S'0.2'
p1682
sg48
S'4.4'
p1683
sg50
S'3.0'
p1684
sg52
S'10.0'
p1685
sg54
S'2.8'
p1686
sg56
S'1995-96'
p1687
sg58
S'6.0'
p1688
sg60
S'3.4'
p1689
sg62
S'.439'
p1690
sg64
S'2865'
p1691
sg66
S'70'
p1692
sba(isrc.gp1.models.Per36Minutes
Per36Minutes
p1693
(dp1694
g8
S'0.9'
p1695
sg10
S'5.4'
p1696
sg12
S'.401'
p1697
sg14
S'7.7'
p1698
sg16
S'.355'
p1699
sg18
S'1.9'
p1700
sg20
S'17.8'
p1701
sg22
S'PG'
p1702
sg24
S'.823'
p1703
sg28
S'NBA'
p1704
sg30
S'1.3'
p1705
sg32
S'15.3'
p1706
sg34
S'1.8'
p1707
sg36
S'4.4'
p1708
sg38
S'3.6'
p1709
sg40
S'23'
p1710
sg42
S'TOR'
p1711
sg44
S'81'
p1712
sg46
S'0.1'
p1713
sg48
S'4.2'
p1714
sg50
S'3.6'
p1715
sg52
S'9.9'
p1716
sg54
S'2.7'
p1717
sg56
S'1996-97'
p1718
sg58
S'6.1'
p1719
sg60
S'3.1'
p1720
sg62
S'.426'
p1721
sg64
S'3311'
p1722
sg66
S'81'
p1723
sba(isrc.gp1.models.Per36Minutes
Per36Minutes
p1724
(dp1725
g8
S'1.1'
p1726
sg10
S'3.9'
p1727
sg12
S'.411'
p1728
sg14
S'7.4'
p1729
sg16
S'.299'
p1730
sg18
S'1.2'
p1731
sg20
S'15.5'
p1732
sg22
S'PG'
p1733
sg24
S'.829'
p1734
sg28
S'NBA'
p1735
sg30
S'1.4'
p1736
sg32
S'13.8'
p1737
sg34
S'1.9'
p1738
sg36
S'3.6'
p1739
sg38
S'3.8'
p1740
sg40
S'24'
p1741
sg42
S'TOT'
p1742
sg44
S'71'
p1743
sg46
S'0.1'
p1744
sg48
S'4.5'
p1745
sg50
S'3.0'
p1746
sg52
S'10.0'
p1747
sg54
S'2.7'
p1748
sg56
S'1997-98'
p1749
sg58
S'5.7'
p1750
sg60
S'2.8'
p1751
sg62
S'.454'
p1752
sg64
S'2839'
p1753
sg66
S'71'
p1754
sba(isrc.gp1.models.Per36Minutes
Per36Minutes
p1755
(dp1756
g8
S'1.1'
p1757
sg10
S'3.6'
p1758
sg12
S'.425'
p1759
sg14
S'7.1'
p1760
sg16
S'.317'
p1761
sg18
S'1.2'
p1762
sg20
S'16.9'
p1763
sg22
S'PG'
p1764
sg24
S'.844'
p1765
sg28
S'NBA'
p1766
sg30
S'1.4'
p1767
sg32
S'14.8'
p1768
sg34
S'2.0'
p1769
sg36
S'3.8'
p1770
sg38
S'3.8'
p1771
sg40
S'24'
p1772
sg42
S'TOR'
p1773
sg44
S'49'
p1774
sg46
S'0.1'
p1775
sg48
S'5.1'
p1776
sg50
S'3.2'
p1777
sg52
S'11.1'
p1778
sg54
S'2.7'
p1779
sg56
S'1997-98'
p1780
sg58
S'6.3'
p1781
sg60
S'2.8'
p1782
sg62
S'.460'
p1783
sg64
S'2033'
p1784
sg66
S'49'
p1785
sba(isrc.gp1.models.Per36Minutes
Per36Minutes
p1786
(dp1787
g8
S'1.1'
p1788
sg10
S'4.4'
p1789
sg12
S'.364'
p1790
sg14
S'8.1'
p1791
sg16
S'.263'
p1792
sg18
S'1.2'
p1793
sg20
S'12.2'
p1794
sg22
S'PG'
p1795
sg24
S'.787'
p1796
sg28
S'NBA'
p1797
sg30
S'1.5'
p1798
sg32
S'11.5'
p1799
sg34
S'1.7'
p1800
sg36
S'3.3'
p1801
sg38
S'3.6'
p1802
sg40
S'24'
p1803
sg42
S'POR'
p1804
sg44
S'22'
p1805
sg46
S'0.1'
p1806
sg48
S'3.0'
p1807
sg50
S'2.6'
p1808
sg52
S'7.1'
p1809
sg54
S'2.5'
p1810
sg56
S'1997-98'
p1811
sg58
S'4.2'
p1812
sg60
S'2.9'
p1813
sg62
S'.428'
p1814
sg64
S'806'
p1815
sg66
S'22'
p1816
sba(isrc.gp1.models.Per36Minutes
Per36Minutes
p1817
(dp1818
g8
S'0.9'
p1819
sg10
S'3.1'
p1820
sg12
S'.396'
p1821
sg14
S'6.7'
p1822
sg16
S'.310'
p1823
sg18
S'0.9'
p1824
sg20
S'13.6'
p1825
sg22
S'PG'
p1826
sg24
S'.730'
p1827
sg28
S'NBA'
p1828
sg30
S'1.1'
p1829
sg32
S'13.5'
p1830
sg34
S'1.7'
p1831
sg36
S'2.6'
p1832
sg38
S'3.6'
p1833
sg40
S'25'
p1834
sg42
S'POR'
p1835
sg44
S'50'
p1836
sg46
S'0.1'
p1837
sg48
S'4.4'
p1838
sg50
S'1.9'
p1839
sg52
S'10.5'
p1840
sg54
S'2.7'
p1841
sg56
S'1998-99'
p1842
sg58
S'5.4'
p1843
sg60
S'2.4'
p1844
sg62
S'.421'
p1845
sg64
S'1673'
p1846
sg66
S'50'
p1847
sba(isrc.gp1.models.Per36Minutes
Per36Minutes
p1848
(dp1849
g8
S'0.9'
p1850
sg10
S'3.2'
p1851
sg12
S'.432'
p1852
sg14
S'6.1'
p1853
sg16
S'.377'
p1854
sg18
S'1.2'
p1855
sg20
S'14.8'
p1856
sg22
S'PG'
p1857
sg24
S'.841'
p1858
sg28
S'NBA'
p1859
sg30
S'1.2'
p1860
sg32
S'13.6'
p1861
sg34
S'2.6'
p1862
sg36
S'2.2'
p1863
sg38
S'3.7'
p1864
sg40
S'26'
p1865
sg42
S'POR'
p1866
sg44
S'78'
p1867
sg46
S'0.0'
p1868
sg48
S'4.6'
p1869
sg50
S'1.9'
p1870
sg52
S'10.4'
p1871
sg54
S'2.8'
p1872
sg56
S'1999-00'
p1873
sg58
S'5.9'
p1874
sg60
S'2.3'
p1875
sg62
S'.449'
p1876
sg64
S'2372'
p1877
sg66
S'78'
p1878
sba(isrc.gp1.models.Per36Minutes
Per36Minutes
p1879
(dp1880
g8
S'0.9'
p1881
sg10
S'3.0'
p1882
sg12
S'.434'
p1883
sg14
S'6.3'
p1884
sg16
S'.374'
p1885
sg18
S'1.1'
p1886
sg20
S'14.5'
p1887
sg22
S'PG'
p1888
sg24
S'.831'
p1889
sg28
S'NBA'
p1890
sg30
S'1.4'
p1891
sg32
S'12.7'
p1892
sg34
S'2.7'
p1893
sg36
S'2.8'
p1894
sg38
S'4.1'
p1895
sg40
S'27'
p1896
sg42
S'POR'
p1897
sg44
S'82'
p1898
sg46
S'0.1'
p1899
sg48
S'4.4'
p1900
sg50
S'2.3'
p1901
sg52
S'9.7'
p1902
sg54
S'3.2'
p1903
sg56
S'2000-01'
p1904
sg58
S'5.5'
p1905
sg60
S'2.6'
p1906
sg62
S'.453'
p1907
sg64
S'2655'
p1908
sg66
S'82'
p1909
sba(isrc.gp1.models.Per36Minutes
Per36Minutes
p1910
(dp1911
g8
S'1.0'
p1912
sg10
S'3.8'
p1913
sg12
S'.402'
p1914
sg14
S'6.3'
p1915
sg16
S'.353'
p1916
sg18
S'1.3'
p1917
sg20
S'13.1'
p1918
sg22
S'PG'
p1919
sg24
S'.888'
p1920
sg28
S'NBA'
p1921
sg30
S'0.9'
p1922
sg32
S'11.8'
p1923
sg34
S'2.0'
p1924
sg36
S'2.5'
p1925
sg38
S'3.8'
p1926
sg40
S'28'
p1927
sg42
S'POR'
p1928
sg44
S'75'
p1929
sg46
S'0.1'
p1930
sg48
S'3.4'
p1931
sg50
S'2.2'
p1932
sg52
S'8.0'
p1933
sg54
S'2.8'
p1934
sg56
S'2001-02'
p1935
sg58
S'4.8'
p1936
sg60
S'1.9'
p1937
sg62
S'.425'
p1938
sg64
S'2796'
p1939
sg66
S'71'
p1940
sba(isrc.gp1.models.Per36Minutes
Per36Minutes
p1941
(dp1942
g8
S'1.1'
p1943
sg10
S'3.1'
p1944
sg12
S'.376'
p1945
sg14
S'5.6'
p1946
sg16
S'.386'
p1947
sg18
S'1.2'
p1948
sg20
S'11.2'
p1949
sg22
S'PG'
p1950
sg24
S'.791'
p1951
sg28
S'NBA'
p1952
sg30
S'1.1'
p1953
sg32
S'11.4'
p1954
sg34
S'1.8'
p1955
sg36
S'1.8'
p1956
sg38
S'4.2'
p1957
sg40
S'29'
p1958
sg42
S'POR'
p1959
sg44
S'59'
p1960
sg46
S'0.2'
p1961
sg48
S'3.1'
p1962
sg50
S'1.5'
p1963
sg52
S'8.2'
p1964
sg54
S'3.1'
p1965
sg56
S'2002-03'
p1966
sg58
S'4.3'
p1967
sg60
S'2.2'
p1968
sg62
S'.372'
p1969
sg64
S'1315'
p1970
sg66
S'27'
p1971
sba(isrc.gp1.models.Per36Minutes
Per36Minutes
p1972
(dp1973
g8
S'0.6'
p1974
sg10
S'4.9'
p1975
sg12
S'.401'
p1976
sg14
S'5.8'
p1977
sg16
S'.365'
p1978
sg18
S'1.8'
p1979
sg20
S'12.7'
p1980
sg22
S'PG'
p1981
sg24
S'.876'
p1982
sg28
S'NBA'
p1983
sg30
S'1.1'
p1984
sg32
S'11.8'
p1985
sg34
S'2.0'
p1986
sg36
S'1.7'
p1987
sg38
S'3.6'
p1988
sg40
S'30'
p1989
sg42
S'POR'
p1990
sg44
S'82'
p1991
sg46
S'0.1'
p1992
sg48
S'2.9'
p1993
sg50
S'1.5'
p1994
sg52
S'6.8'
p1995
sg54
S'3.0'
p1996
sg56
S'2003-04'
p1997
sg58
S'4.7'
p1998
sg60
S'2.1'
p1999
sg62
S'.426'
p2000
sg64
S'3118'
p2001
sg66
S'82'
p2002
sba(isrc.gp1.models.Per36Minutes
Per36Minutes
p2003
(dp2004
g8
S'0.7'
p2005
sg10
S'6.4'
p2006
sg12
S'.392'
p2007
sg14
S'6.0'
p2008
sg16
S'.369'
p2009
sg18
S'2.4'
p2010
sg20
S'16.6'
p2011
sg22
S'PG'
p2012
sg24
S'.915'
p2013
sg28
S'NBA'
p2014
sg30
S'1.1'
p2015
sg32
S'15.2'
p2016
sg34
S'2.1'
p2017
sg36
S'2.6'
p2018
sg38
S'4.0'
p2019
sg40
S'31'
p2020
sg42
S'POR'
p2021
sg44
S'81'
p2022
sg46
S'0.0'
p2023
sg48
S'3.6'
p2024
sg50
S'2.4'
p2025
sg52
S'8.8'
p2026
sg54
S'3.3'
p2027
sg56
S'2004-05'
p2028
sg58
S'6.0'
p2029
sg60
S'2.1'
p2030
sg62
S'.409'
p2031
sg64
S'2762'
p2032
sg66
S'70'
p2033
sba(isrc.gp1.models.Per36Minutes
Per36Minutes
p2034
(dp2035
g8
S'1.0'
p2036
sg10
S'4.3'
p2037
sg12
S'.397'
p2038
sg14
S'5.3'
p2039
sg16
S'.346'
p2040
sg18
S'1.5'
p2041
sg20
S'13.2'
p2042
sg22
S'PG'
p2043
sg24
S'.855'
p2044
sg28
S'NBA'
p2045
sg30
S'0.8'
p2046
sg32
S'12.0'
p2047
sg34
S'2.0'
p2048
sg36
S'2.6'
p2049
sg38
S'4.0'
p2050
sg40
S'32'
p2051
sg42
S'MEM'
p2052
sg44
S'27'
p2053
sg46
S'0.0'
p2054
sg48
S'3.3'
p2055
sg50
S'2.2'
p2056
sg52
S'7.6'
p2057
sg54
S'3.0'
p2058
sg56
S'2005-06'
p2059
sg58
S'4.8'
p2060
sg60
S'2.3'
p2061
sg62
S'.426'
p2062
sg64
S'862'
p2063
sg66
S'27'
p2064
sba(isrc.gp1.models.Per36Minutes
Per36Minutes
p2065
(dp2066
g8
S'0.7'
p2067
sg10
S'4.2'
p2068
sg12
S'.391'
p2069
sg14
S'7.2'
p2070
sg16
S'.337'
p2071
sg18
S'1.4'
p2072
sg20
S'11.2'
p2073
sg22
S'PG'
p2074
sg24
S'.795'
p2075
sg28
S'NBA'
p2076
sg30
S'1.1'
p2077
sg32
S'10.5'
p2078
sg34
S'2.3'
p2079
sg36
S'2.0'
p2080
sg38
S'3.3'
p2081
sg40
S'33'
p2082
sg42
S'MEM'
p2083
sg44
S'62'
p2084
sg46
S'0.0'
p2085
sg48
S'2.7'
p2086
sg50
S'1.6'
p2087
sg52
S'6.3'
p2088
sg54
S'2.6'
p2089
sg56
S'2006-07'
p2090
sg58
S'4.1'
p2091
sg60
S'2.4'
p2092
sg62
S'.427'
p2093
sg64
S'1501'
p2094
sg66
S'51'
p2095
sba(isrc.gp1.models.Per36Minutes
Per36Minutes
p2096
(dp2097
g8
S'0.7'
p2098
sg10
S'5.2'
p2099
sg12
S'.356'
p2100
sg14
S'5.7'
p2101
sg16
S'.336'
p2102
sg18
S'1.7'
p2103
sg20
S'11.0'
p2104
sg22
S'PG'
p2105
sg24
S'.794'
p2106
sg28
S'NBA'
p2107
sg30
S'1.0'
p2108
sg32
S'11.7'
p2109
sg34
S'2.6'
p2110
sg36
S'1.2'
p2111
sg38
S'4.1'
p2112
sg40
S'34'
p2113
sg42
S'TOT'
p2114
sg44
S'60'
p2115
sg46
S'0.1'
p2116
sg48
S'2.4'
p2117
sg50
S'0.9'
p2118
sg52
S'6.5'
p2119
sg54
S'3.4'
p2120
sg56
S'2007-08'
p2121
sg58
S'4.2'
p2122
sg60
S'2.8'
p2123
sg62
S'.372'
p2124
sg64
S'1037'
p2125
sg66
S'33'
p2126
sba(isrc.gp1.models.Per36Minutes
Per36Minutes
p2127
(dp2128
g8
S'0.8'
p2129
sg10
S'5.4'
p2130
sg12
S'.397'
p2131
sg14
S'6.5'
p2132
sg16
S'.383'
p2133
sg18
S'2.1'
p2134
sg20
S'12.2'
p2135
sg22
S'PG'
p2136
sg24
S'.808'
p2137
sg28
S'NBA'
p2138
sg30
S'1.1'
p2139
sg32
S'11.2'
p2140
sg34
S'2.7'
p2141
sg36
S'1.5'
p2142
sg38
S'4.1'
p2143
sg40
S'34'
p2144
sg42
S'MEM'
p2145
sg44
S'29'
p2146
sg46
S'0.0'
p2147
sg48
S'2.4'
p2148
sg50
S'1.2'
p2149
sg52
S'5.8'
p2150
sg54
S'3.3'
p2151
sg56
S'2007-08'
p2152
sg58
S'4.4'
p2153
sg60
S'2.9'
p2154
sg62
S'.410'
p2155
sg64
S'624'
p2156
sg66
S'29'
p2157
sba(isrc.gp1.models.Per36Minutes
Per36Minutes
p2158
(dp2159
g8
S'0.5'
p2160
sg10
S'4.8'
p2161
sg12
S'.301'
p2162
sg14
S'4.6'
p2163
sg16
S'.255'
p2164
sg18
S'1.2'
p2165
sg20
S'9.2'
p2166
sg22
S'PG'
p2167
sg24
S'.750'
p2168
sg28
S'NBA'
p2169
sg30
S'1.0'
p2170
sg32
S'12.5'
p2171
sg34
S'2.6'
p2172
sg36
S'0.7'
p2173
sg38
S'4.1'
p2174
sg40
S'34'
p2175
sg42
S'SAS'
p2176
sg44
S'31'
p2177
sg46
S'0.2'
p2178
sg48
S'2.5'
p2179
sg50
S'0.5'
p2180
sg52
S'7.7'
p2181
sg54
S'3.6'
p2182
sg56
S'2007-08'
p2183
sg58
S'3.7'
p2184
sg60
S'2.6'
p2185
sg62
S'.330'
p2186
sg64
S'413'
p2187
sg66
g217
sbasS'_fromYear'
p2188
S'1996'
p2189
sS'_url'
p2190
S'http://www.basketball-reference.com/players/s/stoudda01.html'
p2191
sS'_perGame'
p2192
(isrc.gp1.models.PerGame
PerGame
p2193
(dp2194
g8
S'0.2'
p2195
sg10
S'1.8'
p2196
sg12
S'.301'
p2197
sS'_effectiveFieldGalPercentage'
p2198
S'.350'
p2199
sg14
S'1.7'
p2200
sg16
S'.255'
p2201
sg18
S'0.5'
p2202
sg20
S'3.4'
p2203
sg22
S'PG'
p2204
sg24
S'.750'
p2205
sg28
S'NBA'
p2206
sg30
S'0.4'
p2207
sg34
S'1.0'
p2208
sS'_fieldGoalsttempted'
p2209
S'4.6'
p2210
sg36
S'0.3'
p2211
sg38
S'1.5'
p2212
sg40
S'34'
p2213
sg42
S'SAS'
p2214
sg44
S'31'
p2215
sg46
S'0.1'
p2216
sg48
S'0.9'
p2217
sg50
S'0.2'
p2218
sg52
S'2.8'
p2219
sg54
S'1.3'
p2220
sg56
S'2007-08'
p2221
sg58
S'1.4'
p2222
sg60
S'1.0'
p2223
sg62
S'.330'
p2224
sg64
S'13.3'
p2225
sg66
g217
sbsS'_weight'
p2226
S'171'
p2227
sS'_dob'
p2228
S'3-9-1973'
p2229
sS'_salary'
p2230
(lp2231
(isrc.gp1.models.Salary
Salary
p2232
(dp2233
g42
S'Toronto Raptors'
p2234
sg28
S'NBA'
p2235
sg2230
S'$1,345,000'
p2236
sg56
S'1995-96'
p2237
sba(isrc.gp1.models.Salary
Salary
p2238
(dp2239
g42
S'Toronto Raptors'
p2240
sg28
S'NBA'
p2241
sg2230
S'$1,547,000'
p2242
sg56
S'1996-97'
p2243
sba(isrc.gp1.models.Salary
Salary
p2244
(dp2245
g42
S'Toronto Raptors'
p2246
sg28
S'NBA'
p2247
sg2230
S'$1,748,760'
p2248
sg56
S'1997-98'
p2249
sba(isrc.gp1.models.Salary
Salary
p2250
(dp2251
g42
S'Portland Trail Blazers'
p2252
sg28
S'NBA'
p2253
sg2230
S'$9,000,000'
p2254
sg56
S'1998-99'
p2255
sba(isrc.gp1.models.Salary
Salary
p2256
(dp2257
g42
S'Portland Trail Blazers'
p2258
sg28
S'NBA'
p2259
sg2230
S'$10,125,000'
p2260
sg56
S'1999-00'
p2261
sba(isrc.gp1.models.Salary
Salary
p2262
(dp2263
g42
S'Portland Trail Blazers'
p2264
sg28
S'NBA'
p2265
sg2230
S'$11,250,000'
p2266
sg56
S'2000-01'
p2267
sba(isrc.gp1.models.Salary
Salary
p2268
(dp2269
g42
S'Portland Trail Blazers'
p2270
sg28
S'NBA'
p2271
sg2230
S'$12,375,000'
p2272
sg56
S'2001-02'
p2273
sba(isrc.gp1.models.Salary
Salary
p2274
(dp2275
g42
S'Portland Trail Blazers'
p2276
sg28
S'NBA'
p2277
sg2230
S'$12,375,000'
p2278
sg56
S'2002-03'
p2279
sba(isrc.gp1.models.Salary
Salary
p2280
(dp2281
g42
S'Portland Trail Blazers'
p2282
sg28
S'NBA'
p2283
sg2230
S'$12,375,000'
p2284
sg56
S'2003-04'
p2285
sba(isrc.gp1.models.Salary
Salary
p2286
(dp2287
g42
S'Portland Trail Blazers'
p2288
sg28
S'NBA'
p2289
sg2230
S'$12,500,000'
p2290
sg56
S'2004-05'
p2291
sba(isrc.gp1.models.Salary
Salary
p2292
(dp2293
g42
S'Memphis Grizzlies'
p2294
sg28
S'NBA'
p2295
sg2230
S'$3,750,000'
p2296
sg56
S'2005-06'
p2297
sba(isrc.gp1.models.Salary
Salary
p2298
(dp2299
g42
S'Memphis Grizzlies'
p2300
sg28
S'NBA'
p2301
sg2230
S'$4,050,000'
p2302
sg56
S'2006-07'
p2303
sba(isrc.gp1.models.Salary
Salary
p2304
(dp2305
g42
S'Memphis Grizzlies'
p2306
sg28
S'NBA'
p2307
sg2230
S'$4,350,000'
p2308
sg56
S'2007-08'
p2309
sba(isrc.gp1.models.Salary
Salary
p2310
(dp2311
g42
S'San Antonio Spurs'
p2312
sg28
S'NBA'
p2313
sg2230
S'$556,438'
p2314
sg56
S'2007-08'
p2315
sba(isrc.gp1.models.Salary
Salary
p2316
(dp2317
g42
S'Memphis Grizzlies'
p2318
sg28
S'NBA'
p2319
sg2230
S'$2,325,000'
p2320
sg56
S'2008-09'
p2321
sbasg22
S'G'
p2322
sb.