(isrc.gp1.models.Player
Player
p0
(dp1
S'_experience'
p2
S'NA'
p3
sS'_totals'
p4
(lp5
(isrc.gp1.models.Totals
Totals
p6
(dp7
S'_offensiveRebounds'
p8
g3
sS'_threePointsAttempted'
p9
g3
sS'_fieldGoalsPercentage'
p10
S'.342'
p11
sS'_assist'
p12
S'13'
p13
sS'_threePointsPercentage'
p14
g3
sS'_threePoints'
p15
g3
sS'_points'
p16
S'76'
p17
sS'_position'
p18
S'SF'
p19
sS'_freeThrowsPercentage'
p20
S'.632'
p21
sS'_effectiveFieldGoalPercentage'
p22
S'.342'
p23
sS'_league'
p24
S'NBA'
p25
sS'_steals'
p26
g3
sS'_fieldGoalsAttempted'
p27
S'76'
p28
sS'_personalFouls'
p29
S'37'
p30
sS'_freeThrowsAttempted'
p31
S'38'
p32
sS'_totalRebounds'
p33
S'61'
p34
sS'_age'
p35
S'24'
p36
sS'_team'
p37
S'PHO'
p38
sS'_games'
p39
S'25'
p40
sS'_blocks'
p41
g3
sS'_twoPoints'
p42
S'26'
p43
sS'_freeThrows'
p44
S'24'
p45
sS'_twoPointsAttempted'
p46
S'76'
p47
sS'_defensiveRebounds'
p48
g3
sS'_season'
p49
S'1972-73'
p50
sS'_fieldGoals'
p51
S'26'
p52
sS'_turnOvers'
p53
g3
sS'_twoPointsPercentage'
p54
S'.342'
p55
sS'_minutesPlayed'
p56
S'211'
p57
sS'_gamesStarted'
p58
g3
sba(isrc.gp1.models.Totals
Totals
p59
(dp60
g8
S'21'
p61
sg9
S'0'
p62
sg10
S'.493'
p63
sg12
S'12'
p64
sg14
g3
sg15
g62
sg16
S'100'
p65
sg18
S'SF'
p66
sg20
S'.636'
p67
sg22
S'.493'
p68
sg24
S'ABA'
p69
sg26
S'4'
p70
sg27
S'73'
p71
sg29
S'32'
p72
sg31
S'44'
p73
sg33
S'58'
p74
sg35
S'25'
p75
sg37
S'SDA'
p76
sg39
S'13'
p77
sg41
S'6'
p78
sg42
S'36'
p79
sg44
S'28'
p80
sg46
S'73'
p81
sg48
S'37'
p82
sg49
S'1973-74'
p83
sg51
S'36'
p84
sg53
S'21'
p85
sg54
S'.493'
p86
sg56
S'194'
p87
sg58
g3
sbasS'_college'
p88
S'Arizona State University'
p89
sS'_toYear'
p90
S'1974'
p91
sS'_height'
p92
S'6-4'
p93
sS'_active'
p94
I00
sS'_shootingHand'
p95
VRight
p96
sS'_name'
p97
S'Paul Stovall'
p98
sS'_per100Possessions'
p99
(lp100
(isrc.gp1.models.Per100Possession
Per100Possession
p101
(dp102
g8
S'4.8'
p103
sg9
S'0.0'
p104
sg10
S'.493'
p105
sS'_offensiveRating'
p106
S'101'
p107
sg12
S'2.7'
p108
sg14
g3
sg15
S'0.0'
p109
sg16
S'22.6'
p110
sg18
S'SF'
p111
sS'_defensiveRating'
p112
S'104'
p113
sg20
S'.636'
p114
sg24
S'ABA'
p115
sg26
S'0.9'
p116
sg27
S'16.5'
p117
sg29
S'7.2'
p118
sg31
S'10.0'
p119
sg33
S'13.1'
p120
sg35
S'25'
p121
sg37
S'SDA'
p122
sg39
S'13'
p123
sg41
S'1.4'
p124
sg42
S'8.2'
p125
sg44
S'6.3'
p126
sg46
S'16.5'
p127
sg48
S'8.4'
p128
sg49
S'1973-74'
p129
sg51
S'8.2'
p130
sg53
S'4.8'
p131
sg54
S'.493'
p132
sg56
S'194'
p133
sg58
g3
sbasS'_advanced'
p134
(lp135
(isrc.gp1.models.Advanced
Advanced
p136
(dp137
S'_offensiveReboundPercentage'
p138
g3
sS'_turnOverPercentage'
p139
g3
sS'_winSharesPer48Minutes'
p140
S'-0.024'
p141
sS'_stealPercentage'
p142
g3
sS'_usagePercentage'
p143
g3
sS'_totalReboundsPercentage'
p144
S'14.0'
p145
sS'_defensiveBoxPlusMinus'
p146
g3
sg18
S'SF'
p147
sS'_valueOverReplacementPlayer'
p148
g3
sS'_trueShootingPercentage'
p149
S'.410'
p150
sS'_defensiveReboundPercentage'
p151
g3
sS'_freeThrowsAttempRate'
p152
S'.500'
p153
sS'_threePointsAttempRate'
p154
g3
sg24
S'NBA'
p155
sS'_offensiveBoxPlusMinues'
p156
g3
sS'_assistPercentage'
p157
S'7.8'
p158
sS'_defensiveWinShares'
p159
S'0.1'
p160
sg35
S'24'
p161
sg37
S'PHO'
p162
sg39
S'25'
p163
sS'_blockPercentage'
p164
g3
sS'_playerEfficiencyRating'
p165
S'9.4'
p166
sS'_offensiveWinShares'
p167
S'-0.3'
p168
sg56
S'211'
p169
sS'_boxPlusMinus'
p170
g3
sg49
S'1972-73'
p171
sS'_winShares'
p172
S'-0.1'
p173
sba(isrc.gp1.models.Advanced
Advanced
p174
(dp175
g138
S'9.6'
p176
sg139
S'18.5'
p177
sg140
S'.081'
p178
sg142
S'0.9'
p179
sg143
S'21.5'
p180
sg144
S'13.6'
p181
sg146
S'-0.8'
p182
sg18
S'SF'
p183
sg148
S'0.0'
p184
sg149
S'.541'
p185
sg151
S'17.9'
p186
sg152
S'.603'
p187
sg154
S'.000'
p188
sg24
S'ABA'
p189
sg156
S'-1.5'
p190
sg157
S'8.0'
p191
sg159
S'0.2'
p192
sg35
S'25'
p193
sg37
S'SDA'
p194
sg39
S'13'
p195
sg164
S'1.5'
p196
sg165
S'15.0'
p197
sg167
S'0.2'
p198
sg56
S'194'
p199
sg170
S'-2.3'
p200
sg49
S'1973-74'
p201
sg172
S'0.3'
p202
sbasS'_per36Minutes'
p203
(lp204
(isrc.gp1.models.Per36Minutes
Per36Minutes
p205
(dp206
g8
g3
sg9
g3
sg10
S'.342'
p207
sg12
S'2.2'
p208
sg14
g3
sg15
g3
sg16
S'13.0'
p209
sg18
S'SF'
p210
sg20
S'.632'
p211
sg24
S'NBA'
p212
sg26
g3
sg27
S'13.0'
p213
sg29
S'6.3'
p214
sg31
S'6.5'
p215
sg33
S'10.4'
p216
sg35
S'24'
p217
sg37
S'PHO'
p218
sg39
S'25'
p219
sg41
g3
sg42
S'4.4'
p220
sg44
S'4.1'
p221
sg46
S'13.0'
p222
sg48
g3
sg49
S'1972-73'
p223
sg51
S'4.4'
p224
sg53
g3
sg54
S'.342'
p225
sg56
S'211'
p226
sg58
g3
sba(isrc.gp1.models.Per36Minutes
Per36Minutes
p227
(dp228
g8
S'3.9'
p229
sg9
S'0.0'
p230
sg10
S'.493'
p231
sg12
S'2.2'
p232
sg14
g3
sg15
S'0.0'
p233
sg16
S'18.6'
p234
sg18
S'SF'
p235
sg20
S'.636'
p236
sg24
S'ABA'
p237
sg26
S'0.7'
p238
sg27
S'13.5'
p239
sg29
S'5.9'
p240
sg31
S'8.2'
p241
sg33
S'10.8'
p242
sg35
S'25'
p243
sg37
S'SDA'
p244
sg39
S'13'
p245
sg41
S'1.1'
p246
sg42
S'6.7'
p247
sg44
S'5.2'
p248
sg46
S'13.5'
p249
sg48
S'6.9'
p250
sg49
S'1973-74'
p251
sg51
S'6.7'
p252
sg53
S'3.9'
p253
sg54
S'.493'
p254
sg56
S'194'
p255
sg58
g3
sbasS'_fromYear'
p256
S'1973'
p257
sS'_url'
p258
S'http://www.basketball-reference.com/players/s/stovapa01.html'
p259
sS'_perGame'
p260
(isrc.gp1.models.PerGame
PerGame
p261
(dp262
g8
S'1.6'
p263
sg9
S'0.0'
p264
sg10
S'.493'
p265
sS'_effectiveFieldGalPercentage'
p266
S'.493'
p267
sg12
S'0.9'
p268
sg14
g3
sg15
S'0.0'
p269
sg16
S'7.7'
p270
sg18
S'SF'
p271
sg20
S'.636'
p272
sg24
S'ABA'
p273
sg26
S'0.3'
p274
sg29
S'2.5'
p275
sS'_fieldGoalsttempted'
p276
S'5.6'
p277
sg31
S'3.4'
p278
sg33
S'4.5'
p279
sg35
S'25'
p280
sg37
S'SDA'
p281
sg39
S'13'
p282
sg41
S'0.5'
p283
sg42
S'2.8'
p284
sg44
S'2.2'
p285
sg46
S'5.6'
p286
sg48
S'2.8'
p287
sg49
S'1973-74'
p288
sg51
S'2.8'
p289
sg53
S'1.6'
p290
sg54
S'.493'
p291
sg56
S'14.9'
p292
sg58
g3
sbsS'_weight'
p293
S'215'
p294
sS'_dob'
p295
S'16-8-1948'
p296
sS'_salary'
p297
(lp298
sg18
S'F'
p299
sb.