(isrc.gp1.models.Player
Player
p0
(dp1
S'_experience'
p2
S'NA'
p3
sS'_totals'
p4
(lp5
(isrc.gp1.models.Totals
Totals
p6
(dp7
S'_offensiveRebounds'
p8
S'109'
p9
sS'_threePointsAttempted'
p10
S'4'
p11
sS'_fieldGoalsPercentage'
p12
S'.451'
p13
sS'_assist'
p14
S'28'
p15
sS'_threePointsPercentage'
p16
S'.000'
p17
sS'_threePoints'
p18
S'0'
p19
sS'_points'
p20
S'391'
p21
sS'_position'
p22
S'PF'
p23
sS'_freeThrowsPercentage'
p24
S'.603'
p25
sS'_effectiveFieldGoalPercentage'
p26
S'.451'
p27
sS'_league'
p28
S'NBA'
p29
sS'_steals'
p30
S'62'
p31
sS'_fieldGoalsAttempted'
p32
S'339'
p33
sS'_personalFouls'
p34
S'160'
p35
sS'_freeThrowsAttempted'
p36
S'141'
p37
sS'_totalRebounds'
p38
S'284'
p39
sS'_age'
p40
S'21'
p41
sS'_team'
p42
S'VAN'
p43
sS'_games'
p44
S'80'
p45
sS'_blocks'
p46
S'82'
p47
sS'_twoPoints'
p48
S'153'
p49
sS'_freeThrows'
p50
S'85'
p51
sS'_twoPointsAttempted'
p52
S'335'
p53
sS'_defensiveRebounds'
p54
S'175'
p55
sS'_season'
p56
S'2000-01'
p57
sS'_fieldGoals'
p58
S'153'
p59
sS'_turnOvers'
p60
S'64'
p61
sS'_twoPointsPercentage'
p62
S'.457'
p63
sS'_minutesPlayed'
p64
S'1312'
p65
sS'_gamesStarted'
p66
S'6'
p67
sba(isrc.gp1.models.Totals
Totals
p68
(dp69
g8
S'161'
p70
sg10
S'3'
p71
sg12
S'.480'
p72
sg14
S'50'
p73
sg16
S'.000'
p74
sg18
g19
sg20
S'803'
p75
sg22
S'PF'
p76
sg24
S'.711'
p77
sg26
S'.480'
p78
sg28
S'NBA'
p79
sg30
S'53'
p80
sg32
S'611'
p81
sg34
S'178'
p82
sg36
S'305'
p83
sg38
S'430'
p84
sg40
S'22'
p85
sg42
S'MEM'
p86
sg44
S'68'
p87
sg46
S'113'
p88
sg48
S'293'
p89
sg50
S'217'
p90
sg52
S'608'
p91
sg54
S'269'
p92
sg56
S'2001-02'
p93
sg58
S'293'
p94
sg60
S'122'
p95
sg62
S'.482'
p96
sg64
S'1805'
p97
sg66
S'14'
p98
sba(isrc.gp1.models.Totals
Totals
p99
(dp100
g8
S'114'
p101
sg10
S'2'
p102
sg12
S'.481'
p103
sg14
S'45'
p104
sg16
S'.000'
p105
sg18
g19
sg20
S'647'
p106
sg22
S'PF'
p107
sg24
S'.722'
p108
sg26
S'.481'
p109
sg28
S'NBA'
p110
sg30
S'55'
p111
sg32
S'489'
p112
sg34
S'152'
p113
sg36
S'245'
p114
sg38
S'384'
p115
sg40
S'23'
p116
sg42
S'MEM'
p117
sg44
S'67'
p118
sg46
S'104'
p119
sg48
S'235'
p120
sg50
S'177'
p121
sg52
S'487'
p122
sg54
S'270'
p123
sg56
S'2002-03'
p124
sg58
S'235'
p125
sg60
S'99'
p126
sg62
S'.483'
p127
sg64
S'1478'
p128
sg66
S'26'
p129
sba(isrc.gp1.models.Totals
Totals
p130
(dp131
g8
S'141'
p132
sg10
g11
sg12
S'.469'
p133
sg14
S'38'
p134
sg16
S'.250'
p135
sg18
S'1'
p136
sg20
S'727'
p137
sg22
S'PF'
p138
sg24
S'.725'
p139
sg26
S'.470'
p140
sg28
S'NBA'
p141
sg30
S'56'
p142
sg32
S'571'
p143
sg34
S'188'
p144
sg36
S'262'
p145
sg38
S'378'
p146
sg40
S'24'
p147
sg42
S'MEM'
p148
sg44
S'77'
p149
sg46
S'118'
p150
sg48
S'267'
p151
sg50
S'190'
p152
sg52
S'567'
p153
sg54
S'237'
p154
sg56
S'2003-04'
p155
sg58
S'268'
p156
sg60
S'88'
p157
sg62
S'.471'
p158
sg64
S'1528'
p159
sg66
S'10'
p160
sba(isrc.gp1.models.Totals
Totals
p161
(dp162
g8
S'92'
p163
sg10
g11
sg12
S'.449'
p164
sg14
S'43'
p165
sg16
S'.000'
p166
sg18
g19
sg20
S'604'
p167
sg22
S'PF'
p168
sg24
S'.758'
p169
sg26
S'.449'
p170
sg28
S'NBA'
p171
sg30
S'41'
p172
sg32
S'488'
p173
sg34
S'182'
p174
sg36
S'219'
p175
sg38
S'273'
p176
sg40
S'25'
p177
sg42
S'MEM'
p178
sg44
S'60'
p179
sg46
S'92'
p180
sg48
S'219'
p181
sg50
S'166'
p182
sg52
S'484'
p183
sg54
S'181'
p184
sg56
S'2004-05'
p185
sg58
S'219'
p186
sg60
S'90'
p187
sg62
S'.452'
p188
sg64
S'1279'
p189
sg66
S'14'
p190
sba(isrc.gp1.models.Totals
Totals
p191
(dp192
g8
S'103'
p193
sg10
g102
sg12
S'.491'
p194
sg14
S'25'
p195
sg16
S'.000'
p196
sg18
g19
sg20
S'586'
p197
sg22
S'C'
p198
sg24
S'.651'
p199
sg26
S'.491'
p200
sg28
S'NBA'
p201
sg30
S'38'
p202
sg32
S'458'
p203
sg34
S'198'
p204
sg36
S'209'
p205
sg38
S'291'
p206
sg40
S'26'
p207
sg42
S'HOU'
p208
sg44
S'66'
p209
sg46
S'50'
p210
sg48
S'225'
p211
sg50
S'136'
p212
sg52
S'456'
p213
sg54
S'188'
p214
sg56
S'2005-06'
p215
sg58
S'225'
p216
sg60
S'91'
p217
sg62
S'.493'
p218
sg64
S'1344'
p219
sg66
S'5'
p220
sba(isrc.gp1.models.Totals
Totals
p221
(dp222
g8
S'85'
p223
sg10
g220
sg12
S'.465'
p224
sg14
S'17'
p225
sg16
S'.000'
p226
sg18
g19
sg20
S'419'
p227
sg22
g198
sg24
S'.724'
p228
sg26
S'.465'
p229
sg28
S'NBA'
p230
sg30
S'30'
p231
sg32
S'346'
p232
sg34
S'146'
p233
sg36
S'134'
p234
sg38
S'250'
p235
sg40
S'27'
p236
sg42
S'MEM'
p237
sg44
S'54'
p238
sg46
S'62'
p239
sg48
S'161'
p240
sg50
S'97'
p241
sg52
S'341'
p242
sg54
S'165'
p243
sg56
S'2006-07'
p244
sg58
S'161'
p245
sg60
S'69'
p246
sg62
S'.472'
p247
sg64
S'1029'
p248
sg66
S'18'
p249
sba(isrc.gp1.models.Totals
Totals
p250
(dp251
g8
S'64'
p252
sg10
g102
sg12
S'.509'
p253
sg14
S'26'
p254
sg16
S'.000'
p255
sg18
g19
sg20
S'343'
p256
sg22
S'PF'
p257
sg24
S'.670'
p258
sg26
S'.509'
p259
sg28
S'NBA'
p260
sg30
S'15'
p261
sg32
S'265'
p262
sg34
S'113'
p263
sg36
S'109'
p264
sg38
S'199'
p265
sg40
S'28'
p266
sg42
S'TOT'
p267
sg44
S'56'
p268
sg46
S'54'
p269
sg48
S'135'
p270
sg50
S'73'
p271
sg52
S'263'
p272
sg54
S'135'
p273
sg56
S'2007-08'
p274
sg58
S'135'
p275
sg60
S'51'
p276
sg62
S'.513'
p277
sg64
S'844'
p278
sg66
g11
sba(isrc.gp1.models.Totals
Totals
p279
(dp280
g8
S'46'
p281
sg10
g102
sg12
S'.525'
p282
sg14
S'22'
p283
sg16
S'.000'
p284
sg18
g19
sg20
S'238'
p285
sg22
S'PF'
p286
sg24
S'.642'
p287
sg26
S'.525'
p288
sg28
S'NBA'
p289
sg30
S'10'
p290
sg32
S'177'
p291
sg34
S'74'
p292
sg36
S'81'
p293
sg38
S'129'
p294
sg40
S'28'
p295
sg42
S'MEM'
p296
sg44
S'35'
p297
sg46
S'36'
p298
sg48
S'93'
p299
sg50
S'52'
p300
sg52
S'175'
p301
sg54
S'83'
p302
sg56
S'2007-08'
p303
sg58
S'93'
p304
sg60
S'39'
p305
sg62
S'.531'
p306
sg64
S'549'
p307
sg66
g11
sba(isrc.gp1.models.Totals
Totals
p308
(dp309
g8
S'52'
p310
sg10
g19
sg12
S'.477'
p311
sg14
g220
sg16
S'42'
p312
sg18
g19
sg20
g3
sg22
S'PF'
p313
sg24
S'18'
p314
sg26
S'21'
p315
sg28
S'NBA'
p316
sg30
S'18'
p317
sg32
S'88'
p318
sg34
S'105'
p319
sg36
S'.750'
p320
sg38
g11
sg40
S'28'
p321
sg42
S'NJN'
p322
sg44
S'21'
p323
sg46
S'12'
p324
sg48
S'88'
p325
sg50
S'28'
p326
sg52
S'.477'
p327
sg54
S'70'
p328
sg56
S'2007-08'
p329
sg58
S'42'
p330
sg60
S'39'
p331
sg62
S'.477'
p332
sg64
S'295'
p333
sg66
g19
sba(isrc.gp1.models.Totals
Totals
p334
(dp335
g8
S'16'
p336
sg10
g136
sg12
S'.429'
p337
sg14
g71
sg16
S'1.000'
p338
sg18
g136
sg20
S'62'
p339
sg22
S'PF'
p340
sg24
S'.500'
p341
sg26
S'.438'
p342
sg28
S'NBA'
p343
sg30
g11
sg32
S'56'
p344
sg34
S'40'
p345
sg36
S'26'
p346
sg38
S'46'
p347
sg40
S'29'
p348
sg42
S'TOT'
p349
sg44
S'19'
p350
sg46
S'8'
p351
sg48
S'23'
p352
sg50
S'13'
p353
sg52
S'55'
p354
sg54
S'30'
p355
sg56
S'2008-09'
p356
sg58
S'24'
p357
sg60
S'16'
p358
sg62
S'.418'
p359
sg64
S'185'
p360
sg66
g19
sba(isrc.gp1.models.Totals
Totals
p361
(dp362
g8
g351
sg10
g19
sg12
S'.600'
p363
sg14
g19
sg16
S'9'
p364
sg18
g19
sg20
g3
sg22
S'PF'
p365
sg24
g220
sg26
g220
sg28
S'NBA'
p366
sg30
g102
sg32
S'15'
p367
sg34
S'23'
p368
sg36
S'.455'
p369
sg38
g136
sg40
S'29'
p370
sg42
S'NJN'
p371
sg44
g67
sg46
S'7'
p372
sg48
S'15'
p373
sg50
S'11'
p374
sg52
S'.600'
p375
sg54
S'13'
p376
sg56
S'2008-09'
p377
sg58
g364
sg60
S'15'
p378
sg62
S'.600'
p379
sg64
S'64'
p380
sg66
g19
sba(isrc.gp1.models.Totals
Totals
p381
(dp382
g8
S'11'
p383
sg10
g136
sg12
S'.366'
p384
sg14
g102
sg16
S'1.000'
p385
sg18
g136
sg20
S'39'
p386
sg22
S'PF'
p387
sg24
S'.533'
p388
sg26
S'.378'
p389
sg28
S'NBA'
p390
sg30
g11
sg32
S'41'
p391
sg34
S'25'
p392
sg36
S'15'
p393
sg38
S'33'
p394
sg40
S'29'
p395
sg42
S'PHO'
p396
sg44
S'13'
p397
sg46
g67
sg48
S'14'
p398
sg50
g351
sg52
S'40'
p399
sg54
S'22'
p400
sg56
S'2008-09'
p401
sg58
S'15'
p402
sg60
g364
sg62
S'.350'
p403
sg64
S'121'
p404
sg66
g19
sbasS'_college'
p405
S'Louisiana State University'
p406
sS'_toYear'
p407
S'2009'
p408
sS'_height'
p409
S'6-9'
p410
sS'_active'
p411
I00
sS'_shootingHand'
p412
VRight
p413
sS'_name'
p414
S'Stromile Swift'
p415
sS'_per100Possessions'
p416
(lp417
(isrc.gp1.models.Per100Possession
Per100Possession
p418
(dp419
g8
S'4.3'
p420
sg10
S'0.2'
p421
sg12
S'.451'
p422
sS'_offensiveRating'
p423
S'97'
p424
sg14
S'1.1'
p425
sg16
S'.000'
p426
sg18
S'0.0'
p427
sg20
S'15.6'
p428
sg22
S'PF'
p429
sS'_defensiveRating'
p430
S'101'
p431
sg24
S'.603'
p432
sg28
S'NBA'
p433
sg30
S'2.5'
p434
sg32
S'13.5'
p435
sg34
S'6.4'
p436
sg36
S'5.6'
p437
sg38
S'11.3'
p438
sg40
S'21'
p439
sg42
S'VAN'
p440
sg44
S'80'
p441
sg46
S'3.3'
p442
sg48
S'6.1'
p443
sg50
S'3.4'
p444
sg52
S'13.4'
p445
sg54
S'7.0'
p446
sg56
S'2000-01'
p447
sg58
S'6.1'
p448
sg60
S'2.6'
p449
sg62
S'.457'
p450
sg64
S'1312'
p451
sg66
g67
sba(isrc.gp1.models.Per100Possession
Per100Possession
p452
(dp453
g8
S'4.7'
p454
sg10
S'0.1'
p455
sg12
S'.480'
p456
sg423
S'103'
p457
sg14
S'1.5'
p458
sg16
S'.000'
p459
sg18
S'0.0'
p460
sg20
S'23.4'
p461
sg22
S'PF'
p462
sg430
S'104'
p463
sg24
S'.711'
p464
sg28
S'NBA'
p465
sg30
S'1.5'
p466
sg32
S'17.8'
p467
sg34
S'5.2'
p468
sg36
S'8.9'
p469
sg38
S'12.5'
p470
sg40
S'22'
p471
sg42
S'MEM'
p472
sg44
S'68'
p473
sg46
S'3.3'
p474
sg48
S'8.6'
p475
sg50
S'6.3'
p476
sg52
S'17.7'
p477
sg54
S'7.9'
p478
sg56
S'2001-02'
p479
sg58
S'8.6'
p480
sg60
S'3.6'
p481
sg62
S'.482'
p482
sg64
S'1805'
p483
sg66
S'14'
p484
sba(isrc.gp1.models.Per100Possession
Per100Possession
p485
(dp486
g8
S'4.0'
p487
sg10
S'0.1'
p488
sg12
S'.481'
p489
sg423
S'104'
p490
sg14
S'1.6'
p491
sg16
S'.000'
p492
sg18
S'0.0'
p493
sg20
S'22.7'
p494
sg22
S'PF'
p495
sg430
S'103'
p496
sg24
S'.722'
p497
sg28
S'NBA'
p498
sg30
S'1.9'
p499
sg32
S'17.1'
p500
sg34
S'5.3'
p501
sg36
S'8.6'
p502
sg38
S'13.5'
p503
sg40
S'23'
p504
sg42
S'MEM'
p505
sg44
S'67'
p506
sg46
S'3.6'
p507
sg48
S'8.2'
p508
sg50
S'6.2'
p509
sg52
S'17.1'
p510
sg54
S'9.5'
p511
sg56
S'2002-03'
p512
sg58
S'8.2'
p513
sg60
S'3.5'
p514
sg62
S'.483'
p515
sg64
S'1478'
p516
sg66
S'26'
p517
sba(isrc.gp1.models.Per100Possession
Per100Possession
p518
(dp519
g8
S'4.8'
p520
sg10
S'0.1'
p521
sg12
S'.469'
p522
sg423
S'106'
p523
sg14
S'1.3'
p524
sg16
S'.250'
p525
sg18
S'0.0'
p526
sg20
S'25.0'
p527
sg22
S'PF'
p528
sg430
S'99'
p529
sg24
S'.725'
p530
sg28
S'NBA'
p531
sg30
S'1.9'
p532
sg32
S'19.6'
p533
sg34
S'6.5'
p534
sg36
S'9.0'
p535
sg38
S'13.0'
p536
sg40
S'24'
p537
sg42
S'MEM'
p538
sg44
S'77'
p539
sg46
S'4.1'
p540
sg48
S'9.2'
p541
sg50
S'6.5'
p542
sg52
S'19.5'
p543
sg54
S'8.1'
p544
sg56
S'2003-04'
p545
sg58
S'9.2'
p546
sg60
S'3.0'
p547
sg62
S'.471'
p548
sg64
S'1528'
p549
sg66
S'10'
p550
sba(isrc.gp1.models.Per100Possession
Per100Possession
p551
(dp552
g8
S'3.9'
p553
sg10
S'0.2'
p554
sg12
S'.449'
p555
sg423
S'101'
p556
sg14
S'1.8'
p557
sg16
S'.000'
p558
sg18
S'0.0'
p559
sg20
S'25.6'
p560
sg22
S'PF'
p561
sg430
S'100'
p562
sg24
S'.758'
p563
sg28
S'NBA'
p564
sg30
S'1.7'
p565
sg32
S'20.7'
p566
sg34
S'7.7'
p567
sg36
S'9.3'
p568
sg38
S'11.6'
p569
sg40
S'25'
p570
sg42
S'MEM'
p571
sg44
S'60'
p572
sg46
S'3.9'
p573
sg48
S'9.3'
p574
sg50
S'7.0'
p575
sg52
S'20.5'
p576
sg54
S'7.7'
p577
sg56
S'2004-05'
p578
sg58
S'9.3'
p579
sg60
S'3.8'
p580
sg62
S'.452'
p581
sg64
S'1279'
p582
sg66
S'14'
p583
sba(isrc.gp1.models.Per100Possession
Per100Possession
p584
(dp585
g8
S'4.2'
p586
sg10
S'0.1'
p587
sg12
S'.491'
p588
sg423
S'100'
p589
sg14
S'1.0'
p590
sg16
S'.000'
p591
sg18
S'0.0'
p592
sg20
S'23.8'
p593
sg22
g198
sg430
S'102'
p594
sg24
S'.651'
p595
sg28
S'NBA'
p596
sg30
S'1.5'
p597
sg32
S'18.6'
p598
sg34
S'8.0'
p599
sg36
S'8.5'
p600
sg38
S'11.8'
p601
sg40
S'26'
p602
sg42
S'HOU'
p603
sg44
S'66'
p604
sg46
S'2.0'
p605
sg48
S'9.1'
p606
sg50
S'5.5'
p607
sg52
S'18.5'
p608
sg54
S'7.6'
p609
sg56
S'2005-06'
p610
sg58
S'9.1'
p611
sg60
S'3.7'
p612
sg62
S'.493'
p613
sg64
S'1344'
p614
sg66
g220
sba(isrc.gp1.models.Per100Possession
Per100Possession
p615
(dp616
g8
S'4.2'
p617
sg10
S'0.2'
p618
sg12
S'.465'
p619
sg423
S'100'
p620
sg14
S'0.8'
p621
sg16
S'.000'
p622
sg18
S'0.0'
p623
sg20
S'20.9'
p624
sg22
g198
sg430
S'109'
p625
sg24
S'.724'
p626
sg28
S'NBA'
p627
sg30
S'1.5'
p628
sg32
S'17.2'
p629
sg34
S'7.3'
p630
sg36
S'6.7'
p631
sg38
S'12.5'
p632
sg40
S'27'
p633
sg42
S'MEM'
p634
sg44
S'54'
p635
sg46
S'3.1'
p636
sg48
S'8.0'
p637
sg50
S'4.8'
p638
sg52
S'17.0'
p639
sg54
S'8.2'
p640
sg56
S'2006-07'
p641
sg58
S'8.0'
p642
sg60
S'3.4'
p643
sg62
S'.472'
p644
sg64
S'1029'
p645
sg66
S'18'
p646
sba(isrc.gp1.models.Per100Possession
Per100Possession
p647
(dp648
g8
S'3.9'
p649
sg10
S'0.1'
p650
sg12
S'.509'
p651
sg423
S'105'
p652
sg14
S'1.6'
p653
sg16
S'.000'
p654
sg18
S'0.0'
p655
sg20
S'20.8'
p656
sg22
S'PF'
p657
sg430
S'108'
p658
sg24
S'.670'
p659
sg28
S'NBA'
p660
sg30
S'0.9'
p661
sg32
S'16.0'
p662
sg34
S'6.8'
p663
sg36
S'6.6'
p664
sg38
S'12.0'
p665
sg40
S'28'
p666
sg42
S'TOT'
p667
sg44
S'56'
p668
sg46
S'3.3'
p669
sg48
S'8.2'
p670
sg50
S'4.4'
p671
sg52
S'15.9'
p672
sg54
S'8.2'
p673
sg56
S'2007-08'
p674
sg58
S'8.2'
p675
sg60
S'3.1'
p676
sg62
S'.513'
p677
sg64
S'844'
p678
sg66
g11
sba(isrc.gp1.models.Per100Possession
Per100Possession
p679
(dp680
g8
S'4.2'
p681
sg10
S'0.2'
p682
sg12
S'.525'
p683
sg423
S'105'
p684
sg14
S'2.0'
p685
sg16
S'.000'
p686
sg18
S'0.0'
p687
sg20
S'21.8'
p688
sg22
S'PF'
p689
sg430
S'109'
p690
sg24
S'.642'
p691
sg28
S'NBA'
p692
sg30
S'0.9'
p693
sg32
S'16.2'
p694
sg34
S'6.8'
p695
sg36
S'7.4'
p696
sg38
S'11.8'
p697
sg40
S'28'
p698
sg42
S'MEM'
p699
sg44
S'35'
p700
sg46
S'3.3'
p701
sg48
S'8.5'
p702
sg50
S'4.8'
p703
sg52
S'16.1'
p704
sg54
S'7.6'
p705
sg56
S'2007-08'
p706
sg58
S'8.5'
p707
sg60
S'3.6'
p708
sg62
S'.531'
p709
sg64
S'549'
p710
sg66
g11
sba(isrc.gp1.models.Per100Possession
Per100Possession
p711
(dp712
g8
S'9.2'
p713
sg10
S'0.0'
p714
sg12
S'.477'
p715
sg423
S'106'
p716
sg14
S'0.9'
p717
sg16
S'7.5'
p718
sg18
S'0.0'
p719
sg20
S'103'
p720
sg22
S'PF'
p721
sg430
g3
sg24
S'3.2'
p722
sg28
S'NBA'
p723
sg30
S'3.2'
p724
sg32
S'15.7'
p725
sg34
S'18.7'
p726
sg36
S'.750'
p727
sg38
S'0.7'
p728
sg40
S'28'
p729
sg42
S'NJN'
p730
sg44
S'21'
p731
sg46
S'2.1'
p732
sg48
S'15.7'
p733
sg50
S'5.0'
p734
sg52
S'.477'
p735
sg54
S'12.5'
p736
sg56
S'2007-08'
p737
sg58
S'7.5'
p738
sg60
S'6.9'
p739
sg62
S'3.7'
p740
sg64
S'295'
p741
sg66
g19
sba(isrc.gp1.models.Per100Possession
Per100Possession
p742
(dp743
g8
S'4.4'
p744
sg10
S'0.3'
p745
sg12
S'.429'
p746
sg423
S'87'
p747
sg14
S'0.8'
p748
sg16
S'1.000'
p749
sg18
S'0.3'
p750
sg20
S'17.1'
p751
sg22
S'PF'
p752
sg430
S'110'
p753
sg24
S'.500'
p754
sg28
S'NBA'
p755
sg30
S'1.1'
p756
sg32
S'15.5'
p757
sg34
S'11.1'
p758
sg36
S'7.2'
p759
sg38
S'12.7'
p760
sg40
S'29'
p761
sg42
S'TOT'
p762
sg44
S'19'
p763
sg46
S'2.2'
p764
sg48
S'6.4'
p765
sg50
S'3.6'
p766
sg52
S'15.2'
p767
sg54
S'8.3'
p768
sg56
S'2008-09'
p769
sg58
S'6.6'
p770
sg60
S'4.4'
p771
sg62
S'.418'
p772
sg64
S'185'
p773
sg66
g19
sba(isrc.gp1.models.Per100Possession
Per100Possession
p774
(dp775
g8
S'6.7'
p776
sg10
S'0.0'
p777
sg12
S'.600'
p778
sg423
S'113'
p779
sg14
S'0.0'
p780
sg16
S'7.5'
p781
sg18
S'0.0'
p782
sg20
S'91'
p783
sg22
S'PF'
p784
sg430
g3
sg24
S'4.2'
p785
sg28
S'NBA'
p786
sg30
S'1.7'
p787
sg32
S'12.5'
p788
sg34
S'19.2'
p789
sg36
S'.455'
p790
sg38
S'0.8'
p791
sg40
S'29'
p792
sg42
S'NJN'
p793
sg44
g67
sg46
S'5.8'
p794
sg48
S'12.5'
p795
sg50
S'9.2'
p796
sg52
S'.600'
p797
sg54
S'10.8'
p798
sg56
S'2008-09'
p799
sg58
S'7.5'
p800
sg60
S'12.5'
p801
sg62
S'4.2'
p802
sg64
S'64'
p803
sg66
g19
sba(isrc.gp1.models.Per100Possession
Per100Possession
p804
(dp805
g8
S'4.5'
p806
sg10
S'0.4'
p807
sg12
S'.366'
p808
sg423
S'84'
p809
sg14
S'0.8'
p810
sg16
S'1.000'
p811
sg18
S'0.4'
p812
sg20
S'16.1'
p813
sg22
S'PF'
p814
sg430
S'108'
p815
sg24
S'.533'
p816
sg28
S'NBA'
p817
sg30
S'1.7'
p818
sg32
S'16.9'
p819
sg34
S'10.3'
p820
sg36
S'6.2'
p821
sg38
S'13.6'
p822
sg40
S'29'
p823
sg42
S'PHO'
p824
sg44
S'13'
p825
sg46
S'2.5'
p826
sg48
S'5.8'
p827
sg50
S'3.3'
p828
sg52
S'16.5'
p829
sg54
S'9.1'
p830
sg56
S'2008-09'
p831
sg58
S'6.2'
p832
sg60
S'3.7'
p833
sg62
S'.350'
p834
sg64
S'121'
p835
sg66
g19
sbasS'_advanced'
p836
(lp837
(isrc.gp1.models.Advanced
Advanced
p838
(dp839
S'_offensiveReboundPercentage'
p840
S'9.6'
p841
sS'_turnOverPercentage'
p842
S'13.8'
p843
sS'_winSharesPer48Minutes'
p844
S'.069'
p845
sS'_stealPercentage'
p846
S'2.5'
p847
sS'_usagePercentage'
p848
S'16.2'
p849
sS'_totalReboundsPercentage'
p850
S'12.4'
p851
sS'_defensiveBoxPlusMinus'
p852
S'1.9'
p853
sg22
S'PF'
p854
sS'_valueOverReplacementPlayer'
p855
S'0.2'
p856
sS'_trueShootingPercentage'
p857
S'.487'
p858
sS'_defensiveReboundPercentage'
p859
S'15.1'
p860
sS'_freeThrowsAttempRate'
p861
S'.416'
p862
sS'_threePointsAttempRate'
p863
S'.012'
p864
sg28
S'NBA'
p865
sS'_offensiveBoxPlusMinues'
p866
S'-3.4'
p867
sS'_assistPercentage'
p868
S'3.5'
p869
sS'_defensiveWinShares'
p870
S'1.6'
p871
sg40
S'21'
p872
sg42
S'VAN'
p873
sg44
S'80'
p874
sS'_blockPercentage'
p875
S'4.3'
p876
sS'_playerEfficiencyRating'
p877
S'13.1'
p878
sS'_offensiveWinShares'
p879
S'0.2'
p880
sg64
S'1312'
p881
sS'_boxPlusMinus'
p882
S'-1.5'
p883
sg56
S'2000-01'
p884
sS'_winShares'
p885
S'1.9'
p886
sba(isrc.gp1.models.Advanced
Advanced
p887
(dp888
g840
S'10.0'
p889
sg842
S'14.1'
p890
sg844
S'.099'
p891
sg846
S'1.5'
p892
sg848
S'21.8'
p893
sg850
S'13.3'
p894
sg852
S'0.6'
p895
sg22
S'PF'
p896
sg855
S'0.2'
p897
sg857
S'.539'
p898
sg859
S'16.6'
p899
sg861
S'.499'
p900
sg863
S'.005'
p901
sg28
S'NBA'
p902
sg866
S'-2.1'
p903
sg868
S'5.0'
p904
sg870
S'2.0'
p905
sg40
S'22'
p906
sg42
S'MEM'
p907
sg44
S'68'
p908
sg875
S'4.3'
p909
sg877
S'17.2'
p910
sg879
S'1.7'
p911
sg64
S'1805'
p912
sg882
S'-1.5'
p913
sg56
S'2001-02'
p914
sg885
S'3.7'
p915
sba(isrc.gp1.models.Advanced
Advanced
p916
(dp917
g840
S'8.8'
p918
sg842
S'14.2'
p919
sg844
S'.108'
p920
sg846
S'1.9'
p921
sg848
S'21.2'
p922
sg850
S'14.6'
p923
sg852
S'1.0'
p924
sg22
S'PF'
p925
sg855
S'0.4'
p926
sg857
S'.542'
p927
sg859
S'20.3'
p928
sg861
S'.501'
p929
sg863
S'.004'
p930
sg28
S'NBA'
p931
sg866
S'-1.9'
p932
sg868
S'5.0'
p933
sg870
S'1.7'
p934
sg40
S'23'
p935
sg42
S'MEM'
p936
sg44
S'67'
p937
sg875
S'4.8'
p938
sg877
S'18.0'
p939
sg879
S'1.6'
p940
sg64
S'1478'
p941
sg882
S'-0.9'
p942
sg56
S'2002-03'
p943
sg885
S'3.3'
p944
sba(isrc.gp1.models.Advanced
Advanced
p945
(dp946
g840
S'10.3'
p947
sg842
S'11.4'
p948
sg844
S'.150'
p949
sg846
S'1.9'
p950
sg848
S'22.8'
p951
sg850
S'14.0'
p952
sg852
S'1.2'
p953
sg22
S'PF'
p954
sg855
S'0.7'
p955
sg857
S'.530'
p956
sg859
S'17.7'
p957
sg861
S'.459'
p958
sg863
S'.007'
p959
sg28
S'NBA'
p960
sg866
S'-1.3'
p961
sg868
S'4.4'
p962
sg870
S'2.4'
p963
sg40
S'24'
p964
sg42
S'MEM'
p965
sg44
S'77'
p966
sg875
S'5.6'
p967
sg877
S'19.2'
p968
sg879
S'2.4'
p969
sg64
S'1528'
p970
sg882
S'-0.1'
p971
sg56
S'2003-04'
p972
sg885
S'4.8'
p973
sba(isrc.gp1.models.Advanced
Advanced
p974
(dp975
g840
S'8.7'
p976
sg842
S'13.3'
p977
sg844
S'.107'
p978
sg846
S'1.7'
p979
sg848
S'24.9'
p980
sg850
S'12.8'
p981
sg852
S'1.9'
p982
sg22
S'PF'
p983
sg855
S'0.3'
p984
sg857
S'.517'
p985
sg859
S'16.9'
p986
sg861
S'.449'
p987
sg863
S'.008'
p988
sg28
S'NBA'
p989
sg866
S'-3.0'
p990
sg868
S'6.2'
p991
sg870
S'2.3'
p992
sg40
S'25'
p993
sg42
S'MEM'
p994
sg44
S'60'
p995
sg875
S'5.7'
p996
sg877
S'16.7'
p997
sg879
S'0.6'
p998
sg64
S'1279'
p999
sg882
S'-1.1'
p1000
sg56
S'2004-05'
p1001
sg885
S'2.9'
p1002
sba(isrc.gp1.models.Advanced
Advanced
p1003
(dp1004
g840
S'9.1'
p1005
sg842
S'14.2'
p1006
sg844
S'.091'
p1007
sg846
S'1.5'
p1008
sg848
S'22.7'
p1009
sg850
S'12.7'
p1010
sg852
S'0.1'
p1011
sg22
g198
sg855
S'-0.5'
p1012
sg857
S'.533'
p1013
sg859
S'16.1'
p1014
sg861
S'.456'
p1015
sg863
S'.004'
p1016
sg28
S'NBA'
p1017
sg866
S'-3.6'
p1018
sg868
S'3.6'
p1019
sg870
S'2.1'
p1020
sg40
S'26'
p1021
sg42
S'HOU'
p1022
sg44
S'66'
p1023
sg875
S'3.0'
p1024
sg877
S'14.6'
p1025
sg879
S'0.4'
p1026
sg64
S'1344'
p1027
sg882
S'-3.4'
p1028
sg56
S'2005-06'
p1029
sg885
S'2.5'
p1030
sba(isrc.gp1.models.Advanced
Advanced
p1031
(dp1032
g840
S'9.9'
p1033
sg842
S'14.6'
p1034
sg844
S'.047'
p1035
sg846
S'1.5'
p1036
sg848
S'20.8'
p1037
sg850
S'14.5'
p1038
sg852
S'-0.6'
p1039
sg22
g198
sg855
S'-0.6'
p1040
sg857
S'.517'
p1041
sg859
S'19.2'
p1042
sg861
S'.387'
p1043
sg863
S'.014'
p1044
sg28
S'NBA'
p1045
sg866
S'-3.6'
p1046
sg868
S'2.8'
p1047
sg870
S'0.8'
p1048
sg40
S'27'
p1049
sg42
S'MEM'
p1050
sg44
S'54'
p1051
sg875
S'4.6'
p1052
sg877
S'14.2'
p1053
sg879
S'0.2'
p1054
sg64
S'1029'
p1055
sg882
S'-4.2'
p1056
sg56
S'2006-07'
p1057
sg885
S'1.0'
p1058
sba(isrc.gp1.models.Advanced
Advanced
p1059
(dp1060
g840
S'8.5'
p1061
sg842
S'14.0'
p1062
sg844
S'.078'
p1063
sg846
S'0.9'
p1064
sg848
S'19.3'
p1065
sg850
S'13.4'
p1066
sg852
S'0.1'
p1067
sg22
S'PF'
p1068
sg855
S'-0.3'
p1069
sg857
S'.548'
p1070
sg859
S'18.3'
p1071
sg861
S'.411'
p1072
sg863
S'.008'
p1073
sg28
S'NBA'
p1074
sg866
S'-3.5'
p1075
sg868
S'5.1'
p1076
sg870
S'0.8'
p1077
sg40
S'28'
p1078
sg42
S'TOT'
p1079
sg44
S'56'
p1080
sg875
S'4.8'
p1081
sg877
S'14.8'
p1082
sg879
S'0.6'
p1083
sg64
S'844'
p1084
sg882
S'-3.4'
p1085
sg56
S'2007-08'
p1086
sg885
S'1.4'
p1087
sba(isrc.gp1.models.Advanced
Advanced
p1088
(dp1089
g840
S'9.3'
p1090
sg842
S'15.5'
p1091
sg844
S'.079'
p1092
sg846
S'0.9'
p1093
sg848
S'20.4'
p1094
sg850
S'13.2'
p1095
sg852
S'0.4'
p1096
sg22
S'PF'
p1097
sg855
S'0.0'
p1098
sg857
S'.560'
p1099
sg859
S'17.1'
p1100
sg861
S'.458'
p1101
sg863
S'.011'
p1102
sg28
S'NBA'
p1103
sg866
S'-2.6'
p1104
sg868
S'6.6'
p1105
sg870
S'0.5'
p1106
sg40
S'28'
p1107
sg42
S'MEM'
p1108
sg44
S'35'
p1109
sg875
S'4.8'
p1110
sg877
S'15.9'
p1111
sg879
S'0.4'
p1112
sg64
S'549'
p1113
sg882
S'-2.2'
p1114
sg56
S'2007-08'
p1115
sg885
S'0.9'
p1116
sba(isrc.gp1.models.Advanced
Advanced
p1117
(dp1118
g840
S'7.1'
p1119
sg842
S'10.7'
p1120
sg844
S'.074'
p1121
sg846
S'0.9'
p1122
sg848
S'17.4'
p1123
sg850
S'13.7'
p1124
sg852
S'-0.4'
p1125
sg22
S'PF'
p1126
sg855
S'-0.3'
p1127
sg857
S'.523'
p1128
sg859
S'20.5'
p1129
sg861
S'.318'
p1130
sg863
S'.000'
p1131
sg28
S'NBA'
p1132
sg866
S'-5.3'
p1133
sg868
S'2.3'
p1134
sg870
S'0.3'
p1135
sg40
S'28'
p1136
sg42
S'NJN'
p1137
sg44
S'21'
p1138
sg875
S'4.7'
p1139
sg877
S'12.7'
p1140
sg879
S'0.1'
p1141
sg64
S'295'
p1142
sg882
S'-5.7'
p1143
sg56
S'2007-08'
p1144
sg885
S'0.5'
p1145
sba(isrc.gp1.models.Advanced
Advanced
p1146
(dp1147
g840
S'10.4'
p1148
sg842
S'19.2'
p1149
sg844
S'-0.033'
p1150
sg846
S'1.1'
p1151
sg848
S'20.3'
p1152
sg850
S'14.6'
p1153
sg852
S'-1.7'
p1154
sg22
S'PF'
p1155
sg855
S'-0.3'
p1156
sg857
S'.460'
p1157
sg859
S'18.6'
p1158
sg861
S'.464'
p1159
sg863
S'.018'
p1160
sg28
S'NBA'
p1161
sg866
S'-6.8'
p1162
sg868
S'2.4'
p1163
sg870
S'0.2'
p1164
sg40
S'29'
p1165
sg42
S'TOT'
p1166
sg44
S'19'
p1167
sg875
S'3.3'
p1168
sg877
S'6.8'
p1169
sg879
S'-0.3'
p1170
sg64
S'185'
p1171
sg882
S'-8.6'
p1172
sg56
S'2008-09'
p1173
sg885
S'-0.1'
p1174
sba(isrc.gp1.models.Advanced
Advanced
p1175
(dp1176
g840
S'9.2'
p1177
sg842
S'26.1'
p1178
sg844
S'-0.026'
p1179
sg846
S'0.0'
p1180
sg848
S'19.6'
p1181
sg850
S'12.1'
p1182
sg852
S'-2.6'
p1183
sg22
S'PF'
p1184
sg855
S'-0.1'
p1185
sg857
S'.580'
p1186
sg859
S'15.1'
p1187
sg861
S'.733'
p1188
sg863
S'.000'
p1189
sg28
S'NBA'
p1190
sg866
S'-6.2'
p1191
sg868
S'2.6'
p1192
sg870
S'0.0'
p1193
sg40
S'29'
p1194
sg42
S'NJN'
p1195
sg44
g67
sg875
S'2.6'
p1196
sg877
S'6.6'
p1197
sg879
S'-0.1'
p1198
sg64
S'64'
p1199
sg882
S'-8.9'
p1200
sg56
S'2008-09'
p1201
sg885
S'0.0'
p1202
sba(isrc.gp1.models.Advanced
Advanced
p1203
(dp1204
g840
S'11.0'
p1205
sg842
S'15.9'
p1206
sg844
S'-0.037'
p1207
sg846
S'1.7'
p1208
sg848
S'20.6'
p1209
sg850
S'15.9'
p1210
sg852
S'-1.3'
p1211
sg22
S'PF'
p1212
sg855
S'-0.2'
p1213
sg857
S'.410'
p1214
sg859
S'20.4'
p1215
sg861
S'.366'
p1216
sg863
S'.024'
p1217
sg28
S'NBA'
p1218
sg866
S'-7.1'
p1219
sg868
S'2.3'
p1220
sg870
S'0.1'
p1221
sg40
S'29'
p1222
sg42
S'PHO'
p1223
sg44
S'13'
p1224
sg875
S'3.6'
p1225
sg877
S'6.8'
p1226
sg879
S'-0.2'
p1227
sg64
S'121'
p1228
sg882
S'-8.4'
p1229
sg56
S'2008-09'
p1230
sg885
S'-0.1'
p1231
sbasS'_per36Minutes'
p1232
(lp1233
(isrc.gp1.models.Per36Minutes
Per36Minutes
p1234
(dp1235
g8
S'3.0'
p1236
sg10
S'0.1'
p1237
sg12
S'.451'
p1238
sg14
S'0.8'
p1239
sg16
S'.000'
p1240
sg18
S'0.0'
p1241
sg20
S'10.7'
p1242
sg22
S'PF'
p1243
sg24
S'.603'
p1244
sg28
S'NBA'
p1245
sg30
S'1.7'
p1246
sg32
S'9.3'
p1247
sg34
S'4.4'
p1248
sg36
S'3.9'
p1249
sg38
S'7.8'
p1250
sg40
S'21'
p1251
sg42
S'VAN'
p1252
sg44
S'80'
p1253
sg46
S'2.3'
p1254
sg48
S'4.2'
p1255
sg50
S'2.3'
p1256
sg52
S'9.2'
p1257
sg54
S'4.8'
p1258
sg56
S'2000-01'
p1259
sg58
S'4.2'
p1260
sg60
S'1.8'
p1261
sg62
S'.457'
p1262
sg64
S'1312'
p1263
sg66
g67
sba(isrc.gp1.models.Per36Minutes
Per36Minutes
p1264
(dp1265
g8
S'3.2'
p1266
sg10
S'0.1'
p1267
sg12
S'.480'
p1268
sg14
S'1.0'
p1269
sg16
S'.000'
p1270
sg18
S'0.0'
p1271
sg20
S'16.0'
p1272
sg22
S'PF'
p1273
sg24
S'.711'
p1274
sg28
S'NBA'
p1275
sg30
S'1.1'
p1276
sg32
S'12.2'
p1277
sg34
S'3.6'
p1278
sg36
S'6.1'
p1279
sg38
S'8.6'
p1280
sg40
S'22'
p1281
sg42
S'MEM'
p1282
sg44
S'68'
p1283
sg46
S'2.3'
p1284
sg48
S'5.8'
p1285
sg50
S'4.3'
p1286
sg52
S'12.1'
p1287
sg54
S'5.4'
p1288
sg56
S'2001-02'
p1289
sg58
S'5.8'
p1290
sg60
S'2.4'
p1291
sg62
S'.482'
p1292
sg64
S'1805'
p1293
sg66
S'14'
p1294
sba(isrc.gp1.models.Per36Minutes
Per36Minutes
p1295
(dp1296
g8
S'2.8'
p1297
sg10
S'0.0'
p1298
sg12
S'.481'
p1299
sg14
S'1.1'
p1300
sg16
S'.000'
p1301
sg18
S'0.0'
p1302
sg20
S'15.8'
p1303
sg22
S'PF'
p1304
sg24
S'.722'
p1305
sg28
S'NBA'
p1306
sg30
S'1.3'
p1307
sg32
S'11.9'
p1308
sg34
S'3.7'
p1309
sg36
S'6.0'
p1310
sg38
S'9.4'
p1311
sg40
S'23'
p1312
sg42
S'MEM'
p1313
sg44
S'67'
p1314
sg46
S'2.5'
p1315
sg48
S'5.7'
p1316
sg50
S'4.3'
p1317
sg52
S'11.9'
p1318
sg54
S'6.6'
p1319
sg56
S'2002-03'
p1320
sg58
S'5.7'
p1321
sg60
S'2.4'
p1322
sg62
S'.483'
p1323
sg64
S'1478'
p1324
sg66
S'26'
p1325
sba(isrc.gp1.models.Per36Minutes
Per36Minutes
p1326
(dp1327
g8
S'3.3'
p1328
sg10
S'0.1'
p1329
sg12
S'.469'
p1330
sg14
S'0.9'
p1331
sg16
S'.250'
p1332
sg18
S'0.0'
p1333
sg20
S'17.1'
p1334
sg22
S'PF'
p1335
sg24
S'.725'
p1336
sg28
S'NBA'
p1337
sg30
S'1.3'
p1338
sg32
S'13.5'
p1339
sg34
S'4.4'
p1340
sg36
S'6.2'
p1341
sg38
S'8.9'
p1342
sg40
S'24'
p1343
sg42
S'MEM'
p1344
sg44
S'77'
p1345
sg46
S'2.8'
p1346
sg48
S'6.3'
p1347
sg50
S'4.5'
p1348
sg52
S'13.4'
p1349
sg54
S'5.6'
p1350
sg56
S'2003-04'
p1351
sg58
S'6.3'
p1352
sg60
S'2.1'
p1353
sg62
S'.471'
p1354
sg64
S'1528'
p1355
sg66
S'10'
p1356
sba(isrc.gp1.models.Per36Minutes
Per36Minutes
p1357
(dp1358
g8
S'2.6'
p1359
sg10
S'0.1'
p1360
sg12
S'.449'
p1361
sg14
S'1.2'
p1362
sg16
S'.000'
p1363
sg18
S'0.0'
p1364
sg20
S'17.0'
p1365
sg22
S'PF'
p1366
sg24
S'.758'
p1367
sg28
S'NBA'
p1368
sg30
S'1.2'
p1369
sg32
S'13.7'
p1370
sg34
S'5.1'
p1371
sg36
S'6.2'
p1372
sg38
S'7.7'
p1373
sg40
S'25'
p1374
sg42
S'MEM'
p1375
sg44
S'60'
p1376
sg46
S'2.6'
p1377
sg48
S'6.2'
p1378
sg50
S'4.7'
p1379
sg52
S'13.6'
p1380
sg54
S'5.1'
p1381
sg56
S'2004-05'
p1382
sg58
S'6.2'
p1383
sg60
S'2.5'
p1384
sg62
S'.452'
p1385
sg64
S'1279'
p1386
sg66
S'14'
p1387
sba(isrc.gp1.models.Per36Minutes
Per36Minutes
p1388
(dp1389
g8
S'2.8'
p1390
sg10
S'0.1'
p1391
sg12
S'.491'
p1392
sg14
S'0.7'
p1393
sg16
S'.000'
p1394
sg18
S'0.0'
p1395
sg20
S'15.7'
p1396
sg22
g198
sg24
S'.651'
p1397
sg28
S'NBA'
p1398
sg30
S'1.0'
p1399
sg32
S'12.3'
p1400
sg34
S'5.3'
p1401
sg36
S'5.6'
p1402
sg38
S'7.8'
p1403
sg40
S'26'
p1404
sg42
S'HOU'
p1405
sg44
S'66'
p1406
sg46
S'1.3'
p1407
sg48
S'6.0'
p1408
sg50
S'3.6'
p1409
sg52
S'12.2'
p1410
sg54
S'5.0'
p1411
sg56
S'2005-06'
p1412
sg58
S'6.0'
p1413
sg60
S'2.4'
p1414
sg62
S'.493'
p1415
sg64
S'1344'
p1416
sg66
g220
sba(isrc.gp1.models.Per36Minutes
Per36Minutes
p1417
(dp1418
g8
S'3.0'
p1419
sg10
S'0.2'
p1420
sg12
S'.465'
p1421
sg14
S'0.6'
p1422
sg16
S'.000'
p1423
sg18
S'0.0'
p1424
sg20
S'14.7'
p1425
sg22
g198
sg24
S'.724'
p1426
sg28
S'NBA'
p1427
sg30
S'1.0'
p1428
sg32
S'12.1'
p1429
sg34
S'5.1'
p1430
sg36
S'4.7'
p1431
sg38
S'8.7'
p1432
sg40
S'27'
p1433
sg42
S'MEM'
p1434
sg44
S'54'
p1435
sg46
S'2.2'
p1436
sg48
S'5.6'
p1437
sg50
S'3.4'
p1438
sg52
S'11.9'
p1439
sg54
S'5.8'
p1440
sg56
S'2006-07'
p1441
sg58
S'5.6'
p1442
sg60
S'2.4'
p1443
sg62
S'.472'
p1444
sg64
S'1029'
p1445
sg66
S'18'
p1446
sba(isrc.gp1.models.Per36Minutes
Per36Minutes
p1447
(dp1448
g8
S'2.7'
p1449
sg10
S'0.1'
p1450
sg12
S'.509'
p1451
sg14
S'1.1'
p1452
sg16
S'.000'
p1453
sg18
S'0.0'
p1454
sg20
S'14.6'
p1455
sg22
S'PF'
p1456
sg24
S'.670'
p1457
sg28
S'NBA'
p1458
sg30
S'0.6'
p1459
sg32
S'11.3'
p1460
sg34
S'4.8'
p1461
sg36
S'4.6'
p1462
sg38
S'8.5'
p1463
sg40
S'28'
p1464
sg42
S'TOT'
p1465
sg44
S'56'
p1466
sg46
S'2.3'
p1467
sg48
S'5.8'
p1468
sg50
S'3.1'
p1469
sg52
S'11.2'
p1470
sg54
S'5.8'
p1471
sg56
S'2007-08'
p1472
sg58
S'5.8'
p1473
sg60
S'2.2'
p1474
sg62
S'.513'
p1475
sg64
S'844'
p1476
sg66
g11
sba(isrc.gp1.models.Per36Minutes
Per36Minutes
p1477
(dp1478
g8
S'3.0'
p1479
sg10
S'0.1'
p1480
sg12
S'.525'
p1481
sg14
S'1.4'
p1482
sg16
S'.000'
p1483
sg18
S'0.0'
p1484
sg20
S'15.6'
p1485
sg22
S'PF'
p1486
sg24
S'.642'
p1487
sg28
S'NBA'
p1488
sg30
S'0.7'
p1489
sg32
S'11.6'
p1490
sg34
S'4.9'
p1491
sg36
S'5.3'
p1492
sg38
S'8.5'
p1493
sg40
S'28'
p1494
sg42
S'MEM'
p1495
sg44
S'35'
p1496
sg46
S'2.4'
p1497
sg48
S'6.1'
p1498
sg50
S'3.4'
p1499
sg52
S'11.5'
p1500
sg54
S'5.4'
p1501
sg56
S'2007-08'
p1502
sg58
S'6.1'
p1503
sg60
S'2.6'
p1504
sg62
S'.531'
p1505
sg64
S'549'
p1506
sg66
g11
sba(isrc.gp1.models.Per36Minutes
Per36Minutes
p1507
(dp1508
g8
S'6.3'
p1509
sg10
S'0.0'
p1510
sg12
S'.477'
p1511
sg14
S'0.6'
p1512
sg16
S'5.1'
p1513
sg18
S'0.0'
p1514
sg20
g3
sg22
S'PF'
p1515
sg24
S'2.2'
p1516
sg28
S'NBA'
p1517
sg30
S'2.2'
p1518
sg32
S'10.7'
p1519
sg34
S'12.8'
p1520
sg36
S'.750'
p1521
sg38
S'0.5'
p1522
sg40
S'28'
p1523
sg42
S'NJN'
p1524
sg44
S'21'
p1525
sg46
S'1.5'
p1526
sg48
S'10.7'
p1527
sg50
S'3.4'
p1528
sg52
S'.477'
p1529
sg54
S'8.5'
p1530
sg56
S'2007-08'
p1531
sg58
S'5.1'
p1532
sg60
S'4.8'
p1533
sg62
S'2.6'
p1534
sg64
S'295'
p1535
sg66
g19
sba(isrc.gp1.models.Per36Minutes
Per36Minutes
p1536
(dp1537
g8
S'3.1'
p1538
sg10
S'0.2'
p1539
sg12
S'.429'
p1540
sg14
S'0.6'
p1541
sg16
S'1.000'
p1542
sg18
S'0.2'
p1543
sg20
S'12.1'
p1544
sg22
S'PF'
p1545
sg24
S'.500'
p1546
sg28
S'NBA'
p1547
sg30
S'0.8'
p1548
sg32
S'10.9'
p1549
sg34
S'7.8'
p1550
sg36
S'5.1'
p1551
sg38
S'9.0'
p1552
sg40
S'29'
p1553
sg42
S'TOT'
p1554
sg44
S'19'
p1555
sg46
S'1.6'
p1556
sg48
S'4.5'
p1557
sg50
S'2.5'
p1558
sg52
S'10.7'
p1559
sg54
S'5.8'
p1560
sg56
S'2008-09'
p1561
sg58
S'4.7'
p1562
sg60
S'3.1'
p1563
sg62
S'.418'
p1564
sg64
S'185'
p1565
sg66
g19
sba(isrc.gp1.models.Per36Minutes
Per36Minutes
p1566
(dp1567
g8
S'4.5'
p1568
sg10
S'0.0'
p1569
sg12
S'.600'
p1570
sg14
S'0.0'
p1571
sg16
S'5.1'
p1572
sg18
S'0.0'
p1573
sg20
g3
sg22
S'PF'
p1574
sg24
S'2.8'
p1575
sg28
S'NBA'
p1576
sg30
S'1.1'
p1577
sg32
S'8.4'
p1578
sg34
S'12.9'
p1579
sg36
S'.455'
p1580
sg38
S'0.6'
p1581
sg40
S'29'
p1582
sg42
S'NJN'
p1583
sg44
g67
sg46
S'3.9'
p1584
sg48
S'8.4'
p1585
sg50
S'6.2'
p1586
sg52
S'.600'
p1587
sg54
S'7.3'
p1588
sg56
S'2008-09'
p1589
sg58
S'5.1'
p1590
sg60
S'8.4'
p1591
sg62
S'2.8'
p1592
sg64
S'64'
p1593
sg66
g19
sba(isrc.gp1.models.Per36Minutes
Per36Minutes
p1594
(dp1595
g8
S'3.3'
p1596
sg10
S'0.3'
p1597
sg12
S'.366'
p1598
sg14
S'0.6'
p1599
sg16
S'1.000'
p1600
sg18
S'0.3'
p1601
sg20
S'11.6'
p1602
sg22
S'PF'
p1603
sg24
S'.533'
p1604
sg28
S'NBA'
p1605
sg30
S'1.2'
p1606
sg32
S'12.2'
p1607
sg34
S'7.4'
p1608
sg36
S'4.5'
p1609
sg38
S'9.8'
p1610
sg40
S'29'
p1611
sg42
S'PHO'
p1612
sg44
S'13'
p1613
sg46
S'1.8'
p1614
sg48
S'4.2'
p1615
sg50
S'2.4'
p1616
sg52
S'11.9'
p1617
sg54
S'6.5'
p1618
sg56
S'2008-09'
p1619
sg58
S'4.5'
p1620
sg60
S'2.7'
p1621
sg62
S'.350'
p1622
sg64
S'121'
p1623
sg66
g19
sbasS'_fromYear'
p1624
S'2001'
p1625
sS'_url'
p1626
S'http://www.basketball-reference.com/players/s/swiftst01.html'
p1627
sS'_perGame'
p1628
(isrc.gp1.models.PerGame
PerGame
p1629
(dp1630
g8
S'0.8'
p1631
sg10
S'0.1'
p1632
sg12
S'.366'
p1633
sS'_effectiveFieldGalPercentage'
p1634
S'.378'
p1635
sg14
S'0.2'
p1636
sg16
S'1.000'
p1637
sg18
S'0.1'
p1638
sg20
S'3.0'
p1639
sg22
S'PF'
p1640
sg24
S'.533'
p1641
sg28
S'NBA'
p1642
sg30
S'0.3'
p1643
sg34
S'1.9'
p1644
sS'_fieldGoalsttempted'
p1645
S'3.2'
p1646
sg36
S'1.2'
p1647
sg38
S'2.5'
p1648
sg40
S'29'
p1649
sg42
S'PHO'
p1650
sg44
S'13'
p1651
sg46
S'0.5'
p1652
sg48
S'1.1'
p1653
sg50
S'0.6'
p1654
sg52
S'3.1'
p1655
sg54
S'1.7'
p1656
sg56
S'2008-09'
p1657
sg58
S'1.2'
p1658
sg60
S'0.7'
p1659
sg62
S'.350'
p1660
sg64
S'9.3'
p1661
sg66
g19
sbsS'_weight'
p1662
S'225'
p1663
sS'_dob'
p1664
S'21-11-1979'
p1665
sS'_salary'
p1666
(lp1667
(isrc.gp1.models.Salary
Salary
p1668
(dp1669
g42
S'Vancouver Grizzlies'
p1670
sg28
S'NBA'
p1671
sg1666
S'$3,164,280'
p1672
sg56
S'2000-01'
p1673
sba(isrc.gp1.models.Salary
Salary
p1674
(dp1675
g42
S'Memphis Grizzlies'
p1676
sg28
S'NBA'
p1677
sg1666
S'$3,401,640'
p1678
sg56
S'2001-02'
p1679
sba(isrc.gp1.models.Salary
Salary
p1680
(dp1681
g42
S'Memphis Grizzlies'
p1682
sg28
S'NBA'
p1683
sg1666
S'$3,639,000'
p1684
sg56
S'2002-03'
p1685
sba(isrc.gp1.models.Salary
Salary
p1686
(dp1687
g42
S'Memphis Grizzlies'
p1688
sg28
S'NBA'
p1689
sg1666
S'$4,592,418'
p1690
sg56
S'2003-04'
p1691
sba(isrc.gp1.models.Salary
Salary
p1692
(dp1693
g42
S'Memphis Grizzlies'
p1694
sg28
S'NBA'
p1695
sg1666
S'$5,993,105'
p1696
sg56
S'2004-05'
p1697
sba(isrc.gp1.models.Salary
Salary
p1698
(dp1699
g42
S'Houston Rockets'
p1700
sg28
S'NBA'
p1701
sg1666
S'$5,000,000'
p1702
sg56
S'2005-06'
p1703
sba(isrc.gp1.models.Salary
Salary
p1704
(dp1705
g42
S'Memphis Grizzlies'
p1706
sg28
S'NBA'
p1707
sg1666
S'$5,400,000'
p1708
sg56
S'2006-07'
p1709
sba(isrc.gp1.models.Salary
Salary
p1710
(dp1711
g42
S'New Jersey Nets'
p1712
sg28
S'NBA'
p1713
sg1666
S'$5,800,000'
p1714
sg56
S'2007-08'
p1715
sba(isrc.gp1.models.Salary
Salary
p1716
(dp1717
g42
S'New Jersey Nets'
p1718
sg28
S'NBA'
p1719
sg1666
S'$6,200,000'
p1720
sg56
S'2008-09'
p1721
sbasg22
S'F'
p1722
sb.