(isrc.gp1.models.Player
Player
p0
(dp1
S'_experience'
p2
S'NA'
p3
sS'_totals'
p4
(lp5
(isrc.gp1.models.Totals
Totals
p6
(dp7
S'_offensiveRebounds'
p8
g3
sS'_threePointsAttempted'
p9
g3
sS'_fieldGoalsPercentage'
p10
S'.352'
p11
sS'_assist'
p12
S'2'
p13
sS'_threePointsPercentage'
p14
g3
sS'_threePoints'
p15
g3
sS'_points'
p16
S'42'
p17
sS'_position'
p18
g3
sS'_freeThrowsPercentage'
p19
S'.444'
p20
sS'_effectiveFieldGoalPercentage'
p21
S'.352'
p22
sS'_league'
p23
S'NBA'
p24
sS'_steals'
p25
g3
sS'_fieldGoalsAttempted'
p26
S'54'
p27
sS'_personalFouls'
p28
S'20'
p29
sS'_freeThrowsAttempted'
p30
S'9'
p31
sS'_totalRebounds'
p32
S'41'
p33
sS'_age'
p34
S'26'
p35
sS'_team'
p36
S'CLE'
p37
sS'_games'
p38
S'30'
p39
sS'_blocks'
p40
g3
sS'_twoPoints'
p41
S'19'
p42
sS'_freeThrows'
p43
S'4'
p44
sS'_twoPointsAttempted'
p45
S'54'
p46
sS'_defensiveRebounds'
p47
g3
sS'_season'
p48
S'1970-71'
p49
sS'_fieldGoals'
p50
S'19'
p51
sS'_turnOvers'
p52
g3
sS'_twoPointsPercentage'
p53
S'.352'
p54
sS'_minutesPlayed'
p55
S'140'
p56
sS'_gamesStarted'
p57
g3
sbasS'_college'
p58
S'Midwestern State University'
p59
sS'_toYear'
p60
S'1971'
p61
sS'_height'
p62
S'6-9'
p63
sS'_active'
p64
I00
sS'_shootingHand'
p65
VRight
p66
sS'_name'
p67
S'Gary Suiter'
p68
sS'_per100Possessions'
p69
(lp70
sS'_advanced'
p71
(lp72
(isrc.gp1.models.Advanced
Advanced
p73
(dp74
S'_offensiveReboundPercentage'
p75
g3
sS'_turnOverPercentage'
p76
g3
sS'_winSharesPer48Minutes'
p77
S'-0.099'
p78
sS'_stealPercentage'
p79
g3
sS'_usagePercentage'
p80
g3
sS'_totalReboundsPercentage'
p81
S'14.1'
p82
sS'_defensiveBoxPlusMinus'
p83
g3
sg18
g3
sS'_valueOverReplacementPlayer'
p84
g3
sS'_trueShootingPercentage'
p85
S'.362'
p86
sS'_defensiveReboundPercentage'
p87
g3
sS'_freeThrowsAttempRate'
p88
S'.167'
p89
sS'_threePointsAttempRate'
p90
g3
sg23
S'NBA'
p91
sS'_offensiveBoxPlusMinues'
p92
g3
sS'_assistPercentage'
p93
S'2.0'
p94
sS'_defensiveWinShares'
p95
S'0.1'
p96
sg34
S'26'
p97
sg36
S'CLE'
p98
sg38
S'30'
p99
sS'_blockPercentage'
p100
g3
sS'_playerEfficiencyRating'
p101
S'6.0'
p102
sS'_offensiveWinShares'
p103
S'-0.3'
p104
sg55
S'140'
p105
sS'_boxPlusMinus'
p106
g3
sg48
S'1970-71'
p107
sS'_winShares'
p108
S'-0.3'
p109
sbasS'_per36Minutes'
p110
(lp111
(isrc.gp1.models.Per36Minutes
Per36Minutes
p112
(dp113
g8
g3
sg9
g3
sg10
S'.352'
p114
sg12
S'0.5'
p115
sg14
g3
sg15
g3
sg16
S'10.8'
p116
sg18
g3
sg19
S'.444'
p117
sg23
S'NBA'
p118
sg25
g3
sg26
S'13.9'
p119
sg28
S'5.1'
p120
sg30
S'2.3'
p121
sg32
S'10.5'
p122
sg34
S'26'
p123
sg36
S'CLE'
p124
sg38
S'30'
p125
sg40
g3
sg41
S'4.9'
p126
sg43
S'1.0'
p127
sg45
S'13.9'
p128
sg47
g3
sg48
S'1970-71'
p129
sg50
S'4.9'
p130
sg52
g3
sg53
S'.352'
p131
sg55
S'140'
p132
sg57
g3
sbasS'_fromYear'
p133
S'1971'
p134
sS'_url'
p135
S'http://www.basketball-reference.com/players/s/suitega01.html'
p136
sS'_perGame'
p137
(isrc.gp1.models.PerGame
PerGame
p138
(dp139
g8
g3
sg9
g3
sg10
S'.352'
p140
sS'_effectiveFieldGalPercentage'
p141
S'.352'
p142
sg12
S'0.1'
p143
sg14
g3
sg15
g3
sg16
S'1.4'
p144
sg18
g3
sg19
S'.444'
p145
sg23
S'NBA'
p146
sg25
g3
sg28
S'0.7'
p147
sS'_fieldGoalsttempted'
p148
S'1.8'
p149
sg30
S'0.3'
p150
sg32
S'1.4'
p151
sg34
S'26'
p152
sg36
S'CLE'
p153
sg38
S'30'
p154
sg40
g3
sg41
S'0.6'
p155
sg43
S'0.1'
p156
sg45
S'1.8'
p157
sg47
g3
sg48
S'1970-71'
p158
sg50
S'0.6'
p159
sg52
g3
sg53
S'.352'
p160
sg55
S'4.7'
p161
sg57
g3
sbsS'_weight'
p162
S'225'
p163
sS'_dob'
p164
S'18-1-1945'
p165
sS'_salary'
p166
(lp167
sg18
S'C-F'
p168
sb.