(isrc.gp1.models.Player
Player
p0
(dp1
S'_experience'
p2
V4
p3
sS'_totals'
p4
(lp5
(isrc.gp1.models.Totals
Totals
p6
(dp7
S'_offensiveRebounds'
p8
S'14'
p9
sS'_threePointsAttempted'
p10
S'42'
p11
sS'_fieldGoalsPercentage'
p12
S'.354'
p13
sS'_assist'
p14
S'16'
p15
sS'_threePointsPercentage'
p16
S'.357'
p17
sS'_threePoints'
p18
S'15'
p19
sS'_points'
p20
S'134'
p21
sS'_position'
p22
S'SF'
p23
sS'_freeThrowsPercentage'
p24
S'.711'
p25
sS'_effectiveFieldGoalPercentage'
p26
S'.412'
p27
sS'_league'
p28
S'NBA'
p29
sS'_steals'
p30
S'8'
p31
sS'_fieldGoalsAttempted'
p32
S'130'
p33
sS'_personalFouls'
p34
S'52'
p35
sS'_freeThrowsAttempted'
p36
S'38'
p37
sS'_totalRebounds'
p38
S'45'
p39
sS'_age'
p40
S'22'
p41
sS'_team'
p42
S'DET'
p43
sS'_games'
p44
S'44'
p45
sS'_blocks'
p46
S'7'
p47
sS'_twoPoints'
p48
S'31'
p49
sS'_freeThrows'
p50
S'27'
p51
sS'_twoPointsAttempted'
p52
S'88'
p53
sS'_defensiveRebounds'
p54
S'31'
p55
sS'_season'
p56
S'2009-10'
p57
sS'_fieldGoals'
p58
S'46'
p59
sS'_turnOvers'
p60
S'16'
p61
sS'_twoPointsPercentage'
p62
S'.352'
p63
sS'_minutesPlayed'
p64
S'405'
p65
sS'_gamesStarted'
p66
S'0'
p67
sba(isrc.gp1.models.Totals
Totals
p68
(dp69
g8
S'2'
p70
sg10
S'21'
p71
sg12
S'.406'
p72
sg14
g70
sg16
S'.429'
p73
sg18
S'9'
p74
sg20
S'74'
p75
sg22
S'SF'
p76
sg24
S'.450'
p77
sg26
S'.471'
p78
sg28
S'NBA'
p79
sg30
S'3'
p80
sg32
S'69'
p81
sg34
S'21'
p82
sg36
S'20'
p83
sg38
S'12'
p84
sg40
S'23'
p85
sg42
S'DET'
p86
sg44
S'22'
p87
sg46
S'1'
p88
sg48
S'19'
p89
sg50
g74
sg52
S'48'
p90
sg54
S'10'
p91
sg56
S'2010-11'
p92
sg58
S'28'
p93
sg60
S'13'
p94
sg62
S'.396'
p95
sg64
S'199'
p96
sg66
g88
sba(isrc.gp1.models.Totals
Totals
p97
(dp98
g8
g31
sg10
S'16'
p99
sg12
S'.431'
p100
sg14
S'10'
p101
sg16
S'.313'
p102
sg18
S'5'
p103
sg20
S'68'
p104
sg22
S'SF'
p105
sg24
S'.778'
p106
sg26
S'.469'
p107
sg28
S'NBA'
p108
sg30
g47
sg32
S'65'
p109
sg34
S'31'
p110
sg36
g74
sg38
S'23'
p111
sg40
S'24'
p112
sg42
S'NOH'
p113
sg44
S'15'
p114
sg46
g67
sg48
S'23'
p115
sg50
g47
sg52
S'49'
p116
sg54
S'15'
p117
sg56
S'2011-12'
p118
sg58
S'28'
p119
sg60
g31
sg62
S'.469'
p120
sg64
S'209'
p121
sg66
S'6'
p122
sba(isrc.gp1.models.Totals
Totals
p123
(dp124
g8
g67
sg10
g67
sg12
S'.250'
p125
sg14
g88
sg16
S'NA'
p126
sg18
g67
sg20
g70
sg22
S'PF'
p127
sg24
g126
sg26
S'.250'
p128
sg28
S'NBA'
p129
sg30
g67
sg32
S'4'
p130
sg34
g67
sg36
g67
sg38
g70
sg40
S'25'
p131
sg42
S'LAC'
p132
sg44
g70
sg46
g67
sg48
g88
sg50
g67
sg52
g130
sg54
g70
sg56
S'2012-13'
p133
sg58
g88
sg60
g67
sg62
S'.250'
p134
sg64
g47
sg66
g67
sbasS'_college'
p135
S'Georgetown University'
p136
sS'_toYear'
p137
S'2013'
p138
sS'_height'
p139
S'6-8'
p140
sS'_active'
p141
I01
sS'_shootingHand'
p142
VRight
p143
sS'_name'
p144
S'DaJuan Summers'
p145
sS'_per100Possessions'
p146
(lp147
(isrc.gp1.models.Per100Possession
Per100Possession
p148
(dp149
g8
S'1.9'
p150
sg10
S'5.6'
p151
sg12
S'.354'
p152
sS'_offensiveRating'
p153
S'97'
p154
sg14
S'2.1'
p155
sg16
S'.357'
p156
sg18
S'2.0'
p157
sg20
S'17.9'
p158
sg22
S'SF'
p159
sS'_defensiveRating'
p160
S'114'
p161
sg24
S'.711'
p162
sg28
S'NBA'
p163
sg30
S'1.1'
p164
sg32
S'17.4'
p165
sg34
S'7.0'
p166
sg36
S'5.1'
p167
sg38
S'6.0'
p168
sg40
S'22'
p169
sg42
S'DET'
p170
sg44
S'44'
p171
sg46
S'0.9'
p172
sg48
S'4.1'
p173
sg50
S'3.6'
p174
sg52
S'11.8'
p175
sg54
S'4.1'
p176
sg56
S'2009-10'
p177
sg58
S'6.2'
p178
sg60
S'2.1'
p179
sg62
S'.352'
p180
sg64
S'405'
p181
sg66
g67
sba(isrc.gp1.models.Per100Possession
Per100Possession
p182
(dp183
g8
S'0.5'
p184
sg10
S'5.7'
p185
sg12
S'.406'
p186
sg153
S'84'
p187
sg14
S'0.5'
p188
sg16
S'.429'
p189
sg18
S'2.4'
p190
sg20
S'20.0'
p191
sg22
S'SF'
p192
sg160
S'116'
p193
sg24
S'.450'
p194
sg28
S'NBA'
p195
sg30
S'0.8'
p196
sg32
S'18.7'
p197
sg34
S'5.7'
p198
sg36
S'5.4'
p199
sg38
S'3.2'
p200
sg40
S'23'
p201
sg42
S'DET'
p202
sg44
S'22'
p203
sg46
S'0.3'
p204
sg48
S'5.1'
p205
sg50
S'2.4'
p206
sg52
S'13.0'
p207
sg54
S'2.7'
p208
sg56
S'2010-11'
p209
sg58
S'7.6'
p210
sg60
S'3.5'
p211
sg62
S'.396'
p212
sg64
S'199'
p213
sg66
g88
sba(isrc.gp1.models.Per100Possession
Per100Possession
p214
(dp215
g8
S'2.1'
p216
sg10
S'4.2'
p217
sg12
S'.431'
p218
sg153
S'100'
p219
sg14
S'2.6'
p220
sg16
S'.313'
p221
sg18
S'1.3'
p222
sg20
S'17.7'
p223
sg22
S'SF'
p224
sg160
S'108'
p225
sg24
S'.778'
p226
sg28
S'NBA'
p227
sg30
S'1.8'
p228
sg32
S'16.9'
p229
sg34
S'8.1'
p230
sg36
S'2.3'
p231
sg38
S'6.0'
p232
sg40
S'24'
p233
sg42
S'NOH'
p234
sg44
S'15'
p235
sg46
S'0.0'
p236
sg48
S'6.0'
p237
sg50
S'1.8'
p238
sg52
S'12.7'
p239
sg54
S'3.9'
p240
sg56
S'2011-12'
p241
sg58
S'7.3'
p242
sg60
S'2.1'
p243
sg62
S'.469'
p244
sg64
S'209'
p245
sg66
g122
sba(isrc.gp1.models.Per100Possession
Per100Possession
p246
(dp247
g8
S'0.0'
p248
sg10
S'0.0'
p249
sg12
S'.250'
p250
sg153
S'71'
p251
sg14
S'7.5'
p252
sg16
g126
sg18
S'0.0'
p253
sg20
S'15.0'
p254
sg22
S'PF'
p255
sg160
S'104'
p256
sg24
g126
sg28
S'NBA'
p257
sg30
S'0.0'
p258
sg32
S'30.1'
p259
sg34
S'0.0'
p260
sg36
S'0.0'
p261
sg38
S'15.0'
p262
sg40
S'25'
p263
sg42
S'LAC'
p264
sg44
g70
sg46
S'0.0'
p265
sg48
S'7.5'
p266
sg50
S'0.0'
p267
sg52
S'30.1'
p268
sg54
S'15.0'
p269
sg56
S'2012-13'
p270
sg58
S'7.5'
p271
sg60
S'0.0'
p272
sg62
S'.250'
p273
sg64
g47
sg66
g67
sbasS'_advanced'
p274
(lp275
(isrc.gp1.models.Advanced
Advanced
p276
(dp277
S'_offensiveReboundPercentage'
p278
S'3.9'
p279
sS'_turnOverPercentage'
p280
S'9.8'
p281
sS'_winSharesPer48Minutes'
p282
S'.002'
p283
sS'_stealPercentage'
p284
S'1.1'
p285
sS'_usagePercentage'
p286
S'18.5'
p287
sS'_totalReboundsPercentage'
p288
S'6.7'
p289
sS'_defensiveBoxPlusMinus'
p290
S'-2.5'
p291
sg22
S'SF'
p292
sS'_valueOverReplacementPlayer'
p293
S'-0.4'
p294
sS'_trueShootingPercentage'
p295
S'.457'
p296
sS'_defensiveReboundPercentage'
p297
S'9.9'
p298
sS'_freeThrowsAttempRate'
p299
S'.292'
p300
sS'_threePointsAttempRate'
p301
S'.323'
p302
sg28
S'NBA'
p303
sS'_offensiveBoxPlusMinues'
p304
S'-3.3'
p305
sS'_assistPercentage'
p306
S'6.3'
p307
sS'_defensiveWinShares'
p308
S'0.1'
p309
sg40
S'22'
p310
sg42
S'DET'
p311
sg44
S'44'
p312
sS'_blockPercentage'
p313
S'1.5'
p314
sS'_playerEfficiencyRating'
p315
S'7.5'
p316
sS'_offensiveWinShares'
p317
S'-0.1'
p318
sg64
S'405'
p319
sS'_boxPlusMinus'
p320
S'-5.8'
p321
sg56
S'2009-10'
p322
sS'_winShares'
p323
S'0.0'
p324
sba(isrc.gp1.models.Advanced
Advanced
p325
(dp326
g278
S'1.2'
p327
sg280
S'14.3'
p328
sg282
S'-0.083'
p329
sg284
S'0.8'
p330
sg286
S'21.3'
p331
sg288
S'3.7'
p332
sg290
S'-5.0'
p333
sg22
S'SF'
p334
sg293
S'-0.4'
p335
sg295
S'.476'
p336
sg297
S'6.4'
p337
sg299
S'.290'
p338
sg301
S'.304'
p339
sg28
S'NBA'
p340
sg304
S'-5.5'
p341
sg306
S'1.6'
p342
sg308
S'0.0'
p343
sg40
S'23'
p344
sg42
S'DET'
p345
sg44
S'22'
p346
sg313
S'0.4'
p347
sg315
S'4.4'
p348
sg317
S'-0.3'
p349
sg64
S'199'
p350
sg320
S'-10.5'
p351
sg56
S'2010-11'
p352
sg323
S'-0.3'
p353
sba(isrc.gp1.models.Advanced
Advanced
p354
(dp355
g278
S'4.6'
p356
sg280
S'10.4'
p357
sg282
S'.049'
p358
sg284
S'1.8'
p359
sg286
S'17.4'
p360
sg288
S'6.6'
p361
sg290
S'-1.7'
p362
sg22
S'SF'
p363
sg293
S'-0.1'
p364
sg295
S'.493'
p365
sg297
S'8.4'
p366
sg299
S'.138'
p367
sg301
S'.246'
p368
sg28
S'NBA'
p369
sg304
S'-1.8'
p370
sg306
S'8.1'
p371
sg308
S'0.1'
p372
sg40
S'24'
p373
sg42
S'NOH'
p374
sg44
S'15'
p375
sg313
S'0.0'
p376
sg315
S'9.0'
p377
sg317
S'0.1'
p378
sg64
S'209'
p379
sg320
S'-3.4'
p380
sg56
S'2011-12'
p381
sg323
S'0.2'
p382
sba(isrc.gp1.models.Advanced
Advanced
p383
(dp384
g278
S'0.0'
p385
sg280
S'0.0'
p386
sg282
S'-0.124'
p387
sg284
S'0.0'
p388
sg286
S'26.1'
p389
sg288
S'17.0'
p390
sg290
S'-1.9'
p391
sg22
S'PF'
p392
sg293
S'0.0'
p393
sg295
S'.250'
p394
sg297
S'33.5'
p395
sg299
S'.000'
p396
sg301
S'.000'
p397
sg28
S'NBA'
p398
sg304
S'-10.8'
p399
sg306
S'21.7'
p400
sg308
S'0.0'
p401
sg40
S'25'
p402
sg42
S'LAC'
p403
sg44
g70
sg313
S'0.0'
p404
sg315
S'4.3'
p405
sg317
S'0.0'
p406
sg64
g47
sg320
S'-12.6'
p407
sg56
S'2012-13'
p408
sg323
S'0.0'
p409
sbasS'_per36Minutes'
p410
(lp411
(isrc.gp1.models.Per36Minutes
Per36Minutes
p412
(dp413
g8
S'1.2'
p414
sg10
S'3.7'
p415
sg12
S'.354'
p416
sg14
S'1.4'
p417
sg16
S'.357'
p418
sg18
S'1.3'
p419
sg20
S'11.9'
p420
sg22
S'SF'
p421
sg24
S'.711'
p422
sg28
S'NBA'
p423
sg30
S'0.7'
p424
sg32
S'11.6'
p425
sg34
S'4.6'
p426
sg36
S'3.4'
p427
sg38
S'4.0'
p428
sg40
S'22'
p429
sg42
S'DET'
p430
sg44
S'44'
p431
sg46
S'0.6'
p432
sg48
S'2.8'
p433
sg50
S'2.4'
p434
sg52
S'7.8'
p435
sg54
S'2.8'
p436
sg56
S'2009-10'
p437
sg58
S'4.1'
p438
sg60
S'1.4'
p439
sg62
S'.352'
p440
sg64
S'405'
p441
sg66
g67
sba(isrc.gp1.models.Per36Minutes
Per36Minutes
p442
(dp443
g8
S'0.4'
p444
sg10
S'3.8'
p445
sg12
S'.406'
p446
sg14
S'0.4'
p447
sg16
S'.429'
p448
sg18
S'1.6'
p449
sg20
S'13.4'
p450
sg22
S'SF'
p451
sg24
S'.450'
p452
sg28
S'NBA'
p453
sg30
S'0.5'
p454
sg32
S'12.5'
p455
sg34
S'3.8'
p456
sg36
S'3.6'
p457
sg38
S'2.2'
p458
sg40
S'23'
p459
sg42
S'DET'
p460
sg44
S'22'
p461
sg46
S'0.2'
p462
sg48
S'3.4'
p463
sg50
S'1.6'
p464
sg52
S'8.7'
p465
sg54
S'1.8'
p466
sg56
S'2010-11'
p467
sg58
S'5.1'
p468
sg60
S'2.4'
p469
sg62
S'.396'
p470
sg64
S'199'
p471
sg66
g88
sba(isrc.gp1.models.Per36Minutes
Per36Minutes
p472
(dp473
g8
S'1.4'
p474
sg10
S'2.8'
p475
sg12
S'.431'
p476
sg14
S'1.7'
p477
sg16
S'.313'
p478
sg18
S'0.9'
p479
sg20
S'11.7'
p480
sg22
S'SF'
p481
sg24
S'.778'
p482
sg28
S'NBA'
p483
sg30
S'1.2'
p484
sg32
S'11.2'
p485
sg34
S'5.3'
p486
sg36
S'1.6'
p487
sg38
S'4.0'
p488
sg40
S'24'
p489
sg42
S'NOH'
p490
sg44
S'15'
p491
sg46
S'0.0'
p492
sg48
S'4.0'
p493
sg50
S'1.2'
p494
sg52
S'8.4'
p495
sg54
S'2.6'
p496
sg56
S'2011-12'
p497
sg58
S'4.8'
p498
sg60
S'1.4'
p499
sg62
S'.469'
p500
sg64
S'209'
p501
sg66
g122
sba(isrc.gp1.models.Per36Minutes
Per36Minutes
p502
(dp503
g8
S'0.0'
p504
sg10
S'0.0'
p505
sg12
S'.250'
p506
sg14
S'5.1'
p507
sg16
g126
sg18
S'0.0'
p508
sg20
S'10.3'
p509
sg22
S'PF'
p510
sg24
g126
sg28
S'NBA'
p511
sg30
S'0.0'
p512
sg32
S'20.6'
p513
sg34
S'0.0'
p514
sg36
S'0.0'
p515
sg38
S'10.3'
p516
sg40
S'25'
p517
sg42
S'LAC'
p518
sg44
g70
sg46
S'0.0'
p519
sg48
S'5.1'
p520
sg50
S'0.0'
p521
sg52
S'20.6'
p522
sg54
S'10.3'
p523
sg56
S'2012-13'
p524
sg58
S'5.1'
p525
sg60
S'0.0'
p526
sg62
S'.250'
p527
sg64
g47
sg66
g67
sbasS'_fromYear'
p528
S'2010'
p529
sS'_url'
p530
S'http://www.basketball-reference.com/players/s/summeda01.html'
p531
sS'_perGame'
p532
(isrc.gp1.models.PerGame
PerGame
p533
(dp534
g8
S'0.0'
p535
sg10
S'0.0'
p536
sg12
S'.250'
p537
sS'_effectiveFieldGalPercentage'
p538
S'.250'
p539
sg14
S'0.5'
p540
sg16
g126
sg18
S'0.0'
p541
sg20
S'1.0'
p542
sg22
S'PF'
p543
sg24
g126
sg28
S'NBA'
p544
sg30
S'0.0'
p545
sg34
S'0.0'
p546
sS'_fieldGoalsttempted'
p547
S'2.0'
p548
sg36
S'0.0'
p549
sg38
S'1.0'
p550
sg40
S'25'
p551
sg42
S'LAC'
p552
sg44
g70
sg46
S'0.0'
p553
sg48
S'0.5'
p554
sg50
S'0.0'
p555
sg52
S'2.0'
p556
sg54
S'1.0'
p557
sg56
S'2012-13'
p558
sg58
S'0.5'
p559
sg60
S'0.0'
p560
sg62
S'.250'
p561
sg64
S'3.5'
p562
sg66
g67
sbsS'_weight'
p563
S'230'
p564
sS'_dob'
p565
S'24-1-1988'
p566
sS'_salary'
p567
(lp568
(isrc.gp1.models.Salary
Salary
p569
(dp570
g42
S'Detroit Pistons'
p571
sg28
S'NBA'
p572
sg567
S'$457,588'
p573
sg56
S'2009-10'
p574
sba(isrc.gp1.models.Salary
Salary
p575
(dp576
g42
S'Detroit Pistons'
p577
sg28
S'NBA'
p578
sg567
S'$762,195'
p579
sg56
S'2010-11'
p580
sba(isrc.gp1.models.Salary
Salary
p581
(dp582
g42
S'New Orleans Hornets'
p583
sg28
S'NBA'
p584
sg567
S'$303,137'
p585
sg56
S'2011-12'
p586
sbasg22
S'F'
p587
sb.