(isrc.gp1.models.Player
Player
p0
(dp1
S'_experience'
p2
S'NA'
p3
sS'_totals'
p4
(lp5
(isrc.gp1.models.Totals
Totals
p6
(dp7
S'_offensiveRebounds'
p8
S'111'
p9
sS'_threePointsAttempted'
p10
S'12'
p11
sS'_fieldGoalsPercentage'
p12
S'.506'
p13
sS'_assist'
p14
S'146'
p15
sS'_threePointsPercentage'
p16
S'.417'
p17
sS'_threePoints'
p18
S'5'
p19
sS'_points'
p20
S'694'
p21
sS'_position'
p22
S'SG'
p23
sS'_freeThrowsPercentage'
p24
S'.675'
p25
sS'_effectiveFieldGoalPercentage'
p26
S'.511'
p27
sS'_league'
p28
S'ABA'
p29
sS'_steals'
p30
g3
sS'_fieldGoalsAttempted'
p31
S'496'
p32
sS'_personalFouls'
p33
S'231'
p34
sS'_freeThrowsAttempted'
p35
S'277'
p36
sS'_totalRebounds'
p37
S'307'
p38
sS'_age'
p39
S'23'
p40
sS'_team'
p41
S'NYA'
p42
sS'_games'
p43
S'80'
p44
sS'_blocks'
p45
g3
sS'_twoPoints'
p46
S'246'
p47
sS'_freeThrows'
p48
S'187'
p49
sS'_twoPointsAttempted'
p50
S'484'
p51
sS'_defensiveRebounds'
p52
S'196'
p53
sS'_season'
p54
S'1970-71'
p55
sS'_fieldGoals'
p56
S'251'
p57
sS'_turnOvers'
p58
S'162'
p59
sS'_twoPointsPercentage'
p60
S'.508'
p61
sS'_minutesPlayed'
p62
S'1617'
p63
sS'_gamesStarted'
p64
g3
sba(isrc.gp1.models.Totals
Totals
p65
(dp66
g8
S'128'
p67
sg10
S'6'
p68
sg12
S'.452'
p69
sg14
S'153'
p70
sg16
S'.000'
p71
sg18
S'0'
p72
sg20
S'708'
p73
sg22
S'SG'
p74
sg24
S'.708'
p75
sg26
S'.452'
p76
sg28
S'ABA'
p77
sg30
g3
sg31
S'542'
p78
sg33
S'213'
p79
sg35
S'308'
p80
sg37
S'330'
p81
sg39
S'24'
p82
sg41
S'NYA'
p83
sg43
S'82'
p84
sg45
g3
sg46
S'245'
p85
sg48
S'218'
p86
sg50
S'536'
p87
sg52
S'202'
p88
sg54
S'1971-72'
p89
sg56
S'245'
p90
sg58
S'153'
p91
sg60
S'.457'
p92
sg62
S'1891'
p93
sg64
g3
sba(isrc.gp1.models.Totals
Totals
p94
(dp95
g8
S'156'
p96
sg10
S'55'
p97
sg12
S'.429'
p98
sg14
S'275'
p99
sg16
S'.200'
p100
sg18
S'11'
p101
sg20
S'947'
p102
sg22
S'SG'
p103
sg24
S'.673'
p104
sg26
S'.437'
p105
sg28
S'ABA'
p106
sg30
g3
sg31
S'757'
p107
sg33
S'191'
p108
sg35
S'425'
p109
sg37
S'365'
p110
sg39
S'25'
p111
sg41
S'SDA'
p112
sg43
S'69'
p113
sg45
g3
sg46
S'314'
p114
sg48
S'286'
p115
sg50
S'702'
p116
sg52
S'209'
p117
sg54
S'1972-73'
p118
sg56
S'325'
p119
sg58
S'207'
p120
sg60
S'.447'
p121
sg62
S'2121'
p122
sg64
g3
sba(isrc.gp1.models.Totals
Totals
p123
(dp124
g8
S'34'
p125
sg10
S'4'
p126
sg12
S'.433'
p127
sg14
S'54'
p128
sg16
S'.500'
p129
sg18
S'2'
p130
sg20
S'190'
p131
sg22
S'SG'
p132
sg24
S'.674'
p133
sg26
S'.440'
p134
sg28
S'ABA'
p135
sg30
S'20'
p136
sg31
S'150'
p137
sg33
S'63'
p138
sg35
S'86'
p139
sg37
S'88'
p140
sg39
S'26'
p141
sg41
S'TOT'
p142
sg43
S'31'
p143
sg45
g68
sg46
S'63'
p144
sg48
S'58'
p145
sg50
S'146'
p146
sg52
S'54'
p147
sg54
S'1973-74'
p148
sg56
S'65'
p149
sg58
S'58'
p150
sg60
S'.432'
p151
sg62
S'519'
p152
sg64
g3
sba(isrc.gp1.models.Totals
Totals
p153
(dp154
g8
g19
sg10
S'1'
p155
sg12
S'.375'
p156
sg14
S'10'
p157
sg16
S'1.000'
p158
sg18
g155
sg20
S'28'
p159
sg22
S'SG'
p160
sg24
S'.600'
p161
sg26
S'.396'
p162
sg28
S'ABA'
p163
sg30
S'3'
p164
sg31
S'24'
p165
sg33
S'9'
p166
sg35
S'15'
p167
sg37
S'14'
p168
sg39
S'26'
p169
sg41
S'NYA'
p170
sg43
S'8'
p171
sg45
g72
sg46
g171
sg48
g166
sg50
S'23'
p172
sg52
g166
sg54
S'1973-74'
p173
sg56
g166
sg58
g166
sg60
S'.348'
p174
sg62
S'76'
p175
sg64
g3
sba(isrc.gp1.models.Totals
Totals
p176
(dp177
g8
S'29'
p178
sg10
g164
sg12
S'.444'
p179
sg14
S'44'
p180
sg16
S'.333'
p181
sg18
g155
sg20
S'162'
p182
sg22
S'SG'
p183
sg24
S'.690'
p184
sg26
S'.448'
p185
sg28
S'ABA'
p186
sg30
S'17'
p187
sg31
S'126'
p188
sg33
S'54'
p189
sg35
S'71'
p190
sg37
S'74'
p191
sg39
S'26'
p192
sg41
S'CAR'
p193
sg43
S'23'
p194
sg45
g68
sg46
S'55'
p195
sg48
S'49'
p196
sg50
S'123'
p197
sg52
S'45'
p198
sg54
S'1973-74'
p199
sg56
S'56'
p200
sg58
S'49'
p201
sg60
S'.447'
p202
sg62
S'443'
p203
sg64
g3
sbasS'_college'
p204
S'University of Houston'
p205
sS'_toYear'
p206
S'1974'
p207
sS'_height'
p208
S'6-2'
p209
sS'_active'
p210
I00
sS'_shootingHand'
p211
VRight
p212
sS'_name'
p213
S'Oliver Taylor'
p214
sS'_per100Possessions'
p215
(lp216
(isrc.gp1.models.Per100Possession
Per100Possession
p217
(dp218
g8
S'3.0'
p219
sg10
S'0.4'
p220
sg12
S'.433'
p221
sS'_offensiveRating'
p222
S'94'
p223
sg14
S'4.8'
p224
sg16
S'.500'
p225
sg18
S'0.2'
p226
sg20
S'16.9'
p227
sg22
S'SG'
p228
sS'_defensiveRating'
p229
S'103'
p230
sg24
S'.674'
p231
sg28
S'ABA'
p232
sg30
S'1.8'
p233
sg31
S'13.4'
p234
sg33
S'5.6'
p235
sg35
S'7.7'
p236
sg37
S'7.8'
p237
sg39
S'26'
p238
sg41
S'TOT'
p239
sg43
S'31'
p240
sg45
S'0.5'
p241
sg46
S'5.6'
p242
sg48
S'5.2'
p243
sg50
S'13.0'
p244
sg52
S'4.8'
p245
sg54
S'1973-74'
p246
sg56
S'5.8'
p247
sg58
S'5.2'
p248
sg60
S'.432'
p249
sg62
S'519'
p250
sg64
g3
sba(isrc.gp1.models.Per100Possession
Per100Possession
p251
(dp252
g8
S'3.0'
p253
sg10
S'0.6'
p254
sg12
S'.375'
p255
sg222
S'89'
p256
sg14
S'6.0'
p257
sg16
S'1.000'
p258
sg18
S'0.6'
p259
sg20
S'16.8'
p260
sg22
S'SG'
p261
sg229
S'100'
p262
sg24
S'.600'
p263
sg28
S'ABA'
p264
sg30
S'1.8'
p265
sg31
S'14.4'
p266
sg33
S'5.4'
p267
sg35
S'9.0'
p268
sg37
S'8.4'
p269
sg39
S'26'
p270
sg41
S'NYA'
p271
sg43
g171
sg45
S'0.0'
p272
sg46
S'4.8'
p273
sg48
S'5.4'
p274
sg50
S'13.8'
p275
sg52
S'5.4'
p276
sg54
S'1973-74'
p277
sg56
S'5.4'
p278
sg58
S'5.4'
p279
sg60
S'.348'
p280
sg62
S'76'
p281
sg64
g3
sba(isrc.gp1.models.Per100Possession
Per100Possession
p282
(dp283
g8
S'3.0'
p284
sg10
S'0.3'
p285
sg12
S'.444'
p286
sg222
S'95'
p287
sg14
S'4.6'
p288
sg16
S'.333'
p289
sg18
S'0.1'
p290
sg20
S'16.9'
p291
sg22
S'SG'
p292
sg229
S'104'
p293
sg24
S'.690'
p294
sg28
S'ABA'
p295
sg30
S'1.8'
p296
sg31
S'13.2'
p297
sg33
S'5.6'
p298
sg35
S'7.4'
p299
sg37
S'7.7'
p300
sg39
S'26'
p301
sg41
S'CAR'
p302
sg43
S'23'
p303
sg45
S'0.6'
p304
sg46
S'5.8'
p305
sg48
S'5.1'
p306
sg50
S'12.9'
p307
sg52
S'4.7'
p308
sg54
S'1973-74'
p309
sg56
S'5.9'
p310
sg58
S'5.1'
p311
sg60
S'.447'
p312
sg62
S'443'
p313
sg64
g3
sbasS'_advanced'
p314
(lp315
(isrc.gp1.models.Advanced
Advanced
p316
(dp317
S'_offensiveReboundPercentage'
p318
g3
sS'_turnOverPercentage'
p319
S'20.8'
p320
sS'_winSharesPer48Minutes'
p321
S'.115'
p322
sS'_stealPercentage'
p323
g3
sS'_usagePercentage'
p324
S'18.3'
p325
sS'_totalReboundsPercentage'
p326
S'9.3'
p327
sS'_defensiveBoxPlusMinus'
p328
g3
sg22
S'SG'
p329
sS'_valueOverReplacementPlayer'
p330
g3
sS'_trueShootingPercentage'
p331
S'.562'
p332
sS'_defensiveReboundPercentage'
p333
g3
sS'_freeThrowsAttempRate'
p334
S'.558'
p335
sS'_threePointsAttempRate'
p336
S'.024'
p337
sg28
S'ABA'
p338
sS'_offensiveBoxPlusMinues'
p339
g3
sS'_assistPercentage'
p340
S'12.2'
p341
sS'_defensiveWinShares'
p342
S'0.9'
p343
sg39
S'23'
p344
sg41
S'NYA'
p345
sg43
S'80'
p346
sS'_blockPercentage'
p347
g3
sS'_playerEfficiencyRating'
p348
S'12.6'
p349
sS'_offensiveWinShares'
p350
S'2.9'
p351
sg62
S'1617'
p352
sS'_boxPlusMinus'
p353
g3
sg54
S'1970-71'
p354
sS'_winShares'
p355
S'3.9'
p356
sba(isrc.gp1.models.Advanced
Advanced
p357
(dp358
g318
S'6.8'
p359
sg319
S'18.4'
p360
sg321
S'.070'
p361
sg323
g3
sg324
S'17.1'
p362
sg326
S'8.5'
p363
sg328
g3
sg22
S'SG'
p364
sg330
g3
sg331
S'.522'
p365
sg333
S'10.1'
p366
sg334
S'.568'
p367
sg336
S'.011'
p368
sg28
S'ABA'
p369
sg339
g3
sg340
S'10.4'
p370
sg342
S'1.1'
p371
sg39
S'24'
p372
sg41
S'NYA'
p373
sg43
S'82'
p374
sg347
g3
sg348
S'10.8'
p375
sg350
S'1.7'
p376
sg62
S'1891'
p377
sg353
g3
sg54
S'1971-72'
p378
sg355
S'2.8'
p379
sba(isrc.gp1.models.Advanced
Advanced
p380
(dp381
g318
S'6.9'
p382
sg319
S'18.0'
p383
sg321
S'.086'
p384
sg323
g3
sg324
S'20.6'
p385
sg326
S'8.4'
p386
sg328
g3
sg22
S'SG'
p387
sg330
g3
sg331
S'.502'
p388
sg333
S'10.0'
p389
sg334
S'.561'
p390
sg336
S'.073'
p391
sg28
S'ABA'
p392
sg339
g3
sg340
S'18.0'
p393
sg342
S'2.9'
p394
sg39
S'25'
p395
sg41
S'SDA'
p396
sg43
S'69'
p397
sg347
g3
sg348
S'13.0'
p398
sg350
S'0.9'
p399
sg62
S'2121'
p400
sg353
g3
sg54
S'1972-73'
p401
sg355
S'3.8'
p402
sba(isrc.gp1.models.Advanced
Advanced
p403
(dp404
g318
S'6.8'
p405
sg319
S'23.6'
p406
sg321
S'.041'
p407
sg323
S'1.8'
p408
sg324
S'18.5'
p409
sg326
S'8.9'
p410
sg328
S'-0.2'
p411
sg22
S'SG'
p412
sg330
S'-0.1'
p413
sg331
S'.506'
p414
sg333
S'10.9'
p415
sg334
S'.573'
p416
sg336
S'.027'
p417
sg28
S'ABA'
p418
sg339
S'-2.3'
p419
sg340
S'13.1'
p420
sg342
S'0.5'
p421
sg39
S'26'
p422
sg41
S'TOT'
p423
sg43
S'31'
p424
sg347
S'0.7'
p425
sg348
S'10.5'
p426
sg350
S'-0.1'
p427
sg62
S'519'
p428
sg353
S'-2.5'
p429
sg54
S'1973-74'
p430
sg355
S'0.4'
p431
sba(isrc.gp1.models.Advanced
Advanced
p432
(dp433
g318
S'6.6'
p434
sg319
S'22.7'
p435
sg321
S'.028'
p436
sg323
S'1.8'
p437
sg324
S'20.2'
p438
sg326
S'9.1'
p439
sg328
S'-0.4'
p440
sg22
S'SG'
p441
sg330
S'0.0'
p442
sg331
S'.458'
p443
sg333
S'11.5'
p444
sg334
S'.625'
p445
sg336
S'.042'
p446
sg28
S'ABA'
p447
sg339
S'-3.6'
p448
sg340
S'15.8'
p449
sg342
S'0.1'
p450
sg39
S'26'
p451
sg41
S'NYA'
p452
sg43
g171
sg347
S'0.0'
p453
sg348
S'9.7'
p454
sg350
S'-0.1'
p455
sg62
S'76'
p456
sg353
S'-4.0'
p457
sg54
S'1973-74'
p458
sg355
S'0.0'
p459
sba(isrc.gp1.models.Advanced
Advanced
p460
(dp461
g318
S'6.9'
p462
sg319
S'23.8'
p463
sg321
S'.043'
p464
sg323
S'1.8'
p465
sg324
S'18.3'
p466
sg326
S'8.8'
p467
sg328
S'-0.1'
p468
sg22
S'SG'
p469
sg330
S'0.0'
p470
sg331
S'.515'
p471
sg333
S'10.8'
p472
sg334
S'.563'
p473
sg336
S'.024'
p474
sg28
S'ABA'
p475
sg339
S'-2.1'
p476
sg340
S'12.6'
p477
sg342
S'0.4'
p478
sg39
S'26'
p479
sg41
S'CAR'
p480
sg43
S'23'
p481
sg347
S'0.8'
p482
sg348
S'10.7'
p483
sg350
S'0.0'
p484
sg62
S'443'
p485
sg353
S'-2.2'
p486
sg54
S'1973-74'
p487
sg355
S'0.4'
p488
sbasS'_per36Minutes'
p489
(lp490
(isrc.gp1.models.Per36Minutes
Per36Minutes
p491
(dp492
g8
S'2.5'
p493
sg10
S'0.3'
p494
sg12
S'.506'
p495
sg14
S'3.3'
p496
sg16
S'.417'
p497
sg18
S'0.1'
p498
sg20
S'15.5'
p499
sg22
S'SG'
p500
sg24
S'.675'
p501
sg28
S'ABA'
p502
sg30
g3
sg31
S'11.0'
p503
sg33
S'5.1'
p504
sg35
S'6.2'
p505
sg37
S'6.8'
p506
sg39
S'23'
p507
sg41
S'NYA'
p508
sg43
S'80'
p509
sg45
g3
sg46
S'5.5'
p510
sg48
S'4.2'
p511
sg50
S'10.8'
p512
sg52
S'4.4'
p513
sg54
S'1970-71'
p514
sg56
S'5.6'
p515
sg58
S'3.6'
p516
sg60
S'.508'
p517
sg62
S'1617'
p518
sg64
g3
sba(isrc.gp1.models.Per36Minutes
Per36Minutes
p519
(dp520
g8
S'2.4'
p521
sg10
S'0.1'
p522
sg12
S'.452'
p523
sg14
S'2.9'
p524
sg16
S'.000'
p525
sg18
S'0.0'
p526
sg20
S'13.5'
p527
sg22
S'SG'
p528
sg24
S'.708'
p529
sg28
S'ABA'
p530
sg30
g3
sg31
S'10.3'
p531
sg33
S'4.1'
p532
sg35
S'5.9'
p533
sg37
S'6.3'
p534
sg39
S'24'
p535
sg41
S'NYA'
p536
sg43
S'82'
p537
sg45
g3
sg46
S'4.7'
p538
sg48
S'4.2'
p539
sg50
S'10.2'
p540
sg52
S'3.8'
p541
sg54
S'1971-72'
p542
sg56
S'4.7'
p543
sg58
S'2.9'
p544
sg60
S'.457'
p545
sg62
S'1891'
p546
sg64
g3
sba(isrc.gp1.models.Per36Minutes
Per36Minutes
p547
(dp548
g8
S'2.6'
p549
sg10
S'0.9'
p550
sg12
S'.429'
p551
sg14
S'4.7'
p552
sg16
S'.200'
p553
sg18
S'0.2'
p554
sg20
S'16.1'
p555
sg22
S'SG'
p556
sg24
S'.673'
p557
sg28
S'ABA'
p558
sg30
g3
sg31
S'12.8'
p559
sg33
S'3.2'
p560
sg35
S'7.2'
p561
sg37
S'6.2'
p562
sg39
S'25'
p563
sg41
S'SDA'
p564
sg43
S'69'
p565
sg45
g3
sg46
S'5.3'
p566
sg48
S'4.9'
p567
sg50
S'11.9'
p568
sg52
S'3.5'
p569
sg54
S'1972-73'
p570
sg56
S'5.5'
p571
sg58
S'3.5'
p572
sg60
S'.447'
p573
sg62
S'2121'
p574
sg64
g3
sba(isrc.gp1.models.Per36Minutes
Per36Minutes
p575
(dp576
g8
S'2.4'
p577
sg10
S'0.3'
p578
sg12
S'.433'
p579
sg14
S'3.7'
p580
sg16
S'.500'
p581
sg18
S'0.1'
p582
sg20
S'13.2'
p583
sg22
S'SG'
p584
sg24
S'.674'
p585
sg28
S'ABA'
p586
sg30
S'1.4'
p587
sg31
S'10.4'
p588
sg33
S'4.4'
p589
sg35
S'6.0'
p590
sg37
S'6.1'
p591
sg39
S'26'
p592
sg41
S'TOT'
p593
sg43
S'31'
p594
sg45
S'0.4'
p595
sg46
S'4.4'
p596
sg48
S'4.0'
p597
sg50
S'10.1'
p598
sg52
S'3.7'
p599
sg54
S'1973-74'
p600
sg56
S'4.5'
p601
sg58
S'4.0'
p602
sg60
S'.432'
p603
sg62
S'519'
p604
sg64
g3
sba(isrc.gp1.models.Per36Minutes
Per36Minutes
p605
(dp606
g8
S'2.4'
p607
sg10
S'0.5'
p608
sg12
S'.375'
p609
sg14
S'4.7'
p610
sg16
S'1.000'
p611
sg18
S'0.5'
p612
sg20
S'13.3'
p613
sg22
S'SG'
p614
sg24
S'.600'
p615
sg28
S'ABA'
p616
sg30
S'1.4'
p617
sg31
S'11.4'
p618
sg33
S'4.3'
p619
sg35
S'7.1'
p620
sg37
S'6.6'
p621
sg39
S'26'
p622
sg41
S'NYA'
p623
sg43
g171
sg45
S'0.0'
p624
sg46
S'3.8'
p625
sg48
S'4.3'
p626
sg50
S'10.9'
p627
sg52
S'4.3'
p628
sg54
S'1973-74'
p629
sg56
S'4.3'
p630
sg58
S'4.3'
p631
sg60
S'.348'
p632
sg62
S'76'
p633
sg64
g3
sba(isrc.gp1.models.Per36Minutes
Per36Minutes
p634
(dp635
g8
S'2.4'
p636
sg10
S'0.2'
p637
sg12
S'.444'
p638
sg14
S'3.6'
p639
sg16
S'.333'
p640
sg18
S'0.1'
p641
sg20
S'13.2'
p642
sg22
S'SG'
p643
sg24
S'.690'
p644
sg28
S'ABA'
p645
sg30
S'1.4'
p646
sg31
S'10.2'
p647
sg33
S'4.4'
p648
sg35
S'5.8'
p649
sg37
S'6.0'
p650
sg39
S'26'
p651
sg41
S'CAR'
p652
sg43
S'23'
p653
sg45
S'0.5'
p654
sg46
S'4.5'
p655
sg48
S'4.0'
p656
sg50
S'10.0'
p657
sg52
S'3.7'
p658
sg54
S'1973-74'
p659
sg56
S'4.6'
p660
sg58
S'4.0'
p661
sg60
S'.447'
p662
sg62
S'443'
p663
sg64
g3
sbasS'_fromYear'
p664
S'1971'
p665
sS'_url'
p666
S'http://www.basketball-reference.com/players/t/taylool01.html'
p667
sS'_perGame'
p668
(isrc.gp1.models.PerGame
PerGame
p669
(dp670
g8
S'1.3'
p671
sg10
S'0.1'
p672
sg12
S'.444'
p673
sS'_effectiveFieldGalPercentage'
p674
S'.448'
p675
sg14
S'1.9'
p676
sg16
S'.333'
p677
sg18
S'0.0'
p678
sg20
S'7.0'
p679
sg22
S'SG'
p680
sg24
S'.690'
p681
sg28
S'ABA'
p682
sg30
S'0.7'
p683
sg33
S'2.3'
p684
sS'_fieldGoalsttempted'
p685
S'5.5'
p686
sg35
S'3.1'
p687
sg37
S'3.2'
p688
sg39
S'26'
p689
sg41
S'CAR'
p690
sg43
S'23'
p691
sg45
S'0.3'
p692
sg46
S'2.4'
p693
sg48
S'2.1'
p694
sg50
S'5.3'
p695
sg52
S'2.0'
p696
sg54
S'1973-74'
p697
sg56
S'2.4'
p698
sg58
S'2.1'
p699
sg60
S'.447'
p700
sg62
S'19.3'
p701
sg64
g3
sbsS'_weight'
p702
S'194'
p703
sS'_dob'
p704
S'7-3-1947'
p705
sS'_salary'
p706
(lp707
sg22
S'G-F'
p708
sb.