(isrc.gp1.models.Player
Player
p0
(dp1
S'_experience'
p2
V3
p3
sS'_totals'
p4
(lp5
(isrc.gp1.models.Totals
Totals
p6
(dp7
S'_offensiveRebounds'
p8
S'35'
p9
sS'_threePointsAttempted'
p10
S'196'
p11
sS'_fieldGoalsPercentage'
p12
S'.407'
p13
sS'_assist'
p14
S'53'
p15
sS'_threePointsPercentage'
p16
S'.332'
p17
sS'_threePoints'
p18
S'65'
p19
sS'_points'
p20
S'467'
p21
sS'_position'
p22
S'SG'
p23
sS'_freeThrowsPercentage'
p24
S'.714'
p25
sS'_effectiveFieldGoalPercentage'
p26
S'.478'
p27
sS'_league'
p28
S'NBA'
p29
sS'_steals'
p30
S'43'
p31
sS'_fieldGoalsAttempted'
p32
S'457'
p33
sS'_personalFouls'
p34
S'122'
p35
sS'_freeThrowsAttempted'
p36
S'42'
p37
sS'_totalRebounds'
p38
S'144'
p39
sS'_age'
p40
S'21'
p41
sS'_team'
p42
S'TOR'
p43
sS'_games'
p44
S'73'
p45
sS'_blocks'
p46
S'14'
p47
sS'_twoPoints'
p48
S'121'
p49
sS'_freeThrows'
p50
S'30'
p51
sS'_twoPointsAttempted'
p52
S'261'
p53
sS'_defensiveRebounds'
p54
S'109'
p55
sS'_season'
p56
S'2012-13'
p57
sS'_fieldGoals'
p58
S'186'
p59
sS'_turnOvers'
p60
S'48'
p61
sS'_twoPointsPercentage'
p62
S'.464'
p63
sS'_minutesPlayed'
p64
S'1239'
p65
sS'_gamesStarted'
p66
S'2'
p67
sba(isrc.gp1.models.Totals
Totals
p68
(dp69
g8
S'43'
p70
sg10
S'408'
p71
sg12
S'.423'
p72
sg14
S'79'
p73
sg16
S'.395'
p74
sg18
S'161'
p75
sg20
S'879'
p76
sg22
S'SG'
p77
sg24
S'.837'
p78
sg26
S'.531'
p79
sg28
S'NBA'
p80
sg30
S'64'
p81
sg32
S'751'
p82
sg34
S'183'
p83
sg36
S'98'
p84
sg38
S'252'
p85
sg40
S'22'
p86
sg42
S'TOR'
p87
sg44
S'81'
p88
sg46
S'27'
p89
sg48
S'157'
p90
sg50
S'82'
p91
sg52
S'343'
p92
sg54
S'209'
p93
sg56
S'2013-14'
p94
sg58
S'318'
p95
sg60
S'88'
p96
sg62
S'.458'
p97
sg64
S'2159'
p98
sg66
S'62'
p99
sba(isrc.gp1.models.Totals
Totals
p100
(dp101
g8
S'32'
p102
sg10
S'390'
p103
sg12
S'.410'
p104
sg14
S'86'
p105
sg16
S'.372'
p106
sg18
S'145'
p107
sg20
S'807'
p108
sg22
S'SF'
p109
sg24
S'.786'
p110
sg26
S'.507'
p111
sg28
S'NBA'
p112
sg30
S'53'
p113
sg32
S'753'
p114
sg34
S'136'
p115
sg36
S'56'
p116
sg38
S'226'
p117
sg40
S'23'
p118
sg42
S'TOR'
p119
sg44
S'82'
p120
sg46
S'25'
p121
sg48
S'164'
p122
sg50
S'44'
p123
sg52
S'363'
p124
sg54
S'194'
p125
sg56
S'2014-15'
p126
sg58
S'309'
p127
sg60
S'69'
p128
sg62
S'.452'
p129
sg64
S'2092'
p130
sg66
S'61'
p131
sba(isrc.gp1.models.Totals
Totals
p132
(dp133
g8
S'14'
p134
sg10
S'189'
p135
sg12
S'.443'
p136
sg14
S'30'
p137
sg16
S'.376'
p138
sg18
S'71'
p139
sg20
S'392'
p140
sg22
S'SF'
p141
sg24
S'.794'
p142
sg26
S'.550'
p143
sg28
S'NBA'
p144
sg30
S'36'
p145
sg32
S'332'
p146
sg34
S'65'
p147
sg36
S'34'
p148
sg38
S'104'
p149
sg40
S'24'
p150
sg42
S'TOR'
p151
sg44
S'44'
p152
sg46
S'18'
p153
sg48
S'76'
p154
sg50
S'27'
p155
sg52
S'143'
p156
sg54
S'90'
p157
sg56
S'2015-16'
p158
sg58
S'147'
p159
sg60
S'33'
p160
sg62
S'.531'
p161
sg64
S'1038'
p162
sg66
S'7'
p163
sbasS'_college'
p164
S'University of Washington'
p165
sS'_toYear'
p166
S'2016'
p167
sS'_height'
p168
S'6-7'
p169
sS'_active'
p170
I01
sS'_shootingHand'
p171
VRight
p172
sS'_name'
p173
S'Terrence Ross'
p174
sS'_per100Possessions'
p175
(lp176
(isrc.gp1.models.Per100Possession
Per100Possession
p177
(dp178
g8
S'1.5'
p179
sg10
S'8.4'
p180
sg12
S'.407'
p181
sS'_offensiveRating'
p182
S'98'
p183
sg14
S'2.3'
p184
sg16
S'.332'
p185
sg18
S'2.8'
p186
sg20
S'20.0'
p187
sg22
S'SG'
p188
sS'_defensiveRating'
p189
S'109'
p190
sg24
S'.714'
p191
sg28
S'NBA'
p192
sg30
S'1.8'
p193
sg32
S'19.6'
p194
sg34
S'5.2'
p195
sg36
S'1.8'
p196
sg38
S'6.2'
p197
sg40
S'21'
p198
sg42
S'TOR'
p199
sg44
S'73'
p200
sg46
S'0.6'
p201
sg48
S'5.2'
p202
sg50
S'1.3'
p203
sg52
S'11.2'
p204
sg54
S'4.7'
p205
sg56
S'2012-13'
p206
sg58
S'8.0'
p207
sg60
S'2.1'
p208
sg62
S'.464'
p209
sg64
S'1239'
p210
sg66
g67
sba(isrc.gp1.models.Per100Possession
Per100Possession
p211
(dp212
g8
S'1.0'
p213
sg10
S'9.9'
p214
sg12
S'.423'
p215
sg182
S'107'
p216
sg14
S'1.9'
p217
sg16
S'.395'
p218
sg18
S'3.9'
p219
sg20
S'21.3'
p220
sg22
S'SG'
p221
sg189
S'107'
p222
sg24
S'.837'
p223
sg28
S'NBA'
p224
sg30
S'1.5'
p225
sg32
S'18.2'
p226
sg34
S'4.4'
p227
sg36
S'2.4'
p228
sg38
S'6.1'
p229
sg40
S'22'
p230
sg42
S'TOR'
p231
sg44
S'81'
p232
sg46
S'0.7'
p233
sg48
S'3.8'
p234
sg50
S'2.0'
p235
sg52
S'8.3'
p236
sg54
S'5.1'
p237
sg56
S'2013-14'
p238
sg58
S'7.7'
p239
sg60
S'2.1'
p240
sg62
S'.458'
p241
sg64
S'2159'
p242
sg66
S'62'
p243
sba(isrc.gp1.models.Per100Possession
Per100Possession
p244
(dp245
g8
S'0.8'
p246
sg10
S'9.6'
p247
sg12
S'.410'
p248
sg182
S'103'
p249
sg14
S'2.1'
p250
sg16
S'.372'
p251
sg18
S'3.6'
p252
sg20
S'19.9'
p253
sg22
S'SF'
p254
sg189
S'110'
p255
sg24
S'.786'
p256
sg28
S'NBA'
p257
sg30
S'1.3'
p258
sg32
S'18.6'
p259
sg34
S'3.4'
p260
sg36
S'1.4'
p261
sg38
S'5.6'
p262
sg40
S'23'
p263
sg42
S'TOR'
p264
sg44
S'82'
p265
sg46
S'0.6'
p266
sg48
S'4.1'
p267
sg50
S'1.1'
p268
sg52
S'9.0'
p269
sg54
S'4.8'
p270
sg56
S'2014-15'
p271
sg58
S'7.6'
p272
sg60
S'1.7'
p273
sg62
S'.452'
p274
sg64
S'2092'
p275
sg66
S'61'
p276
sba(isrc.gp1.models.Per100Possession
Per100Possession
p277
(dp278
g8
S'0.7'
p279
sg10
S'9.4'
p280
sg12
S'.443'
p281
sg182
S'109'
p282
sg14
S'1.5'
p283
sg16
S'.376'
p284
sg18
S'3.5'
p285
sg20
S'19.4'
p286
sg22
S'SF'
p287
sg189
S'106'
p288
sg24
S'.794'
p289
sg28
S'NBA'
p290
sg30
S'1.8'
p291
sg32
S'16.4'
p292
sg34
S'3.2'
p293
sg36
S'1.7'
p294
sg38
S'5.1'
p295
sg40
S'24'
p296
sg42
S'TOR'
p297
sg44
S'44'
p298
sg46
S'0.9'
p299
sg48
S'3.8'
p300
sg50
S'1.3'
p301
sg52
S'7.1'
p302
sg54
S'4.5'
p303
sg56
S'2015-16'
p304
sg58
S'7.3'
p305
sg60
S'1.6'
p306
sg62
S'.531'
p307
sg64
S'1038'
p308
sg66
g163
sbasS'_advanced'
p309
(lp310
(isrc.gp1.models.Advanced
Advanced
p311
(dp312
S'_offensiveReboundPercentage'
p313
S'3.3'
p314
sS'_turnOverPercentage'
p315
S'9.2'
p316
sS'_winSharesPer48Minutes'
p317
S'.034'
p318
sS'_stealPercentage'
p319
S'1.8'
p320
sS'_usagePercentage'
p321
S'19.6'
p322
sS'_totalReboundsPercentage'
p323
S'6.9'
p324
sS'_defensiveBoxPlusMinus'
p325
S'-1.7'
p326
sg22
S'SG'
p327
sS'_valueOverReplacementPlayer'
p328
S'-0.3'
p329
sS'_trueShootingPercentage'
p330
S'.491'
p331
sS'_defensiveReboundPercentage'
p332
S'10.6'
p333
sS'_freeThrowsAttempRate'
p334
S'.092'
p335
sS'_threePointsAttempRate'
p336
S'.429'
p337
sg28
S'NBA'
p338
sS'_offensiveBoxPlusMinues'
p339
S'-1.3'
p340
sS'_assistPercentage'
p341
S'7.2'
p342
sS'_defensiveWinShares'
p343
S'0.8'
p344
sg40
S'21'
p345
sg42
S'TOR'
p346
sg44
S'73'
p347
sS'_blockPercentage'
p348
S'0.9'
p349
sS'_playerEfficiencyRating'
p350
S'10.4'
p351
sS'_offensiveWinShares'
p352
S'0.0'
p353
sg64
S'1239'
p354
sS'_boxPlusMinus'
p355
S'-2.9'
p356
sg56
S'2012-13'
p357
sS'_winShares'
p358
S'0.9'
p359
sba(isrc.gp1.models.Advanced
Advanced
p360
(dp361
g313
S'2.3'
p362
sg315
S'10.0'
p363
sg317
S'.094'
p364
sg319
S'1.5'
p365
sg321
S'18.6'
p366
sg323
S'6.8'
p367
sg325
S'-0.7'
p368
sg22
S'SG'
p369
sg328
S'1.0'
p370
sg330
S'.553'
p371
sg332
S'11.3'
p372
sg334
S'.130'
p373
sg336
S'.543'
p374
sg28
S'NBA'
p375
sg339
S'0.6'
p376
sg341
S'6.1'
p377
sg343
S'2.2'
p378
sg40
S'22'
p379
sg42
S'TOR'
p380
sg44
S'81'
p381
sg348
S'1.0'
p382
sg350
S'12.0'
p383
sg352
S'2.0'
p384
sg64
S'2159'
p385
sg355
S'-0.1'
p386
sg56
S'2013-14'
p387
sg358
S'4.2'
p388
sba(isrc.gp1.models.Advanced
Advanced
p389
(dp390
g313
S'1.8'
p391
sg315
S'8.1'
p392
sg317
S'.054'
p393
sg319
S'1.3'
p394
sg321
S'18.3'
p395
sg323
S'6.2'
p396
sg325
S'-1.8'
p397
sg22
S'SF'
p398
sg328
S'0.2'
p399
sg330
S'.519'
p400
sg332
S'10.7'
p401
sg334
S'.074'
p402
sg336
S'.518'
p403
sg28
S'NBA'
p404
sg339
S'0.2'
p405
sg341
S'6.5'
p406
sg343
S'1.0'
p407
sg40
S'23'
p408
sg42
S'TOR'
p409
sg44
S'82'
p410
sg348
S'1.0'
p411
sg350
S'11.2'
p412
sg352
S'1.3'
p413
sg64
S'2092'
p414
sg355
S'-1.6'
p415
sg56
S'2014-15'
p416
sg358
S'2.4'
p417
sba(isrc.gp1.models.Advanced
Advanced
p418
(dp419
g313
S'1.6'
p420
sg315
S'8.7'
p421
sg317
S'.102'
p422
sg319
S'1.8'
p423
sg321
S'16.5'
p424
sg323
S'5.7'
p425
sg325
S'-0.5'
p426
sg22
S'SF'
p427
sg328
S'0.6'
p428
sg330
S'.565'
p429
sg332
S'9.8'
p430
sg334
S'.102'
p431
sg336
S'.569'
p432
sg28
S'NBA'
p433
sg339
S'0.9'
p434
sg341
S'4.7'
p435
sg343
S'1.1'
p436
sg40
S'24'
p437
sg42
S'TOR'
p438
sg44
S'44'
p439
sg348
S'1.4'
p440
sg350
S'12.6'
p441
sg352
S'1.2'
p442
sg64
S'1038'
p443
sg355
S'0.3'
p444
sg56
S'2015-16'
p445
sg358
S'2.2'
p446
sbasS'_per36Minutes'
p447
(lp448
(isrc.gp1.models.Per36Minutes
Per36Minutes
p449
(dp450
g8
S'1.0'
p451
sg10
S'5.7'
p452
sg12
S'.407'
p453
sg14
S'1.5'
p454
sg16
S'.332'
p455
sg18
S'1.9'
p456
sg20
S'13.6'
p457
sg22
S'SG'
p458
sg24
S'.714'
p459
sg28
S'NBA'
p460
sg30
S'1.2'
p461
sg32
S'13.3'
p462
sg34
S'3.5'
p463
sg36
S'1.2'
p464
sg38
S'4.2'
p465
sg40
S'21'
p466
sg42
S'TOR'
p467
sg44
S'73'
p468
sg46
S'0.4'
p469
sg48
S'3.5'
p470
sg50
S'0.9'
p471
sg52
S'7.6'
p472
sg54
S'3.2'
p473
sg56
S'2012-13'
p474
sg58
S'5.4'
p475
sg60
S'1.4'
p476
sg62
S'.464'
p477
sg64
S'1239'
p478
sg66
g67
sba(isrc.gp1.models.Per36Minutes
Per36Minutes
p479
(dp480
g8
S'0.7'
p481
sg10
S'6.8'
p482
sg12
S'.423'
p483
sg14
S'1.3'
p484
sg16
S'.395'
p485
sg18
S'2.7'
p486
sg20
S'14.7'
p487
sg22
S'SG'
p488
sg24
S'.837'
p489
sg28
S'NBA'
p490
sg30
S'1.1'
p491
sg32
S'12.5'
p492
sg34
S'3.1'
p493
sg36
S'1.6'
p494
sg38
S'4.2'
p495
sg40
S'22'
p496
sg42
S'TOR'
p497
sg44
S'81'
p498
sg46
S'0.5'
p499
sg48
S'2.6'
p500
sg50
S'1.4'
p501
sg52
S'5.7'
p502
sg54
S'3.5'
p503
sg56
S'2013-14'
p504
sg58
S'5.3'
p505
sg60
S'1.5'
p506
sg62
S'.458'
p507
sg64
S'2159'
p508
sg66
S'62'
p509
sba(isrc.gp1.models.Per36Minutes
Per36Minutes
p510
(dp511
g8
S'0.6'
p512
sg10
S'6.7'
p513
sg12
S'.410'
p514
sg14
S'1.5'
p515
sg16
S'.372'
p516
sg18
S'2.5'
p517
sg20
S'13.9'
p518
sg22
S'SF'
p519
sg24
S'.786'
p520
sg28
S'NBA'
p521
sg30
S'0.9'
p522
sg32
S'13.0'
p523
sg34
S'2.3'
p524
sg36
S'1.0'
p525
sg38
S'3.9'
p526
sg40
S'23'
p527
sg42
S'TOR'
p528
sg44
S'82'
p529
sg46
S'0.4'
p530
sg48
S'2.8'
p531
sg50
S'0.8'
p532
sg52
S'6.2'
p533
sg54
S'3.3'
p534
sg56
S'2014-15'
p535
sg58
S'5.3'
p536
sg60
S'1.2'
p537
sg62
S'.452'
p538
sg64
S'2092'
p539
sg66
S'61'
p540
sba(isrc.gp1.models.Per36Minutes
Per36Minutes
p541
(dp542
g8
S'0.5'
p543
sg10
S'6.6'
p544
sg12
S'.443'
p545
sg14
S'1.0'
p546
sg16
S'.376'
p547
sg18
S'2.5'
p548
sg20
S'13.6'
p549
sg22
S'SF'
p550
sg24
S'.794'
p551
sg28
S'NBA'
p552
sg30
S'1.2'
p553
sg32
S'11.5'
p554
sg34
S'2.3'
p555
sg36
S'1.2'
p556
sg38
S'3.6'
p557
sg40
S'24'
p558
sg42
S'TOR'
p559
sg44
S'44'
p560
sg46
S'0.6'
p561
sg48
S'2.6'
p562
sg50
S'0.9'
p563
sg52
S'5.0'
p564
sg54
S'3.1'
p565
sg56
S'2015-16'
p566
sg58
S'5.1'
p567
sg60
S'1.1'
p568
sg62
S'.531'
p569
sg64
S'1038'
p570
sg66
g163
sbasS'_fromYear'
p571
S'2013'
p572
sS'_url'
p573
S'http://www.basketball-reference.com/players/r/rosste01.html'
p574
sS'_perGame'
p575
(isrc.gp1.models.PerGame
PerGame
p576
(dp577
g8
S'0.3'
p578
sg10
S'4.3'
p579
sg12
S'.443'
p580
sS'_effectiveFieldGalPercentage'
p581
S'.550'
p582
sg14
S'0.7'
p583
sg16
S'.376'
p584
sg18
S'1.6'
p585
sg20
S'8.9'
p586
sg22
S'SF'
p587
sg24
S'.794'
p588
sg28
S'NBA'
p589
sg30
S'0.8'
p590
sg34
S'1.5'
p591
sS'_fieldGoalsttempted'
p592
S'7.5'
p593
sg36
S'0.8'
p594
sg38
S'2.4'
p595
sg40
S'24'
p596
sg42
S'TOR'
p597
sg44
S'44'
p598
sg46
S'0.4'
p599
sg48
S'1.7'
p600
sg50
S'0.6'
p601
sg52
S'3.3'
p602
sg54
S'2.0'
p603
sg56
S'2015-16'
p604
sg58
S'3.3'
p605
sg60
S'0.8'
p606
sg62
S'.531'
p607
sg64
S'23.6'
p608
sg66
g163
sbsS'_weight'
p609
S'195'
p610
sS'_dob'
p611
S'5-2-1991'
p612
sS'_salary'
p613
(lp614
(isrc.gp1.models.Salary
Salary
p615
(dp616
g42
S'Toronto Raptors'
p617
sg28
S'NBA'
p618
sg613
S'$2,563,320'
p619
sg56
S'2012-13'
p620
sba(isrc.gp1.models.Salary
Salary
p621
(dp622
g42
S'Toronto Raptors'
p623
sg28
S'NBA'
p624
sg613
S'$2,678,640'
p625
sg56
S'2013-14'
p626
sba(isrc.gp1.models.Salary
Salary
p627
(dp628
g42
S'Toronto Raptors'
p629
sg28
S'NBA'
p630
sg613
S'$2,793,960'
p631
sg56
S'2014-15'
p632
sbasg22
S'F-G'
p633
sb.