(isrc.gp1.models.Player
Player
p0
(dp1
S'_experience'
p2
S'NA'
p3
sS'_totals'
p4
(lp5
(isrc.gp1.models.Totals
Totals
p6
(dp7
S'_offensiveRebounds'
p8
S'7'
p9
sS'_threePointsAttempted'
p10
S'.340'
p11
sS'_fieldGoalsPercentage'
p12
S'34'
p13
sS'_assist'
p14
S'84'
p15
sS'_threePointsPercentage'
p16
S'.340'
p17
sS'_threePoints'
p18
S'100'
p19
sS'_points'
p20
g3
sS'_position'
p21
S'SG'
p22
sS'_freeThrowsPercentage'
p23
S'19'
p24
sS'_effectiveFieldGoalPercentage'
p25
S'18'
p26
sS'_league'
p27
S'NBA'
p28
sS'_steals'
p29
g3
sS'_fieldGoalsAttempted'
p30
S'.340'
p31
sS'_personalFouls'
p32
g3
sS'_freeThrowsAttempted'
p33
S'39'
p34
sS'_totalRebounds'
p35
S'11'
p36
sS'_age'
p37
S'22'
p38
sS'_team'
p39
S'PHI'
p40
sS'_games'
p41
S'32'
p42
sS'_blocks'
p43
g3
sS'_twoPoints'
p44
S'16'
p45
sS'_freeThrows'
p46
S'21'
p47
sS'_twoPointsAttempted'
p48
S'18'
p49
sS'_defensiveRebounds'
p50
S'2'
p51
sS'_season'
p52
S'1976-77'
p53
sS'_fieldGoals'
p54
S'100'
p55
sS'_turnOvers'
p56
g3
sS'_twoPointsPercentage'
p57
S'.889'
p58
sS'_minutesPlayed'
p59
S'34'
p60
sS'_gamesStarted'
p61
S'174'
p62
sba(isrc.gp1.models.Totals
Totals
p63
(dp64
g8
S'21'
p65
sg10
S'.433'
p66
sg12
S'192'
p67
sg14
S'67'
p68
sg16
S'.433'
p69
sg18
S'443'
p70
sg20
g3
sg21
S'SG'
p71
sg23
S'72'
p72
sg25
S'47'
p73
sg27
S'NBA'
p74
sg29
S'472'
p75
sg30
S'.433'
p76
sg32
g3
sg33
S'107'
p77
sg35
S'77'
p78
sg37
S'23'
p79
sg39
S'CLE'
p80
sg41
S'53'
p81
sg43
g3
sg44
S'88'
p82
sg46
S'60'
p83
sg48
S'99'
p84
sg50
S'14'
p85
sg52
S'1977-78'
p86
sg54
S'443'
p87
sg56
g3
sg57
S'.889'
p88
sg59
S'192'
p89
sg61
S'827'
p90
sba(isrc.gp1.models.Totals
Totals
p91
(dp92
g8
S'58'
p93
sg10
S'.483'
p94
sg12
S'388'
p95
sg14
S'122'
p96
sg16
S'.483'
p97
sg18
S'804'
p98
sg20
g3
sg21
S'SG'
p99
sg23
S'184'
p100
sg25
S'76'
p101
sg27
S'NBA'
p102
sg29
S'939'
p103
sg30
S'.483'
p104
sg32
g3
sg33
S'167'
p105
sg35
S'134'
p106
sg37
S'24'
p107
sg39
S'TOT'
p108
sg41
S'78'
p109
sg43
g3
sg44
S'163'
p110
sg46
S'91'
p111
sg48
S'195'
p112
sg50
S'30'
p113
sg52
S'1978-79'
p114
sg54
S'804'
p115
sg56
g3
sg57
S'.836'
p116
sg59
S'388'
p117
sg61
S'1686'
p118
sba(isrc.gp1.models.Totals
Totals
p119
(dp120
g8
S'40'
p121
sg10
S'.483'
p122
sg12
S'275'
p123
sg14
S'80'
p124
sg16
S'.483'
p125
sg18
S'569'
p126
sg20
g3
sg21
S'SG'
p127
sg23
S'103'
p128
sg25
S'44'
p129
sg27
S'NBA'
p130
sg29
S'653'
p131
sg30
S'.483'
p132
sg32
g3
sg33
S'96'
p133
sg35
S'87'
p134
sg37
S'24'
p135
sg39
S'CLE'
p136
sg41
S'49'
p137
sg43
g3
sg44
S'103'
p138
sg46
S'52'
p139
sg48
S'125'
p140
sg50
S'17'
p141
sg52
S'1978-79'
p142
sg54
S'569'
p143
sg56
g3
sg57
S'.824'
p144
sg59
S'275'
p145
sg61
S'1110'
p146
sba(isrc.gp1.models.Totals
Totals
p147
(dp148
g8
S'18'
p149
sg10
S'.481'
p150
sg12
S'113'
p151
sg14
S'42'
p152
sg16
S'.481'
p153
sg18
S'235'
p154
sg20
g3
sg21
S'SG'
p155
sg23
S'81'
p156
sg25
S'32'
p157
sg27
S'NBA'
p158
sg29
S'286'
p159
sg30
S'.481'
p160
sg32
g3
sg33
S'71'
p161
sg35
S'47'
p162
sg37
S'24'
p163
sg39
S'ATL'
p164
sg41
S'29'
p165
sg43
g3
sg44
S'60'
p166
sg46
S'39'
p167
sg48
S'70'
p168
sg50
S'13'
p169
sg52
S'1978-79'
p170
sg54
S'235'
p171
sg56
g3
sg57
S'.857'
p172
sg59
S'113'
p173
sg61
S'576'
p174
sba(isrc.gp1.models.Totals
Totals
p175
(dp176
g8
S'124'
p177
sg10
S'.293'
p178
sg12
S'24'
p179
sg14
S'73'
p180
sg16
S'406'
p181
sg18
S'82'
p182
sg20
g3
sg21
S'SG'
p183
sg23
S'70'
p184
sg25
S'171'
p185
sg27
S'NBA'
p186
sg29
S'23'
p187
sg30
S'.464'
p188
sg32
S'1055'
p189
sg33
S'.872'
p190
sg35
S'293'
p191
sg37
S'25'
p192
sg39
S'TOT'
p193
sg41
S'76'
p194
sg43
S'163'
p195
sg44
S'844'
p196
sg46
S'196'
p197
sg48
S'.481'
p198
sg50
S'194'
p199
sg52
S'1979-80'
p200
sg54
S'926'
p201
sg56
S'98'
p202
sg57
S'.477'
p203
sg59
S'430'
p204
sg61
S'2122'
p205
sba(isrc.gp1.models.Totals
Totals
p206
(dp207
g8
S'19'
p208
sg10
S'.111'
p209
sg12
S'1'
p210
sg14
S'19'
p211
sg16
S'65'
p212
sg18
S'9'
p213
sg20
g3
sg21
S'SG'
p214
sg23
S'23'
p215
sg25
S'44'
p216
sg27
S'NBA'
p217
sg29
g213
sg30
S'.410'
p218
sg32
S'177'
p219
sg33
S'.863'
p220
sg35
S'72'
p221
sg37
S'25'
p222
sg39
S'ATL'
p223
sg41
S'21'
p224
sg43
S'34'
p225
sg44
S'152'
p226
sg46
S'51'
p227
sg48
S'.428'
p228
sg50
S'42'
p229
sg52
S'1979-80'
p230
sg54
S'161'
p231
sg56
S'19'
p232
sg57
S'.413'
p233
sg59
S'66'
p234
sg61
S'404'
p235
sba(isrc.gp1.models.Totals
Totals
p236
(dp237
g8
S'105'
p238
sg10
S'.315'
p239
sg12
S'23'
p240
sg14
S'54'
p241
sg16
S'341'
p242
sg18
S'73'
p243
sg20
g3
sg21
S'SG'
p244
sg23
S'47'
p245
sg25
S'127'
p246
sg27
S'NBA'
p247
sg29
S'14'
p248
sg30
S'.476'
p249
sg32
S'878'
p250
sg33
S'.876'
p251
sg35
S'221'
p252
sg37
S'25'
p253
sg39
S'UTA'
p254
sg41
S'55'
p255
sg43
S'129'
p256
sg44
S'692'
p257
sg46
S'145'
p258
sg48
S'.493'
p259
sg50
S'152'
p260
sg52
S'1979-80'
p261
sg54
S'765'
p262
sg56
S'79'
p263
sg57
S'.491'
p264
sg59
S'364'
p265
sg61
S'1718'
p266
sbasS'_college'
p267
S'Michigan State University'
p268
sS'_toYear'
p269
S'1980'
p270
sS'_height'
p271
S'6-4'
p272
sS'_active'
p273
I00
sS'_shootingHand'
p274
VLeft
p275
sS'_name'
p276
S'Terry Furlow'
p277
sS'_per100Possessions'
p278
(lp279
(isrc.gp1.models.Per100Possession
Per100Possession
p280
(dp281
g8
S'1.8'
p282
sg10
S'.340'
p283
sg12
S'8.7'
p284
sS'_offensiveRating'
p285
g3
sg14
S'21.4'
p286
sg16
S'4.1'
p287
sg18
S'25.5'
p288
sg20
g3
sg21
S'SG'
p289
sS'_defensiveRating'
p290
g3
sg23
S'4.8'
p291
sg27
S'NBA'
p292
sg29
S'99'
p293
sg30
S'.340'
p294
sg32
g3
sg33
S'9.9'
p295
sg35
S'2.8'
p296
sg37
S'22'
p297
sg39
S'PHI'
p298
sg41
S'32'
p299
sg43
g3
sg44
S'4.6'
p300
sg46
S'5.3'
p301
sg48
S'.889'
p302
sg50
S'0.5'
p303
sg52
S'1976-77'
p304
sg54
S'25.5'
p305
sg56
g3
sg57
S'4.6'
p306
sg59
S'8.7'
p307
sg61
S'174'
p308
sba(isrc.gp1.models.Per100Possession
Per100Possession
p309
(dp310
g8
S'1.2'
p311
sg10
S'.433'
p312
sg12
S'10.8'
p313
sg285
g3
sg14
S'3.8'
p314
sg16
S'4.9'
p315
sg18
S'24.8'
p316
sg20
g3
sg21
S'SG'
p317
sg290
g3
sg23
S'4.0'
p318
sg27
S'NBA'
p319
sg29
S'26.5'
p320
sg30
S'.433'
p321
sg32
g3
sg33
S'6.0'
p322
sg35
S'4.3'
p323
sg37
S'23'
p324
sg39
S'CLE'
p325
sg41
S'53'
p326
sg43
S'96'
p327
sg44
S'5.6'
p328
sg46
S'3.4'
p329
sg48
S'.889'
p330
sg50
S'0.8'
p331
sg52
S'1977-78'
p332
sg54
S'24.8'
p333
sg56
S'103'
p334
sg57
S'2.6'
p335
sg59
S'10.8'
p336
sg61
S'827'
p337
sba(isrc.gp1.models.Per100Possession
Per100Possession
p338
(dp339
g8
S'1.6'
p340
sg10
S'.483'
p341
sg12
S'10.8'
p342
sg285
g3
sg14
S'3.4'
p343
sg16
S'4.5'
p344
sg18
S'22.3'
p345
sg20
g3
sg21
S'SG'
p346
sg290
g3
sg23
S'5.1'
p347
sg27
S'NBA'
p348
sg29
S'26.1'
p349
sg30
S'.483'
p350
sg32
g3
sg33
S'4.6'
p351
sg35
S'3.7'
p352
sg37
S'24'
p353
sg39
S'TOT'
p354
sg41
S'78'
p355
sg43
S'106'
p356
sg44
S'5.4'
p357
sg46
S'2.5'
p358
sg48
S'.836'
p359
sg50
S'0.8'
p360
sg52
S'1978-79'
p361
sg54
S'22.3'
p362
sg56
S'108'
p363
sg57
S'2.1'
p364
sg59
S'10.8'
p365
sg61
S'1686'
p366
sba(isrc.gp1.models.Per100Possession
Per100Possession
p367
(dp368
g8
S'1.7'
p369
sg10
S'.483'
p370
sg12
S'11.6'
p371
sg285
g3
sg14
S'3.4'
p372
sg16
S'4.3'
p373
sg18
S'24.0'
p374
sg20
g3
sg21
S'SG'
p375
sg290
g3
sg23
S'4.3'
p376
sg27
S'NBA'
p377
sg29
S'27.5'
p378
sg30
S'.483'
p379
sg32
g3
sg33
S'4.0'
p380
sg35
S'3.7'
p381
sg37
S'24'
p382
sg39
S'CLE'
p383
sg41
S'49'
p384
sg43
S'104'
p385
sg44
S'5.3'
p386
sg46
S'2.2'
p387
sg48
S'.824'
p388
sg50
S'0.7'
p389
sg52
S'1978-79'
p390
sg54
S'24.0'
p391
sg56
S'110'
p392
sg57
S'1.9'
p393
sg59
S'11.6'
p394
sg61
S'1110'
p395
sba(isrc.gp1.models.Per100Possession
Per100Possession
p396
(dp397
g8
S'1.5'
p398
sg10
S'.481'
p399
sg12
S'9.2'
p400
sg285
g3
sg14
S'3.4'
p401
sg16
S'4.9'
p402
sg18
S'19.1'
p403
sg20
g3
sg21
S'SG'
p404
sg290
g3
sg23
S'6.6'
p405
sg27
S'NBA'
p406
sg29
S'23.3'
p407
sg30
S'.481'
p408
sg32
g3
sg33
S'5.8'
p409
sg35
S'3.8'
p410
sg37
S'24'
p411
sg39
S'ATL'
p412
sg41
S'29'
p413
sg43
S'109'
p414
sg44
S'5.7'
p415
sg46
S'3.2'
p416
sg48
S'.857'
p417
sg50
S'1.1'
p418
sg52
S'1978-79'
p419
sg54
S'19.1'
p420
sg56
S'106'
p421
sg57
S'2.6'
p422
sg59
S'9.2'
p423
sg61
S'576'
p424
sba(isrc.gp1.models.Per100Possession
Per100Possession
p425
(dp426
g8
S'2.9'
p427
sg10
S'.293'
p428
sg12
S'0.6'
p429
sg285
S'111'
p430
sg14
S'1.7'
p431
sg16
S'9.4'
p432
sg18
S'1.9'
p433
sg20
S'104'
p434
sg21
S'SG'
p435
sg290
g3
sg23
S'1.6'
p436
sg27
S'NBA'
p437
sg29
S'0.5'
p438
sg30
S'.464'
p439
sg32
S'24.4'
p440
sg33
S'.872'
p441
sg35
S'6.8'
p442
sg37
S'25'
p443
sg39
S'TOT'
p444
sg41
S'76'
p445
sg43
S'3.8'
p446
sg44
S'19.5'
p447
sg46
S'4.5'
p448
sg48
S'.481'
p449
sg50
S'4.5'
p450
sg52
S'1979-80'
p451
sg54
S'21.4'
p452
sg56
S'2.3'
p453
sg57
S'4.0'
p454
sg59
S'9.9'
p455
sg61
S'2122'
p456
sba(isrc.gp1.models.Per100Possession
Per100Possession
p457
(dp458
g8
S'2.3'
p459
sg10
S'.111'
p460
sg12
S'0.1'
p461
sg285
S'104'
p462
sg14
S'2.3'
p463
sg16
S'7.8'
p464
sg18
S'1.1'
p465
sg20
S'104'
p466
sg21
S'SG'
p467
sg290
g3
sg23
S'2.8'
p468
sg27
S'NBA'
p469
sg29
S'1.1'
p470
sg30
S'.410'
p471
sg32
S'21.3'
p472
sg33
S'.863'
p473
sg35
S'8.7'
p474
sg37
S'25'
p475
sg39
S'ATL'
p476
sg41
S'21'
p477
sg43
S'4.1'
p478
sg44
S'18.3'
p479
sg46
S'6.1'
p480
sg48
S'.428'
p481
sg50
S'5.0'
p482
sg52
S'1979-80'
p483
sg54
S'19.3'
p484
sg56
S'2.3'
p485
sg57
S'5.3'
p486
sg59
S'7.9'
p487
sg61
S'404'
p488
sba(isrc.gp1.models.Per100Possession
Per100Possession
p489
(dp490
g8
S'3.0'
p491
sg10
S'.315'
p492
sg12
S'0.7'
p493
sg285
S'113'
p494
sg14
S'1.5'
p495
sg16
S'9.8'
p496
sg18
S'2.1'
p497
sg20
S'104'
p498
sg21
S'SG'
p499
sg290
g3
sg23
S'1.3'
p500
sg27
S'NBA'
p501
sg29
S'0.4'
p502
sg30
S'.476'
p503
sg32
S'25.1'
p504
sg33
S'.876'
p505
sg35
S'6.3'
p506
sg37
S'25'
p507
sg39
S'UTA'
p508
sg41
S'55'
p509
sg43
S'3.7'
p510
sg44
S'19.8'
p511
sg46
S'4.2'
p512
sg48
S'.493'
p513
sg50
S'4.4'
p514
sg52
S'1979-80'
p515
sg54
S'21.9'
p516
sg56
S'2.3'
p517
sg57
S'3.6'
p518
sg59
S'10.4'
p519
sg61
S'1718'
p520
sbasS'_advanced'
p521
(lp522
(isrc.gp1.models.Advanced
Advanced
p523
(dp524
S'_offensiveReboundPercentage'
p525
S'11.5'
p526
sS'_turnOverPercentage'
p527
S'0.2'
p528
sS'_winSharesPer48Minutes'
p529
S'-5.6'
p530
sS'_stealPercentage'
p531
S'0.6'
p532
sS'_usagePercentage'
p533
S'0.0'
p534
sS'_totalReboundsPercentage'
p535
S'15.8'
p536
sS'_defensiveBoxPlusMinus'
p537
g3
sg21
S'SG'
p538
sS'_valueOverReplacementPlayer'
p539
g3
sS'_trueShootingPercentage'
p540
S'.389'
p541
sS'_defensiveReboundPercentage'
p542
S'11.2'
p543
sS'_freeThrowsAttempRate'
p544
S'10.9'
p545
sS'_threePointsAttempRate'
p546
S'.180'
p547
sg27
S'NBA'
p548
sS'_offensiveBoxPlusMinues'
p549
S'-0.2'
p550
sS'_assistPercentage'
p551
S'1.8'
p552
sS'_defensiveWinShares'
p553
S'-3.5'
p554
sg37
S'22'
p555
sg39
S'PHI'
p556
sg41
S'32'
p557
sS'_blockPercentage'
p558
S'-0.2'
p559
sS'_playerEfficiencyRating'
p560
S'13.4'
p561
sS'_offensiveWinShares'
p562
S'.011'
p563
sg59
S'174'
p564
sS'_boxPlusMinus'
p565
g3
sg52
S'1976-77'
p566
sS'_winShares'
p567
S'-2.1'
p568
sba(isrc.gp1.models.Advanced
Advanced
p569
(dp570
g525
S'7.4'
p571
sg527
S'27.0'
p572
sg529
S'-0.6'
p573
sg531
S'0.9'
p574
sg533
S'0.5'
p575
sg535
S'13.5'
p576
sg537
S'-2.6'
p577
sg21
S'SG'
p578
sg539
g3
sg540
S'.485'
p579
sg542
S'6.5'
p580
sg544
S'5.7'
p581
sg546
S'.223'
p582
sg27
S'NBA'
p583
sg549
S'-2.0'
p584
sg551
S'1.2'
p585
sg553
S'1.1'
p586
sg37
S'23'
p587
sg39
S'CLE'
p588
sg41
S'53'
p589
sg558
S'13.7'
p590
sg560
S'15.5'
p591
sg562
S'0.7'
p592
sg59
S'827'
p593
sg565
S'-0.1'
p594
sg52
S'1977-78'
p595
sg567
S'.064'
p596
sba(isrc.gp1.models.Advanced
Advanced
p597
(dp598
g525
S'6.2'
p599
sg527
S'24.1'
p600
sg529
S'1.0'
p601
sg531
S'1.0'
p602
sg533
S'2.5'
p603
sg535
S'16.3'
p604
sg537
S'-1.1'
p605
sg21
S'SG'
p606
sg539
g3
sg540
S'.528'
p607
sg542
S'5.4'
p608
sg544
S'4.7'
p609
sg546
S'.243'
p610
sg27
S'NBA'
p611
sg549
S'-2.1'
p612
sg551
S'1.6'
p613
sg553
S'3.3'
p614
sg37
S'24'
p615
sg39
S'TOT'
p616
sg41
S'78'
p617
sg558
S'13.1'
p618
sg560
S'17.0'
p619
sg562
S'0.8'
p620
sg59
S'1686'
p621
sg565
S'0.4'
p622
sg52
S'1978-79'
p623
sg567
S'.093'
p624
sba(isrc.gp1.models.Advanced
Advanced
p625
(dp626
g525
S'5.5'
p627
sg527
S'25.5'
p628
sg529
S'0.7'
p629
sg531
S'0.8'
p630
sg533
S'1.4'
p631
sg535
S'14.2'
p632
sg537
S'-2.0'
p633
sg21
S'SG'
p634
sg539
g3
sg540
S'.523'
p635
sg542
S'4.7'
p636
sg544
S'4.1'
p637
sg546
S'.220'
p638
sg27
S'NBA'
p639
sg549
S'-2.7'
p640
sg551
S'1.7'
p641
sg553
S'1.8'
p642
sg37
S'24'
p643
sg39
S'CLE'
p644
sg41
S'49'
p645
sg558
S'12.2'
p646
sg560
S'17.0'
p647
sg562
S'0.4'
p648
sg59
S'1110'
p649
sg565
S'0.0'
p650
sg52
S'1978-79'
p651
sg567
S'.078'
p652
sba(isrc.gp1.models.Advanced
Advanced
p653
(dp654
g525
S'7.6'
p655
sg527
S'21.5'
p656
sg529
S'1.5'
p657
sg531
S'1.3'
p658
sg533
S'1.1'
p659
sg535
S'20.5'
p660
sg537
S'0.5'
p661
sg21
S'SG'
p662
sg539
g3
sg540
S'.538'
p663
sg542
S'6.7'
p664
sg544
S'5.8'
p665
sg546
S'.298'
p666
sg27
S'NBA'
p667
sg549
S'-0.9'
p668
sg551
S'1.5'
p669
sg553
S'1.5'
p670
sg37
S'24'
p671
sg39
S'ATL'
p672
sg41
S'29'
p673
sg558
S'15.0'
p674
sg560
S'17.1'
p675
sg562
S'0.4'
p676
sg59
S'576'
p677
sg565
S'0.4'
p678
sg52
S'1978-79'
p679
sg567
S'.124'
p680
sba(isrc.gp1.models.Advanced
Advanced
p681
(dp682
g525
S'3.9'
p683
sg527
S'13.9'
p684
sg529
S'.064'
p685
sg531
S'1.7'
p686
sg533
S'23.6'
p687
sg535
S'5.3'
p688
sg537
S'-2.4'
p689
sg21
S'SG'
p690
sg539
S'0.2'
p691
sg540
S'.521'
p692
sg542
S'6.5'
p693
sg544
S'.212'
p694
sg546
S'.089'
p695
sg27
S'NBA'
p696
sg549
S'0.8'
p697
sg551
S'21.4'
p698
sg553
S'0.6'
p699
sg37
S'25'
p700
sg39
S'TOT'
p701
sg41
S'76'
p702
sg558
S'0.6'
p703
sg560
S'16.0'
p704
sg562
S'2.2'
p705
sg59
S'2122'
p706
sg565
S'-1.7'
p707
sg52
S'1979-80'
p708
sg567
S'2.8'
p709
sba(isrc.gp1.models.Advanced
Advanced
p710
(dp711
g525
S'6.1'
p712
sg527
S'15.6'
p713
sg529
S'.100'
p714
sg531
S'2.3'
p715
sg533
S'22.0'
p716
sg535
S'5.6'
p717
sg537
S'-0.3'
p718
sg21
S'SG'
p719
sg539
S'0.2'
p720
sg540
S'.482'
p721
sg542
S'5.1'
p722
sg544
S'.317'
p723
sg546
S'.056'
p724
sg27
S'NBA'
p725
sg549
S'0.6'
p726
sg551
S'27.0'
p727
sg553
S'0.5'
p728
sg37
S'25'
p729
sg39
S'ATL'
p730
sg41
S'21'
p731
sg558
S'1.3'
p732
sg560
S'15.9'
p733
sg562
S'0.4'
p734
sg59
S'404'
p735
sg565
S'0.3'
p736
sg52
S'1979-80'
p737
sg567
S'0.8'
p738
sba(isrc.gp1.models.Advanced
Advanced
p739
(dp740
g525
S'3.3'
p741
sg527
S'13.5'
p742
sg529
S'.056'
p743
sg531
S'1.5'
p744
sg533
S'24.0'
p745
sg535
S'5.2'
p746
sg537
S'-3.0'
p747
sg21
S'SG'
p748
sg539
S'0.0'
p749
sg540
S'.530'
p750
sg542
S'6.9'
p751
sg544
S'.190'
p752
sg546
S'.095'
p753
sg27
S'NBA'
p754
sg549
S'0.8'
p755
sg551
S'20.0'
p756
sg553
S'0.2'
p757
sg37
S'25'
p758
sg39
S'UTA'
p759
sg41
S'55'
p760
sg558
S'0.5'
p761
sg560
S'16.0'
p762
sg562
S'1.9'
p763
sg59
S'1718'
p764
sg565
S'-2.1'
p765
sg52
S'1979-80'
p766
sg567
S'2.0'
p767
sbasS'_per36Minutes'
p768
(lp769
(isrc.gp1.models.Per36Minutes
Per36Minutes
p770
(dp771
g8
S'1.4'
p772
sg10
S'.340'
p773
sg12
S'7.0'
p774
sg14
S'17.4'
p775
sg16
S'3.3'
p776
sg18
S'20.7'
p777
sg20
g3
sg21
S'SG'
p778
sg23
S'3.9'
p779
sg27
S'NBA'
p780
sg29
g3
sg30
S'.340'
p781
sg32
g3
sg33
S'8.1'
p782
sg35
S'2.3'
p783
sg37
S'22'
p784
sg39
S'PHI'
p785
sg41
S'32'
p786
sg43
g3
sg44
S'3.7'
p787
sg46
S'4.3'
p788
sg48
S'.889'
p789
sg50
S'0.4'
p790
sg52
S'1976-77'
p791
sg54
S'20.7'
p792
sg56
g3
sg57
S'3.7'
p793
sg59
S'7.0'
p794
sg61
S'174'
p795
sba(isrc.gp1.models.Per36Minutes
Per36Minutes
p796
(dp797
g8
S'0.9'
p798
sg10
S'.433'
p799
sg12
S'8.4'
p800
sg14
S'2.9'
p801
sg16
S'3.8'
p802
sg18
S'19.3'
p803
sg20
g3
sg21
S'SG'
p804
sg23
S'3.1'
p805
sg27
S'NBA'
p806
sg29
S'20.5'
p807
sg30
S'.433'
p808
sg32
g3
sg33
S'4.7'
p809
sg35
S'3.4'
p810
sg37
S'23'
p811
sg39
S'CLE'
p812
sg41
S'53'
p813
sg43
g3
sg44
S'4.3'
p814
sg46
S'2.6'
p815
sg48
S'.889'
p816
sg50
S'0.6'
p817
sg52
S'1977-78'
p818
sg54
S'19.3'
p819
sg56
g3
sg57
S'2.0'
p820
sg59
S'8.4'
p821
sg61
S'827'
p822
sba(isrc.gp1.models.Per36Minutes
Per36Minutes
p823
(dp824
g8
S'1.2'
p825
sg10
S'.483'
p826
sg12
S'8.3'
p827
sg14
S'2.6'
p828
sg16
S'3.5'
p829
sg18
S'17.2'
p830
sg20
g3
sg21
S'SG'
p831
sg23
S'3.9'
p832
sg27
S'NBA'
p833
sg29
S'20.0'
p834
sg30
S'.483'
p835
sg32
g3
sg33
S'3.6'
p836
sg35
S'2.9'
p837
sg37
S'24'
p838
sg39
S'TOT'
p839
sg41
S'78'
p840
sg43
g3
sg44
S'4.2'
p841
sg46
S'1.9'
p842
sg48
S'.836'
p843
sg50
S'0.6'
p844
sg52
S'1978-79'
p845
sg54
S'17.2'
p846
sg56
g3
sg57
S'1.6'
p847
sg59
S'8.3'
p848
sg61
S'1686'
p849
sba(isrc.gp1.models.Per36Minutes
Per36Minutes
p850
(dp851
g8
S'1.3'
p852
sg10
S'.483'
p853
sg12
S'8.9'
p854
sg14
S'2.6'
p855
sg16
S'3.3'
p856
sg18
S'18.5'
p857
sg20
g3
sg21
S'SG'
p858
sg23
S'3.3'
p859
sg27
S'NBA'
p860
sg29
S'21.2'
p861
sg30
S'.483'
p862
sg32
g3
sg33
S'3.1'
p863
sg35
S'2.8'
p864
sg37
S'24'
p865
sg39
S'CLE'
p866
sg41
S'49'
p867
sg43
g3
sg44
S'4.1'
p868
sg46
S'1.7'
p869
sg48
S'.824'
p870
sg50
S'0.6'
p871
sg52
S'1978-79'
p872
sg54
S'18.5'
p873
sg56
g3
sg57
S'1.4'
p874
sg59
S'8.9'
p875
sg61
S'1110'
p876
sba(isrc.gp1.models.Per36Minutes
Per36Minutes
p877
(dp878
g8
S'1.1'
p879
sg10
S'.481'
p880
sg12
S'7.1'
p881
sg14
S'2.6'
p882
sg16
S'3.7'
p883
sg18
S'14.7'
p884
sg20
g3
sg21
S'SG'
p885
sg23
S'5.1'
p886
sg27
S'NBA'
p887
sg29
S'17.9'
p888
sg30
S'.481'
p889
sg32
g3
sg33
S'4.4'
p890
sg35
S'2.9'
p891
sg37
S'24'
p892
sg39
S'ATL'
p893
sg41
S'29'
p894
sg43
g3
sg44
S'4.4'
p895
sg46
S'2.4'
p896
sg48
S'.857'
p897
sg50
S'0.8'
p898
sg52
S'1978-79'
p899
sg54
S'14.7'
p900
sg56
g3
sg57
S'2.0'
p901
sg59
S'7.1'
p902
sg61
S'576'
p903
sba(isrc.gp1.models.Per36Minutes
Per36Minutes
p904
(dp905
g8
S'2.1'
p906
sg10
S'.293'
p907
sg12
S'0.4'
p908
sg14
S'1.2'
p909
sg16
S'6.9'
p910
sg18
S'1.4'
p911
sg20
g3
sg21
S'SG'
p912
sg23
S'1.2'
p913
sg27
S'NBA'
p914
sg29
S'0.4'
p915
sg30
S'.464'
p916
sg32
S'17.9'
p917
sg33
S'.872'
p918
sg35
S'5.0'
p919
sg37
S'25'
p920
sg39
S'TOT'
p921
sg41
S'76'
p922
sg43
S'2.8'
p923
sg44
S'14.3'
p924
sg46
S'3.3'
p925
sg48
S'.481'
p926
sg50
S'3.3'
p927
sg52
S'1979-80'
p928
sg54
S'15.7'
p929
sg56
S'1.7'
p930
sg57
S'2.9'
p931
sg59
S'7.3'
p932
sg61
S'2122'
p933
sba(isrc.gp1.models.Per36Minutes
Per36Minutes
p934
(dp935
g8
S'1.7'
p936
sg10
S'.111'
p937
sg12
S'0.1'
p938
sg14
S'1.7'
p939
sg16
S'5.8'
p940
sg18
S'0.8'
p941
sg20
g3
sg21
S'SG'
p942
sg23
S'2.0'
p943
sg27
S'NBA'
p944
sg29
S'0.8'
p945
sg30
S'.410'
p946
sg32
S'15.8'
p947
sg33
S'.863'
p948
sg35
S'6.4'
p949
sg37
S'25'
p950
sg39
S'ATL'
p951
sg41
S'21'
p952
sg43
S'3.0'
p953
sg44
S'13.5'
p954
sg46
S'4.5'
p955
sg48
S'.428'
p956
sg50
S'3.7'
p957
sg52
S'1979-80'
p958
sg54
S'14.3'
p959
sg56
S'1.7'
p960
sg57
S'3.9'
p961
sg59
S'5.9'
p962
sg61
S'404'
p963
sba(isrc.gp1.models.Per36Minutes
Per36Minutes
p964
(dp965
g8
S'2.2'
p966
sg10
S'.315'
p967
sg12
S'0.5'
p968
sg14
S'1.1'
p969
sg16
S'7.1'
p970
sg18
S'1.5'
p971
sg20
g3
sg21
S'SG'
p972
sg23
S'1.0'
p973
sg27
S'NBA'
p974
sg29
S'0.3'
p975
sg30
S'.476'
p976
sg32
S'18.4'
p977
sg33
S'.876'
p978
sg35
S'4.6'
p979
sg37
S'25'
p980
sg39
S'UTA'
p981
sg41
S'55'
p982
sg43
S'2.7'
p983
sg44
S'14.5'
p984
sg46
S'3.0'
p985
sg48
S'.493'
p986
sg50
S'3.2'
p987
sg52
S'1979-80'
p988
sg54
S'16.0'
p989
sg56
S'1.7'
p990
sg57
S'2.7'
p991
sg59
S'7.6'
p992
sg61
S'1718'
p993
sbasS'_fromYear'
p994
S'1977'
p995
sS'_url'
p996
S'http://www.basketball-reference.com/players/f/furlote01.html'
p997
sS'_perGame'
p998
(isrc.gp1.models.PerGame
PerGame
p999
(dp1000
g8
S'1.9'
p1001
sg10
S'.315'
p1002
sg12
S'0.4'
p1003
sS'_effectiveFieldGalPercentage'
p1004
S'2.3'
p1005
sg14
S'1.0'
p1006
sg16
S'6.2'
p1007
sg18
S'1.3'
p1008
sg20
g3
sg21
S'SG'
p1009
sg23
S'0.9'
p1010
sg27
S'NBA'
p1011
sg29
S'0.3'
p1012
sg32
S'16.0'
p1013
sS'_fieldGoalsttempted'
p1014
S'.476'
p1015
sg33
S'.876'
p1016
sg35
S'4.0'
p1017
sg37
S'25'
p1018
sg39
S'UTA'
p1019
sg41
S'55'
p1020
sg43
S'2.3'
p1021
sg44
S'12.6'
p1022
sg46
S'2.6'
p1023
sg48
S'.493'
p1024
sg50
S'2.8'
p1025
sg52
S'1979-80'
p1026
sg54
S'13.9'
p1027
sg56
S'1.4'
p1028
sg57
S'.491'
p1029
sg59
S'6.6'
p1030
sg61
S'31.2'
p1031
sbsS'_weight'
p1032
S'190'
p1033
sS'_dob'
p1034
S'18-10-1954'
p1035
sS'_salary'
p1036
(lp1037
sg21
S'G-F'
p1038
sb.