(isrc.gp1.models.Player
Player
p0
(dp1
S'_experience'
p2
S'NA'
p3
sS'_totals'
p4
(lp5
(isrc.gp1.models.Totals
Totals
p6
(dp7
S'_offensiveRebounds'
p8
S'43'
p9
sS'_threePointsAttempted'
p10
S'6'
p11
sS'_fieldGoalsPercentage'
p12
S'.500'
p13
sS'_assist'
p14
S'70'
p15
sS'_threePointsPercentage'
p16
S'.000'
p17
sS'_threePoints'
p18
S'0'
p19
sS'_points'
p20
S'188'
p21
sS'_position'
p22
S'SG'
p23
sS'_freeThrowsPercentage'
p24
S'.667'
p25
sS'_effectiveFieldGoalPercentage'
p26
S'.500'
p27
sS'_league'
p28
S'NBA'
p29
sS'_steals'
p30
S'27'
p31
sS'_fieldGoalsAttempted'
p32
S'160'
p33
sS'_personalFouls'
p34
S'68'
p35
sS'_freeThrowsAttempted'
p36
S'42'
p37
sS'_totalRebounds'
p38
S'116'
p39
sS'_age'
p40
S'24'
p41
sS'_team'
p42
S'WSB'
p43
sS'_games'
p44
S'26'
p45
sS'_blocks'
p46
S'13'
p47
sS'_twoPoints'
p48
S'80'
p49
sS'_freeThrows'
p50
S'28'
p51
sS'_twoPointsAttempted'
p52
S'154'
p53
sS'_defensiveRebounds'
p54
S'73'
p55
sS'_season'
p56
S'1980-81'
p57
sS'_fieldGoals'
p58
S'80'
p59
sS'_turnOvers'
p60
S'57'
p61
sS'_twoPointsPercentage'
p62
S'.519'
p63
sS'_minutesPlayed'
p64
S'504'
p65
sS'_gamesStarted'
p66
g3
sba(isrc.gp1.models.Totals
Totals
p67
(dp68
g8
S'5'
p69
sg10
S'3'
p70
sg12
S'.200'
p71
sg14
S'8'
p72
sg16
S'.000'
p73
sg18
g19
sg20
S'9'
p74
sg22
S'SG'
p75
sg24
S'.750'
p76
sg26
S'.200'
p77
sg28
S'NBA'
p78
sg30
g70
sg32
S'15'
p79
sg34
S'15'
p80
sg36
S'4'
p81
sg38
S'12'
p82
sg40
S'25'
p83
sg42
S'WSB'
p84
sg44
S'13'
p85
sg46
S'1'
p86
sg48
g70
sg50
g70
sg52
S'12'
p87
sg54
S'7'
p88
sg56
S'1981-82'
p89
sg58
g70
sg60
g69
sg62
S'.250'
p90
sg64
S'60'
p91
sg66
g19
sba(isrc.gp1.models.Totals
Totals
p92
(dp93
g8
S'27'
p94
sg10
S'2'
p95
sg12
S'.368'
p96
sg14
S'46'
p97
sg16
S'.000'
p98
sg18
g19
sg20
S'88'
p99
sg22
S'SG'
p100
sg24
S'.667'
p101
sg26
S'.368'
p102
sg28
S'NBA'
p103
sg30
S'24'
p104
sg32
S'106'
p105
sg34
S'79'
p106
sg36
S'15'
p107
sg38
S'99'
p108
sg40
S'26'
p109
sg42
S'WSB'
p110
sg44
S'55'
p111
sg46
S'13'
p112
sg48
S'39'
p113
sg50
S'10'
p114
sg52
S'104'
p115
sg54
S'72'
p116
sg56
S'1982-83'
p117
sg58
S'39'
p118
sg60
S'20'
p119
sg62
S'.375'
p120
sg64
S'514'
p121
sg66
g70
sbasS'_college'
p122
S'Winston-Salem State University'
p123
sS'_toYear'
p124
S'1983'
p125
sS'_height'
p126
S'6-5'
p127
sS'_active'
p128
I00
sS'_shootingHand'
p129
VRight
p130
sS'_name'
p131
S'Carlos Terry'
p132
sS'_per100Possessions'
p133
(lp134
(isrc.gp1.models.Per100Possession
Per100Possession
p135
(dp136
g8
S'4.0'
p137
sg10
S'0.6'
p138
sg12
S'.500'
p139
sS'_offensiveRating'
p140
S'96'
p141
sg14
S'6.5'
p142
sg16
S'.000'
p143
sg18
S'0.0'
p144
sg20
S'17.5'
p145
sg22
S'SG'
p146
sS'_defensiveRating'
p147
S'100'
p148
sg24
S'.667'
p149
sg28
S'NBA'
p150
sg30
S'2.5'
p151
sg32
S'14.9'
p152
sg34
S'6.3'
p153
sg36
S'3.9'
p154
sg38
S'10.8'
p155
sg40
S'24'
p156
sg42
S'WSB'
p157
sg44
S'26'
p158
sg46
S'1.2'
p159
sg48
S'7.4'
p160
sg50
S'2.6'
p161
sg52
S'14.3'
p162
sg54
S'6.8'
p163
sg56
S'1980-81'
p164
sg58
S'7.4'
p165
sg60
S'5.3'
p166
sg62
S'.519'
p167
sg64
S'504'
p168
sg66
g3
sba(isrc.gp1.models.Per100Possession
Per100Possession
p169
(dp170
g8
S'4.0'
p171
sg10
S'2.4'
p172
sg12
S'.200'
p173
sg140
S'71'
p174
sg14
S'6.4'
p175
sg16
S'.000'
p176
sg18
S'0.0'
p177
sg20
S'7.2'
p178
sg22
S'SG'
p179
sg147
S'101'
p180
sg24
S'.750'
p181
sg28
S'NBA'
p182
sg30
S'2.4'
p183
sg32
S'12.1'
p184
sg34
S'12.1'
p185
sg36
S'3.2'
p186
sg38
S'9.7'
p187
sg40
S'25'
p188
sg42
S'WSB'
p189
sg44
S'13'
p190
sg46
S'0.8'
p191
sg48
S'2.4'
p192
sg50
S'2.4'
p193
sg52
S'9.7'
p194
sg54
S'5.6'
p195
sg56
S'1981-82'
p196
sg58
S'2.4'
p197
sg60
S'4.0'
p198
sg62
S'.250'
p199
sg64
S'60'
p200
sg66
g19
sba(isrc.gp1.models.Per100Possession
Per100Possession
p201
(dp202
g8
S'2.5'
p203
sg10
S'0.2'
p204
sg12
S'.368'
p205
sg140
S'90'
p206
sg14
S'4.3'
p207
sg16
S'.000'
p208
sg18
S'0.0'
p209
sg20
S'8.3'
p210
sg22
S'SG'
p211
sg147
S'98'
p212
sg24
S'.667'
p213
sg28
S'NBA'
p214
sg30
S'2.3'
p215
sg32
S'10.0'
p216
sg34
S'7.4'
p217
sg36
S'1.4'
p218
sg38
S'9.3'
p219
sg40
S'26'
p220
sg42
S'WSB'
p221
sg44
S'55'
p222
sg46
S'1.2'
p223
sg48
S'3.7'
p224
sg50
S'0.9'
p225
sg52
S'9.8'
p226
sg54
S'6.8'
p227
sg56
S'1982-83'
p228
sg58
S'3.7'
p229
sg60
S'1.9'
p230
sg62
S'.375'
p231
sg64
S'514'
p232
sg66
g70
sbasS'_advanced'
p233
(lp234
(isrc.gp1.models.Advanced
Advanced
p235
(dp236
S'_offensiveReboundPercentage'
p237
S'8.9'
p238
sS'_turnOverPercentage'
p239
S'24.2'
p240
sS'_winSharesPer48Minutes'
p241
S'.074'
p242
sS'_stealPercentage'
p243
S'2.5'
p244
sS'_usagePercentage'
p245
S'18.8'
p246
sS'_totalReboundsPercentage'
p247
S'12.1'
p248
sS'_defensiveBoxPlusMinus'
p249
S'3.3'
p250
sg22
S'SG'
p251
sS'_valueOverReplacementPlayer'
p252
S'0.6'
p253
sS'_trueShootingPercentage'
p254
S'.527'
p255
sS'_defensiveReboundPercentage'
p256
S'15.3'
p257
sS'_freeThrowsAttempRate'
p258
S'.263'
p259
sS'_threePointsAttempRate'
p260
S'.038'
p261
sg28
S'NBA'
p262
sS'_offensiveBoxPlusMinues'
p263
S'-1.0'
p264
sS'_assistPercentage'
p265
S'18.8'
p266
sS'_defensiveWinShares'
p267
S'0.9'
p268
sg40
S'24'
p269
sg42
S'WSB'
p270
sg44
S'26'
p271
sS'_blockPercentage'
p272
S'1.4'
p273
sS'_playerEfficiencyRating'
p274
S'13.7'
p275
sS'_offensiveWinShares'
p276
S'-0.1'
p277
sg64
S'504'
p278
sS'_boxPlusMinus'
p279
S'2.3'
p280
sg56
S'1980-81'
p281
sS'_winShares'
p282
S'0.8'
p283
sba(isrc.gp1.models.Advanced
Advanced
p284
(dp285
g237
S'9.3'
p286
sg239
S'23.0'
p287
sg241
S'-0.048'
p288
sg243
S'2.4'
p289
sg245
S'15.2'
p290
sg247
S'10.9'
p291
sg249
S'2.4'
p292
sg22
S'SG'
p293
sg252
S'0.0'
p294
sg254
S'.268'
p295
sg256
S'12.5'
p296
sg258
S'.267'
p297
sg260
S'.200'
p298
sg28
S'NBA'
p299
sg263
S'-6.1'
p300
sg265
S'16.5'
p301
sg267
S'0.1'
p302
sg40
S'25'
p303
sg42
S'WSB'
p304
sg44
S'13'
p305
sg272
S'0.9'
p306
sg274
S'3.1'
p307
sg276
S'-0.2'
p308
sg64
S'60'
p309
sg279
S'-3.7'
p310
sg56
S'1981-82'
p311
sg282
S'-0.1'
p312
sba(isrc.gp1.models.Advanced
Advanced
p313
(dp314
g237
S'5.8'
p315
sg239
S'15.1'
p316
sg241
S'.072'
p317
sg243
S'2.3'
p318
sg245
S'10.7'
p319
sg247
S'10.7'
p320
sg249
S'3.3'
p321
sg22
S'SG'
p322
sg252
S'0.1'
p323
sg254
S'.391'
p324
sg256
S'15.7'
p325
sg258
S'.142'
p326
sg260
S'.019'
p327
sg28
S'NBA'
p328
sg263
S'-4.5'
p329
sg265
S'11.8'
p330
sg267
S'1.0'
p331
sg40
S'26'
p332
sg42
S'WSB'
p333
sg44
S'55'
p334
sg272
S'1.5'
p335
sg274
S'7.9'
p336
sg276
S'-0.2'
p337
sg64
S'514'
p338
sg279
S'-1.1'
p339
sg56
S'1982-83'
p340
sg282
S'0.8'
p341
sbasS'_per36Minutes'
p342
(lp343
(isrc.gp1.models.Per36Minutes
Per36Minutes
p344
(dp345
g8
S'3.1'
p346
sg10
S'0.4'
p347
sg12
S'.500'
p348
sg14
S'5.0'
p349
sg16
S'.000'
p350
sg18
S'0.0'
p351
sg20
S'13.4'
p352
sg22
S'SG'
p353
sg24
S'.667'
p354
sg28
S'NBA'
p355
sg30
S'1.9'
p356
sg32
S'11.4'
p357
sg34
S'4.9'
p358
sg36
S'3.0'
p359
sg38
S'8.3'
p360
sg40
S'24'
p361
sg42
S'WSB'
p362
sg44
S'26'
p363
sg46
S'0.9'
p364
sg48
S'5.7'
p365
sg50
S'2.0'
p366
sg52
S'11.0'
p367
sg54
S'5.2'
p368
sg56
S'1980-81'
p369
sg58
S'5.7'
p370
sg60
S'4.1'
p371
sg62
S'.519'
p372
sg64
S'504'
p373
sg66
g3
sba(isrc.gp1.models.Per36Minutes
Per36Minutes
p374
(dp375
g8
S'3.0'
p376
sg10
S'1.8'
p377
sg12
S'.200'
p378
sg14
S'4.8'
p379
sg16
S'.000'
p380
sg18
S'0.0'
p381
sg20
S'5.4'
p382
sg22
S'SG'
p383
sg24
S'.750'
p384
sg28
S'NBA'
p385
sg30
S'1.8'
p386
sg32
S'9.0'
p387
sg34
S'9.0'
p388
sg36
S'2.4'
p389
sg38
S'7.2'
p390
sg40
S'25'
p391
sg42
S'WSB'
p392
sg44
S'13'
p393
sg46
S'0.6'
p394
sg48
S'1.8'
p395
sg50
S'1.8'
p396
sg52
S'7.2'
p397
sg54
S'4.2'
p398
sg56
S'1981-82'
p399
sg58
S'1.8'
p400
sg60
S'3.0'
p401
sg62
S'.250'
p402
sg64
S'60'
p403
sg66
g19
sba(isrc.gp1.models.Per36Minutes
Per36Minutes
p404
(dp405
g8
S'1.9'
p406
sg10
S'0.1'
p407
sg12
S'.368'
p408
sg14
S'3.2'
p409
sg16
S'.000'
p410
sg18
S'0.0'
p411
sg20
S'6.2'
p412
sg22
S'SG'
p413
sg24
S'.667'
p414
sg28
S'NBA'
p415
sg30
S'1.7'
p416
sg32
S'7.4'
p417
sg34
S'5.5'
p418
sg36
S'1.1'
p419
sg38
S'6.9'
p420
sg40
S'26'
p421
sg42
S'WSB'
p422
sg44
S'55'
p423
sg46
S'0.9'
p424
sg48
S'2.7'
p425
sg50
S'0.7'
p426
sg52
S'7.3'
p427
sg54
S'5.0'
p428
sg56
S'1982-83'
p429
sg58
S'2.7'
p430
sg60
S'1.4'
p431
sg62
S'.375'
p432
sg64
S'514'
p433
sg66
g70
sbasS'_fromYear'
p434
S'1981'
p435
sS'_url'
p436
S'http://www.basketball-reference.com/players/t/terryca01.html'
p437
sS'_perGame'
p438
(isrc.gp1.models.PerGame
PerGame
p439
(dp440
g8
S'0.5'
p441
sg10
S'0.0'
p442
sg12
S'.368'
p443
sS'_effectiveFieldGalPercentage'
p444
S'.368'
p445
sg14
S'0.8'
p446
sg16
S'.000'
p447
sg18
S'0.0'
p448
sg20
S'1.6'
p449
sg22
S'SG'
p450
sg24
S'.667'
p451
sg28
S'NBA'
p452
sg30
S'0.4'
p453
sg34
S'1.4'
p454
sS'_fieldGoalsttempted'
p455
S'1.9'
p456
sg36
S'0.3'
p457
sg38
S'1.8'
p458
sg40
S'26'
p459
sg42
S'WSB'
p460
sg44
S'55'
p461
sg46
S'0.2'
p462
sg48
S'0.7'
p463
sg50
S'0.2'
p464
sg52
S'1.9'
p465
sg54
S'1.3'
p466
sg56
S'1982-83'
p467
sg58
S'0.7'
p468
sg60
S'0.4'
p469
sg62
S'.375'
p470
sg64
S'9.3'
p471
sg66
g70
sbsS'_weight'
p472
S'210'
p473
sS'_dob'
p474
S'22-6-1956'
p475
sS'_salary'
p476
(lp477
sg22
S'G-F'
p478
sb.