(isrc.gp1.models.Player
Player
p0
(dp1
S'_experience'
p2
S'NA'
p3
sS'_totals'
p4
(lp5
(isrc.gp1.models.Totals
Totals
p6
(dp7
S'_offensiveRebounds'
p8
g3
sS'_threePointsAttempted'
p9
S'.083'
p10
sS'_fieldGoalsPercentage'
p11
S'12'
p12
sS'_assist'
p13
g3
sS'_threePointsPercentage'
p14
S'1'
p15
sS'_threePoints'
p16
S'.083'
p17
sS'_points'
p18
g3
sS'_position'
p19
S'5'
p20
sS'_freeThrowsPercentage'
p21
g3
sS'_effectiveFieldGoalPercentage'
p22
g15
sS'_league'
p23
S'NBA'
p24
sS'_steals'
p25
g3
sS'_fieldGoalsAttempted'
p26
g15
sS'_personalFouls'
p27
g3
sS'_freeThrowsAttempted'
p28
S'3'
p29
sS'_totalRebounds'
p30
g3
sS'_age'
p31
S'22'
p32
sS'_team'
p33
S'BAL'
p34
sS'_games'
p35
S'28'
p36
sS'_blocks'
p37
g3
sS'_twoPoints'
p38
S'2'
p39
sS'_freeThrows'
p40
S'0'
p41
sS'_twoPointsAttempted'
p42
S'.500'
p43
sS'_defensiveRebounds'
p44
g3
sS'_season'
p45
S'1965-66'
p46
sS'_fieldGoals'
p47
S'.083'
p48
sS'_turnOvers'
p49
g3
sS'_twoPointsPercentage'
p50
S'6'
p51
sS'_minutesPlayed'
p52
S'12'
p53
sS'_gamesStarted'
p54
g15
sbasS'_college'
p55
S'Miles College'
p56
sS'_toYear'
p57
S'1966'
p58
sS'_height'
p59
S'6-3'
p60
sS'_active'
p61
I00
sS'_shootingHand'
p62
VRight
p63
sS'_name'
p64
S'Thales McReynolds'
p65
sS'_per100Possessions'
p66
(lp67
sS'_advanced'
p68
(lp69
(isrc.gp1.models.Advanced
Advanced
p70
(dp71
S'_offensiveReboundPercentage'
p72
S'0.0'
p73
sS'_turnOverPercentage'
p74
g3
sS'_winSharesPer48Minutes'
p75
g3
sS'_stealPercentage'
p76
g3
sS'_usagePercentage'
p77
g3
sS'_totalReboundsPercentage'
p78
S'-0.356'
p79
sS'_defensiveBoxPlusMinus'
p80
g3
sg19
g20
sS'_valueOverReplacementPlayer'
p81
g3
sS'_trueShootingPercentage'
p82
S'.167'
p83
sS'_defensiveReboundPercentage'
p84
S'-0.2'
p85
sS'_freeThrowsAttempRate'
p86
S'-0.2'
p87
sS'_threePointsAttempRate'
p88
S'4.0'
p89
sg23
S'NBA'
p90
sS'_offensiveBoxPlusMinues'
p91
g3
sS'_assistPercentage'
p92
g3
sS'_defensiveWinShares'
p93
g3
sg31
S'22'
p94
sg33
S'BAL'
p95
sg35
S'28'
p96
sS'_blockPercentage'
p97
g3
sS'_playerEfficiencyRating'
p98
S'.116'
p99
sS'_offensiveWinShares'
p100
g3
sg52
S'-3.3'
p101
sS'_boxPlusMinus'
p102
g3
sg45
S'1965-66'
p103
sS'_winShares'
p104
g3
sbasS'_per36Minutes'
p105
(lp106
(isrc.gp1.models.Per36Minutes
Per36Minutes
p107
(dp108
g8
g3
sg9
S'1.3'
p109
sg11
S'15.4'
p110
sg13
g3
sg14
S'2.6'
p111
sg16
S'.083'
p112
sg18
g3
sg19
g20
sg21
g3
sg23
S'NBA'
p113
sg25
g3
sg26
S'1.3'
p114
sg27
g3
sg28
S'3.9'
p115
sg30
g3
sg31
S'22'
p116
sg33
S'BAL'
p117
sg35
S'28'
p118
sg37
g3
sg38
S'.500'
p119
sg40
S'0.0'
p120
sg42
S'7.7'
p121
sg44
g3
sg45
S'1965-66'
p122
sg47
S'.083'
p123
sg49
g3
sg50
S'1.3'
p124
sg52
S'15.4'
p125
sg54
S'1.3'
p126
sbasS'_fromYear'
p127
S'1966'
p128
sS'_url'
p129
S'http://www.basketball-reference.com/players/m/mcreyth01.html'
p130
sS'_perGame'
p131
(isrc.gp1.models.PerGame
PerGame
p132
(dp133
g8
g3
sg9
S'.083'
p134
sg11
S'2.4'
p135
sS'_effectiveFieldGalPercentage'
p136
S'0.2'
p137
sg13
g3
sg14
S'0.2'
p138
sg16
S'.083'
p139
sg18
g3
sg19
g20
sg21
g3
sg23
S'NBA'
p140
sg25
g3
sg27
g3
sS'_fieldGoalsttempted'
p141
S'0.2'
p142
sg28
S'0.6'
p143
sg30
g3
sg31
S'22'
p144
sg33
S'BAL'
p145
sg35
S'5.6'
p146
sg37
g3
sg38
S'0.4'
p147
sg40
S'0.0'
p148
sg42
S'.500'
p149
sg44
g3
sg45
S'1965-66'
p150
sg47
S'.083'
p151
sg49
g3
sg50
S'1.2'
p152
sg52
S'2.4'
p153
sg54
S'0.2'
p154
sbsS'_weight'
p155
S'185'
p156
sS'_dob'
p157
S'8-6-1943'
p158
sS'_salary'
p159
(lp160
sg19
S'G'
p161
sb.