(isrc.gp1.models.Player
Player
p0
(dp1
S'_experience'
p2
V4
p3
sS'_totals'
p4
(lp5
(isrc.gp1.models.Totals
Totals
p6
(dp7
S'_offensiveRebounds'
p8
S'187'
p9
sS'_threePointsAttempted'
p10
S'2'
p11
sS'_fieldGoalsPercentage'
p12
S'.439'
p13
sS'_assist'
p14
S'27'
p15
sS'_threePointsPercentage'
p16
S'.000'
p17
sS'_threePoints'
p18
S'0'
p19
sS'_points'
p20
S'494'
p21
sS'_position'
p22
S'PF'
p23
sS'_freeThrowsPercentage'
p24
S'.552'
p25
sS'_effectiveFieldGoalPercentage'
p26
S'.439'
p27
sS'_league'
p28
S'NBA'
p29
sS'_steals'
p30
S'27'
p31
sS'_fieldGoalsAttempted'
p32
S'442'
p33
sS'_personalFouls'
p34
S'134'
p35
sS'_freeThrowsAttempted'
p36
S'192'
p37
sS'_totalRebounds'
p38
S'389'
p39
sS'_age'
p40
S'20'
p41
sS'_team'
p42
S'CLE'
p43
sS'_games'
p44
S'60'
p45
sS'_blocks'
p46
S'62'
p47
sS'_twoPoints'
p48
S'194'
p49
sS'_freeThrows'
p50
S'106'
p51
sS'_twoPointsAttempted'
p52
S'440'
p53
sS'_defensiveRebounds'
p54
S'202'
p55
sS'_season'
p56
S'2011-12'
p57
sS'_fieldGoals'
p58
S'194'
p59
sS'_turnOvers'
p60
S'81'
p61
sS'_twoPointsPercentage'
p62
S'.441'
p63
sS'_minutesPlayed'
p64
S'1424'
p65
sS'_gamesStarted'
p66
S'25'
p67
sba(isrc.gp1.models.Totals
Totals
p68
(dp69
g8
S'306'
p70
sg10
S'3'
p71
sg12
S'.488'
p72
sg14
S'108'
p73
sg16
S'.000'
p74
sg18
g19
sg20
S'957'
p75
sg22
S'PF'
p76
sg24
S'.608'
p77
sg26
S'.488'
p78
sg28
S'NBA'
p79
sg30
S'60'
p80
sg32
S'799'
p81
sg34
S'234'
p82
sg36
S'291'
p83
sg38
S'773'
p84
sg40
S'21'
p85
sg42
S'CLE'
p86
sg44
S'82'
p87
sg46
S'71'
p88
sg48
S'390'
p89
sg50
S'177'
p90
sg52
S'796'
p91
sg54
S'467'
p92
sg56
S'2012-13'
p93
sg58
S'390'
p94
sg60
S'123'
p95
sg62
S'.490'
p96
sg64
S'2564'
p97
sg66
S'82'
p98
sba(isrc.gp1.models.Totals
Totals
p99
(dp100
g8
S'269'
p101
sg10
S'1'
p102
sg12
S'.477'
p103
sg14
S'72'
p104
sg16
S'.000'
p105
sg18
g19
sg20
S'961'
p106
sg22
S'PF'
p107
sg24
S'.693'
p108
sg26
S'.477'
p109
sg28
S'NBA'
p110
sg30
S'42'
p111
sg32
S'761'
p112
sg34
S'188'
p113
sg36
S'339'
p114
sg38
S'754'
p115
sg40
S'22'
p116
sg42
S'CLE'
p117
sg44
S'82'
p118
sg46
S'35'
p119
sg48
S'363'
p120
sg50
S'235'
p121
sg52
S'760'
p122
sg54
S'485'
p123
sg56
S'2013-14'
p124
sg58
S'363'
p125
sg60
S'108'
p126
sg62
S'.478'
p127
sg64
S'2594'
p128
sg66
S'82'
p129
sba(isrc.gp1.models.Totals
Totals
p130
(dp131
g8
S'274'
p132
sg10
g19
sg12
S'.547'
p133
sg14
S'39'
p134
sg16
S'NA'
p135
sg18
g19
sg20
S'693'
p136
sg22
S'PF'
p137
sg24
S'.641'
p138
sg26
S'.547'
p139
sg28
S'NBA'
p140
sg30
S'34'
p141
sg32
S'488'
p142
sg34
S'189'
p143
sg36
S'248'
p144
sg38
S'657'
p145
sg40
S'23'
p146
sg42
S'CLE'
p147
sg44
S'82'
p148
sg46
S'61'
p149
sg48
S'267'
p150
sg50
S'159'
p151
sg52
S'488'
p152
sg54
S'383'
p153
sg56
S'2014-15'
p154
sg58
S'267'
p155
sg60
S'83'
p156
sg62
S'.547'
p157
sg64
S'2194'
p158
sg66
S'15'
p159
sba(isrc.gp1.models.Totals
Totals
p160
(dp161
g8
S'163'
p162
sg10
g19
sg12
S'.575'
p163
sg14
S'33'
p164
sg16
g135
sg18
g19
sg20
S'384'
p165
sg22
S'PF'
p166
sg24
S'.606'
p167
sg26
S'.575'
p168
sg28
S'NBA'
p169
sg30
S'15'
p170
sg32
S'259'
p171
sg34
S'120'
p172
sg36
S'142'
p173
sg38
S'457'
p174
sg40
S'24'
p175
sg42
S'CLE'
p176
sg44
S'49'
p177
sg46
S'21'
p178
sg48
S'149'
p179
sg50
S'86'
p180
sg52
S'259'
p181
sg54
S'294'
p182
sg56
S'2015-16'
p183
sg58
S'149'
p184
sg60
S'37'
p185
sg62
S'.575'
p186
sg64
S'1378'
p187
sg66
S'19'
p188
sbasS'_college'
p189
S'University of Texas at Austin'
p190
sS'_toYear'
p191
S'2016'
p192
sS'_height'
p193
S'6-9'
p194
sS'_active'
p195
I01
sS'_shootingHand'
p196
V
p197
sS'_name'
p198
S'Tristan Thompson'
p199
sS'_per100Possessions'
p200
(lp201
(isrc.gp1.models.Per100Possession
Per100Possession
p202
(dp203
g8
S'6.9'
p204
sg10
S'0.1'
p205
sg12
S'.439'
p206
sS'_offensiveRating'
p207
S'98'
p208
sg14
S'1.0'
p209
sg16
S'.000'
p210
sg18
S'0.0'
p211
sg20
S'18.2'
p212
sg22
S'PF'
p213
sS'_defensiveRating'
p214
S'108'
p215
sg24
S'.552'
p216
sg28
S'NBA'
p217
sg30
S'1.0'
p218
sg32
S'16.3'
p219
sg34
S'4.9'
p220
sg36
S'7.1'
p221
sg38
S'14.4'
p222
sg40
S'20'
p223
sg42
S'CLE'
p224
sg44
S'60'
p225
sg46
S'2.3'
p226
sg48
S'7.2'
p227
sg50
S'3.9'
p228
sg52
S'16.2'
p229
sg54
S'7.5'
p230
sg56
S'2011-12'
p231
sg58
S'7.2'
p232
sg60
S'3.0'
p233
sg62
S'.441'
p234
sg64
S'1424'
p235
sg66
S'25'
p236
sba(isrc.gp1.models.Per100Possession
Per100Possession
p237
(dp238
g8
S'6.2'
p239
sg10
S'0.1'
p240
sg12
S'.488'
p241
sg207
S'108'
p242
sg14
S'2.2'
p243
sg16
S'.000'
p244
sg18
S'0.0'
p245
sg20
S'19.4'
p246
sg22
S'PF'
p247
sg214
S'108'
p248
sg24
S'.608'
p249
sg28
S'NBA'
p250
sg30
S'1.2'
p251
sg32
S'16.2'
p252
sg34
S'4.7'
p253
sg36
S'5.9'
p254
sg38
S'15.7'
p255
sg40
S'21'
p256
sg42
S'CLE'
p257
sg44
S'82'
p258
sg46
S'1.4'
p259
sg48
S'7.9'
p260
sg50
S'3.6'
p261
sg52
S'16.1'
p262
sg54
S'9.5'
p263
sg56
S'2012-13'
p264
sg58
S'7.9'
p265
sg60
S'2.5'
p266
sg62
S'.490'
p267
sg64
S'2564'
p268
sg66
S'82'
p269
sba(isrc.gp1.models.Per100Possession
Per100Possession
p270
(dp271
g8
S'5.3'
p272
sg10
S'0.0'
p273
sg12
S'.477'
p274
sg207
S'110'
p275
sg14
S'1.4'
p276
sg16
S'.000'
p277
sg18
S'0.0'
p278
sg20
S'19.1'
p279
sg22
S'PF'
p280
sg214
S'108'
p281
sg24
S'.693'
p282
sg28
S'NBA'
p283
sg30
S'0.8'
p284
sg32
S'15.1'
p285
sg34
S'3.7'
p286
sg36
S'6.7'
p287
sg38
S'15.0'
p288
sg40
S'22'
p289
sg42
S'CLE'
p290
sg44
S'82'
p291
sg46
S'0.7'
p292
sg48
S'7.2'
p293
sg50
S'4.7'
p294
sg52
S'15.1'
p295
sg54
S'9.6'
p296
sg56
S'2013-14'
p297
sg58
S'7.2'
p298
sg60
S'2.1'
p299
sg62
S'.478'
p300
sg64
S'2594'
p301
sg66
S'82'
p302
sba(isrc.gp1.models.Per100Possession
Per100Possession
p303
(dp304
g8
S'6.5'
p305
sg10
S'0.0'
p306
sg12
S'.547'
p307
sg207
S'121'
p308
sg14
S'0.9'
p309
sg16
g135
sg18
S'0.0'
p310
sg20
S'16.4'
p311
sg22
S'PF'
p312
sg214
S'106'
p313
sg24
S'.641'
p314
sg28
S'NBA'
p315
sg30
S'0.8'
p316
sg32
S'11.6'
p317
sg34
S'4.5'
p318
sg36
S'5.9'
p319
sg38
S'15.6'
p320
sg40
S'23'
p321
sg42
S'CLE'
p322
sg44
S'82'
p323
sg46
S'1.4'
p324
sg48
S'6.3'
p325
sg50
S'3.8'
p326
sg52
S'11.6'
p327
sg54
S'9.1'
p328
sg56
S'2014-15'
p329
sg58
S'6.3'
p330
sg60
S'2.0'
p331
sg62
S'.547'
p332
sg64
S'2194'
p333
sg66
S'15'
p334
sba(isrc.gp1.models.Per100Possession
Per100Possession
p335
(dp336
g8
S'6.1'
p337
sg10
S'0.0'
p338
sg12
S'.575'
p339
sg207
S'127'
p340
sg14
S'1.2'
p341
sg16
g135
sg18
S'0.0'
p342
sg20
S'14.4'
p343
sg22
S'PF'
p344
sg214
S'103'
p345
sg24
S'.606'
p346
sg28
S'NBA'
p347
sg30
S'0.6'
p348
sg32
S'9.7'
p349
sg34
S'4.5'
p350
sg36
S'5.3'
p351
sg38
S'17.2'
p352
sg40
S'24'
p353
sg42
S'CLE'
p354
sg44
S'49'
p355
sg46
S'0.8'
p356
sg48
S'5.6'
p357
sg50
S'3.2'
p358
sg52
S'9.7'
p359
sg54
S'11.0'
p360
sg56
S'2015-16'
p361
sg58
S'5.6'
p362
sg60
S'1.4'
p363
sg62
S'.575'
p364
sg64
S'1378'
p365
sg66
S'19'
p366
sbasS'_advanced'
p367
(lp368
(isrc.gp1.models.Advanced
Advanced
p369
(dp370
S'_offensiveReboundPercentage'
p371
S'14.4'
p372
sS'_turnOverPercentage'
p373
S'13.3'
p374
sS'_winSharesPer48Minutes'
p375
S'.038'
p376
sS'_stealPercentage'
p377
S'1.0'
p378
sS'_usagePercentage'
p379
S'19.2'
p380
sS'_totalReboundsPercentage'
p381
S'15.5'
p382
sS'_defensiveBoxPlusMinus'
p383
S'-1.0'
p384
sg22
S'PF'
p385
sS'_valueOverReplacementPlayer'
p386
S'-0.8'
p387
sS'_trueShootingPercentage'
p388
S'.469'
p389
sS'_defensiveReboundPercentage'
p390
S'16.8'
p391
sS'_freeThrowsAttempRate'
p392
S'.434'
p393
sS'_threePointsAttempRate'
p394
S'.005'
p395
sg28
S'NBA'
p396
sS'_offensiveBoxPlusMinues'
p397
S'-3.2'
p398
sS'_assistPercentage'
p399
S'3.3'
p400
sS'_defensiveWinShares'
p401
S'0.9'
p402
sg40
S'20'
p403
sg42
S'CLE'
p404
sg44
S'60'
p405
sS'_blockPercentage'
p406
S'3.3'
p407
sS'_playerEfficiencyRating'
p408
S'13.3'
p409
sS'_offensiveWinShares'
p410
S'0.3'
p411
sg64
S'1424'
p412
sS'_boxPlusMinus'
p413
S'-4.2'
p414
sg56
S'2011-12'
p415
sS'_winShares'
p416
S'1.1'
p417
sba(isrc.gp1.models.Advanced
Advanced
p418
(dp419
g371
S'13.2'
p420
sg373
S'11.7'
p421
sg375
S'.098'
p422
sg377
S'1.2'
p423
sg379
S'18.3'
p424
sg381
S'17.5'
p425
sg383
S'0.1'
p426
sg22
S'PF'
p427
sg386
S'1.0'
p428
sg388
S'.516'
p429
sg390
S'22.1'
p430
sg392
S'.364'
p431
sg394
S'.004'
p432
sg28
S'NBA'
p433
sg397
S'-0.7'
p434
sg399
S'6.9'
p435
sg401
S'2.0'
p436
sg40
S'21'
p437
sg42
S'CLE'
p438
sg44
S'82'
p439
sg406
S'2.2'
p440
sg408
S'16.1'
p441
sg410
S'3.2'
p442
sg64
S'2564'
p443
sg413
S'-0.5'
p444
sg56
S'2012-13'
p445
sg416
S'5.2'
p446
sba(isrc.gp1.models.Advanced
Advanced
p447
(dp448
g371
S'11.4'
p449
sg373
S'10.6'
p450
sg375
S'.106'
p451
sg377
S'0.8'
p452
sg379
S'17.5'
p453
sg381
S'16.3'
p454
sg383
S'-0.5'
p455
sg22
S'PF'
p456
sg386
S'0.0'
p457
sg388
S'.528'
p458
sg390
S'21.5'
p459
sg392
S'.445'
p460
sg394
S'.001'
p461
sg28
S'NBA'
p462
sg397
S'-1.5'
p463
sg399
S'4.5'
p464
sg401
S'2.3'
p465
sg40
S'22'
p466
sg42
S'CLE'
p467
sg44
S'82'
p468
sg406
S'1.1'
p469
sg408
S'14.9'
p470
sg410
S'3.4'
p471
sg64
S'2594'
p472
sg413
S'-2.0'
p473
sg56
S'2013-14'
p474
sg416
S'5.7'
p475
sba(isrc.gp1.models.Advanced
Advanced
p476
(dp477
g371
S'14.5'
p478
sg373
S'12.2'
p479
sg375
S'.148'
p480
sg377
S'0.8'
p481
sg379
S'14.0'
p482
sg381
S'17.2'
p483
sg383
S'-0.3'
p484
sg22
S'PF'
p485
sg386
S'0.8'
p486
sg388
S'.580'
p487
sg390
S'19.7'
p488
sg392
S'.508'
p489
sg394
S'.000'
p490
sg28
S'NBA'
p491
sg397
S'-0.3'
p492
sg399
S'2.7'
p493
sg401
S'2.1'
p494
sg40
S'23'
p495
sg42
S'CLE'
p496
sg44
S'82'
p497
sg406
S'2.2'
p498
sg408
S'15.6'
p499
sg410
S'4.7'
p500
sg64
S'2194'
p501
sg413
S'-0.6'
p502
sg56
S'2014-15'
p503
sg416
S'6.8'
p504
sba(isrc.gp1.models.Advanced
Advanced
p505
(dp506
g371
S'13.5'
p507
sg373
S'10.3'
p508
sg375
S'.175'
p509
sg377
S'0.6'
p510
sg379
S'11.8'
p511
sg381
S'18.8'
p512
sg383
S'0.6'
p513
sg22
S'PF'
p514
sg386
S'0.8'
p515
sg388
S'.597'
p516
sg390
S'24.1'
p517
sg392
S'.548'
p518
sg394
S'.000'
p519
sg28
S'NBA'
p520
sg397
S'-0.2'
p521
sg399
S'3.5'
p522
sg401
S'1.8'
p523
sg40
S'24'
p524
sg42
S'CLE'
p525
sg44
S'49'
p526
sg406
S'1.2'
p527
sg408
S'15.2'
p528
sg410
S'3.2'
p529
sg64
S'1378'
p530
sg413
S'0.4'
p531
sg56
S'2015-16'
p532
sg416
S'5.0'
p533
sbasS'_per36Minutes'
p534
(lp535
(isrc.gp1.models.Per36Minutes
Per36Minutes
p536
(dp537
g8
S'4.7'
p538
sg10
S'0.1'
p539
sg12
S'.439'
p540
sg14
S'0.7'
p541
sg16
S'.000'
p542
sg18
S'0.0'
p543
sg20
S'12.5'
p544
sg22
S'PF'
p545
sg24
S'.552'
p546
sg28
S'NBA'
p547
sg30
S'0.7'
p548
sg32
S'11.2'
p549
sg34
S'3.4'
p550
sg36
S'4.9'
p551
sg38
S'9.8'
p552
sg40
S'20'
p553
sg42
S'CLE'
p554
sg44
S'60'
p555
sg46
S'1.6'
p556
sg48
S'4.9'
p557
sg50
S'2.7'
p558
sg52
S'11.1'
p559
sg54
S'5.1'
p560
sg56
S'2011-12'
p561
sg58
S'4.9'
p562
sg60
S'2.0'
p563
sg62
S'.441'
p564
sg64
S'1424'
p565
sg66
S'25'
p566
sba(isrc.gp1.models.Per36Minutes
Per36Minutes
p567
(dp568
g8
S'4.3'
p569
sg10
S'0.0'
p570
sg12
S'.488'
p571
sg14
S'1.5'
p572
sg16
S'.000'
p573
sg18
S'0.0'
p574
sg20
S'13.4'
p575
sg22
S'PF'
p576
sg24
S'.608'
p577
sg28
S'NBA'
p578
sg30
S'0.8'
p579
sg32
S'11.2'
p580
sg34
S'3.3'
p581
sg36
S'4.1'
p582
sg38
S'10.9'
p583
sg40
S'21'
p584
sg42
S'CLE'
p585
sg44
S'82'
p586
sg46
S'1.0'
p587
sg48
S'5.5'
p588
sg50
S'2.5'
p589
sg52
S'11.2'
p590
sg54
S'6.6'
p591
sg56
S'2012-13'
p592
sg58
S'5.5'
p593
sg60
S'1.7'
p594
sg62
S'.490'
p595
sg64
S'2564'
p596
sg66
S'82'
p597
sba(isrc.gp1.models.Per36Minutes
Per36Minutes
p598
(dp599
g8
S'3.7'
p600
sg10
S'0.0'
p601
sg12
S'.477'
p602
sg14
S'1.0'
p603
sg16
S'.000'
p604
sg18
S'0.0'
p605
sg20
S'13.3'
p606
sg22
S'PF'
p607
sg24
S'.693'
p608
sg28
S'NBA'
p609
sg30
S'0.6'
p610
sg32
S'10.6'
p611
sg34
S'2.6'
p612
sg36
S'4.7'
p613
sg38
S'10.5'
p614
sg40
S'22'
p615
sg42
S'CLE'
p616
sg44
S'82'
p617
sg46
S'0.5'
p618
sg48
S'5.0'
p619
sg50
S'3.3'
p620
sg52
S'10.5'
p621
sg54
S'6.7'
p622
sg56
S'2013-14'
p623
sg58
S'5.0'
p624
sg60
S'1.5'
p625
sg62
S'.478'
p626
sg64
S'2594'
p627
sg66
S'82'
p628
sba(isrc.gp1.models.Per36Minutes
Per36Minutes
p629
(dp630
g8
S'4.5'
p631
sg10
S'0.0'
p632
sg12
S'.547'
p633
sg14
S'0.6'
p634
sg16
g135
sg18
S'0.0'
p635
sg20
S'11.4'
p636
sg22
S'PF'
p637
sg24
S'.641'
p638
sg28
S'NBA'
p639
sg30
S'0.6'
p640
sg32
S'8.0'
p641
sg34
S'3.1'
p642
sg36
S'4.1'
p643
sg38
S'10.8'
p644
sg40
S'23'
p645
sg42
S'CLE'
p646
sg44
S'82'
p647
sg46
S'1.0'
p648
sg48
S'4.4'
p649
sg50
S'2.6'
p650
sg52
S'8.0'
p651
sg54
S'6.3'
p652
sg56
S'2014-15'
p653
sg58
S'4.4'
p654
sg60
S'1.4'
p655
sg62
S'.547'
p656
sg64
S'2194'
p657
sg66
S'15'
p658
sba(isrc.gp1.models.Per36Minutes
Per36Minutes
p659
(dp660
g8
S'4.3'
p661
sg10
S'0.0'
p662
sg12
S'.575'
p663
sg14
S'0.9'
p664
sg16
g135
sg18
S'0.0'
p665
sg20
S'10.0'
p666
sg22
S'PF'
p667
sg24
S'.606'
p668
sg28
S'NBA'
p669
sg30
S'0.4'
p670
sg32
S'6.8'
p671
sg34
S'3.1'
p672
sg36
S'3.7'
p673
sg38
S'11.9'
p674
sg40
S'24'
p675
sg42
S'CLE'
p676
sg44
S'49'
p677
sg46
S'0.5'
p678
sg48
S'3.9'
p679
sg50
S'2.2'
p680
sg52
S'6.8'
p681
sg54
S'7.7'
p682
sg56
S'2015-16'
p683
sg58
S'3.9'
p684
sg60
S'1.0'
p685
sg62
S'.575'
p686
sg64
S'1378'
p687
sg66
S'19'
p688
sbasS'_fromYear'
p689
S'2012'
p690
sS'_url'
p691
S'http://www.basketball-reference.com/players/t/thomptr01.html'
p692
sS'_perGame'
p693
(isrc.gp1.models.PerGame
PerGame
p694
(dp695
g8
S'3.3'
p696
sg10
S'0.0'
p697
sg12
S'.575'
p698
sS'_effectiveFieldGalPercentage'
p699
S'.575'
p700
sg14
S'0.7'
p701
sg16
g135
sg18
S'0.0'
p702
sg20
S'7.8'
p703
sg22
S'PF'
p704
sg24
S'.606'
p705
sg28
S'NBA'
p706
sg30
S'0.3'
p707
sg34
S'2.4'
p708
sS'_fieldGoalsttempted'
p709
S'5.3'
p710
sg36
S'2.9'
p711
sg38
S'9.3'
p712
sg40
S'24'
p713
sg42
S'CLE'
p714
sg44
S'49'
p715
sg46
S'0.4'
p716
sg48
S'3.0'
p717
sg50
S'1.8'
p718
sg52
S'5.3'
p719
sg54
S'6.0'
p720
sg56
S'2015-16'
p721
sg58
S'3.0'
p722
sg60
S'0.8'
p723
sg62
S'.575'
p724
sg64
S'28.1'
p725
sg66
S'19'
p726
sbsS'_weight'
p727
S'238'
p728
sS'_dob'
p729
S'13-3-1991'
p730
sS'_salary'
p731
(lp732
(isrc.gp1.models.Salary
Salary
p733
(dp734
g42
S'Cleveland Cavaliers'
p735
sg28
S'NBA'
p736
sg731
S'$3,726,600'
p737
sg56
S'2011-12'
p738
sba(isrc.gp1.models.Salary
Salary
p739
(dp740
g42
S'Cleveland Cavaliers'
p741
sg28
S'NBA'
p742
sg731
S'$4,006,080'
p743
sg56
S'2012-13'
p744
sba(isrc.gp1.models.Salary
Salary
p745
(dp746
g42
S'Cleveland Cavaliers'
p747
sg28
S'NBA'
p748
sg731
S'$4,062,000'
p749
sg56
S'2013-14'
p750
sba(isrc.gp1.models.Salary
Salary
p751
(dp752
g42
S'Cleveland Cavaliers'
p753
sg28
S'NBA'
p754
sg731
S'$5,138,430'
p755
sg56
S'2014-15'
p756
sbasg22
S'F-C'
p757
sb.