(isrc.gp1.models.Player
Player
p0
(dp1
S'_experience'
p2
S'NA'
p3
sS'_totals'
p4
(lp5
(isrc.gp1.models.Totals
Totals
p6
(dp7
S'_offensiveRebounds'
p8
g3
sS'_threePointsAttempted'
p9
g3
sS'_fieldGoalsPercentage'
p10
S'.395'
p11
sS'_assist'
p12
S'86'
p13
sS'_threePointsPercentage'
p14
g3
sS'_threePoints'
p15
g3
sS'_points'
p16
S'533'
p17
sS'_position'
p18
S'PF'
p19
sS'_freeThrowsPercentage'
p20
S'.549'
p21
sS'_effectiveFieldGoalPercentage'
p22
S'.395'
p23
sS'_league'
p24
S'NBA'
p25
sS'_steals'
p26
g3
sS'_fieldGoalsAttempted'
p27
S'554'
p28
sS'_personalFouls'
p29
S'184'
p30
sS'_freeThrowsAttempted'
p31
S'173'
p32
sS'_totalRebounds'
p33
S'790'
p34
sS'_age'
p35
S'22'
p36
sS'_team'
p37
S'SFW'
p38
sS'_games'
p39
S'76'
p40
sS'_blocks'
p41
g3
sS'_twoPoints'
p42
S'219'
p43
sS'_freeThrows'
p44
S'95'
p45
sS'_twoPointsAttempted'
p46
S'554'
p47
sS'_defensiveRebounds'
p48
g3
sS'_season'
p49
S'1963-64'
p50
sS'_fieldGoals'
p51
S'219'
p52
sS'_turnOvers'
p53
g3
sS'_twoPointsPercentage'
p54
S'.395'
p55
sS'_minutesPlayed'
p56
S'1966'
p57
sS'_gamesStarted'
p58
g3
sba(isrc.gp1.models.Totals
Totals
p59
(dp60
g8
g3
sg9
g3
sg10
S'.419'
p61
sg12
S'157'
p62
sg14
g3
sg15
g3
sg16
S'1273'
p63
sg18
S'PF'
p64
sg20
S'.658'
p65
sg22
S'.419'
p66
sg24
S'NBA'
p67
sg26
g3
sg27
S'1240'
p68
sg29
S'232'
p69
sg31
S'357'
p70
sg33
S'1395'
p71
sg35
S'23'
p72
sg37
S'SFW'
p73
sg39
S'77'
p74
sg41
g3
sg42
S'519'
p75
sg44
S'235'
p76
sg46
S'1240'
p77
sg48
g3
sg49
S'1964-65'
p78
sg51
S'519'
p79
sg53
g3
sg54
S'.419'
p80
sg56
S'3173'
p81
sg58
g3
sba(isrc.gp1.models.Totals
Totals
p82
(dp83
g8
g3
sg9
g3
sg10
S'.406'
p84
sg12
S'111'
p85
sg14
g3
sg15
g3
sg16
S'1188'
p86
sg18
S'C'
p87
sg20
S'.654'
p88
sg22
S'.406'
p89
sg24
S'NBA'
p90
sg26
g3
sg27
S'1119'
p91
sg29
S'223'
p92
sg31
S'428'
p93
sg33
S'1312'
p94
sg35
S'24'
p95
sg37
S'SFW'
p96
sg39
S'73'
p97
sg41
g3
sg42
S'454'
p98
sg44
S'280'
p99
sg46
S'1119'
p100
sg48
g3
sg49
S'1965-66'
p101
sg51
S'454'
p102
sg53
g3
sg54
S'.406'
p103
sg56
S'2891'
p104
sg58
g3
sba(isrc.gp1.models.Totals
Totals
p105
(dp106
g8
g3
sg9
g3
sg10
S'.437'
p107
sg12
S'166'
p108
sg14
g3
sg15
g3
sg16
S'1214'
p109
sg18
g87
sg20
S'.629'
p110
sg22
S'.437'
p111
sg24
S'NBA'
p112
sg26
g3
sg27
S'1068'
p113
sg29
S'183'
p114
sg31
S'445'
p115
sg33
S'1382'
p116
sg35
S'25'
p117
sg37
S'SFW'
p118
sg39
S'65'
p119
sg41
g3
sg42
S'467'
p120
sg44
S'280'
p121
sg46
S'1068'
p122
sg48
g3
sg49
S'1966-67'
p123
sg51
S'467'
p124
sg53
g3
sg54
S'.437'
p125
sg56
S'2761'
p126
sg58
g3
sba(isrc.gp1.models.Totals
Totals
p127
(dp128
g8
g3
sg9
g3
sg10
S'.411'
p129
sg12
S'215'
p130
sg14
g3
sg15
g3
sg16
S'1046'
p131
sg18
g87
sg20
S'.644'
p132
sg22
S'.411'
p133
sg24
S'NBA'
p134
sg26
g3
sg27
S'929'
p135
sg29
S'137'
p136
sg31
S'438'
p137
sg33
S'1121'
p138
sg35
S'26'
p139
sg37
S'SFW'
p140
sg39
S'51'
p141
sg41
g3
sg42
S'382'
p142
sg44
S'282'
p143
sg46
S'929'
p144
sg48
g3
sg49
S'1967-68'
p145
sg51
S'382'
p146
sg53
g3
sg54
S'.411'
p147
sg56
S'2222'
p148
sg58
g3
sba(isrc.gp1.models.Totals
Totals
p149
(dp150
g8
g3
sg9
g3
sg10
S'.410'
p151
sg12
S'253'
p152
sg14
g3
sg15
g3
sg16
S'1524'
p153
sg18
g87
sg20
S'.615'
p154
sg22
S'.410'
p155
sg24
S'NBA'
p156
sg26
g3
sg27
S'1394'
p157
sg29
S'171'
p158
sg31
S'621'
p159
sg33
S'1402'
p160
sg35
S'27'
p161
sg37
S'SFW'
p162
sg39
S'71'
p163
sg41
g3
sg42
S'571'
p164
sg44
S'382'
p165
sg46
S'1394'
p166
sg48
g3
sg49
S'1968-69'
p167
sg51
S'571'
p168
sg53
g3
sg54
S'.410'
p169
sg56
S'3208'
p170
sg58
g3
sba(isrc.gp1.models.Totals
Totals
p171
(dp172
g8
g3
sg9
g3
sg10
S'.414'
p173
sg12
S'150'
p174
sg14
g3
sg15
g3
sg16
S'943'
p175
sg18
g87
sg20
S'.754'
p176
sg22
S'.414'
p177
sg24
S'NBA'
p178
sg26
g3
sg27
S'824'
p179
sg29
S'110'
p180
sg31
S'346'
p181
sg33
S'762'
p182
sg35
S'28'
p183
sg37
S'SFW'
p184
sg39
S'43'
p185
sg41
g3
sg42
S'341'
p186
sg44
S'261'
p187
sg46
S'824'
p188
sg48
g3
sg49
S'1969-70'
p189
sg51
S'341'
p190
sg53
g3
sg54
S'.414'
p191
sg56
S'1919'
p192
sg58
g3
sba(isrc.gp1.models.Totals
Totals
p193
(dp194
g8
g3
sg9
g3
sg10
S'.445'
p195
sg12
S'257'
p196
sg14
g3
sg15
g3
sg16
S'1641'
p197
sg18
g87
sg20
S'.730'
p198
sg22
S'.445'
p199
sg24
S'NBA'
p200
sg26
g3
sg27
S'1401'
p201
sg29
S'192'
p202
sg31
S'541'
p203
sg33
S'1128'
p204
sg35
S'29'
p205
sg37
S'SFW'
p206
sg39
S'82'
p207
sg41
g3
sg42
S'623'
p208
sg44
S'395'
p209
sg46
S'1401'
p210
sg48
g3
sg49
S'1970-71'
p211
sg51
S'623'
p212
sg53
g3
sg54
S'.445'
p213
sg56
S'3351'
p214
sg58
g3
sba(isrc.gp1.models.Totals
Totals
p215
(dp216
g8
g3
sg9
g3
sg10
S'.432'
p217
sg12
S'230'
p218
sg14
g3
sg15
g3
sg16
S'1673'
p219
sg18
g87
sg20
S'.743'
p220
sg22
S'.432'
p221
sg24
S'NBA'
p222
sg26
g3
sg27
S'1454'
p223
sg29
S'214'
p224
sg31
S'561'
p225
sg33
S'1252'
p226
sg35
S'30'
p227
sg37
S'GSW'
p228
sg39
S'78'
p229
sg41
g3
sg42
S'628'
p230
sg44
S'417'
p231
sg46
S'1454'
p232
sg48
g3
sg49
S'1971-72'
p233
sg51
S'628'
p234
sg53
g3
sg54
S'.432'
p235
sg56
S'3362'
p236
sg58
g3
sba(isrc.gp1.models.Totals
Totals
p237
(dp238
g8
g3
sg9
g3
sg10
S'.446'
p239
sg12
S'280'
p240
sg14
g3
sg15
g3
sg16
S'1349'
p241
sg18
g87
sg20
S'.718'
p242
sg22
S'.446'
p243
sg24
S'NBA'
p244
sg26
g3
sg27
S'1159'
p245
sg29
S'240'
p246
sg31
S'439'
p247
sg33
S'1349'
p248
sg35
S'31'
p249
sg37
S'GSW'
p250
sg39
S'79'
p251
sg41
g3
sg42
S'517'
p252
sg44
S'315'
p253
sg46
S'1159'
p254
sg48
g3
sg49
S'1972-73'
p255
sg51
S'517'
p256
sg53
g3
sg54
S'.446'
p257
sg56
S'3419'
p258
sg58
g3
sba(isrc.gp1.models.Totals
Totals
p259
(dp260
g8
S'249'
p261
sg9
g3
sg10
S'.444'
p262
sg12
S'165'
p263
sg14
g3
sg15
g3
sg16
S'807'
p264
sg18
g87
sg20
S'.666'
p265
sg22
S'.444'
p266
sg24
S'NBA'
p267
sg26
S'41'
p268
sg27
S'694'
p269
sg29
S'179'
p270
sg31
S'287'
p271
sg33
S'878'
p272
sg35
S'32'
p273
sg37
S'GSW'
p274
sg39
S'62'
p275
sg41
S'179'
p276
sg42
S'308'
p277
sg44
S'191'
p278
sg46
S'694'
p279
sg48
S'629'
p280
sg49
S'1973-74'
p281
sg51
S'308'
p282
sg53
g3
sg54
S'.444'
p283
sg56
S'2463'
p284
sg58
g3
sba(isrc.gp1.models.Totals
Totals
p285
(dp286
g8
S'259'
p287
sg9
g3
sg10
S'.364'
p288
sg12
S'328'
p289
sg14
g3
sg15
g3
sg16
S'632'
p290
sg18
g87
sg20
S'.589'
p291
sg22
S'.364'
p292
sg24
S'NBA'
p293
sg26
S'46'
p294
sg27
S'686'
p295
sg29
S'271'
p296
sg31
S'224'
p297
sg33
S'904'
p298
sg35
S'33'
p299
sg37
S'CHI'
p300
sg39
S'80'
p301
sg41
S'195'
p302
sg42
S'250'
p303
sg44
S'132'
p304
sg46
S'686'
p305
sg48
S'645'
p306
sg49
S'1974-75'
p307
sg51
S'250'
p308
sg53
g3
sg54
S'.364'
p309
sg56
S'2756'
p310
sg58
g3
sba(isrc.gp1.models.Totals
Totals
p311
(dp312
g8
S'115'
p313
sg9
g3
sg10
S'.421'
p314
sg12
S'94'
p315
sg14
g3
sg15
g3
sg16
S'346'
p316
sg18
g87
sg20
S'.504'
p317
sg22
S'.421'
p318
sg24
S'NBA'
p319
sg26
S'22'
p320
sg27
S'337'
p321
sg29
S'160'
p322
sg31
S'123'
p323
sg33
S'415'
p324
sg35
S'34'
p325
sg37
S'TOT'
p326
sg39
S'78'
p327
sg41
S'98'
p328
sg42
S'142'
p329
sg44
S'62'
p330
sg46
S'337'
p331
sg48
S'300'
p332
sg49
S'1975-76'
p333
sg51
S'142'
p334
sg53
g3
sg54
S'.421'
p335
sg56
S'1393'
p336
sg58
g3
sba(isrc.gp1.models.Totals
Totals
p337
(dp338
g8
S'14'
p339
sg9
g3
sg10
S'.444'
p340
sg12
S'26'
p341
sg14
g3
sg15
g3
sg16
S'48'
p342
sg18
g87
sg20
S'.444'
p343
sg22
S'.444'
p344
sg24
S'NBA'
p345
sg26
S'4'
p346
sg27
S'45'
p347
sg29
S'15'
p348
sg31
S'18'
p349
sg33
S'71'
p350
sg35
S'34'
p351
sg37
S'CHI'
p352
sg39
S'13'
p353
sg41
S'12'
p354
sg42
S'20'
p355
sg44
S'8'
p356
sg46
S'45'
p357
sg48
S'57'
p358
sg49
S'1975-76'
p359
sg51
S'20'
p360
sg53
g3
sg54
S'.444'
p361
sg56
S'260'
p362
sg58
g3
sba(isrc.gp1.models.Totals
Totals
p363
(dp364
g8
S'101'
p365
sg9
g3
sg10
S'.418'
p366
sg12
S'68'
p367
sg14
g3
sg15
g3
sg16
S'298'
p368
sg18
g87
sg20
S'.514'
p369
sg22
S'.418'
p370
sg24
S'NBA'
p371
sg26
S'18'
p372
sg27
S'292'
p373
sg29
S'145'
p374
sg31
S'105'
p375
sg33
S'344'
p376
sg35
S'34'
p377
sg37
S'CLE'
p378
sg39
S'65'
p379
sg41
S'86'
p380
sg42
S'122'
p381
sg44
S'54'
p382
sg46
S'292'
p383
sg48
S'243'
p384
sg49
S'1975-76'
p385
sg51
S'122'
p386
sg53
g3
sg54
S'.418'
p387
sg56
S'1133'
p388
sg58
g3
sba(isrc.gp1.models.Totals
Totals
p389
(dp390
g8
S'121'
p391
sg9
g3
sg10
S'.407'
p392
sg12
S'83'
p393
sg14
g3
sg15
g3
sg16
S'268'
p394
sg18
g87
sg20
S'.642'
p395
sg22
S'.407'
p396
sg24
S'NBA'
p397
sg26
S'16'
p398
sg27
S'246'
p399
sg29
S'128'
p400
sg31
S'106'
p401
sg33
S'374'
p402
sg35
S'35'
p403
sg37
S'CLE'
p404
sg39
S'49'
p405
sg41
S'81'
p406
sg42
S'100'
p407
sg44
S'68'
p408
sg46
S'246'
p409
sg48
S'253'
p410
sg49
S'1976-77'
p411
sg51
S'100'
p412
sg53
g3
sg54
S'.407'
p413
sg56
S'997'
p414
sg58
g3
sbasS'_college'
p415
S'Bowling Green State University'
p416
sS'_toYear'
p417
S'1977'
p418
sS'_height'
p419
S'6-11'
p420
sS'_active'
p421
I00
sS'_shootingHand'
p422
VRight
p423
sS'_name'
p424
S'Nate Thurmond'
p425
sS'_per100Possessions'
p426
(lp427
(isrc.gp1.models.Per100Possession
Per100Possession
p428
(dp429
g8
S'4.5'
p430
sg9
g3
sg10
S'.444'
p431
sS'_offensiveRating'
p432
g3
sg12
S'3.0'
p433
sg14
g3
sg15
g3
sg16
S'14.4'
p434
sg18
g87
sS'_defensiveRating'
p435
S'95'
p436
sg20
S'.666'
p437
sg24
S'NBA'
p438
sg26
S'0.7'
p439
sg27
S'12.4'
p440
sg29
S'3.2'
p441
sg31
S'5.1'
p442
sg33
S'15.7'
p443
sg35
S'32'
p444
sg37
S'GSW'
p445
sg39
S'62'
p446
sg41
S'3.2'
p447
sg42
S'5.5'
p448
sg44
S'3.4'
p449
sg46
S'12.4'
p450
sg48
S'11.3'
p451
sg49
S'1973-74'
p452
sg51
S'5.5'
p453
sg53
g3
sg54
S'.444'
p454
sg56
S'2463'
p455
sg58
g3
sba(isrc.gp1.models.Per100Possession
Per100Possession
p456
(dp457
g8
S'4.5'
p458
sg9
g3
sg10
S'.364'
p459
sg432
g3
sg12
S'5.7'
p460
sg14
g3
sg15
g3
sg16
S'11.0'
p461
sg18
g87
sg435
S'91'
p462
sg20
S'.589'
p463
sg24
S'NBA'
p464
sg26
S'0.8'
p465
sg27
S'12.0'
p466
sg29
S'4.7'
p467
sg31
S'3.9'
p468
sg33
S'15.8'
p469
sg35
S'33'
p470
sg37
S'CHI'
p471
sg39
S'80'
p472
sg41
S'3.4'
p473
sg42
S'4.4'
p474
sg44
S'2.3'
p475
sg46
S'12.0'
p476
sg48
S'11.3'
p477
sg49
S'1974-75'
p478
sg51
S'4.4'
p479
sg53
g3
sg54
S'.364'
p480
sg56
S'2756'
p481
sg58
g3
sba(isrc.gp1.models.Per100Possession
Per100Possession
p482
(dp483
g8
S'3.9'
p484
sg9
g3
sg10
S'.421'
p485
sg432
g3
sg12
S'3.2'
p486
sg14
g3
sg15
g3
sg16
S'11.8'
p487
sg18
g87
sg435
S'94'
p488
sg20
S'.504'
p489
sg24
S'NBA'
p490
sg26
S'0.7'
p491
sg27
S'11.5'
p492
sg29
S'5.4'
p493
sg31
S'4.2'
p494
sg33
S'14.1'
p495
sg35
S'34'
p496
sg37
S'TOT'
p497
sg39
S'78'
p498
sg41
S'3.3'
p499
sg42
S'4.8'
p500
sg44
S'2.1'
p501
sg46
S'11.5'
p502
sg48
S'10.2'
p503
sg49
S'1975-76'
p504
sg51
S'4.8'
p505
sg53
g3
sg54
S'.421'
p506
sg56
S'1393'
p507
sg58
g3
sba(isrc.gp1.models.Per100Possession
Per100Possession
p508
(dp509
g8
S'2.6'
p510
sg9
g3
sg10
S'.444'
p511
sg432
g3
sg12
S'4.8'
p512
sg14
g3
sg15
g3
sg16
S'8.8'
p513
sg18
g87
sg435
S'96'
p514
sg20
S'.444'
p515
sg24
S'NBA'
p516
sg26
S'0.7'
p517
sg27
S'8.3'
p518
sg29
S'2.8'
p519
sg31
S'3.3'
p520
sg33
S'13.1'
p521
sg35
S'34'
p522
sg37
S'CHI'
p523
sg39
S'13'
p524
sg41
S'2.2'
p525
sg42
S'3.7'
p526
sg44
S'1.5'
p527
sg46
S'8.3'
p528
sg48
S'10.5'
p529
sg49
S'1975-76'
p530
sg51
S'3.7'
p531
sg53
g3
sg54
S'.444'
p532
sg56
S'260'
p533
sg58
g3
sba(isrc.gp1.models.Per100Possession
Per100Possession
p534
(dp535
g8
S'4.2'
p536
sg9
g3
sg10
S'.418'
p537
sg432
g3
sg12
S'2.8'
p538
sg14
g3
sg15
g3
sg16
S'12.4'
p539
sg18
g87
sg435
S'94'
p540
sg20
S'.514'
p541
sg24
S'NBA'
p542
sg26
S'0.8'
p543
sg27
S'12.2'
p544
sg29
S'6.0'
p545
sg31
S'4.4'
p546
sg33
S'14.3'
p547
sg35
S'34'
p548
sg37
S'CLE'
p549
sg39
S'65'
p550
sg41
S'3.6'
p551
sg42
S'5.1'
p552
sg44
S'2.3'
p553
sg46
S'12.2'
p554
sg48
S'10.1'
p555
sg49
S'1975-76'
p556
sg51
S'5.1'
p557
sg53
g3
sg54
S'.418'
p558
sg56
S'1133'
p559
sg58
g3
sba(isrc.gp1.models.Per100Possession
Per100Possession
p560
(dp561
g8
S'5.7'
p562
sg9
g3
sg10
S'.407'
p563
sg432
g3
sg12
S'3.9'
p564
sg14
g3
sg15
g3
sg16
S'12.7'
p565
sg18
g87
sg435
S'94'
p566
sg20
S'.642'
p567
sg24
S'NBA'
p568
sg26
S'0.8'
p569
sg27
S'11.7'
p570
sg29
S'6.1'
p571
sg31
S'5.0'
p572
sg33
S'17.7'
p573
sg35
S'35'
p574
sg37
S'CLE'
p575
sg39
S'49'
p576
sg41
S'3.8'
p577
sg42
S'4.7'
p578
sg44
S'3.2'
p579
sg46
S'11.7'
p580
sg48
S'12.0'
p581
sg49
S'1976-77'
p582
sg51
S'4.7'
p583
sg53
g3
sg54
S'.407'
p584
sg56
S'997'
p585
sg58
g3
sbasS'_advanced'
p586
(lp587
(isrc.gp1.models.Advanced
Advanced
p588
(dp589
S'_offensiveReboundPercentage'
p590
g3
sS'_turnOverPercentage'
p591
g3
sS'_winSharesPer48Minutes'
p592
S'.085'
p593
sS'_stealPercentage'
p594
g3
sS'_usagePercentage'
p595
g3
sS'_totalReboundsPercentage'
p596
g3
sS'_defensiveBoxPlusMinus'
p597
g3
sg18
S'PF'
p598
sS'_valueOverReplacementPlayer'
p599
g3
sS'_trueShootingPercentage'
p600
S'.423'
p601
sS'_defensiveReboundPercentage'
p602
g3
sS'_freeThrowsAttempRate'
p603
S'.312'
p604
sS'_threePointsAttempRate'
p605
g3
sg24
S'NBA'
p606
sS'_offensiveBoxPlusMinues'
p607
g3
sS'_assistPercentage'
p608
g3
sS'_defensiveWinShares'
p609
S'4.4'
p610
sg35
S'22'
p611
sg37
S'SFW'
p612
sg39
S'76'
p613
sS'_blockPercentage'
p614
g3
sS'_playerEfficiencyRating'
p615
S'12.1'
p616
sS'_offensiveWinShares'
p617
S'-0.9'
p618
sg56
S'1966'
p619
sS'_boxPlusMinus'
p620
g3
sg49
S'1963-64'
p621
sS'_winShares'
p622
S'3.5'
p623
sba(isrc.gp1.models.Advanced
Advanced
p624
(dp625
g590
g3
sg591
g3
sg592
S'.092'
p626
sg594
g3
sg595
g3
sg596
g3
sg597
g3
sg18
S'PF'
p627
sg599
g3
sg600
S'.456'
p628
sg602
g3
sg603
S'.288'
p629
sg605
g3
sg24
S'NBA'
p630
sg607
g3
sg608
S'7.1'
p631
sg609
S'5.1'
p632
sg35
S'23'
p633
sg37
S'SFW'
p634
sg39
S'77'
p635
sg614
g3
sg615
S'16.5'
p636
sg617
S'1.0'
p637
sg56
S'3173'
p638
sg620
g3
sg49
S'1964-65'
p639
sg622
S'6.1'
p640
sba(isrc.gp1.models.Advanced
Advanced
p641
(dp642
g590
g3
sg591
g3
sg592
S'.072'
p643
sg594
g3
sg595
g3
sg596
g3
sg597
g3
sg18
g87
sg599
g3
sg600
S'.454'
p644
sg602
g3
sg603
S'.382'
p645
sg605
g3
sg24
S'NBA'
p646
sg607
g3
sg608
S'5.0'
p647
sg609
S'4.0'
p648
sg35
S'24'
p649
sg37
S'SFW'
p650
sg39
S'73'
p651
sg614
g3
sg615
S'15.0'
p652
sg617
S'0.3'
p653
sg56
S'2891'
p654
sg620
g3
sg49
S'1965-66'
p655
sg622
S'4.3'
p656
sba(isrc.gp1.models.Advanced
Advanced
p657
(dp658
g590
g3
sg591
g3
sg592
S'.125'
p659
sg594
g3
sg595
g3
sg596
g3
sg597
g3
sg18
g87
sg599
g3
sg600
S'.480'
p660
sg602
g3
sg603
S'.417'
p661
sg605
g3
sg24
S'NBA'
p662
sg607
g3
sg608
S'7.5'
p663
sg609
S'5.6'
p664
sg35
S'25'
p665
sg37
S'SFW'
p666
sg39
S'65'
p667
sg614
g3
sg615
S'17.4'
p668
sg617
S'1.7'
p669
sg56
S'2761'
p670
sg620
g3
sg49
S'1966-67'
p671
sg622
S'7.2'
p672
sba(isrc.gp1.models.Advanced
Advanced
p673
(dp674
g590
g3
sg591
g3
sg592
S'.112'
p675
sg594
g3
sg595
g3
sg596
g3
sg597
g3
sg18
g87
sg599
g3
sg600
S'.466'
p676
sg602
g3
sg603
S'.471'
p677
sg605
g3
sg24
S'NBA'
p678
sg607
g3
sg608
S'13.0'
p679
sg609
S'4.7'
p680
sg35
S'26'
p681
sg37
S'SFW'
p682
sg39
S'51'
p683
sg614
g3
sg615
S'19.0'
p684
sg617
S'0.5'
p685
sg56
S'2222'
p686
sg620
g3
sg49
S'1967-68'
p687
sg622
S'5.2'
p688
sba(isrc.gp1.models.Advanced
Advanced
p689
(dp690
g590
g3
sg591
g3
sg592
S'.098'
p691
sg594
g3
sg595
g3
sg596
g3
sg597
g3
sg18
g87
sg599
g3
sg600
S'.457'
p692
sg602
g3
sg603
S'.445'
p693
sg605
g3
sg24
S'NBA'
p694
sg607
g3
sg608
S'11.6'
p695
sg609
S'6.1'
p696
sg35
S'27'
p697
sg37
S'SFW'
p698
sg39
S'71'
p699
sg614
g3
sg615
S'18.4'
p700
sg617
S'0.5'
p701
sg56
S'3208'
p702
sg620
g3
sg49
S'1968-69'
p703
sg622
S'6.5'
p704
sba(isrc.gp1.models.Advanced
Advanced
p705
(dp706
g590
g3
sg591
g3
sg592
S'.093'
p707
sg594
g3
sg595
g3
sg596
g3
sg597
g3
sg18
g87
sg599
g3
sg600
S'.483'
p708
sg602
g3
sg603
S'.420'
p709
sg605
g3
sg24
S'NBA'
p710
sg607
g3
sg608
S'10.9'
p711
sg609
S'3.0'
p712
sg35
S'28'
p713
sg37
S'SFW'
p714
sg39
S'43'
p715
sg614
g3
sg615
S'18.2'
p716
sg617
S'0.7'
p717
sg56
S'1919'
p718
sg620
g3
sg49
S'1969-70'
p719
sg622
S'3.7'
p720
sba(isrc.gp1.models.Advanced
Advanced
p721
(dp722
g590
g3
sg591
g3
sg592
S'.103'
p723
sg594
g3
sg595
g3
sg596
S'14.8'
p724
sg597
g3
sg18
g87
sg599
g3
sg600
S'.501'
p725
sg602
g3
sg603
S'.386'
p726
sg605
g3
sg24
S'NBA'
p727
sg607
g3
sg608
S'11.1'
p728
sg609
S'3.4'
p729
sg35
S'29'
p730
sg37
S'SFW'
p731
sg39
S'82'
p732
sg614
g3
sg615
S'18.5'
p733
sg617
S'3.8'
p734
sg56
S'3351'
p735
sg620
g3
sg49
S'1970-71'
p736
sg622
S'7.2'
p737
sba(isrc.gp1.models.Advanced
Advanced
p738
(dp739
g590
g3
sg591
g3
sg592
S'.128'
p740
sg594
g3
sg595
g3
sg596
S'16.6'
p741
sg597
g3
sg18
g87
sg599
g3
sg600
S'.492'
p742
sg602
g3
sg603
S'.386'
p743
sg605
g3
sg24
S'NBA'
p744
sg607
g3
sg608
S'9.8'
p745
sg609
S'6.4'
p746
sg35
S'30'
p747
sg37
S'GSW'
p748
sg39
S'78'
p749
sg614
g3
sg615
S'18.7'
p750
sg617
S'2.6'
p751
sg56
S'3362'
p752
sg620
g3
sg49
S'1971-72'
p753
sg622
S'9.0'
p754
sba(isrc.gp1.models.Advanced
Advanced
p755
(dp756
g590
g3
sg591
g3
sg592
S'.140'
p757
sg594
g3
sg595
g3
sg596
S'18.0'
p758
sg597
g3
sg18
g87
sg599
g3
sg600
S'.499'
p759
sg602
g3
sg603
S'.379'
p760
sg605
g3
sg24
S'NBA'
p761
sg607
g3
sg608
S'10.4'
p762
sg609
S'6.7'
p763
sg35
S'31'
p764
sg37
S'GSW'
p765
sg39
S'79'
p766
sg614
g3
sg615
S'17.3'
p767
sg617
S'3.2'
p768
sg56
S'3419'
p769
sg620
g3
sg49
S'1972-73'
p770
sg622
S'9.9'
p771
sba(isrc.gp1.models.Advanced
Advanced
p772
(dp773
g590
S'9.8'
p774
sg591
g3
sg592
S'.117'
p775
sg594
S'0.7'
p776
sg595
g3
sg596
S'16.8'
p777
sg597
S'2.5'
p778
sg18
g87
sg599
S'2.2'
p779
sg600
S'.492'
p780
sg602
S'23.6'
p781
sg603
S'.414'
p782
sg605
g3
sg24
S'NBA'
p783
sg607
S'-1.0'
p784
sg608
S'8.2'
p785
sg609
S'3.4'
p786
sg35
S'32'
p787
sg37
S'GSW'
p788
sg39
S'62'
p789
sg614
S'3.6'
p790
sg615
S'15.0'
p791
sg617
S'2.6'
p792
sg56
S'2463'
p793
sg620
S'1.5'
p794
sg49
S'1973-74'
p795
sg622
S'6.0'
p796
sba(isrc.gp1.models.Advanced
Advanced
p797
(dp798
g590
S'10.0'
p799
sg591
g3
sg592
S'.081'
p800
sg594
S'0.8'
p801
sg595
g3
sg596
S'17.3'
p802
sg597
S'4.5'
p803
sg18
g87
sg599
S'3.0'
p804
sg600
S'.403'
p805
sg602
S'24.5'
p806
sg603
S'.327'
p807
sg605
g3
sg24
S'NBA'
p808
sg607
S'-2.3'
p809
sg608
S'16.9'
p810
sg609
S'5.4'
p811
sg35
S'33'
p812
sg37
S'CHI'
p813
sg39
S'80'
p814
sg614
S'4.0'
p815
sg615
S'13.4'
p816
sg617
S'-0.8'
p817
sg56
S'2756'
p818
sg620
S'2.3'
p819
sg49
S'1974-75'
p820
sg622
S'4.7'
p821
sba(isrc.gp1.models.Advanced
Advanced
p822
(dp823
g590
S'8.2'
p824
sg591
g3
sg592
S'.082'
p825
sg594
S'0.7'
p826
sg595
g3
sg596
S'15.3'
p827
sg597
S'2.6'
p828
sg18
g87
sg599
S'0.3'
p829
sg600
S'.442'
p830
sg602
S'23.0'
p831
sg603
S'.365'
p832
sg605
g3
sg24
S'NBA'
p833
sg607
S'-3.6'
p834
sg608
S'8.9'
p835
sg609
S'2.2'
p836
sg35
S'34'
p837
sg37
S'TOT'
p838
sg39
S'78'
p839
sg614
S'3.9'
p840
sg615
S'12.0'
p841
sg617
S'0.2'
p842
sg56
S'1393'
p843
sg620
S'-1.1'
p844
sg49
S'1975-76'
p845
sg622
S'2.4'
p846
sba(isrc.gp1.models.Advanced
Advanced
p847
(dp848
g590
S'5.1'
p849
sg591
g3
sg592
S'.081'
p850
sg594
S'0.7'
p851
sg595
g3
sg596
S'13.8'
p852
sg597
S'2.7'
p853
sg18
g87
sg599
S'0.0'
p854
sg600
S'.454'
p855
sg602
S'23.7'
p856
sg603
S'.400'
p857
sg605
g3
sg24
S'NBA'
p858
sg607
S'-4.5'
p859
sg608
S'14.1'
p860
sg609
S'0.4'
p861
sg35
S'34'
p862
sg37
S'CHI'
p863
sg39
S'13'
p864
sg614
S'2.6'
p865
sg615
S'11.4'
p866
sg617
S'0.1'
p867
sg56
S'260'
p868
sg620
S'-1.8'
p869
sg49
S'1975-76'
p870
sg622
S'0.4'
p871
sba(isrc.gp1.models.Advanced
Advanced
p872
(dp873
g590
S'8.9'
p874
sg591
g3
sg592
S'.082'
p875
sg594
S'0.8'
p876
sg595
g3
sg596
S'15.6'
p877
sg597
S'2.5'
p878
sg18
g87
sg599
S'0.3'
p879
sg600
S'.441'
p880
sg602
S'22.8'
p881
sg603
S'.360'
p882
sg605
g3
sg24
S'NBA'
p883
sg607
S'-3.4'
p884
sg608
S'7.7'
p885
sg609
S'1.9'
p886
sg35
S'34'
p887
sg37
S'CLE'
p888
sg39
S'65'
p889
sg614
S'4.2'
p890
sg615
S'12.1'
p891
sg617
S'0.1'
p892
sg56
S'1133'
p893
sg620
S'-0.9'
p894
sg49
S'1975-76'
p895
sg622
S'1.9'
p896
sba(isrc.gp1.models.Advanced
Advanced
p897
(dp898
g590
S'11.9'
p899
sg591
g3
sg592
S'.113'
p900
sg594
S'0.8'
p901
sg595
g3
sg596
S'19.1'
p902
sg597
S'3.4'
p903
sg18
g87
sg599
S'0.9'
p904
sg600
S'.458'
p905
sg602
S'26.7'
p906
sg603
S'.431'
p907
sg605
g3
sg24
S'NBA'
p908
sg607
S'-1.9'
p909
sg608
S'10.8'
p910
sg609
S'1.8'
p911
sg35
S'35'
p912
sg37
S'CLE'
p913
sg39
S'49'
p914
sg614
S'4.4'
p915
sg615
S'14.3'
p916
sg617
S'0.5'
p917
sg56
S'997'
p918
sg620
S'1.5'
p919
sg49
S'1976-77'
p920
sg622
S'2.3'
p921
sbasS'_per36Minutes'
p922
(lp923
(isrc.gp1.models.Per36Minutes
Per36Minutes
p924
(dp925
g8
g3
sg9
g3
sg10
S'.395'
p926
sg12
S'1.6'
p927
sg14
g3
sg15
g3
sg16
S'9.8'
p928
sg18
S'PF'
p929
sg20
S'.549'
p930
sg24
S'NBA'
p931
sg26
g3
sg27
S'10.1'
p932
sg29
S'3.4'
p933
sg31
S'3.2'
p934
sg33
S'14.5'
p935
sg35
S'22'
p936
sg37
S'SFW'
p937
sg39
S'76'
p938
sg41
g3
sg42
S'4.0'
p939
sg44
S'1.7'
p940
sg46
S'10.1'
p941
sg48
g3
sg49
S'1963-64'
p942
sg51
S'4.0'
p943
sg53
g3
sg54
S'.395'
p944
sg56
S'1966'
p945
sg58
g3
sba(isrc.gp1.models.Per36Minutes
Per36Minutes
p946
(dp947
g8
g3
sg9
g3
sg10
S'.419'
p948
sg12
S'1.8'
p949
sg14
g3
sg15
g3
sg16
S'14.4'
p950
sg18
S'PF'
p951
sg20
S'.658'
p952
sg24
S'NBA'
p953
sg26
g3
sg27
S'14.1'
p954
sg29
S'2.6'
p955
sg31
S'4.1'
p956
sg33
S'15.8'
p957
sg35
S'23'
p958
sg37
S'SFW'
p959
sg39
S'77'
p960
sg41
g3
sg42
S'5.9'
p961
sg44
S'2.7'
p962
sg46
S'14.1'
p963
sg48
g3
sg49
S'1964-65'
p964
sg51
S'5.9'
p965
sg53
g3
sg54
S'.419'
p966
sg56
S'3173'
p967
sg58
g3
sba(isrc.gp1.models.Per36Minutes
Per36Minutes
p968
(dp969
g8
g3
sg9
g3
sg10
S'.406'
p970
sg12
S'1.4'
p971
sg14
g3
sg15
g3
sg16
S'14.8'
p972
sg18
g87
sg20
S'.654'
p973
sg24
S'NBA'
p974
sg26
g3
sg27
S'13.9'
p975
sg29
S'2.8'
p976
sg31
S'5.3'
p977
sg33
S'16.3'
p978
sg35
S'24'
p979
sg37
S'SFW'
p980
sg39
S'73'
p981
sg41
g3
sg42
S'5.7'
p982
sg44
S'3.5'
p983
sg46
S'13.9'
p984
sg48
g3
sg49
S'1965-66'
p985
sg51
S'5.7'
p986
sg53
g3
sg54
S'.406'
p987
sg56
S'2891'
p988
sg58
g3
sba(isrc.gp1.models.Per36Minutes
Per36Minutes
p989
(dp990
g8
g3
sg9
g3
sg10
S'.437'
p991
sg12
S'2.2'
p992
sg14
g3
sg15
g3
sg16
S'15.8'
p993
sg18
g87
sg20
S'.629'
p994
sg24
S'NBA'
p995
sg26
g3
sg27
S'13.9'
p996
sg29
S'2.4'
p997
sg31
S'5.8'
p998
sg33
S'18.0'
p999
sg35
S'25'
p1000
sg37
S'SFW'
p1001
sg39
S'65'
p1002
sg41
g3
sg42
S'6.1'
p1003
sg44
S'3.7'
p1004
sg46
S'13.9'
p1005
sg48
g3
sg49
S'1966-67'
p1006
sg51
S'6.1'
p1007
sg53
g3
sg54
S'.437'
p1008
sg56
S'2761'
p1009
sg58
g3
sba(isrc.gp1.models.Per36Minutes
Per36Minutes
p1010
(dp1011
g8
g3
sg9
g3
sg10
S'.411'
p1012
sg12
S'3.5'
p1013
sg14
g3
sg15
g3
sg16
S'16.9'
p1014
sg18
g87
sg20
S'.644'
p1015
sg24
S'NBA'
p1016
sg26
g3
sg27
S'15.1'
p1017
sg29
S'2.2'
p1018
sg31
S'7.1'
p1019
sg33
S'18.2'
p1020
sg35
S'26'
p1021
sg37
S'SFW'
p1022
sg39
S'51'
p1023
sg41
g3
sg42
S'6.2'
p1024
sg44
S'4.6'
p1025
sg46
S'15.1'
p1026
sg48
g3
sg49
S'1967-68'
p1027
sg51
S'6.2'
p1028
sg53
g3
sg54
S'.411'
p1029
sg56
S'2222'
p1030
sg58
g3
sba(isrc.gp1.models.Per36Minutes
Per36Minutes
p1031
(dp1032
g8
g3
sg9
g3
sg10
S'.410'
p1033
sg12
S'2.8'
p1034
sg14
g3
sg15
g3
sg16
S'17.1'
p1035
sg18
g87
sg20
S'.615'
p1036
sg24
S'NBA'
p1037
sg26
g3
sg27
S'15.6'
p1038
sg29
S'1.9'
p1039
sg31
S'7.0'
p1040
sg33
S'15.7'
p1041
sg35
S'27'
p1042
sg37
S'SFW'
p1043
sg39
S'71'
p1044
sg41
g3
sg42
S'6.4'
p1045
sg44
S'4.3'
p1046
sg46
S'15.6'
p1047
sg48
g3
sg49
S'1968-69'
p1048
sg51
S'6.4'
p1049
sg53
g3
sg54
S'.410'
p1050
sg56
S'3208'
p1051
sg58
g3
sba(isrc.gp1.models.Per36Minutes
Per36Minutes
p1052
(dp1053
g8
g3
sg9
g3
sg10
S'.414'
p1054
sg12
S'2.8'
p1055
sg14
g3
sg15
g3
sg16
S'17.7'
p1056
sg18
g87
sg20
S'.754'
p1057
sg24
S'NBA'
p1058
sg26
g3
sg27
S'15.5'
p1059
sg29
S'2.1'
p1060
sg31
S'6.5'
p1061
sg33
S'14.3'
p1062
sg35
S'28'
p1063
sg37
S'SFW'
p1064
sg39
S'43'
p1065
sg41
g3
sg42
S'6.4'
p1066
sg44
S'4.9'
p1067
sg46
S'15.5'
p1068
sg48
g3
sg49
S'1969-70'
p1069
sg51
S'6.4'
p1070
sg53
g3
sg54
S'.414'
p1071
sg56
S'1919'
p1072
sg58
g3
sba(isrc.gp1.models.Per36Minutes
Per36Minutes
p1073
(dp1074
g8
g3
sg9
g3
sg10
S'.445'
p1075
sg12
S'2.8'
p1076
sg14
g3
sg15
g3
sg16
S'17.6'
p1077
sg18
g87
sg20
S'.730'
p1078
sg24
S'NBA'
p1079
sg26
g3
sg27
S'15.1'
p1080
sg29
S'2.1'
p1081
sg31
S'5.8'
p1082
sg33
S'12.1'
p1083
sg35
S'29'
p1084
sg37
S'SFW'
p1085
sg39
S'82'
p1086
sg41
g3
sg42
S'6.7'
p1087
sg44
S'4.2'
p1088
sg46
S'15.1'
p1089
sg48
g3
sg49
S'1970-71'
p1090
sg51
S'6.7'
p1091
sg53
g3
sg54
S'.445'
p1092
sg56
S'3351'
p1093
sg58
g3
sba(isrc.gp1.models.Per36Minutes
Per36Minutes
p1094
(dp1095
g8
g3
sg9
g3
sg10
S'.432'
p1096
sg12
S'2.5'
p1097
sg14
g3
sg15
g3
sg16
S'17.9'
p1098
sg18
g87
sg20
S'.743'
p1099
sg24
S'NBA'
p1100
sg26
g3
sg27
S'15.6'
p1101
sg29
S'2.3'
p1102
sg31
S'6.0'
p1103
sg33
S'13.4'
p1104
sg35
S'30'
p1105
sg37
S'GSW'
p1106
sg39
S'78'
p1107
sg41
g3
sg42
S'6.7'
p1108
sg44
S'4.5'
p1109
sg46
S'15.6'
p1110
sg48
g3
sg49
S'1971-72'
p1111
sg51
S'6.7'
p1112
sg53
g3
sg54
S'.432'
p1113
sg56
S'3362'
p1114
sg58
g3
sba(isrc.gp1.models.Per36Minutes
Per36Minutes
p1115
(dp1116
g8
g3
sg9
g3
sg10
S'.446'
p1117
sg12
S'2.9'
p1118
sg14
g3
sg15
g3
sg16
S'14.2'
p1119
sg18
g87
sg20
S'.718'
p1120
sg24
S'NBA'
p1121
sg26
g3
sg27
S'12.2'
p1122
sg29
S'2.5'
p1123
sg31
S'4.6'
p1124
sg33
S'14.2'
p1125
sg35
S'31'
p1126
sg37
S'GSW'
p1127
sg39
S'79'
p1128
sg41
g3
sg42
S'5.4'
p1129
sg44
S'3.3'
p1130
sg46
S'12.2'
p1131
sg48
g3
sg49
S'1972-73'
p1132
sg51
S'5.4'
p1133
sg53
g3
sg54
S'.446'
p1134
sg56
S'3419'
p1135
sg58
g3
sba(isrc.gp1.models.Per36Minutes
Per36Minutes
p1136
(dp1137
g8
S'3.6'
p1138
sg9
g3
sg10
S'.444'
p1139
sg12
S'2.4'
p1140
sg14
g3
sg15
g3
sg16
S'11.8'
p1141
sg18
g87
sg20
S'.666'
p1142
sg24
S'NBA'
p1143
sg26
S'0.6'
p1144
sg27
S'10.1'
p1145
sg29
S'2.6'
p1146
sg31
S'4.2'
p1147
sg33
S'12.8'
p1148
sg35
S'32'
p1149
sg37
S'GSW'
p1150
sg39
S'62'
p1151
sg41
S'2.6'
p1152
sg42
S'4.5'
p1153
sg44
S'2.8'
p1154
sg46
S'10.1'
p1155
sg48
S'9.2'
p1156
sg49
S'1973-74'
p1157
sg51
S'4.5'
p1158
sg53
g3
sg54
S'.444'
p1159
sg56
S'2463'
p1160
sg58
g3
sba(isrc.gp1.models.Per36Minutes
Per36Minutes
p1161
(dp1162
g8
S'3.4'
p1163
sg9
g3
sg10
S'.364'
p1164
sg12
S'4.3'
p1165
sg14
g3
sg15
g3
sg16
S'8.3'
p1166
sg18
g87
sg20
S'.589'
p1167
sg24
S'NBA'
p1168
sg26
S'0.6'
p1169
sg27
S'9.0'
p1170
sg29
S'3.5'
p1171
sg31
S'2.9'
p1172
sg33
S'11.8'
p1173
sg35
S'33'
p1174
sg37
S'CHI'
p1175
sg39
S'80'
p1176
sg41
S'2.5'
p1177
sg42
S'3.3'
p1178
sg44
S'1.7'
p1179
sg46
S'9.0'
p1180
sg48
S'8.4'
p1181
sg49
S'1974-75'
p1182
sg51
S'3.3'
p1183
sg53
g3
sg54
S'.364'
p1184
sg56
S'2756'
p1185
sg58
g3
sba(isrc.gp1.models.Per36Minutes
Per36Minutes
p1186
(dp1187
g8
S'3.0'
p1188
sg9
g3
sg10
S'.421'
p1189
sg12
S'2.4'
p1190
sg14
g3
sg15
g3
sg16
S'8.9'
p1191
sg18
g87
sg20
S'.504'
p1192
sg24
S'NBA'
p1193
sg26
S'0.6'
p1194
sg27
S'8.7'
p1195
sg29
S'4.1'
p1196
sg31
S'3.2'
p1197
sg33
S'10.7'
p1198
sg35
S'34'
p1199
sg37
S'TOT'
p1200
sg39
S'78'
p1201
sg41
S'2.5'
p1202
sg42
S'3.7'
p1203
sg44
S'1.6'
p1204
sg46
S'8.7'
p1205
sg48
S'7.8'
p1206
sg49
S'1975-76'
p1207
sg51
S'3.7'
p1208
sg53
g3
sg54
S'.421'
p1209
sg56
S'1393'
p1210
sg58
g3
sba(isrc.gp1.models.Per36Minutes
Per36Minutes
p1211
(dp1212
g8
S'1.9'
p1213
sg9
g3
sg10
S'.444'
p1214
sg12
S'3.6'
p1215
sg14
g3
sg15
g3
sg16
S'6.6'
p1216
sg18
g87
sg20
S'.444'
p1217
sg24
S'NBA'
p1218
sg26
S'0.6'
p1219
sg27
S'6.2'
p1220
sg29
S'2.1'
p1221
sg31
S'2.5'
p1222
sg33
S'9.8'
p1223
sg35
S'34'
p1224
sg37
S'CHI'
p1225
sg39
S'13'
p1226
sg41
S'1.7'
p1227
sg42
S'2.8'
p1228
sg44
S'1.1'
p1229
sg46
S'6.2'
p1230
sg48
S'7.9'
p1231
sg49
S'1975-76'
p1232
sg51
S'2.8'
p1233
sg53
g3
sg54
S'.444'
p1234
sg56
S'260'
p1235
sg58
g3
sba(isrc.gp1.models.Per36Minutes
Per36Minutes
p1236
(dp1237
g8
S'3.2'
p1238
sg9
g3
sg10
S'.418'
p1239
sg12
S'2.2'
p1240
sg14
g3
sg15
g3
sg16
S'9.5'
p1241
sg18
g87
sg20
S'.514'
p1242
sg24
S'NBA'
p1243
sg26
S'0.6'
p1244
sg27
S'9.3'
p1245
sg29
S'4.6'
p1246
sg31
S'3.3'
p1247
sg33
S'10.9'
p1248
sg35
S'34'
p1249
sg37
S'CLE'
p1250
sg39
S'65'
p1251
sg41
S'2.7'
p1252
sg42
S'3.9'
p1253
sg44
S'1.7'
p1254
sg46
S'9.3'
p1255
sg48
S'7.7'
p1256
sg49
S'1975-76'
p1257
sg51
S'3.9'
p1258
sg53
g3
sg54
S'.418'
p1259
sg56
S'1133'
p1260
sg58
g3
sba(isrc.gp1.models.Per36Minutes
Per36Minutes
p1261
(dp1262
g8
S'4.4'
p1263
sg9
g3
sg10
S'.407'
p1264
sg12
S'3.0'
p1265
sg14
g3
sg15
g3
sg16
S'9.7'
p1266
sg18
g87
sg20
S'.642'
p1267
sg24
S'NBA'
p1268
sg26
S'0.6'
p1269
sg27
S'8.9'
p1270
sg29
S'4.6'
p1271
sg31
S'3.8'
p1272
sg33
S'13.5'
p1273
sg35
S'35'
p1274
sg37
S'CLE'
p1275
sg39
S'49'
p1276
sg41
S'2.9'
p1277
sg42
S'3.6'
p1278
sg44
S'2.5'
p1279
sg46
S'8.9'
p1280
sg48
S'9.1'
p1281
sg49
S'1976-77'
p1282
sg51
S'3.6'
p1283
sg53
g3
sg54
S'.407'
p1284
sg56
S'997'
p1285
sg58
g3
sbasS'_fromYear'
p1286
S'1964'
p1287
sS'_url'
p1288
S'http://www.basketball-reference.com/players/t/thurmna01.html'
p1289
sS'_perGame'
p1290
(isrc.gp1.models.PerGame
PerGame
p1291
(dp1292
g8
S'2.5'
p1293
sg9
g3
sg10
S'.407'
p1294
sS'_effectiveFieldGalPercentage'
p1295
S'.407'
p1296
sg12
S'1.7'
p1297
sg14
g3
sg15
g3
sg16
S'5.5'
p1298
sg18
g87
sg20
S'.642'
p1299
sg24
S'NBA'
p1300
sg26
S'0.3'
p1301
sg29
S'2.6'
p1302
sS'_fieldGoalsttempted'
p1303
S'5.0'
p1304
sg31
S'2.2'
p1305
sg33
S'7.6'
p1306
sg35
S'35'
p1307
sg37
S'CLE'
p1308
sg39
S'49'
p1309
sg41
S'1.7'
p1310
sg42
S'2.0'
p1311
sg44
S'1.4'
p1312
sg46
S'5.0'
p1313
sg48
S'5.2'
p1314
sg49
S'1976-77'
p1315
sg51
S'2.0'
p1316
sg53
g3
sg54
S'.407'
p1317
sg56
S'20.3'
p1318
sg58
g3
sbsS'_weight'
p1319
S'225'
p1320
sS'_dob'
p1321
S'25-7-1941'
p1322
sS'_salary'
p1323
(lp1324
sg18
S'C-F'
p1325
sb.