(isrc.gp1.models.Player
Player
p0
(dp1
S'_experience'
p2
V5
p3
sS'_totals'
p4
(lp5
(isrc.gp1.models.Totals
Totals
p6
(dp7
S'_offensiveRebounds'
p8
S'46'
p9
sS'_threePointsAttempted'
p10
S'0'
p11
sS'_fieldGoalsPercentage'
p12
S'.474'
p13
sS'_assist'
p14
S'15'
p15
sS'_threePointsPercentage'
p16
S'NA'
p17
sS'_threePoints'
p18
g11
sS'_points'
p19
S'163'
p20
sS'_position'
p21
S'C'
p22
sS'_freeThrowsPercentage'
p23
S'.712'
p24
sS'_effectiveFieldGoalPercentage'
p25
S'.474'
p26
sS'_league'
p27
S'NBA'
p28
sS'_steals'
p29
S'15'
p30
sS'_fieldGoalsAttempted'
p31
S'133'
p32
sS'_personalFouls'
p33
S'84'
p34
sS'_freeThrowsAttempted'
p35
S'52'
p36
sS'_totalRebounds'
p37
S'121'
p38
sS'_age'
p39
S'24'
p40
sS'_team'
p41
S'TOT'
p42
sS'_games'
p43
S'45'
p44
sS'_blocks'
p45
S'25'
p46
sS'_twoPoints'
p47
S'63'
p48
sS'_freeThrows'
p49
S'37'
p50
sS'_twoPointsAttempted'
p51
S'133'
p52
sS'_defensiveRebounds'
p53
S'75'
p54
sS'_season'
p55
S'2010-11'
p56
sS'_fieldGoals'
p57
S'63'
p58
sS'_turnOvers'
p59
S'35'
p60
sS'_twoPointsPercentage'
p61
S'.474'
p62
sS'_minutesPlayed'
p63
S'524'
p64
sS'_gamesStarted'
p65
S'14'
p66
sba(isrc.gp1.models.Totals
Totals
p67
(dp68
g8
S'41'
p69
sg10
g11
sg12
S'.464'
p70
sg14
S'15'
p71
sg16
g17
sg18
g11
sg19
S'135'
p72
sg21
g22
sg23
S'.705'
p73
sg25
S'.464'
p74
sg27
S'NBA'
p75
sg29
S'14'
p76
sg31
S'112'
p77
sg33
S'76'
p78
sg35
S'44'
p79
sg37
S'104'
p80
sg39
S'24'
p81
sg41
S'NYK'
p82
sg43
S'34'
p83
sg45
S'23'
p84
sg47
S'52'
p85
sg49
S'31'
p86
sg51
S'112'
p87
sg53
S'63'
p88
sg55
S'2010-11'
p89
sg57
S'52'
p90
sg59
S'32'
p91
sg61
S'.464'
p92
sg63
S'458'
p93
sg65
S'14'
p94
sba(isrc.gp1.models.Totals
Totals
p95
(dp96
g8
S'5'
p97
sg10
g11
sg12
S'.524'
p98
sg14
g11
sg16
g17
sg18
g11
sg19
S'28'
p99
sg21
g22
sg23
S'.750'
p100
sg25
S'.524'
p101
sg27
S'NBA'
p102
sg29
S'1'
p103
sg31
S'21'
p104
sg33
S'8'
p105
sg35
g105
sg37
S'17'
p106
sg39
S'24'
p107
sg41
S'DEN'
p108
sg43
S'11'
p109
sg45
S'2'
p110
sg47
S'11'
p111
sg49
S'6'
p112
sg51
S'21'
p113
sg53
S'12'
p114
sg55
S'2010-11'
p115
sg57
S'11'
p116
sg59
S'3'
p117
sg61
S'.524'
p118
sg63
S'66'
p119
sg65
g11
sba(isrc.gp1.models.Totals
Totals
p120
(dp121
g8
S'53'
p122
sg10
g11
sg12
S'.526'
p123
sg14
S'22'
p124
sg16
g17
sg18
g11
sg19
S'239'
p125
sg21
g22
sg23
S'.684'
p126
sg25
S'.526'
p127
sg27
S'NBA'
p128
sg29
S'15'
p129
sg31
S'190'
p130
sg33
S'86'
p131
sg35
S'57'
p132
sg37
S'179'
p133
sg39
S'25'
p134
sg41
S'DEN'
p135
sg43
S'44'
p136
sg45
S'42'
p137
sg47
S'100'
p138
sg49
S'39'
p139
sg51
S'190'
p140
sg53
S'126'
p141
sg55
S'2011-12'
p142
sg57
S'100'
p143
sg59
S'53'
p144
sg61
S'.526'
p145
sg63
S'687'
p146
sg65
S'35'
p147
sba(isrc.gp1.models.Totals
Totals
p148
(dp149
g8
S'50'
p150
sg10
g110
sg12
S'.506'
p151
sg14
S'9'
p152
sg16
S'.000'
p153
sg18
g11
sg19
S'108'
p154
sg21
g22
sg23
S'.769'
p155
sg25
S'.506'
p156
sg27
S'NBA'
p157
sg29
g112
sg31
S'87'
p158
sg33
S'57'
p159
sg35
S'26'
p160
sg37
S'107'
p161
sg39
S'26'
p162
sg41
S'DEN'
p163
sg43
S'41'
p164
sg45
S'18'
p165
sg47
S'44'
p166
sg49
S'20'
p167
sg51
S'85'
p168
sg53
S'57'
p169
sg55
S'2012-13'
p170
sg57
S'44'
p171
sg59
S'25'
p172
sg61
S'.518'
p173
sg63
S'366'
p174
sg65
g103
sba(isrc.gp1.models.Totals
Totals
p175
(dp176
g8
S'171'
p177
sg10
S'24'
p178
sg12
S'.523'
p179
sg14
S'62'
p180
sg16
S'.167'
p181
sg18
S'4'
p182
sg19
S'770'
p183
sg21
g22
sg23
S'.754'
p184
sg25
S'.527'
p185
sg27
S'NBA'
p186
sg29
S'27'
p187
sg31
S'545'
p188
sg33
S'213'
p189
sg35
S'260'
p190
sg37
S'528'
p191
sg39
S'27'
p192
sg41
S'DEN'
p193
sg43
S'82'
p194
sg45
S'100'
p195
sg47
S'281'
p196
sg49
S'196'
p197
sg51
S'521'
p198
sg53
S'357'
p199
sg55
S'2013-14'
p200
sg57
S'285'
p201
sg59
S'122'
p202
sg61
S'.539'
p203
sg63
S'1770'
p204
sg65
S'30'
p205
sba(isrc.gp1.models.Totals
Totals
p206
(dp207
g8
S'203'
p208
sg10
g112
sg12
S'.555'
p209
sg14
S'55'
p210
sg16
S'.333'
p211
sg18
g110
sg19
S'785'
p212
sg21
g22
sg23
S'.718'
p213
sg25
S'.557'
p214
sg27
S'NBA'
p215
sg29
S'33'
p216
sg31
S'566'
p217
sg33
S'227'
p218
sg35
S'216'
p219
sg37
S'591'
p220
sg39
S'28'
p221
sg41
S'TOT'
p222
sg43
S'81'
p223
sg45
S'97'
p224
sg47
S'312'
p225
sg49
S'155'
p226
sg51
S'560'
p227
sg53
S'388'
p228
sg55
S'2014-15'
p229
sg57
S'314'
p230
sg59
S'116'
p231
sg61
S'.557'
p232
sg63
S'2045'
p233
sg65
S'80'
p234
sba(isrc.gp1.models.Totals
Totals
p235
(dp236
g8
S'91'
p237
sg10
g112
sg12
S'.504'
p238
sg14
S'16'
p239
sg16
S'.333'
p240
sg18
g110
sg19
S'299'
p241
sg21
g22
sg23
S'.733'
p242
sg25
S'.509'
p243
sg27
S'NBA'
p244
sg29
S'15'
p245
sg31
S'232'
p246
sg33
S'114'
p247
sg35
S'86'
p248
sg37
S'272'
p249
sg39
S'28'
p250
sg41
S'DEN'
p251
sg43
S'35'
p252
sg45
S'41'
p253
sg47
S'115'
p254
sg49
S'63'
p255
sg51
S'226'
p256
sg53
S'181'
p257
sg55
S'2014-15'
p258
sg57
S'117'
p259
sg59
S'47'
p260
sg61
S'.509'
p261
sg63
S'897'
p262
sg65
S'35'
p263
sba(isrc.gp1.models.Totals
Totals
p264
(dp265
g8
S'112'
p266
sg10
g11
sg12
S'.590'
p267
sg14
S'39'
p268
sg16
g17
sg18
g11
sg19
S'486'
p269
sg21
g22
sg23
S'.708'
p270
sg25
S'.590'
p271
sg27
S'NBA'
p272
sg29
S'18'
p273
sg31
S'334'
p274
sg33
S'113'
p275
sg35
S'130'
p276
sg37
S'319'
p277
sg39
S'28'
p278
sg41
S'CLE'
p279
sg43
S'46'
p280
sg45
S'56'
p281
sg47
S'197'
p282
sg49
S'92'
p283
sg51
S'334'
p284
sg53
S'207'
p285
sg55
S'2014-15'
p286
sg57
S'197'
p287
sg59
S'69'
p288
sg61
S'.590'
p289
sg63
S'1148'
p290
sg65
S'45'
p291
sba(isrc.gp1.models.Totals
Totals
p292
(dp293
g8
S'64'
p294
sg10
S'7'
p295
sg12
S'.537'
p296
sg14
S'22'
p297
sg16
S'.143'
p298
sg18
g103
sg19
S'293'
p299
sg21
g22
sg23
S'.733'
p300
sg25
S'.539'
p301
sg27
S'NBA'
p302
sg29
S'14'
p303
sg31
S'231'
p304
sg33
S'99'
p305
sg35
S'60'
p306
sg37
S'191'
p307
sg39
S'29'
p308
sg41
S'CLE'
p309
sg43
S'46'
p310
sg45
S'31'
p311
sg47
S'123'
p312
sg49
S'44'
p313
sg51
S'224'
p314
sg53
S'127'
p315
sg55
S'2015-16'
p316
sg57
S'124'
p317
sg59
S'43'
p318
sg61
S'.549'
p319
sg63
S'798'
p320
sg65
S'30'
p321
sbasS'_college'
p322
S'NA'
p323
sS'_toYear'
p324
S'2016'
p325
sS'_height'
p326
S'7-1'
p327
sS'_active'
p328
I01
sS'_shootingHand'
p329
VRight
p330
sS'_name'
p331
S'Timofey Mozgov'
p332
sS'_per100Possessions'
p333
(lp334
(isrc.gp1.models.Per100Possession
Per100Possession
p335
(dp336
g8
S'4.4'
p337
sg10
S'0.0'
p338
sg12
S'.474'
p339
sS'_offensiveRating'
p340
S'100'
p341
sg14
S'1.4'
p342
sg16
g17
sg18
S'0.0'
p343
sg19
S'15.6'
p344
sg21
g22
sS'_defensiveRating'
p345
S'108'
p346
sg23
S'.712'
p347
sg27
S'NBA'
p348
sg29
S'1.4'
p349
sg31
S'12.7'
p350
sg33
S'8.1'
p351
sg35
S'5.0'
p352
sg37
S'11.6'
p353
sg39
S'24'
p354
sg41
S'TOT'
p355
sg43
S'45'
p356
sg45
S'2.4'
p357
sg47
S'6.0'
p358
sg49
S'3.5'
p359
sg51
S'12.7'
p360
sg53
S'7.2'
p361
sg55
S'2010-11'
p362
sg57
S'6.0'
p363
sg59
S'3.4'
p364
sg61
S'.474'
p365
sg63
S'524'
p366
sg65
S'14'
p367
sba(isrc.gp1.models.Per100Possession
Per100Possession
p368
(dp369
g8
S'4.5'
p370
sg10
S'0.0'
p371
sg12
S'.464'
p372
sg340
S'99'
p373
sg14
S'1.6'
p374
sg16
g17
sg18
S'0.0'
p375
sg19
S'14.8'
p376
sg21
g22
sg345
S'108'
p377
sg23
S'.705'
p378
sg27
S'NBA'
p379
sg29
S'1.5'
p380
sg31
S'12.3'
p381
sg33
S'8.3'
p382
sg35
S'4.8'
p383
sg37
S'11.4'
p384
sg39
S'24'
p385
sg41
S'NYK'
p386
sg43
S'34'
p387
sg45
S'2.5'
p388
sg47
S'5.7'
p389
sg49
S'3.4'
p390
sg51
S'12.3'
p391
sg53
S'6.9'
p392
sg55
S'2010-11'
p393
sg57
S'5.7'
p394
sg59
S'3.5'
p395
sg61
S'.464'
p396
sg63
S'458'
p397
sg65
S'14'
p398
sba(isrc.gp1.models.Per100Possession
Per100Possession
p399
(dp400
g8
S'3.8'
p401
sg10
S'0.0'
p402
sg12
S'.524'
p403
sg340
S'110'
p404
sg14
S'0.0'
p405
sg16
g17
sg18
S'0.0'
p406
sg19
S'21.3'
p407
sg21
g22
sg345
S'107'
p408
sg23
S'.750'
p409
sg27
S'NBA'
p410
sg29
S'0.8'
p411
sg31
S'16.0'
p412
sg33
S'6.1'
p413
sg35
S'6.1'
p414
sg37
S'12.9'
p415
sg39
S'24'
p416
sg41
S'DEN'
p417
sg43
S'11'
p418
sg45
S'1.5'
p419
sg47
S'8.4'
p420
sg49
S'4.6'
p421
sg51
S'16.0'
p422
sg53
S'9.1'
p423
sg55
S'2010-11'
p424
sg57
S'8.4'
p425
sg59
S'2.3'
p426
sg61
S'.524'
p427
sg63
S'66'
p428
sg65
g11
sba(isrc.gp1.models.Per100Possession
Per100Possession
p429
(dp430
g8
S'3.9'
p431
sg10
S'0.0'
p432
sg12
S'.526'
p433
sg340
S'100'
p434
sg14
S'1.6'
p435
sg16
g17
sg18
S'0.0'
p436
sg19
S'17.7'
p437
sg21
g22
sg345
S'103'
p438
sg23
S'.684'
p439
sg27
S'NBA'
p440
sg29
S'1.1'
p441
sg31
S'14.1'
p442
sg33
S'6.4'
p443
sg35
S'4.2'
p444
sg37
S'13.3'
p445
sg39
S'25'
p446
sg41
S'DEN'
p447
sg43
S'44'
p448
sg45
S'3.1'
p449
sg47
S'7.4'
p450
sg49
S'2.9'
p451
sg51
S'14.1'
p452
sg53
S'9.3'
p453
sg55
S'2011-12'
p454
sg57
S'7.4'
p455
sg59
S'3.9'
p456
sg61
S'.526'
p457
sg63
S'687'
p458
sg65
S'35'
p459
sba(isrc.gp1.models.Per100Possession
Per100Possession
p460
(dp461
g8
S'6.9'
p462
sg10
S'0.3'
p463
sg12
S'.506'
p464
sg340
S'107'
p465
sg14
S'1.2'
p466
sg16
S'.000'
p467
sg18
S'0.0'
p468
sg19
S'14.9'
p469
sg21
g22
sg345
S'105'
p470
sg23
S'.769'
p471
sg27
S'NBA'
p472
sg29
S'0.8'
p473
sg31
S'12.0'
p474
sg33
S'7.9'
p475
sg35
S'3.6'
p476
sg37
S'14.8'
p477
sg39
S'26'
p478
sg41
S'DEN'
p479
sg43
S'41'
p480
sg45
S'2.5'
p481
sg47
S'6.1'
p482
sg49
S'2.8'
p483
sg51
S'11.7'
p484
sg53
S'7.9'
p485
sg55
S'2012-13'
p486
sg57
S'6.1'
p487
sg59
S'3.4'
p488
sg61
S'.518'
p489
sg63
S'366'
p490
sg65
g103
sba(isrc.gp1.models.Per100Possession
Per100Possession
p491
(dp492
g8
S'4.7'
p493
sg10
S'0.7'
p494
sg12
S'.523'
p495
sg340
S'111'
p496
sg14
S'1.7'
p497
sg16
S'.167'
p498
sg18
S'0.1'
p499
sg19
S'21.3'
p500
sg21
g22
sg345
S'106'
p501
sg23
S'.754'
p502
sg27
S'NBA'
p503
sg29
S'0.7'
p504
sg31
S'15.1'
p505
sg33
S'5.9'
p506
sg35
S'7.2'
p507
sg37
S'14.6'
p508
sg39
S'27'
p509
sg41
S'DEN'
p510
sg43
S'82'
p511
sg45
S'2.8'
p512
sg47
S'7.8'
p513
sg49
S'5.4'
p514
sg51
S'14.4'
p515
sg53
S'9.9'
p516
sg55
S'2013-14'
p517
sg57
S'7.9'
p518
sg59
S'3.4'
p519
sg61
S'.539'
p520
sg63
S'1770'
p521
sg65
S'30'
p522
sba(isrc.gp1.models.Per100Possession
Per100Possession
p523
(dp524
g8
S'5.1'
p525
sg10
S'0.1'
p526
sg12
S'.555'
p527
sg340
S'113'
p528
sg14
S'1.4'
p529
sg16
S'.333'
p530
sg18
S'0.0'
p531
sg19
S'19.6'
p532
sg21
g22
sg345
S'105'
p533
sg23
S'.718'
p534
sg27
S'NBA'
p535
sg29
S'0.8'
p536
sg31
S'14.1'
p537
sg33
S'5.7'
p538
sg35
S'5.4'
p539
sg37
S'14.8'
p540
sg39
S'28'
p541
sg41
S'TOT'
p542
sg43
S'81'
p543
sg45
S'2.4'
p544
sg47
S'7.8'
p545
sg49
S'3.9'
p546
sg51
S'14.0'
p547
sg53
S'9.7'
p548
sg55
S'2014-15'
p549
sg57
S'7.8'
p550
sg59
S'2.9'
p551
sg61
S'.557'
p552
sg63
S'2045'
p553
sg65
S'80'
p554
sba(isrc.gp1.models.Per100Possession
Per100Possession
p555
(dp556
g8
S'5.1'
p557
sg10
S'0.3'
p558
sg12
S'.504'
p559
sg340
S'108'
p560
sg14
S'0.9'
p561
sg16
S'.333'
p562
sg18
S'0.1'
p563
sg19
S'16.6'
p564
sg21
g22
sg345
S'106'
p565
sg23
S'.733'
p566
sg27
S'NBA'
p567
sg29
S'0.8'
p568
sg31
S'12.9'
p569
sg33
S'6.3'
p570
sg35
S'4.8'
p571
sg37
S'15.1'
p572
sg39
S'28'
p573
sg41
S'DEN'
p574
sg43
S'35'
p575
sg45
S'2.3'
p576
sg47
S'6.4'
p577
sg49
S'3.5'
p578
sg51
S'12.6'
p579
sg53
S'10.1'
p580
sg55
S'2014-15'
p581
sg57
S'6.5'
p582
sg59
S'2.6'
p583
sg61
S'.509'
p584
sg63
S'897'
p585
sg65
S'35'
p586
sba(isrc.gp1.models.Per100Possession
Per100Possession
p587
(dp588
g8
S'5.1'
p589
sg10
S'0.0'
p590
sg12
S'.590'
p591
sg340
S'117'
p592
sg14
S'1.8'
p593
sg16
g17
sg18
S'0.0'
p594
sg19
S'22.0'
p595
sg21
g22
sg345
S'105'
p596
sg23
S'.708'
p597
sg27
S'NBA'
p598
sg29
S'0.8'
p599
sg31
S'15.1'
p600
sg33
S'5.1'
p601
sg35
S'5.9'
p602
sg37
S'14.4'
p603
sg39
S'28'
p604
sg41
S'CLE'
p605
sg43
S'46'
p606
sg45
S'2.5'
p607
sg47
S'8.9'
p608
sg49
S'4.2'
p609
sg51
S'15.1'
p610
sg53
S'9.4'
p611
sg55
S'2014-15'
p612
sg57
S'8.9'
p613
sg59
S'3.1'
p614
sg61
S'.590'
p615
sg63
S'1148'
p616
sg65
S'45'
p617
sba(isrc.gp1.models.Per100Possession
Per100Possession
p618
(dp619
g8
S'4.2'
p620
sg10
S'0.5'
p621
sg12
S'.537'
p622
sg340
S'109'
p623
sg14
S'1.4'
p624
sg16
S'.143'
p625
sg18
S'0.1'
p626
sg19
S'19.0'
p627
sg21
g22
sg345
S'102'
p628
sg23
S'.733'
p629
sg27
S'NBA'
p630
sg29
S'0.9'
p631
sg31
S'15.0'
p632
sg33
S'6.4'
p633
sg35
S'3.9'
p634
sg37
S'12.4'
p635
sg39
S'29'
p636
sg41
S'CLE'
p637
sg43
S'46'
p638
sg45
S'2.0'
p639
sg47
S'8.0'
p640
sg49
S'2.9'
p641
sg51
S'14.5'
p642
sg53
S'8.2'
p643
sg55
S'2015-16'
p644
sg57
S'8.0'
p645
sg59
S'2.8'
p646
sg61
S'.549'
p647
sg63
S'798'
p648
sg65
S'30'
p649
sbasS'_advanced'
p650
(lp651
(isrc.gp1.models.Advanced
Advanced
p652
(dp653
S'_offensiveReboundPercentage'
p654
S'10.0'
p655
sS'_turnOverPercentage'
p656
S'18.3'
p657
sS'_winSharesPer48Minutes'
p658
S'.053'
p659
sS'_stealPercentage'
p660
S'1.4'
p661
sS'_usagePercentage'
p662
S'16.2'
p663
sS'_totalReboundsPercentage'
p664
S'13.2'
p665
sS'_defensiveBoxPlusMinus'
p666
S'-0.2'
p667
sg21
g22
sS'_valueOverReplacementPlayer'
p668
S'-0.3'
p669
sS'_trueShootingPercentage'
p670
S'.523'
p671
sS'_defensiveReboundPercentage'
p672
S'16.4'
p673
sS'_freeThrowsAttempRate'
p674
S'.391'
p675
sS'_threePointsAttempRate'
p676
S'.000'
p677
sg27
S'NBA'
p678
sS'_offensiveBoxPlusMinues'
p679
S'-4.0'
p680
sS'_assistPercentage'
p681
S'4.2'
p682
sS'_defensiveWinShares'
p683
S'0.5'
p684
sg39
S'24'
p685
sg41
S'TOT'
p686
sg43
S'45'
p687
sS'_blockPercentage'
p688
S'3.5'
p689
sS'_playerEfficiencyRating'
p690
S'10.8'
p691
sS'_offensiveWinShares'
p692
S'0.1'
p693
sg63
S'524'
p694
sS'_boxPlusMinus'
p695
S'-4.3'
p696
sg55
S'2010-11'
p697
sS'_winShares'
p698
S'0.6'
p699
sba(isrc.gp1.models.Advanced
Advanced
p700
(dp701
g654
S'10.1'
p702
sg656
S'19.6'
p703
sg658
S'.044'
p704
sg660
S'1.5'
p705
sg662
S'15.8'
p706
sg664
S'13.0'
p707
sg666
S'0.4'
p708
sg21
g22
sg668
S'-0.2'
p709
sg670
S'.514'
p710
sg672
S'15.8'
p711
sg674
S'.393'
p712
sg676
S'.000'
p713
sg27
S'NBA'
p714
sg679
S'-4.0'
p715
sg681
S'4.8'
p716
sg683
S'0.4'
p717
sg39
S'24'
p718
sg41
S'NYK'
p719
sg43
S'34'
p720
sg688
S'3.7'
p721
sg690
S'10.3'
p722
sg692
S'0.0'
p723
sg63
S'458'
p724
sg695
S'-3.6'
p725
sg55
S'2010-11'
p726
sg698
S'0.4'
p727
sba(isrc.gp1.models.Advanced
Advanced
p728
(dp729
g654
S'9.0'
p730
sg656
S'10.9'
p731
sg658
S'.112'
p732
sg660
S'0.8'
p733
sg662
S'18.6'
p734
sg664
S'14.9'
p735
sg666
S'-4.5'
p736
sg21
g22
sg668
S'-0.1'
p737
sg670
S'.571'
p738
sg672
S'20.4'
p739
sg674
S'.381'
p740
sg676
S'.000'
p741
sg27
S'NBA'
p742
sg679
S'-4.6'
p743
sg681
S'0.0'
p744
sg683
S'0.1'
p745
sg39
S'24'
p746
sg41
S'DEN'
p747
sg43
S'11'
p748
sg688
S'2.3'
p749
sg690
S'14.4'
p750
sg692
S'0.1'
p751
sg63
S'66'
p752
sg695
S'-9.0'
p753
sg55
S'2010-11'
p754
sg698
S'0.2'
p755
sba(isrc.gp1.models.Advanced
Advanced
p756
(dp757
g654
S'9.3'
p758
sg656
S'19.8'
p759
sg658
S'.074'
p760
sg660
S'1.1'
p761
sg662
S'17.4'
p762
sg664
S'15.2'
p763
sg666
S'1.5'
p764
sg21
g22
sg668
S'0.1'
p765
sg670
S'.556'
p766
sg672
S'20.8'
p767
sg674
S'.300'
p768
sg676
S'.000'
p769
sg27
S'NBA'
p770
sg679
S'-3.0'
p771
sg681
S'4.9'
p772
sg683
S'0.8'
p773
sg39
S'25'
p774
sg41
S'DEN'
p775
sg43
S'44'
p776
sg688
S'4.8'
p777
sg690
S'13.2'
p778
sg692
S'0.3'
p779
sg63
S'687'
p780
sg695
S'-1.6'
p781
sg55
S'2011-12'
p782
sg698
S'1.1'
p783
sba(isrc.gp1.models.Advanced
Advanced
p784
(dp785
g654
S'15.6'
p786
sg656
S'20.3'
p787
sg658
S'.096'
p788
sg660
S'0.8'
p789
sg662
S'14.6'
p790
sg664
S'16.4'
p791
sg666
S'0.2'
p792
sg21
g22
sg668
S'0.0'
p793
sg670
S'.549'
p794
sg672
S'17.1'
p795
sg674
S'.299'
p796
sg676
S'.023'
p797
sg27
S'NBA'
p798
sg679
S'-1.9'
p799
sg681
S'3.4'
p800
sg683
S'0.4'
p801
sg39
S'26'
p802
sg41
S'DEN'
p803
sg43
S'41'
p804
sg688
S'3.8'
p805
sg690
S'12.3'
p806
sg692
S'0.3'
p807
sg63
S'366'
p808
sg695
S'-1.6'
p809
sg55
S'2012-13'
p810
sg698
S'0.7'
p811
sba(isrc.gp1.models.Advanced
Advanced
p812
(dp813
g654
S'10.4'
p814
sg656
S'15.6'
p815
sg658
S'.123'
p816
sg660
S'0.7'
p817
sg662
S'18.8'
p818
sg664
S'16.1'
p819
sg666
S'1.0'
p820
sg21
g22
sg668
S'0.7'
p821
sg670
S'.584'
p822
sg672
S'21.9'
p823
sg674
S'.477'
p824
sg676
S'.044'
p825
sg27
S'NBA'
p826
sg679
S'-1.5'
p827
sg681
S'5.5'
p828
sg683
S'1.9'
p829
sg39
S'27'
p830
sg41
S'DEN'
p831
sg43
S'82'
p832
sg688
S'4.2'
p833
sg690
S'16.7'
p834
sg692
S'2.6'
p835
sg63
S'1770'
p836
sg695
S'-0.5'
p837
sg55
S'2013-14'
p838
sg698
S'4.5'
p839
sba(isrc.gp1.models.Advanced
Advanced
p840
(dp841
g654
S'11.0'
p842
sg656
S'14.9'
p843
sg658
S'.133'
p844
sg660
S'0.8'
p845
sg662
S'16.9'
p846
sg664
S'16.1'
p847
sg666
S'0.8'
p848
sg21
g22
sg668
S'0.8'
p849
sg670
S'.594'
p850
sg672
S'21.4'
p851
sg674
S'.382'
p852
sg676
S'.011'
p853
sg27
S'NBA'
p854
sg679
S'-1.2'
p855
sg681
S'4.3'
p856
sg683
S'2.2'
p857
sg39
S'28'
p858
sg41
S'TOT'
p859
sg43
S'81'
p860
sg688
S'3.7'
p861
sg690
S'16.6'
p862
sg692
S'3.5'
p863
sg63
S'2045'
p864
sg695
S'-0.4'
p865
sg55
S'2014-15'
p866
sg698
S'5.7'
p867
sba(isrc.gp1.models.Advanced
Advanced
p868
(dp869
g654
S'10.6'
p870
sg656
S'14.8'
p871
sg658
S'.096'
p872
sg660
S'0.8'
p873
sg662
S'15.3'
p874
sg664
S'16.4'
p875
sg666
S'0.8'
p876
sg21
g22
sg668
S'0.0'
p877
sg670
S'.554'
p878
sg672
S'22.6'
p879
sg674
S'.371'
p880
sg676
S'.026'
p881
sg27
S'NBA'
p882
sg679
S'-2.6'
p883
sg681
S'2.7'
p884
sg683
S'0.9'
p885
sg39
S'28'
p886
sg41
S'DEN'
p887
sg43
S'35'
p888
sg688
S'3.6'
p889
sg690
S'13.8'
p890
sg692
S'0.9'
p891
sg63
S'897'
p892
sg695
S'-1.8'
p893
sg55
S'2014-15'
p894
sg698
S'1.8'
p895
sba(isrc.gp1.models.Advanced
Advanced
p896
(dp897
g654
S'11.4'
p898
sg656
S'15.0'
p899
sg658
S'.161'
p900
sg660
S'0.8'
p901
sg662
S'18.1'
p902
sg664
S'15.9'
p903
sg666
S'0.8'
p904
sg21
g22
sg668
S'0.8'
p905
sg670
S'.621'
p906
sg672
S'20.4'
p907
sg674
S'.389'
p908
sg676
S'.000'
p909
sg27
S'NBA'
p910
sg679
S'-0.2'
p911
sg681
S'5.6'
p912
sg683
S'1.3'
p913
sg39
S'28'
p914
sg41
S'CLE'
p915
sg43
S'46'
p916
sg688
S'3.9'
p917
sg690
S'18.7'
p918
sg692
S'2.5'
p919
sg63
S'1148'
p920
sg695
S'0.6'
p921
sg55
S'2014-15'
p922
sg698
S'3.9'
p923
sba(isrc.gp1.models.Advanced
Advanced
p924
(dp925
g654
S'9.1'
p926
sg656
S'14.3'
p927
sg658
S'.126'
p928
sg660
S'0.9'
p929
sg662
S'17.1'
p930
sg664
S'13.6'
p931
sg666
S'0.8'
p932
sg21
g22
sg668
S'0.1'
p933
sg670
S'.569'
p934
sg672
S'18.0'
p935
sg674
S'.260'
p936
sg676
S'.030'
p937
sg27
S'NBA'
p938
sg679
S'-2.2'
p939
sg681
S'4.4'
p940
sg683
S'1.1'
p941
sg39
S'29'
p942
sg41
S'CLE'
p943
sg43
S'46'
p944
sg688
S'3.2'
p945
sg690
S'14.2'
p946
sg692
S'1.0'
p947
sg63
S'798'
p948
sg695
S'-1.4'
p949
sg55
S'2015-16'
p950
sg698
S'2.1'
p951
sbasS'_per36Minutes'
p952
(lp953
(isrc.gp1.models.Per36Minutes
Per36Minutes
p954
(dp955
g8
S'3.2'
p956
sg10
S'0.0'
p957
sg12
S'.474'
p958
sg14
S'1.0'
p959
sg16
g17
sg18
S'0.0'
p960
sg19
S'11.2'
p961
sg21
g22
sg23
S'.712'
p962
sg27
S'NBA'
p963
sg29
S'1.0'
p964
sg31
S'9.1'
p965
sg33
S'5.8'
p966
sg35
S'3.6'
p967
sg37
S'8.3'
p968
sg39
S'24'
p969
sg41
S'TOT'
p970
sg43
S'45'
p971
sg45
S'1.7'
p972
sg47
S'4.3'
p973
sg49
S'2.5'
p974
sg51
S'9.1'
p975
sg53
S'5.2'
p976
sg55
S'2010-11'
p977
sg57
S'4.3'
p978
sg59
S'2.4'
p979
sg61
S'.474'
p980
sg63
S'524'
p981
sg65
S'14'
p982
sba(isrc.gp1.models.Per36Minutes
Per36Minutes
p983
(dp984
g8
S'3.2'
p985
sg10
S'0.0'
p986
sg12
S'.464'
p987
sg14
S'1.2'
p988
sg16
g17
sg18
S'0.0'
p989
sg19
S'10.6'
p990
sg21
g22
sg23
S'.705'
p991
sg27
S'NBA'
p992
sg29
S'1.1'
p993
sg31
S'8.8'
p994
sg33
S'6.0'
p995
sg35
S'3.5'
p996
sg37
S'8.2'
p997
sg39
S'24'
p998
sg41
S'NYK'
p999
sg43
S'34'
p1000
sg45
S'1.8'
p1001
sg47
S'4.1'
p1002
sg49
S'2.4'
p1003
sg51
S'8.8'
p1004
sg53
S'5.0'
p1005
sg55
S'2010-11'
p1006
sg57
S'4.1'
p1007
sg59
S'2.5'
p1008
sg61
S'.464'
p1009
sg63
S'458'
p1010
sg65
S'14'
p1011
sba(isrc.gp1.models.Per36Minutes
Per36Minutes
p1012
(dp1013
g8
S'2.7'
p1014
sg10
S'0.0'
p1015
sg12
S'.524'
p1016
sg14
S'0.0'
p1017
sg16
g17
sg18
S'0.0'
p1018
sg19
S'15.3'
p1019
sg21
g22
sg23
S'.750'
p1020
sg27
S'NBA'
p1021
sg29
S'0.5'
p1022
sg31
S'11.5'
p1023
sg33
S'4.4'
p1024
sg35
S'4.4'
p1025
sg37
S'9.3'
p1026
sg39
S'24'
p1027
sg41
S'DEN'
p1028
sg43
S'11'
p1029
sg45
S'1.1'
p1030
sg47
S'6.0'
p1031
sg49
S'3.3'
p1032
sg51
S'11.5'
p1033
sg53
S'6.5'
p1034
sg55
S'2010-11'
p1035
sg57
S'6.0'
p1036
sg59
S'1.6'
p1037
sg61
S'.524'
p1038
sg63
S'66'
p1039
sg65
g11
sba(isrc.gp1.models.Per36Minutes
Per36Minutes
p1040
(dp1041
g8
S'2.8'
p1042
sg10
S'0.0'
p1043
sg12
S'.526'
p1044
sg14
S'1.2'
p1045
sg16
g17
sg18
S'0.0'
p1046
sg19
S'12.5'
p1047
sg21
g22
sg23
S'.684'
p1048
sg27
S'NBA'
p1049
sg29
S'0.8'
p1050
sg31
S'10.0'
p1051
sg33
S'4.5'
p1052
sg35
S'3.0'
p1053
sg37
S'9.4'
p1054
sg39
S'25'
p1055
sg41
S'DEN'
p1056
sg43
S'44'
p1057
sg45
S'2.2'
p1058
sg47
S'5.2'
p1059
sg49
S'2.0'
p1060
sg51
S'10.0'
p1061
sg53
S'6.6'
p1062
sg55
S'2011-12'
p1063
sg57
S'5.2'
p1064
sg59
S'2.8'
p1065
sg61
S'.526'
p1066
sg63
S'687'
p1067
sg65
S'35'
p1068
sba(isrc.gp1.models.Per36Minutes
Per36Minutes
p1069
(dp1070
g8
S'4.9'
p1071
sg10
S'0.2'
p1072
sg12
S'.506'
p1073
sg14
S'0.9'
p1074
sg16
S'.000'
p1075
sg18
S'0.0'
p1076
sg19
S'10.6'
p1077
sg21
g22
sg23
S'.769'
p1078
sg27
S'NBA'
p1079
sg29
S'0.6'
p1080
sg31
S'8.6'
p1081
sg33
S'5.6'
p1082
sg35
S'2.6'
p1083
sg37
S'10.5'
p1084
sg39
S'26'
p1085
sg41
S'DEN'
p1086
sg43
S'41'
p1087
sg45
S'1.8'
p1088
sg47
S'4.3'
p1089
sg49
S'2.0'
p1090
sg51
S'8.4'
p1091
sg53
S'5.6'
p1092
sg55
S'2012-13'
p1093
sg57
S'4.3'
p1094
sg59
S'2.5'
p1095
sg61
S'.518'
p1096
sg63
S'366'
p1097
sg65
g103
sba(isrc.gp1.models.Per36Minutes
Per36Minutes
p1098
(dp1099
g8
S'3.5'
p1100
sg10
S'0.5'
p1101
sg12
S'.523'
p1102
sg14
S'1.3'
p1103
sg16
S'.167'
p1104
sg18
S'0.1'
p1105
sg19
S'15.7'
p1106
sg21
g22
sg23
S'.754'
p1107
sg27
S'NBA'
p1108
sg29
S'0.5'
p1109
sg31
S'11.1'
p1110
sg33
S'4.3'
p1111
sg35
S'5.3'
p1112
sg37
S'10.7'
p1113
sg39
S'27'
p1114
sg41
S'DEN'
p1115
sg43
S'82'
p1116
sg45
S'2.0'
p1117
sg47
S'5.7'
p1118
sg49
S'4.0'
p1119
sg51
S'10.6'
p1120
sg53
S'7.3'
p1121
sg55
S'2013-14'
p1122
sg57
S'5.8'
p1123
sg59
S'2.5'
p1124
sg61
S'.539'
p1125
sg63
S'1770'
p1126
sg65
S'30'
p1127
sba(isrc.gp1.models.Per36Minutes
Per36Minutes
p1128
(dp1129
g8
S'3.6'
p1130
sg10
S'0.1'
p1131
sg12
S'.555'
p1132
sg14
S'1.0'
p1133
sg16
S'.333'
p1134
sg18
S'0.0'
p1135
sg19
S'13.8'
p1136
sg21
g22
sg23
S'.718'
p1137
sg27
S'NBA'
p1138
sg29
S'0.6'
p1139
sg31
S'10.0'
p1140
sg33
S'4.0'
p1141
sg35
S'3.8'
p1142
sg37
S'10.4'
p1143
sg39
S'28'
p1144
sg41
S'TOT'
p1145
sg43
S'81'
p1146
sg45
S'1.7'
p1147
sg47
S'5.5'
p1148
sg49
S'2.7'
p1149
sg51
S'9.9'
p1150
sg53
S'6.8'
p1151
sg55
S'2014-15'
p1152
sg57
S'5.5'
p1153
sg59
S'2.0'
p1154
sg61
S'.557'
p1155
sg63
S'2045'
p1156
sg65
S'80'
p1157
sba(isrc.gp1.models.Per36Minutes
Per36Minutes
p1158
(dp1159
g8
S'3.7'
p1160
sg10
S'0.2'
p1161
sg12
S'.504'
p1162
sg14
S'0.6'
p1163
sg16
S'.333'
p1164
sg18
S'0.1'
p1165
sg19
S'12.0'
p1166
sg21
g22
sg23
S'.733'
p1167
sg27
S'NBA'
p1168
sg29
S'0.6'
p1169
sg31
S'9.3'
p1170
sg33
S'4.6'
p1171
sg35
S'3.5'
p1172
sg37
S'10.9'
p1173
sg39
S'28'
p1174
sg41
S'DEN'
p1175
sg43
S'35'
p1176
sg45
S'1.6'
p1177
sg47
S'4.6'
p1178
sg49
S'2.5'
p1179
sg51
S'9.1'
p1180
sg53
S'7.3'
p1181
sg55
S'2014-15'
p1182
sg57
S'4.7'
p1183
sg59
S'1.9'
p1184
sg61
S'.509'
p1185
sg63
S'897'
p1186
sg65
S'35'
p1187
sba(isrc.gp1.models.Per36Minutes
Per36Minutes
p1188
(dp1189
g8
S'3.5'
p1190
sg10
S'0.0'
p1191
sg12
S'.590'
p1192
sg14
S'1.2'
p1193
sg16
g17
sg18
S'0.0'
p1194
sg19
S'15.2'
p1195
sg21
g22
sg23
S'.708'
p1196
sg27
S'NBA'
p1197
sg29
S'0.6'
p1198
sg31
S'10.5'
p1199
sg33
S'3.5'
p1200
sg35
S'4.1'
p1201
sg37
S'10.0'
p1202
sg39
S'28'
p1203
sg41
S'CLE'
p1204
sg43
S'46'
p1205
sg45
S'1.8'
p1206
sg47
S'6.2'
p1207
sg49
S'2.9'
p1208
sg51
S'10.5'
p1209
sg53
S'6.5'
p1210
sg55
S'2014-15'
p1211
sg57
S'6.2'
p1212
sg59
S'2.2'
p1213
sg61
S'.590'
p1214
sg63
S'1148'
p1215
sg65
S'45'
p1216
sba(isrc.gp1.models.Per36Minutes
Per36Minutes
p1217
(dp1218
g8
S'2.9'
p1219
sg10
S'0.3'
p1220
sg12
S'.537'
p1221
sg14
S'1.0'
p1222
sg16
S'.143'
p1223
sg18
S'0.0'
p1224
sg19
S'13.2'
p1225
sg21
g22
sg23
S'.733'
p1226
sg27
S'NBA'
p1227
sg29
S'0.6'
p1228
sg31
S'10.4'
p1229
sg33
S'4.5'
p1230
sg35
S'2.7'
p1231
sg37
S'8.6'
p1232
sg39
S'29'
p1233
sg41
S'CLE'
p1234
sg43
S'46'
p1235
sg45
S'1.4'
p1236
sg47
S'5.5'
p1237
sg49
S'2.0'
p1238
sg51
S'10.1'
p1239
sg53
S'5.7'
p1240
sg55
S'2015-16'
p1241
sg57
S'5.6'
p1242
sg59
S'1.9'
p1243
sg61
S'.549'
p1244
sg63
S'798'
p1245
sg65
S'30'
p1246
sbasS'_fromYear'
p1247
S'2011'
p1248
sS'_url'
p1249
S'http://www.basketball-reference.com/players/m/mozgoti01.html'
p1250
sS'_perGame'
p1251
(isrc.gp1.models.PerGame
PerGame
p1252
(dp1253
g8
S'1.4'
p1254
sg10
S'0.2'
p1255
sg12
S'.537'
p1256
sS'_effectiveFieldGalPercentage'
p1257
S'.539'
p1258
sg14
S'0.5'
p1259
sg16
S'.143'
p1260
sg18
S'0.0'
p1261
sg19
S'6.4'
p1262
sg21
g22
sg23
S'.733'
p1263
sg27
S'NBA'
p1264
sg29
S'0.3'
p1265
sg33
S'2.2'
p1266
sS'_fieldGoalsttempted'
p1267
S'5.0'
p1268
sg35
S'1.3'
p1269
sg37
S'4.2'
p1270
sg39
S'29'
p1271
sg41
S'CLE'
p1272
sg43
S'46'
p1273
sg45
S'0.7'
p1274
sg47
S'2.7'
p1275
sg49
S'1.0'
p1276
sg51
S'4.9'
p1277
sg53
S'2.8'
p1278
sg55
S'2015-16'
p1279
sg57
S'2.7'
p1280
sg59
S'0.9'
p1281
sg61
S'.549'
p1282
sg63
S'17.3'
p1283
sg65
S'30'
p1284
sbsS'_weight'
p1285
S'275'
p1286
sS'_dob'
p1287
S'16-7-1986'
p1288
sS'_salary'
p1289
(lp1290
(isrc.gp1.models.Salary
Salary
p1291
(dp1292
g41
S'Denver Nuggets'
p1293
sg27
S'NBA'
p1294
sg1289
S'$3,567,096'
p1295
sg55
S'2010-11'
p1296
sba(isrc.gp1.models.Salary
Salary
p1297
(dp1298
g41
S'Denver Nuggets'
p1299
sg27
S'NBA'
p1300
sg1289
S'$3,343,896'
p1301
sg55
S'2011-12'
p1302
sba(isrc.gp1.models.Salary
Salary
p1303
(dp1304
g41
S'Denver Nuggets'
p1305
sg27
S'NBA'
p1306
sg1289
S'$3,140,429'
p1307
sg55
S'2012-13'
p1308
sba(isrc.gp1.models.Salary
Salary
p1309
(dp1310
g41
S'Denver Nuggets'
p1311
sg27
S'NBA'
p1312
sg1289
S'$4,400,000'
p1313
sg55
S'2013-14'
p1314
sba(isrc.gp1.models.Salary
Salary
p1315
(dp1316
g41
S'Cleveland Cavaliers'
p1317
sg27
S'NBA'
p1318
sg1289
S'$4,650,000'
p1319
sg55
S'2014-15'
p1320
sbasg21
g22
sb.