(isrc.gp1.models.Player
Player
p0
(dp1
S'_experience'
p2
S'NA'
p3
sS'_totals'
p4
(lp5
(isrc.gp1.models.Totals
Totals
p6
(dp7
S'_offensiveRebounds'
p8
g3
sS'_threePointsAttempted'
p9
S'.444'
p10
sS'_fieldGoalsPercentage'
p11
S'486'
p12
sS'_assist'
p13
g3
sS'_threePointsPercentage'
p14
S'.444'
p15
sS'_threePoints'
p16
S'1095'
p17
sS'_points'
p18
g3
sS'_position'
p19
S'PG'
p20
sS'_freeThrowsPercentage'
p21
S'1308'
p22
sS'_effectiveFieldGoalPercentage'
p23
S'242'
p24
sS'_league'
p25
S'NBA'
p26
sS'_steals'
p27
g3
sS'_fieldGoalsAttempted'
p28
S'.444'
p29
sS'_personalFouls'
p30
g3
sS'_freeThrowsAttempted'
p31
S'218'
p32
sS'_totalRebounds'
p33
g3
sS'_age'
p34
S'22'
p35
sS'_team'
p36
S'CIN'
p37
sS'_games'
p38
S'82'
p39
sS'_blocks'
p40
g3
sS'_twoPoints'
p41
S'336'
p42
sS'_freeThrows'
p43
S'450'
p44
sS'_twoPointsAttempted'
p45
S'444'
p46
sS'_defensiveRebounds'
p47
g3
sS'_season'
p48
S'1970-71'
p49
sS'_fieldGoals'
p50
S'1095'
p51
sS'_turnOvers'
p52
g3
sS'_twoPointsPercentage'
p53
S'.757'
p54
sS'_minutesPlayed'
p55
S'486'
p56
sS'_gamesStarted'
p57
S'2867'
p58
sba(isrc.gp1.models.Totals
Totals
p59
(dp60
g8
g3
sg9
S'.486'
p61
sg11
S'734'
p62
sg13
g3
sg14
S'.486'
p63
sg16
S'1511'
p64
sg18
g3
sg19
S'PG'
p65
sg21
S'2145'
p66
sg23
S'222'
p67
sg25
S'NBA'
p68
sg27
g3
sg28
S'.486'
p69
sg30
g3
sg31
S'198'
p70
sg33
g3
sg34
S'23'
p71
sg36
S'CIN'
p72
sg38
S'76'
p73
sg40
g3
sg41
S'677'
p74
sg43
S'701'
p75
sg45
S'824'
p76
sg47
g3
sg48
S'1971-72'
p77
sg50
S'1511'
p78
sg52
g3
sg53
S'.822'
p79
sg55
S'734'
p80
sg57
S'3272'
p81
sba(isrc.gp1.models.Totals
Totals
p82
(dp83
g8
g3
sg9
S'.488'
p84
sg11
S'1028'
p85
sg13
g3
sg14
S'.488'
p86
sg16
S'2106'
p87
sg18
g3
sg19
S'PG'
p88
sg21
S'2719'
p89
sg23
S'223'
p90
sg25
S'NBA'
p91
sg27
g3
sg28
S'.488'
p92
sg30
g3
sg31
S'207'
p93
sg33
g3
sg34
S'24'
p94
sg36
S'KCO'
p95
sg38
S'80'
p96
sg40
g3
sg41
S'663'
p97
sg43
S'910'
p98
sg45
S'783'
p99
sg47
g3
sg48
S'1972-73'
p100
sg50
S'2106'
p101
sg52
g3
sg53
S'.847'
p102
sg55
S'1028'
p103
sg57
S'3681'
p104
sba(isrc.gp1.models.Totals
Totals
p105
(dp106
g8
S'56'
p107
sg9
S'.451'
p108
sg11
S'222'
p109
sg13
S'617'
p110
sg14
S'.451'
p111
sg16
S'492'
p112
sg18
g3
sg19
S'PG'
p113
sg21
S'266'
p114
sg23
S'21'
p115
sg25
S'NBA'
p116
sg27
g3
sg28
S'.451'
p117
sg30
g3
sg31
S'85'
p118
sg33
S'76'
p119
sg34
S'25'
p120
sg36
S'KCO'
p121
sg38
S'35'
p122
sg40
g3
sg41
S'173'
p123
sg43
S'64'
p124
sg45
S'211'
p125
sg47
S'7'
p126
sg48
S'1973-74'
p127
sg50
S'492'
p128
sg52
g3
sg53
S'.820'
p129
sg55
S'222'
p130
sg57
S'1272'
p131
sba(isrc.gp1.models.Totals
Totals
p132
(dp133
g8
S'119'
p134
sg9
S'.456'
p135
sg11
S'759'
p136
sg13
S'2170'
p137
sg14
S'.456'
p138
sg16
S'1664'
p139
sg18
g3
sg19
S'PG'
p140
sg21
S'557'
p141
sg23
S'48'
p142
sg25
S'NBA'
p143
sg27
g3
sg28
S'.456'
p144
sg30
g3
sg31
S'222'
p145
sg33
S'187'
p146
sg34
S'26'
p147
sg36
S'KCO'
p148
sg38
S'82'
p149
sg40
g3
sg41
S'652'
p150
sg43
S'174'
p151
sg45
S'748'
p152
sg47
g126
sg48
S'1974-75'
p153
sg50
S'1664'
p154
sg52
g3
sg53
S'.872'
p155
sg55
S'759'
p156
sg57
S'3244'
p157
sba(isrc.gp1.models.Totals
Totals
p158
(dp159
g8
S'126'
p160
sg9
S'.453'
p161
sg11
S'717'
p162
sg13
S'1935'
p163
sg14
S'.453'
p164
sg16
S'1583'
p165
sg18
g3
sg19
S'PG'
p166
sg21
S'615'
p167
sg23
S'67'
p168
sg25
S'NBA'
p169
sg27
g3
sg28
S'.453'
p170
sg30
g3
sg31
S'213'
p171
sg33
S'169'
p172
sg34
S'27'
p173
sg36
S'KCK'
p174
sg38
S'78'
p175
sg40
g3
sg41
S'501'
p176
sg43
S'146'
p177
sg45
S'625'
p178
sg47
S'15'
p179
sg48
S'1975-76'
p180
sg50
S'1583'
p181
sg52
g3
sg53
S'.802'
p182
sg55
S'717'
p183
sg57
S'3184'
p184
sba(isrc.gp1.models.Totals
Totals
p185
(dp186
g8
S'59'
p187
sg9
S'.446'
p188
sg11
S'250'
p189
sg13
S'697'
p190
sg14
S'.446'
p191
sg16
S'560'
p192
sg18
g3
sg19
S'PG'
p193
sg21
S'254'
p194
sg23
S'22'
p195
sg25
S'NBA'
p196
sg27
g3
sg28
S'.446'
p197
sg30
g3
sg31
S'80'
p198
sg33
S'77'
p199
sg34
S'28'
p200
sg36
S'NYN'
p201
sg38
S'34'
p202
sg40
g3
sg41
S'197'
p203
sg43
S'58'
p204
sg45
S'251'
p205
sg47
S'11'
p206
sg48
S'1976-77'
p207
sg50
S'560'
p208
sg52
g3
sg53
S'.785'
p209
sg55
S'250'
p210
sg57
S'1277'
p211
sba(isrc.gp1.models.Totals
Totals
p212
(dp213
g8
g3
sg9
g3
sg11
g3
sg13
g3
sg14
g3
sg16
g3
sg18
g3
sg19
g3
sg21
g3
sg23
g3
sg25
g3
sg27
g3
sg28
g3
sg30
g3
sg31
g3
sg33
g3
sg34
S'29'
p214
sg36
S'Did Not Play\xc2\xa0(injury\xe2\x80\x94achilles)'
p215
sg38
g3
sg40
g3
sg41
g3
sg43
g3
sg45
g3
sg47
g3
sg48
S'1977-78'
p216
sg50
g3
sg52
g3
sg53
g3
sg55
g3
sg57
g3
sba(isrc.gp1.models.Totals
Totals
p217
(dp218
g8
S'55'
p219
sg9
S'.452'
p220
sg11
S'259'
p221
sg13
S'132'
p222
sg14
S'.452'
p223
sg16
S'573'
p224
sg18
g3
sg19
S'PG'
p225
sg21
S'324'
p226
sg23
S'25'
p227
sg25
S'NBA'
p228
sg27
S'760'
p229
sg28
S'.452'
p230
sg30
g3
sg31
S'103'
p231
sg33
S'197'
p232
sg34
S'30'
p233
sg36
S'BOS'
p234
sg38
S'69'
p235
sg40
g3
sg41
S'242'
p236
sg43
S'78'
p237
sg45
S'307'
p238
sg47
S'6'
p239
sg48
S'1978-79'
p240
sg50
S'573'
p241
sg52
g3
sg53
S'.788'
p242
sg55
S'259'
p243
sg57
S'1662'
p244
sba(isrc.gp1.models.Totals
Totals
p245
(dp246
g8
S'59'
p247
sg9
S'18'
p248
sg11
S'.482'
p249
sg13
S'671'
p250
sg14
S'.222'
p251
sg16
S'4'
p252
sg18
S'1131'
p253
sg19
S'PG'
p254
sg21
S'.830'
p255
sg23
S'.485'
p256
sg25
S'NBA'
p257
sg27
S'106'
p258
sg28
S'794'
p259
sg30
S'218'
p260
sg31
S'435'
p261
sg33
S'197'
p262
sg34
S'31'
p263
sg36
S'BOS'
p264
sg38
S'80'
p265
sg40
S'10'
p266
sg41
S'379'
p267
sg43
S'361'
p268
sg45
S'776'
p269
sg47
S'138'
p270
sg48
S'1979-80'
p271
sg50
S'383'
p272
sg52
S'242'
p273
sg53
S'.488'
p274
sg55
S'2864'
p275
sg57
S'80'
p276
sba(isrc.gp1.models.Totals
Totals
p277
(dp278
g8
S'36'
p279
sg9
S'9'
p280
sg11
S'.499'
p281
sg13
S'618'
p282
sg14
S'.000'
p283
sg16
S'0'
p284
sg18
S'1106'
p285
sg19
S'PG'
p286
sg21
S'.816'
p287
sg23
S'.499'
p288
sg25
S'NBA'
p289
sg27
S'75'
p290
sg28
S'766'
p291
sg30
S'201'
p292
sg31
S'419'
p293
sg33
S'176'
p294
sg34
S'32'
p295
sg36
S'BOS'
p296
sg38
S'80'
p297
sg40
S'18'
p298
sg41
S'382'
p299
sg43
S'342'
p300
sg45
S'757'
p301
sg47
S'140'
p302
sg48
S'1980-81'
p303
sg50
S'382'
p304
sg52
S'265'
p305
sg53
S'.505'
p306
sg55
S'2820'
p307
sg57
S'72'
p308
sba(isrc.gp1.models.Totals
Totals
p309
(dp310
g8
S'25'
p311
sg9
S'16'
p312
sg11
S'.472'
p313
sg13
S'541'
p314
sg14
S'.375'
p315
sg16
g239
sg18
S'858'
p316
sg19
S'PG'
p317
sg21
S'.747'
p318
sg23
S'.477'
p319
sg25
S'NBA'
p320
sg27
S'52'
p321
sg28
S'652'
p322
sg30
S'131'
p323
sg31
S'316'
p324
sg33
S'116'
p325
sg34
S'33'
p326
sg36
S'BOS'
p327
sg38
S'68'
p328
sg40
S'3'
p329
sg41
S'302'
p330
sg43
S'236'
p331
sg45
S'636'
p332
sg47
S'91'
p333
sg48
S'1981-82'
p334
sg50
S'308'
p335
sg52
S'178'
p336
sg53
S'.475'
p337
sg55
S'2167'
p338
sg57
S'51'
p339
sba(isrc.gp1.models.Totals
Totals
p340
(dp341
g8
S'25'
p342
sg9
S'24'
p343
sg11
S'.425'
p344
sg13
S'409'
p345
sg14
S'.208'
p346
sg16
S'5'
p347
sg18
S'695'
p348
sg19
S'PG'
p349
sg21
S'.743'
p350
sg23
S'.429'
p351
sg25
S'NBA'
p352
sg27
S'38'
p353
sg28
S'553'
p354
sg30
S'110'
p355
sg31
S'296'
p356
sg33
S'91'
p357
sg34
S'34'
p358
sg36
S'BOS'
p359
sg38
S'66'
p360
sg40
g252
sg41
S'230'
p361
sg43
S'220'
p362
sg45
S'529'
p363
sg47
S'66'
p364
sg48
S'1982-83'
p365
sg50
S'235'
p366
sg52
S'163'
p367
sg53
S'.435'
p368
sg55
S'1811'
p369
sg57
S'19'
p370
sba(isrc.gp1.models.Totals
Totals
p371
(dp372
g8
S'16'
p373
sg9
S'18'
p374
sg11
S'.487'
p375
sg13
S'160'
p376
sg14
S'.222'
p377
sg16
g252
sg18
S'340'
p378
sg19
S'PG'
p379
sg21
S'.634'
p380
sg23
S'.495'
p381
sg25
S'NBA'
p382
sg27
S'33'
p383
sg28
S'279'
p384
sg30
S'78'
p385
sg31
S'101'
p386
sg33
S'76'
p387
sg34
S'35'
p388
sg36
S'MIL'
p389
sg38
S'46'
p390
sg40
g284
sg41
S'132'
p391
sg43
S'64'
p392
sg45
S'261'
p393
sg47
S'60'
p394
sg48
S'1983-84'
p395
sg50
S'136'
p396
sg52
S'78'
p397
sg53
S'.506'
p398
sg55
S'1038'
p399
sg57
S'46'
p400
sbasS'_college'
p401
S'University of Texas at El Paso'
p402
sS'_toYear'
p403
S'1984'
p404
sS'_height'
p405
S'6-1'
p406
sS'_active'
p407
I00
sS'_shootingHand'
p408
VLeft
p409
sS'_name'
p410
S'Tiny Archibald'
p411
sS'_per100Possessions'
p412
(lp413
(isrc.gp1.models.Per100Possession
Per100Possession
p414
(dp415
g8
S'2.0'
p416
sg9
S'.451'
p417
sg11
S'7.9'
p418
sS'_offensiveRating'
p419
g3
sg13
S'21.9'
p420
sg14
S'6.2'
p421
sg16
S'17.5'
p422
sg18
g3
sg19
S'PG'
p423
sS'_defensiveRating'
p424
g3
sg21
S'9.5'
p425
sg25
S'NBA'
p426
sg27
S'102'
p427
sg28
S'.451'
p428
sg30
g3
sg31
S'3.0'
p429
sg33
S'2.7'
p430
sg34
S'25'
p431
sg36
S'KCO'
p432
sg38
S'35'
p433
sg40
g3
sg41
S'7.5'
p434
sg43
S'2.3'
p435
sg45
S'.820'
p436
sg47
S'0.2'
p437
sg48
S'1973-74'
p438
sg50
S'17.5'
p439
sg52
g3
sg53
S'0.7'
p440
sg55
S'7.9'
p441
sg57
S'1272'
p442
sba(isrc.gp1.models.Per100Possession
Per100Possession
p443
(dp444
g8
S'1.7'
p445
sg9
S'.456'
p446
sg11
S'10.8'
p447
sg419
g3
sg13
S'30.8'
p448
sg14
S'9.2'
p449
sg16
S'23.6'
p450
sg18
g3
sg19
S'PG'
p451
sg424
g3
sg21
S'7.9'
p452
sg25
S'NBA'
p453
sg27
S'100'
p454
sg28
S'.456'
p455
sg30
g3
sg31
S'3.1'
p456
sg33
S'2.7'
p457
sg34
S'26'
p458
sg36
S'KCO'
p459
sg38
S'82'
p460
sg40
g3
sg41
S'10.6'
p461
sg43
S'2.5'
p462
sg45
S'.872'
p463
sg47
S'0.1'
p464
sg48
S'1974-75'
p465
sg50
S'23.6'
p466
sg52
g3
sg53
S'0.7'
p467
sg55
S'10.8'
p468
sg57
S'3244'
p469
sba(isrc.gp1.models.Per100Possession
Per100Possession
p470
(dp471
g8
S'1.8'
p472
sg9
S'.453'
p473
sg11
S'10.2'
p474
sg419
g3
sg13
S'27.6'
p475
sg14
S'7.1'
p476
sg16
S'22.6'
p477
sg18
g3
sg19
S'PG'
p478
sg424
g3
sg21
S'8.8'
p479
sg25
S'NBA'
p480
sg27
S'103'
p481
sg28
S'.453'
p482
sg30
g3
sg31
S'3.0'
p483
sg33
S'2.4'
p484
sg34
S'27'
p485
sg36
S'KCK'
p486
sg38
S'78'
p487
sg40
g3
sg41
S'8.9'
p488
sg43
S'2.1'
p489
sg45
S'.802'
p490
sg47
S'0.2'
p491
sg48
S'1975-76'
p492
sg50
S'22.6'
p493
sg52
g3
sg53
S'1.0'
p494
sg55
S'10.2'
p495
sg57
S'3184'
p496
sba(isrc.gp1.models.Per100Possession
Per100Possession
p497
(dp498
g8
S'2.1'
p499
sg9
S'.446'
p500
sg11
S'9.1'
p501
sg419
g3
sg13
S'25.3'
p502
sg14
S'7.1'
p503
sg16
S'20.3'
p504
sg18
g3
sg19
S'PG'
p505
sg424
g3
sg21
S'9.2'
p506
sg25
S'NBA'
p507
sg27
S'102'
p508
sg28
S'.446'
p509
sg30
g3
sg31
S'2.9'
p510
sg33
S'2.8'
p511
sg34
S'28'
p512
sg36
S'NYN'
p513
sg38
S'34'
p514
sg40
g3
sg41
S'9.1'
p515
sg43
S'2.1'
p516
sg45
S'.785'
p517
sg47
S'0.4'
p518
sg48
S'1976-77'
p519
sg50
S'20.3'
p520
sg52
g3
sg53
S'0.8'
p521
sg55
S'9.1'
p522
sg57
S'1277'
p523
sba(isrc.gp1.models.Per100Possession
Per100Possession
p524
(dp525
g8
S'1.5'
p526
sg9
S'.452'
p527
sg11
S'7.0'
p528
sg419
g3
sg13
S'3.6'
p529
sg14
S'6.6'
p530
sg16
S'15.5'
p531
sg18
g3
sg19
S'PG'
p532
sg424
g3
sg21
S'8.8'
p533
sg25
S'NBA'
p534
sg27
S'20.6'
p535
sg28
S'.452'
p536
sg30
g3
sg31
S'2.8'
p537
sg33
S'5.3'
p538
sg34
S'30'
p539
sg36
S'BOS'
p540
sg38
S'69'
p541
sg40
S'100'
p542
sg41
S'8.3'
p543
sg43
S'2.1'
p544
sg45
S'.788'
p545
sg47
S'0.2'
p546
sg48
S'1978-79'
p547
sg50
S'15.5'
p548
sg52
S'109'
p549
sg53
S'0.7'
p550
sg55
S'7.0'
p551
sg57
S'1662'
p552
sba(isrc.gp1.models.Per100Possession
Per100Possession
p553
(dp554
g8
S'1.0'
p555
sg9
S'0.3'
p556
sg11
S'.482'
p557
sg419
S'115'
p558
sg13
S'11.0'
p559
sg14
S'.222'
p560
sg16
S'0.1'
p561
sg18
S'18.5'
p562
sg19
S'PG'
p563
sg424
S'105'
p564
sg21
S'.830'
p565
sg25
S'NBA'
p566
sg27
S'1.7'
p567
sg28
S'13.0'
p568
sg30
S'3.6'
p569
sg31
S'7.1'
p570
sg33
S'3.2'
p571
sg34
S'31'
p572
sg36
S'BOS'
p573
sg38
S'80'
p574
sg40
S'0.2'
p575
sg41
S'6.2'
p576
sg43
S'5.9'
p577
sg45
S'12.7'
p578
sg47
S'2.3'
p579
sg48
S'1979-80'
p580
sg50
S'6.3'
p581
sg52
S'4.0'
p582
sg53
S'.488'
p583
sg55
S'2864'
p584
sg57
S'80'
p585
sba(isrc.gp1.models.Per100Possession
Per100Possession
p586
(dp587
g8
S'0.6'
p588
sg9
S'0.2'
p589
sg11
S'.499'
p590
sg419
S'111'
p591
sg13
S'10.4'
p592
sg14
S'.000'
p593
sg16
S'0.0'
p594
sg18
S'18.7'
p595
sg19
S'PG'
p596
sg424
S'107'
p597
sg21
S'.816'
p598
sg25
S'NBA'
p599
sg27
S'1.3'
p600
sg28
S'12.9'
p601
sg30
S'3.4'
p602
sg31
S'7.1'
p603
sg33
S'3.0'
p604
sg34
S'32'
p605
sg36
S'BOS'
p606
sg38
S'80'
p607
sg40
S'0.3'
p608
sg41
S'6.5'
p609
sg43
S'5.8'
p610
sg45
S'12.8'
p611
sg47
S'2.4'
p612
sg48
S'1980-81'
p613
sg50
S'6.5'
p614
sg52
S'4.5'
p615
sg53
S'.505'
p616
sg55
S'2820'
p617
sg57
S'72'
p618
sba(isrc.gp1.models.Per100Possession
Per100Possession
p619
(dp620
g8
S'0.5'
p621
sg9
S'0.3'
p622
sg11
S'.472'
p623
sg419
S'112'
p624
sg13
S'11.8'
p625
sg14
S'.375'
p626
sg16
S'0.1'
p627
sg18
S'18.7'
p628
sg19
S'PG'
p629
sg424
S'109'
p630
sg21
S'.747'
p631
sg25
S'NBA'
p632
sg27
S'1.1'
p633
sg28
S'14.2'
p634
sg30
S'2.9'
p635
sg31
S'6.9'
p636
sg33
S'2.5'
p637
sg34
S'33'
p638
sg36
S'BOS'
p639
sg38
S'68'
p640
sg40
S'0.1'
p641
sg41
S'6.6'
p642
sg43
S'5.2'
p643
sg45
S'13.9'
p644
sg47
S'2.0'
p645
sg48
S'1981-82'
p646
sg50
S'6.7'
p647
sg52
S'3.9'
p648
sg53
S'.475'
p649
sg55
S'2167'
p650
sg57
S'51'
p651
sba(isrc.gp1.models.Per100Possession
Per100Possession
p652
(dp653
g8
S'0.6'
p654
sg9
S'0.6'
p655
sg11
S'.425'
p656
sg419
S'104'
p657
sg13
S'10.4'
p658
sg14
S'.208'
p659
sg16
S'0.1'
p660
sg18
S'17.7'
p661
sg19
S'PG'
p662
sg424
S'108'
p663
sg21
S'.743'
p664
sg25
S'NBA'
p665
sg27
S'1.0'
p666
sg28
S'14.1'
p667
sg30
S'2.8'
p668
sg31
S'7.5'
p669
sg33
S'2.3'
p670
sg34
S'34'
p671
sg36
S'BOS'
p672
sg38
S'66'
p673
sg40
S'0.1'
p674
sg41
S'5.9'
p675
sg43
S'5.6'
p676
sg45
S'13.5'
p677
sg47
S'1.7'
p678
sg48
S'1982-83'
p679
sg50
S'6.0'
p680
sg52
S'4.2'
p681
sg53
S'.435'
p682
sg55
S'1811'
p683
sg57
S'19'
p684
sba(isrc.gp1.models.Per100Possession
Per100Possession
p685
(dp686
g8
S'0.8'
p687
sg9
S'0.9'
p688
sg11
S'.487'
p689
sg419
S'102'
p690
sg13
S'7.6'
p691
sg14
S'.222'
p692
sg16
S'0.2'
p693
sg18
S'16.2'
p694
sg19
S'PG'
p695
sg424
S'107'
p696
sg21
S'.634'
p697
sg25
S'NBA'
p698
sg27
S'1.6'
p699
sg28
S'13.3'
p700
sg30
S'3.7'
p701
sg31
S'4.8'
p702
sg33
S'3.6'
p703
sg34
S'35'
p704
sg36
S'MIL'
p705
sg38
S'46'
p706
sg40
S'0.0'
p707
sg41
S'6.3'
p708
sg43
S'3.1'
p709
sg45
S'12.5'
p710
sg47
S'2.9'
p711
sg48
S'1983-84'
p712
sg50
S'6.5'
p713
sg52
S'3.7'
p714
sg53
S'.506'
p715
sg55
S'1038'
p716
sg57
S'46'
p717
sbasS'_advanced'
p718
(lp719
(isrc.gp1.models.Advanced
Advanced
p720
(dp721
S'_offensiveReboundPercentage'
p722
S'19.9'
p723
sS'_turnOverPercentage'
p724
g3
sS'_winSharesPer48Minutes'
p725
g3
sS'_stealPercentage'
p726
S'.085'
p727
sS'_usagePercentage'
p728
g3
sS'_totalReboundsPercentage'
p729
S'1.7'
p730
sS'_defensiveBoxPlusMinus'
p731
g3
sg19
S'PG'
p732
sS'_valueOverReplacementPlayer'
p733
g3
sS'_trueShootingPercentage'
p734
S'.507'
p735
sS'_defensiveReboundPercentage'
p736
S'3.4'
p737
sS'_freeThrowsAttempRate'
p738
S'3.8'
p739
sS'_threePointsAttempRate'
p740
S'.405'
p741
sg25
S'NBA'
p742
sS'_offensiveBoxPlusMinues'
p743
g3
sS'_assistPercentage'
p744
S'5.1'
p745
sS'_defensiveWinShares'
p746
g3
sg34
S'22'
p747
sg36
S'CIN'
p748
sg38
S'82'
p749
sS'_blockPercentage'
p750
g3
sS'_playerEfficiencyRating'
p751
S'14.0'
p752
sS'_offensiveWinShares'
p753
g3
sg55
S'2867'
p754
sS'_boxPlusMinus'
p755
g3
sg48
S'1970-71'
p756
sS'_winShares'
p757
g3
sba(isrc.gp1.models.Advanced
Advanced
p758
(dp759
g722
S'33.2'
p760
sg724
g3
sg725
g3
sg726
S'.189'
p761
sg728
g3
sg729
S'1.1'
p762
sg731
g3
sg19
S'PG'
p763
sg733
g3
sg734
S'.572'
p764
sg736
S'11.8'
p765
sg738
S'3.4'
p766
sg740
S'.545'
p767
sg25
S'NBA'
p768
sg743
g3
sg744
S'12.9'
p769
sg746
g3
sg34
S'23'
p770
sg36
S'CIN'
p771
sg38
S'76'
p772
sg750
g3
sg751
S'23.0'
p773
sg753
g3
sg55
S'3272'
p774
sg755
g3
sg48
S'1971-72'
p775
sg757
g3
sba(isrc.gp1.models.Advanced
Advanced
p776
(dp777
g722
S'38.9'
p778
sg724
g3
sg725
g3
sg726
S'.186'
p779
sg728
g3
sg729
S'0.3'
p780
sg731
g3
sg19
S'PG'
p781
sg733
g3
sg734
S'.555'
p782
sg736
S'13.9'
p783
sg738
S'3.2'
p784
sg740
S'.372'
p785
sg25
S'NBA'
p786
sg743
g3
sg744
S'14.2'
p787
sg746
g3
sg34
S'24'
p788
sg36
S'KCO'
p789
sg38
S'80'
p790
sg750
g3
sg751
S'25.2'
p791
sg753
g3
sg55
S'3681'
p792
sg755
g3
sg48
S'1972-73'
p793
sg757
g3
sba(isrc.gp1.models.Advanced
Advanced
p794
(dp795
g722
S'5.3'
p796
sg724
S'0.5'
p797
sg725
S'0.6'
p798
sg726
S'0.3'
p799
sg728
S'2.3'
p800
sg729
S'30.7'
p801
sg731
g3
sg19
S'PG'
p802
sg733
g3
sg734
S'.527'
p803
sg736
S'3.5'
p804
sg738
S'1.7'
p805
sg740
S'.429'
p806
sg25
S'NBA'
p807
sg743
S'0.8'
p808
sg744
S'2.0'
p809
sg746
S'2.9'
p810
sg34
S'25'
p811
sg36
S'KCO'
p812
sg38
S'35'
p813
sg750
S'1.8'
p814
sg751
S'18.3'
p815
sg753
S'.088'
p816
sg55
S'1272'
p817
sg755
g3
sg48
S'1973-74'
p818
sg757
S'-2.3'
p819
sba(isrc.gp1.models.Advanced
Advanced
p820
(dp821
g722
S'5.6'
p822
sg724
S'2.2'
p823
sg725
S'3.6'
p824
sg726
S'0.1'
p825
sg728
S'11.2'
p826
sg729
S'29.0'
p827
sg731
g3
sg19
S'PG'
p828
sg733
g3
sg734
S'.544'
p829
sg736
S'3.5'
p830
sg738
S'1.5'
p831
sg740
S'.450'
p832
sg25
S'NBA'
p833
sg743
S'4.6'
p834
sg744
S'1.7'
p835
sg746
S'6.1'
p836
sg34
S'26'
p837
sg36
S'KCO'
p838
sg38
S'82'
p839
sg750
S'9.0'
p840
sg751
S'21.7'
p841
sg753
S'.165'
p842
sg55
S'3244'
p843
sg755
g3
sg48
S'1974-75'
p844
sg757
S'-2.5'
p845
sba(isrc.gp1.models.Advanced
Advanced
p846
(dp847
g722
S'4.7'
p848
sg724
S'1.3'
p849
sg725
S'2.3'
p850
sg726
S'0.2'
p851
sg728
S'8.0'
p852
sg729
S'31.1'
p853
sg731
g3
sg19
S'PG'
p854
sg733
g3
sg734
S'.521'
p855
sg736
S'3.4'
p856
sg738
S'2.1'
p857
sg740
S'.395'
p858
sg25
S'NBA'
p859
sg743
S'3.4'
p860
sg744
S'1.8'
p861
sg746
S'4.8'
p862
sg34
S'27'
p863
sg36
S'KCK'
p864
sg38
S'78'
p865
sg750
S'6.7'
p866
sg751
S'20.1'
p867
sg753
S'.121'
p868
sg55
S'3184'
p869
sg755
g3
sg48
S'1975-76'
p870
sg757
S'-2.6'
p871
sba(isrc.gp1.models.Advanced
Advanced
p872
(dp873
g722
S'4.8'
p874
sg724
S'1.0'
p875
sg725
S'2.2'
p876
sg726
S'0.5'
p877
sg728
S'2.8'
p878
sg729
S'33.8'
p879
sg731
g3
sg19
S'PG'
p880
sg733
g3
sg734
S'.520'
p881
sg736
S'3.2'
p882
sg738
S'1.7'
p883
sg740
S'.448'
p884
sg25
S'NBA'
p885
sg743
S'1.4'
p886
sg744
S'2.1'
p887
sg746
S'4.1'
p888
sg34
S'28'
p889
sg36
S'NYN'
p890
sg38
S'34'
p891
sg750
S'1.8'
p892
sg751
S'19.4'
p893
sg753
S'.104'
p894
sg55
S'1277'
p895
sg755
g3
sg48
S'1976-77'
p896
sg757
S'-1.9'
p897
sba(isrc.gp1.models.Advanced
Advanced
p898
(dp899
g722
S'5.3'
p900
sg724
S'21.3'
p901
sg725
S'-1.5'
p902
sg726
S'0.2'
p903
sg728
S'1.0'
p904
sg729
S'26.3'
p905
sg731
S'-4.7'
p906
sg19
S'PG'
p907
sg733
g3
sg734
S'.537'
p908
sg736
S'3.4'
p909
sg738
S'1.7'
p910
sg740
S'.536'
p911
sg25
S'NBA'
p912
sg743
S'-3.1'
p913
sg744
S'1.5'
p914
sg746
S'1.6'
p915
sg34
S'30'
p916
sg36
S'BOS'
p917
sg38
S'69'
p918
sg750
S'21.8'
p919
sg751
S'13.1'
p920
sg753
S'0.6'
p921
sg55
S'1662'
p922
sg755
S'-1.1'
p923
sg48
S'1978-79'
p924
sg757
S'.046'
p925
sba(isrc.gp1.models.Advanced
Advanced
p926
(dp927
g722
S'2.3'
p928
sg724
S'19.7'
p929
sg725
S'.148'
p930
sg726
S'1.7'
p931
sg728
S'17.0'
p932
sg729
S'3.8'
p933
sg731
S'-1.1'
p934
sg19
S'PG'
p935
sg733
S'1.5'
p936
sg734
S'.574'
p937
sg736
S'5.3'
p938
sg738
S'.548'
p939
sg740
S'.023'
p940
sg25
S'NBA'
p941
sg743
S'1.1'
p942
sg744
S'30.2'
p943
sg746
S'2.9'
p944
sg34
S'31'
p945
sg36
S'BOS'
p946
sg38
S'80'
p947
sg750
S'0.2'
p948
sg751
S'15.3'
p949
sg753
S'5.9'
p950
sg55
S'2864'
p951
sg755
S'0.0'
p952
sg48
S'1979-80'
p953
sg757
S'8.9'
p954
sba(isrc.gp1.models.Advanced
Advanced
p955
(dp956
g722
S'1.5'
p957
sg724
S'21.8'
p958
sg725
S'.118'
p959
sg726
S'1.3'
p960
sg728
S'17.5'
p961
sg729
S'3.6'
p962
sg731
S'-1.6'
p963
sg19
S'PG'
p964
sg733
S'0.5'
p965
sg734
S'.582'
p966
sg736
S'5.4'
p967
sg738
S'.547'
p968
sg740
S'.012'
p969
sg25
S'NBA'
p970
sg743
S'0.4'
p971
sg744
S'28.5'
p972
sg746
S'2.3'
p973
sg34
S'32'
p974
sg36
S'BOS'
p975
sg38
S'80'
p976
sg750
S'0.4'
p977
sg751
S'14.3'
p978
sg753
S'4.6'
p979
sg55
S'2820'
p980
sg755
S'-1.3'
p981
sg48
S'1980-81'
p982
sg757
S'6.9'
p983
sba(isrc.gp1.models.Advanced
Advanced
p984
(dp985
g722
S'1.3'
p986
sg724
S'18.4'
p987
sg725
S'.115'
p988
sg726
S'1.1'
p989
sg728
S'17.9'
p990
sg729
S'2.9'
p991
sg731
S'-2.5'
p992
sg19
S'PG'
p993
sg733
S'-0.2'
p994
sg734
S'.542'
p995
sg736
S'4.5'
p996
sg738
S'.485'
p997
sg740
S'.025'
p998
sg25
S'NBA'
p999
sg743
S'0.1'
p1000
sg744
S'31.9'
p1001
sg746
S'1.8'
p1002
sg34
S'33'
p1003
sg36
S'BOS'
p1004
sg38
S'68'
p1005
sg750
S'0.1'
p1006
sg751
S'14.3'
p1007
sg753
S'3.4'
p1008
sg55
S'2167'
p1009
sg755
S'-2.5'
p1010
sg48
S'1981-82'
p1011
sg757
S'5.2'
p1012
sba(isrc.gp1.models.Advanced
Advanced
p1013
(dp1014
g722
S'1.5'
p1015
sg724
S'19.3'
p1016
sg725
S'.077'
p1017
sg726
S'1.0'
p1018
sg728
S'18.3'
p1019
sg729
S'2.7'
p1020
sg731
S'-3.0'
p1021
sg19
S'PG'
p1022
sg733
S'-1.1'
p1023
sg734
S'.509'
p1024
sg736
S'3.9'
p1025
sg738
S'.535'
p1026
sg740
S'.043'
p1027
sg25
S'NBA'
p1028
sg743
S'-1.3'
p1029
sg744
S'28.0'
p1030
sg746
S'1.2'
p1031
sg34
S'34'
p1032
sg36
S'BOS'
p1033
sg38
S'66'
p1034
sg750
S'0.1'
p1035
sg751
S'12.3'
p1036
sg753
S'1.7'
p1037
sg55
S'1811'
p1038
sg755
S'-4.4'
p1039
sg48
S'1982-83'
p1040
sg757
S'2.9'
p1041
sba(isrc.gp1.models.Advanced
Advanced
p1042
(dp1043
g722
S'1.8'
p1044
sg724
S'19.4'
p1045
sg725
S'.065'
p1046
sg726
S'1.6'
p1047
sg728
S'16.3'
p1048
sg729
S'4.2'
p1049
sg731
S'-1.0'
p1050
sg19
S'PG'
p1051
sg733
S'-0.3'
p1052
sg734
S'.526'
p1053
sg736
S'6.3'
p1054
sg738
S'.362'
p1055
sg740
S'.065'
p1056
sg25
S'NBA'
p1057
sg743
S'-2.1'
p1058
sg744
S'21.1'
p1059
sg746
S'1.1'
p1060
sg34
S'35'
p1061
sg36
S'MIL'
p1062
sg38
S'46'
p1063
sg750
S'0.0'
p1064
sg751
S'10.6'
p1065
sg753
S'0.3'
p1066
sg55
S'1038'
p1067
sg755
S'-3.1'
p1068
sg48
S'1983-84'
p1069
sg757
S'1.4'
p1070
sbasS'_per36Minutes'
p1071
(lp1072
(isrc.gp1.models.Per36Minutes
Per36Minutes
p1073
(dp1074
g8
g3
sg9
S'.444'
p1075
sg11
S'6.1'
p1076
sg13
g3
sg14
S'4.2'
p1077
sg16
S'13.7'
p1078
sg18
g3
sg19
S'PG'
p1079
sg21
S'16.4'
p1080
sg25
S'NBA'
p1081
sg27
g3
sg28
S'.444'
p1082
sg30
g3
sg31
S'2.7'
p1083
sg33
g3
sg34
S'22'
p1084
sg36
S'CIN'
p1085
sg38
S'82'
p1086
sg40
g3
sg41
S'5.6'
p1087
sg43
S'5.7'
p1088
sg45
S'.757'
p1089
sg47
g3
sg48
S'1970-71'
p1090
sg50
S'13.7'
p1091
sg52
g3
sg53
S'3.0'
p1092
sg55
S'6.1'
p1093
sg57
S'2867'
p1094
sba(isrc.gp1.models.Per36Minutes
Per36Minutes
p1095
(dp1096
g8
g3
sg9
S'.486'
p1097
sg11
S'8.1'
p1098
sg13
g3
sg14
S'7.4'
p1099
sg16
S'16.6'
p1100
sg18
g3
sg19
S'PG'
p1101
sg21
S'23.6'
p1102
sg25
S'NBA'
p1103
sg27
g3
sg28
S'.486'
p1104
sg30
g3
sg31
S'2.2'
p1105
sg33
g3
sg34
S'23'
p1106
sg36
S'CIN'
p1107
sg38
S'76'
p1108
sg40
g3
sg41
S'9.1'
p1109
sg43
S'7.7'
p1110
sg45
S'.822'
p1111
sg47
g3
sg48
S'1971-72'
p1112
sg50
S'16.6'
p1113
sg52
g3
sg53
S'2.4'
p1114
sg55
S'8.1'
p1115
sg57
S'3272'
p1116
sba(isrc.gp1.models.Per36Minutes
Per36Minutes
p1117
(dp1118
g8
g3
sg9
S'.488'
p1119
sg11
S'10.1'
p1120
sg13
g3
sg14
S'6.5'
p1121
sg16
S'20.6'
p1122
sg18
g3
sg19
S'PG'
p1123
sg21
S'26.6'
p1124
sg25
S'NBA'
p1125
sg27
g3
sg28
S'.488'
p1126
sg30
g3
sg31
S'2.0'
p1127
sg33
g3
sg34
S'24'
p1128
sg36
S'KCO'
p1129
sg38
S'80'
p1130
sg40
g3
sg41
S'7.7'
p1131
sg43
S'8.9'
p1132
sg45
S'.847'
p1133
sg47
g3
sg48
S'1972-73'
p1134
sg50
S'20.6'
p1135
sg52
g3
sg53
S'2.2'
p1136
sg55
S'10.1'
p1137
sg57
S'3681'
p1138
sba(isrc.gp1.models.Per36Minutes
Per36Minutes
p1139
(dp1140
g8
S'1.6'
p1141
sg9
S'.451'
p1142
sg11
S'6.3'
p1143
sg13
S'17.5'
p1144
sg14
S'4.9'
p1145
sg16
S'13.9'
p1146
sg18
g3
sg19
S'PG'
p1147
sg21
S'7.5'
p1148
sg25
S'NBA'
p1149
sg27
g3
sg28
S'.451'
p1150
sg30
g3
sg31
S'2.4'
p1151
sg33
S'2.2'
p1152
sg34
S'25'
p1153
sg36
S'KCO'
p1154
sg38
S'35'
p1155
sg40
g3
sg41
S'6.0'
p1156
sg43
S'1.8'
p1157
sg45
S'.820'
p1158
sg47
S'0.2'
p1159
sg48
S'1973-74'
p1160
sg50
S'13.9'
p1161
sg52
g3
sg53
S'0.6'
p1162
sg55
S'6.3'
p1163
sg57
S'1272'
p1164
sba(isrc.gp1.models.Per36Minutes
Per36Minutes
p1165
(dp1166
g8
S'1.3'
p1167
sg9
S'.456'
p1168
sg11
S'8.4'
p1169
sg13
S'24.1'
p1170
sg14
S'7.2'
p1171
sg16
S'18.5'
p1172
sg18
g3
sg19
S'PG'
p1173
sg21
S'6.2'
p1174
sg25
S'NBA'
p1175
sg27
g3
sg28
S'.456'
p1176
sg30
g3
sg31
S'2.5'
p1177
sg33
S'2.1'
p1178
sg34
S'26'
p1179
sg36
S'KCO'
p1180
sg38
S'82'
p1181
sg40
g3
sg41
S'8.3'
p1182
sg43
S'1.9'
p1183
sg45
S'.872'
p1184
sg47
S'0.1'
p1185
sg48
S'1974-75'
p1186
sg50
S'18.5'
p1187
sg52
g3
sg53
S'0.5'
p1188
sg55
S'8.4'
p1189
sg57
S'3244'
p1190
sba(isrc.gp1.models.Per36Minutes
Per36Minutes
p1191
(dp1192
g8
S'1.4'
p1193
sg9
S'.453'
p1194
sg11
S'8.1'
p1195
sg13
S'21.9'
p1196
sg14
S'5.7'
p1197
sg16
S'17.9'
p1198
sg18
g3
sg19
S'PG'
p1199
sg21
S'7.0'
p1200
sg25
S'NBA'
p1201
sg27
g3
sg28
S'.453'
p1202
sg30
g3
sg31
S'2.4'
p1203
sg33
S'1.9'
p1204
sg34
S'27'
p1205
sg36
S'KCK'
p1206
sg38
S'78'
p1207
sg40
g3
sg41
S'7.1'
p1208
sg43
S'1.7'
p1209
sg45
S'.802'
p1210
sg47
S'0.2'
p1211
sg48
S'1975-76'
p1212
sg50
S'17.9'
p1213
sg52
g3
sg53
S'0.8'
p1214
sg55
S'8.1'
p1215
sg57
S'3184'
p1216
sba(isrc.gp1.models.Per36Minutes
Per36Minutes
p1217
(dp1218
g8
S'1.7'
p1219
sg9
S'.446'
p1220
sg11
S'7.0'
p1221
sg13
S'19.6'
p1222
sg14
S'5.6'
p1223
sg16
S'15.8'
p1224
sg18
g3
sg19
S'PG'
p1225
sg21
S'7.2'
p1226
sg25
S'NBA'
p1227
sg27
g3
sg28
S'.446'
p1228
sg30
g3
sg31
S'2.3'
p1229
sg33
S'2.2'
p1230
sg34
S'28'
p1231
sg36
S'NYN'
p1232
sg38
S'34'
p1233
sg40
g3
sg41
S'7.1'
p1234
sg43
S'1.6'
p1235
sg45
S'.785'
p1236
sg47
S'0.3'
p1237
sg48
S'1976-77'
p1238
sg50
S'15.8'
p1239
sg52
g3
sg53
S'0.6'
p1240
sg55
S'7.0'
p1241
sg57
S'1277'
p1242
sba(isrc.gp1.models.Per36Minutes
Per36Minutes
p1243
(dp1244
g8
S'1.2'
p1245
sg9
S'.452'
p1246
sg11
S'5.6'
p1247
sg13
S'2.9'
p1248
sg14
S'5.2'
p1249
sg16
S'12.4'
p1250
sg18
g3
sg19
S'PG'
p1251
sg21
S'7.0'
p1252
sg25
S'NBA'
p1253
sg27
S'16.5'
p1254
sg28
S'.452'
p1255
sg30
g3
sg31
S'2.2'
p1256
sg33
S'4.3'
p1257
sg34
S'30'
p1258
sg36
S'BOS'
p1259
sg38
S'69'
p1260
sg40
g3
sg41
S'6.6'
p1261
sg43
S'1.7'
p1262
sg45
S'.788'
p1263
sg47
S'0.1'
p1264
sg48
S'1978-79'
p1265
sg50
S'12.4'
p1266
sg52
g3
sg53
S'0.5'
p1267
sg55
S'5.6'
p1268
sg57
S'1662'
p1269
sba(isrc.gp1.models.Per36Minutes
Per36Minutes
p1270
(dp1271
g8
S'0.7'
p1272
sg9
S'0.2'
p1273
sg11
S'.482'
p1274
sg13
S'8.4'
p1275
sg14
S'.222'
p1276
sg16
S'0.1'
p1277
sg18
S'14.2'
p1278
sg19
S'PG'
p1279
sg21
S'.830'
p1280
sg25
S'NBA'
p1281
sg27
S'1.3'
p1282
sg28
S'10.0'
p1283
sg30
S'2.7'
p1284
sg31
S'5.5'
p1285
sg33
S'2.5'
p1286
sg34
S'31'
p1287
sg36
S'BOS'
p1288
sg38
S'80'
p1289
sg40
S'0.1'
p1290
sg41
S'4.8'
p1291
sg43
S'4.5'
p1292
sg45
S'9.8'
p1293
sg47
S'1.7'
p1294
sg48
S'1979-80'
p1295
sg50
S'4.8'
p1296
sg52
S'3.0'
p1297
sg53
S'.488'
p1298
sg55
S'2864'
p1299
sg57
S'80'
p1300
sba(isrc.gp1.models.Per36Minutes
Per36Minutes
p1301
(dp1302
g8
S'0.5'
p1303
sg9
S'0.1'
p1304
sg11
S'.499'
p1305
sg13
S'7.9'
p1306
sg14
S'.000'
p1307
sg16
S'0.0'
p1308
sg18
S'14.1'
p1309
sg19
S'PG'
p1310
sg21
S'.816'
p1311
sg25
S'NBA'
p1312
sg27
S'1.0'
p1313
sg28
S'9.8'
p1314
sg30
S'2.6'
p1315
sg31
S'5.3'
p1316
sg33
S'2.2'
p1317
sg34
S'32'
p1318
sg36
S'BOS'
p1319
sg38
S'80'
p1320
sg40
S'0.2'
p1321
sg41
S'4.9'
p1322
sg43
S'4.4'
p1323
sg45
S'9.7'
p1324
sg47
S'1.8'
p1325
sg48
S'1980-81'
p1326
sg50
S'4.9'
p1327
sg52
S'3.4'
p1328
sg53
S'.505'
p1329
sg55
S'2820'
p1330
sg57
S'72'
p1331
sba(isrc.gp1.models.Per36Minutes
Per36Minutes
p1332
(dp1333
g8
S'0.4'
p1334
sg9
S'0.3'
p1335
sg11
S'.472'
p1336
sg13
S'9.0'
p1337
sg14
S'.375'
p1338
sg16
S'0.1'
p1339
sg18
S'14.3'
p1340
sg19
S'PG'
p1341
sg21
S'.747'
p1342
sg25
S'NBA'
p1343
sg27
S'0.9'
p1344
sg28
S'10.8'
p1345
sg30
S'2.2'
p1346
sg31
S'5.2'
p1347
sg33
S'1.9'
p1348
sg34
S'33'
p1349
sg36
S'BOS'
p1350
sg38
S'68'
p1351
sg40
S'0.0'
p1352
sg41
S'5.0'
p1353
sg43
S'3.9'
p1354
sg45
S'10.6'
p1355
sg47
S'1.5'
p1356
sg48
S'1981-82'
p1357
sg50
S'5.1'
p1358
sg52
S'3.0'
p1359
sg53
S'.475'
p1360
sg55
S'2167'
p1361
sg57
S'51'
p1362
sba(isrc.gp1.models.Per36Minutes
Per36Minutes
p1363
(dp1364
g8
S'0.5'
p1365
sg9
S'0.5'
p1366
sg11
S'.425'
p1367
sg13
S'8.1'
p1368
sg14
S'.208'
p1369
sg16
S'0.1'
p1370
sg18
S'13.8'
p1371
sg19
S'PG'
p1372
sg21
S'.743'
p1373
sg25
S'NBA'
p1374
sg27
S'0.8'
p1375
sg28
S'11.0'
p1376
sg30
S'2.2'
p1377
sg31
S'5.9'
p1378
sg33
S'1.8'
p1379
sg34
S'34'
p1380
sg36
S'BOS'
p1381
sg38
S'66'
p1382
sg40
S'0.1'
p1383
sg41
S'4.6'
p1384
sg43
S'4.4'
p1385
sg45
S'10.5'
p1386
sg47
S'1.3'
p1387
sg48
S'1982-83'
p1388
sg50
S'4.7'
p1389
sg52
S'3.2'
p1390
sg53
S'.435'
p1391
sg55
S'1811'
p1392
sg57
S'19'
p1393
sba(isrc.gp1.models.Per36Minutes
Per36Minutes
p1394
(dp1395
g8
S'0.6'
p1396
sg9
S'0.6'
p1397
sg11
S'.487'
p1398
sg13
S'5.5'
p1399
sg14
S'.222'
p1400
sg16
S'0.1'
p1401
sg18
S'11.8'
p1402
sg19
S'PG'
p1403
sg21
S'.634'
p1404
sg25
S'NBA'
p1405
sg27
S'1.1'
p1406
sg28
S'9.7'
p1407
sg30
S'2.7'
p1408
sg31
S'3.5'
p1409
sg33
S'2.6'
p1410
sg34
S'35'
p1411
sg36
S'MIL'
p1412
sg38
S'46'
p1413
sg40
S'0.0'
p1414
sg41
S'4.6'
p1415
sg43
S'2.2'
p1416
sg45
S'9.1'
p1417
sg47
S'2.1'
p1418
sg48
S'1983-84'
p1419
sg50
S'4.7'
p1420
sg52
S'2.7'
p1421
sg53
S'.506'
p1422
sg55
S'1038'
p1423
sg57
S'46'
p1424
sbasS'_fromYear'
p1425
S'1971'
p1426
sS'_url'
p1427
S'http://www.basketball-reference.com/players/a/architi01.html'
p1428
sS'_perGame'
p1429
(isrc.gp1.models.PerGame
PerGame
p1430
(dp1431
g8
S'0.3'
p1432
sg9
S'0.4'
p1433
sg11
S'.487'
p1434
sS'_effectiveFieldGalPercentage'
p1435
S'.495'
p1436
sg13
S'3.5'
p1437
sg14
S'.222'
p1438
sg16
S'0.1'
p1439
sg18
S'7.4'
p1440
sg19
S'PG'
p1441
sg21
S'.634'
p1442
sg25
S'NBA'
p1443
sg27
S'0.7'
p1444
sg30
S'1.7'
p1445
sS'_fieldGoalsttempted'
p1446
S'6.1'
p1447
sg31
S'2.2'
p1448
sg33
S'1.7'
p1449
sg34
S'35'
p1450
sg36
S'MIL'
p1451
sg38
S'46'
p1452
sg40
S'0.0'
p1453
sg41
S'2.9'
p1454
sg43
S'1.4'
p1455
sg45
S'5.7'
p1456
sg47
S'1.3'
p1457
sg48
S'1983-84'
p1458
sg50
S'3.0'
p1459
sg52
S'1.7'
p1460
sg53
S'.506'
p1461
sg55
S'22.6'
p1462
sg57
S'46'
p1463
sbsS'_weight'
p1464
S'150'
p1465
sS'_dob'
p1466
S'2-9-1948'
p1467
sS'_salary'
p1468
(lp1469
sg19
S'G'
p1470
sb.