(isrc.gp1.models.Player
Player
p0
(dp1
S'_experience'
p2
S'NA'
p3
sS'_totals'
p4
(lp5
(isrc.gp1.models.Totals
Totals
p6
(dp7
S'_offensiveRebounds'
p8
g3
sS'_threePointsAttempted'
p9
g3
sS'_fieldGoalsPercentage'
p10
S'.399'
p11
sS'_assist'
p12
S'30'
p13
sS'_threePointsPercentage'
p14
g3
sS'_threePoints'
p15
g3
sS'_points'
p16
S'247'
p17
sS'_position'
p18
S'SG'
p19
sS'_freeThrowsPercentage'
p20
S'.750'
p21
sS'_effectiveFieldGoalPercentage'
p22
S'.399'
p23
sS'_league'
p24
S'NBA'
p25
sS'_steals'
p26
g3
sS'_fieldGoalsAttempted'
p27
S'253'
p28
sS'_personalFouls'
p29
S'60'
p30
sS'_freeThrowsAttempted'
p31
S'60'
p32
sS'_totalRebounds'
p33
S'146'
p34
sS'_age'
p35
S'22'
p36
sS'_team'
p37
S'BOS'
p38
sS'_games'
p39
S'53'
p40
sS'_blocks'
p41
g3
sS'_twoPoints'
p42
S'101'
p43
sS'_freeThrows'
p44
S'45'
p45
sS'_twoPointsAttempted'
p46
S'253'
p47
sS'_defensiveRebounds'
p48
g3
sS'_season'
p49
S'1954-55'
p50
sS'_fieldGoals'
p51
S'101'
p52
sS'_turnOvers'
p53
g3
sS'_twoPointsPercentage'
p54
S'.399'
p55
sS'_minutesPlayed'
p56
S'504'
p57
sS'_gamesStarted'
p58
g3
sba(isrc.gp1.models.Totals
Totals
p59
(dp60
g8
g3
sg9
g3
sg10
S'.389'
p61
sg12
S'42'
p62
sg14
g3
sg15
g3
sg16
S'375'
p63
sg18
S'SF'
p64
sg20
S'.685'
p65
sg22
S'.389'
p66
sg24
S'NBA'
p67
sg26
g3
sg27
S'373'
p68
sg29
S'87'
p69
sg31
S'124'
p70
sg33
S'182'
p71
sg35
S'23'
p72
sg37
S'BOS'
p73
sg39
S'63'
p74
sg41
g3
sg42
S'145'
p75
sg44
S'85'
p76
sg46
S'373'
p77
sg48
g3
sg49
S'1955-56'
p78
sg51
S'145'
p79
sg53
g3
sg54
S'.389'
p80
sg56
S'703'
p81
sg58
g3
sba(isrc.gp1.models.Totals
Totals
p82
(dp83
g8
g3
sg9
g3
sg10
S'.368'
p84
sg12
S'49'
p85
sg14
g3
sg15
g3
sg16
S'556'
p86
sg18
S'SF'
p87
sg20
S'.777'
p88
sg22
S'.368'
p89
sg24
S'NBA'
p90
sg26
g3
sg27
S'571'
p91
sg29
S'117'
p92
sg31
S'175'
p93
sg33
S'262'
p94
sg35
S'24'
p95
sg37
S'TOT'
p96
sg39
S'63'
p97
sg41
g3
sg42
S'210'
p98
sg44
S'136'
p99
sg46
S'571'
p100
sg48
g3
sg49
S'1956-57'
p101
sg51
S'210'
p102
sg53
g3
sg54
S'.368'
p103
sg56
S'1013'
p104
sg58
g3
sba(isrc.gp1.models.Totals
Totals
p105
(dp106
g8
g3
sg9
g3
sg10
S'.347'
p107
sg12
S'8'
p108
sg14
g3
sg15
g3
sg16
S'105'
p109
sg18
S'SF'
p110
sg20
S'.719'
p111
sg22
S'.347'
p112
sg24
S'NBA'
p113
sg26
g3
sg27
S'118'
p114
sg29
S'23'
p115
sg31
S'32'
p116
sg33
S'75'
p117
sg35
S'24'
p118
sg37
S'BOS'
p119
sg39
S'21'
p120
sg41
g3
sg42
S'41'
p121
sg44
S'23'
p122
sg46
S'118'
p123
sg48
g3
sg49
S'1956-57'
p124
sg51
S'41'
p125
sg53
g3
sg54
S'.347'
p126
sg56
S'233'
p127
sg58
g3
sba(isrc.gp1.models.Totals
Totals
p128
(dp129
g8
g3
sg9
g3
sg10
S'.373'
p130
sg12
S'41'
p131
sg14
g3
sg15
g3
sg16
S'451'
p132
sg18
S'SF'
p133
sg20
S'.790'
p134
sg22
S'.373'
p135
sg24
S'NBA'
p136
sg26
g3
sg27
S'453'
p137
sg29
S'94'
p138
sg31
S'143'
p139
sg33
S'187'
p140
sg35
S'24'
p141
sg37
S'SYR'
p142
sg39
S'42'
p143
sg41
g3
sg42
S'169'
p144
sg44
S'113'
p145
sg46
S'453'
p146
sg48
g3
sg49
S'1956-57'
p147
sg51
S'169'
p148
sg53
g3
sg54
S'.373'
p149
sg56
S'780'
p150
sg58
g3
sba(isrc.gp1.models.Totals
Totals
p151
(dp152
g8
g3
sg9
g3
sg10
S'.394'
p153
sg12
S'42'
p154
sg14
g3
sg15
g3
sg16
S'579'
p155
sg18
S'SF'
p156
sg20
S'.719'
p157
sg22
S'.394'
p158
sg24
S'NBA'
p159
sg26
g3
sg27
S'579'
p160
sg29
S'125'
p161
sg31
S'171'
p162
sg33
S'243'
p163
sg35
S'25'
p164
sg37
S'SYR'
p165
sg39
S'67'
p166
sg41
g3
sg42
S'228'
p167
sg44
S'123'
p168
sg46
S'579'
p169
sg48
g3
sg49
S'1957-58'
p170
sg51
S'228'
p171
sg53
g3
sg54
S'.394'
p172
sg56
S'1001'
p173
sg58
g3
sba(isrc.gp1.models.Totals
Totals
p174
(dp175
g8
g3
sg9
g3
sg10
S'.392'
p176
sg12
S'67'
p177
sg14
g3
sg15
g3
sg16
S'595'
p178
sg18
S'SF'
p179
sg20
S'.728'
p180
sg22
S'.392'
p181
sg24
S'NBA'
p182
sg26
g3
sg27
S'612'
p183
sg29
S'174'
p184
sg31
S'158'
p185
sg33
S'266'
p186
sg35
S'26'
p187
sg37
S'SYR'
p188
sg39
S'71'
p189
sg41
g3
sg42
S'240'
p190
sg44
S'115'
p191
sg46
S'612'
p192
sg48
g3
sg49
S'1958-59'
p193
sg51
S'240'
p194
sg53
g3
sg54
S'.392'
p195
sg56
S'1053'
p196
sg58
g3
sba(isrc.gp1.models.Totals
Totals
p197
(dp198
g8
g3
sg9
g3
sg10
S'.317'
p199
sg12
S'3'
p200
sg14
g3
sg15
g3
sg16
S'30'
p201
sg18
S'SF'
p202
sg20
S'.500'
p203
sg22
S'.317'
p204
sg24
S'NBA'
p205
sg26
g3
sg27
S'41'
p206
sg29
S'7'
p207
sg31
g108
sg33
S'14'
p208
sg35
S'27'
p209
sg37
S'SYR'
p210
sg39
g207
sg41
g3
sg42
S'13'
p211
sg44
S'4'
p212
sg46
S'41'
p213
sg48
g3
sg49
S'1959-60'
p214
sg51
S'13'
p215
sg53
g3
sg54
S'.317'
p216
sg56
S'70'
p217
sg58
g3
sbasS'_college'
p218
S'College of the Holy Cross'
p219
sS'_toYear'
p220
S'1960'
p221
sS'_height'
p222
S'6-4'
p223
sS'_active'
p224
I00
sS'_shootingHand'
p225
VRight
p226
sS'_name'
p227
S'Togo Palazzi'
p228
sS'_per100Possessions'
p229
(lp230
sS'_advanced'
p231
(lp232
(isrc.gp1.models.Advanced
Advanced
p233
(dp234
S'_offensiveReboundPercentage'
p235
g3
sS'_turnOverPercentage'
p236
g3
sS'_winSharesPer48Minutes'
p237
S'.053'
p238
sS'_stealPercentage'
p239
g3
sS'_usagePercentage'
p240
g3
sS'_totalReboundsPercentage'
p241
g3
sS'_defensiveBoxPlusMinus'
p242
g3
sg18
S'SG'
p243
sS'_valueOverReplacementPlayer'
p244
g3
sS'_trueShootingPercentage'
p245
S'.442'
p246
sS'_defensiveReboundPercentage'
p247
g3
sS'_freeThrowsAttempRate'
p248
S'.237'
p249
sS'_threePointsAttempRate'
p250
g3
sg24
S'NBA'
p251
sS'_offensiveBoxPlusMinues'
p252
g3
sS'_assistPercentage'
p253
g3
sS'_defensiveWinShares'
p254
S'0.3'
p255
sg35
S'22'
p256
sg37
S'BOS'
p257
sg39
S'53'
p258
sS'_blockPercentage'
p259
g3
sS'_playerEfficiencyRating'
p260
S'15.0'
p261
sS'_offensiveWinShares'
p262
S'0.3'
p263
sg56
S'504'
p264
sS'_boxPlusMinus'
p265
g3
sg49
S'1954-55'
p266
sS'_winShares'
p267
S'0.6'
p268
sba(isrc.gp1.models.Advanced
Advanced
p269
(dp270
g235
g3
sg236
g3
sg237
S'.057'
p271
sg239
g3
sg240
g3
sg241
g3
sg242
g3
sg18
S'SF'
p272
sg244
g3
sg245
S'.439'
p273
sg247
g3
sg248
S'.332'
p274
sg250
g3
sg24
S'NBA'
p275
sg252
g3
sg253
g3
sg254
S'0.5'
p276
sg35
S'23'
p277
sg37
S'BOS'
p278
sg39
S'63'
p279
sg259
g3
sg260
S'14.8'
p280
sg262
S'0.3'
p281
sg56
S'703'
p282
sg265
g3
sg49
S'1955-56'
p283
sg267
S'0.8'
p284
sba(isrc.gp1.models.Advanced
Advanced
p285
(dp286
g235
g3
sg236
g3
sg237
S'.078'
p287
sg239
g3
sg240
g3
sg241
g3
sg242
g3
sg18
S'SF'
p288
sg244
g3
sg245
S'.429'
p289
sg247
g3
sg248
S'.306'
p290
sg250
g3
sg24
S'NBA'
p291
sg252
g3
sg253
g3
sg254
S'1.2'
p292
sg35
S'24'
p293
sg37
S'TOT'
p294
sg39
S'63'
p295
sg259
g3
sg260
S'16.1'
p296
sg262
S'0.5'
p297
sg56
S'1013'
p298
sg265
g3
sg49
S'1956-57'
p299
sg267
S'1.6'
p300
sba(isrc.gp1.models.Advanced
Advanced
p301
(dp302
g235
g3
sg236
g3
sg237
S'.052'
p303
sg239
g3
sg240
g3
sg241
g3
sg242
g3
sg18
S'SF'
p304
sg244
g3
sg245
S'.397'
p305
sg247
g3
sg248
S'.271'
p306
sg250
g3
sg24
S'NBA'
p307
sg252
g3
sg253
g3
sg254
S'0.4'
p308
sg35
S'24'
p309
sg37
S'BOS'
p310
sg39
S'21'
p311
sg259
g3
sg260
S'13.4'
p312
sg262
S'-0.2'
p313
sg56
S'233'
p314
sg265
g3
sg49
S'1956-57'
p315
sg267
S'0.3'
p316
sba(isrc.gp1.models.Advanced
Advanced
p317
(dp318
g235
g3
sg236
g3
sg237
S'.086'
p319
sg239
g3
sg240
g3
sg241
g3
sg242
g3
sg18
S'SF'
p320
sg244
g3
sg245
S'.437'
p321
sg247
g3
sg248
S'.316'
p322
sg250
g3
sg24
S'NBA'
p323
sg252
g3
sg253
g3
sg254
S'0.8'
p324
sg35
S'24'
p325
sg37
S'SYR'
p326
sg39
S'42'
p327
sg259
g3
sg260
S'16.9'
p328
sg262
S'0.6'
p329
sg56
S'780'
p330
sg265
g3
sg49
S'1956-57'
p331
sg267
S'1.4'
p332
sba(isrc.gp1.models.Advanced
Advanced
p333
(dp334
g235
g3
sg236
g3
sg237
S'.094'
p335
sg239
g3
sg240
g3
sg241
g3
sg242
g3
sg18
S'SF'
p336
sg244
g3
sg245
S'.442'
p337
sg247
g3
sg248
S'.295'
p338
sg250
g3
sg24
S'NBA'
p339
sg252
g3
sg253
g3
sg254
S'1.0'
p340
sg35
S'25'
p341
sg37
S'SYR'
p342
sg39
S'67'
p343
sg259
g3
sg260
S'15.8'
p344
sg262
S'1.0'
p345
sg56
S'1001'
p346
sg265
g3
sg49
S'1957-58'
p347
sg267
S'2.0'
p348
sba(isrc.gp1.models.Advanced
Advanced
p349
(dp350
g235
g3
sg236
g3
sg237
S'.076'
p351
sg239
g3
sg240
g3
sg241
g3
sg242
g3
sg18
S'SF'
p352
sg244
g3
sg245
S'.437'
p353
sg247
g3
sg248
S'.258'
p354
sg250
g3
sg24
S'NBA'
p355
sg252
g3
sg253
g3
sg254
S'1.1'
p356
sg35
S'26'
p357
sg37
S'SYR'
p358
sg39
S'71'
p359
sg259
g3
sg260
S'14.7'
p360
sg262
S'0.5'
p361
sg56
S'1053'
p362
sg265
g3
sg49
S'1958-59'
p363
sg267
S'1.7'
p364
sba(isrc.gp1.models.Advanced
Advanced
p365
(dp366
g235
g3
sg236
g3
sg237
S'-0.113'
p367
sg239
g3
sg240
g3
sg241
g3
sg242
g3
sg18
S'SF'
p368
sg244
g3
sg245
S'.337'
p369
sg247
g3
sg248
S'.195'
p370
sg250
g3
sg24
S'NBA'
p371
sg252
g3
sg253
g3
sg254
S'0.1'
p372
sg35
S'27'
p373
sg37
S'SYR'
p374
sg39
g207
sg259
g3
sg260
S'6.0'
p375
sg262
S'-0.2'
p376
sg56
S'70'
p377
sg265
g3
sg49
S'1959-60'
p378
sg267
S'-0.2'
p379
sbasS'_per36Minutes'
p380
(lp381
(isrc.gp1.models.Per36Minutes
Per36Minutes
p382
(dp383
g8
g3
sg9
g3
sg10
S'.399'
p384
sg12
S'2.1'
p385
sg14
g3
sg15
g3
sg16
S'17.6'
p386
sg18
S'SG'
p387
sg20
S'.750'
p388
sg24
S'NBA'
p389
sg26
g3
sg27
S'18.1'
p390
sg29
S'4.3'
p391
sg31
S'4.3'
p392
sg33
S'10.4'
p393
sg35
S'22'
p394
sg37
S'BOS'
p395
sg39
S'53'
p396
sg41
g3
sg42
S'7.2'
p397
sg44
S'3.2'
p398
sg46
S'18.1'
p399
sg48
g3
sg49
S'1954-55'
p400
sg51
S'7.2'
p401
sg53
g3
sg54
S'.399'
p402
sg56
S'504'
p403
sg58
g3
sba(isrc.gp1.models.Per36Minutes
Per36Minutes
p404
(dp405
g8
g3
sg9
g3
sg10
S'.389'
p406
sg12
S'2.2'
p407
sg14
g3
sg15
g3
sg16
S'19.2'
p408
sg18
S'SF'
p409
sg20
S'.685'
p410
sg24
S'NBA'
p411
sg26
g3
sg27
S'19.1'
p412
sg29
S'4.5'
p413
sg31
S'6.3'
p414
sg33
S'9.3'
p415
sg35
S'23'
p416
sg37
S'BOS'
p417
sg39
S'63'
p418
sg41
g3
sg42
S'7.4'
p419
sg44
S'4.4'
p420
sg46
S'19.1'
p421
sg48
g3
sg49
S'1955-56'
p422
sg51
S'7.4'
p423
sg53
g3
sg54
S'.389'
p424
sg56
S'703'
p425
sg58
g3
sba(isrc.gp1.models.Per36Minutes
Per36Minutes
p426
(dp427
g8
g3
sg9
g3
sg10
S'.368'
p428
sg12
S'1.7'
p429
sg14
g3
sg15
g3
sg16
S'19.8'
p430
sg18
S'SF'
p431
sg20
S'.777'
p432
sg24
S'NBA'
p433
sg26
g3
sg27
S'20.3'
p434
sg29
S'4.2'
p435
sg31
S'6.2'
p436
sg33
S'9.3'
p437
sg35
S'24'
p438
sg37
S'TOT'
p439
sg39
S'63'
p440
sg41
g3
sg42
S'7.5'
p441
sg44
S'4.8'
p442
sg46
S'20.3'
p443
sg48
g3
sg49
S'1956-57'
p444
sg51
S'7.5'
p445
sg53
g3
sg54
S'.368'
p446
sg56
S'1013'
p447
sg58
g3
sba(isrc.gp1.models.Per36Minutes
Per36Minutes
p448
(dp449
g8
g3
sg9
g3
sg10
S'.347'
p450
sg12
S'1.2'
p451
sg14
g3
sg15
g3
sg16
S'16.2'
p452
sg18
S'SF'
p453
sg20
S'.719'
p454
sg24
S'NBA'
p455
sg26
g3
sg27
S'18.2'
p456
sg29
S'3.6'
p457
sg31
S'4.9'
p458
sg33
S'11.6'
p459
sg35
S'24'
p460
sg37
S'BOS'
p461
sg39
S'21'
p462
sg41
g3
sg42
S'6.3'
p463
sg44
S'3.6'
p464
sg46
S'18.2'
p465
sg48
g3
sg49
S'1956-57'
p466
sg51
S'6.3'
p467
sg53
g3
sg54
S'.347'
p468
sg56
S'233'
p469
sg58
g3
sba(isrc.gp1.models.Per36Minutes
Per36Minutes
p470
(dp471
g8
g3
sg9
g3
sg10
S'.373'
p472
sg12
S'1.9'
p473
sg14
g3
sg15
g3
sg16
S'20.8'
p474
sg18
S'SF'
p475
sg20
S'.790'
p476
sg24
S'NBA'
p477
sg26
g3
sg27
S'20.9'
p478
sg29
S'4.3'
p479
sg31
S'6.6'
p480
sg33
S'8.6'
p481
sg35
S'24'
p482
sg37
S'SYR'
p483
sg39
S'42'
p484
sg41
g3
sg42
S'7.8'
p485
sg44
S'5.2'
p486
sg46
S'20.9'
p487
sg48
g3
sg49
S'1956-57'
p488
sg51
S'7.8'
p489
sg53
g3
sg54
S'.373'
p490
sg56
S'780'
p491
sg58
g3
sba(isrc.gp1.models.Per36Minutes
Per36Minutes
p492
(dp493
g8
g3
sg9
g3
sg10
S'.394'
p494
sg12
S'1.5'
p495
sg14
g3
sg15
g3
sg16
S'20.8'
p496
sg18
S'SF'
p497
sg20
S'.719'
p498
sg24
S'NBA'
p499
sg26
g3
sg27
S'20.8'
p500
sg29
S'4.5'
p501
sg31
S'6.1'
p502
sg33
S'8.7'
p503
sg35
S'25'
p504
sg37
S'SYR'
p505
sg39
S'67'
p506
sg41
g3
sg42
S'8.2'
p507
sg44
S'4.4'
p508
sg46
S'20.8'
p509
sg48
g3
sg49
S'1957-58'
p510
sg51
S'8.2'
p511
sg53
g3
sg54
S'.394'
p512
sg56
S'1001'
p513
sg58
g3
sba(isrc.gp1.models.Per36Minutes
Per36Minutes
p514
(dp515
g8
g3
sg9
g3
sg10
S'.392'
p516
sg12
S'2.3'
p517
sg14
g3
sg15
g3
sg16
S'20.3'
p518
sg18
S'SF'
p519
sg20
S'.728'
p520
sg24
S'NBA'
p521
sg26
g3
sg27
S'20.9'
p522
sg29
S'5.9'
p523
sg31
S'5.4'
p524
sg33
S'9.1'
p525
sg35
S'26'
p526
sg37
S'SYR'
p527
sg39
S'71'
p528
sg41
g3
sg42
S'8.2'
p529
sg44
S'3.9'
p530
sg46
S'20.9'
p531
sg48
g3
sg49
S'1958-59'
p532
sg51
S'8.2'
p533
sg53
g3
sg54
S'.392'
p534
sg56
S'1053'
p535
sg58
g3
sba(isrc.gp1.models.Per36Minutes
Per36Minutes
p536
(dp537
g8
g3
sg9
g3
sg10
S'.317'
p538
sg12
S'1.5'
p539
sg14
g3
sg15
g3
sg16
S'15.4'
p540
sg18
S'SF'
p541
sg20
S'.500'
p542
sg24
S'NBA'
p543
sg26
g3
sg27
S'21.1'
p544
sg29
S'3.6'
p545
sg31
S'4.1'
p546
sg33
S'7.2'
p547
sg35
S'27'
p548
sg37
S'SYR'
p549
sg39
g207
sg41
g3
sg42
S'6.7'
p550
sg44
S'2.1'
p551
sg46
S'21.1'
p552
sg48
g3
sg49
S'1959-60'
p553
sg51
S'6.7'
p554
sg53
g3
sg54
S'.317'
p555
sg56
S'70'
p556
sg58
g3
sbasS'_fromYear'
p557
S'1955'
p558
sS'_url'
p559
S'http://www.basketball-reference.com/players/p/palazto01.html'
p560
sS'_perGame'
p561
(isrc.gp1.models.PerGame
PerGame
p562
(dp563
g8
g3
sg9
g3
sg10
S'.317'
p564
sS'_effectiveFieldGalPercentage'
p565
S'.317'
p566
sg12
S'0.4'
p567
sg14
g3
sg15
g3
sg16
S'4.3'
p568
sg18
S'SF'
p569
sg20
S'.500'
p570
sg24
S'NBA'
p571
sg26
g3
sg29
S'1.0'
p572
sS'_fieldGoalsttempted'
p573
S'5.9'
p574
sg31
S'1.1'
p575
sg33
S'2.0'
p576
sg35
S'27'
p577
sg37
S'SYR'
p578
sg39
g207
sg41
g3
sg42
S'1.9'
p579
sg44
S'0.6'
p580
sg46
S'5.9'
p581
sg48
g3
sg49
S'1959-60'
p582
sg51
S'1.9'
p583
sg53
g3
sg54
S'.317'
p584
sg56
S'10.0'
p585
sg58
g3
sbsS'_weight'
p586
S'205'
p587
sS'_dob'
p588
S'8-8-1932'
p589
sS'_salary'
p590
(lp591
sg18
S'F-G'
p592
sb.