(isrc.gp1.models.Player
Player
p0
(dp1
S'_experience'
p2
S'NA'
p3
sS'_totals'
p4
(lp5
(isrc.gp1.models.Totals
Totals
p6
(dp7
S'_offensiveRebounds'
p8
S'0'
p9
sS'_threePointsAttempted'
p10
S'1'
p11
sS'_fieldGoalsPercentage'
p12
S'.000'
p13
sS'_assist'
p14
g9
sS'_threePointsPercentage'
p15
S'.000'
p16
sS'_threePoints'
p17
g9
sS'_points'
p18
g3
sS'_position'
p19
S'SF'
p20
sS'_freeThrowsPercentage'
p21
g9
sS'_effectiveFieldGoalPercentage'
p22
g9
sS'_league'
p23
S'NBA'
p24
sS'_steals'
p25
g9
sS'_fieldGoalsAttempted'
p26
g11
sS'_personalFouls'
p27
g3
sS'_freeThrowsAttempted'
p28
g9
sS'_totalRebounds'
p29
g11
sS'_age'
p30
S'28'
p31
sS'_team'
p32
S'ATL'
p33
sS'_games'
p34
S'2'
p35
sS'_blocks'
p36
g11
sS'_twoPoints'
p37
g9
sS'_freeThrows'
p38
g9
sS'_twoPointsAttempted'
p39
g9
sS'_defensiveRebounds'
p40
g9
sS'_season'
p41
S'1994-95'
p42
sS'_fieldGoals'
p43
g9
sS'_turnOvers'
p44
g9
sS'_twoPointsPercentage'
p45
S'.000'
p46
sS'_minutesPlayed'
p47
S'4'
p48
sS'_gamesStarted'
p49
g9
sbasS'_college'
p50
S'Pennsylvania State University'
p51
sS'_toYear'
p52
S'1995'
p53
sS'_height'
p54
S'6-8'
p55
sS'_active'
p56
I00
sS'_shootingHand'
p57
VRight
p58
sS'_name'
p59
S'Tom Hovasse'
p60
sS'_per100Possessions'
p61
(lp62
(isrc.gp1.models.Per100Possession
Per100Possession
p63
(dp64
g8
S'0.0'
p65
sg10
S'13.4'
p66
sg12
S'.000'
p67
sS'_offensiveRating'
p68
g3
sg14
S'0.0'
p69
sg15
S'.000'
p70
sg17
S'0.0'
p71
sg18
S'86'
p72
sg19
S'SF'
p73
sS'_defensiveRating'
p74
g3
sg21
S'0.0'
p75
sg23
S'NBA'
p76
sg25
S'0.0'
p77
sg26
S'13.4'
p78
sg27
g9
sg28
S'0.0'
p79
sg29
S'13.4'
p80
sg30
S'28'
p81
sg32
S'ATL'
p82
sg34
g35
sg36
S'13.4'
p83
sg37
S'0.0'
p84
sg38
S'0.0'
p85
sg39
S'0.0'
p86
sg40
S'0.0'
p87
sg41
S'1994-95'
p88
sg43
S'0.0'
p89
sg44
S'0.0'
p90
sg45
S'0.0'
p91
sg47
g48
sg49
g9
sbasS'_advanced'
p92
(lp93
(isrc.gp1.models.Advanced
Advanced
p94
(dp95
S'_offensiveReboundPercentage'
p96
S'0.0'
p97
sS'_turnOverPercentage'
p98
S'0.0'
p99
sS'_winSharesPer48Minutes'
p100
S'-0.076'
p101
sS'_stealPercentage'
p102
S'13.4'
p103
sS'_usagePercentage'
p104
S'11.3'
p105
sS'_totalReboundsPercentage'
p106
S'0.0'
p107
sS'_defensiveBoxPlusMinus'
p108
S'8.5'
p109
sg19
S'SF'
p110
sS'_valueOverReplacementPlayer'
p111
S'0.0'
p112
sS'_trueShootingPercentage'
p113
S'.000'
p114
sS'_defensiveReboundPercentage'
p115
S'0.0'
p116
sS'_freeThrowsAttempRate'
p117
S'.000'
p118
sS'_threePointsAttempRate'
p119
S'1.000'
p120
sg23
S'NBA'
p121
sS'_offensiveBoxPlusMinues'
p122
S'-6.5'
p123
sS'_assistPercentage'
p124
S'0.0'
p125
sS'_defensiveWinShares'
p126
S'0.0'
p127
sg30
S'28'
p128
sg32
S'ATL'
p129
sg34
g35
sS'_blockPercentage'
p130
S'0.0'
p131
sS'_playerEfficiencyRating'
p132
S'0.2'
p133
sS'_offensiveWinShares'
p134
S'0.0'
p135
sg47
g48
sS'_boxPlusMinus'
p136
S'1.9'
p137
sg41
S'1994-95'
p138
sS'_winShares'
p139
S'0.0'
p140
sbasS'_per36Minutes'
p141
(lp142
(isrc.gp1.models.Per36Minutes
Per36Minutes
p143
(dp144
g8
S'0.0'
p145
sg10
S'9.0'
p146
sg12
S'.000'
p147
sg14
S'0.0'
p148
sg15
S'.000'
p149
sg17
S'0.0'
p150
sg18
g3
sg19
S'SF'
p151
sg21
S'0.0'
p152
sg23
S'NBA'
p153
sg25
S'0.0'
p154
sg26
S'9.0'
p155
sg27
g3
sg28
S'0.0'
p156
sg29
S'9.0'
p157
sg30
S'28'
p158
sg32
S'ATL'
p159
sg34
g35
sg36
S'9.0'
p160
sg37
S'0.0'
p161
sg38
S'0.0'
p162
sg39
S'0.0'
p163
sg40
S'0.0'
p164
sg41
S'1994-95'
p165
sg43
S'0.0'
p166
sg44
S'0.0'
p167
sg45
S'0.0'
p168
sg47
g48
sg49
g9
sbasS'_fromYear'
p169
S'1995'
p170
sS'_url'
p171
S'http://www.basketball-reference.com/players/h/hovasto01.html'
p172
sS'_perGame'
p173
(isrc.gp1.models.PerGame
PerGame
p174
(dp175
g8
S'0.0'
p176
sg10
S'0.5'
p177
sg12
S'.000'
p178
sS'_effectiveFieldGalPercentage'
p179
S'0.0'
p180
sg14
S'0.0'
p181
sg15
S'.000'
p182
sg17
S'0.0'
p183
sg18
g3
sg19
S'SF'
p184
sg21
S'0.0'
p185
sg23
S'NBA'
p186
sg25
S'0.0'
p187
sg27
g3
sS'_fieldGoalsttempted'
p188
S'0.5'
p189
sg28
S'0.0'
p190
sg29
S'0.5'
p191
sg30
S'28'
p192
sg32
S'ATL'
p193
sg34
g35
sg36
S'0.5'
p194
sg37
S'0.0'
p195
sg38
S'0.0'
p196
sg39
S'0.0'
p197
sg40
S'0.0'
p198
sg41
S'1994-95'
p199
sg43
S'0.0'
p200
sg44
S'0.0'
p201
sg45
S'.000'
p202
sg47
S'2.0'
p203
sg49
g9
sbsS'_weight'
p204
S'205'
p205
sS'_dob'
p206
S'31-1-1967'
p207
sS'_salary'
p208
(lp209
(isrc.gp1.models.Salary
Salary
p210
(dp211
g32
S'Atlanta Hawks'
p212
sg23
S'NBA'
p213
sg208
S'$6,140'
p214
sg41
S'1994-95'
p215
sbasg19
S'F'
p216
sb.