(isrc.gp1.models.Player
Player
p0
(dp1
S'_experience'
p2
S'NA'
p3
sS'_totals'
p4
(lp5
(isrc.gp1.models.Totals
Totals
p6
(dp7
S'_offensiveRebounds'
p8
S'5'
p9
sS'_threePointsAttempted'
p10
S'22'
p11
sS'_fieldGoalsPercentage'
p12
S'0'
p13
sS'_assist'
p14
g3
sS'_threePointsPercentage'
p15
S'.318'
p16
sS'_threePoints'
p17
S'7'
p18
sS'_points'
p19
g3
sS'_position'
p20
S'13'
p21
sS'_freeThrowsPercentage'
p22
S'2'
p23
sS'_effectiveFieldGoalPercentage'
p24
S'.000'
p25
sS'_league'
p26
S'ABA'
p27
sS'_steals'
p28
g3
sS'_fieldGoalsAttempted'
p29
g13
sS'_personalFouls'
p30
g3
sS'_freeThrowsAttempted'
p31
S'1'
p32
sS'_totalRebounds'
p33
g3
sS'_age'
p34
S'23'
p35
sS'_team'
p36
S'PTP'
p37
sS'_games'
p38
S'68'
p39
sS'_blocks'
p40
g3
sS'_twoPoints'
p41
S'.318'
p42
sS'_freeThrows'
p43
S'20'
p44
sS'_twoPointsAttempted'
p45
g13
sS'_defensiveRebounds'
p46
S'14'
p47
sS'_season'
p48
S'1967-68'
p49
sS'_fieldGoals'
p50
S'.318'
p51
sS'_turnOvers'
p52
g3
sS'_twoPointsPercentage'
p53
g23
sS'_minutesPlayed'
p54
S'22'
p55
sS'_gamesStarted'
p56
g18
sbasS'_college'
p57
S'Centenary College of Louisiana'
p58
sS'_toYear'
p59
S'1968'
p60
sS'_height'
p61
S'6-7'
p62
sS'_active'
p63
I00
sS'_shootingHand'
p64
VRight
p65
sS'_name'
p66
S'Tom Kerwin'
p67
sS'_per100Possessions'
p68
(lp69
sS'_advanced'
p70
(lp71
(isrc.gp1.models.Advanced
Advanced
p72
(dp73
S'_offensiveReboundPercentage'
p74
S'1.9'
p75
sS'_turnOverPercentage'
p76
S'-0.082'
p77
sS'_winSharesPer48Minutes'
p78
g3
sS'_stealPercentage'
p79
S'0.1'
p80
sS'_usagePercentage'
p81
g3
sS'_totalReboundsPercentage'
p82
S'13.6'
p83
sS'_defensiveBoxPlusMinus'
p84
g3
sg20
S'13'
p85
sS'_valueOverReplacementPlayer'
p86
g3
sS'_trueShootingPercentage'
p87
S'.000'
p88
sS'_defensiveReboundPercentage'
p89
S'8.0'
p90
sS'_freeThrowsAttempRate'
p91
S'12.5'
p92
sS'_threePointsAttempRate'
p93
S'.091'
p94
sg26
S'ABA'
p95
sS'_offensiveBoxPlusMinues'
p96
g3
sS'_assistPercentage'
p97
S'-0.2'
p98
sS'_defensiveWinShares'
p99
g3
sg34
S'23'
p100
sg36
S'PTP'
p101
sg38
S'68'
p102
sS'_blockPercentage'
p103
S'-0.1'
p104
sS'_playerEfficiencyRating'
p105
S'.306'
p106
sS'_offensiveWinShares'
p107
g3
sg54
S'5.3'
p108
sS'_boxPlusMinus'
p109
g3
sg48
S'1967-68'
p110
sS'_winShares'
p111
g3
sbasS'_per36Minutes'
p112
(lp113
(isrc.gp1.models.Per36Minutes
Per36Minutes
p114
(dp115
g8
S'2.6'
p116
sg10
S'11.6'
p117
sg12
S'0.0'
p118
sg14
g3
sg15
S'.318'
p119
sg17
S'3.7'
p120
sg19
g3
sg20
S'13'
p121
sg22
S'1.1'
p122
sg26
S'ABA'
p123
sg28
g3
sg29
S'0.0'
p124
sg30
g3
sg31
S'0.5'
p125
sg33
g3
sg34
S'23'
p126
sg36
S'PTP'
p127
sg38
S'68'
p128
sg40
g3
sg41
S'0.0'
p129
sg43
S'10.6'
p130
sg45
S'1.1'
p131
sg46
S'7.4'
p132
sg48
S'1967-68'
p133
sg50
S'.318'
p134
sg52
g3
sg53
S'.000'
p135
sg54
S'11.6'
p136
sg56
S'3.7'
p137
sbasS'_fromYear'
p138
S'1968'
p139
sS'_url'
p140
S'http://www.basketball-reference.com/players/k/kerwito01.html'
p141
sS'_perGame'
p142
(isrc.gp1.models.PerGame
PerGame
p143
(dp144
g8
S'0.4'
p145
sg10
S'1.7'
p146
sg12
S'0.0'
p147
sS'_effectiveFieldGalPercentage'
p148
S'.000'
p149
sg14
g3
sg15
S'.318'
p150
sg17
S'0.5'
p151
sg19
g3
sg20
S'13'
p152
sg22
S'0.2'
p153
sg26
S'ABA'
p154
sg28
g3
sg30
g3
sS'_fieldGoalsttempted'
p155
S'0.0'
p156
sg31
S'0.1'
p157
sg33
g3
sg34
S'23'
p158
sg36
S'PTP'
p159
sg38
S'5.2'
p160
sg40
g3
sg41
S'.318'
p161
sg43
S'1.5'
p162
sg45
S'0.0'
p163
sg46
S'1.1'
p164
sg48
S'1967-68'
p165
sg50
S'.318'
p166
sg52
g3
sg53
S'0.2'
p167
sg54
S'1.7'
p168
sg56
S'0.5'
p169
sbsS'_weight'
p170
S'210'
p171
sS'_dob'
p172
S'7-7-1944'
p173
sS'_salary'
p174
(lp175
sg20
S'F'
p176
sb.