(isrc.gp1.models.Player
Player
p0
(dp1
S'_experience'
p2
S'NA'
p3
sS'_totals'
p4
(lp5
(isrc.gp1.models.Totals
Totals
p6
(dp7
S'_offensiveRebounds'
p8
S'41'
p9
sS'_threePointsAttempted'
p10
S'.500'
p11
sS'_fieldGoalsPercentage'
p12
S'1'
p13
sS'_assist'
p14
S'410'
p15
sS'_threePointsPercentage'
p16
S'176'
p17
sS'_threePoints'
p18
S'2'
p19
sS'_points'
p20
g3
sS'_position'
p21
S'PF'
p22
sS'_freeThrowsPercentage'
p23
S'374'
p24
sS'_effectiveFieldGoalPercentage'
p25
S'55'
p26
sS'_league'
p27
S'ABA'
p28
sS'_steals'
p29
g3
sS'_fieldGoalsAttempted'
p30
S'.391'
p31
sS'_personalFouls'
p32
g3
sS'_freeThrowsAttempted'
p33
S'.611'
p34
sS'_totalRebounds'
p35
S'159'
p36
sS'_age'
p37
S'27'
p38
sS'_team'
p39
S'DNR'
p40
sS'_games'
p41
S'67'
p42
sS'_blocks'
p43
g3
sS'_twoPoints'
p44
S'451'
p45
sS'_freeThrows'
p46
S'90'
p47
sS'_twoPointsAttempted'
p48
S'.390'
p49
sS'_defensiveRebounds'
p50
S'83'
p51
sS'_season'
p52
S'1967-68'
p53
sS'_fieldGoals'
p54
S'453'
p55
sS'_turnOvers'
p56
g3
sS'_twoPointsPercentage'
p57
S'.392'
p58
sS'_minutesPlayed'
p59
S'177'
p60
sS'_gamesStarted'
p61
S'1287'
p62
sba(isrc.gp1.models.Totals
Totals
p63
(dp64
g8
S'296'
p65
sg10
S'.000'
p66
sg12
S'0'
p67
sg14
S'111'
p68
sg16
S'186'
p69
sg18
S'3'
p70
sg20
g3
sg21
S'PF'
p71
sg23
S'159'
p72
sg25
S'83'
p73
sg27
S'ABA'
p74
sg29
S'236'
p75
sg30
S'.411'
p76
sg32
g3
sg33
S'.648'
p77
sg35
S'52'
p78
sg37
S'28'
p79
sg39
S'NYA'
p80
sg41
S'76'
p81
sg43
S'455'
p82
sg44
S'450'
p83
sg46
S'128'
p84
sg48
S'.413'
p85
sg50
S'455'
p86
sg52
S'1968-69'
p87
sg54
S'453'
p88
sg56
g3
sg57
S'.411'
p89
sg59
S'186'
p90
sg61
S'1550'
p91
sba(isrc.gp1.models.Totals
Totals
p92
(dp93
g8
S'178'
p94
sg10
S'110'
p95
sg12
g67
sg14
S'147'
p96
sg16
S'251'
p97
sg18
g67
sg20
g3
sg21
S'PF'
p98
sg23
S'105'
p99
sg25
S'62'
p100
sg27
S'ABA'
p101
sg29
S'267'
p102
sg30
S'.438'
p103
sg32
g3
sg33
S'73'
p104
sg35
S'51'
p105
sg37
S'29'
p106
sg39
S'NOB'
p107
sg41
S'68'
p108
sg43
g3
sg44
S'.438'
p109
sg46
S'.758'
p110
sg48
S'.438'
p111
sg50
S'41'
p112
sg52
S'1969-70'
p113
sg54
S'251'
p114
sg56
g3
sg57
S'47'
p115
sg59
S'110'
p116
sg61
S'753'
p117
sbasS'_college'
p118
S'Grambling State University'
p119
sS'_toYear'
p120
S'1970'
p121
sS'_height'
p122
S'6-8'
p123
sS'_active'
p124
I00
sS'_shootingHand'
p125
VRight
p126
sS'_name'
p127
S'Tommie Bowens'
p128
sS'_per100Possessions'
p129
(lp130
sS'_advanced'
p131
(lp132
(isrc.gp1.models.Advanced
Advanced
p133
(dp134
S'_offensiveReboundPercentage'
p135
S'13.6'
p136
sS'_turnOverPercentage'
p137
S'1.1'
p138
sS'_winSharesPer48Minutes'
p139
g3
sS'_stealPercentage'
p140
S'-0.9'
p141
sS'_usagePercentage'
p142
S'.042'
p143
sS'_totalReboundsPercentage'
p144
S'14.4'
p145
sS'_defensiveBoxPlusMinus'
p146
g3
sg21
S'PF'
p147
sS'_valueOverReplacementPlayer'
p148
g3
sS'_trueShootingPercentage'
p149
S'.416'
p150
sS'_defensiveReboundPercentage'
p151
S'4.6'
p152
sS'_freeThrowsAttempRate'
p153
S'.199'
p154
sS'_threePointsAttempRate'
p155
S'.004'
p156
sg27
S'ABA'
p157
sS'_offensiveBoxPlusMinues'
p158
g3
sS'_assistPercentage'
p159
S'17.2'
p160
sS'_defensiveWinShares'
p161
g3
sg37
S'27'
p162
sg39
S'DNR'
p163
sg41
S'67'
p164
sS'_blockPercentage'
p165
S'2.0'
p166
sS'_playerEfficiencyRating'
p167
S'9.7'
p168
sS'_offensiveWinShares'
p169
g3
sg59
S'1287'
p170
sS'_boxPlusMinus'
p171
g3
sg52
S'1967-68'
p172
sS'_winShares'
p173
g3
sba(isrc.gp1.models.Advanced
Advanced
p174
(dp175
g135
S'13.1'
p176
sg137
S'0.5'
p177
sg139
g3
sg140
S'-0.4'
p178
sg142
S'.015'
p179
sg144
S'17.9'
p180
sg146
g3
sg21
S'PF'
p181
sg148
g3
sg149
S'.447'
p182
sg151
S'4.7'
p183
sg153
S'.283'
p184
sg155
S'.007'
p185
sg27
S'ABA'
p186
sg158
g3
sg159
S'14.6'
p187
sg161
g3
sg37
S'28'
p188
sg39
S'NYA'
p189
sg41
S'76'
p190
sg165
S'0.9'
p191
sg167
S'8.5'
p192
sg169
g3
sg59
S'1550'
p193
sg171
g3
sg52
S'1968-69'
p194
sg173
g3
sba(isrc.gp1.models.Advanced
Advanced
p195
(dp196
g135
S'10.8'
p197
sg137
S'1.2'
p198
sg139
g3
sg140
S'0.2'
p199
sg142
S'.073'
p200
sg144
S'15.5'
p201
sg146
g3
sg21
S'PF'
p202
sg148
g3
sg149
S'.480'
p203
sg151
S'7.8'
p204
sg153
S'.247'
p205
sg155
S'.000'
p206
sg27
S'ABA'
p207
sg158
g3
sg159
S'16.8'
p208
sg161
g3
sg37
S'29'
p209
sg39
S'NOB'
p210
sg41
S'68'
p211
sg165
S'0.9'
p212
sg167
S'10.2'
p213
sg169
g3
sg59
S'753'
p214
sg171
g3
sg52
S'1969-70'
p215
sg173
g3
sbasS'_per36Minutes'
p216
(lp217
(isrc.gp1.models.Per36Minutes
Per36Minutes
p218
(dp219
g8
S'1.1'
p220
sg10
S'.500'
p221
sg12
S'0.0'
p222
sg14
S'11.5'
p223
sg16
S'4.9'
p224
sg18
S'0.1'
p225
sg20
g3
sg21
S'PF'
p226
sg23
S'10.5'
p227
sg27
S'ABA'
p228
sg29
g3
sg30
S'.391'
p229
sg32
g3
sg33
S'.611'
p230
sg35
S'4.4'
p231
sg37
S'27'
p232
sg39
S'DNR'
p233
sg41
S'67'
p234
sg43
g3
sg44
S'12.6'
p235
sg46
S'2.5'
p236
sg48
S'.390'
p237
sg50
S'2.3'
p238
sg52
S'1967-68'
p239
sg54
S'12.7'
p240
sg56
g3
sg57
S'1.5'
p241
sg59
S'5.0'
p242
sg61
S'1287'
p243
sba(isrc.gp1.models.Per36Minutes
Per36Minutes
p244
(dp245
g8
S'6.9'
p246
sg10
S'.000'
p247
sg12
S'0.0'
p248
sg14
S'2.6'
p249
sg16
S'4.3'
p250
sg18
S'0.1'
p251
sg20
g3
sg21
S'PF'
p252
sg23
S'3.7'
p253
sg27
S'ABA'
p254
sg29
S'5.5'
p255
sg30
S'.411'
p256
sg32
g3
sg33
S'.648'
p257
sg35
S'1.2'
p258
sg37
S'28'
p259
sg39
S'NYA'
p260
sg41
S'76'
p261
sg43
S'10.6'
p262
sg44
S'10.5'
p263
sg46
S'3.0'
p264
sg48
S'.413'
p265
sg50
S'10.6'
p266
sg52
S'1968-69'
p267
sg54
S'10.5'
p268
sg56
g3
sg57
S'1.9'
p269
sg59
S'4.3'
p270
sg61
S'1550'
p271
sba(isrc.gp1.models.Per36Minutes
Per36Minutes
p272
(dp273
g8
S'8.5'
p274
sg10
S'5.3'
p275
sg12
S'0.0'
p276
sg14
S'7.0'
p277
sg16
S'12.0'
p278
sg18
S'0.0'
p279
sg20
g3
sg21
S'PF'
p280
sg23
S'5.0'
p281
sg27
S'ABA'
p282
sg29
S'12.8'
p283
sg30
S'.438'
p284
sg32
g3
sg33
S'3.5'
p285
sg35
S'2.4'
p286
sg37
S'29'
p287
sg39
S'NOB'
p288
sg41
S'68'
p289
sg43
g3
sg44
S'.438'
p290
sg46
S'.758'
p291
sg48
S'2.2'
p292
sg50
S'2.0'
p293
sg52
S'1969-70'
p294
sg54
S'12.0'
p295
sg56
g3
sg57
S'3.0'
p296
sg59
S'5.3'
p297
sg61
S'753'
p298
sbasS'_fromYear'
p299
S'1968'
p300
sS'_url'
p301
S'http://www.basketball-reference.com/players/b/bowento01.html'
p302
sS'_perGame'
p303
(isrc.gp1.models.PerGame
PerGame
p304
(dp305
g8
S'2.6'
p306
sg10
S'1.6'
p307
sg12
S'0.0'
p308
sS'_effectiveFieldGalPercentage'
p309
S'0.9'
p310
sg14
S'2.2'
p311
sg16
S'3.7'
p312
sg18
S'0.0'
p313
sg20
g3
sg21
S'PF'
p314
sg23
S'1.5'
p315
sg27
S'ABA'
p316
sg29
S'3.9'
p317
sg32
g3
sS'_fieldGoalsttempted'
p318
S'.438'
p319
sg33
S'1.1'
p320
sg35
S'0.8'
p321
sg37
S'29'
p322
sg39
S'NOB'
p323
sg41
S'68'
p324
sg43
g3
sg44
S'.438'
p325
sg46
S'.758'
p326
sg48
S'.438'
p327
sg50
S'0.6'
p328
sg52
S'1969-70'
p329
sg54
S'3.7'
p330
sg56
g3
sg57
S'0.7'
p331
sg59
S'1.6'
p332
sg61
S'11.1'
p333
sbsS'_weight'
p334
S'220'
p335
sS'_dob'
p336
S'7-7-1940'
p337
sS'_salary'
p338
(lp339
sg21
S'F-C'
p340
sb.