(isrc.gp1.models.Player
Player
p0
(dp1
S'_experience'
p2
S'NA'
p3
sS'_totals'
p4
(lp5
(isrc.gp1.models.Totals
Totals
p6
(dp7
S'_offensiveRebounds'
p8
S'10'
p9
sS'_threePointsAttempted'
p10
S'0'
p11
sS'_fieldGoalsPercentage'
p12
S'.462'
p13
sS'_assist'
p14
S'1'
p15
sS'_threePointsPercentage'
p16
S'12'
p17
sS'_threePoints'
p18
g11
sS'_points'
p19
g3
sS'_position'
p20
S'C'
p21
sS'_freeThrowsPercentage'
p22
S'6'
p23
sS'_effectiveFieldGoalPercentage'
p24
g23
sS'_league'
p25
S'NBA'
p26
sS'_steals'
p27
S'3'
p28
sS'_fieldGoalsAttempted'
p29
S'26'
p30
sS'_personalFouls'
p31
S'30'
p32
sS'_freeThrowsAttempted'
p33
S'1.000'
p34
sS'_totalRebounds'
p35
S'5'
p36
sS'_age'
p37
S'23'
p38
sS'_team'
p39
S'POR'
p40
sS'_games'
p41
S'18'
p42
sS'_blocks'
p43
g23
sS'_twoPoints'
p44
S'26'
p45
sS'_freeThrows'
p46
g23
sS'_twoPointsAttempted'
p47
S'.462'
p48
sS'_defensiveRebounds'
p49
S'16'
p50
sS'_season'
p51
S'1983-84'
p52
sS'_fieldGoals'
p53
S'12'
p54
sS'_turnOvers'
p55
S'22'
p56
sS'_twoPointsPercentage'
p57
S'.462'
p58
sS'_minutesPlayed'
p59
S'78'
p60
sS'_gamesStarted'
p61
g11
sbasS'_college'
p62
S'La Salle University'
p63
sS'_toYear'
p64
S'1984'
p65
sS'_height'
p66
S'7-1'
p67
sS'_active'
p68
I00
sS'_shootingHand'
p69
VRight
p70
sS'_name'
p71
S'Tom Piotrowski'
p72
sS'_per100Possessions'
p73
(lp74
(isrc.gp1.models.Per100Possession
Per100Possession
p75
(dp76
g8
S'6.1'
p77
sg10
S'0.0'
p78
sg12
S'.462'
p79
sS'_offensiveRating'
p80
S'109'
p81
sg14
S'0.6'
p82
sg16
S'7.3'
p83
sg18
S'0.0'
p84
sg19
S'104'
p85
sg20
g21
sS'_defensiveRating'
p86
g3
sg22
S'3.7'
p87
sg25
S'NBA'
p88
sg27
S'1.8'
p89
sg29
S'15.8'
p90
sg31
S'18.3'
p91
sg33
S'1.000'
p92
sg35
S'3.0'
p93
sg37
S'23'
p94
sg39
S'POR'
p95
sg41
S'18'
p96
sg43
S'3.7'
p97
sg44
S'15.8'
p98
sg46
S'3.7'
p99
sg47
S'.462'
p100
sg49
S'9.7'
p101
sg51
S'1983-84'
p102
sg53
S'7.3'
p103
sg55
S'13.4'
p104
sg57
S'3.7'
p105
sg59
S'78'
p106
sg61
g11
sbasS'_advanced'
p107
(lp108
(isrc.gp1.models.Advanced
Advanced
p109
(dp110
S'_offensiveReboundPercentage'
p111
S'8.9'
p112
sS'_turnOverPercentage'
p113
S'17.3'
p114
sS'_winSharesPer48Minutes'
p115
S'.070'
p116
sS'_stealPercentage'
p117
S'0.6'
p118
sS'_usagePercentage'
p119
S'17.9'
p120
sS'_totalReboundsPercentage'
p121
S'12.1'
p122
sS'_defensiveBoxPlusMinus'
p123
S'-1.1'
p124
sg20
g21
sS'_valueOverReplacementPlayer'
p125
S'0.0'
p126
sS'_trueShootingPercentage'
p127
S'.524'
p128
sS'_defensiveReboundPercentage'
p129
S'15.6'
p130
sS'_freeThrowsAttempRate'
p131
S'.231'
p132
sS'_threePointsAttempRate'
p133
S'.000'
p134
sg25
S'NBA'
p135
sS'_offensiveBoxPlusMinues'
p136
S'-2.9'
p137
sS'_assistPercentage'
p138
S'8.4'
p139
sS'_defensiveWinShares'
p140
S'0.1'
p141
sg37
S'23'
p142
sg39
S'POR'
p143
sg41
S'18'
p144
sS'_blockPercentage'
p145
S'2.3'
p146
sS'_playerEfficiencyRating'
p147
S'9.2'
p148
sS'_offensiveWinShares'
p149
S'0.0'
p150
sg59
S'78'
p151
sS'_boxPlusMinus'
p152
S'-4.0'
p153
sg51
S'1983-84'
p154
sS'_winShares'
p155
S'0.1'
p156
sbasS'_per36Minutes'
p157
(lp158
(isrc.gp1.models.Per36Minutes
Per36Minutes
p159
(dp160
g8
S'4.6'
p161
sg10
S'0.0'
p162
sg12
S'.462'
p163
sg14
S'0.5'
p164
sg16
S'5.5'
p165
sg18
S'0.0'
p166
sg19
g3
sg20
g21
sg22
S'2.8'
p167
sg25
S'NBA'
p168
sg27
S'1.4'
p169
sg29
S'12.0'
p170
sg31
S'13.8'
p171
sg33
S'1.000'
p172
sg35
S'2.3'
p173
sg37
S'23'
p174
sg39
S'POR'
p175
sg41
S'18'
p176
sg43
S'2.8'
p177
sg44
S'12.0'
p178
sg46
S'2.8'
p179
sg47
S'.462'
p180
sg49
S'7.4'
p181
sg51
S'1983-84'
p182
sg53
S'5.5'
p183
sg55
S'10.2'
p184
sg57
S'2.8'
p185
sg59
S'78'
p186
sg61
g11
sbasS'_fromYear'
p187
S'1984'
p188
sS'_url'
p189
S'http://www.basketball-reference.com/players/p/piotrto01.html'
p190
sS'_perGame'
p191
(isrc.gp1.models.PerGame
PerGame
p192
(dp193
g8
S'0.6'
p194
sg10
S'0.0'
p195
sg12
S'.462'
p196
sS'_effectiveFieldGalPercentage'
p197
S'0.3'
p198
sg14
S'0.1'
p199
sg16
S'0.7'
p200
sg18
S'0.0'
p201
sg19
g3
sg20
g21
sg22
S'0.3'
p202
sg25
S'NBA'
p203
sg27
S'0.2'
p204
sg31
S'1.7'
p205
sS'_fieldGoalsttempted'
p206
S'1.4'
p207
sg33
S'1.000'
p208
sg35
S'0.3'
p209
sg37
S'23'
p210
sg39
S'POR'
p211
sg41
S'18'
p212
sg43
S'0.3'
p213
sg44
S'1.4'
p214
sg46
S'0.3'
p215
sg47
S'.462'
p216
sg49
S'0.9'
p217
sg51
S'1983-84'
p218
sg53
S'0.7'
p219
sg55
S'1.2'
p220
sg57
S'.462'
p221
sg59
S'4.3'
p222
sg61
g11
sbsS'_weight'
p223
S'240'
p224
sS'_dob'
p225
S'17-10-1960'
p226
sS'_salary'
p227
(lp228
sg20
g21
sb.