(isrc.gp1.models.Player
Player
p0
(dp1
S'_experience'
p2
S'NA'
p3
sS'_totals'
p4
(lp5
(isrc.gp1.models.Totals
Totals
p6
(dp7
S'_offensiveRebounds'
p8
S'32'
p9
sS'_threePointsAttempted'
p10
S'29'
p11
sS'_fieldGoalsPercentage'
p12
S'.495'
p13
sS'_assist'
p14
S'273'
p15
sS'_threePointsPercentage'
p16
S'.310'
p17
sS'_threePoints'
p18
S'9'
p19
sS'_points'
p20
S'968'
p21
sS'_position'
p22
S'SG'
p23
sS'_freeThrowsPercentage'
p24
S'.712'
p25
sS'_effectiveFieldGoalPercentage'
p26
S'.501'
p27
sS'_league'
p28
S'NBA'
p29
sS'_steals'
p30
S'59'
p31
sS'_fieldGoalsAttempted'
p32
S'806'
p33
sS'_personalFouls'
p34
S'234'
p35
sS'_freeThrowsAttempted'
p36
S'226'
p37
sS'_totalRebounds'
p38
S'143'
p39
sS'_age'
p40
S'23'
p41
sS'_team'
p42
S'PHI'
p43
sS'_games'
p44
S'75'
p45
sS'_blocks'
p46
S'10'
p47
sS'_twoPoints'
p48
S'390'
p49
sS'_freeThrows'
p50
S'161'
p51
sS'_twoPointsAttempted'
p52
S'777'
p53
sS'_defensiveRebounds'
p54
S'111'
p55
sS'_season'
p56
S'1980-81'
p57
sS'_fieldGoals'
p58
S'399'
p59
sS'_turnOvers'
p60
S'219'
p61
sS'_twoPointsPercentage'
p62
S'.502'
p63
sS'_minutesPlayed'
p64
S'1768'
p65
sS'_gamesStarted'
p66
g3
sba(isrc.gp1.models.Totals
Totals
p67
(dp68
g8
S'43'
p69
sg10
S'59'
p70
sg12
S'.522'
p71
sg14
S'283'
p72
sg16
S'.424'
p73
sg18
S'25'
p74
sg20
S'1274'
p75
sg22
S'SG'
p76
sg24
S'.742'
p77
sg26
S'.535'
p78
sg28
S'NBA'
p79
sg30
S'64'
p80
sg32
S'979'
p81
sg34
S'269'
p82
sg36
S'306'
p83
sg38
S'134'
p84
sg40
S'24'
p85
sg42
S'PHI'
p86
sg44
S'77'
p87
sg46
S'17'
p88
sg48
S'486'
p89
sg50
S'227'
p90
sg52
S'920'
p91
sg54
S'91'
p92
sg56
S'1981-82'
p93
sg58
S'511'
p94
sg60
S'214'
p95
sg62
S'.528'
p96
sg64
S'1909'
p97
sg66
S'1'
p98
sba(isrc.gp1.models.Totals
Totals
p99
(dp100
g8
S'42'
p101
sg10
S'76'
p102
sg12
S'.501'
p103
sg14
S'365'
p104
sg16
S'.289'
p105
sg18
S'22'
p106
sg20
S'1598'
p107
sg22
S'SG'
p108
sg24
S'.788'
p109
sg26
S'.510'
p110
sg28
S'NBA'
p111
sg30
S'80'
p112
sg32
S'1250'
p113
sg34
S'255'
p114
sg36
S'411'
p115
sg38
S'225'
p116
sg40
S'25'
p117
sg42
S'PHI'
p118
sg44
S'81'
p119
sg46
S'17'
p120
sg48
S'604'
p121
sg50
S'324'
p122
sg52
S'1174'
p123
sg54
S'183'
p124
sg56
S'1982-83'
p125
sg58
S'626'
p126
sg60
S'271'
p127
sg62
S'.514'
p128
sg64
S'2474'
p129
sg66
S'81'
p130
sba(isrc.gp1.models.Totals
Totals
p131
(dp132
g8
S'57'
p133
sg10
S'38'
p134
sg12
S'.527'
p135
sg14
S'373'
p136
sg16
S'.316'
p137
sg18
S'12'
p138
sg20
S'1588'
p139
sg22
S'SG'
p140
sg24
S'.839'
p141
sg26
S'.532'
p142
sg28
S'NBA'
p143
sg30
S'70'
p144
sg32
S'1125'
p145
sg34
S'251'
p146
sg36
S'465'
p147
sg38
S'193'
p148
sg40
S'26'
p149
sg42
S'PHI'
p150
sg44
S'78'
p151
sg46
S'23'
p152
sg48
S'581'
p153
sg50
S'390'
p154
sg52
S'1087'
p155
sg54
S'136'
p156
sg56
S'1983-84'
p157
sg58
S'593'
p158
sg60
S'297'
p159
sg62
S'.534'
p160
sg64
S'2556'
p161
sg66
S'72'
p162
sba(isrc.gp1.models.Totals
Totals
p163
(dp164
g8
S'35'
p165
sg10
S'105'
p166
sg12
S'.492'
p167
sg14
S'363'
p168
sg16
S'.371'
p169
sg18
S'39'
p170
sg20
S'1245'
p171
sg22
S'SG'
p172
sg24
S'.862'
p173
sg26
S'.514'
p174
sg28
S'NBA'
p175
sg30
S'65'
p176
sg32
S'914'
p177
sg34
S'211'
p178
sg36
S'355'
p179
sg38
S'177'
p180
sg40
S'27'
p181
sg42
S'PHI'
p182
sg44
S'70'
p183
sg46
S'24'
p184
sg48
S'411'
p185
sg50
S'306'
p186
sg52
S'809'
p187
sg54
S'142'
p188
sg56
S'1984-85'
p189
sg58
S'450'
p190
sg60
S'224'
p191
sg62
S'.508'
p192
sg64
S'2237'
p193
sg66
S'65'
p194
sba(isrc.gp1.models.Totals
Totals
p195
(dp196
g8
S'2'
p197
sg10
g197
sg12
S'.306'
p198
sg14
S'12'
p199
sg16
S'.000'
p200
sg18
S'0'
p201
sg20
S'25'
p202
sg22
S'SG'
p203
sg24
S'.375'
p204
sg26
S'.306'
p205
sg28
S'NBA'
p206
sg30
g197
sg32
S'36'
p207
sg34
S'8'
p208
sg36
g208
sg38
S'5'
p209
sg40
S'28'
p210
sg42
S'PHI'
p211
sg44
S'6'
p212
sg46
g201
sg48
S'11'
p213
sg50
S'3'
p214
sg52
S'34'
p215
sg54
g214
sg56
S'1985-86'
p216
sg58
S'11'
p217
sg60
S'7'
p218
sg62
S'.324'
p219
sg64
S'84'
p220
sg66
g201
sba(isrc.gp1.models.Totals
Totals
p221
(dp222
g8
S'16'
p223
sg10
S'67'
p224
sg12
S'.451'
p225
sg14
S'188'
p226
sg16
S'.328'
p227
sg18
S'22'
p228
sg20
S'549'
p229
sg22
S'SG'
p230
sg24
S'.796'
p231
sg26
S'.476'
p232
sg28
S'NBA'
p233
sg30
S'18'
p234
sg32
S'437'
p235
sg34
S'78'
p236
sg36
S'167'
p237
sg38
S'85'
p238
sg40
S'29'
p239
sg42
S'PHI'
p240
sg44
S'52'
p241
sg46
g208
sg48
S'175'
p242
sg50
S'133'
p243
sg52
S'370'
p244
sg54
S'69'
p245
sg56
S'1986-87'
p246
sg58
S'197'
p247
sg60
S'112'
p248
sg62
S'.473'
p249
sg64
S'1058'
p250
sg66
S'12'
p251
sba(isrc.gp1.models.Totals
Totals
p252
(dp253
g8
g208
sg10
S'27'
p254
sg12
S'.421'
p255
sg14
S'108'
p256
sg16
S'.333'
p257
sg18
g19
sg20
S'211'
p258
sg22
S'SG'
p259
sg24
S'.806'
p260
sg26
S'.447'
p261
sg28
S'NBA'
p262
sg30
S'11'
p263
sg32
S'171'
p264
sg34
S'35'
p265
sg36
S'72'
p266
sg38
S'47'
p267
sg40
S'30'
p268
sg42
S'PHI'
p269
sg44
S'29'
p270
sg46
g212
sg48
S'63'
p271
sg50
S'58'
p272
sg52
S'144'
p273
sg54
S'39'
p274
sg56
S'1987-88'
p275
sg58
S'72'
p276
sg60
S'50'
p277
sg62
S'.438'
p278
sg64
S'522'
p279
sg66
S'15'
p280
sbasS'_college'
p281
S'University of Louisiana at Lafayette'
p282
sS'_toYear'
p283
S'1988'
p284
sS'_height'
p285
S'6-3'
p286
sS'_active'
p287
I00
sS'_shootingHand'
p288
VRight
p289
sS'_name'
p290
S'Andrew Toney'
p291
sS'_per100Possessions'
p292
(lp293
(isrc.gp1.models.Per100Possession
Per100Possession
p294
(dp295
g8
S'0.8'
p296
sg10
S'0.8'
p297
sg12
S'.495'
p298
sS'_offensiveRating'
p299
S'97'
p300
sg14
S'7.2'
p301
sg16
S'.310'
p302
sg18
S'0.2'
p303
sg20
S'25.4'
p304
sg22
S'SG'
p305
sS'_defensiveRating'
p306
S'104'
p307
sg24
S'.712'
p308
sg28
S'NBA'
p309
sg30
S'1.5'
p310
sg32
S'21.2'
p311
sg34
S'6.1'
p312
sg36
S'5.9'
p313
sg38
S'3.8'
p314
sg40
S'23'
p315
sg42
S'PHI'
p316
sg44
S'75'
p317
sg46
S'0.3'
p318
sg48
S'10.2'
p319
sg50
S'4.2'
p320
sg52
S'20.4'
p321
sg54
S'2.9'
p322
sg56
S'1980-81'
p323
sg58
S'10.5'
p324
sg60
S'5.7'
p325
sg62
S'.502'
p326
sg64
S'1768'
p327
sg66
g3
sba(isrc.gp1.models.Per100Possession
Per100Possession
p328
(dp329
g8
S'1.1'
p330
sg10
S'1.5'
p331
sg12
S'.522'
p332
sg299
S'105'
p333
sg14
S'7.1'
p334
sg16
S'.424'
p335
sg18
S'0.6'
p336
sg20
S'31.8'
p337
sg22
S'SG'
p338
sg306
S'108'
p339
sg24
S'.742'
p340
sg28
S'NBA'
p341
sg30
S'1.6'
p342
sg32
S'24.5'
p343
sg34
S'6.7'
p344
sg36
S'7.6'
p345
sg38
S'3.3'
p346
sg40
S'24'
p347
sg42
S'PHI'
p348
sg44
S'77'
p349
sg46
S'0.4'
p350
sg48
S'12.1'
p351
sg50
S'5.7'
p352
sg52
S'23.0'
p353
sg54
S'2.3'
p354
sg56
S'1981-82'
p355
sg58
S'12.8'
p356
sg60
S'5.3'
p357
sg62
S'.528'
p358
sg64
S'1909'
p359
sg66
g98
sba(isrc.gp1.models.Per100Possession
Per100Possession
p360
(dp361
g8
S'0.8'
p362
sg10
S'1.4'
p363
sg12
S'.501'
p364
sg299
S'108'
p365
sg14
S'6.9'
p366
sg16
S'.289'
p367
sg18
S'0.4'
p368
sg20
S'30.2'
p369
sg22
S'SG'
p370
sg306
S'104'
p371
sg24
S'.788'
p372
sg28
S'NBA'
p373
sg30
S'1.5'
p374
sg32
S'23.6'
p375
sg34
S'4.8'
p376
sg36
S'7.8'
p377
sg38
S'4.3'
p378
sg40
S'25'
p379
sg42
S'PHI'
p380
sg44
S'81'
p381
sg46
S'0.3'
p382
sg48
S'11.4'
p383
sg50
S'6.1'
p384
sg52
S'22.2'
p385
sg54
S'3.5'
p386
sg56
S'1982-83'
p387
sg58
S'11.8'
p388
sg60
S'5.1'
p389
sg62
S'.514'
p390
sg64
S'2474'
p391
sg66
S'81'
p392
sba(isrc.gp1.models.Per100Possession
Per100Possession
p393
(dp394
g8
S'1.1'
p395
sg10
S'0.7'
p396
sg12
S'.527'
p397
sg299
S'110'
p398
sg14
S'7.0'
p399
sg16
S'.316'
p400
sg18
S'0.2'
p401
sg20
S'30.0'
p402
sg22
S'SG'
p403
sg306
S'109'
p404
sg24
S'.839'
p405
sg28
S'NBA'
p406
sg30
S'1.3'
p407
sg32
S'21.2'
p408
sg34
S'4.7'
p409
sg36
S'8.8'
p410
sg38
S'3.6'
p411
sg40
S'26'
p412
sg42
S'PHI'
p413
sg44
S'78'
p414
sg46
S'0.4'
p415
sg48
S'11.0'
p416
sg50
S'7.4'
p417
sg52
S'20.5'
p418
sg54
S'2.6'
p419
sg56
S'1983-84'
p420
sg58
S'11.2'
p421
sg60
S'5.6'
p422
sg62
S'.534'
p423
sg64
S'2556'
p424
sg66
S'72'
p425
sba(isrc.gp1.models.Per100Possession
Per100Possession
p426
(dp427
g8
S'0.7'
p428
sg10
S'2.2'
p429
sg12
S'.492'
p430
sg299
S'112'
p431
sg14
S'7.7'
p432
sg16
S'.371'
p433
sg18
S'0.8'
p434
sg20
S'26.5'
p435
sg22
S'SG'
p436
sg306
S'111'
p437
sg24
S'.862'
p438
sg28
S'NBA'
p439
sg30
S'1.4'
p440
sg32
S'19.5'
p441
sg34
S'4.5'
p442
sg36
S'7.6'
p443
sg38
S'3.8'
p444
sg40
S'27'
p445
sg42
S'PHI'
p446
sg44
S'70'
p447
sg46
S'0.5'
p448
sg48
S'8.7'
p449
sg50
S'6.5'
p450
sg52
S'17.2'
p451
sg54
S'3.0'
p452
sg56
S'1984-85'
p453
sg58
S'9.6'
p454
sg60
S'4.8'
p455
sg62
S'.508'
p456
sg64
S'2237'
p457
sg66
S'65'
p458
sba(isrc.gp1.models.Per100Possession
Per100Possession
p459
(dp460
g8
S'1.1'
p461
sg10
S'1.1'
p462
sg12
S'.306'
p463
sg299
S'74'
p464
sg14
S'6.8'
p465
sg16
S'.000'
p466
sg18
S'0.0'
p467
sg20
S'14.2'
p468
sg22
S'SG'
p469
sg306
S'112'
p470
sg24
S'.375'
p471
sg28
S'NBA'
p472
sg30
S'1.1'
p473
sg32
S'20.5'
p474
sg34
S'4.5'
p475
sg36
S'4.5'
p476
sg38
S'2.8'
p477
sg40
S'28'
p478
sg42
S'PHI'
p479
sg44
g212
sg46
S'0.0'
p480
sg48
S'6.3'
p481
sg50
S'1.7'
p482
sg52
S'19.3'
p483
sg54
S'1.7'
p484
sg56
S'1985-86'
p485
sg58
S'6.3'
p486
sg60
S'4.0'
p487
sg62
S'.324'
p488
sg64
S'84'
p489
sg66
g201
sba(isrc.gp1.models.Per100Possession
Per100Possession
p490
(dp491
g8
S'0.7'
p492
sg10
S'3.1'
p493
sg12
S'.451'
p494
sg299
S'105'
p495
sg14
S'8.8'
p496
sg16
S'.328'
p497
sg18
S'1.0'
p498
sg20
S'25.6'
p499
sg22
S'SG'
p500
sg306
S'113'
p501
sg24
S'.796'
p502
sg28
S'NBA'
p503
sg30
S'0.8'
p504
sg32
S'20.4'
p505
sg34
S'3.6'
p506
sg36
S'7.8'
p507
sg38
S'4.0'
p508
sg40
S'29'
p509
sg42
S'PHI'
p510
sg44
S'52'
p511
sg46
S'0.4'
p512
sg48
S'8.2'
p513
sg50
S'6.2'
p514
sg52
S'17.3'
p515
sg54
S'3.2'
p516
sg56
S'1986-87'
p517
sg58
S'9.2'
p518
sg60
S'5.2'
p519
sg62
S'.473'
p520
sg64
S'1058'
p521
sg66
S'12'
p522
sba(isrc.gp1.models.Per100Possession
Per100Possession
p523
(dp524
g8
S'0.8'
p525
sg10
S'2.6'
p526
sg12
S'.421'
p527
sg299
S'105'
p528
sg14
S'10.3'
p529
sg16
S'.333'
p530
sg18
S'0.9'
p531
sg20
S'20.2'
p532
sg22
S'SG'
p533
sg306
S'114'
p534
sg24
S'.806'
p535
sg28
S'NBA'
p536
sg30
S'1.1'
p537
sg32
S'16.4'
p538
sg34
S'3.4'
p539
sg36
S'6.9'
p540
sg38
S'4.5'
p541
sg40
S'30'
p542
sg42
S'PHI'
p543
sg44
S'29'
p544
sg46
S'0.6'
p545
sg48
S'6.0'
p546
sg50
S'5.6'
p547
sg52
S'13.8'
p548
sg54
S'3.7'
p549
sg56
S'1987-88'
p550
sg58
S'6.9'
p551
sg60
S'4.8'
p552
sg62
S'.438'
p553
sg64
S'522'
p554
sg66
S'15'
p555
sbasS'_advanced'
p556
(lp557
(isrc.gp1.models.Advanced
Advanced
p558
(dp559
S'_offensiveReboundPercentage'
p560
S'2.1'
p561
sS'_turnOverPercentage'
p562
S'19.5'
p563
sS'_winSharesPer48Minutes'
p564
S'.061'
p565
sS'_stealPercentage'
p566
S'1.5'
p567
sS'_usagePercentage'
p568
S'25.7'
p569
sS'_totalReboundsPercentage'
p570
S'4.4'
p571
sS'_defensiveBoxPlusMinus'
p572
S'-1.6'
p573
sg22
S'SG'
p574
sS'_valueOverReplacementPlayer'
p575
S'-0.5'
p576
sS'_trueShootingPercentage'
p577
S'.535'
p578
sS'_defensiveReboundPercentage'
p579
S'6.4'
p580
sS'_freeThrowsAttempRate'
p581
S'.280'
p582
sS'_threePointsAttempRate'
p583
S'.036'
p584
sg28
S'NBA'
p585
sS'_offensiveBoxPlusMinues'
p586
S'-1.5'
p587
sS'_assistPercentage'
p588
S'22.4'
p589
sS'_defensiveWinShares'
p590
S'2.2'
p591
sg40
S'23'
p592
sg42
S'PHI'
p593
sg44
S'75'
p594
sS'_blockPercentage'
p595
S'0.3'
p596
sS'_playerEfficiencyRating'
p597
S'12.7'
p598
sS'_offensiveWinShares'
p599
S'0.0'
p600
sg64
S'1768'
p601
sS'_boxPlusMinus'
p602
S'-3.2'
p603
sg56
S'1980-81'
p604
sS'_winShares'
p605
S'2.2'
p606
sba(isrc.gp1.models.Advanced
Advanced
p607
(dp608
g560
S'2.7'
p609
sg562
S'16.1'
p610
sg564
S'.100'
p611
sg566
S'1.6'
p612
sg568
S'29.0'
p613
sg570
S'4.0'
p614
sg572
S'-2.7'
p615
sg22
S'SG'
p616
sg575
S'0.4'
p617
sg577
S'.572'
p618
sg579
S'5.1'
p619
sg581
S'.313'
p620
sg583
S'.060'
p621
sg28
S'NBA'
p622
sg586
S'1.5'
p623
sg588
S'23.1'
p624
sg590
S'1.7'
p625
sg40
S'24'
p626
sg42
S'PHI'
p627
sg44
S'77'
p628
sg595
S'0.5'
p629
sg597
S'17.2'
p630
sg599
S'2.3'
p631
sg64
S'1909'
p632
sg602
S'-1.2'
p633
sg56
S'1981-82'
p634
sg605
S'4.0'
p635
sba(isrc.gp1.models.Advanced
Advanced
p636
(dp637
g560
S'1.9'
p638
sg562
S'15.9'
p639
sg564
S'.141'
p640
sg566
S'1.5'
p641
sg568
S'27.3'
p642
sg570
S'4.8'
p643
sg572
S'-1.4'
p644
sg22
S'SG'
p645
sg575
S'1.6'
p646
sg577
S'.558'
p647
sg579
S'7.5'
p648
sg581
S'.329'
p649
sg583
S'.061'
p650
sg28
S'NBA'
p651
sg586
S'2.0'
p652
sg588
S'22.5'
p653
sg590
S'2.7'
p654
sg40
S'25'
p655
sg42
S'PHI'
p656
sg44
S'81'
p657
sg595
S'0.4'
p658
sg597
S'17.9'
p659
sg599
S'4.6'
p660
sg64
S'2474'
p661
sg602
S'0.6'
p662
sg56
S'1982-83'
p663
sg605
S'7.3'
p664
sba(isrc.gp1.models.Advanced
Advanced
p665
(dp666
g560
S'2.6'
p667
sg562
S'18.3'
p668
sg564
S'.120'
p669
sg566
S'1.3'
p670
sg568
S'26.3'
p671
sg570
S'4.3'
p672
sg572
S'-2.0'
p673
sg22
S'SG'
p674
sg575
S'1.1'
p675
sg577
S'.597'
p676
sg579
S'5.9'
p677
sg581
S'.413'
p678
sg583
S'.034'
p679
sg28
S'NBA'
p680
sg586
S'1.8'
p681
sg588
S'23.7'
p682
sg590
S'2.2'
p683
sg40
S'26'
p684
sg42
S'PHI'
p685
sg44
S'78'
p686
sg595
S'0.5'
p687
sg597
S'17.3'
p688
sg599
S'4.2'
p689
sg64
S'2556'
p690
sg602
S'-0.2'
p691
sg56
S'1983-84'
p692
sg605
S'6.4'
p693
sba(isrc.gp1.models.Advanced
Advanced
p694
(dp695
g560
S'1.8'
p696
sg562
S'17.3'
p697
sg564
S'.118'
p698
sg566
S'1.4'
p699
sg568
S'23.3'
p700
sg570
S'4.5'
p701
sg572
S'-1.9'
p702
sg22
S'SG'
p703
sg575
S'1.1'
p704
sg577
S'.582'
p705
sg579
S'7.1'
p706
sg581
S'.388'
p707
sg583
S'.115'
p708
sg28
S'NBA'
p709
sg586
S'1.9'
p710
sg588
S'24.3'
p711
sg590
S'1.5'
p712
sg40
S'27'
p713
sg42
S'PHI'
p714
sg44
S'70'
p715
sg595
S'0.6'
p716
sg597
S'16.2'
p717
sg599
S'4.0'
p718
sg64
S'2237'
p719
sg602
S'0.0'
p720
sg56
S'1984-85'
p721
sg605
S'5.5'
p722
sba(isrc.gp1.models.Advanced
Advanced
p723
(dp724
g560
S'2.7'
p725
sg562
S'15.0'
p726
sg564
S'-0.128'
p727
sg566
S'1.1'
p728
sg568
S'22.3'
p729
sg570
S'3.3'
p730
sg572
S'-3.8'
p731
sg22
S'SG'
p732
sg575
S'-0.2'
p733
sg577
S'.316'
p734
sg579
S'4.0'
p735
sg581
S'.222'
p736
sg583
S'.056'
p737
sg28
S'NBA'
p738
sg586
S'-7.4'
p739
sg588
S'19.5'
p740
sg590
S'0.0'
p741
sg40
S'28'
p742
sg42
S'PHI'
p743
sg44
g212
sg595
S'0.0'
p744
sg597
S'2.1'
p745
sg599
S'-0.3'
p746
sg64
S'84'
p747
sg602
S'-11.2'
p748
sg56
S'1985-86'
p749
sg605
S'-0.2'
p750
sba(isrc.gp1.models.Advanced
Advanced
p751
(dp752
g560
S'1.8'
p753
sg562
S'18.0'
p754
sg564
S'.056'
p755
sg566
S'0.8'
p756
sg568
S'24.7'
p757
sg570
S'4.6'
p758
sg572
S'-3.9'
p759
sg22
S'SG'
p760
sg575
S'-0.7'
p761
sg577
S'.538'
p762
sg579
S'7.3'
p763
sg581
S'.382'
p764
sg583
S'.153'
p765
sg28
S'NBA'
p766
sg586
S'-0.6'
p767
sg588
S'27.2'
p768
sg590
S'0.5'
p769
sg40
S'29'
p770
sg42
S'PHI'
p771
sg44
S'52'
p772
sg595
S'0.4'
p773
sg597
S'14.3'
p774
sg599
S'0.8'
p775
sg64
S'1058'
p776
sg602
S'-4.5'
p777
sg56
S'1986-87'
p778
sg605
S'1.2'
p779
sba(isrc.gp1.models.Advanced
Advanced
p780
(dp781
g560
S'1.8'
p782
sg562
S'19.8'
p783
sg564
S'.050'
p784
sg566
S'1.1'
p785
sg568
S'20.5'
p786
sg570
S'5.2'
p787
sg572
S'-3.0'
p788
sg22
S'SG'
p789
sg575
S'-0.3'
p790
sg577
S'.521'
p791
sg579
S'8.7'
p792
sg581
S'.421'
p793
sg583
S'.158'
p794
sg28
S'NBA'
p795
sg586
S'-1.2'
p796
sg588
S'30.9'
p797
sg590
S'0.2'
p798
sg40
S'30'
p799
sg42
S'PHI'
p800
sg44
S'29'
p801
sg595
S'0.7'
p802
sg597
S'13.2'
p803
sg599
S'0.3'
p804
sg64
S'522'
p805
sg602
S'-4.2'
p806
sg56
S'1987-88'
p807
sg605
S'0.5'
p808
sbasS'_per36Minutes'
p809
(lp810
(isrc.gp1.models.Per36Minutes
Per36Minutes
p811
(dp812
g8
S'0.7'
p813
sg10
S'0.6'
p814
sg12
S'.495'
p815
sg14
S'5.6'
p816
sg16
S'.310'
p817
sg18
S'0.2'
p818
sg20
S'19.7'
p819
sg22
S'SG'
p820
sg24
S'.712'
p821
sg28
S'NBA'
p822
sg30
S'1.2'
p823
sg32
S'16.4'
p824
sg34
S'4.8'
p825
sg36
S'4.6'
p826
sg38
S'2.9'
p827
sg40
S'23'
p828
sg42
S'PHI'
p829
sg44
S'75'
p830
sg46
S'0.2'
p831
sg48
S'7.9'
p832
sg50
S'3.3'
p833
sg52
S'15.8'
p834
sg54
S'2.3'
p835
sg56
S'1980-81'
p836
sg58
S'8.1'
p837
sg60
S'4.5'
p838
sg62
S'.502'
p839
sg64
S'1768'
p840
sg66
g3
sba(isrc.gp1.models.Per36Minutes
Per36Minutes
p841
(dp842
g8
S'0.8'
p843
sg10
S'1.1'
p844
sg12
S'.522'
p845
sg14
S'5.3'
p846
sg16
S'.424'
p847
sg18
S'0.5'
p848
sg20
S'24.0'
p849
sg22
S'SG'
p850
sg24
S'.742'
p851
sg28
S'NBA'
p852
sg30
S'1.2'
p853
sg32
S'18.5'
p854
sg34
S'5.1'
p855
sg36
S'5.8'
p856
sg38
S'2.5'
p857
sg40
S'24'
p858
sg42
S'PHI'
p859
sg44
S'77'
p860
sg46
S'0.3'
p861
sg48
S'9.2'
p862
sg50
S'4.3'
p863
sg52
S'17.3'
p864
sg54
S'1.7'
p865
sg56
S'1981-82'
p866
sg58
S'9.6'
p867
sg60
S'4.0'
p868
sg62
S'.528'
p869
sg64
S'1909'
p870
sg66
g98
sba(isrc.gp1.models.Per36Minutes
Per36Minutes
p871
(dp872
g8
S'0.6'
p873
sg10
S'1.1'
p874
sg12
S'.501'
p875
sg14
S'5.3'
p876
sg16
S'.289'
p877
sg18
S'0.3'
p878
sg20
S'23.3'
p879
sg22
S'SG'
p880
sg24
S'.788'
p881
sg28
S'NBA'
p882
sg30
S'1.2'
p883
sg32
S'18.2'
p884
sg34
S'3.7'
p885
sg36
S'6.0'
p886
sg38
S'3.3'
p887
sg40
S'25'
p888
sg42
S'PHI'
p889
sg44
S'81'
p890
sg46
S'0.2'
p891
sg48
S'8.8'
p892
sg50
S'4.7'
p893
sg52
S'17.1'
p894
sg54
S'2.7'
p895
sg56
S'1982-83'
p896
sg58
S'9.1'
p897
sg60
S'3.9'
p898
sg62
S'.514'
p899
sg64
S'2474'
p900
sg66
S'81'
p901
sba(isrc.gp1.models.Per36Minutes
Per36Minutes
p902
(dp903
g8
S'0.8'
p904
sg10
S'0.5'
p905
sg12
S'.527'
p906
sg14
S'5.3'
p907
sg16
S'.316'
p908
sg18
S'0.2'
p909
sg20
S'22.4'
p910
sg22
S'SG'
p911
sg24
S'.839'
p912
sg28
S'NBA'
p913
sg30
S'1.0'
p914
sg32
S'15.8'
p915
sg34
S'3.5'
p916
sg36
S'6.5'
p917
sg38
S'2.7'
p918
sg40
S'26'
p919
sg42
S'PHI'
p920
sg44
S'78'
p921
sg46
S'0.3'
p922
sg48
S'8.2'
p923
sg50
S'5.5'
p924
sg52
S'15.3'
p925
sg54
S'1.9'
p926
sg56
S'1983-84'
p927
sg58
S'8.4'
p928
sg60
S'4.2'
p929
sg62
S'.534'
p930
sg64
S'2556'
p931
sg66
S'72'
p932
sba(isrc.gp1.models.Per36Minutes
Per36Minutes
p933
(dp934
g8
S'0.6'
p935
sg10
S'1.7'
p936
sg12
S'.492'
p937
sg14
S'5.8'
p938
sg16
S'.371'
p939
sg18
S'0.6'
p940
sg20
S'20.0'
p941
sg22
S'SG'
p942
sg24
S'.862'
p943
sg28
S'NBA'
p944
sg30
S'1.0'
p945
sg32
S'14.7'
p946
sg34
S'3.4'
p947
sg36
S'5.7'
p948
sg38
S'2.8'
p949
sg40
S'27'
p950
sg42
S'PHI'
p951
sg44
S'70'
p952
sg46
S'0.4'
p953
sg48
S'6.6'
p954
sg50
S'4.9'
p955
sg52
S'13.0'
p956
sg54
S'2.3'
p957
sg56
S'1984-85'
p958
sg58
S'7.2'
p959
sg60
S'3.6'
p960
sg62
S'.508'
p961
sg64
S'2237'
p962
sg66
S'65'
p963
sba(isrc.gp1.models.Per36Minutes
Per36Minutes
p964
(dp965
g8
S'0.9'
p966
sg10
S'0.9'
p967
sg12
S'.306'
p968
sg14
S'5.1'
p969
sg16
S'.000'
p970
sg18
S'0.0'
p971
sg20
S'10.7'
p972
sg22
S'SG'
p973
sg24
S'.375'
p974
sg28
S'NBA'
p975
sg30
S'0.9'
p976
sg32
S'15.4'
p977
sg34
S'3.4'
p978
sg36
S'3.4'
p979
sg38
S'2.1'
p980
sg40
S'28'
p981
sg42
S'PHI'
p982
sg44
g212
sg46
S'0.0'
p983
sg48
S'4.7'
p984
sg50
S'1.3'
p985
sg52
S'14.6'
p986
sg54
S'1.3'
p987
sg56
S'1985-86'
p988
sg58
S'4.7'
p989
sg60
S'3.0'
p990
sg62
S'.324'
p991
sg64
S'84'
p992
sg66
g201
sba(isrc.gp1.models.Per36Minutes
Per36Minutes
p993
(dp994
g8
S'0.5'
p995
sg10
S'2.3'
p996
sg12
S'.451'
p997
sg14
S'6.4'
p998
sg16
S'.328'
p999
sg18
S'0.7'
p1000
sg20
S'18.7'
p1001
sg22
S'SG'
p1002
sg24
S'.796'
p1003
sg28
S'NBA'
p1004
sg30
S'0.6'
p1005
sg32
S'14.9'
p1006
sg34
S'2.7'
p1007
sg36
S'5.7'
p1008
sg38
S'2.9'
p1009
sg40
S'29'
p1010
sg42
S'PHI'
p1011
sg44
S'52'
p1012
sg46
S'0.3'
p1013
sg48
S'6.0'
p1014
sg50
S'4.5'
p1015
sg52
S'12.6'
p1016
sg54
S'2.3'
p1017
sg56
S'1986-87'
p1018
sg58
S'6.7'
p1019
sg60
S'3.8'
p1020
sg62
S'.473'
p1021
sg64
S'1058'
p1022
sg66
S'12'
p1023
sba(isrc.gp1.models.Per36Minutes
Per36Minutes
p1024
(dp1025
g8
S'0.6'
p1026
sg10
S'1.9'
p1027
sg12
S'.421'
p1028
sg14
S'7.4'
p1029
sg16
S'.333'
p1030
sg18
S'0.6'
p1031
sg20
S'14.6'
p1032
sg22
S'SG'
p1033
sg24
S'.806'
p1034
sg28
S'NBA'
p1035
sg30
S'0.8'
p1036
sg32
S'11.8'
p1037
sg34
S'2.4'
p1038
sg36
S'5.0'
p1039
sg38
S'3.2'
p1040
sg40
S'30'
p1041
sg42
S'PHI'
p1042
sg44
S'29'
p1043
sg46
S'0.4'
p1044
sg48
S'4.3'
p1045
sg50
S'4.0'
p1046
sg52
S'9.9'
p1047
sg54
S'2.7'
p1048
sg56
S'1987-88'
p1049
sg58
S'5.0'
p1050
sg60
S'3.4'
p1051
sg62
S'.438'
p1052
sg64
S'522'
p1053
sg66
S'15'
p1054
sbasS'_fromYear'
p1055
S'1981'
p1056
sS'_url'
p1057
S'http://www.basketball-reference.com/players/t/toneyan01.html'
p1058
sS'_perGame'
p1059
(isrc.gp1.models.PerGame
PerGame
p1060
(dp1061
g8
S'0.3'
p1062
sg10
S'0.9'
p1063
sg12
S'.421'
p1064
sS'_effectiveFieldGalPercentage'
p1065
S'.447'
p1066
sg14
S'3.7'
p1067
sg16
S'.333'
p1068
sg18
S'0.3'
p1069
sg20
S'7.3'
p1070
sg22
S'SG'
p1071
sg24
S'.806'
p1072
sg28
S'NBA'
p1073
sg30
S'0.4'
p1074
sg34
S'1.2'
p1075
sS'_fieldGoalsttempted'
p1076
S'5.9'
p1077
sg36
S'2.5'
p1078
sg38
S'1.6'
p1079
sg40
S'30'
p1080
sg42
S'PHI'
p1081
sg44
S'29'
p1082
sg46
S'0.2'
p1083
sg48
S'2.2'
p1084
sg50
S'2.0'
p1085
sg52
S'5.0'
p1086
sg54
S'1.3'
p1087
sg56
S'1987-88'
p1088
sg58
S'2.5'
p1089
sg60
S'1.7'
p1090
sg62
S'.438'
p1091
sg64
S'18.0'
p1092
sg66
S'15'
p1093
sbsS'_weight'
p1094
S'178'
p1095
sS'_dob'
p1096
S'23-11-1957'
p1097
sS'_salary'
p1098
(lp1099
(isrc.gp1.models.Salary
Salary
p1100
(dp1101
g42
S'Philadelphia 76ers'
p1102
sg28
S'NBA'
p1103
sg1098
S'$710,000'
p1104
sg56
S'1985-86'
p1105
sba(isrc.gp1.models.Salary
Salary
p1106
(dp1107
g42
S'Philadelphia 76ers'
p1108
sg28
S'NBA'
p1109
sg1098
S'$700,000'
p1110
sg56
S'1987-88'
p1111
sba(isrc.gp1.models.Salary
Salary
p1112
(dp1113
g42
S'Philadelphia 76ers'
p1114
sg28
S'NBA'
p1115
sg1098
S'$450,000'
p1116
sg56
S'1991-92'
p1117
sbasg22
S'G'
p1118
sb.