(isrc.gp1.models.Player
Player
p0
(dp1
S'_experience'
p2
S'NA'
p3
sS'_totals'
p4
(lp5
(isrc.gp1.models.Totals
Totals
p6
(dp7
S'_offensiveRebounds'
p8
g3
sS'_threePointsAttempted'
p9
S'128'
p10
sS'_fieldGoalsPercentage'
p11
S'.238'
p12
sS'_assist'
p13
g3
sS'_threePointsPercentage'
p14
S'161'
p15
sS'_threePoints'
p16
S'.238'
p17
sS'_points'
p18
g3
sS'_position'
p19
S'59'
p20
sS'_freeThrowsPercentage'
p21
g3
sS'_effectiveFieldGoalPercentage'
p22
S'384'
p23
sS'_league'
p24
S'BAA'
p25
sS'_steals'
p26
g3
sS'_fieldGoalsAttempted'
p27
S'537'
p28
sS'_personalFouls'
p29
g3
sS'_freeThrowsAttempted'
p30
g3
sS'_totalRebounds'
p31
g3
sS'_age'
p32
S'27'
p33
sS'_team'
p34
S'TOT'
p35
sS'_games'
p36
S'128'
p37
sS'_blocks'
p38
g3
sS'_twoPoints'
p39
S'.795'
p40
sS'_freeThrows'
p41
g3
sS'_twoPointsAttempted'
p42
S'28'
p43
sS'_defensiveRebounds'
p44
g3
sS'_season'
p45
S'1946-47'
p46
sS'_fieldGoals'
p47
S'128'
p48
sS'_turnOvers'
p49
g3
sS'_twoPointsPercentage'
p50
S'78'
p51
sS'_minutesPlayed'
p52
S'.238'
p53
sS'_gamesStarted'
p54
S'537'
p55
sba(isrc.gp1.models.Totals
Totals
p56
(dp57
g8
g3
sg9
S'104'
p58
sg11
S'.231'
p59
sg13
g3
sg14
S'123'
p60
sg16
S'.231'
p61
sg18
g3
sg19
S'41'
p62
sg21
g3
sg22
S'310'
p63
sg24
S'BAA'
p64
sg26
g3
sg27
S'446'
p65
sg29
g3
sg30
g3
sg31
g3
sg32
S'27'
p66
sg34
S'PIT'
p67
sg36
S'103'
p68
sg38
g3
sg39
S'.846'
p69
sg41
g3
sg42
S'22'
p70
sg44
g3
sg45
S'1946-47'
p71
sg47
S'103'
p72
sg49
g3
sg50
S'61'
p73
sg52
S'.231'
p74
sg54
S'446'
p75
sba(isrc.gp1.models.Totals
Totals
p76
(dp77
g8
g3
sg9
S'24'
p78
sg11
S'.275'
p79
sg13
g3
sg14
S'38'
p80
sg16
S'.275'
p81
sg18
g3
sg19
S'18'
p82
sg21
g3
sg22
S'74'
p83
sg24
S'BAA'
p84
sg26
g3
sg27
S'91'
p85
sg29
g3
sg30
g3
sg31
g3
sg32
S'27'
p86
sg34
S'BOS'
p87
sg36
S'25'
p88
sg38
g3
sg39
S'.632'
p89
sg41
g3
sg42
S'6'
p90
sg44
g3
sg45
S'1946-47'
p91
sg47
S'25'
p92
sg49
g3
sg50
S'17'
p93
sg52
S'.275'
p94
sg54
S'91'
p95
sbasS'_college'
p96
S'NA'
p97
sS'_toYear'
p98
S'1947'
p99
sS'_height'
p100
S'5-10'
p101
sS'_active'
p102
I00
sS'_shootingHand'
p103
VRight
p104
sS'_name'
p105
S'Tony Kappen'
p106
sS'_per100Possessions'
p107
(lp108
sS'_advanced'
p109
(lp110
(isrc.gp1.models.Advanced
Advanced
p111
(dp112
S'_offensiveReboundPercentage'
p113
g3
sS'_turnOverPercentage'
p114
g3
sS'_winSharesPer48Minutes'
p115
g3
sS'_stealPercentage'
p116
g3
sS'_usagePercentage'
p117
g3
sS'_totalReboundsPercentage'
p118
g3
sS'_defensiveBoxPlusMinus'
p119
g3
sg19
S'59'
p120
sS'_valueOverReplacementPlayer'
p121
g3
sS'_trueShootingPercentage'
p122
S'-0.2'
p123
sS'_defensiveReboundPercentage'
p124
g3
sS'_freeThrowsAttempRate'
p125
g3
sS'_threePointsAttempRate'
p126
S'0.7'
p127
sg24
S'BAA'
p128
sS'_offensiveBoxPlusMinues'
p129
g3
sS'_assistPercentage'
p130
g3
sS'_defensiveWinShares'
p131
g3
sg32
S'27'
p132
sg34
S'TOT'
p133
sg36
S'.316'
p134
sS'_blockPercentage'
p135
g3
sS'_playerEfficiencyRating'
p136
S'0.9'
p137
sS'_offensiveWinShares'
p138
g3
sg52
S'.300'
p139
sS'_boxPlusMinus'
p140
g3
sg45
S'1946-47'
p141
sS'_winShares'
p142
g3
sba(isrc.gp1.models.Advanced
Advanced
p143
(dp144
g113
g3
sg114
g3
sg115
g3
sg116
g3
sg117
g3
sg118
g3
sg119
g3
sg19
S'41'
p145
sg121
g3
sg122
S'-0.3'
p146
sg124
g3
sg125
g3
sg126
S'0.2'
p147
sg24
S'BAA'
p148
sg129
g3
sg130
g3
sg131
g3
sg32
S'27'
p149
sg34
S'PIT'
p150
sg36
S'.310'
p151
sg135
g3
sg136
S'0.5'
p152
sg138
g3
sg52
S'.276'
p153
sg140
g3
sg45
S'1946-47'
p154
sg142
g3
sba(isrc.gp1.models.Advanced
Advanced
p155
(dp156
g113
g3
sg114
g3
sg115
g3
sg116
g3
sg117
g3
sg118
g3
sg119
g3
sg19
S'18'
p157
sg121
g3
sg122
S'0.1'
p158
sg124
g3
sg125
g3
sg126
S'0.5'
p159
sg24
S'BAA'
p160
sg129
g3
sg130
g3
sg131
g3
sg32
S'27'
p161
sg34
S'BOS'
p162
sg36
S'.343'
p163
sg135
g3
sg136
S'0.4'
p164
sg138
g3
sg52
S'.418'
p165
sg140
g3
sg45
S'1946-47'
p166
sg142
g3
sbasS'_per36Minutes'
p167
(lp168
(isrc.gp1.models.Per36Minutes
Per36Minutes
p169
(dp170
g8
g3
sg9
g3
sg11
g3
sg13
g3
sg14
g3
sg16
g3
sg18
g3
sg19
S'59'
p171
sg21
g3
sg24
S'BAA'
p172
sg26
g3
sg27
g3
sg29
g3
sg30
g3
sg31
g3
sg32
S'27'
p173
sg34
S'TOT'
p174
sg36
S'.238'
p175
sg38
g3
sg39
g3
sg41
g3
sg42
g3
sg44
g3
sg45
S'1946-47'
p176
sg47
g3
sg49
g3
sg50
g3
sg52
S'.795'
p177
sg54
S'.238'
p178
sba(isrc.gp1.models.Per36Minutes
Per36Minutes
p179
(dp180
g8
g3
sg9
g3
sg11
g3
sg13
g3
sg14
g3
sg16
g3
sg18
g3
sg19
S'41'
p181
sg21
g3
sg24
S'BAA'
p182
sg26
g3
sg27
g3
sg29
g3
sg30
g3
sg31
g3
sg32
S'27'
p183
sg34
S'PIT'
p184
sg36
S'.231'
p185
sg38
g3
sg39
g3
sg41
g3
sg42
g3
sg44
g3
sg45
S'1946-47'
p186
sg47
g3
sg49
g3
sg50
g3
sg52
S'.846'
p187
sg54
S'.231'
p188
sba(isrc.gp1.models.Per36Minutes
Per36Minutes
p189
(dp190
g8
g3
sg9
g3
sg11
g3
sg13
g3
sg14
g3
sg16
g3
sg18
g3
sg19
S'18'
p191
sg21
g3
sg24
S'BAA'
p192
sg26
g3
sg27
g3
sg29
g3
sg30
g3
sg31
g3
sg32
S'27'
p193
sg34
S'BOS'
p194
sg36
S'.275'
p195
sg38
g3
sg39
g3
sg41
g3
sg42
g3
sg44
g3
sg45
S'1946-47'
p196
sg47
g3
sg49
g3
sg50
g3
sg52
S'.632'
p197
sg54
S'.275'
p198
sbasS'_fromYear'
p199
S'1947'
p200
sS'_url'
p201
S'http://www.basketball-reference.com/players/k/kappeto01.html'
p202
sS'_perGame'
p203
(isrc.gp1.models.PerGame
PerGame
p204
(dp205
g8
g3
sg9
S'1.3'
p206
sg11
S'.275'
p207
sS'_effectiveFieldGalPercentage'
p208
S'4.1'
p209
sg13
g3
sg14
S'2.1'
p210
sg16
S'.275'
p211
sg18
g3
sg19
S'18'
p212
sg21
g3
sg24
S'BAA'
p213
sg26
g3
sg29
g3
sS'_fieldGoalsttempted'
p214
S'5.1'
p215
sg30
g3
sg31
g3
sg32
S'27'
p216
sg34
S'BOS'
p217
sg36
S'1.4'
p218
sg38
g3
sg39
S'.632'
p219
sg41
g3
sg42
S'0.3'
p220
sg44
g3
sg45
S'1946-47'
p221
sg47
S'1.4'
p222
sg49
g3
sg50
S'0.9'
p223
sg52
S'.275'
p224
sg54
S'5.1'
p225
sbsS'_weight'
p226
S'165'
p227
sS'_dob'
p228
S'13-4-1919'
p229
sS'_salary'
p230
(lp231
sg19
S'G'
p232
sb.