(isrc.gp1.models.Player
Player
p0
(dp1
S'_experience'
p2
S'NA'
p3
sS'_totals'
p4
(lp5
(isrc.gp1.models.Totals
Totals
p6
(dp7
S'_offensiveRebounds'
p8
S'3'
p9
sS'_threePointsAttempted'
p10
S'2'
p11
sS'_fieldGoalsPercentage'
p12
S'0'
p13
sS'_assist'
p14
g11
sS'_threePointsPercentage'
p15
S'7'
p16
sS'_threePoints'
p17
g13
sS'_points'
p18
g3
sS'_position'
p19
S'SG'
p20
sS'_freeThrowsPercentage'
p21
g13
sS'_effectiveFieldGoalPercentage'
p22
g13
sS'_league'
p23
S'NBA'
p24
sS'_steals'
p25
g9
sS'_fieldGoalsAttempted'
p26
S'.286'
p27
sS'_personalFouls'
p28
g3
sS'_freeThrowsAttempted'
p29
g13
sS'_totalRebounds'
p30
S'1'
p31
sS'_age'
p32
S'24'
p33
sS'_team'
p34
S'SDC'
p35
sS'_games'
p36
S'5'
p37
sS'_blocks'
p38
S'4'
p39
sS'_twoPoints'
p40
S'.286'
p41
sS'_freeThrows'
p42
g13
sS'_twoPointsAttempted'
p43
S'.286'
p44
sS'_defensiveRebounds'
p45
g11
sS'_season'
p46
S'1980-81'
p47
sS'_fieldGoals'
p48
g16
sS'_turnOvers'
p49
g3
sS'_twoPointsPercentage'
p50
g13
sS'_minutesPlayed'
p51
g11
sS'_gamesStarted'
p52
S'29'
p53
sbasS'_college'
p54
S'University of Pennsylvania'
p55
sS'_toYear'
p56
S'1981'
p57
sS'_height'
p58
S'6-6'
p59
sS'_active'
p60
I00
sS'_shootingHand'
p61
VRight
p62
sS'_name'
p63
S'Tony Price'
p64
sS'_per100Possessions'
p65
(lp66
(isrc.gp1.models.Per100Possession
Per100Possession
p67
(dp68
g8
S'5.0'
p69
sg10
S'3.3'
p70
sg12
S'0.0'
p71
sS'_offensiveRating'
p72
g3
sg14
S'3.3'
p73
sg15
S'11.6'
p74
sg17
S'0.0'
p75
sg18
g3
sg19
S'SG'
p76
sS'_defensiveRating'
p77
g3
sg21
S'0.0'
p78
sg23
S'NBA'
p79
sg25
S'5.0'
p80
sg26
S'.286'
p81
sg28
S'107'
p82
sg29
S'0.0'
p83
sg30
S'1.7'
p84
sg32
S'24'
p85
sg34
S'SDC'
p86
sg36
g37
sg38
S'6.6'
p87
sg40
S'.286'
p88
sg42
S'0.0'
p89
sg43
S'0.0'
p90
sg45
S'3.3'
p91
sg46
S'1980-81'
p92
sg48
S'11.6'
p93
sg49
S'63'
p94
sg50
S'0.0'
p95
sg51
S'3.3'
p96
sg52
S'29'
p97
sbasS'_advanced'
p98
(lp99
(isrc.gp1.models.Advanced
Advanced
p100
(dp101
S'_offensiveReboundPercentage'
p102
S'0.0'
p103
sS'_turnOverPercentage'
p104
S'22.2'
p105
sS'_winSharesPer48Minutes'
p106
S'-0.089'
p107
sS'_stealPercentage'
p108
S'3.3'
p109
sS'_usagePercentage'
p110
S'12.7'
p111
sS'_totalReboundsPercentage'
p112
S'0.0'
p113
sS'_defensiveBoxPlusMinus'
p114
S'-1.7'
p115
sg19
S'SG'
p116
sS'_valueOverReplacementPlayer'
p117
S'-0.1'
p118
sS'_trueShootingPercentage'
p119
S'.286'
p120
sS'_defensiveReboundPercentage'
p121
S'0.0'
p122
sS'_freeThrowsAttempRate'
p123
S'.000'
p124
sS'_threePointsAttempRate'
p125
S'.000'
p126
sg23
S'NBA'
p127
sS'_offensiveBoxPlusMinues'
p128
S'-8.9'
p129
sS'_assistPercentage'
p130
S'12.7'
p131
sS'_defensiveWinShares'
p132
S'0.0'
p133
sg32
S'24'
p134
sg34
S'SDC'
p135
sg36
g37
sS'_blockPercentage'
p136
S'2.0'
p137
sS'_playerEfficiencyRating'
p138
S'2.4'
p139
sS'_offensiveWinShares'
p140
S'-0.1'
p141
sg51
S'29'
p142
sS'_boxPlusMinus'
p143
S'-10.6'
p144
sg46
S'1980-81'
p145
sS'_winShares'
p146
S'-0.1'
p147
sbasS'_per36Minutes'
p148
(lp149
(isrc.gp1.models.Per36Minutes
Per36Minutes
p150
(dp151
g8
S'3.7'
p152
sg10
S'2.5'
p153
sg12
S'0.0'
p154
sg14
S'2.5'
p155
sg15
S'8.7'
p156
sg17
S'0.0'
p157
sg18
g3
sg19
S'SG'
p158
sg21
S'0.0'
p159
sg23
S'NBA'
p160
sg25
S'3.7'
p161
sg26
S'.286'
p162
sg28
g3
sg29
S'0.0'
p163
sg30
S'1.2'
p164
sg32
S'24'
p165
sg34
S'SDC'
p166
sg36
g37
sg38
S'5.0'
p167
sg40
S'.286'
p168
sg42
S'0.0'
p169
sg43
S'0.0'
p170
sg45
S'2.5'
p171
sg46
S'1980-81'
p172
sg48
S'8.7'
p173
sg49
g3
sg50
S'0.0'
p174
sg51
S'2.5'
p175
sg52
S'29'
p176
sbasS'_fromYear'
p177
S'1981'
p178
sS'_url'
p179
S'http://www.basketball-reference.com/players/p/priceto01.html'
p180
sS'_perGame'
p181
(isrc.gp1.models.PerGame
PerGame
p182
(dp183
g8
S'0.6'
p184
sg10
S'0.4'
p185
sg12
S'0.0'
p186
sS'_effectiveFieldGalPercentage'
p187
S'0.0'
p188
sg14
S'0.4'
p189
sg15
S'1.4'
p190
sg17
S'0.0'
p191
sg18
g3
sg19
S'SG'
p192
sg21
S'0.0'
p193
sg23
S'NBA'
p194
sg25
S'0.6'
p195
sg28
g3
sS'_fieldGoalsttempted'
p196
S'.286'
p197
sg29
S'0.0'
p198
sg30
S'0.2'
p199
sg32
S'24'
p200
sg34
S'SDC'
p201
sg36
g37
sg38
S'0.8'
p202
sg40
S'.286'
p203
sg42
S'0.0'
p204
sg43
S'.286'
p205
sg45
S'0.4'
p206
sg46
S'1980-81'
p207
sg48
S'1.4'
p208
sg49
g3
sg50
S'0.0'
p209
sg51
S'0.4'
p210
sg52
S'5.8'
p211
sbsS'_weight'
p212
S'190'
p213
sS'_dob'
p214
S'5-1-1957'
p215
sS'_salary'
p216
(lp217
sg19
S'G'
p218
sb.