(isrc.gp1.models.Player
Player
p0
(dp1
S'_experience'
p2
V14
p3
sS'_totals'
p4
(lp5
(isrc.gp1.models.Totals
Totals
p6
(dp7
S'_offensiveRebounds'
p8
S'33'
p9
sS'_threePointsAttempted'
p10
S'189'
p11
sS'_fieldGoalsPercentage'
p12
S'.419'
p13
sS'_assist'
p14
S'334'
p15
sS'_threePointsPercentage'
p16
S'.323'
p17
sS'_threePoints'
p18
S'61'
p19
sS'_points'
p20
S'705'
p21
sS'_position'
p22
S'PG'
p23
sS'_freeThrowsPercentage'
p24
S'.675'
p25
sS'_effectiveFieldGoalPercentage'
p26
S'.467'
p27
sS'_league'
p28
S'NBA'
p29
sS'_steals'
p30
S'89'
p31
sS'_fieldGoalsAttempted'
p32
S'639'
p33
sS'_personalFouls'
p34
S'166'
p35
sS'_freeThrowsAttempted'
p36
S'160'
p37
sS'_totalRebounds'
p38
S'197'
p39
sS'_age'
p40
S'19'
p41
sS'_team'
p42
S'SAS'
p43
sS'_games'
p44
S'77'
p45
sS'_blocks'
p46
S'7'
p47
sS'_twoPoints'
p48
S'207'
p49
sS'_freeThrows'
p50
S'108'
p51
sS'_twoPointsAttempted'
p52
S'450'
p53
sS'_defensiveRebounds'
p54
S'164'
p55
sS'_season'
p56
S'2001-02'
p57
sS'_fieldGoals'
p58
S'268'
p59
sS'_turnOvers'
p60
S'151'
p61
sS'_twoPointsPercentage'
p62
S'.460'
p63
sS'_minutesPlayed'
p64
S'2267'
p65
sS'_gamesStarted'
p66
S'72'
p67
sba(isrc.gp1.models.Totals
Totals
p68
(dp69
g8
S'33'
p70
sg10
S'243'
p71
sg12
S'.464'
p72
sg14
S'432'
p73
sg16
S'.337'
p74
sg18
S'82'
p75
sg20
S'1269'
p76
sg22
S'PG'
p77
sg24
S'.755'
p78
sg26
S'.503'
p79
sg28
S'NBA'
p80
sg30
S'71'
p81
sg32
S'1043'
p82
sg34
S'174'
p83
sg36
S'290'
p84
sg38
S'216'
p85
sg40
S'20'
p86
sg42
S'SAS'
p87
sg44
S'82'
p88
sg46
S'4'
p89
sg48
S'402'
p90
sg50
S'219'
p91
sg52
S'800'
p92
sg54
S'183'
p93
sg56
S'2002-03'
p94
sg58
S'484'
p95
sg60
S'198'
p96
sg62
S'.503'
p97
sg64
S'2774'
p98
sg66
S'82'
p99
sba(isrc.gp1.models.Totals
Totals
p100
(dp101
g8
S'43'
p102
sg10
S'199'
p103
sg12
S'.447'
p104
sg14
S'411'
p105
sg16
S'.312'
p106
sg18
S'62'
p107
sg20
S'1099'
p108
sg22
S'PG'
p109
sg24
S'.702'
p110
sg26
S'.480'
p111
sg28
S'NBA'
p112
sg30
S'61'
p113
sg32
S'946'
p114
sg34
S'148'
p115
sg36
S'272'
p116
sg38
S'237'
p117
sg40
S'21'
p118
sg42
S'SAS'
p119
sg44
S'75'
p120
sg46
g47
sg48
S'361'
p121
sg50
S'191'
p122
sg52
S'747'
p123
sg54
S'194'
p124
sg56
S'2003-04'
p125
sg58
S'423'
p126
sg60
S'179'
p127
sg62
S'.483'
p128
sg64
S'2577'
p129
sg66
S'75'
p130
sba(isrc.gp1.models.Totals
Totals
p131
(dp132
g8
S'47'
p133
sg10
S'156'
p134
sg12
S'.482'
p135
sg14
S'491'
p136
sg16
S'.276'
p137
sg18
S'43'
p138
sg20
S'1331'
p139
sg22
S'PG'
p140
sg24
S'.650'
p141
sg26
S'.501'
p142
sg28
S'NBA'
p143
sg30
S'98'
p144
sg32
S'1118'
p145
sg34
S'167'
p146
sg36
S'323'
p147
sg38
S'298'
p148
sg40
S'22'
p149
sg42
S'SAS'
p150
sg44
S'80'
p151
sg46
g89
sg48
S'496'
p152
sg50
S'210'
p153
sg52
S'962'
p154
sg54
S'251'
p155
sg56
S'2004-05'
p156
sg58
S'539'
p157
sg60
S'215'
p158
sg62
S'.516'
p159
sg64
S'2735'
p160
sg66
S'80'
p161
sba(isrc.gp1.models.Totals
Totals
p162
(dp163
g8
S'223'
p164
sg10
S'.306'
p165
sg12
S'11'
p166
sg14
S'83'
p167
sg16
S'612'
p168
sg18
S'36'
p169
sg20
S'NA'
p170
sg22
S'80'
p171
sg24
S'38'
p172
sg26
S'253'
p173
sg28
S'PG'
p174
sg30
g89
sg32
S'.548'
p175
sg34
S'1510'
p176
sg36
S'.707'
p177
sg38
S'460'
p178
sg40
S'SAS'
p179
sg42
S'NBA'
p180
sg44
S'80'
p181
sg46
S'249'
p182
sg48
S'1100'
p183
sg50
S'358'
p184
sg52
S'.556'
p185
sg54
S'261'
p186
sg56
S'23'
p187
sg58
S'1136'
p188
sg60
S'161'
p189
sg62
S'.553'
p190
sg64
S'623'
p191
sg66
S'2715'
p192
sba(isrc.gp1.models.Totals
Totals
p193
(dp194
g8
S'216'
p195
sg10
S'.395'
p196
sg12
S'15'
p197
sg14
S'82'
p198
sg16
S'555'
p199
sg18
S'38'
p200
sg20
g170
sg22
S'77'
p201
sg24
S'34'
p202
sg26
S'274'
p203
sg28
S'PG'
p204
sg30
S'6'
p205
sg32
S'.520'
p206
sg34
S'1429'
p207
sg36
S'.783'
p208
sg38
S'420'
p209
sg40
S'SAS'
p210
sg42
S'NBA'
p211
sg44
S'77'
p212
sg46
S'191'
p213
sg48
S'1058'
p214
sg50
S'350'
p215
sg52
S'.525'
p216
sg54
S'250'
p217
sg56
S'24'
p218
sg58
S'1096'
p219
sg60
S'137'
p220
sg62
S'.527'
p221
sg64
S'570'
p222
sg66
S'2499'
p223
sba(isrc.gp1.models.Totals
Totals
p224
(dp225
g8
S'30'
p226
sg10
S'66'
p227
sg12
S'.494'
p228
sg14
S'411'
p229
sg16
S'.258'
p230
sg18
S'17'
p231
sg20
S'1295'
p232
sg22
S'PG'
p233
sg24
S'.715'
p234
sg26
S'.502'
p235
sg28
S'NBA'
p236
sg30
S'55'
p237
sg32
S'1043'
p238
sg34
S'93'
p239
sg36
S'347'
p240
sg38
S'221'
p241
sg40
S'25'
p242
sg42
S'SAS'
p243
sg44
S'69'
p244
sg46
S'8'
p245
sg48
S'498'
p246
sg50
S'248'
p247
sg52
S'977'
p248
sg54
S'191'
p249
sg56
S'2007-08'
p250
sg58
S'515'
p251
sg60
S'164'
p252
sg62
S'.510'
p253
sg64
S'2312'
p254
sg66
S'68'
p255
sba(isrc.gp1.models.Totals
Totals
p256
(dp257
g8
S'196'
p258
sg10
S'.292'
p259
sg12
S'19'
p260
sg14
S'67'
p261
sg16
S'620'
p262
sg18
S'65'
p263
sg20
g170
sg22
S'72'
p264
sg24
S'27'
p265
sg26
S'284'
p266
sg28
S'PG'
p267
sg30
g89
sg32
S'.506'
p268
sg34
S'1581'
p269
sg36
S'.782'
p270
sg38
S'496'
p271
sg40
S'SAS'
p272
sg42
S'NBA'
p273
sg44
S'71'
p274
sg46
S'186'
p275
sg48
S'1198'
p276
sg50
S'363'
p277
sg52
S'.518'
p278
sg54
S'223'
p279
sg56
S'26'
p280
sg58
S'1263'
p281
sg60
S'110'
p282
sg62
S'.513'
p283
sg64
S'639'
p284
sg66
S'2456'
p285
sba(isrc.gp1.models.Totals
Totals
p286
(dp287
g8
g47
sg10
S'34'
p288
sg12
S'.487'
p289
sg14
S'317'
p290
sg16
S'.294'
p291
sg18
S'10'
p292
sg20
S'894'
p293
sg22
S'PG'
p294
sg24
S'.756'
p295
sg26
S'.494'
p296
sg28
S'NBA'
p297
sg30
S'29'
p298
sg32
S'716'
p299
sg34
S'96'
p300
sg36
S'246'
p301
sg38
S'135'
p302
sg40
S'27'
p303
sg42
S'SAS'
p304
sg44
S'56'
p305
sg46
g245
sg48
S'339'
p306
sg50
S'186'
p307
sg52
S'682'
p308
sg54
S'128'
p309
sg56
S'2009-10'
p310
sg58
S'349'
p311
sg60
S'149'
p312
sg62
S'.497'
p313
sg64
S'1728'
p314
sg66
S'50'
p315
sba(isrc.gp1.models.Totals
Totals
p316
(dp317
g8
S'30'
p318
sg10
S'70'
p319
sg12
S'.519'
p320
sg14
S'513'
p321
sg16
S'.357'
p322
sg18
S'25'
p323
sg20
S'1368'
p324
sg22
S'PG'
p325
sg24
S'.769'
p326
sg26
S'.531'
p327
sg28
S'NBA'
p328
sg30
S'90'
p329
sg32
S'1069'
p330
sg34
S'135'
p331
sg36
S'303'
p332
sg38
S'238'
p333
sg40
S'28'
p334
sg42
S'SAS'
p335
sg44
S'78'
p336
sg46
S'3'
p337
sg48
S'530'
p338
sg50
S'233'
p339
sg52
S'999'
p340
sg54
S'208'
p341
sg56
S'2010-11'
p342
sg58
S'555'
p343
sg60
S'200'
p344
sg62
S'.531'
p345
sg64
S'2528'
p346
sg66
S'78'
p347
sba(isrc.gp1.models.Totals
Totals
p348
(dp349
g8
S'149'
p350
sg10
S'.230'
p351
sg12
S'14'
p352
sg14
S'57'
p353
sg16
S'413'
p354
sg18
S'61'
p355
sg20
g170
sg22
S'60'
p356
sg24
S'22'
p357
sg26
S'227'
p358
sg28
S'PG'
p359
sg30
S'5'
p360
sg32
S'.480'
p361
sg34
S'1095'
p362
sg36
S'.799'
p363
sg38
S'463'
p364
sg40
S'SAS'
p365
sg42
S'NBA'
p366
sg44
S'60'
p367
sg46
S'153'
p368
sg48
S'829'
p369
sg50
S'284'
p370
sg52
S'.498'
p371
sg54
S'171'
p372
sg56
S'29'
p373
sg58
S'890'
p374
sg60
S'75'
p375
sg62
S'.488'
p376
sg64
S'427'
p377
sg66
S'1923'
p378
sba(isrc.gp1.models.Totals
Totals
p379
(dp380
g8
S'180'
p381
sg10
S'.353'
p382
sg12
S'24'
p383
sg14
S'54'
p384
sg16
S'495'
p385
sg18
S'68'
p386
sg20
g170
sg22
S'66'
p387
sg24
S'18'
p388
sg26
S'279'
p389
sg28
S'PG'
p390
sg30
g205
sg32
S'.522'
p391
sg34
S'1341'
p392
sg36
S'.845'
p393
sg38
S'499'
p394
sg40
S'SAS'
p395
sg42
S'NBA'
p396
sg44
S'66'
p397
sg46
S'170'
p398
sg48
S'927'
p399
sg50
S'330'
p400
sg52
S'.534'
p401
sg54
S'198'
p402
sg56
S'30'
p403
sg58
S'995'
p404
sg60
S'92'
p405
sg62
S'.534'
p406
sg64
S'519'
p407
sg66
S'2174'
p408
sba(isrc.gp1.models.Totals
Totals
p409
(dp410
g8
S'138'
p411
sg10
S'.373'
p412
sg12
S'25'
p413
sg14
S'36'
p414
sg16
S'431'
p415
sg18
S'67'
p416
sg20
g170
sg22
S'68'
p417
sg24
S'17'
p418
sg26
S'197'
p419
sg28
S'PG'
p420
sg30
S'9'
p421
sg32
S'.499'
p422
sg34
S'1134'
p423
sg36
S'.811'
p424
sg38
S'388'
p425
sg40
S'SAS'
p426
sg42
S'NBA'
p427
sg44
S'68'
p428
sg46
S'151'
p429
sg48
S'847'
p430
sg50
S'243'
p431
sg52
S'.509'
p432
sg54
S'155'
p433
sg56
S'31'
p434
sg58
S'914'
p435
sg60
S'86'
p436
sg62
S'.513'
p437
sg64
S'456'
p438
sg66
S'1997'
p439
sba(isrc.gp1.models.Totals
Totals
p440
(dp441
g8
S'15'
p442
sg10
S'89'
p443
sg12
S'.486'
p444
sg14
S'335'
p445
sg16
S'.427'
p446
sg18
S'38'
p447
sg20
S'976'
p448
sg22
S'PG'
p449
sg24
S'.783'
p450
sg26
S'.508'
p451
sg28
S'NBA'
p452
sg30
S'44'
p453
sg32
S'832'
p454
sg34
S'108'
p455
sg36
S'166'
p456
sg38
S'129'
p457
sg40
S'32'
p458
sg42
S'SAS'
p459
sg44
S'68'
p460
sg46
S'2'
p461
sg48
S'366'
p462
sg50
S'130'
p463
sg52
S'743'
p464
sg54
S'114'
p465
sg56
S'2014-15'
p466
sg58
S'404'
p467
sg60
S'146'
p468
sg62
S'.493'
p469
sg64
S'1953'
p470
sg66
S'68'
p471
sba(isrc.gp1.models.Totals
Totals
p472
(dp473
g8
S'12'
p474
sg10
S'37'
p475
sg12
S'.520'
p476
sg14
S'235'
p477
sg16
S'.432'
p478
sg18
S'16'
p479
sg20
S'556'
p480
sg22
S'PG'
p481
sg24
S'.757'
p482
sg26
S'.538'
p483
sg28
S'NBA'
p484
sg30
S'38'
p485
sg32
S'444'
p486
sg34
S'74'
p487
sg36
S'103'
p488
sg38
S'119'
p489
sg40
S'33'
p490
sg42
S'SAS'
p491
sg44
S'46'
p492
sg46
g47
sg48
S'215'
p493
sg50
S'78'
p494
sg52
S'407'
p495
sg54
S'107'
p496
sg56
S'2015-16'
p497
sg58
S'231'
p498
sg60
S'79'
p499
sg62
S'.528'
p500
sg64
S'1229'
p501
sg66
S'46'
p502
sbasS'_college'
p503
S'NA'
p504
sS'_toYear'
p505
S'2016'
p506
sS'_height'
p507
S'6-2'
p508
sS'_active'
p509
I01
sS'_shootingHand'
p510
VRight
p511
sS'_name'
p512
S'Tony Parker'
p513
sS'_per100Possessions'
p514
(lp515
(isrc.gp1.models.Per100Possession
Per100Possession
p516
(dp517
g8
S'0.8'
p518
sg10
S'4.4'
p519
sg12
S'.419'
p520
sS'_offensiveRating'
p521
S'99'
p522
sg14
S'7.9'
p523
sg16
S'.323'
p524
sg18
S'1.4'
p525
sg20
S'16.6'
p526
sg22
S'PG'
p527
sS'_defensiveRating'
p528
S'103'
p529
sg24
S'.675'
p530
sg28
S'NBA'
p531
sg30
S'2.1'
p532
sg32
S'15.0'
p533
sg34
S'3.9'
p534
sg36
S'3.8'
p535
sg38
S'4.6'
p536
sg40
S'19'
p537
sg42
S'SAS'
p538
sg44
S'77'
p539
sg46
S'0.2'
p540
sg48
S'4.9'
p541
sg50
S'2.5'
p542
sg52
S'10.6'
p543
sg54
S'3.9'
p544
sg56
S'2001-02'
p545
sg58
S'6.3'
p546
sg60
S'3.6'
p547
sg62
S'.460'
p548
sg64
S'2267'
p549
sg66
S'72'
p550
sba(isrc.gp1.models.Per100Possession
Per100Possession
p551
(dp552
g8
S'0.6'
p553
sg10
S'4.7'
p554
sg12
S'.464'
p555
sg521
S'108'
p556
sg14
S'8.3'
p557
sg16
S'.337'
p558
sg18
S'1.6'
p559
sg20
S'24.4'
p560
sg22
S'PG'
p561
sg528
S'104'
p562
sg24
S'.755'
p563
sg28
S'NBA'
p564
sg30
S'1.4'
p565
sg32
S'20.1'
p566
sg34
S'3.3'
p567
sg36
S'5.6'
p568
sg38
S'4.2'
p569
sg40
S'20'
p570
sg42
S'SAS'
p571
sg44
S'82'
p572
sg46
S'0.1'
p573
sg48
S'7.7'
p574
sg50
S'4.2'
p575
sg52
S'15.4'
p576
sg54
S'3.5'
p577
sg56
S'2002-03'
p578
sg58
S'9.3'
p579
sg60
S'3.8'
p580
sg62
S'.503'
p581
sg64
S'2774'
p582
sg66
S'82'
p583
sba(isrc.gp1.models.Per100Possession
Per100Possession
p584
(dp585
g8
S'0.9'
p586
sg10
S'4.2'
p587
sg12
S'.447'
p588
sg521
S'104'
p589
sg14
S'8.6'
p590
sg16
S'.312'
p591
sg18
S'1.3'
p592
sg20
S'22.9'
p593
sg22
S'PG'
p594
sg528
S'99'
p595
sg24
S'.702'
p596
sg28
S'NBA'
p597
sg30
S'1.3'
p598
sg32
S'19.8'
p599
sg34
S'3.1'
p600
sg36
S'5.7'
p601
sg38
S'4.9'
p602
sg40
S'21'
p603
sg42
S'SAS'
p604
sg44
S'75'
p605
sg46
S'0.1'
p606
sg48
S'7.5'
p607
sg50
S'4.0'
p608
sg52
S'15.6'
p609
sg54
S'4.1'
p610
sg56
S'2003-04'
p611
sg58
S'8.8'
p612
sg60
S'3.7'
p613
sg62
S'.483'
p614
sg64
S'2577'
p615
sg66
S'75'
p616
sba(isrc.gp1.models.Per100Possession
Per100Possession
p617
(dp618
g8
S'0.9'
p619
sg10
S'3.1'
p620
sg12
S'.482'
p621
sg521
S'106'
p622
sg14
S'9.7'
p623
sg16
S'.276'
p624
sg18
S'0.8'
p625
sg20
S'26.3'
p626
sg22
S'PG'
p627
sg528
S'101'
p628
sg24
S'.650'
p629
sg28
S'NBA'
p630
sg30
S'1.9'
p631
sg32
S'22.1'
p632
sg34
S'3.3'
p633
sg36
S'6.4'
p634
sg38
S'5.9'
p635
sg40
S'22'
p636
sg42
S'SAS'
p637
sg44
S'80'
p638
sg46
S'0.1'
p639
sg48
S'9.8'
p640
sg50
S'4.1'
p641
sg52
S'19.0'
p642
sg54
S'5.0'
p643
sg56
S'2004-05'
p644
sg58
S'10.6'
p645
sg60
S'4.2'
p646
sg62
S'.516'
p647
sg64
S'2735'
p648
sg66
S'80'
p649
sba(isrc.gp1.models.Per100Possession
Per100Possession
p650
(dp651
g8
S'4.5'
p652
sg10
S'.306'
p653
sg12
S'0.2'
p654
sg521
S'102'
p655
sg14
S'1.7'
p656
sg16
S'12.2'
p657
sg18
S'0.7'
p658
sg20
S'110'
p659
sg22
S'80'
p660
sg528
g170
sg24
S'0.8'
p661
sg28
S'PG'
p662
sg30
S'0.1'
p663
sg32
S'.548'
p664
sg34
S'30.2'
p665
sg36
S'.707'
p666
sg38
S'9.2'
p667
sg40
S'SAS'
p668
sg42
S'NBA'
p669
sg44
S'80'
p670
sg46
S'5.0'
p671
sg48
S'22.0'
p672
sg50
S'7.2'
p673
sg52
S'.556'
p674
sg54
S'5.2'
p675
sg56
S'23'
p676
sg58
S'22.7'
p677
sg60
S'3.2'
p678
sg62
S'5.1'
p679
sg64
S'12.4'
p680
sg66
S'2715'
p681
sba(isrc.gp1.models.Per100Possession
Per100Possession
p682
(dp683
g8
S'4.6'
p684
sg10
S'.395'
p685
sg12
S'0.3'
p686
sg521
S'102'
p687
sg14
S'1.8'
p688
sg16
S'11.9'
p689
sg18
S'0.8'
p690
sg20
S'112'
p691
sg22
S'77'
p692
sg528
g170
sg24
S'0.7'
p693
sg28
S'PG'
p694
sg30
S'0.1'
p695
sg32
S'.520'
p696
sg34
S'30.6'
p697
sg36
S'.783'
p698
sg38
S'9.0'
p699
sg40
S'SAS'
p700
sg42
S'NBA'
p701
sg44
S'77'
p702
sg46
S'4.1'
p703
sg48
S'22.6'
p704
sg50
S'7.5'
p705
sg52
S'.525'
p706
sg54
S'5.3'
p707
sg56
S'24'
p708
sg58
S'23.5'
p709
sg60
S'2.9'
p710
sg62
S'5.9'
p711
sg64
S'12.2'
p712
sg66
S'2499'
p713
sba(isrc.gp1.models.Per100Possession
Per100Possession
p714
(dp715
g8
S'0.7'
p716
sg10
S'1.5'
p717
sg12
S'.494'
p718
sg521
S'109'
p719
sg14
S'9.6'
p720
sg16
S'.258'
p721
sg18
S'0.4'
p722
sg20
S'30.3'
p723
sg22
S'PG'
p724
sg528
S'105'
p725
sg24
S'.715'
p726
sg28
S'NBA'
p727
sg30
S'1.3'
p728
sg32
S'24.4'
p729
sg34
S'2.2'
p730
sg36
S'8.1'
p731
sg38
S'5.2'
p732
sg40
S'25'
p733
sg42
S'SAS'
p734
sg44
S'69'
p735
sg46
S'0.2'
p736
sg48
S'11.6'
p737
sg50
S'5.8'
p738
sg52
S'22.9'
p739
sg54
S'4.5'
p740
sg56
S'2007-08'
p741
sg58
S'12.0'
p742
sg60
S'3.8'
p743
sg62
S'.510'
p744
sg64
S'2312'
p745
sg66
S'68'
p746
sba(isrc.gp1.models.Per100Possession
Per100Possession
p747
(dp748
g8
S'4.3'
p749
sg10
S'.292'
p750
sg12
S'0.4'
p751
sg521
S'107'
p752
sg14
S'1.5'
p753
sg16
S'13.7'
p754
sg18
S'1.4'
p755
sg20
S'112'
p756
sg22
S'72'
p757
sg528
g170
sg24
S'0.6'
p758
sg28
S'PG'
p759
sg30
S'0.1'
p760
sg32
S'.506'
p761
sg34
S'35.0'
p762
sg36
S'.782'
p763
sg38
S'11.0'
p764
sg40
S'SAS'
p765
sg42
S'NBA'
p766
sg44
S'71'
p767
sg46
S'4.1'
p768
sg48
S'26.5'
p769
sg50
S'8.0'
p770
sg52
S'.518'
p771
sg54
S'4.9'
p772
sg56
S'26'
p773
sg58
S'27.9'
p774
sg60
S'2.4'
p775
sg62
S'6.3'
p776
sg64
S'14.1'
p777
sg66
S'2456'
p778
sba(isrc.gp1.models.Per100Possession
Per100Possession
p779
(dp780
g8
S'0.2'
p781
sg10
S'1.0'
p782
sg12
S'.487'
p783
sg521
S'106'
p784
sg14
S'9.6'
p785
sg16
S'.294'
p786
sg18
S'0.3'
p787
sg20
S'27.1'
p788
sg22
S'PG'
p789
sg528
S'108'
p790
sg24
S'.756'
p791
sg28
S'NBA'
p792
sg30
S'0.9'
p793
sg32
S'21.7'
p794
sg34
S'2.9'
p795
sg36
S'7.5'
p796
sg38
S'4.1'
p797
sg40
S'27'
p798
sg42
S'SAS'
p799
sg44
S'56'
p800
sg46
S'0.2'
p801
sg48
S'10.3'
p802
sg50
S'5.6'
p803
sg52
S'20.7'
p804
sg54
S'3.9'
p805
sg56
S'2009-10'
p806
sg58
S'10.6'
p807
sg60
S'4.5'
p808
sg62
S'.497'
p809
sg64
S'1728'
p810
sg66
S'50'
p811
sba(isrc.gp1.models.Per100Possession
Per100Possession
p812
(dp813
g8
S'0.6'
p814
sg10
S'1.4'
p815
sg12
S'.519'
p816
sg521
S'113'
p817
sg14
S'10.6'
p818
sg16
S'.357'
p819
sg18
S'0.5'
p820
sg20
S'28.1'
p821
sg22
S'PG'
p822
sg528
S'108'
p823
sg24
S'.769'
p824
sg28
S'NBA'
p825
sg30
S'1.9'
p826
sg32
S'22.0'
p827
sg34
S'2.8'
p828
sg36
S'6.2'
p829
sg38
S'4.9'
p830
sg40
S'28'
p831
sg42
S'SAS'
p832
sg44
S'78'
p833
sg46
S'0.1'
p834
sg48
S'10.9'
p835
sg50
S'4.8'
p836
sg52
S'20.5'
p837
sg54
S'4.3'
p838
sg56
S'2010-11'
p839
sg58
S'11.4'
p840
sg60
S'4.1'
p841
sg62
S'.531'
p842
sg64
S'2528'
p843
sg66
S'78'
p844
sba(isrc.gp1.models.Per100Possession
Per100Possession
p845
(dp846
g8
S'4.0'
p847
sg10
S'.230'
p848
sg12
S'0.4'
p849
sg521
S'106'
p850
sg14
S'1.5'
p851
sg16
S'11.1'
p852
sg18
S'1.6'
p853
sg20
S'112'
p854
sg22
S'60'
p855
sg528
g170
sg24
S'0.6'
p856
sg28
S'PG'
p857
sg30
S'0.1'
p858
sg32
S'.480'
p859
sg34
S'29.4'
p860
sg36
S'.799'
p861
sg38
S'12.4'
p862
sg40
S'SAS'
p863
sg42
S'NBA'
p864
sg44
S'60'
p865
sg46
S'4.1'
p866
sg48
S'22.3'
p867
sg50
S'7.6'
p868
sg52
S'.498'
p869
sg54
S'4.6'
p870
sg56
S'29'
p871
sg58
S'23.9'
p872
sg60
S'2.0'
p873
sg62
S'6.1'
p874
sg64
S'11.5'
p875
sg66
S'1923'
p876
sba(isrc.gp1.models.Per100Possession
Per100Possession
p877
(dp878
g8
S'4.2'
p879
sg10
S'.353'
p880
sg12
S'0.6'
p881
sg521
S'106'
p882
sg14
S'1.3'
p883
sg16
S'11.6'
p884
sg18
S'1.6'
p885
sg20
S'116'
p886
sg22
S'66'
p887
sg528
g170
sg24
S'0.4'
p888
sg28
S'PG'
p889
sg30
S'0.1'
p890
sg32
S'.522'
p891
sg34
S'31.4'
p892
sg36
S'.845'
p893
sg38
S'11.7'
p894
sg40
S'SAS'
p895
sg42
S'NBA'
p896
sg44
S'66'
p897
sg46
S'4.0'
p898
sg48
S'21.7'
p899
sg50
S'7.7'
p900
sg52
S'.534'
p901
sg54
S'4.6'
p902
sg56
S'30'
p903
sg58
S'23.3'
p904
sg60
S'2.2'
p905
sg62
S'6.5'
p906
sg64
S'12.2'
p907
sg66
S'2174'
p908
sba(isrc.gp1.models.Per100Possession
Per100Possession
p909
(dp910
g8
S'3.5'
p911
sg10
S'.373'
p912
sg12
S'0.6'
p913
sg521
S'107'
p914
sg14
S'0.9'
p915
sg16
S'10.9'
p916
sg18
S'1.7'
p917
sg20
S'110'
p918
sg22
S'68'
p919
sg528
g170
sg24
S'0.4'
p920
sg28
S'PG'
p921
sg30
S'0.2'
p922
sg32
S'.499'
p923
sg34
S'28.7'
p924
sg36
S'.811'
p925
sg38
S'9.8'
p926
sg40
S'SAS'
p927
sg42
S'NBA'
p928
sg44
S'68'
p929
sg46
S'3.8'
p930
sg48
S'21.4'
p931
sg50
S'6.1'
p932
sg52
S'.509'
p933
sg54
S'3.9'
p934
sg56
S'31'
p935
sg58
S'23.1'
p936
sg60
S'2.2'
p937
sg62
S'5.0'
p938
sg64
S'11.5'
p939
sg66
S'1997'
p940
sba(isrc.gp1.models.Per100Possession
Per100Possession
p941
(dp942
g8
S'0.4'
p943
sg10
S'2.3'
p944
sg12
S'.486'
p945
sg521
S'105'
p946
sg14
S'8.8'
p947
sg16
S'.427'
p948
sg18
S'1.0'
p949
sg20
S'25.6'
p950
sg22
S'PG'
p951
sg528
S'107'
p952
sg24
S'.783'
p953
sg28
S'NBA'
p954
sg30
S'1.2'
p955
sg32
S'21.8'
p956
sg34
S'2.8'
p957
sg36
S'4.4'
p958
sg38
S'3.4'
p959
sg40
S'32'
p960
sg42
S'SAS'
p961
sg44
S'68'
p962
sg46
S'0.1'
p963
sg48
S'9.6'
p964
sg50
S'3.4'
p965
sg52
S'19.5'
p966
sg54
S'3.0'
p967
sg56
S'2014-15'
p968
sg58
S'10.6'
p969
sg60
S'3.8'
p970
sg62
S'.493'
p971
sg64
S'1953'
p972
sg66
S'68'
p973
sba(isrc.gp1.models.Per100Possession
Per100Possession
p974
(dp975
g8
S'0.5'
p976
sg10
S'1.5'
p977
sg12
S'.520'
p978
sg521
S'113'
p979
sg14
S'9.7'
p980
sg16
S'.432'
p981
sg18
S'0.7'
p982
sg20
S'23.0'
p983
sg22
S'PG'
p984
sg528
S'100'
p985
sg24
S'.757'
p986
sg28
S'NBA'
p987
sg30
S'1.6'
p988
sg32
S'18.4'
p989
sg34
S'3.1'
p990
sg36
S'4.3'
p991
sg38
S'4.9'
p992
sg40
S'33'
p993
sg42
S'SAS'
p994
sg44
S'46'
p995
sg46
S'0.3'
p996
sg48
S'8.9'
p997
sg50
S'3.2'
p998
sg52
S'16.9'
p999
sg54
S'4.4'
p1000
sg56
S'2015-16'
p1001
sg58
S'9.6'
p1002
sg60
S'3.3'
p1003
sg62
S'.528'
p1004
sg64
S'1229'
p1005
sg66
S'46'
p1006
sbasS'_advanced'
p1007
(lp1008
(isrc.gp1.models.Advanced
Advanced
p1009
(dp1010
S'_offensiveReboundPercentage'
p1011
S'1.7'
p1012
sS'_turnOverPercentage'
p1013
S'17.5'
p1014
sS'_winSharesPer48Minutes'
p1015
S'.080'
p1016
sS'_stealPercentage'
p1017
S'2.1'
p1018
sS'_usagePercentage'
p1019
S'17.7'
p1020
sS'_totalReboundsPercentage'
p1021
S'5.0'
p1022
sS'_defensiveBoxPlusMinus'
p1023
S'0.1'
p1024
sg22
S'PG'
p1025
sS'_valueOverReplacementPlayer'
p1026
S'0.9'
p1027
sS'_trueShootingPercentage'
p1028
S'.497'
p1029
sS'_defensiveReboundPercentage'
p1030
S'8.0'
p1031
sS'_freeThrowsAttempRate'
p1032
S'.250'
p1033
sS'_threePointsAttempRate'
p1034
S'.296'
p1035
sg28
S'NBA'
p1036
sS'_offensiveBoxPlusMinues'
p1037
S'-0.5'
p1038
sS'_assistPercentage'
p1039
S'23.9'
p1040
sS'_defensiveWinShares'
p1041
S'2.9'
p1042
sg40
S'19'
p1043
sg42
S'SAS'
p1044
sg44
S'77'
p1045
sS'_blockPercentage'
p1046
S'0.2'
p1047
sS'_playerEfficiencyRating'
p1048
S'11.7'
p1049
sS'_offensiveWinShares'
p1050
S'0.8'
p1051
sg64
S'2267'
p1052
sS'_boxPlusMinus'
p1053
S'-0.4'
p1054
sg56
S'2001-02'
p1055
sS'_winShares'
p1056
S'3.8'
p1057
sba(isrc.gp1.models.Advanced
Advanced
p1058
(dp1059
g1011
S'1.4'
p1060
sg1013
S'14.5'
p1061
sg1015
S'.134'
p1062
sg1017
S'1.4'
p1063
sg1019
S'22.9'
p1064
sg1021
S'4.5'
p1065
sg1023
S'-1.7'
p1066
sg22
S'PG'
p1067
sg1026
S'1.6'
p1068
sg1028
S'.542'
p1069
sg1030
S'7.3'
p1070
sg1032
S'.278'
p1071
sg1034
S'.233'
p1072
sg28
S'NBA'
p1073
sg1037
S'1.9'
p1074
sg1039
S'27.9'
p1075
sg1041
S'2.6'
p1076
sg40
S'20'
p1077
sg42
S'SAS'
p1078
sg44
S'82'
p1079
sg1046
S'0.1'
p1080
sg1048
S'16.5'
p1081
sg1050
S'5.1'
p1082
sg64
S'2774'
p1083
sg1053
S'0.3'
p1084
sg56
S'2002-03'
p1085
sg1056
S'7.7'
p1086
sba(isrc.gp1.models.Advanced
Advanced
p1087
(dp1088
g1011
S'1.9'
p1089
sg1013
S'14.4'
p1090
sg1015
S'.140'
p1091
sg1017
S'1.3'
p1092
sg1019
S'22.3'
p1093
sg1021
S'5.1'
p1094
sg1023
S'-0.4'
p1095
sg22
S'PG'
p1096
sg1026
S'1.9'
p1097
sg1028
S'.516'
p1098
sg1030
S'8.3'
p1099
sg1032
S'.288'
p1100
sg1034
S'.210'
p1101
sg28
S'NBA'
p1102
sg1037
S'1.2'
p1103
sg1039
S'28.7'
p1104
sg1041
S'4.0'
p1105
sg40
S'21'
p1106
sg42
S'SAS'
p1107
sg44
S'75'
p1108
sg1046
S'0.2'
p1109
sg1048
S'15.7'
p1110
sg1050
S'3.5'
p1111
sg64
S'2577'
p1112
sg1053
S'0.8'
p1113
sg56
S'2003-04'
p1114
sg1056
S'7.5'
p1115
sba(isrc.gp1.models.Advanced
Advanced
p1116
(dp1117
g1011
S'2.0'
p1118
sg1013
S'14.6'
p1119
sg1015
S'.141'
p1120
sg1017
S'1.9'
p1121
sg1019
S'25.1'
p1122
sg1021
S'6.4'
p1123
sg1023
S'0.5'
p1124
sg22
S'PG'
p1125
sg1026
S'3.0'
p1126
sg1028
S'.528'
p1127
sg1030
S'10.7'
p1128
sg1032
S'.289'
p1129
sg1034
S'.140'
p1130
sg28
S'NBA'
p1131
sg1037
S'1.9'
p1132
sg1039
S'33.2'
p1133
sg1041
S'4.5'
p1134
sg40
S'22'
p1135
sg42
S'SAS'
p1136
sg44
S'80'
p1137
sg1046
S'0.1'
p1138
sg1048
S'18.0'
p1139
sg1050
S'3.6'
p1140
sg64
S'2735'
p1141
sg1053
S'2.3'
p1142
sg56
S'2004-05'
p1143
sg1056
S'8.1'
p1144
sba(isrc.gp1.models.Advanced
Advanced
p1145
(dp1146
g1011
S'9.5'
p1147
sg1013
S'27.1'
p1148
sg1015
S'2.6'
p1149
sg1017
S'0.1'
p1150
sg1019
S'5.5'
p1151
sg1021
S'32.2'
p1152
sg1023
S'2.6'
p1153
sg22
S'80'
p1154
sg1026
g170
sg1028
S'.032'
p1155
sg1030
S'5.7'
p1156
sg1032
S'1.7'
p1157
sg1034
S'.315'
p1158
sg28
S'PG'
p1159
sg1037
S'0.0'
p1160
sg1039
S'1.7'
p1161
sg1041
S'9.6'
p1162
sg40
S'SAS'
p1163
sg42
S'NBA'
p1164
sg44
S'2715'
p1165
sg1046
S'16.1'
p1166
sg1048
S'.584'
p1167
sg1050
S'4.1'
p1168
sg64
S'20.8'
p1169
sg1053
S'3.1'
p1170
sg56
S'23'
p1171
sg1056
S'.169'
p1172
sba(isrc.gp1.models.Advanced
Advanced
p1173
(dp1174
g1011
S'10.0'
p1175
sg1013
S'27.4'
p1176
sg1015
S'2.5'
p1177
sg1017
S'0.2'
p1178
sg1019
S'5.8'
p1179
sg1021
S'31.7'
p1180
sg1023
S'2.7'
p1181
sg22
S'77'
p1182
sg1026
g170
sg1028
S'.035'
p1183
sg1030
S'6.0'
p1184
sg1032
S'1.7'
p1185
sg1034
S'.319'
p1186
sg28
S'PG'
p1187
sg1037
S'0.1'
p1188
sg1039
S'1.8'
p1189
sg1041
S'9.6'
p1190
sg40
S'SAS'
p1191
sg42
S'NBA'
p1192
sg44
S'2499'
p1193
sg1046
S'13.3'
p1194
sg1048
S'.572'
p1195
sg1050
S'3.9'
p1196
sg64
S'21.4'
p1197
sg1053
S'3.0'
p1198
sg56
S'24'
p1199
sg1056
S'.185'
p1200
sba(isrc.gp1.models.Advanced
Advanced
p1201
(dp1202
g1011
S'1.6'
p1203
sg1013
S'12.1'
p1204
sg1015
S'.146'
p1205
sg1017
S'1.3'
p1206
sg1019
S'28.2'
p1207
sg1021
S'5.6'
p1208
sg1023
S'-0.3'
p1209
sg22
S'PG'
p1210
sg1026
S'2.2'
p1211
sg1028
S'.542'
p1212
sg1030
S'9.6'
p1213
sg1032
S'.333'
p1214
sg1034
S'.063'
p1215
sg28
S'NBA'
p1216
sg1037
S'2.0'
p1217
sg1039
S'34.1'
p1218
sg1041
S'3.2'
p1219
sg40
S'25'
p1220
sg42
S'SAS'
p1221
sg44
S'69'
p1222
sg1046
S'0.3'
p1223
sg1048
S'20.0'
p1224
sg1050
S'3.9'
p1225
sg64
S'2312'
p1226
sg1053
S'1.7'
p1227
sg56
S'2007-08'
p1228
sg1056
S'7.0'
p1229
sba(isrc.gp1.models.Advanced
Advanced
p1230
(dp1231
g1011
S'9.4'
p1232
sg1013
S'31.7'
p1233
sg1015
S'3.9'
p1234
sg1017
S'0.1'
p1235
sg1019
S'5.6'
p1236
sg1021
S'40.1'
p1237
sg1023
S'3.1'
p1238
sg22
S'72'
p1239
sg1026
g170
sg1028
S'.051'
p1240
sg1030
S'5.4'
p1241
sg1032
S'1.3'
p1242
sg1034
S'.287'
p1243
sg28
S'PG'
p1244
sg1037
S'-0.8'
p1245
sg1039
S'1.5'
p1246
sg1041
S'8.6'
p1247
sg40
S'SAS'
p1248
sg42
S'NBA'
p1249
sg44
S'2456'
p1250
sg1046
S'11.6'
p1251
sg1048
S'.556'
p1252
sg1050
S'3.0'
p1253
sg64
S'23.4'
p1254
sg1053
S'3.2'
p1255
sg56
S'26'
p1256
sg1056
S'.168'
p1257
sba(isrc.gp1.models.Advanced
Advanced
p1258
(dp1259
g1011
S'0.5'
p1260
sg1013
S'15.3'
p1261
sg1015
S'.101'
p1262
sg1017
S'0.9'
p1263
sg1019
S'25.8'
p1264
sg1021
S'4.6'
p1265
sg1023
S'-1.6'
p1266
sg22
S'PG'
p1267
sg1026
S'0.1'
p1268
sg1028
S'.542'
p1269
sg1030
S'8.5'
p1270
sg1032
S'.344'
p1271
sg1034
S'.047'
p1272
sg28
S'NBA'
p1273
sg1037
S'-0.1'
p1274
sg1039
S'30.9'
p1275
sg1041
S'1.6'
p1276
sg40
S'27'
p1277
sg42
S'SAS'
p1278
sg44
S'56'
p1279
sg1046
S'0.3'
p1280
sg1048
S'16.4'
p1281
sg1050
S'2.0'
p1282
sg64
S'1728'
p1283
sg1053
S'-1.7'
p1284
sg56
S'2009-10'
p1285
sg1056
S'3.6'
p1286
sba(isrc.gp1.models.Advanced
Advanced
p1287
(dp1288
g1011
S'1.4'
p1289
sg1013
S'14.3'
p1290
sg1015
S'.156'
p1291
sg1017
S'1.9'
p1292
sg1019
S'25.5'
p1293
sg1021
S'5.5'
p1294
sg1023
S'-0.8'
p1295
sg22
S'PG'
p1296
sg1026
S'2.4'
p1297
sg1028
S'.569'
p1298
sg1030
S'9.3'
p1299
sg1032
S'.283'
p1300
sg1034
S'.065'
p1301
sg28
S'NBA'
p1302
sg1037
S'2.5'
p1303
sg1039
S'35.2'
p1304
sg1041
S'2.4'
p1305
sg40
S'28'
p1306
sg42
S'SAS'
p1307
sg44
S'78'
p1308
sg1046
S'0.1'
p1309
sg1048
S'20.4'
p1310
sg1050
S'5.8'
p1311
sg64
S'2528'
p1312
sg1053
S'1.7'
p1313
sg56
S'2010-11'
p1314
sg1056
S'8.2'
p1315
sba(isrc.gp1.models.Advanced
Advanced
p1316
(dp1317
g1011
S'8.7'
p1318
sg1013
S'27.7'
p1319
sg1015
S'3.2'
p1320
sg1017
S'0.2'
p1321
sg1019
S'5.5'
p1322
sg1021
S'40.3'
p1323
sg1023
S'1.7'
p1324
sg22
S'60'
p1325
sg1026
g170
sg1028
S'.069'
p1326
sg1030
S'5.1'
p1327
sg1032
S'1.3'
p1328
sg1034
S'.319'
p1329
sg28
S'PG'
p1330
sg1037
S'-1.5'
p1331
sg1039
S'1.5'
p1332
sg1041
S'7.1'
p1333
sg40
S'SAS'
p1334
sg42
S'NBA'
p1335
sg44
S'1923'
p1336
sg1046
S'13.1'
p1337
sg1048
S'.539'
p1338
sg1050
S'1.6'
p1339
sg64
S'22.0'
p1340
sg1053
S'1.8'
p1341
sg56
S'29'
p1342
sg1056
S'.177'
p1343
sba(isrc.gp1.models.Advanced
Advanced
p1344
(dp1345
g1011
S'9.1'
p1346
sg1013
S'27.7'
p1347
sg1015
S'4.1'
p1348
sg1017
S'0.2'
p1349
sg1019
S'7.1'
p1350
sg1021
S'40.4'
p1351
sg1023
S'2.7'
p1352
sg22
S'66'
p1353
sg1026
g170
sg1028
S'.068'
p1354
sg1030
S'5.3'
p1355
sg1032
S'1.0'
p1356
sg1034
S'.332'
p1357
sg28
S'PG'
p1358
sg1037
S'-1.4'
p1359
sg1039
S'1.3'
p1360
sg1041
S'9.3'
p1361
sg40
S'SAS'
p1362
sg42
S'NBA'
p1363
sg44
S'2174'
p1364
sg1046
S'13.0'
p1365
sg1048
S'.588'
p1366
sg1050
S'2.3'
p1367
sg64
S'23.0'
p1368
sg1053
S'2.6'
p1369
sg56
S'30'
p1370
sg1056
S'.206'
p1371
sba(isrc.gp1.models.Advanced
Advanced
p1372
(dp1373
g1011
S'7.5'
p1374
sg1013
S'26.5'
p1375
sg1015
S'1.3'
p1376
sg1017
S'0.3'
p1377
sg1019
S'3.9'
p1378
sg1021
S'31.7'
p1379
sg1023
S'-0.5'
p1380
sg22
S'68'
p1381
sg1026
g170
sg1028
S'.073'
p1382
sg1030
S'4.4'
p1383
sg1032
S'1.0'
p1384
sg1034
S'.266'
p1385
sg28
S'PG'
p1386
sg1037
S'-1.8'
p1387
sg1039
S'0.9'
p1388
sg1041
S'5.9'
p1389
sg40
S'SAS'
p1390
sg42
S'NBA'
p1391
sg44
S'1997'
p1392
sg1046
S'12.9'
p1393
sg1048
S'.555'
p1394
sg1050
S'1.9'
p1395
sg64
S'18.9'
p1396
sg1053
S'0.8'
p1397
sg56
S'31'
p1398
sg1056
S'.141'
p1399
sba(isrc.gp1.models.Advanced
Advanced
p1400
(dp1401
g1011
S'0.9'
p1402
sg1013
S'13.9'
p1403
sg1015
S'.100'
p1404
sg1017
S'1.2'
p1405
sg1019
S'24.5'
p1406
sg1021
S'3.7'
p1407
sg1023
S'-2.2'
p1408
sg22
S'PG'
p1409
sg1026
S'0.0'
p1410
sg1028
S'.539'
p1411
sg1030
S'6.5'
p1412
sg1032
S'.200'
p1413
sg1034
S'.107'
p1414
sg28
S'NBA'
p1415
sg1037
S'0.2'
p1416
sg1039
S'28.7'
p1417
sg1041
S'1.7'
p1418
sg40
S'32'
p1419
sg42
S'SAS'
p1420
sg44
S'68'
p1421
sg1046
S'0.1'
p1422
sg1048
S'15.9'
p1423
sg1050
S'2.4'
p1424
sg64
S'1953'
p1425
sg1053
S'-2.0'
p1426
sg56
S'2014-15'
p1427
sg1056
S'4.1'
p1428
sba(isrc.gp1.models.Advanced
Advanced
p1429
(dp1430
g1011
S'1.2'
p1431
sg1013
S'13.9'
p1432
sg1015
S'.182'
p1433
sg1017
S'1.6'
p1434
sg1019
S'21.1'
p1435
sg1021
S'5.5'
p1436
sg1023
S'0.2'
p1437
sg22
S'PG'
p1438
sg1026
S'1.1'
p1439
sg1028
S'.568'
p1440
sg1030
S'9.4'
p1441
sg1032
S'.232'
p1442
sg1034
S'.083'
p1443
sg28
S'NBA'
p1444
sg1037
S'1.4'
p1445
sg1039
S'28.9'
p1446
sg1041
S'2.1'
p1447
sg40
S'33'
p1448
sg42
S'SAS'
p1449
sg44
S'46'
p1450
sg1046
S'0.4'
p1451
sg1048
S'17.9'
p1452
sg1050
S'2.6'
p1453
sg64
S'1229'
p1454
sg1053
S'1.6'
p1455
sg56
S'2015-16'
p1456
sg1056
S'4.7'
p1457
sbasS'_per36Minutes'
p1458
(lp1459
(isrc.gp1.models.Per36Minutes
Per36Minutes
p1460
(dp1461
g8
S'0.5'
p1462
sg10
S'3.0'
p1463
sg12
S'.419'
p1464
sg14
S'5.3'
p1465
sg16
S'.323'
p1466
sg18
S'1.0'
p1467
sg20
S'11.2'
p1468
sg22
S'PG'
p1469
sg24
S'.675'
p1470
sg28
S'NBA'
p1471
sg30
S'1.4'
p1472
sg32
S'10.1'
p1473
sg34
S'2.6'
p1474
sg36
S'2.5'
p1475
sg38
S'3.1'
p1476
sg40
S'19'
p1477
sg42
S'SAS'
p1478
sg44
S'77'
p1479
sg46
S'0.1'
p1480
sg48
S'3.3'
p1481
sg50
S'1.7'
p1482
sg52
S'7.1'
p1483
sg54
S'2.6'
p1484
sg56
S'2001-02'
p1485
sg58
S'4.3'
p1486
sg60
S'2.4'
p1487
sg62
S'.460'
p1488
sg64
S'2267'
p1489
sg66
S'72'
p1490
sba(isrc.gp1.models.Per36Minutes
Per36Minutes
p1491
(dp1492
g8
S'0.4'
p1493
sg10
S'3.2'
p1494
sg12
S'.464'
p1495
sg14
S'5.6'
p1496
sg16
S'.337'
p1497
sg18
S'1.1'
p1498
sg20
S'16.5'
p1499
sg22
S'PG'
p1500
sg24
S'.755'
p1501
sg28
S'NBA'
p1502
sg30
S'0.9'
p1503
sg32
S'13.5'
p1504
sg34
S'2.3'
p1505
sg36
S'3.8'
p1506
sg38
S'2.8'
p1507
sg40
S'20'
p1508
sg42
S'SAS'
p1509
sg44
S'82'
p1510
sg46
S'0.1'
p1511
sg48
S'5.2'
p1512
sg50
S'2.8'
p1513
sg52
S'10.4'
p1514
sg54
S'2.4'
p1515
sg56
S'2002-03'
p1516
sg58
S'6.3'
p1517
sg60
S'2.6'
p1518
sg62
S'.503'
p1519
sg64
S'2774'
p1520
sg66
S'82'
p1521
sba(isrc.gp1.models.Per36Minutes
Per36Minutes
p1522
(dp1523
g8
S'0.6'
p1524
sg10
S'2.8'
p1525
sg12
S'.447'
p1526
sg14
S'5.7'
p1527
sg16
S'.312'
p1528
sg18
S'0.9'
p1529
sg20
S'15.4'
p1530
sg22
S'PG'
p1531
sg24
S'.702'
p1532
sg28
S'NBA'
p1533
sg30
S'0.9'
p1534
sg32
S'13.2'
p1535
sg34
S'2.1'
p1536
sg36
S'3.8'
p1537
sg38
S'3.3'
p1538
sg40
S'21'
p1539
sg42
S'SAS'
p1540
sg44
S'75'
p1541
sg46
S'0.1'
p1542
sg48
S'5.0'
p1543
sg50
S'2.7'
p1544
sg52
S'10.4'
p1545
sg54
S'2.7'
p1546
sg56
S'2003-04'
p1547
sg58
S'5.9'
p1548
sg60
S'2.5'
p1549
sg62
S'.483'
p1550
sg64
S'2577'
p1551
sg66
S'75'
p1552
sba(isrc.gp1.models.Per36Minutes
Per36Minutes
p1553
(dp1554
g8
S'0.6'
p1555
sg10
S'2.1'
p1556
sg12
S'.482'
p1557
sg14
S'6.5'
p1558
sg16
S'.276'
p1559
sg18
S'0.6'
p1560
sg20
S'17.5'
p1561
sg22
S'PG'
p1562
sg24
S'.650'
p1563
sg28
S'NBA'
p1564
sg30
S'1.3'
p1565
sg32
S'14.7'
p1566
sg34
S'2.2'
p1567
sg36
S'4.3'
p1568
sg38
S'3.9'
p1569
sg40
S'22'
p1570
sg42
S'SAS'
p1571
sg44
S'80'
p1572
sg46
S'0.1'
p1573
sg48
S'6.5'
p1574
sg50
S'2.8'
p1575
sg52
S'12.7'
p1576
sg54
S'3.3'
p1577
sg56
S'2004-05'
p1578
sg58
S'7.1'
p1579
sg60
S'2.8'
p1580
sg62
S'.516'
p1581
sg64
S'2735'
p1582
sg66
S'80'
p1583
sba(isrc.gp1.models.Per36Minutes
Per36Minutes
p1584
(dp1585
g8
S'3.0'
p1586
sg10
S'.306'
p1587
sg12
S'0.1'
p1588
sg14
S'1.1'
p1589
sg16
S'8.1'
p1590
sg18
S'0.5'
p1591
sg20
g170
sg22
S'80'
p1592
sg24
S'0.5'
p1593
sg28
S'PG'
p1594
sg30
S'0.1'
p1595
sg32
S'.548'
p1596
sg34
S'20.0'
p1597
sg36
S'.707'
p1598
sg38
S'6.1'
p1599
sg40
S'SAS'
p1600
sg42
S'NBA'
p1601
sg44
S'80'
p1602
sg46
S'3.3'
p1603
sg48
S'14.6'
p1604
sg50
S'4.7'
p1605
sg52
S'.556'
p1606
sg54
S'3.5'
p1607
sg56
S'23'
p1608
sg58
S'15.1'
p1609
sg60
S'2.1'
p1610
sg62
S'3.4'
p1611
sg64
S'8.3'
p1612
sg66
S'2715'
p1613
sba(isrc.gp1.models.Per36Minutes
Per36Minutes
p1614
(dp1615
g8
S'3.1'
p1616
sg10
S'.395'
p1617
sg12
S'0.2'
p1618
sg14
S'1.2'
p1619
sg16
S'8.0'
p1620
sg18
S'0.5'
p1621
sg20
g170
sg22
S'77'
p1622
sg24
S'0.5'
p1623
sg28
S'PG'
p1624
sg30
S'0.1'
p1625
sg32
S'.520'
p1626
sg34
S'20.6'
p1627
sg36
S'.783'
p1628
sg38
S'6.1'
p1629
sg40
S'SAS'
p1630
sg42
S'NBA'
p1631
sg44
S'77'
p1632
sg46
S'2.8'
p1633
sg48
S'15.2'
p1634
sg50
S'5.0'
p1635
sg52
S'.525'
p1636
sg54
S'3.6'
p1637
sg56
S'24'
p1638
sg58
S'15.8'
p1639
sg60
S'2.0'
p1640
sg62
S'3.9'
p1641
sg64
S'8.2'
p1642
sg66
S'2499'
p1643
sba(isrc.gp1.models.Per36Minutes
Per36Minutes
p1644
(dp1645
g8
S'0.5'
p1646
sg10
S'1.0'
p1647
sg12
S'.494'
p1648
sg14
S'6.4'
p1649
sg16
S'.258'
p1650
sg18
S'0.3'
p1651
sg20
S'20.2'
p1652
sg22
S'PG'
p1653
sg24
S'.715'
p1654
sg28
S'NBA'
p1655
sg30
S'0.9'
p1656
sg32
S'16.2'
p1657
sg34
S'1.4'
p1658
sg36
S'5.4'
p1659
sg38
S'3.4'
p1660
sg40
S'25'
p1661
sg42
S'SAS'
p1662
sg44
S'69'
p1663
sg46
S'0.1'
p1664
sg48
S'7.8'
p1665
sg50
S'3.9'
p1666
sg52
S'15.2'
p1667
sg54
S'3.0'
p1668
sg56
S'2007-08'
p1669
sg58
S'8.0'
p1670
sg60
S'2.6'
p1671
sg62
S'.510'
p1672
sg64
S'2312'
p1673
sg66
S'68'
p1674
sba(isrc.gp1.models.Per36Minutes
Per36Minutes
p1675
(dp1676
g8
S'2.9'
p1677
sg10
S'.292'
p1678
sg12
S'0.3'
p1679
sg14
S'1.0'
p1680
sg16
S'9.1'
p1681
sg18
S'1.0'
p1682
sg20
g170
sg22
S'72'
p1683
sg24
S'0.4'
p1684
sg28
S'PG'
p1685
sg30
S'0.1'
p1686
sg32
S'.506'
p1687
sg34
S'23.2'
p1688
sg36
S'.782'
p1689
sg38
S'7.3'
p1690
sg40
S'SAS'
p1691
sg42
S'NBA'
p1692
sg44
S'71'
p1693
sg46
S'2.7'
p1694
sg48
S'17.6'
p1695
sg50
S'5.3'
p1696
sg52
S'.518'
p1697
sg54
S'3.3'
p1698
sg56
S'26'
p1699
sg58
S'18.5'
p1700
sg60
S'1.6'
p1701
sg62
S'4.2'
p1702
sg64
S'9.4'
p1703
sg66
S'2456'
p1704
sba(isrc.gp1.models.Per36Minutes
Per36Minutes
p1705
(dp1706
g8
S'0.1'
p1707
sg10
S'0.7'
p1708
sg12
S'.487'
p1709
sg14
S'6.6'
p1710
sg16
S'.294'
p1711
sg18
S'0.2'
p1712
sg20
S'18.6'
p1713
sg22
S'PG'
p1714
sg24
S'.756'
p1715
sg28
S'NBA'
p1716
sg30
S'0.6'
p1717
sg32
S'14.9'
p1718
sg34
S'2.0'
p1719
sg36
S'5.1'
p1720
sg38
S'2.8'
p1721
sg40
S'27'
p1722
sg42
S'SAS'
p1723
sg44
S'56'
p1724
sg46
S'0.2'
p1725
sg48
S'7.1'
p1726
sg50
S'3.9'
p1727
sg52
S'14.2'
p1728
sg54
S'2.7'
p1729
sg56
S'2009-10'
p1730
sg58
S'7.3'
p1731
sg60
S'3.1'
p1732
sg62
S'.497'
p1733
sg64
S'1728'
p1734
sg66
S'50'
p1735
sba(isrc.gp1.models.Per36Minutes
Per36Minutes
p1736
(dp1737
g8
S'0.4'
p1738
sg10
S'1.0'
p1739
sg12
S'.519'
p1740
sg14
S'7.3'
p1741
sg16
S'.357'
p1742
sg18
S'0.4'
p1743
sg20
S'19.5'
p1744
sg22
S'PG'
p1745
sg24
S'.769'
p1746
sg28
S'NBA'
p1747
sg30
S'1.3'
p1748
sg32
S'15.2'
p1749
sg34
S'1.9'
p1750
sg36
S'4.3'
p1751
sg38
S'3.4'
p1752
sg40
S'28'
p1753
sg42
S'SAS'
p1754
sg44
S'78'
p1755
sg46
S'0.0'
p1756
sg48
S'7.5'
p1757
sg50
S'3.3'
p1758
sg52
S'14.2'
p1759
sg54
S'3.0'
p1760
sg56
S'2010-11'
p1761
sg58
S'7.9'
p1762
sg60
S'2.8'
p1763
sg62
S'.531'
p1764
sg64
S'2528'
p1765
sg66
S'78'
p1766
sba(isrc.gp1.models.Per36Minutes
Per36Minutes
p1767
(dp1768
g8
S'2.8'
p1769
sg10
S'.230'
p1770
sg12
S'0.3'
p1771
sg14
S'1.1'
p1772
sg16
S'7.7'
p1773
sg18
S'1.1'
p1774
sg20
g170
sg22
S'60'
p1775
sg24
S'0.4'
p1776
sg28
S'PG'
p1777
sg30
S'0.1'
p1778
sg32
S'.480'
p1779
sg34
S'20.5'
p1780
sg36
S'.799'
p1781
sg38
S'8.7'
p1782
sg40
S'SAS'
p1783
sg42
S'NBA'
p1784
sg44
S'60'
p1785
sg46
S'2.9'
p1786
sg48
S'15.5'
p1787
sg50
S'5.3'
p1788
sg52
S'.498'
p1789
sg54
S'3.2'
p1790
sg56
S'29'
p1791
sg58
S'16.7'
p1792
sg60
S'1.4'
p1793
sg62
S'4.2'
p1794
sg64
S'8.0'
p1795
sg66
S'1923'
p1796
sba(isrc.gp1.models.Per36Minutes
Per36Minutes
p1797
(dp1798
g8
S'3.0'
p1799
sg10
S'.353'
p1800
sg12
S'0.4'
p1801
sg14
S'0.9'
p1802
sg16
S'8.2'
p1803
sg18
S'1.1'
p1804
sg20
g170
sg22
S'66'
p1805
sg24
S'0.3'
p1806
sg28
S'PG'
p1807
sg30
S'0.1'
p1808
sg32
S'.522'
p1809
sg34
S'22.2'
p1810
sg36
S'.845'
p1811
sg38
S'8.3'
p1812
sg40
S'SAS'
p1813
sg42
S'NBA'
p1814
sg44
S'66'
p1815
sg46
S'2.8'
p1816
sg48
S'15.4'
p1817
sg50
S'5.5'
p1818
sg52
S'.534'
p1819
sg54
S'3.3'
p1820
sg56
S'30'
p1821
sg58
S'16.5'
p1822
sg60
S'1.5'
p1823
sg62
S'4.6'
p1824
sg64
S'8.6'
p1825
sg66
S'2174'
p1826
sba(isrc.gp1.models.Per36Minutes
Per36Minutes
p1827
(dp1828
g8
S'2.5'
p1829
sg10
S'.373'
p1830
sg12
S'0.5'
p1831
sg14
S'0.6'
p1832
sg16
S'7.8'
p1833
sg18
S'1.2'
p1834
sg20
g170
sg22
S'68'
p1835
sg24
S'0.3'
p1836
sg28
S'PG'
p1837
sg30
S'0.2'
p1838
sg32
S'.499'
p1839
sg34
S'20.4'
p1840
sg36
S'.811'
p1841
sg38
S'7.0'
p1842
sg40
S'SAS'
p1843
sg42
S'NBA'
p1844
sg44
S'68'
p1845
sg46
S'2.7'
p1846
sg48
S'15.3'
p1847
sg50
S'4.4'
p1848
sg52
S'.509'
p1849
sg54
S'2.8'
p1850
sg56
S'31'
p1851
sg58
S'16.5'
p1852
sg60
S'1.6'
p1853
sg62
S'3.6'
p1854
sg64
S'8.2'
p1855
sg66
S'1997'
p1856
sba(isrc.gp1.models.Per36Minutes
Per36Minutes
p1857
(dp1858
g8
S'0.3'
p1859
sg10
S'1.6'
p1860
sg12
S'.486'
p1861
sg14
S'6.2'
p1862
sg16
S'.427'
p1863
sg18
S'0.7'
p1864
sg20
S'18.0'
p1865
sg22
S'PG'
p1866
sg24
S'.783'
p1867
sg28
S'NBA'
p1868
sg30
S'0.8'
p1869
sg32
S'15.3'
p1870
sg34
S'2.0'
p1871
sg36
S'3.1'
p1872
sg38
S'2.4'
p1873
sg40
S'32'
p1874
sg42
S'SAS'
p1875
sg44
S'68'
p1876
sg46
S'0.0'
p1877
sg48
S'6.7'
p1878
sg50
S'2.4'
p1879
sg52
S'13.7'
p1880
sg54
S'2.1'
p1881
sg56
S'2014-15'
p1882
sg58
S'7.4'
p1883
sg60
S'2.7'
p1884
sg62
S'.493'
p1885
sg64
S'1953'
p1886
sg66
S'68'
p1887
sba(isrc.gp1.models.Per36Minutes
Per36Minutes
p1888
(dp1889
g8
S'0.4'
p1890
sg10
S'1.1'
p1891
sg12
S'.520'
p1892
sg14
S'6.9'
p1893
sg16
S'.432'
p1894
sg18
S'0.5'
p1895
sg20
S'16.3'
p1896
sg22
S'PG'
p1897
sg24
S'.757'
p1898
sg28
S'NBA'
p1899
sg30
S'1.1'
p1900
sg32
S'13.0'
p1901
sg34
S'2.2'
p1902
sg36
S'3.0'
p1903
sg38
S'3.5'
p1904
sg40
S'33'
p1905
sg42
S'SAS'
p1906
sg44
S'46'
p1907
sg46
S'0.2'
p1908
sg48
S'6.3'
p1909
sg50
S'2.3'
p1910
sg52
S'11.9'
p1911
sg54
S'3.1'
p1912
sg56
S'2015-16'
p1913
sg58
S'6.8'
p1914
sg60
S'2.3'
p1915
sg62
S'.528'
p1916
sg64
S'1229'
p1917
sg66
S'46'
p1918
sbasS'_fromYear'
p1919
S'2002'
p1920
sS'_url'
p1921
S'http://www.basketball-reference.com/players/p/parketo01.html'
p1922
sS'_perGame'
p1923
(isrc.gp1.models.PerGame
PerGame
p1924
(dp1925
g8
S'0.3'
p1926
sg10
S'0.8'
p1927
sg12
S'.520'
p1928
sS'_effectiveFieldGalPercentage'
p1929
S'.538'
p1930
sg14
S'5.1'
p1931
sg16
S'.432'
p1932
sg18
S'0.3'
p1933
sg20
S'12.1'
p1934
sg22
S'PG'
p1935
sg24
S'.757'
p1936
sg28
S'NBA'
p1937
sg30
S'0.8'
p1938
sg34
S'1.6'
p1939
sS'_fieldGoalsttempted'
p1940
S'9.7'
p1941
sg36
S'2.2'
p1942
sg38
S'2.6'
p1943
sg40
S'33'
p1944
sg42
S'SAS'
p1945
sg44
S'46'
p1946
sg46
S'0.2'
p1947
sg48
S'4.7'
p1948
sg50
S'1.7'
p1949
sg52
S'8.8'
p1950
sg54
S'2.3'
p1951
sg56
S'2015-16'
p1952
sg58
S'5.0'
p1953
sg60
S'1.7'
p1954
sg62
S'.528'
p1955
sg64
S'26.7'
p1956
sg66
S'46'
p1957
sbsS'_weight'
p1958
S'185'
p1959
sS'_dob'
p1960
S'17-5-1982'
p1961
sS'_salary'
p1962
(lp1963
(isrc.gp1.models.Salary
Salary
p1964
(dp1965
g42
S'San Antonio Spurs'
p1966
sg28
S'NBA'
p1967
sg1962
S'$744,480'
p1968
sg56
S'2001-02'
p1969
sba(isrc.gp1.models.Salary
Salary
p1970
(dp1971
g42
S'San Antonio Spurs'
p1972
sg28
S'NBA'
p1973
sg1962
S'$800,400'
p1974
sg56
S'2002-03'
p1975
sba(isrc.gp1.models.Salary
Salary
p1976
(dp1977
g42
S'San Antonio Spurs'
p1978
sg28
S'NBA'
p1979
sg1962
S'$856,200'
p1980
sg56
S'2003-04'
p1981
sba(isrc.gp1.models.Salary
Salary
p1982
(dp1983
g42
S'San Antonio Spurs'
p1984
sg28
S'NBA'
p1985
sg1962
S'$1,545,441'
p1986
sg56
S'2004-05'
p1987
sba(isrc.gp1.models.Salary
Salary
p1988
(dp1989
g42
S'San Antonio Spurs'
p1990
sg28
S'NBA'
p1991
sg1962
S'$8,400,000'
p1992
sg56
S'2005-06'
p1993
sba(isrc.gp1.models.Salary
Salary
p1994
(dp1995
g42
S'San Antonio Spurs'
p1996
sg28
S'NBA'
p1997
sg1962
S'$9,450,000'
p1998
sg56
S'2006-07'
p1999
sba(isrc.gp1.models.Salary
Salary
p2000
(dp2001
g42
S'San Antonio Spurs'
p2002
sg28
S'NBA'
p2003
sg1962
S'$10,500,000'
p2004
sg56
S'2007-08'
p2005
sba(isrc.gp1.models.Salary
Salary
p2006
(dp2007
g42
S'San Antonio Spurs'
p2008
sg28
S'NBA'
p2009
sg1962
S'$11,550,000'
p2010
sg56
S'2008-09'
p2011
sba(isrc.gp1.models.Salary
Salary
p2012
(dp2013
g42
S'San Antonio Spurs'
p2014
sg28
S'NBA'
p2015
sg1962
S'$12,600,000'
p2016
sg56
S'2009-10'
p2017
sba(isrc.gp1.models.Salary
Salary
p2018
(dp2019
g42
S'San Antonio Spurs'
p2020
sg28
S'NBA'
p2021
sg1962
S'$13,500,000'
p2022
sg56
S'2010-11'
p2023
sba(isrc.gp1.models.Salary
Salary
p2024
(dp2025
g42
S'San Antonio Spurs'
p2026
sg28
S'NBA'
p2027
sg1962
S'$12,500,000'
p2028
sg56
S'2011-12'
p2029
sba(isrc.gp1.models.Salary
Salary
p2030
(dp2031
g42
S'San Antonio Spurs'
p2032
sg28
S'NBA'
p2033
sg1962
S'$12,500,000'
p2034
sg56
S'2012-13'
p2035
sba(isrc.gp1.models.Salary
Salary
p2036
(dp2037
g42
S'San Antonio Spurs'
p2038
sg28
S'NBA'
p2039
sg1962
S'$12,500,000'
p2040
sg56
S'2013-14'
p2041
sba(isrc.gp1.models.Salary
Salary
p2042
(dp2043
g42
S'San Antonio Spurs'
p2044
sg28
S'NBA'
p2045
sg1962
S'$12,500,000'
p2046
sg56
S'2014-15'
p2047
sbasg22
S'G'
p2048
sb.