(isrc.gp1.models.Player
Player
p0
(dp1
S'_experience'
p2
S'NA'
p3
sS'_totals'
p4
(lp5
(isrc.gp1.models.Totals
Totals
p6
(dp7
S'_offensiveRebounds'
p8
S'1'
p9
sS'_threePointsAttempted'
p10
S'3'
p11
sS'_fieldGoalsPercentage'
p12
S'.429'
p13
sS'_assist'
p14
S'2'
p15
sS'_threePointsPercentage'
p16
S'.000'
p17
sS'_threePoints'
p18
S'0'
p19
sS'_points'
p20
g3
sS'_position'
p21
S'PG'
p22
sS'_freeThrowsPercentage'
p23
g9
sS'_effectiveFieldGoalPercentage'
p24
S'.429'
p25
sS'_league'
p26
S'NBA'
p27
sS'_steals'
p28
g19
sS'_fieldGoalsAttempted'
p29
S'14'
p30
sS'_personalFouls'
p31
S'12'
p32
sS'_freeThrowsAttempted'
p33
g19
sS'_totalRebounds'
p34
S'4'
p35
sS'_age'
p36
S'21'
p37
sS'_team'
p38
S'UTA'
p39
sS'_games'
p40
S'8'
p41
sS'_blocks'
p42
g9
sS'_twoPoints'
p43
S'6'
p44
sS'_freeThrows'
p45
g19
sS'_twoPointsAttempted'
p46
S'11'
p47
sS'_defensiveRebounds'
p48
g15
sS'_season'
p49
S'1997-98'
p50
sS'_fieldGoals'
p51
g44
sS'_turnOvers'
p52
g9
sS'_twoPointsPercentage'
p53
S'.545'
p54
sS'_minutesPlayed'
p55
S'23'
p56
sS'_gamesStarted'
p57
g19
sba(isrc.gp1.models.Totals
Totals
p58
(dp59
g8
S'15'
p60
sg10
S'47'
p61
sg12
S'.400'
p62
sg14
S'92'
p63
sg16
S'.319'
p64
sg18
S'15'
p65
sg20
S'169'
p66
sg21
S'PG'
p67
sg23
S'.895'
p68
sg24
S'.450'
p69
sg26
S'NBA'
p70
sg28
S'11'
p71
sg29
S'150'
p72
sg31
S'28'
p73
sg33
S'38'
p74
sg34
S'55'
p75
sg36
S'22'
p76
sg38
S'LAC'
p77
sg40
S'25'
p78
sg42
g15
sg43
S'45'
p79
sg45
S'34'
p80
sg46
S'103'
p81
sg48
S'40'
p82
sg49
S'1998-99'
p83
sg51
S'60'
p84
sg52
S'38'
p85
sg53
S'.437'
p86
sg55
S'524'
p87
sg57
g44
sba(isrc.gp1.models.Totals
Totals
p88
(dp89
g8
S'28'
p90
sg10
S'193'
p91
sg12
S'.377'
p92
sg14
S'242'
p93
sg16
S'.311'
p94
sg18
S'60'
p95
sg20
S'545'
p96
sg21
S'PG'
p97
sg23
S'.811'
p98
sg24
S'.433'
p99
sg26
S'NBA'
p100
sg28
S'43'
p101
sg29
S'541'
p102
sg31
S'65'
p103
sg33
S'95'
p104
sg34
S'148'
p105
sg36
S'23'
p106
sg38
S'LAC'
p107
sg40
S'62'
p108
sg42
g19
sg43
S'144'
p109
sg45
S'77'
p110
sg46
S'348'
p111
sg48
S'120'
p112
sg49
S'1999-00'
p113
sg51
S'204'
p114
sg52
S'108'
p115
sg53
S'.414'
p116
sg55
S'1592'
p117
sg57
S'38'
p118
sba(isrc.gp1.models.Totals
Totals
p119
(dp120
g8
S'38'
p121
sg10
S'109'
p122
sg12
S'.336'
p123
sg14
S'162'
p124
sg16
S'.202'
p125
sg18
S'22'
p126
sg20
S'357'
p127
sg21
S'PG'
p128
sg23
S'.817'
p129
sg24
S'.366'
p130
sg26
S'NBA'
p131
sg28
S'37'
p132
sg29
S'372'
p133
sg31
S'82'
p134
sg33
S'104'
p135
sg34
S'105'
p136
sg36
S'24'
p137
sg38
S'ORL'
p138
sg40
S'75'
p139
sg42
g11
sg43
S'103'
p140
sg45
S'85'
p141
sg46
S'263'
p142
sg48
S'67'
p143
sg49
S'2000-01'
p144
sg51
S'125'
p145
sg52
S'92'
p146
sg53
S'.392'
p147
sg55
S'1008'
p148
sg57
S'7'
p149
sba(isrc.gp1.models.Totals
Totals
p150
(dp151
g8
S'30'
p152
sg10
S'187'
p153
sg12
S'.434'
p154
sg14
S'255'
p155
sg16
S'.353'
p156
sg18
S'66'
p157
sg20
S'950'
p158
sg21
S'PG'
p159
sg23
S'.876'
p160
sg24
S'.475'
p161
sg26
S'NBA'
p162
sg28
S'57'
p163
sg29
S'815'
p164
sg31
S'119'
p165
sg33
S'201'
p166
sg34
S'145'
p167
sg36
S'25'
p168
sg38
S'ORL'
p169
sg40
S'81'
p170
sg42
g44
sg43
S'288'
p171
sg45
S'176'
p172
sg46
S'628'
p173
sg48
S'115'
p174
sg49
S'2001-02'
p175
sg51
S'354'
p176
sg52
S'163'
p177
sg53
S'.459'
p178
sg55
S'1854'
p179
sg57
g35
sba(isrc.gp1.models.Totals
Totals
p180
(dp181
g8
S'42'
p182
sg10
S'266'
p183
sg12
S'.428'
p184
sg14
S'452'
p185
sg16
S'.365'
p186
sg18
S'97'
p187
sg20
S'1123'
p188
sg21
S'PG'
p189
sg23
S'.900'
p190
sg24
S'.479'
p191
sg26
S'NBA'
p192
sg28
S'60'
p193
sg29
S'956'
p194
sg31
S'160'
p195
sg33
S'231'
p196
sg34
S'183'
p197
sg36
S'26'
p198
sg38
S'MIN'
p199
sg40
S'79'
p200
sg42
g149
sg43
S'312'
p201
sg45
S'208'
p202
sg46
S'690'
p203
sg48
S'141'
p204
sg49
S'2002-03'
p205
sg51
S'409'
p206
sg52
S'182'
p207
sg53
S'.452'
p208
sg55
S'2600'
p209
sg57
S'74'
p210
sba(isrc.gp1.models.Totals
Totals
p211
(dp212
g8
g35
sg10
S'77'
p213
sg12
S'.386'
p214
sg14
S'70'
p215
sg16
S'.403'
p216
sg18
S'31'
p217
sg20
S'218'
p218
sg21
S'PG'
p219
sg23
S'.818'
p220
sg24
S'.461'
p221
sg26
S'NBA'
p222
sg28
g149
sg29
S'207'
p223
sg31
S'32'
p224
sg33
S'33'
p225
sg34
S'35'
p226
sg36
S'27'
p227
sg38
S'MIN'
p228
sg40
S'29'
p229
sg42
g19
sg43
S'49'
p230
sg45
S'27'
p231
sg46
S'130'
p232
sg48
S'31'
p233
sg49
S'2003-04'
p234
sg51
S'80'
p235
sg52
S'34'
p236
sg53
S'.377'
p237
sg55
S'503'
p238
sg57
g9
sba(isrc.gp1.models.Totals
Totals
p239
(dp240
g8
S'19'
p241
sg10
S'258'
p242
sg12
S'.401'
p243
sg14
S'283'
p244
sg16
S'.345'
p245
sg18
S'89'
p246
sg20
S'691'
p247
sg21
S'PG'
p248
sg23
S'.778'
p249
sg24
S'.468'
p250
sg26
S'NBA'
p251
sg28
S'27'
p252
sg29
S'664'
p253
sg31
S'121'
p254
sg33
S'90'
p255
sg34
S'105'
p256
sg36
S'28'
p257
sg38
S'MIN'
p258
sg40
S'79'
p259
sg42
g44
sg43
S'177'
p260
sg45
S'70'
p261
sg46
S'406'
p262
sg48
S'86'
p263
sg49
S'2004-05'
p264
sg51
S'266'
p265
sg52
S'113'
p266
sg53
S'.436'
p267
sg55
S'1729'
p268
sg57
S'32'
p269
sba(isrc.gp1.models.Totals
Totals
p270
(dp271
g8
g41
sg10
S'101'
p272
sg12
S'.381'
p273
sg14
S'106'
p274
sg16
S'.396'
p275
sg18
S'40'
p276
sg20
S'342'
p277
sg21
S'PG'
p278
sg23
S'.923'
p279
sg24
S'.441'
p280
sg26
S'NBA'
p281
sg28
S'12'
p282
sg29
S'333'
p283
sg31
S'55'
p284
sg33
S'52'
p285
sg34
S'44'
p286
sg36
S'29'
p287
sg38
S'MIN'
p288
sg40
S'36'
p289
sg42
g35
sg43
S'87'
p290
sg45
S'48'
p291
sg46
S'232'
p292
sg48
S'36'
p293
sg49
S'2005-06'
p294
sg51
S'127'
p295
sg52
S'40'
p296
sg53
S'.375'
p297
sg55
S'800'
p298
sg57
g19
sba(isrc.gp1.models.Totals
Totals
p299
(dp300
g8
g41
sg10
S'80'
p301
sg12
S'.379'
p302
sg14
S'73'
p303
sg16
S'.350'
p304
sg18
S'28'
p305
sg20
S'202'
p306
sg21
S'PG'
p307
sg23
S'.813'
p308
sg24
S'.451'
p309
sg26
S'NBA'
p310
sg28
S'14'
p311
sg29
S'195'
p312
sg31
S'23'
p313
sg33
S'32'
p314
sg34
S'48'
p315
sg36
S'30'
p316
sg38
S'MIN'
p317
sg40
S'34'
p318
sg42
g15
sg43
S'46'
p319
sg45
S'26'
p320
sg46
S'115'
p321
sg48
S'40'
p322
sg49
S'2006-07'
p323
sg51
S'74'
p324
sg52
S'40'
p325
sg53
S'.400'
p326
sg55
S'554'
p327
sg57
g44
sba(isrc.gp1.models.Totals
Totals
p328
(dp329
g8
g19
sg10
S'12'
p330
sg12
S'.290'
p331
sg14
S'9'
p332
sg16
S'.333'
p333
sg18
g35
sg20
S'28'
p334
sg21
S'PG'
p335
sg23
S'1.000'
p336
sg24
S'.355'
p337
sg26
S'NBA'
p338
sg28
g11
sg29
S'31'
p339
sg31
g35
sg33
g44
sg34
g149
sg36
S'31'
p340
sg38
S'GSW'
p341
sg40
g332
sg42
g19
sg43
S'5'
p342
sg45
g44
sg46
S'19'
p343
sg48
g149
sg49
S'2007-08'
p344
sg51
g332
sg52
g149
sg53
S'.263'
p345
sg55
S'93'
p346
sg57
g19
sbasS'_college'
p347
S'Southern Illinois University'
p348
sS'_toYear'
p349
S'2008'
p350
sS'_height'
p351
S'6-1'
p352
sS'_active'
p353
I00
sS'_shootingHand'
p354
VRight
p355
sS'_name'
p356
S'Troy Hudson'
p357
sS'_per100Possessions'
p358
(lp359
(isrc.gp1.models.Per100Possession
Per100Possession
p360
(dp361
g8
S'2.3'
p362
sg10
S'7.0'
p363
sg12
S'.429'
p364
sS'_offensiveRating'
p365
S'104'
p366
sg14
S'4.7'
p367
sg16
S'.000'
p368
sg18
S'0.0'
p369
sg20
S'99'
p370
sg21
S'PG'
p371
sS'_defensiveRating'
p372
g3
sg23
S'2.3'
p373
sg26
S'NBA'
p374
sg28
S'0.0'
p375
sg29
S'32.8'
p376
sg31
S'28.1'
p377
sg33
S'0.0'
p378
sg34
S'9.4'
p379
sg36
S'21'
p380
sg38
S'UTA'
p381
sg40
g41
sg42
S'2.3'
p382
sg43
S'14.0'
p383
sg45
S'0.0'
p384
sg46
S'25.7'
p385
sg48
S'4.7'
p386
sg49
S'1997-98'
p387
sg51
S'14.0'
p388
sg52
S'2.3'
p389
sg53
S'.545'
p390
sg55
S'23'
p391
sg57
g19
sba(isrc.gp1.models.Per100Possession
Per100Possession
p392
(dp393
g8
S'1.5'
p394
sg10
S'4.8'
p395
sg12
S'.400'
p396
sg365
S'105'
p397
sg14
S'9.4'
p398
sg16
S'.319'
p399
sg18
S'1.5'
p400
sg20
S'17.3'
p401
sg21
S'PG'
p402
sg372
S'114'
p403
sg23
S'.895'
p404
sg26
S'NBA'
p405
sg28
S'1.1'
p406
sg29
S'15.4'
p407
sg31
S'2.9'
p408
sg33
S'3.9'
p409
sg34
S'5.6'
p410
sg36
S'22'
p411
sg38
S'LAC'
p412
sg40
S'25'
p413
sg42
S'0.2'
p414
sg43
S'4.6'
p415
sg45
S'3.5'
p416
sg46
S'10.5'
p417
sg48
S'4.1'
p418
sg49
S'1998-99'
p419
sg51
S'6.1'
p420
sg52
S'3.9'
p421
sg53
S'.437'
p422
sg55
S'524'
p423
sg57
g44
sba(isrc.gp1.models.Per100Possession
Per100Possession
p424
(dp425
g8
S'0.9'
p426
sg10
S'6.2'
p427
sg12
S'.377'
p428
sg365
S'96'
p429
sg14
S'7.8'
p430
sg16
S'.311'
p431
sg18
S'1.9'
p432
sg20
S'17.5'
p433
sg21
S'PG'
p434
sg372
S'113'
p435
sg23
S'.811'
p436
sg26
S'NBA'
p437
sg28
S'1.4'
p438
sg29
S'17.4'
p439
sg31
S'2.1'
p440
sg33
S'3.0'
p441
sg34
S'4.8'
p442
sg36
S'23'
p443
sg38
S'LAC'
p444
sg40
S'62'
p445
sg42
S'0.0'
p446
sg43
S'4.6'
p447
sg45
S'2.5'
p448
sg46
S'11.2'
p449
sg48
S'3.9'
p450
sg49
S'1999-00'
p451
sg51
S'6.5'
p452
sg52
S'3.5'
p453
sg53
S'.414'
p454
sg55
S'1592'
p455
sg57
S'38'
p456
sba(isrc.gp1.models.Per100Possession
Per100Possession
p457
(dp458
g8
S'1.9'
p459
sg10
S'5.6'
p460
sg12
S'.336'
p461
sg365
S'90'
p462
sg14
S'8.3'
p463
sg16
S'.202'
p464
sg18
S'1.1'
p465
sg20
S'18.2'
p466
sg21
S'PG'
p467
sg372
S'105'
p468
sg23
S'.817'
p469
sg26
S'NBA'
p470
sg28
S'1.9'
p471
sg29
S'19.0'
p472
sg31
S'4.2'
p473
sg33
S'5.3'
p474
sg34
S'5.4'
p475
sg36
S'24'
p476
sg38
S'ORL'
p477
sg40
S'75'
p478
sg42
S'0.2'
p479
sg43
S'5.3'
p480
sg45
S'4.3'
p481
sg46
S'13.4'
p482
sg48
S'3.4'
p483
sg49
S'2000-01'
p484
sg51
S'6.4'
p485
sg52
S'4.7'
p486
sg53
S'.392'
p487
sg55
S'1008'
p488
sg57
g149
sba(isrc.gp1.models.Per100Possession
Per100Possession
p489
(dp490
g8
S'0.8'
p491
sg10
S'5.2'
p492
sg12
S'.434'
p493
sg365
S'101'
p494
sg14
S'7.1'
p495
sg16
S'.353'
p496
sg18
S'1.8'
p497
sg20
S'26.4'
p498
sg21
S'PG'
p499
sg372
S'109'
p500
sg23
S'.876'
p501
sg26
S'NBA'
p502
sg28
S'1.6'
p503
sg29
S'22.6'
p504
sg31
S'3.3'
p505
sg33
S'5.6'
p506
sg34
S'4.0'
p507
sg36
S'25'
p508
sg38
S'ORL'
p509
sg40
S'81'
p510
sg42
S'0.2'
p511
sg43
S'8.0'
p512
sg45
S'4.9'
p513
sg46
S'17.4'
p514
sg48
S'3.2'
p515
sg49
S'2001-02'
p516
sg51
S'9.8'
p517
sg52
S'4.5'
p518
sg53
S'.459'
p519
sg55
S'1854'
p520
sg57
g35
sba(isrc.gp1.models.Per100Possession
Per100Possession
p521
(dp522
g8
S'0.8'
p523
sg10
S'5.3'
p524
sg12
S'.428'
p525
sg365
S'106'
p526
sg14
S'9.1'
p527
sg16
S'.365'
p528
sg18
S'1.9'
p529
sg20
S'22.6'
p530
sg21
S'PG'
p531
sg372
S'108'
p532
sg23
S'.900'
p533
sg26
S'NBA'
p534
sg28
S'1.2'
p535
sg29
S'19.2'
p536
sg31
S'3.2'
p537
sg33
S'4.6'
p538
sg34
S'3.7'
p539
sg36
S'26'
p540
sg38
S'MIN'
p541
sg40
S'79'
p542
sg42
S'0.1'
p543
sg43
S'6.3'
p544
sg45
S'4.2'
p545
sg46
S'13.9'
p546
sg48
S'2.8'
p547
sg49
S'2002-03'
p548
sg51
S'8.2'
p549
sg52
S'3.7'
p550
sg53
S'.452'
p551
sg55
S'2600'
p552
sg57
S'74'
p553
sba(isrc.gp1.models.Per100Possession
Per100Possession
p554
(dp555
g8
S'0.4'
p556
sg10
S'8.3'
p557
sg12
S'.386'
p558
sg365
S'98'
p559
sg14
S'7.5'
p560
sg16
S'.403'
p561
sg18
S'3.3'
p562
sg20
S'23.4'
p563
sg21
S'PG'
p564
sg372
S'106'
p565
sg23
S'.818'
p566
sg26
S'NBA'
p567
sg28
S'0.8'
p568
sg29
S'22.2'
p569
sg31
S'3.4'
p570
sg33
S'3.5'
p571
sg34
S'3.8'
p572
sg36
S'27'
p573
sg38
S'MIN'
p574
sg40
S'29'
p575
sg42
S'0.0'
p576
sg43
S'5.3'
p577
sg45
S'2.9'
p578
sg46
S'13.9'
p579
sg48
S'3.3'
p580
sg49
S'2003-04'
p581
sg51
S'8.6'
p582
sg52
S'3.6'
p583
sg53
S'.377'
p584
sg55
S'503'
p585
sg57
g9
sba(isrc.gp1.models.Per100Possession
Per100Possession
p586
(dp587
g8
S'0.6'
p588
sg10
S'8.0'
p589
sg12
S'.401'
p590
sg365
S'101'
p591
sg14
S'8.8'
p592
sg16
S'.345'
p593
sg18
S'2.8'
p594
sg20
S'21.5'
p595
sg21
S'PG'
p596
sg372
S'112'
p597
sg23
S'.778'
p598
sg26
S'NBA'
p599
sg28
S'0.8'
p600
sg29
S'20.7'
p601
sg31
S'3.8'
p602
sg33
S'2.8'
p603
sg34
S'3.3'
p604
sg36
S'28'
p605
sg38
S'MIN'
p606
sg40
S'79'
p607
sg42
S'0.2'
p608
sg43
S'5.5'
p609
sg45
S'2.2'
p610
sg46
S'12.7'
p611
sg48
S'2.7'
p612
sg49
S'2004-05'
p613
sg51
S'8.3'
p614
sg52
S'3.5'
p615
sg53
S'.436'
p616
sg55
S'1729'
p617
sg57
S'32'
p618
sba(isrc.gp1.models.Per100Possession
Per100Possession
p619
(dp620
g8
S'0.5'
p621
sg10
S'6.8'
p622
sg12
S'.381'
p623
sg365
S'100'
p624
sg14
S'7.2'
p625
sg16
S'.396'
p626
sg18
S'2.7'
p627
sg20
S'23.1'
p628
sg21
S'PG'
p629
sg372
S'110'
p630
sg23
S'.923'
p631
sg26
S'NBA'
p632
sg28
S'0.8'
p633
sg29
S'22.5'
p634
sg31
S'3.7'
p635
sg33
S'3.5'
p636
sg34
S'3.0'
p637
sg36
S'29'
p638
sg38
S'MIN'
p639
sg40
S'36'
p640
sg42
S'0.3'
p641
sg43
S'5.9'
p642
sg45
S'3.2'
p643
sg46
S'15.7'
p644
sg48
S'2.4'
p645
sg49
S'2005-06'
p646
sg51
S'8.6'
p647
sg52
S'2.7'
p648
sg53
S'.375'
p649
sg55
S'800'
p650
sg57
g19
sba(isrc.gp1.models.Per100Possession
Per100Possession
p651
(dp652
g8
S'0.8'
p653
sg10
S'7.6'
p654
sg12
S'.379'
p655
sg365
S'95'
p656
sg14
S'7.0'
p657
sg16
S'.350'
p658
sg18
S'2.7'
p659
sg20
S'19.2'
p660
sg21
S'PG'
p661
sg372
S'111'
p662
sg23
S'.813'
p663
sg26
S'NBA'
p664
sg28
S'1.3'
p665
sg29
S'18.6'
p666
sg31
S'2.2'
p667
sg33
S'3.0'
p668
sg34
S'4.6'
p669
sg36
S'30'
p670
sg38
S'MIN'
p671
sg40
S'34'
p672
sg42
S'0.2'
p673
sg43
S'4.4'
p674
sg45
S'2.5'
p675
sg46
S'11.0'
p676
sg48
S'3.8'
p677
sg49
S'2006-07'
p678
sg51
S'7.0'
p679
sg52
S'3.8'
p680
sg53
S'.400'
p681
sg55
S'554'
p682
sg57
g44
sba(isrc.gp1.models.Per100Possession
Per100Possession
p683
(dp684
g8
S'0.0'
p685
sg10
S'6.3'
p686
sg12
S'.290'
p687
sg365
S'83'
p688
sg14
S'4.7'
p689
sg16
S'.333'
p690
sg18
S'2.1'
p691
sg20
S'14.6'
p692
sg21
S'PG'
p693
sg372
S'113'
p694
sg23
S'1.000'
p695
sg26
S'NBA'
p696
sg28
S'1.6'
p697
sg29
S'16.2'
p698
sg31
S'2.1'
p699
sg33
S'3.1'
p700
sg34
S'3.7'
p701
sg36
S'31'
p702
sg38
S'GSW'
p703
sg40
g332
sg42
S'0.0'
p704
sg43
S'2.6'
p705
sg45
S'3.1'
p706
sg46
S'9.9'
p707
sg48
S'3.7'
p708
sg49
S'2007-08'
p709
sg51
S'4.7'
p710
sg52
S'3.7'
p711
sg53
S'.263'
p712
sg55
S'93'
p713
sg57
g19
sbasS'_advanced'
p714
(lp715
(isrc.gp1.models.Advanced
Advanced
p716
(dp717
S'_offensiveReboundPercentage'
p718
S'5.8'
p719
sS'_turnOverPercentage'
p720
S'6.7'
p721
sS'_winSharesPer48Minutes'
p722
S'.075'
p723
sS'_stealPercentage'
p724
S'4.7'
p725
sS'_usagePercentage'
p726
S'30.2'
p727
sS'_totalReboundsPercentage'
p728
S'5.4'
p729
sS'_defensiveBoxPlusMinus'
p730
S'-1.8'
p731
sg21
S'PG'
p732
sS'_valueOverReplacementPlayer'
p733
S'0.0'
p734
sS'_trueShootingPercentage'
p735
S'.429'
p736
sS'_defensiveReboundPercentage'
p737
S'5.1'
p738
sS'_freeThrowsAttempRate'
p739
S'.000'
p740
sS'_threePointsAttempRate'
p741
S'.214'
p742
sg26
S'NBA'
p743
sS'_offensiveBoxPlusMinues'
p744
S'2.7'
p745
sS'_assistPercentage'
p746
S'35.1'
p747
sS'_defensiveWinShares'
p748
S'0.0'
p749
sg36
S'21'
p750
sg38
S'UTA'
p751
sg40
g41
sS'_blockPercentage'
p752
S'0.0'
p753
sS'_playerEfficiencyRating'
p754
S'19.1'
p755
sS'_offensiveWinShares'
p756
S'0.0'
p757
sg55
S'23'
p758
sS'_boxPlusMinus'
p759
S'1.0'
p760
sg49
S'1997-98'
p761
sS'_winShares'
p762
S'0.0'
p763
sba(isrc.gp1.models.Advanced
Advanced
p764
(dp765
g718
S'3.2'
p766
sg720
S'18.6'
p767
sg722
S'.043'
p768
sg724
S'1.1'
p769
sg726
S'17.7'
p770
sg728
S'6.2'
p771
sg730
S'-3.6'
p772
sg21
S'PG'
p773
sg733
S'-0.1'
p774
sg735
S'.507'
p775
sg737
S'9.6'
p776
sg739
S'.253'
p777
sg741
S'.313'
p778
sg26
S'NBA'
p779
sg744
S'0.5'
p780
sg746
S'29.7'
p781
sg748
S'-0.2'
p782
sg36
S'22'
p783
sg38
S'LAC'
p784
sg40
S'25'
p785
sg752
S'0.3'
p786
sg754
S'14.1'
p787
sg756
S'0.7'
p788
sg55
S'524'
p789
sg759
S'-3.1'
p790
sg49
S'1998-99'
p791
sg762
S'0.5'
p792
sba(isrc.gp1.models.Advanced
Advanced
p793
(dp794
g718
S'1.9'
p795
sg720
S'15.6'
p796
sg722
S'-0.005'
p797
sg724
S'1.4'
p798
sg726
S'19.2'
p799
sg728
S'5.2'
p800
sg730
S'-3.3'
p801
sg21
S'PG'
p802
sg733
S'-0.9'
p803
sg735
S'.468'
p804
sg737
S'8.7'
p805
sg739
S'.176'
p806
sg741
S'.357'
p807
sg26
S'NBA'
p808
sg744
S'-1.0'
p809
sg746
S'25.3'
p810
sg748
S'-0.2'
p811
sg36
S'23'
p812
sg38
S'LAC'
p813
sg40
S'62'
p814
sg752
S'0.0'
p815
sg754
S'11.6'
p816
sg756
S'0.1'
p817
sg55
S'1592'
p818
sg759
S'-4.3'
p819
sg49
S'1999-00'
p820
sg762
S'-0.2'
p821
sba(isrc.gp1.models.Advanced
Advanced
p822
(dp823
g718
S'4.1'
p824
sg720
S'18.0'
p825
sg722
S'.003'
p826
sg724
S'1.9'
p827
sg726
S'22.4'
p828
sg728
S'5.8'
p829
sg730
S'-2.4'
p830
sg21
S'PG'
p831
sg733
S'-0.8'
p832
sg735
S'.427'
p833
sg737
S'7.6'
p834
sg739
S'.280'
p835
sg741
S'.293'
p836
sg26
S'NBA'
p837
sg744
S'-2.5'
p838
sg746
S'25.5'
p839
sg748
S'0.8'
p840
sg36
S'24'
p841
sg38
S'ORL'
p842
sg40
S'75'
p843
sg752
S'0.2'
p844
sg754
S'10.2'
p845
sg756
S'-0.7'
p846
sg55
S'1008'
p847
sg759
S'-5.0'
p848
sg49
S'2000-01'
p849
sg762
S'0.1'
p850
sba(isrc.gp1.models.Advanced
Advanced
p851
(dp852
g718
S'1.8'
p853
sg720
S'15.3'
p854
sg722
S'.064'
p855
sg724
S'1.6'
p856
sg726
S'25.8'
p857
sg728
S'4.4'
p858
sg730
S'-3.1'
p859
sg21
S'PG'
p860
sg733
S'-0.5'
p861
sg735
S'.526'
p862
sg737
S'7.0'
p863
sg739
S'.247'
p864
sg741
S'.229'
p865
sg26
S'NBA'
p866
sg744
S'0.0'
p867
sg746
S'23.4'
p868
sg748
S'0.9'
p869
sg36
S'25'
p870
sg38
S'ORL'
p871
sg40
S'81'
p872
sg752
S'0.2'
p873
sg754
S'15.3'
p874
sg756
S'1.5'
p875
sg55
S'1854'
p876
sg759
S'-3.1'
p877
sg49
S'2001-02'
p878
sg762
S'2.5'
p879
sba(isrc.gp1.models.Advanced
Advanced
p880
(dp881
g718
S'1.9'
p882
sg720
S'14.7'
p883
sg722
S'.094'
p884
sg724
S'1.2'
p885
sg726
S'21.6'
p886
sg728
S'4.0'
p887
sg730
S'-2.8'
p888
sg21
S'PG'
p889
sg733
S'0.6'
p890
sg735
S'.531'
p891
sg737
S'6.0'
p892
sg739
S'.242'
p893
sg741
S'.278'
p894
sg26
S'NBA'
p895
sg744
S'1.8'
p896
sg746
S'27.0'
p897
sg748
S'1.1'
p898
sg36
S'26'
p899
sg38
S'MIN'
p900
sg40
S'79'
p901
sg752
S'0.2'
p902
sg754
S'15.2'
p903
sg756
S'4.0'
p904
sg55
S'2600'
p905
sg759
S'-1.0'
p906
sg49
S'2002-03'
p907
sg762
S'5.1'
p908
sba(isrc.gp1.models.Advanced
Advanced
p909
(dp910
g718
S'1.0'
p911
sg720
S'13.3'
p912
sg722
S'.058'
p913
sg724
S'0.8'
p914
sg726
S'23.9'
p915
sg728
S'4.0'
p916
sg730
S'-3.7'
p917
sg21
S'PG'
p918
sg733
S'-0.3'
p919
sg735
S'.492'
p920
sg737
S'6.7'
p921
sg739
S'.159'
p922
sg741
S'.372'
p923
sg26
S'NBA'
p924
sg744
S'-0.5'
p925
sg746
S'22.9'
p926
sg748
S'0.3'
p927
sg36
S'27'
p928
sg38
S'MIN'
p929
sg40
S'29'
p930
sg752
S'0.0'
p931
sg754
S'12.5'
p932
sg756
S'0.3'
p933
sg55
S'503'
p934
sg759
S'-4.2'
p935
sg49
S'2003-04'
p936
sg762
S'0.6'
p937
sba(isrc.gp1.models.Advanced
Advanced
p938
(dp939
g718
S'1.3'
p940
sg720
S'13.8'
p941
sg722
S'.036'
p942
sg724
S'0.8'
p943
sg726
S'21.9'
p944
sg728
S'3.5'
p945
sg730
S'-3.8'
p946
sg21
S'PG'
p947
sg733
S'-0.9'
p948
sg735
S'.491'
p949
sg737
S'5.4'
p950
sg739
S'.136'
p951
sg741
S'.389'
p952
sg26
S'NBA'
p953
sg744
S'-0.2'
p954
sg746
S'26.5'
p955
sg748
S'0.6'
p956
sg36
S'28'
p957
sg38
S'MIN'
p958
sg40
S'79'
p959
sg752
S'0.2'
p960
sg754
S'12.1'
p961
sg756
S'0.7'
p962
sg55
S'1729'
p963
sg759
S'-4.0'
p964
sg49
S'2004-05'
p965
sg762
S'1.3'
p966
sba(isrc.gp1.models.Advanced
Advanced
p967
(dp968
g718
S'1.2'
p969
sg720
S'10.1'
p970
sg722
S'.042'
p971
sg724
S'0.8'
p972
sg726
S'23.5'
p973
sg728
S'3.3'
p974
sg730
S'-3.9'
p975
sg21
S'PG'
p976
sg733
S'-0.5'
p977
sg735
S'.480'
p978
sg737
S'5.3'
p979
sg739
S'.156'
p980
sg741
S'.303'
p981
sg26
S'NBA'
p982
sg744
S'-0.7'
p983
sg746
S'23.3'
p984
sg748
S'0.4'
p985
sg36
S'29'
p986
sg38
S'MIN'
p987
sg40
S'36'
p988
sg752
S'0.4'
p989
sg754
S'12.2'
p990
sg756
S'0.3'
p991
sg55
S'800'
p992
sg759
S'-4.6'
p993
sg49
S'2005-06'
p994
sg762
S'0.7'
p995
sba(isrc.gp1.models.Advanced
Advanced
p996
(dp997
g718
S'1.8'
p998
sg720
S'16.1'
p999
sg722
S'.005'
p1000
sg724
S'1.3'
p1001
sg726
S'20.9'
p1002
sg728
S'5.2'
p1003
sg730
S'-2.7'
p1004
sg21
S'PG'
p1005
sg733
S'-0.4'
p1006
sg735
S'.483'
p1007
sg737
S'8.4'
p1008
sg739
S'.164'
p1009
sg741
S'.410'
p1010
sg26
S'NBA'
p1011
sg744
S'-1.9'
p1012
sg746
S'21.4'
p1013
sg748
S'0.3'
p1014
sg36
S'30'
p1015
sg38
S'MIN'
p1016
sg40
S'34'
p1017
sg752
S'0.3'
p1018
sg754
S'10.8'
p1019
sg756
S'-0.2'
p1020
sg55
S'554'
p1021
sg759
S'-4.7'
p1022
sg49
S'2006-07'
p1023
sg762
S'0.1'
p1024
sba(isrc.gp1.models.Advanced
Advanced
p1025
(dp1026
g718
S'0.0'
p1027
sg720
S'17.2'
p1028
sg722
S'-0.062'
p1029
sg724
S'1.6'
p1030
sg726
S'18.4'
p1031
sg728
S'4.0'
p1032
sg730
S'-2.9'
p1033
sg21
S'PG'
p1034
sg733
S'-0.2'
p1035
sg735
S'.416'
p1036
sg737
S'8.4'
p1037
sg739
S'.194'
p1038
sg741
S'.387'
p1039
sg26
S'NBA'
p1040
sg744
S'-5.7'
p1041
sg746
S'12.7'
p1042
sg748
S'0.0'
p1043
sg36
S'31'
p1044
sg38
S'GSW'
p1045
sg40
g332
sg752
S'0.0'
p1046
sg754
S'5.2'
p1047
sg756
S'-0.2'
p1048
sg55
S'93'
p1049
sg759
S'-8.7'
p1050
sg49
S'2007-08'
p1051
sg762
S'-0.1'
p1052
sbasS'_per36Minutes'
p1053
(lp1054
(isrc.gp1.models.Per36Minutes
Per36Minutes
p1055
(dp1056
g8
S'1.6'
p1057
sg10
S'4.7'
p1058
sg12
S'.429'
p1059
sg14
S'3.1'
p1060
sg16
S'.000'
p1061
sg18
S'0.0'
p1062
sg20
g3
sg21
S'PG'
p1063
sg23
S'1.6'
p1064
sg26
S'NBA'
p1065
sg28
S'0.0'
p1066
sg29
S'21.9'
p1067
sg31
S'18.8'
p1068
sg33
S'0.0'
p1069
sg34
S'6.3'
p1070
sg36
S'21'
p1071
sg38
S'UTA'
p1072
sg40
g41
sg42
S'1.6'
p1073
sg43
S'9.4'
p1074
sg45
S'0.0'
p1075
sg46
S'17.2'
p1076
sg48
S'3.1'
p1077
sg49
S'1997-98'
p1078
sg51
S'9.4'
p1079
sg52
S'1.6'
p1080
sg53
S'.545'
p1081
sg55
S'23'
p1082
sg57
g19
sba(isrc.gp1.models.Per36Minutes
Per36Minutes
p1083
(dp1084
g8
S'1.0'
p1085
sg10
S'3.2'
p1086
sg12
S'.400'
p1087
sg14
S'6.3'
p1088
sg16
S'.319'
p1089
sg18
S'1.0'
p1090
sg20
S'11.6'
p1091
sg21
S'PG'
p1092
sg23
S'.895'
p1093
sg26
S'NBA'
p1094
sg28
S'0.8'
p1095
sg29
S'10.3'
p1096
sg31
S'1.9'
p1097
sg33
S'2.6'
p1098
sg34
S'3.8'
p1099
sg36
S'22'
p1100
sg38
S'LAC'
p1101
sg40
S'25'
p1102
sg42
S'0.1'
p1103
sg43
S'3.1'
p1104
sg45
S'2.3'
p1105
sg46
S'7.1'
p1106
sg48
S'2.7'
p1107
sg49
S'1998-99'
p1108
sg51
S'4.1'
p1109
sg52
S'2.6'
p1110
sg53
S'.437'
p1111
sg55
S'524'
p1112
sg57
g44
sba(isrc.gp1.models.Per36Minutes
Per36Minutes
p1113
(dp1114
g8
S'0.6'
p1115
sg10
S'4.4'
p1116
sg12
S'.377'
p1117
sg14
S'5.5'
p1118
sg16
S'.311'
p1119
sg18
S'1.4'
p1120
sg20
S'12.3'
p1121
sg21
S'PG'
p1122
sg23
S'.811'
p1123
sg26
S'NBA'
p1124
sg28
S'1.0'
p1125
sg29
S'12.2'
p1126
sg31
S'1.5'
p1127
sg33
S'2.1'
p1128
sg34
S'3.3'
p1129
sg36
S'23'
p1130
sg38
S'LAC'
p1131
sg40
S'62'
p1132
sg42
S'0.0'
p1133
sg43
S'3.3'
p1134
sg45
S'1.7'
p1135
sg46
S'7.9'
p1136
sg48
S'2.7'
p1137
sg49
S'1999-00'
p1138
sg51
S'4.6'
p1139
sg52
S'2.4'
p1140
sg53
S'.414'
p1141
sg55
S'1592'
p1142
sg57
S'38'
p1143
sba(isrc.gp1.models.Per36Minutes
Per36Minutes
p1144
(dp1145
g8
S'1.4'
p1146
sg10
S'3.9'
p1147
sg12
S'.336'
p1148
sg14
S'5.8'
p1149
sg16
S'.202'
p1150
sg18
S'0.8'
p1151
sg20
S'12.7'
p1152
sg21
S'PG'
p1153
sg23
S'.817'
p1154
sg26
S'NBA'
p1155
sg28
S'1.3'
p1156
sg29
S'13.3'
p1157
sg31
S'2.9'
p1158
sg33
S'3.7'
p1159
sg34
S'3.7'
p1160
sg36
S'24'
p1161
sg38
S'ORL'
p1162
sg40
S'75'
p1163
sg42
S'0.1'
p1164
sg43
S'3.7'
p1165
sg45
S'3.0'
p1166
sg46
S'9.4'
p1167
sg48
S'2.4'
p1168
sg49
S'2000-01'
p1169
sg51
S'4.5'
p1170
sg52
S'3.3'
p1171
sg53
S'.392'
p1172
sg55
S'1008'
p1173
sg57
g149
sba(isrc.gp1.models.Per36Minutes
Per36Minutes
p1174
(dp1175
g8
S'0.6'
p1176
sg10
S'3.6'
p1177
sg12
S'.434'
p1178
sg14
S'5.0'
p1179
sg16
S'.353'
p1180
sg18
S'1.3'
p1181
sg20
S'18.4'
p1182
sg21
S'PG'
p1183
sg23
S'.876'
p1184
sg26
S'NBA'
p1185
sg28
S'1.1'
p1186
sg29
S'15.8'
p1187
sg31
S'2.3'
p1188
sg33
S'3.9'
p1189
sg34
S'2.8'
p1190
sg36
S'25'
p1191
sg38
S'ORL'
p1192
sg40
S'81'
p1193
sg42
S'0.1'
p1194
sg43
S'5.6'
p1195
sg45
S'3.4'
p1196
sg46
S'12.2'
p1197
sg48
S'2.2'
p1198
sg49
S'2001-02'
p1199
sg51
S'6.9'
p1200
sg52
S'3.2'
p1201
sg53
S'.459'
p1202
sg55
S'1854'
p1203
sg57
g35
sba(isrc.gp1.models.Per36Minutes
Per36Minutes
p1204
(dp1205
g8
S'0.6'
p1206
sg10
S'3.7'
p1207
sg12
S'.428'
p1208
sg14
S'6.3'
p1209
sg16
S'.365'
p1210
sg18
S'1.3'
p1211
sg20
S'15.5'
p1212
sg21
S'PG'
p1213
sg23
S'.900'
p1214
sg26
S'NBA'
p1215
sg28
S'0.8'
p1216
sg29
S'13.2'
p1217
sg31
S'2.2'
p1218
sg33
S'3.2'
p1219
sg34
S'2.5'
p1220
sg36
S'26'
p1221
sg38
S'MIN'
p1222
sg40
S'79'
p1223
sg42
S'0.1'
p1224
sg43
S'4.3'
p1225
sg45
S'2.9'
p1226
sg46
S'9.6'
p1227
sg48
S'2.0'
p1228
sg49
S'2002-03'
p1229
sg51
S'5.7'
p1230
sg52
S'2.5'
p1231
sg53
S'.452'
p1232
sg55
S'2600'
p1233
sg57
S'74'
p1234
sba(isrc.gp1.models.Per36Minutes
Per36Minutes
p1235
(dp1236
g8
S'0.3'
p1237
sg10
S'5.5'
p1238
sg12
S'.386'
p1239
sg14
S'5.0'
p1240
sg16
S'.403'
p1241
sg18
S'2.2'
p1242
sg20
S'15.6'
p1243
sg21
S'PG'
p1244
sg23
S'.818'
p1245
sg26
S'NBA'
p1246
sg28
S'0.5'
p1247
sg29
S'14.8'
p1248
sg31
S'2.3'
p1249
sg33
S'2.4'
p1250
sg34
S'2.5'
p1251
sg36
S'27'
p1252
sg38
S'MIN'
p1253
sg40
S'29'
p1254
sg42
S'0.0'
p1255
sg43
S'3.5'
p1256
sg45
S'1.9'
p1257
sg46
S'9.3'
p1258
sg48
S'2.2'
p1259
sg49
S'2003-04'
p1260
sg51
S'5.7'
p1261
sg52
S'2.4'
p1262
sg53
S'.377'
p1263
sg55
S'503'
p1264
sg57
g9
sba(isrc.gp1.models.Per36Minutes
Per36Minutes
p1265
(dp1266
g8
S'0.4'
p1267
sg10
S'5.4'
p1268
sg12
S'.401'
p1269
sg14
S'5.9'
p1270
sg16
S'.345'
p1271
sg18
S'1.9'
p1272
sg20
S'14.4'
p1273
sg21
S'PG'
p1274
sg23
S'.778'
p1275
sg26
S'NBA'
p1276
sg28
S'0.6'
p1277
sg29
S'13.8'
p1278
sg31
S'2.5'
p1279
sg33
S'1.9'
p1280
sg34
S'2.2'
p1281
sg36
S'28'
p1282
sg38
S'MIN'
p1283
sg40
S'79'
p1284
sg42
S'0.1'
p1285
sg43
S'3.7'
p1286
sg45
S'1.5'
p1287
sg46
S'8.5'
p1288
sg48
S'1.8'
p1289
sg49
S'2004-05'
p1290
sg51
S'5.5'
p1291
sg52
S'2.4'
p1292
sg53
S'.436'
p1293
sg55
S'1729'
p1294
sg57
S'32'
p1295
sba(isrc.gp1.models.Per36Minutes
Per36Minutes
p1296
(dp1297
g8
S'0.4'
p1298
sg10
S'4.5'
p1299
sg12
S'.381'
p1300
sg14
S'4.8'
p1301
sg16
S'.396'
p1302
sg18
S'1.8'
p1303
sg20
S'15.4'
p1304
sg21
S'PG'
p1305
sg23
S'.923'
p1306
sg26
S'NBA'
p1307
sg28
S'0.5'
p1308
sg29
S'15.0'
p1309
sg31
S'2.5'
p1310
sg33
S'2.3'
p1311
sg34
S'2.0'
p1312
sg36
S'29'
p1313
sg38
S'MIN'
p1314
sg40
S'36'
p1315
sg42
S'0.2'
p1316
sg43
S'3.9'
p1317
sg45
S'2.2'
p1318
sg46
S'10.4'
p1319
sg48
S'1.6'
p1320
sg49
S'2005-06'
p1321
sg51
S'5.7'
p1322
sg52
S'1.8'
p1323
sg53
S'.375'
p1324
sg55
S'800'
p1325
sg57
g19
sba(isrc.gp1.models.Per36Minutes
Per36Minutes
p1326
(dp1327
g8
S'0.5'
p1328
sg10
S'5.2'
p1329
sg12
S'.379'
p1330
sg14
S'4.7'
p1331
sg16
S'.350'
p1332
sg18
S'1.8'
p1333
sg20
S'13.1'
p1334
sg21
S'PG'
p1335
sg23
S'.813'
p1336
sg26
S'NBA'
p1337
sg28
S'0.9'
p1338
sg29
S'12.7'
p1339
sg31
S'1.5'
p1340
sg33
S'2.1'
p1341
sg34
S'3.1'
p1342
sg36
S'30'
p1343
sg38
S'MIN'
p1344
sg40
S'34'
p1345
sg42
S'0.1'
p1346
sg43
S'3.0'
p1347
sg45
S'1.7'
p1348
sg46
S'7.5'
p1349
sg48
S'2.6'
p1350
sg49
S'2006-07'
p1351
sg51
S'4.8'
p1352
sg52
S'2.6'
p1353
sg53
S'.400'
p1354
sg55
S'554'
p1355
sg57
g44
sba(isrc.gp1.models.Per36Minutes
Per36Minutes
p1356
(dp1357
g8
S'0.0'
p1358
sg10
S'4.6'
p1359
sg12
S'.290'
p1360
sg14
S'3.5'
p1361
sg16
S'.333'
p1362
sg18
S'1.5'
p1363
sg20
S'10.8'
p1364
sg21
S'PG'
p1365
sg23
S'1.000'
p1366
sg26
S'NBA'
p1367
sg28
S'1.2'
p1368
sg29
S'12.0'
p1369
sg31
S'1.5'
p1370
sg33
S'2.3'
p1371
sg34
S'2.7'
p1372
sg36
S'31'
p1373
sg38
S'GSW'
p1374
sg40
g332
sg42
S'0.0'
p1375
sg43
S'1.9'
p1376
sg45
S'2.3'
p1377
sg46
S'7.4'
p1378
sg48
S'2.7'
p1379
sg49
S'2007-08'
p1380
sg51
S'3.5'
p1381
sg52
S'2.7'
p1382
sg53
S'.263'
p1383
sg55
S'93'
p1384
sg57
g19
sbasS'_fromYear'
p1385
S'1998'
p1386
sS'_url'
p1387
S'http://www.basketball-reference.com/players/h/hudsotr01.html'
p1388
sS'_perGame'
p1389
(isrc.gp1.models.PerGame
PerGame
p1390
(dp1391
g8
S'0.0'
p1392
sg10
S'1.3'
p1393
sg12
S'.290'
p1394
sS'_effectiveFieldGalPercentage'
p1395
S'.355'
p1396
sg14
S'1.0'
p1397
sg16
S'.333'
p1398
sg18
S'0.4'
p1399
sg20
S'3.1'
p1400
sg21
S'PG'
p1401
sg23
S'1.000'
p1402
sg26
S'NBA'
p1403
sg28
S'0.3'
p1404
sg31
S'0.4'
p1405
sS'_fieldGoalsttempted'
p1406
S'3.4'
p1407
sg33
S'0.7'
p1408
sg34
S'0.8'
p1409
sg36
S'31'
p1410
sg38
S'GSW'
p1411
sg40
g332
sg42
S'0.0'
p1412
sg43
S'0.6'
p1413
sg45
S'0.7'
p1414
sg46
S'2.1'
p1415
sg48
S'0.8'
p1416
sg49
S'2007-08'
p1417
sg51
S'1.0'
p1418
sg52
S'0.8'
p1419
sg53
S'.263'
p1420
sg55
S'10.3'
p1421
sg57
g19
sbsS'_weight'
p1422
S'170'
p1423
sS'_dob'
p1424
S'13-3-1976'
p1425
sS'_salary'
p1426
(lp1427
(isrc.gp1.models.Salary
Salary
p1428
(dp1429
g38
S'Utah Jazz'
p1430
sg26
S'NBA'
p1431
sg1426
S'$242,000'
p1432
sg49
S'1997-98'
p1433
sba(isrc.gp1.models.Salary
Salary
p1434
(dp1435
g38
S'Los Angeles Clippers'
p1436
sg26
S'NBA'
p1437
sg1426
S'$287,500'
p1438
sg49
S'1998-99'
p1439
sba(isrc.gp1.models.Salary
Salary
p1440
(dp1441
g38
S'Los Angeles Clippers'
p1442
sg26
S'NBA'
p1443
sg1426
S'$460,000'
p1444
sg49
S'1999-00'
p1445
sba(isrc.gp1.models.Salary
Salary
p1446
(dp1447
g38
S'Orlando Magic'
p1448
sg26
S'NBA'
p1449
sg1426
S'$523,500'
p1450
sg49
S'2000-01'
p1451
sba(isrc.gp1.models.Salary
Salary
p1452
(dp1453
g38
S'Orlando Magic'
p1454
sg26
S'NBA'
p1455
sg1426
S'$590,850'
p1456
sg49
S'2001-02'
p1457
sba(isrc.gp1.models.Salary
Salary
p1458
(dp1459
g38
S'Minnesota Timberwolves'
p1460
sg26
S'NBA'
p1461
sg1426
S'$2,000,000'
p1462
sg49
S'2002-03'
p1463
sba(isrc.gp1.models.Salary
Salary
p1464
(dp1465
g38
S'Minnesota Timberwolves'
p1466
sg26
S'NBA'
p1467
sg1426
S'$2,100,000'
p1468
sg49
S'2003-04'
p1469
sba(isrc.gp1.models.Salary
Salary
p1470
(dp1471
g38
S'Minnesota Timberwolves'
p1472
sg26
S'NBA'
p1473
sg1426
S'$4,903,000'
p1474
sg49
S'2004-05'
p1475
sba(isrc.gp1.models.Salary
Salary
p1476
(dp1477
g38
S'Minnesota Timberwolves'
p1478
sg26
S'NBA'
p1479
sg1426
S'$5,253,000'
p1480
sg49
S'2005-06'
p1481
sba(isrc.gp1.models.Salary
Salary
p1482
(dp1483
g38
S'Minnesota Timberwolves'
p1484
sg26
S'NBA'
p1485
sg1426
S'$5,603,000'
p1486
sg49
S'2006-07'
p1487
sba(isrc.gp1.models.Salary
Salary
p1488
(dp1489
g38
S'Minnesota Timberwolves'
p1490
sg26
S'NBA'
p1491
sg1426
S'$5,953,000'
p1492
sg49
S'2007-08'
p1493
sba(isrc.gp1.models.Salary
Salary
p1494
(dp1495
g38
S'Golden State Warriors'
p1496
sg26
S'NBA'
p1497
sg1426
S'$1,219,590'
p1498
sg49
S'2007-08'
p1499
sbasg21
S'G'
p1500
sb.