(isrc.gp1.models.Player
Player
p0
(dp1
S'_experience'
p2
S'NA'
p3
sS'_totals'
p4
(lp5
(isrc.gp1.models.Totals
Totals
p6
(dp7
S'_offensiveRebounds'
p8
S'6'
p9
sS'_threePointsAttempted'
p10
S'0'
p11
sS'_fieldGoalsPercentage'
p12
S'.250'
p13
sS'_assist'
p14
S'1'
p15
sS'_threePointsPercentage'
p16
g3
sS'_threePoints'
p17
g11
sS'_points'
p18
S'14'
p19
sS'_position'
p20
S'C'
p21
sS'_freeThrowsPercentage'
p22
S'.400'
p23
sS'_effectiveFieldGoalPercentage'
p24
S'.250'
p25
sS'_league'
p26
S'NBA'
p27
sS'_steals'
p28
g11
sS'_fieldGoalsAttempted'
p29
S'20'
p30
sS'_personalFouls'
p31
S'13'
p32
sS'_freeThrowsAttempted'
p33
S'10'
p34
sS'_totalRebounds'
p35
S'14'
p36
sS'_age'
p37
S'23'
p38
sS'_team'
p39
S'MEM'
p40
sS'_games'
p41
S'15'
p42
sS'_blocks'
p43
g9
sS'_twoPoints'
p44
S'5'
p45
sS'_freeThrows'
p46
S'4'
p47
sS'_twoPointsAttempted'
p48
S'20'
p49
sS'_defensiveRebounds'
p50
S'8'
p51
sS'_season'
p52
S'2002-03'
p53
sS'_fieldGoals'
p54
g45
sS'_turnOvers'
p55
g51
sS'_twoPointsPercentage'
p56
S'.250'
p57
sS'_minutesPlayed'
p58
S'86'
p59
sS'_gamesStarted'
p60
g11
sba(isrc.gp1.models.Totals
Totals
p61
(dp62
g8
g11
sg10
g11
sg12
S'.000'
p63
sg14
g11
sg16
g3
sg17
g11
sg18
g15
sg20
g21
sg22
S'.500'
p64
sg24
S'.000'
p65
sg26
S'NBA'
p66
sg28
g15
sg29
g47
sg31
S'3'
p67
sg33
S'2'
p68
sg35
g15
sg37
S'24'
p69
sg39
S'TOT'
p70
sg41
S'7'
p71
sg43
g15
sg44
g11
sg46
g15
sg48
g47
sg50
g15
sg52
S'2003-04'
p72
sg54
g11
sg55
g68
sg56
S'.000'
p73
sg58
S'15'
p74
sg60
g11
sba(isrc.gp1.models.Totals
Totals
p75
(dp76
g8
g11
sg10
g11
sg12
S'.000'
p77
sg14
g11
sg16
g3
sg17
g11
sg18
g11
sg20
g21
sg22
g3
sg24
S'.000'
p78
sg26
S'NBA'
p79
sg28
g11
sg29
g68
sg31
g15
sg33
g11
sg35
g15
sg37
S'24'
p80
sg39
S'PHO'
p81
sg41
g47
sg43
g15
sg44
g11
sg46
g11
sg48
g68
sg50
g15
sg52
S'2003-04'
p82
sg54
g11
sg55
g68
sg56
S'.000'
p83
sg58
S'10'
p84
sg60
g11
sba(isrc.gp1.models.Totals
Totals
p85
(dp86
g8
g11
sg10
g11
sg12
S'.000'
p87
sg14
g11
sg16
g3
sg17
g11
sg18
g15
sg20
g21
sg22
S'.500'
p88
sg24
S'.000'
p89
sg26
S'NBA'
p90
sg28
g15
sg29
g68
sg31
g68
sg33
g68
sg35
g11
sg37
S'24'
p91
sg39
S'NYK'
p92
sg41
g67
sg43
g11
sg44
g11
sg46
g15
sg48
g68
sg50
g11
sg52
S'2003-04'
p93
sg54
g11
sg55
g11
sg56
S'.000'
p94
sg58
g45
sg60
g11
sbasS'_college'
p95
S'NA'
p96
sS'_toYear'
p97
S'2004'
p98
sS'_height'
p99
S'7-2'
p100
sS'_active'
p101
I00
sS'_shootingHand'
p102
VRight
p103
sS'_name'
p104
S'Cezary Trybanski'
p105
sS'_per100Possessions'
p106
(lp107
(isrc.gp1.models.Per100Possession
Per100Possession
p108
(dp109
g8
S'3.6'
p110
sg10
S'0.0'
p111
sg12
S'.250'
p112
sS'_offensiveRating'
p113
S'57'
p114
sg14
S'0.6'
p115
sg16
g3
sg17
S'0.0'
p116
sg18
S'8.4'
p117
sg20
g21
sS'_defensiveRating'
p118
S'110'
p119
sg22
S'.400'
p120
sg26
S'NBA'
p121
sg28
S'0.0'
p122
sg29
S'12.0'
p123
sg31
S'7.8'
p124
sg33
S'6.0'
p125
sg35
S'8.4'
p126
sg37
S'23'
p127
sg39
S'MEM'
p128
sg41
S'15'
p129
sg43
S'3.6'
p130
sg44
S'3.0'
p131
sg46
S'2.4'
p132
sg48
S'12.0'
p133
sg50
S'4.8'
p134
sg52
S'2002-03'
p135
sg54
S'3.0'
p136
sg55
S'4.8'
p137
sg56
S'.250'
p138
sg58
S'86'
p139
sg60
g11
sba(isrc.gp1.models.Per100Possession
Per100Possession
p140
(dp141
g8
S'0.0'
p142
sg10
S'0.0'
p143
sg12
S'.000'
p144
sg113
S'17'
p145
sg14
S'0.0'
p146
sg16
g3
sg17
S'0.0'
p147
sg18
S'3.5'
p148
sg20
g21
sg118
S'101'
p149
sg22
S'.500'
p150
sg26
S'NBA'
p151
sg28
S'3.5'
p152
sg29
S'14.0'
p153
sg31
S'10.5'
p154
sg33
S'7.0'
p155
sg35
S'3.5'
p156
sg37
S'24'
p157
sg39
S'TOT'
p158
sg41
g71
sg43
S'3.5'
p159
sg44
S'0.0'
p160
sg46
S'3.5'
p161
sg48
S'14.0'
p162
sg50
S'3.5'
p163
sg52
S'2003-04'
p164
sg54
S'0.0'
p165
sg55
S'7.0'
p166
sg56
S'.000'
p167
sg58
S'15'
p168
sg60
g11
sba(isrc.gp1.models.Per100Possession
Per100Possession
p169
(dp170
g8
S'0.0'
p171
sg10
S'0.0'
p172
sg12
S'.000'
p173
sg113
g11
sg14
S'0.0'
p174
sg16
g3
sg17
S'0.0'
p175
sg18
S'0.0'
p176
sg20
g21
sg118
S'107'
p177
sg22
g3
sg26
S'NBA'
p178
sg28
S'0.0'
p179
sg29
S'10.4'
p180
sg31
S'5.2'
p181
sg33
S'0.0'
p182
sg35
S'5.2'
p183
sg37
S'24'
p184
sg39
S'PHO'
p185
sg41
g47
sg43
S'5.2'
p186
sg44
S'0.0'
p187
sg46
S'0.0'
p188
sg48
S'10.4'
p189
sg50
S'5.2'
p190
sg52
S'2003-04'
p191
sg54
S'0.0'
p192
sg55
S'10.4'
p193
sg56
S'.000'
p194
sg58
S'10'
p195
sg60
g11
sba(isrc.gp1.models.Per100Possession
Per100Possession
p196
(dp197
g8
S'0.0'
p198
sg10
S'0.0'
p199
sg12
S'.000'
p200
sg113
S'43'
p201
sg14
S'0.0'
p202
sg16
g3
sg17
S'0.0'
p203
sg18
S'10.7'
p204
sg20
g21
sg118
S'89'
p205
sg22
S'.500'
p206
sg26
S'NBA'
p207
sg28
S'10.7'
p208
sg29
S'21.4'
p209
sg31
S'21.4'
p210
sg33
S'21.4'
p211
sg35
S'0.0'
p212
sg37
S'24'
p213
sg39
S'NYK'
p214
sg41
g67
sg43
S'0.0'
p215
sg44
S'0.0'
p216
sg46
S'10.7'
p217
sg48
S'21.4'
p218
sg50
S'0.0'
p219
sg52
S'2003-04'
p220
sg54
S'0.0'
p221
sg55
S'0.0'
p222
sg56
S'.000'
p223
sg58
g45
sg60
g11
sbasS'_advanced'
p224
(lp225
(isrc.gp1.models.Advanced
Advanced
p226
(dp227
S'_offensiveReboundPercentage'
p228
S'8.0'
p229
sS'_turnOverPercentage'
p230
S'24.7'
p231
sS'_winSharesPer48Minutes'
p232
S'-0.186'
p233
sS'_stealPercentage'
p234
S'0.0'
p235
sS'_usagePercentage'
p236
S'17.0'
p237
sS'_totalReboundsPercentage'
p238
S'9.2'
p239
sS'_defensiveBoxPlusMinus'
p240
S'-1.2'
p241
sg20
g21
sS'_valueOverReplacementPlayer'
p242
S'-0.2'
p243
sS'_trueShootingPercentage'
p244
S'.287'
p245
sS'_defensiveReboundPercentage'
p246
S'10.3'
p247
sS'_freeThrowsAttempRate'
p248
S'.500'
p249
sS'_threePointsAttempRate'
p250
S'.000'
p251
sg26
S'NBA'
p252
sS'_offensiveBoxPlusMinues'
p253
S'-10.8'
p254
sS'_assistPercentage'
p255
S'1.6'
p256
sS'_defensiveWinShares'
p257
S'0.0'
p258
sg37
S'23'
p259
sg39
S'MEM'
p260
sg41
S'15'
p261
sS'_blockPercentage'
p262
S'4.8'
p263
sS'_playerEfficiencyRating'
p264
S'-1.4'
p265
sS'_offensiveWinShares'
p266
S'-0.4'
p267
sg58
S'86'
p268
sS'_boxPlusMinus'
p269
S'-12.0'
p270
sg52
S'2002-03'
p271
sS'_winShares'
p272
S'-0.3'
p273
sba(isrc.gp1.models.Advanced
Advanced
p274
(dp275
g228
S'0.0'
p276
sg230
S'29.1'
p277
sg232
S'-0.396'
p278
sg234
S'3.6'
p279
sg236
S'21.0'
p280
sg238
S'3.8'
p281
sg240
S'1.1'
p282
sg20
g21
sg242
S'-0.1'
p283
sg244
S'.102'
p284
sg246
S'7.6'
p285
sg248
S'.500'
p286
sg250
S'.000'
p287
sg26
S'NBA'
p288
sg253
S'-18.8'
p289
sg255
S'0.0'
p290
sg257
S'0.0'
p291
sg37
S'24'
p292
sg39
S'TOT'
p293
sg41
g71
sg262
S'5.0'
p294
sg264
S'-12.1'
p295
sg266
S'-0.1'
p296
sg58
S'15'
p297
sg269
S'-17.6'
p298
sg52
S'2003-04'
p299
sg272
S'-0.1'
p300
sba(isrc.gp1.models.Advanced
Advanced
p301
(dp302
g228
S'0.0'
p303
sg230
S'50.0'
p304
sg232
S'-0.480'
p305
sg234
S'0.0'
p306
sg236
S'18.1'
p307
sg238
S'5.7'
p308
sg240
S'0.7'
p309
sg20
g21
sg242
S'0.0'
p310
sg244
S'.000'
p311
sg246
S'11.5'
p312
sg248
S'.000'
p313
sg250
S'.000'
p314
sg26
S'NBA'
p315
sg253
S'-22.0'
p316
sg255
S'0.0'
p317
sg257
S'0.0'
p318
sg37
S'24'
p319
sg39
S'PHO'
p320
sg41
g47
sg262
S'7.4'
p321
sg264
S'-14.8'
p322
sg266
S'-0.1'
p323
sg58
S'10'
p324
sg269
S'-21.2'
p325
sg52
S'2003-04'
p326
sg272
S'-0.1'
p327
sba(isrc.gp1.models.Advanced
Advanced
p328
(dp329
g228
S'0.0'
p330
sg230
S'0.0'
p331
sg232
S'-0.228'
p332
sg234
S'10.7'
p333
sg236
S'26.7'
p334
sg238
S'0.0'
p335
sg240
S'2.0'
p336
sg20
g21
sg242
S'0.0'
p337
sg244
S'.174'
p338
sg246
S'0.0'
p339
sg248
S'1.000'
p340
sg250
S'.000'
p341
sg26
S'NBA'
p342
sg253
S'-12.3'
p343
sg255
S'0.0'
p344
sg257
S'0.0'
p345
sg37
S'24'
p346
sg39
S'NYK'
p347
sg41
g67
sg262
S'0.0'
p348
sg264
S'-6.6'
p349
sg266
S'0.0'
p350
sg58
g45
sg269
S'-10.3'
p351
sg52
S'2003-04'
p352
sg272
S'0.0'
p353
sbasS'_per36Minutes'
p354
(lp355
(isrc.gp1.models.Per36Minutes
Per36Minutes
p356
(dp357
g8
S'2.5'
p358
sg10
S'0.0'
p359
sg12
S'.250'
p360
sg14
S'0.4'
p361
sg16
g3
sg17
S'0.0'
p362
sg18
S'5.9'
p363
sg20
g21
sg22
S'.400'
p364
sg26
S'NBA'
p365
sg28
S'0.0'
p366
sg29
S'8.4'
p367
sg31
S'5.4'
p368
sg33
S'4.2'
p369
sg35
S'5.9'
p370
sg37
S'23'
p371
sg39
S'MEM'
p372
sg41
S'15'
p373
sg43
S'2.5'
p374
sg44
S'2.1'
p375
sg46
S'1.7'
p376
sg48
S'8.4'
p377
sg50
S'3.3'
p378
sg52
S'2002-03'
p379
sg54
S'2.1'
p380
sg55
S'3.3'
p381
sg56
S'.250'
p382
sg58
S'86'
p383
sg60
g11
sba(isrc.gp1.models.Per36Minutes
Per36Minutes
p384
(dp385
g8
S'0.0'
p386
sg10
S'0.0'
p387
sg12
S'.000'
p388
sg14
S'0.0'
p389
sg16
g3
sg17
S'0.0'
p390
sg18
S'2.4'
p391
sg20
g21
sg22
S'.500'
p392
sg26
S'NBA'
p393
sg28
S'2.4'
p394
sg29
S'9.6'
p395
sg31
S'7.2'
p396
sg33
S'4.8'
p397
sg35
S'2.4'
p398
sg37
S'24'
p399
sg39
S'TOT'
p400
sg41
g71
sg43
S'2.4'
p401
sg44
S'0.0'
p402
sg46
S'2.4'
p403
sg48
S'9.6'
p404
sg50
S'2.4'
p405
sg52
S'2003-04'
p406
sg54
S'0.0'
p407
sg55
S'4.8'
p408
sg56
S'.000'
p409
sg58
S'15'
p410
sg60
g11
sba(isrc.gp1.models.Per36Minutes
Per36Minutes
p411
(dp412
g8
S'0.0'
p413
sg10
S'0.0'
p414
sg12
S'.000'
p415
sg14
S'0.0'
p416
sg16
g3
sg17
S'0.0'
p417
sg18
S'0.0'
p418
sg20
g21
sg22
g3
sg26
S'NBA'
p419
sg28
S'0.0'
p420
sg29
S'7.2'
p421
sg31
S'3.6'
p422
sg33
S'0.0'
p423
sg35
S'3.6'
p424
sg37
S'24'
p425
sg39
S'PHO'
p426
sg41
g47
sg43
S'3.6'
p427
sg44
S'0.0'
p428
sg46
S'0.0'
p429
sg48
S'7.2'
p430
sg50
S'3.6'
p431
sg52
S'2003-04'
p432
sg54
S'0.0'
p433
sg55
S'7.2'
p434
sg56
S'.000'
p435
sg58
S'10'
p436
sg60
g11
sba(isrc.gp1.models.Per36Minutes
Per36Minutes
p437
(dp438
g8
S'0.0'
p439
sg10
S'0.0'
p440
sg12
S'.000'
p441
sg14
S'0.0'
p442
sg16
g3
sg17
S'0.0'
p443
sg18
S'7.2'
p444
sg20
g21
sg22
S'.500'
p445
sg26
S'NBA'
p446
sg28
S'7.2'
p447
sg29
S'14.4'
p448
sg31
S'14.4'
p449
sg33
S'14.4'
p450
sg35
S'0.0'
p451
sg37
S'24'
p452
sg39
S'NYK'
p453
sg41
g67
sg43
S'0.0'
p454
sg44
S'0.0'
p455
sg46
S'7.2'
p456
sg48
S'14.4'
p457
sg50
S'0.0'
p458
sg52
S'2003-04'
p459
sg54
S'0.0'
p460
sg55
S'0.0'
p461
sg56
S'.000'
p462
sg58
g45
sg60
g11
sbasS'_fromYear'
p463
S'2003'
p464
sS'_url'
p465
S'http://www.basketball-reference.com/players/t/trybace01.html'
p466
sS'_perGame'
p467
(isrc.gp1.models.PerGame
PerGame
p468
(dp469
g8
S'0.0'
p470
sg10
S'0.0'
p471
sg12
S'.000'
p472
sS'_effectiveFieldGalPercentage'
p473
S'.000'
p474
sg14
S'0.0'
p475
sg16
g3
sg17
S'0.0'
p476
sg18
S'0.3'
p477
sg20
g21
sg22
S'.500'
p478
sg26
S'NBA'
p479
sg28
S'0.3'
p480
sg31
S'0.7'
p481
sS'_fieldGoalsttempted'
p482
S'0.7'
p483
sg33
S'0.7'
p484
sg35
S'0.0'
p485
sg37
S'24'
p486
sg39
S'NYK'
p487
sg41
g67
sg43
S'0.0'
p488
sg44
S'0.0'
p489
sg46
S'0.3'
p490
sg48
S'0.7'
p491
sg50
S'0.0'
p492
sg52
S'2003-04'
p493
sg54
S'0.0'
p494
sg55
S'0.0'
p495
sg56
S'.000'
p496
sg58
S'1.7'
p497
sg60
g11
sbsS'_weight'
p498
S'240'
p499
sS'_dob'
p500
S'22-9-1979'
p501
sS'_salary'
p502
(lp503
(isrc.gp1.models.Salary
Salary
p504
(dp505
g39
S'Memphis Grizzlies'
p506
sg26
S'NBA'
p507
sg502
S'$1,500,000'
p508
sg52
S'2002-03'
p509
sba(isrc.gp1.models.Salary
Salary
p510
(dp511
g39
S'Phoenix Suns'
p512
sg26
S'NBA'
p513
sg502
S'$1,600,000'
p514
sg52
S'2003-04'
p515
sba(isrc.gp1.models.Salary
Salary
p516
(dp517
g39
S'Chicago Bulls'
p518
sg26
S'NBA'
p519
sg502
S'$1,700,000'
p520
sg52
S'2004-05'
p521
sbasg20
g21
sb.