(isrc.gp1.models.Player
Player
p0
(dp1
S'_experience'
p2
S'NA'
p3
sS'_totals'
p4
(lp5
(isrc.gp1.models.Totals
Totals
p6
(dp7
S'_offensiveRebounds'
p8
S'88'
p9
sS'_threePointsAttempted'
p10
S'3'
p11
sS'_fieldGoalsPercentage'
p12
S'.454'
p13
sS'_assist'
p14
S'108'
p15
sS'_threePointsPercentage'
p16
S'.000'
p17
sS'_threePoints'
p18
S'0'
p19
sS'_points'
p20
S'421'
p21
sS'_position'
p22
S'PF'
p23
sS'_freeThrowsPercentage'
p24
S'.859'
p25
sS'_effectiveFieldGoalPercentage'
p26
S'.454'
p27
sS'_league'
p28
S'NBA'
p29
sS'_steals'
p30
S'29'
p31
sS'_fieldGoalsAttempted'
p32
S'377'
p33
sS'_personalFouls'
p34
S'243'
p35
sS'_freeThrowsAttempted'
p36
S'92'
p37
sS'_totalRebounds'
p38
S'218'
p39
sS'_age'
p40
S'22'
p41
sS'_team'
p42
S'NJN'
p43
sS'_games'
p44
S'72'
p45
sS'_blocks'
p46
S'7'
p47
sS'_twoPoints'
p48
S'171'
p49
sS'_freeThrows'
p50
S'79'
p51
sS'_twoPointsAttempted'
p52
S'374'
p53
sS'_defensiveRebounds'
p54
S'130'
p55
sS'_season'
p56
S'1984-85'
p57
sS'_fieldGoals'
p58
S'171'
p59
sS'_turnOvers'
p60
S'90'
p61
sS'_twoPointsPercentage'
p62
S'.457'
p63
sS'_minutesPlayed'
p64
S'1429'
p65
sS'_gamesStarted'
p66
S'36'
p67
sba(isrc.gp1.models.Totals
Totals
p68
(dp69
g8
S'45'
p70
sg10
S'1'
p71
sg12
S'.491'
p72
sg14
S'14'
p73
sg16
S'.000'
p74
sg18
g19
sg20
S'226'
p75
sg22
S'PF'
p76
sg24
S'.744'
p77
sg26
S'.491'
p78
sg28
S'NBA'
p79
sg30
S'21'
p80
sg32
S'171'
p81
sg34
S'125'
p82
sg36
S'78'
p83
sg38
S'137'
p84
sg40
S'23'
p85
sg42
S'NJN'
p86
sg44
S'53'
p87
sg46
g11
sg48
S'84'
p88
sg50
S'58'
p89
sg52
S'170'
p90
sg54
S'92'
p91
sg56
S'1985-86'
p92
sg58
S'84'
p93
sg60
S'49'
p94
sg62
S'.494'
p95
sg64
S'650'
p96
sg66
g71
sba(isrc.gp1.models.Totals
Totals
p97
(dp98
g8
S'80'
p99
sg10
g71
sg12
S'.465'
p100
sg14
S'60'
p101
sg16
S'.000'
p102
sg18
g19
sg20
S'378'
p103
sg22
S'PF'
p104
sg24
S'.731'
p105
sg26
S'.465'
p106
sg28
S'NBA'
p107
sg30
S'33'
p108
sg32
S'325'
p109
sg34
S'200'
p110
sg36
S'104'
p111
sg38
S'197'
p112
sg40
S'24'
p113
sg42
S'NJN'
p114
sg44
S'76'
p115
sg46
S'13'
p116
sg48
S'151'
p117
sg50
S'76'
p118
sg52
S'324'
p119
sg54
S'117'
p120
sg56
S'1986-87'
p121
sg58
S'151'
p122
sg60
S'81'
p123
sg62
S'.466'
p124
sg64
S'1003'
p125
sg66
S'22'
p126
sba(isrc.gp1.models.Totals
Totals
p127
(dp128
g8
g3
sg10
g3
sg12
g3
sg14
g3
sg16
g3
sg18
g3
sg20
g3
sg22
g3
sg24
g3
sg26
g3
sg28
g3
sg30
g3
sg32
g3
sg34
g3
sg36
g3
sg38
g3
sg40
S'25'
p129
sg42
S'Did Not Play\xc2\xa0(other pro league\xe2\x80\x94Italy)'
p130
sg44
g3
sg46
g3
sg48
g3
sg50
g3
sg52
g3
sg54
g3
sg56
S'1987-88'
p131
sg58
g3
sg60
g3
sg62
g3
sg64
g3
sg66
g3
sba(isrc.gp1.models.Totals
Totals
p132
(dp133
g8
g3
sg10
g3
sg12
g3
sg14
g3
sg16
g3
sg18
g3
sg20
g3
sg22
g3
sg24
g3
sg26
g3
sg28
g3
sg30
g3
sg32
g3
sg34
g3
sg36
g3
sg38
g3
sg40
S'26'
p134
sg42
S'Did Not Play\xc2\xa0(other pro league\xe2\x80\x94Italy)'
p135
sg44
g3
sg46
g3
sg48
g3
sg50
g3
sg52
g3
sg54
g3
sg56
S'1988-89'
p136
sg58
g3
sg60
g3
sg62
g3
sg64
g3
sg66
g3
sba(isrc.gp1.models.Totals
Totals
p137
(dp138
g8
S'52'
p139
sg10
S'10'
p140
sg12
S'.429'
p141
sg14
S'53'
p142
sg16
S'.200'
p143
sg18
S'2'
p144
sg20
S'308'
p145
sg22
S'PF'
p146
sg24
S'.778'
p147
sg26
S'.432'
p148
sg28
S'NBA'
p149
sg30
S'23'
p150
sg32
S'308'
p151
sg34
S'161'
p152
sg36
S'54'
p153
sg38
S'227'
p154
sg40
S'27'
p155
sg42
S'ORL'
p156
sg44
S'60'
p157
sg46
S'12'
p158
sg48
S'130'
p159
sg50
S'42'
p160
sg52
S'298'
p161
sg54
S'175'
p162
sg56
S'1989-90'
p163
sg58
S'132'
p164
sg60
S'61'
p165
sg62
S'.436'
p166
sg64
S'1105'
p167
sg66
S'15'
p168
sba(isrc.gp1.models.Totals
Totals
p169
(dp170
g8
S'108'
p171
sg10
S'15'
p172
sg12
S'.487'
p173
sg14
S'97'
p174
sg16
S'.400'
p175
sg18
S'6'
p176
sg20
S'609'
p177
sg22
S'PF'
p178
sg24
S'.759'
p179
sg26
S'.492'
p180
sg28
S'NBA'
p181
sg30
S'29'
p182
sg32
S'532'
p183
sg34
S'234'
p184
sg36
S'112'
p185
sg38
S'363'
p186
sg40
S'28'
p187
sg42
S'ORL'
p188
sg44
S'71'
p189
sg46
S'10'
p190
sg48
S'253'
p191
sg50
S'85'
p192
sg52
S'517'
p193
sg54
S'255'
p194
sg56
S'1990-91'
p195
sg58
S'259'
p196
sg60
S'126'
p197
sg62
S'.489'
p198
sg64
S'1683'
p199
sg66
S'43'
p200
sba(isrc.gp1.models.Totals
Totals
p201
(dp202
g8
S'62'
p203
sg10
S'8'
p204
sg12
S'.451'
p205
sg14
S'92'
p206
sg16
S'.125'
p207
sg18
g71
sg20
S'530'
p208
sg22
S'SF'
p209
sg24
S'.693'
p210
sg26
S'.452'
p211
sg28
S'NBA'
p212
sg30
S'24'
p213
sg32
S'499'
p214
sg34
S'229'
p215
sg36
S'114'
p216
sg38
S'246'
p217
sg40
S'29'
p218
sg42
S'ORL'
p219
sg44
S'75'
p220
sg46
S'16'
p221
sg48
S'224'
p222
sg50
S'79'
p223
sg52
S'491'
p224
sg54
S'184'
p225
sg56
S'1991-92'
p226
sg58
S'225'
p227
sg60
S'106'
p228
sg62
S'.456'
p229
sg64
S'1591'
p230
sg66
S'42'
p231
sba(isrc.gp1.models.Totals
Totals
p232
(dp233
g8
S'74'
p234
sg10
S'17'
p235
sg12
S'.529'
p236
sg14
S'107'
p237
sg16
S'.588'
p238
sg18
S'10'
p239
sg20
S'528'
p240
sg22
S'PF'
p241
sg24
S'.800'
p242
sg26
S'.540'
p243
sg28
S'NBA'
p244
sg30
S'19'
p245
sg32
S'437'
p246
sg34
S'192'
p247
sg36
S'70'
p248
sg38
S'252'
p249
sg40
S'30'
p250
sg42
S'ORL'
p251
sg44
S'75'
p252
sg46
S'9'
p253
sg48
S'221'
p254
sg50
S'56'
p255
sg52
S'420'
p256
sg54
S'178'
p257
sg56
S'1992-93'
p258
sg58
S'231'
p259
sg60
S'66'
p260
sg62
S'.526'
p261
sg64
S'1479'
p262
sg66
S'20'
p263
sba(isrc.gp1.models.Totals
Totals
p264
(dp265
g8
S'79'
p266
sg10
S'55'
p267
sg12
S'.467'
p268
sg14
S'60'
p269
sg16
S'.327'
p270
sg18
S'18'
p271
sg20
S'451'
p272
sg22
S'PF'
p273
sg24
S'.778'
p274
sg26
S'.488'
p275
sg28
S'NBA'
p276
sg30
S'23'
p277
sg32
S'426'
p278
sg34
S'239'
p279
sg36
S'45'
p280
sg38
S'271'
p281
sg40
S'31'
p282
sg42
S'ORL'
p283
sg44
S'68'
p284
sg46
S'11'
p285
sg48
S'181'
p286
sg50
S'35'
p287
sg52
S'371'
p288
sg54
S'192'
p289
sg56
S'1993-94'
p290
sg58
S'199'
p291
sg60
S'75'
p292
sg62
S'.488'
p293
sg64
S'1536'
p294
sg66
S'51'
p295
sba(isrc.gp1.models.Totals
Totals
p296
(dp297
g8
S'23'
p298
sg10
S'75'
p299
sg12
S'.410'
p300
sg14
S'38'
p301
sg16
S'.360'
p302
sg18
S'27'
p303
sg20
S'199'
p304
sg22
S'PF'
p305
sg24
S'.897'
p306
sg26
S'.486'
p307
sg28
S'NBA'
p308
sg30
S'12'
p309
sg32
S'178'
p310
sg34
S'102'
p311
sg36
S'29'
p312
sg38
S'97'
p313
sg40
S'32'
p314
sg42
S'ORL'
p315
sg44
S'49'
p316
sg46
g11
sg48
S'46'
p317
sg50
S'26'
p318
sg52
S'103'
p319
sg54
S'74'
p320
sg56
S'1994-95'
p321
sg58
S'73'
p322
sg60
S'22'
p323
sg62
S'.447'
p324
sg64
S'576'
p325
sg66
S'5'
p326
sba(isrc.gp1.models.Totals
Totals
p327
(dp328
g8
S'10'
p329
sg10
S'27'
p330
sg12
S'.353'
p331
sg14
g176
sg16
S'.333'
p332
sg18
g253
sg20
S'47'
p333
sg22
S'PF'
p334
sg24
S'1.000'
p335
sg26
S'.441'
p336
sg28
S'NBA'
p337
sg30
g144
sg32
S'51'
p338
sg34
S'33'
p339
sg36
g144
sg38
S'28'
p340
sg40
S'33'
p341
sg42
S'ORL'
p342
sg44
S'13'
p343
sg46
g71
sg48
g253
sg50
g144
sg52
S'24'
p344
sg54
S'18'
p345
sg56
S'1995-96'
p346
sg58
S'18'
p347
sg60
S'11'
p348
sg62
S'.375'
p349
sg64
S'192'
p350
sg66
g19
sbasS'_college'
p351
S'Vanderbilt University'
p352
sS'_toYear'
p353
S'1996'
p354
sS'_height'
p355
S'6-9'
p356
sS'_active'
p357
I00
sS'_shootingHand'
p358
VLeft
p359
sS'_name'
p360
S'Jeff Turner'
p361
sS'_per100Possessions'
p362
(lp363
(isrc.gp1.models.Per100Possession
Per100Possession
p364
(dp365
g8
S'2.9'
p366
sg10
S'0.1'
p367
sg12
S'.454'
p368
sS'_offensiveRating'
p369
S'101'
p370
sg14
S'3.6'
p371
sg16
S'.000'
p372
sg18
S'0.0'
p373
sg20
S'14.0'
p374
sg22
S'PF'
p375
sS'_defensiveRating'
p376
S'111'
p377
sg24
S'.859'
p378
sg28
S'NBA'
p379
sg30
S'1.0'
p380
sg32
S'12.5'
p381
sg34
S'8.1'
p382
sg36
S'3.1'
p383
sg38
S'7.2'
p384
sg40
S'22'
p385
sg42
S'NJN'
p386
sg44
S'72'
p387
sg46
S'0.2'
p388
sg48
S'5.7'
p389
sg50
S'2.6'
p390
sg52
S'12.4'
p391
sg54
S'4.3'
p392
sg56
S'1984-85'
p393
sg58
S'5.7'
p394
sg60
S'3.0'
p395
sg62
S'.457'
p396
sg64
S'1429'
p397
sg66
S'36'
p398
sba(isrc.gp1.models.Per100Possession
Per100Possession
p399
(dp400
g8
S'3.2'
p401
sg10
S'0.1'
p402
sg12
S'.491'
p403
sg369
S'100'
p404
sg14
S'1.0'
p405
sg16
S'.000'
p406
sg18
S'0.0'
p407
sg20
S'16.2'
p408
sg22
S'PF'
p409
sg376
S'107'
p410
sg24
S'.744'
p411
sg28
S'NBA'
p412
sg30
S'1.5'
p413
sg32
S'12.2'
p414
sg34
S'8.9'
p415
sg36
S'5.6'
p416
sg38
S'9.8'
p417
sg40
S'23'
p418
sg42
S'NJN'
p419
sg44
S'53'
p420
sg46
S'0.2'
p421
sg48
S'6.0'
p422
sg50
S'4.1'
p423
sg52
S'12.2'
p424
sg54
S'6.6'
p425
sg56
S'1985-86'
p426
sg58
S'6.0'
p427
sg60
S'3.5'
p428
sg62
S'.494'
p429
sg64
S'650'
p430
sg66
g71
sba(isrc.gp1.models.Per100Possession
Per100Possession
p431
(dp432
g8
S'3.8'
p433
sg10
S'0.0'
p434
sg12
S'.465'
p435
sg369
S'99'
p436
sg14
S'2.8'
p437
sg16
S'.000'
p438
sg18
S'0.0'
p439
sg20
S'17.8'
p440
sg22
S'PF'
p441
sg376
S'111'
p442
sg24
S'.731'
p443
sg28
S'NBA'
p444
sg30
S'1.6'
p445
sg32
S'15.3'
p446
sg34
S'9.4'
p447
sg36
S'4.9'
p448
sg38
S'9.3'
p449
sg40
S'24'
p450
sg42
S'NJN'
p451
sg44
S'76'
p452
sg46
S'0.6'
p453
sg48
S'7.1'
p454
sg50
S'3.6'
p455
sg52
S'15.2'
p456
sg54
S'5.5'
p457
sg56
S'1986-87'
p458
sg58
S'7.1'
p459
sg60
S'3.8'
p460
sg62
S'.466'
p461
sg64
S'1003'
p462
sg66
S'22'
p463
sba(isrc.gp1.models.Per100Possession
Per100Possession
p464
(dp465
g8
S'2.2'
p466
sg10
S'0.4'
p467
sg12
S'.429'
p468
sg369
S'93'
p469
sg14
S'2.2'
p470
sg16
S'.200'
p471
sg18
S'0.1'
p472
sg20
S'12.8'
p473
sg22
S'PF'
p474
sg376
S'114'
p475
sg24
S'.778'
p476
sg28
S'NBA'
p477
sg30
S'1.0'
p478
sg32
S'12.8'
p479
sg34
S'6.7'
p480
sg36
S'2.3'
p481
sg38
S'9.5'
p482
sg40
S'27'
p483
sg42
S'ORL'
p484
sg44
S'60'
p485
sg46
S'0.5'
p486
sg48
S'5.4'
p487
sg50
S'1.8'
p488
sg52
S'12.4'
p489
sg54
S'7.3'
p490
sg56
S'1989-90'
p491
sg58
S'5.5'
p492
sg60
S'2.5'
p493
sg62
S'.436'
p494
sg64
S'1105'
p495
sg66
S'15'
p496
sba(isrc.gp1.models.Per100Possession
Per100Possession
p497
(dp498
g8
S'3.1'
p499
sg10
S'0.4'
p500
sg12
S'.487'
p501
sg369
S'99'
p502
sg14
S'2.8'
p503
sg16
S'.400'
p504
sg18
S'0.2'
p505
sg20
S'17.5'
p506
sg22
S'PF'
p507
sg376
S'111'
p508
sg24
S'.759'
p509
sg28
S'NBA'
p510
sg30
S'0.8'
p511
sg32
S'15.3'
p512
sg34
S'6.7'
p513
sg36
S'3.2'
p514
sg38
S'10.4'
p515
sg40
S'28'
p516
sg42
S'ORL'
p517
sg44
S'71'
p518
sg46
S'0.3'
p519
sg48
S'7.3'
p520
sg50
S'2.4'
p521
sg52
S'14.8'
p522
sg54
S'7.3'
p523
sg56
S'1990-91'
p524
sg58
S'7.4'
p525
sg60
S'3.6'
p526
sg62
S'.489'
p527
sg64
S'1683'
p528
sg66
S'43'
p529
sba(isrc.gp1.models.Per100Possession
Per100Possession
p530
(dp531
g8
S'1.9'
p532
sg10
S'0.2'
p533
sg12
S'.451'
p534
sg369
S'93'
p535
sg14
S'2.8'
p536
sg16
S'.125'
p537
sg18
S'0.0'
p538
sg20
S'16.3'
p539
sg22
S'SF'
p540
sg376
S'113'
p541
sg24
S'.693'
p542
sg28
S'NBA'
p543
sg30
S'0.7'
p544
sg32
S'15.4'
p545
sg34
S'7.0'
p546
sg36
S'3.5'
p547
sg38
S'7.6'
p548
sg40
S'29'
p549
sg42
S'ORL'
p550
sg44
S'75'
p551
sg46
S'0.5'
p552
sg48
S'6.9'
p553
sg50
S'2.4'
p554
sg52
S'15.1'
p555
sg54
S'5.7'
p556
sg56
S'1991-92'
p557
sg58
S'6.9'
p558
sg60
S'3.3'
p559
sg62
S'.456'
p560
sg64
S'1591'
p561
sg66
S'42'
p562
sba(isrc.gp1.models.Per100Possession
Per100Possession
p563
(dp564
g8
S'2.5'
p565
sg10
S'0.6'
p566
sg12
S'.529'
p567
sg369
S'113'
p568
sg14
S'3.6'
p569
sg16
S'.588'
p570
sg18
S'0.3'
p571
sg20
S'17.8'
p572
sg22
S'PF'
p573
sg376
S'110'
p574
sg24
S'.800'
p575
sg28
S'NBA'
p576
sg30
S'0.6'
p577
sg32
S'14.7'
p578
sg34
S'6.5'
p579
sg36
S'2.4'
p580
sg38
S'8.5'
p581
sg40
S'30'
p582
sg42
S'ORL'
p583
sg44
S'75'
p584
sg46
S'0.3'
p585
sg48
S'7.4'
p586
sg50
S'1.9'
p587
sg52
S'14.2'
p588
sg54
S'6.0'
p589
sg56
S'1992-93'
p590
sg58
S'7.8'
p591
sg60
S'2.2'
p592
sg62
S'.526'
p593
sg64
S'1479'
p594
sg66
S'20'
p595
sba(isrc.gp1.models.Per100Possession
Per100Possession
p596
(dp597
g8
S'2.6'
p598
sg10
S'1.8'
p599
sg12
S'.467'
p600
sg369
S'101'
p601
sg14
S'2.0'
p602
sg16
S'.327'
p603
sg18
S'0.6'
p604
sg20
S'14.8'
p605
sg22
S'PF'
p606
sg376
S'109'
p607
sg24
S'.778'
p608
sg28
S'NBA'
p609
sg30
S'0.8'
p610
sg32
S'14.0'
p611
sg34
S'7.8'
p612
sg36
S'1.5'
p613
sg38
S'8.9'
p614
sg40
S'31'
p615
sg42
S'ORL'
p616
sg44
S'68'
p617
sg46
S'0.4'
p618
sg48
S'5.9'
p619
sg50
S'1.1'
p620
sg52
S'12.2'
p621
sg54
S'6.3'
p622
sg56
S'1993-94'
p623
sg58
S'6.5'
p624
sg60
S'2.5'
p625
sg62
S'.488'
p626
sg64
S'1536'
p627
sg66
S'51'
p628
sba(isrc.gp1.models.Per100Possession
Per100Possession
p629
(dp630
g8
S'2.0'
p631
sg10
S'6.6'
p632
sg12
S'.410'
p633
sg369
S'111'
p634
sg14
S'3.3'
p635
sg16
S'.360'
p636
sg18
S'2.4'
p637
sg20
S'17.4'
p638
sg22
S'PF'
p639
sg376
S'110'
p640
sg24
S'.897'
p641
sg28
S'NBA'
p642
sg30
S'1.1'
p643
sg32
S'15.6'
p644
sg34
S'8.9'
p645
sg36
S'2.5'
p646
sg38
S'8.5'
p647
sg40
S'32'
p648
sg42
S'ORL'
p649
sg44
S'49'
p650
sg46
S'0.3'
p651
sg48
S'4.0'
p652
sg50
S'2.3'
p653
sg52
S'9.0'
p654
sg54
S'6.5'
p655
sg56
S'1994-95'
p656
sg58
S'6.4'
p657
sg60
S'1.9'
p658
sg62
S'.447'
p659
sg64
S'576'
p660
sg66
g326
sba(isrc.gp1.models.Per100Possession
Per100Possession
p661
(dp662
g8
S'2.7'
p663
sg10
S'7.4'
p664
sg12
S'.353'
p665
sg369
S'88'
p666
sg14
S'1.6'
p667
sg16
S'.333'
p668
sg18
S'2.5'
p669
sg20
S'12.8'
p670
sg22
S'PF'
p671
sg376
S'111'
p672
sg24
S'1.000'
p673
sg28
S'NBA'
p674
sg30
S'0.5'
p675
sg32
S'13.9'
p676
sg34
S'9.0'
p677
sg36
S'0.5'
p678
sg38
S'7.6'
p679
sg40
S'33'
p680
sg42
S'ORL'
p681
sg44
S'13'
p682
sg46
S'0.3'
p683
sg48
S'2.5'
p684
sg50
S'0.5'
p685
sg52
S'6.5'
p686
sg54
S'4.9'
p687
sg56
S'1995-96'
p688
sg58
S'4.9'
p689
sg60
S'3.0'
p690
sg62
S'.375'
p691
sg64
S'192'
p692
sg66
g19
sbasS'_advanced'
p693
(lp694
(isrc.gp1.models.Advanced
Advanced
p695
(dp696
S'_offensiveReboundPercentage'
p697
S'6.7'
p698
sS'_turnOverPercentage'
p699
S'17.7'
p700
sS'_winSharesPer48Minutes'
p701
S'.040'
p702
sS'_stealPercentage'
p703
S'1.0'
p704
sS'_usagePercentage'
p705
S'14.3'
p706
sS'_totalReboundsPercentage'
p707
S'8.6'
p708
sS'_defensiveBoxPlusMinus'
p709
S'-0.4'
p710
sg22
S'PF'
p711
sS'_valueOverReplacementPlayer'
p712
S'-0.4'
p713
sS'_trueShootingPercentage'
p714
S'.504'
p715
sS'_defensiveReboundPercentage'
p716
S'10.5'
p717
sS'_freeThrowsAttempRate'
p718
S'.244'
p719
sS'_threePointsAttempRate'
p720
S'.008'
p721
sg28
S'NBA'
p722
sS'_offensiveBoxPlusMinues'
p723
S'-2.7'
p724
sS'_assistPercentage'
p725
S'9.4'
p726
sS'_defensiveWinShares'
p727
S'1.0'
p728
sg40
S'22'
p729
sg42
S'NJN'
p730
sg44
S'72'
p731
sS'_blockPercentage'
p732
S'0.3'
p733
sS'_playerEfficiencyRating'
p734
S'7.4'
p735
sS'_offensiveWinShares'
p736
S'0.2'
p737
sg64
S'1429'
p738
sS'_boxPlusMinus'
p739
S'-3.1'
p740
sg56
S'1984-85'
p741
sS'_winShares'
p742
S'1.2'
p743
sba(isrc.gp1.models.Advanced
Advanced
p744
(dp745
g697
S'7.7'
p746
sg699
S'19.3'
p747
sg701
S'.057'
p748
sg703
S'1.5'
p749
sg705
S'15.6'
p750
sg707
S'11.8'
p751
sg709
S'-1.1'
p752
sg22
S'PF'
p753
sg712
S'-0.4'
p754
sg714
S'.550'
p755
sg716
S'15.9'
p756
sg718
S'.456'
p757
sg720
S'.006'
p758
sg28
S'NBA'
p759
sg723
S'-3.6'
p760
sg725
S'2.8'
p761
sg727
S'0.7'
p762
sg40
S'23'
p763
sg42
S'NJN'
p764
sg44
S'53'
p765
sg732
S'0.3'
p766
sg734
S'8.4'
p767
sg736
S'0.1'
p768
sg64
S'650'
p769
sg739
S'-4.7'
p770
sg56
S'1985-86'
p771
sg742
S'0.8'
p772
sba(isrc.gp1.models.Advanced
Advanced
p773
(dp774
g697
S'9.0'
p775
sg699
S'17.9'
p776
sg701
S'.031'
p777
sg703
S'1.6'
p778
sg705
S'18.2'
p779
sg707
S'11.0'
p780
sg709
S'-0.4'
p781
sg22
S'PF'
p782
sg712
S'-0.2'
p783
sg714
S'.510'
p784
sg716
S'13.1'
p785
sg718
S'.320'
p786
sg720
S'.003'
p787
sg28
S'NBA'
p788
sg723
S'-2.5'
p789
sg725
S'8.6'
p790
sg727
S'0.8'
p791
sg40
S'24'
p792
sg42
S'NJN'
p793
sg44
S'76'
p794
sg732
S'0.8'
p795
sg734
S'9.1'
p796
sg736
S'-0.1'
p797
sg64
S'1003'
p798
sg739
S'-2.9'
p799
sg56
S'1986-87'
p800
sg742
S'0.6'
p801
sba(isrc.gp1.models.Advanced
Advanced
p802
(dp803
g697
S'4.8'
p804
sg699
S'15.5'
p805
sg701
S'-0.009'
p806
sg703
S'1.0'
p807
sg705
S'13.9'
p808
sg707
S'10.8'
p809
sg709
S'-0.7'
p810
sg22
S'PF'
p811
sg712
S'-0.9'
p812
sg714
S'.464'
p813
sg716
S'17.2'
p814
sg718
S'.175'
p815
sg720
S'.032'
p816
sg28
S'NBA'
p817
sg723
S'-4.4'
p818
sg725
S'6.4'
p819
sg727
S'0.3'
p820
sg40
S'27'
p821
sg42
S'ORL'
p822
sg44
S'60'
p823
sg732
S'0.6'
p824
sg734
S'6.6'
p825
sg736
S'-0.5'
p826
sg64
S'1105'
p827
sg739
S'-5.1'
p828
sg56
S'1989-90'
p829
sg742
S'-0.2'
p830
sba(isrc.gp1.models.Advanced
Advanced
p831
(dp832
g697
S'6.8'
p833
sg699
S'17.8'
p834
sg701
S'.034'
p835
sg703
S'0.8'
p836
sg705
S'17.1'
p837
sg707
S'11.8'
p838
sg709
S'-0.2'
p839
sg22
S'PF'
p840
sg712
S'-0.3'
p841
sg714
S'.524'
p842
sg716
S'17.0'
p843
sg718
S'.211'
p844
sg720
S'.028'
p845
sg28
S'NBA'
p846
sg723
S'-2.5'
p847
sg725
S'8.5'
p848
sg727
S'1.1'
p849
sg40
S'28'
p850
sg42
S'ORL'
p851
sg44
S'71'
p852
sg732
S'0.4'
p853
sg734
S'9.7'
p854
sg736
S'0.0'
p855
sg64
S'1683'
p856
sg739
S'-2.7'
p857
sg56
S'1990-91'
p858
sg742
S'1.2'
p859
sba(isrc.gp1.models.Advanced
Advanced
p860
(dp861
g697
S'4.2'
p862
sg699
S'16.2'
p863
sg701
S'-0.005'
p864
sg703
S'0.7'
p865
sg705
S'17.1'
p866
sg707
S'8.6'
p867
sg709
S'-0.9'
p868
sg22
S'SF'
p869
sg712
S'-1.3'
p870
sg714
S'.483'
p871
sg716
S'13.3'
p872
sg718
S'.228'
p873
sg720
S'.016'
p874
sg28
S'NBA'
p875
sg723
S'-4.3'
p876
sg725
S'8.6'
p877
sg727
S'0.8'
p878
sg40
S'29'
p879
sg42
S'ORL'
p880
sg44
S'75'
p881
sg732
S'0.6'
p882
sg734
S'7.2'
p883
sg736
S'-1.0'
p884
sg64
S'1591'
p885
sg739
S'-5.2'
p886
sg56
S'1991-92'
p887
sg742
S'-0.2'
p888
sba(isrc.gp1.models.Advanced
Advanced
p889
(dp890
g697
S'6.0'
p891
sg699
S'12.4'
p892
sg701
S'.100'
p893
sg703
S'0.6'
p894
sg705
S'15.5'
p895
sg707
S'9.6'
p896
sg709
S'-0.3'
p897
sg22
S'PF'
p898
sg712
S'0.4'
p899
sg714
S'.564'
p900
sg716
S'12.8'
p901
sg718
S'.160'
p902
sg720
S'.039'
p903
sg28
S'NBA'
p904
sg723
S'-0.7'
p905
sg725
S'10.9'
p906
sg727
S'1.2'
p907
sg40
S'30'
p908
sg42
S'ORL'
p909
sg44
S'75'
p910
sg732
S'0.4'
p911
sg734
S'11.4'
p912
sg736
S'1.8'
p913
sg64
S'1479'
p914
sg739
S'-1.1'
p915
sg56
S'1992-93'
p916
sg742
S'3.1'
p917
sba(isrc.gp1.models.Advanced
Advanced
p918
(dp919
g697
S'5.8'
p920
sg699
S'14.4'
p921
sg701
S'.043'
p922
sg703
S'0.8'
p923
sg705
S'14.5'
p924
sg707
S'9.9'
p925
sg709
S'-1.0'
p926
sg22
S'PF'
p927
sg712
S'-0.6'
p928
sg714
S'.506'
p929
sg716
S'13.9'
p930
sg718
S'.106'
p931
sg720
S'.129'
p932
sg28
S'NBA'
p933
sg723
S'-2.6'
p934
sg725
S'5.4'
p935
sg727
S'1.0'
p936
sg40
S'31'
p937
sg42
S'ORL'
p938
sg44
S'68'
p939
sg732
S'0.5'
p940
sg734
S'7.6'
p941
sg736
S'0.4'
p942
sg64
S'1536'
p943
sg739
S'-3.6'
p944
sg56
S'1993-94'
p945
sg742
S'1.4'
p946
sba(isrc.gp1.models.Advanced
Advanced
p947
(dp948
g697
S'4.7'
p949
sg699
S'10.3'
p950
sg701
S'.091'
p951
sg703
S'1.1'
p952
sg705
S'15.9'
p953
sg707
S'9.6'
p954
sg709
S'-1.9'
p955
sg22
S'PF'
p956
sg712
S'-0.1'
p957
sg714
S'.522'
p958
sg716
S'14.3'
p959
sg718
S'.163'
p960
sg720
S'.421'
p961
sg28
S'NBA'
p962
sg723
S'-0.9'
p963
sg725
S'8.9'
p964
sg727
S'0.5'
p965
sg40
S'32'
p966
sg42
S'ORL'
p967
sg44
S'49'
p968
sg732
S'0.4'
p969
sg734
S'9.6'
p970
sg736
S'0.6'
p971
sg64
S'576'
p972
sg739
S'-2.8'
p973
sg56
S'1994-95'
p974
sg742
S'1.1'
p975
sba(isrc.gp1.models.Advanced
Advanced
p976
(dp977
g697
S'6.2'
p978
sg699
S'17.5'
p979
sg701
S'-0.015'
p980
sg703
S'0.5'
p981
sg705
S'14.8'
p982
sg707
S'8.5'
p983
sg709
S'-2.4'
p984
sg22
S'PF'
p985
sg712
S'-0.2'
p986
sg714
S'.453'
p987
sg716
S'10.7'
p988
sg718
S'.039'
p989
sg720
S'.529'
p990
sg28
S'NBA'
p991
sg723
S'-3.9'
p992
sg725
S'4.4'
p993
sg727
S'0.1'
p994
sg40
S'33'
p995
sg42
S'ORL'
p996
sg44
S'13'
p997
sg732
S'0.4'
p998
sg734
S'3.6'
p999
sg736
S'-0.2'
p1000
sg64
S'192'
p1001
sg739
S'-6.4'
p1002
sg56
S'1995-96'
p1003
sg742
S'-0.1'
p1004
sbasS'_per36Minutes'
p1005
(lp1006
(isrc.gp1.models.Per36Minutes
Per36Minutes
p1007
(dp1008
g8
S'2.2'
p1009
sg10
S'0.1'
p1010
sg12
S'.454'
p1011
sg14
S'2.7'
p1012
sg16
S'.000'
p1013
sg18
S'0.0'
p1014
sg20
S'10.6'
p1015
sg22
S'PF'
p1016
sg24
S'.859'
p1017
sg28
S'NBA'
p1018
sg30
S'0.7'
p1019
sg32
S'9.5'
p1020
sg34
S'6.1'
p1021
sg36
S'2.3'
p1022
sg38
S'5.5'
p1023
sg40
S'22'
p1024
sg42
S'NJN'
p1025
sg44
S'72'
p1026
sg46
S'0.2'
p1027
sg48
S'4.3'
p1028
sg50
S'2.0'
p1029
sg52
S'9.4'
p1030
sg54
S'3.3'
p1031
sg56
S'1984-85'
p1032
sg58
S'4.3'
p1033
sg60
S'2.3'
p1034
sg62
S'.457'
p1035
sg64
S'1429'
p1036
sg66
S'36'
p1037
sba(isrc.gp1.models.Per36Minutes
Per36Minutes
p1038
(dp1039
g8
S'2.5'
p1040
sg10
S'0.1'
p1041
sg12
S'.491'
p1042
sg14
S'0.8'
p1043
sg16
S'.000'
p1044
sg18
S'0.0'
p1045
sg20
S'12.5'
p1046
sg22
S'PF'
p1047
sg24
S'.744'
p1048
sg28
S'NBA'
p1049
sg30
S'1.2'
p1050
sg32
S'9.5'
p1051
sg34
S'6.9'
p1052
sg36
S'4.3'
p1053
sg38
S'7.6'
p1054
sg40
S'23'
p1055
sg42
S'NJN'
p1056
sg44
S'53'
p1057
sg46
S'0.2'
p1058
sg48
S'4.7'
p1059
sg50
S'3.2'
p1060
sg52
S'9.4'
p1061
sg54
S'5.1'
p1062
sg56
S'1985-86'
p1063
sg58
S'4.7'
p1064
sg60
S'2.7'
p1065
sg62
S'.494'
p1066
sg64
S'650'
p1067
sg66
g71
sba(isrc.gp1.models.Per36Minutes
Per36Minutes
p1068
(dp1069
g8
S'2.9'
p1070
sg10
S'0.0'
p1071
sg12
S'.465'
p1072
sg14
S'2.2'
p1073
sg16
S'.000'
p1074
sg18
S'0.0'
p1075
sg20
S'13.6'
p1076
sg22
S'PF'
p1077
sg24
S'.731'
p1078
sg28
S'NBA'
p1079
sg30
S'1.2'
p1080
sg32
S'11.7'
p1081
sg34
S'7.2'
p1082
sg36
S'3.7'
p1083
sg38
S'7.1'
p1084
sg40
S'24'
p1085
sg42
S'NJN'
p1086
sg44
S'76'
p1087
sg46
S'0.5'
p1088
sg48
S'5.4'
p1089
sg50
S'2.7'
p1090
sg52
S'11.6'
p1091
sg54
S'4.2'
p1092
sg56
S'1986-87'
p1093
sg58
S'5.4'
p1094
sg60
S'2.9'
p1095
sg62
S'.466'
p1096
sg64
S'1003'
p1097
sg66
S'22'
p1098
sba(isrc.gp1.models.Per36Minutes
Per36Minutes
p1099
(dp1100
g8
S'1.7'
p1101
sg10
S'0.3'
p1102
sg12
S'.429'
p1103
sg14
S'1.7'
p1104
sg16
S'.200'
p1105
sg18
S'0.1'
p1106
sg20
S'10.0'
p1107
sg22
S'PF'
p1108
sg24
S'.778'
p1109
sg28
S'NBA'
p1110
sg30
S'0.7'
p1111
sg32
S'10.0'
p1112
sg34
S'5.2'
p1113
sg36
S'1.8'
p1114
sg38
S'7.4'
p1115
sg40
S'27'
p1116
sg42
S'ORL'
p1117
sg44
S'60'
p1118
sg46
S'0.4'
p1119
sg48
S'4.2'
p1120
sg50
S'1.4'
p1121
sg52
S'9.7'
p1122
sg54
S'5.7'
p1123
sg56
S'1989-90'
p1124
sg58
S'4.3'
p1125
sg60
S'2.0'
p1126
sg62
S'.436'
p1127
sg64
S'1105'
p1128
sg66
S'15'
p1129
sba(isrc.gp1.models.Per36Minutes
Per36Minutes
p1130
(dp1131
g8
S'2.3'
p1132
sg10
S'0.3'
p1133
sg12
S'.487'
p1134
sg14
S'2.1'
p1135
sg16
S'.400'
p1136
sg18
S'0.1'
p1137
sg20
S'13.0'
p1138
sg22
S'PF'
p1139
sg24
S'.759'
p1140
sg28
S'NBA'
p1141
sg30
S'0.6'
p1142
sg32
S'11.4'
p1143
sg34
S'5.0'
p1144
sg36
S'2.4'
p1145
sg38
S'7.8'
p1146
sg40
S'28'
p1147
sg42
S'ORL'
p1148
sg44
S'71'
p1149
sg46
S'0.2'
p1150
sg48
S'5.4'
p1151
sg50
S'1.8'
p1152
sg52
S'11.1'
p1153
sg54
S'5.5'
p1154
sg56
S'1990-91'
p1155
sg58
S'5.5'
p1156
sg60
S'2.7'
p1157
sg62
S'.489'
p1158
sg64
S'1683'
p1159
sg66
S'43'
p1160
sba(isrc.gp1.models.Per36Minutes
Per36Minutes
p1161
(dp1162
g8
S'1.4'
p1163
sg10
S'0.2'
p1164
sg12
S'.451'
p1165
sg14
S'2.1'
p1166
sg16
S'.125'
p1167
sg18
S'0.0'
p1168
sg20
S'12.0'
p1169
sg22
S'SF'
p1170
sg24
S'.693'
p1171
sg28
S'NBA'
p1172
sg30
S'0.5'
p1173
sg32
S'11.3'
p1174
sg34
S'5.2'
p1175
sg36
S'2.6'
p1176
sg38
S'5.6'
p1177
sg40
S'29'
p1178
sg42
S'ORL'
p1179
sg44
S'75'
p1180
sg46
S'0.4'
p1181
sg48
S'5.1'
p1182
sg50
S'1.8'
p1183
sg52
S'11.1'
p1184
sg54
S'4.2'
p1185
sg56
S'1991-92'
p1186
sg58
S'5.1'
p1187
sg60
S'2.4'
p1188
sg62
S'.456'
p1189
sg64
S'1591'
p1190
sg66
S'42'
p1191
sba(isrc.gp1.models.Per36Minutes
Per36Minutes
p1192
(dp1193
g8
S'1.8'
p1194
sg10
S'0.4'
p1195
sg12
S'.529'
p1196
sg14
S'2.6'
p1197
sg16
S'.588'
p1198
sg18
S'0.2'
p1199
sg20
S'12.9'
p1200
sg22
S'PF'
p1201
sg24
S'.800'
p1202
sg28
S'NBA'
p1203
sg30
S'0.5'
p1204
sg32
S'10.6'
p1205
sg34
S'4.7'
p1206
sg36
S'1.7'
p1207
sg38
S'6.1'
p1208
sg40
S'30'
p1209
sg42
S'ORL'
p1210
sg44
S'75'
p1211
sg46
S'0.2'
p1212
sg48
S'5.4'
p1213
sg50
S'1.4'
p1214
sg52
S'10.2'
p1215
sg54
S'4.3'
p1216
sg56
S'1992-93'
p1217
sg58
S'5.6'
p1218
sg60
S'1.6'
p1219
sg62
S'.526'
p1220
sg64
S'1479'
p1221
sg66
S'20'
p1222
sba(isrc.gp1.models.Per36Minutes
Per36Minutes
p1223
(dp1224
g8
S'1.9'
p1225
sg10
S'1.3'
p1226
sg12
S'.467'
p1227
sg14
S'1.4'
p1228
sg16
S'.327'
p1229
sg18
S'0.4'
p1230
sg20
S'10.6'
p1231
sg22
S'PF'
p1232
sg24
S'.778'
p1233
sg28
S'NBA'
p1234
sg30
S'0.5'
p1235
sg32
S'10.0'
p1236
sg34
S'5.6'
p1237
sg36
S'1.1'
p1238
sg38
S'6.4'
p1239
sg40
S'31'
p1240
sg42
S'ORL'
p1241
sg44
S'68'
p1242
sg46
S'0.3'
p1243
sg48
S'4.2'
p1244
sg50
S'0.8'
p1245
sg52
S'8.7'
p1246
sg54
S'4.5'
p1247
sg56
S'1993-94'
p1248
sg58
S'4.7'
p1249
sg60
S'1.8'
p1250
sg62
S'.488'
p1251
sg64
S'1536'
p1252
sg66
S'51'
p1253
sba(isrc.gp1.models.Per36Minutes
Per36Minutes
p1254
(dp1255
g8
S'1.4'
p1256
sg10
S'4.7'
p1257
sg12
S'.410'
p1258
sg14
S'2.4'
p1259
sg16
S'.360'
p1260
sg18
S'1.7'
p1261
sg20
S'12.4'
p1262
sg22
S'PF'
p1263
sg24
S'.897'
p1264
sg28
S'NBA'
p1265
sg30
S'0.7'
p1266
sg32
S'11.1'
p1267
sg34
S'6.4'
p1268
sg36
S'1.8'
p1269
sg38
S'6.1'
p1270
sg40
S'32'
p1271
sg42
S'ORL'
p1272
sg44
S'49'
p1273
sg46
S'0.2'
p1274
sg48
S'2.9'
p1275
sg50
S'1.6'
p1276
sg52
S'6.4'
p1277
sg54
S'4.6'
p1278
sg56
S'1994-95'
p1279
sg58
S'4.6'
p1280
sg60
S'1.4'
p1281
sg62
S'.447'
p1282
sg64
S'576'
p1283
sg66
g326
sba(isrc.gp1.models.Per36Minutes
Per36Minutes
p1284
(dp1285
g8
S'1.9'
p1286
sg10
S'5.1'
p1287
sg12
S'.353'
p1288
sg14
S'1.1'
p1289
sg16
S'.333'
p1290
sg18
S'1.7'
p1291
sg20
S'8.8'
p1292
sg22
S'PF'
p1293
sg24
S'1.000'
p1294
sg28
S'NBA'
p1295
sg30
S'0.4'
p1296
sg32
S'9.6'
p1297
sg34
S'6.2'
p1298
sg36
S'0.4'
p1299
sg38
S'5.2'
p1300
sg40
S'33'
p1301
sg42
S'ORL'
p1302
sg44
S'13'
p1303
sg46
S'0.2'
p1304
sg48
S'1.7'
p1305
sg50
S'0.4'
p1306
sg52
S'4.5'
p1307
sg54
S'3.4'
p1308
sg56
S'1995-96'
p1309
sg58
S'3.4'
p1310
sg60
S'2.1'
p1311
sg62
S'.375'
p1312
sg64
S'192'
p1313
sg66
g19
sbasS'_fromYear'
p1314
S'1985'
p1315
sS'_url'
p1316
S'http://www.basketball-reference.com/players/t/turneje01.html'
p1317
sS'_perGame'
p1318
(isrc.gp1.models.PerGame
PerGame
p1319
(dp1320
g8
S'0.8'
p1321
sg10
S'2.1'
p1322
sg12
S'.353'
p1323
sS'_effectiveFieldGalPercentage'
p1324
S'.441'
p1325
sg14
S'0.5'
p1326
sg16
S'.333'
p1327
sg18
S'0.7'
p1328
sg20
S'3.6'
p1329
sg22
S'PF'
p1330
sg24
S'1.000'
p1331
sg28
S'NBA'
p1332
sg30
S'0.2'
p1333
sg34
S'2.5'
p1334
sS'_fieldGoalsttempted'
p1335
S'3.9'
p1336
sg36
S'0.2'
p1337
sg38
S'2.2'
p1338
sg40
S'33'
p1339
sg42
S'ORL'
p1340
sg44
S'13'
p1341
sg46
S'0.1'
p1342
sg48
S'0.7'
p1343
sg50
S'0.2'
p1344
sg52
S'1.8'
p1345
sg54
S'1.4'
p1346
sg56
S'1995-96'
p1347
sg58
S'1.4'
p1348
sg60
S'0.8'
p1349
sg62
S'.375'
p1350
sg64
S'14.8'
p1351
sg66
g19
sbsS'_weight'
p1352
S'230'
p1353
sS'_dob'
p1354
S'9-4-1962'
p1355
sS'_salary'
p1356
(lp1357
(isrc.gp1.models.Salary
Salary
p1358
(dp1359
g42
S'New Jersey Nets'
p1360
sg28
S'NBA'
p1361
sg1356
S'$200,000'
p1362
sg56
S'1985-86'
p1363
sba(isrc.gp1.models.Salary
Salary
p1364
(dp1365
g42
S'Orlando Magic'
p1366
sg28
S'NBA'
p1367
sg1356
S'$410,000'
p1368
sg56
S'1990-91'
p1369
sba(isrc.gp1.models.Salary
Salary
p1370
(dp1371
g42
S'Orlando Magic'
p1372
sg28
S'NBA'
p1373
sg1356
S'$550,000'
p1374
sg56
S'1991-92'
p1375
sba(isrc.gp1.models.Salary
Salary
p1376
(dp1377
g42
S'Orlando Magic'
p1378
sg28
S'NBA'
p1379
sg1356
S'$700,000'
p1380
sg56
S'1992-93'
p1381
sba(isrc.gp1.models.Salary
Salary
p1382
(dp1383
g42
S'Orlando Magic'
p1384
sg28
S'NBA'
p1385
sg1356
S'$1,100,000'
p1386
sg56
S'1994-95'
p1387
sba(isrc.gp1.models.Salary
Salary
p1388
(dp1389
g42
S'Orlando Magic'
p1390
sg28
S'NBA'
p1391
sg1356
S'$1,300,000'
p1392
sg56
S'1995-96'
p1393
sbasg22
S'F-C'
p1394
sb.