(isrc.gp1.models.Player
Player
p0
(dp1
S'_experience'
p2
V1 year
p3
sS'_totals'
p4
(lp5
(isrc.gp1.models.Totals
Totals
p6
(dp7
S'_offensiveRebounds'
p8
S'7'
p9
sS'_threePointsAttempted'
p10
S'43'
p11
sS'_fieldGoalsPercentage'
p12
S'.361'
p13
sS'_assist'
p14
S'73'
p15
sS'_threePointsPercentage'
p16
S'.279'
p17
sS'_threePoints'
p18
S'12'
p19
sS'_points'
p20
S'121'
p21
sS'_position'
p22
S'PG'
p23
sS'_freeThrowsPercentage'
p24
S'.714'
p25
sS'_effectiveFieldGoalPercentage'
p26
S'.403'
p27
sS'_league'
p28
S'NBA'
p29
sS'_steals'
p30
S'18'
p31
sS'_fieldGoalsAttempted'
p32
S'144'
p33
sS'_personalFouls'
p34
S'36'
p35
sS'_freeThrowsAttempted'
p36
g9
sS'_totalRebounds'
p37
S'35'
p38
sS'_age'
p39
S'20'
p40
sS'_team'
p41
S'TOT'
p42
sS'_games'
p43
S'33'
p44
sS'_blocks'
p45
S'5'
p46
sS'_twoPoints'
p47
S'40'
p48
sS'_freeThrows'
p49
g46
sS'_twoPointsAttempted'
p50
S'101'
p51
sS'_defensiveRebounds'
p52
S'28'
p53
sS'_season'
p54
S'2014-15'
p55
sS'_fieldGoals'
p56
S'52'
p57
sS'_turnOvers'
p58
S'42'
p59
sS'_twoPointsPercentage'
p60
S'.396'
p61
sS'_minutesPlayed'
p62
S'411'
p63
sS'_gamesStarted'
p64
S'1'
p65
sba(isrc.gp1.models.Totals
Totals
p66
(dp67
g8
g65
sg10
S'6'
p68
sg12
S'.429'
p69
sg14
S'14'
p70
sg16
S'.333'
p71
sg18
S'2'
p72
sg20
S'22'
p73
sg22
S'PG'
p74
sg24
S'1.000'
p75
sg26
S'.476'
p76
sg28
S'NBA'
p77
sg30
S'0'
p78
sg32
S'21'
p79
sg34
S'3'
p80
sg36
g72
sg37
g9
sg39
S'20'
p81
sg41
S'PHO'
p82
sg43
S'8'
p83
sg45
g72
sg47
g9
sg49
g72
sg50
S'15'
p84
sg52
g68
sg54
S'2014-15'
p85
sg56
S'9'
p86
sg58
g83
sg60
S'.467'
p87
sg62
S'58'
p88
sg64
g78
sba(isrc.gp1.models.Totals
Totals
p89
(dp90
g8
g68
sg10
S'37'
p91
sg12
S'.350'
p92
sg14
S'59'
p93
sg16
S'.270'
p94
sg18
S'10'
p95
sg20
S'99'
p96
sg22
S'PG'
p97
sg24
S'.600'
p98
sg26
S'.390'
p99
sg28
S'NBA'
p100
sg30
S'18'
p101
sg32
S'123'
p102
sg34
S'33'
p103
sg36
g46
sg37
S'28'
p104
sg39
S'20'
p105
sg41
S'MIL'
p106
sg43
S'25'
p107
sg45
g80
sg47
S'33'
p108
sg49
g80
sg50
S'86'
p109
sg52
S'22'
p110
sg54
S'2014-15'
p111
sg56
S'43'
p112
sg58
S'34'
p113
sg60
S'.384'
p114
sg62
S'353'
p115
sg64
g65
sba(isrc.gp1.models.Totals
Totals
p116
(dp117
g8
g80
sg10
S'14'
p118
sg12
S'.400'
p119
sg14
S'24'
p120
sg16
S'.286'
p121
sg18
S'4'
p122
sg20
S'61'
p123
sg22
S'PG'
p124
sg24
S'.750'
p125
sg26
S'.433'
p126
sg28
S'NBA'
p127
sg30
g68
sg32
S'60'
p128
sg34
S'23'
p129
sg36
S'12'
p130
sg37
S'24'
p131
sg39
S'21'
p132
sg41
S'MIL'
p133
sg43
S'24'
p134
sg45
g65
sg47
S'20'
p135
sg49
g86
sg50
S'46'
p136
sg52
S'21'
p137
sg54
S'2015-16'
p138
sg56
S'24'
p139
sg58
S'14'
p140
sg60
S'.435'
p141
sg62
S'208'
p142
sg64
g46
sbasS'_college'
p143
S'Syracuse University'
p144
sS'_toYear'
p145
S'2016'
p146
sS'_height'
p147
S'6-3'
p148
sS'_active'
p149
I01
sS'_shootingHand'
p150
VRight
p151
sS'_name'
p152
S'Tyler Ennis'
p153
sS'_per100Possessions'
p154
(lp155
(isrc.gp1.models.Per100Possession
Per100Possession
p156
(dp157
g8
S'0.9'
p158
sg10
S'5.3'
p159
sg12
S'.361'
p160
sS'_offensiveRating'
p161
S'83'
p162
sg14
S'9.0'
p163
sg16
S'.279'
p164
sg18
S'1.5'
p165
sg20
S'15.0'
p166
sg22
S'PG'
p167
sS'_defensiveRating'
p168
S'105'
p169
sg24
S'.714'
p170
sg28
S'NBA'
p171
sg30
S'2.2'
p172
sg32
S'17.8'
p173
sg34
S'4.5'
p174
sg36
S'0.9'
p175
sg37
S'4.3'
p176
sg39
S'20'
p177
sg41
S'TOT'
p178
sg43
S'33'
p179
sg45
S'0.6'
p180
sg47
S'4.9'
p181
sg49
S'0.6'
p182
sg50
S'12.5'
p183
sg52
S'3.5'
p184
sg54
S'2014-15'
p185
sg56
S'6.4'
p186
sg58
S'5.2'
p187
sg60
S'.396'
p188
sg62
S'411'
p189
sg64
g65
sba(isrc.gp1.models.Per100Possession
Per100Possession
p190
(dp191
g8
S'0.9'
p192
sg10
S'5.2'
p193
sg12
S'.429'
p194
sg161
S'94'
p195
sg14
S'12.0'
p196
sg16
S'.333'
p197
sg18
S'1.7'
p198
sg20
S'18.9'
p199
sg22
S'PG'
p200
sg168
S'110'
p201
sg24
S'1.000'
p202
sg28
S'NBA'
p203
sg30
S'0.0'
p204
sg32
S'18.1'
p205
sg34
S'2.6'
p206
sg36
S'1.7'
p207
sg37
S'6.0'
p208
sg39
S'20'
p209
sg41
S'PHO'
p210
sg43
g83
sg45
S'1.7'
p211
sg47
S'6.0'
p212
sg49
S'1.7'
p213
sg50
S'12.9'
p214
sg52
S'5.2'
p215
sg54
S'2014-15'
p216
sg56
S'7.7'
p217
sg58
S'6.9'
p218
sg60
S'.467'
p219
sg62
S'58'
p220
sg64
g78
sba(isrc.gp1.models.Per100Possession
Per100Possession
p221
(dp222
g8
S'0.9'
p223
sg10
S'5.3'
p224
sg12
S'.350'
p225
sg161
S'80'
p226
sg14
S'8.5'
p227
sg16
S'.270'
p228
sg18
S'1.4'
p229
sg20
S'14.3'
p230
sg22
S'PG'
p231
sg168
S'104'
p232
sg24
S'.600'
p233
sg28
S'NBA'
p234
sg30
S'2.6'
p235
sg32
S'17.8'
p236
sg34
S'4.8'
p237
sg36
S'0.7'
p238
sg37
S'4.0'
p239
sg39
S'20'
p240
sg41
S'MIL'
p241
sg43
S'25'
p242
sg45
S'0.4'
p243
sg47
S'4.8'
p244
sg49
S'0.4'
p245
sg50
S'12.4'
p246
sg52
S'3.2'
p247
sg54
S'2014-15'
p248
sg56
S'6.2'
p249
sg58
S'4.9'
p250
sg60
S'.384'
p251
sg62
S'353'
p252
sg64
g65
sba(isrc.gp1.models.Per100Possession
Per100Possession
p253
(dp254
g8
S'0.7'
p255
sg10
S'3.4'
p256
sg12
S'.400'
p257
sg161
S'91'
p258
sg14
S'5.9'
p259
sg16
S'.286'
p260
sg18
S'1.0'
p261
sg20
S'15.0'
p262
sg22
S'PG'
p263
sg168
S'112'
p264
sg24
S'.750'
p265
sg28
S'NBA'
p266
sg30
S'1.5'
p267
sg32
S'14.8'
p268
sg34
S'5.7'
p269
sg36
S'3.0'
p270
sg37
S'5.9'
p271
sg39
S'21'
p272
sg41
S'MIL'
p273
sg43
S'24'
p274
sg45
S'0.2'
p275
sg47
S'4.9'
p276
sg49
S'2.2'
p277
sg50
S'11.3'
p278
sg52
S'5.2'
p279
sg54
S'2015-16'
p280
sg56
S'5.9'
p281
sg58
S'3.4'
p282
sg60
S'.435'
p283
sg62
S'208'
p284
sg64
g46
sbasS'_advanced'
p285
(lp286
(isrc.gp1.models.Advanced
Advanced
p287
(dp288
S'_offensiveReboundPercentage'
p289
S'1.9'
p290
sS'_turnOverPercentage'
p291
S'22.2'
p292
sS'_winSharesPer48Minutes'
p293
S'-0.040'
p294
sS'_stealPercentage'
p295
S'2.2'
p296
sS'_usagePercentage'
p297
S'20.6'
p298
sS'_totalReboundsPercentage'
p299
S'4.8'
p300
sS'_defensiveBoxPlusMinus'
p301
S'-1.5'
p302
sg22
S'PG'
p303
sS'_valueOverReplacementPlayer'
p304
S'-0.5'
p305
sS'_trueShootingPercentage'
p306
S'.411'
p307
sS'_defensiveReboundPercentage'
p308
S'7.7'
p309
sS'_freeThrowsAttempRate'
p310
S'.049'
p311
sS'_threePointsAttempRate'
p312
S'.299'
p313
sg28
S'NBA'
p314
sS'_offensiveBoxPlusMinues'
p315
S'-5.2'
p316
sS'_assistPercentage'
p317
S'27.3'
p318
sS'_defensiveWinShares'
p319
S'0.5'
p320
sg39
S'20'
p321
sg41
S'TOT'
p322
sg43
S'33'
p323
sS'_blockPercentage'
p324
S'1.0'
p325
sS'_playerEfficiencyRating'
p326
S'7.3'
p327
sS'_offensiveWinShares'
p328
S'-0.8'
p329
sg62
S'411'
p330
sS'_boxPlusMinus'
p331
S'-6.7'
p332
sg54
S'2014-15'
p333
sS'_winShares'
p334
S'-0.3'
p335
sba(isrc.gp1.models.Advanced
Advanced
p336
(dp337
g289
S'1.9'
p338
sg291
S'26.8'
p339
sg293
S'-0.005'
p340
sg295
S'0.0'
p341
sg297
S'22.6'
p342
sg299
S'6.6'
p343
sg301
S'-2.8'
p344
sg22
S'PG'
p345
sg304
S'-0.1'
p346
sg306
S'.503'
p347
sg308
S'11.4'
p348
sg310
S'.095'
p349
sg312
S'.286'
p350
sg28
S'NBA'
p351
sg315
S'-4.0'
p352
sg317
S'37.5'
p353
sg319
S'0.0'
p354
sg39
S'20'
p355
sg41
S'PHO'
p356
sg43
g83
sg324
S'2.6'
p357
sg326
S'12.0'
p358
sg328
S'0.0'
p359
sg62
S'58'
p360
sg331
S'-6.8'
p361
sg54
S'2014-15'
p362
sg334
S'0.0'
p363
sba(isrc.gp1.models.Advanced
Advanced
p364
(dp365
g289
S'2.0'
p366
sg291
S'21.4'
p367
sg293
S'-0.046'
p368
sg295
S'2.6'
p369
sg297
S'20.3'
p370
sg299
S'4.5'
p371
sg301
S'-1.3'
p372
sg22
S'PG'
p373
sg304
S'-0.4'
p374
sg306
S'.395'
p375
sg308
S'7.1'
p376
sg310
S'.041'
p377
sg312
S'.301'
p378
sg28
S'NBA'
p379
sg315
S'-5.3'
p380
sg317
S'25.6'
p381
sg319
S'0.4'
p382
sg39
S'20'
p383
sg41
S'MIL'
p384
sg43
S'25'
p385
sg324
S'0.7'
p386
sg326
S'6.6'
p387
sg328
S'-0.8'
p388
sg62
S'353'
p389
sg331
S'-6.6'
p390
sg54
S'2014-15'
p391
sg334
S'-0.3'
p392
sba(isrc.gp1.models.Advanced
Advanced
p393
(dp394
g289
S'1.7'
p395
sg291
S'17.7'
p396
sg293
S'-0.016'
p397
sg295
S'1.5'
p398
sg297
S'17.2'
p399
sg299
S'6.6'
p400
sg301
S'-2.7'
p401
sg22
S'PG'
p402
sg304
S'-0.2'
p403
sg306
S'.467'
p404
sg308
S'11.4'
p405
sg310
S'.200'
p406
sg312
S'.233'
p407
sg28
S'NBA'
p408
sg315
S'-4.0'
p409
sg317
S'17.4'
p410
sg319
S'0.1'
p411
sg39
S'21'
p412
sg41
S'MIL'
p413
sg43
S'24'
p414
sg324
S'0.4'
p415
sg326
S'7.7'
p416
sg328
S'-0.1'
p417
sg62
S'208'
p418
sg331
S'-6.7'
p419
sg54
S'2015-16'
p420
sg334
S'-0.1'
p421
sbasS'_per36Minutes'
p422
(lp423
(isrc.gp1.models.Per36Minutes
Per36Minutes
p424
(dp425
g8
S'0.6'
p426
sg10
S'3.8'
p427
sg12
S'.361'
p428
sg14
S'6.4'
p429
sg16
S'.279'
p430
sg18
S'1.1'
p431
sg20
S'10.6'
p432
sg22
S'PG'
p433
sg24
S'.714'
p434
sg28
S'NBA'
p435
sg30
S'1.6'
p436
sg32
S'12.6'
p437
sg34
S'3.2'
p438
sg36
S'0.6'
p439
sg37
S'3.1'
p440
sg39
S'20'
p441
sg41
S'TOT'
p442
sg43
S'33'
p443
sg45
S'0.4'
p444
sg47
S'3.5'
p445
sg49
S'0.4'
p446
sg50
S'8.8'
p447
sg52
S'2.5'
p448
sg54
S'2014-15'
p449
sg56
S'4.6'
p450
sg58
S'3.7'
p451
sg60
S'.396'
p452
sg62
S'411'
p453
sg64
g65
sba(isrc.gp1.models.Per36Minutes
Per36Minutes
p454
(dp455
g8
S'0.6'
p456
sg10
S'3.7'
p457
sg12
S'.429'
p458
sg14
S'8.7'
p459
sg16
S'.333'
p460
sg18
S'1.2'
p461
sg20
S'13.7'
p462
sg22
S'PG'
p463
sg24
S'1.000'
p464
sg28
S'NBA'
p465
sg30
S'0.0'
p466
sg32
S'13.0'
p467
sg34
S'1.9'
p468
sg36
S'1.2'
p469
sg37
S'4.3'
p470
sg39
S'20'
p471
sg41
S'PHO'
p472
sg43
g83
sg45
S'1.2'
p473
sg47
S'4.3'
p474
sg49
S'1.2'
p475
sg50
S'9.3'
p476
sg52
S'3.7'
p477
sg54
S'2014-15'
p478
sg56
S'5.6'
p479
sg58
S'5.0'
p480
sg60
S'.467'
p481
sg62
S'58'
p482
sg64
g78
sba(isrc.gp1.models.Per36Minutes
Per36Minutes
p483
(dp484
g8
S'0.6'
p485
sg10
S'3.8'
p486
sg12
S'.350'
p487
sg14
S'6.0'
p488
sg16
S'.270'
p489
sg18
S'1.0'
p490
sg20
S'10.1'
p491
sg22
S'PG'
p492
sg24
S'.600'
p493
sg28
S'NBA'
p494
sg30
S'1.8'
p495
sg32
S'12.5'
p496
sg34
S'3.4'
p497
sg36
S'0.5'
p498
sg37
S'2.9'
p499
sg39
S'20'
p500
sg41
S'MIL'
p501
sg43
S'25'
p502
sg45
S'0.3'
p503
sg47
S'3.4'
p504
sg49
S'0.3'
p505
sg50
S'8.8'
p506
sg52
S'2.2'
p507
sg54
S'2014-15'
p508
sg56
S'4.4'
p509
sg58
S'3.5'
p510
sg60
S'.384'
p511
sg62
S'353'
p512
sg64
g65
sba(isrc.gp1.models.Per36Minutes
Per36Minutes
p513
(dp514
g8
S'0.5'
p515
sg10
S'2.4'
p516
sg12
S'.400'
p517
sg14
S'4.2'
p518
sg16
S'.286'
p519
sg18
S'0.7'
p520
sg20
S'10.6'
p521
sg22
S'PG'
p522
sg24
S'.750'
p523
sg28
S'NBA'
p524
sg30
S'1.0'
p525
sg32
S'10.4'
p526
sg34
S'4.0'
p527
sg36
S'2.1'
p528
sg37
S'4.2'
p529
sg39
S'21'
p530
sg41
S'MIL'
p531
sg43
S'24'
p532
sg45
S'0.2'
p533
sg47
S'3.5'
p534
sg49
S'1.6'
p535
sg50
S'8.0'
p536
sg52
S'3.6'
p537
sg54
S'2015-16'
p538
sg56
S'4.2'
p539
sg58
S'2.4'
p540
sg60
S'.435'
p541
sg62
S'208'
p542
sg64
g46
sbasS'_fromYear'
p543
S'2015'
p544
sS'_url'
p545
S'http://www.basketball-reference.com/players/e/ennisty01.html'
p546
sS'_perGame'
p547
(isrc.gp1.models.PerGame
PerGame
p548
(dp549
g8
S'0.1'
p550
sg10
S'0.6'
p551
sg12
S'.400'
p552
sS'_effectiveFieldGalPercentage'
p553
S'.433'
p554
sg14
S'1.0'
p555
sg16
S'.286'
p556
sg18
S'0.2'
p557
sg20
S'2.5'
p558
sg22
S'PG'
p559
sg24
S'.750'
p560
sg28
S'NBA'
p561
sg30
S'0.3'
p562
sg34
S'1.0'
p563
sS'_fieldGoalsttempted'
p564
S'2.5'
p565
sg36
S'0.5'
p566
sg37
S'1.0'
p567
sg39
S'21'
p568
sg41
S'MIL'
p569
sg43
S'24'
p570
sg45
S'0.0'
p571
sg47
S'0.8'
p572
sg49
S'0.4'
p573
sg50
S'1.9'
p574
sg52
S'0.9'
p575
sg54
S'2015-16'
p576
sg56
S'1.0'
p577
sg58
S'0.6'
p578
sg60
S'.435'
p579
sg62
S'8.7'
p580
sg64
g46
sbsS'_weight'
p581
S'194'
p582
sS'_dob'
p583
S'24-8-1994'
p584
sS'_salary'
p585
(lp586
(isrc.gp1.models.Salary
Salary
p587
(dp588
g41
S'Milwaukee Bucks'
p589
sg28
S'NBA'
p590
sg585
S'$1,590,720'
p591
sg54
S'2014-15'
p592
sbasg22
S'G'
p593
sb.