(isrc.gp1.models.Player
Player
p0
(dp1
S'_experience'
p2
S'NA'
p3
sS'_totals'
p4
(lp5
(isrc.gp1.models.Totals
Totals
p6
(dp7
S'_offensiveRebounds'
p8
S'121'
p9
sS'_threePointsAttempted'
p10
S'3'
p11
sS'_fieldGoalsPercentage'
p12
S'.453'
p13
sS'_assist'
p14
S'181'
p15
sS'_threePointsPercentage'
p16
S'.000'
p17
sS'_threePoints'
p18
S'0'
p19
sS'_points'
p20
S'487'
p21
sS'_position'
p22
S'SF'
p23
sS'_freeThrowsPercentage'
p24
S'.839'
p25
sS'_effectiveFieldGoalPercentage'
p26
S'.453'
p27
sS'_league'
p28
S'ABA'
p29
sS'_steals'
p30
S'48'
p31
sS'_fieldGoalsAttempted'
p32
S'342'
p33
sS'_personalFouls'
p34
S'164'
p35
sS'_freeThrowsAttempted'
p36
S'211'
p37
sS'_totalRebounds'
p38
S'358'
p39
sS'_age'
p40
S'23'
p41
sS'_team'
p42
S'DNA'
p43
sS'_games'
p44
S'84'
p45
sS'_blocks'
p46
S'43'
p47
sS'_twoPoints'
p48
S'155'
p49
sS'_freeThrows'
p50
S'177'
p51
sS'_twoPointsAttempted'
p52
S'339'
p53
sS'_defensiveRebounds'
p54
S'237'
p55
sS'_season'
p56
S'1974-75'
p57
sS'_fieldGoals'
p58
S'155'
p59
sS'_turnOvers'
p60
S'122'
p61
sS'_twoPointsPercentage'
p62
S'.457'
p63
sS'_minutesPlayed'
p64
S'1639'
p65
sS'_gamesStarted'
p66
g3
sba(isrc.gp1.models.Totals
Totals
p67
(dp68
g8
S'144'
p69
sg10
S'6'
p70
sg12
S'.457'
p71
sg14
S'182'
p72
sg16
S'.333'
p73
sg18
S'2'
p74
sg20
S'613'
p75
sg22
S'SF'
p76
sg24
S'.833'
p77
sg26
S'.459'
p78
sg28
S'ABA'
p79
sg30
S'65'
p80
sg32
S'488'
p81
sg34
S'164'
p82
sg36
S'198'
p83
sg38
S'436'
p84
sg40
S'24'
p85
sg42
S'TOT'
p86
sg44
S'80'
p87
sg46
S'96'
p88
sg48
S'221'
p89
sg50
S'165'
p90
sg52
S'482'
p91
sg54
S'292'
p92
sg56
S'1975-76'
p93
sg58
S'223'
p94
sg60
S'144'
p95
sg62
S'.459'
p96
sg64
S'1978'
p97
sg66
g3
sba(isrc.gp1.models.Totals
Totals
p98
(dp99
g8
S'81'
p100
sg10
S'4'
p101
sg12
S'.432'
p102
sg14
S'101'
p103
sg16
S'.250'
p104
sg18
S'1'
p105
sg20
S'366'
p106
sg22
S'SF'
p107
sg24
S'.838'
p108
sg26
S'.434'
p109
sg28
S'ABA'
p110
sg30
S'36'
p111
sg32
S'296'
p112
sg34
S'77'
p113
sg36
S'130'
p114
sg38
S'241'
p115
sg40
S'24'
p116
sg42
S'VIR'
p117
sg44
S'37'
p118
sg46
S'54'
p119
sg48
S'127'
p120
sg50
S'109'
p121
sg52
S'292'
p122
sg54
S'160'
p123
sg56
S'1975-76'
p124
sg58
S'128'
p125
sg60
S'80'
p126
sg62
S'.435'
p127
sg64
S'1117'
p128
sg66
g3
sba(isrc.gp1.models.Totals
Totals
p129
(dp130
g8
S'63'
p131
sg10
g74
sg12
S'.495'
p132
sg14
S'81'
p133
sg16
S'.500'
p134
sg18
g105
sg20
S'247'
p135
sg22
S'SF'
p136
sg24
S'.824'
p137
sg26
S'.497'
p138
sg28
S'ABA'
p139
sg30
S'29'
p140
sg32
S'192'
p141
sg34
S'87'
p142
sg36
S'68'
p143
sg38
S'195'
p144
sg40
S'24'
p145
sg42
S'KEN'
p146
sg44
S'43'
p147
sg46
S'42'
p148
sg48
S'94'
p149
sg50
S'56'
p150
sg52
S'190'
p151
sg54
S'132'
p152
sg56
S'1975-76'
p153
sg58
S'95'
p154
sg60
S'64'
p155
sg62
S'.495'
p156
sg64
S'861'
p157
sg66
g3
sba(isrc.gp1.models.Totals
Totals
p158
(dp159
g8
S'156'
p160
sg10
g3
sg12
S'.445'
p161
sg14
S'117'
p162
sg16
g3
sg18
g3
sg20
S'737'
p163
sg22
S'SF'
p164
sg24
S'.855'
p165
sg26
S'.445'
p166
sg28
S'NBA'
p167
sg30
S'74'
p168
sg32
S'609'
p169
sg34
S'205'
p170
sg36
S'228'
p171
sg38
S'460'
p172
sg40
S'25'
p173
sg42
S'NYN'
p174
sg44
S'72'
p175
sg46
S'68'
p176
sg48
S'271'
p177
sg50
S'195'
p178
sg52
S'609'
p179
sg54
S'304'
p180
sg56
S'1976-77'
p181
sg58
S'271'
p182
sg60
g3
sg62
S'.445'
p183
sg64
S'2398'
p184
sg66
g3
sba(isrc.gp1.models.Totals
Totals
p185
(dp186
g8
S'66'
p187
sg10
g3
sg12
S'.366'
p188
sg14
S'105'
p189
sg16
g3
sg18
g3
sg20
S'301'
p190
sg22
S'SF'
p191
sg24
S'.707'
p192
sg26
S'.366'
p193
sg28
S'NBA'
p194
sg30
S'52'
p195
sg32
S'292'
p196
sg34
S'192'
p197
sg36
S'123'
p198
sg38
S'244'
p199
sg40
S'26'
p200
sg42
S'NJN'
p201
sg44
S'68'
p202
sg46
S'46'
p203
sg48
S'107'
p204
sg50
S'87'
p205
sg52
S'292'
p206
sg54
S'178'
p207
sg56
S'1977-78'
p208
sg58
S'107'
p209
sg60
S'73'
p210
sg62
S'.366'
p211
sg64
S'1419'
p212
sg66
g3
sba(isrc.gp1.models.Totals
Totals
p213
(dp214
g8
S'108'
p215
sg10
g3
sg12
S'.463'
p216
sg14
S'180'
p217
sg16
g3
sg18
g3
sg20
S'538'
p218
sg22
S'SF'
p219
sg24
S'.798'
p220
sg26
S'.463'
p221
sg28
S'NBA'
p222
sg30
S'85'
p223
sg32
S'423'
p224
sg34
S'235'
p225
sg36
S'183'
p226
sg38
S'382'
p227
sg40
S'27'
p228
sg42
S'NJN'
p229
sg44
S'80'
p230
sg46
S'74'
p231
sg48
S'196'
p232
sg50
S'146'
p233
sg52
S'423'
p234
sg54
S'274'
p235
sg56
S'1978-79'
p236
sg58
S'196'
p237
sg60
S'135'
p238
sg62
S'.463'
p239
sg64
S'1998'
p240
sg66
g3
sba(isrc.gp1.models.Totals
Totals
p241
(dp242
g8
S'103'
p243
sg10
S'20'
p244
sg12
S'.463'
p245
sg14
S'247'
p246
sg16
S'.350'
p247
sg18
S'7'
p248
sg20
S'561'
p249
sg22
S'SF'
p250
sg24
S'.839'
p251
sg26
S'.471'
p252
sg28
S'NBA'
p253
sg30
S'100'
p254
sg32
S'458'
p255
sg34
S'307'
p256
sg36
S'155'
p257
sg38
S'429'
p258
sg40
S'28'
p259
sg42
S'NJN'
p260
sg44
S'82'
p261
sg46
S'76'
p262
sg48
S'205'
p263
sg50
S'130'
p264
sg52
S'438'
p265
sg54
S'326'
p266
sg56
S'1979-80'
p267
sg58
S'212'
p268
sg60
S'158'
p269
sg62
S'.468'
p270
sg64
S'2399'
p271
sg66
g3
sba(isrc.gp1.models.Totals
Totals
p272
(dp273
g8
S'48'
p274
sg10
S'8'
p275
sg12
S'.408'
p276
sg14
S'129'
p277
sg16
S'.250'
p278
sg18
g74
sg20
S'300'
p279
sg22
S'SF'
p280
sg24
S'.838'
p281
sg26
S'.412'
p282
sg28
S'NBA'
p283
sg30
S'38'
p284
sg32
S'245'
p285
sg34
S'214'
p286
sg36
S'117'
p287
sg38
S'202'
p288
sg40
S'29'
p289
sg42
S'NJN'
p290
sg44
S'78'
p291
sg46
S'50'
p292
sg48
S'98'
p293
sg50
S'98'
p294
sg52
S'237'
p295
sg54
S'154'
p296
sg56
S'1980-81'
p297
sg58
S'100'
p298
sg60
S'108'
p299
sg62
S'.414'
p300
sg64
S'1426'
p301
sg66
g3
sba(isrc.gp1.models.Totals
Totals
p302
(dp303
g8
S'17'
p304
sg10
g74
sg12
S'.500'
p305
sg14
S'32'
p306
sg16
S'.000'
p307
sg18
g19
sg20
S'144'
p308
sg22
S'SF'
p309
sg24
S'.816'
p310
sg26
S'.500'
p311
sg28
S'NBA'
p312
sg30
S'12'
p313
sg32
S'82'
p314
sg34
S'63'
p315
sg36
S'76'
p316
sg38
S'48'
p317
sg40
S'30'
p318
sg42
S'NJN'
p319
sg44
S'41'
p320
sg46
S'13'
p321
sg48
S'41'
p322
sg50
S'62'
p323
sg52
S'80'
p324
sg54
S'31'
p325
sg56
S'1981-82'
p326
sg58
S'41'
p327
sg60
S'29'
p328
sg62
S'.513'
p329
sg64
S'452'
p330
sg66
g19
sba(isrc.gp1.models.Totals
Totals
p331
(dp332
g8
g74
sg10
g19
sg12
S'.357'
p333
sg14
S'5'
p334
sg16
g3
sg18
g19
sg20
S'15'
p335
sg22
S'SF'
p336
sg24
S'.833'
p337
sg26
S'.357'
p338
sg28
S'NBA'
p339
sg30
g74
sg32
S'14'
p340
sg34
S'9'
p341
sg36
g70
sg38
S'13'
p342
sg40
S'31'
p343
sg42
S'NJN'
p344
sg44
S'13'
p345
sg46
g74
sg48
g334
sg50
g334
sg52
S'14'
p346
sg54
S'11'
p347
sg56
S'1982-83'
p348
sg58
g334
sg60
g11
sg62
S'.357'
p349
sg64
S'63'
p350
sg66
g19
sbasS'_college'
p351
S'Vanderbilt University'
p352
sS'_toYear'
p353
S'1983'
p354
sS'_height'
p355
S'6-7'
p356
sS'_active'
p357
I00
sS'_shootingHand'
p358
VRight
p359
sS'_name'
p360
S'Jan Van Breda Kolff'
p361
sS'_per100Possessions'
p362
(lp363
(isrc.gp1.models.Per100Possession
Per100Possession
p364
(dp365
g8
S'3.3'
p366
sg10
S'0.1'
p367
sg12
S'.453'
p368
sS'_offensiveRating'
p369
S'110'
p370
sg14
S'4.9'
p371
sg16
S'.000'
p372
sg18
S'0.0'
p373
sg20
S'13.3'
p374
sg22
S'SF'
p375
sS'_defensiveRating'
p376
S'104'
p377
sg24
S'.839'
p378
sg28
S'ABA'
p379
sg30
S'1.3'
p380
sg32
S'9.3'
p381
sg34
S'4.5'
p382
sg36
S'5.7'
p383
sg38
S'9.7'
p384
sg40
S'23'
p385
sg42
S'DNA'
p386
sg44
S'84'
p387
sg46
S'1.2'
p388
sg48
S'4.2'
p389
sg50
S'4.8'
p390
sg52
S'9.2'
p391
sg54
S'6.5'
p392
sg56
S'1974-75'
p393
sg58
S'4.2'
p394
sg60
S'3.3'
p395
sg62
S'.457'
p396
sg64
S'1639'
p397
sg66
g3
sba(isrc.gp1.models.Per100Possession
Per100Possession
p398
(dp399
g8
S'3.3'
p400
sg10
S'0.1'
p401
sg12
S'.457'
p402
sg369
S'104'
p403
sg14
S'4.1'
p404
sg16
S'.333'
p405
sg18
S'0.0'
p406
sg20
S'14.0'
p407
sg22
S'SF'
p408
sg376
S'105'
p409
sg24
S'.833'
p410
sg28
S'ABA'
p411
sg30
S'1.5'
p412
sg32
S'11.1'
p413
sg34
S'3.7'
p414
sg36
S'4.5'
p415
sg38
S'9.9'
p416
sg40
S'24'
p417
sg42
S'TOT'
p418
sg44
S'80'
p419
sg46
S'2.2'
p420
sg48
S'5.0'
p421
sg50
S'3.8'
p422
sg52
S'11.0'
p423
sg54
S'6.7'
p424
sg56
S'1975-76'
p425
sg58
S'5.1'
p426
sg60
S'3.3'
p427
sg62
S'.459'
p428
sg64
S'1978'
p429
sg66
g3
sba(isrc.gp1.models.Per100Possession
Per100Possession
p430
(dp431
g8
S'3.3'
p432
sg10
S'0.2'
p433
sg12
S'.432'
p434
sg369
S'104'
p435
sg14
S'4.1'
p436
sg16
S'.250'
p437
sg18
S'0.0'
p438
sg20
S'14.7'
p439
sg22
S'SF'
p440
sg376
S'107'
p441
sg24
S'.838'
p442
sg28
S'ABA'
p443
sg30
S'1.4'
p444
sg32
S'11.9'
p445
sg34
S'3.1'
p446
sg36
S'5.2'
p447
sg38
S'9.7'
p448
sg40
S'24'
p449
sg42
S'VIR'
p450
sg44
S'37'
p451
sg46
S'2.2'
p452
sg48
S'5.1'
p453
sg50
S'4.4'
p454
sg52
S'11.7'
p455
sg54
S'6.4'
p456
sg56
S'1975-76'
p457
sg58
S'5.1'
p458
sg60
S'3.2'
p459
sg62
S'.435'
p460
sg64
S'1117'
p461
sg66
g3
sba(isrc.gp1.models.Per100Possession
Per100Possession
p462
(dp463
g8
S'3.3'
p464
sg10
S'0.1'
p465
sg12
S'.495'
p466
sg369
S'105'
p467
sg14
S'4.3'
p468
sg16
S'.500'
p469
sg18
S'0.1'
p470
sg20
S'13.0'
p471
sg22
S'SF'
p472
sg376
S'101'
p473
sg24
S'.824'
p474
sg28
S'ABA'
p475
sg30
S'1.5'
p476
sg32
S'10.1'
p477
sg34
S'4.6'
p478
sg36
S'3.6'
p479
sg38
S'10.3'
p480
sg40
S'24'
p481
sg42
S'KEN'
p482
sg44
S'43'
p483
sg46
S'2.2'
p484
sg48
S'5.0'
p485
sg50
S'2.9'
p486
sg52
S'10.0'
p487
sg54
S'7.0'
p488
sg56
S'1975-76'
p489
sg58
S'5.0'
p490
sg60
S'3.4'
p491
sg62
S'.495'
p492
sg64
S'861'
p493
sg66
g3
sba(isrc.gp1.models.Per100Possession
Per100Possession
p494
(dp495
g8
S'3.0'
p496
sg10
g3
sg12
S'.445'
p497
sg369
g3
sg14
S'2.3'
p498
sg16
g3
sg18
g3
sg20
S'14.2'
p499
sg22
S'SF'
p500
sg376
S'99'
p501
sg24
S'.855'
p502
sg28
S'NBA'
p503
sg30
S'1.4'
p504
sg32
S'11.8'
p505
sg34
S'4.0'
p506
sg36
S'4.4'
p507
sg38
S'8.9'
p508
sg40
S'25'
p509
sg42
S'NYN'
p510
sg44
S'72'
p511
sg46
S'1.3'
p512
sg48
S'5.2'
p513
sg50
S'3.8'
p514
sg52
S'11.8'
p515
sg54
S'5.9'
p516
sg56
S'1976-77'
p517
sg58
S'5.2'
p518
sg60
g3
sg62
S'.445'
p519
sg64
S'2398'
p520
sg66
g3
sba(isrc.gp1.models.Per100Possession
Per100Possession
p521
(dp522
g8
S'2.0'
p523
sg10
g3
sg12
S'.366'
p524
sg369
S'90'
p525
sg14
S'3.2'
p526
sg16
g3
sg18
g3
sg20
S'9.2'
p527
sg22
S'SF'
p528
sg376
S'101'
p529
sg24
S'.707'
p530
sg28
S'NBA'
p531
sg30
S'1.6'
p532
sg32
S'8.9'
p533
sg34
S'5.9'
p534
sg36
S'3.8'
p535
sg38
S'7.4'
p536
sg40
S'26'
p537
sg42
S'NJN'
p538
sg44
S'68'
p539
sg46
S'1.4'
p540
sg48
S'3.3'
p541
sg50
S'2.7'
p542
sg52
S'8.9'
p543
sg54
S'5.4'
p544
sg56
S'1977-78'
p545
sg58
S'3.3'
p546
sg60
S'2.2'
p547
sg62
S'.366'
p548
sg64
S'1419'
p549
sg66
g3
sba(isrc.gp1.models.Per100Possession
Per100Possession
p550
(dp551
g8
S'2.4'
p552
sg10
g3
sg12
S'.463'
p553
sg369
S'101'
p554
sg14
S'3.9'
p555
sg16
g3
sg18
g3
sg20
S'11.8'
p556
sg22
S'SF'
p557
sg376
S'101'
p558
sg24
S'.798'
p559
sg28
S'NBA'
p560
sg30
S'1.9'
p561
sg32
S'9.3'
p562
sg34
S'5.2'
p563
sg36
S'4.0'
p564
sg38
S'8.4'
p565
sg40
S'27'
p566
sg42
S'NJN'
p567
sg44
S'80'
p568
sg46
S'1.6'
p569
sg48
S'4.3'
p570
sg50
S'3.2'
p571
sg52
S'9.3'
p572
sg54
S'6.0'
p573
sg56
S'1978-79'
p574
sg58
S'4.3'
p575
sg60
S'3.0'
p576
sg62
S'.463'
p577
sg64
S'1998'
p578
sg66
g3
sba(isrc.gp1.models.Per100Possession
Per100Possession
p579
(dp580
g8
S'1.9'
p581
sg10
S'0.4'
p582
sg12
S'.463'
p583
sg369
S'100'
p584
sg14
S'4.7'
p585
sg16
S'.350'
p586
sg18
S'0.1'
p587
sg20
S'10.6'
p588
sg22
S'SF'
p589
sg376
S'102'
p590
sg24
S'.839'
p591
sg28
S'NBA'
p592
sg30
S'1.9'
p593
sg32
S'8.6'
p594
sg34
S'5.8'
p595
sg36
S'2.9'
p596
sg38
S'8.1'
p597
sg40
S'28'
p598
sg42
S'NJN'
p599
sg44
S'82'
p600
sg46
S'1.4'
p601
sg48
S'3.9'
p602
sg50
S'2.5'
p603
sg52
S'8.3'
p604
sg54
S'6.2'
p605
sg56
S'1979-80'
p606
sg58
S'4.0'
p607
sg60
S'3.0'
p608
sg62
S'.468'
p609
sg64
S'2399'
p610
sg66
g3
sba(isrc.gp1.models.Per100Possession
Per100Possession
p611
(dp612
g8
S'1.5'
p613
sg10
S'0.3'
p614
sg12
S'.408'
p615
sg369
S'91'
p616
sg14
S'4.1'
p617
sg16
S'.250'
p618
sg18
S'0.1'
p619
sg20
S'9.6'
p620
sg22
S'SF'
p621
sg376
S'107'
p622
sg24
S'.838'
p623
sg28
S'NBA'
p624
sg30
S'1.2'
p625
sg32
S'7.8'
p626
sg34
S'6.8'
p627
sg36
S'3.7'
p628
sg38
S'6.5'
p629
sg40
S'29'
p630
sg42
S'NJN'
p631
sg44
S'78'
p632
sg46
S'1.6'
p633
sg48
S'3.1'
p634
sg50
S'3.1'
p635
sg52
S'7.6'
p636
sg54
S'4.9'
p637
sg56
S'1980-81'
p638
sg58
S'3.2'
p639
sg60
S'3.5'
p640
sg62
S'.414'
p641
sg64
S'1426'
p642
sg66
g3
sba(isrc.gp1.models.Per100Possession
Per100Possession
p643
(dp644
g8
S'1.8'
p645
sg10
S'0.2'
p646
sg12
S'.500'
p647
sg369
S'114'
p648
sg14
S'3.3'
p649
sg16
S'.000'
p650
sg18
S'0.0'
p651
sg20
S'14.8'
p652
sg22
S'SF'
p653
sg376
S'105'
p654
sg24
S'.816'
p655
sg28
S'NBA'
p656
sg30
S'1.2'
p657
sg32
S'8.4'
p658
sg34
S'6.5'
p659
sg36
S'7.8'
p660
sg38
S'4.9'
p661
sg40
S'30'
p662
sg42
S'NJN'
p663
sg44
S'41'
p664
sg46
S'1.3'
p665
sg48
S'4.2'
p666
sg50
S'6.4'
p667
sg52
S'8.2'
p668
sg54
S'3.2'
p669
sg56
S'1981-82'
p670
sg58
S'4.2'
p671
sg60
S'3.0'
p672
sg62
S'.513'
p673
sg64
S'452'
p674
sg66
g19
sba(isrc.gp1.models.Per100Possession
Per100Possession
p675
(dp676
g8
S'1.5'
p677
sg10
S'0.0'
p678
sg12
S'.357'
p679
sg369
S'99'
p680
sg14
S'3.7'
p681
sg16
g3
sg18
S'0.0'
p682
sg20
S'11.0'
p683
sg22
S'SF'
p684
sg376
S'98'
p685
sg24
S'.833'
p686
sg28
S'NBA'
p687
sg30
S'1.5'
p688
sg32
S'10.3'
p689
sg34
S'6.6'
p690
sg36
S'4.4'
p691
sg38
S'9.5'
p692
sg40
S'31'
p693
sg42
S'NJN'
p694
sg44
S'13'
p695
sg46
S'1.5'
p696
sg48
S'3.7'
p697
sg50
S'3.7'
p698
sg52
S'10.3'
p699
sg54
S'8.1'
p700
sg56
S'1982-83'
p701
sg58
S'3.7'
p702
sg60
S'2.2'
p703
sg62
S'.357'
p704
sg64
S'63'
p705
sg66
g19
sbasS'_advanced'
p706
(lp707
(isrc.gp1.models.Advanced
Advanced
p708
(dp709
S'_offensiveReboundPercentage'
p710
S'8.3'
p711
sS'_turnOverPercentage'
p712
S'21.9'
p713
sS'_winSharesPer48Minutes'
p714
S'.111'
p715
sS'_stealPercentage'
p716
S'1.3'
p717
sS'_usagePercentage'
p718
S'12.9'
p719
sS'_totalReboundsPercentage'
p720
S'11.7'
p721
sS'_defensiveBoxPlusMinus'
p722
S'1.1'
p723
sg22
S'SF'
p724
sS'_valueOverReplacementPlayer'
p725
S'1.1'
p726
sS'_trueShootingPercentage'
p727
S'.560'
p728
sS'_defensiveReboundPercentage'
p729
S'14.7'
p730
sS'_freeThrowsAttempRate'
p731
S'.617'
p732
sS'_threePointsAttempRate'
p733
S'.009'
p734
sg28
S'ABA'
p735
sS'_offensiveBoxPlusMinues'
p736
S'-0.4'
p737
sS'_assistPercentage'
p738
S'12.6'
p739
sS'_defensiveWinShares'
p740
S'1.9'
p741
sg40
S'23'
p742
sg42
S'DNA'
p743
sg44
S'84'
p744
sS'_blockPercentage'
p745
S'1.4'
p746
sS'_playerEfficiencyRating'
p747
S'11.9'
p748
sS'_offensiveWinShares'
p749
S'1.9'
p750
sg64
S'1639'
p751
sS'_boxPlusMinus'
p752
S'0.7'
p753
sg56
S'1974-75'
p754
sS'_winShares'
p755
S'3.8'
p756
sba(isrc.gp1.models.Advanced
Advanced
p757
(dp758
g710
S'7.0'
p759
sg712
S'20.0'
p760
sg714
S'.083'
p761
sg716
S'1.5'
p762
sg718
S'13.7'
p763
sg720
S'10.8'
p764
sg722
S'2.0'
p765
sg22
S'SF'
p766
sg725
S'1.3'
p767
sg727
S'.533'
p768
sg729
S'14.7'
p769
sg731
S'.406'
p770
sg733
S'.012'
p771
sg28
S'ABA'
p772
sg736
S'-1.3'
p773
sg738
S'12.0'
p774
sg740
S'1.9'
p775
sg40
S'24'
p776
sg42
S'TOT'
p777
sg44
S'80'
p778
sg745
S'2.6'
p779
sg747
S'12.9'
p780
sg749
S'1.5'
p781
sg64
S'1978'
p782
sg752
S'0.7'
p783
sg56
S'1975-76'
p784
sg755
S'3.4'
p785
sba(isrc.gp1.models.Advanced
Advanced
p786
(dp787
g710
S'6.9'
p788
sg712
S'18.5'
p789
sg714
S'.067'
p790
sg716
S'1.4'
p791
sg718
S'14.6'
p792
sg720
S'10.8'
p793
sg722
S'1.5'
p794
sg22
S'SF'
p795
sg725
S'0.6'
p796
sg727
S'.518'
p797
sg729
S'14.9'
p798
sg731
S'.439'
p799
sg733
S'.014'
p800
sg28
S'ABA'
p801
sg736
S'-1.2'
p802
sg738
S'12.3'
p803
sg740
S'0.7'
p804
sg40
S'24'
p805
sg42
S'VIR'
p806
sg44
S'37'
p807
sg745
S'2.5'
p808
sg747
S'13.2'
p809
sg749
S'0.8'
p810
sg64
S'1117'
p811
sg752
S'0.3'
p812
sg56
S'1975-76'
p813
sg755
S'1.6'
p814
sba(isrc.gp1.models.Advanced
Advanced
p815
(dp816
g710
S'7.1'
p817
sg712
S'22.4'
p818
sg714
S'.103'
p819
sg716
S'1.5'
p820
sg718
S'12.7'
p821
sg720
S'10.9'
p822
sg722
S'2.6'
p823
sg22
S'SF'
p824
sg725
S'0.7'
p825
sg727
S'.557'
p826
sg729
S'14.4'
p827
sg731
S'.354'
p828
sg733
S'.010'
p829
sg28
S'ABA'
p830
sg736
S'-1.4'
p831
sg738
S'11.6'
p832
sg740
S'1.2'
p833
sg40
S'24'
p834
sg42
S'KEN'
p835
sg44
S'43'
p836
sg745
S'2.6'
p837
sg747
S'12.5'
p838
sg749
S'0.7'
p839
sg64
S'861'
p840
sg752
S'1.2'
p841
sg56
S'1975-76'
p842
sg755
S'1.9'
p843
sba(isrc.gp1.models.Advanced
Advanced
p844
(dp845
g710
S'6.3'
p846
sg712
g3
sg714
S'.091'
p847
sg716
S'1.4'
p848
sg718
g3
sg720
S'9.7'
p849
sg722
S'1.5'
p850
sg22
S'SF'
p851
sg725
S'0.9'
p852
sg727
S'.520'
p853
sg729
S'13.5'
p854
sg731
S'.374'
p855
sg733
g3
sg28
S'NBA'
p856
sg736
S'-2.0'
p857
sg738
S'7.3'
p858
sg740
S'2.5'
p859
sg40
S'25'
p860
sg42
S'NYN'
p861
sg44
S'72'
p862
sg745
S'1.6'
p863
sg747
S'12.0'
p864
sg749
S'2.0'
p865
sg64
S'2398'
p866
sg752
S'-0.5'
p867
sg56
S'1976-77'
p868
sg755
S'4.5'
p869
sba(isrc.gp1.models.Advanced
Advanced
p870
(dp871
g710
S'4.3'
p872
sg712
S'17.4'
p873
sg714
S'.040'
p874
sg716
S'1.6'
p875
sg718
S'10.9'
p876
sg720
S'8.3'
p877
sg722
S'1.8'
p878
sg22
S'SF'
p879
sg725
S'0.1'
p880
sg727
S'.435'
p881
sg729
S'12.8'
p882
sg731
S'.421'
p883
sg733
g3
sg28
S'NBA'
p884
sg736
S'-3.5'
p885
sg738
S'9.1'
p886
sg740
S'1.4'
p887
sg40
S'26'
p888
sg42
S'NJN'
p889
sg44
S'68'
p890
sg745
S'1.7'
p891
sg747
S'7.5'
p892
sg749
S'-0.2'
p893
sg64
S'1419'
p894
sg752
S'-1.7'
p895
sg56
S'1977-78'
p896
sg755
S'1.2'
p897
sba(isrc.gp1.models.Advanced
Advanced
p898
(dp899
g710
S'5.5'
p900
sg712
S'21.1'
p901
sg714
S'.087'
p902
sg716
S'1.9'
p903
sg718
S'12.0'
p904
sg720
S'10.1'
p905
sg722
S'2.4'
p906
sg22
S'SF'
p907
sg725
S'1.2'
p908
sg727
S'.534'
p909
sg729
S'15.0'
p910
sg731
S'.433'
p911
sg733
g3
sg28
S'NBA'
p912
sg736
S'-2.0'
p913
sg738
S'11.6'
p914
sg740
S'2.7'
p915
sg40
S'27'
p916
sg42
S'NJN'
p917
sg44
S'80'
p918
sg745
S'2.0'
p919
sg747
S'10.8'
p920
sg749
S'0.9'
p921
sg64
S'1998'
p922
sg752
S'0.4'
p923
sg56
S'1978-79'
p924
sg755
S'3.6'
p925
sba(isrc.gp1.models.Advanced
Advanced
p926
(dp927
g710
S'4.4'
p928
sg712
S'23.1'
p929
sg714
S'.078'
p930
sg716
S'1.9'
p931
sg718
S'11.0'
p932
sg720
S'9.3'
p933
sg722
S'2.6'
p934
sg22
S'SF'
p935
sg725
S'1.5'
p936
sg727
S'.533'
p937
sg729
S'14.1'
p938
sg731
S'.338'
p939
sg733
S'.044'
p940
sg28
S'NBA'
p941
sg736
S'-2.2'
p942
sg738
S'13.1'
p943
sg740
S'3.3'
p944
sg40
S'28'
p945
sg42
S'NJN'
p946
sg44
S'82'
p947
sg745
S'1.7'
p948
sg747
S'9.5'
p949
sg749
S'0.6'
p950
sg64
S'2399'
p951
sg752
S'0.4'
p952
sg56
S'1979-80'
p953
sg755
S'3.9'
p954
sba(isrc.gp1.models.Advanced
Advanced
p955
(dp956
g710
S'3.7'
p957
sg712
S'26.7'
p958
sg714
S'.019'
p959
sg716
S'1.2'
p960
sg718
S'11.2'
p961
sg720
S'8.0'
p962
sg722
S'1.1'
p963
sg22
S'SF'
p964
sg725
S'-0.4'
p965
sg727
S'.506'
p966
sg729
S'12.5'
p967
sg731
S'.478'
p968
sg733
S'.033'
p969
sg28
S'NBA'
p970
sg736
S'-4.2'
p971
sg738
S'11.2'
p972
sg740
S'1.2'
p973
sg40
S'29'
p974
sg42
S'NJN'
p975
sg44
S'78'
p976
sg745
S'2.0'
p977
sg747
S'6.5'
p978
sg749
S'-0.6'
p979
sg64
S'1426'
p980
sg752
S'-3.1'
p981
sg56
S'1980-81'
p982
sg755
S'0.6'
p983
sba(isrc.gp1.models.Advanced
Advanced
p984
(dp985
g710
S'4.2'
p986
sg712
S'20.1'
p987
sg714
S'.119'
p988
sg716
S'1.2'
p989
sg718
S'12.8'
p990
sg720
S'6.0'
p991
sg722
S'0.6'
p992
sg22
S'SF'
p993
sg725
S'0.0'
p994
sg727
S'.624'
p995
sg729
S'7.8'
p996
sg731
S'.927'
p997
sg733
S'.024'
p998
sg28
S'NBA'
p999
sg736
S'-2.2'
p1000
sg738
S'8.9'
p1001
sg740
S'0.5'
p1002
sg40
S'30'
p1003
sg42
S'NJN'
p1004
sg44
S'41'
p1005
sg745
S'1.7'
p1006
sg747
S'10.2'
p1007
sg749
S'0.6'
p1008
sg64
S'452'
p1009
sg752
S'-1.7'
p1010
sg56
S'1981-82'
p1011
sg755
S'1.1'
p1012
sba(isrc.gp1.models.Advanced
Advanced
p1013
(dp1014
g710
S'3.6'
p1015
sg712
S'15.3'
p1016
sg714
S'.095'
p1017
sg716
S'1.5'
p1018
sg718
S'12.3'
p1019
sg720
S'11.7'
p1020
sg722
S'1.7'
p1021
sg22
S'SF'
p1022
sg725
S'0.0'
p1023
sg727
S'.451'
p1024
sg729
S'19.5'
p1025
sg731
S'.429'
p1026
sg733
S'.000'
p1027
sg28
S'NBA'
p1028
sg736
S'-5.0'
p1029
sg738
S'9.8'
p1030
sg740
S'0.1'
p1031
sg40
S'31'
p1032
sg42
S'NJN'
p1033
sg44
S'13'
p1034
sg745
S'1.9'
p1035
sg747
S'8.6'
p1036
sg749
S'0.0'
p1037
sg64
S'63'
p1038
sg752
S'-3.3'
p1039
sg56
S'1982-83'
p1040
sg755
S'0.1'
p1041
sbasS'_per36Minutes'
p1042
(lp1043
(isrc.gp1.models.Per36Minutes
Per36Minutes
p1044
(dp1045
g8
S'2.7'
p1046
sg10
S'0.1'
p1047
sg12
S'.453'
p1048
sg14
S'4.0'
p1049
sg16
S'.000'
p1050
sg18
S'0.0'
p1051
sg20
S'10.7'
p1052
sg22
S'SF'
p1053
sg24
S'.839'
p1054
sg28
S'ABA'
p1055
sg30
S'1.1'
p1056
sg32
S'7.5'
p1057
sg34
S'3.6'
p1058
sg36
S'4.6'
p1059
sg38
S'7.9'
p1060
sg40
S'23'
p1061
sg42
S'DNA'
p1062
sg44
S'84'
p1063
sg46
S'0.9'
p1064
sg48
S'3.4'
p1065
sg50
S'3.9'
p1066
sg52
S'7.4'
p1067
sg54
S'5.2'
p1068
sg56
S'1974-75'
p1069
sg58
S'3.4'
p1070
sg60
S'2.7'
p1071
sg62
S'.457'
p1072
sg64
S'1639'
p1073
sg66
g3
sba(isrc.gp1.models.Per36Minutes
Per36Minutes
p1074
(dp1075
g8
S'2.6'
p1076
sg10
S'0.1'
p1077
sg12
S'.457'
p1078
sg14
S'3.3'
p1079
sg16
S'.333'
p1080
sg18
S'0.0'
p1081
sg20
S'11.2'
p1082
sg22
S'SF'
p1083
sg24
S'.833'
p1084
sg28
S'ABA'
p1085
sg30
S'1.2'
p1086
sg32
S'8.9'
p1087
sg34
S'3.0'
p1088
sg36
S'3.6'
p1089
sg38
S'7.9'
p1090
sg40
S'24'
p1091
sg42
S'TOT'
p1092
sg44
S'80'
p1093
sg46
S'1.7'
p1094
sg48
S'4.0'
p1095
sg50
S'3.0'
p1096
sg52
S'8.8'
p1097
sg54
S'5.3'
p1098
sg56
S'1975-76'
p1099
sg58
S'4.1'
p1100
sg60
S'2.6'
p1101
sg62
S'.459'
p1102
sg64
S'1978'
p1103
sg66
g3
sba(isrc.gp1.models.Per36Minutes
Per36Minutes
p1104
(dp1105
g8
S'2.6'
p1106
sg10
S'0.1'
p1107
sg12
S'.432'
p1108
sg14
S'3.3'
p1109
sg16
S'.250'
p1110
sg18
S'0.0'
p1111
sg20
S'11.8'
p1112
sg22
S'SF'
p1113
sg24
S'.838'
p1114
sg28
S'ABA'
p1115
sg30
S'1.2'
p1116
sg32
S'9.5'
p1117
sg34
S'2.5'
p1118
sg36
S'4.2'
p1119
sg38
S'7.8'
p1120
sg40
S'24'
p1121
sg42
S'VIR'
p1122
sg44
S'37'
p1123
sg46
S'1.7'
p1124
sg48
S'4.1'
p1125
sg50
S'3.5'
p1126
sg52
S'9.4'
p1127
sg54
S'5.2'
p1128
sg56
S'1975-76'
p1129
sg58
S'4.1'
p1130
sg60
S'2.6'
p1131
sg62
S'.435'
p1132
sg64
S'1117'
p1133
sg66
g3
sba(isrc.gp1.models.Per36Minutes
Per36Minutes
p1134
(dp1135
g8
S'2.6'
p1136
sg10
S'0.1'
p1137
sg12
S'.495'
p1138
sg14
S'3.4'
p1139
sg16
S'.500'
p1140
sg18
S'0.0'
p1141
sg20
S'10.3'
p1142
sg22
S'SF'
p1143
sg24
S'.824'
p1144
sg28
S'ABA'
p1145
sg30
S'1.2'
p1146
sg32
S'8.0'
p1147
sg34
S'3.6'
p1148
sg36
S'2.8'
p1149
sg38
S'8.2'
p1150
sg40
S'24'
p1151
sg42
S'KEN'
p1152
sg44
S'43'
p1153
sg46
S'1.8'
p1154
sg48
S'3.9'
p1155
sg50
S'2.3'
p1156
sg52
S'7.9'
p1157
sg54
S'5.5'
p1158
sg56
S'1975-76'
p1159
sg58
S'4.0'
p1160
sg60
S'2.7'
p1161
sg62
S'.495'
p1162
sg64
S'861'
p1163
sg66
g3
sba(isrc.gp1.models.Per36Minutes
Per36Minutes
p1164
(dp1165
g8
S'2.3'
p1166
sg10
g3
sg12
S'.445'
p1167
sg14
S'1.8'
p1168
sg16
g3
sg18
g3
sg20
S'11.1'
p1169
sg22
S'SF'
p1170
sg24
S'.855'
p1171
sg28
S'NBA'
p1172
sg30
S'1.1'
p1173
sg32
S'9.1'
p1174
sg34
S'3.1'
p1175
sg36
S'3.4'
p1176
sg38
S'6.9'
p1177
sg40
S'25'
p1178
sg42
S'NYN'
p1179
sg44
S'72'
p1180
sg46
S'1.0'
p1181
sg48
S'4.1'
p1182
sg50
S'2.9'
p1183
sg52
S'9.1'
p1184
sg54
S'4.6'
p1185
sg56
S'1976-77'
p1186
sg58
S'4.1'
p1187
sg60
g3
sg62
S'.445'
p1188
sg64
S'2398'
p1189
sg66
g3
sba(isrc.gp1.models.Per36Minutes
Per36Minutes
p1190
(dp1191
g8
S'1.7'
p1192
sg10
g3
sg12
S'.366'
p1193
sg14
S'2.7'
p1194
sg16
g3
sg18
g3
sg20
S'7.6'
p1195
sg22
S'SF'
p1196
sg24
S'.707'
p1197
sg28
S'NBA'
p1198
sg30
S'1.3'
p1199
sg32
S'7.4'
p1200
sg34
S'4.9'
p1201
sg36
S'3.1'
p1202
sg38
S'6.2'
p1203
sg40
S'26'
p1204
sg42
S'NJN'
p1205
sg44
S'68'
p1206
sg46
S'1.2'
p1207
sg48
S'2.7'
p1208
sg50
S'2.2'
p1209
sg52
S'7.4'
p1210
sg54
S'4.5'
p1211
sg56
S'1977-78'
p1212
sg58
S'2.7'
p1213
sg60
S'1.9'
p1214
sg62
S'.366'
p1215
sg64
S'1419'
p1216
sg66
g3
sba(isrc.gp1.models.Per36Minutes
Per36Minutes
p1217
(dp1218
g8
S'1.9'
p1219
sg10
g3
sg12
S'.463'
p1220
sg14
S'3.2'
p1221
sg16
g3
sg18
g3
sg20
S'9.7'
p1222
sg22
S'SF'
p1223
sg24
S'.798'
p1224
sg28
S'NBA'
p1225
sg30
S'1.5'
p1226
sg32
S'7.6'
p1227
sg34
S'4.2'
p1228
sg36
S'3.3'
p1229
sg38
S'6.9'
p1230
sg40
S'27'
p1231
sg42
S'NJN'
p1232
sg44
S'80'
p1233
sg46
S'1.3'
p1234
sg48
S'3.5'
p1235
sg50
S'2.6'
p1236
sg52
S'7.6'
p1237
sg54
S'4.9'
p1238
sg56
S'1978-79'
p1239
sg58
S'3.5'
p1240
sg60
S'2.4'
p1241
sg62
S'.463'
p1242
sg64
S'1998'
p1243
sg66
g3
sba(isrc.gp1.models.Per36Minutes
Per36Minutes
p1244
(dp1245
g8
S'1.5'
p1246
sg10
S'0.3'
p1247
sg12
S'.463'
p1248
sg14
S'3.7'
p1249
sg16
S'.350'
p1250
sg18
S'0.1'
p1251
sg20
S'8.4'
p1252
sg22
S'SF'
p1253
sg24
S'.839'
p1254
sg28
S'NBA'
p1255
sg30
S'1.5'
p1256
sg32
S'6.9'
p1257
sg34
S'4.6'
p1258
sg36
S'2.3'
p1259
sg38
S'6.4'
p1260
sg40
S'28'
p1261
sg42
S'NJN'
p1262
sg44
S'82'
p1263
sg46
S'1.1'
p1264
sg48
S'3.1'
p1265
sg50
S'2.0'
p1266
sg52
S'6.6'
p1267
sg54
S'4.9'
p1268
sg56
S'1979-80'
p1269
sg58
S'3.2'
p1270
sg60
S'2.4'
p1271
sg62
S'.468'
p1272
sg64
S'2399'
p1273
sg66
g3
sba(isrc.gp1.models.Per36Minutes
Per36Minutes
p1274
(dp1275
g8
S'1.2'
p1276
sg10
S'0.2'
p1277
sg12
S'.408'
p1278
sg14
S'3.3'
p1279
sg16
S'.250'
p1280
sg18
S'0.1'
p1281
sg20
S'7.6'
p1282
sg22
S'SF'
p1283
sg24
S'.838'
p1284
sg28
S'NBA'
p1285
sg30
S'1.0'
p1286
sg32
S'6.2'
p1287
sg34
S'5.4'
p1288
sg36
S'3.0'
p1289
sg38
S'5.1'
p1290
sg40
S'29'
p1291
sg42
S'NJN'
p1292
sg44
S'78'
p1293
sg46
S'1.3'
p1294
sg48
S'2.5'
p1295
sg50
S'2.5'
p1296
sg52
S'6.0'
p1297
sg54
S'3.9'
p1298
sg56
S'1980-81'
p1299
sg58
S'2.5'
p1300
sg60
S'2.7'
p1301
sg62
S'.414'
p1302
sg64
S'1426'
p1303
sg66
g3
sba(isrc.gp1.models.Per36Minutes
Per36Minutes
p1304
(dp1305
g8
S'1.4'
p1306
sg10
S'0.2'
p1307
sg12
S'.500'
p1308
sg14
S'2.5'
p1309
sg16
S'.000'
p1310
sg18
S'0.0'
p1311
sg20
S'11.5'
p1312
sg22
S'SF'
p1313
sg24
S'.816'
p1314
sg28
S'NBA'
p1315
sg30
S'1.0'
p1316
sg32
S'6.5'
p1317
sg34
S'5.0'
p1318
sg36
S'6.1'
p1319
sg38
S'3.8'
p1320
sg40
S'30'
p1321
sg42
S'NJN'
p1322
sg44
S'41'
p1323
sg46
S'1.0'
p1324
sg48
S'3.3'
p1325
sg50
S'4.9'
p1326
sg52
S'6.4'
p1327
sg54
S'2.5'
p1328
sg56
S'1981-82'
p1329
sg58
S'3.3'
p1330
sg60
S'2.3'
p1331
sg62
S'.513'
p1332
sg64
S'452'
p1333
sg66
g19
sba(isrc.gp1.models.Per36Minutes
Per36Minutes
p1334
(dp1335
g8
S'1.1'
p1336
sg10
S'0.0'
p1337
sg12
S'.357'
p1338
sg14
S'2.9'
p1339
sg16
g3
sg18
S'0.0'
p1340
sg20
S'8.6'
p1341
sg22
S'SF'
p1342
sg24
S'.833'
p1343
sg28
S'NBA'
p1344
sg30
S'1.1'
p1345
sg32
S'8.0'
p1346
sg34
S'5.1'
p1347
sg36
S'3.4'
p1348
sg38
S'7.4'
p1349
sg40
S'31'
p1350
sg42
S'NJN'
p1351
sg44
S'13'
p1352
sg46
S'1.1'
p1353
sg48
S'2.9'
p1354
sg50
S'2.9'
p1355
sg52
S'8.0'
p1356
sg54
S'6.3'
p1357
sg56
S'1982-83'
p1358
sg58
S'2.9'
p1359
sg60
S'1.7'
p1360
sg62
S'.357'
p1361
sg64
S'63'
p1362
sg66
g19
sbasS'_fromYear'
p1363
S'1975'
p1364
sS'_url'
p1365
S'http://www.basketball-reference.com/players/v/vanbrja01.html'
p1366
sS'_perGame'
p1367
(isrc.gp1.models.PerGame
PerGame
p1368
(dp1369
g8
S'0.2'
p1370
sg10
S'0.0'
p1371
sg12
S'.357'
p1372
sS'_effectiveFieldGalPercentage'
p1373
S'.357'
p1374
sg14
S'0.4'
p1375
sg16
g3
sg18
S'0.0'
p1376
sg20
S'1.2'
p1377
sg22
S'SF'
p1378
sg24
S'.833'
p1379
sg28
S'NBA'
p1380
sg30
S'0.2'
p1381
sg34
S'0.7'
p1382
sS'_fieldGoalsttempted'
p1383
S'1.1'
p1384
sg36
S'0.5'
p1385
sg38
S'1.0'
p1386
sg40
S'31'
p1387
sg42
S'NJN'
p1388
sg44
S'13'
p1389
sg46
S'0.2'
p1390
sg48
S'0.4'
p1391
sg50
S'0.4'
p1392
sg52
S'1.1'
p1393
sg54
S'0.8'
p1394
sg56
S'1982-83'
p1395
sg58
S'0.4'
p1396
sg60
S'0.2'
p1397
sg62
S'.357'
p1398
sg64
S'4.8'
p1399
sg66
g19
sbsS'_weight'
p1400
S'195'
p1401
sS'_dob'
p1402
S'16-12-1951'
p1403
sS'_salary'
p1404
(lp1405
sg22
S'F-G'
p1406
sb.