(isrc.gp1.models.Player
Player
p0
(dp1
S'_experience'
p2
V2
p3
sS'_totals'
p4
(lp5
(isrc.gp1.models.Totals
Totals
p6
(dp7
S'_offensiveRebounds'
p8
S'2'
p9
sS'_threePointsAttempted'
p10
S'0'
p11
sS'_fieldGoalsPercentage'
p12
S'.429'
p13
sS'_assist'
p14
S'3'
p15
sS'_threePointsPercentage'
p16
S'NA'
p17
sS'_threePoints'
p18
g11
sS'_points'
p19
S'8'
p20
sS'_position'
p21
S'PF'
p22
sS'_freeThrowsPercentage'
p23
S'.500'
p24
sS'_effectiveFieldGoalPercentage'
p25
S'.429'
p26
sS'_league'
p27
S'NBA'
p28
sS'_steals'
p29
S'1'
p30
sS'_fieldGoalsAttempted'
p31
S'7'
p32
sS'_personalFouls'
p33
S'10'
p34
sS'_freeThrowsAttempted'
p35
S'4'
p36
sS'_totalRebounds'
p37
S'9'
p38
sS'_age'
p39
S'24'
p40
sS'_team'
p41
S'TOT'
p42
sS'_games'
p43
S'13'
p44
sS'_blocks'
p45
g9
sS'_twoPoints'
p46
g15
sS'_freeThrows'
p47
g9
sS'_twoPointsAttempted'
p48
g32
sS'_defensiveRebounds'
p49
g32
sS'_season'
p50
S'2012-13'
p51
sS'_fieldGoals'
p52
g15
sS'_turnOvers'
p53
S'6'
p54
sS'_twoPointsPercentage'
p55
S'.429'
p56
sS'_minutesPlayed'
p57
S'58'
p58
sS'_gamesStarted'
p59
g11
sba(isrc.gp1.models.Totals
Totals
p60
(dp61
g8
g30
sg10
g11
sg12
S'.500'
p62
sg14
g30
sg16
g17
sg18
g11
sg19
g54
sg21
S'PF'
p63
sg23
S'.500'
p64
sg25
S'.500'
p65
sg27
S'NBA'
p66
sg29
g30
sg31
g36
sg33
g30
sg35
g36
sg37
g15
sg39
S'24'
p67
sg41
S'BOS'
p68
sg43
S'5'
p69
sg45
g11
sg46
g9
sg47
g9
sg48
g36
sg49
g9
sg50
S'2012-13'
p70
sg52
g9
sg53
g30
sg55
S'.500'
p71
sg57
S'18'
p72
sg59
g11
sba(isrc.gp1.models.Totals
Totals
p73
(dp74
g8
g30
sg10
g11
sg12
S'.333'
p75
sg14
g9
sg16
g17
sg18
g11
sg19
g9
sg21
S'PF'
p76
sg23
g17
sg25
S'.333'
p77
sg27
S'NBA'
p78
sg29
g11
sg31
g15
sg33
g38
sg35
g11
sg37
g54
sg39
S'24'
p79
sg41
S'MIA'
p80
sg43
g20
sg45
g9
sg46
g30
sg47
g11
sg48
g15
sg49
g69
sg50
S'2012-13'
p81
sg52
g30
sg53
g69
sg55
S'.333'
p82
sg57
S'40'
p83
sg59
g11
sba(isrc.gp1.models.Totals
Totals
p84
(dp85
g8
S'19'
p86
sg10
g11
sg12
S'.600'
p87
sg14
S'13'
p88
sg16
g17
sg18
g11
sg19
S'99'
p89
sg21
S'PF'
p90
sg23
S'.519'
p91
sg25
S'.600'
p92
sg27
S'NBA'
p93
sg29
S'10'
p94
sg31
S'60'
p95
sg33
S'62'
p96
sg35
S'52'
p97
sg37
S'63'
p98
sg39
S'25'
p99
sg41
S'TOT'
p100
sg43
S'24'
p101
sg45
S'29'
p102
sg46
S'36'
p103
sg47
S'27'
p104
sg48
S'60'
p105
sg49
S'44'
p106
sg50
S'2013-14'
p107
sg52
S'36'
p108
sg53
S'10'
p109
sg55
S'.600'
p110
sg57
S'339'
p111
sg59
g11
sba(isrc.gp1.models.Totals
Totals
p112
(dp113
g8
g11
sg10
g11
sg12
g17
sg14
g11
sg16
g17
sg18
g11
sg19
g11
sg21
S'PF'
p114
sg23
g17
sg25
g17
sg27
S'NBA'
p115
sg29
g11
sg31
g11
sg33
g30
sg35
g11
sg37
g11
sg39
S'25'
p116
sg41
S'CHI'
p117
sg43
g30
sg45
g11
sg46
g11
sg47
g11
sg48
g11
sg49
g11
sg50
S'2013-14'
p118
sg52
g11
sg53
g11
sg55
g17
sg57
g9
sg59
g11
sba(isrc.gp1.models.Totals
Totals
p119
(dp120
g8
S'19'
p121
sg10
g11
sg12
S'.600'
p122
sg14
S'13'
p123
sg16
g17
sg18
g11
sg19
S'99'
p124
sg21
S'PF'
p125
sg23
S'.519'
p126
sg25
S'.600'
p127
sg27
S'NBA'
p128
sg29
S'10'
p129
sg31
S'60'
p130
sg33
S'61'
p131
sg35
S'52'
p132
sg37
S'63'
p133
sg39
S'25'
p134
sg41
S'PHI'
p135
sg43
S'23'
p136
sg45
S'29'
p137
sg46
S'36'
p138
sg47
S'27'
p139
sg48
S'60'
p140
sg49
S'44'
p141
sg50
S'2013-14'
p142
sg52
S'36'
p143
sg53
S'10'
p144
sg55
S'.600'
p145
sg57
S'337'
p146
sg59
g11
sbasS'_college'
p147
S'Mississippi State University'
p148
sS'_toYear'
p149
S'2014'
p150
sS'_height'
p151
S'6-9'
p152
sS'_active'
p153
I01
sS'_shootingHand'
p154
VRight
p155
sS'_name'
p156
S'Jarvis Varnado'
p157
sS'_per100Possessions'
p158
(lp159
(isrc.gp1.models.Per100Possession
Per100Possession
p160
(dp161
g8
S'1.8'
p162
sg10
S'0.0'
p163
sg12
S'.429'
p164
sS'_offensiveRating'
p165
S'68'
p166
sg14
S'2.7'
p167
sg16
g17
sg18
S'0.0'
p168
sg19
S'7.3'
p169
sg21
S'PF'
p170
sS'_defensiveRating'
p171
S'105'
p172
sg23
S'.500'
p173
sg27
S'NBA'
p174
sg29
S'0.9'
p175
sg31
S'6.4'
p176
sg33
S'9.1'
p177
sg35
S'3.6'
p178
sg37
S'8.2'
p179
sg39
S'24'
p180
sg41
S'TOT'
p181
sg43
S'13'
p182
sg45
S'1.8'
p183
sg46
S'2.7'
p184
sg47
S'1.8'
p185
sg48
S'6.4'
p186
sg49
S'6.4'
p187
sg50
S'2012-13'
p188
sg52
S'2.7'
p189
sg53
S'5.5'
p190
sg55
S'.429'
p191
sg57
S'58'
p192
sg59
g11
sba(isrc.gp1.models.Per100Possession
Per100Possession
p193
(dp194
g8
S'2.9'
p195
sg10
S'0.0'
p196
sg12
S'.500'
p197
sg165
S'100'
p198
sg14
S'2.9'
p199
sg16
g17
sg18
S'0.0'
p200
sg19
S'17.4'
p201
sg21
S'PF'
p202
sg171
S'103'
p203
sg23
S'.500'
p204
sg27
S'NBA'
p205
sg29
S'2.9'
p206
sg31
S'11.6'
p207
sg33
S'2.9'
p208
sg35
S'11.6'
p209
sg37
S'8.7'
p210
sg39
S'24'
p211
sg41
S'BOS'
p212
sg43
g69
sg45
S'0.0'
p213
sg46
S'5.8'
p214
sg47
S'5.8'
p215
sg48
S'11.6'
p216
sg49
S'5.8'
p217
sg50
S'2012-13'
p218
sg52
S'5.8'
p219
sg53
S'2.9'
p220
sg55
S'.500'
p221
sg57
S'18'
p222
sg59
g11
sba(isrc.gp1.models.Per100Possession
Per100Possession
p223
(dp224
g8
S'1.3'
p225
sg10
S'0.0'
p226
sg12
S'.333'
p227
sg165
S'44'
p228
sg14
S'2.6'
p229
sg16
g17
sg18
S'0.0'
p230
sg19
S'2.6'
p231
sg21
S'PF'
p232
sg171
S'106'
p233
sg23
g17
sg27
S'NBA'
p234
sg29
S'0.0'
p235
sg31
S'4.0'
p236
sg33
S'11.9'
p237
sg35
S'0.0'
p238
sg37
S'7.9'
p239
sg39
S'24'
p240
sg41
S'MIA'
p241
sg43
g20
sg45
S'2.6'
p242
sg46
S'1.3'
p243
sg47
S'0.0'
p244
sg48
S'4.0'
p245
sg49
S'6.6'
p246
sg50
S'2012-13'
p247
sg52
S'1.3'
p248
sg53
S'6.6'
p249
sg55
S'.333'
p250
sg57
S'40'
p251
sg59
g11
sba(isrc.gp1.models.Per100Possession
Per100Possession
p252
(dp253
g8
S'2.7'
p254
sg10
S'0.0'
p255
sg12
S'.600'
p256
sg165
S'118'
p257
sg14
S'1.9'
p258
sg16
g17
sg18
S'0.0'
p259
sg19
S'14.1'
p260
sg21
S'PF'
p261
sg171
S'107'
p262
sg23
S'.519'
p263
sg27
S'NBA'
p264
sg29
S'1.4'
p265
sg31
S'8.6'
p266
sg33
S'8.9'
p267
sg35
S'7.4'
p268
sg37
S'9.0'
p269
sg39
S'25'
p270
sg41
S'TOT'
p271
sg43
S'24'
p272
sg45
S'4.1'
p273
sg46
S'5.1'
p274
sg47
S'3.9'
p275
sg48
S'8.6'
p276
sg49
S'6.3'
p277
sg50
S'2013-14'
p278
sg52
S'5.1'
p279
sg53
S'1.4'
p280
sg55
S'.600'
p281
sg57
S'339'
p282
sg59
g11
sba(isrc.gp1.models.Per100Possession
Per100Possession
p283
(dp284
g8
S'0.0'
p285
sg10
S'0.0'
p286
sg12
g17
sg165
g17
sg14
S'0.0'
p287
sg16
g17
sg18
S'0.0'
p288
sg19
S'0.0'
p289
sg21
S'PF'
p290
sg171
S'109'
p291
sg23
g17
sg27
S'NBA'
p292
sg29
S'0.0'
p293
sg31
S'0.0'
p294
sg33
S'26.6'
p295
sg35
S'0.0'
p296
sg37
S'0.0'
p297
sg39
S'25'
p298
sg41
S'CHI'
p299
sg43
g30
sg45
S'0.0'
p300
sg46
S'0.0'
p301
sg47
S'0.0'
p302
sg48
S'0.0'
p303
sg49
S'0.0'
p304
sg50
S'2013-14'
p305
sg52
S'0.0'
p306
sg53
S'0.0'
p307
sg55
g17
sg57
g9
sg59
g11
sba(isrc.gp1.models.Per100Possession
Per100Possession
p308
(dp309
g8
S'2.7'
p310
sg10
S'0.0'
p311
sg12
S'.600'
p312
sg165
S'118'
p313
sg14
S'1.9'
p314
sg16
g17
sg18
S'0.0'
p315
sg19
S'14.2'
p316
sg21
S'PF'
p317
sg171
S'107'
p318
sg23
S'.519'
p319
sg27
S'NBA'
p320
sg29
S'1.4'
p321
sg31
S'8.6'
p322
sg33
S'8.8'
p323
sg35
S'7.5'
p324
sg37
S'9.0'
p325
sg39
S'25'
p326
sg41
S'PHI'
p327
sg43
S'23'
p328
sg45
S'4.2'
p329
sg46
S'5.2'
p330
sg47
S'3.9'
p331
sg48
S'8.6'
p332
sg49
S'6.3'
p333
sg50
S'2013-14'
p334
sg52
S'5.2'
p335
sg53
S'1.4'
p336
sg55
S'.600'
p337
sg57
S'337'
p338
sg59
g11
sbasS'_advanced'
p339
(lp340
(isrc.gp1.models.Advanced
Advanced
p341
(dp342
S'_offensiveReboundPercentage'
p343
S'4.4'
p344
sS'_turnOverPercentage'
p345
S'40.7'
p346
sS'_winSharesPer48Minutes'
p347
S'-0.059'
p348
sS'_stealPercentage'
p349
S'0.9'
p350
sS'_usagePercentage'
p351
S'12.1'
p352
sS'_totalReboundsPercentage'
p353
S'9.4'
p354
sS'_defensiveBoxPlusMinus'
p355
S'1.3'
p356
sg21
S'PF'
p357
sS'_valueOverReplacementPlayer'
p358
S'-0.1'
p359
sS'_trueShootingPercentage'
p360
S'.457'
p361
sS'_defensiveReboundPercentage'
p362
S'14.0'
p363
sS'_freeThrowsAttempRate'
p364
S'.571'
p365
sS'_threePointsAttempRate'
p366
S'.000'
p367
sg27
S'NBA'
p368
sS'_offensiveBoxPlusMinues'
p369
S'-8.2'
p370
sS'_assistPercentage'
p371
S'7.2'
p372
sS'_defensiveWinShares'
p373
S'0.1'
p374
sg39
S'24'
p375
sg41
S'TOT'
p376
sg43
S'13'
p377
sS'_blockPercentage'
p378
S'2.8'
p379
sS'_playerEfficiencyRating'
p380
S'1.2'
p381
sS'_offensiveWinShares'
p382
S'-0.1'
p383
sg57
S'58'
p384
sS'_boxPlusMinus'
p385
S'-6.9'
p386
sg50
S'2012-13'
p387
sS'_winShares'
p388
S'-0.1'
p389
sba(isrc.gp1.models.Advanced
Advanced
p390
(dp391
g343
S'6.8'
p392
sg345
S'14.8'
p393
sg347
S'.083'
p394
sg349
S'2.9'
p395
sg351
S'17.8'
p396
sg353
S'9.8'
p397
sg355
S'-0.1'
p398
sg21
S'PF'
p399
sg358
S'0.0'
p400
sg360
S'.521'
p401
sg362
S'12.7'
p402
sg364
S'1.000'
p403
sg366
S'.000'
p404
sg27
S'NBA'
p405
sg369
S'-3.6'
p406
sg371
S'8.6'
p407
sg373
S'0.0'
p408
sg39
S'24'
p409
sg41
S'BOS'
p410
sg43
g69
sg378
S'0.0'
p411
sg380
S'12.8'
p412
sg382
S'0.0'
p413
sg57
S'18'
p414
sg385
S'-3.7'
p415
sg50
S'2012-13'
p416
sg388
S'0.0'
p417
sba(isrc.gp1.models.Advanced
Advanced
p418
(dp419
g343
S'3.3'
p420
sg345
S'62.5'
p421
sg347
S'-0.122'
p422
sg349
S'0.0'
p423
sg351
S'9.6'
p424
sg353
S'9.2'
p425
sg355
S'1.9'
p426
sg21
S'PF'
p427
sg358
S'-0.1'
p428
sg360
S'.333'
p429
sg362
S'14.6'
p430
sg364
S'.000'
p431
sg366
S'.000'
p432
sg27
S'NBA'
p433
sg369
S'-10.2'
p434
sg371
S'6.5'
p435
sg373
S'0.0'
p436
sg39
S'24'
p437
sg41
S'MIA'
p438
sg43
g20
sg378
S'4.1'
p439
sg380
S'-4.1'
p440
sg382
S'-0.1'
p441
sg57
S'40'
p442
sg385
S'-8.3'
p443
sg50
S'2012-13'
p444
sg388
S'-0.1'
p445
sba(isrc.gp1.models.Advanced
Advanced
p446
(dp447
g343
S'5.8'
p448
sg345
S'10.8'
p449
sg347
S'.114'
p450
sg349
S'1.4'
p451
sg351
S'11.6'
p452
sg353
S'10.0'
p453
sg355
S'2.3'
p454
sg21
S'PF'
p455
sg358
S'0.1'
p456
sg360
S'.597'
p457
sg362
S'14.6'
p458
sg364
S'.867'
p459
sg366
S'.000'
p460
sg27
S'NBA'
p461
sg369
S'-3.3'
p462
sg371
S'5.7'
p463
sg373
S'0.3'
p464
sg39
S'25'
p465
sg41
S'TOT'
p466
sg43
S'24'
p467
sg378
S'6.8'
p468
sg380
S'13.3'
p469
sg382
S'0.5'
p470
sg57
S'339'
p471
sg385
S'-1.0'
p472
sg50
S'2013-14'
p473
sg388
S'0.8'
p474
sba(isrc.gp1.models.Advanced
Advanced
p475
(dp476
g343
S'0.0'
p477
sg345
g17
sg347
S'.038'
p478
sg349
S'0.0'
p479
sg351
S'0.0'
p480
sg353
S'0.0'
p481
sg355
S'1.0'
p482
sg21
S'PF'
p483
sg358
S'0.0'
p484
sg360
g17
sg362
S'0.0'
p485
sg364
g17
sg366
g17
sg27
S'NBA'
p486
sg369
S'-7.3'
p487
sg371
S'0.0'
p488
sg373
S'0.0'
p489
sg39
S'25'
p490
sg41
S'CHI'
p491
sg43
g30
sg378
S'0.0'
p492
sg380
S'-9.1'
p493
sg382
S'0.0'
p494
sg57
g9
sg385
S'-6.3'
p495
sg50
S'2013-14'
p496
sg388
S'0.0'
p497
sba(isrc.gp1.models.Advanced
Advanced
p498
(dp499
g343
S'5.9'
p500
sg345
S'10.8'
p501
sg347
S'.115'
p502
sg349
S'1.4'
p503
sg351
S'11.7'
p504
sg353
S'10.1'
p505
sg355
S'2.3'
p506
sg21
S'PF'
p507
sg358
S'0.1'
p508
sg360
S'.597'
p509
sg362
S'14.7'
p510
sg364
S'.867'
p511
sg366
S'.000'
p512
sg27
S'NBA'
p513
sg369
S'-3.3'
p514
sg371
S'5.7'
p515
sg373
S'0.3'
p516
sg39
S'25'
p517
sg41
S'PHI'
p518
sg43
S'23'
p519
sg378
S'6.9'
p520
sg380
S'13.4'
p521
sg382
S'0.5'
p522
sg57
S'337'
p523
sg385
S'-1.0'
p524
sg50
S'2013-14'
p525
sg388
S'0.8'
p526
sbasS'_per36Minutes'
p527
(lp528
(isrc.gp1.models.Per36Minutes
Per36Minutes
p529
(dp530
g8
S'1.2'
p531
sg10
S'0.0'
p532
sg12
S'.429'
p533
sg14
S'1.9'
p534
sg16
g17
sg18
S'0.0'
p535
sg19
S'5.0'
p536
sg21
S'PF'
p537
sg23
S'.500'
p538
sg27
S'NBA'
p539
sg29
S'0.6'
p540
sg31
S'4.3'
p541
sg33
S'6.2'
p542
sg35
S'2.5'
p543
sg37
S'5.6'
p544
sg39
S'24'
p545
sg41
S'TOT'
p546
sg43
S'13'
p547
sg45
S'1.2'
p548
sg46
S'1.9'
p549
sg47
S'1.2'
p550
sg48
S'4.3'
p551
sg49
S'4.3'
p552
sg50
S'2012-13'
p553
sg52
S'1.9'
p554
sg53
S'3.7'
p555
sg55
S'.429'
p556
sg57
S'58'
p557
sg59
g11
sba(isrc.gp1.models.Per36Minutes
Per36Minutes
p558
(dp559
g8
S'2.0'
p560
sg10
S'0.0'
p561
sg12
S'.500'
p562
sg14
S'2.0'
p563
sg16
g17
sg18
S'0.0'
p564
sg19
S'12.0'
p565
sg21
S'PF'
p566
sg23
S'.500'
p567
sg27
S'NBA'
p568
sg29
S'2.0'
p569
sg31
S'8.0'
p570
sg33
S'2.0'
p571
sg35
S'8.0'
p572
sg37
S'6.0'
p573
sg39
S'24'
p574
sg41
S'BOS'
p575
sg43
g69
sg45
S'0.0'
p576
sg46
S'4.0'
p577
sg47
S'4.0'
p578
sg48
S'8.0'
p579
sg49
S'4.0'
p580
sg50
S'2012-13'
p581
sg52
S'4.0'
p582
sg53
S'2.0'
p583
sg55
S'.500'
p584
sg57
S'18'
p585
sg59
g11
sba(isrc.gp1.models.Per36Minutes
Per36Minutes
p586
(dp587
g8
S'0.9'
p588
sg10
S'0.0'
p589
sg12
S'.333'
p590
sg14
S'1.8'
p591
sg16
g17
sg18
S'0.0'
p592
sg19
S'1.8'
p593
sg21
S'PF'
p594
sg23
g17
sg27
S'NBA'
p595
sg29
S'0.0'
p596
sg31
S'2.7'
p597
sg33
S'8.1'
p598
sg35
S'0.0'
p599
sg37
S'5.4'
p600
sg39
S'24'
p601
sg41
S'MIA'
p602
sg43
g20
sg45
S'1.8'
p603
sg46
S'0.9'
p604
sg47
S'0.0'
p605
sg48
S'2.7'
p606
sg49
S'4.5'
p607
sg50
S'2012-13'
p608
sg52
S'0.9'
p609
sg53
S'4.5'
p610
sg55
S'.333'
p611
sg57
S'40'
p612
sg59
g11
sba(isrc.gp1.models.Per36Minutes
Per36Minutes
p613
(dp614
g8
S'2.0'
p615
sg10
S'0.0'
p616
sg12
S'.600'
p617
sg14
S'1.4'
p618
sg16
g17
sg18
S'0.0'
p619
sg19
S'10.5'
p620
sg21
S'PF'
p621
sg23
S'.519'
p622
sg27
S'NBA'
p623
sg29
S'1.1'
p624
sg31
S'6.4'
p625
sg33
S'6.6'
p626
sg35
S'5.5'
p627
sg37
S'6.7'
p628
sg39
S'25'
p629
sg41
S'TOT'
p630
sg43
S'24'
p631
sg45
S'3.1'
p632
sg46
S'3.8'
p633
sg47
S'2.9'
p634
sg48
S'6.4'
p635
sg49
S'4.7'
p636
sg50
S'2013-14'
p637
sg52
S'3.8'
p638
sg53
S'1.1'
p639
sg55
S'.600'
p640
sg57
S'339'
p641
sg59
g11
sba(isrc.gp1.models.Per36Minutes
Per36Minutes
p642
(dp643
g8
S'0.0'
p644
sg10
S'0.0'
p645
sg12
g17
sg14
S'0.0'
p646
sg16
g17
sg18
S'0.0'
p647
sg19
S'0.0'
p648
sg21
S'PF'
p649
sg23
g17
sg27
S'NBA'
p650
sg29
S'0.0'
p651
sg31
S'0.0'
p652
sg33
S'18.0'
p653
sg35
S'0.0'
p654
sg37
S'0.0'
p655
sg39
S'25'
p656
sg41
S'CHI'
p657
sg43
g30
sg45
S'0.0'
p658
sg46
S'0.0'
p659
sg47
S'0.0'
p660
sg48
S'0.0'
p661
sg49
S'0.0'
p662
sg50
S'2013-14'
p663
sg52
S'0.0'
p664
sg53
S'0.0'
p665
sg55
g17
sg57
g9
sg59
g11
sba(isrc.gp1.models.Per36Minutes
Per36Minutes
p666
(dp667
g8
S'2.0'
p668
sg10
S'0.0'
p669
sg12
S'.600'
p670
sg14
S'1.4'
p671
sg16
g17
sg18
S'0.0'
p672
sg19
S'10.6'
p673
sg21
S'PF'
p674
sg23
S'.519'
p675
sg27
S'NBA'
p676
sg29
S'1.1'
p677
sg31
S'6.4'
p678
sg33
S'6.5'
p679
sg35
S'5.6'
p680
sg37
S'6.7'
p681
sg39
S'25'
p682
sg41
S'PHI'
p683
sg43
S'23'
p684
sg45
S'3.1'
p685
sg46
S'3.8'
p686
sg47
S'2.9'
p687
sg48
S'6.4'
p688
sg49
S'4.7'
p689
sg50
S'2013-14'
p690
sg52
S'3.8'
p691
sg53
S'1.1'
p692
sg55
S'.600'
p693
sg57
S'337'
p694
sg59
g11
sbasS'_fromYear'
p695
S'2013'
p696
sS'_url'
p697
S'http://www.basketball-reference.com/players/v/varnaja01.html'
p698
sS'_perGame'
p699
(isrc.gp1.models.PerGame
PerGame
p700
(dp701
g8
S'0.8'
p702
sg10
S'0.0'
p703
sg12
S'.600'
p704
sS'_effectiveFieldGalPercentage'
p705
S'.600'
p706
sg14
S'0.6'
p707
sg16
g17
sg18
S'0.0'
p708
sg19
S'4.3'
p709
sg21
S'PF'
p710
sg23
S'.519'
p711
sg27
S'NBA'
p712
sg29
S'0.4'
p713
sg33
S'2.7'
p714
sS'_fieldGoalsttempted'
p715
S'2.6'
p716
sg35
S'2.3'
p717
sg37
S'2.7'
p718
sg39
S'25'
p719
sg41
S'PHI'
p720
sg43
S'23'
p721
sg45
S'1.3'
p722
sg46
S'1.6'
p723
sg47
S'1.2'
p724
sg48
S'2.6'
p725
sg49
S'1.9'
p726
sg50
S'2013-14'
p727
sg52
S'1.6'
p728
sg53
S'0.4'
p729
sg55
S'.600'
p730
sg57
S'14.7'
p731
sg59
g11
sbsS'_weight'
p732
S'230'
p733
sS'_dob'
p734
S'1-3-1988'
p735
sS'_salary'
p736
(lp737
(isrc.gp1.models.Salary
Salary
p738
(dp739
g41
S'Miami Heat'
p740
sg27
S'NBA'
p741
sg736
S'$275,805'
p742
sg50
S'2012-13'
p743
sba(isrc.gp1.models.Salary
Salary
p744
(dp745
g41
S'Boston Celtics'
p746
sg27
S'NBA'
p747
sg736
S'$33,431'
p748
sg50
S'2012-13'
p749
sba(isrc.gp1.models.Salary
Salary
p750
(dp751
g41
S'Miami Heat'
p752
sg27
S'NBA'
p753
sg736
S'$788,872'
p754
sg50
S'2013-14'
p755
sba(isrc.gp1.models.Salary
Salary
p756
(dp757
g41
S'Philadelphia 76ers'
p758
sg27
S'NBA'
p759
sg736
S'$75,000'
p760
sg50
S'2014-15'
p761
sbasg21
S'F'
p762
sb.