(isrc.gp1.models.Player
Player
p0
(dp1
S'_experience'
p2
V5
p3
sS'_totals'
p4
(lp5
(isrc.gp1.models.Totals
Totals
p6
(dp7
S'_offensiveRebounds'
p8
S'12'
p9
sS'_threePointsAttempted'
p10
S'86'
p11
sS'_fieldGoalsPercentage'
p12
S'.408'
p13
sS'_assist'
p14
S'151'
p15
sS'_threePointsPercentage'
p16
S'.291'
p17
sS'_threePoints'
p18
S'25'
p19
sS'_points'
p20
S'249'
p21
sS'_position'
p22
S'SG'
p23
sS'_freeThrowsPercentage'
p24
S'.773'
p25
sS'_effectiveFieldGoalPercentage'
p26
S'.461'
p27
sS'_league'
p28
S'NBA'
p29
sS'_steals'
p30
S'22'
p31
sS'_fieldGoalsAttempted'
p32
S'233'
p33
sS'_personalFouls'
p34
S'83'
p35
sS'_freeThrowsAttempted'
p36
S'44'
p37
sS'_totalRebounds'
p38
S'73'
p39
sS'_age'
p40
S'24'
p41
sS'_team'
p42
S'MEM'
p43
sS'_games'
p44
S'70'
p45
sS'_blocks'
p46
S'4'
p47
sS'_twoPoints'
p48
S'70'
p49
sS'_freeThrows'
p50
S'34'
p51
sS'_twoPointsAttempted'
p52
S'147'
p53
sS'_defensiveRebounds'
p54
S'61'
p55
sS'_season'
p56
S'2010-11'
p57
sS'_fieldGoals'
p58
S'95'
p59
sS'_turnOvers'
p60
S'70'
p61
sS'_twoPointsPercentage'
p62
S'.476'
p63
sS'_minutesPlayed'
p64
S'860'
p65
sS'_gamesStarted'
p66
S'1'
p67
sba(isrc.gp1.models.Totals
Totals
p68
(dp69
g8
S'23'
p70
sg10
S'135'
p71
sg12
S'.430'
p72
sg14
S'359'
p73
sg16
S'.319'
p74
sg18
S'43'
p75
sg20
S'589'
p76
sg22
S'SG'
p77
sg24
S'.821'
p78
sg26
S'.471'
p79
sg28
S'NBA'
p80
sg30
S'60'
p81
sg32
S'523'
p82
sg34
S'126'
p83
sg36
S'117'
p84
sg38
S'173'
p85
sg40
S'25'
p86
sg42
S'NOH'
p87
sg44
S'66'
p88
sg46
S'8'
p89
sg48
S'182'
p90
sg50
S'96'
p91
sg52
S'388'
p92
sg54
S'150'
p93
sg56
S'2011-12'
p94
sg58
S'225'
p95
sg60
S'148'
p96
sg62
S'.469'
p97
sg64
S'1706'
p98
sg66
S'26'
p99
sba(isrc.gp1.models.Totals
Totals
p100
(dp101
g8
S'43'
p102
sg10
S'243'
p103
sg12
S'.433'
p104
sg14
S'704'
p105
sg16
S'.342'
p106
sg18
S'83'
p107
sg20
S'1083'
p108
sg22
S'PG'
p109
sg24
S'.805'
p110
sg26
S'.474'
p111
sg28
S'NBA'
p112
sg30
S'66'
p113
sg32
S'1012'
p114
sg34
S'190'
p115
sg36
S'154'
p116
sg38
S'337'
p117
sg40
S'26'
p118
sg42
S'NOH'
p119
sg44
S'78'
p120
sg46
S'6'
p121
sg48
S'355'
p122
sg50
S'124'
p123
sg52
S'769'
p124
sg54
S'294'
p125
sg56
S'2012-13'
p126
sg58
S'438'
p127
sg60
S'247'
p128
sg62
S'.462'
p129
sg64
S'2685'
p130
sg66
S'78'
p131
sba(isrc.gp1.models.Totals
Totals
p132
(dp133
g8
S'20'
p134
sg10
S'289'
p135
sg12
S'.421'
p136
sg14
S'323'
p137
sg16
S'.377'
p138
sg18
S'109'
p139
sg20
S'758'
p140
sg22
S'SG-PG'
p141
sg24
S'.880'
p142
sg26
S'.504'
p143
sg28
S'NBA'
p144
sg30
S'31'
p145
sg32
S'658'
p146
sg34
S'143'
p147
sg36
S'108'
p148
sg38
S'173'
p149
sg40
S'27'
p150
sg42
S'TOT'
p151
sg44
S'79'
p152
sg46
S'5'
p153
sg48
S'168'
p154
sg50
S'95'
p155
sg52
S'369'
p156
sg54
S'153'
p157
sg56
S'2013-14'
p158
sg58
S'277'
p159
sg60
S'128'
p160
sg62
S'.455'
p161
sg64
S'1779'
p162
sg66
S'23'
p163
sba(isrc.gp1.models.Totals
Totals
p164
(dp165
g8
g153
sg10
S'50'
p166
sg12
S'.433'
p167
sg14
S'95'
p168
sg16
S'.320'
p169
sg18
S'16'
p170
sg20
S'176'
p171
sg22
S'PG'
p172
sg24
S'.938'
p173
sg26
S'.487'
p174
sg28
S'NBA'
p175
sg30
g121
sg32
S'150'
p176
sg34
S'38'
p177
sg36
S'32'
p178
sg38
S'34'
p179
sg40
S'27'
p180
sg42
S'SAC'
p181
sg44
S'18'
p182
sg46
g67
sg48
S'49'
p183
sg50
S'30'
p184
sg52
S'100'
p185
sg54
S'29'
p186
sg56
S'2013-14'
p187
sg58
S'65'
p188
sg60
S'27'
p189
sg62
S'.490'
p190
sg64
S'465'
p191
sg66
S'18'
p192
sba(isrc.gp1.models.Totals
Totals
p193
(dp194
g8
S'15'
p195
sg10
S'239'
p196
sg12
S'.417'
p197
sg14
S'228'
p198
sg16
S'.389'
p199
sg18
S'93'
p200
sg20
S'582'
p201
sg22
S'SG'
p202
sg24
S'.855'
p203
sg26
S'.509'
p204
sg28
S'NBA'
p205
sg30
S'25'
p206
sg32
S'508'
p207
sg34
S'105'
p208
sg36
S'76'
p209
sg38
S'139'
p210
sg40
S'27'
p211
sg42
S'TOR'
p212
sg44
S'61'
p213
sg46
g47
sg48
S'119'
p214
sg50
S'65'
p215
sg52
S'269'
p216
sg54
S'124'
p217
sg56
S'2013-14'
p218
sg58
S'212'
p219
sg60
S'101'
p220
sg62
S'.442'
p221
sg64
S'1314'
p222
sg66
g153
sba(isrc.gp1.models.Totals
Totals
p223
(dp224
g8
S'22'
p225
sg10
S'351'
p226
sg12
S'.408'
p227
sg14
S'302'
p228
sg16
S'.379'
p229
sg18
S'133'
p230
sg20
S'775'
p231
sg22
S'PG'
p232
sg24
S'.758'
p233
sg26
S'.500'
p234
sg28
S'NBA'
p235
sg30
S'46'
p236
sg32
S'725'
p237
sg34
S'177'
p238
sg36
S'66'
p239
sg38
S'216'
p240
sg40
S'28'
p241
sg42
S'TOR'
p242
sg44
S'82'
p243
sg46
S'10'
p244
sg48
S'163'
p245
sg50
S'50'
p246
sg52
S'374'
p247
sg54
S'194'
p248
sg56
S'2014-15'
p249
sg58
S'296'
p250
sg60
S'119'
p251
sg62
S'.436'
p252
sg64
S'1991'
p253
sg66
S'29'
p254
sba(isrc.gp1.models.Totals
Totals
p255
(dp256
g8
g47
sg10
S'54'
p257
sg12
S'.348'
p258
sg14
S'71'
p259
sg16
S'.259'
p260
sg18
S'14'
p261
sg20
S'114'
p262
sg22
S'PG'
p263
sg24
S'.880'
p264
sg26
S'.411'
p265
sg28
S'NBA'
p266
sg30
S'7'
p267
sg32
S'112'
p268
sg34
S'33'
p269
sg36
S'25'
p270
sg38
S'37'
p271
sg40
S'29'
p272
sg42
S'MIL'
p273
sg44
S'16'
p274
sg46
S'0'
p275
sg48
S'25'
p276
sg50
S'22'
p277
sg52
S'58'
p278
sg54
S'33'
p279
sg56
S'2015-16'
p280
sg58
S'39'
p281
sg60
S'30'
p282
sg62
S'.431'
p283
sg64
S'361'
p284
sg66
g275
sbasS'_college'
p285
S'University of Maryland'
p286
sS'_toYear'
p287
S'2016'
p288
sS'_height'
p289
S'6-6'
p290
sS'_active'
p291
I01
sS'_shootingHand'
p292
VRight
p293
sS'_name'
p294
S'Greivis Vasquez'
p295
sS'_per100Possessions'
p296
(lp297
(isrc.gp1.models.Per100Possession
Per100Possession
p298
(dp299
g8
S'0.7'
p300
sg10
S'5.2'
p301
sg12
S'.408'
p302
sS'_offensiveRating'
p303
S'97'
p304
sg14
S'9.2'
p305
sg16
S'.291'
p306
sg18
S'1.5'
p307
sg20
S'15.1'
p308
sg22
S'SG'
p309
sS'_defensiveRating'
p310
S'109'
p311
sg24
S'.773'
p312
sg28
S'NBA'
p313
sg30
S'1.3'
p314
sg32
S'14.2'
p315
sg34
S'5.0'
p316
sg36
S'2.7'
p317
sg38
S'4.4'
p318
sg40
S'24'
p319
sg42
S'MEM'
p320
sg44
S'70'
p321
sg46
S'0.2'
p322
sg48
S'4.3'
p323
sg50
S'2.1'
p324
sg52
S'8.9'
p325
sg54
S'3.7'
p326
sg56
S'2010-11'
p327
sg58
S'5.8'
p328
sg60
S'4.3'
p329
sg62
S'.476'
p330
sg64
S'860'
p331
sg66
g67
sba(isrc.gp1.models.Per100Possession
Per100Possession
p332
(dp333
g8
S'0.7'
p334
sg10
S'4.3'
p335
sg12
S'.430'
p336
sg303
S'101'
p337
sg14
S'11.4'
p338
sg16
S'.319'
p339
sg18
S'1.4'
p340
sg20
S'18.8'
p341
sg22
S'SG'
p342
sg310
S'107'
p343
sg24
S'.821'
p344
sg28
S'NBA'
p345
sg30
S'1.9'
p346
sg32
S'16.7'
p347
sg34
S'4.0'
p348
sg36
S'3.7'
p349
sg38
S'5.5'
p350
sg40
S'25'
p351
sg42
S'NOH'
p352
sg44
S'66'
p353
sg46
S'0.3'
p354
sg48
S'5.8'
p355
sg50
S'3.1'
p356
sg52
S'12.4'
p357
sg54
S'4.8'
p358
sg56
S'2011-12'
p359
sg58
S'7.2'
p360
sg60
S'4.7'
p361
sg62
S'.469'
p362
sg64
S'1706'
p363
sg66
S'26'
p364
sba(isrc.gp1.models.Per100Possession
Per100Possession
p365
(dp366
g8
S'0.9'
p367
sg10
S'4.9'
p368
sg12
S'.433'
p369
sg303
S'105'
p370
sg14
S'14.2'
p371
sg16
S'.342'
p372
sg18
S'1.7'
p373
sg20
S'21.9'
p374
sg22
S'PG'
p375
sg310
S'112'
p376
sg24
S'.805'
p377
sg28
S'NBA'
p378
sg30
S'1.3'
p379
sg32
S'20.4'
p380
sg34
S'3.8'
p381
sg36
S'3.1'
p382
sg38
S'6.8'
p383
sg40
S'26'
p384
sg42
S'NOH'
p385
sg44
S'78'
p386
sg46
S'0.1'
p387
sg48
S'7.2'
p388
sg50
S'2.5'
p389
sg52
S'15.5'
p390
sg54
S'5.9'
p391
sg56
S'2012-13'
p392
sg58
S'8.8'
p393
sg60
S'5.0'
p394
sg62
S'.462'
p395
sg64
S'2685'
p396
sg66
S'78'
p397
sba(isrc.gp1.models.Per100Possession
Per100Possession
p398
(dp399
g8
S'0.6'
p400
sg10
S'8.4'
p401
sg12
S'.421'
p402
sg303
S'108'
p403
sg14
S'9.4'
p404
sg16
S'.377'
p405
sg18
S'3.2'
p406
sg20
S'22.1'
p407
sg22
S'SG-PG'
p408
sg310
S'110'
p409
sg24
S'.880'
p410
sg28
S'NBA'
p411
sg30
S'0.9'
p412
sg32
S'19.2'
p413
sg34
S'4.2'
p414
sg36
S'3.2'
p415
sg38
S'5.0'
p416
sg40
S'27'
p417
sg42
S'TOT'
p418
sg44
S'79'
p419
sg46
S'0.1'
p420
sg48
S'4.9'
p421
sg50
S'2.8'
p422
sg52
S'10.8'
p423
sg54
S'4.5'
p424
sg56
S'2013-14'
p425
sg58
S'8.1'
p426
sg60
S'3.7'
p427
sg62
S'.455'
p428
sg64
S'1779'
p429
sg66
S'23'
p430
sba(isrc.gp1.models.Per100Possession
Per100Possession
p431
(dp432
g8
S'0.5'
p433
sg10
S'5.5'
p434
sg12
S'.433'
p435
sg303
S'114'
p436
sg14
S'10.4'
p437
sg16
S'.320'
p438
sg18
S'1.8'
p439
sg20
S'19.3'
p440
sg22
S'PG'
p441
sg310
S'114'
p442
sg24
S'.938'
p443
sg28
S'NBA'
p444
sg30
S'0.7'
p445
sg32
S'16.4'
p446
sg34
S'4.2'
p447
sg36
S'3.5'
p448
sg38
S'3.7'
p449
sg40
S'27'
p450
sg42
S'SAC'
p451
sg44
S'18'
p452
sg46
S'0.1'
p453
sg48
S'5.4'
p454
sg50
S'3.3'
p455
sg52
S'10.9'
p456
sg54
S'3.2'
p457
sg56
S'2013-14'
p458
sg58
S'7.1'
p459
sg60
S'3.0'
p460
sg62
S'.490'
p461
sg64
S'465'
p462
sg66
S'18'
p463
sba(isrc.gp1.models.Per100Possession
Per100Possession
p464
(dp465
g8
S'0.6'
p466
sg10
S'9.5'
p467
sg12
S'.417'
p468
sg303
S'107'
p469
sg14
S'9.1'
p470
sg16
S'.389'
p471
sg18
S'3.7'
p472
sg20
S'23.2'
p473
sg22
S'SG'
p474
sg310
S'108'
p475
sg24
S'.855'
p476
sg28
S'NBA'
p477
sg30
S'1.0'
p478
sg32
S'20.2'
p479
sg34
S'4.2'
p480
sg36
S'3.0'
p481
sg38
S'5.5'
p482
sg40
S'27'
p483
sg42
S'TOR'
p484
sg44
S'61'
p485
sg46
S'0.2'
p486
sg48
S'4.7'
p487
sg50
S'2.6'
p488
sg52
S'10.7'
p489
sg54
S'4.9'
p490
sg56
S'2013-14'
p491
sg58
S'8.4'
p492
sg60
S'4.0'
p493
sg62
S'.442'
p494
sg64
S'1314'
p495
sg66
g153
sba(isrc.gp1.models.Per100Possession
Per100Possession
p496
(dp497
g8
S'0.6'
p498
sg10
S'9.1'
p499
sg12
S'.408'
p500
sg303
S'105'
p501
sg14
S'7.8'
p502
sg16
S'.379'
p503
sg18
S'3.5'
p504
sg20
S'20.1'
p505
sg22
S'PG'
p506
sg310
S'110'
p507
sg24
S'.758'
p508
sg28
S'NBA'
p509
sg30
S'1.2'
p510
sg32
S'18.8'
p511
sg34
S'4.6'
p512
sg36
S'1.7'
p513
sg38
S'5.6'
p514
sg40
S'28'
p515
sg42
S'TOR'
p516
sg44
S'82'
p517
sg46
S'0.3'
p518
sg48
S'4.2'
p519
sg50
S'1.3'
p520
sg52
S'9.7'
p521
sg54
S'5.0'
p522
sg56
S'2014-15'
p523
sg58
S'7.7'
p524
sg60
S'3.1'
p525
sg62
S'.436'
p526
sg64
S'1991'
p527
sg66
S'29'
p528
sba(isrc.gp1.models.Per100Possession
Per100Possession
p529
(dp530
g8
S'0.6'
p531
sg10
S'7.7'
p532
sg12
S'.348'
p533
sg303
S'95'
p534
sg14
S'10.1'
p535
sg16
S'.259'
p536
sg18
S'2.0'
p537
sg20
S'16.2'
p538
sg22
S'PG'
p539
sg310
S'113'
p540
sg24
S'.880'
p541
sg28
S'NBA'
p542
sg30
S'1.0'
p543
sg32
S'15.9'
p544
sg34
S'4.7'
p545
sg36
S'3.5'
p546
sg38
S'5.3'
p547
sg40
S'29'
p548
sg42
S'MIL'
p549
sg44
S'16'
p550
sg46
S'0.0'
p551
sg48
S'3.5'
p552
sg50
S'3.1'
p553
sg52
S'8.2'
p554
sg54
S'4.7'
p555
sg56
S'2015-16'
p556
sg58
S'5.5'
p557
sg60
S'4.3'
p558
sg62
S'.431'
p559
sg64
S'361'
p560
sg66
g275
sbasS'_advanced'
p561
(lp562
(isrc.gp1.models.Advanced
Advanced
p563
(dp564
S'_offensiveReboundPercentage'
p565
S'1.7'
p566
sS'_turnOverPercentage'
p567
S'21.7'
p568
sS'_winSharesPer48Minutes'
p569
S'.030'
p570
sS'_stealPercentage'
p571
S'1.3'
p572
sS'_usagePercentage'
p573
S'16.9'
p574
sS'_totalReboundsPercentage'
p575
S'5.1'
p576
sS'_defensiveBoxPlusMinus'
p577
S'-2.2'
p578
sg22
S'SG'
p579
sS'_valueOverReplacementPlayer'
p580
S'-0.6'
p581
sS'_trueShootingPercentage'
p582
S'.493'
p583
sS'_defensiveReboundPercentage'
p584
S'8.6'
p585
sS'_freeThrowsAttempRate'
p586
S'.189'
p587
sS'_threePointsAttempRate'
p588
S'.369'
p589
sg28
S'NBA'
p590
sS'_offensiveBoxPlusMinues'
p591
S'-2.3'
p592
sS'_assistPercentage'
p593
S'25.3'
p594
sS'_defensiveWinShares'
p595
S'0.7'
p596
sg40
S'24'
p597
sg42
S'MEM'
p598
sg44
S'70'
p599
sS'_blockPercentage'
p600
S'0.4'
p601
sS'_playerEfficiencyRating'
p602
S'9.4'
p603
sS'_offensiveWinShares'
p604
S'-0.1'
p605
sg64
S'860'
p606
sS'_boxPlusMinus'
p607
S'-4.6'
p608
sg56
S'2010-11'
p609
sS'_winShares'
p610
S'0.5'
p611
sba(isrc.gp1.models.Advanced
Advanced
p612
(dp613
g565
S'1.6'
p614
sg567
S'20.5'
p615
sg569
S'.064'
p616
sg571
S'1.9'
p617
sg573
S'20.0'
p618
sg575
S'6.0'
p619
sg577
S'-1.5'
p620
sg22
S'SG'
p621
sg580
S'0.2'
p622
sg582
S'.513'
p623
sg584
S'10.3'
p624
sg586
S'.224'
p625
sg588
S'.258'
p626
sg28
S'NBA'
p627
sg591
S'-0.1'
p628
sg593
S'35.7'
p629
sg595
S'1.3'
p630
sg40
S'25'
p631
sg42
S'NOH'
p632
sg44
S'66'
p633
sg600
S'0.4'
p634
sg602
S'14.2'
p635
sg604
S'1.0'
p636
sg64
S'1706'
p637
sg607
S'-1.6'
p638
sg56
S'2011-12'
p639
sg610
S'2.3'
p640
sba(isrc.gp1.models.Advanced
Advanced
p641
(dp642
g565
S'1.9'
p643
sg567
S'18.6'
p644
sg569
S'.067'
p645
sg571
S'1.3'
p646
sg573
S'23.0'
p647
sg575
S'7.5'
p648
sg577
S'-2.0'
p649
sg22
S'PG'
p650
sg580
S'1.4'
p651
sg582
S'.502'
p652
sg584
S'13.3'
p653
sg586
S'.152'
p654
sg588
S'.240'
p655
sg28
S'NBA'
p656
sg591
S'2.0'
p657
sg593
S'44.9'
p658
sg595
S'0.7'
p659
sg40
S'26'
p660
sg42
S'NOH'
p661
sg44
S'78'
p662
sg600
S'0.2'
p663
sg602
S'16.3'
p664
sg604
S'3.0'
p665
sg64
S'2685'
p666
sg607
S'0.1'
p667
sg56
S'2012-13'
p668
sg610
S'3.8'
p669
sba(isrc.gp1.models.Advanced
Advanced
p670
(dp671
g565
S'1.3'
p672
sg567
S'15.4'
p673
sg569
S'.097'
p674
sg571
S'0.9'
p675
sg573
S'21.1'
p676
sg575
S'5.6'
p677
sg577
S'-2.6'
p678
sg22
S'SG-PG'
p679
sg580
S'0.3'
p680
sg582
S'.537'
p681
sg584
S'10.0'
p682
sg586
S'.164'
p683
sg588
S'.439'
p684
sg28
S'NBA'
p685
sg591
S'1.2'
p686
sg593
S'30.4'
p687
sg595
S'1.2'
p688
sg40
S'27'
p689
sg42
S'TOT'
p690
sg44
S'79'
p691
sg600
S'0.2'
p692
sg602
S'14.1'
p693
sg604
S'2.4'
p694
sg64
S'1779'
p695
sg607
S'-1.4'
p696
sg56
S'2013-14'
p697
sg610
S'3.6'
p698
sba(isrc.gp1.models.Advanced
Advanced
p699
(dp700
g565
S'1.2'
p701
sg567
S'14.1'
p702
sg569
S'.097'
p703
sg571
S'0.7'
p704
sg573
S'18.1'
p705
sg575
S'4.1'
p706
sg577
S'-3.8'
p707
sg22
S'PG'
p708
sg580
S'-0.1'
p709
sg582
S'.536'
p710
sg584
S'7.1'
p711
sg586
S'.213'
p712
sg588
S'.333'
p713
sg28
S'NBA'
p714
sg591
S'0.9'
p715
sg593
S'32.8'
p716
sg595
S'0.1'
p717
sg40
S'27'
p718
sg42
S'SAC'
p719
sg44
S'18'
p720
sg600
S'0.2'
p721
sg602
S'14.1'
p722
sg604
S'0.9'
p723
sg64
S'465'
p724
sg607
S'-3.0'
p725
sg56
S'2013-14'
p726
sg610
S'0.9'
p727
sba(isrc.gp1.models.Advanced
Advanced
p728
(dp729
g565
S'1.3'
p730
sg567
S'15.7'
p731
sg569
S'.096'
p732
sg571
S'1.0'
p733
sg573
S'22.2'
p734
sg575
S'6.2'
p735
sg577
S'-2.2'
p736
sg22
S'SG'
p737
sg580
S'0.4'
p738
sg582
S'.537'
p739
sg584
S'11.1'
p740
sg586
S'.150'
p741
sg588
S'.470'
p742
sg28
S'NBA'
p743
sg591
S'1.3'
p744
sg593
S'29.5'
p745
sg595
S'1.1'
p746
sg40
S'27'
p747
sg42
S'TOR'
p748
sg44
S'61'
p749
sg600
S'0.2'
p750
sg602
S'14.2'
p751
sg604
S'1.6'
p752
sg64
S'1314'
p753
sg607
S'-0.8'
p754
sg56
S'2013-14'
p755
sg610
S'2.6'
p756
sba(isrc.gp1.models.Advanced
Advanced
p757
(dp758
g565
S'1.3'
p759
sg567
S'13.6'
p760
sg569
S'.066'
p761
sg571
S'1.2'
p762
sg573
S'19.8'
p763
sg575
S'6.3'
p764
sg577
S'-2.1'
p765
sg22
S'PG'
p766
sg580
S'0.4'
p767
sg582
S'.514'
p768
sg584
S'11.2'
p769
sg586
S'.091'
p770
sg588
S'.484'
p771
sg28
S'NBA'
p772
sg591
S'1.0'
p773
sg593
S'23.9'
p774
sg595
S'0.9'
p775
sg40
S'28'
p776
sg42
S'TOR'
p777
sg44
S'82'
p778
sg600
S'0.4'
p779
sg602
S'12.6'
p780
sg604
S'1.9'
p781
sg64
S'1991'
p782
sg607
S'-1.1'
p783
sg56
S'2014-15'
p784
sg610
S'2.8'
p785
sba(isrc.gp1.models.Advanced
Advanced
p786
(dp787
g565
S'1.3'
p788
sg567
S'19.6'
p789
sg569
S'-0.010'
p790
sg571
S'1.0'
p791
sg573
S'19.1'
p792
sg575
S'5.8'
p793
sg577
S'-4.0'
p794
sg22
S'PG'
p795
sg580
S'-0.4'
p796
sg582
S'.463'
p797
sg584
S'10.3'
p798
sg586
S'.223'
p799
sg588
S'.482'
p800
sg28
S'NBA'
p801
sg591
S'-1.9'
p802
sg593
S'29.3'
p803
sg595
S'0.0'
p804
sg40
S'29'
p805
sg42
S'MIL'
p806
sg44
S'16'
p807
sg600
S'0.0'
p808
sg602
S'9.2'
p809
sg604
S'-0.1'
p810
sg64
S'361'
p811
sg607
S'-5.9'
p812
sg56
S'2015-16'
p813
sg610
S'-0.1'
p814
sbasS'_per36Minutes'
p815
(lp816
(isrc.gp1.models.Per36Minutes
Per36Minutes
p817
(dp818
g8
S'0.5'
p819
sg10
S'3.6'
p820
sg12
S'.408'
p821
sg14
S'6.3'
p822
sg16
S'.291'
p823
sg18
S'1.0'
p824
sg20
S'10.4'
p825
sg22
S'SG'
p826
sg24
S'.773'
p827
sg28
S'NBA'
p828
sg30
S'0.9'
p829
sg32
S'9.8'
p830
sg34
S'3.5'
p831
sg36
S'1.8'
p832
sg38
S'3.1'
p833
sg40
S'24'
p834
sg42
S'MEM'
p835
sg44
S'70'
p836
sg46
S'0.2'
p837
sg48
S'2.9'
p838
sg50
S'1.4'
p839
sg52
S'6.2'
p840
sg54
S'2.6'
p841
sg56
S'2010-11'
p842
sg58
S'4.0'
p843
sg60
S'2.9'
p844
sg62
S'.476'
p845
sg64
S'860'
p846
sg66
g67
sba(isrc.gp1.models.Per36Minutes
Per36Minutes
p847
(dp848
g8
S'0.5'
p849
sg10
S'2.8'
p850
sg12
S'.430'
p851
sg14
S'7.6'
p852
sg16
S'.319'
p853
sg18
S'0.9'
p854
sg20
S'12.4'
p855
sg22
S'SG'
p856
sg24
S'.821'
p857
sg28
S'NBA'
p858
sg30
S'1.3'
p859
sg32
S'11.0'
p860
sg34
S'2.7'
p861
sg36
S'2.5'
p862
sg38
S'3.7'
p863
sg40
S'25'
p864
sg42
S'NOH'
p865
sg44
S'66'
p866
sg46
S'0.2'
p867
sg48
S'3.8'
p868
sg50
S'2.0'
p869
sg52
S'8.2'
p870
sg54
S'3.2'
p871
sg56
S'2011-12'
p872
sg58
S'4.7'
p873
sg60
S'3.1'
p874
sg62
S'.469'
p875
sg64
S'1706'
p876
sg66
S'26'
p877
sba(isrc.gp1.models.Per36Minutes
Per36Minutes
p878
(dp879
g8
S'0.6'
p880
sg10
S'3.3'
p881
sg12
S'.433'
p882
sg14
S'9.4'
p883
sg16
S'.342'
p884
sg18
S'1.1'
p885
sg20
S'14.5'
p886
sg22
S'PG'
p887
sg24
S'.805'
p888
sg28
S'NBA'
p889
sg30
S'0.9'
p890
sg32
S'13.6'
p891
sg34
S'2.5'
p892
sg36
S'2.1'
p893
sg38
S'4.5'
p894
sg40
S'26'
p895
sg42
S'NOH'
p896
sg44
S'78'
p897
sg46
S'0.1'
p898
sg48
S'4.8'
p899
sg50
S'1.7'
p900
sg52
S'10.3'
p901
sg54
S'3.9'
p902
sg56
S'2012-13'
p903
sg58
S'5.9'
p904
sg60
S'3.3'
p905
sg62
S'.462'
p906
sg64
S'2685'
p907
sg66
S'78'
p908
sba(isrc.gp1.models.Per36Minutes
Per36Minutes
p909
(dp910
g8
S'0.4'
p911
sg10
S'5.8'
p912
sg12
S'.421'
p913
sg14
S'6.5'
p914
sg16
S'.377'
p915
sg18
S'2.2'
p916
sg20
S'15.3'
p917
sg22
S'SG-PG'
p918
sg24
S'.880'
p919
sg28
S'NBA'
p920
sg30
S'0.6'
p921
sg32
S'13.3'
p922
sg34
S'2.9'
p923
sg36
S'2.2'
p924
sg38
S'3.5'
p925
sg40
S'27'
p926
sg42
S'TOT'
p927
sg44
S'79'
p928
sg46
S'0.1'
p929
sg48
S'3.4'
p930
sg50
S'1.9'
p931
sg52
S'7.5'
p932
sg54
S'3.1'
p933
sg56
S'2013-14'
p934
sg58
S'5.6'
p935
sg60
S'2.6'
p936
sg62
S'.455'
p937
sg64
S'1779'
p938
sg66
S'23'
p939
sba(isrc.gp1.models.Per36Minutes
Per36Minutes
p940
(dp941
g8
S'0.4'
p942
sg10
S'3.9'
p943
sg12
S'.433'
p944
sg14
S'7.4'
p945
sg16
S'.320'
p946
sg18
S'1.2'
p947
sg20
S'13.6'
p948
sg22
S'PG'
p949
sg24
S'.938'
p950
sg28
S'NBA'
p951
sg30
S'0.5'
p952
sg32
S'11.6'
p953
sg34
S'2.9'
p954
sg36
S'2.5'
p955
sg38
S'2.6'
p956
sg40
S'27'
p957
sg42
S'SAC'
p958
sg44
S'18'
p959
sg46
S'0.1'
p960
sg48
S'3.8'
p961
sg50
S'2.3'
p962
sg52
S'7.7'
p963
sg54
S'2.2'
p964
sg56
S'2013-14'
p965
sg58
S'5.0'
p966
sg60
S'2.1'
p967
sg62
S'.490'
p968
sg64
S'465'
p969
sg66
S'18'
p970
sba(isrc.gp1.models.Per36Minutes
Per36Minutes
p971
(dp972
g8
S'0.4'
p973
sg10
S'6.5'
p974
sg12
S'.417'
p975
sg14
S'6.2'
p976
sg16
S'.389'
p977
sg18
S'2.5'
p978
sg20
S'15.9'
p979
sg22
S'SG'
p980
sg24
S'.855'
p981
sg28
S'NBA'
p982
sg30
S'0.7'
p983
sg32
S'13.9'
p984
sg34
S'2.9'
p985
sg36
S'2.1'
p986
sg38
S'3.8'
p987
sg40
S'27'
p988
sg42
S'TOR'
p989
sg44
S'61'
p990
sg46
S'0.1'
p991
sg48
S'3.3'
p992
sg50
S'1.8'
p993
sg52
S'7.4'
p994
sg54
S'3.4'
p995
sg56
S'2013-14'
p996
sg58
S'5.8'
p997
sg60
S'2.8'
p998
sg62
S'.442'
p999
sg64
S'1314'
p1000
sg66
g153
sba(isrc.gp1.models.Per36Minutes
Per36Minutes
p1001
(dp1002
g8
S'0.4'
p1003
sg10
S'6.3'
p1004
sg12
S'.408'
p1005
sg14
S'5.5'
p1006
sg16
S'.379'
p1007
sg18
S'2.4'
p1008
sg20
S'14.0'
p1009
sg22
S'PG'
p1010
sg24
S'.758'
p1011
sg28
S'NBA'
p1012
sg30
S'0.8'
p1013
sg32
S'13.1'
p1014
sg34
S'3.2'
p1015
sg36
S'1.2'
p1016
sg38
S'3.9'
p1017
sg40
S'28'
p1018
sg42
S'TOR'
p1019
sg44
S'82'
p1020
sg46
S'0.2'
p1021
sg48
S'2.9'
p1022
sg50
S'0.9'
p1023
sg52
S'6.8'
p1024
sg54
S'3.5'
p1025
sg56
S'2014-15'
p1026
sg58
S'5.4'
p1027
sg60
S'2.2'
p1028
sg62
S'.436'
p1029
sg64
S'1991'
p1030
sg66
S'29'
p1031
sba(isrc.gp1.models.Per36Minutes
Per36Minutes
p1032
(dp1033
g8
S'0.4'
p1034
sg10
S'5.4'
p1035
sg12
S'.348'
p1036
sg14
S'7.1'
p1037
sg16
S'.259'
p1038
sg18
S'1.4'
p1039
sg20
S'11.4'
p1040
sg22
S'PG'
p1041
sg24
S'.880'
p1042
sg28
S'NBA'
p1043
sg30
S'0.7'
p1044
sg32
S'11.2'
p1045
sg34
S'3.3'
p1046
sg36
S'2.5'
p1047
sg38
S'3.7'
p1048
sg40
S'29'
p1049
sg42
S'MIL'
p1050
sg44
S'16'
p1051
sg46
S'0.0'
p1052
sg48
S'2.5'
p1053
sg50
S'2.2'
p1054
sg52
S'5.8'
p1055
sg54
S'3.3'
p1056
sg56
S'2015-16'
p1057
sg58
S'3.9'
p1058
sg60
S'3.0'
p1059
sg62
S'.431'
p1060
sg64
S'361'
p1061
sg66
g275
sbasS'_fromYear'
p1062
S'2011'
p1063
sS'_url'
p1064
S'http://www.basketball-reference.com/players/v/vasqugr01.html'
p1065
sS'_perGame'
p1066
(isrc.gp1.models.PerGame
PerGame
p1067
(dp1068
g8
S'0.3'
p1069
sg10
S'3.4'
p1070
sg12
S'.348'
p1071
sS'_effectiveFieldGalPercentage'
p1072
S'.411'
p1073
sg14
S'4.4'
p1074
sg16
S'.259'
p1075
sg18
S'0.9'
p1076
sg20
S'7.1'
p1077
sg22
S'PG'
p1078
sg24
S'.880'
p1079
sg28
S'NBA'
p1080
sg30
S'0.4'
p1081
sg34
S'2.1'
p1082
sS'_fieldGoalsttempted'
p1083
S'7.0'
p1084
sg36
S'1.6'
p1085
sg38
S'2.3'
p1086
sg40
S'29'
p1087
sg42
S'MIL'
p1088
sg44
S'16'
p1089
sg46
S'0.0'
p1090
sg48
S'1.6'
p1091
sg50
S'1.4'
p1092
sg52
S'3.6'
p1093
sg54
S'2.1'
p1094
sg56
S'2015-16'
p1095
sg58
S'2.4'
p1096
sg60
S'1.9'
p1097
sg62
S'.431'
p1098
sg64
S'22.6'
p1099
sg66
g275
sbsS'_weight'
p1100
S'217'
p1101
sS'_dob'
p1102
S'16-1-1987'
p1103
sS'_salary'
p1104
(lp1105
(isrc.gp1.models.Salary
Salary
p1106
(dp1107
g42
S'Memphis Grizzlies'
p1108
sg28
S'NBA'
p1109
sg1104
S'$1,035,960'
p1110
sg56
S'2010-11'
p1111
sba(isrc.gp1.models.Salary
Salary
p1112
(dp1113
g42
S'New Orleans Hornets'
p1114
sg28
S'NBA'
p1115
sg1104
S'$1,113,600'
p1116
sg56
S'2011-12'
p1117
sba(isrc.gp1.models.Salary
Salary
p1118
(dp1119
g42
S'New Orleans Hornets'
p1120
sg28
S'NBA'
p1121
sg1104
S'$1,191,240'
p1122
sg56
S'2012-13'
p1123
sba(isrc.gp1.models.Salary
Salary
p1124
(dp1125
g42
S'Sacramento Kings'
p1126
sg28
S'NBA'
p1127
sg1104
S'$2,150,188'
p1128
sg56
S'2013-14'
p1129
sba(isrc.gp1.models.Salary
Salary
p1130
(dp1131
g42
S'Toronto Raptors'
p1132
sg28
S'NBA'
p1133
sg1104
S'$6,400,000'
p1134
sg56
S'2014-15'
p1135
sbasg22
S'G'
p1136
sb.