(isrc.gp1.models.Player
Player
p0
(dp1
S'_experience'
p2
S'NA'
p3
sS'_totals'
p4
(lp5
(isrc.gp1.models.Totals
Totals
p6
(dp7
S'_offensiveRebounds'
p8
S'4'
p9
sS'_threePointsAttempted'
p10
S'.241'
p11
sS'_fieldGoalsPercentage'
p12
S'7'
p13
sS'_assist'
p14
S'17'
p15
sS'_threePointsPercentage'
p16
S'.241'
p17
sS'_threePoints'
p18
S'29'
p19
sS'_points'
p20
g3
sS'_position'
p21
S'SF'
p22
sS'_freeThrowsPercentage'
p23
g9
sS'_effectiveFieldGoalPercentage'
p24
S'14'
p25
sS'_league'
p26
S'NBA'
p27
sS'_steals'
p28
g3
sS'_fieldGoalsAttempted'
p29
S'.241'
p30
sS'_personalFouls'
p31
g3
sS'_freeThrowsAttempted'
p32
S'37'
p33
sS'_totalRebounds'
p34
S'20'
p35
sS'_age'
p36
S'25'
p37
sS'_team'
p38
S'SEA'
p39
sS'_games'
p40
S'13'
p41
sS'_blocks'
p42
g3
sS'_twoPoints'
p43
S'3'
p44
sS'_freeThrows'
p45
S'23'
p46
sS'_twoPointsAttempted'
p47
g13
sS'_defensiveRebounds'
p48
g44
sS'_season'
p49
S'1973-74'
p50
sS'_fieldGoals'
p51
S'29'
p52
sS'_turnOvers'
p53
g3
sS'_twoPointsPercentage'
p54
S'.429'
p55
sS'_minutesPlayed'
p56
g13
sS'_gamesStarted'
p57
S'174'
p58
sbasS'_college'
p59
S'University of Oklahoma'
p60
sS'_toYear'
p61
S'1974'
p62
sS'_height'
p63
S'6-7'
p64
sS'_active'
p65
I00
sS'_shootingHand'
p66
VRight
p67
sS'_name'
p68
S'Vester Marshall'
p69
sS'_per100Possessions'
p70
(lp71
(isrc.gp1.models.Per100Possession
Per100Possession
p72
(dp73
g8
S'1.0'
p74
sg10
S'.241'
p75
sg12
S'1.8'
p76
sS'_offensiveRating'
p77
g3
sg14
S'4.3'
p78
sg16
S'0.8'
p79
sg18
S'7.3'
p80
sg20
g3
sg21
S'SF'
p81
sS'_defensiveRating'
p82
g3
sg23
S'1.0'
p83
sg26
S'NBA'
p84
sg28
S'100'
p85
sg29
S'.241'
p86
sg31
g3
sg32
S'9.3'
p87
sg34
S'5.0'
p88
sg36
S'25'
p89
sg38
S'SEA'
p90
sg40
S'13'
p91
sg42
g3
sg43
S'1.8'
p92
sg45
S'5.8'
p93
sg47
S'.429'
p94
sg48
S'0.8'
p95
sg49
S'1973-74'
p96
sg51
S'7.3'
p97
sg53
g3
sg54
S'3.5'
p98
sg56
S'1.8'
p99
sg57
S'174'
p100
sbasS'_advanced'
p101
(lp102
(isrc.gp1.models.Advanced
Advanced
p103
(dp104
S'_offensiveReboundPercentage'
p105
S'13.5'
p106
sS'_turnOverPercentage'
p107
S'0.1'
p108
sS'_winSharesPer48Minutes'
p109
S'-7.9'
p110
sS'_stealPercentage'
p111
S'0.9'
p112
sS'_usagePercentage'
p113
S'-0.1'
p114
sS'_totalReboundsPercentage'
p115
S'2.7'
p116
sS'_defensiveBoxPlusMinus'
p117
g3
sg21
S'SF'
p118
sS'_valueOverReplacementPlayer'
p119
g3
sS'_trueShootingPercentage'
p120
S'.265'
p121
sS'_defensiveReboundPercentage'
p122
S'10.3'
p123
sS'_freeThrowsAttempRate'
p124
S'7.5'
p125
sS'_threePointsAttempRate'
p126
S'.241'
p127
sg26
S'NBA'
p128
sS'_offensiveBoxPlusMinues'
p129
S'-0.3'
p130
sS'_assistPercentage'
p131
S'1.0'
p132
sS'_defensiveWinShares'
p133
S'-8.2'
p134
sg36
S'25'
p135
sg38
S'SEA'
p136
sg40
S'13'
p137
sS'_blockPercentage'
p138
S'-0.2'
p139
sS'_playerEfficiencyRating'
p140
S'3.4'
p141
sS'_offensiveWinShares'
p142
S'-0.034'
p143
sg56
S'174'
p144
sS'_boxPlusMinus'
p145
g3
sg49
S'1973-74'
p146
sS'_winShares'
p147
S'0.3'
p148
sbasS'_per36Minutes'
p149
(lp150
(isrc.gp1.models.Per36Minutes
Per36Minutes
p151
(dp152
g8
S'0.8'
p153
sg10
S'.241'
p154
sg12
S'1.4'
p155
sg14
S'3.5'
p156
sg16
S'0.6'
p157
sg18
S'6.0'
p158
sg20
g3
sg21
S'SF'
p159
sg23
S'0.8'
p160
sg26
S'NBA'
p161
sg28
g3
sg29
S'.241'
p162
sg31
g3
sg32
S'7.7'
p163
sg34
S'4.1'
p164
sg36
S'25'
p165
sg38
S'SEA'
p166
sg40
S'13'
p167
sg42
g3
sg43
S'1.4'
p168
sg45
S'4.8'
p169
sg47
S'.429'
p170
sg48
S'0.6'
p171
sg49
S'1973-74'
p172
sg51
S'6.0'
p173
sg53
g3
sg54
S'2.9'
p174
sg56
S'1.4'
p175
sg57
S'174'
p176
sbasS'_fromYear'
p177
S'1974'
p178
sS'_url'
p179
S'http://www.basketball-reference.com/players/m/marshve01.html'
p180
sS'_perGame'
p181
(isrc.gp1.models.PerGame
PerGame
p182
(dp183
g8
S'0.3'
p184
sg10
S'.241'
p185
sg12
S'0.5'
p186
sS'_effectiveFieldGalPercentage'
p187
S'1.1'
p188
sg14
S'1.3'
p189
sg16
S'.241'
p190
sg18
S'2.2'
p191
sg20
g3
sg21
S'SF'
p192
sg23
S'0.3'
p193
sg26
S'NBA'
p194
sg28
g3
sg31
g3
sS'_fieldGoalsttempted'
p195
S'.241'
p196
sg32
S'2.8'
p197
sg34
S'1.5'
p198
sg36
S'25'
p199
sg38
S'SEA'
p200
sg40
S'13'
p201
sg42
g3
sg43
S'0.2'
p202
sg45
S'1.8'
p203
sg47
S'0.5'
p204
sg48
S'0.2'
p205
sg49
S'1973-74'
p206
sg51
S'2.2'
p207
sg53
g3
sg54
S'.429'
p208
sg56
S'0.5'
p209
sg57
S'13.4'
p210
sbsS'_weight'
p211
S'200'
p212
sS'_dob'
p213
S'22-12-1948'
p214
sS'_salary'
p215
(lp216
sg21
S'F'
p217
sb.