(isrc.gp1.models.Player
Player
p0
(dp1
S'_experience'
p2
V17
p3
sS'_totals'
p4
(lp5
(isrc.gp1.models.Totals
Totals
p6
(dp7
S'_offensiveRebounds'
p8
S'94'
p9
sS'_threePointsAttempted'
p10
S'66'
p11
sS'_fieldGoalsPercentage'
p12
S'.450'
p13
sS'_assist'
p14
S'149'
p15
sS'_threePointsPercentage'
p16
S'.288'
p17
sS'_threePoints'
p18
S'19'
p19
sS'_points'
p20
S'913'
p21
sS'_position'
p22
S'SF'
p23
sS'_freeThrowsPercentage'
p24
S'.761'
p25
sS'_effectiveFieldGoalPercentage'
p26
S'.463'
p27
sS'_league'
p28
S'NBA'
p29
sS'_steals'
p30
S'55'
p31
sS'_fieldGoalsAttempted'
p32
S'766'
p33
sS'_personalFouls'
p34
S'140'
p35
sS'_freeThrowsAttempted'
p36
S'268'
p37
sS'_totalRebounds'
p38
S'283'
p39
sS'_age'
p40
S'22'
p41
sS'_team'
p42
S'TOR'
p43
sS'_games'
p44
S'50'
p45
sS'_blocks'
p46
S'77'
p47
sS'_twoPoints'
p48
S'326'
p49
sS'_freeThrows'
p50
S'204'
p51
sS'_twoPointsAttempted'
p52
S'700'
p53
sS'_defensiveRebounds'
p54
S'189'
p55
sS'_season'
p56
S'1998-99'
p57
sS'_fieldGoals'
p58
S'345'
p59
sS'_turnOvers'
p60
S'110'
p61
sS'_twoPointsPercentage'
p62
S'.466'
p63
sS'_minutesPlayed'
p64
S'1760'
p65
sS'_gamesStarted'
p66
S'49'
p67
sba(isrc.gp1.models.Totals
Totals
p68
(dp69
g8
S'326'
p70
sg10
S'.403'
p71
sg12
S'95'
p72
sg14
S'110'
p73
sg16
S'693'
p74
sg18
S'236'
p75
sg20
S'NA'
p76
sg22
S'82'
p77
sg24
S'150'
p78
sg26
S'436'
p79
sg28
S'SF'
p80
sg30
S'92'
p81
sg32
S'.465'
p82
sg34
S'2107'
p83
sg36
S'.791'
p84
sg38
S'322'
p85
sg40
S'TOR'
p86
sg42
S'NBA'
p87
sg44
S'82'
p88
sg46
S'178'
p89
sg48
S'1460'
p90
sg50
S'551'
p91
sg52
S'.475'
p92
sg54
S'476'
p93
sg56
S'23'
p94
sg58
S'1696'
p95
sg60
S'263'
p96
sg62
S'.493'
p97
sg64
S'788'
p98
sg66
S'3126'
p99
sba(isrc.gp1.models.Totals
Totals
p100
(dp101
g8
S'240'
p102
sg10
S'.408'
p103
sg12
S'162'
p104
sg14
S'114'
p105
sg16
S'600'
p106
sg18
S'397'
p107
sg20
g76
sg22
S'75'
p108
sg24
S'176'
p109
sg26
S'384'
p110
sg28
S'SF'
p111
sg30
S'82'
p112
sg32
S'.460'
p113
sg34
S'2070'
p114
sg36
S'.765'
p115
sg38
S'291'
p116
sg40
S'TOR'
p117
sg42
S'NBA'
p118
sg44
S'75'
p119
sg46
S'167'
p120
sg48
S'1259'
p121
sg50
S'502'
p122
sg52
S'.477'
p123
sg54
S'416'
p124
sg56
S'24'
p125
sg58
S'1656'
p126
sg60
S'205'
p127
sg62
S'.509'
p128
sg64
S'762'
p129
sg66
S'2979'
p130
sba(isrc.gp1.models.Totals
Totals
p131
(dp132
g8
S'175'
p133
sg10
S'.387'
p134
sg12
S'121'
p135
sg14
S'94'
p136
sg16
S'438'
p137
sg18
S'313'
p138
sg20
g76
sg22
S'60'
p139
sg24
S'138'
p140
sg26
S'245'
p141
sg28
S'SG'
p142
sg30
S'43'
p143
sg32
S'.428'
p144
sg34
S'1484'
p145
sg36
S'.798'
p146
sg38
S'239'
p147
sg40
S'TOR'
p148
sg42
S'NBA'
p149
sg44
S'60'
p150
sg46
S'154'
p151
sg48
S'994'
p152
sg50
S'307'
p153
sg52
S'.441'
p154
sg54
S'313'
p155
sg56
S'25'
p156
sg58
S'1307'
p157
sg60
S'191'
p158
sg62
S'.474'
p159
sg64
S'559'
p160
sg66
S'2385'
p161
sba(isrc.gp1.models.Totals
Totals
p162
(dp163
g8
S'129'
p164
sg10
S'.344'
p165
sg12
S'45'
p166
sg14
S'48'
p167
sg16
S'310'
p168
sg18
S'131'
p169
sg20
g76
sg22
S'43'
p170
sg24
S'59'
p171
sg26
S'129'
p172
sg28
S'SG'
p173
sg30
S'41'
p174
sg32
S'.467'
p175
sg34
S'884'
p176
sg36
S'.806'
p177
sg38
S'143'
p178
sg40
S'TOR'
p179
sg42
S'NBA'
p180
sg44
S'42'
p181
sg46
S'74'
p182
sg48
S'629'
p183
sg50
S'160'
p184
sg52
S'.493'
p185
sg54
S'188'
p186
sg56
S'26'
p187
sg58
S'760'
p188
sg60
S'121'
p189
sg62
S'.497'
p190
sg64
S'355'
p191
sg66
S'1471'
p192
sba(isrc.gp1.models.Totals
Totals
p193
(dp194
g8
S'254'
p195
sg10
S'.383'
p196
sg12
S'93'
p197
sg14
S'88'
p198
sg16
S'515'
p199
sg18
S'243'
p200
sg20
g76
sg22
S'73'
p201
sg24
S'95'
p202
sg26
S'336'
p203
sg28
S'SG'
p204
sg30
S'65'
p205
sg32
S'.417'
p206
sg34
S'1645'
p207
sg36
S'.806'
p208
sg38
S'348'
p209
sg40
S'TOR'
p210
sg42
S'NBA'
p211
sg44
S'73'
p212
sg46
S'223'
p213
sg48
S'1214'
p214
sg50
S'417'
p215
sg52
S'.424'
p216
sg54
S'349'
p217
sg56
S'27'
p218
sg58
S'1457'
p219
sg60
S'212'
p220
sg62
S'.449'
p221
sg64
S'608'
p222
sg66
S'2785'
p223
sba(isrc.gp1.models.Totals
Totals
p224
(dp225
g8
S'295'
p226
sg10
S'.406'
p227
sg12
S'127'
p228
sg14
S'109'
p229
sg16
S'569'
p230
sg18
S'313'
p231
sg20
g76
sg22
S'77'
p232
sg24
S'106'
p233
sg26
S'367'
p234
sg28
S'SF-SG'
p235
sg30
S'48'
p236
sg32
S'.452'
p237
sg34
S'1886'
p238
sg36
S'.798'
p239
sg38
S'327'
p240
sg40
S'TOT'
p241
sg42
S'NBA'
p242
sg44
S'76'
p243
sg46
S'168'
p244
sg48
S'1228'
p245
sg50
S'460'
p246
sg52
S'.463'
p247
sg54
S'401'
p248
sg56
S'28'
p249
sg58
S'1541'
p250
sg60
S'243'
p251
sg62
S'.493'
p252
sg64
S'696'
p253
sg66
S'2828'
p254
sba(isrc.gp1.models.Totals
Totals
p255
(dp256
g8
S'38'
p257
sg10
S'.322'
p258
sg12
S'19'
p259
sg14
S'25'
p260
sg16
S'105'
p261
sg18
S'59'
p262
sg20
g76
sg22
S'20'
p263
sg24
S'28'
p264
sg26
S'50'
p265
sg28
S'SG'
p266
sg30
S'15'
p267
sg32
S'.411'
p268
sg34
S'317'
p269
sg36
S'.694'
p270
sg38
S'61'
p271
sg40
S'TOR'
p272
sg42
S'NBA'
p273
sg44
S'20'
p274
sg46
S'22'
p275
sg48
S'243'
p276
sg50
S'72'
p277
sg52
S'.432'
p278
sg54
S'66'
p279
sg56
S'28'
p280
sg58
S'302'
p281
sg60
S'56'
p282
sg62
S'.442'
p283
sg64
S'124'
p284
sg66
S'608'
p285
sba(isrc.gp1.models.Totals
Totals
p286
(dp287
g8
S'257'
p288
sg10
S'.425'
p289
sg12
S'108'
p290
sg14
S'84'
p291
sg16
S'464'
p292
sg18
S'254'
p293
sg20
g76
sg22
S'57'
p294
sg24
S'78'
p295
sg26
S'317'
p296
sg28
S'SF'
p297
sg30
S'33'
p298
sg32
S'.462'
p299
sg34
S'1569'
p300
sg36
S'.817'
p301
sg38
S'266'
p302
sg40
S'NJN'
p303
sg42
S'NBA'
p304
sg44
S'56'
p305
sg46
S'146'
p306
sg48
S'985'
p307
sg50
S'388'
p308
sg52
S'.471'
p309
sg54
S'335'
p310
sg56
S'28'
p311
sg58
S'1239'
p312
sg60
S'187'
p313
sg62
S'.505'
p314
sg64
S'572'
p315
sg66
S'2220'
p316
sba(isrc.gp1.models.Totals
Totals
p317
(dp318
g8
S'327'
p319
sg10
S'.341'
p320
sg12
S'125'
p321
sg14
S'94'
p322
sg16
S'528'
p323
sg18
S'367'
p324
sg20
g76
sg22
S'79'
p325
sg24
S'135'
p326
sg26
S'480'
p327
sg28
S'SG'
p328
sg30
S'53'
p329
sg32
S'.430'
p330
sg34
S'1911'
p331
sg36
S'.799'
p332
sg38
S'338'
p333
sg40
S'NJN'
p334
sg42
S'NBA'
p335
sg44
S'79'
p336
sg46
S'213'
p337
sg48
S'1151'
p338
sg50
S'601'
p339
sg52
S'.459'
p340
sg54
S'462'
p341
sg56
S'29'
p342
sg58
S'1518'
p343
sg60
S'235'
p344
sg62
S'.471'
p345
sg64
S'653'
p346
sg66
S'2906'
p347
sba(isrc.gp1.models.Totals
Totals
p348
(dp349
g8
S'378'
p350
sg10
S'.357'
p351
sg12
S'156'
p352
sg14
S'82'
p353
sg16
S'570'
p354
sg18
S'437'
p355
sg20
g76
sg22
S'82'
p356
sg24
S'114'
p357
sg26
S'462'
p358
sg28
S'SG'
p359
sg30
S'30'
p360
sg32
S'.454'
p361
sg34
S'2070'
p362
sg36
S'.802'
p363
sg38
S'393'
p364
sg40
S'NJN'
p365
sg42
S'NBA'
p366
sg44
S'82'
p367
sg46
S'217'
p368
sg48
S'1161'
p369
sg50
S'576'
p370
sg52
S'.491'
p371
sg54
S'492'
p372
sg56
S'30'
p373
sg58
S'1598'
p374
sg60
S'266'
p375
sg62
S'.503'
p376
sg64
S'726'
p377
sg66
S'3126'
p378
sba(isrc.gp1.models.Totals
Totals
p379
(dp380
g8
S'112'
p381
sg10
S'273'
p382
sg12
S'.456'
p383
sg14
S'389'
p384
sg16
S'.359'
p385
sg18
S'98'
p386
sg20
S'1622'
p387
sg22
S'SG'
p388
sg24
S'.816'
p389
sg26
S'.494'
p390
sg28
S'NBA'
p391
sg30
S'93'
p392
sg32
S'1287'
p393
sg34
S'241'
p394
sg36
S'429'
p395
sg38
S'453'
p396
sg40
S'31'
p397
sg42
S'NJN'
p398
sg44
S'76'
p399
sg46
S'33'
p400
sg48
S'489'
p401
sg50
S'350'
p402
sg52
S'1014'
p403
sg54
S'341'
p404
sg56
S'2007-08'
p405
sg58
S'587'
p406
sg60
S'181'
p407
sg62
S'.482'
p408
sg64
S'2959'
p409
sg66
S'72'
p410
sba(isrc.gp1.models.Totals
Totals
p411
(dp412
g8
S'74'
p413
sg10
S'392'
p414
sg12
S'.437'
p415
sg14
S'376'
p416
sg16
S'.385'
p417
sg18
S'151'
p418
sg20
S'1662'
p419
sg22
S'SG'
p420
sg24
S'.817'
p421
sg26
S'.493'
p422
sg28
S'NBA'
p423
sg30
S'82'
p424
sg32
S'1345'
p425
sg34
S'234'
p426
sg36
S'410'
p427
sg38
S'410'
p428
sg40
S'32'
p429
sg42
S'NJN'
p430
sg44
S'80'
p431
sg46
S'38'
p432
sg48
S'437'
p433
sg50
S'335'
p434
sg52
S'953'
p435
sg54
S'336'
p436
sg56
S'2008-09'
p437
sg58
S'588'
p438
sg60
S'166'
p439
sg62
S'.459'
p440
sg64
S'2946'
p441
sg66
S'80'
p442
sba(isrc.gp1.models.Totals
Totals
p443
(dp444
g8
S'33'
p445
sg10
S'324'
p446
sg12
S'.428'
p447
sg14
S'236'
p448
sg16
S'.367'
p449
sg18
S'119'
p450
sg20
S'1244'
p451
sg22
S'SG'
p452
sg24
S'.840'
p453
sg26
S'.486'
p454
sg28
S'NBA'
p455
sg30
S'53'
p456
sg32
S'1015'
p457
sg34
S'189'
p458
sg36
S'306'
p459
sg38
S'293'
p460
sg40
S'33'
p461
sg42
S'ORL'
p462
sg44
S'75'
p463
sg46
S'18'
p464
sg48
S'315'
p465
sg50
S'257'
p466
sg52
S'691'
p467
sg54
S'260'
p468
sg56
S'2009-10'
p469
sg58
S'434'
p470
sg60
S'106'
p471
sg62
S'.456'
p472
sg64
S'2310'
p473
sg66
S'74'
p474
sba(isrc.gp1.models.Totals
Totals
p475
(dp476
g8
S'54'
p477
sg10
S'321'
p478
sg12
S'.437'
p479
sg14
S'146'
p480
sg16
S'.361'
p481
sg18
S'116'
p482
sg20
S'1022'
p483
sg22
S'SG'
p484
sg24
S'.740'
p485
sg26
S'.502'
p486
sg28
S'NBA'
p487
sg30
S'67'
p488
sg32
S'891'
p489
sg34
S'193'
p490
sg36
S'173'
p491
sg38
S'275'
p492
sg40
S'34'
p493
sg42
S'TOT'
p494
sg44
S'73'
p495
sg46
S'20'
p496
sg48
S'273'
p497
sg50
S'128'
p498
sg52
S'570'
p499
sg54
S'221'
p500
sg56
S'2010-11'
p501
sg58
S'389'
p502
sg60
S'90'
p503
sg62
S'.479'
p504
sg64
S'2051'
p505
sg66
S'63'
p506
sba(isrc.gp1.models.Totals
Totals
p507
(dp508
g8
S'11'
p509
sg10
S'78'
p510
sg12
S'.470'
p511
sg14
S'64'
p512
sg16
S'.346'
p513
sg18
S'27'
p514
sg20
S'333'
p515
sg22
S'SG'
p516
sg24
S'.747'
p517
sg26
S'.521'
p518
sg28
S'NBA'
p519
sg30
S'20'
p520
sg32
S'266'
p521
sg34
S'70'
p522
sg36
S'75'
p523
sg38
S'90'
p524
sg40
S'34'
p525
sg42
S'ORL'
p526
sg44
S'22'
p527
sg46
S'3'
p528
sg48
S'98'
p529
sg50
S'56'
p530
sg52
S'188'
p531
sg54
S'79'
p532
sg56
S'2010-11'
p533
sg58
S'125'
p534
sg60
S'36'
p535
sg62
S'.521'
p536
sg64
S'664'
p537
sg66
S'22'
p538
sba(isrc.gp1.models.Totals
Totals
p539
(dp540
g8
S'43'
p541
sg10
S'243'
p542
sg12
S'.422'
p543
sg14
S'82'
p544
sg16
S'.366'
p545
sg18
S'89'
p546
sg20
S'689'
p547
sg22
S'SG'
p548
sg24
S'.735'
p549
sg26
S'.494'
p550
sg28
S'NBA'
p551
sg30
S'47'
p552
sg32
S'625'
p553
sg34
S'123'
p554
sg36
S'98'
p555
sg38
S'185'
p556
sg40
S'34'
p557
sg42
S'PHO'
p558
sg44
S'51'
p559
sg46
S'17'
p560
sg48
S'175'
p561
sg50
S'72'
p562
sg52
S'382'
p563
sg54
S'142'
p564
sg56
S'2010-11'
p565
sg58
S'264'
p566
sg60
S'54'
p567
sg62
S'.458'
p568
sg64
S'1387'
p569
sg66
S'41'
p570
sba(isrc.gp1.models.Totals
Totals
p571
(dp572
g8
S'32'
p573
sg10
S'205'
p574
sg12
S'.411'
p575
sg14
S'139'
p576
sg16
S'.361'
p577
sg18
S'74'
p578
sg20
S'615'
p579
sg22
S'SG'
p580
sg24
S'.826'
p581
sg26
S'.480'
p582
sg28
S'NBA'
p583
sg30
S'56'
p584
sg32
S'542'
p585
sg34
S'134'
p586
sg36
S'115'
p587
sg38
S'205'
p588
sg40
S'35'
p589
sg42
S'DAL'
p590
sg44
S'61'
p591
sg46
S'25'
p592
sg48
S'149'
p593
sg50
S'95'
p594
sg52
S'337'
p595
sg54
S'173'
p596
sg56
S'2011-12'
p597
sg58
S'223'
p598
sg60
S'84'
p599
sg62
S'.442'
p600
sg64
S'1542'
p601
sg66
S'40'
p602
sba(isrc.gp1.models.Totals
Totals
p603
(dp604
g8
S'58'
p605
sg10
S'399'
p606
sg12
S'.435'
p607
sg14
S'194'
p608
sg16
S'.406'
p609
sg18
S'162'
p610
sg20
S'1088'
p611
sg22
S'SF'
p612
sg24
S'.816'
p613
sg26
S'.530'
p614
sg28
S'NBA'
p615
sg30
S'74'
p616
sg32
S'855'
p617
sg34
S'226'
p618
sg36
S'223'
p619
sg38
S'334'
p620
sg40
S'36'
p621
sg42
S'DAL'
p622
sg44
S'81'
p623
sg46
S'44'
p624
sg48
S'210'
p625
sg50
S'182'
p626
sg52
S'456'
p627
sg54
S'276'
p628
sg56
S'2012-13'
p629
sg58
S'372'
p630
sg60
S'106'
p631
sg62
S'.461'
p632
sg64
S'2093'
p633
sg66
g528
sba(isrc.gp1.models.Totals
Totals
p634
(dp635
g8
S'67'
p636
sg10
S'371'
p637
sg12
S'.407'
p638
sg14
S'212'
p639
sg16
S'.394'
p640
sg18
S'146'
p641
sg20
S'967'
p642
sg22
S'SG'
p643
sg24
S'.821'
p644
sg26
S'.497'
p645
sg28
S'NBA'
p646
sg30
S'61'
p647
sg32
S'811'
p648
sg34
S'209'
p649
sg36
S'196'
p650
sg38
S'284'
p651
sg40
S'37'
p652
sg42
S'DAL'
p653
sg44
S'81'
p654
sg46
S'35'
p655
sg48
S'184'
p656
sg50
S'161'
p657
sg52
S'440'
p658
sg54
S'217'
p659
sg56
S'2013-14'
p660
sg58
S'330'
p661
sg60
S'108'
p662
sg62
S'.418'
p663
sg64
S'1973'
p664
sg66
S'0'
p665
sba(isrc.gp1.models.Totals
Totals
p666
(dp667
g8
S'27'
p668
sg10
S'232'
p669
sg12
S'.333'
p670
sg14
S'79'
p671
sg16
S'.297'
p672
sg18
S'69'
p673
sg20
S'384'
p674
sg22
S'SG'
p675
sg24
S'.789'
p676
sg26
S'.417'
p677
sg28
S'NBA'
p678
sg30
S'43'
p679
sg32
S'406'
p680
sg34
S'102'
p681
sg36
S'57'
p682
sg38
S'133'
p683
sg40
S'38'
p684
sg42
S'MEM'
p685
sg44
S'66'
p686
sg46
S'14'
p687
sg48
S'66'
p688
sg50
S'45'
p689
sg52
S'174'
p690
sg54
S'106'
p691
sg56
S'2014-15'
p692
sg58
S'135'
p693
sg60
S'43'
p694
sg62
S'.379'
p695
sg64
S'1091'
p696
sg66
S'1'
p697
sba(isrc.gp1.models.Totals
Totals
p698
(dp699
g8
S'10'
p700
sg10
S'70'
p701
sg12
S'.362'
p702
sg14
S'21'
p703
sg16
S'.271'
p704
sg18
S'19'
p705
sg20
S'134'
p706
sg22
S'SG'
p707
sg24
S'.840'
p708
sg26
S'.435'
p709
sg28
S'NBA'
p710
sg30
S'13'
p711
sg32
S'130'
p712
sg34
S'49'
p713
sg36
S'25'
p714
sg38
S'55'
p715
sg40
S'39'
p716
sg42
S'MEM'
p717
sg44
S'32'
p718
sg46
S'9'
p719
sg48
S'28'
p720
sg50
S'21'
p721
sg52
S'60'
p722
sg54
S'45'
p723
sg56
S'2015-16'
p724
sg58
S'47'
p725
sg60
S'14'
p726
sg62
S'.467'
p727
sg64
S'424'
p728
sg66
g665
sbasS'_college'
p729
S'University of North Carolina'
p730
sS'_toYear'
p731
S'2016'
p732
sS'_height'
p733
S'6-6'
p734
sS'_active'
p735
I01
sS'_shootingHand'
p736
VRight
p737
sS'_name'
p738
S'Vince Carter'
p739
sS'_per100Possessions'
p740
(lp741
(isrc.gp1.models.Per100Possession
Per100Possession
p742
(dp743
g8
S'2.9'
p744
sg10
S'2.0'
p745
sg12
S'.450'
p746
sS'_offensiveRating'
p747
S'107'
p748
sg14
S'4.6'
p749
sg16
S'.288'
p750
sg18
S'0.6'
p751
sg20
S'28.1'
p752
sg22
S'SF'
p753
sS'_defensiveRating'
p754
S'104'
p755
sg24
S'.761'
p756
sg28
S'NBA'
p757
sg30
S'1.7'
p758
sg32
S'23.5'
p759
sg34
S'4.3'
p760
sg36
S'8.2'
p761
sg38
S'8.7'
p762
sg40
S'22'
p763
sg42
S'TOR'
p764
sg44
S'50'
p765
sg46
S'2.4'
p766
sg48
S'10.0'
p767
sg50
S'6.3'
p768
sg52
S'21.5'
p769
sg54
S'5.8'
p770
sg56
S'1998-99'
p771
sg58
S'10.6'
p772
sg60
S'3.4'
p773
sg62
S'.466'
p774
sg64
S'1760'
p775
sg66
S'49'
p776
sba(isrc.gp1.models.Per100Possession
Per100Possession
p777
(dp778
g8
S'5.4'
p779
sg10
S'.403'
p780
sg12
S'1.6'
p781
sg747
S'105'
p782
sg14
S'1.8'
p783
sg16
S'11.5'
p784
sg18
S'3.9'
p785
sg20
S'112'
p786
sg22
S'82'
p787
sg754
g76
sg24
S'2.5'
p788
sg28
S'SF'
p789
sg30
S'1.5'
p790
sg32
S'.465'
p791
sg34
S'35.0'
p792
sg36
S'.791'
p793
sg38
S'5.3'
p794
sg40
S'TOR'
p795
sg42
S'NBA'
p796
sg44
S'82'
p797
sg46
S'3.0'
p798
sg48
S'24.2'
p799
sg50
S'9.2'
p800
sg52
S'.475'
p801
sg54
S'7.9'
p802
sg56
S'23'
p803
sg58
S'28.2'
p804
sg60
S'4.4'
p805
sg62
S'7.2'
p806
sg64
S'13.1'
p807
sg66
S'3126'
p808
sba(isrc.gp1.models.Per100Possession
Per100Possession
p809
(dp810
g8
S'4.3'
p811
sg10
S'.408'
p812
sg12
S'2.9'
p813
sg747
S'104'
p814
sg14
S'2.0'
p815
sg16
S'10.6'
p816
sg18
S'7.0'
p817
sg20
S'114'
p818
sg22
S'75'
p819
sg754
g76
sg24
S'3.1'
p820
sg28
S'SF'
p821
sg30
S'1.5'
p822
sg32
S'.460'
p823
sg34
S'36.7'
p824
sg36
S'.765'
p825
sg38
S'5.2'
p826
sg40
S'TOR'
p827
sg42
S'NBA'
p828
sg44
S'75'
p829
sg46
S'3.0'
p830
sg48
S'22.3'
p831
sg50
S'8.9'
p832
sg52
S'.477'
p833
sg54
S'7.4'
p834
sg56
S'24'
p835
sg58
S'29.3'
p836
sg60
S'3.6'
p837
sg62
S'6.8'
p838
sg64
S'13.5'
p839
sg66
S'2979'
p840
sba(isrc.gp1.models.Per100Possession
Per100Possession
p841
(dp842
g8
S'4.0'
p843
sg10
S'.387'
p844
sg12
S'2.7'
p845
sg747
S'105'
p846
sg14
S'2.1'
p847
sg16
S'9.9'
p848
sg18
S'7.1'
p849
sg20
S'107'
p850
sg22
S'60'
p851
sg754
g76
sg24
S'3.1'
p852
sg28
S'SG'
p853
sg30
S'1.0'
p854
sg32
S'.428'
p855
sg34
S'33.6'
p856
sg36
S'.798'
p857
sg38
S'5.4'
p858
sg40
S'TOR'
p859
sg42
S'NBA'
p860
sg44
S'60'
p861
sg46
S'3.5'
p862
sg48
S'22.5'
p863
sg50
S'7.0'
p864
sg52
S'.441'
p865
sg54
S'7.1'
p866
sg56
S'25'
p867
sg58
S'29.6'
p868
sg60
S'4.3'
p869
sg62
S'5.6'
p870
sg64
S'12.7'
p871
sg66
S'2385'
p872
sba(isrc.gp1.models.Per100Possession
Per100Possession
p873
(dp874
g8
S'4.7'
p875
sg10
S'.344'
p876
sg12
S'1.6'
p877
sg747
S'108'
p878
sg14
S'1.7'
p879
sg16
S'11.3'
p880
sg18
S'4.8'
p881
sg20
S'109'
p882
sg22
S'43'
p883
sg754
g76
sg24
S'2.1'
p884
sg28
S'SG'
p885
sg30
S'1.5'
p886
sg32
S'.467'
p887
sg34
S'32.1'
p888
sg36
S'.806'
p889
sg38
S'5.2'
p890
sg40
S'TOR'
p891
sg42
S'NBA'
p892
sg44
S'42'
p893
sg46
S'2.7'
p894
sg48
S'22.8'
p895
sg50
S'5.8'
p896
sg52
S'.493'
p897
sg54
S'6.8'
p898
sg56
S'26'
p899
sg58
S'27.6'
p900
sg60
S'4.4'
p901
sg62
S'4.7'
p902
sg64
S'12.9'
p903
sg66
S'1471'
p904
sba(isrc.gp1.models.Per100Possession
Per100Possession
p905
(dp906
g8
S'5.0'
p907
sg10
S'.383'
p908
sg12
S'1.8'
p909
sg747
S'102'
p910
sg14
S'1.7'
p911
sg16
S'10.2'
p912
sg18
S'4.8'
p913
sg20
S'99'
p914
sg22
S'73'
p915
sg754
g76
sg24
S'1.9'
p916
sg28
S'SG'
p917
sg30
S'1.3'
p918
sg32
S'.417'
p919
sg34
S'32.7'
p920
sg36
S'.806'
p921
sg38
S'6.9'
p922
sg40
S'TOR'
p923
sg42
S'NBA'
p924
sg44
S'73'
p925
sg46
S'4.4'
p926
sg48
S'24.1'
p927
sg50
S'8.3'
p928
sg52
S'.424'
p929
sg54
S'6.9'
p930
sg56
S'27'
p931
sg58
S'28.9'
p932
sg60
S'4.2'
p933
sg62
S'6.7'
p934
sg64
S'12.1'
p935
sg66
S'2785'
p936
sba(isrc.gp1.models.Per100Possession
Per100Possession
p937
(dp938
g8
S'5.6'
p939
sg10
S'.406'
p940
sg12
S'2.4'
p941
sg747
S'104'
p942
sg14
S'2.1'
p943
sg16
S'10.7'
p944
sg18
S'5.9'
p945
sg20
S'109'
p946
sg22
S'77'
p947
sg754
g76
sg24
S'2.0'
p948
sg28
S'SF-SG'
p949
sg30
S'0.9'
p950
sg32
S'.452'
p951
sg34
S'35.6'
p952
sg36
S'.798'
p953
sg38
S'6.2'
p954
sg40
S'TOT'
p955
sg42
S'NBA'
p956
sg44
S'76'
p957
sg46
S'3.2'
p958
sg48
S'23.2'
p959
sg50
S'8.7'
p960
sg52
S'.463'
p961
sg54
S'7.6'
p962
sg56
S'28'
p963
sg58
S'29.1'
p964
sg60
S'4.6'
p965
sg62
S'6.9'
p966
sg64
S'13.1'
p967
sg66
S'2828'
p968
sba(isrc.gp1.models.Per100Possession
Per100Possession
p969
(dp970
g8
S'3.2'
p971
sg10
S'.322'
p972
sg12
S'1.6'
p973
sg747
S'109'
p974
sg14
S'2.1'
p975
sg16
S'8.9'
p976
sg18
S'5.0'
p977
sg20
S'102'
p978
sg22
S'20'
p979
sg754
g76
sg24
S'2.4'
p980
sg28
S'SG'
p981
sg30
S'1.3'
p982
sg32
S'.411'
p983
sg34
S'27.0'
p984
sg36
S'.694'
p985
sg38
S'5.2'
p986
sg40
S'TOR'
p987
sg42
S'NBA'
p988
sg44
S'20'
p989
sg46
S'1.9'
p990
sg48
S'20.7'
p991
sg50
S'6.1'
p992
sg52
S'.432'
p993
sg54
S'5.6'
p994
sg56
S'28'
p995
sg58
S'25.7'
p996
sg60
S'4.8'
p997
sg62
S'4.3'
p998
sg64
S'10.6'
p999
sg66
S'608'
p1000
sba(isrc.gp1.models.Per100Possession
Per100Possession
p1001
(dp1002
g8
S'6.2'
p1003
sg10
S'.425'
p1004
sg12
S'2.6'
p1005
sg747
S'103'
p1006
sg14
S'2.0'
p1007
sg16
S'11.3'
p1008
sg18
S'6.2'
p1009
sg20
S'110'
p1010
sg22
S'57'
p1011
sg754
g76
sg24
S'1.9'
p1012
sg28
S'SF'
p1013
sg30
S'0.8'
p1014
sg32
S'.462'
p1015
sg34
S'38.1'
p1016
sg36
S'.817'
p1017
sg38
S'6.5'
p1018
sg40
S'NJN'
p1019
sg42
S'NBA'
p1020
sg44
S'56'
p1021
sg46
S'3.5'
p1022
sg48
S'23.9'
p1023
sg50
S'9.4'
p1024
sg52
S'.471'
p1025
sg54
S'8.1'
p1026
sg56
S'28'
p1027
sg58
S'30.1'
p1028
sg60
S'4.5'
p1029
sg62
S'7.7'
p1030
sg64
S'13.9'
p1031
sg66
S'2220'
p1032
sba(isrc.gp1.models.Per100Possession
Per100Possession
p1033
(dp1034
g8
S'6.0'
p1035
sg10
S'.341'
p1036
sg12
S'2.3'
p1037
sg747
S'102'
p1038
sg14
S'1.7'
p1039
sg16
S'9.7'
p1040
sg18
S'6.7'
p1041
sg20
S'107'
p1042
sg22
S'79'
p1043
sg754
g76
sg24
S'2.5'
p1044
sg28
S'SG'
p1045
sg30
S'1.0'
p1046
sg32
S'.430'
p1047
sg34
S'35.1'
p1048
sg36
S'.799'
p1049
sg38
S'6.2'
p1050
sg40
S'NJN'
p1051
sg42
S'NBA'
p1052
sg44
S'79'
p1053
sg46
S'3.9'
p1054
sg48
S'21.2'
p1055
sg50
S'11.0'
p1056
sg52
S'.459'
p1057
sg54
S'8.5'
p1058
sg56
S'29'
p1059
sg58
S'27.9'
p1060
sg60
S'4.3'
p1061
sg62
S'8.8'
p1062
sg64
S'12.0'
p1063
sg66
S'2906'
p1064
sba(isrc.gp1.models.Per100Possession
Per100Possession
p1065
(dp1066
g8
S'6.4'
p1067
sg10
S'.357'
p1068
sg12
S'2.6'
p1069
sg747
S'107'
p1070
sg14
S'1.4'
p1071
sg16
S'9.6'
p1072
sg18
S'7.3'
p1073
sg20
S'111'
p1074
sg22
S'82'
p1075
sg754
g76
sg24
S'1.9'
p1076
sg28
S'SG'
p1077
sg30
S'0.5'
p1078
sg32
S'.454'
p1079
sg34
S'34.8'
p1080
sg36
S'.802'
p1081
sg38
S'6.6'
p1082
sg40
S'NJN'
p1083
sg42
S'NBA'
p1084
sg44
S'82'
p1085
sg46
S'3.6'
p1086
sg48
S'19.5'
p1087
sg50
S'9.7'
p1088
sg52
S'.491'
p1089
sg54
S'8.3'
p1090
sg56
S'30'
p1091
sg58
S'26.9'
p1092
sg60
S'4.5'
p1093
sg62
S'7.8'
p1094
sg64
S'12.2'
p1095
sg66
S'3126'
p1096
sba(isrc.gp1.models.Per100Possession
Per100Possession
p1097
(dp1098
g8
S'2.0'
p1099
sg10
S'4.8'
p1100
sg12
S'.456'
p1101
sg747
S'111'
p1102
sg14
S'6.9'
p1103
sg16
S'.359'
p1104
sg18
S'1.7'
p1105
sg20
S'28.8'
p1106
sg22
S'SG'
p1107
sg754
S'110'
p1108
sg24
S'.816'
p1109
sg28
S'NBA'
p1110
sg30
S'1.6'
p1111
sg32
S'22.8'
p1112
sg34
S'4.3'
p1113
sg36
S'7.6'
p1114
sg38
S'8.0'
p1115
sg40
S'31'
p1116
sg42
S'NJN'
p1117
sg44
S'76'
p1118
sg46
S'0.6'
p1119
sg48
S'8.7'
p1120
sg50
S'6.2'
p1121
sg52
S'18.0'
p1122
sg54
S'6.0'
p1123
sg56
S'2007-08'
p1124
sg58
S'10.4'
p1125
sg60
S'3.2'
p1126
sg62
S'.482'
p1127
sg64
S'2959'
p1128
sg66
S'72'
p1129
sba(isrc.gp1.models.Per100Possession
Per100Possession
p1130
(dp1131
g8
S'1.3'
p1132
sg10
S'7.1'
p1133
sg12
S'.437'
p1134
sg747
S'112'
p1135
sg14
S'6.8'
p1136
sg16
S'.385'
p1137
sg18
S'2.7'
p1138
sg20
S'30.1'
p1139
sg22
S'SG'
p1140
sg754
S'112'
p1141
sg24
S'.817'
p1142
sg28
S'NBA'
p1143
sg30
S'1.5'
p1144
sg32
S'24.4'
p1145
sg34
S'4.2'
p1146
sg36
S'7.4'
p1147
sg38
S'7.4'
p1148
sg40
S'32'
p1149
sg42
S'NJN'
p1150
sg44
S'80'
p1151
sg46
S'0.7'
p1152
sg48
S'7.9'
p1153
sg50
S'6.1'
p1154
sg52
S'17.3'
p1155
sg54
S'6.1'
p1156
sg56
S'2008-09'
p1157
sg58
S'10.7'
p1158
sg60
S'3.0'
p1159
sg62
S'.459'
p1160
sg64
S'2946'
p1161
sg66
S'80'
p1162
sba(isrc.gp1.models.Per100Possession
Per100Possession
p1163
(dp1164
g8
S'0.7'
p1165
sg10
S'7.3'
p1166
sg12
S'.428'
p1167
sg747
S'112'
p1168
sg14
S'5.3'
p1169
sg16
S'.367'
p1170
sg18
S'2.7'
p1171
sg20
S'28.1'
p1172
sg22
S'SG'
p1173
sg754
S'105'
p1174
sg24
S'.840'
p1175
sg28
S'NBA'
p1176
sg30
S'1.2'
p1177
sg32
S'22.9'
p1178
sg34
S'4.3'
p1179
sg36
S'6.9'
p1180
sg38
S'6.6'
p1181
sg40
S'33'
p1182
sg42
S'ORL'
p1183
sg44
S'75'
p1184
sg46
S'0.4'
p1185
sg48
S'7.1'
p1186
sg50
S'5.8'
p1187
sg52
S'15.6'
p1188
sg54
S'5.9'
p1189
sg56
S'2009-10'
p1190
sg58
S'9.8'
p1191
sg60
S'2.4'
p1192
sg62
S'.456'
p1193
sg64
S'2310'
p1194
sg66
S'74'
p1195
sba(isrc.gp1.models.Per100Possession
Per100Possession
p1196
(dp1197
g8
S'1.4'
p1198
sg10
S'8.0'
p1199
sg12
S'.437'
p1200
sg747
S'106'
p1201
sg14
S'3.7'
p1202
sg16
S'.361'
p1203
sg18
S'2.9'
p1204
sg20
S'25.6'
p1205
sg22
S'SG'
p1206
sg754
S'108'
p1207
sg24
S'.740'
p1208
sg28
S'NBA'
p1209
sg30
S'1.7'
p1210
sg32
S'22.3'
p1211
sg34
S'4.8'
p1212
sg36
S'4.3'
p1213
sg38
S'6.9'
p1214
sg40
S'34'
p1215
sg42
S'TOT'
p1216
sg44
S'73'
p1217
sg46
S'0.5'
p1218
sg48
S'6.8'
p1219
sg50
S'3.2'
p1220
sg52
S'14.3'
p1221
sg54
S'5.5'
p1222
sg56
S'2010-11'
p1223
sg58
S'9.8'
p1224
sg60
S'2.3'
p1225
sg62
S'.479'
p1226
sg64
S'2051'
p1227
sg66
S'63'
p1228
sba(isrc.gp1.models.Per100Possession
Per100Possession
p1229
(dp1230
g8
S'0.9'
p1231
sg10
S'6.2'
p1232
sg12
S'.470'
p1233
sg747
S'111'
p1234
sg14
S'5.1'
p1235
sg16
S'.346'
p1236
sg18
S'2.1'
p1237
sg20
S'26.4'
p1238
sg22
S'SG'
p1239
sg754
S'103'
p1240
sg24
S'.747'
p1241
sg28
S'NBA'
p1242
sg30
S'1.6'
p1243
sg32
S'21.1'
p1244
sg34
S'5.5'
p1245
sg36
S'5.9'
p1246
sg38
S'7.1'
p1247
sg40
S'34'
p1248
sg42
S'ORL'
p1249
sg44
S'22'
p1250
sg46
S'0.2'
p1251
sg48
S'7.8'
p1252
sg50
S'4.4'
p1253
sg52
S'14.9'
p1254
sg54
S'6.3'
p1255
sg56
S'2010-11'
p1256
sg58
S'9.9'
p1257
sg60
S'2.9'
p1258
sg62
S'.521'
p1259
sg64
S'664'
p1260
sg66
S'22'
p1261
sba(isrc.gp1.models.Per100Possession
Per100Possession
p1262
(dp1263
g8
S'1.6'
p1264
sg10
S'8.9'
p1265
sg12
S'.422'
p1266
sg747
S'104'
p1267
sg14
S'3.0'
p1268
sg16
S'.366'
p1269
sg18
S'3.3'
p1270
sg20
S'25.3'
p1271
sg22
S'SG'
p1272
sg754
S'111'
p1273
sg24
S'.735'
p1274
sg28
S'NBA'
p1275
sg30
S'1.7'
p1276
sg32
S'22.9'
p1277
sg34
S'4.5'
p1278
sg36
S'3.6'
p1279
sg38
S'6.8'
p1280
sg40
S'34'
p1281
sg42
S'PHO'
p1282
sg44
S'51'
p1283
sg46
S'0.6'
p1284
sg48
S'6.4'
p1285
sg50
S'2.6'
p1286
sg52
S'14.0'
p1287
sg54
S'5.2'
p1288
sg56
S'2010-11'
p1289
sg58
S'9.7'
p1290
sg60
S'2.0'
p1291
sg62
S'.458'
p1292
sg64
S'1387'
p1293
sg66
S'41'
p1294
sba(isrc.gp1.models.Per100Possession
Per100Possession
p1295
(dp1296
g8
S'1.1'
p1297
sg10
S'7.0'
p1298
sg12
S'.411'
p1299
sg747
S'102'
p1300
sg14
S'4.7'
p1301
sg16
S'.361'
p1302
sg18
S'2.5'
p1303
sg20
S'20.9'
p1304
sg22
S'SG'
p1305
sg754
S'103'
p1306
sg24
S'.826'
p1307
sg28
S'NBA'
p1308
sg30
S'1.9'
p1309
sg32
S'18.5'
p1310
sg34
S'4.6'
p1311
sg36
S'3.9'
p1312
sg38
S'7.0'
p1313
sg40
S'35'
p1314
sg42
S'DAL'
p1315
sg44
S'61'
p1316
sg46
S'0.9'
p1317
sg48
S'5.1'
p1318
sg50
S'3.2'
p1319
sg52
S'11.5'
p1320
sg54
S'5.9'
p1321
sg56
S'2011-12'
p1322
sg58
S'7.6'
p1323
sg60
S'2.9'
p1324
sg62
S'.442'
p1325
sg64
S'1542'
p1326
sg66
S'40'
p1327
sba(isrc.gp1.models.Per100Possession
Per100Possession
p1328
(dp1329
g8
S'1.4'
p1330
sg10
S'9.7'
p1331
sg12
S'.435'
p1332
sg747
S'111'
p1333
sg14
S'4.7'
p1334
sg16
S'.406'
p1335
sg18
S'4.0'
p1336
sg20
S'26.5'
p1337
sg22
S'SF'
p1338
sg754
S'106'
p1339
sg24
S'.816'
p1340
sg28
S'NBA'
p1341
sg30
S'1.8'
p1342
sg32
S'20.8'
p1343
sg34
S'5.5'
p1344
sg36
S'5.4'
p1345
sg38
S'8.1'
p1346
sg40
S'36'
p1347
sg42
S'DAL'
p1348
sg44
S'81'
p1349
sg46
S'1.1'
p1350
sg48
S'5.1'
p1351
sg50
S'4.4'
p1352
sg52
S'11.1'
p1353
sg54
S'6.7'
p1354
sg56
S'2012-13'
p1355
sg58
S'9.1'
p1356
sg60
S'2.6'
p1357
sg62
S'.461'
p1358
sg64
S'2093'
p1359
sg66
g528
sba(isrc.gp1.models.Per100Possession
Per100Possession
p1360
(dp1361
g8
S'1.7'
p1362
sg10
S'9.6'
p1363
sg12
S'.407'
p1364
sg747
S'109'
p1365
sg14
S'5.5'
p1366
sg16
S'.394'
p1367
sg18
S'3.8'
p1368
sg20
S'25.1'
p1369
sg22
S'SG'
p1370
sg754
S'110'
p1371
sg24
S'.821'
p1372
sg28
S'NBA'
p1373
sg30
S'1.6'
p1374
sg32
S'21.1'
p1375
sg34
S'5.4'
p1376
sg36
S'5.1'
p1377
sg38
S'7.4'
p1378
sg40
S'37'
p1379
sg42
S'DAL'
p1380
sg44
S'81'
p1381
sg46
S'0.9'
p1382
sg48
S'4.8'
p1383
sg50
S'4.2'
p1384
sg52
S'11.4'
p1385
sg54
S'5.6'
p1386
sg56
S'2013-14'
p1387
sg58
S'8.6'
p1388
sg60
S'2.8'
p1389
sg62
S'.418'
p1390
sg64
S'1973'
p1391
sg66
g665
sba(isrc.gp1.models.Per100Possession
Per100Possession
p1392
(dp1393
g8
S'1.3'
p1394
sg10
S'11.1'
p1395
sg12
S'.333'
p1396
sg747
S'94'
p1397
sg14
S'3.8'
p1398
sg16
S'.297'
p1399
sg18
S'3.3'
p1400
sg20
S'18.4'
p1401
sg22
S'SG'
p1402
sg754
S'103'
p1403
sg24
S'.789'
p1404
sg28
S'NBA'
p1405
sg30
S'2.1'
p1406
sg32
S'19.4'
p1407
sg34
S'4.9'
p1408
sg36
S'2.7'
p1409
sg38
S'6.4'
p1410
sg40
S'38'
p1411
sg42
S'MEM'
p1412
sg44
S'66'
p1413
sg46
S'0.7'
p1414
sg48
S'3.2'
p1415
sg50
S'2.2'
p1416
sg52
S'8.3'
p1417
sg54
S'5.1'
p1418
sg56
S'2014-15'
p1419
sg58
S'6.5'
p1420
sg60
S'2.1'
p1421
sg62
S'.379'
p1422
sg64
S'1091'
p1423
sg66
g697
sba(isrc.gp1.models.Per100Possession
Per100Possession
p1424
(dp1425
g8
S'1.2'
p1426
sg10
S'8.5'
p1427
sg12
S'.362'
p1428
sg747
S'97'
p1429
sg14
S'2.6'
p1430
sg16
S'.271'
p1431
sg18
S'2.3'
p1432
sg20
S'16.3'
p1433
sg22
S'SG'
p1434
sg754
S'107'
p1435
sg24
S'.840'
p1436
sg28
S'NBA'
p1437
sg30
S'1.6'
p1438
sg32
S'15.8'
p1439
sg34
S'6.0'
p1440
sg36
S'3.0'
p1441
sg38
S'6.7'
p1442
sg40
S'39'
p1443
sg42
S'MEM'
p1444
sg44
S'32'
p1445
sg46
S'1.1'
p1446
sg48
S'3.4'
p1447
sg50
S'2.6'
p1448
sg52
S'7.3'
p1449
sg54
S'5.5'
p1450
sg56
S'2015-16'
p1451
sg58
S'5.7'
p1452
sg60
S'1.7'
p1453
sg62
S'.467'
p1454
sg64
S'424'
p1455
sg66
g665
sbasS'_advanced'
p1456
(lp1457
(isrc.gp1.models.Advanced
Advanced
p1458
(dp1459
S'_offensiveReboundPercentage'
p1460
S'6.1'
p1461
sS'_turnOverPercentage'
p1462
S'11.1'
p1463
sS'_winSharesPer48Minutes'
p1464
S'.136'
p1465
sS'_stealPercentage'
p1466
S'1.7'
p1467
sS'_usagePercentage'
p1468
S'25.6'
p1469
sS'_totalReboundsPercentage'
p1470
S'9.3'
p1471
sS'_defensiveBoxPlusMinus'
p1472
S'-0.2'
p1473
sg22
S'SF'
p1474
sS'_valueOverReplacementPlayer'
p1475
S'1.7'
p1476
sS'_trueShootingPercentage'
p1477
S'.516'
p1478
sS'_defensiveReboundPercentage'
p1479
S'12.6'
p1480
sS'_freeThrowsAttempRate'
p1481
S'.350'
p1482
sS'_threePointsAttempRate'
p1483
S'.086'
p1484
sg28
S'NBA'
p1485
sS'_offensiveBoxPlusMinues'
p1486
S'2.1'
p1487
sS'_assistPercentage'
p1488
S'17.2'
p1489
sS'_defensiveWinShares'
p1490
S'1.4'
p1491
sg40
S'22'
p1492
sg42
S'TOR'
p1493
sg44
S'50'
p1494
sS'_blockPercentage'
p1495
S'3.3'
p1496
sS'_playerEfficiencyRating'
p1497
S'19.6'
p1498
sS'_offensiveWinShares'
p1499
S'3.6'
p1500
sg64
S'1760'
p1501
sS'_boxPlusMinus'
p1502
S'1.9'
p1503
sg56
S'1998-99'
p1504
sS'_winShares'
p1505
S'5.0'
p1506
sba(isrc.gp1.models.Advanced
Advanced
p1507
(dp1508
g1460
S'12.1'
p1509
sg1462
S'30.0'
p1510
sg1464
S'5.2'
p1511
sg1466
S'2.1'
p1512
sg1468
S'9.1'
p1513
sg1470
S'20.5'
p1514
sg1472
S'4.6'
p1515
sg22
S'82'
p1516
sg1475
g76
sg1477
S'.139'
p1517
sg1479
S'8.5'
p1518
sg1481
S'5.2'
p1519
sg1483
S'.325'
p1520
sg28
S'SF'
p1521
sg1486
S'-0.6'
p1522
sg1488
S'1.8'
p1523
sg1490
S'11.8'
p1524
sg40
S'TOR'
p1525
sg42
S'NBA'
p1526
sg44
S'3126'
p1527
sg1495
S'8.4'
p1528
sg1497
S'.543'
p1529
sg1499
S'2.7'
p1530
sg64
S'23.4'
p1531
sg1502
S'5.2'
p1532
sg56
S'23'
p1533
sg1505
S'.182'
p1534
sba(isrc.gp1.models.Advanced
Advanced
p1535
(dp1536
g1460
S'9.3'
p1537
sg1462
S'30.7'
p1538
sg1464
S'7.7'
p1539
sg1466
S'1.9'
p1540
sg1468
S'10.3'
p1541
sg1470
S'19.2'
p1542
sg1472
S'7.0'
p1543
sg22
S'75'
p1544
sg1475
g76
sg1477
S'.240'
p1545
sg1479
S'7.9'
p1546
sg1481
S'6.5'
p1547
sg1483
S'.303'
p1548
sg28
S'SF'
p1549
sg1486
S'-0.6'
p1550
sg1488
S'2.0'
p1551
sg1490
S'12.9'
p1552
sg40
S'TOR'
p1553
sg42
S'NBA'
p1554
sg44
S'2979'
p1555
sg1495
S'8.2'
p1556
sg1497
S'.551'
p1557
sg1499
S'2.6'
p1558
sg64
S'25.0'
p1559
sg1502
S'6.8'
p1560
sg56
S'24'
p1561
sg1505
S'.208'
p1562
sba(isrc.gp1.models.Advanced
Advanced
p1563
(dp1564
g1460
S'8.7'
p1565
sg1462
S'30.5'
p1566
sg1464
S'4.8'
p1567
sg1466
S'1.3'
p1568
sg1468
S'4.6'
p1569
sg1470
S'19.9'
p1570
sg1472
S'4.1'
p1571
sg22
S'60'
p1572
sg1475
g76
sg1477
S'.239'
p1573
sg1479
S'7.5'
p1574
sg1481
S'6.4'
p1575
sg1483
S'.235'
p1576
sg28
S'SG'
p1577
sg1486
S'-0.7'
p1578
sg1488
S'2.1'
p1579
sg1490
S'7.0'
p1580
sg40
S'TOR'
p1581
sg42
S'NBA'
p1582
sg44
S'2385'
p1583
sg1495
S'9.6'
p1584
sg1497
S'.515'
p1585
sg1499
S'2.4'
p1586
sg64
S'20.5'
p1587
sg1502
S'3.7'
p1588
sg56
S'25'
p1589
sg1505
S'.140'
p1590
sba(isrc.gp1.models.Advanced
Advanced
p1591
(dp1592
g1460
S'10.4'
p1593
sg1462
S'28.1'
p1594
sg1464
S'4.1'
p1595
sg1466
S'2.0'
p1596
sg1468
S'3.4'
p1597
sg1470
S'20.4'
p1598
sg1472
S'2.7'
p1599
sg22
S'43'
p1600
sg1475
g76
sg1477
S'.172'
p1601
sg1479
S'7.3'
p1602
sg1481
S'4.4'
p1603
sg1483
S'.211'
p1604
sg28
S'SG'
p1605
sg1486
S'-1.4'
p1606
sg1488
S'1.7'
p1607
sg1490
S'4.2'
p1608
sg40
S'TOR'
p1609
sg42
S'NBA'
p1610
sg44
S'1471'
p1611
sg1495
S'8.2'
p1612
sg1497
S'.532'
p1613
sg1499
S'0.8'
p1614
sg64
S'21.9'
p1615
sg1502
S'1.7'
p1616
sg56
S'26'
p1617
sg1505
S'.136'
p1618
sba(isrc.gp1.models.Advanced
Advanced
p1619
(dp1620
g1460
S'10.6'
p1621
sg1462
S'32.5'
p1622
sg1464
S'2.9'
p1623
sg1466
S'1.7'
p1624
sg1468
S'2.6'
p1625
sg1470
S'28.0'
p1626
sg1472
S'2.9'
p1627
sg22
S'73'
p1628
sg1475
g76
sg1477
S'.167'
p1629
sg1479
S'7.2'
p1630
sg1481
S'3.9'
p1631
sg1483
S'.286'
p1632
sg28
S'SG'
p1633
sg1486
S'0.1'
p1634
sg1488
S'1.7'
p1635
sg1490
S'6.0'
p1636
sg40
S'TOR'
p1637
sg42
S'NBA'
p1638
sg44
S'2785'
p1639
sg1495
S'12.0'
p1640
sg1497
S'.501'
p1641
sg1499
S'3.4'
p1642
sg64
S'20.0'
p1643
sg1502
S'3.4'
p1644
sg56
S'27'
p1645
sg1505
S'.103'
p1646
sba(isrc.gp1.models.Advanced
Advanced
p1647
(dp1648
g1460
S'12.6'
p1649
sg1462
S'31.6'
p1650
sg1464
S'5.3'
p1651
sg1466
S'1.3'
p1652
sg1468
S'5.9'
p1653
sg1470
S'25.7'
p1654
sg1472
S'5.3'
p1655
sg22
S'77'
p1656
sg1475
g76
sg1477
S'.203'
p1657
sg1479
S'8.4'
p1658
sg1481
S'4.4'
p1659
sg1483
S'.299'
p1660
sg28
S'SF-SG'
p1661
sg1486
S'0.0'
p1662
sg1488
S'2.1'
p1663
sg1490
S'9.4'
p1664
sg40
S'TOT'
p1665
sg42
S'NBA'
p1666
sg44
S'2828'
p1667
sg1495
S'8.8'
p1668
sg1497
S'.541'
p1669
sg1499
S'3.5'
p1670
sg64
S'22.9'
p1671
sg1502
S'5.2'
p1672
sg56
S'28'
p1673
sg1505
S'.159'
p1674
sba(isrc.gp1.models.Advanced
Advanced
p1675
(dp1676
g1460
S'7.2'
p1677
sg1462
S'26.7'
p1678
sg1464
S'1.2'
p1679
sg1466
S'1.8'
p1680
sg1468
S'0.5'
p1681
sg1470
S'18.5'
p1682
sg1472
S'0.1'
p1683
sg22
S'20'
p1684
sg1475
g76
sg1477
S'.195'
p1685
sg1479
S'6.1'
p1686
sg1481
S'5.1'
p1687
sg1483
S'.238'
p1688
sg28
S'SG'
p1689
sg1486
S'-1.1'
p1690
sg1488
S'2.1'
p1691
sg1490
S'0.9'
p1692
sg40
S'TOR'
p1693
sg42
S'NBA'
p1694
sg44
S'608'
p1695
sg1495
S'6.2'
p1696
sg1497
S'.475'
p1697
sg1499
S'0.4'
p1698
sg64
S'17.0'
p1699
sg1502
S'0.3'
p1700
sg56
S'28'
p1701
sg1505
S'.068'
p1702
sba(isrc.gp1.models.Advanced
Advanced
p1703
(dp1704
g1460
S'14.1'
p1705
sg1462
S'32.9'
p1706
sg1464
S'6.4'
p1707
sg1466
S'1.2'
p1708
sg1468
S'5.4'
p1709
sg1470
S'27.6'
p1710
sg1472
S'6.7'
p1711
sg22
S'57'
p1712
sg1475
g76
sg1477
S'.205'
p1713
sg1479
S'9.1'
p1714
sg1481
S'4.2'
p1715
sg1483
S'.313'
p1716
sg28
S'SF'
p1717
sg1486
S'0.3'
p1718
sg1488
S'2.0'
p1719
sg1490
S'8.5'
p1720
sg40
S'NJN'
p1721
sg42
S'NBA'
p1722
sg44
S'2220'
p1723
sg1495
S'9.4'
p1724
sg1497
S'.556'
p1725
sg1499
S'3.1'
p1726
sg64
S'24.5'
p1727
sg1502
S'4.8'
p1728
sg56
S'28'
p1729
sg1505
S'.184'
p1730
sba(isrc.gp1.models.Advanced
Advanced
p1731
(dp1732
g1460
S'13.4'
p1733
sg1462
S'32.3'
p1734
sg1464
S'3.9'
p1735
sg1466
S'1.5'
p1736
sg1468
S'4.9'
p1737
sg1470
S'24.4'
p1738
sg1472
S'4.4'
p1739
sg22
S'79'
p1740
sg1475
g76
sg1477
S'.242'
p1741
sg1479
S'9.3'
p1742
sg1481
S'5.4'
p1743
sg1483
S'.396'
p1744
sg28
S'SG'
p1745
sg1486
S'0.5'
p1746
sg1488
S'1.7'
p1747
sg1490
S'9.3'
p1748
sg40
S'NJN'
p1749
sg42
S'NBA'
p1750
sg44
S'2906'
p1751
sg1495
S'10.7'
p1752
sg1497
S'.536'
p1753
sg1499
S'4.4'
p1754
sg64
S'21.6'
p1755
sg1502
S'4.7'
p1756
sg56
S'29'
p1757
sg1505
S'.153'
p1758
sba(isrc.gp1.models.Advanced
Advanced
p1759
(dp1760
g1460
S'14.2'
p1761
sg1462
S'30.8'
p1762
sg1464
S'4.7'
p1763
sg1466
S'0.8'
p1764
sg1468
S'7.4'
p1765
sg1470
S'25.1'
p1766
sg1472
S'4.1'
p1767
sg22
S'82'
p1768
sg1475
g76
sg1477
S'.273'
p1769
sg1479
S'9.3'
p1770
sg1481
S'4.3'
p1771
sg1483
S'.360'
p1772
sg28
S'SG'
p1773
sg1486
S'-0.6'
p1774
sg1488
S'1.4'
p1775
sg1490
S'10.5'
p1776
sg40
S'NJN'
p1777
sg42
S'NBA'
p1778
sg44
S'3126'
p1779
sg1495
S'10.5'
p1780
sg1497
S'.559'
p1781
sg1499
S'3.1'
p1782
sg64
S'21.8'
p1783
sg1502
S'4.8'
p1784
sg56
S'30'
p1785
sg1505
S'.161'
p1786
sba(isrc.gp1.models.Advanced
Advanced
p1787
(dp1788
g1460
S'4.4'
p1789
sg1462
S'10.9'
p1790
sg1464
S'.126'
p1791
sg1466
S'1.6'
p1792
sg1468
S'25.6'
p1793
sg1470
S'8.9'
p1794
sg1472
S'-0.3'
p1795
sg22
S'SG'
p1796
sg1475
S'3.8'
p1797
sg1477
S'.550'
p1798
sg1479
S'13.4'
p1799
sg1481
S'.333'
p1800
sg1483
S'.212'
p1801
sg28
S'NBA'
p1802
sg1486
S'3.3'
p1803
sg1488
S'25.2'
p1804
sg1490
S'2.2'
p1805
sg40
S'31'
p1806
sg42
S'NJN'
p1807
sg44
S'76'
p1808
sg1495
S'0.9'
p1809
sg1497
S'18.8'
p1810
sg1499
S'5.5'
p1811
sg64
S'2959'
p1812
sg1502
S'3.0'
p1813
sg56
S'2007-08'
p1814
sg1505
S'7.7'
p1815
sba(isrc.gp1.models.Advanced
Advanced
p1816
(dp1817
g1460
S'3.0'
p1818
sg1462
S'9.8'
p1819
sg1464
S'.123'
p1820
sg1466
S'1.5'
p1821
sg1468
S'26.8'
p1822
sg1470
S'8.3'
p1823
sg1472
S'-0.9'
p1824
sg22
S'SG'
p1825
sg1475
S'3.4'
p1826
sg1477
S'.545'
p1827
sg1479
S'13.8'
p1828
sg1481
S'.305'
p1829
sg1483
S'.291'
p1830
sg28
S'NBA'
p1831
sg1486
S'3.5'
p1832
sg1488
S'23.7'
p1833
sg1490
S'1.8'
p1834
sg40
S'32'
p1835
sg42
S'NJN'
p1836
sg44
S'80'
p1837
sg1495
S'1.1'
p1838
sg1497
S'19.3'
p1839
sg1499
S'5.7'
p1840
sg64
S'2946'
p1841
sg1502
S'2.5'
p1842
sg56
S'2008-09'
p1843
sg1505
S'7.5'
p1844
sba(isrc.gp1.models.Advanced
Advanced
p1845
(dp1846
g1460
S'1.7'
p1847
sg1462
S'8.4'
p1848
sg1464
S'.154'
p1849
sg1466
S'1.2'
p1850
sg1468
S'25.2'
p1851
sg1470
S'7.3'
p1852
sg1472
S'-0.1'
p1853
sg22
S'SG'
p1854
sg1475
S'2.2'
p1855
sg1477
S'.541'
p1856
sg1479
S'12.6'
p1857
sg1481
S'.301'
p1858
sg1483
S'.319'
p1859
sg28
S'NBA'
p1860
sg1486
S'1.9'
p1861
sg1488
S'17.8'
p1862
sg1490
S'3.0'
p1863
sg40
S'33'
p1864
sg42
S'ORL'
p1865
sg44
S'75'
p1866
sg1495
S'0.6'
p1867
sg1497
S'17.1'
p1868
sg1499
S'4.4'
p1869
sg64
S'2310'
p1870
sg1502
S'1.7'
p1871
sg56
S'2009-10'
p1872
sg1505
S'7.4'
p1873
sba(isrc.gp1.models.Advanced
Advanced
p1874
(dp1875
g1460
S'3.1'
p1876
sg1462
S'8.5'
p1877
sg1464
S'.089'
p1878
sg1466
S'1.7'
p1879
sg1468
S'23.5'
p1880
sg1470
S'7.8'
p1881
sg1472
S'-0.7'
p1882
sg22
S'SG'
p1883
sg1475
S'1.2'
p1884
sg1477
S'.528'
p1885
sg1479
S'12.4'
p1886
sg1481
S'.194'
p1887
sg1483
S'.360'
p1888
sg28
S'NBA'
p1889
sg1486
S'1.0'
p1890
sg1488
S'12.1'
p1891
sg1490
S'1.9'
p1892
sg40
S'34'
p1893
sg42
S'TOT'
p1894
sg44
S'73'
p1895
sg1495
S'0.7'
p1896
sg1497
S'14.8'
p1897
sg1499
S'2.0'
p1898
sg64
S'2051'
p1899
sg1502
S'0.3'
p1900
sg56
S'2010-11'
p1901
sg1505
S'3.8'
p1902
sba(isrc.gp1.models.Advanced
Advanced
p1903
(dp1904
g1460
S'2.0'
p1905
sg1462
S'10.7'
p1906
sg1464
S'.151'
p1907
sg1466
S'1.6'
p1908
sg1468
S'23.4'
p1909
sg1470
S'7.9'
p1910
sg1472
S'0.6'
p1911
sg22
S'SG'
p1912
sg1475
S'0.7'
p1913
sg1477
S'.557'
p1914
sg1479
S'13.5'
p1915
sg1481
S'.282'
p1916
sg1483
S'.293'
p1917
sg28
S'NBA'
p1918
sg1486
S'1.4'
p1919
sg1488
S'17.3'
p1920
sg1490
S'1.0'
p1921
sg40
S'34'
p1922
sg42
S'ORL'
p1923
sg44
S'22'
p1924
sg1495
S'0.4'
p1925
sg1497
S'16.2'
p1926
sg1499
S'1.1'
p1927
sg64
S'664'
p1928
sg1502
S'1.9'
p1929
sg56
S'2010-11'
p1930
sg1505
S'2.1'
p1931
sba(isrc.gp1.models.Advanced
Advanced
p1932
(dp1933
g1460
S'3.6'
p1934
sg1462
S'7.5'
p1935
sg1464
S'.060'
p1936
sg1466
S'1.7'
p1937
sg1468
S'23.5'
p1938
sg1470
S'7.7'
p1939
sg1472
S'-1.2'
p1940
sg22
S'SG'
p1941
sg1475
S'0.5'
p1942
sg1477
S'.516'
p1943
sg1479
S'11.8'
p1944
sg1481
S'.157'
p1945
sg1483
S'.389'
p1946
sg28
S'NBA'
p1947
sg1486
S'0.8'
p1948
sg1488
S'9.6'
p1949
sg1490
S'0.8'
p1950
sg40
S'34'
p1951
sg42
S'PHO'
p1952
sg44
S'51'
p1953
sg1495
S'0.9'
p1954
sg1497
S'14.2'
p1955
sg1499
S'0.9'
p1956
sg64
S'1387'
p1957
sg1502
S'-0.4'
p1958
sg56
S'2010-11'
p1959
sg1505
S'1.7'
p1960
sba(isrc.gp1.models.Advanced
Advanced
p1961
(dp1962
g1460
S'2.3'
p1963
sg1462
S'12.4'
p1964
sg1464
S'.090'
p1965
sg1466
S'1.9'
p1966
sg1468
S'20.4'
p1967
sg1470
S'7.5'
p1968
sg1472
S'0.6'
p1969
sg22
S'SG'
p1970
sg1475
S'1.0'
p1971
sg1477
S'.519'
p1972
sg1479
S'12.5'
p1973
sg1481
S'.212'
p1974
sg1483
S'.378'
p1975
sg28
S'NBA'
p1976
sg1486
S'0.0'
p1977
sg1488
S'15.0'
p1978
sg1490
S'1.8'
p1979
sg40
S'35'
p1980
sg42
S'DAL'
p1981
sg44
S'61'
p1982
sg1495
S'1.3'
p1983
sg1497
S'13.6'
p1984
sg1499
S'1.0'
p1985
sg64
S'1542'
p1986
sg1502
S'0.6'
p1987
sg56
S'2011-12'
p1988
sg1505
S'2.9'
p1989
sba(isrc.gp1.models.Advanced
Advanced
p1990
(dp1991
g1460
S'3.1'
p1992
sg1462
S'10.0'
p1993
sg1464
S'.137'
p1994
sg1466
S'1.8'
p1995
sg1468
S'23.1'
p1996
sg1470
S'8.9'
p1997
sg1472
S'-0.4'
p1998
sg22
S'SF'
p1999
sg1475
S'2.6'
p2000
sg1477
S'.571'
p2001
sg1479
S'14.4'
p2002
sg1481
S'.261'
p2003
sg1483
S'.467'
p2004
sg28
S'NBA'
p2005
sg1486
S'3.3'
p2006
sg1488
S'15.0'
p2007
sg1490
S'2.0'
p2008
sg40
S'36'
p2009
sg42
S'DAL'
p2010
sg44
S'81'
p2011
sg1495
S'1.6'
p2012
sg1497
S'17.8'
p2013
sg1499
S'3.9'
p2014
sg64
S'2093'
p2015
sg1502
S'2.9'
p2016
sg56
S'2012-13'
p2017
sg1505
S'6.0'
p2018
sba(isrc.gp1.models.Advanced
Advanced
p2019
(dp2020
g1460
S'4.0'
p2021
sg1462
S'10.7'
p2022
sg1464
S'.105'
p2023
sg1466
S'1.6'
p2024
sg1468
S'23.1'
p2025
sg1470
S'8.3'
p2026
sg1472
S'-1.0'
p2027
sg22
S'SG'
p2028
sg1475
S'1.6'
p2029
sg1477
S'.539'
p2030
sg1479
S'12.6'
p2031
sg1481
S'.242'
p2032
sg1483
S'.457'
p2033
sg28
S'NBA'
p2034
sg1486
S'2.2'
p2035
sg1488
S'16.5'
p2036
sg1490
S'1.3'
p2037
sg40
S'37'
p2038
sg42
S'DAL'
p2039
sg44
S'81'
p2040
sg1495
S'1.5'
p2041
sg1497
S'15.9'
p2042
sg1499
S'3.0'
p2043
sg64
S'1973'
p2044
sg1502
S'1.1'
p2045
sg56
S'2013-14'
p2046
sg1505
S'4.3'
p2047
sba(isrc.gp1.models.Advanced
Advanced
p2048
(dp2049
g1460
S'2.8'
p2050
sg1462
S'9.1'
p2051
sg1464
S'.043'
p2052
sg1466
S'2.1'
p2053
sg1468
S'19.9'
p2054
sg1470
S'7.0'
p2055
sg1472
S'-0.3'
p2056
sg22
S'SG'
p2057
sg1475
S'0.2'
p2058
sg1477
S'.445'
p2059
sg1479
S'11.1'
p2060
sg1481
S'.140'
p2061
sg1483
S'.571'
p2062
sg28
S'NBA'
p2063
sg1486
S'-1.1'
p2064
sg1488
S'11.1'
p2065
sg1490
S'1.4'
p2066
sg40
S'38'
p2067
sg42
S'MEM'
p2068
sg44
S'66'
p2069
sg1495
S'1.1'
p2070
sg1497
S'9.6'
p2071
sg1499
S'-0.5'
p2072
sg64
S'1091'
p2073
sg1502
S'-1.4'
p2074
sg56
S'2014-15'
p2075
sg1505
S'1.0'
p2076
sba(isrc.gp1.models.Advanced
Advanced
p2077
(dp2078
g1460
S'2.6'
p2079
sg1462
S'9.0'
p2080
sg1464
S'.042'
p2081
sg1466
S'1.6'
p2082
sg1468
S'16.7'
p2083
sg1470
S'7.5'
p2084
sg1472
S'-0.9'
p2085
sg22
S'SG'
p2086
sg1475
S'-0.1'
p2087
sg1477
S'.475'
p2088
sg1479
S'12.5'
p2089
sg1481
S'.192'
p2090
sg1483
S'.538'
p2091
sg28
S'NBA'
p2092
sg1486
S'-2.0'
p2093
sg1488
S'7.8'
p2094
sg1490
S'0.4'
p2095
sg40
S'39'
p2096
sg42
S'MEM'
p2097
sg44
S'32'
p2098
sg1495
S'1.9'
p2099
sg1497
S'8.9'
p2100
sg1499
S'0.0'
p2101
sg64
S'424'
p2102
sg1502
S'-3.0'
p2103
sg56
S'2015-16'
p2104
sg1505
S'0.4'
p2105
sbasS'_per36Minutes'
p2106
(lp2107
(isrc.gp1.models.Per36Minutes
Per36Minutes
p2108
(dp2109
g8
S'1.9'
p2110
sg10
S'1.4'
p2111
sg12
S'.450'
p2112
sg14
S'3.0'
p2113
sg16
S'.288'
p2114
sg18
S'0.4'
p2115
sg20
S'18.7'
p2116
sg22
S'SF'
p2117
sg24
S'.761'
p2118
sg28
S'NBA'
p2119
sg30
S'1.1'
p2120
sg32
S'15.7'
p2121
sg34
S'2.9'
p2122
sg36
S'5.5'
p2123
sg38
S'5.8'
p2124
sg40
S'22'
p2125
sg42
S'TOR'
p2126
sg44
S'50'
p2127
sg46
S'1.6'
p2128
sg48
S'6.7'
p2129
sg50
S'4.2'
p2130
sg52
S'14.3'
p2131
sg54
S'3.9'
p2132
sg56
S'1998-99'
p2133
sg58
S'7.1'
p2134
sg60
S'2.3'
p2135
sg62
S'.466'
p2136
sg64
S'1760'
p2137
sg66
S'49'
p2138
sba(isrc.gp1.models.Per36Minutes
Per36Minutes
p2139
(dp2140
g8
S'3.8'
p2141
sg10
S'.403'
p2142
sg12
S'1.1'
p2143
sg14
S'1.3'
p2144
sg16
S'8.0'
p2145
sg18
S'2.7'
p2146
sg20
g76
sg22
S'82'
p2147
sg24
S'1.7'
p2148
sg28
S'SF'
p2149
sg30
S'1.1'
p2150
sg32
S'.465'
p2151
sg34
S'24.3'
p2152
sg36
S'.791'
p2153
sg38
S'3.7'
p2154
sg40
S'TOR'
p2155
sg42
S'NBA'
p2156
sg44
S'82'
p2157
sg46
S'2.0'
p2158
sg48
S'16.8'
p2159
sg50
S'6.3'
p2160
sg52
S'.475'
p2161
sg54
S'5.5'
p2162
sg56
S'23'
p2163
sg58
S'19.5'
p2164
sg60
S'3.0'
p2165
sg62
S'5.0'
p2166
sg64
S'9.1'
p2167
sg66
S'3126'
p2168
sba(isrc.gp1.models.Per36Minutes
Per36Minutes
p2169
(dp2170
g8
S'2.9'
p2171
sg10
S'.408'
p2172
sg12
S'2.0'
p2173
sg14
S'1.4'
p2174
sg16
S'7.3'
p2175
sg18
S'4.8'
p2176
sg20
g76
sg22
S'75'
p2177
sg24
S'2.1'
p2178
sg28
S'SF'
p2179
sg30
S'1.0'
p2180
sg32
S'.460'
p2181
sg34
S'25.0'
p2182
sg36
S'.765'
p2183
sg38
S'3.5'
p2184
sg40
S'TOR'
p2185
sg42
S'NBA'
p2186
sg44
S'75'
p2187
sg46
S'2.0'
p2188
sg48
S'15.2'
p2189
sg50
S'6.1'
p2190
sg52
S'.477'
p2191
sg54
S'5.0'
p2192
sg56
S'24'
p2193
sg58
S'20.0'
p2194
sg60
S'2.5'
p2195
sg62
S'4.6'
p2196
sg64
S'9.2'
p2197
sg66
S'2979'
p2198
sba(isrc.gp1.models.Per36Minutes
Per36Minutes
p2199
(dp2200
g8
S'2.6'
p2201
sg10
S'.387'
p2202
sg12
S'1.8'
p2203
sg14
S'1.4'
p2204
sg16
S'6.6'
p2205
sg18
S'4.7'
p2206
sg20
g76
sg22
S'60'
p2207
sg24
S'2.1'
p2208
sg28
S'SG'
p2209
sg30
S'0.6'
p2210
sg32
S'.428'
p2211
sg34
S'22.4'
p2212
sg36
S'.798'
p2213
sg38
S'3.6'
p2214
sg40
S'TOR'
p2215
sg42
S'NBA'
p2216
sg44
S'60'
p2217
sg46
S'2.3'
p2218
sg48
S'15.0'
p2219
sg50
S'4.6'
p2220
sg52
S'.441'
p2221
sg54
S'4.7'
p2222
sg56
S'25'
p2223
sg58
S'19.7'
p2224
sg60
S'2.9'
p2225
sg62
S'3.7'
p2226
sg64
S'8.4'
p2227
sg66
S'2385'
p2228
sba(isrc.gp1.models.Per36Minutes
Per36Minutes
p2229
(dp2230
g8
S'3.2'
p2231
sg10
S'.344'
p2232
sg12
S'1.1'
p2233
sg14
S'1.2'
p2234
sg16
S'7.6'
p2235
sg18
S'3.2'
p2236
sg20
g76
sg22
S'43'
p2237
sg24
S'1.4'
p2238
sg28
S'SG'
p2239
sg30
S'1.0'
p2240
sg32
S'.467'
p2241
sg34
S'21.6'
p2242
sg36
S'.806'
p2243
sg38
S'3.5'
p2244
sg40
S'TOR'
p2245
sg42
S'NBA'
p2246
sg44
S'42'
p2247
sg46
S'1.8'
p2248
sg48
S'15.4'
p2249
sg50
S'3.9'
p2250
sg52
S'.493'
p2251
sg54
S'4.6'
p2252
sg56
S'26'
p2253
sg58
S'18.6'
p2254
sg60
S'3.0'
p2255
sg62
S'3.2'
p2256
sg64
S'8.7'
p2257
sg66
S'1471'
p2258
sba(isrc.gp1.models.Per36Minutes
Per36Minutes
p2259
(dp2260
g8
S'3.3'
p2261
sg10
S'.383'
p2262
sg12
S'1.2'
p2263
sg14
S'1.1'
p2264
sg16
S'6.7'
p2265
sg18
S'3.1'
p2266
sg20
g76
sg22
S'73'
p2267
sg24
S'1.2'
p2268
sg28
S'SG'
p2269
sg30
S'0.8'
p2270
sg32
S'.417'
p2271
sg34
S'21.3'
p2272
sg36
S'.806'
p2273
sg38
S'4.5'
p2274
sg40
S'TOR'
p2275
sg42
S'NBA'
p2276
sg44
S'73'
p2277
sg46
S'2.9'
p2278
sg48
S'15.7'
p2279
sg50
S'5.4'
p2280
sg52
S'.424'
p2281
sg54
S'4.5'
p2282
sg56
S'27'
p2283
sg58
S'18.8'
p2284
sg60
S'2.7'
p2285
sg62
S'4.3'
p2286
sg64
S'7.9'
p2287
sg66
S'2785'
p2288
sba(isrc.gp1.models.Per36Minutes
Per36Minutes
p2289
(dp2290
g8
S'3.8'
p2291
sg10
S'.406'
p2292
sg12
S'1.6'
p2293
sg14
S'1.4'
p2294
sg16
S'7.2'
p2295
sg18
S'4.0'
p2296
sg20
g76
sg22
S'77'
p2297
sg24
S'1.3'
p2298
sg28
S'SF-SG'
p2299
sg30
S'0.6'
p2300
sg32
S'.452'
p2301
sg34
S'24.0'
p2302
sg36
S'.798'
p2303
sg38
S'4.2'
p2304
sg40
S'TOT'
p2305
sg42
S'NBA'
p2306
sg44
S'76'
p2307
sg46
S'2.1'
p2308
sg48
S'15.6'
p2309
sg50
S'5.9'
p2310
sg52
S'.463'
p2311
sg54
S'5.1'
p2312
sg56
S'28'
p2313
sg58
S'19.6'
p2314
sg60
S'3.1'
p2315
sg62
S'4.7'
p2316
sg64
S'8.9'
p2317
sg66
S'2828'
p2318
sba(isrc.gp1.models.Per36Minutes
Per36Minutes
p2319
(dp2320
g8
S'2.3'
p2321
sg10
S'.322'
p2322
sg12
S'1.1'
p2323
sg14
S'1.5'
p2324
sg16
S'6.2'
p2325
sg18
S'3.5'
p2326
sg20
g76
sg22
S'20'
p2327
sg24
S'1.7'
p2328
sg28
S'SG'
p2329
sg30
S'0.9'
p2330
sg32
S'.411'
p2331
sg34
S'18.8'
p2332
sg36
S'.694'
p2333
sg38
S'3.6'
p2334
sg40
S'TOR'
p2335
sg42
S'NBA'
p2336
sg44
S'20'
p2337
sg46
S'1.3'
p2338
sg48
S'14.4'
p2339
sg50
S'4.3'
p2340
sg52
S'.432'
p2341
sg54
S'3.9'
p2342
sg56
S'28'
p2343
sg58
S'17.9'
p2344
sg60
S'3.3'
p2345
sg62
S'3.0'
p2346
sg64
S'7.3'
p2347
sg66
S'608'
p2348
sba(isrc.gp1.models.Per36Minutes
Per36Minutes
p2349
(dp2350
g8
S'4.2'
p2351
sg10
S'.425'
p2352
sg12
S'1.8'
p2353
sg14
S'1.4'
p2354
sg16
S'7.5'
p2355
sg18
S'4.1'
p2356
sg20
g76
sg22
S'57'
p2357
sg24
S'1.3'
p2358
sg28
S'SF'
p2359
sg30
S'0.5'
p2360
sg32
S'.462'
p2361
sg34
S'25.4'
p2362
sg36
S'.817'
p2363
sg38
S'4.3'
p2364
sg40
S'NJN'
p2365
sg42
S'NBA'
p2366
sg44
S'56'
p2367
sg46
S'2.4'
p2368
sg48
S'16.0'
p2369
sg50
S'6.3'
p2370
sg52
S'.471'
p2371
sg54
S'5.4'
p2372
sg56
S'28'
p2373
sg58
S'20.1'
p2374
sg60
S'3.0'
p2375
sg62
S'5.1'
p2376
sg64
S'9.3'
p2377
sg66
S'2220'
p2378
sba(isrc.gp1.models.Per36Minutes
Per36Minutes
p2379
(dp2380
g8
S'4.1'
p2381
sg10
S'.341'
p2382
sg12
S'1.5'
p2383
sg14
S'1.2'
p2384
sg16
S'6.5'
p2385
sg18
S'4.5'
p2386
sg20
g76
sg22
S'79'
p2387
sg24
S'1.7'
p2388
sg28
S'SG'
p2389
sg30
S'0.7'
p2390
sg32
S'.430'
p2391
sg34
S'23.7'
p2392
sg36
S'.799'
p2393
sg38
S'4.2'
p2394
sg40
S'NJN'
p2395
sg42
S'NBA'
p2396
sg44
S'79'
p2397
sg46
S'2.6'
p2398
sg48
S'14.3'
p2399
sg50
S'7.4'
p2400
sg52
S'.459'
p2401
sg54
S'5.7'
p2402
sg56
S'29'
p2403
sg58
S'18.8'
p2404
sg60
S'2.9'
p2405
sg62
S'5.9'
p2406
sg64
S'8.1'
p2407
sg66
S'2906'
p2408
sba(isrc.gp1.models.Per36Minutes
Per36Minutes
p2409
(dp2410
g8
S'4.4'
p2411
sg10
S'.357'
p2412
sg12
S'1.8'
p2413
sg14
S'0.9'
p2414
sg16
S'6.6'
p2415
sg18
S'5.0'
p2416
sg20
g76
sg22
S'82'
p2417
sg24
S'1.3'
p2418
sg28
S'SG'
p2419
sg30
S'0.3'
p2420
sg32
S'.454'
p2421
sg34
S'23.8'
p2422
sg36
S'.802'
p2423
sg38
S'4.5'
p2424
sg40
S'NJN'
p2425
sg42
S'NBA'
p2426
sg44
S'82'
p2427
sg46
S'2.5'
p2428
sg48
S'13.4'
p2429
sg50
S'6.6'
p2430
sg52
S'.491'
p2431
sg54
S'5.7'
p2432
sg56
S'30'
p2433
sg58
S'18.4'
p2434
sg60
S'3.1'
p2435
sg62
S'5.3'
p2436
sg64
S'8.4'
p2437
sg66
S'3126'
p2438
sba(isrc.gp1.models.Per36Minutes
Per36Minutes
p2439
(dp2440
g8
S'1.4'
p2441
sg10
S'3.3'
p2442
sg12
S'.456'
p2443
sg14
S'4.7'
p2444
sg16
S'.359'
p2445
sg18
S'1.2'
p2446
sg20
S'19.7'
p2447
sg22
S'SG'
p2448
sg24
S'.816'
p2449
sg28
S'NBA'
p2450
sg30
S'1.1'
p2451
sg32
S'15.7'
p2452
sg34
S'2.9'
p2453
sg36
S'5.2'
p2454
sg38
S'5.5'
p2455
sg40
S'31'
p2456
sg42
S'NJN'
p2457
sg44
S'76'
p2458
sg46
S'0.4'
p2459
sg48
S'5.9'
p2460
sg50
S'4.3'
p2461
sg52
S'12.3'
p2462
sg54
S'4.1'
p2463
sg56
S'2007-08'
p2464
sg58
S'7.1'
p2465
sg60
S'2.2'
p2466
sg62
S'.482'
p2467
sg64
S'2959'
p2468
sg66
S'72'
p2469
sba(isrc.gp1.models.Per36Minutes
Per36Minutes
p2470
(dp2471
g8
S'0.9'
p2472
sg10
S'4.8'
p2473
sg12
S'.437'
p2474
sg14
S'4.6'
p2475
sg16
S'.385'
p2476
sg18
S'1.8'
p2477
sg20
S'20.3'
p2478
sg22
S'SG'
p2479
sg24
S'.817'
p2480
sg28
S'NBA'
p2481
sg30
S'1.0'
p2482
sg32
S'16.4'
p2483
sg34
S'2.9'
p2484
sg36
S'5.0'
p2485
sg38
S'5.0'
p2486
sg40
S'32'
p2487
sg42
S'NJN'
p2488
sg44
S'80'
p2489
sg46
S'0.5'
p2490
sg48
S'5.3'
p2491
sg50
S'4.1'
p2492
sg52
S'11.6'
p2493
sg54
S'4.1'
p2494
sg56
S'2008-09'
p2495
sg58
S'7.2'
p2496
sg60
S'2.0'
p2497
sg62
S'.459'
p2498
sg64
S'2946'
p2499
sg66
S'80'
p2500
sba(isrc.gp1.models.Per36Minutes
Per36Minutes
p2501
(dp2502
g8
S'0.5'
p2503
sg10
S'5.0'
p2504
sg12
S'.428'
p2505
sg14
S'3.7'
p2506
sg16
S'.367'
p2507
sg18
S'1.9'
p2508
sg20
S'19.4'
p2509
sg22
S'SG'
p2510
sg24
S'.840'
p2511
sg28
S'NBA'
p2512
sg30
S'0.8'
p2513
sg32
S'15.8'
p2514
sg34
S'2.9'
p2515
sg36
S'4.8'
p2516
sg38
S'4.6'
p2517
sg40
S'33'
p2518
sg42
S'ORL'
p2519
sg44
S'75'
p2520
sg46
S'0.3'
p2521
sg48
S'4.9'
p2522
sg50
S'4.0'
p2523
sg52
S'10.8'
p2524
sg54
S'4.1'
p2525
sg56
S'2009-10'
p2526
sg58
S'6.8'
p2527
sg60
S'1.7'
p2528
sg62
S'.456'
p2529
sg64
S'2310'
p2530
sg66
S'74'
p2531
sba(isrc.gp1.models.Per36Minutes
Per36Minutes
p2532
(dp2533
g8
S'0.9'
p2534
sg10
S'5.6'
p2535
sg12
S'.437'
p2536
sg14
S'2.6'
p2537
sg16
S'.361'
p2538
sg18
S'2.0'
p2539
sg20
S'17.9'
p2540
sg22
S'SG'
p2541
sg24
S'.740'
p2542
sg28
S'NBA'
p2543
sg30
S'1.2'
p2544
sg32
S'15.6'
p2545
sg34
S'3.4'
p2546
sg36
S'3.0'
p2547
sg38
S'4.8'
p2548
sg40
S'34'
p2549
sg42
S'TOT'
p2550
sg44
S'73'
p2551
sg46
S'0.4'
p2552
sg48
S'4.8'
p2553
sg50
S'2.2'
p2554
sg52
S'10.0'
p2555
sg54
S'3.9'
p2556
sg56
S'2010-11'
p2557
sg58
S'6.8'
p2558
sg60
S'1.6'
p2559
sg62
S'.479'
p2560
sg64
S'2051'
p2561
sg66
S'63'
p2562
sba(isrc.gp1.models.Per36Minutes
Per36Minutes
p2563
(dp2564
g8
S'0.6'
p2565
sg10
S'4.2'
p2566
sg12
S'.470'
p2567
sg14
S'3.5'
p2568
sg16
S'.346'
p2569
sg18
S'1.5'
p2570
sg20
S'18.1'
p2571
sg22
S'SG'
p2572
sg24
S'.747'
p2573
sg28
S'NBA'
p2574
sg30
S'1.1'
p2575
sg32
S'14.4'
p2576
sg34
S'3.8'
p2577
sg36
S'4.1'
p2578
sg38
S'4.9'
p2579
sg40
S'34'
p2580
sg42
S'ORL'
p2581
sg44
S'22'
p2582
sg46
S'0.2'
p2583
sg48
S'5.3'
p2584
sg50
S'3.0'
p2585
sg52
S'10.2'
p2586
sg54
S'4.3'
p2587
sg56
S'2010-11'
p2588
sg58
S'6.8'
p2589
sg60
S'2.0'
p2590
sg62
S'.521'
p2591
sg64
S'664'
p2592
sg66
S'22'
p2593
sba(isrc.gp1.models.Per36Minutes
Per36Minutes
p2594
(dp2595
g8
S'1.1'
p2596
sg10
S'6.3'
p2597
sg12
S'.422'
p2598
sg14
S'2.1'
p2599
sg16
S'.366'
p2600
sg18
S'2.3'
p2601
sg20
S'17.9'
p2602
sg22
S'SG'
p2603
sg24
S'.735'
p2604
sg28
S'NBA'
p2605
sg30
S'1.2'
p2606
sg32
S'16.2'
p2607
sg34
S'3.2'
p2608
sg36
S'2.5'
p2609
sg38
S'4.8'
p2610
sg40
S'34'
p2611
sg42
S'PHO'
p2612
sg44
S'51'
p2613
sg46
S'0.4'
p2614
sg48
S'4.5'
p2615
sg50
S'1.9'
p2616
sg52
S'9.9'
p2617
sg54
S'3.7'
p2618
sg56
S'2010-11'
p2619
sg58
S'6.9'
p2620
sg60
S'1.4'
p2621
sg62
S'.458'
p2622
sg64
S'1387'
p2623
sg66
S'41'
p2624
sba(isrc.gp1.models.Per36Minutes
Per36Minutes
p2625
(dp2626
g8
S'0.7'
p2627
sg10
S'4.8'
p2628
sg12
S'.411'
p2629
sg14
S'3.2'
p2630
sg16
S'.361'
p2631
sg18
S'1.7'
p2632
sg20
S'14.4'
p2633
sg22
S'SG'
p2634
sg24
S'.826'
p2635
sg28
S'NBA'
p2636
sg30
S'1.3'
p2637
sg32
S'12.7'
p2638
sg34
S'3.1'
p2639
sg36
S'2.7'
p2640
sg38
S'4.8'
p2641
sg40
S'35'
p2642
sg42
S'DAL'
p2643
sg44
S'61'
p2644
sg46
S'0.6'
p2645
sg48
S'3.5'
p2646
sg50
S'2.2'
p2647
sg52
S'7.9'
p2648
sg54
S'4.0'
p2649
sg56
S'2011-12'
p2650
sg58
S'5.2'
p2651
sg60
S'2.0'
p2652
sg62
S'.442'
p2653
sg64
S'1542'
p2654
sg66
S'40'
p2655
sba(isrc.gp1.models.Per36Minutes
Per36Minutes
p2656
(dp2657
g8
S'1.0'
p2658
sg10
S'6.9'
p2659
sg12
S'.435'
p2660
sg14
S'3.3'
p2661
sg16
S'.406'
p2662
sg18
S'2.8'
p2663
sg20
S'18.7'
p2664
sg22
S'SF'
p2665
sg24
S'.816'
p2666
sg28
S'NBA'
p2667
sg30
S'1.3'
p2668
sg32
S'14.7'
p2669
sg34
S'3.9'
p2670
sg36
S'3.8'
p2671
sg38
S'5.7'
p2672
sg40
S'36'
p2673
sg42
S'DAL'
p2674
sg44
S'81'
p2675
sg46
S'0.8'
p2676
sg48
S'3.6'
p2677
sg50
S'3.1'
p2678
sg52
S'7.8'
p2679
sg54
S'4.7'
p2680
sg56
S'2012-13'
p2681
sg58
S'6.4'
p2682
sg60
S'1.8'
p2683
sg62
S'.461'
p2684
sg64
S'2093'
p2685
sg66
g528
sba(isrc.gp1.models.Per36Minutes
Per36Minutes
p2686
(dp2687
g8
S'1.2'
p2688
sg10
S'6.8'
p2689
sg12
S'.407'
p2690
sg14
S'3.9'
p2691
sg16
S'.394'
p2692
sg18
S'2.7'
p2693
sg20
S'17.6'
p2694
sg22
S'SG'
p2695
sg24
S'.821'
p2696
sg28
S'NBA'
p2697
sg30
S'1.1'
p2698
sg32
S'14.8'
p2699
sg34
S'3.8'
p2700
sg36
S'3.6'
p2701
sg38
S'5.2'
p2702
sg40
S'37'
p2703
sg42
S'DAL'
p2704
sg44
S'81'
p2705
sg46
S'0.6'
p2706
sg48
S'3.4'
p2707
sg50
S'2.9'
p2708
sg52
S'8.0'
p2709
sg54
S'4.0'
p2710
sg56
S'2013-14'
p2711
sg58
S'6.0'
p2712
sg60
S'2.0'
p2713
sg62
S'.418'
p2714
sg64
S'1973'
p2715
sg66
g665
sba(isrc.gp1.models.Per36Minutes
Per36Minutes
p2716
(dp2717
g8
S'0.9'
p2718
sg10
S'7.7'
p2719
sg12
S'.333'
p2720
sg14
S'2.6'
p2721
sg16
S'.297'
p2722
sg18
S'2.3'
p2723
sg20
S'12.7'
p2724
sg22
S'SG'
p2725
sg24
S'.789'
p2726
sg28
S'NBA'
p2727
sg30
S'1.4'
p2728
sg32
S'13.4'
p2729
sg34
S'3.4'
p2730
sg36
S'1.9'
p2731
sg38
S'4.4'
p2732
sg40
S'38'
p2733
sg42
S'MEM'
p2734
sg44
S'66'
p2735
sg46
S'0.5'
p2736
sg48
S'2.2'
p2737
sg50
S'1.5'
p2738
sg52
S'5.7'
p2739
sg54
S'3.5'
p2740
sg56
S'2014-15'
p2741
sg58
S'4.5'
p2742
sg60
S'1.4'
p2743
sg62
S'.379'
p2744
sg64
S'1091'
p2745
sg66
g697
sba(isrc.gp1.models.Per36Minutes
Per36Minutes
p2746
(dp2747
g8
S'0.8'
p2748
sg10
S'5.9'
p2749
sg12
S'.362'
p2750
sg14
S'1.8'
p2751
sg16
S'.271'
p2752
sg18
S'1.6'
p2753
sg20
S'11.4'
p2754
sg22
S'SG'
p2755
sg24
S'.840'
p2756
sg28
S'NBA'
p2757
sg30
S'1.1'
p2758
sg32
S'11.0'
p2759
sg34
S'4.2'
p2760
sg36
S'2.1'
p2761
sg38
S'4.7'
p2762
sg40
S'39'
p2763
sg42
S'MEM'
p2764
sg44
S'32'
p2765
sg46
S'0.8'
p2766
sg48
S'2.4'
p2767
sg50
S'1.8'
p2768
sg52
S'5.1'
p2769
sg54
S'3.8'
p2770
sg56
S'2015-16'
p2771
sg58
S'4.0'
p2772
sg60
S'1.2'
p2773
sg62
S'.467'
p2774
sg64
S'424'
p2775
sg66
g665
sbasS'_fromYear'
p2776
S'1999'
p2777
sS'_url'
p2778
S'http://www.basketball-reference.com/players/c/cartevi01.html'
p2779
sS'_perGame'
p2780
(isrc.gp1.models.PerGame
PerGame
p2781
(dp2782
g8
S'0.3'
p2783
sg10
S'2.2'
p2784
sg12
S'.362'
p2785
sS'_effectiveFieldGalPercentage'
p2786
S'.435'
p2787
sg14
S'0.7'
p2788
sg16
S'.271'
p2789
sg18
S'0.6'
p2790
sg20
S'4.2'
p2791
sg22
S'SG'
p2792
sg24
S'.840'
p2793
sg28
S'NBA'
p2794
sg30
S'0.4'
p2795
sg34
S'1.5'
p2796
sS'_fieldGoalsttempted'
p2797
S'4.1'
p2798
sg36
S'0.8'
p2799
sg38
S'1.7'
p2800
sg40
S'39'
p2801
sg42
S'MEM'
p2802
sg44
S'32'
p2803
sg46
S'0.3'
p2804
sg48
S'0.9'
p2805
sg50
S'0.7'
p2806
sg52
S'1.9'
p2807
sg54
S'1.4'
p2808
sg56
S'2015-16'
p2809
sg58
S'1.5'
p2810
sg60
S'0.4'
p2811
sg62
S'.467'
p2812
sg64
S'13.3'
p2813
sg66
g665
sbsS'_weight'
p2814
S'220'
p2815
sS'_dob'
p2816
S'26-1-1977'
p2817
sS'_salary'
p2818
(lp2819
(isrc.gp1.models.Salary
Salary
p2820
(dp2821
g42
S'Toronto Raptors'
p2822
sg28
S'NBA'
p2823
sg2818
S'$1,760,000'
p2824
sg56
S'1998-99'
p2825
sba(isrc.gp1.models.Salary
Salary
p2826
(dp2827
g42
S'Toronto Raptors'
p2828
sg28
S'NBA'
p2829
sg2818
S'$2,267,280'
p2830
sg56
S'1999-00'
p2831
sba(isrc.gp1.models.Salary
Salary
p2832
(dp2833
g42
S'Toronto Raptors'
p2834
sg28
S'NBA'
p2835
sg2818
S'$2,425,440'
p2836
sg56
S'2000-01'
p2837
sba(isrc.gp1.models.Salary
Salary
p2838
(dp2839
g42
S'Toronto Raptors'
p2840
sg28
S'NBA'
p2841
sg2818
S'$3,073,032'
p2842
sg56
S'2001-02'
p2843
sba(isrc.gp1.models.Salary
Salary
p2844
(dp2845
g42
S'Toronto Raptors'
p2846
sg28
S'NBA'
p2847
sg2818
S'$10,067,750'
p2848
sg56
S'2002-03'
p2849
sba(isrc.gp1.models.Salary
Salary
p2850
(dp2851
g42
S'Toronto Raptors'
p2852
sg28
S'NBA'
p2853
sg2818
S'$11,326,219'
p2854
sg56
S'2003-04'
p2855
sba(isrc.gp1.models.Salary
Salary
p2856
(dp2857
g42
S'New Jersey Nets'
p2858
sg28
S'NBA'
p2859
sg2818
S'$12,584,688'
p2860
sg56
S'2004-05'
p2861
sba(isrc.gp1.models.Salary
Salary
p2862
(dp2863
g42
S'New Jersey Nets'
p2864
sg28
S'NBA'
p2865
sg2818
S'$13,843,156'
p2866
sg56
S'2005-06'
p2867
sba(isrc.gp1.models.Salary
Salary
p2868
(dp2869
g42
S'New Jersey Nets'
p2870
sg28
S'NBA'
p2871
sg2818
S'$15,101,625'
p2872
sg56
S'2006-07'
p2873
sba(isrc.gp1.models.Salary
Salary
p2874
(dp2875
g42
S'New Jersey Nets'
p2876
sg28
S'NBA'
p2877
sg2818
S'$13,320,000'
p2878
sg56
S'2007-08'
p2879
sba(isrc.gp1.models.Salary
Salary
p2880
(dp2881
g42
S'New Jersey Nets'
p2882
sg28
S'NBA'
p2883
sg2818
S'$14,724,125'
p2884
sg56
S'2008-09'
p2885
sba(isrc.gp1.models.Salary
Salary
p2886
(dp2887
g42
S'Orlando Magic'
p2888
sg28
S'NBA'
p2889
sg2818
S'$16,300,000'
p2890
sg56
S'2009-10'
p2891
sba(isrc.gp1.models.Salary
Salary
p2892
(dp2893
g42
S'Phoenix Suns'
p2894
sg28
S'NBA'
p2895
sg2818
S'$17,300,000'
p2896
sg56
S'2010-11'
p2897
sba(isrc.gp1.models.Salary
Salary
p2898
(dp2899
g42
S'Phoenix Suns'
p2900
sg28
S'NBA'
p2901
sg2818
S'$18,300,000'
p2902
sg56
S'2011-12'
p2903
sba(isrc.gp1.models.Salary
Salary
p2904
(dp2905
g42
S'Dallas Mavericks'
p2906
sg28
S'NBA'
p2907
sg2818
S'$3,000,000'
p2908
sg56
S'2011-12'
p2909
sba(isrc.gp1.models.Salary
Salary
p2910
(dp2911
g42
S'Dallas Mavericks'
p2912
sg28
S'NBA'
p2913
sg2818
S'$3,090,000'
p2914
sg56
S'2012-13'
p2915
sba(isrc.gp1.models.Salary
Salary
p2916
(dp2917
g42
S'Dallas Mavericks'
p2918
sg28
S'NBA'
p2919
sg2818
S'$3,180,000'
p2920
sg56
S'2013-14'
p2921
sba(isrc.gp1.models.Salary
Salary
p2922
(dp2923
g42
S'Memphis Grizzlies'
p2924
sg28
S'NBA'
p2925
sg2818
S'$3,911,981'
p2926
sg56
S'2014-15'
p2927
sbasg22
S'G-F'
p2928
sb.