(isrc.gp1.models.Player
Player
p0
(dp1
S'_experience'
p2
S'NA'
p3
sS'_totals'
p4
(lp5
(isrc.gp1.models.Totals
Totals
p6
(dp7
S'_offensiveRebounds'
p8
S'182'
p9
sS'_threePointsAttempted'
p10
S'4'
p11
sS'_fieldGoalsPercentage'
p12
S'.497'
p13
sS'_assist'
p14
S'176'
p15
sS'_threePointsPercentage'
p16
S'.250'
p17
sS'_threePoints'
p18
S'1'
p19
sS'_points'
p20
S'1732'
p21
sS'_position'
p22
S'PF'
p23
sS'_freeThrowsPercentage'
p24
S'.716'
p25
sS'_effectiveFieldGoalPercentage'
p26
S'.497'
p27
sS'_league'
p28
S'NBA'
p29
sS'_steals'
p30
S'89'
p31
sS'_fieldGoalsAttempted'
p32
S'1448'
p33
sS'_personalFouls'
p34
S'308'
p35
sS'_freeThrowsAttempted'
p36
S'409'
p37
sS'_totalRebounds'
p38
S'565'
p39
sS'_age'
p40
S'22'
p41
sS'_team'
p42
S'DAL'
p43
sS'_games'
p44
S'81'
p45
sS'_blocks'
p46
S'22'
p47
sS'_twoPoints'
p48
S'718'
p49
sS'_freeThrows'
p50
S'293'
p51
sS'_twoPointsAttempted'
p52
S'1444'
p53
sS'_defensiveRebounds'
p54
S'383'
p55
sS'_season'
p56
S'1981-82'
p57
sS'_fieldGoals'
p58
S'719'
p59
sS'_turnOvers'
p60
S'194'
p61
sS'_twoPointsPercentage'
p62
S'.497'
p63
sS'_minutesPlayed'
p64
S'2626'
p65
sS'_gamesStarted'
p66
S'62'
p67
sba(isrc.gp1.models.Totals
Totals
p68
(dp69
g8
S'217'
p70
sg10
S'3'
p71
sg12
S'.489'
p72
sg14
S'212'
p73
sg16
S'.000'
p74
sg18
S'0'
p75
sg20
S'1513'
p76
sg22
S'PF'
p77
sg24
S'.784'
p78
sg26
S'.489'
p79
sg28
S'NBA'
p80
sg30
S'70'
p81
sg32
S'1272'
p82
sg34
S'295'
p83
sg36
S'343'
p84
sg38
S'592'
p85
sg40
S'23'
p86
sg42
S'DAL'
p87
sg44
S'81'
p88
sg46
S'45'
p89
sg48
S'622'
p90
sg50
S'269'
p91
sg52
S'1269'
p92
sg54
S'375'
p93
sg56
S'1982-83'
p94
sg58
S'622'
p95
sg60
S'188'
p96
sg62
S'.490'
p97
sg64
S'2726'
p98
sg66
S'73'
p99
sba(isrc.gp1.models.Totals
Totals
p100
(dp101
g8
S'81'
p102
sg10
g19
sg12
S'.435'
p103
sg14
S'114'
p104
sg16
S'.000'
p105
sg18
g75
sg20
S'672'
p106
sg22
S'SF'
p107
sg24
S'.781'
p108
sg26
S'.435'
p109
sg28
S'NBA'
p110
sg30
S'30'
p111
sg32
S'579'
p112
sg34
S'159'
p113
sg36
S'215'
p114
sg38
S'247'
p115
sg40
S'24'
p116
sg42
S'DAL'
p117
sg44
S'61'
p118
sg46
S'10'
p119
sg48
S'252'
p120
sg50
S'168'
p121
sg52
S'578'
p122
sg54
S'166'
p123
sg56
S'1983-84'
p124
sg58
S'252'
p125
sg60
S'113'
p126
sg62
S'.436'
p127
sg64
S'1421'
p128
sg66
S'5'
p129
sba(isrc.gp1.models.Totals
Totals
p130
(dp131
g8
S'185'
p132
sg10
g11
sg12
S'.479'
p133
sg14
S'169'
p134
sg16
S'.000'
p135
sg18
g75
sg20
S'1441'
p136
sg22
S'PF'
p137
sg24
S'.836'
p138
sg26
S'.479'
p139
sg28
S'NBA'
p140
sg30
S'48'
p141
sg32
S'1138'
p142
sg34
S'226'
p143
sg36
S'420'
p144
sg38
S'704'
p145
sg40
S'25'
p146
sg42
S'DAL'
p147
sg44
S'79'
p148
sg46
S'22'
p149
sg48
S'545'
p150
sg50
S'351'
p151
sg52
S'1134'
p152
sg54
S'519'
p153
sg56
S'1984-85'
p154
sg58
S'545'
p155
sg60
S'170'
p156
sg62
S'.481'
p157
sg64
S'2543'
p158
sg66
S'47'
p159
sba(isrc.gp1.models.Totals
Totals
p160
(dp161
g8
S'107'
p162
sg10
g71
sg12
S'.481'
p163
sg14
S'180'
p164
sg16
S'.000'
p165
sg18
g75
sg20
S'1106'
p166
sg22
S'PF'
p167
sg24
S'.810'
p168
sg26
S'.481'
p169
sg28
S'NBA'
p170
sg30
S'66'
p171
sg32
S'919'
p172
sg34
S'193'
p173
sg36
S'274'
p174
sg38
S'368'
p175
sg40
S'26'
p176
sg42
S'DAL'
p177
sg44
S'80'
p178
sg46
S'21'
p179
sg48
S'442'
p180
sg50
S'222'
p181
sg52
S'916'
p182
sg54
S'261'
p183
sg56
S'1985-86'
p184
sg58
S'442'
p185
sg60
S'145'
p186
sg62
S'.483'
p187
sg64
S'1994'
p188
sg66
g71
sba(isrc.gp1.models.Totals
Totals
p189
(dp190
g8
S'69'
p191
sg10
g71
sg12
S'.447'
p192
sg14
S'85'
p193
sg16
S'.000'
p194
sg18
g75
sg20
S'678'
p195
sg22
S'SF'
p196
sg24
S'.769'
p197
sg26
S'.447'
p198
sg28
S'NBA'
p199
sg30
S'40'
p200
sg32
S'613'
p201
sg34
S'127'
p202
sg36
S'169'
p203
sg38
S'210'
p204
sg40
S'27'
p205
sg42
S'WSB'
p206
sg44
S'51'
p207
sg46
S'17'
p208
sg48
S'274'
p209
sg50
S'130'
p210
sg52
S'610'
p211
sg54
S'141'
p212
sg56
S'1986-87'
p213
sg58
S'274'
p214
sg60
S'77'
p215
sg62
S'.449'
p216
sg64
S'1386'
p217
sg66
S'17'
p218
sba(isrc.gp1.models.Totals
Totals
p219
(dp220
g8
S'80'
p221
sg10
g11
sg12
S'.466'
p222
sg14
S'143'
p223
sg16
S'.250'
p224
sg18
g19
sg20
S'1124'
p225
sg22
S'SF'
p226
sg24
S'.805'
p227
sg26
S'.466'
p228
sg28
S'NBA'
p229
sg30
S'46'
p230
sg32
S'958'
p231
sg34
S'198'
p232
sg36
S'287'
p233
sg38
S'309'
p234
sg40
S'28'
p235
sg42
S'DEN'
p236
sg44
S'73'
p237
sg46
S'26'
p238
sg48
S'445'
p239
sg50
S'231'
p240
sg52
S'954'
p241
sg54
S'229'
p242
sg56
S'1987-88'
p243
sg58
S'446'
p244
sg60
S'137'
p245
sg62
S'.466'
p246
sg64
S'1755'
p247
sg66
S'8'
p248
sba(isrc.gp1.models.Totals
Totals
p249
(dp250
g8
S'38'
p251
sg10
g71
sg12
S'.405'
p252
sg14
S'27'
p253
sg16
S'.333'
p254
sg18
g19
sg20
S'249'
p255
sg22
S'SF'
p256
sg24
S'.667'
p257
sg26
S'.407'
p258
sg28
S'NBA'
p259
sg30
S'6'
p260
sg32
S'257'
p261
sg34
S'63'
p262
sg36
S'60'
p263
sg38
S'110'
p264
sg40
S'29'
p265
sg42
S'TOT'
p266
sg44
S'29'
p267
sg46
g11
sg48
S'103'
p268
sg50
S'40'
p269
sg52
S'254'
p270
sg54
S'72'
p271
sg56
S'1988-89'
p272
sg58
S'104'
p273
sg60
S'42'
p274
sg62
S'.406'
p275
sg64
S'646'
p276
sg66
g11
sba(isrc.gp1.models.Totals
Totals
p277
(dp278
g8
S'2'
p279
sg10
g279
sg12
S'.342'
p280
sg14
g129
sg16
S'.500'
p281
sg18
g19
sg20
S'32'
p282
sg22
S'SF'
p283
sg24
S'.556'
p284
sg26
S'.355'
p285
sg28
S'NBA'
p286
sg30
g19
sg32
S'38'
p287
sg34
S'11'
p288
sg36
S'9'
p289
sg38
S'18'
p290
sg40
S'29'
p291
sg42
S'DEN'
p292
sg44
g129
sg46
g19
sg48
S'12'
p293
sg50
g129
sg52
S'36'
p294
sg54
S'16'
p295
sg56
S'1988-89'
p296
sg58
S'13'
p297
sg60
g129
sg62
S'.333'
p298
sg64
S'95'
p299
sg66
g19
sba(isrc.gp1.models.Totals
Totals
p300
(dp301
g8
S'36'
p302
sg10
g19
sg12
S'.416'
p303
sg14
S'22'
p304
sg16
S'.000'
p305
sg18
g75
sg20
S'217'
p306
sg22
S'SF'
p307
sg24
S'.686'
p308
sg26
S'.416'
p309
sg28
S'NBA'
p310
sg30
g129
sg32
S'219'
p311
sg34
S'52'
p312
sg36
S'51'
p313
sg38
S'92'
p314
sg40
S'29'
p315
sg42
S'SAS'
p316
sg44
S'24'
p317
sg46
g71
sg48
S'91'
p318
sg50
S'35'
p319
sg52
S'218'
p320
sg54
S'56'
p321
sg56
S'1988-89'
p322
sg58
S'91'
p323
sg60
S'37'
p324
sg62
S'.417'
p325
sg64
S'551'
p326
sg66
g71
sba(isrc.gp1.models.Totals
Totals
p327
(dp328
g8
S'20'
p329
sg10
g279
sg12
S'.470'
p330
sg14
S'18'
p331
sg16
S'.500'
p332
sg18
g19
sg20
S'214'
p333
sg22
S'SF'
p334
sg24
S'.837'
p335
sg26
S'.473'
p336
sg28
S'NBA'
p337
sg30
S'18'
p338
sg32
S'183'
p339
sg34
S'52'
p340
sg36
S'49'
p341
sg38
S'62'
p342
sg40
S'30'
p343
sg42
S'TOT'
p344
sg44
S'41'
p345
sg46
g129
sg48
S'85'
p346
sg50
S'41'
p347
sg52
S'181'
p348
sg54
S'42'
p349
sg56
S'1989-90'
p350
sg58
S'86'
p351
sg60
S'33'
p352
sg62
S'.470'
p353
sg64
S'459'
p354
sg66
g260
sba(isrc.gp1.models.Totals
Totals
p355
(dp356
g8
S'13'
p357
sg10
g19
sg12
S'.429'
p358
sg14
g248
sg16
S'1.000'
p359
sg18
g19
sg20
S'124'
p360
sg22
S'SF'
p361
sg24
S'.892'
p362
sg26
S'.433'
p363
sg28
S'NBA'
p364
sg30
S'10'
p365
sg32
S'105'
p366
sg34
S'23'
p367
sg36
S'37'
p368
sg38
S'36'
p369
sg40
S'30'
p370
sg42
S'PHI'
p371
sg44
S'17'
p372
sg46
g279
sg48
S'44'
p373
sg50
S'33'
p374
sg52
S'104'
p375
sg54
S'23'
p376
sg56
S'1989-90'
p377
sg58
S'45'
p378
sg60
S'14'
p379
sg62
S'.423'
p380
sg64
S'259'
p381
sg66
g129
sba(isrc.gp1.models.Totals
Totals
p382
(dp383
g8
S'7'
p384
sg10
g19
sg12
S'.526'
p385
sg14
S'10'
p386
sg16
S'.000'
p387
sg18
g75
sg20
S'90'
p388
sg22
S'SF'
p389
sg24
S'.667'
p390
sg26
S'.526'
p391
sg28
S'NBA'
p392
sg30
g248
sg32
S'78'
p393
sg34
S'29'
p394
sg36
S'12'
p395
sg38
S'26'
p396
sg40
S'30'
p397
sg42
S'LAL'
p398
sg44
S'24'
p399
sg46
g71
sg48
S'41'
p400
sg50
g248
sg52
S'77'
p401
sg54
S'19'
p402
sg56
S'1989-90'
p403
sg58
S'41'
p404
sg60
S'19'
p405
sg62
S'.532'
p406
sg64
S'200'
p407
sg66
g19
sbasS'_college'
p408
S'Michigan State University'
p409
sS'_toYear'
p410
S'1990'
p411
sS'_height'
p412
S'6-7'
p413
sS'_active'
p414
I00
sS'_shootingHand'
p415
VRight
p416
sS'_name'
p417
S'Jay Vincent'
p418
sS'_per100Possessions'
p419
(lp420
(isrc.gp1.models.Per100Possession
Per100Possession
p421
(dp422
g8
S'3.4'
p423
sg10
S'0.1'
p424
sg12
S'.497'
p425
sS'_offensiveRating'
p426
S'107'
p427
sg14
S'3.3'
p428
sg16
S'.250'
p429
sg18
S'0.0'
p430
sg20
S'32.1'
p431
sg22
S'PF'
p432
sS'_defensiveRating'
p433
S'109'
p434
sg24
S'.716'
p435
sg28
S'NBA'
p436
sg30
S'1.7'
p437
sg32
S'26.9'
p438
sg34
S'5.7'
p439
sg36
S'7.6'
p440
sg38
S'10.5'
p441
sg40
S'22'
p442
sg42
S'DAL'
p443
sg44
S'81'
p444
sg46
S'0.4'
p445
sg48
S'13.3'
p446
sg50
S'5.4'
p447
sg52
S'26.8'
p448
sg54
S'7.1'
p449
sg56
S'1981-82'
p450
sg58
S'13.3'
p451
sg60
S'3.6'
p452
sg62
S'.497'
p453
sg64
S'2626'
p454
sg66
S'62'
p455
sba(isrc.gp1.models.Per100Possession
Per100Possession
p456
(dp457
g8
S'3.7'
p458
sg10
S'0.1'
p459
sg12
S'.489'
p460
sg426
S'109'
p461
sg14
S'3.6'
p462
sg16
S'.000'
p463
sg18
S'0.0'
p464
sg20
S'25.9'
p465
sg22
S'PF'
p466
sg433
S'109'
p467
sg24
S'.784'
p468
sg28
S'NBA'
p469
sg30
S'1.2'
p470
sg32
S'21.8'
p471
sg34
S'5.1'
p472
sg36
S'5.9'
p473
sg38
S'10.1'
p474
sg40
S'23'
p475
sg42
S'DAL'
p476
sg44
S'81'
p477
sg46
S'0.8'
p478
sg48
S'10.7'
p479
sg50
S'4.6'
p480
sg52
S'21.7'
p481
sg54
S'6.4'
p482
sg56
S'1982-83'
p483
sg58
S'10.7'
p484
sg60
S'3.2'
p485
sg62
S'.490'
p486
sg64
S'2726'
p487
sg66
S'73'
p488
sba(isrc.gp1.models.Per100Possession
Per100Possession
p489
(dp490
g8
S'2.8'
p491
sg10
S'0.0'
p492
sg12
S'.435'
p493
sg426
S'100'
p494
sg14
S'3.9'
p495
sg16
S'.000'
p496
sg18
S'0.0'
p497
sg20
S'22.9'
p498
sg22
S'SF'
p499
sg433
S'111'
p500
sg24
S'.781'
p501
sg28
S'NBA'
p502
sg30
S'1.0'
p503
sg32
S'19.8'
p504
sg34
S'5.4'
p505
sg36
S'7.3'
p506
sg38
S'8.4'
p507
sg40
S'24'
p508
sg42
S'DAL'
p509
sg44
S'61'
p510
sg46
S'0.3'
p511
sg48
S'8.6'
p512
sg50
S'5.7'
p513
sg52
S'19.7'
p514
sg54
S'5.7'
p515
sg56
S'1983-84'
p516
sg58
S'8.6'
p517
sg60
S'3.9'
p518
sg62
S'.436'
p519
sg64
S'1421'
p520
sg66
g129
sba(isrc.gp1.models.Per100Possession
Per100Possession
p521
(dp522
g8
S'3.5'
p523
sg10
S'0.1'
p524
sg12
S'.479'
p525
sg426
S'110'
p526
sg14
S'3.2'
p527
sg16
S'.000'
p528
sg18
S'0.0'
p529
sg20
S'27.5'
p530
sg22
S'PF'
p531
sg433
S'108'
p532
sg24
S'.836'
p533
sg28
S'NBA'
p534
sg30
S'0.9'
p535
sg32
S'21.7'
p536
sg34
S'4.3'
p537
sg36
S'8.0'
p538
sg38
S'13.4'
p539
sg40
S'25'
p540
sg42
S'DAL'
p541
sg44
S'79'
p542
sg46
S'0.4'
p543
sg48
S'10.4'
p544
sg50
S'6.7'
p545
sg52
S'21.7'
p546
sg54
S'9.9'
p547
sg56
S'1984-85'
p548
sg58
S'10.4'
p549
sg60
S'3.2'
p550
sg62
S'.481'
p551
sg64
S'2543'
p552
sg66
S'47'
p553
sba(isrc.gp1.models.Per100Possession
Per100Possession
p554
(dp555
g8
S'2.5'
p556
sg10
S'0.1'
p557
sg12
S'.481'
p558
sg426
S'106'
p559
sg14
S'4.2'
p560
sg16
S'.000'
p561
sg18
S'0.0'
p562
sg20
S'26.1'
p563
sg22
S'PF'
p564
sg433
S'111'
p565
sg24
S'.810'
p566
sg28
S'NBA'
p567
sg30
S'1.6'
p568
sg32
S'21.6'
p569
sg34
S'4.5'
p570
sg36
S'6.5'
p571
sg38
S'8.7'
p572
sg40
S'26'
p573
sg42
S'DAL'
p574
sg44
S'80'
p575
sg46
S'0.5'
p576
sg48
S'10.4'
p577
sg50
S'5.2'
p578
sg52
S'21.6'
p579
sg54
S'6.1'
p580
sg56
S'1985-86'
p581
sg58
S'10.4'
p582
sg60
S'3.4'
p583
sg62
S'.483'
p584
sg64
S'1994'
p585
sg66
g71
sba(isrc.gp1.models.Per100Possession
Per100Possession
p586
(dp587
g8
S'2.4'
p588
sg10
S'0.1'
p589
sg12
S'.447'
p590
sg426
S'104'
p591
sg14
S'2.9'
p592
sg16
S'.000'
p593
sg18
S'0.0'
p594
sg20
S'23.4'
p595
sg22
S'SF'
p596
sg433
S'109'
p597
sg24
S'.769'
p598
sg28
S'NBA'
p599
sg30
S'1.4'
p600
sg32
S'21.2'
p601
sg34
S'4.4'
p602
sg36
S'5.8'
p603
sg38
S'7.3'
p604
sg40
S'27'
p605
sg42
S'WSB'
p606
sg44
S'51'
p607
sg46
S'0.6'
p608
sg48
S'9.5'
p609
sg50
S'4.5'
p610
sg52
S'21.1'
p611
sg54
S'4.9'
p612
sg56
S'1986-87'
p613
sg58
S'9.5'
p614
sg60
S'2.7'
p615
sg62
S'.449'
p616
sg64
S'1386'
p617
sg66
S'17'
p618
sba(isrc.gp1.models.Per100Possession
Per100Possession
p619
(dp620
g8
S'2.1'
p621
sg10
S'0.1'
p622
sg12
S'.466'
p623
sg426
S'103'
p624
sg14
S'3.7'
p625
sg16
S'.250'
p626
sg18
S'0.0'
p627
sg20
S'29.1'
p628
sg22
S'SF'
p629
sg433
S'108'
p630
sg24
S'.805'
p631
sg28
S'NBA'
p632
sg30
S'1.2'
p633
sg32
S'24.8'
p634
sg34
S'5.1'
p635
sg36
S'7.4'
p636
sg38
S'8.0'
p637
sg40
S'28'
p638
sg42
S'DEN'
p639
sg44
S'73'
p640
sg46
S'0.7'
p641
sg48
S'11.5'
p642
sg50
S'6.0'
p643
sg52
S'24.7'
p644
sg54
S'5.9'
p645
sg56
S'1987-88'
p646
sg58
S'11.6'
p647
sg60
S'3.6'
p648
sg62
S'.466'
p649
sg64
S'1755'
p650
sg66
g248
sba(isrc.gp1.models.Per100Possession
Per100Possession
p651
(dp652
g8
S'2.7'
p653
sg10
S'0.2'
p654
sg12
S'.405'
p655
sg426
S'90'
p656
sg14
S'1.9'
p657
sg16
S'.333'
p658
sg18
S'0.1'
p659
sg20
S'17.7'
p660
sg22
S'SF'
p661
sg433
S'112'
p662
sg24
S'.667'
p663
sg28
S'NBA'
p664
sg30
S'0.4'
p665
sg32
S'18.2'
p666
sg34
S'4.5'
p667
sg36
S'4.3'
p668
sg38
S'7.8'
p669
sg40
S'29'
p670
sg42
S'TOT'
p671
sg44
S'29'
p672
sg46
S'0.3'
p673
sg48
S'7.3'
p674
sg50
S'2.8'
p675
sg52
S'18.0'
p676
sg54
S'5.1'
p677
sg56
S'1988-89'
p678
sg58
S'7.4'
p679
sg60
S'3.0'
p680
sg62
S'.406'
p681
sg64
S'646'
p682
sg66
g11
sba(isrc.gp1.models.Per100Possession
Per100Possession
p683
(dp684
g8
S'0.9'
p685
sg10
S'0.9'
p686
sg12
S'.342'
p687
sg426
S'80'
p688
sg14
S'2.3'
p689
sg16
S'.500'
p690
sg18
S'0.5'
p691
sg20
S'15.0'
p692
sg22
S'SF'
p693
sg433
S'109'
p694
sg24
S'.556'
p695
sg28
S'NBA'
p696
sg30
S'0.5'
p697
sg32
S'17.9'
p698
sg34
S'5.2'
p699
sg36
S'4.2'
p700
sg38
S'8.5'
p701
sg40
S'29'
p702
sg42
S'DEN'
p703
sg44
g129
sg46
S'0.5'
p704
sg48
S'5.6'
p705
sg50
S'2.3'
p706
sg52
S'16.9'
p707
sg54
S'7.5'
p708
sg56
S'1988-89'
p709
sg58
S'6.1'
p710
sg60
S'2.3'
p711
sg62
S'.333'
p712
sg64
S'95'
p713
sg66
g19
sba(isrc.gp1.models.Per100Possession
Per100Possession
p714
(dp715
g8
S'3.0'
p716
sg10
S'0.1'
p717
sg12
S'.416'
p718
sg426
S'92'
p719
sg14
S'1.8'
p720
sg16
S'.000'
p721
sg18
S'0.0'
p722
sg20
S'18.2'
p723
sg22
S'SF'
p724
sg433
S'113'
p725
sg24
S'.686'
p726
sg28
S'NBA'
p727
sg30
S'0.4'
p728
sg32
S'18.3'
p729
sg34
S'4.3'
p730
sg36
S'4.3'
p731
sg38
S'7.7'
p732
sg40
S'29'
p733
sg42
S'SAS'
p734
sg44
S'24'
p735
sg46
S'0.3'
p736
sg48
S'7.6'
p737
sg50
S'2.9'
p738
sg52
S'18.2'
p739
sg54
S'4.7'
p740
sg56
S'1988-89'
p741
sg58
S'7.6'
p742
sg60
S'3.1'
p743
sg62
S'.417'
p744
sg64
S'551'
p745
sg66
g71
sba(isrc.gp1.models.Per100Possession
Per100Possession
p746
(dp747
g8
S'2.2'
p748
sg10
S'0.2'
p749
sg12
S'.470'
p750
sg426
S'100'
p751
sg14
S'2.0'
p752
sg16
S'.500'
p753
sg18
S'0.1'
p754
sg20
S'23.2'
p755
sg22
S'SF'
p756
sg433
S'109'
p757
sg24
S'.837'
p758
sg28
S'NBA'
p759
sg30
S'2.0'
p760
sg32
S'19.8'
p761
sg34
S'5.6'
p762
sg36
S'5.3'
p763
sg38
S'6.7'
p764
sg40
S'30'
p765
sg42
S'TOT'
p766
sg44
S'41'
p767
sg46
S'0.5'
p768
sg48
S'9.2'
p769
sg50
S'4.4'
p770
sg52
S'19.6'
p771
sg54
S'4.6'
p772
sg56
S'1989-90'
p773
sg58
S'9.3'
p774
sg60
S'3.6'
p775
sg62
S'.470'
p776
sg64
S'459'
p777
sg66
g260
sba(isrc.gp1.models.Per100Possession
Per100Possession
p778
(dp779
g8
S'2.5'
p780
sg10
S'0.2'
p781
sg12
S'.429'
p782
sg426
S'105'
p783
sg14
S'1.5'
p784
sg16
S'1.000'
p785
sg18
S'0.2'
p786
sg20
S'23.8'
p787
sg22
S'SF'
p788
sg433
S'110'
p789
sg24
S'.892'
p790
sg28
S'NBA'
p791
sg30
S'1.9'
p792
sg32
S'20.2'
p793
sg34
S'4.4'
p794
sg36
S'7.1'
p795
sg38
S'6.9'
p796
sg40
S'30'
p797
sg42
S'PHI'
p798
sg44
S'17'
p799
sg46
S'0.4'
p800
sg48
S'8.4'
p801
sg50
S'6.3'
p802
sg52
S'20.0'
p803
sg54
S'4.4'
p804
sg56
S'1989-90'
p805
sg58
S'8.6'
p806
sg60
S'2.7'
p807
sg62
S'.423'
p808
sg64
S'259'
p809
sg66
g129
sba(isrc.gp1.models.Per100Possession
Per100Possession
p810
(dp811
g8
S'1.7'
p812
sg10
S'0.2'
p813
sg12
S'.526'
p814
sg426
S'94'
p815
sg14
S'2.5'
p816
sg16
S'.000'
p817
sg18
S'0.0'
p818
sg20
S'22.4'
p819
sg22
S'SF'
p820
sg433
S'108'
p821
sg24
S'.667'
p822
sg28
S'NBA'
p823
sg30
S'2.0'
p824
sg32
S'19.4'
p825
sg34
S'7.2'
p826
sg36
S'3.0'
p827
sg38
S'6.5'
p828
sg40
S'30'
p829
sg42
S'LAL'
p830
sg44
S'24'
p831
sg46
S'0.7'
p832
sg48
S'10.2'
p833
sg50
S'2.0'
p834
sg52
S'19.2'
p835
sg54
S'4.7'
p836
sg56
S'1989-90'
p837
sg58
S'10.2'
p838
sg60
S'4.7'
p839
sg62
S'.532'
p840
sg64
S'200'
p841
sg66
g19
sbasS'_advanced'
p842
(lp843
(isrc.gp1.models.Advanced
Advanced
p844
(dp845
S'_offensiveReboundPercentage'
p846
S'7.7'
p847
sS'_turnOverPercentage'
p848
S'10.6'
p849
sS'_winSharesPer48Minutes'
p850
S'.102'
p851
sS'_stealPercentage'
p852
S'1.7'
p853
sS'_usagePercentage'
p854
S'28.6'
p855
sS'_totalReboundsPercentage'
p856
S'12.3'
p857
sS'_defensiveBoxPlusMinus'
p858
S'-1.4'
p859
sg22
S'PF'
p860
sS'_valueOverReplacementPlayer'
p861
S'1.5'
p862
sS'_trueShootingPercentage'
p863
S'.532'
p864
sS'_defensiveReboundPercentage'
p865
S'17.3'
p866
sS'_freeThrowsAttempRate'
p867
S'.282'
p868
sS'_threePointsAttempRate'
p869
S'.003'
p870
sg28
S'NBA'
p871
sS'_offensiveBoxPlusMinues'
p872
S'1.7'
p873
sS'_assistPercentage'
p874
S'11.5'
p875
sS'_defensiveWinShares'
p876
S'2.0'
p877
sg40
S'22'
p878
sg42
S'DAL'
p879
sg44
S'81'
p880
sS'_blockPercentage'
p881
S'0.5'
p882
sS'_playerEfficiencyRating'
p883
S'18.7'
p884
sS'_offensiveWinShares'
p885
S'3.6'
p886
sg64
S'2626'
p887
sS'_boxPlusMinus'
p888
S'0.3'
p889
sg56
S'1981-82'
p890
sS'_winShares'
p891
S'5.6'
p892
sba(isrc.gp1.models.Advanced
Advanced
p893
(dp894
g846
S'8.4'
p895
sg848
S'11.7'
p896
sg850
S'.105'
p897
sg852
S'1.2'
p898
sg854
S'23.4'
p899
sg856
S'11.7'
p900
sg858
S'-1.1'
p901
sg22
S'PF'
p902
sg861
S'1.8'
p903
sg863
S'.532'
p904
sg865
S'15.1'
p905
sg867
S'.270'
p906
sg869
S'.002'
p907
sg28
S'NBA'
p908
sg872
S'1.7'
p909
sg874
S'11.1'
p910
sg876
S'1.2'
p911
sg40
S'23'
p912
sg42
S'DAL'
p913
sg44
S'81'
p914
sg881
S'0.9'
p915
sg883
S'17.1'
p916
sg885
S'4.8'
p917
sg64
S'2726'
p918
sg888
S'0.5'
p919
sg56
S'1982-83'
p920
sg891
S'6.0'
p921
sba(isrc.gp1.models.Advanced
Advanced
p922
(dp923
g846
S'6.6'
p924
sg848
S'14.4'
p925
sg850
S'.038'
p926
sg852
S'1.0'
p927
sg854
S'23.1'
p928
sg856
S'10.1'
p929
sg858
S'-1.7'
p930
sg22
S'SF'
p931
sg861
S'-0.7'
p932
sg863
S'.499'
p933
sg865
S'13.5'
p934
sg867
S'.371'
p935
sg869
S'.002'
p936
sg28
S'NBA'
p937
sg872
S'-2.2'
p938
sg874
S'11.0'
p939
sg876
S'0.9'
p940
sg40
S'24'
p941
sg42
S'DAL'
p942
sg44
S'61'
p943
sg881
S'0.4'
p944
sg883
S'12.1'
p945
sg885
S'0.2'
p946
sg64
S'1421'
p947
sg888
S'-3.9'
p948
sg56
S'1983-84'
p949
sg891
S'1.1'
p950
sba(isrc.gp1.models.Advanced
Advanced
p951
(dp952
g846
S'8.1'
p953
sg848
S'11.4'
p954
sg850
S'.123'
p955
sg852
S'0.9'
p956
sg854
S'24.6'
p957
sg856
S'15.8'
p958
sg858
S'-0.8'
p959
sg22
S'PF'
p960
sg861
S'0.9'
p961
sg863
S'.545'
p962
sg865
S'23.8'
p963
sg867
S'.369'
p964
sg869
S'.004'
p965
sg28
S'NBA'
p966
sg872
S'0.3'
p967
sg874
S'9.7'
p968
sg876
S'2.6'
p969
sg40
S'25'
p970
sg42
S'DAL'
p971
sg44
S'79'
p972
sg881
S'0.5'
p973
sg883
S'18.0'
p974
sg885
S'4.0'
p975
sg64
S'2543'
p976
sg888
S'-0.6'
p977
sg56
S'1984-85'
p978
sg891
S'6.5'
p979
sba(isrc.gp1.models.Advanced
Advanced
p980
(dp981
g846
S'6.0'
p982
sg848
S'12.2'
p983
sg850
S'.081'
p984
sg852
S'1.6'
p985
sg854
S'24.2'
p986
sg856
S'10.2'
p987
sg858
S'-1.2'
p988
sg22
S'PF'
p989
sg861
S'0.5'
p990
sg863
S'.532'
p991
sg865
S'14.1'
p992
sg867
S'.298'
p993
sg869
S'.003'
p994
sg28
S'NBA'
p995
sg872
S'0.2'
p996
sg874
S'13.0'
p997
sg876
S'1.2'
p998
sg40
S'26'
p999
sg42
S'DAL'
p1000
sg44
S'80'
p1001
sg881
S'0.6'
p1002
sg883
S'16.4'
p1003
sg885
S'2.2'
p1004
sg64
S'1994'
p1005
sg888
S'-1.0'
p1006
sg56
S'1985-86'
p1007
sg891
S'3.4'
p1008
sba(isrc.gp1.models.Advanced
Advanced
p1009
(dp1010
g846
S'5.2'
p1011
sg848
S'10.1'
p1012
sg850
S'.067'
p1013
sg852
S'1.4'
p1014
sg854
S'22.2'
p1015
sg856
S'8.0'
p1016
sg858
S'-0.9'
p1017
sg22
S'SF'
p1018
sg861
S'0.0'
p1019
sg863
S'.493'
p1020
sg865
S'11.0'
p1021
sg867
S'.276'
p1022
sg869
S'.005'
p1023
sg28
S'NBA'
p1024
sg872
S'-1.2'
p1025
sg874
S'9.4'
p1026
sg876
S'1.2'
p1027
sg40
S'27'
p1028
sg42
S'WSB'
p1029
sg44
S'51'
p1030
sg881
S'0.7'
p1031
sg883
S'13.2'
p1032
sg885
S'0.7'
p1033
sg64
S'1386'
p1034
sg888
S'-2.0'
p1035
sg56
S'1986-87'
p1036
sg891
S'1.9'
p1037
sba(isrc.gp1.models.Advanced
Advanced
p1038
(dp1039
g846
S'4.6'
p1040
sg848
S'11.2'
p1041
sg850
S'.076'
p1042
sg852
S'1.2'
p1043
sg854
S'27.1'
p1044
sg856
S'9.2'
p1045
sg858
S'-1.6'
p1046
sg22
S'SF'
p1047
sg861
S'-0.5'
p1048
sg863
S'.518'
p1049
sg865
S'14.3'
p1050
sg867
S'.300'
p1051
sg869
S'.004'
p1052
sg28
S'NBA'
p1053
sg872
S'-1.4'
p1054
sg874
S'11.7'
p1055
sg876
S'1.9'
p1056
sg40
S'28'
p1057
sg42
S'DEN'
p1058
sg44
S'73'
p1059
sg881
S'0.8'
p1060
sg883
S'15.6'
p1061
sg885
S'0.9'
p1062
sg64
S'1755'
p1063
sg888
S'-3.0'
p1064
sg56
S'1987-88'
p1065
sg891
S'2.8'
p1066
sba(isrc.gp1.models.Advanced
Advanced
p1067
(dp1068
g846
S'6.2'
p1069
sg848
S'12.9'
p1070
sg850
S'-0.024'
p1071
sg852
S'0.4'
p1072
sg854
S'19.5'
p1073
sg856
S'9.3'
p1074
sg858
S'-2.7'
p1075
sg22
S'SF'
p1076
sg861
S'-1.0'
p1077
sg863
S'.439'
p1078
sg865
S'12.7'
p1079
sg867
S'.233'
p1080
sg869
S'.012'
p1081
sg28
S'NBA'
p1082
sg872
S'-5.3'
p1083
sg874
S'5.7'
p1084
sg876
S'0.3'
p1085
sg40
S'29'
p1086
sg42
S'TOT'
p1087
sg44
S'29'
p1088
sg881
S'0.4'
p1089
sg883
S'7.0'
p1090
sg885
S'-0.6'
p1091
sg64
S'646'
p1092
sg888
S'-8.1'
p1093
sg56
S'1988-89'
p1094
sg891
S'-0.3'
p1095
sba(isrc.gp1.models.Advanced
Advanced
p1096
(dp1097
g846
S'2.1'
p1098
sg848
S'10.6'
p1099
sg850
S'-0.056'
p1100
sg852
S'0.5'
p1101
sg854
S'18.9'
p1102
sg856
S'9.8'
p1103
sg858
S'-2.3'
p1104
sg22
S'SF'
p1105
sg861
S'-0.2'
p1106
sg863
S'.381'
p1107
sg865
S'18.4'
p1108
sg867
S'.237'
p1109
sg869
S'.053'
p1110
sg28
S'NBA'
p1111
sg872
S'-7.7'
p1112
sg874
S'6.4'
p1113
sg876
S'0.1'
p1114
sg40
S'29'
p1115
sg42
S'DEN'
p1116
sg44
g129
sg881
S'0.6'
p1117
sg883
S'4.7'
p1118
sg885
S'-0.2'
p1119
sg64
S'95'
p1120
sg888
S'-10.0'
p1121
sg56
S'1988-89'
p1122
sg891
S'-0.1'
p1123
sba(isrc.gp1.models.Advanced
Advanced
p1124
(dp1125
g846
S'6.9'
p1126
sg848
S'13.3'
p1127
sg850
S'-0.018'
p1128
sg852
S'0.4'
p1129
sg854
S'19.6'
p1130
sg856
S'9.2'
p1131
sg858
S'-2.8'
p1132
sg22
S'SF'
p1133
sg861
S'-0.8'
p1134
sg863
S'.449'
p1135
sg865
S'11.7'
p1136
sg867
S'.233'
p1137
sg869
S'.005'
p1138
sg28
S'NBA'
p1139
sg872
S'-4.9'
p1140
sg874
S'5.6'
p1141
sg876
S'0.2'
p1142
sg40
S'29'
p1143
sg42
S'SAS'
p1144
sg44
S'24'
p1145
sg881
S'0.3'
p1146
sg883
S'7.4'
p1147
sg885
S'-0.4'
p1148
sg64
S'551'
p1149
sg888
S'-7.7'
p1150
sg56
S'1988-89'
p1151
sg891
S'-0.2'
p1152
sba(isrc.gp1.models.Advanced
Advanced
p1153
(dp1154
g846
S'5.0'
p1155
sg848
S'13.9'
p1156
sg850
S'.052'
p1157
sg852
S'2.0'
p1158
sg854
S'22.0'
p1159
sg856
S'7.7'
p1160
sg858
S'-1.8'
p1161
sg22
S'SF'
p1162
sg861
S'-0.3'
p1163
sg863
S'.523'
p1164
sg865
S'10.2'
p1165
sg867
S'.268'
p1166
sg869
S'.011'
p1167
sg28
S'NBA'
p1168
sg872
S'-3.0'
p1169
sg874
S'5.8'
p1170
sg876
S'0.4'
p1171
sg40
S'30'
p1172
sg42
S'TOT'
p1173
sg44
S'41'
p1174
sg881
S'0.6'
p1175
sg883
S'11.8'
p1176
sg885
S'0.1'
p1177
sg64
S'459'
p1178
sg888
S'-4.8'
p1179
sg56
S'1989-90'
p1180
sg891
S'0.5'
p1181
sba(isrc.gp1.models.Advanced
Advanced
p1182
(dp1183
g846
S'5.7'
p1184
sg848
S'10.3'
p1185
sg850
S'.076'
p1186
sg852
S'1.9'
p1187
sg854
S'22.1'
p1188
sg856
S'7.9'
p1189
sg858
S'-2.3'
p1190
sg22
S'SF'
p1191
sg861
S'-0.2'
p1192
sg863
S'.511'
p1193
sg865
S'10.0'
p1194
sg867
S'.352'
p1195
sg869
S'.010'
p1196
sg28
S'NBA'
p1197
sg872
S'-2.3'
p1198
sg874
S'4.5'
p1199
sg876
S'0.2'
p1200
sg40
S'30'
p1201
sg42
S'PHI'
p1202
sg44
S'17'
p1203
sg881
S'0.5'
p1204
sg883
S'13.2'
p1205
sg885
S'0.2'
p1206
sg64
S'259'
p1207
sg888
S'-4.7'
p1208
sg56
S'1989-90'
p1209
sg891
S'0.4'
p1210
sba(isrc.gp1.models.Advanced
Advanced
p1211
(dp1212
g846
S'4.2'
p1213
sg848
S'18.6'
p1214
sg850
S'.020'
p1215
sg852
S'2.0'
p1216
sg854
S'21.8'
p1217
sg856
S'7.4'
p1218
sg858
S'-1.2'
p1219
sg22
S'SF'
p1220
sg861
S'-0.1'
p1221
sg863
S'.540'
p1222
sg865
S'10.5'
p1223
sg867
S'.154'
p1224
sg869
S'.013'
p1225
sg28
S'NBA'
p1226
sg872
S'-3.8'
p1227
sg874
S'7.6'
p1228
sg876
S'0.2'
p1229
sg40
S'30'
p1230
sg42
S'LAL'
p1231
sg44
S'24'
p1232
sg881
S'0.9'
p1233
sg883
S'10.2'
p1234
sg885
S'-0.1'
p1235
sg64
S'200'
p1236
sg888
S'-5.0'
p1237
sg56
S'1989-90'
p1238
sg891
S'0.1'
p1239
sbasS'_per36Minutes'
p1240
(lp1241
(isrc.gp1.models.Per36Minutes
Per36Minutes
p1242
(dp1243
g8
S'2.5'
p1244
sg10
S'0.1'
p1245
sg12
S'.497'
p1246
sg14
S'2.4'
p1247
sg16
S'.250'
p1248
sg18
S'0.0'
p1249
sg20
S'23.7'
p1250
sg22
S'PF'
p1251
sg24
S'.716'
p1252
sg28
S'NBA'
p1253
sg30
S'1.2'
p1254
sg32
S'19.9'
p1255
sg34
S'4.2'
p1256
sg36
S'5.6'
p1257
sg38
S'7.7'
p1258
sg40
S'22'
p1259
sg42
S'DAL'
p1260
sg44
S'81'
p1261
sg46
S'0.3'
p1262
sg48
S'9.8'
p1263
sg50
S'4.0'
p1264
sg52
S'19.8'
p1265
sg54
S'5.3'
p1266
sg56
S'1981-82'
p1267
sg58
S'9.9'
p1268
sg60
S'2.7'
p1269
sg62
S'.497'
p1270
sg64
S'2626'
p1271
sg66
S'62'
p1272
sba(isrc.gp1.models.Per36Minutes
Per36Minutes
p1273
(dp1274
g8
S'2.9'
p1275
sg10
S'0.0'
p1276
sg12
S'.489'
p1277
sg14
S'2.8'
p1278
sg16
S'.000'
p1279
sg18
S'0.0'
p1280
sg20
S'20.0'
p1281
sg22
S'PF'
p1282
sg24
S'.784'
p1283
sg28
S'NBA'
p1284
sg30
S'0.9'
p1285
sg32
S'16.8'
p1286
sg34
S'3.9'
p1287
sg36
S'4.5'
p1288
sg38
S'7.8'
p1289
sg40
S'23'
p1290
sg42
S'DAL'
p1291
sg44
S'81'
p1292
sg46
S'0.6'
p1293
sg48
S'8.2'
p1294
sg50
S'3.6'
p1295
sg52
S'16.8'
p1296
sg54
S'5.0'
p1297
sg56
S'1982-83'
p1298
sg58
S'8.2'
p1299
sg60
S'2.5'
p1300
sg62
S'.490'
p1301
sg64
S'2726'
p1302
sg66
S'73'
p1303
sba(isrc.gp1.models.Per36Minutes
Per36Minutes
p1304
(dp1305
g8
S'2.1'
p1306
sg10
S'0.0'
p1307
sg12
S'.435'
p1308
sg14
S'2.9'
p1309
sg16
S'.000'
p1310
sg18
S'0.0'
p1311
sg20
S'17.0'
p1312
sg22
S'SF'
p1313
sg24
S'.781'
p1314
sg28
S'NBA'
p1315
sg30
S'0.8'
p1316
sg32
S'14.7'
p1317
sg34
S'4.0'
p1318
sg36
S'5.4'
p1319
sg38
S'6.3'
p1320
sg40
S'24'
p1321
sg42
S'DAL'
p1322
sg44
S'61'
p1323
sg46
S'0.3'
p1324
sg48
S'6.4'
p1325
sg50
S'4.3'
p1326
sg52
S'14.6'
p1327
sg54
S'4.2'
p1328
sg56
S'1983-84'
p1329
sg58
S'6.4'
p1330
sg60
S'2.9'
p1331
sg62
S'.436'
p1332
sg64
S'1421'
p1333
sg66
g129
sba(isrc.gp1.models.Per36Minutes
Per36Minutes
p1334
(dp1335
g8
S'2.6'
p1336
sg10
S'0.1'
p1337
sg12
S'.479'
p1338
sg14
S'2.4'
p1339
sg16
S'.000'
p1340
sg18
S'0.0'
p1341
sg20
S'20.4'
p1342
sg22
S'PF'
p1343
sg24
S'.836'
p1344
sg28
S'NBA'
p1345
sg30
S'0.7'
p1346
sg32
S'16.1'
p1347
sg34
S'3.2'
p1348
sg36
S'5.9'
p1349
sg38
S'10.0'
p1350
sg40
S'25'
p1351
sg42
S'DAL'
p1352
sg44
S'79'
p1353
sg46
S'0.3'
p1354
sg48
S'7.7'
p1355
sg50
S'5.0'
p1356
sg52
S'16.1'
p1357
sg54
S'7.3'
p1358
sg56
S'1984-85'
p1359
sg58
S'7.7'
p1360
sg60
S'2.4'
p1361
sg62
S'.481'
p1362
sg64
S'2543'
p1363
sg66
S'47'
p1364
sba(isrc.gp1.models.Per36Minutes
Per36Minutes
p1365
(dp1366
g8
S'1.9'
p1367
sg10
S'0.1'
p1368
sg12
S'.481'
p1369
sg14
S'3.2'
p1370
sg16
S'.000'
p1371
sg18
S'0.0'
p1372
sg20
S'20.0'
p1373
sg22
S'PF'
p1374
sg24
S'.810'
p1375
sg28
S'NBA'
p1376
sg30
S'1.2'
p1377
sg32
S'16.6'
p1378
sg34
S'3.5'
p1379
sg36
S'4.9'
p1380
sg38
S'6.6'
p1381
sg40
S'26'
p1382
sg42
S'DAL'
p1383
sg44
S'80'
p1384
sg46
S'0.4'
p1385
sg48
S'8.0'
p1386
sg50
S'4.0'
p1387
sg52
S'16.5'
p1388
sg54
S'4.7'
p1389
sg56
S'1985-86'
p1390
sg58
S'8.0'
p1391
sg60
S'2.6'
p1392
sg62
S'.483'
p1393
sg64
S'1994'
p1394
sg66
g71
sba(isrc.gp1.models.Per36Minutes
Per36Minutes
p1395
(dp1396
g8
S'1.8'
p1397
sg10
S'0.1'
p1398
sg12
S'.447'
p1399
sg14
S'2.2'
p1400
sg16
S'.000'
p1401
sg18
S'0.0'
p1402
sg20
S'17.6'
p1403
sg22
S'SF'
p1404
sg24
S'.769'
p1405
sg28
S'NBA'
p1406
sg30
S'1.0'
p1407
sg32
S'15.9'
p1408
sg34
S'3.3'
p1409
sg36
S'4.4'
p1410
sg38
S'5.5'
p1411
sg40
S'27'
p1412
sg42
S'WSB'
p1413
sg44
S'51'
p1414
sg46
S'0.4'
p1415
sg48
S'7.1'
p1416
sg50
S'3.4'
p1417
sg52
S'15.8'
p1418
sg54
S'3.7'
p1419
sg56
S'1986-87'
p1420
sg58
S'7.1'
p1421
sg60
S'2.0'
p1422
sg62
S'.449'
p1423
sg64
S'1386'
p1424
sg66
S'17'
p1425
sba(isrc.gp1.models.Per36Minutes
Per36Minutes
p1426
(dp1427
g8
S'1.6'
p1428
sg10
S'0.1'
p1429
sg12
S'.466'
p1430
sg14
S'2.9'
p1431
sg16
S'.250'
p1432
sg18
S'0.0'
p1433
sg20
S'23.1'
p1434
sg22
S'SF'
p1435
sg24
S'.805'
p1436
sg28
S'NBA'
p1437
sg30
S'0.9'
p1438
sg32
S'19.7'
p1439
sg34
S'4.1'
p1440
sg36
S'5.9'
p1441
sg38
S'6.3'
p1442
sg40
S'28'
p1443
sg42
S'DEN'
p1444
sg44
S'73'
p1445
sg46
S'0.5'
p1446
sg48
S'9.1'
p1447
sg50
S'4.7'
p1448
sg52
S'19.6'
p1449
sg54
S'4.7'
p1450
sg56
S'1987-88'
p1451
sg58
S'9.1'
p1452
sg60
S'2.8'
p1453
sg62
S'.466'
p1454
sg64
S'1755'
p1455
sg66
g248
sba(isrc.gp1.models.Per36Minutes
Per36Minutes
p1456
(dp1457
g8
S'2.1'
p1458
sg10
S'0.2'
p1459
sg12
S'.405'
p1460
sg14
S'1.5'
p1461
sg16
S'.333'
p1462
sg18
S'0.1'
p1463
sg20
S'13.9'
p1464
sg22
S'SF'
p1465
sg24
S'.667'
p1466
sg28
S'NBA'
p1467
sg30
S'0.3'
p1468
sg32
S'14.3'
p1469
sg34
S'3.5'
p1470
sg36
S'3.3'
p1471
sg38
S'6.1'
p1472
sg40
S'29'
p1473
sg42
S'TOT'
p1474
sg44
S'29'
p1475
sg46
S'0.2'
p1476
sg48
S'5.7'
p1477
sg50
S'2.2'
p1478
sg52
S'14.2'
p1479
sg54
S'4.0'
p1480
sg56
S'1988-89'
p1481
sg58
S'5.8'
p1482
sg60
S'2.3'
p1483
sg62
S'.406'
p1484
sg64
S'646'
p1485
sg66
g11
sba(isrc.gp1.models.Per36Minutes
Per36Minutes
p1486
(dp1487
g8
S'0.8'
p1488
sg10
S'0.8'
p1489
sg12
S'.342'
p1490
sg14
S'1.9'
p1491
sg16
S'.500'
p1492
sg18
S'0.4'
p1493
sg20
S'12.1'
p1494
sg22
S'SF'
p1495
sg24
S'.556'
p1496
sg28
S'NBA'
p1497
sg30
S'0.4'
p1498
sg32
S'14.4'
p1499
sg34
S'4.2'
p1500
sg36
S'3.4'
p1501
sg38
S'6.8'
p1502
sg40
S'29'
p1503
sg42
S'DEN'
p1504
sg44
g129
sg46
S'0.4'
p1505
sg48
S'4.5'
p1506
sg50
S'1.9'
p1507
sg52
S'13.6'
p1508
sg54
S'6.1'
p1509
sg56
S'1988-89'
p1510
sg58
S'4.9'
p1511
sg60
S'1.9'
p1512
sg62
S'.333'
p1513
sg64
S'95'
p1514
sg66
g19
sba(isrc.gp1.models.Per36Minutes
Per36Minutes
p1515
(dp1516
g8
S'2.4'
p1517
sg10
S'0.1'
p1518
sg12
S'.416'
p1519
sg14
S'1.4'
p1520
sg16
S'.000'
p1521
sg18
S'0.0'
p1522
sg20
S'14.2'
p1523
sg22
S'SF'
p1524
sg24
S'.686'
p1525
sg28
S'NBA'
p1526
sg30
S'0.3'
p1527
sg32
S'14.3'
p1528
sg34
S'3.4'
p1529
sg36
S'3.3'
p1530
sg38
S'6.0'
p1531
sg40
S'29'
p1532
sg42
S'SAS'
p1533
sg44
S'24'
p1534
sg46
S'0.2'
p1535
sg48
S'5.9'
p1536
sg50
S'2.3'
p1537
sg52
S'14.2'
p1538
sg54
S'3.7'
p1539
sg56
S'1988-89'
p1540
sg58
S'5.9'
p1541
sg60
S'2.4'
p1542
sg62
S'.417'
p1543
sg64
S'551'
p1544
sg66
g71
sba(isrc.gp1.models.Per36Minutes
Per36Minutes
p1545
(dp1546
g8
S'1.6'
p1547
sg10
S'0.2'
p1548
sg12
S'.470'
p1549
sg14
S'1.4'
p1550
sg16
S'.500'
p1551
sg18
S'0.1'
p1552
sg20
S'16.8'
p1553
sg22
S'SF'
p1554
sg24
S'.837'
p1555
sg28
S'NBA'
p1556
sg30
S'1.4'
p1557
sg32
S'14.4'
p1558
sg34
S'4.1'
p1559
sg36
S'3.8'
p1560
sg38
S'4.9'
p1561
sg40
S'30'
p1562
sg42
S'TOT'
p1563
sg44
S'41'
p1564
sg46
S'0.4'
p1565
sg48
S'6.7'
p1566
sg50
S'3.2'
p1567
sg52
S'14.2'
p1568
sg54
S'3.3'
p1569
sg56
S'1989-90'
p1570
sg58
S'6.7'
p1571
sg60
S'2.6'
p1572
sg62
S'.470'
p1573
sg64
S'459'
p1574
sg66
g260
sba(isrc.gp1.models.Per36Minutes
Per36Minutes
p1575
(dp1576
g8
S'1.8'
p1577
sg10
S'0.1'
p1578
sg12
S'.429'
p1579
sg14
S'1.1'
p1580
sg16
S'1.000'
p1581
sg18
S'0.1'
p1582
sg20
S'17.2'
p1583
sg22
S'SF'
p1584
sg24
S'.892'
p1585
sg28
S'NBA'
p1586
sg30
S'1.4'
p1587
sg32
S'14.6'
p1588
sg34
S'3.2'
p1589
sg36
S'5.1'
p1590
sg38
S'5.0'
p1591
sg40
S'30'
p1592
sg42
S'PHI'
p1593
sg44
S'17'
p1594
sg46
S'0.3'
p1595
sg48
S'6.1'
p1596
sg50
S'4.6'
p1597
sg52
S'14.5'
p1598
sg54
S'3.2'
p1599
sg56
S'1989-90'
p1600
sg58
S'6.3'
p1601
sg60
S'1.9'
p1602
sg62
S'.423'
p1603
sg64
S'259'
p1604
sg66
g129
sba(isrc.gp1.models.Per36Minutes
Per36Minutes
p1605
(dp1606
g8
S'1.3'
p1607
sg10
S'0.2'
p1608
sg12
S'.526'
p1609
sg14
S'1.8'
p1610
sg16
S'.000'
p1611
sg18
S'0.0'
p1612
sg20
S'16.2'
p1613
sg22
S'SF'
p1614
sg24
S'.667'
p1615
sg28
S'NBA'
p1616
sg30
S'1.4'
p1617
sg32
S'14.0'
p1618
sg34
S'5.2'
p1619
sg36
S'2.2'
p1620
sg38
S'4.7'
p1621
sg40
S'30'
p1622
sg42
S'LAL'
p1623
sg44
S'24'
p1624
sg46
S'0.5'
p1625
sg48
S'7.4'
p1626
sg50
S'1.4'
p1627
sg52
S'13.9'
p1628
sg54
S'3.4'
p1629
sg56
S'1989-90'
p1630
sg58
S'7.4'
p1631
sg60
S'3.4'
p1632
sg62
S'.532'
p1633
sg64
S'200'
p1634
sg66
g19
sbasS'_fromYear'
p1635
S'1982'
p1636
sS'_url'
p1637
S'http://www.basketball-reference.com/players/v/vinceja01.html'
p1638
sS'_perGame'
p1639
(isrc.gp1.models.PerGame
PerGame
p1640
(dp1641
g8
S'0.3'
p1642
sg10
S'0.0'
p1643
sg12
S'.526'
p1644
sS'_effectiveFieldGalPercentage'
p1645
S'.526'
p1646
sg14
S'0.4'
p1647
sg16
S'.000'
p1648
sg18
S'0.0'
p1649
sg20
S'3.8'
p1650
sg22
S'SF'
p1651
sg24
S'.667'
p1652
sg28
S'NBA'
p1653
sg30
S'0.3'
p1654
sg34
S'1.2'
p1655
sS'_fieldGoalsttempted'
p1656
S'3.3'
p1657
sg36
S'0.5'
p1658
sg38
S'1.1'
p1659
sg40
S'30'
p1660
sg42
S'LAL'
p1661
sg44
S'24'
p1662
sg46
S'0.1'
p1663
sg48
S'1.7'
p1664
sg50
S'0.3'
p1665
sg52
S'3.2'
p1666
sg54
S'0.8'
p1667
sg56
S'1989-90'
p1668
sg58
S'1.7'
p1669
sg60
S'0.8'
p1670
sg62
S'.532'
p1671
sg64
S'8.3'
p1672
sg66
g19
sbsS'_weight'
p1673
S'220'
p1674
sS'_dob'
p1675
S'10-6-1959'
p1676
sS'_salary'
p1677
(lp1678
(isrc.gp1.models.Salary
Salary
p1679
(dp1680
g42
S'Dallas Mavericks'
p1681
sg28
S'NBA'
p1682
sg1677
S'$275,000'
p1683
sg56
S'1985-86'
p1684
sba(isrc.gp1.models.Salary
Salary
p1685
(dp1686
g42
S'Denver Nuggets'
p1687
sg28
S'NBA'
p1688
sg1677
S'$415,625'
p1689
sg56
S'1987-88'
p1690
sba(isrc.gp1.models.Salary
Salary
p1691
(dp1692
g42
S'Denver Nuggets'
p1693
sg28
S'NBA'
p1694
sg1677
S'$415,600'
p1695
sg56
S'1988-89'
p1696
sbasg22
S'F'
p1697
sb.