(isrc.gp1.models.Player
Player
p0
(dp1
S'_experience'
p2
S'NA'
p3
sS'_totals'
p4
(lp5
(isrc.gp1.models.Totals
Totals
p6
(dp7
S'_offensiveRebounds'
p8
S'167'
p9
sS'_threePointsAttempted'
p10
S'5'
p11
sS'_fieldGoalsPercentage'
p12
S'.499'
p13
sS'_assist'
p14
S'75'
p15
sS'_threePointsPercentage'
p16
S'.000'
p17
sS'_threePoints'
p18
S'0'
p19
sS'_points'
p20
S'701'
p21
sS'_position'
p22
S'C'
p23
sS'_freeThrowsPercentage'
p24
S'.708'
p25
sS'_effectiveFieldGoalPercentage'
p26
S'.499'
p27
sS'_league'
p28
S'NBA'
p29
sS'_steals'
p30
S'79'
p31
sS'_fieldGoalsAttempted'
p32
S'549'
p33
sS'_personalFouls'
p34
S'240'
p35
sS'_freeThrowsAttempted'
p36
S'216'
p37
sS'_totalRebounds'
p38
S'512'
p39
sS'_age'
p40
S'21'
p41
sS'_team'
p42
S'LAL'
p43
sS'_games'
p44
S'82'
p45
sS'_blocks'
p46
S'114'
p47
sS'_twoPoints'
p48
S'274'
p49
sS'_freeThrows'
p50
S'153'
p51
sS'_twoPointsAttempted'
p52
S'544'
p53
sS'_defensiveRebounds'
p54
S'345'
p55
sS'_season'
p56
S'1989-90'
p57
sS'_fieldGoals'
p58
S'274'
p59
sS'_turnOvers'
p60
S'110'
p61
sS'_twoPointsPercentage'
p62
S'.504'
p63
sS'_minutesPlayed'
p64
S'1611'
p65
sS'_gamesStarted'
p66
g11
sba(isrc.gp1.models.Totals
Totals
p67
(dp68
g8
S'205'
p69
sg10
S'14'
p70
sg12
S'.565'
p71
sg14
S'92'
p72
sg16
S'.357'
p73
sg18
g11
sg20
S'921'
p74
sg22
g23
sg24
S'.703'
p75
sg26
S'.569'
p76
sg28
S'NBA'
p77
sg30
S'106'
p78
sg32
S'637'
p79
sg34
S'247'
p80
sg36
S'279'
p81
sg38
S'666'
p82
sg40
S'22'
p83
sg42
S'LAL'
p84
sg44
S'82'
p85
sg46
S'127'
p86
sg48
S'355'
p87
sg50
S'196'
p88
sg52
S'623'
p89
sg54
S'461'
p90
sg56
S'1990-91'
p91
sg58
S'360'
p92
sg60
S'146'
p93
sg62
S'.570'
p94
sg64
S'2310'
p95
sg66
S'81'
p96
sba(isrc.gp1.models.Totals
Totals
p97
(dp98
g8
S'87'
p99
sg10
S'19'
p100
sg12
S'.495'
p101
sg14
S'60'
p102
sg16
S'.263'
p103
sg18
g11
sg20
S'405'
p104
sg22
g23
sg24
S'.768'
p105
sg26
S'.503'
p106
sg28
S'NBA'
p107
sg30
S'55'
p108
sg32
S'317'
p109
sg34
S'114'
p110
sg36
S'112'
p111
sg38
S'247'
p112
sg40
S'23'
p113
sg42
S'LAL'
p114
sg44
S'36'
p115
sg46
S'35'
p116
sg48
S'152'
p117
sg50
S'86'
p118
sg52
S'298'
p119
sg54
S'160'
p120
sg56
S'1991-92'
p121
sg58
S'157'
p122
sg60
S'88'
p123
sg62
S'.510'
p124
sg64
S'979'
p125
sg66
S'18'
p126
sba(isrc.gp1.models.Totals
Totals
p127
(dp128
g8
S'220'
p129
sg10
S'75'
p130
sg12
S'.485'
p131
sg14
S'232'
p132
sg16
S'.280'
p133
sg18
S'21'
p134
sg20
S'1050'
p135
sg22
g23
sg24
S'.689'
p136
sg26
S'.498'
p137
sg28
S'NBA'
p138
sg30
S'128'
p139
sg32
S'819'
p140
sg34
S'311'
p141
sg36
S'341'
p142
sg38
S'729'
p143
sg40
S'24'
p144
sg42
S'LAL'
p145
sg44
S'82'
p146
sg46
S'140'
p147
sg48
S'376'
p148
sg50
S'235'
p149
sg52
S'744'
p150
sg54
S'509'
p151
sg56
S'1992-93'
p152
sg58
S'397'
p153
sg60
S'214'
p154
sg62
S'.505'
p155
sg64
S'2525'
p156
sg66
S'69'
p157
sba(isrc.gp1.models.Totals
Totals
p158
(dp159
g8
S'282'
p160
sg10
S'47'
p161
sg12
S'.506'
p162
sg14
S'307'
p163
sg16
S'.191'
p164
sg18
S'9'
p165
sg20
S'1123'
p166
sg22
g23
sg24
S'.686'
p167
sg26
S'.511'
p168
sg28
S'NBA'
p169
sg30
S'92'
p170
sg32
S'895'
p171
sg34
S'288'
p172
sg36
S'303'
p173
sg38
S'851'
p174
sg40
S'25'
p175
sg42
S'LAL'
p176
sg44
S'79'
p177
sg46
S'112'
p178
sg48
S'444'
p179
sg50
S'208'
p180
sg52
S'848'
p181
sg54
S'569'
p182
sg56
S'1993-94'
p183
sg58
S'453'
p184
sg60
S'191'
p185
sg62
S'.524'
p186
sg64
S'2685'
p187
sg66
S'73'
p188
sba(isrc.gp1.models.Totals
Totals
p189
(dp190
g8
S'261'
p191
sg10
S'53'
p192
sg12
S'.507'
p193
sg14
S'329'
p194
sg16
S'.189'
p195
sg18
S'10'
p196
sg20
S'1277'
p197
sg22
g23
sg24
S'.777'
p198
sg26
S'.512'
p199
sg28
S'NBA'
p200
sg30
S'109'
p201
sg32
S'957'
p202
sg34
S'305'
p203
sg36
S'382'
p204
sg38
S'829'
p205
sg40
S'26'
p206
sg42
S'LAL'
p207
sg44
S'80'
p208
sg46
S'174'
p209
sg48
S'475'
p210
sg50
S'297'
p211
sg52
S'904'
p212
sg54
S'568'
p213
sg56
S'1994-95'
p214
sg58
S'485'
p215
sg60
S'205'
p216
sg62
S'.525'
p217
sg64
S'2807'
p218
sg66
S'80'
p219
sba(isrc.gp1.models.Totals
Totals
p220
(dp221
g8
S'198'
p222
sg10
S'18'
p223
sg12
S'.513'
p224
sg14
S'261'
p225
sg16
S'.167'
p226
sg18
S'3'
p227
sg20
S'1020'
p228
sg22
g23
sg24
S'.641'
p229
sg26
S'.515'
p230
sg28
S'NBA'
p231
sg30
S'76'
p232
sg32
S'807'
p233
sg34
S'274'
p234
sg36
S'295'
p235
sg38
S'679'
p236
sg40
S'27'
p237
sg42
S'LAL'
p238
sg44
S'79'
p239
sg46
S'131'
p240
sg48
S'411'
p241
sg50
S'189'
p242
sg52
S'789'
p243
sg54
S'481'
p244
sg56
S'1995-96'
p245
sg58
S'414'
p246
sg60
S'199'
p247
sg62
S'.521'
p248
sg64
S'2470'
p249
sg66
S'79'
p250
sba(isrc.gp1.models.Totals
Totals
p251
(dp252
g8
S'241'
p253
sg10
S'47'
p254
sg12
S'.494'
p255
sg14
S'301'
p256
sg16
S'.234'
p257
sg18
S'11'
p258
sg20
S'1024'
p259
sg22
g23
sg24
S'.683'
p260
sg26
S'.500'
p261
sg28
S'NBA'
p262
sg30
S'103'
p263
sg32
S'847'
p264
sg34
S'277'
p265
sg36
S'259'
p266
sg38
S'725'
p267
sg40
S'28'
p268
sg42
S'CHH'
p269
sg44
S'81'
p270
sg46
S'180'
p271
sg48
S'407'
p272
sg50
S'177'
p273
sg52
S'800'
p274
sg54
S'484'
p275
sg56
S'1996-97'
p276
sg58
S'418'
p277
sg60
S'193'
p278
sg62
S'.509'
p279
sg64
S'2840'
p280
sg66
S'80'
p281
sba(isrc.gp1.models.Totals
Totals
p282
(dp283
g8
S'183'
p284
sg10
S'14'
p285
sg12
S'.498'
p286
sg14
S'172'
p287
sg16
S'.214'
p288
sg18
g227
sg20
S'667'
p289
sg22
g23
sg24
S'.691'
p290
sg26
S'.501'
p291
sg28
S'NBA'
p292
sg30
S'83'
p293
sg32
S'536'
p294
sg34
S'179'
p295
sg36
S'188'
p296
sg38
S'518'
p297
sg40
S'29'
p298
sg42
S'CHH'
p299
sg44
S'64'
p300
sg46
S'94'
p301
sg48
S'264'
p302
sg50
S'130'
p303
sg52
S'522'
p304
sg54
S'335'
p305
sg56
S'1997-98'
p306
sg58
S'267'
p307
sg60
S'114'
p308
sg62
S'.506'
p309
sg64
S'1805'
p310
sg66
S'41'
p311
sba(isrc.gp1.models.Totals
Totals
p312
(dp313
g8
S'140'
p314
sg10
S'43'
p315
sg12
S'.470'
p316
sg14
S'215'
p317
sg16
S'.256'
p318
sg18
S'11'
p319
sg20
S'714'
p320
sg22
g23
sg24
S'.702'
p321
sg26
S'.480'
p322
sg28
S'NBA'
p323
sg30
S'44'
p324
sg32
S'557'
p325
sg34
S'166'
p326
sg36
S'255'
p327
sg38
S'501'
p328
sg40
S'30'
p329
sg42
S'SAC'
p330
sg44
S'50'
p331
sg46
S'51'
p332
sg48
S'251'
p333
sg50
S'179'
p334
sg52
S'514'
p335
sg54
S'361'
p336
sg56
S'1998-99'
p337
sg58
S'262'
p338
sg60
S'131'
p339
sg62
S'.488'
p340
sg64
S'1761'
p341
sg66
S'50'
p342
sba(isrc.gp1.models.Totals
Totals
p343
(dp344
g8
S'174'
p345
sg10
S'26'
p346
sg12
S'.503'
p347
sg14
S'244'
p348
sg16
S'.269'
p349
sg18
S'7'
p350
sg20
S'1005'
p351
sg22
g23
sg24
S'.691'
p352
sg26
S'.507'
p353
sg28
S'NBA'
p354
sg30
S'103'
p355
sg32
S'764'
p356
sg34
S'251'
p357
sg36
S'333'
p358
sg38
S'656'
p359
sg40
S'31'
p360
sg42
S'SAC'
p361
sg44
S'82'
p362
sg46
S'103'
p363
sg48
S'377'
p364
sg50
S'230'
p365
sg52
S'738'
p366
sg54
S'482'
p367
sg56
S'1999-00'
p368
sg58
S'384'
p369
sg60
S'190'
p370
sg62
S'.511'
p371
sg64
S'2374'
p372
sg66
S'81'
p373
sba(isrc.gp1.models.Totals
Totals
p374
(dp375
g8
S'207'
p376
sg10
S'14'
p377
sg12
S'.482'
p378
sg14
S'231'
p379
sg16
S'.286'
p380
sg18
S'4'
p381
sg20
S'974'
p382
sg22
g23
sg24
S'.691'
p383
sg26
S'.485'
p384
sg28
S'NBA'
p385
sg30
S'87'
p386
sg32
S'755'
p387
sg34
S'242'
p388
sg36
S'350'
p389
sg38
S'673'
p390
sg40
S'32'
p391
sg42
S'SAC'
p392
sg44
S'81'
p393
sg46
S'93'
p394
sg48
S'360'
p395
sg50
S'242'
p396
sg52
S'741'
p397
sg54
S'466'
p398
sg56
S'2000-01'
p399
sg58
S'364'
p400
sg60
S'192'
p401
sg62
S'.486'
p402
sg64
S'2420'
p403
sg66
S'81'
p404
sba(isrc.gp1.models.Totals
Totals
p405
(dp406
g8
S'205'
p407
sg10
S'13'
p408
sg12
S'.472'
p409
sg14
S'297'
p410
sg16
S'.231'
p411
sg18
g227
sg20
S'888'
p412
sg22
g23
sg24
S'.615'
p413
sg26
S'.474'
p414
sg28
S'NBA'
p415
sg30
S'79'
p416
sg32
S'716'
p417
sg34
S'229'
p418
sg36
S'340'
p419
sg38
S'671'
p420
sg40
S'33'
p421
sg42
S'SAC'
p422
sg44
S'80'
p423
sg46
S'94'
p424
sg48
S'335'
p425
sg50
S'209'
p426
sg52
S'703'
p427
sg54
S'466'
p428
sg56
S'2001-02'
p429
sg58
S'338'
p430
sg60
S'158'
p431
sg62
S'.477'
p432
sg64
S'2420'
p433
sg66
S'80'
p434
sba(isrc.gp1.models.Totals
Totals
p435
(dp436
g8
S'157'
p437
sg10
S'25'
p438
sg12
S'.466'
p439
sg14
S'274'
p440
sg16
S'.240'
p441
sg18
S'6'
p442
sg20
S'795'
p443
sg22
g23
sg24
S'.713'
p444
sg26
S'.470'
p445
sg28
S'NBA'
p446
sg30
S'83'
p447
sg32
S'655'
p448
sg34
S'239'
p449
sg36
S'251'
p450
sg38
S'574'
p451
sg40
S'34'
p452
sg42
S'SAC'
p453
sg44
S'80'
p454
sg46
S'105'
p455
sg48
S'299'
p456
sg50
S'179'
p457
sg52
S'630'
p458
sg54
S'417'
p459
sg56
S'2002-03'
p460
sg58
S'305'
p461
sg60
S'152'
p462
sg62
S'.475'
p463
sg64
S'2384'
p464
sg66
S'80'
p465
sba(isrc.gp1.models.Totals
Totals
p466
(dp467
g8
S'136'
p468
sg10
S'13'
p469
sg12
S'.470'
p470
sg14
S'432'
p471
sg16
S'.154'
p472
sg18
S'2'
p473
sg20
S'800'
p474
sg22
g23
sg24
S'.654'
p475
sg26
S'.472'
p476
sg28
S'NBA'
p477
sg30
S'57'
p478
sg32
S'668'
p479
sg34
S'222'
p480
sg36
S'260'
p481
sg38
S'463'
p482
sg40
S'35'
p483
sg42
S'SAC'
p484
sg44
S'81'
p485
sg46
S'77'
p486
sg48
S'312'
p487
sg50
S'170'
p488
sg52
S'655'
p489
sg54
S'327'
p490
sg56
S'2003-04'
p491
sg58
S'314'
p492
sg60
S'173'
p493
sg62
S'.476'
p494
sg64
S'2317'
p495
sg66
S'81'
p496
sba(isrc.gp1.models.Totals
Totals
p497
(dp498
g8
S'14'
p499
sg10
g19
sg12
S'.419'
p500
sg14
g381
sg16
S'13'
p501
sg18
g19
sg20
g3
sg22
g23
sg24
S'18'
p502
sg26
S'8'
p503
sg28
S'NBA'
p504
sg30
S'1'
p505
sg32
S'31'
p506
sg34
S'34'
p507
sg36
S'.667'
p508
sg38
S'19'
p509
sg40
S'36'
p510
sg42
S'LAL'
p511
sg44
S'15'
p512
sg46
S'14'
p513
sg48
S'31'
p514
sg50
S'12'
p515
sg52
S'.419'
p516
sg54
S'32'
p517
sg56
S'2004-05'
p518
sg58
S'13'
p519
sg60
S'25'
p520
sg62
S'.419'
p521
sg64
S'130'
p522
sg66
g19
sbasS'_college'
p523
S'NA'
p524
sS'_toYear'
p525
S'2005'
p526
sS'_height'
p527
S'7-1'
p528
sS'_active'
p529
I00
sS'_shootingHand'
p530
VRight
p531
sS'_name'
p532
S'Vlade Divac'
p533
sS'_per100Possessions'
p534
(lp535
(isrc.gp1.models.Per100Possession
Per100Possession
p536
(dp537
g8
S'5.2'
p538
sg10
S'0.2'
p539
sg12
S'.499'
p540
sS'_offensiveRating'
p541
S'108'
p542
sg14
S'2.3'
p543
sg16
S'.000'
p544
sg18
S'0.0'
p545
sg20
S'21.7'
p546
sg22
g23
sS'_defensiveRating'
p547
S'100'
p548
sg24
S'.708'
p549
sg28
S'NBA'
p550
sg30
S'2.4'
p551
sg32
S'17.0'
p552
sg34
S'7.4'
p553
sg36
S'6.7'
p554
sg38
S'15.8'
p555
sg40
S'21'
p556
sg42
S'LAL'
p557
sg44
S'82'
p558
sg46
S'3.5'
p559
sg48
S'8.5'
p560
sg50
S'4.7'
p561
sg52
S'16.8'
p562
sg54
S'10.7'
p563
sg56
S'1989-90'
p564
sg58
S'8.5'
p565
sg60
S'3.4'
p566
sg62
S'.504'
p567
sg64
S'1611'
p568
sg66
g11
sba(isrc.gp1.models.Per100Possession
Per100Possession
p569
(dp570
g8
S'4.5'
p571
sg10
S'0.3'
p572
sg12
S'.565'
p573
sg541
S'114'
p574
sg14
S'2.0'
p575
sg16
S'.357'
p576
sg18
S'0.1'
p577
sg20
S'20.3'
p578
sg22
g23
sg547
S'99'
p579
sg24
S'.703'
p580
sg28
S'NBA'
p581
sg30
S'2.3'
p582
sg32
S'14.1'
p583
sg34
S'5.5'
p584
sg36
S'6.2'
p585
sg38
S'14.7'
p586
sg40
S'22'
p587
sg42
S'LAL'
p588
sg44
S'82'
p589
sg46
S'2.8'
p590
sg48
S'7.8'
p591
sg50
S'4.3'
p592
sg52
S'13.8'
p593
sg54
S'10.2'
p594
sg56
S'1990-91'
p595
sg58
S'7.9'
p596
sg60
S'3.2'
p597
sg62
S'.570'
p598
sg64
S'2310'
p599
sg66
S'81'
p600
sba(isrc.gp1.models.Per100Possession
Per100Possession
p601
(dp602
g8
S'4.6'
p603
sg10
S'1.0'
p604
sg12
S'.495'
p605
sg541
S'103'
p606
sg14
S'3.2'
p607
sg16
S'.263'
p608
sg18
S'0.3'
p609
sg20
S'21.5'
p610
sg22
g23
sg547
S'104'
p611
sg24
S'.768'
p612
sg28
S'NBA'
p613
sg30
S'2.9'
p614
sg32
S'16.8'
p615
sg34
S'6.0'
p616
sg36
S'5.9'
p617
sg38
S'13.1'
p618
sg40
S'23'
p619
sg42
S'LAL'
p620
sg44
S'36'
p621
sg46
S'1.9'
p622
sg48
S'8.1'
p623
sg50
S'4.6'
p624
sg52
S'15.8'
p625
sg54
S'8.5'
p626
sg56
S'1991-92'
p627
sg58
S'8.3'
p628
sg60
S'4.7'
p629
sg62
S'.510'
p630
sg64
S'979'
p631
sg66
S'18'
p632
sba(isrc.gp1.models.Per100Possession
Per100Possession
p633
(dp634
g8
S'4.3'
p635
sg10
S'1.5'
p636
sg12
S'.485'
p637
sg541
S'104'
p638
sg14
S'4.6'
p639
sg16
S'.280'
p640
sg18
S'0.4'
p641
sg20
S'20.8'
p642
sg22
g23
sg547
S'103'
p643
sg24
S'.689'
p644
sg28
S'NBA'
p645
sg30
S'2.5'
p646
sg32
S'16.2'
p647
sg34
S'6.1'
p648
sg36
S'6.7'
p649
sg38
S'14.4'
p650
sg40
S'24'
p651
sg42
S'LAL'
p652
sg44
S'82'
p653
sg46
S'2.8'
p654
sg48
S'7.4'
p655
sg50
S'4.6'
p656
sg52
S'14.7'
p657
sg54
S'10.1'
p658
sg56
S'1992-93'
p659
sg58
S'7.8'
p660
sg60
S'4.2'
p661
sg62
S'.505'
p662
sg64
S'2525'
p663
sg66
S'69'
p664
sba(isrc.gp1.models.Per100Possession
Per100Possession
p665
(dp666
g8
S'5.3'
p667
sg10
S'0.9'
p668
sg12
S'.506'
p669
sg541
S'110'
p670
sg14
S'5.7'
p671
sg16
S'.191'
p672
sg18
S'0.2'
p673
sg20
S'21.0'
p674
sg22
g23
sg547
S'105'
p675
sg24
S'.686'
p676
sg28
S'NBA'
p677
sg30
S'1.7'
p678
sg32
S'16.8'
p679
sg34
S'5.4'
p680
sg36
S'5.7'
p681
sg38
S'15.9'
p682
sg40
S'25'
p683
sg42
S'LAL'
p684
sg44
S'79'
p685
sg46
S'2.1'
p686
sg48
S'8.3'
p687
sg50
S'3.9'
p688
sg52
S'15.9'
p689
sg54
S'10.7'
p690
sg56
S'1993-94'
p691
sg58
S'8.5'
p692
sg60
S'3.6'
p693
sg62
S'.524'
p694
sg64
S'2685'
p695
sg66
S'73'
p696
sba(isrc.gp1.models.Per100Possession
Per100Possession
p697
(dp698
g8
S'4.7'
p699
sg10
S'1.0'
p700
sg12
S'.507'
p701
sg541
S'114'
p702
sg14
S'5.9'
p703
sg16
S'.189'
p704
sg18
S'0.2'
p705
sg20
S'22.9'
p706
sg22
g23
sg547
S'104'
p707
sg24
S'.777'
p708
sg28
S'NBA'
p709
sg30
S'2.0'
p710
sg32
S'17.2'
p711
sg34
S'5.5'
p712
sg36
S'6.9'
p713
sg38
S'14.9'
p714
sg40
S'26'
p715
sg42
S'LAL'
p716
sg44
S'80'
p717
sg46
S'3.1'
p718
sg48
S'8.5'
p719
sg50
S'5.3'
p720
sg52
S'16.2'
p721
sg54
S'10.2'
p722
sg56
S'1994-95'
p723
sg58
S'8.7'
p724
sg60
S'3.7'
p725
sg62
S'.525'
p726
sg64
S'2807'
p727
sg66
S'80'
p728
sba(isrc.gp1.models.Per100Possession
Per100Possession
p729
(dp730
g8
S'4.2'
p731
sg10
S'0.4'
p732
sg12
S'.513'
p733
sg541
S'106'
p734
sg14
S'5.5'
p735
sg16
S'.167'
p736
sg18
S'0.1'
p737
sg20
S'21.5'
p738
sg22
g23
sg547
S'103'
p739
sg24
S'.641'
p740
sg28
S'NBA'
p741
sg30
S'1.6'
p742
sg32
S'17.0'
p743
sg34
S'5.8'
p744
sg36
S'6.2'
p745
sg38
S'14.3'
p746
sg40
S'27'
p747
sg42
S'LAL'
p748
sg44
S'79'
p749
sg46
S'2.8'
p750
sg48
S'8.6'
p751
sg50
S'4.0'
p752
sg52
S'16.6'
p753
sg54
S'10.1'
p754
sg56
S'1995-96'
p755
sg58
S'8.7'
p756
sg60
S'4.2'
p757
sg62
S'.521'
p758
sg64
S'2470'
p759
sg66
S'79'
p760
sba(isrc.gp1.models.Per100Possession
Per100Possession
p761
(dp762
g8
S'4.6'
p763
sg10
S'0.9'
p764
sg12
S'.494'
p765
sg541
S'108'
p766
sg14
S'5.7'
p767
sg16
S'.234'
p768
sg18
S'0.2'
p769
sg20
S'19.5'
p770
sg22
g23
sg547
S'104'
p771
sg24
S'.683'
p772
sg28
S'NBA'
p773
sg30
S'2.0'
p774
sg32
S'16.2'
p775
sg34
S'5.3'
p776
sg36
S'4.9'
p777
sg38
S'13.8'
p778
sg40
S'28'
p779
sg42
S'CHH'
p780
sg44
S'81'
p781
sg46
S'3.4'
p782
sg48
S'7.8'
p783
sg50
S'3.4'
p784
sg52
S'15.3'
p785
sg54
S'9.2'
p786
sg56
S'1996-97'
p787
sg58
S'8.0'
p788
sg60
S'3.7'
p789
sg62
S'.509'
p790
sg64
S'2840'
p791
sg66
S'80'
p792
sba(isrc.gp1.models.Per100Possession
Per100Possession
p793
(dp794
g8
S'5.4'
p795
sg10
S'0.4'
p796
sg12
S'.498'
p797
sg541
S'110'
p798
sg14
S'5.1'
p799
sg16
S'.214'
p800
sg18
S'0.1'
p801
sg20
S'19.8'
p802
sg22
g23
sg547
S'100'
p803
sg24
S'.691'
p804
sg28
S'NBA'
p805
sg30
S'2.5'
p806
sg32
S'15.9'
p807
sg34
S'5.3'
p808
sg36
S'5.6'
p809
sg38
S'15.4'
p810
sg40
S'29'
p811
sg42
S'CHH'
p812
sg44
S'64'
p813
sg46
S'2.8'
p814
sg48
S'7.9'
p815
sg50
S'3.9'
p816
sg52
S'15.5'
p817
sg54
S'10.0'
p818
sg56
S'1997-98'
p819
sg58
S'7.9'
p820
sg60
S'3.4'
p821
sg62
S'.506'
p822
sg64
S'1805'
p823
sg66
S'41'
p824
sba(isrc.gp1.models.Per100Possession
Per100Possession
p825
(dp826
g8
S'4.0'
p827
sg10
S'1.2'
p828
sg12
S'.470'
p829
sg541
S'108'
p830
sg14
S'6.1'
p831
sg16
S'.256'
p832
sg18
S'0.3'
p833
sg20
S'20.3'
p834
sg22
g23
sg547
S'101'
p835
sg24
S'.702'
p836
sg28
S'NBA'
p837
sg30
S'1.2'
p838
sg32
S'15.8'
p839
sg34
S'4.7'
p840
sg36
S'7.2'
p841
sg38
S'14.2'
p842
sg40
S'30'
p843
sg42
S'SAC'
p844
sg44
S'50'
p845
sg46
S'1.4'
p846
sg48
S'7.1'
p847
sg50
S'5.1'
p848
sg52
S'14.6'
p849
sg54
S'10.3'
p850
sg56
S'1998-99'
p851
sg58
S'7.4'
p852
sg60
S'3.7'
p853
sg62
S'.488'
p854
sg64
S'1761'
p855
sg66
S'50'
p856
sba(isrc.gp1.models.Per100Possession
Per100Possession
p857
(dp858
g8
S'3.5'
p859
sg10
S'0.5'
p860
sg12
S'.503'
p861
sg541
S'106'
p862
sg14
S'5.0'
p863
sg16
S'.269'
p864
sg18
S'0.1'
p865
sg20
S'20.5'
p866
sg22
g23
sg547
S'98'
p867
sg24
S'.691'
p868
sg28
S'NBA'
p869
sg30
S'2.1'
p870
sg32
S'15.6'
p871
sg34
S'5.1'
p872
sg36
S'6.8'
p873
sg38
S'13.4'
p874
sg40
S'31'
p875
sg42
S'SAC'
p876
sg44
S'82'
p877
sg46
S'2.1'
p878
sg48
S'7.7'
p879
sg50
S'4.7'
p880
sg52
S'15.0'
p881
sg54
S'9.8'
p882
sg56
S'1999-00'
p883
sg58
S'7.8'
p884
sg60
S'3.9'
p885
sg62
S'.511'
p886
sg64
S'2374'
p887
sg66
S'81'
p888
sba(isrc.gp1.models.Per100Possession
Per100Possession
p889
(dp890
g8
S'4.3'
p891
sg10
S'0.3'
p892
sg12
S'.482'
p893
sg541
S'105'
p894
sg14
S'4.9'
p895
sg16
S'.286'
p896
sg18
S'0.1'
p897
sg20
S'20.5'
p898
sg22
g23
sg547
S'97'
p899
sg24
S'.691'
p900
sg28
S'NBA'
p901
sg30
S'1.8'
p902
sg32
S'15.9'
p903
sg34
S'5.1'
p904
sg36
S'7.4'
p905
sg38
S'14.1'
p906
sg40
S'32'
p907
sg42
S'SAC'
p908
sg44
S'81'
p909
sg46
S'2.0'
p910
sg48
S'7.6'
p911
sg50
S'5.1'
p912
sg52
S'15.6'
p913
sg54
S'9.8'
p914
sg56
S'2000-01'
p915
sg58
S'7.6'
p916
sg60
S'4.0'
p917
sg62
S'.486'
p918
sg64
S'2420'
p919
sg66
S'81'
p920
sba(isrc.gp1.models.Per100Possession
Per100Possession
p921
(dp922
g8
S'4.3'
p923
sg10
S'0.3'
p924
sg12
S'.472'
p925
sg541
S'107'
p926
sg14
S'6.2'
p927
sg16
S'.231'
p928
sg18
S'0.1'
p929
sg20
S'18.4'
p930
sg22
g23
sg547
S'99'
p931
sg24
S'.615'
p932
sg28
S'NBA'
p933
sg30
S'1.6'
p934
sg32
S'14.9'
p935
sg34
S'4.8'
p936
sg36
S'7.1'
p937
sg38
S'13.9'
p938
sg40
S'33'
p939
sg42
S'SAC'
p940
sg44
S'80'
p941
sg46
S'2.0'
p942
sg48
S'7.0'
p943
sg50
S'4.3'
p944
sg52
S'14.6'
p945
sg54
S'9.7'
p946
sg56
S'2001-02'
p947
sg58
S'7.0'
p948
sg60
S'3.3'
p949
sg62
S'.477'
p950
sg64
S'2420'
p951
sg66
S'80'
p952
sba(isrc.gp1.models.Per100Possession
Per100Possession
p953
(dp954
g8
S'3.3'
p955
sg10
S'0.5'
p956
sg12
S'.466'
p957
sg541
S'105'
p958
sg14
S'5.8'
p959
sg16
S'.240'
p960
sg18
S'0.1'
p961
sg20
S'16.8'
p962
sg22
g23
sg547
S'97'
p963
sg24
S'.713'
p964
sg28
S'NBA'
p965
sg30
S'1.8'
p966
sg32
S'13.8'
p967
sg34
S'5.0'
p968
sg36
S'5.3'
p969
sg38
S'12.1'
p970
sg40
S'34'
p971
sg42
S'SAC'
p972
sg44
S'80'
p973
sg46
S'2.2'
p974
sg48
S'6.3'
p975
sg50
S'3.8'
p976
sg52
S'13.3'
p977
sg54
S'8.8'
p978
sg56
S'2002-03'
p979
sg58
S'6.4'
p980
sg60
S'3.2'
p981
sg62
S'.475'
p982
sg64
S'2384'
p983
sg66
S'80'
p984
sba(isrc.gp1.models.Per100Possession
Per100Possession
p985
(dp986
g8
S'3.0'
p987
sg10
S'0.3'
p988
sg12
S'.470'
p989
sg541
S'106'
p990
sg14
S'9.6'
p991
sg16
S'.154'
p992
sg18
S'0.0'
p993
sg20
S'17.9'
p994
sg22
g23
sg547
S'105'
p995
sg24
S'.654'
p996
sg28
S'NBA'
p997
sg30
S'1.3'
p998
sg32
S'14.9'
p999
sg34
S'5.0'
p1000
sg36
S'5.8'
p1001
sg38
S'10.3'
p1002
sg40
S'35'
p1003
sg42
S'SAC'
p1004
sg44
S'81'
p1005
sg46
S'1.7'
p1006
sg48
S'7.0'
p1007
sg50
S'3.8'
p1008
sg52
S'14.6'
p1009
sg54
S'7.3'
p1010
sg56
S'2003-04'
p1011
sg58
S'7.0'
p1012
sg60
S'3.9'
p1013
sg62
S'.476'
p1014
sg64
S'2317'
p1015
sg66
S'81'
p1016
sba(isrc.gp1.models.Per100Possession
Per100Possession
p1017
(dp1018
g8
S'5.7'
p1019
sg10
S'0.0'
p1020
sg12
S'.419'
p1021
sg541
S'112'
p1022
sg14
S'1.6'
p1023
sg16
S'5.3'
p1024
sg18
S'0.0'
p1025
sg20
S'97'
p1026
sg22
g23
sg547
g3
sg24
S'7.3'
p1027
sg28
S'NBA'
p1028
sg30
S'0.4'
p1029
sg32
S'12.6'
p1030
sg34
S'13.8'
p1031
sg36
S'.667'
p1032
sg38
S'7.7'
p1033
sg40
S'36'
p1034
sg42
S'LAL'
p1035
sg44
S'15'
p1036
sg46
S'5.7'
p1037
sg48
S'12.6'
p1038
sg50
S'4.9'
p1039
sg52
S'.419'
p1040
sg54
S'13.0'
p1041
sg56
S'2004-05'
p1042
sg58
S'5.3'
p1043
sg60
S'10.2'
p1044
sg62
S'3.3'
p1045
sg64
S'130'
p1046
sg66
g19
sbasS'_advanced'
p1047
(lp1048
(isrc.gp1.models.Advanced
Advanced
p1049
(dp1050
S'_offensiveReboundPercentage'
p1051
S'12.3'
p1052
sS'_turnOverPercentage'
p1053
S'14.6'
p1054
sS'_winSharesPer48Minutes'
p1055
S'.148'
p1056
sS'_stealPercentage'
p1057
S'2.4'
p1058
sS'_usagePercentage'
p1059
S'20.0'
p1060
sS'_totalReboundsPercentage'
p1061
S'18.2'
p1062
sS'_defensiveBoxPlusMinus'
p1063
S'2.5'
p1064
sg22
g23
sS'_valueOverReplacementPlayer'
p1065
S'1.4'
p1066
sS'_trueShootingPercentage'
p1067
S'.544'
p1068
sS'_defensiveReboundPercentage'
p1069
S'23.7'
p1070
sS'_freeThrowsAttempRate'
p1071
S'.393'
p1072
sS'_threePointsAttempRate'
p1073
S'.009'
p1074
sg28
S'NBA'
p1075
sS'_offensiveBoxPlusMinues'
p1076
S'-1.0'
p1077
sS'_assistPercentage'
p1078
S'6.7'
p1079
sS'_defensiveWinShares'
p1080
S'3.2'
p1081
sg40
S'21'
p1082
sg42
S'LAL'
p1083
sg44
S'82'
p1084
sS'_blockPercentage'
p1085
S'4.2'
p1086
sS'_playerEfficiencyRating'
p1087
S'17.5'
p1088
sS'_offensiveWinShares'
p1089
S'1.7'
p1090
sg64
S'1611'
p1091
sS'_boxPlusMinus'
p1092
S'1.5'
p1093
sg56
S'1989-90'
p1094
sS'_winShares'
p1095
S'5.0'
p1096
sba(isrc.gp1.models.Advanced
Advanced
p1097
(dp1098
g1051
S'10.8'
p1099
sg1053
S'16.1'
p1100
sg1055
S'.173'
p1101
sg1057
S'2.3'
p1102
sg1059
S'17.1'
p1103
sg1061
S'16.7'
p1104
sg1063
S'3.4'
p1105
sg22
g23
sg1065
S'3.3'
p1106
sg1067
S'.606'
p1107
sg1069
S'22.2'
p1108
sg1071
S'.438'
p1109
sg1073
S'.022'
p1110
sg28
S'NBA'
p1111
sg1076
S'0.3'
p1112
sg1078
S'5.8'
p1113
sg1080
S'4.8'
p1114
sg40
S'22'
p1115
sg42
S'LAL'
p1116
sg44
S'82'
p1117
sg1085
S'3.3'
p1118
sg1087
S'17.7'
p1119
sg1089
S'3.6'
p1120
sg64
S'2310'
p1121
sg1092
S'3.7'
p1122
sg56
S'1990-91'
p1123
sg1095
S'8.3'
p1124
sba(isrc.gp1.models.Advanced
Advanced
p1125
(dp1126
g1051
S'10.0'
p1127
sg1053
S'19.4'
p1128
sg1055
S'.090'
p1129
sg1057
S'2.9'
p1130
sg1059
S'20.3'
p1131
sg1061
S'14.4'
p1132
sg1063
S'2.0'
p1133
sg22
g23
sg1065
S'0.8'
p1134
sg1067
S'.553'
p1135
sg1069
S'18.9'
p1136
sg1071
S'.353'
p1137
sg1073
S'.060'
p1138
sg28
S'NBA'
p1139
sg1076
S'-0.8'
p1140
sg1078
S'9.5'
p1141
sg1080
S'1.5'
p1142
sg40
S'23'
p1143
sg42
S'LAL'
p1144
sg44
S'36'
p1145
sg1085
S'2.2'
p1146
sg1087
S'15.9'
p1147
sg1089
S'0.4'
p1148
sg64
S'979'
p1149
sg1092
S'1.2'
p1150
sg56
S'1991-92'
p1151
sg1095
S'1.8'
p1152
sba(isrc.gp1.models.Advanced
Advanced
p1153
(dp1154
g1051
S'9.8'
p1155
sg1053
S'18.1'
p1156
sg1055
S'.107'
p1157
sg1057
S'2.5'
p1158
sg1059
S'20.0'
p1159
sg1061
S'16.5'
p1160
sg1063
S'3.4'
p1161
sg22
g23
sg1065
S'3.3'
p1162
sg1067
S'.542'
p1163
sg1069
S'23.2'
p1164
sg1071
S'.416'
p1165
sg1073
S'.092'
p1166
sg28
S'NBA'
p1167
sg1076
S'-0.1'
p1168
sg1078
S'13.6'
p1169
sg1080
S'4.1'
p1170
sg40
S'24'
p1171
sg42
S'LAL'
p1172
sg44
S'82'
p1173
sg1085
S'3.4'
p1174
sg1087
S'17.1'
p1175
sg1089
S'1.5'
p1176
sg64
S'2525'
p1177
sg1092
S'3.2'
p1178
sg56
S'1992-93'
p1179
sg1095
S'5.6'
p1180
sba(isrc.gp1.models.Advanced
Advanced
p1181
(dp1182
g1051
S'10.9'
p1183
sg1053
S'15.7'
p1184
sg1055
S'.132'
p1185
sg1057
S'1.7'
p1186
sg1059
S'19.1'
p1187
sg1061
S'17.2'
p1188
sg1063
S'2.3'
p1189
sg22
g23
sg1065
S'3.9'
p1190
sg1067
S'.546'
p1191
sg1069
S'24.0'
p1192
sg1071
S'.339'
p1193
sg1073
S'.053'
p1194
sg28
S'NBA'
p1195
sg1076
S'1.5'
p1196
sg1078
S'17.2'
p1197
sg1080
S'3.2'
p1198
sg40
S'25'
p1199
sg42
S'LAL'
p1200
sg44
S'79'
p1201
sg1085
S'2.6'
p1202
sg1087
S'18.8'
p1203
sg1089
S'4.2'
p1204
sg64
S'2685'
p1205
sg1092
S'3.8'
p1206
sg56
S'1993-94'
p1207
sg1095
S'7.4'
p1208
sba(isrc.gp1.models.Advanced
Advanced
p1209
(dp1210
g1051
S'10.3'
p1211
sg1053
S'15.4'
p1212
sg1055
S'.162'
p1213
sg1057
S'2.0'
p1214
sg1059
S'20.4'
p1215
sg1061
S'16.3'
p1216
sg1063
S'3.6'
p1217
sg22
g23
sg1065
S'5.1'
p1218
sg1067
S'.568'
p1219
sg1069
S'22.4'
p1220
sg1071
S'.399'
p1221
sg1073
S'.055'
p1222
sg28
S'NBA'
p1223
sg1076
S'1.7'
p1224
sg1078
S'18.0'
p1225
sg1080
S'4.2'
p1226
sg40
S'26'
p1227
sg42
S'LAL'
p1228
sg44
S'80'
p1229
sg1085
S'4.3'
p1230
sg1087
S'20.5'
p1231
sg1089
S'5.3'
p1232
sg64
S'2807'
p1233
sg1092
S'5.3'
p1234
sg56
S'1994-95'
p1235
sg1095
S'9.5'
p1236
sba(isrc.gp1.models.Advanced
Advanced
p1237
(dp1238
g1051
S'9.5'
p1239
sg1053
S'17.5'
p1240
sg1055
S'.119'
p1241
sg1057
S'1.6'
p1242
sg1059
S'20.6'
p1243
sg1061
S'16.0'
p1244
sg1063
S'3.1'
p1245
sg22
g23
sg1065
S'3.0'
p1246
sg1067
S'.544'
p1247
sg1069
S'22.2'
p1248
sg1071
S'.366'
p1249
sg1073
S'.022'
p1250
sg28
S'NBA'
p1251
sg1076
S'-0.3'
p1252
sg1078
S'16.3'
p1253
sg1080
S'4.0'
p1254
sg40
S'27'
p1255
sg42
S'LAL'
p1256
sg44
S'79'
p1257
sg1085
S'3.7'
p1258
sg1087
S'17.4'
p1259
sg1089
S'2.2'
p1260
sg64
S'2470'
p1261
sg1092
S'2.8'
p1262
sg56
S'1995-96'
p1263
sg1095
S'6.1'
p1264
sba(isrc.gp1.models.Advanced
Advanced
p1265
(dp1266
g1051
S'10.6'
p1267
sg1053
S'16.7'
p1268
sg1055
S'.123'
p1269
sg1057
S'2.0'
p1270
sg1059
S'19.1'
p1271
sg1061
S'15.5'
p1272
sg1063
S'4.0'
p1273
sg22
g23
sg1065
S'4.8'
p1274
sg1067
S'.533'
p1275
sg1069
S'20.0'
p1276
sg1071
S'.306'
p1277
sg1073
S'.055'
p1278
sg28
S'NBA'
p1279
sg1076
S'0.7'
p1280
sg1078
S'17.5'
p1281
sg1080
S'3.9'
p1282
sg40
S'28'
p1283
sg42
S'CHH'
p1284
sg44
S'81'
p1285
sg1085
S'4.7'
p1286
sg1087
S'17.9'
p1287
sg1089
S'3.4'
p1288
sg64
S'2840'
p1289
sg1092
S'4.7'
p1290
sg56
S'1996-97'
p1291
sg1095
S'7.3'
p1292
sba(isrc.gp1.models.Advanced
Advanced
p1293
(dp1294
g1051
S'12.4'
p1295
sg1053
S'15.6'
p1296
sg1055
S'.157'
p1297
sg1057
S'2.5'
p1298
sg1059
S'18.8'
p1299
sg1061
S'17.3'
p1300
sg1063
S'3.8'
p1301
sg22
g23
sg1065
S'3.3'
p1302
sg1067
S'.539'
p1303
sg1069
S'22.2'
p1304
sg1071
S'.351'
p1305
sg1073
S'.026'
p1306
sg28
S'NBA'
p1307
sg1076
S'1.4'
p1308
sg1078
S'15.8'
p1309
sg1080
S'3.0'
p1310
sg40
S'29'
p1311
sg42
S'CHH'
p1312
sg44
S'64'
p1313
sg1085
S'3.8'
p1314
sg1087
S'19.4'
p1315
sg1089
S'2.9'
p1316
sg64
S'1805'
p1317
sg1092
S'5.2'
p1318
sg56
S'1997-98'
p1319
sg1095
S'5.9'
p1320
sba(isrc.gp1.models.Advanced
Advanced
p1321
(dp1322
g1051
S'8.4'
p1323
sg1053
S'16.4'
p1324
sg1055
S'.142'
p1325
sg1057
S'1.2'
p1326
sg1059
S'19.4'
p1327
sg1061
S'15.0'
p1328
sg1063
S'1.8'
p1329
sg22
g23
sg1065
S'2.1'
p1330
sg1067
S'.533'
p1331
sg1069
S'21.5'
p1332
sg1071
S'.458'
p1333
sg1073
S'.077'
p1334
sg28
S'NBA'
p1335
sg1076
S'0.8'
p1336
sg1078
S'19.2'
p1337
sg1080
S'2.1'
p1338
sg40
S'30'
p1339
sg42
S'SAC'
p1340
sg44
S'50'
p1341
sg1085
S'1.8'
p1342
sg1087
S'18.0'
p1343
sg1089
S'3.1'
p1344
sg64
S'1761'
p1345
sg1092
S'2.7'
p1346
sg56
S'1998-99'
p1347
sg1095
S'5.2'
p1348
sba(isrc.gp1.models.Advanced
Advanced
p1349
(dp1350
g1051
S'7.6'
p1351
sg1053
S'17.3'
p1352
sg1055
S'.145'
p1353
sg1057
S'2.1'
p1354
sg1059
S'19.3'
p1355
sg1061
S'14.4'
p1356
sg1063
S'3.5'
p1357
sg22
g23
sg1065
S'3.2'
p1358
sg1067
S'.552'
p1359
sg1069
S'21.3'
p1360
sg1071
S'.436'
p1361
sg1073
S'.034'
p1362
sg28
S'NBA'
p1363
sg1076
S'-0.1'
p1364
sg1078
S'15.4'
p1365
sg1080
S'4.1'
p1366
sg40
S'31'
p1367
sg42
S'SAC'
p1368
sg44
S'82'
p1369
sg1085
S'2.8'
p1370
sg1087
S'18.0'
p1371
sg1089
S'3.0'
p1372
sg64
S'2374'
p1373
sg1092
S'3.4'
p1374
sg56
S'1999-00'
p1375
sg1095
S'7.2'
p1376
sba(isrc.gp1.models.Advanced
Advanced
p1377
(dp1378
g1051
S'9.5'
p1379
sg1053
S'17.4'
p1380
sg1055
S'.147'
p1381
sg1057
S'1.8'
p1382
sg1059
S'20.1'
p1383
sg1061
S'15.0'
p1384
sg1063
S'2.9'
p1385
sg22
g23
sg1065
S'2.9'
p1386
sg1067
S'.536'
p1387
sg1069
S'20.2'
p1388
sg1071
S'.464'
p1389
sg1073
S'.019'
p1390
sg28
S'NBA'
p1391
sg1076
S'-0.1'
p1392
sg1078
S'15.2'
p1393
sg1080
S'4.3'
p1394
sg40
S'32'
p1395
sg42
S'SAC'
p1396
sg44
S'81'
p1397
sg1085
S'2.6'
p1398
sg1087
S'17.7'
p1399
sg1089
S'3.1'
p1400
sg64
S'2420'
p1401
sg1092
S'2.8'
p1402
sg56
S'2000-01'
p1403
sg1095
S'7.4'
p1404
sba(isrc.gp1.models.Advanced
Advanced
p1405
(dp1406
g1051
S'9.2'
p1407
sg1053
S'15.4'
p1408
sg1055
S'.145'
p1409
sg1057
S'1.6'
p1410
sg1059
S'18.4'
p1411
sg1061
S'14.8'
p1412
sg1063
S'3.3'
p1413
sg22
g23
sg1065
S'3.3'
p1414
sg1067
S'.513'
p1415
sg1069
S'20.2'
p1416
sg1071
S'.475'
p1417
sg1073
S'.018'
p1418
sg28
S'NBA'
p1419
sg1076
S'0.1'
p1420
sg1078
S'17.9'
p1421
sg1080
S'4.2'
p1422
sg40
S'33'
p1423
sg42
S'SAC'
p1424
sg44
S'80'
p1425
sg1085
S'2.6'
p1426
sg1087
S'17.0'
p1427
sg1089
S'3.1'
p1428
sg64
S'2420'
p1429
sg1092
S'3.3'
p1430
sg56
S'2001-02'
p1431
sg1095
S'7.3'
p1432
sba(isrc.gp1.models.Advanced
Advanced
p1433
(dp1434
g1051
S'7.4'
p1435
sg1053
S'16.6'
p1436
sg1055
S'.141'
p1437
sg1057
S'1.8'
p1438
sg1059
S'17.0'
p1439
sg1061
S'12.9'
p1440
sg1063
S'3.6'
p1441
sg22
g23
sg1065
S'3.0'
p1442
sg1067
S'.519'
p1443
sg1069
S'17.8'
p1444
sg1071
S'.383'
p1445
sg1073
S'.038'
p1446
sg28
S'NBA'
p1447
sg1076
S'-0.6'
p1448
sg1078
S'16.7'
p1449
sg1080
S'4.4'
p1450
sg40
S'34'
p1451
sg42
S'SAC'
p1452
sg44
S'80'
p1453
sg1085
S'2.9'
p1454
sg1087
S'15.6'
p1455
sg1089
S'2.6'
p1456
sg64
S'2384'
p1457
sg1092
S'2.9'
p1458
sg56
S'2002-03'
p1459
sg1095
S'7.0'
p1460
sba(isrc.gp1.models.Advanced
Advanced
p1461
(dp1462
g1051
S'6.8'
p1463
sg1053
S'18.1'
p1464
sg1055
S'.110'
p1465
sg1057
S'1.3'
p1466
sg1059
S'18.6'
p1467
sg1061
S'11.3'
p1468
sg1063
S'1.0'
p1469
sg22
g23
sg1065
S'1.8'
p1470
sg1067
S'.511'
p1471
sg1069
S'15.6'
p1472
sg1071
S'.389'
p1473
sg1073
S'.019'
p1474
sg28
S'NBA'
p1475
sg1076
S'0.2'
p1476
sg1078
S'28.7'
p1477
sg1080
S'1.8'
p1478
sg40
S'35'
p1479
sg42
S'SAC'
p1480
sg44
S'81'
p1481
sg1085
S'2.3'
p1482
sg1087
S'16.3'
p1483
sg1089
S'3.5'
p1484
sg64
S'2317'
p1485
sg1092
S'1.1'
p1486
sg56
S'2003-04'
p1487
sg1095
S'5.3'
p1488
sba(isrc.gp1.models.Advanced
Advanced
p1489
(dp1490
g1051
S'15.7'
p1491
sg1053
S'27.8'
p1492
sg1055
S'.013'
p1493
sg1057
S'1.6'
p1494
sg1059
S'17.5'
p1495
sg1061
S'13.9'
p1496
sg1063
S'-0.4'
p1497
sg22
g23
sg1065
S'0.0'
p1498
sg1067
S'.469'
p1499
sg1069
S'12.1'
p1500
sg1071
S'.387'
p1501
sg1073
S'.000'
p1502
sg28
S'NBA'
p1503
sg1076
S'-2.0'
p1504
sg1078
S'23.1'
p1505
sg1080
S'0.0'
p1506
sg40
S'36'
p1507
sg42
S'LAL'
p1508
sg44
S'15'
p1509
sg1085
S'0.6'
p1510
sg1087
S'10.5'
p1511
sg1089
S'0.0'
p1512
sg64
S'130'
p1513
sg1092
S'-2.4'
p1514
sg56
S'2004-05'
p1515
sg1095
S'0.0'
p1516
sbasS'_per36Minutes'
p1517
(lp1518
(isrc.gp1.models.Per36Minutes
Per36Minutes
p1519
(dp1520
g8
S'3.7'
p1521
sg10
S'0.1'
p1522
sg12
S'.499'
p1523
sg14
S'1.7'
p1524
sg16
S'.000'
p1525
sg18
S'0.0'
p1526
sg20
S'15.7'
p1527
sg22
g23
sg24
S'.708'
p1528
sg28
S'NBA'
p1529
sg30
S'1.8'
p1530
sg32
S'12.3'
p1531
sg34
S'5.4'
p1532
sg36
S'4.8'
p1533
sg38
S'11.4'
p1534
sg40
S'21'
p1535
sg42
S'LAL'
p1536
sg44
S'82'
p1537
sg46
S'2.5'
p1538
sg48
S'6.1'
p1539
sg50
S'3.4'
p1540
sg52
S'12.2'
p1541
sg54
S'7.7'
p1542
sg56
S'1989-90'
p1543
sg58
S'6.1'
p1544
sg60
S'2.5'
p1545
sg62
S'.504'
p1546
sg64
S'1611'
p1547
sg66
g11
sba(isrc.gp1.models.Per36Minutes
Per36Minutes
p1548
(dp1549
g8
S'3.2'
p1550
sg10
S'0.2'
p1551
sg12
S'.565'
p1552
sg14
S'1.4'
p1553
sg16
S'.357'
p1554
sg18
S'0.1'
p1555
sg20
S'14.4'
p1556
sg22
g23
sg24
S'.703'
p1557
sg28
S'NBA'
p1558
sg30
S'1.7'
p1559
sg32
S'9.9'
p1560
sg34
S'3.8'
p1561
sg36
S'4.3'
p1562
sg38
S'10.4'
p1563
sg40
S'22'
p1564
sg42
S'LAL'
p1565
sg44
S'82'
p1566
sg46
S'2.0'
p1567
sg48
S'5.5'
p1568
sg50
S'3.1'
p1569
sg52
S'9.7'
p1570
sg54
S'7.2'
p1571
sg56
S'1990-91'
p1572
sg58
S'5.6'
p1573
sg60
S'2.3'
p1574
sg62
S'.570'
p1575
sg64
S'2310'
p1576
sg66
S'81'
p1577
sba(isrc.gp1.models.Per36Minutes
Per36Minutes
p1578
(dp1579
g8
S'3.2'
p1580
sg10
S'0.7'
p1581
sg12
S'.495'
p1582
sg14
S'2.2'
p1583
sg16
S'.263'
p1584
sg18
S'0.2'
p1585
sg20
S'14.9'
p1586
sg22
g23
sg24
S'.768'
p1587
sg28
S'NBA'
p1588
sg30
S'2.0'
p1589
sg32
S'11.7'
p1590
sg34
S'4.2'
p1591
sg36
S'4.1'
p1592
sg38
S'9.1'
p1593
sg40
S'23'
p1594
sg42
S'LAL'
p1595
sg44
S'36'
p1596
sg46
S'1.3'
p1597
sg48
S'5.6'
p1598
sg50
S'3.2'
p1599
sg52
S'11.0'
p1600
sg54
S'5.9'
p1601
sg56
S'1991-92'
p1602
sg58
S'5.8'
p1603
sg60
S'3.2'
p1604
sg62
S'.510'
p1605
sg64
S'979'
p1606
sg66
S'18'
p1607
sba(isrc.gp1.models.Per36Minutes
Per36Minutes
p1608
(dp1609
g8
S'3.1'
p1610
sg10
S'1.1'
p1611
sg12
S'.485'
p1612
sg14
S'3.3'
p1613
sg16
S'.280'
p1614
sg18
S'0.3'
p1615
sg20
S'15.0'
p1616
sg22
g23
sg24
S'.689'
p1617
sg28
S'NBA'
p1618
sg30
S'1.8'
p1619
sg32
S'11.7'
p1620
sg34
S'4.4'
p1621
sg36
S'4.9'
p1622
sg38
S'10.4'
p1623
sg40
S'24'
p1624
sg42
S'LAL'
p1625
sg44
S'82'
p1626
sg46
S'2.0'
p1627
sg48
S'5.4'
p1628
sg50
S'3.4'
p1629
sg52
S'10.6'
p1630
sg54
S'7.3'
p1631
sg56
S'1992-93'
p1632
sg58
S'5.7'
p1633
sg60
S'3.1'
p1634
sg62
S'.505'
p1635
sg64
S'2525'
p1636
sg66
S'69'
p1637
sba(isrc.gp1.models.Per36Minutes
Per36Minutes
p1638
(dp1639
g8
S'3.8'
p1640
sg10
S'0.6'
p1641
sg12
S'.506'
p1642
sg14
S'4.1'
p1643
sg16
S'.191'
p1644
sg18
S'0.1'
p1645
sg20
S'15.1'
p1646
sg22
g23
sg24
S'.686'
p1647
sg28
S'NBA'
p1648
sg30
S'1.2'
p1649
sg32
S'12.0'
p1650
sg34
S'3.9'
p1651
sg36
S'4.1'
p1652
sg38
S'11.4'
p1653
sg40
S'25'
p1654
sg42
S'LAL'
p1655
sg44
S'79'
p1656
sg46
S'1.5'
p1657
sg48
S'6.0'
p1658
sg50
S'2.8'
p1659
sg52
S'11.4'
p1660
sg54
S'7.6'
p1661
sg56
S'1993-94'
p1662
sg58
S'6.1'
p1663
sg60
S'2.6'
p1664
sg62
S'.524'
p1665
sg64
S'2685'
p1666
sg66
S'73'
p1667
sba(isrc.gp1.models.Per36Minutes
Per36Minutes
p1668
(dp1669
g8
S'3.3'
p1670
sg10
S'0.7'
p1671
sg12
S'.507'
p1672
sg14
S'4.2'
p1673
sg16
S'.189'
p1674
sg18
S'0.1'
p1675
sg20
S'16.4'
p1676
sg22
g23
sg24
S'.777'
p1677
sg28
S'NBA'
p1678
sg30
S'1.4'
p1679
sg32
S'12.3'
p1680
sg34
S'3.9'
p1681
sg36
S'4.9'
p1682
sg38
S'10.6'
p1683
sg40
S'26'
p1684
sg42
S'LAL'
p1685
sg44
S'80'
p1686
sg46
S'2.2'
p1687
sg48
S'6.1'
p1688
sg50
S'3.8'
p1689
sg52
S'11.6'
p1690
sg54
S'7.3'
p1691
sg56
S'1994-95'
p1692
sg58
S'6.2'
p1693
sg60
S'2.6'
p1694
sg62
S'.525'
p1695
sg64
S'2807'
p1696
sg66
S'80'
p1697
sba(isrc.gp1.models.Per36Minutes
Per36Minutes
p1698
(dp1699
g8
S'2.9'
p1700
sg10
S'0.3'
p1701
sg12
S'.513'
p1702
sg14
S'3.8'
p1703
sg16
S'.167'
p1704
sg18
S'0.0'
p1705
sg20
S'14.9'
p1706
sg22
g23
sg24
S'.641'
p1707
sg28
S'NBA'
p1708
sg30
S'1.1'
p1709
sg32
S'11.8'
p1710
sg34
S'4.0'
p1711
sg36
S'4.3'
p1712
sg38
S'9.9'
p1713
sg40
S'27'
p1714
sg42
S'LAL'
p1715
sg44
S'79'
p1716
sg46
S'1.9'
p1717
sg48
S'6.0'
p1718
sg50
S'2.8'
p1719
sg52
S'11.5'
p1720
sg54
S'7.0'
p1721
sg56
S'1995-96'
p1722
sg58
S'6.0'
p1723
sg60
S'2.9'
p1724
sg62
S'.521'
p1725
sg64
S'2470'
p1726
sg66
S'79'
p1727
sba(isrc.gp1.models.Per36Minutes
Per36Minutes
p1728
(dp1729
g8
S'3.1'
p1730
sg10
S'0.6'
p1731
sg12
S'.494'
p1732
sg14
S'3.8'
p1733
sg16
S'.234'
p1734
sg18
S'0.1'
p1735
sg20
S'13.0'
p1736
sg22
g23
sg24
S'.683'
p1737
sg28
S'NBA'
p1738
sg30
S'1.3'
p1739
sg32
S'10.7'
p1740
sg34
S'3.5'
p1741
sg36
S'3.3'
p1742
sg38
S'9.2'
p1743
sg40
S'28'
p1744
sg42
S'CHH'
p1745
sg44
S'81'
p1746
sg46
S'2.3'
p1747
sg48
S'5.2'
p1748
sg50
S'2.2'
p1749
sg52
S'10.1'
p1750
sg54
S'6.1'
p1751
sg56
S'1996-97'
p1752
sg58
S'5.3'
p1753
sg60
S'2.4'
p1754
sg62
S'.509'
p1755
sg64
S'2840'
p1756
sg66
S'80'
p1757
sba(isrc.gp1.models.Per36Minutes
Per36Minutes
p1758
(dp1759
g8
S'3.6'
p1760
sg10
S'0.3'
p1761
sg12
S'.498'
p1762
sg14
S'3.4'
p1763
sg16
S'.214'
p1764
sg18
S'0.1'
p1765
sg20
S'13.3'
p1766
sg22
g23
sg24
S'.691'
p1767
sg28
S'NBA'
p1768
sg30
S'1.7'
p1769
sg32
S'10.7'
p1770
sg34
S'3.6'
p1771
sg36
S'3.7'
p1772
sg38
S'10.3'
p1773
sg40
S'29'
p1774
sg42
S'CHH'
p1775
sg44
S'64'
p1776
sg46
S'1.9'
p1777
sg48
S'5.3'
p1778
sg50
S'2.6'
p1779
sg52
S'10.4'
p1780
sg54
S'6.7'
p1781
sg56
S'1997-98'
p1782
sg58
S'5.3'
p1783
sg60
S'2.3'
p1784
sg62
S'.506'
p1785
sg64
S'1805'
p1786
sg66
S'41'
p1787
sba(isrc.gp1.models.Per36Minutes
Per36Minutes
p1788
(dp1789
g8
S'2.9'
p1790
sg10
S'0.9'
p1791
sg12
S'.470'
p1792
sg14
S'4.4'
p1793
sg16
S'.256'
p1794
sg18
S'0.2'
p1795
sg20
S'14.6'
p1796
sg22
g23
sg24
S'.702'
p1797
sg28
S'NBA'
p1798
sg30
S'0.9'
p1799
sg32
S'11.4'
p1800
sg34
S'3.4'
p1801
sg36
S'5.2'
p1802
sg38
S'10.2'
p1803
sg40
S'30'
p1804
sg42
S'SAC'
p1805
sg44
S'50'
p1806
sg46
S'1.0'
p1807
sg48
S'5.1'
p1808
sg50
S'3.7'
p1809
sg52
S'10.5'
p1810
sg54
S'7.4'
p1811
sg56
S'1998-99'
p1812
sg58
S'5.4'
p1813
sg60
S'2.7'
p1814
sg62
S'.488'
p1815
sg64
S'1761'
p1816
sg66
S'50'
p1817
sba(isrc.gp1.models.Per36Minutes
Per36Minutes
p1818
(dp1819
g8
S'2.6'
p1820
sg10
S'0.4'
p1821
sg12
S'.503'
p1822
sg14
S'3.7'
p1823
sg16
S'.269'
p1824
sg18
S'0.1'
p1825
sg20
S'15.2'
p1826
sg22
g23
sg24
S'.691'
p1827
sg28
S'NBA'
p1828
sg30
S'1.6'
p1829
sg32
S'11.6'
p1830
sg34
S'3.8'
p1831
sg36
S'5.0'
p1832
sg38
S'9.9'
p1833
sg40
S'31'
p1834
sg42
S'SAC'
p1835
sg44
S'82'
p1836
sg46
S'1.6'
p1837
sg48
S'5.7'
p1838
sg50
S'3.5'
p1839
sg52
S'11.2'
p1840
sg54
S'7.3'
p1841
sg56
S'1999-00'
p1842
sg58
S'5.8'
p1843
sg60
S'2.9'
p1844
sg62
S'.511'
p1845
sg64
S'2374'
p1846
sg66
S'81'
p1847
sba(isrc.gp1.models.Per36Minutes
Per36Minutes
p1848
(dp1849
g8
S'3.1'
p1850
sg10
S'0.2'
p1851
sg12
S'.482'
p1852
sg14
S'3.4'
p1853
sg16
S'.286'
p1854
sg18
S'0.1'
p1855
sg20
S'14.5'
p1856
sg22
g23
sg24
S'.691'
p1857
sg28
S'NBA'
p1858
sg30
S'1.3'
p1859
sg32
S'11.2'
p1860
sg34
S'3.6'
p1861
sg36
S'5.2'
p1862
sg38
S'10.0'
p1863
sg40
S'32'
p1864
sg42
S'SAC'
p1865
sg44
S'81'
p1866
sg46
S'1.4'
p1867
sg48
S'5.4'
p1868
sg50
S'3.6'
p1869
sg52
S'11.0'
p1870
sg54
S'6.9'
p1871
sg56
S'2000-01'
p1872
sg58
S'5.4'
p1873
sg60
S'2.9'
p1874
sg62
S'.486'
p1875
sg64
S'2420'
p1876
sg66
S'81'
p1877
sba(isrc.gp1.models.Per36Minutes
Per36Minutes
p1878
(dp1879
g8
S'3.0'
p1880
sg10
S'0.2'
p1881
sg12
S'.472'
p1882
sg14
S'4.4'
p1883
sg16
S'.231'
p1884
sg18
S'0.0'
p1885
sg20
S'13.2'
p1886
sg22
g23
sg24
S'.615'
p1887
sg28
S'NBA'
p1888
sg30
S'1.2'
p1889
sg32
S'10.7'
p1890
sg34
S'3.4'
p1891
sg36
S'5.1'
p1892
sg38
S'10.0'
p1893
sg40
S'33'
p1894
sg42
S'SAC'
p1895
sg44
S'80'
p1896
sg46
S'1.4'
p1897
sg48
S'5.0'
p1898
sg50
S'3.1'
p1899
sg52
S'10.5'
p1900
sg54
S'6.9'
p1901
sg56
S'2001-02'
p1902
sg58
S'5.0'
p1903
sg60
S'2.4'
p1904
sg62
S'.477'
p1905
sg64
S'2420'
p1906
sg66
S'80'
p1907
sba(isrc.gp1.models.Per36Minutes
Per36Minutes
p1908
(dp1909
g8
S'2.4'
p1910
sg10
S'0.4'
p1911
sg12
S'.466'
p1912
sg14
S'4.1'
p1913
sg16
S'.240'
p1914
sg18
S'0.1'
p1915
sg20
S'12.0'
p1916
sg22
g23
sg24
S'.713'
p1917
sg28
S'NBA'
p1918
sg30
S'1.3'
p1919
sg32
S'9.9'
p1920
sg34
S'3.6'
p1921
sg36
S'3.8'
p1922
sg38
S'8.7'
p1923
sg40
S'34'
p1924
sg42
S'SAC'
p1925
sg44
S'80'
p1926
sg46
S'1.6'
p1927
sg48
S'4.5'
p1928
sg50
S'2.7'
p1929
sg52
S'9.5'
p1930
sg54
S'6.3'
p1931
sg56
S'2002-03'
p1932
sg58
S'4.6'
p1933
sg60
S'2.3'
p1934
sg62
S'.475'
p1935
sg64
S'2384'
p1936
sg66
S'80'
p1937
sba(isrc.gp1.models.Per36Minutes
Per36Minutes
p1938
(dp1939
g8
S'2.1'
p1940
sg10
S'0.2'
p1941
sg12
S'.470'
p1942
sg14
S'6.7'
p1943
sg16
S'.154'
p1944
sg18
S'0.0'
p1945
sg20
S'12.4'
p1946
sg22
g23
sg24
S'.654'
p1947
sg28
S'NBA'
p1948
sg30
S'0.9'
p1949
sg32
S'10.4'
p1950
sg34
S'3.4'
p1951
sg36
S'4.0'
p1952
sg38
S'7.2'
p1953
sg40
S'35'
p1954
sg42
S'SAC'
p1955
sg44
S'81'
p1956
sg46
S'1.2'
p1957
sg48
S'4.8'
p1958
sg50
S'2.6'
p1959
sg52
S'10.2'
p1960
sg54
S'5.1'
p1961
sg56
S'2003-04'
p1962
sg58
S'4.9'
p1963
sg60
S'2.7'
p1964
sg62
S'.476'
p1965
sg64
S'2317'
p1966
sg66
S'81'
p1967
sba(isrc.gp1.models.Per36Minutes
Per36Minutes
p1968
(dp1969
g8
S'3.9'
p1970
sg10
S'0.0'
p1971
sg12
S'.419'
p1972
sg14
S'1.1'
p1973
sg16
S'3.6'
p1974
sg18
S'0.0'
p1975
sg20
g3
sg22
g23
sg24
S'5.0'
p1976
sg28
S'NBA'
p1977
sg30
S'0.3'
p1978
sg32
S'8.6'
p1979
sg34
S'9.4'
p1980
sg36
S'.667'
p1981
sg38
S'5.3'
p1982
sg40
S'36'
p1983
sg42
S'LAL'
p1984
sg44
S'15'
p1985
sg46
S'3.9'
p1986
sg48
S'8.6'
p1987
sg50
S'3.3'
p1988
sg52
S'.419'
p1989
sg54
S'8.9'
p1990
sg56
S'2004-05'
p1991
sg58
S'3.6'
p1992
sg60
S'6.9'
p1993
sg62
S'2.2'
p1994
sg64
S'130'
p1995
sg66
g19
sbasS'_fromYear'
p1996
S'1990'
p1997
sS'_url'
p1998
S'http://www.basketball-reference.com/players/d/divacvl01.html'
p1999
sS'_perGame'
p2000
(isrc.gp1.models.PerGame
PerGame
p2001
(dp2002
g8
S'0.9'
p2003
sg10
S'0.0'
p2004
sg12
S'.419'
p2005
sS'_effectiveFieldGalPercentage'
p2006
S'0.5'
p2007
sg14
S'0.3'
p2008
sg16
S'0.9'
p2009
sg18
S'0.0'
p2010
sg20
g3
sg22
g23
sg24
S'1.2'
p2011
sg28
S'NBA'
p2012
sg30
S'0.1'
p2013
sg34
S'2.3'
p2014
sS'_fieldGoalsttempted'
p2015
S'2.1'
p2016
sg36
S'.667'
p2017
sg38
S'1.3'
p2018
sg40
S'36'
p2019
sg42
S'LAL'
p2020
sg44
S'15'
p2021
sg46
S'0.9'
p2022
sg48
S'2.1'
p2023
sg50
S'0.8'
p2024
sg52
S'.419'
p2025
sg54
S'2.1'
p2026
sg56
S'2004-05'
p2027
sg58
S'0.9'
p2028
sg60
S'1.7'
p2029
sg62
S'.419'
p2030
sg64
S'8.7'
p2031
sg66
g19
sbsS'_weight'
p2032
S'243'
p2033
sS'_dob'
p2034
S'3-2-1968'
p2035
sS'_salary'
p2036
(lp2037
(isrc.gp1.models.Salary
Salary
p2038
(dp2039
g42
S'Los Angeles Lakers'
p2040
sg28
S'NBA'
p2041
sg2036
S'$770,000'
p2042
sg56
S'1990-91'
p2043
sba(isrc.gp1.models.Salary
Salary
p2044
(dp2045
g42
S'Los Angeles Lakers'
p2046
sg28
S'NBA'
p2047
sg2036
S'$942,000'
p2048
sg56
S'1991-92'
p2049
sba(isrc.gp1.models.Salary
Salary
p2050
(dp2051
g42
S'Los Angeles Lakers'
p2052
sg28
S'NBA'
p2053
sg2036
S'$3,633,000'
p2054
sg56
S'1992-93'
p2055
sba(isrc.gp1.models.Salary
Salary
p2056
(dp2057
g42
S'Los Angeles Lakers'
p2058
sg28
S'NBA'
p2059
sg2036
S'$4,133,000'
p2060
sg56
S'1993-94'
p2061
sba(isrc.gp1.models.Salary
Salary
p2062
(dp2063
g42
S'Los Angeles Lakers'
p2064
sg28
S'NBA'
p2065
sg2036
S'$3,333,300'
p2066
sg56
S'1994-95'
p2067
sba(isrc.gp1.models.Salary
Salary
p2068
(dp2069
g42
S'Los Angeles Lakers'
p2070
sg28
S'NBA'
p2071
sg2036
S'$3,333,000'
p2072
sg56
S'1995-96'
p2073
sba(isrc.gp1.models.Salary
Salary
p2074
(dp2075
g42
S'Charlotte Hornets'
p2076
sg28
S'NBA'
p2077
sg2036
S'$4,718,000'
p2078
sg56
S'1996-97'
p2079
sba(isrc.gp1.models.Salary
Salary
p2080
(dp2081
g42
S'Charlotte Hornets'
p2082
sg28
S'NBA'
p2083
sg2036
S'$4,833,333'
p2084
sg56
S'1997-98'
p2085
sba(isrc.gp1.models.Salary
Salary
p2086
(dp2087
g42
S'Sacramento Kings'
p2088
sg28
S'NBA'
p2089
sg2036
S'$8,300,000'
p2090
sg56
S'1998-99'
p2091
sba(isrc.gp1.models.Salary
Salary
p2092
(dp2093
g42
S'Sacramento Kings'
p2094
sg28
S'NBA'
p2095
sg2036
S'$8,837,774'
p2096
sg56
S'1999-00'
p2097
sba(isrc.gp1.models.Salary
Salary
p2098
(dp2099
g42
S'Sacramento Kings'
p2100
sg28
S'NBA'
p2101
sg2036
S'$9,640,000'
p2102
sg56
S'2000-01'
p2103
sba(isrc.gp1.models.Salary
Salary
p2104
(dp2105
g42
S'Sacramento Kings'
p2106
sg28
S'NBA'
p2107
sg2036
S'$10,444,642'
p2108
sg56
S'2001-02'
p2109
sba(isrc.gp1.models.Salary
Salary
p2110
(dp2111
g42
S'Sacramento Kings'
p2112
sg28
S'NBA'
p2113
sg2036
S'$11,248,076'
p2114
sg56
S'2002-03'
p2115
sba(isrc.gp1.models.Salary
Salary
p2116
(dp2117
g42
S'Sacramento Kings'
p2118
sg28
S'NBA'
p2119
sg2036
S'$12,051,510'
p2120
sg56
S'2003-04'
p2121
sba(isrc.gp1.models.Salary
Salary
p2122
(dp2123
g42
S'Los Angeles Lakers'
p2124
sg28
S'NBA'
p2125
sg2036
S'$4,903,000'
p2126
sg56
S'2004-05'
p2127
sba(isrc.gp1.models.Salary
Salary
p2128
(dp2129
g42
S'Los Angeles Lakers'
p2130
sg28
S'NBA'
p2131
sg2036
S'$2,000,000'
p2132
sg56
S'2005-06'
p2133
sbasg22
g23
sb.