(isrc.gp1.models.Player
Player
p0
(dp1
S'_experience'
p2
V1 year
p3
sS'_totals'
p4
(lp5
(isrc.gp1.models.Totals
Totals
p6
(dp7
S'_offensiveRebounds'
p8
S'28'
p9
sS'_threePointsAttempted'
p10
S'13'
p11
sS'_fieldGoalsPercentage'
p12
S'.395'
p13
sS'_assist'
p14
S'4'
p15
sS'_threePointsPercentage'
p16
S'.385'
p17
sS'_threePoints'
p18
S'5'
p19
sS'_points'
p20
S'83'
p21
sS'_position'
p22
S'PF'
p23
sS'_freeThrowsPercentage'
p24
S'.692'
p25
sS'_effectiveFieldGoalPercentage'
p26
S'.428'
p27
sS'_league'
p28
S'NBA'
p29
sS'_steals'
p30
g15
sS'_fieldGoalsAttempted'
p31
S'76'
p32
sS'_personalFouls'
p33
S'20'
p34
sS'_freeThrowsAttempted'
p35
S'26'
p36
sS'_totalRebounds'
p37
S'86'
p38
sS'_age'
p39
S'19'
p40
sS'_team'
p41
S'CHO'
p42
sS'_games'
p43
S'25'
p44
sS'_blocks'
p45
S'9'
p46
sS'_twoPoints'
p47
S'25'
p48
sS'_freeThrows'
p49
S'18'
p50
sS'_twoPointsAttempted'
p51
S'63'
p52
sS'_defensiveRebounds'
p53
S'58'
p54
sS'_season'
p55
S'2014-15'
p56
sS'_fieldGoals'
p57
S'30'
p58
sS'_turnOvers'
p59
S'11'
p60
sS'_twoPointsPercentage'
p61
S'.397'
p62
sS'_minutesPlayed'
p63
S'259'
p64
sS'_gamesStarted'
p65
S'0'
p66
sba(isrc.gp1.models.Totals
Totals
p67
(dp68
g8
S'65'
p69
sg10
S'25'
p70
sg12
S'.429'
p71
sg14
S'25'
p72
sg16
S'.160'
p73
sg18
g15
sg20
S'180'
p74
sg22
S'PF'
p75
sg24
S'.813'
p76
sg26
S'.440'
p77
sg28
S'NBA'
p78
sg30
S'23'
p79
sg31
S'175'
p80
sg33
S'99'
p81
sg35
S'32'
p82
sg37
S'207'
p83
sg39
S'20'
p84
sg41
S'POR'
p85
sg43
S'50'
p86
sg45
S'15'
p87
sg47
S'71'
p88
sg49
S'26'
p89
sg51
S'150'
p90
sg53
S'142'
p91
sg55
S'2015-16'
p92
sg57
S'75'
p93
sg59
S'28'
p94
sg61
S'.473'
p95
sg63
S'801'
p96
sg65
S'39'
p97
sbasS'_college'
p98
S'Indiana University'
p99
sS'_toYear'
p100
S'2016'
p101
sS'_height'
p102
S'6-10'
p103
sS'_active'
p104
I01
sS'_shootingHand'
p105
VRight
p106
sS'_name'
p107
S'Noah Vonleh'
p108
sS'_per100Possessions'
p109
(lp110
(isrc.gp1.models.Per100Possession
Per100Possession
p111
(dp112
g8
S'5.6'
p113
sg10
S'2.6'
p114
sg12
S'.395'
p115
sS'_offensiveRating'
p116
S'99'
p117
sg14
S'0.8'
p118
sg16
S'.385'
p119
sg18
S'1.0'
p120
sg20
S'16.5'
p121
sg22
S'PF'
p122
sS'_defensiveRating'
p123
S'102'
p124
sg24
S'.692'
p125
sg28
S'NBA'
p126
sg30
S'0.8'
p127
sg31
S'15.2'
p128
sg33
S'4.0'
p129
sg35
S'5.2'
p130
sg37
S'17.1'
p131
sg39
S'19'
p132
sg41
S'CHO'
p133
sg43
S'25'
p134
sg45
S'1.8'
p135
sg47
S'5.0'
p136
sg49
S'3.6'
p137
sg51
S'12.6'
p138
sg53
S'11.6'
p139
sg55
S'2014-15'
p140
sg57
S'6.0'
p141
sg59
S'2.2'
p142
sg61
S'.397'
p143
sg63
S'259'
p144
sg65
g66
sba(isrc.gp1.models.Per100Possession
Per100Possession
p145
(dp146
g8
S'4.1'
p147
sg10
S'1.6'
p148
sg12
S'.429'
p149
sg116
S'103'
p150
sg14
S'1.6'
p151
sg16
S'.160'
p152
sg18
S'0.3'
p153
sg20
S'11.4'
p154
sg22
S'PF'
p155
sg123
S'106'
p156
sg24
S'.813'
p157
sg28
S'NBA'
p158
sg30
S'1.5'
p159
sg31
S'11.0'
p160
sg33
S'6.2'
p161
sg35
S'2.0'
p162
sg37
S'13.1'
p163
sg39
S'20'
p164
sg41
S'POR'
p165
sg43
S'50'
p166
sg45
S'0.9'
p167
sg47
S'4.5'
p168
sg49
S'1.6'
p169
sg51
S'9.5'
p170
sg53
S'9.0'
p171
sg55
S'2015-16'
p172
sg57
S'4.7'
p173
sg59
S'1.8'
p174
sg61
S'.473'
p175
sg63
S'801'
p176
sg65
S'39'
p177
sbasS'_advanced'
p178
(lp179
(isrc.gp1.models.Advanced
Advanced
p180
(dp181
S'_offensiveReboundPercentage'
p182
S'11.6'
p183
sS'_turnOverPercentage'
p184
S'11.2'
p185
sS'_winSharesPer48Minutes'
p186
S'.085'
p187
sS'_stealPercentage'
p188
S'0.8'
p189
sS'_usagePercentage'
p190
S'17.3'
p191
sS'_totalReboundsPercentage'
p192
S'18.3'
p193
sS'_defensiveBoxPlusMinus'
p194
S'-0.9'
p195
sg22
S'PF'
p196
sS'_valueOverReplacementPlayer'
p197
S'-0.2'
p198
sS'_trueShootingPercentage'
p199
S'.475'
p200
sS'_defensiveReboundPercentage'
p201
S'25.3'
p202
sS'_freeThrowsAttempRate'
p203
S'.342'
p204
sS'_threePointsAttempRate'
p205
S'.171'
p206
sg28
S'NBA'
p207
sS'_offensiveBoxPlusMinues'
p208
S'-4.8'
p209
sS'_assistPercentage'
p210
S'2.5'
p211
sS'_defensiveWinShares'
p212
S'0.4'
p213
sg39
S'19'
p214
sg41
S'CHO'
p215
sg43
S'25'
p216
sS'_blockPercentage'
p217
S'2.7'
p218
sS'_playerEfficiencyRating'
p219
S'13.2'
p220
sS'_offensiveWinShares'
p221
S'0.1'
p222
sg63
S'259'
p223
sS'_boxPlusMinus'
p224
S'-5.6'
p225
sg55
S'2014-15'
p226
sS'_winShares'
p227
S'0.5'
p228
sba(isrc.gp1.models.Advanced
Advanced
p229
(dp230
g182
S'8.8'
p231
sg184
S'12.9'
p232
sg186
S'.069'
p233
sg188
S'1.5'
p234
sg190
S'11.9'
p235
sg192
S'14.0'
p236
sg194
S'0.4'
p237
sg22
S'PF'
p238
sg197
S'-0.2'
p239
sg199
S'.476'
p240
sg201
S'19.3'
p241
sg203
S'.183'
p242
sg205
S'.143'
p243
sg28
S'NBA'
p244
sg208
S'-3.2'
p245
sg210
S'4.5'
p246
sg212
S'0.8'
p247
sg39
S'20'
p248
sg41
S'POR'
p249
sg43
S'50'
p250
sg217
S'1.5'
p251
sg219
S'9.6'
p252
sg221
S'0.4'
p253
sg63
S'801'
p254
sg224
S'-2.8'
p255
sg55
S'2015-16'
p256
sg227
S'1.2'
p257
sbasS'_per36Minutes'
p258
(lp259
(isrc.gp1.models.Per36Minutes
Per36Minutes
p260
(dp261
g8
S'3.9'
p262
sg10
S'1.8'
p263
sg12
S'.395'
p264
sg14
S'0.6'
p265
sg16
S'.385'
p266
sg18
S'0.7'
p267
sg20
S'11.5'
p268
sg22
S'PF'
p269
sg24
S'.692'
p270
sg28
S'NBA'
p271
sg30
S'0.6'
p272
sg31
S'10.6'
p273
sg33
S'2.8'
p274
sg35
S'3.6'
p275
sg37
S'12.0'
p276
sg39
S'19'
p277
sg41
S'CHO'
p278
sg43
S'25'
p279
sg45
S'1.3'
p280
sg47
S'3.5'
p281
sg49
S'2.5'
p282
sg51
S'8.8'
p283
sg53
S'8.1'
p284
sg55
S'2014-15'
p285
sg57
S'4.2'
p286
sg59
S'1.5'
p287
sg61
S'.397'
p288
sg63
S'259'
p289
sg65
g66
sba(isrc.gp1.models.Per36Minutes
Per36Minutes
p290
(dp291
g8
S'2.9'
p292
sg10
S'1.1'
p293
sg12
S'.429'
p294
sg14
S'1.1'
p295
sg16
S'.160'
p296
sg18
S'0.2'
p297
sg20
S'8.1'
p298
sg22
S'PF'
p299
sg24
S'.813'
p300
sg28
S'NBA'
p301
sg30
S'1.0'
p302
sg31
S'7.9'
p303
sg33
S'4.4'
p304
sg35
S'1.4'
p305
sg37
S'9.3'
p306
sg39
S'20'
p307
sg41
S'POR'
p308
sg43
S'50'
p309
sg45
S'0.7'
p310
sg47
S'3.2'
p311
sg49
S'1.2'
p312
sg51
S'6.7'
p313
sg53
S'6.4'
p314
sg55
S'2015-16'
p315
sg57
S'3.4'
p316
sg59
S'1.3'
p317
sg61
S'.473'
p318
sg63
S'801'
p319
sg65
S'39'
p320
sbasS'_fromYear'
p321
S'2015'
p322
sS'_url'
p323
S'http://www.basketball-reference.com/players/v/vonleno01.html'
p324
sS'_perGame'
p325
(isrc.gp1.models.PerGame
PerGame
p326
(dp327
g8
S'1.3'
p328
sg10
S'0.5'
p329
sg12
S'.429'
p330
sS'_effectiveFieldGalPercentage'
p331
S'.440'
p332
sg14
S'0.5'
p333
sg16
S'.160'
p334
sg18
S'0.1'
p335
sg20
S'3.6'
p336
sg22
S'PF'
p337
sg24
S'.813'
p338
sg28
S'NBA'
p339
sg30
S'0.5'
p340
sg33
S'2.0'
p341
sS'_fieldGoalsttempted'
p342
S'3.5'
p343
sg35
S'0.6'
p344
sg37
S'4.1'
p345
sg39
S'20'
p346
sg41
S'POR'
p347
sg43
S'50'
p348
sg45
S'0.3'
p349
sg47
S'1.4'
p350
sg49
S'0.5'
p351
sg51
S'3.0'
p352
sg53
S'2.8'
p353
sg55
S'2015-16'
p354
sg57
S'1.5'
p355
sg59
S'0.6'
p356
sg61
S'.473'
p357
sg63
S'16.0'
p358
sg65
S'39'
p359
sbsS'_weight'
p360
S'240'
p361
sS'_dob'
p362
S'24-8-1995'
p363
sS'_salary'
p364
(lp365
(isrc.gp1.models.Salary
Salary
p366
(dp367
g41
S'Charlotte Hornets'
p368
sg28
S'NBA'
p369
sg364
S'$2,524,200'
p370
sg55
S'2014-15'
p371
sbasg22
S'F'
p372
sb.