(isrc.gp1.models.Player
Player
p0
(dp1
S'_experience'
p2
S'NA'
p3
sS'_totals'
p4
(lp5
(isrc.gp1.models.Totals
Totals
p6
(dp7
S'_offensiveRebounds'
p8
S'8'
p9
sS'_threePointsAttempted'
p10
S'4'
p11
sS'_fieldGoalsPercentage'
p12
S'.268'
p13
sS'_assist'
p14
S'14'
p15
sS'_threePointsPercentage'
p16
S'.250'
p17
sS'_threePoints'
p18
S'1'
p19
sS'_points'
p20
S'36'
p21
sS'_position'
p22
g3
sS'_freeThrowsPercentage'
p23
S'.765'
p24
sS'_effectiveFieldGoalPercentage'
p25
S'.280'
p26
sS'_league'
p27
S'ABA'
p28
sS'_steals'
p29
g3
sS'_fieldGoalsAttempted'
p30
S'41'
p31
sS'_personalFouls'
p32
S'28'
p33
sS'_freeThrowsAttempted'
p34
S'17'
p35
sS'_totalRebounds'
p36
S'23'
p37
sS'_age'
p38
S'23'
p39
sS'_team'
p40
S'INA'
p41
sS'_games'
p42
S'12'
p43
sS'_blocks'
p44
g3
sS'_twoPoints'
p45
S'10'
p46
sS'_freeThrows'
p47
S'13'
p48
sS'_twoPointsAttempted'
p49
S'37'
p50
sS'_defensiveRebounds'
p51
S'15'
p52
sS'_season'
p53
S'1968-69'
p54
sS'_fieldGoals'
p55
S'11'
p56
sS'_turnOvers'
p57
S'18'
p58
sS'_twoPointsPercentage'
p59
S'.270'
p60
sS'_minutesPlayed'
p61
S'180'
p62
sS'_gamesStarted'
p63
g3
sbasS'_college'
p64
S'Georgia Institute of Technology'
p65
sS'_toYear'
p66
S'1969'
p67
sS'_height'
p68
S'6-2'
p69
sS'_active'
p70
I00
sS'_shootingHand'
p71
VRight
p72
sS'_name'
p73
S'Phillip Wagner'
p74
sS'_per100Possessions'
p75
(lp76
sS'_advanced'
p77
(lp78
(isrc.gp1.models.Advanced
Advanced
p79
(dp80
S'_offensiveReboundPercentage'
p81
g3
sS'_turnOverPercentage'
p82
S'27.1'
p83
sS'_winSharesPer48Minutes'
p84
S'-0.015'
p85
sS'_stealPercentage'
p86
g3
sS'_usagePercentage'
p87
S'13.2'
p88
sS'_totalReboundsPercentage'
p89
S'5.5'
p90
sS'_defensiveBoxPlusMinus'
p91
g3
sg22
g3
sS'_valueOverReplacementPlayer'
p92
g3
sS'_trueShootingPercentage'
p93
S'.371'
p94
sS'_defensiveReboundPercentage'
p95
g3
sS'_freeThrowsAttempRate'
p96
S'.415'
p97
sS'_threePointsAttempRate'
p98
S'.098'
p99
sg27
S'ABA'
p100
sS'_offensiveBoxPlusMinues'
p101
g3
sS'_assistPercentage'
p102
S'9.1'
p103
sS'_defensiveWinShares'
p104
S'0.2'
p105
sg38
S'23'
p106
sg40
S'INA'
p107
sg42
S'12'
p108
sS'_blockPercentage'
p109
g3
sS'_playerEfficiencyRating'
p110
S'0.5'
p111
sS'_offensiveWinShares'
p112
S'-0.2'
p113
sg61
S'180'
p114
sS'_boxPlusMinus'
p115
g3
sg53
S'1968-69'
p116
sS'_winShares'
p117
S'-0.1'
p118
sbasS'_per36Minutes'
p119
(lp120
(isrc.gp1.models.Per36Minutes
Per36Minutes
p121
(dp122
g8
S'1.6'
p123
sg10
S'0.8'
p124
sg12
S'.268'
p125
sg14
S'2.8'
p126
sg16
S'.250'
p127
sg18
S'0.2'
p128
sg20
S'7.2'
p129
sg22
g3
sg23
S'.765'
p130
sg27
S'ABA'
p131
sg29
g3
sg30
S'8.2'
p132
sg32
S'5.6'
p133
sg34
S'3.4'
p134
sg36
S'4.6'
p135
sg38
S'23'
p136
sg40
S'INA'
p137
sg42
S'12'
p138
sg44
g3
sg45
S'2.0'
p139
sg47
S'2.6'
p140
sg49
S'7.4'
p141
sg51
S'3.0'
p142
sg53
S'1968-69'
p143
sg55
S'2.2'
p144
sg57
S'3.6'
p145
sg59
S'.270'
p146
sg61
S'180'
p147
sg63
g3
sbasS'_fromYear'
p148
S'1969'
p149
sS'_url'
p150
S'http://www.basketball-reference.com/players/w/wagneph01.html'
p151
sS'_perGame'
p152
(isrc.gp1.models.PerGame
PerGame
p153
(dp154
g8
S'0.7'
p155
sg10
S'0.3'
p156
sg12
S'.268'
p157
sS'_effectiveFieldGalPercentage'
p158
S'.280'
p159
sg14
S'1.2'
p160
sg16
S'.250'
p161
sg18
S'0.1'
p162
sg20
S'3.0'
p163
sg22
g3
sg23
S'.765'
p164
sg27
S'ABA'
p165
sg29
g3
sg32
S'2.3'
p166
sS'_fieldGoalsttempted'
p167
S'3.4'
p168
sg34
S'1.4'
p169
sg36
S'1.9'
p170
sg38
S'23'
p171
sg40
S'INA'
p172
sg42
S'12'
p173
sg44
g3
sg45
S'0.8'
p174
sg47
S'1.1'
p175
sg49
S'3.1'
p176
sg51
S'1.3'
p177
sg53
S'1968-69'
p178
sg55
S'0.9'
p179
sg57
S'1.5'
p180
sg59
S'.270'
p181
sg61
S'15.0'
p182
sg63
g3
sbsS'_weight'
p183
S'190'
p184
sS'_dob'
p185
S'18-12-1945'
p186
sS'_salary'
p187
(lp188
sg22
S'G'
p189
sb.