(isrc.gp1.models.Player
Player
p0
(dp1
S'_experience'
p2
S'NA'
p3
sS'_totals'
p4
(lp5
(isrc.gp1.models.Totals
Totals
p6
(dp7
S'_offensiveRebounds'
p8
S'14'
p9
sS'_threePointsAttempted'
p10
S'.449'
p11
sS'_fieldGoalsPercentage'
p12
S'137'
p13
sS'_assist'
p14
S'341'
p15
sS'_threePointsPercentage'
p16
S'.449'
p17
sS'_threePoints'
p18
S'305'
p19
sS'_points'
p20
g3
sS'_position'
p21
S'SF'
p22
sS'_freeThrowsPercentage'
p23
S'51'
p24
sS'_effectiveFieldGoalPercentage'
p25
S'45'
p26
sS'_league'
p27
S'NBA'
p28
sS'_steals'
p29
g3
sS'_fieldGoalsAttempted'
p30
S'.449'
p31
sS'_personalFouls'
p32
g3
sS'_freeThrowsAttempted'
p33
S'108'
p34
sS'_totalRebounds'
p35
S'92'
p36
sS'_age'
p37
S'22'
p38
sS'_team'
p39
S'POR'
p40
sS'_games'
p41
S'66'
p42
sS'_blocks'
p43
g3
sS'_twoPoints'
p44
S'67'
p45
sS'_freeThrows'
p46
S'63'
p47
sS'_twoPointsAttempted'
p48
S'100'
p49
sS'_defensiveRebounds'
p50
S'2'
p51
sS'_season'
p52
S'1976-77'
p53
sS'_fieldGoals'
p54
S'305'
p55
sS'_turnOvers'
p56
g3
sS'_twoPointsPercentage'
p57
S'.670'
p58
sS'_minutesPlayed'
p59
S'137'
p60
sS'_gamesStarted'
p61
S'627'
p62
sba(isrc.gp1.models.Totals
Totals
p63
(dp64
g8
S'26'
p65
sg10
S'.443'
p66
sg12
S'204'
p67
sg14
S'138'
p68
sg16
S'.443'
p69
sg18
S'461'
p70
sg20
g3
sg21
S'SF'
p71
sg23
S'77'
p72
sg25
S'87'
p73
sg27
S'NBA'
p74
sg29
S'483'
p75
sg30
S'.443'
p76
sg32
g3
sg33
S'219'
p77
sg35
S'77'
p78
sg37
S'23'
p79
sg39
S'TOT'
p80
sg41
S'77'
p81
sg43
g3
sg44
S'75'
p82
sg46
S'132'
p83
sg48
S'120'
p84
sg50
S'10'
p85
sg52
S'1977-78'
p86
sg54
S'461'
p87
sg56
g3
sg57
S'.625'
p88
sg59
S'204'
p89
sg61
S'1104'
p90
sba(isrc.gp1.models.Totals
Totals
p91
(dp92
g8
g51
sg10
S'.463'
p93
sg12
S'19'
p94
sg14
S'13'
p95
sg16
S'.463'
p96
sg18
S'41'
p97
sg20
g3
sg21
S'SF'
p98
sg23
S'8'
p99
sg25
S'7'
p100
sg27
S'NBA'
p101
sg29
S'43'
p102
sg30
S'.463'
p103
sg32
g3
sg33
S'17'
p104
sg35
S'11'
p105
sg37
S'23'
p106
sg39
S'POR'
p107
sg41
S'9'
p108
sg43
g3
sg44
S'5'
p109
sg46
S'10'
p110
sg48
g99
sg50
S'0'
p111
sg52
S'1977-78'
p112
sg54
S'41'
p113
sg56
g3
sg57
S'.625'
p114
sg59
S'19'
p115
sg61
S'101'
p116
sba(isrc.gp1.models.Totals
Totals
p117
(dp118
g8
S'24'
p119
sg10
S'.440'
p120
sg12
S'185'
p121
sg14
S'125'
p122
sg16
S'.440'
p123
sg18
S'420'
p124
sg20
g3
sg21
S'SF'
p125
sg23
S'69'
p126
sg25
S'80'
p127
sg27
S'NBA'
p128
sg29
S'440'
p129
sg30
S'.440'
p130
sg32
g3
sg33
S'202'
p131
sg35
S'66'
p132
sg37
S'23'
p133
sg39
S'SEA'
p134
sg41
S'68'
p135
sg43
g3
sg44
S'70'
p136
sg46
S'122'
p137
sg48
S'112'
p138
sg50
S'10'
p139
sg52
S'1977-78'
p140
sg54
S'420'
p141
sg56
g3
sg57
S'.625'
p142
sg59
S'185'
p143
sg61
S'1003'
p144
sba(isrc.gp1.models.Totals
Totals
p145
(dp146
g8
S'12'
p147
sg10
S'.490'
p148
sg12
S'168'
p149
sg14
S'127'
p150
sg16
S'.490'
p151
sg18
S'343'
p152
sg20
g3
sg21
S'SF'
p153
sg23
S'69'
p154
sg25
S'66'
p155
sg27
S'NBA'
p156
sg29
S'394'
p157
sg30
S'.490'
p158
sg32
g3
sg33
S'177'
p159
sg35
S'68'
p160
sg37
S'24'
p161
sg39
S'SEA'
p162
sg41
S'60'
p163
sg43
g3
sg44
S'58'
p164
sg46
S'111'
p165
sg48
S'96'
p166
sg50
S'26'
p167
sg52
S'1978-79'
p168
sg54
S'343'
p169
sg56
g3
sg57
S'.604'
p170
sg59
S'168'
p171
sg61
S'969'
p172
sba(isrc.gp1.models.Totals
Totals
p173
(dp174
g8
S'170'
p175
sg10
S'139'
p176
sg12
g111
sg14
S'4'
p177
sg16
S'274'
p178
sg18
g111
sg20
g3
sg21
S'SF'
p179
sg23
S'106'
p180
sg25
S'64'
p181
sg27
S'NBA'
p182
sg29
S'50'
p183
sg30
S'.507'
p184
sg32
g3
sg33
S'64'
p185
sg35
S'21'
p186
sg37
S'25'
p187
sg39
S'SEA'
p188
sg41
S'70'
p189
sg43
S'102'
p190
sg44
S'.507'
p191
sg46
S'.750'
p192
sg48
S'.507'
p193
sg50
S'53'
p194
sg52
S'1979-80'
p195
sg54
S'274'
p196
sg56
S'326'
p197
sg57
S'48'
p198
sg59
S'139'
p199
sg61
S'844'
p200
sba(isrc.gp1.models.Totals
Totals
p201
(dp202
g8
S'210'
p203
sg10
S'.000'
p204
sg12
g111
sg14
S'53'
p205
sg16
S'290'
p206
sg18
S'3'
p207
sg20
g3
sg21
S'SF'
p208
sg23
S'105'
p209
sg25
S'109'
p210
sg27
S'NBA'
p211
sg29
S'15'
p212
sg30
S'.463'
p213
sg32
S'689'
p214
sg33
S'.645'
p215
sg35
S'122'
p216
sg37
S'26'
p217
sg39
S'SEA'
p218
sg41
S'82'
p219
sg43
S'115'
p220
sg44
S'623'
p221
sg46
S'169'
p222
sg48
S'.465'
p223
sg50
S'315'
p224
sg52
S'1980-81'
p225
sg54
S'626'
p226
sg56
S'168'
p227
sg57
S'.463'
p228
sg59
S'290'
p229
sg61
S'1796'
p230
sba(isrc.gp1.models.Totals
Totals
p231
(dp232
g8
S'108'
p233
sg10
g51
sg12
S'.480'
p234
sg14
S'218'
p235
sg16
S'.000'
p236
sg18
g111
sg20
S'694'
p237
sg21
S'SF'
p238
sg23
S'.672'
p239
sg25
S'.480'
p240
sg27
S'NBA'
p241
sg29
S'36'
p242
sg30
S'629'
p243
sg32
S'215'
p244
sg33
S'134'
p245
sg35
S'305'
p246
sg37
S'27'
p247
sg39
S'SEA'
p248
sg41
S'70'
p249
sg43
S'28'
p250
sg44
S'302'
p251
sg46
S'90'
p252
sg48
S'627'
p253
sg50
S'197'
p254
sg52
S'1981-82'
p255
sg54
S'302'
p256
sg56
S'111'
p257
sg57
S'.482'
p258
sg59
S'1965'
p259
sg61
S'70'
p260
sba(isrc.gp1.models.Totals
Totals
p261
(dp262
g8
S'137'
p263
sg10
g177
sg12
S'.449'
p264
sg14
S'199'
p265
sg16
S'.250'
p266
sg18
S'1'
p267
sg20
S'797'
p268
sg21
S'SF'
p269
sg23
S'.621'
p270
sg25
S'.450'
p271
sg27
S'NBA'
p272
sg29
S'37'
p273
sg30
S'806'
p274
sg32
S'202'
p275
sg33
S'116'
p276
sg35
S'373'
p277
sg37
S'28'
p278
sg39
S'HOU'
p279
sg41
S'82'
p280
sg43
S'22'
p281
sg44
S'361'
p282
sg46
S'72'
p283
sg48
S'802'
p284
sg50
S'236'
p285
sg52
S'1982-83'
p286
sg54
S'362'
p287
sg56
S'144'
p288
sg57
S'.450'
p289
sg59
S'2251'
p290
sg61
S'59'
p291
sba(isrc.gp1.models.Totals
Totals
p292
(dp293
g8
S'26'
p294
sg10
S'6'
p295
sg12
S'.490'
p296
sg14
S'55'
p297
sg16
S'.333'
p298
sg18
g51
sg20
S'244'
p299
sg21
S'SF'
p300
sg23
S'.333'
p301
sg25
S'.494'
p302
sg27
S'NBA'
p303
sg29
S'17'
p304
sg30
S'241'
p305
sg32
S'65'
p306
sg33
S'18'
p307
sg35
S'92'
p308
sg37
S'29'
p309
sg39
S'HOU'
p310
sg41
S'58'
p311
sg43
g177
sg44
S'116'
p312
sg46
g295
sg48
S'235'
p313
sg50
S'66'
p314
sg52
S'1983-84'
p315
sg54
S'118'
p316
sg56
S'33'
p317
sg57
S'.494'
p318
sg59
S'612'
p319
sg61
S'18'
p320
sbasS'_college'
p321
S'University of Virginia'
p322
sS'_toYear'
p323
S'1984'
p324
sS'_height'
p325
S'6-7'
p326
sS'_active'
p327
I00
sS'_shootingHand'
p328
VRight
p329
sS'_name'
p330
S'Wally Walker'
p331
sS'_per100Possessions'
p332
(lp333
(isrc.gp1.models.Per100Possession
Per100Possession
p334
(dp335
g8
S'1.0'
p336
sg10
S'.449'
p337
sg12
S'9.7'
p338
sS'_offensiveRating'
p339
g3
sg14
S'24.2'
p340
sg16
S'4.7'
p341
sg18
S'21.6'
p342
sg20
g3
sg21
S'SF'
p343
sS'_defensiveRating'
p344
g3
sg23
S'3.6'
p345
sg27
S'NBA'
p346
sg29
S'102'
p347
sg30
S'.449'
p348
sg32
g3
sg33
S'7.7'
p349
sg35
S'6.5'
p350
sg37
S'22'
p351
sg39
S'POR'
p352
sg41
S'66'
p353
sg43
g3
sg44
S'7.1'
p354
sg46
S'4.5'
p355
sg48
S'.670'
p356
sg50
S'0.1'
p357
sg52
S'1976-77'
p358
sg54
S'21.6'
p359
sg56
g3
sg57
S'3.2'
p360
sg59
S'9.7'
p361
sg61
S'627'
p362
sba(isrc.gp1.models.Per100Possession
Per100Possession
p363
(dp364
g8
S'1.1'
p365
sg10
S'.443'
p366
sg12
S'8.5'
p367
sg339
g3
sg14
S'5.7'
p368
sg16
S'3.1'
p369
sg18
S'19.1'
p370
sg20
g3
sg21
S'SF'
p371
sg344
g3
sg23
S'3.2'
p372
sg27
S'NBA'
p373
sg29
S'20.1'
p374
sg30
S'.443'
p375
sg32
g3
sg33
S'9.1'
p376
sg35
S'3.2'
p377
sg37
S'23'
p378
sg39
S'TOT'
p379
sg41
S'77'
p380
sg43
S'98'
p381
sg44
S'5.0'
p382
sg46
S'5.5'
p383
sg48
S'.625'
p384
sg50
S'0.4'
p385
sg52
S'1977-78'
p386
sg54
S'19.1'
p387
sg56
S'100'
p388
sg57
S'3.6'
p389
sg59
S'8.5'
p390
sg61
S'1104'
p391
sba(isrc.gp1.models.Per100Possession
Per100Possession
p392
(dp393
g8
S'0.9'
p394
sg10
S'.463'
p395
sg12
S'8.7'
p396
sg339
g3
sg14
S'5.9'
p397
sg16
S'2.3'
p398
sg18
S'18.7'
p399
sg20
g3
sg21
S'SF'
p400
sg344
g3
sg23
S'3.7'
p401
sg27
S'NBA'
p402
sg29
S'19.6'
p403
sg30
S'.463'
p404
sg32
g3
sg33
S'7.8'
p405
sg35
S'5.0'
p406
sg37
S'23'
p407
sg39
S'POR'
p408
sg41
g108
sg43
S'89'
p409
sg44
S'3.7'
p410
sg46
S'4.6'
p411
sg48
S'.625'
p412
sg50
S'0.0'
p413
sg52
S'1977-78'
p414
sg54
S'18.7'
p415
sg56
S'101'
p416
sg57
S'3.2'
p417
sg59
S'8.7'
p418
sg61
S'101'
p419
sba(isrc.gp1.models.Per100Possession
Per100Possession
p420
(dp421
g8
S'1.1'
p422
sg10
S'.440'
p423
sg12
S'8.5'
p424
sg339
g3
sg14
S'5.7'
p425
sg16
S'3.2'
p426
sg18
S'19.2'
p427
sg20
g3
sg21
S'SF'
p428
sg344
g3
sg23
S'3.2'
p429
sg27
S'NBA'
p430
sg29
S'20.1'
p431
sg30
S'.440'
p432
sg32
g3
sg33
S'9.2'
p433
sg35
S'3.0'
p434
sg37
S'23'
p435
sg39
S'SEA'
p436
sg41
S'68'
p437
sg43
S'99'
p438
sg44
S'5.1'
p439
sg46
S'5.6'
p440
sg48
S'.625'
p441
sg50
S'0.5'
p442
sg52
S'1977-78'
p443
sg54
S'19.2'
p444
sg56
S'100'
p445
sg57
S'3.7'
p446
sg59
S'8.5'
p447
sg61
S'1003'
p448
sba(isrc.gp1.models.Per100Possession
Per100Possession
p449
(dp450
g8
S'0.6'
p451
sg10
S'.490'
p452
sg12
S'8.0'
p453
sg339
g3
sg14
S'6.1'
p454
sg16
S'2.8'
p455
sg18
S'16.4'
p456
sg20
g3
sg21
S'SF'
p457
sg344
g3
sg23
S'3.3'
p458
sg27
S'NBA'
p459
sg29
S'18.9'
p460
sg30
S'.490'
p461
sg32
g3
sg33
S'8.5'
p462
sg35
S'3.3'
p463
sg37
S'24'
p464
sg39
S'SEA'
p465
sg41
S'60'
p466
sg43
S'101'
p467
sg44
S'4.6'
p468
sg46
S'5.3'
p469
sg48
S'.604'
p470
sg50
S'1.2'
p471
sg52
S'1978-79'
p472
sg54
S'16.4'
p473
sg56
S'103'
p474
sg57
S'3.2'
p475
sg59
S'8.0'
p476
sg61
S'969'
p477
sba(isrc.gp1.models.Per100Possession
Per100Possession
p478
(dp479
g8
S'9.5'
p480
sg10
S'7.8'
p481
sg12
S'0.0'
p482
sg339
g3
sg14
S'0.2'
p483
sg16
S'15.3'
p484
sg18
S'0.0'
p485
sg20
S'103'
p486
sg21
S'SF'
p487
sg344
g3
sg23
S'5.9'
p488
sg27
S'NBA'
p489
sg29
S'2.8'
p490
sg30
S'.507'
p491
sg32
S'108'
p492
sg33
S'3.6'
p493
sg35
S'1.2'
p494
sg37
S'25'
p495
sg39
S'SEA'
p496
sg41
S'70'
p497
sg43
S'5.7'
p498
sg44
S'.507'
p499
sg46
S'.750'
p500
sg48
S'2.7'
p501
sg50
S'3.0'
p502
sg52
S'1979-80'
p503
sg54
S'15.3'
p504
sg56
S'18.2'
p505
sg57
S'3.6'
p506
sg59
S'7.8'
p507
sg61
S'844'
p508
sba(isrc.gp1.models.Per100Possession
Per100Possession
p509
(dp510
g8
S'5.6'
p511
sg10
S'.000'
p512
sg12
S'0.0'
p513
sg339
S'106'
p514
sg14
S'1.4'
p515
sg16
S'7.7'
p516
sg18
S'0.1'
p517
sg20
S'99'
p518
sg21
S'SF'
p519
sg344
g3
sg23
S'2.8'
p520
sg27
S'NBA'
p521
sg29
S'0.4'
p522
sg30
S'.463'
p523
sg32
S'18.4'
p524
sg33
S'.645'
p525
sg35
S'3.3'
p526
sg37
S'26'
p527
sg39
S'SEA'
p528
sg41
S'82'
p529
sg43
S'3.1'
p530
sg44
S'16.6'
p531
sg46
S'4.5'
p532
sg48
S'.465'
p533
sg50
S'8.4'
p534
sg52
S'1980-81'
p535
sg54
S'16.7'
p536
sg56
S'4.5'
p537
sg57
S'2.9'
p538
sg59
S'7.7'
p539
sg61
S'1796'
p540
sba(isrc.gp1.models.Per100Possession
Per100Possession
p541
(dp542
g8
S'2.6'
p543
sg10
S'0.0'
p544
sg12
S'.480'
p545
sg339
S'104'
p546
sg14
S'5.3'
p547
sg16
S'.000'
p548
sg18
S'0.0'
p549
sg20
S'17.0'
p550
sg21
S'SF'
p551
sg344
S'105'
p552
sg23
S'.672'
p553
sg27
S'NBA'
p554
sg29
S'0.9'
p555
sg30
S'15.4'
p556
sg32
S'5.3'
p557
sg33
S'3.3'
p558
sg35
S'7.4'
p559
sg37
S'27'
p560
sg39
S'SEA'
p561
sg41
S'70'
p562
sg43
S'0.7'
p563
sg44
S'7.4'
p564
sg46
S'2.2'
p565
sg48
S'15.3'
p566
sg50
S'4.8'
p567
sg52
S'1981-82'
p568
sg54
S'7.4'
p569
sg56
S'2.7'
p570
sg57
S'.482'
p571
sg59
S'1965'
p572
sg61
S'70'
p573
sba(isrc.gp1.models.Per100Possession
Per100Possession
p574
(dp575
g8
S'2.9'
p576
sg10
S'0.1'
p577
sg12
S'.449'
p578
sg339
S'94'
p579
sg14
S'4.2'
p580
sg16
S'.250'
p581
sg18
S'0.0'
p582
sg20
S'16.6'
p583
sg21
S'SF'
p584
sg344
S'111'
p585
sg23
S'.621'
p586
sg27
S'NBA'
p587
sg29
S'0.8'
p588
sg30
S'16.8'
p589
sg32
S'4.2'
p590
sg33
S'2.4'
p591
sg35
S'7.8'
p592
sg37
S'28'
p593
sg39
S'HOU'
p594
sg41
S'82'
p595
sg43
S'0.5'
p596
sg44
S'7.5'
p597
sg46
S'1.5'
p598
sg48
S'16.7'
p599
sg50
S'4.9'
p600
sg52
S'1982-83'
p601
sg54
S'7.6'
p602
sg56
S'3.0'
p603
sg57
S'.450'
p604
sg59
S'2251'
p605
sg61
S'59'
p606
sba(isrc.gp1.models.Per100Possession
Per100Possession
p607
(dp608
g8
S'1.9'
p609
sg10
S'0.4'
p610
sg12
S'.490'
p611
sg339
S'100'
p612
sg14
S'4.1'
p613
sg16
S'.333'
p614
sg18
S'0.1'
p615
sg20
S'18.3'
p616
sg21
S'SF'
p617
sg344
S'110'
p618
sg23
S'.333'
p619
sg27
S'NBA'
p620
sg29
S'1.3'
p621
sg30
S'18.1'
p622
sg32
S'4.9'
p623
sg33
S'1.3'
p624
sg35
S'6.9'
p625
sg37
S'29'
p626
sg39
S'HOU'
p627
sg41
S'58'
p628
sg43
S'0.3'
p629
sg44
S'8.7'
p630
sg46
S'0.4'
p631
sg48
S'17.6'
p632
sg50
S'4.9'
p633
sg52
S'1983-84'
p634
sg54
S'8.8'
p635
sg56
S'2.5'
p636
sg57
S'.494'
p637
sg59
S'612'
p638
sg61
S'18'
p639
sbasS'_advanced'
p640
(lp641
(isrc.gp1.models.Advanced
Advanced
p642
(dp643
S'_offensiveReboundPercentage'
p644
S'10.2'
p645
sS'_turnOverPercentage'
p646
S'0.5'
p647
sS'_winSharesPer48Minutes'
p648
S'-4.1'
p649
sS'_stealPercentage'
p650
S'0.2'
p651
sS'_usagePercentage'
p652
S'0.9'
p653
sS'_totalReboundsPercentage'
p654
S'11.6'
p655
sS'_defensiveBoxPlusMinus'
p656
g3
sg21
S'SF'
p657
sS'_valueOverReplacementPlayer'
p658
g3
sS'_trueShootingPercentage'
p659
S'.489'
p660
sS'_defensiveReboundPercentage'
p661
S'8.9'
p662
sS'_freeThrowsAttempRate'
p663
S'7.5'
p664
sS'_threePointsAttempRate'
p665
S'.328'
p666
sg27
S'NBA'
p667
sS'_offensiveBoxPlusMinues'
p668
S'-0.3'
p669
sS'_assistPercentage'
p670
S'1.0'
p671
sS'_defensiveWinShares'
p672
S'-0.9'
p673
sg37
S'22'
p674
sg39
S'POR'
p675
sg41
S'66'
p676
sS'_blockPercentage'
p677
S'0.4'
p678
sS'_playerEfficiencyRating'
p679
S'14.0'
p680
sS'_offensiveWinShares'
p681
S'.068'
p682
sg59
S'627'
p683
sS'_boxPlusMinus'
p684
g3
sg52
S'1976-77'
p685
sS'_winShares'
p686
S'-3.2'
p687
sba(isrc.gp1.models.Advanced
Advanced
p688
(dp689
g644
S'12.7'
p690
sg646
S'20.5'
p691
sg648
S'-1.6'
p692
sg650
S'0.5'
p693
sg652
S'0.7'
p694
sg654
S'10.1'
p695
sg656
S'-2.7'
p696
sg21
S'SF'
p697
sg658
g3
sg659
S'.470'
p698
sg661
S'10.1'
p699
sg663
S'7.7'
p700
sg665
S'.260'
p701
sg27
S'NBA'
p702
sg668
S'-1.2'
p703
sg670
S'1.1'
p704
sg672
S'1.9'
p705
sg37
S'23'
p706
sg39
S'TOT'
p707
sg41
S'77'
p708
sg677
S'13.0'
p709
sg679
S'12.2'
p710
sg681
S'1.2'
p711
sg59
S'1104'
p712
sg684
S'-0.2'
p713
sg52
S'1977-78'
p714
sg686
S'.084'
p715
sba(isrc.gp1.models.Advanced
Advanced
p716
(dp717
g644
S'10.1'
p718
sg646
S'21.7'
p719
sg648
S'-2.9'
p720
sg650
S'0.0'
p721
sg652
S'0.0'
p722
sg654
S'11.1'
p723
sg656
S'-4.8'
p724
sg21
S'SF'
p725
sg658
g3
sg659
S'.483'
p726
sg661
S'8.8'
p727
sg663
S'7.4'
p728
sg665
S'.195'
p729
sg27
S'NBA'
p730
sg668
S'-1.9'
p731
sg670
S'0.9'
p732
sg672
S'0.1'
p733
sg37
S'23'
p734
sg39
S'POR'
p735
sg41
g108
sg677
S'19.8'
p736
sg679
S'9.5'
p737
sg681
S'0.1'
p738
sg59
S'101'
p739
sg684
S'-0.1'
p740
sg52
S'1977-78'
p741
sg686
S'.024'
p742
sba(isrc.gp1.models.Advanced
Advanced
p743
(dp744
g644
S'12.9'
p745
sg646
S'20.3'
p746
sg648
S'-1.4'
p747
sg650
S'0.5'
p748
sg652
S'0.7'
p749
sg654
S'10.0'
p750
sg656
S'-2.5'
p751
sg21
S'SF'
p752
sg658
g3
sg659
S'.469'
p753
sg661
S'10.2'
p754
sg663
S'7.8'
p755
sg665
S'.267'
p756
sg27
S'NBA'
p757
sg668
S'-1.1'
p758
sg670
S'1.1'
p759
sg672
S'1.9'
p760
sg37
S'23'
p761
sg39
S'SEA'
p762
sg41
S'68'
p763
sg677
S'12.3'
p764
sg679
S'12.5'
p765
sg681
S'1.1'
p766
sg59
S'1003'
p767
sg684
S'-0.1'
p768
sg52
S'1977-78'
p769
sg686
S'.090'
p770
sba(isrc.gp1.models.Advanced
Advanced
p771
(dp772
g644
S'12.1'
p773
sg646
S'18.3'
p774
sg648
S'-1.8'
p775
sg650
S'1.4'
p776
sg652
S'0.6'
p777
sg654
S'10.0'
p778
sg656
S'-2.0'
p779
sg21
S'SF'
p780
sg658
g3
sg659
S'.511'
p781
sg661
S'9.6'
p782
sg663
S'7.2'
p783
sg665
S'.280'
p784
sg27
S'NBA'
p785
sg668
S'-0.3'
p786
sg670
S'0.6'
p787
sg672
S'1.8'
p788
sg37
S'24'
p789
sg39
S'SEA'
p790
sg41
S'60'
p791
sg677
S'15.0'
p792
sg679
S'11.6'
p793
sg681
S'1.2'
p794
sg59
S'969'
p795
sg684
S'0.0'
p796
sg52
S'1978-79'
p797
sg686
S'.087'
p798
sba(isrc.gp1.models.Advanced
Advanced
p799
(dp800
g644
S'7.9'
p801
sg646
S'14.2'
p802
sg648
S'.116'
p803
sg650
S'1.2'
p804
sg652
S'16.5'
p805
sg654
S'10.6'
p806
sg656
S'-0.5'
p807
sg21
S'SF'
p808
sg658
S'0.0'
p809
sg659
S'.539'
p810
sg661
S'13.3'
p811
sg663
S'.234'
p812
sg665
S'.000'
p813
sg27
S'NBA'
p814
sg668
S'-1.4'
p815
sg670
S'8.6'
p816
sg672
S'1.1'
p817
sg37
S'25'
p818
sg39
S'SEA'
p819
sg41
S'70'
p820
sg677
S'0.3'
p821
sg679
S'12.3'
p822
sg681
S'1.0'
p823
sg59
S'844'
p824
sg684
S'-1.9'
p825
sg52
S'1979-80'
p826
sg686
S'2.0'
p827
sba(isrc.gp1.models.Advanced
Advanced
p828
(dp829
g644
S'6.6'
p830
sg646
S'14.1'
p831
sg648
S'.055'
p832
sg650
S'1.4'
p833
sg652
S'18.5'
p834
sg654
S'9.6'
p835
sg656
S'-0.3'
p836
sg21
S'SF'
p837
sg658
S'-0.1'
p838
sg659
S'.492'
p839
sg661
S'12.6'
p840
sg663
S'.270'
p841
sg665
S'.005'
p842
sg27
S'NBA'
p843
sg668
S'-1.9'
p844
sg670
S'9.9'
p845
sg672
S'1.7'
p846
sg37
S'26'
p847
sg39
S'SEA'
p848
sg41
S'82'
p849
sg677
S'0.5'
p850
sg679
S'11.3'
p851
sg681
S'0.3'
p852
sg59
S'1796'
p853
sg684
S'-2.2'
p854
sg52
S'1980-81'
p855
sg686
S'2.1'
p856
sba(isrc.gp1.models.Advanced
Advanced
p857
(dp858
g644
S'6.2'
p859
sg646
S'13.9'
p860
sg648
S'.087'
p861
sg650
S'0.9'
p862
sg652
S'16.9'
p863
sg654
S'8.4'
p864
sg656
S'0.7'
p865
sg21
S'SF'
p866
sg658
S'0.8'
p867
sg659
S'.504'
p868
sg661
S'10.5'
p869
sg663
S'.213'
p870
sg665
S'.003'
p871
sg27
S'NBA'
p872
sg668
S'-1.1'
p873
sg670
S'15.2'
p874
sg672
S'2.4'
p875
sg37
S'27'
p876
sg39
S'SEA'
p877
sg41
S'70'
p878
sg677
S'0.8'
p879
sg679
S'11.4'
p880
sg681
S'1.1'
p881
sg59
S'1965'
p882
sg684
S'-0.5'
p883
sg52
S'1981-82'
p884
sg686
S'3.5'
p885
sba(isrc.gp1.models.Advanced
Advanced
p886
(dp887
g644
S'6.1'
p888
sg646
S'14.4'
p889
sg648
S'.002'
p890
sg650
S'0.8'
p891
sg652
S'17.8'
p892
sg654
S'8.9'
p893
sg656
S'-0.9'
p894
sg21
S'SF'
p895
sg658
S'-0.7'
p896
sg659
S'.465'
p897
sg661
S'12.0'
p898
sg663
S'.144'
p899
sg665
S'.005'
p900
sg27
S'NBA'
p901
sg668
S'-2.3'
p902
sg670
S'12.9'
p903
sg672
S'0.7'
p904
sg37
S'28'
p905
sg39
S'HOU'
p906
sg41
S'82'
p907
sg677
S'0.5'
p908
sg679
S'10.1'
p909
sg681
S'-0.5'
p910
sg59
S'2251'
p911
sg684
S'-3.2'
p912
sg52
S'1982-83'
p913
sg686
S'0.1'
p914
sba(isrc.gp1.models.Advanced
Advanced
p915
(dp916
g644
S'4.6'
p917
sg646
S'11.7'
p918
sg648
S'.041'
p919
sg650
S'1.3'
p920
sg652
S'18.1'
p921
sg654
S'8.1'
p922
sg656
S'-1.2'
p923
sg21
S'SF'
p924
sg658
S'-0.3'
p925
sg659
S'.490'
p926
sg661
S'11.6'
p927
sg663
S'.075'
p928
sg665
S'.025'
p929
sg27
S'NBA'
p930
sg668
S'-2.5'
p931
sg670
S'12.0'
p932
sg672
S'0.5'
p933
sg37
S'29'
p934
sg39
S'HOU'
p935
sg41
S'58'
p936
sg677
S'0.4'
p937
sg679
S'10.9'
p938
sg681
S'0.1'
p939
sg59
S'612'
p940
sg684
S'-3.6'
p941
sg52
S'1983-84'
p942
sg686
S'0.5'
p943
sbasS'_per36Minutes'
p944
(lp945
(isrc.gp1.models.Per36Minutes
Per36Minutes
p946
(dp947
g8
S'0.8'
p948
sg10
S'.449'
p949
sg12
S'7.9'
p950
sg14
S'19.6'
p951
sg16
S'3.8'
p952
sg18
S'17.5'
p953
sg20
g3
sg21
S'SF'
p954
sg23
S'2.9'
p955
sg27
S'NBA'
p956
sg29
g3
sg30
S'.449'
p957
sg32
g3
sg33
S'6.2'
p958
sg35
S'5.3'
p959
sg37
S'22'
p960
sg39
S'POR'
p961
sg41
S'66'
p962
sg43
g3
sg44
S'5.7'
p963
sg46
S'3.6'
p964
sg48
S'.670'
p965
sg50
S'0.1'
p966
sg52
S'1976-77'
p967
sg54
S'17.5'
p968
sg56
g3
sg57
S'2.6'
p969
sg59
S'7.9'
p970
sg61
S'627'
p971
sba(isrc.gp1.models.Per36Minutes
Per36Minutes
p972
(dp973
g8
S'0.8'
p974
sg10
S'.443'
p975
sg12
S'6.7'
p976
sg14
S'4.5'
p977
sg16
S'2.4'
p978
sg18
S'15.0'
p979
sg20
g3
sg21
S'SF'
p980
sg23
S'2.5'
p981
sg27
S'NBA'
p982
sg29
S'15.8'
p983
sg30
S'.443'
p984
sg32
g3
sg33
S'7.1'
p985
sg35
S'2.5'
p986
sg37
S'23'
p987
sg39
S'TOT'
p988
sg41
S'77'
p989
sg43
g3
sg44
S'3.9'
p990
sg46
S'4.3'
p991
sg48
S'.625'
p992
sg50
S'0.3'
p993
sg52
S'1977-78'
p994
sg54
S'15.0'
p995
sg56
g3
sg57
S'2.8'
p996
sg59
S'6.7'
p997
sg61
S'1104'
p998
sba(isrc.gp1.models.Per36Minutes
Per36Minutes
p999
(dp1000
g8
S'0.7'
p1001
sg10
S'.463'
p1002
sg12
S'6.8'
p1003
sg14
S'4.6'
p1004
sg16
S'1.8'
p1005
sg18
S'14.6'
p1006
sg20
g3
sg21
S'SF'
p1007
sg23
S'2.9'
p1008
sg27
S'NBA'
p1009
sg29
S'15.3'
p1010
sg30
S'.463'
p1011
sg32
g3
sg33
S'6.1'
p1012
sg35
S'3.9'
p1013
sg37
S'23'
p1014
sg39
S'POR'
p1015
sg41
g108
sg43
g3
sg44
S'2.9'
p1016
sg46
S'3.6'
p1017
sg48
S'.625'
p1018
sg50
S'0.0'
p1019
sg52
S'1977-78'
p1020
sg54
S'14.6'
p1021
sg56
g3
sg57
S'2.5'
p1022
sg59
S'6.8'
p1023
sg61
S'101'
p1024
sba(isrc.gp1.models.Per36Minutes
Per36Minutes
p1025
(dp1026
g8
S'0.9'
p1027
sg10
S'.440'
p1028
sg12
S'6.6'
p1029
sg14
S'4.5'
p1030
sg16
S'2.5'
p1031
sg18
S'15.1'
p1032
sg20
g3
sg21
S'SF'
p1033
sg23
S'2.5'
p1034
sg27
S'NBA'
p1035
sg29
S'15.8'
p1036
sg30
S'.440'
p1037
sg32
g3
sg33
S'7.3'
p1038
sg35
S'2.4'
p1039
sg37
S'23'
p1040
sg39
S'SEA'
p1041
sg41
S'68'
p1042
sg43
g3
sg44
S'4.0'
p1043
sg46
S'4.4'
p1044
sg48
S'.625'
p1045
sg50
S'0.4'
p1046
sg52
S'1977-78'
p1047
sg54
S'15.1'
p1048
sg56
g3
sg57
S'2.9'
p1049
sg59
S'6.6'
p1050
sg61
S'1003'
p1051
sba(isrc.gp1.models.Per36Minutes
Per36Minutes
p1052
(dp1053
g8
S'0.4'
p1054
sg10
S'.490'
p1055
sg12
S'6.2'
p1056
sg14
S'4.7'
p1057
sg16
S'2.2'
p1058
sg18
S'12.7'
p1059
sg20
g3
sg21
S'SF'
p1060
sg23
S'2.6'
p1061
sg27
S'NBA'
p1062
sg29
S'14.6'
p1063
sg30
S'.490'
p1064
sg32
g3
sg33
S'6.6'
p1065
sg35
S'2.5'
p1066
sg37
S'24'
p1067
sg39
S'SEA'
p1068
sg41
S'60'
p1069
sg43
g3
sg44
S'3.6'
p1070
sg46
S'4.1'
p1071
sg48
S'.604'
p1072
sg50
S'1.0'
p1073
sg52
S'1978-79'
p1074
sg54
S'12.7'
p1075
sg56
g3
sg57
S'2.5'
p1076
sg59
S'6.2'
p1077
sg61
S'969'
p1078
sba(isrc.gp1.models.Per36Minutes
Per36Minutes
p1079
(dp1080
g8
S'7.3'
p1081
sg10
S'5.9'
p1082
sg12
S'0.0'
p1083
sg14
S'0.2'
p1084
sg16
S'11.7'
p1085
sg18
S'0.0'
p1086
sg20
g3
sg21
S'SF'
p1087
sg23
S'4.5'
p1088
sg27
S'NBA'
p1089
sg29
S'2.1'
p1090
sg30
S'.507'
p1091
sg32
g3
sg33
S'2.7'
p1092
sg35
S'0.9'
p1093
sg37
S'25'
p1094
sg39
S'SEA'
p1095
sg41
S'70'
p1096
sg43
S'4.4'
p1097
sg44
S'.507'
p1098
sg46
S'.750'
p1099
sg48
S'2.0'
p1100
sg50
S'2.3'
p1101
sg52
S'1979-80'
p1102
sg54
S'11.7'
p1103
sg56
S'13.9'
p1104
sg57
S'2.7'
p1105
sg59
S'5.9'
p1106
sg61
S'844'
p1107
sba(isrc.gp1.models.Per36Minutes
Per36Minutes
p1108
(dp1109
g8
S'4.2'
p1110
sg10
S'.000'
p1111
sg12
S'0.0'
p1112
sg14
S'1.1'
p1113
sg16
S'5.8'
p1114
sg18
S'0.1'
p1115
sg20
g3
sg21
S'SF'
p1116
sg23
S'2.1'
p1117
sg27
S'NBA'
p1118
sg29
S'0.3'
p1119
sg30
S'.463'
p1120
sg32
S'13.8'
p1121
sg33
S'.645'
p1122
sg35
S'2.4'
p1123
sg37
S'26'
p1124
sg39
S'SEA'
p1125
sg41
S'82'
p1126
sg43
S'2.3'
p1127
sg44
S'12.5'
p1128
sg46
S'3.4'
p1129
sg48
S'.465'
p1130
sg50
S'6.3'
p1131
sg52
S'1980-81'
p1132
sg54
S'12.5'
p1133
sg56
S'3.4'
p1134
sg57
S'2.2'
p1135
sg59
S'5.8'
p1136
sg61
S'1796'
p1137
sba(isrc.gp1.models.Per36Minutes
Per36Minutes
p1138
(dp1139
g8
S'2.0'
p1140
sg10
S'0.0'
p1141
sg12
S'.480'
p1142
sg14
S'4.0'
p1143
sg16
S'.000'
p1144
sg18
S'0.0'
p1145
sg20
S'12.7'
p1146
sg21
S'SF'
p1147
sg23
S'.672'
p1148
sg27
S'NBA'
p1149
sg29
S'0.7'
p1150
sg30
S'11.5'
p1151
sg32
S'3.9'
p1152
sg33
S'2.5'
p1153
sg35
S'5.6'
p1154
sg37
S'27'
p1155
sg39
S'SEA'
p1156
sg41
S'70'
p1157
sg43
S'0.5'
p1158
sg44
S'5.5'
p1159
sg46
S'1.6'
p1160
sg48
S'11.5'
p1161
sg50
S'3.6'
p1162
sg52
S'1981-82'
p1163
sg54
S'5.5'
p1164
sg56
S'2.0'
p1165
sg57
S'.482'
p1166
sg59
S'1965'
p1167
sg61
S'70'
p1168
sba(isrc.gp1.models.Per36Minutes
Per36Minutes
p1169
(dp1170
g8
S'2.2'
p1171
sg10
S'0.1'
p1172
sg12
S'.449'
p1173
sg14
S'3.2'
p1174
sg16
S'.250'
p1175
sg18
S'0.0'
p1176
sg20
S'12.7'
p1177
sg21
S'SF'
p1178
sg23
S'.621'
p1179
sg27
S'NBA'
p1180
sg29
S'0.6'
p1181
sg30
S'12.9'
p1182
sg32
S'3.2'
p1183
sg33
S'1.9'
p1184
sg35
S'6.0'
p1185
sg37
S'28'
p1186
sg39
S'HOU'
p1187
sg41
S'82'
p1188
sg43
S'0.4'
p1189
sg44
S'5.8'
p1190
sg46
S'1.2'
p1191
sg48
S'12.8'
p1192
sg50
S'3.8'
p1193
sg52
S'1982-83'
p1194
sg54
S'5.8'
p1195
sg56
S'2.3'
p1196
sg57
S'.450'
p1197
sg59
S'2251'
p1198
sg61
S'59'
p1199
sba(isrc.gp1.models.Per36Minutes
Per36Minutes
p1200
(dp1201
g8
S'1.5'
p1202
sg10
S'0.4'
p1203
sg12
S'.490'
p1204
sg14
S'3.2'
p1205
sg16
S'.333'
p1206
sg18
S'0.1'
p1207
sg20
S'14.4'
p1208
sg21
S'SF'
p1209
sg23
S'.333'
p1210
sg27
S'NBA'
p1211
sg29
S'1.0'
p1212
sg30
S'14.2'
p1213
sg32
S'3.8'
p1214
sg33
S'1.1'
p1215
sg35
S'5.4'
p1216
sg37
S'29'
p1217
sg39
S'HOU'
p1218
sg41
S'58'
p1219
sg43
S'0.2'
p1220
sg44
S'6.8'
p1221
sg46
S'0.4'
p1222
sg48
S'13.8'
p1223
sg50
S'3.9'
p1224
sg52
S'1983-84'
p1225
sg54
S'6.9'
p1226
sg56
S'1.9'
p1227
sg57
S'.494'
p1228
sg59
S'612'
p1229
sg61
S'18'
p1230
sbasS'_fromYear'
p1231
S'1977'
p1232
sS'_url'
p1233
S'http://www.basketball-reference.com/players/w/walkewa01.html'
p1234
sS'_perGame'
p1235
(isrc.gp1.models.PerGame
PerGame
p1236
(dp1237
g8
S'0.4'
p1238
sg10
S'0.1'
p1239
sg12
S'.490'
p1240
sS'_effectiveFieldGalPercentage'
p1241
S'.494'
p1242
sg14
S'0.9'
p1243
sg16
S'.333'
p1244
sg18
S'0.0'
p1245
sg20
S'4.2'
p1246
sg21
S'SF'
p1247
sg23
S'.333'
p1248
sg27
S'NBA'
p1249
sg29
S'0.3'
p1250
sg32
S'1.1'
p1251
sS'_fieldGoalsttempted'
p1252
S'4.2'
p1253
sg33
S'0.3'
p1254
sg35
S'1.6'
p1255
sg37
S'29'
p1256
sg39
S'HOU'
p1257
sg41
S'58'
p1258
sg43
S'0.1'
p1259
sg44
S'2.0'
p1260
sg46
S'0.1'
p1261
sg48
S'4.1'
p1262
sg50
S'1.1'
p1263
sg52
S'1983-84'
p1264
sg54
S'2.0'
p1265
sg56
S'0.6'
p1266
sg57
S'.494'
p1267
sg59
S'10.6'
p1268
sg61
S'18'
p1269
sbsS'_weight'
p1270
S'190'
p1271
sS'_dob'
p1272
S'18-7-1954'
p1273
sS'_salary'
p1274
(lp1275
sg21
S'F'
p1276
sb.