(isrc.gp1.models.Player
Player
p0
(dp1
S'_experience'
p2
V14
p3
sS'_totals'
p4
(lp5
(isrc.gp1.models.Totals
Totals
p6
(dp7
S'_offensiveRebounds'
p8
S'49'
p9
sS'_threePointsAttempted'
p10
S'7'
p11
sS'_fieldGoalsPercentage'
p12
S'.429'
p13
sS'_assist'
p14
S'27'
p15
sS'_threePointsPercentage'
p16
S'.000'
p17
sS'_threePoints'
p18
S'0'
p19
sS'_points'
p20
S'173'
p21
sS'_position'
p22
S'SF'
p23
sS'_freeThrowsPercentage'
p24
S'.500'
p25
sS'_effectiveFieldGoalPercentage'
p26
S'.429'
p27
sS'_league'
p28
S'NBA'
p29
sS'_steals'
p30
S'19'
p31
sS'_fieldGoalsAttempted'
p32
S'175'
p33
sS'_personalFouls'
p34
S'46'
p35
sS'_freeThrowsAttempted'
p36
S'46'
p37
sS'_totalRebounds'
p38
S'89'
p39
sS'_age'
p40
S'19'
p41
sS'_team'
p42
S'SAC'
p43
sS'_games'
p44
S'54'
p45
sS'_blocks'
p46
S'6'
p47
sS'_twoPoints'
p48
S'75'
p49
sS'_freeThrows'
p50
S'23'
p51
sS'_twoPointsAttempted'
p52
S'168'
p53
sS'_defensiveRebounds'
p54
S'40'
p55
sS'_season'
p56
S'2001-02'
p57
sS'_fieldGoals'
p58
S'75'
p59
sS'_turnOvers'
p60
S'22'
p61
sS'_twoPointsPercentage'
p62
S'.446'
p63
sS'_minutesPlayed'
p64
S'430'
p65
sS'_gamesStarted'
p66
S'1'
p67
sba(isrc.gp1.models.Totals
Totals
p68
(dp69
g8
S'38'
p70
sg10
S'4'
p71
sg12
S'.492'
p72
sg14
S'23'
p73
sg16
S'.250'
p74
sg18
g67
sg20
S'220'
p75
sg22
S'SF'
p76
sg24
S'.527'
p77
sg26
S'.495'
p78
sg28
S'NBA'
p79
sg30
S'24'
p80
sg32
S'183'
p81
sg34
S'68'
p82
sg36
S'74'
p83
sg38
S'128'
p84
sg40
S'20'
p85
sg42
S'SAC'
p86
sg44
S'47'
p87
sg46
S'15'
p88
sg48
S'89'
p89
sg50
S'39'
p90
sg52
S'179'
p91
sg54
S'90'
p92
sg56
S'2002-03'
p93
sg58
S'90'
p94
sg60
S'44'
p95
sg62
S'.497'
p96
sg64
S'571'
p97
sg66
g11
sba(isrc.gp1.models.Totals
Totals
p98
(dp99
g8
S'35'
p100
sg10
S'2'
p101
sg12
S'.360'
p102
sg14
S'19'
p103
sg16
S'.000'
p104
sg18
g19
sg20
S'75'
p105
sg22
S'SF'
p106
sg24
S'.458'
p107
sg26
S'.360'
p108
sg28
S'NBA'
p109
sg30
S'14'
p110
sg32
S'89'
p111
sg34
S'37'
p112
sg36
S'24'
p113
sg38
S'74'
p114
sg40
S'21'
p115
sg42
S'SAC'
p116
sg44
S'37'
p117
sg46
S'14'
p118
sg48
S'32'
p119
sg50
S'11'
p120
sg52
S'87'
p121
sg54
S'39'
p122
sg56
S'2003-04'
p123
sg58
S'32'
p124
sg60
S'8'
p125
sg62
S'.368'
p126
sg64
S'337'
p127
sg66
g67
sba(isrc.gp1.models.Totals
Totals
p128
(dp129
g8
S'118'
p130
sg10
S'62'
p131
sg12
S'.449'
p132
sg14
S'137'
p133
sg16
S'.274'
p134
sg18
S'17'
p135
sg20
S'780'
p136
sg22
S'SF'
p137
sg24
S'.661'
p138
sg26
S'.462'
p139
sg28
S'NBA'
p140
sg30
S'117'
p141
sg32
S'637'
p142
sg34
S'182'
p143
sg36
S'289'
p144
sg38
S'386'
p145
sg40
S'22'
p146
sg42
S'CHA'
p147
sg44
S'70'
p148
sg46
S'91'
p149
sg48
S'269'
p150
sg50
S'191'
p151
sg52
S'575'
p152
sg54
S'268'
p153
sg56
S'2004-05'
p154
sg58
S'286'
p155
sg60
S'159'
p156
sg62
S'.468'
p157
sg64
S'2147'
p158
sg66
S'68'
p159
sba(isrc.gp1.models.Totals
Totals
p160
(dp161
g8
S'123'
p162
sg10
S'50'
p163
sg12
S'.538'
p164
sg14
S'96'
p165
sg16
S'.280'
p166
sg18
S'14'
p167
sg20
S'836'
p168
sg22
S'SF'
p169
sg24
S'.614'
p170
sg26
S'.550'
p171
sg28
S'NBA'
p172
sg30
S'138'
p173
sg32
S'589'
p174
sg34
S'150'
p175
sg36
S'306'
p176
sg38
S'412'
p177
sg40
S'23'
p178
sg42
S'CHA'
p179
sg44
S'55'
p180
sg46
S'115'
p181
sg48
S'303'
p182
sg50
S'188'
p183
sg52
S'539'
p184
sg54
S'289'
p185
sg56
S'2005-06'
p186
sg58
S'317'
p187
sg60
S'99'
p188
sg62
S'.562'
p189
sg64
S'1895'
p190
sg66
S'52'
p191
sba(isrc.gp1.models.Totals
Totals
p192
(dp193
g8
S'142'
p194
sg10
S'120'
p195
sg12
S'.502'
p196
sg14
S'185'
p197
sg16
S'.325'
p198
sg18
S'39'
p199
sg20
S'1304'
p200
sg22
S'SF'
p201
sg24
S'.691'
p202
sg26
S'.523'
p203
sg28
S'NBA'
p204
sg30
S'144'
p205
sg32
S'952'
p206
sg34
S'209'
p207
sg36
S'447'
p208
sg38
S'518'
p209
sg40
S'24'
p210
sg42
S'CHA'
p211
sg44
S'72'
p212
sg46
S'69'
p213
sg48
S'439'
p214
sg50
S'309'
p215
sg52
S'832'
p216
sg54
S'376'
p217
sg56
S'2006-07'
p218
sg58
S'478'
p219
sg60
S'160'
p220
sg62
S'.528'
p221
sg64
S'2640'
p222
sg66
S'71'
p223
sba(isrc.gp1.models.Totals
Totals
p224
(dp225
g8
S'58'
p226
sg10
S'221'
p227
sg12
S'.449'
p228
sg14
S'216'
p229
sg16
S'.321'
p230
sg18
S'71'
p231
sg20
S'1200'
p232
sg22
S'PF'
p233
sg24
S'.731'
p234
sg26
S'.488'
p235
sg28
S'NBA'
p236
sg30
S'131'
p237
sg32
S'908'
p238
sg34
S'189'
p239
sg36
S'428'
p240
sg38
S'373'
p241
sg40
S'25'
p242
sg42
S'CHA'
p243
sg44
S'62'
p244
sg46
S'58'
p245
sg48
S'337'
p246
sg50
S'313'
p247
sg52
S'687'
p248
sg54
S'315'
p249
sg56
S'2007-08'
p250
sg58
S'408'
p251
sg60
S'180'
p252
sg62
S'.491'
p253
sg64
S'2376'
p254
sg66
S'59'
p255
sba(isrc.gp1.models.Totals
Totals
p256
(dp257
g8
S'112'
p258
sg10
S'131'
p259
sg12
S'.480'
p260
sg14
S'189'
p261
sg16
S'.298'
p262
sg18
S'39'
p263
sg20
S'1182'
p264
sg22
S'SF'
p265
sg24
S'.804'
p266
sg26
S'.504'
p267
sg28
S'NBA'
p268
sg30
S'121'
p269
sg32
S'811'
p270
sg34
S'210'
p271
sg36
S'454'
p272
sg38
S'553'
p273
sg40
S'26'
p274
sg42
S'CHA'
p275
sg44
S'71'
p276
sg46
S'67'
p277
sg48
S'350'
p278
sg50
S'365'
p279
sg52
S'680'
p280
sg54
S'441'
p281
sg56
S'2008-09'
p282
sg58
S'389'
p283
sg60
S'148'
p284
sg62
S'.515'
p285
sg64
S'2669'
p286
sg66
S'71'
p287
sba(isrc.gp1.models.Totals
Totals
p288
(dp289
g8
S'150'
p290
sg10
S'140'
p291
sg12
S'.484'
p292
sg14
S'161'
p293
sg16
S'.371'
p294
sg18
S'52'
p295
sg20
S'1386'
p296
sg22
S'SF'
p297
sg24
S'.776'
p298
sg26
S'.511'
p299
sg28
S'NBA'
p300
sg30
S'117'
p301
sg32
S'943'
p302
sg34
S'194'
p303
sg36
S'544'
p304
sg38
S'762'
p305
sg40
S'27'
p306
sg42
S'CHA'
p307
sg44
S'76'
p308
sg46
S'83'
p309
sg48
S'404'
p310
sg50
S'422'
p311
sg52
S'803'
p312
sg54
S'612'
p313
sg56
S'2009-10'
p314
sg58
S'456'
p315
sg60
S'178'
p316
sg62
S'.503'
p317
sg64
S'3119'
p318
sg66
S'76'
p319
sba(isrc.gp1.models.Totals
Totals
p320
(dp321
g8
S'111'
p322
sg10
S'186'
p323
sg12
S'.454'
p324
sg14
S'173'
p325
sg16
S'.333'
p326
sg18
S'62'
p327
sg20
S'1113'
p328
sg22
S'SF-PF'
p329
sg24
S'.746'
p330
sg26
S'.490'
p331
sg28
S'NBA'
p332
sg30
S'105'
p333
sg32
S'851'
p334
sg34
S'183'
p335
sg36
S'374'
p336
sg38
S'569'
p337
sg40
S'28'
p338
sg42
S'TOT'
p339
sg44
S'71'
p340
sg46
S'63'
p341
sg48
S'324'
p342
sg50
S'279'
p343
sg52
S'665'
p344
sg54
S'458'
p345
sg56
S'2010-11'
p346
sg58
S'386'
p347
sg60
S'152'
p348
sg62
S'.487'
p349
sg64
S'2693'
p350
sg66
S'63'
p351
sba(isrc.gp1.models.Totals
Totals
p352
(dp353
g8
S'72'
p354
sg10
S'106'
p355
sg12
S'.433'
p356
sg14
S'116'
p357
sg16
S'.330'
p358
sg18
S'35'
p359
sg20
S'749'
p360
sg22
S'SF'
p361
sg24
S'.739'
p362
sg26
S'.463'
p363
sg28
S'NBA'
p364
sg30
S'59'
p365
sg32
S'582'
p366
sg34
S'120'
p367
sg36
S'284'
p368
sg38
S'394'
p369
sg40
S'28'
p370
sg42
S'CHA'
p371
sg44
S'48'
p372
sg46
S'48'
p373
sg48
S'217'
p374
sg50
S'210'
p375
sg52
S'476'
p376
sg54
S'322'
p377
sg56
S'2010-11'
p378
sg58
S'252'
p379
sg60
S'100'
p380
sg62
S'.456'
p381
sg64
S'1872'
p382
sg66
S'48'
p383
sba(isrc.gp1.models.Totals
Totals
p384
(dp385
g8
S'39'
p386
sg10
S'80'
p387
sg12
S'.498'
p388
sg14
S'57'
p389
sg16
S'.338'
p390
sg18
S'27'
p391
sg20
S'364'
p392
sg22
S'PF'
p393
sg24
S'.767'
p394
sg26
S'.548'
p395
sg28
S'NBA'
p396
sg30
S'46'
p397
sg32
S'269'
p398
sg34
S'63'
p399
sg36
S'90'
p400
sg38
S'175'
p401
sg40
S'28'
p402
sg42
S'POR'
p403
sg44
S'23'
p404
sg46
S'15'
p405
sg48
S'107'
p406
sg50
S'69'
p407
sg52
S'189'
p408
sg54
S'136'
p409
sg56
S'2010-11'
p410
sg58
S'134'
p411
sg60
S'52'
p412
sg62
S'.566'
p413
sg64
S'821'
p414
sg66
S'15'
p415
sba(isrc.gp1.models.Totals
Totals
p416
(dp417
g8
S'87'
p418
sg10
S'150'
p419
sg12
S'.454'
p420
sg14
S'164'
p421
sg16
S'.307'
p422
sg18
S'46'
p423
sg20
S'800'
p424
sg22
S'SF'
p425
sg24
S'.800'
p426
sg26
S'.491'
p427
sg28
S'NBA'
p428
sg30
S'85'
p429
sg32
S'632'
p430
sg34
S'145'
p431
sg36
S'225'
p432
sg38
S'386'
p433
sg40
S'29'
p434
sg42
S'TOT'
p435
sg44
S'58'
p436
sg46
S'36'
p437
sg48
S'241'
p438
sg50
S'180'
p439
sg52
S'482'
p440
sg54
S'299'
p441
sg56
S'2011-12'
p442
sg58
S'287'
p443
sg60
S'111'
p444
sg62
S'.500'
p445
sg64
S'2076'
p446
sg66
S'58'
p447
sba(isrc.gp1.models.Totals
Totals
p448
(dp449
g8
S'63'
p450
sg10
S'98'
p451
sg12
S'.472'
p452
sg14
S'115'
p453
sg16
S'.265'
p454
sg18
S'26'
p455
sg20
S'557'
p456
sg22
S'SF'
p457
sg24
S'.776'
p458
sg26
S'.502'
p459
sg28
S'NBA'
p460
sg30
S'62'
p461
sg32
S'430'
p462
sg34
S'107'
p463
sg36
S'161'
p464
sg38
S'277'
p465
sg40
S'29'
p466
sg42
S'POR'
p467
sg44
S'42'
p468
sg46
S'25'
p469
sg48
S'177'
p470
sg50
S'125'
p471
sg52
S'332'
p472
sg54
S'214'
p473
sg56
S'2011-12'
p474
sg58
S'203'
p475
sg60
S'84'
p476
sg62
S'.533'
p477
sg64
S'1503'
p478
sg66
S'42'
p479
sba(isrc.gp1.models.Totals
Totals
p480
(dp481
g8
S'24'
p482
sg10
S'52'
p483
sg12
S'.416'
p484
sg14
S'49'
p485
sg16
S'.385'
p486
sg18
S'20'
p487
sg20
S'243'
p488
sg22
S'SF'
p489
sg24
S'.859'
p490
sg26
S'.465'
p491
sg28
S'NBA'
p492
sg30
S'23'
p493
sg32
S'202'
p494
sg34
S'38'
p495
sg36
S'64'
p496
sg38
S'109'
p497
sg40
S'29'
p498
sg42
S'NJN'
p499
sg44
S'16'
p500
sg46
S'11'
p501
sg48
S'64'
p502
sg50
S'55'
p503
sg52
S'150'
p504
sg54
S'85'
p505
sg56
S'2011-12'
p506
sg58
S'84'
p507
sg60
S'27'
p508
sg62
S'.427'
p509
sg64
S'573'
p510
sg66
S'16'
p511
sba(isrc.gp1.models.Totals
Totals
p512
(dp513
g8
S'69'
p514
sg10
S'163'
p515
sg12
S'.397'
p516
sg14
S'181'
p517
sg16
S'.282'
p518
sg18
S'46'
p519
sg20
S'531'
p520
sg22
S'SF'
p521
sg24
S'.637'
p522
sg26
S'.448'
p523
sg28
S'NBA'
p524
sg30
S'97'
p525
sg32
S'458'
p526
sg34
S'118'
p527
sg36
S'190'
p528
sg38
S'319'
p529
sg40
S'30'
p530
sg42
S'BRK'
p531
sg44
S'69'
p532
sg46
S'46'
p533
sg48
S'136'
p534
sg50
S'121'
p535
sg52
S'295'
p536
sg54
S'250'
p537
sg56
S'2012-13'
p538
sg58
S'182'
p539
sg60
S'110'
p540
sg62
S'.461'
p541
sg64
S'2076'
p542
sg66
S'68'
p543
sba(isrc.gp1.models.Totals
Totals
p544
(dp545
g8
S'36'
p546
sg10
S'64'
p547
sg12
S'.504'
p548
sg14
S'143'
p549
sg16
S'.297'
p550
sg18
S'19'
p551
sg20
S'298'
p552
sg22
S'SF'
p553
sg24
S'.465'
p554
sg26
S'.546'
p555
sg28
S'NBA'
p556
sg30
S'73'
p557
sg32
S'230'
p558
sg34
S'79'
p559
sg36
S'101'
p560
sg38
S'212'
p561
sg40
S'31'
p562
sg42
S'BOS'
p563
sg44
S'58'
p564
sg46
S'14'
p565
sg48
S'97'
p566
sg50
S'47'
p567
sg52
S'166'
p568
sg54
S'176'
p569
sg56
S'2013-14'
p570
sg58
S'116'
p571
sg60
S'97'
p572
sg62
S'.584'
p573
sg64
S'1416'
p574
sg66
S'16'
p575
sba(isrc.gp1.models.Totals
Totals
p576
(dp577
g8
S'17'
p578
sg10
S'3'
p579
sg12
S'.412'
p580
sg14
S'11'
p581
sg16
S'.333'
p582
sg18
g67
sg20
S'35'
p583
sg22
S'SF'
p584
sg24
S'.400'
p585
sg26
S'.426'
p586
sg28
S'NBA'
p587
sg30
S'15'
p588
sg32
S'34'
p589
sg34
S'19'
p590
sg36
S'15'
p591
sg38
S'57'
p592
sg40
S'32'
p593
sg42
S'BOS'
p594
sg44
S'32'
p595
sg46
g71
sg48
S'13'
p596
sg50
g47
sg52
S'31'
p597
sg54
S'40'
p598
sg56
S'2014-15'
p599
sg58
S'14'
p600
sg60
S'18'
p601
sg62
S'.419'
p602
sg64
S'286'
p603
sg66
g19
sbasS'_college'
p604
S'University of Alabama'
p605
sS'_toYear'
p606
S'2015'
p607
sS'_height'
p608
S'6-7'
p609
sS'_active'
p610
I01
sS'_shootingHand'
p611
VRight
p612
sS'_name'
p613
S'Gerald Wallace'
p614
sS'_per100Possessions'
p615
(lp616
(isrc.gp1.models.Per100Possession
Per100Possession
p617
(dp618
g8
S'5.7'
p619
sg10
S'0.8'
p620
sg12
S'.429'
p621
sS'_offensiveRating'
p622
S'97'
p623
sg14
S'3.2'
p624
sg16
S'.000'
p625
sg18
S'0.0'
p626
sg20
S'20.2'
p627
sg22
S'SF'
p628
sS'_defensiveRating'
p629
S'102'
p630
sg24
S'.500'
p631
sg28
S'NBA'
p632
sg30
S'2.2'
p633
sg32
S'20.4'
p634
sg34
S'5.4'
p635
sg36
S'5.4'
p636
sg38
S'10.4'
p637
sg40
S'19'
p638
sg42
S'SAC'
p639
sg44
S'54'
p640
sg46
S'0.7'
p641
sg48
S'8.8'
p642
sg50
S'2.7'
p643
sg52
S'19.6'
p644
sg54
S'4.7'
p645
sg56
S'2001-02'
p646
sg58
S'8.8'
p647
sg60
S'2.6'
p648
sg62
S'.446'
p649
sg64
S'430'
p650
sg66
g67
sba(isrc.gp1.models.Per100Possession
Per100Possession
p651
(dp652
g8
S'3.3'
p653
sg10
S'0.4'
p654
sg12
S'.492'
p655
sg622
S'94'
p656
sg14
S'2.0'
p657
sg16
S'.250'
p658
sg18
S'0.1'
p659
sg20
S'19.4'
p660
sg22
S'SF'
p661
sg629
S'98'
p662
sg24
S'.527'
p663
sg28
S'NBA'
p664
sg30
S'2.1'
p665
sg32
S'16.1'
p666
sg34
S'6.0'
p667
sg36
S'6.5'
p668
sg38
S'11.3'
p669
sg40
S'20'
p670
sg42
S'SAC'
p671
sg44
S'47'
p672
sg46
S'1.3'
p673
sg48
S'7.8'
p674
sg50
S'3.4'
p675
sg52
S'15.8'
p676
sg54
S'7.9'
p677
sg56
S'2002-03'
p678
sg58
S'7.9'
p679
sg60
S'3.9'
p680
sg62
S'.497'
p681
sg64
S'571'
p682
sg66
g11
sba(isrc.gp1.models.Per100Possession
Per100Possession
p683
(dp684
g8
S'5.4'
p685
sg10
S'0.3'
p686
sg12
S'.360'
p687
sg622
S'96'
p688
sg14
S'2.9'
p689
sg16
S'.000'
p690
sg18
S'0.0'
p691
sg20
S'11.5'
p692
sg22
S'SF'
p693
sg629
S'104'
p694
sg24
S'.458'
p695
sg28
S'NBA'
p696
sg30
S'2.1'
p697
sg32
S'13.7'
p698
sg34
S'5.7'
p699
sg36
S'3.7'
p700
sg38
S'11.4'
p701
sg40
S'21'
p702
sg42
S'SAC'
p703
sg44
S'37'
p704
sg46
S'2.1'
p705
sg48
S'4.9'
p706
sg50
S'1.7'
p707
sg52
S'13.4'
p708
sg54
S'6.0'
p709
sg56
S'2003-04'
p710
sg58
S'4.9'
p711
sg60
S'1.2'
p712
sg62
S'.368'
p713
sg64
S'337'
p714
sg66
g67
sba(isrc.gp1.models.Per100Possession
Per100Possession
p715
(dp716
g8
S'2.9'
p717
sg10
S'1.5'
p718
sg12
S'.449'
p719
sg622
S'97'
p720
sg14
S'3.3'
p721
sg16
S'.274'
p722
sg18
S'0.4'
p723
sg20
S'18.9'
p724
sg22
S'SF'
p725
sg629
S'104'
p726
sg24
S'.661'
p727
sg28
S'NBA'
p728
sg30
S'2.8'
p729
sg32
S'15.4'
p730
sg34
S'4.4'
p731
sg36
S'7.0'
p732
sg38
S'9.4'
p733
sg40
S'22'
p734
sg42
S'CHA'
p735
sg44
S'70'
p736
sg46
S'2.2'
p737
sg48
S'6.5'
p738
sg50
S'4.6'
p739
sg52
S'13.9'
p740
sg54
S'6.5'
p741
sg56
S'2004-05'
p742
sg58
S'6.9'
p743
sg60
S'3.9'
p744
sg62
S'.468'
p745
sg64
S'2147'
p746
sg66
S'68'
p747
sba(isrc.gp1.models.Per100Possession
Per100Possession
p748
(dp749
g8
S'3.3'
p750
sg10
S'1.4'
p751
sg12
S'.538'
p752
sg622
S'112'
p753
sg14
S'2.6'
p754
sg16
S'.280'
p755
sg18
S'0.4'
p756
sg20
S'22.7'
p757
sg22
S'SF'
p758
sg629
S'100'
p759
sg24
S'.614'
p760
sg28
S'NBA'
p761
sg30
S'3.7'
p762
sg32
S'16.0'
p763
sg34
S'4.1'
p764
sg36
S'8.3'
p765
sg38
S'11.2'
p766
sg40
S'23'
p767
sg42
S'CHA'
p768
sg44
S'55'
p769
sg46
S'3.1'
p770
sg48
S'8.2'
p771
sg50
S'5.1'
p772
sg52
S'14.6'
p773
sg54
S'7.8'
p774
sg56
S'2005-06'
p775
sg58
S'8.6'
p776
sg60
S'2.7'
p777
sg62
S'.562'
p778
sg64
S'1895'
p779
sg66
S'52'
p780
sba(isrc.gp1.models.Per100Possession
Per100Possession
p781
(dp782
g8
S'2.8'
p783
sg10
S'2.4'
p784
sg12
S'.502'
p785
sg622
S'110'
p786
sg14
S'3.7'
p787
sg16
S'.325'
p788
sg18
S'0.8'
p789
sg20
S'25.8'
p790
sg22
S'SF'
p791
sg629
S'104'
p792
sg24
S'.691'
p793
sg28
S'NBA'
p794
sg30
S'2.8'
p795
sg32
S'18.8'
p796
sg34
S'4.1'
p797
sg36
S'8.8'
p798
sg38
S'10.2'
p799
sg40
S'24'
p800
sg42
S'CHA'
p801
sg44
S'72'
p802
sg46
S'1.4'
p803
sg48
S'8.7'
p804
sg50
S'6.1'
p805
sg52
S'16.4'
p806
sg54
S'7.4'
p807
sg56
S'2006-07'
p808
sg58
S'9.4'
p809
sg60
S'3.2'
p810
sg62
S'.528'
p811
sg64
S'2640'
p812
sg66
S'71'
p813
sba(isrc.gp1.models.Per100Possession
Per100Possession
p814
(dp815
g8
S'1.3'
p816
sg10
S'4.9'
p817
sg12
S'.449'
p818
sg622
S'104'
p819
sg14
S'4.8'
p820
sg16
S'.321'
p821
sg18
S'1.6'
p822
sg20
S'26.4'
p823
sg22
S'PF'
p824
sg629
S'106'
p825
sg24
S'.731'
p826
sg28
S'NBA'
p827
sg30
S'2.9'
p828
sg32
S'20.0'
p829
sg34
S'4.2'
p830
sg36
S'9.4'
p831
sg38
S'8.2'
p832
sg40
S'25'
p833
sg42
S'CHA'
p834
sg44
S'62'
p835
sg46
S'1.3'
p836
sg48
S'7.4'
p837
sg50
S'6.9'
p838
sg52
S'15.1'
p839
sg54
S'6.9'
p840
sg56
S'2007-08'
p841
sg58
S'9.0'
p842
sg60
S'4.0'
p843
sg62
S'.491'
p844
sg64
S'2376'
p845
sg66
S'59'
p846
sba(isrc.gp1.models.Per100Possession
Per100Possession
p847
(dp848
g8
S'2.3'
p849
sg10
S'2.7'
p850
sg12
S'.480'
p851
sg622
S'115'
p852
sg14
S'3.8'
p853
sg16
S'.298'
p854
sg18
S'0.8'
p855
sg20
S'24.1'
p856
sg22
S'SF'
p857
sg629
S'102'
p858
sg24
S'.804'
p859
sg28
S'NBA'
p860
sg30
S'2.5'
p861
sg32
S'16.5'
p862
sg34
S'4.3'
p863
sg36
S'9.2'
p864
sg38
S'11.3'
p865
sg40
S'26'
p866
sg42
S'CHA'
p867
sg44
S'71'
p868
sg46
S'1.4'
p869
sg48
S'7.1'
p870
sg50
S'7.4'
p871
sg52
S'13.8'
p872
sg54
S'9.0'
p873
sg56
S'2008-09'
p874
sg58
S'7.9'
p875
sg60
S'3.0'
p876
sg62
S'.515'
p877
sg64
S'2669'
p878
sg66
S'71'
p879
sba(isrc.gp1.models.Per100Possession
Per100Possession
p880
(dp881
g8
S'2.6'
p882
sg10
S'2.4'
p883
sg12
S'.484'
p884
sg622
S'113'
p885
sg14
S'2.7'
p886
sg16
S'.371'
p887
sg18
S'0.9'
p888
sg20
S'23.6'
p889
sg22
S'SF'
p890
sg629
S'100'
p891
sg24
S'.776'
p892
sg28
S'NBA'
p893
sg30
S'2.0'
p894
sg32
S'16.1'
p895
sg34
S'3.3'
p896
sg36
S'9.3'
p897
sg38
S'13.0'
p898
sg40
S'27'
p899
sg42
S'CHA'
p900
sg44
S'76'
p901
sg46
S'1.4'
p902
sg48
S'6.9'
p903
sg50
S'7.2'
p904
sg52
S'13.7'
p905
sg54
S'10.4'
p906
sg56
S'2009-10'
p907
sg58
S'7.8'
p908
sg60
S'3.0'
p909
sg62
S'.503'
p910
sg64
S'3119'
p911
sg66
S'76'
p912
sba(isrc.gp1.models.Per100Possession
Per100Possession
p913
(dp914
g8
S'2.2'
p915
sg10
S'3.7'
p916
sg12
S'.454'
p917
sg622
S'107'
p918
sg14
S'3.5'
p919
sg16
S'.333'
p920
sg18
S'1.2'
p921
sg20
S'22.3'
p922
sg22
S'SF-PF'
p923
sg629
S'105'
p924
sg24
S'.746'
p925
sg28
S'NBA'
p926
sg30
S'2.1'
p927
sg32
S'17.0'
p928
sg34
S'3.7'
p929
sg36
S'7.5'
p930
sg38
S'11.4'
p931
sg40
S'28'
p932
sg42
S'TOT'
p933
sg44
S'71'
p934
sg46
S'1.3'
p935
sg48
S'6.5'
p936
sg50
S'5.6'
p937
sg52
S'13.3'
p938
sg54
S'9.2'
p939
sg56
S'2010-11'
p940
sg58
S'7.7'
p941
sg60
S'3.0'
p942
sg62
S'.487'
p943
sg64
S'2693'
p944
sg66
S'63'
p945
sba(isrc.gp1.models.Per100Possession
Per100Possession
p946
(dp947
g8
S'2.1'
p948
sg10
S'3.0'
p949
sg12
S'.433'
p950
sg622
S'105'
p951
sg14
S'3.3'
p952
sg16
S'.330'
p953
sg18
S'1.0'
p954
sg20
S'21.4'
p955
sg22
S'SF'
p956
sg629
S'106'
p957
sg24
S'.739'
p958
sg28
S'NBA'
p959
sg30
S'1.7'
p960
sg32
S'16.6'
p961
sg34
S'3.4'
p962
sg36
S'8.1'
p963
sg38
S'11.3'
p964
sg40
S'28'
p965
sg42
S'CHA'
p966
sg44
S'48'
p967
sg46
S'1.4'
p968
sg48
S'6.2'
p969
sg50
S'6.0'
p970
sg52
S'13.6'
p971
sg54
S'9.2'
p972
sg56
S'2010-11'
p973
sg58
S'7.2'
p974
sg60
S'2.9'
p975
sg62
S'.456'
p976
sg64
S'1872'
p977
sg66
S'48'
p978
sba(isrc.gp1.models.Per100Possession
Per100Possession
p979
(dp980
g8
S'2.6'
p981
sg10
S'5.3'
p982
sg12
S'.498'
p983
sg622
S'112'
p984
sg14
S'3.8'
p985
sg16
S'.338'
p986
sg18
S'1.8'
p987
sg20
S'24.2'
p988
sg22
S'PF'
p989
sg629
S'103'
p990
sg24
S'.767'
p991
sg28
S'NBA'
p992
sg30
S'3.1'
p993
sg32
S'17.9'
p994
sg34
S'4.2'
p995
sg36
S'6.0'
p996
sg38
S'11.6'
p997
sg40
S'28'
p998
sg42
S'POR'
p999
sg44
S'23'
p1000
sg46
S'1.0'
p1001
sg48
S'7.1'
p1002
sg50
S'4.6'
p1003
sg52
S'12.6'
p1004
sg54
S'9.0'
p1005
sg56
S'2010-11'
p1006
sg58
S'8.9'
p1007
sg60
S'3.5'
p1008
sg62
S'.566'
p1009
sg64
S'821'
p1010
sg66
S'15'
p1011
sba(isrc.gp1.models.Per100Possession
Per100Possession
p1012
(dp1013
g8
S'2.2'
p1014
sg10
S'3.8'
p1015
sg12
S'.454'
p1016
sg622
S'109'
p1017
sg14
S'4.2'
p1018
sg16
S'.307'
p1019
sg18
S'1.2'
p1020
sg20
S'20.3'
p1021
sg22
S'SF'
p1022
sg629
S'106'
p1023
sg24
S'.800'
p1024
sg28
S'NBA'
p1025
sg30
S'2.2'
p1026
sg32
S'16.1'
p1027
sg34
S'3.7'
p1028
sg36
S'5.7'
p1029
sg38
S'9.8'
p1030
sg40
S'29'
p1031
sg42
S'TOT'
p1032
sg44
S'58'
p1033
sg46
S'0.9'
p1034
sg48
S'6.1'
p1035
sg50
S'4.6'
p1036
sg52
S'12.3'
p1037
sg54
S'7.6'
p1038
sg56
S'2011-12'
p1039
sg58
S'7.3'
p1040
sg60
S'2.8'
p1041
sg62
S'.500'
p1042
sg64
S'2076'
p1043
sg66
S'58'
p1044
sba(isrc.gp1.models.Per100Possession
Per100Possession
p1045
(dp1046
g8
S'2.2'
p1047
sg10
S'3.4'
p1048
sg12
S'.472'
p1049
sg622
S'108'
p1050
sg14
S'4.0'
p1051
sg16
S'.265'
p1052
sg18
S'0.9'
p1053
sg20
S'19.5'
p1054
sg22
S'SF'
p1055
sg629
S'105'
p1056
sg24
S'.776'
p1057
sg28
S'NBA'
p1058
sg30
S'2.2'
p1059
sg32
S'15.1'
p1060
sg34
S'3.7'
p1061
sg36
S'5.6'
p1062
sg38
S'9.7'
p1063
sg40
S'29'
p1064
sg42
S'POR'
p1065
sg44
S'42'
p1066
sg46
S'0.9'
p1067
sg48
S'6.2'
p1068
sg50
S'4.4'
p1069
sg52
S'11.6'
p1070
sg54
S'7.5'
p1071
sg56
S'2011-12'
p1072
sg58
S'7.1'
p1073
sg60
S'2.9'
p1074
sg62
S'.533'
p1075
sg64
S'1503'
p1076
sg66
S'42'
p1077
sba(isrc.gp1.models.Per100Possession
Per100Possession
p1078
(dp1079
g8
S'2.2'
p1080
sg10
S'4.8'
p1081
sg12
S'.416'
p1082
sg622
S'110'
p1083
sg14
S'4.6'
p1084
sg16
S'.385'
p1085
sg18
S'1.9'
p1086
sg20
S'22.6'
p1087
sg22
S'SF'
p1088
sg629
S'107'
p1089
sg24
S'.859'
p1090
sg28
S'NBA'
p1091
sg30
S'2.1'
p1092
sg32
S'18.8'
p1093
sg34
S'3.5'
p1094
sg36
S'5.9'
p1095
sg38
S'10.1'
p1096
sg40
S'29'
p1097
sg42
S'NJN'
p1098
sg44
S'16'
p1099
sg46
S'1.0'
p1100
sg48
S'5.9'
p1101
sg50
S'5.1'
p1102
sg52
S'13.9'
p1103
sg54
S'7.9'
p1104
sg56
S'2011-12'
p1105
sg58
S'7.8'
p1106
sg60
S'2.5'
p1107
sg62
S'.427'
p1108
sg64
S'573'
p1109
sg66
S'16'
p1110
sba(isrc.gp1.models.Per100Possession
Per100Possession
p1111
(dp1112
g8
S'1.8'
p1113
sg10
S'4.2'
p1114
sg12
S'.397'
p1115
sg622
S'101'
p1116
sg14
S'4.7'
p1117
sg16
S'.282'
p1118
sg18
S'1.2'
p1119
sg20
S'13.8'
p1120
sg22
S'SF'
p1121
sg629
S'104'
p1122
sg24
S'.637'
p1123
sg28
S'NBA'
p1124
sg30
S'2.5'
p1125
sg32
S'11.9'
p1126
sg34
S'3.1'
p1127
sg36
S'4.9'
p1128
sg38
S'8.3'
p1129
sg40
S'30'
p1130
sg42
S'BRK'
p1131
sg44
S'69'
p1132
sg46
S'1.2'
p1133
sg48
S'3.5'
p1134
sg50
S'3.2'
p1135
sg52
S'7.7'
p1136
sg54
S'6.5'
p1137
sg56
S'2012-13'
p1138
sg58
S'4.7'
p1139
sg60
S'2.9'
p1140
sg62
S'.461'
p1141
sg64
S'2076'
p1142
sg66
S'68'
p1143
sba(isrc.gp1.models.Per100Possession
Per100Possession
p1144
(dp1145
g8
S'1.3'
p1146
sg10
S'2.3'
p1147
sg12
S'.504'
p1148
sg622
S'95'
p1149
sg14
S'5.2'
p1150
sg16
S'.297'
p1151
sg18
S'0.7'
p1152
sg20
S'10.8'
p1153
sg22
S'SF'
p1154
sg629
S'106'
p1155
sg24
S'.465'
p1156
sg28
S'NBA'
p1157
sg30
S'2.7'
p1158
sg32
S'8.4'
p1159
sg34
S'2.9'
p1160
sg36
S'3.7'
p1161
sg38
S'7.7'
p1162
sg40
S'31'
p1163
sg42
S'BOS'
p1164
sg44
S'58'
p1165
sg46
S'0.5'
p1166
sg48
S'3.5'
p1167
sg50
S'1.7'
p1168
sg52
S'6.0'
p1169
sg54
S'6.4'
p1170
sg56
S'2013-14'
p1171
sg58
S'4.2'
p1172
sg60
S'3.5'
p1173
sg62
S'.584'
p1174
sg64
S'1416'
p1175
sg66
S'16'
p1176
sba(isrc.gp1.models.Per100Possession
Per100Possession
p1177
(dp1178
g8
S'3.0'
p1179
sg10
S'0.5'
p1180
sg12
S'.412'
p1181
sg622
S'79'
p1182
sg14
S'1.9'
p1183
sg16
S'.333'
p1184
sg18
S'0.2'
p1185
sg20
S'6.1'
p1186
sg22
S'SF'
p1187
sg629
S'103'
p1188
sg24
S'.400'
p1189
sg28
S'NBA'
p1190
sg30
S'2.6'
p1191
sg32
S'6.0'
p1192
sg34
S'3.3'
p1193
sg36
S'2.6'
p1194
sg38
S'10.0'
p1195
sg40
S'32'
p1196
sg42
S'BOS'
p1197
sg44
S'32'
p1198
sg46
S'0.7'
p1199
sg48
S'2.3'
p1200
sg50
S'1.1'
p1201
sg52
S'5.4'
p1202
sg54
S'7.0'
p1203
sg56
S'2014-15'
p1204
sg58
S'2.5'
p1205
sg60
S'3.2'
p1206
sg62
S'.419'
p1207
sg64
S'286'
p1208
sg66
g19
sbasS'_advanced'
p1209
(lp1210
(isrc.gp1.models.Advanced
Advanced
p1211
(dp1212
S'_offensiveReboundPercentage'
p1213
S'12.4'
p1214
sS'_turnOverPercentage'
p1215
S'10.1'
p1216
sS'_winSharesPer48Minutes'
p1217
S'.071'
p1218
sS'_stealPercentage'
p1219
S'2.2'
p1220
sS'_usagePercentage'
p1221
S'22.0'
p1222
sS'_totalReboundsPercentage'
p1223
S'11.1'
p1224
sS'_defensiveBoxPlusMinus'
p1225
S'-0.6'
p1226
sg22
S'SF'
p1227
sS'_valueOverReplacementPlayer'
p1228
S'-0.1'
p1229
sS'_trueShootingPercentage'
p1230
S'.443'
p1231
sS'_defensiveReboundPercentage'
p1232
S'9.8'
p1233
sS'_freeThrowsAttempRate'
p1234
S'.263'
p1235
sS'_threePointsAttempRate'
p1236
S'.040'
p1237
sg28
S'NBA'
p1238
sS'_offensiveBoxPlusMinues'
p1239
S'-2.0'
p1240
sS'_assistPercentage'
p1241
S'9.6'
p1242
sS'_defensiveWinShares'
p1243
S'0.6'
p1244
sg40
S'19'
p1245
sg42
S'SAC'
p1246
sg44
S'54'
p1247
sS'_blockPercentage'
p1248
S'0.9'
p1249
sS'_playerEfficiencyRating'
p1250
S'13.3'
p1251
sS'_offensiveWinShares'
p1252
S'0.1'
p1253
sg64
S'430'
p1254
sS'_boxPlusMinus'
p1255
S'-2.6'
p1256
sg56
S'2001-02'
p1257
sS'_winShares'
p1258
S'0.6'
p1259
sba(isrc.gp1.models.Advanced
Advanced
p1260
(dp1261
g1213
S'7.5'
p1262
sg1215
S'17.0'
p1263
sg1217
S'.074'
p1264
sg1219
S'2.1'
p1265
sg1221
S'20.1'
p1266
sg1223
S'12.0'
p1267
sg1225
S'0.6'
p1268
sg22
S'SF'
p1269
sg1228
S'-0.2'
p1270
sg1230
S'.510'
p1271
sg1232
S'16.0'
p1272
sg1234
S'.404'
p1273
sg1236
S'.022'
p1274
sg28
S'NBA'
p1275
sg1239
S'-3.9'
p1276
sg1241
S'6.1'
p1277
sg1243
S'1.0'
p1278
sg40
S'20'
p1279
sg42
S'SAC'
p1280
sg44
S'47'
p1281
sg1248
S'1.7'
p1282
sg1250
S'12.5'
p1283
sg1252
S'-0.1'
p1284
sg64
S'571'
p1285
sg1255
S'-3.3'
p1286
sg56
S'2002-03'
p1287
sg1258
S'0.9'
p1288
sba(isrc.gp1.models.Advanced
Advanced
p1289
(dp1290
g1213
S'12.1'
p1291
sg1215
S'7.4'
p1292
sg1217
S'.052'
p1293
sg1219
S'2.1'
p1294
sg1221
S'14.4'
p1295
sg1223
S'12.4'
p1296
sg1225
S'0.8'
p1297
sg22
S'SF'
p1298
sg1228
S'0.0'
p1299
sg1230
S'.377'
p1300
sg1232
S'12.8'
p1301
sg1234
S'.270'
p1302
sg1236
S'.022'
p1303
sg28
S'NBA'
p1304
sg1239
S'-3.0'
p1305
sg1241
S'8.2'
p1306
sg1243
S'0.3'
p1307
sg40
S'21'
p1308
sg42
S'SAC'
p1309
sg44
S'37'
p1310
sg1248
S'2.9'
p1311
sg1250
S'10.6'
p1312
sg1252
S'0.0'
p1313
sg64
S'337'
p1314
sg1255
S'-2.2'
p1315
sg56
S'2003-04'
p1316
sg1258
S'0.4'
p1317
sba(isrc.gp1.models.Advanced
Advanced
p1318
(dp1319
g1213
S'6.0'
p1320
sg1215
S'17.2'
p1321
sg1217
S'.055'
p1322
sg1219
S'2.8'
p1323
sg1221
S'19.1'
p1324
sg1223
S'10.3'
p1325
sg1225
S'2.9'
p1326
sg22
S'SF'
p1327
sg1228
S'1.8'
p1328
sg1230
S'.510'
p1329
sg1232
S'15.1'
p1330
sg1234
S'.454'
p1331
sg1236
S'.097'
p1332
sg28
S'NBA'
p1333
sg1239
S'-1.6'
p1334
sg1241
S'10.4'
p1335
sg1243
S'2.7'
p1336
sg40
S'22'
p1337
sg42
S'CHA'
p1338
sg44
S'70'
p1339
sg1248
S'3.2'
p1340
sg1250
S'14.1'
p1341
sg1252
S'-0.2'
p1342
sg64
S'2147'
p1343
sg1255
S'1.3'
p1344
sg56
S'2004-05'
p1345
sg1258
S'2.4'
p1346
sba(isrc.gp1.models.Advanced
Advanced
p1347
(dp1348
g1213
S'7.1'
p1349
sg1215
S'12.0'
p1350
sg1217
S'.163'
p1351
sg1219
S'3.7'
p1352
sg1221
S'19.3'
p1353
sg1223
S'12.6'
p1354
sg1225
S'4.7'
p1355
sg22
S'SF'
p1356
sg1228
S'3.7'
p1357
sg1230
S'.578'
p1358
sg1232
S'18.9'
p1359
sg1234
S'.520'
p1360
sg1236
S'.085'
p1361
sg28
S'NBA'
p1362
sg1239
S'1.1'
p1363
sg1241
S'8.8'
p1364
sg1243
S'3.4'
p1365
sg40
S'23'
p1366
sg42
S'CHA'
p1367
sg44
S'55'
p1368
sg1248
S'4.7'
p1369
sg1250
S'21.3'
p1370
sg1252
S'3.0'
p1371
sg64
S'1895'
p1372
sg1255
S'5.8'
p1373
sg56
S'2005-06'
p1374
sg1258
S'6.4'
p1375
sba(isrc.gp1.models.Advanced
Advanced
p1376
(dp1377
g1213
S'6.2'
p1378
sg1215
S'12.2'
p1379
sg1217
S'.141'
p1380
sg1219
S'2.8'
p1381
sg1221
S'22.5'
p1382
sg1223
S'11.6'
p1383
sg1225
S'2.0'
p1384
sg22
S'SF'
p1385
sg1228
S'3.9'
p1386
sg1230
S'.568'
p1387
sg1232
S'17.4'
p1388
sg1234
S'.470'
p1389
sg1236
S'.126'
p1390
sg28
S'NBA'
p1391
sg1239
S'1.8'
p1392
sg1241
S'12.5'
p1393
sg1243
S'3.5'
p1394
sg40
S'24'
p1395
sg42
S'CHA'
p1396
sg44
S'72'
p1397
sg1248
S'2.0'
p1398
sg1250
S'19.8'
p1399
sg1252
S'4.2'
p1400
sg64
S'2640'
p1401
sg1255
S'3.9'
p1402
sg56
S'2006-07'
p1403
sg1258
S'7.7'
p1404
sba(isrc.gp1.models.Advanced
Advanced
p1405
(dp1406
g1213
S'2.8'
p1407
sg1215
S'14.1'
p1408
sg1217
S'.094'
p1409
sg1219
S'2.9'
p1410
sg1221
S'24.6'
p1411
sg1223
S'9.0'
p1412
sg1225
S'1.4'
p1413
sg22
S'PF'
p1414
sg1228
S'2.6'
p1415
sg1230
S'.547'
p1416
sg1232
S'15.3'
p1417
sg1234
S'.471'
p1418
sg1236
S'.243'
p1419
sg28
S'NBA'
p1420
sg1239
S'0.9'
p1421
sg1241
S'15.9'
p1422
sg1243
S'2.8'
p1423
sg40
S'25'
p1424
sg42
S'CHA'
p1425
sg44
S'62'
p1426
sg1248
S'1.9'
p1427
sg1250
S'17.5'
p1428
sg1252
S'1.8'
p1429
sg64
S'2376'
p1430
sg1255
S'2.3'
p1431
sg56
S'2007-08'
p1432
sg1258
S'4.6'
p1433
sba(isrc.gp1.models.Advanced
Advanced
p1434
(dp1435
g1213
S'5.2'
p1436
sg1215
S'12.8'
p1437
sg1217
S'.172'
p1438
sg1219
S'2.5'
p1439
sg1221
S'20.5'
p1440
sg1223
S'12.8'
p1441
sg1225
S'2.9'
p1442
sg22
S'SF'
p1443
sg1228
S'4.1'
p1444
sg1230
S'.585'
p1445
sg1232
S'20.3'
p1446
sg1234
S'.560'
p1447
sg1236
S'.162'
p1448
sg28
S'NBA'
p1449
sg1239
S'1.2'
p1450
sg1241
S'12.4'
p1451
sg1243
S'4.6'
p1452
sg40
S'26'
p1453
sg42
S'CHA'
p1454
sg44
S'71'
p1455
sg1248
S'2.1'
p1456
sg1250
S'18.6'
p1457
sg1252
S'4.9'
p1458
sg64
S'2669'
p1459
sg1255
S'4.1'
p1460
sg56
S'2008-09'
p1461
sg1258
S'9.5'
p1462
sba(isrc.gp1.models.Advanced
Advanced
p1463
(dp1464
g1213
S'5.9'
p1465
sg1215
S'13.1'
p1466
sg1217
S'.177'
p1467
sg1219
S'2.0'
p1468
sg1221
S'20.3'
p1469
sg1223
S'14.7'
p1470
sg1225
S'2.9'
p1471
sg22
S'SF'
p1472
sg1228
S'4.3'
p1473
sg1230
S'.586'
p1474
sg1232
S'23.2'
p1475
sg1234
S'.577'
p1476
sg1236
S'.148'
p1477
sg28
S'NBA'
p1478
sg1239
S'0.6'
p1479
sg1241
S'9.0'
p1480
sg1243
S'6.2'
p1481
sg40
S'27'
p1482
sg42
S'CHA'
p1483
sg44
S'76'
p1484
sg1248
S'2.2'
p1485
sg1250
S'18.3'
p1486
sg1252
S'5.3'
p1487
sg64
S'3119'
p1488
sg1255
S'3.5'
p1489
sg56
S'2009-10'
p1490
sg1258
S'11.5'
p1491
sba(isrc.gp1.models.Advanced
Advanced
p1492
(dp1493
g1213
S'4.9'
p1494
sg1215
S'13.0'
p1495
sg1217
S'.111'
p1496
sg1219
S'2.1'
p1497
sg1221
S'20.3'
p1498
sg1223
S'12.8'
p1499
sg1225
S'1.7'
p1500
sg22
S'SF-PF'
p1501
sg1228
S'2.5'
p1502
sg1230
S'.548'
p1503
sg1232
S'21.0'
p1504
sg1234
S'.439'
p1505
sg1236
S'.219'
p1506
sg28
S'NBA'
p1507
sg1239
S'0.0'
p1508
sg1241
S'10.9'
p1509
sg1243
S'3.6'
p1510
sg40
S'28'
p1511
sg42
S'TOT'
p1512
sg44
S'71'
p1513
sg1248
S'1.9'
p1514
sg1250
S'16.2'
p1515
sg1252
S'2.6'
p1516
sg64
S'2693'
p1517
sg1255
S'1.7'
p1518
sg56
S'2010-11'
p1519
sg1258
S'6.2'
p1520
sba(isrc.gp1.models.Advanced
Advanced
p1521
(dp1522
g1213
S'4.6'
p1523
sg1215
S'12.4'
p1524
sg1217
S'.092'
p1525
sg1219
S'1.7'
p1526
sg1221
S'20.2'
p1527
sg1223
S'12.7'
p1528
sg1225
S'1.5'
p1529
sg22
S'SF'
p1530
sg1228
S'1.3'
p1531
sg1230
S'.530'
p1532
sg1232
S'21.0'
p1533
sg1234
S'.488'
p1534
sg1236
S'.182'
p1535
sg28
S'NBA'
p1536
sg1239
S'-0.8'
p1537
sg1241
S'10.5'
p1538
sg1243
S'2.3'
p1539
sg40
S'28'
p1540
sg42
S'CHA'
p1541
sg44
S'48'
p1542
sg1248
S'2.1'
p1543
sg1250
S'15.0'
p1544
sg1252
S'1.3'
p1545
sg64
S'1872'
p1546
sg1255
S'0.8'
p1547
sg56
S'2010-11'
p1548
sg1258
S'3.6'
p1549
sba(isrc.gp1.models.Advanced
Advanced
p1550
(dp1551
g1213
S'5.6'
p1552
sg1215
S'14.4'
p1553
sg1217
S'.153'
p1554
sg1219
S'3.1'
p1555
sg1221
S'20.5'
p1556
sg1223
S'13.0'
p1557
sg1225
S'2.2'
p1558
sg22
S'PF'
p1559
sg1228
S'1.2'
p1560
sg1230
S'.590'
p1561
sg1232
S'21.2'
p1562
sg1234
S'.335'
p1563
sg1236
S'.297'
p1564
sg28
S'NBA'
p1565
sg1239
S'1.8'
p1566
sg1241
S'11.9'
p1567
sg1243
S'1.3'
p1568
sg40
S'28'
p1569
sg42
S'POR'
p1570
sg44
S'23'
p1571
sg1248
S'1.5'
p1572
sg1250
S'18.9'
p1573
sg1252
S'1.3'
p1574
sg64
S'821'
p1575
sg1255
S'4.0'
p1576
sg56
S'2010-11'
p1577
sg1258
S'2.6'
p1578
sba(isrc.gp1.models.Advanced
Advanced
p1579
(dp1580
g1213
S'4.8'
p1581
sg1215
S'13.2'
p1582
sg1217
S'.112'
p1583
sg1219
S'2.2'
p1584
sg1221
S'18.6'
p1585
sg1223
S'10.8'
p1586
sg1225
S'1.1'
p1587
sg22
S'SF'
p1588
sg1228
S'2.1'
p1589
sg1230
S'.547'
p1590
sg1232
S'17.2'
p1591
sg1234
S'.356'
p1592
sg1236
S'.237'
p1593
sg28
S'NBA'
p1594
sg1239
S'0.8'
p1595
sg1241
S'13.2'
p1596
sg1243
S'1.8'
p1597
sg40
S'29'
p1598
sg42
S'TOT'
p1599
sg44
S'58'
p1600
sg1248
S'1.3'
p1601
sg1250
S'15.9'
p1602
sg1252
S'3.0'
p1603
sg64
S'2076'
p1604
sg1255
S'1.9'
p1605
sg56
S'2011-12'
p1606
sg1258
S'4.8'
p1607
sba(isrc.gp1.models.Advanced
Advanced
p1608
(dp1609
g1213
S'4.8'
p1610
sg1215
S'14.4'
p1611
sg1217
S'.111'
p1612
sg1219
S'2.2'
p1613
sg1221
S'17.8'
p1614
sg1223
S'10.7'
p1615
sg1225
S'1.5'
p1616
sg22
S'SF'
p1617
sg1228
S'1.6'
p1618
sg1230
S'.556'
p1619
sg1232
S'17.0'
p1620
sg1234
S'.374'
p1621
sg1236
S'.228'
p1622
sg28
S'NBA'
p1623
sg1239
S'0.8'
p1624
sg1241
S'12.4'
p1625
sg1243
S'1.4'
p1626
sg40
S'29'
p1627
sg42
S'POR'
p1628
sg44
S'42'
p1629
sg1248
S'1.3'
p1630
sg1250
S'15.5'
p1631
sg1252
S'2.0'
p1632
sg64
S'1503'
p1633
sg1255
S'2.2'
p1634
sg56
S'2011-12'
p1635
sg1258
S'3.5'
p1636
sba(isrc.gp1.models.Advanced
Advanced
p1637
(dp1638
g1213
S'4.7'
p1639
sg1215
S'10.5'
p1640
sg1217
S'.113'
p1641
sg1219
S'2.1'
p1642
sg1221
S'20.5'
p1643
sg1223
S'11.0'
p1644
sg1225
S'0.2'
p1645
sg22
S'SF'
p1646
sg1228
S'0.5'
p1647
sg1230
S'.528'
p1648
sg1232
S'17.7'
p1649
sg1234
S'.317'
p1650
sg1236
S'.257'
p1651
sg28
S'NBA'
p1652
sg1239
S'1.0'
p1653
sg1241
S'15.1'
p1654
sg1243
S'0.4'
p1655
sg40
S'29'
p1656
sg42
S'NJN'
p1657
sg44
S'16'
p1658
sg1248
S'1.5'
p1659
sg1250
S'17.2'
p1660
sg1252
S'1.0'
p1661
sg64
S'573'
p1662
sg1255
S'1.2'
p1663
sg56
S'2011-12'
p1664
sg1258
S'1.4'
p1665
sba(isrc.gp1.models.Advanced
Advanced
p1666
(dp1667
g1213
S'3.9'
p1668
sg1215
S'16.9'
p1669
sg1217
S'.072'
p1670
sg1219
S'2.5'
p1671
sg1221
S'14.5'
p1672
sg1223
S'9.1'
p1673
sg1225
S'2.6'
p1674
sg22
S'SF'
p1675
sg1228
S'2.0'
p1676
sg1230
S'.490'
p1677
sg1232
S'14.3'
p1678
sg1234
S'.415'
p1679
sg1236
S'.356'
p1680
sg28
S'NBA'
p1681
sg1239
S'-0.7'
p1682
sg1241
S'13.3'
p1683
sg1243
S'2.5'
p1684
sg40
S'30'
p1685
sg42
S'BRK'
p1686
sg44
S'69'
p1687
sg1248
S'1.7'
p1688
sg1250
S'11.6'
p1689
sg1252
S'0.6'
p1690
sg64
S'2076'
p1691
sg1255
S'1.9'
p1692
sg56
S'2012-13'
p1693
sg1258
S'3.1'
p1694
sba(isrc.gp1.models.Advanced
Advanced
p1695
(dp1696
g1213
S'2.8'
p1697
sg1215
S'26.1'
p1698
sg1217
S'.043'
p1699
sg1219
S'2.7'
p1700
sg1221
S'11.6'
p1701
sg1223
S'8.5'
p1702
sg1225
S'2.2'
p1703
sg22
S'SF'
p1704
sg1228
S'0.6'
p1705
sg1230
S'.543'
p1706
sg1232
S'14.5'
p1707
sg1234
S'.439'
p1708
sg1236
S'.278'
p1709
sg28
S'NBA'
p1710
sg1239
S'-2.5'
p1711
sg1241
S'14.9'
p1712
sg1243
S'1.6'
p1713
sg40
S'31'
p1714
sg42
S'BOS'
p1715
sg44
S'58'
p1716
sg1248
S'0.8'
p1717
sg1250
S'10.0'
p1718
sg1252
S'-0.3'
p1719
sg64
S'1416'
p1720
sg1255
S'-0.3'
p1721
sg56
S'2013-14'
p1722
sg1258
S'1.3'
p1723
sba(isrc.gp1.models.Advanced
Advanced
p1724
(dp1725
g1213
S'6.4'
p1726
sg1215
S'30.7'
p1727
sg1217
S'.014'
p1728
sg1219
S'2.6'
p1729
sg1221
S'9.0'
p1730
sg1223
S'10.9'
p1731
sg1225
S'2.6'
p1732
sg22
S'SF'
p1733
sg1228
S'-0.1'
p1734
sg1230
S'.431'
p1735
sg1232
S'15.5'
p1736
sg1234
S'.441'
p1737
sg1236
S'.088'
p1738
sg28
S'NBA'
p1739
sg1239
S'-5.8'
p1740
sg1241
S'5.1'
p1741
sg1243
S'0.4'
p1742
sg40
S'32'
p1743
sg42
S'BOS'
p1744
sg44
S'32'
p1745
sg1248
S'1.1'
p1746
sg1250
S'6.2'
p1747
sg1252
S'-0.3'
p1748
sg64
S'286'
p1749
sg1255
S'-3.2'
p1750
sg56
S'2014-15'
p1751
sg1258
S'0.1'
p1752
sbasS'_per36Minutes'
p1753
(lp1754
(isrc.gp1.models.Per36Minutes
Per36Minutes
p1755
(dp1756
g8
S'4.1'
p1757
sg10
S'0.6'
p1758
sg12
S'.429'
p1759
sg14
S'2.3'
p1760
sg16
S'.000'
p1761
sg18
S'0.0'
p1762
sg20
S'14.5'
p1763
sg22
S'SF'
p1764
sg24
S'.500'
p1765
sg28
S'NBA'
p1766
sg30
S'1.6'
p1767
sg32
S'14.7'
p1768
sg34
S'3.9'
p1769
sg36
S'3.9'
p1770
sg38
S'7.5'
p1771
sg40
S'19'
p1772
sg42
S'SAC'
p1773
sg44
S'54'
p1774
sg46
S'0.5'
p1775
sg48
S'6.3'
p1776
sg50
S'1.9'
p1777
sg52
S'14.1'
p1778
sg54
S'3.3'
p1779
sg56
S'2001-02'
p1780
sg58
S'6.3'
p1781
sg60
S'1.8'
p1782
sg62
S'.446'
p1783
sg64
S'430'
p1784
sg66
g67
sba(isrc.gp1.models.Per36Minutes
Per36Minutes
p1785
(dp1786
g8
S'2.4'
p1787
sg10
S'0.3'
p1788
sg12
S'.492'
p1789
sg14
S'1.5'
p1790
sg16
S'.250'
p1791
sg18
S'0.1'
p1792
sg20
S'13.9'
p1793
sg22
S'SF'
p1794
sg24
S'.527'
p1795
sg28
S'NBA'
p1796
sg30
S'1.5'
p1797
sg32
S'11.5'
p1798
sg34
S'4.3'
p1799
sg36
S'4.7'
p1800
sg38
S'8.1'
p1801
sg40
S'20'
p1802
sg42
S'SAC'
p1803
sg44
S'47'
p1804
sg46
S'0.9'
p1805
sg48
S'5.6'
p1806
sg50
S'2.5'
p1807
sg52
S'11.3'
p1808
sg54
S'5.7'
p1809
sg56
S'2002-03'
p1810
sg58
S'5.7'
p1811
sg60
S'2.8'
p1812
sg62
S'.497'
p1813
sg64
S'571'
p1814
sg66
g11
sba(isrc.gp1.models.Per36Minutes
Per36Minutes
p1815
(dp1816
g8
S'3.7'
p1817
sg10
S'0.2'
p1818
sg12
S'.360'
p1819
sg14
S'2.0'
p1820
sg16
S'.000'
p1821
sg18
S'0.0'
p1822
sg20
S'8.0'
p1823
sg22
S'SF'
p1824
sg24
S'.458'
p1825
sg28
S'NBA'
p1826
sg30
S'1.5'
p1827
sg32
S'9.5'
p1828
sg34
S'4.0'
p1829
sg36
S'2.6'
p1830
sg38
S'7.9'
p1831
sg40
S'21'
p1832
sg42
S'SAC'
p1833
sg44
S'37'
p1834
sg46
S'1.5'
p1835
sg48
S'3.4'
p1836
sg50
S'1.2'
p1837
sg52
S'9.3'
p1838
sg54
S'4.2'
p1839
sg56
S'2003-04'
p1840
sg58
S'3.4'
p1841
sg60
S'0.9'
p1842
sg62
S'.368'
p1843
sg64
S'337'
p1844
sg66
g67
sba(isrc.gp1.models.Per36Minutes
Per36Minutes
p1845
(dp1846
g8
S'2.0'
p1847
sg10
S'1.0'
p1848
sg12
S'.449'
p1849
sg14
S'2.3'
p1850
sg16
S'.274'
p1851
sg18
S'0.3'
p1852
sg20
S'13.1'
p1853
sg22
S'SF'
p1854
sg24
S'.661'
p1855
sg28
S'NBA'
p1856
sg30
S'2.0'
p1857
sg32
S'10.7'
p1858
sg34
S'3.1'
p1859
sg36
S'4.8'
p1860
sg38
S'6.5'
p1861
sg40
S'22'
p1862
sg42
S'CHA'
p1863
sg44
S'70'
p1864
sg46
S'1.5'
p1865
sg48
S'4.5'
p1866
sg50
S'3.2'
p1867
sg52
S'9.6'
p1868
sg54
S'4.5'
p1869
sg56
S'2004-05'
p1870
sg58
S'4.8'
p1871
sg60
S'2.7'
p1872
sg62
S'.468'
p1873
sg64
S'2147'
p1874
sg66
S'68'
p1875
sba(isrc.gp1.models.Per36Minutes
Per36Minutes
p1876
(dp1877
g8
S'2.3'
p1878
sg10
S'0.9'
p1879
sg12
S'.538'
p1880
sg14
S'1.8'
p1881
sg16
S'.280'
p1882
sg18
S'0.3'
p1883
sg20
S'15.9'
p1884
sg22
S'SF'
p1885
sg24
S'.614'
p1886
sg28
S'NBA'
p1887
sg30
S'2.6'
p1888
sg32
S'11.2'
p1889
sg34
S'2.8'
p1890
sg36
S'5.8'
p1891
sg38
S'7.8'
p1892
sg40
S'23'
p1893
sg42
S'CHA'
p1894
sg44
S'55'
p1895
sg46
S'2.2'
p1896
sg48
S'5.8'
p1897
sg50
S'3.6'
p1898
sg52
S'10.2'
p1899
sg54
S'5.5'
p1900
sg56
S'2005-06'
p1901
sg58
S'6.0'
p1902
sg60
S'1.9'
p1903
sg62
S'.562'
p1904
sg64
S'1895'
p1905
sg66
S'52'
p1906
sba(isrc.gp1.models.Per36Minutes
Per36Minutes
p1907
(dp1908
g8
S'1.9'
p1909
sg10
S'1.6'
p1910
sg12
S'.502'
p1911
sg14
S'2.5'
p1912
sg16
S'.325'
p1913
sg18
S'0.5'
p1914
sg20
S'17.8'
p1915
sg22
S'SF'
p1916
sg24
S'.691'
p1917
sg28
S'NBA'
p1918
sg30
S'2.0'
p1919
sg32
S'13.0'
p1920
sg34
S'2.8'
p1921
sg36
S'6.1'
p1922
sg38
S'7.1'
p1923
sg40
S'24'
p1924
sg42
S'CHA'
p1925
sg44
S'72'
p1926
sg46
S'0.9'
p1927
sg48
S'6.0'
p1928
sg50
S'4.2'
p1929
sg52
S'11.3'
p1930
sg54
S'5.1'
p1931
sg56
S'2006-07'
p1932
sg58
S'6.5'
p1933
sg60
S'2.2'
p1934
sg62
S'.528'
p1935
sg64
S'2640'
p1936
sg66
S'71'
p1937
sba(isrc.gp1.models.Per36Minutes
Per36Minutes
p1938
(dp1939
g8
S'0.9'
p1940
sg10
S'3.3'
p1941
sg12
S'.449'
p1942
sg14
S'3.3'
p1943
sg16
S'.321'
p1944
sg18
S'1.1'
p1945
sg20
S'18.2'
p1946
sg22
S'PF'
p1947
sg24
S'.731'
p1948
sg28
S'NBA'
p1949
sg30
S'2.0'
p1950
sg32
S'13.8'
p1951
sg34
S'2.9'
p1952
sg36
S'6.5'
p1953
sg38
S'5.7'
p1954
sg40
S'25'
p1955
sg42
S'CHA'
p1956
sg44
S'62'
p1957
sg46
S'0.9'
p1958
sg48
S'5.1'
p1959
sg50
S'4.7'
p1960
sg52
S'10.4'
p1961
sg54
S'4.8'
p1962
sg56
S'2007-08'
p1963
sg58
S'6.2'
p1964
sg60
S'2.7'
p1965
sg62
S'.491'
p1966
sg64
S'2376'
p1967
sg66
S'59'
p1968
sba(isrc.gp1.models.Per36Minutes
Per36Minutes
p1969
(dp1970
g8
S'1.5'
p1971
sg10
S'1.8'
p1972
sg12
S'.480'
p1973
sg14
S'2.5'
p1974
sg16
S'.298'
p1975
sg18
S'0.5'
p1976
sg20
S'15.9'
p1977
sg22
S'SF'
p1978
sg24
S'.804'
p1979
sg28
S'NBA'
p1980
sg30
S'1.6'
p1981
sg32
S'10.9'
p1982
sg34
S'2.8'
p1983
sg36
S'6.1'
p1984
sg38
S'7.5'
p1985
sg40
S'26'
p1986
sg42
S'CHA'
p1987
sg44
S'71'
p1988
sg46
S'0.9'
p1989
sg48
S'4.7'
p1990
sg50
S'4.9'
p1991
sg52
S'9.2'
p1992
sg54
S'5.9'
p1993
sg56
S'2008-09'
p1994
sg58
S'5.2'
p1995
sg60
S'2.0'
p1996
sg62
S'.515'
p1997
sg64
S'2669'
p1998
sg66
S'71'
p1999
sba(isrc.gp1.models.Per36Minutes
Per36Minutes
p2000
(dp2001
g8
S'1.7'
p2002
sg10
S'1.6'
p2003
sg12
S'.484'
p2004
sg14
S'1.9'
p2005
sg16
S'.371'
p2006
sg18
S'0.6'
p2007
sg20
S'16.0'
p2008
sg22
S'SF'
p2009
sg24
S'.776'
p2010
sg28
S'NBA'
p2011
sg30
S'1.4'
p2012
sg32
S'10.9'
p2013
sg34
S'2.2'
p2014
sg36
S'6.3'
p2015
sg38
S'8.8'
p2016
sg40
S'27'
p2017
sg42
S'CHA'
p2018
sg44
S'76'
p2019
sg46
S'1.0'
p2020
sg48
S'4.7'
p2021
sg50
S'4.9'
p2022
sg52
S'9.3'
p2023
sg54
S'7.1'
p2024
sg56
S'2009-10'
p2025
sg58
S'5.3'
p2026
sg60
S'2.1'
p2027
sg62
S'.503'
p2028
sg64
S'3119'
p2029
sg66
S'76'
p2030
sba(isrc.gp1.models.Per36Minutes
Per36Minutes
p2031
(dp2032
g8
S'1.5'
p2033
sg10
S'2.5'
p2034
sg12
S'.454'
p2035
sg14
S'2.3'
p2036
sg16
S'.333'
p2037
sg18
S'0.8'
p2038
sg20
S'14.9'
p2039
sg22
S'SF-PF'
p2040
sg24
S'.746'
p2041
sg28
S'NBA'
p2042
sg30
S'1.4'
p2043
sg32
S'11.4'
p2044
sg34
S'2.4'
p2045
sg36
S'5.0'
p2046
sg38
S'7.6'
p2047
sg40
S'28'
p2048
sg42
S'TOT'
p2049
sg44
S'71'
p2050
sg46
S'0.8'
p2051
sg48
S'4.3'
p2052
sg50
S'3.7'
p2053
sg52
S'8.9'
p2054
sg54
S'6.1'
p2055
sg56
S'2010-11'
p2056
sg58
S'5.2'
p2057
sg60
S'2.0'
p2058
sg62
S'.487'
p2059
sg64
S'2693'
p2060
sg66
S'63'
p2061
sba(isrc.gp1.models.Per36Minutes
Per36Minutes
p2062
(dp2063
g8
S'1.4'
p2064
sg10
S'2.0'
p2065
sg12
S'.433'
p2066
sg14
S'2.2'
p2067
sg16
S'.330'
p2068
sg18
S'0.7'
p2069
sg20
S'14.4'
p2070
sg22
S'SF'
p2071
sg24
S'.739'
p2072
sg28
S'NBA'
p2073
sg30
S'1.1'
p2074
sg32
S'11.2'
p2075
sg34
S'2.3'
p2076
sg36
S'5.5'
p2077
sg38
S'7.6'
p2078
sg40
S'28'
p2079
sg42
S'CHA'
p2080
sg44
S'48'
p2081
sg46
S'0.9'
p2082
sg48
S'4.2'
p2083
sg50
S'4.0'
p2084
sg52
S'9.2'
p2085
sg54
S'6.2'
p2086
sg56
S'2010-11'
p2087
sg58
S'4.8'
p2088
sg60
S'1.9'
p2089
sg62
S'.456'
p2090
sg64
S'1872'
p2091
sg66
S'48'
p2092
sba(isrc.gp1.models.Per36Minutes
Per36Minutes
p2093
(dp2094
g8
S'1.7'
p2095
sg10
S'3.5'
p2096
sg12
S'.498'
p2097
sg14
S'2.5'
p2098
sg16
S'.338'
p2099
sg18
S'1.2'
p2100
sg20
S'16.0'
p2101
sg22
S'PF'
p2102
sg24
S'.767'
p2103
sg28
S'NBA'
p2104
sg30
S'2.0'
p2105
sg32
S'11.8'
p2106
sg34
S'2.8'
p2107
sg36
S'3.9'
p2108
sg38
S'7.7'
p2109
sg40
S'28'
p2110
sg42
S'POR'
p2111
sg44
S'23'
p2112
sg46
S'0.7'
p2113
sg48
S'4.7'
p2114
sg50
S'3.0'
p2115
sg52
S'8.3'
p2116
sg54
S'6.0'
p2117
sg56
S'2010-11'
p2118
sg58
S'5.9'
p2119
sg60
S'2.3'
p2120
sg62
S'.566'
p2121
sg64
S'821'
p2122
sg66
S'15'
p2123
sba(isrc.gp1.models.Per36Minutes
Per36Minutes
p2124
(dp2125
g8
S'1.5'
p2126
sg10
S'2.6'
p2127
sg12
S'.454'
p2128
sg14
S'2.8'
p2129
sg16
S'.307'
p2130
sg18
S'0.8'
p2131
sg20
S'13.9'
p2132
sg22
S'SF'
p2133
sg24
S'.800'
p2134
sg28
S'NBA'
p2135
sg30
S'1.5'
p2136
sg32
S'11.0'
p2137
sg34
S'2.5'
p2138
sg36
S'3.9'
p2139
sg38
S'6.7'
p2140
sg40
S'29'
p2141
sg42
S'TOT'
p2142
sg44
S'58'
p2143
sg46
S'0.6'
p2144
sg48
S'4.2'
p2145
sg50
S'3.1'
p2146
sg52
S'8.4'
p2147
sg54
S'5.2'
p2148
sg56
S'2011-12'
p2149
sg58
S'5.0'
p2150
sg60
S'1.9'
p2151
sg62
S'.500'
p2152
sg64
S'2076'
p2153
sg66
S'58'
p2154
sba(isrc.gp1.models.Per36Minutes
Per36Minutes
p2155
(dp2156
g8
S'1.5'
p2157
sg10
S'2.3'
p2158
sg12
S'.472'
p2159
sg14
S'2.8'
p2160
sg16
S'.265'
p2161
sg18
S'0.6'
p2162
sg20
S'13.3'
p2163
sg22
S'SF'
p2164
sg24
S'.776'
p2165
sg28
S'NBA'
p2166
sg30
S'1.5'
p2167
sg32
S'10.3'
p2168
sg34
S'2.6'
p2169
sg36
S'3.9'
p2170
sg38
S'6.6'
p2171
sg40
S'29'
p2172
sg42
S'POR'
p2173
sg44
S'42'
p2174
sg46
S'0.6'
p2175
sg48
S'4.2'
p2176
sg50
S'3.0'
p2177
sg52
S'8.0'
p2178
sg54
S'5.1'
p2179
sg56
S'2011-12'
p2180
sg58
S'4.9'
p2181
sg60
S'2.0'
p2182
sg62
S'.533'
p2183
sg64
S'1503'
p2184
sg66
S'42'
p2185
sba(isrc.gp1.models.Per36Minutes
Per36Minutes
p2186
(dp2187
g8
S'1.5'
p2188
sg10
S'3.3'
p2189
sg12
S'.416'
p2190
sg14
S'3.1'
p2191
sg16
S'.385'
p2192
sg18
S'1.3'
p2193
sg20
S'15.3'
p2194
sg22
S'SF'
p2195
sg24
S'.859'
p2196
sg28
S'NBA'
p2197
sg30
S'1.4'
p2198
sg32
S'12.7'
p2199
sg34
S'2.4'
p2200
sg36
S'4.0'
p2201
sg38
S'6.8'
p2202
sg40
S'29'
p2203
sg42
S'NJN'
p2204
sg44
S'16'
p2205
sg46
S'0.7'
p2206
sg48
S'4.0'
p2207
sg50
S'3.5'
p2208
sg52
S'9.4'
p2209
sg54
S'5.3'
p2210
sg56
S'2011-12'
p2211
sg58
S'5.3'
p2212
sg60
S'1.7'
p2213
sg62
S'.427'
p2214
sg64
S'573'
p2215
sg66
S'16'
p2216
sba(isrc.gp1.models.Per36Minutes
Per36Minutes
p2217
(dp2218
g8
S'1.2'
p2219
sg10
S'2.8'
p2220
sg12
S'.397'
p2221
sg14
S'3.1'
p2222
sg16
S'.282'
p2223
sg18
S'0.8'
p2224
sg20
S'9.2'
p2225
sg22
S'SF'
p2226
sg24
S'.637'
p2227
sg28
S'NBA'
p2228
sg30
S'1.7'
p2229
sg32
S'7.9'
p2230
sg34
S'2.0'
p2231
sg36
S'3.3'
p2232
sg38
S'5.5'
p2233
sg40
S'30'
p2234
sg42
S'BRK'
p2235
sg44
S'69'
p2236
sg46
S'0.8'
p2237
sg48
S'2.4'
p2238
sg50
S'2.1'
p2239
sg52
S'5.1'
p2240
sg54
S'4.3'
p2241
sg56
S'2012-13'
p2242
sg58
S'3.2'
p2243
sg60
S'1.9'
p2244
sg62
S'.461'
p2245
sg64
S'2076'
p2246
sg66
S'68'
p2247
sba(isrc.gp1.models.Per36Minutes
Per36Minutes
p2248
(dp2249
g8
S'0.9'
p2250
sg10
S'1.6'
p2251
sg12
S'.504'
p2252
sg14
S'3.6'
p2253
sg16
S'.297'
p2254
sg18
S'0.5'
p2255
sg20
S'7.6'
p2256
sg22
S'SF'
p2257
sg24
S'.465'
p2258
sg28
S'NBA'
p2259
sg30
S'1.9'
p2260
sg32
S'5.8'
p2261
sg34
S'2.0'
p2262
sg36
S'2.6'
p2263
sg38
S'5.4'
p2264
sg40
S'31'
p2265
sg42
S'BOS'
p2266
sg44
S'58'
p2267
sg46
S'0.4'
p2268
sg48
S'2.5'
p2269
sg50
S'1.2'
p2270
sg52
S'4.2'
p2271
sg54
S'4.5'
p2272
sg56
S'2013-14'
p2273
sg58
S'2.9'
p2274
sg60
S'2.5'
p2275
sg62
S'.584'
p2276
sg64
S'1416'
p2277
sg66
S'16'
p2278
sba(isrc.gp1.models.Per36Minutes
Per36Minutes
p2279
(dp2280
g8
S'2.1'
p2281
sg10
S'0.4'
p2282
sg12
S'.412'
p2283
sg14
S'1.4'
p2284
sg16
S'.333'
p2285
sg18
S'0.1'
p2286
sg20
S'4.4'
p2287
sg22
S'SF'
p2288
sg24
S'.400'
p2289
sg28
S'NBA'
p2290
sg30
S'1.9'
p2291
sg32
S'4.3'
p2292
sg34
S'2.4'
p2293
sg36
S'1.9'
p2294
sg38
S'7.2'
p2295
sg40
S'32'
p2296
sg42
S'BOS'
p2297
sg44
S'32'
p2298
sg46
S'0.5'
p2299
sg48
S'1.6'
p2300
sg50
S'0.8'
p2301
sg52
S'3.9'
p2302
sg54
S'5.0'
p2303
sg56
S'2014-15'
p2304
sg58
S'1.8'
p2305
sg60
S'2.3'
p2306
sg62
S'.419'
p2307
sg64
S'286'
p2308
sg66
g19
sbasS'_fromYear'
p2309
S'2002'
p2310
sS'_url'
p2311
S'http://www.basketball-reference.com/players/w/wallage01.html'
p2312
sS'_perGame'
p2313
(isrc.gp1.models.PerGame
PerGame
p2314
(dp2315
g8
S'0.5'
p2316
sg10
S'0.1'
p2317
sg12
S'.412'
p2318
sS'_effectiveFieldGalPercentage'
p2319
S'.426'
p2320
sg14
S'0.3'
p2321
sg16
S'.333'
p2322
sg18
S'0.0'
p2323
sg20
S'1.1'
p2324
sg22
S'SF'
p2325
sg24
S'.400'
p2326
sg28
S'NBA'
p2327
sg30
S'0.5'
p2328
sg34
S'0.6'
p2329
sS'_fieldGoalsttempted'
p2330
S'1.1'
p2331
sg36
S'0.5'
p2332
sg38
S'1.8'
p2333
sg40
S'32'
p2334
sg42
S'BOS'
p2335
sg44
S'32'
p2336
sg46
S'0.1'
p2337
sg48
S'0.4'
p2338
sg50
S'0.2'
p2339
sg52
S'1.0'
p2340
sg54
S'1.3'
p2341
sg56
S'2014-15'
p2342
sg58
S'0.4'
p2343
sg60
S'0.6'
p2344
sg62
S'.419'
p2345
sg64
S'8.9'
p2346
sg66
g19
sbsS'_weight'
p2347
S'215'
p2348
sS'_dob'
p2349
S'23-7-1982'
p2350
sS'_salary'
p2351
(lp2352
(isrc.gp1.models.Salary
Salary
p2353
(dp2354
g42
S'Sacramento Kings'
p2355
sg28
S'NBA'
p2356
sg2351
S'$797,880'
p2357
sg56
S'2001-02'
p2358
sba(isrc.gp1.models.Salary
Salary
p2359
(dp2360
g42
S'Sacramento Kings'
p2361
sg28
S'NBA'
p2362
sg2351
S'$857,760'
p2363
sg56
S'2002-03'
p2364
sba(isrc.gp1.models.Salary
Salary
p2365
(dp2366
g42
S'Sacramento Kings'
p2367
sg28
S'NBA'
p2368
sg2351
S'$917,520'
p2369
sg56
S'2003-04'
p2370
sba(isrc.gp1.models.Salary
Salary
p2371
(dp2372
g42
S'Charlotte Bobcats'
p2373
sg28
S'NBA'
p2374
sg2351
S'$1,652,453'
p2375
sg56
S'2004-05'
p2376
sba(isrc.gp1.models.Salary
Salary
p2377
(dp2378
g42
S'Charlotte Bobcats'
p2379
sg28
S'NBA'
p2380
sg2351
S'$5,000,000'
p2381
sg56
S'2005-06'
p2382
sba(isrc.gp1.models.Salary
Salary
p2383
(dp2384
g42
S'Charlotte Bobcats'
p2385
sg28
S'NBA'
p2386
sg2351
S'$5,525,000'
p2387
sg56
S'2006-07'
p2388
sba(isrc.gp1.models.Salary
Salary
p2389
(dp2390
g42
S'Charlotte Bobcats'
p2391
sg28
S'NBA'
p2392
sg2351
S'$9,500,000'
p2393
sg56
S'2007-08'
p2394
sba(isrc.gp1.models.Salary
Salary
p2395
(dp2396
g42
S'Charlotte Bobcats'
p2397
sg28
S'NBA'
p2398
sg2351
S'$9,500,000'
p2399
sg56
S'2008-09'
p2400
sba(isrc.gp1.models.Salary
Salary
p2401
(dp2402
g42
S'Charlotte Bobcats'
p2403
sg28
S'NBA'
p2404
sg2351
S'$9,075,000'
p2405
sg56
S'2009-10'
p2406
sba(isrc.gp1.models.Salary
Salary
p2407
(dp2408
g42
S'Portland Trail Blazers'
p2409
sg28
S'NBA'
p2410
sg2351
S'$10,500,000'
p2411
sg56
S'2010-11'
p2412
sba(isrc.gp1.models.Salary
Salary
p2413
(dp2414
g42
S'Portland Trail Blazers'
p2415
sg28
S'NBA'
p2416
sg2351
S'$9,500,000'
p2417
sg56
S'2011-12'
p2418
sba(isrc.gp1.models.Salary
Salary
p2419
(dp2420
g42
S'Brooklyn Nets'
p2421
sg28
S'NBA'
p2422
sg2351
S'$9,682,435'
p2423
sg56
S'2012-13'
p2424
sba(isrc.gp1.models.Salary
Salary
p2425
(dp2426
g42
S'Boston Celtics'
p2427
sg28
S'NBA'
p2428
sg2351
S'$10,105,855'
p2429
sg56
S'2013-14'
p2430
sba(isrc.gp1.models.Salary
Salary
p2431
(dp2432
g42
S'Boston Celtics'
p2433
sg28
S'NBA'
p2434
sg2351
S'$10,105,855'
p2435
sg56
S'2014-15'
p2436
sbasg22
S'F'
p2437
sb.