(isrc.gp1.models.Player
Player
p0
(dp1
S'_experience'
p2
S'NA'
p3
sS'_totals'
p4
(lp5
(isrc.gp1.models.Totals
Totals
p6
(dp7
S'_offensiveRebounds'
p8
g3
sS'_threePointsAttempted'
p9
S'.348'
p10
sS'_fieldGoalsPercentage'
p11
S'644'
p12
sS'_assist'
p13
g3
sS'_threePointsPercentage'
p14
S'244'
p15
sS'_threePoints'
p16
S'.348'
p17
sS'_points'
p18
g3
sS'_position'
p19
S'PF'
p20
sS'_freeThrowsPercentage'
p21
g3
sS'_effectiveFieldGoalPercentage'
p22
S'201'
p23
sS'_league'
p24
S'BAA'
p25
sS'_steals'
p26
g3
sS'_fieldGoalsAttempted'
p27
S'224'
p28
sS'_personalFouls'
p29
g3
sS'_freeThrowsAttempted'
p30
g3
sS'_totalRebounds'
p31
g3
sS'_age'
p32
S'23'
p33
sS'_team'
p34
S'BLB'
p35
sS'_games'
p36
S'60'
p37
sS'_blocks'
p38
g3
sS'_twoPoints'
p39
S'309'
p40
sS'_freeThrows'
p41
S'692'
p42
sS'_twoPointsAttempted'
p43
S'.790'
p44
sS'_defensiveRebounds'
p45
g3
sS'_season'
p46
S'1948-49'
p47
sS'_fieldGoals'
p48
S'.348'
p49
sS'_turnOvers'
p50
g3
sS'_twoPointsPercentage'
p51
S'99'
p52
sS'_minutesPlayed'
p53
S'644'
p54
sS'_gamesStarted'
p55
S'224'
p56
sba(isrc.gp1.models.Totals
Totals
p57
(dp58
g8
g3
sg9
S'.304'
p59
sg11
S'652'
p60
sg13
g3
sg14
S'199'
p61
sg16
S'.304'
p62
sg18
g3
sg19
S'PF'
p63
sg21
g3
sg22
S'259'
p64
sg24
S'NBA'
p65
sg26
g3
sg27
S'198'
p66
sg29
g3
sg30
g3
sg31
g3
sg32
S'24'
p67
sg34
S'BLB'
p68
sg36
S'66'
p69
sg38
g3
sg39
S'263'
p70
sg41
S'595'
p71
sg43
S'.757'
p72
sg45
g3
sg46
S'1949-50'
p73
sg48
S'.304'
p74
sg50
g3
sg51
S'146'
p75
sg53
S'652'
p76
sg55
S'198'
p77
sba(isrc.gp1.models.Totals
Totals
p78
(dp79
g8
g3
sg9
S'.356'
p80
sg11
S'464'
p81
sg13
g3
sg14
S'166'
p82
sg16
S'.356'
p83
sg18
g3
sg19
S'PF'
p84
sg21
g3
sg22
S'135'
p85
sg24
S'NBA'
p86
sg26
g3
sg27
S'165'
p87
sg29
g3
sg30
S'496'
p88
sg31
g3
sg32
S'25'
p89
sg34
S'BLB'
p90
sg36
S'64'
p91
sg38
g3
sg39
S'223'
p92
sg41
S'203'
p93
sg43
S'.744'
p94
sg45
g3
sg46
S'1950-51'
p95
sg48
S'.356'
p96
sg50
g3
sg51
S'452'
p97
sg53
S'464'
p98
sg55
S'165'
p99
sba(isrc.gp1.models.Totals
Totals
p100
(dp101
g8
g3
sg9
S'.404'
p102
sg11
S'97'
p103
sg13
g3
sg14
S'.404'
p104
sg16
S'240'
p105
sg18
g3
sg19
S'PF'
p106
sg21
S'254'
p107
sg22
S'232'
p108
sg24
S'NBA'
p109
sg26
g3
sg27
S'.404'
p110
sg29
g3
sg30
S'196'
p111
sg31
g3
sg32
S'26'
p112
sg34
S'PHW'
p113
sg36
S'63'
p114
sg38
g3
sg39
S'60'
p115
sg41
S'91'
p116
sg43
S'89'
p117
sg45
g3
sg46
S'1951-52'
p118
sg48
S'240'
p119
sg50
g3
sg51
S'.674'
p120
sg53
S'97'
p121
sg55
S'1126'
p122
sbasS'_college'
p123
S'Columbia University'
p124
sS'_toYear'
p125
S'1952'
p126
sS'_height'
p127
S'6-5'
p128
sS'_active'
p129
I00
sS'_shootingHand'
p130
VRight
p131
sS'_name'
p132
S'Walt Budko'
p133
sS'_per100Possessions'
p134
(lp135
sS'_advanced'
p136
(lp137
(isrc.gp1.models.Advanced
Advanced
p138
(dp139
S'_offensiveReboundPercentage'
p140
g3
sS'_turnOverPercentage'
p141
g3
sS'_winSharesPer48Minutes'
p142
g3
sS'_stealPercentage'
p143
g3
sS'_usagePercentage'
p144
g3
sS'_totalReboundsPercentage'
p145
g3
sS'_defensiveBoxPlusMinus'
p146
g3
sg19
S'PF'
p147
sS'_valueOverReplacementPlayer'
p148
g3
sS'_trueShootingPercentage'
p149
S'4.8'
p150
sS'_defensiveReboundPercentage'
p151
g3
sS'_freeThrowsAttempRate'
p152
S'5.6'
p153
sS'_threePointsAttempRate'
p154
S'0.8'
p155
sg24
S'BAA'
p156
sS'_offensiveBoxPlusMinues'
p157
g3
sS'_assistPercentage'
p158
g3
sS'_defensiveWinShares'
p159
g3
sg32
S'23'
p160
sg34
S'BLB'
p161
sg36
S'60'
p162
sS'_blockPercentage'
p163
g3
sS'_playerEfficiencyRating'
p164
S'.480'
p165
sS'_offensiveWinShares'
p166
g3
sg53
S'.444'
p167
sS'_boxPlusMinus'
p168
g3
sg46
S'1948-49'
p169
sS'_winShares'
p170
g3
sba(isrc.gp1.models.Advanced
Advanced
p171
(dp172
g140
g3
sg141
g3
sg142
g3
sg143
g3
sg144
g3
sg145
g3
sg146
g3
sg19
S'PF'
p173
sg148
g3
sg149
S'0.7'
p174
sg151
g3
sg152
S'2.7'
p175
sg154
S'2.0'
p176
sg24
S'NBA'
p177
sg157
g3
sg158
g3
sg159
g3
sg32
S'24'
p178
sg34
S'BLB'
p179
sg36
S'66'
p180
sg163
g3
sg164
S'.403'
p181
sg166
g3
sg53
S'.388'
p182
sg168
g3
sg46
S'1949-50'
p183
sg170
g3
sba(isrc.gp1.models.Advanced
Advanced
p184
(dp185
g140
g3
sg141
g3
sg142
g3
sg143
g3
sg144
g3
sg145
g3
sg146
g3
sg19
S'PF'
p186
sg148
g3
sg149
S'2.1'
p187
sg151
g3
sg152
S'4.0'
p188
sg154
S'1.9'
p189
sg24
S'NBA'
p190
sg157
g3
sg158
g3
sg159
g3
sg32
S'25'
p191
sg34
S'BLB'
p192
sg36
S'64'
p193
sg163
g3
sg164
S'.481'
p194
sg166
g3
sg53
S'.441'
p195
sg168
g3
sg46
S'1950-51'
p196
sg170
g3
sba(isrc.gp1.models.Advanced
Advanced
p197
(dp198
g140
S'0.4'
p199
sg141
g3
sg142
g3
sg143
g3
sg144
g3
sg145
S'.065'
p200
sg146
g3
sg19
S'PF'
p201
sg148
g3
sg149
S'.455'
p202
sg151
S'1.5'
p203
sg152
S'1.1'
p204
sg154
S'.371'
p205
sg24
S'NBA'
p206
sg157
g3
sg158
g3
sg159
g3
sg32
S'26'
p207
sg34
S'PHW'
p208
sg36
S'63'
p209
sg163
g3
sg164
S'10.2'
p210
sg166
g3
sg53
S'1126'
p211
sg168
g3
sg46
S'1951-52'
p212
sg170
g3
sbasS'_per36Minutes'
p213
(lp214
(isrc.gp1.models.Per36Minutes
Per36Minutes
p215
(dp216
g8
g3
sg9
g3
sg11
g3
sg13
g3
sg14
g3
sg16
g3
sg18
g3
sg19
S'PF'
p217
sg21
g3
sg24
S'BAA'
p218
sg26
g3
sg27
g3
sg29
g3
sg30
g3
sg31
g3
sg32
S'23'
p219
sg34
S'BLB'
p220
sg36
S'60'
p221
sg38
g3
sg39
g3
sg41
g3
sg43
g3
sg45
g3
sg46
S'1948-49'
p222
sg48
S'.790'
p223
sg50
g3
sg51
g3
sg53
S'.348'
p224
sg55
S'.348'
p225
sba(isrc.gp1.models.Per36Minutes
Per36Minutes
p226
(dp227
g8
g3
sg9
g3
sg11
g3
sg13
g3
sg14
g3
sg16
g3
sg18
g3
sg19
S'PF'
p228
sg21
g3
sg24
S'NBA'
p229
sg26
g3
sg27
g3
sg29
g3
sg30
g3
sg31
g3
sg32
S'24'
p230
sg34
S'BLB'
p231
sg36
S'66'
p232
sg38
g3
sg39
g3
sg41
g3
sg43
g3
sg45
g3
sg46
S'1949-50'
p233
sg48
S'.757'
p234
sg50
g3
sg51
g3
sg53
S'.304'
p235
sg55
S'.304'
p236
sba(isrc.gp1.models.Per36Minutes
Per36Minutes
p237
(dp238
g8
g3
sg9
g3
sg11
g3
sg13
g3
sg14
g3
sg16
g3
sg18
g3
sg19
S'PF'
p239
sg21
g3
sg24
S'NBA'
p240
sg26
g3
sg27
g3
sg29
g3
sg30
g3
sg31
g3
sg32
S'25'
p241
sg34
S'BLB'
p242
sg36
S'64'
p243
sg38
g3
sg39
g3
sg41
g3
sg43
g3
sg45
g3
sg46
S'1950-51'
p244
sg48
S'.744'
p245
sg50
g3
sg51
g3
sg53
S'.356'
p246
sg55
S'.356'
p247
sba(isrc.gp1.models.Per36Minutes
Per36Minutes
p248
(dp249
g8
g3
sg9
S'.404'
p250
sg11
S'3.1'
p251
sg13
g3
sg14
S'1.9'
p252
sg16
S'7.7'
p253
sg18
g3
sg19
S'PF'
p254
sg21
S'8.1'
p255
sg24
S'NBA'
p256
sg26
g3
sg27
S'.404'
p257
sg29
g3
sg30
S'6.3'
p258
sg31
g3
sg32
S'26'
p259
sg34
S'PHW'
p260
sg36
S'63'
p261
sg38
g3
sg39
S'2.8'
p262
sg41
S'2.9'
p263
sg43
S'.674'
p264
sg45
g3
sg46
S'1951-52'
p265
sg48
S'7.7'
p266
sg50
g3
sg51
S'7.4'
p267
sg53
S'3.1'
p268
sg55
S'1126'
p269
sbasS'_fromYear'
p270
S'1949'
p271
sS'_url'
p272
S'http://www.basketball-reference.com/players/b/budkowa01.html'
p273
sS'_perGame'
p274
(isrc.gp1.models.PerGame
PerGame
p275
(dp276
g8
g3
sg9
S'.404'
p277
sg11
S'1.5'
p278
sS'_effectiveFieldGalPercentage'
p279
S'3.7'
p280
sg13
g3
sg14
S'.404'
p281
sg16
S'3.8'
p282
sg18
g3
sg19
S'PF'
p283
sg21
S'4.0'
p284
sg24
S'NBA'
p285
sg26
g3
sg29
g3
sS'_fieldGoalsttempted'
p286
S'.404'
p287
sg30
S'3.1'
p288
sg31
g3
sg32
S'26'
p289
sg34
S'PHW'
p290
sg36
S'63'
p291
sg38
g3
sg39
S'1.0'
p292
sg41
S'1.4'
p293
sg43
S'1.4'
p294
sg45
g3
sg46
S'1951-52'
p295
sg48
S'3.8'
p296
sg50
g3
sg51
S'.674'
p297
sg53
S'1.5'
p298
sg55
S'17.9'
p299
sbsS'_weight'
p300
S'220'
p301
sS'_dob'
p302
S'30-7-1925'
p303
sS'_salary'
p304
(lp305
sg19
S'F-C'
p306
sb.