(isrc.gp1.models.Player
Player
p0
(dp1
S'_experience'
p2
S'NA'
p3
sS'_totals'
p4
(lp5
(isrc.gp1.models.Totals
Totals
p6
(dp7
S'_offensiveRebounds'
p8
g3
sS'_threePointsAttempted'
p9
S'.519'
p10
sS'_fieldGoalsPercentage'
p11
S'973'
p12
sS'_assist'
p13
g3
sS'_threePointsPercentage'
p14
S'.519'
p15
sS'_threePoints'
p16
S'1875'
p17
sS'_points'
p18
g3
sS'_position'
p19
S'C'
p20
sS'_freeThrowsPercentage'
p21
S'2495'
p22
sS'_effectiveFieldGoalPercentage'
p23
S'1500'
p24
sS'_league'
p25
S'NBA'
p26
sS'_steals'
p27
g3
sS'_fieldGoalsAttempted'
p28
S'.519'
p29
sS'_personalFouls'
p30
g3
sS'_freeThrowsAttempted'
p31
S'281'
p32
sS'_totalRebounds'
p33
g3
sS'_age'
p34
S'22'
p35
sS'_team'
p36
S'CHP'
p37
sS'_games'
p38
S'79'
p39
sS'_blocks'
p40
g3
sS'_twoPoints'
p41
S'549'
p42
sS'_freeThrows'
p43
S'210'
p44
sS'_twoPointsAttempted'
p45
S'853'
p46
sS'_defensiveRebounds'
p47
g3
sS'_season'
p48
S'1961-62'
p49
sS'_fieldGoals'
p50
S'1875'
p51
sS'_turnOvers'
p52
g3
sS'_twoPointsPercentage'
p53
S'.644'
p54
sS'_minutesPlayed'
p55
S'973'
p56
sS'_gamesStarted'
p57
S'3344'
p58
sba(isrc.gp1.models.Totals
Totals
p59
(dp60
g8
g3
sg9
S'.527'
p61
sg11
S'840'
p62
sg13
g3
sg14
S'.527'
p63
sg16
S'1595'
p64
sg18
g3
sg19
g20
sg21
S'2233'
p65
sg23
S'1309'
p66
sg25
S'NBA'
p67
sg27
g3
sg28
S'.527'
p68
sg30
g3
sg31
S'283'
p69
sg33
g3
sg34
S'23'
p70
sg36
S'CHZ'
p71
sg38
S'80'
p72
sg40
g3
sg41
S'553'
p73
sg43
S'233'
p74
sg45
S'821'
p75
sg47
g3
sg48
S'1962-63'
p76
sg50
S'1595'
p77
sg52
g3
sg53
S'.674'
p78
sg55
S'840'
p79
sg57
S'3306'
p80
sba(isrc.gp1.models.Totals
Totals
p81
(dp82
g8
g3
sg9
S'.513'
p83
sg11
S'811'
p84
sg13
g3
sg14
S'.513'
p85
sg16
S'1582'
p86
sg18
g3
sg19
g20
sg21
S'2159'
p87
sg23
S'1361'
p88
sg25
S'NBA'
p89
sg27
g3
sg28
S'.513'
p90
sg30
g3
sg31
S'300'
p91
sg33
g3
sg34
S'24'
p92
sg36
S'BAL'
p93
sg38
S'80'
p94
sg40
g3
sg41
S'537'
p95
sg43
S'126'
p96
sg45
S'825'
p97
sg47
g3
sg48
S'1963-64'
p98
sg50
S'1582'
p99
sg52
g3
sg53
S'.651'
p100
sg55
S'811'
p101
sg57
S'3394'
p102
sba(isrc.gp1.models.Totals
Totals
p103
(dp104
g8
g3
sg9
S'.509'
p105
sg11
S'733'
p106
sg13
g3
sg14
S'.509'
p107
sg16
S'1441'
p108
sg18
g3
sg19
g20
sg21
S'1981'
p109
sg23
S'1166'
p110
sg25
S'NBA'
p111
sg27
g3
sg28
S'.509'
p112
sg30
g3
sg31
S'260'
p113
sg33
g3
sg34
S'25'
p114
sg36
S'BAL'
p115
sg38
S'80'
p116
sg40
g3
sg41
S'515'
p117
sg43
S'191'
p118
sg45
S'752'
p119
sg47
g3
sg48
S'1964-65'
p120
sg50
S'1441'
p121
sg52
g3
sg53
S'.685'
p122
sg55
S'733'
p123
sg57
S'3301'
p124
sba(isrc.gp1.models.Totals
Totals
p125
(dp126
g8
g3
sg9
S'.506'
p127
sg11
S'695'
p128
sg13
g3
sg14
S'.506'
p129
sg16
S'1373'
p130
sg18
g3
sg19
g20
sg21
S'1820'
p131
sg23
S'1254'
p132
sg25
S'NBA'
p133
sg27
g3
sg28
S'.506'
p134
sg30
g3
sg31
S'294'
p135
sg33
g3
sg34
S'26'
p136
sg36
S'TOT'
p137
sg38
S'80'
p138
sg40
g3
sg41
S'430'
p139
sg43
S'235'
p140
sg45
S'689'
p141
sg47
g3
sg48
S'1965-66'
p142
sg50
S'1373'
p143
sg52
g3
sg53
S'.624'
p144
sg55
S'695'
p145
sg57
S'3352'
p146
sba(isrc.gp1.models.Totals
Totals
p147
(dp148
g8
g3
sg9
S'.452'
p149
sg11
S'56'
p150
sg13
g3
sg14
S'.452'
p151
sg16
S'124'
p152
sg18
g3
sg19
g20
sg21
S'152'
p153
sg23
S'102'
p154
sg25
S'NBA'
p155
sg27
g3
sg28
S'.452'
p156
sg30
g3
sg31
S'32'
p157
sg33
g3
sg34
S'26'
p158
sg36
S'BAL'
p159
sg38
S'8'
p160
sg40
g3
sg41
S'40'
p161
sg43
S'18'
p162
sg45
S'67'
p163
sg47
g3
sg48
S'1965-66'
p164
sg50
S'124'
p165
sg52
g3
sg53
S'.597'
p166
sg55
S'56'
p167
sg57
S'268'
p168
sba(isrc.gp1.models.Totals
Totals
p169
(dp170
g8
g3
sg9
S'.512'
p171
sg11
S'639'
p172
sg13
g3
sg14
S'.512'
p173
sg16
S'1249'
p174
sg18
g3
sg19
g20
sg21
S'1668'
p175
sg23
S'1152'
p176
sg25
S'NBA'
p177
sg27
g3
sg28
S'.512'
p178
sg30
g3
sg31
S'262'
p179
sg33
g3
sg34
S'26'
p180
sg36
S'NYK'
p181
sg38
S'72'
p182
sg40
g3
sg41
S'390'
p183
sg43
S'217'
p184
sg45
S'622'
p185
sg47
g3
sg48
S'1965-66'
p186
sg50
S'1249'
p187
sg52
g3
sg53
S'.627'
p188
sg55
S'639'
p189
sg57
S'3084'
p190
sba(isrc.gp1.models.Totals
Totals
p191
(dp192
g8
g3
sg9
S'.521'
p193
sg11
S'565'
p194
sg13
g3
sg14
S'.521'
p195
sg16
S'1084'
p196
sg18
g3
sg19
g20
sg21
S'1499'
p197
sg23
S'1064'
p198
sg25
S'NBA'
p199
sg27
g3
sg28
S'.521'
p200
sg30
g3
sg31
S'275'
p201
sg33
g3
sg34
S'27'
p202
sg36
S'NYK'
p203
sg38
S'79'
p204
sg40
g3
sg41
S'369'
p205
sg43
S'206'
p206
sg45
S'580'
p207
sg47
g3
sg48
S'1966-67'
p208
sg50
S'1084'
p209
sg52
g3
sg53
S'.636'
p210
sg55
S'565'
p211
sg57
S'3010'
p212
sba(isrc.gp1.models.Totals
Totals
p213
(dp214
g8
g3
sg9
S'.541'
p215
sg11
S'511'
p216
sg13
g3
sg14
S'.541'
p217
sg16
S'944'
p218
sg18
g3
sg19
g20
sg21
S'1372'
p219
sg23
S'961'
p220
sg25
S'NBA'
p221
sg27
g3
sg28
S'.541'
p222
sg30
g3
sg31
S'259'
p223
sg33
g3
sg34
S'28'
p224
sg36
S'NYK'
p225
sg38
S'82'
p226
sg40
g3
sg41
S'350'
p227
sg43
S'164'
p228
sg45
S'529'
p229
sg47
g3
sg48
S'1967-68'
p230
sg50
S'944'
p231
sg52
g3
sg53
S'.662'
p232
sg55
S'511'
p233
sg57
S'2695'
p234
sba(isrc.gp1.models.Totals
Totals
p235
(dp236
g8
g3
sg9
S'.510'
p237
sg11
S'563'
p238
sg13
g3
sg14
S'.510'
p239
sg16
S'1103'
p240
sg18
g3
sg19
g20
sg21
S'1527'
p241
sg23
S'1101'
p242
sg25
S'NBA'
p243
sg27
g3
sg28
S'.510'
p244
sg30
g3
sg31
S'320'
p245
sg33
g3
sg34
S'29'
p246
sg36
S'TOT'
p247
sg38
S'88'
p248
sg40
g3
sg41
S'401'
p249
sg43
S'176'
p250
sg45
S'618'
p251
sg47
g3
sg48
S'1968-69'
p252
sg50
S'1103'
p253
sg52
g3
sg53
S'.649'
p254
sg55
S'563'
p255
sg57
S'3159'
p256
sba(isrc.gp1.models.Totals
Totals
p257
(dp258
g8
g3
sg9
S'.507'
p259
sg11
S'204'
p260
sg13
g3
sg14
S'.507'
p261
sg16
S'402'
p262
sg18
g3
sg19
g20
sg21
S'533'
p263
sg23
S'385'
p264
sg25
S'NBA'
p265
sg27
g3
sg28
S'.507'
p266
sg30
g3
sg31
S'123'
p267
sg33
g3
sg34
S'29'
p268
sg36
S'NYK'
p269
sg38
S'35'
p270
sg40
g3
sg41
S'125'
p271
sg43
S'77'
p272
sg45
S'202'
p273
sg47
g3
sg48
S'1968-69'
p274
sg50
S'402'
p275
sg52
g3
sg53
S'.619'
p276
sg55
S'204'
p277
sg57
S'1136'
p278
sba(isrc.gp1.models.Totals
Totals
p279
(dp280
g8
g3
sg9
S'.512'
p281
sg11
S'359'
p282
sg13
g3
sg14
S'.512'
p283
sg16
S'701'
p284
sg18
g3
sg19
g20
sg21
S'994'
p285
sg23
S'716'
p286
sg25
S'NBA'
p287
sg27
g3
sg28
S'.512'
p288
sg30
g3
sg31
S'197'
p289
sg33
g3
sg34
S'29'
p290
sg36
S'DET'
p291
sg38
S'53'
p292
sg40
g3
sg41
S'276'
p293
sg43
S'99'
p294
sg45
S'416'
p295
sg47
g3
sg48
S'1968-69'
p296
sg50
S'701'
p297
sg52
g3
sg53
S'.663'
p298
sg55
S'359'
p299
sg57
S'2023'
p300
sba(isrc.gp1.models.Totals
Totals
p301
(dp302
g8
g3
sg9
S'.523'
p303
sg11
S'351'
p304
sg13
g3
sg14
S'.523'
p305
sg16
S'671'
p306
sg18
g3
sg19
g20
sg21
S'917'
p307
sg23
S'707'
p308
sg25
S'NBA'
p309
sg27
g3
sg28
S'.523'
p310
sg30
g3
sg31
S'260'
p311
sg33
g3
sg34
S'30'
p312
sg36
S'TOT'
p313
sg38
S'79'
p314
sg40
g3
sg41
S'215'
p315
sg43
S'143'
p316
sg45
S'373'
p317
sg47
g3
sg48
S'1969-70'
p318
sg50
S'671'
p319
sg52
g3
sg53
S'.576'
p320
sg55
S'351'
p321
sg57
S'2028'
p322
sba(isrc.gp1.models.Totals
Totals
p323
(dp324
g8
g3
sg9
S'.547'
p325
sg11
S'210'
p326
sg13
g3
sg14
S'.547'
p327
sg16
S'384'
p328
sg18
g3
sg19
g20
sg21
S'560'
p329
sg23
S'397'
p330
sg25
S'NBA'
p331
sg27
g3
sg28
S'.547'
p332
sg30
g3
sg31
S'163'
p333
sg33
g3
sg34
S'30'
p334
sg36
S'DET'
p335
sg38
S'56'
p336
sg40
g3
sg41
S'140'
p337
sg43
S'55'
p338
sg45
S'249'
p339
sg47
g3
sg48
S'1969-70'
p340
sg50
S'384'
p341
sg52
g3
sg53
S'.562'
p342
sg55
S'210'
p343
sg57
S'1173'
p344
sba(isrc.gp1.models.Totals
Totals
p345
(dp346
g8
g3
sg9
S'.491'
p347
sg11
S'141'
p348
sg13
g3
sg14
S'.491'
p349
sg16
S'287'
p350
sg18
g3
sg19
g20
sg21
S'357'
p351
sg23
S'310'
p352
sg25
S'NBA'
p353
sg27
g3
sg28
S'.491'
p354
sg30
g3
sg31
S'97'
p355
sg33
g3
sg34
S'30'
p356
sg36
S'ATL'
p357
sg38
S'23'
p358
sg40
g3
sg41
S'75'
p359
sg43
S'88'
p360
sg45
S'124'
p361
sg47
g3
sg48
S'1969-70'
p362
sg50
S'287'
p363
sg52
g3
sg53
S'.605'
p364
sg55
S'141'
p365
sg57
S'855'
p366
sba(isrc.gp1.models.Totals
Totals
p367
(dp368
g8
g3
sg9
S'.493'
p369
sg11
S'433'
p370
sg13
g3
sg14
S'.493'
p371
sg16
S'879'
p372
sg18
g3
sg19
g20
sg21
S'1202'
p373
sg23
S'1060'
p374
sg25
S'NBA'
p375
sg27
g3
sg28
S'.493'
p376
sg30
g3
sg31
S'271'
p377
sg33
g3
sg34
S'31'
p378
sg36
S'ATL'
p379
sg38
S'82'
p380
sg40
g3
sg41
S'336'
p381
sg43
S'230'
p382
sg45
S'556'
p383
sg47
g3
sg48
S'1970-71'
p384
sg50
S'879'
p385
sg52
g3
sg53
S'.604'
p386
sg55
S'433'
p387
sg57
S'2908'
p388
sba(isrc.gp1.models.Totals
Totals
p389
(dp390
g8
g3
sg9
S'.545'
p391
sg11
S'593'
p392
sg13
g3
sg14
S'.545'
p393
sg16
S'1089'
p394
sg18
g3
sg19
g20
sg21
S'1526'
p395
sg23
S'1049'
p396
sg25
S'NBA'
p397
sg27
g3
sg28
S'.545'
p398
sg30
g3
sg31
S'255'
p399
sg33
g3
sg34
S'32'
p400
sg36
S'ATL'
p401
sg38
S'82'
p402
sg40
g3
sg41
S'340'
p403
sg43
S'262'
p404
sg45
S'581'
p405
sg47
g3
sg48
S'1971-72'
p406
sg50
S'1089'
p407
sg52
g3
sg53
S'.585'
p408
sg55
S'593'
p409
sg57
S'3187'
p410
sba(isrc.gp1.models.Totals
Totals
p411
(dp412
g8
g3
sg9
S'.505'
p413
sg11
S'455'
p414
sg13
g3
sg14
S'.505'
p415
sg16
S'901'
p416
sg18
g3
sg19
g20
sg21
S'1193'
p417
sg23
S'964'
p418
sg25
S'NBA'
p419
sg27
g3
sg28
S'.505'
p420
sg30
g3
sg31
S'244'
p421
sg33
g3
sg34
S'33'
p422
sg36
S'ATL'
p423
sg38
S'74'
p424
sg40
g3
sg41
S'283'
p425
sg43
S'179'
p426
sg45
S'526'
p427
sg47
g3
sg48
S'1972-73'
p428
sg50
S'901'
p429
sg52
g3
sg53
S'.538'
p430
sg55
S'455'
p431
sg57
S'2802'
p432
sba(isrc.gp1.models.Totals
Totals
p433
(dp434
g8
S'52'
p435
sg9
S'.486'
p436
sg11
S'389'
p437
sg13
S'1011'
p438
sg14
S'.486'
p439
sg16
S'801'
p440
sg18
g3
sg19
g20
sg21
S'189'
p441
sg23
S'264'
p442
sg25
S'NBA'
p443
sg27
g3
sg28
S'.486'
p444
sg30
g3
sg31
S'740'
p445
sg33
S'232'
p446
sg34
S'34'
p447
sg36
S'ATL'
p448
sg38
S'77'
p449
sg40
g3
sg41
S'233'
p450
sg43
S'476'
p451
sg45
S'383'
p452
sg47
S'48'
p453
sg48
S'1973-74'
p454
sg50
S'801'
p455
sg52
g3
sg53
S'.608'
p456
sg55
S'389'
p457
sg57
S'2440'
p458
sba(isrc.gp1.models.Totals
Totals
p459
(dp460
g8
S'0'
p461
sg9
S'1.000'
p462
sg11
S'2'
p463
sg13
S'6'
p464
sg14
S'1.000'
p465
sg16
g463
sg18
g3
sg19
g20
sg21
g461
sg23
g461
sg25
S'NBA'
p466
sg27
g3
sg28
S'1.000'
p467
sg30
g3
sg31
S'5'
p468
sg33
g463
sg34
S'35'
p469
sg36
S'NOJ'
p470
sg38
S'1'
p471
sg40
g3
sg41
g463
sg43
g468
sg45
g463
sg47
g461
sg48
S'1974-75'
p472
sg50
g463
sg52
g3
sg53
S'1.000'
p473
sg55
g463
sg57
S'14'
p474
sbasS'_college'
p475
S'Indiana University'
p476
sS'_toYear'
p477
S'1975'
p478
sS'_height'
p479
S'6-11'
p480
sS'_active'
p481
I00
sS'_shootingHand'
p482
VRight
p483
sS'_name'
p484
S'Walt Bellamy'
p485
sS'_per100Possessions'
p486
(lp487
(isrc.gp1.models.Per100Possession
Per100Possession
p488
(dp489
g8
S'0.9'
p490
sg9
S'.486'
p491
sg11
S'6.9'
p492
sS'_offensiveRating'
p493
g3
sg13
S'18.0'
p494
sg14
S'4.1'
p495
sg16
S'14.2'
p496
sg18
g3
sg19
g20
sS'_defensiveRating'
p497
g3
sg21
S'3.4'
p498
sg25
S'NBA'
p499
sg27
S'99'
p500
sg28
S'.486'
p501
sg30
g3
sg31
S'13.1'
p502
sg33
S'4.1'
p503
sg34
S'34'
p504
sg36
S'ATL'
p505
sg38
S'77'
p506
sg40
g3
sg41
S'6.8'
p507
sg43
S'8.5'
p508
sg45
S'.608'
p509
sg47
S'0.9'
p510
sg48
S'1973-74'
p511
sg50
S'14.2'
p512
sg52
g3
sg53
S'4.7'
p513
sg55
S'6.9'
p514
sg57
S'2440'
p515
sba(isrc.gp1.models.Per100Possession
Per100Possession
p516
(dp517
g8
S'0.0'
p518
sg9
S'1.000'
p519
sg11
S'6.3'
p520
sg493
g3
sg13
S'18.8'
p521
sg14
S'6.3'
p522
sg16
S'6.3'
p523
sg18
g3
sg19
g20
sg497
g3
sg21
S'0.0'
p524
sg25
S'NBA'
p525
sg27
S'97'
p526
sg28
S'1.000'
p527
sg30
g3
sg31
S'15.7'
p528
sg33
S'6.3'
p529
sg34
S'35'
p530
sg36
S'NOJ'
p531
sg38
g471
sg40
g3
sg41
S'6.3'
p532
sg43
S'15.7'
p533
sg45
S'1.000'
p534
sg47
S'0.0'
p535
sg48
S'1974-75'
p536
sg50
S'6.3'
p537
sg52
g3
sg53
S'0.0'
p538
sg55
S'6.3'
p539
sg57
S'14'
p540
sbasS'_advanced'
p541
(lp542
(isrc.gp1.models.Advanced
Advanced
p543
(dp544
S'_offensiveReboundPercentage'
p545
S'2.8'
p546
sS'_turnOverPercentage'
p547
g3
sS'_winSharesPer48Minutes'
p548
g3
sS'_stealPercentage'
p549
g3
sS'_usagePercentage'
p550
g3
sS'_totalReboundsPercentage'
p551
S'.233'
p552
sS'_defensiveBoxPlusMinus'
p553
g3
sg19
g20
sS'_valueOverReplacementPlayer'
p554
g3
sS'_trueShootingPercentage'
p555
S'.554'
p556
sS'_defensiveReboundPercentage'
p557
S'16.3'
p558
sS'_freeThrowsAttempRate'
p559
S'13.4'
p560
sS'_threePointsAttempRate'
p561
S'.455'
p562
sg25
S'NBA'
p563
sS'_offensiveBoxPlusMinues'
p564
g3
sS'_assistPercentage'
p565
g3
sS'_defensiveWinShares'
p566
g3
sg34
S'22'
p567
sg36
S'CHP'
p568
sg38
S'79'
p569
sS'_blockPercentage'
p570
g3
sS'_playerEfficiencyRating'
p571
S'26.3'
p572
sS'_offensiveWinShares'
p573
g3
sg55
S'3344'
p574
sS'_boxPlusMinus'
p575
g3
sg48
S'1961-62'
p576
sS'_winShares'
p577
g3
sba(isrc.gp1.models.Advanced
Advanced
p578
(dp579
g545
S'1.1'
p580
sg547
g3
sg548
g3
sg549
g3
sg550
g3
sg551
S'.199'
p581
sg553
g3
sg19
g20
sg554
g3
sg555
S'.571'
p582
sg557
S'13.7'
p583
sg559
S'12.6'
p584
sg561
S'.515'
p585
sg25
S'NBA'
p586
sg564
g3
sg565
g3
sg566
g3
sg34
S'23'
p587
sg36
S'CHZ'
p588
sg38
S'80'
p589
sg570
g3
sg571
S'24.9'
p590
sg573
g3
sg55
S'3306'
p591
sg575
g3
sg48
S'1962-63'
p592
sg577
g3
sba(isrc.gp1.models.Advanced
Advanced
p593
(dp594
g545
S'2.9'
p595
sg547
g3
sg548
g3
sg549
g3
sg550
g3
sg551
S'.203'
p596
sg553
g3
sg19
g20
sg554
g3
sg555
S'.555'
p597
sg557
S'14.4'
p598
sg559
S'11.4'
p599
sg561
S'.521'
p600
sg25
S'NBA'
p601
sg564
g3
sg565
g3
sg566
g3
sg34
S'24'
p602
sg36
S'BAL'
p603
sg38
S'80'
p604
sg570
g3
sg571
S'23.3'
p605
sg573
g3
sg55
S'3394'
p606
sg575
g3
sg48
S'1963-64'
p607
sg577
g3
sba(isrc.gp1.models.Advanced
Advanced
p608
(dp609
g545
S'11.2'
p610
sg547
g3
sg548
g3
sg549
g3
sg550
g3
sg551
S'12.1'
p611
sg553
g3
sg19
g20
sg554
g3
sg555
S'.559'
p612
sg557
S'0.9'
p613
sg559
S'8.8'
p614
sg561
S'.522'
p615
sg25
S'NBA'
p616
sg564
g3
sg565
S'.175'
p617
sg566
g3
sg34
S'25'
p618
sg36
S'BAL'
p619
sg38
S'80'
p620
sg570
g3
sg571
S'21.7'
p621
sg573
g3
sg55
S'3301'
p622
sg575
g3
sg48
S'1964-65'
p623
sg577
g3
sba(isrc.gp1.models.Advanced
Advanced
p624
(dp625
g545
S'8.3'
p626
sg547
g3
sg548
g3
sg549
g3
sg550
g3
sg551
S'9.5'
p627
sg553
g3
sg19
g20
sg554
g3
sg555
S'.543'
p628
sg557
S'1.2'
p629
sg559
S'9.8'
p630
sg561
S'.502'
p631
sg25
S'NBA'
p632
sg564
g3
sg565
S'.136'
p633
sg566
g3
sg34
S'26'
p634
sg36
S'TOT'
p635
sg38
S'80'
p636
sg570
g3
sg571
S'19.3'
p637
sg573
g3
sg55
S'3352'
p638
sg575
g3
sg48
S'1965-66'
p639
sg577
g3
sba(isrc.gp1.models.Advanced
Advanced
p640
(dp641
g545
S'0.4'
p642
sg547
g3
sg548
g3
sg549
g3
sg550
g3
sg551
S'0.6'
p643
sg553
g3
sg19
g20
sg554
g3
sg555
S'.495'
p644
sg557
S'0.2'
p645
sg559
S'9.3'
p646
sg561
S'.540'
p647
sg25
S'NBA'
p648
sg564
g3
sg565
S'.108'
p649
sg566
g3
sg34
S'26'
p650
sg36
S'BAL'
p651
sg38
g160
sg570
g3
sg571
S'17.7'
p652
sg573
g3
sg55
S'268'
p653
sg575
g3
sg48
S'1965-66'
p654
sg577
g3
sba(isrc.gp1.models.Advanced
Advanced
p655
(dp656
g545
S'7.9'
p657
sg547
g3
sg548
g3
sg549
g3
sg550
g3
sg551
S'8.9'
p658
sg553
g3
sg19
g20
sg554
g3
sg555
S'.548'
p659
sg557
S'1.0'
p660
sg559
S'9.8'
p661
sg561
S'.498'
p662
sg25
S'NBA'
p663
sg564
g3
sg565
S'.139'
p664
sg566
g3
sg34
S'26'
p665
sg36
S'NYK'
p666
sg38
S'72'
p667
sg570
g3
sg571
S'19.4'
p668
sg573
g3
sg55
S'3084'
p669
sg575
g3
sg48
S'1965-66'
p670
sg577
g3
sba(isrc.gp1.models.Advanced
Advanced
p671
(dp672
g545
S'7.4'
p673
sg547
g3
sg548
g3
sg549
g3
sg550
g3
sg551
S'8.8'
p674
sg553
g3
sg19
g20
sg554
g3
sg555
S'.560'
p675
sg557
S'1.4'
p676
sg559
S'9.2'
p677
sg561
S'.535'
p678
sg25
S'NBA'
p679
sg564
g3
sg565
S'.140'
p680
sg566
g3
sg34
S'27'
p681
sg36
S'NYK'
p682
sg38
S'79'
p683
sg570
g3
sg571
S'18.4'
p684
sg573
g3
sg55
S'3010'
p685
sg575
g3
sg48
S'1966-67'
p686
sg577
g3
sba(isrc.gp1.models.Advanced
Advanced
p687
(dp688
g545
S'7.9'
p689
sg547
g3
sg548
g3
sg549
g3
sg550
g3
sg551
S'11.1'
p690
sg553
g3
sg19
g20
sg554
g3
sg555
S'.583'
p691
sg557
S'3.3'
p692
sg559
S'8.3'
p693
sg561
S'.560'
p694
sg25
S'NBA'
p695
sg564
g3
sg565
S'.198'
p696
sg566
g3
sg34
S'28'
p697
sg36
S'NYK'
p698
sg38
S'82'
p699
sg570
g3
sg571
S'19.1'
p700
sg573
g3
sg55
S'2695'
p701
sg575
g3
sg48
S'1967-68'
p702
sg577
g3
sba(isrc.gp1.models.Advanced
Advanced
p703
(dp704
g545
S'7.7'
p705
sg547
g3
sg548
g3
sg549
g3
sg550
g3
sg551
S'10.4'
p706
sg553
g3
sg19
g20
sg554
g3
sg555
S'.555'
p707
sg557
S'2.6'
p708
sg559
S'7.6'
p709
sg561
S'.560'
p710
sg25
S'NBA'
p711
sg564
g3
sg565
S'.157'
p712
sg566
g3
sg34
S'29'
p713
sg36
S'TOT'
p714
sg38
S'88'
p715
sg570
g3
sg571
S'18.0'
p716
sg573
g3
sg55
S'3159'
p717
sg575
g3
sg48
S'1968-69'
p718
sg577
g3
sba(isrc.gp1.models.Advanced
Advanced
p719
(dp720
g545
S'2.5'
p721
sg547
g3
sg548
g3
sg549
g3
sg550
g3
sg551
S'4.3'
p722
sg553
g3
sg19
g20
sg554
g3
sg555
S'.543'
p723
sg557
S'1.8'
p724
sg559
S'9.3'
p725
sg561
S'.502'
p726
sg25
S'NBA'
p727
sg564
g3
sg565
S'.181'
p728
sg566
g3
sg34
S'29'
p729
sg36
S'NYK'
p730
sg38
S'35'
p731
sg570
g3
sg571
S'17.9'
p732
sg573
g3
sg55
S'1136'
p733
sg575
g3
sg48
S'1968-69'
p734
sg577
g3
sba(isrc.gp1.models.Advanced
Advanced
p735
(dp736
g545
S'5.2'
p737
sg547
g3
sg548
g3
sg549
g3
sg550
g3
sg551
S'6.1'
p738
sg553
g3
sg19
g20
sg554
g3
sg555
S'.562'
p739
sg557
S'0.9'
p740
sg559
S'6.6'
p741
sg561
S'.593'
p742
sg25
S'NBA'
p743
sg564
g3
sg565
S'.144'
p744
sg566
g3
sg34
S'29'
p745
sg36
S'DET'
p746
sg38
S'53'
p747
sg570
g3
sg571
S'18.0'
p748
sg573
g3
sg55
S'2023'
p749
sg575
g3
sg48
S'1968-69'
p750
sg577
g3
sba(isrc.gp1.models.Advanced
Advanced
p751
(dp752
g545
S'3.5'
p753
sg547
g3
sg548
g3
sg549
g3
sg550
g3
sg551
S'4.9'
p754
sg553
g3
sg19
g20
sg554
g3
sg555
S'.549'
p755
sg557
S'1.3'
p756
sg559
S'9.2'
p757
sg561
S'.556'
p758
sg25
S'NBA'
p759
sg564
g3
sg565
S'.115'
p760
sg566
g3
sg34
S'30'
p761
sg36
S'TOT'
p762
sg38
S'79'
p763
sg570
g3
sg571
S'16.4'
p764
sg573
g3
sg55
S'2028'
p765
sg575
g3
sg48
S'1969-70'
p766
sg577
g3
sba(isrc.gp1.models.Advanced
Advanced
p767
(dp768
g545
S'2.6'
p769
sg547
g3
sg548
g3
sg549
g3
sg550
g3
sg551
S'3.3'
p770
sg553
g3
sg19
g20
sg554
g3
sg555
S'.567'
p771
sg557
S'0.7'
p772
sg559
S'6.5'
p773
sg561
S'.648'
p774
sg25
S'NBA'
p775
sg564
g3
sg565
S'.133'
p776
sg566
g3
sg34
S'30'
p777
sg36
S'DET'
p778
sg38
S'56'
p779
sg570
g3
sg571
S'16.7'
p780
sg573
g3
sg55
S'1173'
p781
sg575
g3
sg48
S'1969-70'
p782
sg577
g3
sba(isrc.gp1.models.Advanced
Advanced
p783
(dp784
g545
S'1.0'
p785
sg547
g3
sg548
g3
sg549
g3
sg550
g3
sg551
S'1.6'
p786
sg553
g3
sg19
g20
sg554
g3
sg555
S'.523'
p787
sg557
S'0.6'
p788
sg559
S'12.9'
p789
sg561
S'.432'
p790
sg25
S'NBA'
p791
sg564
g3
sg565
S'.090'
p792
sg566
g3
sg34
S'30'
p793
sg36
S'ATL'
p794
sg38
S'23'
p795
sg570
g3
sg571
S'16.0'
p796
sg573
g3
sg55
S'855'
p797
sg575
g3
sg48
S'1969-70'
p798
sg577
g3
sba(isrc.gp1.models.Advanced
Advanced
p799
(dp800
g545
S'10.3'
p801
sg547
g3
sg548
g3
sg549
S'.102'
p802
sg550
g3
sg551
S'1.6'
p803
sg553
g3
sg19
g20
sg554
g3
sg555
S'.535'
p804
sg557
S'4.6'
p805
sg559
S'16.5'
p806
sg561
S'.633'
p807
sg25
S'NBA'
p808
sg564
g3
sg565
S'6.2'
p809
sg566
g3
sg34
S'31'
p810
sg36
S'ATL'
p811
sg38
S'82'
p812
sg570
g3
sg571
S'16.5'
p813
sg573
g3
sg55
S'2908'
p814
sg575
g3
sg48
S'1970-71'
p815
sg577
g3
sba(isrc.gp1.models.Advanced
Advanced
p816
(dp817
g545
S'11.8'
p818
sg547
g3
sg548
g3
sg549
S'.155'
p819
sg550
g3
sg551
S'2.5'
p820
sg553
g3
sg19
g20
sg554
g3
sg555
S'.567'
p821
sg557
S'7.8'
p822
sg559
S'16.1'
p823
sg561
S'.534'
p824
sg25
S'NBA'
p825
sg564
g3
sg565
S'10.3'
p826
sg566
g3
sg34
S'32'
p827
sg36
S'ATL'
p828
sg38
S'82'
p829
sg570
g3
sg571
S'19.0'
p830
sg573
g3
sg55
S'3187'
p831
sg575
g3
sg48
S'1971-72'
p832
sg577
g3
sba(isrc.gp1.models.Advanced
Advanced
p833
(dp834
g545
S'8.3'
p835
sg547
g3
sg548
g3
sg549
S'.122'
p836
sg550
g3
sg551
S'2.9'
p837
sg553
g3
sg19
g20
sg554
g3
sg555
S'.527'
p838
sg557
S'4.2'
p839
sg559
S'16.4'
p840
sg561
S'.584'
p841
sg25
S'NBA'
p842
sg564
g3
sg565
S'7.1'
p843
sg566
g3
sg34
S'33'
p844
sg36
S'ATL'
p845
sg38
S'74'
p846
sg570
g3
sg571
S'15.9'
p847
sg573
g3
sg55
S'2802'
p848
sg575
g3
sg48
S'1972-73'
p849
sg577
g3
sba(isrc.gp1.models.Advanced
Advanced
p850
(dp851
g545
S'20.0'
p852
sg547
S'2.2'
p853
sg548
S'0.3'
p854
sg549
S'1.0'
p855
sg550
S'5.4'
p856
sg551
S'10.3'
p857
sg553
g3
sg19
g20
sg554
g3
sg555
S'.521'
p858
sg557
S'15.3'
p859
sg559
S'10.7'
p860
sg561
S'.478'
p861
sg25
S'NBA'
p862
sg564
S'1.4'
p863
sg565
S'0.9'
p864
sg566
S'0.2'
p865
sg34
S'34'
p866
sg36
S'ATL'
p867
sg38
S'77'
p868
sg570
S'3.2'
p869
sg571
S'15.2'
p870
sg573
S'.107'
p871
sg55
S'2440'
p872
sg575
g3
sg48
S'1973-74'
p873
sg577
S'0.1'
p874
sba(isrc.gp1.models.Advanced
Advanced
p875
(dp876
g545
S'37.0'
p877
sg547
S'0.0'
p878
sg548
S'-8.6'
p879
sg549
S'0.0'
p880
sg550
S'0.1'
p881
sg551
S'0.0'
p882
sg553
g3
sg19
g20
sg554
g3
sg555
S'1.042'
p883
sg557
S'17.9'
p884
sg559
S'0.0'
p885
sg561
S'1.000'
p886
sg25
S'NBA'
p887
sg564
S'0.0'
p888
sg565
S'0.0'
p889
sg566
S'-3.1'
p890
sg34
S'35'
p891
sg36
S'NOJ'
p892
sg38
g471
sg570
S'0.0'
p893
sg571
S'16.4'
p894
sg573
S'.222'
p895
sg55
S'14'
p896
sg575
g3
sg48
S'1974-75'
p897
sg577
S'-5.5'
p898
sbasS'_per36Minutes'
p899
(lp900
(isrc.gp1.models.Per36Minutes
Per36Minutes
p901
(dp902
g8
g3
sg9
S'.519'
p903
sg11
S'10.5'
p904
sg13
g3
sg14
S'5.9'
p905
sg16
S'20.2'
p906
sg18
g3
sg19
g20
sg21
S'26.9'
p907
sg25
S'NBA'
p908
sg27
g3
sg28
S'.519'
p909
sg30
g3
sg31
S'3.0'
p910
sg33
g3
sg34
S'22'
p911
sg36
S'CHP'
p912
sg38
S'79'
p913
sg40
g3
sg41
S'9.2'
p914
sg43
S'2.3'
p915
sg45
S'.644'
p916
sg47
g3
sg48
S'1961-62'
p917
sg50
S'20.2'
p918
sg52
g3
sg53
S'16.1'
p919
sg55
S'10.5'
p920
sg57
S'3344'
p921
sba(isrc.gp1.models.Per36Minutes
Per36Minutes
p922
(dp923
g8
g3
sg9
S'.527'
p924
sg11
S'9.1'
p925
sg13
g3
sg14
S'6.0'
p926
sg16
S'17.4'
p927
sg18
g3
sg19
g20
sg21
S'24.3'
p928
sg25
S'NBA'
p929
sg27
g3
sg28
S'.527'
p930
sg30
g3
sg31
S'3.1'
p931
sg33
g3
sg34
S'23'
p932
sg36
S'CHZ'
p933
sg38
S'80'
p934
sg40
g3
sg41
S'8.9'
p935
sg43
S'2.5'
p936
sg45
S'.674'
p937
sg47
g3
sg48
S'1962-63'
p938
sg50
S'17.4'
p939
sg52
g3
sg53
S'14.3'
p940
sg55
S'9.1'
p941
sg57
S'3306'
p942
sba(isrc.gp1.models.Per36Minutes
Per36Minutes
p943
(dp944
g8
g3
sg9
S'.513'
p945
sg11
S'8.6'
p946
sg13
g3
sg14
S'5.7'
p947
sg16
S'16.8'
p948
sg18
g3
sg19
g20
sg21
S'22.9'
p949
sg25
S'NBA'
p950
sg27
g3
sg28
S'.513'
p951
sg30
g3
sg31
S'3.2'
p952
sg33
g3
sg34
S'24'
p953
sg36
S'BAL'
p954
sg38
S'80'
p955
sg40
g3
sg41
S'8.8'
p956
sg43
S'1.3'
p957
sg45
S'.651'
p958
sg47
g3
sg48
S'1963-64'
p959
sg50
S'16.8'
p960
sg52
g3
sg53
S'14.4'
p961
sg55
S'8.6'
p962
sg57
S'3394'
p963
sba(isrc.gp1.models.Per36Minutes
Per36Minutes
p964
(dp965
g8
g3
sg9
S'.509'
p966
sg11
S'8.0'
p967
sg13
g3
sg14
S'5.6'
p968
sg16
S'15.7'
p969
sg18
g3
sg19
g20
sg21
S'21.6'
p970
sg25
S'NBA'
p971
sg27
g3
sg28
S'.509'
p972
sg30
g3
sg31
S'2.8'
p973
sg33
g3
sg34
S'25'
p974
sg36
S'BAL'
p975
sg38
S'80'
p976
sg40
g3
sg41
S'8.2'
p977
sg43
S'2.1'
p978
sg45
S'.685'
p979
sg47
g3
sg48
S'1964-65'
p980
sg50
S'15.7'
p981
sg52
g3
sg53
S'12.7'
p982
sg55
S'8.0'
p983
sg57
S'3301'
p984
sba(isrc.gp1.models.Per36Minutes
Per36Minutes
p985
(dp986
g8
g3
sg9
S'.506'
p987
sg11
S'7.5'
p988
sg13
g3
sg14
S'4.6'
p989
sg16
S'14.7'
p990
sg18
g3
sg19
g20
sg21
S'19.5'
p991
sg25
S'NBA'
p992
sg27
g3
sg28
S'.506'
p993
sg30
g3
sg31
S'3.2'
p994
sg33
g3
sg34
S'26'
p995
sg36
S'TOT'
p996
sg38
S'80'
p997
sg40
g3
sg41
S'7.4'
p998
sg43
S'2.5'
p999
sg45
S'.624'
p1000
sg47
g3
sg48
S'1965-66'
p1001
sg50
S'14.7'
p1002
sg52
g3
sg53
S'13.5'
p1003
sg55
S'7.5'
p1004
sg57
S'3352'
p1005
sba(isrc.gp1.models.Per36Minutes
Per36Minutes
p1006
(dp1007
g8
g3
sg9
S'.452'
p1008
sg11
S'7.5'
p1009
sg13
g3
sg14
S'5.4'
p1010
sg16
S'16.7'
p1011
sg18
g3
sg19
g20
sg21
S'20.4'
p1012
sg25
S'NBA'
p1013
sg27
g3
sg28
S'.452'
p1014
sg30
g3
sg31
S'4.3'
p1015
sg33
g3
sg34
S'26'
p1016
sg36
S'BAL'
p1017
sg38
g160
sg40
g3
sg41
S'9.0'
p1018
sg43
S'2.4'
p1019
sg45
S'.597'
p1020
sg47
g3
sg48
S'1965-66'
p1021
sg50
S'16.7'
p1022
sg52
g3
sg53
S'13.7'
p1023
sg55
S'7.5'
p1024
sg57
S'268'
p1025
sba(isrc.gp1.models.Per36Minutes
Per36Minutes
p1026
(dp1027
g8
g3
sg9
S'.512'
p1028
sg11
S'7.5'
p1029
sg13
g3
sg14
S'4.6'
p1030
sg16
S'14.6'
p1031
sg18
g3
sg19
g20
sg21
S'19.5'
p1032
sg25
S'NBA'
p1033
sg27
g3
sg28
S'.512'
p1034
sg30
g3
sg31
S'3.1'
p1035
sg33
g3
sg34
S'26'
p1036
sg36
S'NYK'
p1037
sg38
S'72'
p1038
sg40
g3
sg41
S'7.3'
p1039
sg43
S'2.5'
p1040
sg45
S'.627'
p1041
sg47
g3
sg48
S'1965-66'
p1042
sg50
S'14.6'
p1043
sg52
g3
sg53
S'13.4'
p1044
sg55
S'7.5'
p1045
sg57
S'3084'
p1046
sba(isrc.gp1.models.Per36Minutes
Per36Minutes
p1047
(dp1048
g8
g3
sg9
S'.521'
p1049
sg11
S'6.8'
p1050
sg13
g3
sg14
S'4.4'
p1051
sg16
S'13.0'
p1052
sg18
g3
sg19
g20
sg21
S'17.9'
p1053
sg25
S'NBA'
p1054
sg27
g3
sg28
S'.521'
p1055
sg30
g3
sg31
S'3.3'
p1056
sg33
g3
sg34
S'27'
p1057
sg36
S'NYK'
p1058
sg38
S'79'
p1059
sg40
g3
sg41
S'6.9'
p1060
sg43
S'2.5'
p1061
sg45
S'.636'
p1062
sg47
g3
sg48
S'1966-67'
p1063
sg50
S'13.0'
p1064
sg52
g3
sg53
S'12.7'
p1065
sg55
S'6.8'
p1066
sg57
S'3010'
p1067
sba(isrc.gp1.models.Per36Minutes
Per36Minutes
p1068
(dp1069
g8
g3
sg9
S'.541'
p1070
sg11
S'6.8'
p1071
sg13
g3
sg14
S'4.7'
p1072
sg16
S'12.6'
p1073
sg18
g3
sg19
g20
sg21
S'18.3'
p1074
sg25
S'NBA'
p1075
sg27
g3
sg28
S'.541'
p1076
sg30
g3
sg31
S'3.5'
p1077
sg33
g3
sg34
S'28'
p1078
sg36
S'NYK'
p1079
sg38
S'82'
p1080
sg40
g3
sg41
S'7.1'
p1081
sg43
S'2.2'
p1082
sg45
S'.662'
p1083
sg47
g3
sg48
S'1967-68'
p1084
sg50
S'12.6'
p1085
sg52
g3
sg53
S'12.8'
p1086
sg55
S'6.8'
p1087
sg57
S'2695'
p1088
sba(isrc.gp1.models.Per36Minutes
Per36Minutes
p1089
(dp1090
g8
g3
sg9
S'.510'
p1091
sg11
S'6.4'
p1092
sg13
g3
sg14
S'4.6'
p1093
sg16
S'12.6'
p1094
sg18
g3
sg19
g20
sg21
S'17.4'
p1095
sg25
S'NBA'
p1096
sg27
g3
sg28
S'.510'
p1097
sg30
g3
sg31
S'3.6'
p1098
sg33
g3
sg34
S'29'
p1099
sg36
S'TOT'
p1100
sg38
S'88'
p1101
sg40
g3
sg41
S'7.0'
p1102
sg43
S'2.0'
p1103
sg45
S'.649'
p1104
sg47
g3
sg48
S'1968-69'
p1105
sg50
S'12.6'
p1106
sg52
g3
sg53
S'12.5'
p1107
sg55
S'6.4'
p1108
sg57
S'3159'
p1109
sba(isrc.gp1.models.Per36Minutes
Per36Minutes
p1110
(dp1111
g8
g3
sg9
S'.507'
p1112
sg11
S'6.5'
p1113
sg13
g3
sg14
S'4.0'
p1114
sg16
S'12.7'
p1115
sg18
g3
sg19
g20
sg21
S'16.9'
p1116
sg25
S'NBA'
p1117
sg27
g3
sg28
S'.507'
p1118
sg30
g3
sg31
S'3.9'
p1119
sg33
g3
sg34
S'29'
p1120
sg36
S'NYK'
p1121
sg38
S'35'
p1122
sg40
g3
sg41
S'6.4'
p1123
sg43
S'2.4'
p1124
sg45
S'.619'
p1125
sg47
g3
sg48
S'1968-69'
p1126
sg50
S'12.7'
p1127
sg52
g3
sg53
S'12.2'
p1128
sg55
S'6.5'
p1129
sg57
S'1136'
p1130
sba(isrc.gp1.models.Per36Minutes
Per36Minutes
p1131
(dp1132
g8
g3
sg9
S'.512'
p1133
sg11
S'6.4'
p1134
sg13
g3
sg14
S'4.9'
p1135
sg16
S'12.5'
p1136
sg18
g3
sg19
g20
sg21
S'17.7'
p1137
sg25
S'NBA'
p1138
sg27
g3
sg28
S'.512'
p1139
sg30
g3
sg31
S'3.5'
p1140
sg33
g3
sg34
S'29'
p1141
sg36
S'DET'
p1142
sg38
S'53'
p1143
sg40
g3
sg41
S'7.4'
p1144
sg43
S'1.8'
p1145
sg45
S'.663'
p1146
sg47
g3
sg48
S'1968-69'
p1147
sg50
S'12.5'
p1148
sg52
g3
sg53
S'12.7'
p1149
sg55
S'6.4'
p1150
sg57
S'2023'
p1151
sba(isrc.gp1.models.Per36Minutes
Per36Minutes
p1152
(dp1153
g8
g3
sg9
S'.523'
p1154
sg11
S'6.2'
p1155
sg13
g3
sg14
S'3.8'
p1156
sg16
S'11.9'
p1157
sg18
g3
sg19
g20
sg21
S'16.3'
p1158
sg25
S'NBA'
p1159
sg27
g3
sg28
S'.523'
p1160
sg30
g3
sg31
S'4.6'
p1161
sg33
g3
sg34
S'30'
p1162
sg36
S'TOT'
p1163
sg38
S'79'
p1164
sg40
g3
sg41
S'6.6'
p1165
sg43
S'2.5'
p1166
sg45
S'.576'
p1167
sg47
g3
sg48
S'1969-70'
p1168
sg50
S'11.9'
p1169
sg52
g3
sg53
S'12.6'
p1170
sg55
S'6.2'
p1171
sg57
S'2028'
p1172
sba(isrc.gp1.models.Per36Minutes
Per36Minutes
p1173
(dp1174
g8
g3
sg9
S'.547'
p1175
sg11
S'6.4'
p1176
sg13
g3
sg14
S'4.3'
p1177
sg16
S'11.8'
p1178
sg18
g3
sg19
g20
sg21
S'17.2'
p1179
sg25
S'NBA'
p1180
sg27
g3
sg28
S'.547'
p1181
sg30
g3
sg31
S'5.0'
p1182
sg33
g3
sg34
S'30'
p1183
sg36
S'DET'
p1184
sg38
S'56'
p1185
sg40
g3
sg41
S'7.6'
p1186
sg43
S'1.7'
p1187
sg45
S'.562'
p1188
sg47
g3
sg48
S'1969-70'
p1189
sg50
S'11.8'
p1190
sg52
g3
sg53
S'12.2'
p1191
sg55
S'6.4'
p1192
sg57
S'1173'
p1193
sba(isrc.gp1.models.Per36Minutes
Per36Minutes
p1194
(dp1195
g8
g3
sg9
S'.491'
p1196
sg11
S'5.9'
p1197
sg13
g3
sg14
S'3.2'
p1198
sg16
S'12.1'
p1199
sg18
g3
sg19
g20
sg21
S'15.0'
p1200
sg25
S'NBA'
p1201
sg27
g3
sg28
S'.491'
p1202
sg30
g3
sg31
S'4.1'
p1203
sg33
g3
sg34
S'30'
p1204
sg36
S'ATL'
p1205
sg38
S'23'
p1206
sg40
g3
sg41
S'5.2'
p1207
sg43
S'3.7'
p1208
sg45
S'.605'
p1209
sg47
g3
sg48
S'1969-70'
p1210
sg50
S'12.1'
p1211
sg52
g3
sg53
S'13.1'
p1212
sg55
S'5.9'
p1213
sg57
S'855'
p1214
sba(isrc.gp1.models.Per36Minutes
Per36Minutes
p1215
(dp1216
g8
g3
sg9
S'.493'
p1217
sg11
S'5.4'
p1218
sg13
g3
sg14
S'4.2'
p1219
sg16
S'10.9'
p1220
sg18
g3
sg19
g20
sg21
S'14.9'
p1221
sg25
S'NBA'
p1222
sg27
g3
sg28
S'.493'
p1223
sg30
g3
sg31
S'3.4'
p1224
sg33
g3
sg34
S'31'
p1225
sg36
S'ATL'
p1226
sg38
S'82'
p1227
sg40
g3
sg41
S'6.9'
p1228
sg43
S'2.8'
p1229
sg45
S'.604'
p1230
sg47
g3
sg48
S'1970-71'
p1231
sg50
S'10.9'
p1232
sg52
g3
sg53
S'13.1'
p1233
sg55
S'5.4'
p1234
sg57
S'2908'
p1235
sba(isrc.gp1.models.Per36Minutes
Per36Minutes
p1236
(dp1237
g8
g3
sg9
S'.545'
p1238
sg11
S'6.7'
p1239
sg13
g3
sg14
S'3.8'
p1240
sg16
S'12.3'
p1241
sg18
g3
sg19
g20
sg21
S'17.2'
p1242
sg25
S'NBA'
p1243
sg27
g3
sg28
S'.545'
p1244
sg30
g3
sg31
S'2.9'
p1245
sg33
g3
sg34
S'32'
p1246
sg36
S'ATL'
p1247
sg38
S'82'
p1248
sg40
g3
sg41
S'6.6'
p1249
sg43
S'3.0'
p1250
sg45
S'.585'
p1251
sg47
g3
sg48
S'1971-72'
p1252
sg50
S'12.3'
p1253
sg52
g3
sg53
S'11.8'
p1254
sg55
S'6.7'
p1255
sg57
S'3187'
p1256
sba(isrc.gp1.models.Per36Minutes
Per36Minutes
p1257
(dp1258
g8
g3
sg9
S'.505'
p1259
sg11
S'5.8'
p1260
sg13
g3
sg14
S'3.6'
p1261
sg16
S'11.6'
p1262
sg18
g3
sg19
g20
sg21
S'15.3'
p1263
sg25
S'NBA'
p1264
sg27
g3
sg28
S'.505'
p1265
sg30
g3
sg31
S'3.1'
p1266
sg33
g3
sg34
S'33'
p1267
sg36
S'ATL'
p1268
sg38
S'74'
p1269
sg40
g3
sg41
S'6.8'
p1270
sg43
S'2.3'
p1271
sg45
S'.538'
p1272
sg47
g3
sg48
S'1972-73'
p1273
sg50
S'11.6'
p1274
sg52
g3
sg53
S'12.4'
p1275
sg55
S'5.8'
p1276
sg57
S'2802'
p1277
sba(isrc.gp1.models.Per36Minutes
Per36Minutes
p1278
(dp1279
g8
S'0.8'
p1280
sg9
S'.486'
p1281
sg11
S'5.7'
p1282
sg13
S'14.9'
p1283
sg14
S'3.4'
p1284
sg16
S'11.8'
p1285
sg18
g3
sg19
g20
sg21
S'2.8'
p1286
sg25
S'NBA'
p1287
sg27
g3
sg28
S'.486'
p1288
sg30
g3
sg31
S'10.9'
p1289
sg33
S'3.4'
p1290
sg34
S'34'
p1291
sg36
S'ATL'
p1292
sg38
S'77'
p1293
sg40
g3
sg41
S'5.7'
p1294
sg43
S'7.0'
p1295
sg45
S'.608'
p1296
sg47
S'0.7'
p1297
sg48
S'1973-74'
p1298
sg50
S'11.8'
p1299
sg52
g3
sg53
S'3.9'
p1300
sg55
S'5.7'
p1301
sg57
S'2440'
p1302
sba(isrc.gp1.models.Per36Minutes
Per36Minutes
p1303
(dp1304
g8
S'0.0'
p1305
sg9
S'1.000'
p1306
sg11
S'5.1'
p1307
sg13
S'15.4'
p1308
sg14
S'5.1'
p1309
sg16
S'5.1'
p1310
sg18
g3
sg19
g20
sg21
S'0.0'
p1311
sg25
S'NBA'
p1312
sg27
g3
sg28
S'1.000'
p1313
sg30
g3
sg31
S'12.9'
p1314
sg33
S'5.1'
p1315
sg34
S'35'
p1316
sg36
S'NOJ'
p1317
sg38
g471
sg40
g3
sg41
S'5.1'
p1318
sg43
S'12.9'
p1319
sg45
S'1.000'
p1320
sg47
S'0.0'
p1321
sg48
S'1974-75'
p1322
sg50
S'5.1'
p1323
sg52
g3
sg53
S'0.0'
p1324
sg55
S'5.1'
p1325
sg57
S'14'
p1326
sbasS'_fromYear'
p1327
S'1962'
p1328
sS'_url'
p1329
S'http://www.basketball-reference.com/players/b/bellawa01.html'
p1330
sS'_perGame'
p1331
(isrc.gp1.models.PerGame
PerGame
p1332
(dp1333
g8
S'0.0'
p1334
sg9
S'1.000'
p1335
sg11
S'2.0'
p1336
sS'_effectiveFieldGalPercentage'
p1337
S'0.0'
p1338
sg13
S'6.0'
p1339
sg14
S'1.000'
p1340
sg16
S'2.0'
p1341
sg18
g3
sg19
g20
sg21
S'0.0'
p1342
sg25
S'NBA'
p1343
sg27
g3
sg30
g3
sS'_fieldGoalsttempted'
p1344
S'1.000'
p1345
sg31
S'5.0'
p1346
sg33
S'2.0'
p1347
sg34
S'35'
p1348
sg36
S'NOJ'
p1349
sg38
g471
sg40
g3
sg41
S'2.0'
p1350
sg43
S'5.0'
p1351
sg45
S'2.0'
p1352
sg47
S'0.0'
p1353
sg48
S'1974-75'
p1354
sg50
S'2.0'
p1355
sg52
g3
sg53
S'1.000'
p1356
sg55
S'2.0'
p1357
sg57
S'14.0'
p1358
sbsS'_weight'
p1359
S'225'
p1360
sS'_dob'
p1361
S'24-7-1939'
p1362
sS'_salary'
p1363
(lp1364
sg19
g20
sb.