(isrc.gp1.models.Player
Player
p0
(dp1
S'_experience'
p2
S'NA'
p3
sS'_totals'
p4
(lp5
(isrc.gp1.models.Totals
Totals
p6
(dp7
S'_offensiveRebounds'
p8
S'92'
p9
sS'_threePointsAttempted'
p10
g3
sS'_fieldGoalsPercentage'
p11
S'.513'
p12
sS'_assist'
p13
S'167'
p14
sS'_threePointsPercentage'
p15
g3
sS'_threePoints'
p16
g3
sS'_points'
p17
S'448'
p18
sS'_position'
p19
S'C'
p20
sS'_freeThrowsPercentage'
p21
S'.686'
p22
sS'_effectiveFieldGoalPercentage'
p23
S'.513'
p24
sS'_league'
p25
S'NBA'
p26
sS'_steals'
p27
S'29'
p28
sS'_fieldGoalsAttempted'
p29
S'345'
p30
sS'_personalFouls'
p31
S'115'
p32
sS'_freeThrowsAttempted'
p33
S'137'
p34
sS'_totalRebounds'
p35
S'441'
p36
sS'_age'
p37
S'22'
p38
sS'_team'
p39
S'POR'
p40
sS'_games'
p41
S'35'
p42
sS'_blocks'
p43
S'94'
p44
sS'_twoPoints'
p45
S'177'
p46
sS'_freeThrows'
p47
S'94'
p48
sS'_twoPointsAttempted'
p49
S'345'
p50
sS'_defensiveRebounds'
p51
S'349'
p52
sS'_season'
p53
S'1974-75'
p54
sS'_fieldGoals'
p55
S'177'
p56
sS'_turnOvers'
p57
g3
sS'_twoPointsPercentage'
p58
S'.513'
p59
sS'_minutesPlayed'
p60
S'1153'
p61
sS'_gamesStarted'
p62
g3
sba(isrc.gp1.models.Totals
Totals
p63
(dp64
g8
S'132'
p65
sg10
g3
sg11
S'.471'
p66
sg13
S'220'
p67
sg15
g3
sg16
g3
sg17
S'823'
p68
sg19
g20
sg21
S'.583'
p69
sg23
S'.471'
p70
sg25
S'NBA'
p71
sg27
S'49'
p72
sg29
S'732'
p73
sg31
S'144'
p74
sg33
S'228'
p75
sg35
S'681'
p76
sg37
S'23'
p77
sg39
S'POR'
p78
sg41
S'51'
p79
sg43
S'82'
p80
sg45
S'345'
p81
sg47
S'133'
p82
sg49
S'732'
p83
sg51
S'549'
p84
sg53
S'1975-76'
p85
sg55
S'345'
p86
sg57
g3
sg58
S'.471'
p87
sg60
S'1687'
p88
sg62
g3
sba(isrc.gp1.models.Totals
Totals
p89
(dp90
g8
S'211'
p91
sg10
g3
sg11
S'.528'
p92
sg13
S'245'
p93
sg15
g3
sg16
g3
sg17
S'1210'
p94
sg19
g20
sg21
S'.697'
p95
sg23
S'.528'
p96
sg25
S'NBA'
p97
sg27
S'66'
p98
sg29
S'930'
p99
sg31
S'174'
p100
sg33
S'327'
p101
sg35
S'934'
p102
sg37
S'24'
p103
sg39
S'POR'
p104
sg41
S'65'
p105
sg43
S'211'
p106
sg45
S'491'
p107
sg47
S'228'
p108
sg49
S'930'
p109
sg51
S'723'
p110
sg53
S'1976-77'
p111
sg55
S'491'
p112
sg57
g3
sg58
S'.528'
p113
sg60
S'2264'
p114
sg62
g3
sba(isrc.gp1.models.Totals
Totals
p115
(dp116
g8
S'118'
p117
sg10
g3
sg11
S'.522'
p118
sg13
S'291'
p119
sg15
g3
sg16
g3
sg17
S'1097'
p120
sg19
g20
sg21
S'.720'
p121
sg23
S'.522'
p122
sg25
S'NBA'
p123
sg27
S'60'
p124
sg29
S'882'
p125
sg31
S'145'
p126
sg33
S'246'
p127
sg35
S'766'
p128
sg37
S'25'
p129
sg39
S'POR'
p130
sg41
S'58'
p131
sg43
S'146'
p132
sg45
S'460'
p133
sg47
S'177'
p134
sg49
S'882'
p135
sg51
S'648'
p136
sg53
S'1977-78'
p137
sg55
S'460'
p138
sg57
S'206'
p139
sg58
S'.522'
p140
sg60
S'1929'
p141
sg62
g3
sba(isrc.gp1.models.Totals
Totals
p142
(dp143
g8
g3
sg10
g3
sg11
g3
sg13
g3
sg15
g3
sg16
g3
sg17
g3
sg19
g3
sg21
g3
sg23
g3
sg25
g3
sg27
g3
sg29
g3
sg31
g3
sg33
g3
sg35
g3
sg37
S'26'
p144
sg39
S'Did Not Play\xc2\xa0(injury\xe2\x80\x94foot)'
p145
sg41
g3
sg43
g3
sg45
g3
sg47
g3
sg49
g3
sg51
g3
sg53
S'1978-79'
p146
sg55
g3
sg57
g3
sg58
g3
sg60
g3
sg62
g3
sba(isrc.gp1.models.Totals
Totals
p147
(dp148
g8
S'28'
p149
sg10
S'0'
p150
sg11
S'.503'
p151
sg13
S'34'
p152
sg15
g3
sg16
g150
sg17
S'194'
p153
sg19
g20
sg21
S'.593'
p154
sg23
S'.503'
p155
sg25
S'NBA'
p156
sg27
S'8'
p157
sg29
S'161'
p158
sg31
S'37'
p159
sg33
S'54'
p160
sg35
S'126'
p161
sg37
S'27'
p162
sg39
S'SDC'
p163
sg41
S'14'
p164
sg43
S'38'
p165
sg45
S'81'
p166
sg47
S'32'
p167
sg49
S'161'
p168
sg51
S'98'
p169
sg53
S'1979-80'
p170
sg55
S'81'
p171
sg57
S'37'
p172
sg58
S'.503'
p173
sg60
S'337'
p174
sg62
g3
sba(isrc.gp1.models.Totals
Totals
p175
(dp176
g8
g3
sg10
g3
sg11
g3
sg13
g3
sg15
g3
sg16
g3
sg17
g3
sg19
g3
sg21
g3
sg23
g3
sg25
g3
sg27
g3
sg29
g3
sg31
g3
sg33
g3
sg35
g3
sg37
S'28'
p177
sg39
S'Did Not Play\xc2\xa0(injury\xe2\x80\x94foot)'
p178
sg41
g3
sg43
g3
sg45
g3
sg47
g3
sg49
g3
sg51
g3
sg53
S'1980-81'
p179
sg55
g3
sg57
g3
sg58
g3
sg60
g3
sg62
g3
sba(isrc.gp1.models.Totals
Totals
p180
(dp181
g8
g3
sg10
g3
sg11
g3
sg13
g3
sg15
g3
sg16
g3
sg17
g3
sg19
g3
sg21
g3
sg23
g3
sg25
g3
sg27
g3
sg29
g3
sg31
g3
sg33
g3
sg35
g3
sg37
S'29'
p182
sg39
S'Did Not Play\xc2\xa0(injury\xe2\x80\x94foot)'
p183
sg41
g3
sg43
g3
sg45
g3
sg47
g3
sg49
g3
sg51
g3
sg53
S'1981-82'
p184
sg55
g3
sg57
g3
sg58
g3
sg60
g3
sg62
g3
sba(isrc.gp1.models.Totals
Totals
p185
(dp186
g8
S'75'
p187
sg10
g150
sg11
S'.528'
p188
sg13
S'120'
p189
sg15
g3
sg16
g150
sg17
S'465'
p190
sg19
g20
sg21
S'.556'
p191
sg23
S'.528'
p192
sg25
S'NBA'
p193
sg27
S'34'
p194
sg29
S'379'
p195
sg31
S'113'
p196
sg33
S'117'
p197
sg35
S'323'
p198
sg37
S'30'
p199
sg39
S'SDC'
p200
sg41
S'33'
p201
sg43
S'119'
p202
sg45
S'200'
p203
sg47
S'65'
p204
sg49
S'379'
p205
sg51
S'248'
p206
sg53
S'1982-83'
p207
sg55
S'200'
p208
sg57
S'105'
p209
sg58
S'.528'
p210
sg60
S'1099'
p211
sg62
S'32'
p212
sba(isrc.gp1.models.Totals
Totals
p213
(dp214
g8
S'132'
p215
sg10
S'2'
p216
sg11
S'.556'
p217
sg13
S'183'
p218
sg15
S'.000'
p219
sg16
g150
sg17
S'668'
p220
sg19
g20
sg21
S'.597'
p221
sg23
S'.556'
p222
sg25
S'NBA'
p223
sg27
S'45'
p224
sg29
S'518'
p225
sg31
S'153'
p226
sg33
S'154'
p227
sg35
S'477'
p228
sg37
S'31'
p229
sg39
S'SDC'
p230
sg41
S'55'
p231
sg43
S'88'
p232
sg45
S'288'
p233
sg47
S'92'
p234
sg49
S'516'
p235
sg51
S'345'
p236
sg53
S'1983-84'
p237
sg55
S'288'
p238
sg57
S'177'
p239
sg58
S'.558'
p240
sg60
S'1476'
p241
sg62
S'46'
p242
sba(isrc.gp1.models.Totals
Totals
p243
(dp244
g8
S'168'
p245
sg10
g216
sg11
S'.521'
p246
sg13
S'156'
p247
sg15
S'.000'
p248
sg16
g150
sg17
S'676'
p249
sg19
g20
sg21
S'.680'
p250
sg23
S'.521'
p251
sg25
S'NBA'
p252
sg27
S'50'
p253
sg29
S'516'
p254
sg31
S'184'
p255
sg33
S'203'
p256
sg35
S'600'
p257
sg37
S'32'
p258
sg39
S'LAC'
p259
sg41
S'67'
p260
sg43
S'140'
p261
sg45
S'269'
p262
sg47
S'138'
p263
sg49
S'514'
p264
sg51
S'432'
p265
sg53
S'1984-85'
p266
sg55
S'269'
p267
sg57
S'174'
p268
sg58
S'.523'
p269
sg60
S'1647'
p270
sg62
S'37'
p271
sba(isrc.gp1.models.Totals
Totals
p272
(dp273
g8
S'136'
p274
sg10
g150
sg11
S'.562'
p275
sg13
S'165'
p276
sg15
g3
sg16
g150
sg17
S'606'
p277
sg19
g20
sg21
S'.713'
p278
sg23
S'.562'
p279
sg25
S'NBA'
p280
sg27
S'38'
p281
sg29
S'411'
p282
sg31
S'210'
p283
sg33
S'202'
p284
sg35
S'544'
p285
sg37
S'33'
p286
sg39
S'BOS'
p287
sg41
S'80'
p288
sg43
S'106'
p289
sg45
S'231'
p290
sg47
S'144'
p291
sg49
S'411'
p292
sg51
S'408'
p293
sg53
S'1985-86'
p294
sg55
S'231'
p295
sg57
S'151'
p296
sg58
S'.562'
p297
sg60
S'1546'
p298
sg62
g216
sba(isrc.gp1.models.Totals
Totals
p299
(dp300
g8
S'11'
p301
sg10
g150
sg11
S'.385'
p302
sg13
S'9'
p303
sg15
g3
sg16
g150
sg17
S'28'
p304
sg19
g20
sg21
S'.533'
p305
sg23
S'.385'
p306
sg25
S'NBA'
p307
sg27
S'1'
p308
sg29
S'26'
p309
sg31
S'23'
p310
sg33
S'15'
p311
sg35
S'31'
p312
sg37
S'34'
p313
sg39
S'BOS'
p314
sg41
S'10'
p315
sg43
S'10'
p316
sg45
S'10'
p317
sg47
g157
sg49
S'26'
p318
sg51
S'20'
p319
sg53
S'1986-87'
p320
sg55
S'10'
p321
sg57
S'15'
p322
sg58
S'.385'
p323
sg60
S'112'
p324
sg62
g150
sbasS'_college'
p325
S'University of California, Los Angeles'
p326
sS'_toYear'
p327
S'1987'
p328
sS'_height'
p329
S'6-11'
p330
sS'_active'
p331
I00
sS'_shootingHand'
p332
VRight
p333
sS'_name'
p334
S'Bill Walton'
p335
sS'_per100Possessions'
p336
(lp337
(isrc.gp1.models.Per100Possession
Per100Possession
p338
(dp339
g8
S'3.7'
p340
sg10
g3
sg11
S'.513'
p341
sS'_offensiveRating'
p342
g3
sg13
S'6.6'
p343
sg15
g3
sg16
g3
sg17
S'17.8'
p344
sg19
g20
sS'_defensiveRating'
p345
S'91'
p346
sg21
S'.686'
p347
sg25
S'NBA'
p348
sg27
S'1.2'
p349
sg29
S'13.7'
p350
sg31
S'4.6'
p351
sg33
S'5.4'
p352
sg35
S'17.5'
p353
sg37
S'22'
p354
sg39
S'POR'
p355
sg41
S'35'
p356
sg43
S'3.7'
p357
sg45
S'7.0'
p358
sg47
S'3.7'
p359
sg49
S'13.7'
p360
sg51
S'13.9'
p361
sg53
S'1974-75'
p362
sg55
S'7.0'
p363
sg57
g3
sg58
S'.513'
p364
sg60
S'1153'
p365
sg62
g3
sba(isrc.gp1.models.Per100Possession
Per100Possession
p366
(dp367
g8
S'3.5'
p368
sg10
g3
sg11
S'.471'
p369
sg342
g3
sg13
S'5.8'
p370
sg15
g3
sg16
g3
sg17
S'21.8'
p371
sg19
g20
sg345
S'92'
p372
sg21
S'.583'
p373
sg25
S'NBA'
p374
sg27
S'1.3'
p375
sg29
S'19.3'
p376
sg31
S'3.8'
p377
sg33
S'6.0'
p378
sg35
S'18.0'
p379
sg37
S'23'
p380
sg39
S'POR'
p381
sg41
S'51'
p382
sg43
S'2.2'
p383
sg45
S'9.1'
p384
sg47
S'3.5'
p385
sg49
S'19.3'
p386
sg51
S'14.5'
p387
sg53
S'1975-76'
p388
sg55
S'9.1'
p389
sg57
g3
sg58
S'.471'
p390
sg60
S'1687'
p391
sg62
g3
sba(isrc.gp1.models.Per100Possession
Per100Possession
p392
(dp393
g8
S'4.1'
p394
sg10
g3
sg11
S'.528'
p395
sg342
g3
sg13
S'4.8'
p396
sg15
g3
sg16
g3
sg17
S'23.7'
p397
sg19
g20
sg345
S'91'
p398
sg21
S'.697'
p399
sg25
S'NBA'
p400
sg27
S'1.3'
p401
sg29
S'18.3'
p402
sg31
S'3.4'
p403
sg33
S'6.4'
p404
sg35
S'18.3'
p405
sg37
S'24'
p406
sg39
S'POR'
p407
sg41
S'65'
p408
sg43
S'4.1'
p409
sg45
S'9.6'
p410
sg47
S'4.5'
p411
sg49
S'18.3'
p412
sg51
S'14.2'
p413
sg53
S'1976-77'
p414
sg55
S'9.6'
p415
sg57
g3
sg58
S'.528'
p416
sg60
S'2264'
p417
sg62
g3
sba(isrc.gp1.models.Per100Possession
Per100Possession
p418
(dp419
g8
S'2.8'
p420
sg10
g3
sg11
S'.522'
p421
sg342
S'105'
p422
sg13
S'7.0'
p423
sg15
g3
sg16
g3
sg17
S'26.2'
p424
sg19
g20
sg345
S'89'
p425
sg21
S'.720'
p426
sg25
S'NBA'
p427
sg27
S'1.4'
p428
sg29
S'21.1'
p429
sg31
S'3.5'
p430
sg33
S'5.9'
p431
sg35
S'18.3'
p432
sg37
S'25'
p433
sg39
S'POR'
p434
sg41
S'58'
p435
sg43
S'3.5'
p436
sg45
S'11.0'
p437
sg47
S'4.2'
p438
sg49
S'21.1'
p439
sg51
S'15.5'
p440
sg53
S'1977-78'
p441
sg55
S'11.0'
p442
sg57
S'4.9'
p443
sg58
S'.522'
p444
sg60
S'1929'
p445
sg62
g3
sba(isrc.gp1.models.Per100Possession
Per100Possession
p446
(dp447
g8
S'3.9'
p448
sg10
S'0.0'
p449
sg11
S'.503'
p450
sg342
S'101'
p451
sg13
S'4.8'
p452
sg15
g3
sg16
S'0.0'
p453
sg17
S'27.3'
p454
sg19
g20
sg345
S'101'
p455
sg21
S'.593'
p456
sg25
S'NBA'
p457
sg27
S'1.1'
p458
sg29
S'22.6'
p459
sg31
S'5.2'
p460
sg33
S'7.6'
p461
sg35
S'17.7'
p462
sg37
S'27'
p463
sg39
S'SDC'
p464
sg41
S'14'
p465
sg43
S'5.3'
p466
sg45
S'11.4'
p467
sg47
S'4.5'
p468
sg49
S'22.6'
p469
sg51
S'13.8'
p470
sg53
S'1979-80'
p471
sg55
S'11.4'
p472
sg57
S'5.2'
p473
sg58
S'.503'
p474
sg60
S'337'
p475
sg62
g3
sba(isrc.gp1.models.Per100Possession
Per100Possession
p476
(dp477
g8
S'3.2'
p478
sg10
S'0.0'
p479
sg11
S'.528'
p480
sg342
S'101'
p481
sg13
S'5.1'
p482
sg15
g3
sg16
S'0.0'
p483
sg17
S'19.7'
p484
sg19
g20
sg345
S'103'
p485
sg21
S'.556'
p486
sg25
S'NBA'
p487
sg27
S'1.4'
p488
sg29
S'16.1'
p489
sg31
S'4.8'
p490
sg33
S'5.0'
p491
sg35
S'13.7'
p492
sg37
S'30'
p493
sg39
S'SDC'
p494
sg41
S'33'
p495
sg43
S'5.0'
p496
sg45
S'8.5'
p497
sg47
S'2.8'
p498
sg49
S'16.1'
p499
sg51
S'10.5'
p500
sg53
S'1982-83'
p501
sg55
S'8.5'
p502
sg57
S'4.5'
p503
sg58
S'.528'
p504
sg60
S'1099'
p505
sg62
S'32'
p506
sba(isrc.gp1.models.Per100Possession
Per100Possession
p507
(dp508
g8
S'4.2'
p509
sg10
S'0.1'
p510
sg11
S'.556'
p511
sg342
S'102'
p512
sg13
S'5.9'
p513
sg15
S'.000'
p514
sg16
S'0.0'
p515
sg17
S'21.5'
p516
sg19
g20
sg345
S'107'
p517
sg21
S'.597'
p518
sg25
S'NBA'
p519
sg27
S'1.4'
p520
sg29
S'16.7'
p521
sg31
S'4.9'
p522
sg33
S'5.0'
p523
sg35
S'15.3'
p524
sg37
S'31'
p525
sg39
S'SDC'
p526
sg41
S'55'
p527
sg43
S'2.8'
p528
sg45
S'9.3'
p529
sg47
S'3.0'
p530
sg49
S'16.6'
p531
sg51
S'11.1'
p532
sg53
S'1983-84'
p533
sg55
S'9.3'
p534
sg57
S'5.7'
p535
sg58
S'.558'
p536
sg60
S'1476'
p537
sg62
S'46'
p538
sba(isrc.gp1.models.Per100Possession
Per100Possession
p539
(dp540
g8
S'4.9'
p541
sg10
S'0.1'
p542
sg11
S'.521'
p543
sg342
S'102'
p544
sg13
S'4.5'
p545
sg15
S'.000'
p546
sg16
S'0.0'
p547
sg17
S'19.5'
p548
sg19
g20
sg345
S'103'
p549
sg21
S'.680'
p550
sg25
S'NBA'
p551
sg27
S'1.4'
p552
sg29
S'14.9'
p553
sg31
S'5.3'
p554
sg33
S'5.9'
p555
sg35
S'17.3'
p556
sg37
S'32'
p557
sg39
S'LAC'
p558
sg41
S'67'
p559
sg43
S'4.0'
p560
sg45
S'7.8'
p561
sg47
S'4.0'
p562
sg49
S'14.8'
p563
sg51
S'12.5'
p564
sg53
S'1984-85'
p565
sg55
S'7.8'
p566
sg57
S'5.0'
p567
sg58
S'.523'
p568
sg60
S'1647'
p569
sg62
S'37'
p570
sba(isrc.gp1.models.Per100Possession
Per100Possession
p571
(dp572
g8
S'4.2'
p573
sg10
S'0.0'
p574
sg11
S'.562'
p575
sg342
S'108'
p576
sg13
S'5.1'
p577
sg15
g3
sg16
S'0.0'
p578
sg17
S'18.6'
p579
sg19
g20
sg345
S'97'
p580
sg21
S'.713'
p581
sg25
S'NBA'
p582
sg27
S'1.2'
p583
sg29
S'12.6'
p584
sg31
S'6.4'
p585
sg33
S'6.2'
p586
sg35
S'16.7'
p587
sg37
S'33'
p588
sg39
S'BOS'
p589
sg41
S'80'
p590
sg43
S'3.3'
p591
sg45
S'7.1'
p592
sg47
S'4.4'
p593
sg49
S'12.6'
p594
sg51
S'12.5'
p595
sg53
S'1985-86'
p596
sg55
S'7.1'
p597
sg57
S'4.6'
p598
sg58
S'.562'
p599
sg60
S'1546'
p600
sg62
g216
sba(isrc.gp1.models.Per100Possession
Per100Possession
p601
(dp602
g8
S'4.8'
p603
sg10
S'0.0'
p604
sg11
S'.385'
p605
sg342
S'79'
p606
sg13
S'3.9'
p607
sg15
g3
sg16
S'0.0'
p608
sg17
S'12.2'
p609
sg19
g20
sg345
S'104'
p610
sg21
S'.533'
p611
sg25
S'NBA'
p612
sg27
S'0.4'
p613
sg29
S'11.3'
p614
sg31
S'10.0'
p615
sg33
S'6.5'
p616
sg35
S'13.5'
p617
sg37
S'34'
p618
sg39
S'BOS'
p619
sg41
S'10'
p620
sg43
S'4.3'
p621
sg45
S'4.3'
p622
sg47
S'3.5'
p623
sg49
S'11.3'
p624
sg51
S'8.7'
p625
sg53
S'1986-87'
p626
sg55
S'4.3'
p627
sg57
S'6.5'
p628
sg58
S'.385'
p629
sg60
S'112'
p630
sg62
g150
sbasS'_advanced'
p631
(lp632
(isrc.gp1.models.Advanced
Advanced
p633
(dp634
S'_offensiveReboundPercentage'
p635
S'8.8'
p636
sS'_turnOverPercentage'
p637
g3
sS'_winSharesPer48Minutes'
p638
S'.151'
p639
sS'_stealPercentage'
p640
S'1.2'
p641
sS'_usagePercentage'
p642
g3
sS'_totalReboundsPercentage'
p643
S'20.0'
p644
sS'_defensiveBoxPlusMinus'
p645
S'4.3'
p646
sg19
g20
sS'_valueOverReplacementPlayer'
p647
S'2.3'
p648
sS'_trueShootingPercentage'
p649
S'.553'
p650
sS'_defensiveReboundPercentage'
p651
S'30.4'
p652
sS'_freeThrowsAttempRate'
p653
S'.397'
p654
sS'_threePointsAttempRate'
p655
g3
sg25
S'NBA'
p656
sS'_offensiveBoxPlusMinues'
p657
S'1.5'
p658
sS'_assistPercentage'
p659
S'20.5'
p660
sS'_defensiveWinShares'
p661
S'2.2'
p662
sg37
S'22'
p663
sg39
S'POR'
p664
sg41
S'35'
p665
sS'_blockPercentage'
p666
S'4.3'
p667
sS'_playerEfficiencyRating'
p668
S'20.0'
p669
sS'_offensiveWinShares'
p670
S'1.5'
p671
sg60
S'1153'
p672
sS'_boxPlusMinus'
p673
S'5.9'
p674
sg53
S'1974-75'
p675
sS'_winShares'
p676
S'3.6'
p677
sba(isrc.gp1.models.Advanced
Advanced
p678
(dp679
g635
S'8.2'
p680
sg637
g3
sg638
S'.109'
p681
sg640
S'1.3'
p682
sg642
g3
sg643
S'20.6'
p683
sg645
S'2.9'
p684
sg19
g20
sg647
S'2.4'
p685
sg649
S'.494'
p686
sg651
S'32.4'
p687
sg653
S'.311'
p688
sg655
g3
sg25
S'NBA'
p689
sg657
S'0.6'
p690
sg659
S'19.7'
p691
sg661
S'3.1'
p692
sg37
S'23'
p693
sg39
S'POR'
p694
sg41
S'51'
p695
sg666
S'2.5'
p696
sg668
S'19.5'
p697
sg670
S'0.7'
p698
sg60
S'1687'
p699
sg673
S'3.5'
p700
sg53
S'1975-76'
p701
sg676
S'3.8'
p702
sba(isrc.gp1.models.Advanced
Advanced
p703
(dp704
g635
S'9.8'
p705
sg637
g3
sg638
S'.215'
p706
sg640
S'1.3'
p707
sg642
g3
sg643
S'21.2'
p708
sg645
S'4.1'
p709
sg19
g20
sg647
S'5.1'
p710
sg649
S'.563'
p711
sg651
S'32.3'
p712
sg653
S'.352'
p713
sg655
g3
sg25
S'NBA'
p714
sg657
S'2.9'
p715
sg659
S'15.4'
p716
sg661
S'4.8'
p717
sg37
S'24'
p718
sg39
S'POR'
p719
sg41
S'65'
p720
sg666
S'5.0'
p721
sg668
S'22.9'
p722
sg670
S'5.4'
p723
sg60
S'2264'
p724
sg673
S'7.0'
p725
sg53
S'1976-77'
p726
sg676
S'10.2'
p727
sba(isrc.gp1.models.Advanced
Advanced
p728
(dp729
g635
S'6.5'
p730
sg637
S'17.2'
p731
sg638
S'.209'
p732
sg640
S'1.4'
p733
sg642
S'24.5'
p734
sg643
S'20.7'
p735
sg645
S'4.8'
p736
sg19
g20
sg647
S'4.4'
p737
sg649
S'.554'
p738
sg651
S'34.2'
p739
sg653
S'.279'
p740
sg655
g3
sg25
S'NBA'
p741
sg657
S'2.2'
p742
sg659
S'22.8'
p743
sg661
S'4.8'
p744
sg37
S'25'
p745
sg39
S'POR'
p746
sg41
S'58'
p747
sg666
S'4.1'
p748
sg668
S'24.8'
p749
sg670
S'3.6'
p750
sg60
S'1929'
p751
sg673
S'7.0'
p752
sg53
S'1977-78'
p753
sg676
S'8.4'
p754
sba(isrc.gp1.models.Advanced
Advanced
p755
(dp756
g635
S'8.7'
p757
sg637
S'16.7'
p758
sg638
S'.108'
p759
sg640
S'1.1'
p760
sg642
S'26.3'
p761
sg643
S'20.2'
p762
sg645
S'2.4'
p763
sg19
g20
sg647
S'0.3'
p764
sg649
S'.525'
p765
sg651
S'32.5'
p766
sg653
S'.335'
p767
sg655
S'.000'
p768
sg25
S'NBA'
p769
sg657
S'-1.3'
p770
sg659
S'15.5'
p771
sg661
S'0.5'
p772
sg37
S'27'
p773
sg39
S'SDC'
p774
sg41
S'14'
p775
sg666
S'6.1'
p776
sg668
S'22.2'
p777
sg670
S'0.2'
p778
sg60
S'337'
p779
sg673
S'1.1'
p780
sg53
S'1979-80'
p781
sg676
S'0.8'
p782
sba(isrc.gp1.models.Advanced
Advanced
p783
(dp784
g635
S'7.2'
p785
sg637
S'19.6'
p786
sg638
S'.086'
p787
sg640
S'1.4'
p788
sg642
S'18.9'
p789
sg643
S'16.7'
p790
sg645
S'3.6'
p791
sg19
g20
sg647
S'1.2'
p792
sg649
S'.540'
p793
sg651
S'27.9'
p794
sg653
S'.309'
p795
sg655
S'.000'
p796
sg25
S'NBA'
p797
sg657
S'-1.1'
p798
sg659
S'14.9'
p799
sg661
S'1.3'
p800
sg37
S'30'
p801
sg39
S'SDC'
p802
sg41
S'33'
p803
sg666
S'6.3'
p804
sg668
S'18.0'
p805
sg670
S'0.6'
p806
sg60
S'1099'
p807
sg673
S'2.5'
p808
sg53
S'1982-83'
p809
sg676
S'2.0'
p810
sba(isrc.gp1.models.Advanced
Advanced
p811
(dp812
g635
S'10.2'
p813
sg637
S'23.2'
p814
sg638
S'.074'
p815
sg640
S'1.4'
p816
sg642
S'20.6'
p817
sg643
S'18.3'
p818
sg645
S'2.8'
p819
sg19
g20
sg647
S'1.9'
p820
sg649
S'.570'
p821
sg651
S'26.4'
p822
sg653
S'.297'
p823
sg655
S'.004'
p824
sg25
S'NBA'
p825
sg657
S'0.3'
p826
sg659
S'17.1'
p827
sg661
S'1.6'
p828
sg37
S'31'
p829
sg39
S'SDC'
p830
sg41
S'55'
p831
sg666
S'3.3'
p832
sg668
S'17.9'
p833
sg670
S'0.7'
p834
sg60
S'1476'
p835
sg673
S'3.1'
p836
sg53
S'1983-84'
p837
sg676
S'2.3'
p838
sba(isrc.gp1.models.Advanced
Advanced
p839
(dp840
g635
S'11.7'
p841
sg637
S'22.3'
p842
sg638
S'.097'
p843
sg640
S'1.4'
p844
sg642
S'19.3'
p845
sg643
S'20.2'
p846
sg645
S'3.6'
p847
sg19
g20
sg647
S'1.9'
p848
sg649
S'.558'
p849
sg651
S'28.1'
p850
sg653
S'.393'
p851
sg655
S'.004'
p852
sg25
S'NBA'
p853
sg657
S'-1.0'
p854
sg659
S'13.0'
p855
sg661
S'2.7'
p856
sg37
S'32'
p857
sg39
S'LAC'
p858
sg41
S'67'
p859
sg666
S'4.6'
p860
sg668
S'17.8'
p861
sg670
S'0.6'
p862
sg60
S'1647'
p863
sg673
S'2.6'
p864
sg53
S'1984-85'
p865
sg676
S'3.3'
p866
sba(isrc.gp1.models.Advanced
Advanced
p867
(dp868
g635
S'10.4'
p869
sg637
S'23.2'
p870
sg638
S'.157'
p871
sg640
S'1.2'
p872
sg642
S'17.3'
p873
sg643
S'19.4'
p874
sg645
S'3.7'
p875
sg19
g20
sg647
S'2.0'
p876
sg649
S'.606'
p877
sg651
S'27.3'
p878
sg653
S'.491'
p879
sg655
S'.000'
p880
sg25
S'NBA'
p881
sg657
S'-0.6'
p882
sg659
S'13.6'
p883
sg661
S'3.4'
p884
sg37
S'33'
p885
sg39
S'BOS'
p886
sg41
S'80'
p887
sg666
S'3.8'
p888
sg668
S'17.0'
p889
sg670
S'1.6'
p890
sg60
S'1546'
p891
sg673
S'3.1'
p892
sg53
S'1985-86'
p893
sg676
S'5.0'
p894
sba(isrc.gp1.models.Advanced
Advanced
p895
(dp896
g635
S'12.1'
p897
sg637
S'31.5'
p898
sg638
S'-0.047'
p899
sg640
S'0.4'
p900
sg642
S'18.1'
p901
sg643
S'15.6'
p902
sg645
S'2.0'
p903
sg19
g20
sg647
S'-0.1'
p904
sg649
S'.429'
p905
sg651
S'18.5'
p906
sg653
S'.577'
p907
sg655
S'.000'
p908
sg25
S'NBA'
p909
sg657
S'-7.0'
p910
sg659
S'9.7'
p911
sg661
S'0.2'
p912
sg37
S'34'
p913
sg39
S'BOS'
p914
sg41
S'10'
p915
sg666
S'5.0'
p916
sg668
S'5.6'
p917
sg670
S'-0.3'
p918
sg60
S'112'
p919
sg673
S'-5.0'
p920
sg53
S'1986-87'
p921
sg676
S'-0.1'
p922
sbasS'_per36Minutes'
p923
(lp924
(isrc.gp1.models.Per36Minutes
Per36Minutes
p925
(dp926
g8
S'2.9'
p927
sg10
g3
sg11
S'.513'
p928
sg13
S'5.2'
p929
sg15
g3
sg16
g3
sg17
S'14.0'
p930
sg19
g20
sg21
S'.686'
p931
sg25
S'NBA'
p932
sg27
S'0.9'
p933
sg29
S'10.8'
p934
sg31
S'3.6'
p935
sg33
S'4.3'
p936
sg35
S'13.8'
p937
sg37
S'22'
p938
sg39
S'POR'
p939
sg41
S'35'
p940
sg43
S'2.9'
p941
sg45
S'5.5'
p942
sg47
S'2.9'
p943
sg49
S'10.8'
p944
sg51
S'10.9'
p945
sg53
S'1974-75'
p946
sg55
S'5.5'
p947
sg57
g3
sg58
S'.513'
p948
sg60
S'1153'
p949
sg62
g3
sba(isrc.gp1.models.Per36Minutes
Per36Minutes
p950
(dp951
g8
S'2.8'
p952
sg10
g3
sg11
S'.471'
p953
sg13
S'4.7'
p954
sg15
g3
sg16
g3
sg17
S'17.6'
p955
sg19
g20
sg21
S'.583'
p956
sg25
S'NBA'
p957
sg27
S'1.0'
p958
sg29
S'15.6'
p959
sg31
S'3.1'
p960
sg33
S'4.9'
p961
sg35
S'14.5'
p962
sg37
S'23'
p963
sg39
S'POR'
p964
sg41
S'51'
p965
sg43
S'1.7'
p966
sg45
S'7.4'
p967
sg47
S'2.8'
p968
sg49
S'15.6'
p969
sg51
S'11.7'
p970
sg53
S'1975-76'
p971
sg55
S'7.4'
p972
sg57
g3
sg58
S'.471'
p973
sg60
S'1687'
p974
sg62
g3
sba(isrc.gp1.models.Per36Minutes
Per36Minutes
p975
(dp976
g8
S'3.4'
p977
sg10
g3
sg11
S'.528'
p978
sg13
S'3.9'
p979
sg15
g3
sg16
g3
sg17
S'19.2'
p980
sg19
g20
sg21
S'.697'
p981
sg25
S'NBA'
p982
sg27
S'1.0'
p983
sg29
S'14.8'
p984
sg31
S'2.8'
p985
sg33
S'5.2'
p986
sg35
S'14.9'
p987
sg37
S'24'
p988
sg39
S'POR'
p989
sg41
S'65'
p990
sg43
S'3.4'
p991
sg45
S'7.8'
p992
sg47
S'3.6'
p993
sg49
S'14.8'
p994
sg51
S'11.5'
p995
sg53
S'1976-77'
p996
sg55
S'7.8'
p997
sg57
g3
sg58
S'.528'
p998
sg60
S'2264'
p999
sg62
g3
sba(isrc.gp1.models.Per36Minutes
Per36Minutes
p1000
(dp1001
g8
S'2.2'
p1002
sg10
g3
sg11
S'.522'
p1003
sg13
S'5.4'
p1004
sg15
g3
sg16
g3
sg17
S'20.5'
p1005
sg19
g20
sg21
S'.720'
p1006
sg25
S'NBA'
p1007
sg27
S'1.1'
p1008
sg29
S'16.5'
p1009
sg31
S'2.7'
p1010
sg33
S'4.6'
p1011
sg35
S'14.3'
p1012
sg37
S'25'
p1013
sg39
S'POR'
p1014
sg41
S'58'
p1015
sg43
S'2.7'
p1016
sg45
S'8.6'
p1017
sg47
S'3.3'
p1018
sg49
S'16.5'
p1019
sg51
S'12.1'
p1020
sg53
S'1977-78'
p1021
sg55
S'8.6'
p1022
sg57
S'3.8'
p1023
sg58
S'.522'
p1024
sg60
S'1929'
p1025
sg62
g3
sba(isrc.gp1.models.Per36Minutes
Per36Minutes
p1026
(dp1027
g8
S'3.0'
p1028
sg10
S'0.0'
p1029
sg11
S'.503'
p1030
sg13
S'3.6'
p1031
sg15
g3
sg16
S'0.0'
p1032
sg17
S'20.7'
p1033
sg19
g20
sg21
S'.593'
p1034
sg25
S'NBA'
p1035
sg27
S'0.9'
p1036
sg29
S'17.2'
p1037
sg31
S'4.0'
p1038
sg33
S'5.8'
p1039
sg35
S'13.5'
p1040
sg37
S'27'
p1041
sg39
S'SDC'
p1042
sg41
S'14'
p1043
sg43
S'4.1'
p1044
sg45
S'8.7'
p1045
sg47
S'3.4'
p1046
sg49
S'17.2'
p1047
sg51
S'10.5'
p1048
sg53
S'1979-80'
p1049
sg55
S'8.7'
p1050
sg57
S'4.0'
p1051
sg58
S'.503'
p1052
sg60
S'337'
p1053
sg62
g3
sba(isrc.gp1.models.Per36Minutes
Per36Minutes
p1054
(dp1055
g8
S'2.5'
p1056
sg10
S'0.0'
p1057
sg11
S'.528'
p1058
sg13
S'3.9'
p1059
sg15
g3
sg16
S'0.0'
p1060
sg17
S'15.2'
p1061
sg19
g20
sg21
S'.556'
p1062
sg25
S'NBA'
p1063
sg27
S'1.1'
p1064
sg29
S'12.4'
p1065
sg31
S'3.7'
p1066
sg33
S'3.8'
p1067
sg35
S'10.6'
p1068
sg37
S'30'
p1069
sg39
S'SDC'
p1070
sg41
S'33'
p1071
sg43
S'3.9'
p1072
sg45
S'6.6'
p1073
sg47
S'2.1'
p1074
sg49
S'12.4'
p1075
sg51
S'8.1'
p1076
sg53
S'1982-83'
p1077
sg55
S'6.6'
p1078
sg57
S'3.4'
p1079
sg58
S'.528'
p1080
sg60
S'1099'
p1081
sg62
S'32'
p1082
sba(isrc.gp1.models.Per36Minutes
Per36Minutes
p1083
(dp1084
g8
S'3.2'
p1085
sg10
S'0.0'
p1086
sg11
S'.556'
p1087
sg13
S'4.5'
p1088
sg15
S'.000'
p1089
sg16
S'0.0'
p1090
sg17
S'16.3'
p1091
sg19
g20
sg21
S'.597'
p1092
sg25
S'NBA'
p1093
sg27
S'1.1'
p1094
sg29
S'12.6'
p1095
sg31
S'3.7'
p1096
sg33
S'3.8'
p1097
sg35
S'11.6'
p1098
sg37
S'31'
p1099
sg39
S'SDC'
p1100
sg41
S'55'
p1101
sg43
S'2.1'
p1102
sg45
S'7.0'
p1103
sg47
S'2.2'
p1104
sg49
S'12.6'
p1105
sg51
S'8.4'
p1106
sg53
S'1983-84'
p1107
sg55
S'7.0'
p1108
sg57
S'4.3'
p1109
sg58
S'.558'
p1110
sg60
S'1476'
p1111
sg62
S'46'
p1112
sba(isrc.gp1.models.Per36Minutes
Per36Minutes
p1113
(dp1114
g8
S'3.7'
p1115
sg10
S'0.0'
p1116
sg11
S'.521'
p1117
sg13
S'3.4'
p1118
sg15
S'.000'
p1119
sg16
S'0.0'
p1120
sg17
S'14.8'
p1121
sg19
g20
sg21
S'.680'
p1122
sg25
S'NBA'
p1123
sg27
S'1.1'
p1124
sg29
S'11.3'
p1125
sg31
S'4.0'
p1126
sg33
S'4.4'
p1127
sg35
S'13.1'
p1128
sg37
S'32'
p1129
sg39
S'LAC'
p1130
sg41
S'67'
p1131
sg43
S'3.1'
p1132
sg45
S'5.9'
p1133
sg47
S'3.0'
p1134
sg49
S'11.2'
p1135
sg51
S'9.4'
p1136
sg53
S'1984-85'
p1137
sg55
S'5.9'
p1138
sg57
S'3.8'
p1139
sg58
S'.523'
p1140
sg60
S'1647'
p1141
sg62
S'37'
p1142
sba(isrc.gp1.models.Per36Minutes
Per36Minutes
p1143
(dp1144
g8
S'3.2'
p1145
sg10
S'0.0'
p1146
sg11
S'.562'
p1147
sg13
S'3.8'
p1148
sg15
g3
sg16
S'0.0'
p1149
sg17
S'14.1'
p1150
sg19
g20
sg21
S'.713'
p1151
sg25
S'NBA'
p1152
sg27
S'0.9'
p1153
sg29
S'9.6'
p1154
sg31
S'4.9'
p1155
sg33
S'4.7'
p1156
sg35
S'12.7'
p1157
sg37
S'33'
p1158
sg39
S'BOS'
p1159
sg41
S'80'
p1160
sg43
S'2.5'
p1161
sg45
S'5.4'
p1162
sg47
S'3.4'
p1163
sg49
S'9.6'
p1164
sg51
S'9.5'
p1165
sg53
S'1985-86'
p1166
sg55
S'5.4'
p1167
sg57
S'3.5'
p1168
sg58
S'.562'
p1169
sg60
S'1546'
p1170
sg62
g216
sba(isrc.gp1.models.Per36Minutes
Per36Minutes
p1171
(dp1172
g8
S'3.5'
p1173
sg10
S'0.0'
p1174
sg11
S'.385'
p1175
sg13
S'2.9'
p1176
sg15
g3
sg16
S'0.0'
p1177
sg17
S'9.0'
p1178
sg19
g20
sg21
S'.533'
p1179
sg25
S'NBA'
p1180
sg27
S'0.3'
p1181
sg29
S'8.4'
p1182
sg31
S'7.4'
p1183
sg33
S'4.8'
p1184
sg35
S'10.0'
p1185
sg37
S'34'
p1186
sg39
S'BOS'
p1187
sg41
S'10'
p1188
sg43
S'3.2'
p1189
sg45
S'3.2'
p1190
sg47
S'2.6'
p1191
sg49
S'8.4'
p1192
sg51
S'6.4'
p1193
sg53
S'1986-87'
p1194
sg55
S'3.2'
p1195
sg57
S'4.8'
p1196
sg58
S'.385'
p1197
sg60
S'112'
p1198
sg62
g150
sbasS'_fromYear'
p1199
S'1975'
p1200
sS'_url'
p1201
S'http://www.basketball-reference.com/players/w/waltobi01.html'
p1202
sS'_perGame'
p1203
(isrc.gp1.models.PerGame
PerGame
p1204
(dp1205
g8
S'1.1'
p1206
sg10
S'0.0'
p1207
sg11
S'.385'
p1208
sS'_effectiveFieldGalPercentage'
p1209
S'.385'
p1210
sg13
S'0.9'
p1211
sg15
g3
sg16
S'0.0'
p1212
sg17
S'2.8'
p1213
sg19
g20
sg21
S'.533'
p1214
sg25
S'NBA'
p1215
sg27
S'0.1'
p1216
sg31
S'2.3'
p1217
sS'_fieldGoalsttempted'
p1218
S'2.6'
p1219
sg33
S'1.5'
p1220
sg35
S'3.1'
p1221
sg37
S'34'
p1222
sg39
S'BOS'
p1223
sg41
S'10'
p1224
sg43
S'1.0'
p1225
sg45
S'1.0'
p1226
sg47
S'0.8'
p1227
sg49
S'2.6'
p1228
sg51
S'2.0'
p1229
sg53
S'1986-87'
p1230
sg55
S'1.0'
p1231
sg57
S'1.5'
p1232
sg58
S'.385'
p1233
sg60
S'11.2'
p1234
sg62
g150
sbsS'_weight'
p1235
S'210'
p1236
sS'_dob'
p1237
S'5-11-1952'
p1238
sS'_salary'
p1239
(lp1240
(isrc.gp1.models.Salary
Salary
p1241
(dp1242
g39
S'Boston Celtics'
p1243
sg25
S'NBA'
p1244
sg1239
S'$425,000'
p1245
sg53
S'1985-86'
p1246
sba(isrc.gp1.models.Salary
Salary
p1247
(dp1248
g39
S'Boston Celtics'
p1249
sg25
S'NBA'
p1250
sg1239
S'$425,000'
p1251
sg53
S'1987-88'
p1252
sbasg19
S'C-F'
p1253
sb.