(isrc.gp1.models.Player
Player
p0
(dp1
S'_experience'
p2
S'NA'
p3
sS'_totals'
p4
(lp5
(isrc.gp1.models.Totals
Totals
p6
(dp7
S'_offensiveRebounds'
p8
S'216'
p9
sS'_threePointsAttempted'
p10
S'.329'
p11
sS'_fieldGoalsPercentage'
p12
S'27'
p13
sS'_assist'
p14
S'100'
p15
sS'_threePointsPercentage'
p16
S'372'
p17
sS'_threePoints'
p18
S'82'
p19
sS'_points'
p20
g3
sS'_position'
p21
S'PF'
p22
sS'_freeThrowsPercentage'
p23
S'147'
p24
sS'_effectiveFieldGoalPercentage'
p25
S'117'
p26
sS'_league'
p27
S'ABA'
p28
sS'_steals'
p29
S'226'
p30
sS'_fieldGoalsAttempted'
p31
S'.417'
p32
sS'_personalFouls'
p33
g3
sS'_freeThrowsAttempted'
p34
S'.775'
p35
sS'_totalRebounds'
p36
S'46'
p37
sS'_age'
p38
S'23'
p39
sS'_team'
p40
S'DNR'
p41
sS'_games'
p42
S'77'
p43
sS'_blocks'
p44
S'942'
p45
sS'_twoPoints'
p46
S'874'
p47
sS'_freeThrows'
p48
S'151'
p49
sS'_twoPointsAttempted'
p50
S'.426'
p51
sS'_defensiveRebounds'
p52
S'363'
p53
sS'_season'
p54
S'1968-69'
p55
sS'_fieldGoals'
p56
S'956'
p57
sS'_turnOvers'
p58
g3
sS'_twoPointsPercentage'
p59
S'.431'
p60
sS'_minutesPlayed'
p61
S'399'
p62
sS'_gamesStarted'
p63
S'1819'
p64
sba(isrc.gp1.models.Totals
Totals
p65
(dp66
g8
S'146'
p67
sg10
S'.220'
p68
sg12
S'11'
p69
sg14
S'75'
p70
sg16
S'204'
p71
sg18
S'50'
p72
sg20
g3
sg21
S'PF'
p73
sg23
S'106'
p74
sg25
S'76'
p75
sg27
S'ABA'
p76
sg29
S'180'
p77
sg31
S'.402'
p78
sg33
g3
sg34
S'.768'
p79
sg36
S'41'
p80
sg38
S'24'
p81
sg40
S'DNR'
p82
sg42
S'74'
p83
sg44
S'517'
p84
sg46
S'485'
p85
sg48
S'99'
p86
sg50
S'.421'
p87
sg52
S'252'
p88
sg54
S'1969-70'
p89
sg56
S'535'
p90
sg58
g3
sg59
S'.412'
p91
sg61
S'215'
p92
sg63
S'1302'
p93
sba(isrc.gp1.models.Totals
Totals
p94
(dp95
g8
g3
sg10
g3
sg12
g3
sg14
g3
sg16
g3
sg18
g3
sg20
g3
sg21
g3
sg23
g3
sg25
g3
sg27
g3
sg29
g3
sg31
g3
sg33
g3
sg34
g3
sg36
g3
sg38
S'25'
p96
sg40
S'Did Not Play'
p97
sg42
g3
sg44
g3
sg46
g3
sg48
g3
sg50
g3
sg52
g3
sg54
S'1970-71'
p98
sg56
g3
sg58
g3
sg59
g3
sg61
g3
sg63
g3
sba(isrc.gp1.models.Totals
Totals
p99
(dp100
g8
S'2'
p101
sg10
S'3'
p102
sg12
S'0'
p103
sg14
S'6'
p104
sg16
S'16'
p105
sg18
g103
sg20
g3
sg21
S'PF'
p106
sg23
g101
sg25
g103
sg27
S'ABA'
p107
sg29
g3
sg31
S'.188'
p108
sg33
g3
sg34
S'1'
p109
sg36
g101
sg38
S'26'
p110
sg40
S'FLO'
p111
sg42
g104
sg44
g3
sg46
S'.188'
p112
sg48
g109
sg50
S'.188'
p113
sg52
g102
sg54
S'1971-72'
p114
sg56
S'16'
p115
sg58
g3
sg59
g103
sg61
g102
sg63
S'28'
p116
sbasS'_college'
p117
S'Bowling Green State University'
p118
sS'_toYear'
p119
S'1972'
p120
sS'_height'
p121
S'6-8'
p122
sS'_active'
p123
I00
sS'_shootingHand'
p124
VRight
p125
sS'_name'
p126
S'Walter Piatkowski'
p127
sS'_per100Possessions'
p128
(lp129
sS'_advanced'
p130
(lp131
(isrc.gp1.models.Advanced
Advanced
p132
(dp133
S'_offensiveReboundPercentage'
p134
S'9.1'
p135
sS'_turnOverPercentage'
p136
S'1.2'
p137
sS'_winSharesPer48Minutes'
p138
g3
sS'_stealPercentage'
p139
S'-0.2'
p140
sS'_usagePercentage'
p141
S'.032'
p142
sS'_totalReboundsPercentage'
p143
S'8.9'
p144
sS'_defensiveBoxPlusMinus'
p145
g3
sg21
S'PF'
p146
sS'_valueOverReplacementPlayer'
p147
g3
sS'_trueShootingPercentage'
p148
S'.461'
p149
sS'_defensiveReboundPercentage'
p150
S'3.7'
p151
sS'_freeThrowsAttempRate'
p152
S'.158'
p153
sS'_threePointsAttempRate'
p154
S'.086'
p155
sg27
S'ABA'
p156
sS'_offensiveBoxPlusMinues'
p157
g3
sS'_assistPercentage'
p158
S'23.1'
p159
sS'_defensiveWinShares'
p160
g3
sg38
S'23'
p161
sg40
S'DNR'
p162
sg42
S'77'
p163
sS'_blockPercentage'
p164
S'1.4'
p165
sS'_playerEfficiencyRating'
p166
S'14.0'
p167
sS'_offensiveWinShares'
p168
g3
sg61
S'1819'
p169
sS'_boxPlusMinus'
p170
g3
sg54
S'1968-69'
p171
sS'_winShares'
p172
g3
sba(isrc.gp1.models.Advanced
Advanced
p173
(dp174
g134
S'8.5'
p175
sg136
S'0.8'
p176
sg138
g3
sg139
S'-0.6'
p177
sg141
S'.031'
p178
sg143
S'11.5'
p179
sg145
g3
sg21
S'PF'
p180
sg147
g3
sg148
S'.447'
p181
sg150
S'4.2'
p182
sg152
S'.185'
p183
sg154
S'.093'
p184
sg27
S'ABA'
p185
sg157
g3
sg158
S'18.6'
p186
sg160
g3
sg38
S'24'
p187
sg40
S'DNR'
p188
sg42
S'74'
p189
sg164
S'1.5'
p190
sg166
S'9.7'
p191
sg168
g3
sg61
S'1302'
p192
sg170
g3
sg54
S'1969-70'
p193
sg172
g3
sba(isrc.gp1.models.Advanced
Advanced
p194
(dp195
g134
S'3.4'
p196
sg136
S'-0.3'
p197
sg138
g3
sg139
S'15.8'
p198
sg141
S'0.0'
p199
sg143
S'3.5'
p200
sg145
g3
sg21
S'PF'
p201
sg147
g3
sg148
S'.188'
p202
sg150
S'3.5'
p203
sg152
S'.000'
p204
sg154
S'.000'
p205
sg27
S'ABA'
p206
sg157
g3
sg158
S'9.4'
p207
sg160
S'-0.415'
p208
sg38
S'26'
p209
sg40
S'FLO'
p210
sg42
g104
sg164
S'26.2'
p211
sg166
S'-9.6'
p212
sg168
S'-0.2'
p213
sg61
S'28'
p214
sg170
g3
sg54
S'1971-72'
p215
sg172
g3
sbasS'_per36Minutes'
p216
(lp217
(isrc.gp1.models.Per36Minutes
Per36Minutes
p218
(dp219
g8
S'4.3'
p220
sg10
S'.329'
p221
sg12
S'0.5'
p222
sg14
S'2.0'
p223
sg16
S'7.4'
p224
sg18
S'1.6'
p225
sg20
g3
sg21
S'PF'
p226
sg23
S'2.9'
p227
sg27
S'ABA'
p228
sg29
S'4.5'
p229
sg31
S'.417'
p230
sg33
g3
sg34
S'.775'
p231
sg36
S'0.9'
p232
sg38
S'23'
p233
sg40
S'DNR'
p234
sg42
S'77'
p235
sg44
S'18.6'
p236
sg46
S'17.3'
p237
sg48
S'3.0'
p238
sg50
S'.426'
p239
sg52
S'7.2'
p240
sg54
S'1968-69'
p241
sg56
S'18.9'
p242
sg58
g3
sg59
S'2.3'
p243
sg61
S'7.9'
p244
sg63
S'1819'
p245
sba(isrc.gp1.models.Per36Minutes
Per36Minutes
p246
(dp247
g8
S'4.0'
p248
sg10
S'.220'
p249
sg12
S'0.3'
p250
sg14
S'2.1'
p251
sg16
S'5.6'
p252
sg18
S'1.4'
p253
sg20
g3
sg21
S'PF'
p254
sg23
S'2.9'
p255
sg27
S'ABA'
p256
sg29
S'5.0'
p257
sg31
S'.402'
p258
sg33
g3
sg34
S'.768'
p259
sg36
S'1.1'
p260
sg38
S'24'
p261
sg40
S'DNR'
p262
sg42
S'74'
p263
sg44
S'14.3'
p264
sg46
S'13.4'
p265
sg48
S'2.7'
p266
sg50
S'.421'
p267
sg52
S'7.0'
p268
sg54
S'1969-70'
p269
sg56
S'14.8'
p270
sg58
g3
sg59
S'2.1'
p271
sg61
S'5.9'
p272
sg63
S'1302'
p273
sba(isrc.gp1.models.Per36Minutes
Per36Minutes
p274
(dp275
g8
S'2.6'
p276
sg10
S'3.9'
p277
sg12
S'0.0'
p278
sg14
S'7.7'
p279
sg16
S'20.6'
p280
sg18
S'0.0'
p281
sg20
g3
sg21
S'PF'
p282
sg23
S'2.6'
p283
sg27
S'ABA'
p284
sg29
g3
sg31
S'.188'
p285
sg33
g3
sg34
S'1.3'
p286
sg36
S'2.6'
p287
sg38
S'26'
p288
sg40
S'FLO'
p289
sg42
g104
sg44
g3
sg46
S'.188'
p290
sg48
S'1.3'
p291
sg50
S'0.0'
p292
sg52
S'3.9'
p293
sg54
S'1971-72'
p294
sg56
S'20.6'
p295
sg58
g3
sg59
S'0.0'
p296
sg61
S'3.9'
p297
sg63
S'28'
p298
sbasS'_fromYear'
p299
S'1969'
p300
sS'_url'
p301
S'http://www.basketball-reference.com/players/p/piatkwa01.html'
p302
sS'_perGame'
p303
(isrc.gp1.models.PerGame
PerGame
p304
(dp305
g8
S'0.3'
p306
sg10
S'0.5'
p307
sg12
S'0.0'
p308
sS'_effectiveFieldGalPercentage'
p309
S'0.0'
p310
sg14
S'1.0'
p311
sg16
S'2.7'
p312
sg18
S'0.0'
p313
sg20
g3
sg21
S'PF'
p314
sg23
S'0.3'
p315
sg27
S'ABA'
p316
sg29
g3
sg33
g3
sS'_fieldGoalsttempted'
p317
S'.188'
p318
sg34
S'0.2'
p319
sg36
S'0.3'
p320
sg38
S'26'
p321
sg40
S'FLO'
p322
sg42
g104
sg44
g3
sg46
S'.188'
p323
sg48
S'0.2'
p324
sg50
S'.188'
p325
sg52
S'0.5'
p326
sg54
S'1971-72'
p327
sg56
S'2.7'
p328
sg58
g3
sg59
S'0.0'
p329
sg61
S'0.5'
p330
sg63
S'4.7'
p331
sbsS'_weight'
p332
S'220'
p333
sS'_dob'
p334
S'11-6-1945'
p335
sS'_salary'
p336
(lp337
sg21
S'F'
p338
sb.