(isrc.gp1.models.Player
Player
p0
(dp1
S'_experience'
p2
S'NA'
p3
sS'_totals'
p4
(lp5
(isrc.gp1.models.Totals
Totals
p6
(dp7
S'_offensiveRebounds'
p8
S'6'
p9
sS'_threePointsAttempted'
p10
S'1'
p11
sS'_fieldGoalsPercentage'
p12
S'.333'
p13
sS'_assist'
p14
g9
sS'_threePointsPercentage'
p15
S'.000'
p16
sS'_threePoints'
p17
S'0'
p18
sS'_points'
p19
S'40'
p20
sS'_position'
p21
S'C'
p22
sS'_freeThrowsPercentage'
p23
S'.667'
p24
sS'_effectiveFieldGoalPercentage'
p25
S'.333'
p26
sS'_league'
p27
S'NBA'
p28
sS'_steals'
p29
S'3'
p30
sS'_fieldGoalsAttempted'
p31
S'45'
p32
sS'_personalFouls'
p33
S'20'
p34
sS'_freeThrowsAttempted'
p35
S'15'
p36
sS'_totalRebounds'
p37
S'21'
p38
sS'_age'
p39
S'22'
p40
sS'_team'
p41
S'UTA'
p42
sS'_games'
p43
S'28'
p44
sS'_blocks'
p45
S'4'
p46
sS'_twoPoints'
p47
S'15'
p48
sS'_freeThrows'
p49
S'10'
p50
sS'_twoPointsAttempted'
p51
S'44'
p52
sS'_defensiveRebounds'
p53
S'15'
p54
sS'_season'
p55
S'1990-91'
p56
sS'_fieldGoals'
p57
S'15'
p58
sS'_turnOvers'
p59
g9
sS'_twoPointsPercentage'
p60
S'.341'
p61
sS'_minutesPlayed'
p62
S'85'
p63
sS'_gamesStarted'
p64
g18
sba(isrc.gp1.models.Totals
Totals
p65
(dp66
g8
g3
sg10
g3
sg12
g3
sg14
g3
sg15
g3
sg17
g3
sg19
g3
sg21
g3
sg23
g3
sg25
g3
sg27
g3
sg29
g3
sg31
g3
sg33
g3
sg35
g3
sg37
g3
sg39
S'23'
p67
sg41
S'Did Not Play\xc2\xa0(other pro league\xe2\x80\x94Germany)'
p68
sg43
g3
sg45
g3
sg47
g3
sg49
g3
sg51
g3
sg53
g3
sg55
S'1991-92'
p69
sg57
g3
sg59
g3
sg60
g3
sg62
g3
sg64
g3
sba(isrc.gp1.models.Totals
Totals
p70
(dp71
g8
S'32'
p72
sg10
g18
sg12
S'.474'
p73
sg14
g11
sg15
S'27'
p74
sg17
g18
sg19
g3
sg21
g22
sg23
S'12'
p75
sg25
g9
sg27
S'NBA'
p76
sg29
S'5'
p77
sg31
S'57'
p78
sg33
S'60'
p79
sg35
S'.667'
p80
sg37
g77
sg39
S'24'
p81
sg41
S'DAL'
p82
sg43
S'20'
p83
sg45
S'10'
p84
sg47
S'57'
p85
sg49
S'9'
p86
sg51
S'.474'
p87
sg53
S'44'
p88
sg55
S'1992-93'
p89
sg57
S'27'
p90
sg59
S'29'
p91
sg60
S'.474'
p92
sg62
S'124'
p93
sg64
g18
sbasS'_college'
p94
S'Dartmouth College'
p95
sS'_toYear'
p96
S'1993'
p97
sS'_height'
p98
S'7-1'
p99
sS'_active'
p100
I00
sS'_shootingHand'
p101
VRight
p102
sS'_name'
p103
S'Walter Palmer'
p104
sS'_per100Possessions'
p105
(lp106
(isrc.gp1.models.Per100Possession
Per100Possession
p107
(dp108
g8
S'3.6'
p109
sg10
S'0.6'
p110
sg12
S'.333'
p111
sS'_offensiveRating'
p112
S'84'
p113
sg14
S'3.6'
p114
sg15
S'.000'
p115
sg17
S'0.0'
p116
sg19
S'23.7'
p117
sg21
g22
sS'_defensiveRating'
p118
S'102'
p119
sg23
S'.667'
p120
sg27
S'NBA'
p121
sg29
S'1.8'
p122
sg31
S'26.7'
p123
sg33
S'11.9'
p124
sg35
S'8.9'
p125
sg37
S'12.4'
p126
sg39
S'22'
p127
sg41
S'UTA'
p128
sg43
S'28'
p129
sg45
S'2.4'
p130
sg47
S'8.9'
p131
sg49
S'5.9'
p132
sg51
S'26.1'
p133
sg53
S'8.9'
p134
sg55
S'1990-91'
p135
sg57
S'8.9'
p136
sg59
S'3.6'
p137
sg60
S'.341'
p138
sg62
S'85'
p139
sg64
g18
sba(isrc.gp1.models.Per100Possession
Per100Possession
p140
(dp141
g8
S'12.4'
p142
sg10
S'0.0'
p143
sg12
S'.474'
p144
sg112
S'111'
p145
sg14
S'0.4'
p146
sg15
S'10.5'
p147
sg17
S'0.0'
p148
sg19
S'96'
p149
sg21
g22
sg118
g3
sg23
S'4.7'
p150
sg27
S'NBA'
p151
sg29
S'1.9'
p152
sg31
S'22.2'
p153
sg33
S'23.3'
p154
sg35
S'.667'
p155
sg37
S'1.9'
p156
sg39
S'24'
p157
sg41
S'DAL'
p158
sg43
S'20'
p159
sg45
S'3.9'
p160
sg47
S'22.2'
p161
sg49
S'3.5'
p162
sg51
S'.474'
p163
sg53
S'17.1'
p164
sg55
S'1992-93'
p165
sg57
S'10.5'
p166
sg59
S'11.3'
p167
sg60
S'2.3'
p168
sg62
S'124'
p169
sg64
g18
sbasS'_advanced'
p170
(lp171
(isrc.gp1.models.Advanced
Advanced
p172
(dp173
S'_offensiveReboundPercentage'
p174
S'8.9'
p175
sS'_turnOverPercentage'
p176
S'10.4'
p177
sS'_winSharesPer48Minutes'
p178
S'-0.041'
p179
sS'_stealPercentage'
p180
S'1.8'
p181
sS'_usagePercentage'
p182
S'30.0'
p183
sS'_totalReboundsPercentage'
p184
S'14.5'
p185
sS'_defensiveBoxPlusMinus'
p186
S'-0.3'
p187
sg21
g22
sS'_valueOverReplacementPlayer'
p188
S'-0.1'
p189
sS'_trueShootingPercentage'
p190
S'.388'
p191
sS'_defensiveReboundPercentage'
p192
S'19.5'
p193
sS'_freeThrowsAttempRate'
p194
S'.333'
p195
sS'_threePointsAttempRate'
p196
S'.022'
p197
sg27
S'NBA'
p198
sS'_offensiveBoxPlusMinues'
p199
S'-7.0'
p200
sS'_assistPercentage'
p201
S'11.1'
p202
sS'_defensiveWinShares'
p203
S'0.2'
p204
sg39
S'22'
p205
sg41
S'UTA'
p206
sg43
S'28'
p207
sS'_blockPercentage'
p208
S'2.9'
p209
sS'_playerEfficiencyRating'
p210
S'8.5'
p211
sS'_offensiveWinShares'
p212
S'-0.2'
p213
sg62
S'85'
p214
sS'_boxPlusMinus'
p215
S'-7.3'
p216
sg55
S'1990-91'
p217
sS'_winShares'
p218
S'-0.1'
p219
sba(isrc.gp1.models.Advanced
Advanced
p220
(dp221
g174
S'9.6'
p222
sg176
S'14.1'
p223
sg178
S'.006'
p224
sg180
S'0.4'
p225
sg182
S'23.3'
p226
sg184
S'19.2'
p227
sg186
S'-2.6'
p228
sg21
g22
sg188
S'-0.2'
p229
sg190
S'.492'
p230
sg192
S'30.6'
p231
sg194
S'.158'
p232
sg196
S'.000'
p233
sg27
S'NBA'
p234
sg199
S'-5.2'
p235
sg201
S'6.9'
p236
sg203
S'0.1'
p237
sg39
S'24'
p238
sg41
S'DAL'
p239
sg43
S'20'
p240
sg208
S'2.6'
p241
sg210
S'12.8'
p242
sg212
S'-0.1'
p243
sg62
S'124'
p244
sg215
S'-7.8'
p245
sg55
S'1992-93'
p246
sg218
S'0.0'
p247
sbasS'_per36Minutes'
p248
(lp249
(isrc.gp1.models.Per36Minutes
Per36Minutes
p250
(dp251
g8
S'2.5'
p252
sg10
S'0.4'
p253
sg12
S'.333'
p254
sg14
S'2.5'
p255
sg15
S'.000'
p256
sg17
S'0.0'
p257
sg19
S'16.9'
p258
sg21
g22
sg23
S'.667'
p259
sg27
S'NBA'
p260
sg29
S'1.3'
p261
sg31
S'19.1'
p262
sg33
S'8.5'
p263
sg35
S'6.4'
p264
sg37
S'8.9'
p265
sg39
S'22'
p266
sg41
S'UTA'
p267
sg43
S'28'
p268
sg45
S'1.7'
p269
sg47
S'6.4'
p270
sg49
S'4.2'
p271
sg51
S'18.6'
p272
sg53
S'6.4'
p273
sg55
S'1990-91'
p274
sg57
S'6.4'
p275
sg59
S'2.5'
p276
sg60
S'.341'
p277
sg62
S'85'
p278
sg64
g18
sba(isrc.gp1.models.Per36Minutes
Per36Minutes
p279
(dp280
g8
S'9.3'
p281
sg10
S'0.0'
p282
sg12
S'.474'
p283
sg14
S'0.3'
p284
sg15
S'7.8'
p285
sg17
S'0.0'
p286
sg19
g3
sg21
g22
sg23
S'3.5'
p287
sg27
S'NBA'
p288
sg29
S'1.5'
p289
sg31
S'16.5'
p290
sg33
S'17.4'
p291
sg35
S'.667'
p292
sg37
S'1.5'
p293
sg39
S'24'
p294
sg41
S'DAL'
p295
sg43
S'20'
p296
sg45
S'2.9'
p297
sg47
S'16.5'
p298
sg49
S'2.6'
p299
sg51
S'.474'
p300
sg53
S'12.8'
p301
sg55
S'1992-93'
p302
sg57
S'7.8'
p303
sg59
S'8.4'
p304
sg60
S'1.7'
p305
sg62
S'124'
p306
sg64
g18
sbasS'_fromYear'
p307
S'1991'
p308
sS'_url'
p309
S'http://www.basketball-reference.com/players/p/palmewa01.html'
p310
sS'_perGame'
p311
(isrc.gp1.models.PerGame
PerGame
p312
(dp313
g8
S'1.6'
p314
sg10
S'0.0'
p315
sg12
S'.474'
p316
sS'_effectiveFieldGalPercentage'
p317
S'0.3'
p318
sg14
S'0.1'
p319
sg15
S'1.4'
p320
sg17
S'0.0'
p321
sg19
g3
sg21
g22
sg23
S'0.6'
p322
sg27
S'NBA'
p323
sg29
S'0.3'
p324
sg33
S'3.0'
p325
sS'_fieldGoalsttempted'
p326
S'2.9'
p327
sg35
S'.667'
p328
sg37
S'0.3'
p329
sg39
S'24'
p330
sg41
S'DAL'
p331
sg43
S'20'
p332
sg45
S'0.5'
p333
sg47
S'2.9'
p334
sg49
S'0.5'
p335
sg51
S'.474'
p336
sg53
S'2.2'
p337
sg55
S'1992-93'
p338
sg57
S'1.4'
p339
sg59
S'1.5'
p340
sg60
S'.474'
p341
sg62
S'6.2'
p342
sg64
g18
sbsS'_weight'
p343
S'215'
p344
sS'_dob'
p345
S'23-10-1968'
p346
sS'_salary'
p347
(lp348
(isrc.gp1.models.Salary
Salary
p349
(dp350
g41
S'Utah Jazz'
p351
sg27
S'NBA'
p352
sg347
S'$225,000'
p353
sg55
S'1990-91'
p354
sba(isrc.gp1.models.Salary
Salary
p355
(dp356
g41
S'Utah Jazz'
p357
sg27
S'NBA'
p358
sg347
S'$275,000'
p359
sg55
S'1991-92'
p360
sba(isrc.gp1.models.Salary
Salary
p361
(dp362
g41
S'Dallas Mavericks'
p363
sg27
S'NBA'
p364
sg347
S'$140,000'
p365
sg55
S'1992-93'
p366
sbasg21
S'C-F'
p367
sb.