(isrc.gp1.models.Player
Player
p0
(dp1
S'_experience'
p2
S'NA'
p3
sS'_totals'
p4
(lp5
(isrc.gp1.models.Totals
Totals
p6
(dp7
S'_offensiveRebounds'
p8
g3
sS'_threePointsAttempted'
p9
g3
sS'_fieldGoalsPercentage'
p10
S'.302'
p11
sS'_assist'
p12
S'21'
p13
sS'_threePointsPercentage'
p14
g3
sS'_threePoints'
p15
g3
sS'_points'
p16
S'43'
p17
sS'_position'
p18
S'SG'
p19
sS'_freeThrowsPercentage'
p20
S'.647'
p21
sS'_effectiveFieldGoalPercentage'
p22
S'.302'
p23
sS'_league'
p24
S'NBA'
p25
sS'_steals'
p26
g3
sS'_fieldGoalsAttempted'
p27
S'53'
p28
sS'_personalFouls'
p29
S'26'
p30
sS'_freeThrowsAttempted'
p31
S'17'
p32
sS'_totalRebounds'
p33
S'21'
p34
sS'_age'
p35
S'22'
p36
sS'_team'
p37
S'STL'
p38
sS'_games'
p39
S'24'
p40
sS'_blocks'
p41
g3
sS'_twoPoints'
p42
S'16'
p43
sS'_freeThrows'
p44
S'11'
p45
sS'_twoPointsAttempted'
p46
S'53'
p47
sS'_defensiveRebounds'
p48
g3
sS'_season'
p49
S'1963-64'
p50
sS'_fieldGoals'
p51
S'16'
p52
sS'_turnOvers'
p53
g3
sS'_twoPointsPercentage'
p54
S'.302'
p55
sS'_minutesPlayed'
p56
S'139'
p57
sS'_gamesStarted'
p58
g3
sba(isrc.gp1.models.Totals
Totals
p59
(dp60
g8
g3
sg9
g3
sg10
S'.111'
p61
sg12
S'6'
p62
sg14
g3
sg15
g3
sg16
S'5'
p63
sg18
S'SG'
p64
sg20
S'1.000'
p65
sg22
S'.111'
p66
sg24
S'NBA'
p67
sg26
g3
sg27
S'18'
p68
sg29
g62
sg31
S'1'
p69
sg33
g63
sg35
S'23'
p70
sg37
S'BOS'
p71
sg39
S'3'
p72
sg41
g3
sg42
S'2'
p73
sg44
g69
sg46
S'18'
p74
sg48
g3
sg49
S'1964-65'
p75
sg51
g73
sg53
g3
sg54
S'.111'
p76
sg56
S'30'
p77
sg58
g3
sba(isrc.gp1.models.Totals
Totals
p78
(dp79
g8
g3
sg9
g3
sg10
S'.354'
p80
sg12
S'80'
p81
sg14
g3
sg15
g3
sg16
S'173'
p82
sg18
S'SG'
p83
sg20
S'.650'
p84
sg22
S'.354'
p85
sg24
S'NBA'
p86
sg26
g3
sg27
S'189'
p87
sg29
S'163'
p88
sg31
S'60'
p89
sg33
S'89'
p90
sg35
S'24'
p91
sg37
S'PHI'
p92
sg39
S'66'
p93
sg41
g3
sg42
S'67'
p94
sg44
S'39'
p95
sg46
S'189'
p96
sg48
g3
sg49
S'1965-66'
p97
sg51
S'67'
p98
sg53
g3
sg54
S'.354'
p99
sg56
S'838'
p100
sg58
g3
sba(isrc.gp1.models.Totals
Totals
p101
(dp102
g8
g3
sg9
g3
sg10
S'.381'
p103
sg12
S'130'
p104
sg14
g3
sg15
g3
sg16
S'321'
p105
sg18
S'SG'
p106
sg20
S'.630'
p107
sg22
S'.381'
p108
sg24
S'NBA'
p109
sg26
g3
sg27
S'307'
p110
sg29
S'169'
p111
sg31
S'138'
p112
sg33
S'179'
p113
sg35
S'25'
p114
sg37
S'CHI'
p115
sg39
S'76'
p116
sg41
g3
sg42
S'117'
p117
sg44
S'87'
p118
sg46
S'307'
p119
sg48
g3
sg49
S'1966-67'
p120
sg51
S'117'
p121
sg53
g3
sg54
S'.381'
p122
sg56
S'1042'
p123
sg58
g3
sbasS'_college'
p124
S'Boston College'
p125
sS'_toYear'
p126
S'1967'
p127
sS'_height'
p128
S'6-4'
p129
sS'_active'
p130
I00
sS'_shootingHand'
p131
VRight
p132
sS'_name'
p133
S'Gerry Ward'
p134
sS'_per100Possessions'
p135
(lp136
sS'_advanced'
p137
(lp138
(isrc.gp1.models.Advanced
Advanced
p139
(dp140
S'_offensiveReboundPercentage'
p141
g3
sS'_turnOverPercentage'
p142
g3
sS'_winSharesPer48Minutes'
p143
S'-0.049'
p144
sS'_stealPercentage'
p145
g3
sS'_usagePercentage'
p146
g3
sS'_totalReboundsPercentage'
p147
g3
sS'_defensiveBoxPlusMinus'
p148
g3
sg18
S'SG'
p149
sS'_valueOverReplacementPlayer'
p150
g3
sS'_trueShootingPercentage'
p151
S'.355'
p152
sS'_defensiveReboundPercentage'
p153
g3
sS'_freeThrowsAttempRate'
p154
S'.321'
p155
sS'_threePointsAttempRate'
p156
g3
sg24
S'NBA'
p157
sS'_offensiveBoxPlusMinues'
p158
g3
sS'_assistPercentage'
p159
g3
sS'_defensiveWinShares'
p160
S'0.2'
p161
sg35
S'22'
p162
sg37
S'STL'
p163
sg39
S'24'
p164
sS'_blockPercentage'
p165
g3
sS'_playerEfficiencyRating'
p166
S'7.0'
p167
sS'_offensiveWinShares'
p168
S'-0.3'
p169
sg56
S'139'
p170
sS'_boxPlusMinus'
p171
g3
sg49
S'1963-64'
p172
sS'_winShares'
p173
S'-0.1'
p174
sba(isrc.gp1.models.Advanced
Advanced
p175
(dp176
g141
g3
sg142
g3
sg143
S'-0.366'
p177
sg145
g3
sg146
g3
sg147
g3
sg148
g3
sg18
S'SG'
p178
sg150
g3
sg151
S'.136'
p179
sg153
g3
sg154
S'.056'
p180
sg156
g3
sg24
S'NBA'
p181
sg158
g3
sg159
S'23.3'
p182
sg160
S'0.1'
p183
sg35
S'23'
p184
sg37
S'BOS'
p185
sg39
g72
sg165
g3
sg166
S'-4.7'
p186
sg168
S'-0.3'
p187
sg56
S'30'
p188
sg171
g3
sg49
S'1964-65'
p189
sg173
S'-0.2'
p190
sba(isrc.gp1.models.Advanced
Advanced
p191
(dp192
g141
g3
sg142
g3
sg143
S'.022'
p193
sg145
g3
sg146
g3
sg147
g3
sg148
g3
sg18
S'SG'
p194
sg150
g3
sg151
S'.402'
p195
sg153
g3
sg154
S'.317'
p196
sg156
g3
sg24
S'NBA'
p197
sg158
g3
sg159
S'11.0'
p198
sg160
S'0.9'
p199
sg35
S'24'
p200
sg37
S'PHI'
p201
sg39
S'66'
p202
sg165
g3
sg166
S'4.1'
p203
sg168
S'-0.5'
p204
sg56
S'838'
p205
sg171
g3
sg49
S'1965-66'
p206
sg173
S'0.4'
p207
sba(isrc.gp1.models.Advanced
Advanced
p208
(dp209
g141
g3
sg142
g3
sg143
S'.045'
p210
sg145
g3
sg146
g3
sg147
g3
sg148
g3
sg18
S'SG'
p211
sg150
g3
sg151
S'.436'
p212
sg153
g3
sg154
S'.450'
p213
sg156
g3
sg24
S'NBA'
p214
sg158
g3
sg159
S'15.6'
p215
sg160
S'1.2'
p216
sg35
S'25'
p217
sg37
S'CHI'
p218
sg39
S'76'
p219
sg165
g3
sg166
S'8.9'
p220
sg168
S'-0.3'
p221
sg56
S'1042'
p222
sg171
g3
sg49
S'1966-67'
p223
sg173
S'1.0'
p224
sbasS'_per36Minutes'
p225
(lp226
(isrc.gp1.models.Per36Minutes
Per36Minutes
p227
(dp228
g8
g3
sg9
g3
sg10
S'.302'
p229
sg12
S'5.4'
p230
sg14
g3
sg15
g3
sg16
S'11.1'
p231
sg18
S'SG'
p232
sg20
S'.647'
p233
sg24
S'NBA'
p234
sg26
g3
sg27
S'13.7'
p235
sg29
S'6.7'
p236
sg31
S'4.4'
p237
sg33
S'5.4'
p238
sg35
S'22'
p239
sg37
S'STL'
p240
sg39
S'24'
p241
sg41
g3
sg42
S'4.1'
p242
sg44
S'2.8'
p243
sg46
S'13.7'
p244
sg48
g3
sg49
S'1963-64'
p245
sg51
S'4.1'
p246
sg53
g3
sg54
S'.302'
p247
sg56
S'139'
p248
sg58
g3
sba(isrc.gp1.models.Per36Minutes
Per36Minutes
p249
(dp250
g8
g3
sg9
g3
sg10
S'.111'
p251
sg12
S'7.2'
p252
sg14
g3
sg15
g3
sg16
S'6.0'
p253
sg18
S'SG'
p254
sg20
S'1.000'
p255
sg24
S'NBA'
p256
sg26
g3
sg27
S'21.6'
p257
sg29
S'7.2'
p258
sg31
S'1.2'
p259
sg33
S'6.0'
p260
sg35
S'23'
p261
sg37
S'BOS'
p262
sg39
g72
sg41
g3
sg42
S'2.4'
p263
sg44
S'1.2'
p264
sg46
S'21.6'
p265
sg48
g3
sg49
S'1964-65'
p266
sg51
S'2.4'
p267
sg53
g3
sg54
S'.111'
p268
sg56
S'30'
p269
sg58
g3
sba(isrc.gp1.models.Per36Minutes
Per36Minutes
p270
(dp271
g8
g3
sg9
g3
sg10
S'.354'
p272
sg12
S'3.4'
p273
sg14
g3
sg15
g3
sg16
S'7.4'
p274
sg18
S'SG'
p275
sg20
S'.650'
p276
sg24
S'NBA'
p277
sg26
g3
sg27
S'8.1'
p278
sg29
S'7.0'
p279
sg31
S'2.6'
p280
sg33
S'3.8'
p281
sg35
S'24'
p282
sg37
S'PHI'
p283
sg39
S'66'
p284
sg41
g3
sg42
S'2.9'
p285
sg44
S'1.7'
p286
sg46
S'8.1'
p287
sg48
g3
sg49
S'1965-66'
p288
sg51
S'2.9'
p289
sg53
g3
sg54
S'.354'
p290
sg56
S'838'
p291
sg58
g3
sba(isrc.gp1.models.Per36Minutes
Per36Minutes
p292
(dp293
g8
g3
sg9
g3
sg10
S'.381'
p294
sg12
S'4.5'
p295
sg14
g3
sg15
g3
sg16
S'11.1'
p296
sg18
S'SG'
p297
sg20
S'.630'
p298
sg24
S'NBA'
p299
sg26
g3
sg27
S'10.6'
p300
sg29
S'5.8'
p301
sg31
S'4.8'
p302
sg33
S'6.2'
p303
sg35
S'25'
p304
sg37
S'CHI'
p305
sg39
S'76'
p306
sg41
g3
sg42
S'4.0'
p307
sg44
S'3.0'
p308
sg46
S'10.6'
p309
sg48
g3
sg49
S'1966-67'
p310
sg51
S'4.0'
p311
sg53
g3
sg54
S'.381'
p312
sg56
S'1042'
p313
sg58
g3
sbasS'_fromYear'
p314
S'1964'
p315
sS'_url'
p316
S'http://www.basketball-reference.com/players/w/wardge01.html'
p317
sS'_perGame'
p318
(isrc.gp1.models.PerGame
PerGame
p319
(dp320
g8
g3
sg9
g3
sg10
S'.381'
p321
sS'_effectiveFieldGalPercentage'
p322
S'.381'
p323
sg12
S'1.7'
p324
sg14
g3
sg15
g3
sg16
S'4.2'
p325
sg18
S'SG'
p326
sg20
S'.630'
p327
sg24
S'NBA'
p328
sg26
g3
sg29
S'2.2'
p329
sS'_fieldGoalsttempted'
p330
S'4.0'
p331
sg31
S'1.8'
p332
sg33
S'2.4'
p333
sg35
S'25'
p334
sg37
S'CHI'
p335
sg39
S'76'
p336
sg41
g3
sg42
S'1.5'
p337
sg44
S'1.1'
p338
sg46
S'4.0'
p339
sg48
g3
sg49
S'1966-67'
p340
sg51
S'1.5'
p341
sg53
g3
sg54
S'.381'
p342
sg56
S'13.7'
p343
sg58
g3
sbsS'_weight'
p344
S'195'
p345
sS'_dob'
p346
S'6-9-1941'
p347
sS'_salary'
p348
(lp349
sg18
S'G'
p350
sb.