(isrc.gp1.models.Player
Player
p0
(dp1
S'_experience'
p2
S'NA'
p3
sS'_totals'
p4
(lp5
(isrc.gp1.models.Totals
Totals
p6
(dp7
S'_offensiveRebounds'
p8
g3
sS'_threePointsAttempted'
p9
g3
sS'_fieldGoalsPercentage'
p10
S'.402'
p11
sS'_assist'
p12
S'43'
p13
sS'_threePointsPercentage'
p14
g3
sS'_threePoints'
p15
g3
sS'_points'
p16
S'384'
p17
sS'_position'
p18
S'PF'
p19
sS'_freeThrowsPercentage'
p20
S'.567'
p21
sS'_effectiveFieldGoalPercentage'
p22
S'.402'
p23
sS'_league'
p24
S'NBA'
p25
sS'_steals'
p26
g3
sS'_fieldGoalsAttempted'
p27
S'393'
p28
sS'_personalFouls'
p29
S'176'
p30
sS'_freeThrowsAttempted'
p31
S'120'
p32
sS'_totalRebounds'
p33
S'353'
p34
sS'_age'
p35
S'22'
p36
sS'_team'
p37
S'STL'
p38
sS'_games'
p39
S'65'
p40
sS'_blocks'
p41
g3
sS'_twoPoints'
p42
S'158'
p43
sS'_freeThrows'
p44
S'68'
p45
sS'_twoPointsAttempted'
p46
S'393'
p47
sS'_defensiveRebounds'
p48
g3
sS'_season'
p49
S'1965-66'
p50
sS'_fieldGoals'
p51
S'158'
p52
sS'_turnOvers'
p53
g3
sS'_twoPointsPercentage'
p54
S'.402'
p55
sS'_minutesPlayed'
p56
S'1104'
p57
sS'_gamesStarted'
p58
g3
sba(isrc.gp1.models.Totals
Totals
p59
(dp60
g8
g3
sg9
g3
sg10
S'.417'
p61
sg12
S'56'
p62
sg14
g3
sg15
g3
sg16
S'592'
p63
sg18
S'PF'
p64
sg20
S'.553'
p65
sg22
S'.417'
p66
sg24
S'NBA'
p67
sg26
g3
sg27
S'604'
p68
sg29
S'181'
p69
sg31
S'159'
p70
sg33
S'468'
p71
sg35
S'23'
p72
sg37
S'CHI'
p73
sg39
S'77'
p74
sg41
g3
sg42
S'252'
p75
sg44
S'88'
p76
sg46
S'604'
p77
sg48
g3
sg49
S'1966-67'
p78
sg51
S'252'
p79
sg53
g3
sg54
S'.417'
p80
sg56
S'1475'
p81
sg58
g3
sba(isrc.gp1.models.Totals
Totals
p82
(dp83
g8
g3
sg9
g3
sg10
S'.457'
p84
sg12
S'113'
p85
sg14
g3
sg15
g3
sg16
S'1023'
p86
sg18
S'C'
p87
sg20
S'.682'
p88
sg22
S'.457'
p89
sg24
S'NBA'
p90
sg26
g3
sg27
S'915'
p91
sg29
S'233'
p92
sg31
S'274'
p93
sg33
S'825'
p94
sg35
S'24'
p95
sg37
S'CHI'
p96
sg39
S'82'
p97
sg41
g3
sg42
S'418'
p98
sg44
S'187'
p99
sg46
S'915'
p100
sg48
g3
sg49
S'1967-68'
p101
sg51
S'418'
p102
sg53
g3
sg54
S'.457'
p103
sg56
S'2525'
p104
sg58
g3
sba(isrc.gp1.models.Totals
Totals
p105
(dp106
g8
g3
sg9
g3
sg10
S'.430'
p107
sg12
S'104'
p108
sg14
g3
sg15
g3
sg16
S'1121'
p109
sg18
S'SF'
p110
sg20
S'.677'
p111
sg22
S'.430'
p112
sg24
S'NBA'
p113
sg26
g3
sg27
S'1023'
p114
sg29
S'226'
p115
sg31
S'356'
p116
sg33
S'847'
p117
sg35
S'25'
p118
sg37
S'CHI'
p119
sg39
S'80'
p120
sg41
g3
sg42
S'440'
p121
sg44
S'241'
p122
sg46
S'1023'
p123
sg48
g3
sg49
S'1968-69'
p124
sg51
S'440'
p125
sg53
g3
sg54
S'.430'
p126
sg56
S'2705'
p127
sg58
g3
sba(isrc.gp1.models.Totals
Totals
p128
(dp129
g8
g3
sg9
g3
sg10
S'.476'
p130
sg12
S'104'
p131
sg14
g3
sg15
g3
sg16
S'1006'
p132
sg18
S'PF'
p133
sg20
S'.747'
p134
sg22
S'.476'
p135
sg24
S'NBA'
p136
sg26
g3
sg27
S'842'
p137
sg29
S'262'
p138
sg31
S'273'
p139
sg33
S'734'
p140
sg35
S'26'
p141
sg37
S'PHI'
p142
sg39
S'79'
p143
sg41
g3
sg42
S'401'
p144
sg44
S'204'
p145
sg46
S'842'
p146
sg48
g3
sg49
S'1969-70'
p147
sg51
S'401'
p148
sg53
g3
sg54
S'.476'
p149
sg56
S'2459'
p150
sg58
g3
sba(isrc.gp1.models.Totals
Totals
p151
(dp152
g8
g3
sg9
g3
sg10
S'.476'
p153
sg12
S'97'
p154
sg14
g3
sg15
g3
sg16
S'1049'
p155
sg18
S'PF'
p156
sg20
S'.762'
p157
sg22
S'.476'
p158
sg24
S'NBA'
p159
sg26
g3
sg27
S'829'
p160
sg29
S'258'
p161
sg31
S'340'
p162
sg33
S'747'
p163
sg35
S'27'
p164
sg37
S'PHI'
p165
sg39
S'78'
p166
sg41
g3
sg42
S'395'
p167
sg44
S'259'
p168
sg46
S'829'
p169
sg48
g3
sg49
S'1970-71'
p170
sg51
S'395'
p171
sg53
g3
sg54
S'.476'
p172
sg56
S'2501'
p173
sg58
g3
sba(isrc.gp1.models.Totals
Totals
p174
(dp175
g8
g3
sg9
g3
sg10
S'.444'
p176
sg12
S'146'
p177
sg14
g3
sg15
g3
sg16
S'1042'
p178
sg18
S'PF'
p179
sg20
S'.793'
p180
sg22
S'.444'
p181
sg24
S'NBA'
p182
sg26
g3
sg27
S'885'
p183
sg29
S'276'
p184
sg31
S'323'
p185
sg33
S'736'
p186
sg35
S'28'
p187
sg37
S'TOT'
p188
sg39
S'84'
p189
sg41
g3
sg42
S'393'
p190
sg44
S'256'
p191
sg46
S'885'
p192
sg48
g3
sg49
S'1971-72'
p193
sg51
S'393'
p194
sg53
g3
sg54
S'.444'
p195
sg56
S'2961'
p196
sg58
g3
sba(isrc.gp1.models.Totals
Totals
p197
(dp198
g8
g3
sg9
g3
sg10
S'.436'
p199
sg12
S'25'
p200
sg14
g3
sg15
g3
sg16
S'191'
p201
sg18
S'PF'
p202
sg20
S'.821'
p203
sg22
S'.436'
p204
sg24
S'NBA'
p205
sg26
g3
sg27
S'156'
p206
sg29
S'59'
p207
sg31
S'67'
p208
sg33
S'135'
p209
sg35
S'28'
p210
sg37
S'PHI'
p211
sg39
S'17'
p212
sg41
g3
sg42
S'68'
p213
sg44
S'55'
p214
sg46
S'156'
p215
sg48
g3
sg49
S'1971-72'
p216
sg51
S'68'
p217
sg53
g3
sg54
S'.436'
p218
sg56
S'545'
p219
sg58
g3
sba(isrc.gp1.models.Totals
Totals
p220
(dp221
g8
g3
sg9
g3
sg10
S'.446'
p222
sg12
S'121'
p223
sg14
g3
sg15
g3
sg16
S'851'
p224
sg18
S'PF'
p225
sg20
S'.785'
p226
sg22
S'.446'
p227
sg24
S'NBA'
p228
sg26
g3
sg27
S'729'
p229
sg29
S'217'
p230
sg31
S'256'
p231
sg33
S'601'
p232
sg35
S'28'
p233
sg37
S'ATL'
p234
sg39
S'67'
p235
sg41
g3
sg42
S'325'
p236
sg44
S'201'
p237
sg46
S'729'
p238
sg48
g3
sg49
S'1971-72'
p239
sg51
S'325'
p240
sg53
g3
sg54
S'.446'
p241
sg56
S'2416'
p242
sg58
g3
sba(isrc.gp1.models.Totals
Totals
p243
(dp244
g8
g3
sg9
g3
sg10
S'.432'
p245
sg12
S'174'
p246
sg14
g3
sg15
g3
sg16
S'779'
p247
sg18
S'PF'
p248
sg20
S'.728'
p249
sg22
S'.432'
p250
sg24
S'NBA'
p251
sg26
g3
sg27
S'713'
p252
sg29
S'252'
p253
sg31
S'224'
p254
sg33
S'801'
p255
sg35
S'29'
p256
sg37
S'ATL'
p257
sg39
S'75'
p258
sg41
g3
sg42
S'308'
p259
sg44
S'163'
p260
sg46
S'713'
p261
sg48
g3
sg49
S'1972-73'
p262
sg51
S'308'
p263
sg53
g3
sg54
S'.432'
p264
sg56
S'2833'
p265
sg58
g3
sba(isrc.gp1.models.Totals
Totals
p266
(dp267
g8
S'207'
p268
sg9
g3
sg10
S'.485'
p269
sg12
S'156'
p270
sg14
g3
sg15
g3
sg16
S'728'
p271
sg18
S'PF'
p272
sg20
S'.684'
p273
sg22
S'.485'
p274
sg24
S'NBA'
p275
sg26
S'49'
p276
sg27
S'612'
p277
sg29
S'249'
p278
sg31
S'196'
p279
sg33
S'735'
p280
sg35
S'30'
p281
sg37
S'ATL'
p282
sg39
S'73'
p283
sg41
S'74'
p284
sg42
S'297'
p285
sg44
S'134'
p286
sg46
S'612'
p287
sg48
S'528'
p288
sg49
S'1973-74'
p289
sg51
S'297'
p290
sg53
g3
sg54
S'.485'
p291
sg56
S'2519'
p292
sg58
g3
sba(isrc.gp1.models.Totals
Totals
p293
(dp294
g8
S'110'
p295
sg9
g3
sg10
S'.454'
p296
sg12
S'111'
p297
sg14
g3
sg15
g3
sg16
S'444'
p298
sg18
S'PF'
p299
sg20
S'.667'
p300
sg22
S'.454'
p301
sg24
S'NBA'
p302
sg26
S'34'
p303
sg27
S'421'
p304
sg29
S'167'
p305
sg31
S'93'
p306
sg33
S'390'
p307
sg35
S'31'
p308
sg37
S'TOT'
p309
sg39
S'80'
p310
sg41
S'26'
p311
sg42
S'191'
p312
sg44
S'62'
p313
sg46
S'421'
p314
sg48
S'280'
p315
sg49
S'1974-75'
p316
sg51
S'191'
p317
sg53
g3
sg54
S'.454'
p318
sg56
S'1579'
p319
sg58
g3
sba(isrc.gp1.models.Totals
Totals
p320
(dp321
g8
S'52'
p322
sg9
g3
sg10
S'.440'
p323
sg12
S'68'
p324
sg14
g3
sg15
g3
sg16
S'269'
p325
sg18
S'PF'
p326
sg20
S'.745'
p327
sg22
S'.440'
p328
sg24
S'NBA'
p329
sg26
S'23'
p330
sg27
S'259'
p331
sg29
S'86'
p332
sg31
S'55'
p333
sg33
S'193'
p334
sg35
S'31'
p335
sg37
S'ATL'
p336
sg39
S'38'
p337
sg41
S'13'
p338
sg42
S'114'
p339
sg44
S'41'
p340
sg46
S'259'
p341
sg48
S'141'
p342
sg49
S'1974-75'
p343
sg51
S'114'
p344
sg53
g3
sg54
S'.440'
p345
sg56
S'905'
p346
sg58
g3
sba(isrc.gp1.models.Totals
Totals
p347
(dp348
g8
S'58'
p349
sg9
g3
sg10
S'.475'
p350
sg12
S'43'
p351
sg14
g3
sg15
g3
sg16
S'175'
p352
sg18
S'PF'
p353
sg20
S'.553'
p354
sg22
S'.475'
p355
sg24
S'NBA'
p356
sg26
S'11'
p357
sg27
S'162'
p358
sg29
S'81'
p359
sg31
S'38'
p360
sg33
S'197'
p361
sg35
S'31'
p362
sg37
S'BUF'
p363
sg39
S'42'
p364
sg41
S'13'
p365
sg42
S'77'
p366
sg44
S'21'
p367
sg46
S'162'
p368
sg48
S'139'
p369
sg49
S'1974-75'
p370
sg51
S'77'
p371
sg53
g3
sg54
S'.475'
p372
sg56
S'674'
p373
sg58
g3
sba(isrc.gp1.models.Totals
Totals
p374
(dp375
g8
S'1'
p376
sg9
g3
sg10
S'.000'
p377
sg12
g376
sg14
g3
sg15
g3
sg16
S'0'
p378
sg18
S'PF'
p379
sg20
g3
sg22
S'.000'
p380
sg24
S'NBA'
p381
sg26
g378
sg27
g376
sg29
g378
sg31
g378
sg33
g376
sg35
S'32'
p382
sg37
S'BUF'
p383
sg39
g376
sg41
g378
sg42
g378
sg44
g378
sg46
g376
sg48
g378
sg49
S'1975-76'
p384
sg51
g378
sg53
g3
sg54
S'.000'
p385
sg56
S'7'
p386
sg58
g3
sbasS'_college'
p387
S'Villanova University'
p388
sS'_toYear'
p389
S'1976'
p390
sS'_height'
p391
S'6-6'
p392
sS'_active'
p393
I00
sS'_shootingHand'
p394
VRight
p395
sS'_name'
p396
S'Jim Washington'
p397
sS'_per100Possessions'
p398
(lp399
(isrc.gp1.models.Per100Possession
Per100Possession
p400
(dp401
g8
S'3.6'
p402
sg9
g3
sg10
S'.485'
p403
sS'_offensiveRating'
p404
g3
sg12
S'2.7'
p405
sg14
g3
sg15
g3
sg16
S'12.5'
p406
sg18
S'PF'
p407
sS'_defensiveRating'
p408
S'98'
p409
sg20
S'.684'
p410
sg24
S'NBA'
p411
sg26
S'0.8'
p412
sg27
S'10.5'
p413
sg29
S'4.3'
p414
sg31
S'3.4'
p415
sg33
S'12.6'
p416
sg35
S'30'
p417
sg37
S'ATL'
p418
sg39
S'73'
p419
sg41
S'1.3'
p420
sg42
S'5.1'
p421
sg44
S'2.3'
p422
sg46
S'10.5'
p423
sg48
S'9.1'
p424
sg49
S'1973-74'
p425
sg51
S'5.1'
p426
sg53
g3
sg54
S'.485'
p427
sg56
S'2519'
p428
sg58
g3
sba(isrc.gp1.models.Per100Possession
Per100Possession
p429
(dp430
g8
S'3.1'
p431
sg9
g3
sg10
S'.454'
p432
sg404
g3
sg12
S'3.2'
p433
sg14
g3
sg15
g3
sg16
S'12.6'
p434
sg18
S'PF'
p435
sg408
S'99'
p436
sg20
S'.667'
p437
sg24
S'NBA'
p438
sg26
S'1.0'
p439
sg27
S'12.0'
p440
sg29
S'4.7'
p441
sg31
S'2.6'
p442
sg33
S'11.1'
p443
sg35
S'31'
p444
sg37
S'TOT'
p445
sg39
S'80'
p446
sg41
S'0.7'
p447
sg42
S'5.4'
p448
sg44
S'1.8'
p449
sg46
S'12.0'
p450
sg48
S'8.0'
p451
sg49
S'1974-75'
p452
sg51
S'5.4'
p453
sg53
g3
sg54
S'.454'
p454
sg56
S'1579'
p455
sg58
g3
sba(isrc.gp1.models.Per100Possession
Per100Possession
p456
(dp457
g8
S'2.6'
p458
sg9
g3
sg10
S'.440'
p459
sg404
g3
sg12
S'3.4'
p460
sg14
g3
sg15
g3
sg16
S'13.4'
p461
sg18
S'PF'
p462
sg408
S'100'
p463
sg20
S'.745'
p464
sg24
S'NBA'
p465
sg26
S'1.1'
p466
sg27
S'12.9'
p467
sg29
S'4.3'
p468
sg31
S'2.7'
p469
sg33
S'9.6'
p470
sg35
S'31'
p471
sg37
S'ATL'
p472
sg39
S'38'
p473
sg41
S'0.6'
p474
sg42
S'5.7'
p475
sg44
S'2.0'
p476
sg46
S'12.9'
p477
sg48
S'7.0'
p478
sg49
S'1974-75'
p479
sg51
S'5.7'
p480
sg53
g3
sg54
S'.440'
p481
sg56
S'905'
p482
sg58
g3
sba(isrc.gp1.models.Per100Possession
Per100Possession
p483
(dp484
g8
S'3.8'
p485
sg9
g3
sg10
S'.475'
p486
sg404
g3
sg12
S'2.8'
p487
sg14
g3
sg15
g3
sg16
S'11.6'
p488
sg18
S'PF'
p489
sg408
S'98'
p490
sg20
S'.553'
p491
sg24
S'NBA'
p492
sg26
S'0.7'
p493
sg27
S'10.7'
p494
sg29
S'5.4'
p495
sg31
S'2.5'
p496
sg33
S'13.0'
p497
sg35
S'31'
p498
sg37
S'BUF'
p499
sg39
S'42'
p500
sg41
S'0.9'
p501
sg42
S'5.1'
p502
sg44
S'1.4'
p503
sg46
S'10.7'
p504
sg48
S'9.2'
p505
sg49
S'1974-75'
p506
sg51
S'5.1'
p507
sg53
g3
sg54
S'.475'
p508
sg56
S'674'
p509
sg58
g3
sba(isrc.gp1.models.Per100Possession
Per100Possession
p510
(dp511
g8
S'6.3'
p512
sg9
g3
sg10
S'.000'
p513
sg404
g3
sg12
S'6.3'
p514
sg14
g3
sg15
g3
sg16
S'0.0'
p515
sg18
S'PF'
p516
sg408
S'107'
p517
sg20
g3
sg24
S'NBA'
p518
sg26
S'0.0'
p519
sg27
S'6.3'
p520
sg29
S'0.0'
p521
sg31
S'0.0'
p522
sg33
S'6.3'
p523
sg35
S'32'
p524
sg37
S'BUF'
p525
sg39
g376
sg41
S'0.0'
p526
sg42
S'0.0'
p527
sg44
S'0.0'
p528
sg46
S'6.3'
p529
sg48
S'0.0'
p530
sg49
S'1975-76'
p531
sg51
S'0.0'
p532
sg53
g3
sg54
S'.000'
p533
sg56
g386
sg58
g3
sbasS'_advanced'
p534
(lp535
(isrc.gp1.models.Advanced
Advanced
p536
(dp537
S'_offensiveReboundPercentage'
p538
g3
sS'_turnOverPercentage'
p539
g3
sS'_winSharesPer48Minutes'
p540
S'.023'
p541
sS'_stealPercentage'
p542
g3
sS'_usagePercentage'
p543
g3
sS'_totalReboundsPercentage'
p544
g3
sS'_defensiveBoxPlusMinus'
p545
g3
sg18
S'PF'
p546
sS'_valueOverReplacementPlayer'
p547
g3
sS'_trueShootingPercentage'
p548
S'.431'
p549
sS'_defensiveReboundPercentage'
p550
g3
sS'_freeThrowsAttempRate'
p551
S'.305'
p552
sS'_threePointsAttempRate'
p553
g3
sg24
S'NBA'
p554
sS'_offensiveBoxPlusMinues'
p555
g3
sS'_assistPercentage'
p556
S'5.3'
p557
sS'_defensiveWinShares'
p558
S'1.0'
p559
sg35
S'22'
p560
sg37
S'STL'
p561
sg39
S'65'
p562
sS'_blockPercentage'
p563
g3
sS'_playerEfficiencyRating'
p564
S'10.0'
p565
sS'_offensiveWinShares'
p566
S'-0.5'
p567
sg56
S'1104'
p568
sS'_boxPlusMinus'
p569
g3
sg49
S'1965-66'
p570
sS'_winShares'
p571
S'0.5'
p572
sba(isrc.gp1.models.Advanced
Advanced
p573
(dp574
g538
g3
sg539
g3
sg540
S'.041'
p575
sg542
g3
sg543
g3
sg544
g3
sg545
g3
sg18
S'PF'
p576
sg547
g3
sg548
S'.439'
p577
sg550
g3
sg551
S'.263'
p578
sg553
g3
sg24
S'NBA'
p579
sg555
g3
sg556
S'5.1'
p580
sg558
S'1.9'
p581
sg35
S'23'
p582
sg37
S'CHI'
p583
sg39
S'77'
p584
sg563
g3
sg564
S'11.4'
p585
sg566
S'-0.6'
p586
sg56
S'1475'
p587
sg569
g3
sg49
S'1966-67'
p588
sg571
S'1.3'
p589
sba(isrc.gp1.models.Advanced
Advanced
p590
(dp591
g538
g3
sg539
g3
sg540
S'.093'
p592
sg542
g3
sg543
g3
sg544
g3
sg545
g3
sg18
g87
sg547
g3
sg548
S'.494'
p593
sg550
g3
sg551
S'.299'
p594
sg553
g3
sg24
S'NBA'
p595
sg555
g3
sg556
S'6.3'
p596
sg558
S'2.9'
p597
sg35
S'24'
p598
sg37
S'CHI'
p599
sg39
S'82'
p600
sg563
g3
sg564
S'14.7'
p601
sg566
S'2.0'
p602
sg56
S'2525'
p603
sg569
g3
sg49
S'1967-68'
p604
sg571
S'4.9'
p605
sba(isrc.gp1.models.Advanced
Advanced
p606
(dp607
g538
g3
sg539
g3
sg540
S'.097'
p608
sg542
g3
sg543
g3
sg544
g3
sg545
g3
sg18
S'SF'
p609
sg547
g3
sg548
S'.475'
p610
sg550
g3
sg551
S'.348'
p611
sg553
g3
sg24
S'NBA'
p612
sg555
g3
sg556
S'5.6'
p613
sg558
S'4.0'
p614
sg35
S'25'
p615
sg37
S'CHI'
p616
sg39
S'80'
p617
sg563
g3
sg564
S'14.7'
p618
sg566
S'1.5'
p619
sg56
S'2705'
p620
sg569
g3
sg49
S'1968-69'
p621
sg571
S'5.4'
p622
sba(isrc.gp1.models.Advanced
Advanced
p623
(dp624
g538
g3
sg539
g3
sg540
S'.107'
p625
sg542
g3
sg543
g3
sg544
g3
sg545
g3
sg18
S'PF'
p626
sg547
g3
sg548
S'.523'
p627
sg550
g3
sg551
S'.324'
p628
sg553
g3
sg24
S'NBA'
p629
sg555
g3
sg556
S'5.1'
p630
sg558
S'2.9'
p631
sg35
S'26'
p632
sg37
S'PHI'
p633
sg39
S'79'
p634
sg563
g3
sg564
S'13.0'
p635
sg566
S'2.5'
p636
sg56
S'2459'
p637
sg569
g3
sg49
S'1969-70'
p638
sg571
S'5.5'
p639
sba(isrc.gp1.models.Advanced
Advanced
p640
(dp641
g538
g3
sg539
g3
sg540
S'.129'
p642
sg542
g3
sg543
g3
sg544
S'13.4'
p643
sg545
g3
sg18
S'PF'
p644
sg547
g3
sg548
S'.536'
p645
sg550
g3
sg551
S'.410'
p646
sg553
g3
sg24
S'NBA'
p647
sg555
g3
sg556
S'5.1'
p648
sg558
S'2.8'
p649
sg35
S'27'
p650
sg37
S'PHI'
p651
sg39
S'78'
p652
sg563
g3
sg564
S'14.3'
p653
sg566
S'3.9'
p654
sg56
S'2501'
p655
sg569
g3
sg49
S'1970-71'
p656
sg571
S'6.7'
p657
sba(isrc.gp1.models.Advanced
Advanced
p658
(dp659
g538
g3
sg539
g3
sg540
S'.070'
p660
sg542
g3
sg543
g3
sg544
S'12.0'
p661
sg545
g3
sg18
S'PF'
p662
sg547
g3
sg548
S'.507'
p663
sg550
g3
sg551
S'.365'
p664
sg553
g3
sg24
S'NBA'
p665
sg555
g3
sg556
S'6.5'
p666
sg558
S'1.9'
p667
sg35
S'28'
p668
sg37
S'TOT'
p669
sg39
S'84'
p670
sg563
g3
sg564
S'12.0'
p671
sg566
S'2.4'
p672
sg56
S'2961'
p673
sg569
g3
sg49
S'1971-72'
p674
sg571
S'4.3'
p675
sba(isrc.gp1.models.Advanced
Advanced
p676
(dp677
g538
g3
sg539
g3
sg540
S'.084'
p678
sg542
g3
sg543
g3
sg544
S'11.2'
p679
sg545
g3
sg18
S'PF'
p680
sg547
g3
sg548
S'.515'
p681
sg550
g3
sg551
S'.429'
p682
sg553
g3
sg24
S'NBA'
p683
sg555
g3
sg556
S'5.9'
p684
sg558
S'0.4'
p685
sg35
S'28'
p686
sg37
S'PHI'
p687
sg39
S'17'
p688
sg563
g3
sg564
S'11.5'
p689
sg566
S'0.5'
p690
sg56
S'545'
p691
sg569
g3
sg49
S'1971-72'
p692
sg571
S'0.9'
p693
sba(isrc.gp1.models.Advanced
Advanced
p694
(dp695
g538
g3
sg539
g3
sg540
S'.067'
p696
sg542
g3
sg543
g3
sg544
S'12.1'
p697
sg545
g3
sg18
S'PF'
p698
sg547
g3
sg548
S'.506'
p699
sg550
g3
sg551
S'.351'
p700
sg553
g3
sg24
S'NBA'
p701
sg555
g3
sg556
S'6.7'
p702
sg558
S'1.5'
p703
sg35
S'28'
p704
sg37
S'ATL'
p705
sg39
S'67'
p706
sg563
g3
sg564
S'12.2'
p707
sg566
S'1.9'
p708
sg56
S'2416'
p709
sg569
g3
sg49
S'1971-72'
p710
sg571
S'3.4'
p711
sba(isrc.gp1.models.Advanced
Advanced
p712
(dp713
g538
g3
sg539
g3
sg540
S'.060'
p714
sg542
g3
sg543
g3
sg544
S'13.5'
p715
sg545
g3
sg18
S'PF'
p716
sg547
g3
sg548
S'.480'
p717
sg550
g3
sg551
S'.314'
p718
sg553
g3
sg24
S'NBA'
p719
sg555
g3
sg556
S'7.5'
p720
sg558
S'2.6'
p721
sg35
S'29'
p722
sg37
S'ATL'
p723
sg39
S'75'
p724
sg563
g3
sg564
S'10.7'
p725
sg566
S'1.0'
p726
sg56
S'2833'
p727
sg569
g3
sg49
S'1972-73'
p728
sg571
S'3.6'
p729
sba(isrc.gp1.models.Advanced
Advanced
p730
(dp731
g538
S'8.1'
p732
sg539
g3
sg540
S'.090'
p733
sg542
S'0.8'
p734
sg543
g3
sg544
S'14.7'
p735
sg545
S'1.3'
p736
sg18
S'PF'
p737
sg547
S'0.8'
p738
sg548
S'.521'
p739
sg550
S'21.5'
p740
sg551
S'.320'
p741
sg553
g3
sg24
S'NBA'
p742
sg555
S'-2.0'
p743
sg556
S'7.8'
p744
sg558
S'2.5'
p745
sg35
S'30'
p746
sg37
S'ATL'
p747
sg39
S'73'
p748
sg563
S'1.5'
p749
sg564
S'11.9'
p750
sg566
S'2.2'
p751
sg56
S'2519'
p752
sg569
S'-0.7'
p753
sg49
S'1973-74'
p754
sg571
S'4.7'
p755
sba(isrc.gp1.models.Advanced
Advanced
p756
(dp757
g538
S'6.9'
p758
sg539
g3
sg540
S'.072'
p759
sg542
S'1.0'
p760
sg543
g3
sg544
S'12.3'
p761
sg545
S'0.5'
p762
sg18
S'PF'
p763
sg547
S'-0.1'
p764
sg548
S'.481'
p765
sg550
S'17.9'
p766
sg551
S'.221'
p767
sg553
g3
sg24
S'NBA'
p768
sg555
S'-2.7'
p769
sg556
S'9.3'
p770
sg558
S'1.4'
p771
sg35
S'31'
p772
sg37
S'TOT'
p773
sg39
S'80'
p774
sg563
S'0.8'
p775
sg564
S'10.8'
p776
sg566
S'1.0'
p777
sg56
S'1579'
p778
sg569
S'-2.2'
p779
sg49
S'1974-75'
p780
sg571
S'2.4'
p781
sba(isrc.gp1.models.Advanced
Advanced
p782
(dp783
g538
S'5.3'
p784
sg539
g3
sg540
S'.071'
p785
sg542
S'1.1'
p786
sg543
g3
sg544
S'10.4'
p787
sg545
S'0.5'
p788
sg18
S'PF'
p789
sg547
S'0.0'
p790
sg548
S'.475'
p791
sg550
S'16.1'
p792
sg551
S'.212'
p793
sg553
g3
sg24
S'NBA'
p794
sg555
S'-2.5'
p795
sg556
S'10.2'
p796
sg558
S'0.7'
p797
sg35
S'31'
p798
sg37
S'ATL'
p799
sg39
S'38'
p800
sg563
S'0.8'
p801
sg564
S'10.9'
p802
sg566
S'0.7'
p803
sg56
S'905'
p804
sg569
S'-1.9'
p805
sg49
S'1974-75'
p806
sg571
S'1.3'
p807
sba(isrc.gp1.models.Advanced
Advanced
p808
(dp809
g538
S'9.1'
p810
sg539
g3
sg540
S'.074'
p811
sg542
S'0.7'
p812
sg543
g3
sg544
S'14.9'
p813
sg545
S'0.3'
p814
sg18
S'PF'
p815
sg547
S'-0.1'
p816
sg548
S'.490'
p817
sg550
S'20.2'
p818
sg551
S'.235'
p819
sg553
g3
sg24
S'NBA'
p820
sg555
S'-3.0'
p821
sg556
S'8.1'
p822
sg558
S'0.7'
p823
sg35
S'31'
p824
sg37
S'BUF'
p825
sg39
S'42'
p826
sg563
S'1.0'
p827
sg564
S'10.6'
p828
sg566
S'0.3'
p829
sg56
S'674'
p830
sg569
S'-2.6'
p831
sg49
S'1974-75'
p832
sg571
S'1.0'
p833
sba(isrc.gp1.models.Advanced
Advanced
p834
(dp835
g538
S'15.4'
p836
sg539
g3
sg540
S'-0.017'
p837
sg542
S'0.0'
p838
sg543
g3
sg544
S'7.5'
p839
sg545
S'-1.3'
p840
sg18
S'PF'
p841
sg547
S'0.0'
p842
sg548
S'.000'
p843
sg550
S'0.0'
p844
sg551
S'.000'
p845
sg553
g3
sg24
S'NBA'
p846
sg555
S'-7.4'
p847
sg556
S'16.2'
p848
sg558
S'0.0'
p849
sg35
S'32'
p850
sg37
S'BUF'
p851
sg39
g376
sg563
S'0.0'
p852
sg564
S'3.7'
p853
sg566
S'0.0'
p854
sg56
g386
sg569
S'-8.7'
p855
sg49
S'1975-76'
p856
sg571
S'0.0'
p857
sbasS'_per36Minutes'
p858
(lp859
(isrc.gp1.models.Per36Minutes
Per36Minutes
p860
(dp861
g8
g3
sg9
g3
sg10
S'.402'
p862
sg12
S'1.4'
p863
sg14
g3
sg15
g3
sg16
S'12.5'
p864
sg18
S'PF'
p865
sg20
S'.567'
p866
sg24
S'NBA'
p867
sg26
g3
sg27
S'12.8'
p868
sg29
S'5.7'
p869
sg31
S'3.9'
p870
sg33
S'11.5'
p871
sg35
S'22'
p872
sg37
S'STL'
p873
sg39
S'65'
p874
sg41
g3
sg42
S'5.2'
p875
sg44
S'2.2'
p876
sg46
S'12.8'
p877
sg48
g3
sg49
S'1965-66'
p878
sg51
S'5.2'
p879
sg53
g3
sg54
S'.402'
p880
sg56
S'1104'
p881
sg58
g3
sba(isrc.gp1.models.Per36Minutes
Per36Minutes
p882
(dp883
g8
g3
sg9
g3
sg10
S'.417'
p884
sg12
S'1.4'
p885
sg14
g3
sg15
g3
sg16
S'14.4'
p886
sg18
S'PF'
p887
sg20
S'.553'
p888
sg24
S'NBA'
p889
sg26
g3
sg27
S'14.7'
p890
sg29
S'4.4'
p891
sg31
S'3.9'
p892
sg33
S'11.4'
p893
sg35
S'23'
p894
sg37
S'CHI'
p895
sg39
S'77'
p896
sg41
g3
sg42
S'6.2'
p897
sg44
S'2.1'
p898
sg46
S'14.7'
p899
sg48
g3
sg49
S'1966-67'
p900
sg51
S'6.2'
p901
sg53
g3
sg54
S'.417'
p902
sg56
S'1475'
p903
sg58
g3
sba(isrc.gp1.models.Per36Minutes
Per36Minutes
p904
(dp905
g8
g3
sg9
g3
sg10
S'.457'
p906
sg12
S'1.6'
p907
sg14
g3
sg15
g3
sg16
S'14.6'
p908
sg18
g87
sg20
S'.682'
p909
sg24
S'NBA'
p910
sg26
g3
sg27
S'13.0'
p911
sg29
S'3.3'
p912
sg31
S'3.9'
p913
sg33
S'11.8'
p914
sg35
S'24'
p915
sg37
S'CHI'
p916
sg39
S'82'
p917
sg41
g3
sg42
S'6.0'
p918
sg44
S'2.7'
p919
sg46
S'13.0'
p920
sg48
g3
sg49
S'1967-68'
p921
sg51
S'6.0'
p922
sg53
g3
sg54
S'.457'
p923
sg56
S'2525'
p924
sg58
g3
sba(isrc.gp1.models.Per36Minutes
Per36Minutes
p925
(dp926
g8
g3
sg9
g3
sg10
S'.430'
p927
sg12
S'1.4'
p928
sg14
g3
sg15
g3
sg16
S'14.9'
p929
sg18
S'SF'
p930
sg20
S'.677'
p931
sg24
S'NBA'
p932
sg26
g3
sg27
S'13.6'
p933
sg29
S'3.0'
p934
sg31
S'4.7'
p935
sg33
S'11.3'
p936
sg35
S'25'
p937
sg37
S'CHI'
p938
sg39
S'80'
p939
sg41
g3
sg42
S'5.9'
p940
sg44
S'3.2'
p941
sg46
S'13.6'
p942
sg48
g3
sg49
S'1968-69'
p943
sg51
S'5.9'
p944
sg53
g3
sg54
S'.430'
p945
sg56
S'2705'
p946
sg58
g3
sba(isrc.gp1.models.Per36Minutes
Per36Minutes
p947
(dp948
g8
g3
sg9
g3
sg10
S'.476'
p949
sg12
S'1.5'
p950
sg14
g3
sg15
g3
sg16
S'14.7'
p951
sg18
S'PF'
p952
sg20
S'.747'
p953
sg24
S'NBA'
p954
sg26
g3
sg27
S'12.3'
p955
sg29
S'3.8'
p956
sg31
S'4.0'
p957
sg33
S'10.7'
p958
sg35
S'26'
p959
sg37
S'PHI'
p960
sg39
S'79'
p961
sg41
g3
sg42
S'5.9'
p962
sg44
S'3.0'
p963
sg46
S'12.3'
p964
sg48
g3
sg49
S'1969-70'
p965
sg51
S'5.9'
p966
sg53
g3
sg54
S'.476'
p967
sg56
S'2459'
p968
sg58
g3
sba(isrc.gp1.models.Per36Minutes
Per36Minutes
p969
(dp970
g8
g3
sg9
g3
sg10
S'.476'
p971
sg12
S'1.4'
p972
sg14
g3
sg15
g3
sg16
S'15.1'
p973
sg18
S'PF'
p974
sg20
S'.762'
p975
sg24
S'NBA'
p976
sg26
g3
sg27
S'11.9'
p977
sg29
S'3.7'
p978
sg31
S'4.9'
p979
sg33
S'10.8'
p980
sg35
S'27'
p981
sg37
S'PHI'
p982
sg39
S'78'
p983
sg41
g3
sg42
S'5.7'
p984
sg44
S'3.7'
p985
sg46
S'11.9'
p986
sg48
g3
sg49
S'1970-71'
p987
sg51
S'5.7'
p988
sg53
g3
sg54
S'.476'
p989
sg56
S'2501'
p990
sg58
g3
sba(isrc.gp1.models.Per36Minutes
Per36Minutes
p991
(dp992
g8
g3
sg9
g3
sg10
S'.444'
p993
sg12
S'1.8'
p994
sg14
g3
sg15
g3
sg16
S'12.7'
p995
sg18
S'PF'
p996
sg20
S'.793'
p997
sg24
S'NBA'
p998
sg26
g3
sg27
S'10.8'
p999
sg29
S'3.4'
p1000
sg31
S'3.9'
p1001
sg33
S'8.9'
p1002
sg35
S'28'
p1003
sg37
S'TOT'
p1004
sg39
S'84'
p1005
sg41
g3
sg42
S'4.8'
p1006
sg44
S'3.1'
p1007
sg46
S'10.8'
p1008
sg48
g3
sg49
S'1971-72'
p1009
sg51
S'4.8'
p1010
sg53
g3
sg54
S'.444'
p1011
sg56
S'2961'
p1012
sg58
g3
sba(isrc.gp1.models.Per36Minutes
Per36Minutes
p1013
(dp1014
g8
g3
sg9
g3
sg10
S'.436'
p1015
sg12
S'1.7'
p1016
sg14
g3
sg15
g3
sg16
S'12.6'
p1017
sg18
S'PF'
p1018
sg20
S'.821'
p1019
sg24
S'NBA'
p1020
sg26
g3
sg27
S'10.3'
p1021
sg29
S'3.9'
p1022
sg31
S'4.4'
p1023
sg33
S'8.9'
p1024
sg35
S'28'
p1025
sg37
S'PHI'
p1026
sg39
S'17'
p1027
sg41
g3
sg42
S'4.5'
p1028
sg44
S'3.6'
p1029
sg46
S'10.3'
p1030
sg48
g3
sg49
S'1971-72'
p1031
sg51
S'4.5'
p1032
sg53
g3
sg54
S'.436'
p1033
sg56
S'545'
p1034
sg58
g3
sba(isrc.gp1.models.Per36Minutes
Per36Minutes
p1035
(dp1036
g8
g3
sg9
g3
sg10
S'.446'
p1037
sg12
S'1.8'
p1038
sg14
g3
sg15
g3
sg16
S'12.7'
p1039
sg18
S'PF'
p1040
sg20
S'.785'
p1041
sg24
S'NBA'
p1042
sg26
g3
sg27
S'10.9'
p1043
sg29
S'3.2'
p1044
sg31
S'3.8'
p1045
sg33
S'9.0'
p1046
sg35
S'28'
p1047
sg37
S'ATL'
p1048
sg39
S'67'
p1049
sg41
g3
sg42
S'4.8'
p1050
sg44
S'3.0'
p1051
sg46
S'10.9'
p1052
sg48
g3
sg49
S'1971-72'
p1053
sg51
S'4.8'
p1054
sg53
g3
sg54
S'.446'
p1055
sg56
S'2416'
p1056
sg58
g3
sba(isrc.gp1.models.Per36Minutes
Per36Minutes
p1057
(dp1058
g8
g3
sg9
g3
sg10
S'.432'
p1059
sg12
S'2.2'
p1060
sg14
g3
sg15
g3
sg16
S'9.9'
p1061
sg18
S'PF'
p1062
sg20
S'.728'
p1063
sg24
S'NBA'
p1064
sg26
g3
sg27
S'9.1'
p1065
sg29
S'3.2'
p1066
sg31
S'2.8'
p1067
sg33
S'10.2'
p1068
sg35
S'29'
p1069
sg37
S'ATL'
p1070
sg39
S'75'
p1071
sg41
g3
sg42
S'3.9'
p1072
sg44
S'2.1'
p1073
sg46
S'9.1'
p1074
sg48
g3
sg49
S'1972-73'
p1075
sg51
S'3.9'
p1076
sg53
g3
sg54
S'.432'
p1077
sg56
S'2833'
p1078
sg58
g3
sba(isrc.gp1.models.Per36Minutes
Per36Minutes
p1079
(dp1080
g8
S'3.0'
p1081
sg9
g3
sg10
S'.485'
p1082
sg12
S'2.2'
p1083
sg14
g3
sg15
g3
sg16
S'10.4'
p1084
sg18
S'PF'
p1085
sg20
S'.684'
p1086
sg24
S'NBA'
p1087
sg26
S'0.7'
p1088
sg27
S'8.7'
p1089
sg29
S'3.6'
p1090
sg31
S'2.8'
p1091
sg33
S'10.5'
p1092
sg35
S'30'
p1093
sg37
S'ATL'
p1094
sg39
S'73'
p1095
sg41
S'1.1'
p1096
sg42
S'4.2'
p1097
sg44
S'1.9'
p1098
sg46
S'8.7'
p1099
sg48
S'7.5'
p1100
sg49
S'1973-74'
p1101
sg51
S'4.2'
p1102
sg53
g3
sg54
S'.485'
p1103
sg56
S'2519'
p1104
sg58
g3
sba(isrc.gp1.models.Per36Minutes
Per36Minutes
p1105
(dp1106
g8
S'2.5'
p1107
sg9
g3
sg10
S'.454'
p1108
sg12
S'2.5'
p1109
sg14
g3
sg15
g3
sg16
S'10.1'
p1110
sg18
S'PF'
p1111
sg20
S'.667'
p1112
sg24
S'NBA'
p1113
sg26
S'0.8'
p1114
sg27
S'9.6'
p1115
sg29
S'3.8'
p1116
sg31
S'2.1'
p1117
sg33
S'8.9'
p1118
sg35
S'31'
p1119
sg37
S'TOT'
p1120
sg39
S'80'
p1121
sg41
S'0.6'
p1122
sg42
S'4.4'
p1123
sg44
S'1.4'
p1124
sg46
S'9.6'
p1125
sg48
S'6.4'
p1126
sg49
S'1974-75'
p1127
sg51
S'4.4'
p1128
sg53
g3
sg54
S'.454'
p1129
sg56
S'1579'
p1130
sg58
g3
sba(isrc.gp1.models.Per36Minutes
Per36Minutes
p1131
(dp1132
g8
S'2.1'
p1133
sg9
g3
sg10
S'.440'
p1134
sg12
S'2.7'
p1135
sg14
g3
sg15
g3
sg16
S'10.7'
p1136
sg18
S'PF'
p1137
sg20
S'.745'
p1138
sg24
S'NBA'
p1139
sg26
S'0.9'
p1140
sg27
S'10.3'
p1141
sg29
S'3.4'
p1142
sg31
S'2.2'
p1143
sg33
S'7.7'
p1144
sg35
S'31'
p1145
sg37
S'ATL'
p1146
sg39
S'38'
p1147
sg41
S'0.5'
p1148
sg42
S'4.5'
p1149
sg44
S'1.6'
p1150
sg46
S'10.3'
p1151
sg48
S'5.6'
p1152
sg49
S'1974-75'
p1153
sg51
S'4.5'
p1154
sg53
g3
sg54
S'.440'
p1155
sg56
S'905'
p1156
sg58
g3
sba(isrc.gp1.models.Per36Minutes
Per36Minutes
p1157
(dp1158
g8
S'3.1'
p1159
sg9
g3
sg10
S'.475'
p1160
sg12
S'2.3'
p1161
sg14
g3
sg15
g3
sg16
S'9.3'
p1162
sg18
S'PF'
p1163
sg20
S'.553'
p1164
sg24
S'NBA'
p1165
sg26
S'0.6'
p1166
sg27
S'8.7'
p1167
sg29
S'4.3'
p1168
sg31
S'2.0'
p1169
sg33
S'10.5'
p1170
sg35
S'31'
p1171
sg37
S'BUF'
p1172
sg39
S'42'
p1173
sg41
S'0.7'
p1174
sg42
S'4.1'
p1175
sg44
S'1.1'
p1176
sg46
S'8.7'
p1177
sg48
S'7.4'
p1178
sg49
S'1974-75'
p1179
sg51
S'4.1'
p1180
sg53
g3
sg54
S'.475'
p1181
sg56
S'674'
p1182
sg58
g3
sba(isrc.gp1.models.Per36Minutes
Per36Minutes
p1183
(dp1184
g8
S'5.1'
p1185
sg9
g3
sg10
S'.000'
p1186
sg12
S'5.1'
p1187
sg14
g3
sg15
g3
sg16
S'0.0'
p1188
sg18
S'PF'
p1189
sg20
g3
sg24
S'NBA'
p1190
sg26
S'0.0'
p1191
sg27
S'5.1'
p1192
sg29
S'0.0'
p1193
sg31
S'0.0'
p1194
sg33
S'5.1'
p1195
sg35
S'32'
p1196
sg37
S'BUF'
p1197
sg39
g376
sg41
S'0.0'
p1198
sg42
S'0.0'
p1199
sg44
S'0.0'
p1200
sg46
S'5.1'
p1201
sg48
S'0.0'
p1202
sg49
S'1975-76'
p1203
sg51
S'0.0'
p1204
sg53
g3
sg54
S'.000'
p1205
sg56
g386
sg58
g3
sbasS'_fromYear'
p1206
S'1966'
p1207
sS'_url'
p1208
S'http://www.basketball-reference.com/players/w/washiji01.html'
p1209
sS'_perGame'
p1210
(isrc.gp1.models.PerGame
PerGame
p1211
(dp1212
g8
S'1.0'
p1213
sg9
g3
sg10
S'.000'
p1214
sS'_effectiveFieldGalPercentage'
p1215
S'.000'
p1216
sg12
S'1.0'
p1217
sg14
g3
sg15
g3
sg16
S'0.0'
p1218
sg18
S'PF'
p1219
sg20
g3
sg24
S'NBA'
p1220
sg26
S'0.0'
p1221
sg29
S'0.0'
p1222
sS'_fieldGoalsttempted'
p1223
S'1.0'
p1224
sg31
S'0.0'
p1225
sg33
S'1.0'
p1226
sg35
S'32'
p1227
sg37
S'BUF'
p1228
sg39
g376
sg41
S'0.0'
p1229
sg42
S'0.0'
p1230
sg44
S'0.0'
p1231
sg46
S'1.0'
p1232
sg48
S'0.0'
p1233
sg49
S'1975-76'
p1234
sg51
S'0.0'
p1235
sg53
g3
sg54
S'.000'
p1236
sg56
S'7.0'
p1237
sg58
g3
sbsS'_weight'
p1238
S'210'
p1239
sS'_dob'
p1240
S'1-7-1943'
p1241
sS'_salary'
p1242
(lp1243
sg18
S'F-C'
p1244
sb.