(isrc.gp1.models.Player
Player
p0
(dp1
S'_experience'
p2
S'NA'
p3
sS'_totals'
p4
(lp5
(isrc.gp1.models.Totals
Totals
p6
(dp7
S'_offensiveRebounds'
p8
S'201'
p9
sS'_threePointsAttempted'
p10
g3
sS'_fieldGoalsPercentage'
p11
S'.431'
p12
sS'_assist'
p13
S'85'
p14
sS'_threePointsPercentage'
p15
g3
sS'_threePoints'
p16
g3
sS'_points'
p17
S'1069'
p18
sS'_position'
p19
S'PF'
p20
sS'_freeThrowsPercentage'
p21
S'.697'
p22
sS'_effectiveFieldGoalPercentage'
p23
S'.431'
p24
sS'_league'
p25
S'NBA'
p26
sS'_steals'
p27
S'63'
p28
sS'_fieldGoalsAttempted'
p29
S'1034'
p30
sS'_personalFouls'
p31
S'324'
p32
sS'_freeThrowsAttempted'
p33
S'254'
p34
sS'_totalRebounds'
p35
S'698'
p36
sS'_age'
p37
S'21'
p38
sS'_team'
p39
S'KCK'
p40
sS'_games'
p41
S'82'
p42
sS'_blocks'
p43
S'90'
p44
sS'_twoPoints'
p45
S'446'
p46
sS'_freeThrows'
p47
S'177'
p48
sS'_twoPointsAttempted'
p49
S'1034'
p50
sS'_defensiveRebounds'
p51
S'497'
p52
sS'_season'
p53
S'1976-77'
p54
sS'_fieldGoals'
p55
S'446'
p56
sS'_turnOvers'
p57
g3
sS'_twoPointsPercentage'
p58
S'.431'
p59
sS'_minutesPlayed'
p60
S'2265'
p61
sS'_gamesStarted'
p62
g3
sba(isrc.gp1.models.Totals
Totals
p63
(dp64
g8
S'188'
p65
sg10
g3
sg11
S'.477'
p66
sg13
S'118'
p67
sg15
g3
sg16
g3
sg17
S'1000'
p68
sg19
S'PF'
p69
sg21
S'.754'
p70
sg23
S'.477'
p71
sg25
S'NBA'
p72
sg27
S'74'
p73
sg29
S'891'
p74
sg31
S'324'
p75
sg33
S'199'
p76
sg35
S'654'
p77
sg37
S'22'
p78
sg39
S'KCK'
p79
sg41
S'78'
p80
sg43
S'73'
p81
sg45
S'425'
p82
sg47
S'150'
p83
sg49
S'891'
p84
sg51
S'466'
p85
sg53
S'1977-78'
p86
sg55
S'425'
p87
sg57
S'191'
p88
sg58
S'.477'
p89
sg60
S'2231'
p90
sg62
g3
sba(isrc.gp1.models.Totals
Totals
p91
(dp92
g8
S'11'
p93
sg10
g3
sg11
S'.341'
p94
sg13
S'7'
p95
sg15
g3
sg16
g3
sg17
S'38'
p96
sg19
S'PF'
p97
sg21
S'.625'
p98
sg23
S'.341'
p99
sg25
S'NBA'
p100
sg27
g95
sg29
S'41'
p101
sg31
S'31'
p102
sg33
S'16'
p103
sg35
S'48'
p104
sg37
S'23'
p105
sg39
S'KCK'
p106
sg41
S'18'
p107
sg43
S'3'
p108
sg45
S'14'
p109
sg47
S'10'
p110
sg49
S'41'
p111
sg51
S'37'
p112
sg53
S'1978-79'
p113
sg55
S'14'
p114
sg57
S'15'
p115
sg58
S'.341'
p116
sg60
S'161'
p117
sg62
g3
sba(isrc.gp1.models.Totals
Totals
p118
(dp119
g8
S'95'
p120
sg10
S'0'
p121
sg11
S'.468'
p122
sg13
S'55'
p123
sg15
g3
sg16
g121
sg17
S'440'
p124
sg19
S'PF'
p125
sg21
S'.605'
p126
sg23
S'.468'
p127
sg25
S'NBA'
p128
sg27
S'26'
p129
sg29
S'421'
p130
sg31
S'166'
p131
sg33
S'76'
p132
sg35
S'276'
p133
sg37
S'24'
p134
sg39
S'MIL'
p135
sg41
S'75'
p136
sg43
S'48'
p137
sg45
S'197'
p138
sg47
S'46'
p139
sg49
S'421'
p140
sg51
S'181'
p141
sg53
S'1979-80'
p142
sg55
S'197'
p143
sg57
S'63'
p144
sg58
S'.468'
p145
sg60
S'1092'
p146
sg62
g3
sba(isrc.gp1.models.Totals
Totals
p147
(dp148
g8
S'158'
p149
sg10
S'2'
p150
sg11
S'.455'
p151
sg13
S'129'
p152
sg15
S'.500'
p153
sg16
S'1'
p154
sg17
S'800'
p155
sg19
S'PF'
p156
sg21
S'.748'
p157
sg23
S'.456'
p158
sg25
S'NBA'
p159
sg27
S'46'
p160
sg29
S'747'
p161
sg31
S'283'
p162
sg33
S'159'
p163
sg35
S'453'
p164
sg37
S'25'
p165
sg39
S'TOT'
p166
sg41
S'80'
p167
sg43
S'61'
p168
sg45
S'339'
p169
sg47
S'119'
p170
sg49
S'745'
p171
sg51
S'295'
p172
sg53
S'1980-81'
p173
sg55
S'340'
p174
sg57
S'129'
p175
sg58
S'.455'
p176
sg60
S'1812'
p177
sg62
g3
sba(isrc.gp1.models.Totals
Totals
p178
(dp179
g8
S'25'
p180
sg10
g121
sg11
S'.436'
p181
sg13
S'16'
p182
sg15
g3
sg16
g121
sg17
S'119'
p183
sg19
S'PF'
p184
sg21
S'.739'
p185
sg23
S'.436'
p186
sg25
S'NBA'
p187
sg27
S'5'
p188
sg29
S'117'
p189
sg31
S'37'
p190
sg33
S'23'
p191
sg35
S'84'
p192
sg37
S'25'
p193
sg39
S'DAL'
p194
sg41
S'11'
p195
sg43
g95
sg45
S'51'
p196
sg47
S'17'
p197
sg49
S'117'
p198
sg51
S'59'
p199
sg53
S'1980-81'
p200
sg55
S'51'
p201
sg57
S'21'
p202
sg58
S'.436'
p203
sg60
S'307'
p204
sg62
g3
sba(isrc.gp1.models.Totals
Totals
p205
(dp206
g8
S'133'
p207
sg10
g150
sg11
S'.459'
p208
sg13
S'113'
p209
sg15
S'.500'
p210
sg16
g154
sg17
S'681'
p211
sg19
S'PF'
p212
sg21
S'.750'
p213
sg23
S'.460'
p214
sg25
S'NBA'
p215
sg27
S'41'
p216
sg29
S'630'
p217
sg31
S'246'
p218
sg33
S'136'
p219
sg35
S'369'
p220
sg37
S'25'
p221
sg39
S'CLE'
p222
sg41
S'69'
p223
sg43
S'54'
p224
sg45
S'288'
p225
sg47
S'102'
p226
sg49
S'628'
p227
sg51
S'236'
p228
sg53
S'1980-81'
p229
sg55
S'289'
p230
sg57
S'108'
p231
sg58
S'.459'
p232
sg60
S'1505'
p233
sg62
g3
sba(isrc.gp1.models.Totals
Totals
p234
(dp235
g8
S'32'
p236
sg10
g150
sg11
S'.435'
p237
sg13
S'15'
p238
sg15
S'.000'
p239
sg16
g121
sg17
S'109'
p240
sg19
S'PF'
p241
sg21
S'.600'
p242
sg23
S'.435'
p243
sg25
S'NBA'
p244
sg27
S'8'
p245
sg29
S'115'
p246
sg31
S'51'
p247
sg33
S'15'
p248
sg35
S'75'
p249
sg37
S'26'
p250
sg39
S'CLE'
p251
sg41
S'18'
p252
sg43
g150
sg45
S'50'
p253
sg47
S'9'
p254
sg49
S'113'
p255
sg51
S'43'
p256
sg53
S'1981-82'
p257
sg55
S'50'
p258
sg57
S'35'
p259
sg58
S'.442'
p260
sg60
S'313'
p261
sg62
g150
sbasS'_college'
p262
S'University of California, Los Angeles'
p263
sS'_toYear'
p264
S'1982'
p265
sS'_height'
p266
S'6-11'
p267
sS'_active'
p268
I00
sS'_shootingHand'
p269
VRight
p270
sS'_name'
p271
S'Richard Washington'
p272
sS'_per100Possessions'
p273
(lp274
(isrc.gp1.models.Per100Possession
Per100Possession
p275
(dp276
g8
S'4.0'
p277
sg10
g3
sg11
S'.431'
p278
sS'_offensiveRating'
p279
g3
sg13
S'1.7'
p280
sg15
g3
sg16
g3
sg17
S'21.3'
p281
sg19
S'PF'
p282
sS'_defensiveRating'
p283
S'98'
p284
sg21
S'.697'
p285
sg25
S'NBA'
p286
sg27
S'1.3'
p287
sg29
S'20.6'
p288
sg31
S'6.5'
p289
sg33
S'5.1'
p290
sg35
S'13.9'
p291
sg37
S'21'
p292
sg39
S'KCK'
p293
sg41
S'82'
p294
sg43
S'1.8'
p295
sg45
S'8.9'
p296
sg47
S'3.5'
p297
sg49
S'20.6'
p298
sg51
S'9.9'
p299
sg53
S'1976-77'
p300
sg55
S'8.9'
p301
sg57
g3
sg58
S'.431'
p302
sg60
S'2265'
p303
sg62
g3
sba(isrc.gp1.models.Per100Possession
Per100Possession
p304
(dp305
g8
S'3.7'
p306
sg10
g3
sg11
S'.477'
p307
sg279
S'98'
p308
sg13
S'2.3'
p309
sg15
g3
sg16
g3
sg17
S'19.9'
p310
sg19
S'PF'
p311
sg283
S'100'
p312
sg21
S'.754'
p313
sg25
S'NBA'
p314
sg27
S'1.5'
p315
sg29
S'17.7'
p316
sg31
S'6.4'
p317
sg33
S'4.0'
p318
sg35
S'13.0'
p319
sg37
S'22'
p320
sg39
S'KCK'
p321
sg41
S'78'
p322
sg43
S'1.5'
p323
sg45
S'8.5'
p324
sg47
S'3.0'
p325
sg49
S'17.7'
p326
sg51
S'9.3'
p327
sg53
S'1977-78'
p328
sg55
S'8.5'
p329
sg57
S'3.8'
p330
sg58
S'.477'
p331
sg60
S'2231'
p332
sg62
g3
sba(isrc.gp1.models.Per100Possession
Per100Possession
p333
(dp334
g8
S'3.1'
p335
sg10
g3
sg11
S'.341'
p336
sg279
S'76'
p337
sg13
S'1.9'
p338
sg15
g3
sg16
g3
sg17
S'10.6'
p339
sg19
S'PF'
p340
sg283
S'98'
p341
sg21
S'.625'
p342
sg25
S'NBA'
p343
sg27
S'1.9'
p344
sg29
S'11.4'
p345
sg31
S'8.6'
p346
sg33
S'4.4'
p347
sg35
S'13.3'
p348
sg37
S'23'
p349
sg39
S'KCK'
p350
sg41
S'18'
p351
sg43
S'0.8'
p352
sg45
S'3.9'
p353
sg47
S'2.8'
p354
sg49
S'11.4'
p355
sg51
S'10.3'
p356
sg53
S'1978-79'
p357
sg55
S'3.9'
p358
sg57
S'4.2'
p359
sg58
S'.341'
p360
sg60
S'161'
p361
sg62
g3
sba(isrc.gp1.models.Per100Possession
Per100Possession
p362
(dp363
g8
S'4.1'
p364
sg10
S'0.0'
p365
sg11
S'.468'
p366
sg279
S'101'
p367
sg13
S'2.4'
p368
sg15
g3
sg16
S'0.0'
p369
sg17
S'18.9'
p370
sg19
S'PF'
p371
sg283
S'102'
p372
sg21
S'.605'
p373
sg25
S'NBA'
p374
sg27
S'1.1'
p375
sg29
S'18.1'
p376
sg31
S'7.1'
p377
sg33
S'3.3'
p378
sg35
S'11.8'
p379
sg37
S'24'
p380
sg39
S'MIL'
p381
sg41
S'75'
p382
sg43
S'2.1'
p383
sg45
S'8.5'
p384
sg47
S'2.0'
p385
sg49
S'18.1'
p386
sg51
S'7.8'
p387
sg53
S'1979-80'
p388
sg55
S'8.5'
p389
sg57
S'2.7'
p390
sg58
S'.468'
p391
sg60
S'1092'
p392
sg62
g3
sba(isrc.gp1.models.Per100Possession
Per100Possession
p393
(dp394
g8
S'4.2'
p395
sg10
S'0.1'
p396
sg11
S'.455'
p397
sg279
S'100'
p398
sg13
S'3.4'
p399
sg15
S'.500'
p400
sg16
S'0.0'
p401
sg17
S'21.1'
p402
sg19
S'PF'
p403
sg283
S'107'
p404
sg21
S'.748'
p405
sg25
S'NBA'
p406
sg27
S'1.2'
p407
sg29
S'19.7'
p408
sg31
S'7.5'
p409
sg33
S'4.2'
p410
sg35
S'11.9'
p411
sg37
S'25'
p412
sg39
S'TOT'
p413
sg41
S'80'
p414
sg43
S'1.6'
p415
sg45
S'8.9'
p416
sg47
S'3.1'
p417
sg49
S'19.6'
p418
sg51
S'7.8'
p419
sg53
S'1980-81'
p420
sg55
S'9.0'
p421
sg57
S'3.4'
p422
sg58
S'.455'
p423
sg60
S'1812'
p424
sg62
g3
sba(isrc.gp1.models.Per100Possession
Per100Possession
p425
(dp426
g8
S'4.0'
p427
sg10
S'0.0'
p428
sg11
S'.436'
p429
sg279
S'94'
p430
sg13
S'2.5'
p431
sg15
g3
sg16
S'0.0'
p432
sg17
S'18.9'
p433
sg19
S'PF'
p434
sg283
S'109'
p435
sg21
S'.739'
p436
sg25
S'NBA'
p437
sg27
S'0.8'
p438
sg29
S'18.5'
p439
sg31
S'5.9'
p440
sg33
S'3.6'
p441
sg35
S'13.3'
p442
sg37
S'25'
p443
sg39
S'DAL'
p444
sg41
S'11'
p445
sg43
S'1.1'
p446
sg45
S'8.1'
p447
sg47
S'2.7'
p448
sg49
S'18.5'
p449
sg51
S'9.4'
p450
sg53
S'1980-81'
p451
sg55
S'8.1'
p452
sg57
S'3.3'
p453
sg58
S'.436'
p454
sg60
S'307'
p455
sg62
g3
sba(isrc.gp1.models.Per100Possession
Per100Possession
p456
(dp457
g8
S'4.2'
p458
sg10
S'0.1'
p459
sg11
S'.459'
p460
sg279
S'101'
p461
sg13
S'3.6'
p462
sg15
S'.500'
p463
sg16
S'0.0'
p464
sg17
S'21.5'
p465
sg19
S'PF'
p466
sg283
S'107'
p467
sg21
S'.750'
p468
sg25
S'NBA'
p469
sg27
S'1.3'
p470
sg29
S'19.9'
p471
sg31
S'7.8'
p472
sg33
S'4.3'
p473
sg35
S'11.7'
p474
sg37
S'25'
p475
sg39
S'CLE'
p476
sg41
S'69'
p477
sg43
S'1.7'
p478
sg45
S'9.1'
p479
sg47
S'3.2'
p480
sg49
S'19.9'
p481
sg51
S'7.5'
p482
sg53
S'1980-81'
p483
sg55
S'9.1'
p484
sg57
S'3.4'
p485
sg58
S'.459'
p486
sg60
S'1505'
p487
sg62
g3
sba(isrc.gp1.models.Per100Possession
Per100Possession
p488
(dp489
g8
S'4.9'
p490
sg10
S'0.3'
p491
sg11
S'.435'
p492
sg279
S'83'
p493
sg13
S'2.3'
p494
sg15
S'.000'
p495
sg16
S'0.0'
p496
sg17
S'16.8'
p497
sg19
S'PF'
p498
sg283
S'112'
p499
sg21
S'.600'
p500
sg25
S'NBA'
p501
sg27
S'1.2'
p502
sg29
S'17.8'
p503
sg31
S'7.9'
p504
sg33
S'2.3'
p505
sg35
S'11.6'
p506
sg37
S'26'
p507
sg39
S'CLE'
p508
sg41
S'18'
p509
sg43
S'0.3'
p510
sg45
S'7.7'
p511
sg47
S'1.4'
p512
sg49
S'17.5'
p513
sg51
S'6.6'
p514
sg53
S'1981-82'
p515
sg55
S'7.7'
p516
sg57
S'5.4'
p517
sg58
S'.442'
p518
sg60
S'313'
p519
sg62
g150
sbasS'_advanced'
p520
(lp521
(isrc.gp1.models.Advanced
Advanced
p522
(dp523
S'_offensiveReboundPercentage'
p524
S'8.9'
p525
sS'_turnOverPercentage'
p526
g3
sS'_winSharesPer48Minutes'
p527
S'.068'
p528
sS'_stealPercentage'
p529
S'1.3'
p530
sS'_usagePercentage'
p531
g3
sS'_totalReboundsPercentage'
p532
S'16.0'
p533
sS'_defensiveBoxPlusMinus'
p534
S'-0.8'
p535
sg19
S'PF'
p536
sS'_valueOverReplacementPlayer'
p537
S'-0.9'
p538
sS'_trueShootingPercentage'
p539
S'.467'
p540
sS'_defensiveReboundPercentage'
p541
S'23.6'
p542
sS'_freeThrowsAttempRate'
p543
S'.246'
p544
sS'_threePointsAttempRate'
p545
g3
sg25
S'NBA'
p546
sS'_offensiveBoxPlusMinues'
p547
S'-2.7'
p548
sS'_assistPercentage'
p549
S'5.4'
p550
sS'_defensiveWinShares'
p551
S'3.0'
p552
sg37
S'21'
p553
sg39
S'KCK'
p554
sg41
S'82'
p555
sS'_blockPercentage'
p556
S'2.2'
p557
sS'_playerEfficiencyRating'
p558
S'14.2'
p559
sS'_offensiveWinShares'
p560
S'0.3'
p561
sg60
S'2265'
p562
sS'_boxPlusMinus'
p563
S'-3.5'
p564
sg53
S'1976-77'
p565
sS'_winShares'
p566
S'3.2'
p567
sba(isrc.gp1.models.Advanced
Advanced
p568
(dp569
g524
S'8.6'
p570
sg526
S'16.3'
p571
sg527
S'.085'
p572
sg529
S'1.5'
p573
sg531
S'20.0'
p574
sg532
S'15.0'
p575
sg534
S'0.4'
p576
sg19
S'PF'
p577
sg537
S'0.8'
p578
sg539
S'.511'
p579
sg541
S'21.4'
p580
sg543
S'.223'
p581
sg545
g3
sg25
S'NBA'
p582
sg547
S'-1.0'
p583
sg549
S'7.4'
p584
sg551
S'2.6'
p585
sg37
S'22'
p586
sg39
S'KCK'
p587
sg41
S'78'
p588
sg556
S'1.7'
p589
sg558
S'14.2'
p590
sg560
S'1.3'
p591
sg60
S'2231'
p592
sg563
S'-0.6'
p593
sg53
S'1977-78'
p594
sg566
S'3.9'
p595
sba(isrc.gp1.models.Advanced
Advanced
p596
(dp597
g524
S'7.3'
p598
sg526
S'23.8'
p599
sg527
S'-0.006'
p600
sg529
S'1.9'
p601
sg531
S'15.1'
p602
sg532
S'16.2'
p603
sg534
S'1.1'
p604
sg19
S'PF'
p605
sg537
S'-0.2'
p606
sg539
S'.396'
p607
sg541
S'25.6'
p608
sg543
S'.390'
p609
sg545
g3
sg25
S'NBA'
p610
sg547
S'-6.8'
p611
sg549
S'5.1'
p612
sg551
S'0.3'
p613
sg37
S'23'
p614
sg39
S'KCK'
p615
sg41
S'18'
p616
sg556
S'1.0'
p617
sg558
S'5.3'
p618
sg560
S'-0.3'
p619
sg60
S'161'
p620
sg563
S'-5.7'
p621
sg53
S'1978-79'
p622
sg566
S'0.0'
p623
sba(isrc.gp1.models.Advanced
Advanced
p624
(dp625
g524
S'9.7'
p626
sg526
S'12.2'
p627
sg527
S'.089'
p628
sg529
S'1.1'
p629
sg531
S'18.8'
p630
sg532
S'13.7'
p631
sg534
S'0.0'
p632
sg19
S'PF'
p633
sg537
S'-0.1'
p634
sg539
S'.484'
p635
sg541
S'17.5'
p636
sg543
S'.181'
p637
sg545
S'.000'
p638
sg25
S'NBA'
p639
sg547
S'-2.4'
p640
sg549
S'6.7'
p641
sg551
S'1.6'
p642
sg37
S'24'
p643
sg39
S'MIL'
p644
sg41
S'75'
p645
sg556
S'2.4'
p646
sg558
S'12.3'
p647
sg560
S'0.5'
p648
sg60
S'1092'
p649
sg563
S'-2.5'
p650
sg53
S'1979-80'
p651
sg566
S'2.0'
p652
sba(isrc.gp1.models.Advanced
Advanced
p653
(dp654
g524
S'9.2'
p655
sg526
S'13.6'
p656
sg527
S'.056'
p657
sg529
S'1.2'
p658
sg531
S'21.1'
p659
sg532
S'13.9'
p660
sg534
S'-0.3'
p661
sg19
S'PF'
p662
sg537
S'0.1'
p663
sg539
S'.490'
p664
sg541
S'19.0'
p665
sg543
S'.213'
p666
sg545
S'.003'
p667
sg25
S'NBA'
p668
sg547
S'-1.6'
p669
sg549
S'10.2'
p670
sg551
S'1.4'
p671
sg37
S'25'
p672
sg39
S'TOT'
p673
sg41
S'80'
p674
sg556
S'1.9'
p675
sg558
S'13.6'
p676
sg560
S'0.7'
p677
sg60
S'1812'
p678
sg563
S'-1.8'
p679
sg53
S'1980-81'
p680
sg566
S'2.1'
p681
sba(isrc.gp1.models.Advanced
Advanced
p682
(dp683
g524
S'8.9'
p684
sg526
S'14.2'
p685
sg527
S'.013'
p686
sg529
S'0.8'
p687
sg531
S'20.2'
p688
sg532
S'15.6'
p689
sg534
S'-1.0'
p690
sg19
S'PF'
p691
sg537
S'-0.2'
p692
sg539
S'.468'
p693
sg541
S'22.7'
p694
sg543
S'.197'
p695
sg545
S'.000'
p696
sg25
S'NBA'
p697
sg547
S'-3.3'
p698
sg549
S'8.1'
p699
sg551
S'0.2'
p700
sg37
S'25'
p701
sg39
S'DAL'
p702
sg41
S'11'
p703
sg556
S'1.3'
p704
sg558
S'11.5'
p705
sg560
S'-0.1'
p706
sg60
S'307'
p707
sg563
S'-4.3'
p708
sg53
S'1980-81'
p709
sg566
S'0.1'
p710
sba(isrc.gp1.models.Advanced
Advanced
p711
(dp712
g524
S'9.3'
p713
sg526
S'13.5'
p714
sg527
S'.065'
p715
sg529
S'1.3'
p716
sg531
S'21.3'
p717
sg532
S'13.6'
p718
sg534
S'-0.1'
p719
sg19
S'PF'
p720
sg537
S'0.3'
p721
sg539
S'.494'
p722
sg541
S'18.2'
p723
sg543
S'.216'
p724
sg545
S'.003'
p725
sg25
S'NBA'
p726
sg547
S'-1.2'
p727
sg549
S'10.6'
p728
sg551
S'1.2'
p729
sg37
S'25'
p730
sg39
S'CLE'
p731
sg41
S'69'
p732
sg556
S'2.0'
p733
sg558
S'14.1'
p734
sg560
S'0.8'
p735
sg60
S'1505'
p736
sg563
S'-1.3'
p737
sg53
S'1980-81'
p738
sg566
S'2.0'
p739
sba(isrc.gp1.models.Advanced
Advanced
p740
(dp741
g524
S'10.9'
p742
sg526
S'22.3'
p743
sg527
S'-0.072'
p744
sg529
S'1.2'
p745
sg531
S'20.6'
p746
sg532
S'13.5'
p747
sg534
S'-1.6'
p748
sg19
S'PF'
p749
sg537
S'-0.4'
p750
sg539
S'.448'
p751
sg541
S'16.5'
p752
sg543
S'.130'
p753
sg545
S'.017'
p754
sg25
S'NBA'
p755
sg547
S'-4.9'
p756
sg549
S'6.8'
p757
sg551
S'0.1'
p758
sg37
S'26'
p759
sg39
S'CLE'
p760
sg41
S'18'
p761
sg556
S'0.4'
p762
sg558
S'7.1'
p763
sg560
S'-0.6'
p764
sg60
S'313'
p765
sg563
S'-6.4'
p766
sg53
S'1981-82'
p767
sg566
S'-0.5'
p768
sbasS'_per36Minutes'
p769
(lp770
(isrc.gp1.models.Per36Minutes
Per36Minutes
p771
(dp772
g8
S'3.2'
p773
sg10
g3
sg11
S'.431'
p774
sg13
S'1.4'
p775
sg15
g3
sg16
g3
sg17
S'17.0'
p776
sg19
S'PF'
p777
sg21
S'.697'
p778
sg25
S'NBA'
p779
sg27
S'1.0'
p780
sg29
S'16.4'
p781
sg31
S'5.1'
p782
sg33
S'4.0'
p783
sg35
S'11.1'
p784
sg37
S'21'
p785
sg39
S'KCK'
p786
sg41
S'82'
p787
sg43
S'1.4'
p788
sg45
S'7.1'
p789
sg47
S'2.8'
p790
sg49
S'16.4'
p791
sg51
S'7.9'
p792
sg53
S'1976-77'
p793
sg55
S'7.1'
p794
sg57
g3
sg58
S'.431'
p795
sg60
S'2265'
p796
sg62
g3
sba(isrc.gp1.models.Per36Minutes
Per36Minutes
p797
(dp798
g8
S'3.0'
p799
sg10
g3
sg11
S'.477'
p800
sg13
S'1.9'
p801
sg15
g3
sg16
g3
sg17
S'16.1'
p802
sg19
S'PF'
p803
sg21
S'.754'
p804
sg25
S'NBA'
p805
sg27
S'1.2'
p806
sg29
S'14.4'
p807
sg31
S'5.2'
p808
sg33
S'3.2'
p809
sg35
S'10.6'
p810
sg37
S'22'
p811
sg39
S'KCK'
p812
sg41
S'78'
p813
sg43
S'1.2'
p814
sg45
S'6.9'
p815
sg47
S'2.4'
p816
sg49
S'14.4'
p817
sg51
S'7.5'
p818
sg53
S'1977-78'
p819
sg55
S'6.9'
p820
sg57
S'3.1'
p821
sg58
S'.477'
p822
sg60
S'2231'
p823
sg62
g3
sba(isrc.gp1.models.Per36Minutes
Per36Minutes
p824
(dp825
g8
S'2.5'
p826
sg10
g3
sg11
S'.341'
p827
sg13
S'1.6'
p828
sg15
g3
sg16
g3
sg17
S'8.5'
p829
sg19
S'PF'
p830
sg21
S'.625'
p831
sg25
S'NBA'
p832
sg27
S'1.6'
p833
sg29
S'9.2'
p834
sg31
S'6.9'
p835
sg33
S'3.6'
p836
sg35
S'10.7'
p837
sg37
S'23'
p838
sg39
S'KCK'
p839
sg41
S'18'
p840
sg43
S'0.7'
p841
sg45
S'3.1'
p842
sg47
S'2.2'
p843
sg49
S'9.2'
p844
sg51
S'8.3'
p845
sg53
S'1978-79'
p846
sg55
S'3.1'
p847
sg57
S'3.4'
p848
sg58
S'.341'
p849
sg60
S'161'
p850
sg62
g3
sba(isrc.gp1.models.Per36Minutes
Per36Minutes
p851
(dp852
g8
S'3.1'
p853
sg10
S'0.0'
p854
sg11
S'.468'
p855
sg13
S'1.8'
p856
sg15
g3
sg16
S'0.0'
p857
sg17
S'14.5'
p858
sg19
S'PF'
p859
sg21
S'.605'
p860
sg25
S'NBA'
p861
sg27
S'0.9'
p862
sg29
S'13.9'
p863
sg31
S'5.5'
p864
sg33
S'2.5'
p865
sg35
S'9.1'
p866
sg37
S'24'
p867
sg39
S'MIL'
p868
sg41
S'75'
p869
sg43
S'1.6'
p870
sg45
S'6.5'
p871
sg47
S'1.5'
p872
sg49
S'13.9'
p873
sg51
S'6.0'
p874
sg53
S'1979-80'
p875
sg55
S'6.5'
p876
sg57
S'2.1'
p877
sg58
S'.468'
p878
sg60
S'1092'
p879
sg62
g3
sba(isrc.gp1.models.Per36Minutes
Per36Minutes
p880
(dp881
g8
S'3.1'
p882
sg10
S'0.0'
p883
sg11
S'.455'
p884
sg13
S'2.6'
p885
sg15
S'.500'
p886
sg16
S'0.0'
p887
sg17
S'15.9'
p888
sg19
S'PF'
p889
sg21
S'.748'
p890
sg25
S'NBA'
p891
sg27
S'0.9'
p892
sg29
S'14.8'
p893
sg31
S'5.6'
p894
sg33
S'3.2'
p895
sg35
S'9.0'
p896
sg37
S'25'
p897
sg39
S'TOT'
p898
sg41
S'80'
p899
sg43
S'1.2'
p900
sg45
S'6.7'
p901
sg47
S'2.4'
p902
sg49
S'14.8'
p903
sg51
S'5.9'
p904
sg53
S'1980-81'
p905
sg55
S'6.8'
p906
sg57
S'2.6'
p907
sg58
S'.455'
p908
sg60
S'1812'
p909
sg62
g3
sba(isrc.gp1.models.Per36Minutes
Per36Minutes
p910
(dp911
g8
S'2.9'
p912
sg10
S'0.0'
p913
sg11
S'.436'
p914
sg13
S'1.9'
p915
sg15
g3
sg16
S'0.0'
p916
sg17
S'14.0'
p917
sg19
S'PF'
p918
sg21
S'.739'
p919
sg25
S'NBA'
p920
sg27
S'0.6'
p921
sg29
S'13.7'
p922
sg31
S'4.3'
p923
sg33
S'2.7'
p924
sg35
S'9.9'
p925
sg37
S'25'
p926
sg39
S'DAL'
p927
sg41
S'11'
p928
sg43
S'0.8'
p929
sg45
S'6.0'
p930
sg47
S'2.0'
p931
sg49
S'13.7'
p932
sg51
S'6.9'
p933
sg53
S'1980-81'
p934
sg55
S'6.0'
p935
sg57
S'2.5'
p936
sg58
S'.436'
p937
sg60
S'307'
p938
sg62
g3
sba(isrc.gp1.models.Per36Minutes
Per36Minutes
p939
(dp940
g8
S'3.2'
p941
sg10
S'0.0'
p942
sg11
S'.459'
p943
sg13
S'2.7'
p944
sg15
S'.500'
p945
sg16
S'0.0'
p946
sg17
S'16.3'
p947
sg19
S'PF'
p948
sg21
S'.750'
p949
sg25
S'NBA'
p950
sg27
S'1.0'
p951
sg29
S'15.1'
p952
sg31
S'5.9'
p953
sg33
S'3.3'
p954
sg35
S'8.8'
p955
sg37
S'25'
p956
sg39
S'CLE'
p957
sg41
S'69'
p958
sg43
S'1.3'
p959
sg45
S'6.9'
p960
sg47
S'2.4'
p961
sg49
S'15.0'
p962
sg51
S'5.6'
p963
sg53
S'1980-81'
p964
sg55
S'6.9'
p965
sg57
S'2.6'
p966
sg58
S'.459'
p967
sg60
S'1505'
p968
sg62
g3
sba(isrc.gp1.models.Per36Minutes
Per36Minutes
p969
(dp970
g8
S'3.7'
p971
sg10
S'0.2'
p972
sg11
S'.435'
p973
sg13
S'1.7'
p974
sg15
S'.000'
p975
sg16
S'0.0'
p976
sg17
S'12.5'
p977
sg19
S'PF'
p978
sg21
S'.600'
p979
sg25
S'NBA'
p980
sg27
S'0.9'
p981
sg29
S'13.2'
p982
sg31
S'5.9'
p983
sg33
S'1.7'
p984
sg35
S'8.6'
p985
sg37
S'26'
p986
sg39
S'CLE'
p987
sg41
S'18'
p988
sg43
S'0.2'
p989
sg45
S'5.8'
p990
sg47
S'1.0'
p991
sg49
S'13.0'
p992
sg51
S'4.9'
p993
sg53
S'1981-82'
p994
sg55
S'5.8'
p995
sg57
S'4.0'
p996
sg58
S'.442'
p997
sg60
S'313'
p998
sg62
g150
sbasS'_fromYear'
p999
S'1977'
p1000
sS'_url'
p1001
S'http://www.basketball-reference.com/players/w/washiri01.html'
p1002
sS'_perGame'
p1003
(isrc.gp1.models.PerGame
PerGame
p1004
(dp1005
g8
S'1.8'
p1006
sg10
S'0.1'
p1007
sg11
S'.435'
p1008
sS'_effectiveFieldGalPercentage'
p1009
S'.435'
p1010
sg13
S'0.8'
p1011
sg15
S'.000'
p1012
sg16
S'0.0'
p1013
sg17
S'6.1'
p1014
sg19
S'PF'
p1015
sg21
S'.600'
p1016
sg25
S'NBA'
p1017
sg27
S'0.4'
p1018
sg31
S'2.8'
p1019
sS'_fieldGoalsttempted'
p1020
S'6.4'
p1021
sg33
S'0.8'
p1022
sg35
S'4.2'
p1023
sg37
S'26'
p1024
sg39
S'CLE'
p1025
sg41
S'18'
p1026
sg43
S'0.1'
p1027
sg45
S'2.8'
p1028
sg47
S'0.5'
p1029
sg49
S'6.3'
p1030
sg51
S'2.4'
p1031
sg53
S'1981-82'
p1032
sg55
S'2.8'
p1033
sg57
S'1.9'
p1034
sg58
S'.442'
p1035
sg60
S'17.4'
p1036
sg62
g150
sbsS'_weight'
p1037
S'220'
p1038
sS'_dob'
p1039
S'15-7-1955'
p1040
sS'_salary'
p1041
(lp1042
sg19
S'F-C'
p1043
sb.