(isrc.gp1.models.Player
Player
p0
(dp1
S'_experience'
p2
S'NA'
p3
sS'_totals'
p4
(lp5
(isrc.gp1.models.Totals
Totals
p6
(dp7
S'_offensiveRebounds'
p8
S'7'
p9
sS'_threePointsAttempted'
p10
S'.437'
p11
sS'_fieldGoalsPercentage'
p12
S'128'
p13
sS'_assist'
p14
S'118'
p15
sS'_threePointsPercentage'
p16
S'.437'
p17
sS'_threePoints'
p18
S'293'
p19
sS'_points'
p20
g3
sS'_position'
p21
S'C'
p22
sS'_freeThrowsPercentage'
p23
S'21'
p24
sS'_effectiveFieldGoalPercentage'
p25
S'90'
p26
sS'_league'
p27
S'NBA'
p28
sS'_steals'
p29
S'297'
p30
sS'_fieldGoalsAttempted'
p31
S'.437'
p32
sS'_personalFouls'
p33
g3
sS'_freeThrowsAttempted'
p34
S'280'
p35
sS'_totalRebounds'
p36
S'52'
p37
sS'_age'
p38
S'22'
p39
sS'_team'
p40
S'GSW'
p41
sS'_games'
p42
S'65'
p43
sS'_blocks'
p44
g3
sS'_twoPoints'
p45
S'41'
p46
sS'_freeThrows'
p47
S'190'
p48
sS'_twoPointsAttempted'
p49
S'61'
p50
sS'_defensiveRebounds'
p51
S'44'
p52
sS'_season'
p53
S'1978-79'
p54
sS'_fieldGoals'
p55
S'293'
p56
sS'_turnOvers'
p57
g3
sS'_twoPointsPercentage'
p58
S'.672'
p59
sS'_minutesPlayed'
p60
S'128'
p61
sS'_gamesStarted'
p62
S'795'
p63
sba(isrc.gp1.models.Totals
Totals
p64
(dp65
g8
S'305'
p66
sg10
S'.250'
p67
sg12
S'1'
p68
sg14
S'20'
p69
sg16
S'366'
p70
sg18
S'4'
p71
sg20
g3
sg21
S'PF'
p72
sg23
S'202'
p73
sg25
S'136'
p74
sg27
S'NBA'
p75
sg29
S'79'
p76
sg31
S'.489'
p77
sg33
S'871'
p78
sg34
S'.751'
p79
sg36
S'42'
p80
sg38
S'23'
p81
sg40
S'GSW'
p82
sg42
S'79'
p83
sg44
S'140'
p84
sg45
S'746'
p85
sg47
S'181'
p86
sg49
S'.491'
p87
sg51
S'507'
p88
sg53
S'1979-80'
p89
sg55
S'750'
p90
sg57
S'246'
p91
sg58
S'.490'
p92
sg60
S'367'
p93
sg62
S'1781'
p94
sba(isrc.gp1.models.Totals
Totals
p95
(dp96
g8
S'274'
p97
sg10
S'.333'
p98
sg12
g68
sg14
S'18'
p99
sg16
S'212'
p100
sg18
S'3'
p101
sg20
g3
sg21
g22
sg23
S'166'
p102
sg25
S'62'
p103
sg27
S'NBA'
p104
sg29
S'51'
p105
sg31
S'.452'
p106
sg33
S'489'
p107
sg34
S'.689'
p108
sg36
S'52'
p109
sg38
S'24'
p110
sg40
S'UTA'
p111
sg42
S'71'
p112
sg44
S'77'
p113
sg45
S'468'
p114
sg47
S'90'
p115
sg49
S'.453'
p116
sg51
S'440'
p117
sg53
S'1980-81'
p118
sg55
S'471'
p119
sg57
S'219'
p120
sg58
S'.453'
p121
sg60
S'213'
p122
sg62
S'1420'
p123
sba(isrc.gp1.models.Totals
Totals
p124
(dp125
g8
S'200'
p126
sg10
S'8'
p127
sg12
S'.420'
p128
sg14
S'115'
p129
sg16
S'.125'
p130
sg18
g68
sg20
S'682'
p131
sg21
g22
sg23
S'.744'
p132
sg25
S'.421'
p133
sg27
S'NBA'
p134
sg29
S'37'
p135
sg31
S'669'
p136
sg33
S'285'
p137
sg34
S'160'
p138
sg36
S'550'
p139
sg38
S'25'
p140
sg40
S'DAL'
p141
sg42
S'76'
p142
sg44
S'106'
p143
sg45
S'280'
p144
sg47
S'119'
p145
sg49
S'661'
p146
sg51
S'350'
p147
sg53
S'1981-82'
p148
sg55
S'281'
p149
sg57
S'88'
p150
sg58
S'.424'
p151
sg60
S'1818'
p152
sg62
S'38'
p153
sba(isrc.gp1.models.Totals
Totals
p154
(dp155
g8
S'214'
p156
sg10
S'5'
p157
sg12
S'.443'
p158
sg14
S'116'
p159
sg16
S'.000'
p160
sg18
S'0'
p161
sg20
S'775'
p162
sg21
g22
sg23
S'.685'
p163
sg25
S'.443'
p164
sg27
S'NBA'
p165
sg29
S'27'
p166
sg31
S'723'
p167
sg33
S'318'
p168
sg34
S'197'
p169
sg36
S'611'
p170
sg38
S'26'
p171
sg40
S'POR'
p172
sg42
S'80'
p173
sg44
S'136'
p174
sg45
S'320'
p175
sg47
S'135'
p176
sg49
S'718'
p177
sg51
S'397'
p178
sg53
S'1982-83'
p179
sg55
S'320'
p180
sg57
S'162'
p181
sg58
S'.446'
p182
sg60
S'2099'
p183
sg62
S'60'
p184
sba(isrc.gp1.models.Totals
Totals
p185
(dp186
g8
S'176'
p187
sg10
g9
sg12
S'.459'
p188
sg14
S'76'
p189
sg16
S'.000'
p190
sg18
g161
sg20
S'793'
p191
sg21
g22
sg23
S'.804'
p192
sg25
S'.459'
p193
sg27
S'NBA'
p194
sg29
S'26'
p195
sg31
S'663'
p196
sg33
S'247'
p197
sg34
S'230'
p198
sg36
S'476'
p199
sg38
S'27'
p200
sg40
S'POR'
p201
sg42
S'81'
p202
sg44
S'106'
p203
sg45
S'304'
p204
sg47
S'185'
p205
sg49
S'656'
p206
sg51
S'300'
p207
sg53
S'1983-84'
p208
sg55
S'304'
p209
sg57
S'110'
p210
sg58
S'.463'
p211
sg60
S'1662'
p212
sg62
S'38'
p213
sba(isrc.gp1.models.Totals
Totals
p214
(dp215
g8
S'229'
p216
sg10
S'2'
p217
sg12
S'.472'
p218
sg14
S'86'
p219
sg16
S'.000'
p220
sg18
g161
sg20
S'969'
p221
sg21
g22
sg23
S'.685'
p222
sg25
S'.472'
p223
sg27
S'NBA'
p224
sg29
S'28'
p225
sg31
S'856'
p226
sg33
S'304'
p227
sg34
S'235'
p228
sg36
S'631'
p229
sg38
S'28'
p230
sg40
S'DEN'
p231
sg42
S'80'
p232
sg44
S'197'
p233
sg45
S'404'
p234
sg47
S'161'
p235
sg49
S'854'
p236
sg51
S'402'
p237
sg53
S'1984-85'
p238
sg55
S'404'
p239
sg57
S'149'
p240
sg58
S'.473'
p241
sg60
S'2031'
p242
sg62
S'78'
p243
sba(isrc.gp1.models.Totals
Totals
p244
(dp245
g8
S'190'
p246
sg10
g9
sg12
S'.466'
p247
sg14
S'81'
p248
sg16
S'.429'
p249
sg18
g101
sg20
S'1021'
p250
sg21
g22
sg23
S'.795'
p251
sg25
S'.467'
p252
sg27
S'NBA'
p253
sg29
S'42'
p254
sg31
S'906'
p255
sg33
S'315'
p256
sg34
S'219'
p257
sg36
S'610'
p258
sg38
S'29'
p259
sg40
S'DEN'
p260
sg42
S'78'
p261
sg44
S'227'
p262
sg45
S'419'
p263
sg47
S'174'
p264
sg49
S'899'
p265
sg51
S'420'
p266
sg53
S'1985-86'
p267
sg55
S'422'
p268
sg57
S'117'
p269
sg58
S'.466'
p270
sg60
S'2112'
p271
sg62
S'78'
p272
sba(isrc.gp1.models.Totals
Totals
p273
(dp274
g8
S'162'
p275
sg10
g101
sg12
S'.448'
p276
sg14
S'68'
p277
sg16
S'.000'
p278
sg18
g161
sg20
S'549'
p279
sg21
g22
sg23
S'.725'
p280
sg25
S'.448'
p281
sg27
S'NBA'
p282
sg29
S'13'
p283
sg31
S'524'
p284
sg33
S'257'
p285
sg34
S'109'
p286
sg36
S'473'
p287
sg38
S'30'
p288
sg40
S'DEN'
p289
sg42
S'69'
p290
sg44
S'101'
p291
sg45
S'235'
p292
sg47
S'79'
p293
sg49
S'521'
p294
sg51
S'311'
p295
sg53
S'1986-87'
p296
sg55
S'235'
p297
sg57
S'78'
p298
sg58
S'.451'
p299
sg60
S'1561'
p300
sg62
S'64'
p301
sba(isrc.gp1.models.Totals
Totals
p302
(dp303
g8
S'98'
p304
sg10
g68
sg12
S'.437'
p305
sg14
S'30'
p306
sg16
S'.000'
p307
sg18
g161
sg20
S'286'
p308
sg21
g22
sg23
S'.746'
p309
sg25
S'.437'
p310
sg27
S'NBA'
p311
sg29
S'12'
p312
sg31
S'270'
p313
sg33
S'145'
p314
sg34
S'67'
p315
sg36
S'270'
p316
sg38
S'31'
p317
sg40
S'DEN'
p318
sg42
S'45'
p319
sg44
S'94'
p320
sg45
S'118'
p321
sg47
S'50'
p322
sg49
S'269'
p323
sg51
S'172'
p324
sg53
S'1987-88'
p325
sg55
S'118'
p326
sg57
S'59'
p327
sg58
S'.439'
p328
sg60
S'865'
p329
sg62
S'32'
p330
sba(isrc.gp1.models.Totals
Totals
p331
(dp332
g8
S'212'
p333
sg10
g71
sg12
S'.495'
p334
sg14
S'78'
p335
sg16
S'.250'
p336
sg18
g68
sg20
S'520'
p337
sg21
g22
sg23
S'.745'
p338
sg25
S'.497'
p339
sg27
S'NBA'
p340
sg29
S'36'
p341
sg31
S'444'
p342
sg33
S'302'
p343
sg34
S'106'
p344
sg36
S'619'
p345
sg38
S'32'
p346
sg40
S'DEN'
p347
sg42
S'79'
p348
sg44
S'211'
p349
sg45
S'219'
p350
sg47
S'79'
p351
sg49
S'440'
p352
sg51
S'407'
p353
sg53
S'1988-89'
p354
sg55
S'220'
p355
sg57
S'73'
p356
sg58
S'.498'
p357
sg60
S'1864'
p358
sg62
S'72'
p359
sba(isrc.gp1.models.Totals
Totals
p360
(dp361
g8
S'118'
p362
sg10
g101
sg12
S'.454'
p363
sg14
S'44'
p364
sg16
S'.000'
p365
sg18
g161
sg20
S'301'
p366
sg21
g22
sg23
S'.641'
p367
sg25
S'.454'
p368
sg27
S'NBA'
p369
sg29
S'18'
p370
sg31
S'304'
p371
sg33
S'211'
p372
sg34
S'39'
p373
sg36
S'339'
p374
sg38
S'33'
p375
sg40
S'POR'
p376
sg42
S'79'
p377
sg44
S'95'
p378
sg45
S'138'
p379
sg47
S'25'
p380
sg49
S'301'
p381
sg51
S'221'
p382
sg53
S'1989-90'
p383
sg55
S'138'
p384
sg57
S'39'
p385
sg58
S'.458'
p386
sg60
S'1176'
p387
sg62
g161
sba(isrc.gp1.models.Totals
Totals
p388
(dp389
g8
S'54'
p390
sg10
g68
sg12
S'.393'
p391
sg14
S'22'
p392
sg16
S'.000'
p393
sg18
g161
sg20
S'147'
p394
sg21
g22
sg23
S'.786'
p395
sg25
S'.393'
p396
sg27
S'NBA'
p397
sg29
g9
sg31
S'145'
p398
sg33
S'120'
p399
sg34
S'42'
p400
sg36
S'188'
p401
sg38
S'34'
p402
sg40
S'POR'
p403
sg42
S'67'
p404
sg44
S'61'
p405
sg45
S'57'
p406
sg47
S'33'
p407
sg49
S'144'
p408
sg51
S'134'
p409
sg53
S'1990-91'
p410
sg55
S'57'
p411
sg57
S'22'
p412
sg58
S'.396'
p413
sg60
S'746'
p414
sg62
g68
sba(isrc.gp1.models.Totals
Totals
p415
(dp416
g8
S'63'
p417
sg10
g161
sg12
S'.427'
p418
sg14
g71
sg16
S'35'
p419
sg18
g161
sg20
g3
sg21
g22
sg23
S'38'
p420
sg25
g9
sg27
S'NBA'
p421
sg29
S'27'
p422
sg31
S'82'
p423
sg33
S'77'
p424
sg34
S'.636'
p425
sg36
S'21'
p426
sg38
S'35'
p427
sg40
S'POR'
p428
sg42
S'35'
p429
sg44
S'15'
p430
sg45
S'82'
p431
sg47
S'11'
p432
sg49
S'.427'
p433
sg51
S'101'
p434
sg53
S'1991-92'
p435
sg55
S'35'
p436
sg57
S'57'
p437
sg58
S'.427'
p438
sg60
S'344'
p439
sg62
g161
sbasS'_college'
p440
S'University of New Orleans'
p441
sS'_toYear'
p442
S'1992'
p443
sS'_height'
p444
S'6-10'
p445
sS'_active'
p446
I00
sS'_shootingHand'
p447
VRight
p448
sS'_name'
p449
S'Wayne Cooper'
p450
sS'_per100Possessions'
p451
(lp452
(isrc.gp1.models.Per100Possession
Per100Possession
p453
(dp454
g8
S'0.4'
p455
sg10
S'.437'
p456
sg12
S'7.6'
p457
sS'_offensiveRating'
p458
g3
sg14
S'7.0'
p459
sg16
S'2.4'
p460
sg18
S'17.3'
p461
sg20
g3
sg21
g22
sS'_defensiveRating'
p462
g3
sg23
S'1.2'
p463
sg27
S'NBA'
p464
sg29
S'17.5'
p465
sg31
S'.437'
p466
sg33
g3
sg34
S'16.5'
p467
sg36
S'3.1'
p468
sg38
S'22'
p469
sg40
S'GSW'
p470
sg42
S'65'
p471
sg44
S'95'
p472
sg45
S'3.6'
p473
sg47
S'11.2'
p474
sg49
S'.672'
p475
sg51
S'2.6'
p476
sg53
S'1978-79'
p477
sg55
S'17.3'
p478
sg57
S'100'
p479
sg58
S'5.3'
p480
sg60
S'7.6'
p481
sg62
S'795'
p482
sba(isrc.gp1.models.Per100Possession
Per100Possession
p483
(dp484
g8
S'8.2'
p485
sg10
S'.250'
p486
sg12
S'0.0'
p487
sg458
S'106'
p488
sg14
S'0.5'
p489
sg16
S'9.8'
p490
sg18
S'0.1'
p491
sg20
S'102'
p492
sg21
S'PF'
p493
sg462
g3
sg23
S'5.4'
p494
sg27
S'NBA'
p495
sg29
S'2.1'
p496
sg31
S'.489'
p497
sg33
S'23.4'
p498
sg34
S'.751'
p499
sg36
S'1.1'
p500
sg38
S'23'
p501
sg40
S'GSW'
p502
sg42
S'79'
p503
sg44
S'3.8'
p504
sg45
S'20.0'
p505
sg47
S'4.9'
p506
sg49
S'.491'
p507
sg51
S'13.6'
p508
sg53
S'1979-80'
p509
sg55
S'20.1'
p510
sg57
S'6.6'
p511
sg58
S'3.6'
p512
sg60
S'9.8'
p513
sg62
S'1781'
p514
sba(isrc.gp1.models.Per100Possession
Per100Possession
p515
(dp516
g8
S'9.5'
p517
sg10
S'.333'
p518
sg12
S'0.0'
p519
sg458
S'108'
p520
sg14
S'0.6'
p521
sg16
S'7.3'
p522
sg18
S'0.1'
p523
sg20
S'100'
p524
sg21
g22
sg462
g3
sg23
S'5.7'
p525
sg27
S'NBA'
p526
sg29
S'1.8'
p527
sg31
S'.452'
p528
sg33
S'16.9'
p529
sg34
S'.689'
p530
sg36
S'1.8'
p531
sg38
S'24'
p532
sg40
S'UTA'
p533
sg42
S'71'
p534
sg44
S'2.7'
p535
sg45
S'16.2'
p536
sg47
S'3.1'
p537
sg49
S'.453'
p538
sg51
S'15.2'
p539
sg53
S'1980-81'
p540
sg55
S'16.3'
p541
sg57
S'7.6'
p542
sg58
S'2.1'
p543
sg60
S'7.4'
p544
sg62
S'1420'
p545
sba(isrc.gp1.models.Per100Possession
Per100Possession
p546
(dp547
g8
S'5.4'
p548
sg10
S'0.2'
p549
sg12
S'.420'
p550
sg458
S'103'
p551
sg14
S'3.1'
p552
sg16
S'.125'
p553
sg18
S'0.0'
p554
sg20
S'18.3'
p555
sg21
g22
sg462
S'107'
p556
sg23
S'.744'
p557
sg27
S'NBA'
p558
sg29
S'1.0'
p559
sg31
S'17.9'
p560
sg33
S'7.6'
p561
sg34
S'4.3'
p562
sg36
S'14.7'
p563
sg38
S'25'
p564
sg40
S'DAL'
p565
sg42
S'76'
p566
sg44
S'2.8'
p567
sg45
S'7.5'
p568
sg47
S'3.2'
p569
sg49
S'17.7'
p570
sg51
S'9.4'
p571
sg53
S'1981-82'
p572
sg55
S'7.5'
p573
sg57
S'2.4'
p574
sg58
S'.424'
p575
sg60
S'1818'
p576
sg62
S'38'
p577
sba(isrc.gp1.models.Per100Possession
Per100Possession
p578
(dp579
g8
S'4.8'
p580
sg10
S'0.1'
p581
sg12
S'.443'
p582
sg458
S'97'
p583
sg14
S'2.6'
p584
sg16
S'.000'
p585
sg18
S'0.0'
p586
sg20
S'17.6'
p587
sg21
g22
sg462
S'102'
p588
sg23
S'.685'
p589
sg27
S'NBA'
p590
sg29
S'0.6'
p591
sg31
S'16.4'
p592
sg33
S'7.2'
p593
sg34
S'4.5'
p594
sg36
S'13.8'
p595
sg38
S'26'
p596
sg40
S'POR'
p597
sg42
S'80'
p598
sg44
S'3.1'
p599
sg45
S'7.2'
p600
sg47
S'3.1'
p601
sg49
S'16.3'
p602
sg51
S'9.0'
p603
sg53
S'1982-83'
p604
sg55
S'7.2'
p605
sg57
S'3.7'
p606
sg58
S'.446'
p607
sg60
S'2099'
p608
sg62
S'60'
p609
sba(isrc.gp1.models.Per100Possession
Per100Possession
p610
(dp611
g8
S'5.0'
p612
sg10
S'0.2'
p613
sg12
S'.459'
p614
sg458
S'109'
p615
sg14
S'2.2'
p616
sg16
S'.000'
p617
sg18
S'0.0'
p618
sg20
S'22.7'
p619
sg21
g22
sg462
S'106'
p620
sg23
S'.804'
p621
sg27
S'NBA'
p622
sg29
S'0.7'
p623
sg31
S'18.9'
p624
sg33
S'7.1'
p625
sg34
S'6.6'
p626
sg36
S'13.6'
p627
sg38
S'27'
p628
sg40
S'POR'
p629
sg42
S'81'
p630
sg44
S'3.0'
p631
sg45
S'8.7'
p632
sg47
S'5.3'
p633
sg49
S'18.7'
p634
sg51
S'8.6'
p635
sg53
S'1983-84'
p636
sg55
S'8.7'
p637
sg57
S'3.1'
p638
sg58
S'.463'
p639
sg60
S'1662'
p640
sg62
S'38'
p641
sba(isrc.gp1.models.Per100Possession
Per100Possession
p642
(dp643
g8
S'5.0'
p644
sg10
S'0.0'
p645
sg12
S'.472'
p646
sg458
S'103'
p647
sg14
S'1.9'
p648
sg16
S'.000'
p649
sg18
S'0.0'
p650
sg20
S'21.3'
p651
sg21
g22
sg462
S'106'
p652
sg23
S'.685'
p653
sg27
S'NBA'
p654
sg29
S'0.6'
p655
sg31
S'18.8'
p656
sg33
S'6.7'
p657
sg34
S'5.2'
p658
sg36
S'13.9'
p659
sg38
S'28'
p660
sg40
S'DEN'
p661
sg42
S'80'
p662
sg44
S'4.3'
p663
sg45
S'8.9'
p664
sg47
S'3.5'
p665
sg49
S'18.8'
p666
sg51
S'8.8'
p667
sg53
S'1984-85'
p668
sg55
S'8.9'
p669
sg57
S'3.3'
p670
sg58
S'.473'
p671
sg60
S'2031'
p672
sg62
S'78'
p673
sba(isrc.gp1.models.Per100Possession
Per100Possession
p674
(dp675
g8
S'4.0'
p676
sg10
S'0.1'
p677
sg12
S'.466'
p678
sg458
S'105'
p679
sg14
S'1.7'
p680
sg16
S'.429'
p681
sg18
S'0.1'
p682
sg20
S'21.7'
p683
sg21
g22
sg462
S'102'
p684
sg23
S'.795'
p685
sg27
S'NBA'
p686
sg29
S'0.9'
p687
sg31
S'19.3'
p688
sg33
S'6.7'
p689
sg34
S'4.7'
p690
sg36
S'13.0'
p691
sg38
S'29'
p692
sg40
S'DEN'
p693
sg42
S'78'
p694
sg44
S'4.8'
p695
sg45
S'8.9'
p696
sg47
S'3.7'
p697
sg49
S'19.1'
p698
sg51
S'8.9'
p699
sg53
S'1985-86'
p700
sg55
S'9.0'
p701
sg57
S'2.5'
p702
sg58
S'.466'
p703
sg60
S'2112'
p704
sg62
S'78'
p705
sba(isrc.gp1.models.Per100Possession
Per100Possession
p706
(dp707
g8
S'4.7'
p708
sg10
S'0.1'
p709
sg12
S'.448'
p710
sg458
S'102'
p711
sg14
S'2.0'
p712
sg16
S'.000'
p713
sg18
S'0.0'
p714
sg20
S'15.9'
p715
sg21
g22
sg462
S'109'
p716
sg23
S'.725'
p717
sg27
S'NBA'
p718
sg29
S'0.4'
p719
sg31
S'15.2'
p720
sg33
S'7.4'
p721
sg34
S'3.2'
p722
sg36
S'13.7'
p723
sg38
S'30'
p724
sg40
S'DEN'
p725
sg42
S'69'
p726
sg44
S'2.9'
p727
sg45
S'6.8'
p728
sg47
S'2.3'
p729
sg49
S'15.1'
p730
sg51
S'9.0'
p731
sg53
S'1986-87'
p732
sg55
S'6.8'
p733
sg57
S'2.3'
p734
sg58
S'.451'
p735
sg60
S'1561'
p736
sg62
S'64'
p737
sba(isrc.gp1.models.Per100Possession
Per100Possession
p738
(dp739
g8
S'5.2'
p740
sg10
S'0.1'
p741
sg12
S'.437'
p742
sg458
S'97'
p743
sg14
S'1.6'
p744
sg16
S'.000'
p745
sg18
S'0.0'
p746
sg20
S'15.0'
p747
sg21
g22
sg462
S'103'
p748
sg23
S'.746'
p749
sg27
S'NBA'
p750
sg29
S'0.6'
p751
sg31
S'14.2'
p752
sg33
S'7.6'
p753
sg34
S'3.5'
p754
sg36
S'14.2'
p755
sg38
S'31'
p756
sg40
S'DEN'
p757
sg42
S'45'
p758
sg44
S'4.9'
p759
sg45
S'6.2'
p760
sg47
S'2.6'
p761
sg49
S'14.2'
p762
sg51
S'9.0'
p763
sg53
S'1987-88'
p764
sg55
S'6.2'
p765
sg57
S'3.1'
p766
sg58
S'.439'
p767
sg60
S'865'
p768
sg62
S'32'
p769
sba(isrc.gp1.models.Per100Possession
Per100Possession
p770
(dp771
g8
S'5.1'
p772
sg10
S'0.1'
p773
sg12
S'.495'
p774
sg458
S'113'
p775
sg14
S'1.9'
p776
sg16
S'.250'
p777
sg18
S'0.0'
p778
sg20
S'12.5'
p779
sg21
g22
sg462
S'102'
p780
sg23
S'.745'
p781
sg27
S'NBA'
p782
sg29
S'0.9'
p783
sg31
S'10.6'
p784
sg33
S'7.2'
p785
sg34
S'2.5'
p786
sg36
S'14.8'
p787
sg38
S'32'
p788
sg40
S'DEN'
p789
sg42
S'79'
p790
sg44
S'5.1'
p791
sg45
S'5.2'
p792
sg47
S'1.9'
p793
sg49
S'10.5'
p794
sg51
S'9.7'
p795
sg53
S'1988-89'
p796
sg55
S'5.3'
p797
sg57
S'1.7'
p798
sg58
S'.498'
p799
sg60
S'1864'
p800
sg62
S'72'
p801
sba(isrc.gp1.models.Per100Possession
Per100Possession
p802
(dp803
g8
S'4.7'
p804
sg10
S'0.1'
p805
sg12
S'.454'
p806
sg458
S'107'
p807
sg14
S'1.8'
p808
sg16
S'.000'
p809
sg18
S'0.0'
p810
sg20
S'12.0'
p811
sg21
g22
sg462
S'102'
p812
sg23
S'.641'
p813
sg27
S'NBA'
p814
sg29
S'0.7'
p815
sg31
S'12.1'
p816
sg33
S'8.4'
p817
sg34
S'1.6'
p818
sg36
S'13.5'
p819
sg38
S'33'
p820
sg40
S'POR'
p821
sg42
S'79'
p822
sg44
S'3.8'
p823
sg45
S'5.5'
p824
sg47
S'1.0'
p825
sg49
S'12.0'
p826
sg51
S'8.8'
p827
sg53
S'1989-90'
p828
sg55
S'5.5'
p829
sg57
S'1.6'
p830
sg58
S'.458'
p831
sg60
S'1176'
p832
sg62
g161
sba(isrc.gp1.models.Per100Possession
Per100Possession
p833
(dp834
g8
S'3.5'
p835
sg10
S'0.1'
p836
sg12
S'.393'
p837
sg458
S'103'
p838
sg14
S'1.4'
p839
sg16
S'.000'
p840
sg18
S'0.0'
p841
sg20
S'9.4'
p842
sg21
g22
sg462
S'103'
p843
sg23
S'.786'
p844
sg27
S'NBA'
p845
sg29
S'0.4'
p846
sg31
S'9.3'
p847
sg33
S'7.7'
p848
sg34
S'2.7'
p849
sg36
S'12.0'
p850
sg38
S'34'
p851
sg40
S'POR'
p852
sg42
S'67'
p853
sg44
S'3.9'
p854
sg45
S'3.6'
p855
sg47
S'2.1'
p856
sg49
S'9.2'
p857
sg51
S'8.6'
p858
sg53
S'1990-91'
p859
sg55
S'3.6'
p860
sg57
S'1.4'
p861
sg58
S'.396'
p862
sg60
S'746'
p863
sg62
g68
sba(isrc.gp1.models.Per100Possession
Per100Possession
p864
(dp865
g8
S'8.9'
p866
sg10
S'0.0'
p867
sg12
S'.427'
p868
sg458
S'102'
p869
sg14
S'0.6'
p870
sg16
S'4.9'
p871
sg18
S'0.0'
p872
sg20
S'103'
p873
sg21
g22
sg462
g3
sg23
S'5.4'
p874
sg27
S'NBA'
p875
sg29
S'3.8'
p876
sg31
S'11.6'
p877
sg33
S'10.9'
p878
sg34
S'.636'
p879
sg36
S'3.0'
p880
sg38
S'35'
p881
sg40
S'POR'
p882
sg42
S'35'
p883
sg44
S'2.1'
p884
sg45
S'11.6'
p885
sg47
S'1.6'
p886
sg49
S'.427'
p887
sg51
S'14.2'
p888
sg53
S'1991-92'
p889
sg55
S'4.9'
p890
sg57
S'8.0'
p891
sg58
S'1.0'
p892
sg60
S'344'
p893
sg62
g161
sbasS'_advanced'
p894
(lp895
(isrc.gp1.models.Advanced
Advanced
p896
(dp897
S'_offensiveReboundPercentage'
p898
S'25.8'
p899
sS'_turnOverPercentage'
p900
S'18.9'
p901
sS'_winSharesPer48Minutes'
p902
S'-4.3'
p903
sS'_stealPercentage'
p904
S'3.0'
p905
sS'_usagePercentage'
p906
S'0.0'
p907
sS'_totalReboundsPercentage'
p908
S'3.5'
p909
sS'_defensiveBoxPlusMinus'
p910
S'-5.1'
p911
sg21
g22
sS'_valueOverReplacementPlayer'
p912
g3
sS'_trueShootingPercentage'
p913
S'.464'
p914
sS'_defensiveReboundPercentage'
p915
S'18.9'
p916
sS'_freeThrowsAttempRate'
p917
S'12.1'
p918
sS'_threePointsAttempRate'
p919
S'.208'
p920
sg27
S'NBA'
p921
sS'_offensiveBoxPlusMinues'
p922
S'-0.8'
p923
sS'_assistPercentage'
p924
S'0.4'
p925
sS'_defensiveWinShares'
p926
S'1.2'
p927
sg38
S'22'
p928
sg40
S'GSW'
p929
sg42
S'65'
p930
sS'_blockPercentage'
p931
S'14.0'
p932
sS'_playerEfficiencyRating'
p933
S'12.5'
p934
sS'_offensiveWinShares'
p935
S'1.2'
p936
sg60
S'795'
p937
sS'_boxPlusMinus'
p938
S'-0.6'
p939
sg53
S'1978-79'
p940
sS'_winShares'
p941
S'.073'
p942
sba(isrc.gp1.models.Advanced
Advanced
p943
(dp944
g898
S'12.1'
p945
sg900
S'14.4'
p946
sg902
S'.074'
p947
sg904
S'0.5'
p948
sg906
S'22.4'
p949
sg908
S'15.7'
p950
sg910
S'-1.9'
p951
sg21
S'PF'
p952
sg912
S'-0.9'
p953
sg913
S'.525'
p954
sg915
S'19.5'
p955
sg917
S'.241'
p956
sg919
S'.005'
p957
sg27
S'NBA'
p958
sg922
S'-2.0'
p959
sg924
S'3.5'
p960
sg926
S'1.6'
p961
sg38
S'23'
p962
sg40
S'GSW'
p963
sg42
S'79'
p964
sg931
S'2.6'
p965
sg933
S'14.8'
p966
sg935
S'1.1'
p967
sg60
S'1781'
p968
sg938
S'-3.9'
p969
sg53
S'1979-80'
p970
sg941
S'2.8'
p971
sba(isrc.gp1.models.Advanced
Advanced
p972
(dp973
g898
S'13.6'
p974
sg900
S'13.1'
p975
sg902
S'.051'
p976
sg904
S'0.6'
p977
sg906
S'17.8'
p978
sg908
S'17.8'
p979
sg910
S'-1.5'
p980
sg21
g22
sg912
S'-0.8'
p981
sg913
S'.479'
p982
sg915
S'21.9'
p983
sg917
S'.191'
p984
sg919
S'.006'
p985
sg27
S'NBA'
p986
sg922
S'-2.7'
p987
sg924
S'5.3'
p988
sg926
S'1.0'
p989
sg38
S'24'
p990
sg40
S'UTA'
p991
sg42
S'71'
p992
sg931
S'2.1'
p993
sg933
S'12.2'
p994
sg935
S'0.5'
p995
sg60
S'1420'
p996
sg938
S'-4.1'
p997
sg53
S'1980-81'
p998
sg941
S'1.5'
p999
sba(isrc.gp1.models.Advanced
Advanced
p1000
(dp1001
g898
S'12.1'
p1002
sg900
S'10.6'
p1003
sg902
S'.076'
p1004
sg904
S'1.0'
p1005
sg906
S'18.7'
p1006
sg908
S'17.3'
p1007
sg910
S'1.1'
p1008
sg21
g22
sg912
S'0.7'
p1009
sg913
S'.461'
p1010
sg915
S'22.8'
p1011
sg917
S'.239'
p1012
sg919
S'.012'
p1013
sg27
S'NBA'
p1014
sg922
S'-1.6'
p1015
sg924
S'9.0'
p1016
sg926
S'1.9'
p1017
sg38
S'25'
p1018
sg40
S'DAL'
p1019
sg42
S'76'
p1020
sg931
S'3.4'
p1021
sg933
S'13.8'
p1022
sg935
S'0.9'
p1023
sg60
S'1818'
p1024
sg938
S'-0.6'
p1025
sg53
S'1981-82'
p1026
sg941
S'2.9'
p1027
sba(isrc.gp1.models.Advanced
Advanced
p1028
(dp1029
g898
S'11.4'
p1030
sg900
S'16.7'
p1031
sg902
S'.067'
p1032
sg904
S'0.6'
p1033
sg906
S'18.8'
p1034
sg908
S'16.3'
p1035
sg910
S'1.2'
p1036
sg21
g22
sg912
S'0.4'
p1037
sg913
S'.479'
p1038
sg915
S'21.3'
p1039
sg917
S'.272'
p1040
sg919
S'.007'
p1041
sg27
S'NBA'
p1042
sg922
S'-2.4'
p1043
sg924
S'7.6'
p1044
sg926
S'2.8'
p1045
sg38
S'26'
p1046
sg40
S'POR'
p1047
sg42
S'80'
p1048
sg931
S'3.6'
p1049
sg933
S'12.4'
p1050
sg935
S'0.1'
p1051
sg60
S'2099'
p1052
sg938
S'-1.2'
p1053
sg53
S'1982-83'
p1054
sg941
S'2.9'
p1055
sba(isrc.gp1.models.Advanced
Advanced
p1056
(dp1057
g898
S'12.2'
p1058
sg900
S'12.6'
p1059
sg902
S'.118'
p1060
sg904
S'0.7'
p1061
sg906
S'21.2'
p1062
sg908
S'17.0'
p1063
sg910
S'-0.2'
p1064
sg21
g22
sg912
S'0.2'
p1065
sg913
S'.519'
p1066
sg915
S'22.0'
p1067
sg917
S'.347'
p1068
sg919
S'.011'
p1069
sg27
S'NBA'
p1070
sg922
S'-1.3'
p1071
sg924
S'6.2'
p1072
sg926
S'2.0'
p1073
sg38
S'27'
p1074
sg40
S'POR'
p1075
sg42
S'81'
p1076
sg931
S'3.8'
p1077
sg933
S'15.8'
p1078
sg935
S'2.0'
p1079
sg60
S'1662'
p1080
sg938
S'-1.5'
p1081
sg53
S'1983-84'
p1082
sg941
S'4.1'
p1083
sba(isrc.gp1.models.Advanced
Advanced
p1084
(dp1085
g898
S'11.3'
p1086
sg900
S'13.4'
p1087
sg902
S'.082'
p1088
sg904
S'0.6'
p1089
sg906
S'20.6'
p1090
sg908
S'16.6'
p1091
sg910
S'0.6'
p1092
sg21
g22
sg912
S'0.0'
p1093
sg913
S'.505'
p1094
sg915
S'22.5'
p1095
sg917
S'.275'
p1096
sg919
S'.002'
p1097
sg27
S'NBA'
p1098
sg922
S'-2.5'
p1099
sg924
S'5.4'
p1100
sg926
S'2.6'
p1101
sg38
S'28'
p1102
sg40
S'DEN'
p1103
sg42
S'80'
p1104
sg931
S'5.4'
p1105
sg933
S'15.1'
p1106
sg935
S'0.9'
p1107
sg60
S'2031'
p1108
sg938
S'-1.9'
p1109
sg53
S'1984-85'
p1110
sg941
S'3.5'
p1111
sba(isrc.gp1.models.Advanced
Advanced
p1112
(dp1113
g898
S'9.0'
p1114
sg900
S'10.5'
p1115
sg902
S'.116'
p1116
sg904
S'0.9'
p1117
sg906
S'20.4'
p1118
sg908
S'15.1'
p1119
sg910
S'1.8'
p1120
sg21
g22
sg912
S'0.8'
p1121
sg913
S'.509'
p1122
sg915
S'21.8'
p1123
sg917
S'.242'
p1124
sg919
S'.008'
p1125
sg27
S'NBA'
p1126
sg922
S'-2.4'
p1127
sg924
S'5.2'
p1128
sg926
S'3.5'
p1129
sg38
S'29'
p1130
sg40
S'DEN'
p1131
sg42
S'78'
p1132
sg931
S'5.9'
p1133
sg933
S'16.3'
p1134
sg935
S'1.6'
p1135
sg60
S'2112'
p1136
sg938
S'-0.5'
p1137
sg53
S'1985-86'
p1138
sg941
S'5.1'
p1139
sba(isrc.gp1.models.Advanced
Advanced
p1140
(dp1141
g898
S'10.2'
p1142
sg900
S'12.0'
p1143
sg902
S'.060'
p1144
sg904
S'0.4'
p1145
sg906
S'16.0'
p1146
sg908
S'15.9'
p1147
sg910
S'0.2'
p1148
sg21
g22
sg912
S'-0.5'
p1149
sg913
S'.480'
p1150
sg915
S'22.3'
p1151
sg917
S'.208'
p1152
sg919
S'.006'
p1153
sg27
S'NBA'
p1154
sg922
S'-3.6'
p1155
sg924
S'5.5'
p1156
sg926
S'1.6'
p1157
sg38
S'30'
p1158
sg40
S'DEN'
p1159
sg42
S'69'
p1160
sg931
S'3.7'
p1161
sg933
S'11.3'
p1162
sg935
S'0.4'
p1163
sg60
S'1561'
p1164
sg938
S'-3.4'
p1165
sg53
S'1986-87'
p1166
sg941
S'2.0'
p1167
sba(isrc.gp1.models.Advanced
Advanced
p1168
(dp1169
g898
S'11.5'
p1170
sg900
S'16.5'
p1171
sg902
S'.068'
p1172
sg904
S'0.6'
p1173
sg906
S'16.1'
p1174
sg908
S'16.4'
p1175
sg910
S'2.3'
p1176
sg21
g22
sg912
S'0.0'
p1177
sg913
S'.477'
p1178
sg915
S'21.7'
p1179
sg917
S'.248'
p1180
sg919
S'.004'
p1181
sg27
S'NBA'
p1182
sg922
S'-4.5'
p1183
sg924
S'4.2'
p1184
sg926
S'1.4'
p1185
sg38
S'31'
p1186
sg40
S'DEN'
p1187
sg42
S'45'
p1188
sg931
S'6.2'
p1189
sg933
S'11.7'
p1190
sg935
S'-0.2'
p1191
sg60
S'865'
p1192
sg938
S'-2.2'
p1193
sg53
S'1987-88'
p1194
sg941
S'1.2'
p1195
sba(isrc.gp1.models.Advanced
Advanced
p1196
(dp1197
g898
S'11.1'
p1198
sg900
S'13.0'
p1199
sg902
S'.128'
p1200
sg904
S'0.9'
p1201
sg906
S'11.6'
p1202
sg908
S'17.1'
p1203
sg910
S'3.5'
p1204
sg21
g22
sg912
S'1.4'
p1205
sg913
S'.530'
p1206
sg915
S'23.8'
p1207
sg917
S'.239'
p1208
sg919
S'.009'
p1209
sg27
S'NBA'
p1210
sg922
S'-2.4'
p1211
sg924
S'5.0'
p1212
sg926
S'3.1'
p1213
sg38
S'32'
p1214
sg40
S'DEN'
p1215
sg42
S'79'
p1216
sg931
S'6.4'
p1217
sg933
S'13.6'
p1218
sg935
S'1.9'
p1219
sg60
S'1864'
p1220
sg938
S'1.0'
p1221
sg53
S'1988-89'
p1222
sg941
S'5.0'
p1223
sba(isrc.gp1.models.Advanced
Advanced
p1224
(dp1225
g898
S'10.7'
p1226
sg900
S'10.8'
p1227
sg902
S'.112'
p1228
sg904
S'0.7'
p1229
sg906
S'12.0'
p1230
sg908
S'15.7'
p1231
sg910
S'3.1'
p1232
sg21
g22
sg912
S'0.6'
p1233
sg913
S'.469'
p1234
sg915
S'20.7'
p1235
sg917
S'.128'
p1236
sg919
S'.010'
p1237
sg27
S'NBA'
p1238
sg922
S'-3.1'
p1239
sg924
S'4.8'
p1240
sg926
S'2.1'
p1241
sg38
S'33'
p1242
sg40
S'POR'
p1243
sg42
S'79'
p1244
sg931
S'4.9'
p1245
sg933
S'10.6'
p1246
sg935
S'0.6'
p1247
sg60
S'1176'
p1248
sg938
S'0.0'
p1249
sg53
S'1989-90'
p1250
sg941
S'2.7'
p1251
sba(isrc.gp1.models.Advanced
Advanced
p1252
(dp1253
g898
S'8.1'
p1254
sg900
S'11.9'
p1255
sg902
S'.092'
p1256
sg904
S'0.4'
p1257
sg906
S'10.1'
p1258
sg908
S'13.9'
p1259
sg910
S'2.6'
p1260
sg21
g22
sg912
S'0.0'
p1261
sg913
S'.450'
p1262
sg915
S'19.6'
p1263
sg917
S'.290'
p1264
sg919
S'.007'
p1265
sg27
S'NBA'
p1266
sg922
S'-4.5'
p1267
sg924
S'3.6'
p1268
sg926
S'1.2'
p1269
sg38
S'34'
p1270
sg40
S'POR'
p1271
sg42
S'67'
p1272
sg931
S'5.0'
p1273
sg933
S'8.3'
p1274
sg935
S'0.2'
p1275
sg60
S'746'
p1276
sg938
S'-1.9'
p1277
sg53
S'1990-91'
p1278
sg941
S'1.4'
p1279
sba(isrc.gp1.models.Advanced
Advanced
p1280
(dp1281
g898
S'12.1'
p1282
sg900
S'14.7'
p1283
sg902
S'.096'
p1284
sg904
S'0.6'
p1285
sg906
S'12.1'
p1286
sg908
S'16.0'
p1287
sg910
S'2.9'
p1288
sg21
g22
sg912
S'0.1'
p1289
sg913
S'.443'
p1290
sg915
S'20.0'
p1291
sg917
S'.134'
p1292
sg919
S'.000'
p1293
sg27
S'NBA'
p1294
sg922
S'-3.6'
p1295
sg924
S'7.9'
p1296
sg926
S'0.6'
p1297
sg38
S'35'
p1298
sg40
S'POR'
p1299
sg42
S'35'
p1300
sg931
S'4.9'
p1301
sg933
S'10.2'
p1302
sg935
S'0.1'
p1303
sg60
S'344'
p1304
sg938
S'-0.7'
p1305
sg53
S'1991-92'
p1306
sg941
S'0.7'
p1307
sbasS'_per36Minutes'
p1308
(lp1309
(isrc.gp1.models.Per36Minutes
Per36Minutes
p1310
(dp1311
g8
S'0.3'
p1312
sg10
S'.437'
p1313
sg12
S'5.8'
p1314
sg14
S'5.3'
p1315
sg16
S'1.9'
p1316
sg18
S'13.3'
p1317
sg20
g3
sg21
g22
sg23
S'1.0'
p1318
sg27
S'NBA'
p1319
sg29
S'13.4'
p1320
sg31
S'.437'
p1321
sg33
g3
sg34
S'12.7'
p1322
sg36
S'2.4'
p1323
sg38
S'22'
p1324
sg40
S'GSW'
p1325
sg42
S'65'
p1326
sg44
g3
sg45
S'2.8'
p1327
sg47
S'8.6'
p1328
sg49
S'.672'
p1329
sg51
S'2.0'
p1330
sg53
S'1978-79'
p1331
sg55
S'13.3'
p1332
sg57
g3
sg58
S'4.1'
p1333
sg60
S'5.8'
p1334
sg62
S'795'
p1335
sba(isrc.gp1.models.Per36Minutes
Per36Minutes
p1336
(dp1337
g8
S'6.2'
p1338
sg10
S'.250'
p1339
sg12
S'0.0'
p1340
sg14
S'0.4'
p1341
sg16
S'7.4'
p1342
sg18
S'0.1'
p1343
sg20
g3
sg21
S'PF'
p1344
sg23
S'4.1'
p1345
sg27
S'NBA'
p1346
sg29
S'1.6'
p1347
sg31
S'.489'
p1348
sg33
S'17.6'
p1349
sg34
S'.751'
p1350
sg36
S'0.8'
p1351
sg38
S'23'
p1352
sg40
S'GSW'
p1353
sg42
S'79'
p1354
sg44
S'2.8'
p1355
sg45
S'15.1'
p1356
sg47
S'3.7'
p1357
sg49
S'.491'
p1358
sg51
S'10.2'
p1359
sg53
S'1979-80'
p1360
sg55
S'15.2'
p1361
sg57
S'5.0'
p1362
sg58
S'2.7'
p1363
sg60
S'7.4'
p1364
sg62
S'1781'
p1365
sba(isrc.gp1.models.Per36Minutes
Per36Minutes
p1366
(dp1367
g8
S'6.9'
p1368
sg10
S'.333'
p1369
sg12
S'0.0'
p1370
sg14
S'0.5'
p1371
sg16
S'5.4'
p1372
sg18
S'0.1'
p1373
sg20
g3
sg21
g22
sg23
S'4.2'
p1374
sg27
S'NBA'
p1375
sg29
S'1.3'
p1376
sg31
S'.452'
p1377
sg33
S'12.4'
p1378
sg34
S'.689'
p1379
sg36
S'1.3'
p1380
sg38
S'24'
p1381
sg40
S'UTA'
p1382
sg42
S'71'
p1383
sg44
S'2.0'
p1384
sg45
S'11.9'
p1385
sg47
S'2.3'
p1386
sg49
S'.453'
p1387
sg51
S'11.2'
p1388
sg53
S'1980-81'
p1389
sg55
S'11.9'
p1390
sg57
S'5.6'
p1391
sg58
S'1.6'
p1392
sg60
S'5.4'
p1393
sg62
S'1420'
p1394
sba(isrc.gp1.models.Per36Minutes
Per36Minutes
p1395
(dp1396
g8
S'4.0'
p1397
sg10
S'0.2'
p1398
sg12
S'.420'
p1399
sg14
S'2.3'
p1400
sg16
S'.125'
p1401
sg18
S'0.0'
p1402
sg20
S'13.5'
p1403
sg21
g22
sg23
S'.744'
p1404
sg27
S'NBA'
p1405
sg29
S'0.7'
p1406
sg31
S'13.2'
p1407
sg33
S'5.6'
p1408
sg34
S'3.2'
p1409
sg36
S'10.9'
p1410
sg38
S'25'
p1411
sg40
S'DAL'
p1412
sg42
S'76'
p1413
sg44
S'2.1'
p1414
sg45
S'5.5'
p1415
sg47
S'2.4'
p1416
sg49
S'13.1'
p1417
sg51
S'6.9'
p1418
sg53
S'1981-82'
p1419
sg55
S'5.6'
p1420
sg57
S'1.7'
p1421
sg58
S'.424'
p1422
sg60
S'1818'
p1423
sg62
S'38'
p1424
sba(isrc.gp1.models.Per36Minutes
Per36Minutes
p1425
(dp1426
g8
S'3.7'
p1427
sg10
S'0.1'
p1428
sg12
S'.443'
p1429
sg14
S'2.0'
p1430
sg16
S'.000'
p1431
sg18
S'0.0'
p1432
sg20
S'13.3'
p1433
sg21
g22
sg23
S'.685'
p1434
sg27
S'NBA'
p1435
sg29
S'0.5'
p1436
sg31
S'12.4'
p1437
sg33
S'5.5'
p1438
sg34
S'3.4'
p1439
sg36
S'10.5'
p1440
sg38
S'26'
p1441
sg40
S'POR'
p1442
sg42
S'80'
p1443
sg44
S'2.3'
p1444
sg45
S'5.5'
p1445
sg47
S'2.3'
p1446
sg49
S'12.3'
p1447
sg51
S'6.8'
p1448
sg53
S'1982-83'
p1449
sg55
S'5.5'
p1450
sg57
S'2.8'
p1451
sg58
S'.446'
p1452
sg60
S'2099'
p1453
sg62
S'60'
p1454
sba(isrc.gp1.models.Per36Minutes
Per36Minutes
p1455
(dp1456
g8
S'3.8'
p1457
sg10
S'0.2'
p1458
sg12
S'.459'
p1459
sg14
S'1.6'
p1460
sg16
S'.000'
p1461
sg18
S'0.0'
p1462
sg20
S'17.2'
p1463
sg21
g22
sg23
S'.804'
p1464
sg27
S'NBA'
p1465
sg29
S'0.6'
p1466
sg31
S'14.4'
p1467
sg33
S'5.4'
p1468
sg34
S'5.0'
p1469
sg36
S'10.3'
p1470
sg38
S'27'
p1471
sg40
S'POR'
p1472
sg42
S'81'
p1473
sg44
S'2.3'
p1474
sg45
S'6.6'
p1475
sg47
S'4.0'
p1476
sg49
S'14.2'
p1477
sg51
S'6.5'
p1478
sg53
S'1983-84'
p1479
sg55
S'6.6'
p1480
sg57
S'2.4'
p1481
sg58
S'.463'
p1482
sg60
S'1662'
p1483
sg62
S'38'
p1484
sba(isrc.gp1.models.Per36Minutes
Per36Minutes
p1485
(dp1486
g8
S'4.1'
p1487
sg10
S'0.0'
p1488
sg12
S'.472'
p1489
sg14
S'1.5'
p1490
sg16
S'.000'
p1491
sg18
S'0.0'
p1492
sg20
S'17.2'
p1493
sg21
g22
sg23
S'.685'
p1494
sg27
S'NBA'
p1495
sg29
S'0.5'
p1496
sg31
S'15.2'
p1497
sg33
S'5.4'
p1498
sg34
S'4.2'
p1499
sg36
S'11.2'
p1500
sg38
S'28'
p1501
sg40
S'DEN'
p1502
sg42
S'80'
p1503
sg44
S'3.5'
p1504
sg45
S'7.2'
p1505
sg47
S'2.9'
p1506
sg49
S'15.1'
p1507
sg51
S'7.1'
p1508
sg53
S'1984-85'
p1509
sg55
S'7.2'
p1510
sg57
S'2.6'
p1511
sg58
S'.473'
p1512
sg60
S'2031'
p1513
sg62
S'78'
p1514
sba(isrc.gp1.models.Per36Minutes
Per36Minutes
p1515
(dp1516
g8
S'3.2'
p1517
sg10
S'0.1'
p1518
sg12
S'.466'
p1519
sg14
S'1.4'
p1520
sg16
S'.429'
p1521
sg18
S'0.1'
p1522
sg20
S'17.4'
p1523
sg21
g22
sg23
S'.795'
p1524
sg27
S'NBA'
p1525
sg29
S'0.7'
p1526
sg31
S'15.4'
p1527
sg33
S'5.4'
p1528
sg34
S'3.7'
p1529
sg36
S'10.4'
p1530
sg38
S'29'
p1531
sg40
S'DEN'
p1532
sg42
S'78'
p1533
sg44
S'3.9'
p1534
sg45
S'7.1'
p1535
sg47
S'3.0'
p1536
sg49
S'15.3'
p1537
sg51
S'7.2'
p1538
sg53
S'1985-86'
p1539
sg55
S'7.2'
p1540
sg57
S'2.0'
p1541
sg58
S'.466'
p1542
sg60
S'2112'
p1543
sg62
S'78'
p1544
sba(isrc.gp1.models.Per36Minutes
Per36Minutes
p1545
(dp1546
g8
S'3.7'
p1547
sg10
S'0.1'
p1548
sg12
S'.448'
p1549
sg14
S'1.6'
p1550
sg16
S'.000'
p1551
sg18
S'0.0'
p1552
sg20
S'12.7'
p1553
sg21
g22
sg23
S'.725'
p1554
sg27
S'NBA'
p1555
sg29
S'0.3'
p1556
sg31
S'12.1'
p1557
sg33
S'5.9'
p1558
sg34
S'2.5'
p1559
sg36
S'10.9'
p1560
sg38
S'30'
p1561
sg40
S'DEN'
p1562
sg42
S'69'
p1563
sg44
S'2.3'
p1564
sg45
S'5.4'
p1565
sg47
S'1.8'
p1566
sg49
S'12.0'
p1567
sg51
S'7.2'
p1568
sg53
S'1986-87'
p1569
sg55
S'5.4'
p1570
sg57
S'1.8'
p1571
sg58
S'.451'
p1572
sg60
S'1561'
p1573
sg62
S'64'
p1574
sba(isrc.gp1.models.Per36Minutes
Per36Minutes
p1575
(dp1576
g8
S'4.1'
p1577
sg10
S'0.0'
p1578
sg12
S'.437'
p1579
sg14
S'1.2'
p1580
sg16
S'.000'
p1581
sg18
S'0.0'
p1582
sg20
S'11.9'
p1583
sg21
g22
sg23
S'.746'
p1584
sg27
S'NBA'
p1585
sg29
S'0.5'
p1586
sg31
S'11.2'
p1587
sg33
S'6.0'
p1588
sg34
S'2.8'
p1589
sg36
S'11.2'
p1590
sg38
S'31'
p1591
sg40
S'DEN'
p1592
sg42
S'45'
p1593
sg44
S'3.9'
p1594
sg45
S'4.9'
p1595
sg47
S'2.1'
p1596
sg49
S'11.2'
p1597
sg51
S'7.2'
p1598
sg53
S'1987-88'
p1599
sg55
S'4.9'
p1600
sg57
S'2.5'
p1601
sg58
S'.439'
p1602
sg60
S'865'
p1603
sg62
S'32'
p1604
sba(isrc.gp1.models.Per36Minutes
Per36Minutes
p1605
(dp1606
g8
S'4.1'
p1607
sg10
S'0.1'
p1608
sg12
S'.495'
p1609
sg14
S'1.5'
p1610
sg16
S'.250'
p1611
sg18
S'0.0'
p1612
sg20
S'10.0'
p1613
sg21
g22
sg23
S'.745'
p1614
sg27
S'NBA'
p1615
sg29
S'0.7'
p1616
sg31
S'8.6'
p1617
sg33
S'5.8'
p1618
sg34
S'2.0'
p1619
sg36
S'12.0'
p1620
sg38
S'32'
p1621
sg40
S'DEN'
p1622
sg42
S'79'
p1623
sg44
S'4.1'
p1624
sg45
S'4.2'
p1625
sg47
S'1.5'
p1626
sg49
S'8.5'
p1627
sg51
S'7.9'
p1628
sg53
S'1988-89'
p1629
sg55
S'4.2'
p1630
sg57
S'1.4'
p1631
sg58
S'.498'
p1632
sg60
S'1864'
p1633
sg62
S'72'
p1634
sba(isrc.gp1.models.Per36Minutes
Per36Minutes
p1635
(dp1636
g8
S'3.6'
p1637
sg10
S'0.1'
p1638
sg12
S'.454'
p1639
sg14
S'1.3'
p1640
sg16
S'.000'
p1641
sg18
S'0.0'
p1642
sg20
S'9.2'
p1643
sg21
g22
sg23
S'.641'
p1644
sg27
S'NBA'
p1645
sg29
S'0.6'
p1646
sg31
S'9.3'
p1647
sg33
S'6.5'
p1648
sg34
S'1.2'
p1649
sg36
S'10.4'
p1650
sg38
S'33'
p1651
sg40
S'POR'
p1652
sg42
S'79'
p1653
sg44
S'2.9'
p1654
sg45
S'4.2'
p1655
sg47
S'0.8'
p1656
sg49
S'9.2'
p1657
sg51
S'6.8'
p1658
sg53
S'1989-90'
p1659
sg55
S'4.2'
p1660
sg57
S'1.2'
p1661
sg58
S'.458'
p1662
sg60
S'1176'
p1663
sg62
g161
sba(isrc.gp1.models.Per36Minutes
Per36Minutes
p1664
(dp1665
g8
S'2.6'
p1666
sg10
S'0.0'
p1667
sg12
S'.393'
p1668
sg14
S'1.1'
p1669
sg16
S'.000'
p1670
sg18
S'0.0'
p1671
sg20
S'7.1'
p1672
sg21
g22
sg23
S'.786'
p1673
sg27
S'NBA'
p1674
sg29
S'0.3'
p1675
sg31
S'7.0'
p1676
sg33
S'5.8'
p1677
sg34
S'2.0'
p1678
sg36
S'9.1'
p1679
sg38
S'34'
p1680
sg40
S'POR'
p1681
sg42
S'67'
p1682
sg44
S'2.9'
p1683
sg45
S'2.8'
p1684
sg47
S'1.6'
p1685
sg49
S'6.9'
p1686
sg51
S'6.5'
p1687
sg53
S'1990-91'
p1688
sg55
S'2.8'
p1689
sg57
S'1.1'
p1690
sg58
S'.396'
p1691
sg60
S'746'
p1692
sg62
g68
sba(isrc.gp1.models.Per36Minutes
Per36Minutes
p1693
(dp1694
g8
S'6.6'
p1695
sg10
S'0.0'
p1696
sg12
S'.427'
p1697
sg14
S'0.4'
p1698
sg16
S'3.7'
p1699
sg18
S'0.0'
p1700
sg20
g3
sg21
g22
sg23
S'4.0'
p1701
sg27
S'NBA'
p1702
sg29
S'2.8'
p1703
sg31
S'8.6'
p1704
sg33
S'8.1'
p1705
sg34
S'.636'
p1706
sg36
S'2.2'
p1707
sg38
S'35'
p1708
sg40
S'POR'
p1709
sg42
S'35'
p1710
sg44
S'1.6'
p1711
sg45
S'8.6'
p1712
sg47
S'1.2'
p1713
sg49
S'.427'
p1714
sg51
S'10.6'
p1715
sg53
S'1991-92'
p1716
sg55
S'3.7'
p1717
sg57
S'6.0'
p1718
sg58
S'0.7'
p1719
sg60
S'344'
p1720
sg62
g161
sbasS'_fromYear'
p1721
S'1979'
p1722
sS'_url'
p1723
S'http://www.basketball-reference.com/players/c/coopewa01.html'
p1724
sS'_perGame'
p1725
(isrc.gp1.models.PerGame
PerGame
p1726
(dp1727
g8
S'1.8'
p1728
sg10
S'0.0'
p1729
sg12
S'.427'
p1730
sS'_effectiveFieldGalPercentage'
p1731
S'0.2'
p1732
sg14
S'0.1'
p1733
sg16
S'1.0'
p1734
sg18
S'0.0'
p1735
sg20
g3
sg21
g22
sg23
S'1.1'
p1736
sg27
S'NBA'
p1737
sg29
S'0.8'
p1738
sg33
S'2.2'
p1739
sS'_fieldGoalsttempted'
p1740
S'2.3'
p1741
sg34
S'.636'
p1742
sg36
S'0.6'
p1743
sg38
S'35'
p1744
sg40
S'POR'
p1745
sg42
S'35'
p1746
sg44
S'0.4'
p1747
sg45
S'2.3'
p1748
sg47
S'0.3'
p1749
sg49
S'.427'
p1750
sg51
S'2.9'
p1751
sg53
S'1991-92'
p1752
sg55
S'1.0'
p1753
sg57
S'1.6'
p1754
sg58
S'.427'
p1755
sg60
S'9.8'
p1756
sg62
g161
sbsS'_weight'
p1757
S'220'
p1758
sS'_dob'
p1759
S'16-11-1956'
p1760
sS'_salary'
p1761
(lp1762
(isrc.gp1.models.Salary
Salary
p1763
(dp1764
g40
S'Denver Nuggets'
p1765
sg27
S'NBA'
p1766
sg1761
S'$300,000'
p1767
sg53
S'1985-86'
p1768
sba(isrc.gp1.models.Salary
Salary
p1769
(dp1770
g40
S'Denver Nuggets'
p1771
sg27
S'NBA'
p1772
sg1761
S'$650,000'
p1773
sg53
S'1987-88'
p1774
sba(isrc.gp1.models.Salary
Salary
p1775
(dp1776
g40
S'Denver Nuggets'
p1777
sg27
S'NBA'
p1778
sg1761
S'$750,000'
p1779
sg53
S'1988-89'
p1780
sba(isrc.gp1.models.Salary
Salary
p1781
(dp1782
g40
S'Portland Trail Blazers'
p1783
sg27
S'NBA'
p1784
sg1761
S'$1,100,000'
p1785
sg53
S'1990-91'
p1786
sba(isrc.gp1.models.Salary
Salary
p1787
(dp1788
g40
S'Portland Trail Blazers'
p1789
sg27
S'NBA'
p1790
sg1761
S'$1,200,000'
p1791
sg53
S'1991-92'
p1792
sbasg21
S'C-F'
p1793
sb.