(isrc.gp1.models.Player
Player
p0
(dp1
S'_experience'
p2
S'NA'
p3
sS'_totals'
p4
(lp5
(isrc.gp1.models.Totals
Totals
p6
(dp7
S'_offensiveRebounds'
p8
S'13'
p9
sS'_threePointsAttempted'
p10
S'.294'
p11
sS'_fieldGoalsPercentage'
p12
S'5'
p13
sS'_assist'
p14
S'6'
p15
sS'_threePointsPercentage'
p16
S'18'
p17
sS'_threePoints'
p18
S'17'
p19
sS'_points'
p20
g3
sS'_position'
p21
S'PG'
p22
sS'_freeThrowsPercentage'
p23
S'7'
p24
sS'_effectiveFieldGoalPercentage'
p25
S'10'
p26
sS'_league'
p27
S'ABA'
p28
sS'_steals'
p29
S'0'
p30
sS'_fieldGoalsAttempted'
p31
S'.383'
p32
sS'_personalFouls'
p33
S'61'
p34
sS'_freeThrowsAttempted'
p35
S'.833'
p36
sS'_totalRebounds'
p37
S'13'
p38
sS'_age'
p39
S'24'
p40
sS'_team'
p41
S'INA'
p42
sS'_games'
p43
S'21'
p44
sS'_blocks'
p45
S'13'
p46
sS'_twoPoints'
p47
S'43'
p48
sS'_freeThrows'
p49
S'12'
p50
sS'_twoPointsAttempted'
p51
S'.419'
p52
sS'_defensiveRebounds'
p53
S'20'
p54
sS'_season'
p55
S'1974-75'
p56
sS'_fieldGoals'
p57
S'60'
p58
sS'_turnOvers'
p59
S'21'
p60
sS'_twoPointsPercentage'
p61
S'.425'
p62
sS'_minutesPlayed'
p63
S'23'
p64
sS'_gamesStarted'
p65
S'189'
p66
sbasS'_college'
p67
S'Tennessee Technological University'
p68
sS'_toYear'
p69
S'1975'
p70
sS'_height'
p71
S'6-0'
p72
sS'_active'
p73
I00
sS'_shootingHand'
p74
VRight
p75
sS'_name'
p76
S'Wayne Pack'
p77
sS'_per100Possessions'
p78
(lp79
(isrc.gp1.models.Per100Possession
Per100Possession
p80
(dp81
g8
S'3.1'
p82
sg10
S'.294'
p83
sg12
S'1.2'
p84
sS'_offensiveRating'
p85
S'109'
p86
sg14
S'1.4'
p87
sg16
S'4.3'
p88
sg18
S'4.1'
p89
sg20
S'96'
p90
sg21
S'PG'
p91
sS'_defensiveRating'
p92
g3
sg23
S'1.7'
p93
sg27
S'ABA'
p94
sg29
S'0.0'
p95
sg31
S'.383'
p96
sg33
S'14.7'
p97
sg35
S'.833'
p98
sg37
S'3.1'
p99
sg39
S'24'
p100
sg41
S'INA'
p101
sg43
S'21'
p102
sg45
S'3.1'
p103
sg47
S'10.4'
p104
sg49
S'2.9'
p105
sg51
S'.419'
p106
sg53
S'4.8'
p107
sg55
S'1974-75'
p108
sg57
S'14.5'
p109
sg59
S'5.1'
p110
sg61
S'2.4'
p111
sg63
S'5.6'
p112
sg65
S'189'
p113
sbasS'_advanced'
p114
(lp115
(isrc.gp1.models.Advanced
Advanced
p116
(dp117
S'_offensiveReboundPercentage'
p118
S'3.4'
p119
sS'_turnOverPercentage'
p120
S'16.6'
p121
sS'_winSharesPer48Minutes'
p122
S'.020'
p123
sS'_stealPercentage'
p124
S'1.4'
p125
sS'_usagePercentage'
p126
S'15.6'
p127
sS'_totalReboundsPercentage'
p128
S'5.1'
p129
sS'_defensiveBoxPlusMinus'
p130
S'-2.4'
p131
sg21
S'PG'
p132
sS'_valueOverReplacementPlayer'
p133
S'-0.2'
p134
sS'_trueShootingPercentage'
p135
S'.467'
p136
sS'_defensiveReboundPercentage'
p137
S'6.9'
p138
sS'_freeThrowsAttempRate'
p139
S'.200'
p140
sS'_threePointsAttempRate'
p141
S'.283'
p142
sg27
S'ABA'
p143
sS'_offensiveBoxPlusMinues'
p144
S'-3.1'
p145
sS'_assistPercentage'
p146
S'8.2'
p147
sS'_defensiveWinShares'
p148
S'0.1'
p149
sg39
S'24'
p150
sg41
S'INA'
p151
sg43
S'21'
p152
sS'_blockPercentage'
p153
S'0.0'
p154
sS'_playerEfficiencyRating'
p155
S'7.3'
p156
sS'_offensiveWinShares'
p157
S'0.0'
p158
sg63
S'189'
p159
sS'_boxPlusMinus'
p160
S'-5.5'
p161
sg55
S'1974-75'
p162
sS'_winShares'
p163
S'0.1'
p164
sbasS'_per36Minutes'
p165
(lp166
(isrc.gp1.models.Per36Minutes
Per36Minutes
p167
(dp168
g8
S'2.5'
p169
sg10
S'.294'
p170
sg12
S'1.0'
p171
sg14
S'1.1'
p172
sg16
S'3.4'
p173
sg18
S'3.2'
p174
sg20
g3
sg21
S'PG'
p175
sg23
S'1.3'
p176
sg27
S'ABA'
p177
sg29
S'0.0'
p178
sg31
S'.383'
p179
sg33
S'11.6'
p180
sg35
S'.833'
p181
sg37
S'2.5'
p182
sg39
S'24'
p183
sg41
S'INA'
p184
sg43
S'21'
p185
sg45
S'2.5'
p186
sg47
S'8.2'
p187
sg49
S'2.3'
p188
sg51
S'.419'
p189
sg53
S'3.8'
p190
sg55
S'1974-75'
p191
sg57
S'11.4'
p192
sg59
S'4.0'
p193
sg61
S'1.9'
p194
sg63
S'4.4'
p195
sg65
S'189'
p196
sbasS'_fromYear'
p197
S'1975'
p198
sS'_url'
p199
S'http://www.basketball-reference.com/players/p/packwa01.html'
p200
sS'_perGame'
p201
(isrc.gp1.models.PerGame
PerGame
p202
(dp203
g8
S'0.6'
p204
sg10
S'.294'
p205
sg12
S'0.2'
p206
sS'_effectiveFieldGalPercentage'
p207
S'0.5'
p208
sg14
S'0.3'
p209
sg16
S'0.9'
p210
sg18
S'0.8'
p211
sg20
g3
sg21
S'PG'
p212
sg23
S'0.3'
p213
sg27
S'ABA'
p214
sg29
S'0.0'
p215
sg33
S'2.9'
p216
sS'_fieldGoalsttempted'
p217
S'.383'
p218
sg35
S'.833'
p219
sg37
S'0.6'
p220
sg39
S'24'
p221
sg41
S'INA'
p222
sg43
S'21'
p223
sg45
S'0.6'
p224
sg47
S'2.0'
p225
sg49
S'0.6'
p226
sg51
S'.419'
p227
sg53
S'1.0'
p228
sg55
S'1974-75'
p229
sg57
S'2.9'
p230
sg59
S'1.0'
p231
sg61
S'.425'
p232
sg63
S'1.1'
p233
sg65
S'9.0'
p234
sbsS'_weight'
p235
S'165'
p236
sS'_dob'
p237
S'5-7-1950'
p238
sS'_salary'
p239
(lp240
sg21
S'G'
p241
sb.