(isrc.gp1.models.Player
Player
p0
(dp1
S'_experience'
p2
S'NA'
p3
sS'_totals'
p4
(lp5
(isrc.gp1.models.Totals
Totals
p6
(dp7
S'_offensiveRebounds'
p8
S'45'
p9
sS'_threePointsAttempted'
p10
S'.308'
p11
sS'_fieldGoalsPercentage'
p12
S'4'
p13
sS'_assist'
p14
S'39'
p15
sS'_threePointsPercentage'
p16
S'64'
p17
sS'_threePoints'
p18
S'13'
p19
sS'_points'
p20
g3
sS'_position'
p21
S'SF'
p22
sS'_freeThrowsPercentage'
p23
S'29'
p24
sS'_effectiveFieldGoalPercentage'
p25
S'54'
p26
sS'_league'
p27
S'ABA'
p28
sS'_steals'
p29
S'95'
p30
sS'_fieldGoalsAttempted'
p31
S'.337'
p32
sS'_personalFouls'
p33
g3
sS'_freeThrowsAttempted'
p34
S'.750'
p35
sS'_totalRebounds'
p36
S'38'
p37
sS'_age'
p38
S'23'
p39
sS'_team'
p40
S'KEN'
p41
sS'_games'
p42
S'48'
p43
sS'_blocks'
p44
S'194'
p45
sS'_twoPoints'
p46
S'189'
p47
sS'_freeThrows'
p48
S'72'
p49
sS'_twoPointsAttempted'
p50
S'.339'
p51
sS'_defensiveRebounds'
p52
S'74'
p53
sS'_season'
p54
S'1968-69'
p55
sS'_fieldGoals'
p56
S'202'
p57
sS'_turnOvers'
p58
g3
sS'_twoPointsPercentage'
p59
S'.347'
p60
sS'_minutesPlayed'
p61
S'68'
p62
sS'_gamesStarted'
p63
S'458'
p64
sba(isrc.gp1.models.Totals
Totals
p65
(dp66
g8
S'151'
p67
sg10
S'.216'
p68
sg12
S'8'
p69
sg14
S'134'
p70
sg16
S'253'
p71
sg18
S'37'
p72
sg20
g3
sg21
S'SF'
p73
sg23
S'101'
p74
sg25
S'134'
p75
sg27
S'ABA'
p76
sg29
S'250'
p77
sg31
S'.399'
p78
sg33
g3
sg34
S'.657'
p79
sg36
S'139'
p80
sg38
S'24'
p81
sg40
S'KEN'
p82
sg42
S'82'
p83
sg44
S'664'
p84
sg46
S'617'
p85
sg48
S'204'
p86
sg50
S'.410'
p87
sg52
S'252'
p88
sg54
S'1969-70'
p89
sg56
S'654'
p90
sg58
g3
sg59
S'.405'
p91
sg61
S'261'
p92
sg63
S'1519'
p93
sba(isrc.gp1.models.Totals
Totals
p94
(dp95
g8
S'119'
p96
sg10
S'.263'
p97
sg12
S'15'
p98
sg14
S'115'
p99
sg16
S'199'
p100
sg18
S'57'
p101
sg20
g3
sg21
S'SF'
p102
sg23
S'55'
p103
sg25
S'113'
p104
sg27
S'ABA'
p105
sg29
S'158'
p106
sg31
S'.381'
p107
sg33
g3
sg34
S'.715'
p108
sg36
S'128'
p109
sg38
S'25'
p110
sg40
S'TOT'
p111
sg42
S'69'
p112
sg44
S'556'
p113
sg46
S'505'
p114
sg48
S'158'
p115
sg50
S'.394'
p116
sg52
S'174'
p117
sg54
S'1970-71'
p118
sg56
S'562'
p119
sg58
g3
sg59
S'.394'
p120
sg61
S'214'
p121
sg63
S'1241'
p122
sba(isrc.gp1.models.Totals
Totals
p123
(dp124
g8
S'100'
p125
sg10
S'.229'
p126
sg12
S'11'
p127
sg14
S'100'
p128
sg16
S'173'
p129
sg18
S'48'
p130
sg20
g3
sg21
S'SF'
p131
sg23
S'43'
p132
sg25
S'89'
p133
sg27
S'ABA'
p134
sg29
S'127'
p135
sg31
S'.380'
p136
sg33
g3
sg34
S'.690'
p137
sg36
S'107'
p138
sg38
S'25'
p139
sg40
S'DNR'
p140
sg42
S'47'
p141
sg44
S'468'
p142
sg46
S'436'
p143
sg48
S'129'
p144
sg50
S'.397'
p145
sg52
S'143'
p146
sg54
S'1970-71'
p147
sg56
S'484'
p148
sg58
g3
sg59
S'.392'
p149
sg61
S'184'
p150
sg63
S'1049'
p151
sba(isrc.gp1.models.Totals
Totals
p152
(dp153
g8
S'19'
p154
sg10
S'.444'
p155
sg12
g13
sg14
S'15'
p156
sg16
S'26'
p157
sg18
S'9'
p158
sg20
g3
sg21
S'SF'
p159
sg23
S'12'
p160
sg25
S'24'
p161
sg27
S'ABA'
p162
sg29
S'31'
p163
sg31
S'.385'
p164
sg33
g3
sg34
S'.828'
p165
sg36
S'21'
p166
sg38
S'25'
p167
sg40
S'INA'
p168
sg42
S'22'
p169
sg44
S'88'
p170
sg46
S'69'
p171
sg48
S'29'
p172
sg50
S'.377'
p173
sg52
S'31'
p174
sg54
S'1970-71'
p175
sg56
S'78'
p176
sg58
g3
sg59
S'.410'
p177
sg61
S'30'
p178
sg63
S'192'
p179
sba(isrc.gp1.models.Totals
Totals
p180
(dp181
g8
S'3'
p182
sg10
S'.500'
p183
sg12
S'1'
p184
sg14
S'6'
p185
sg16
g185
sg18
S'2'
p186
sg20
g3
sg21
S'SF'
p187
sg23
g186
sg25
g182
sg27
S'ABA'
p188
sg29
S'10'
p189
sg31
S'.389'
p190
sg33
g3
sg34
S'.500'
p191
sg36
S'11'
p192
sg38
S'26'
p193
sg40
S'INA'
p194
sg42
S'7'
p195
sg44
S'18'
p196
sg46
S'16'
p197
sg48
g185
sg50
S'.375'
p198
sg52
S'5'
p199
sg54
S'1971-72'
p200
sg56
S'18'
p201
sg58
g3
sg59
S'.417'
p202
sg61
g195
sg63
S'76'
p203
sbasS'_college'
p204
S'Western Kentucky University'
p205
sS'_toYear'
p206
S'1972'
p207
sS'_height'
p208
S'6-6'
p209
sS'_active'
p210
I00
sS'_shootingHand'
p211
VRight
p212
sS'_name'
p213
S'Wayne Chapman'
p214
sS'_per100Possessions'
p215
(lp216
sS'_advanced'
p217
(lp218
(isrc.gp1.models.Advanced
Advanced
p219
(dp220
S'_offensiveReboundPercentage'
p221
S'7.0'
p222
sS'_turnOverPercentage'
p223
S'-0.1'
p224
sS'_winSharesPer48Minutes'
p225
g3
sS'_stealPercentage'
p226
S'-0.6'
p227
sS'_usagePercentage'
p228
S'-0.008'
p229
sS'_totalReboundsPercentage'
p230
S'14.3'
p231
sS'_defensiveBoxPlusMinus'
p232
g3
sg21
S'SF'
p233
sS'_valueOverReplacementPlayer'
p234
g3
sS'_trueShootingPercentage'
p235
S'.415'
p236
sS'_defensiveReboundPercentage'
p237
S'11.9'
p238
sS'_freeThrowsAttempRate'
p239
S'.356'
p240
sS'_threePointsAttempRate'
p241
S'.064'
p242
sg27
S'ABA'
p243
sS'_offensiveBoxPlusMinues'
p244
g3
sS'_assistPercentage'
p245
S'22.0'
p246
sS'_defensiveWinShares'
p247
g3
sg38
S'23'
p248
sg40
S'KEN'
p249
sg42
S'48'
p250
sS'_blockPercentage'
p251
S'0.5'
p252
sS'_playerEfficiencyRating'
p253
S'7.2'
p254
sS'_offensiveWinShares'
p255
g3
sg61
S'458'
p256
sS'_boxPlusMinus'
p257
g3
sg54
S'1968-69'
p258
sS'_winShares'
p259
g3
sba(isrc.gp1.models.Advanced
Advanced
p260
(dp261
g221
S'7.3'
p262
sg223
S'1.0'
p263
sg225
g3
sg226
S'-0.8'
p264
sg228
S'.032'
p265
sg230
S'15.3'
p266
sg232
g3
sg21
S'SF'
p267
sg234
g3
sg235
S'.446'
p268
sg237
S'12.9'
p269
sg239
S'.312'
p270
sg241
S'.057'
p271
sg27
S'ABA'
p272
sg244
g3
sg245
S'21.0'
p273
sg247
g3
sg38
S'24'
p274
sg40
S'KEN'
p275
sg42
S'82'
p276
sg251
S'1.8'
p277
sg253
S'9.5'
p278
sg255
g3
sg61
S'1519'
p279
sg257
g3
sg54
S'1969-70'
p280
sg259
g3
sba(isrc.gp1.models.Advanced
Advanced
p281
(dp282
g221
S'6.1'
p283
sg223
S'0.1'
p284
sg225
g3
sg226
S'-1.0'
p285
sg228
S'.004'
p286
sg230
S'15.4'
p287
sg232
g3
sg21
S'SF'
p288
sg234
g3
sg235
S'.440'
p289
sg237
S'13.4'
p290
sg239
S'.281'
p291
sg241
S'.101'
p292
sg27
S'ABA'
p293
sg244
g3
sg245
S'21.3'
p294
sg247
g3
sg38
S'25'
p295
sg40
S'TOT'
p296
sg42
S'69'
p297
sg251
S'1.1'
p298
sg253
S'8.9'
p299
sg255
g3
sg61
S'1241'
p300
sg257
g3
sg54
S'1970-71'
p301
sg259
g3
sba(isrc.gp1.models.Advanced
Advanced
p302
(dp303
g221
S'5.8'
p304
sg223
S'-0.2'
p305
sg225
g3
sg226
S'-1.0'
p306
sg228
S'-0.007'
p307
sg230
S'15.6'
p308
sg232
g3
sg21
S'SF'
p309
sg234
g3
sg235
S'.433'
p310
sg237
S'13.3'
p311
sg239
S'.267'
p312
sg241
S'.099'
p313
sg27
S'ABA'
p314
sg244
g3
sg245
S'21.4'
p315
sg247
g3
sg38
S'25'
p316
sg40
S'DNR'
p317
sg42
S'47'
p318
sg251
S'0.9'
p319
sg253
S'8.4'
p320
sg255
g3
sg61
S'1049'
p321
sg257
g3
sg54
S'1970-71'
p322
sg259
g3
sba(isrc.gp1.models.Advanced
Advanced
p323
(dp324
g221
S'7.3'
p325
sg223
S'0.3'
p326
sg225
g3
sg226
S'0.1'
p327
sg228
S'.065'
p328
sg230
S'14.2'
p329
sg232
g3
sg21
S'SF'
p330
sg234
g3
sg235
S'.485'
p331
sg237
S'14.1'
p332
sg239
S'.372'
p333
sg241
S'.115'
p334
sg27
S'ABA'
p335
sg244
g3
sg245
S'20.7'
p336
sg247
g3
sg38
S'25'
p337
sg40
S'INA'
p338
sg42
S'22'
p339
sg251
S'0.2'
p340
sg253
S'11.3'
p341
sg255
g3
sg61
S'192'
p342
sg257
g3
sg54
S'1970-71'
p343
sg259
g3
sba(isrc.gp1.models.Advanced
Advanced
p344
(dp345
g221
S'2.5'
p346
sg223
S'0.0'
p347
sg225
g3
sg226
S'22.5'
p348
sg228
S'0.1'
p349
sg230
S'3.0'
p350
sg232
g3
sg21
S'SF'
p351
sg234
g3
sg235
S'.436'
p352
sg237
S'3.5'
p353
sg239
S'.333'
p354
sg241
S'.111'
p355
sg27
S'ABA'
p356
sg244
g3
sg245
S'18.3'
p357
sg247
S'.019'
p358
sg38
S'26'
p359
sg40
S'INA'
p360
sg42
g195
sg251
S'13.5'
p361
sg253
S'4.8'
p362
sg255
S'0.0'
p363
sg61
S'76'
p364
sg257
g3
sg54
S'1971-72'
p365
sg259
g3
sbasS'_per36Minutes'
p366
(lp367
(isrc.gp1.models.Per36Minutes
Per36Minutes
p368
(dp369
g8
S'3.5'
p370
sg10
S'.308'
p371
sg12
S'0.3'
p372
sg14
S'3.1'
p373
sg16
S'5.0'
p374
sg18
S'1.0'
p375
sg20
g3
sg21
S'SF'
p376
sg23
S'2.3'
p377
sg27
S'ABA'
p378
sg29
S'7.5'
p379
sg31
S'.337'
p380
sg33
g3
sg34
S'.750'
p381
sg36
S'3.0'
p382
sg38
S'23'
p383
sg40
S'KEN'
p384
sg42
S'48'
p385
sg44
S'15.2'
p386
sg46
S'14.9'
p387
sg48
S'5.7'
p388
sg50
S'.339'
p389
sg52
S'5.8'
p390
sg54
S'1968-69'
p391
sg56
S'15.9'
p392
sg58
g3
sg59
S'4.2'
p393
sg61
S'5.3'
p394
sg63
S'458'
p395
sba(isrc.gp1.models.Per36Minutes
Per36Minutes
p396
(dp397
g8
S'3.6'
p398
sg10
S'.216'
p399
sg12
S'0.2'
p400
sg14
S'3.2'
p401
sg16
S'6.0'
p402
sg18
S'0.9'
p403
sg20
g3
sg21
S'SF'
p404
sg23
S'2.4'
p405
sg27
S'ABA'
p406
sg29
S'5.9'
p407
sg31
S'.399'
p408
sg33
g3
sg34
S'.657'
p409
sg36
S'3.3'
p410
sg38
S'24'
p411
sg40
S'KEN'
p412
sg42
S'82'
p413
sg44
S'15.7'
p414
sg46
S'14.6'
p415
sg48
S'4.8'
p416
sg50
S'.410'
p417
sg52
S'6.0'
p418
sg54
S'1969-70'
p419
sg56
S'15.5'
p420
sg58
g3
sg59
S'3.2'
p421
sg61
S'6.2'
p422
sg63
S'1519'
p423
sba(isrc.gp1.models.Per36Minutes
Per36Minutes
p424
(dp425
g8
S'3.5'
p426
sg10
S'.263'
p427
sg12
S'0.4'
p428
sg14
S'3.3'
p429
sg16
S'5.8'
p430
sg18
S'1.7'
p431
sg20
g3
sg21
S'SF'
p432
sg23
S'1.6'
p433
sg27
S'ABA'
p434
sg29
S'4.6'
p435
sg31
S'.381'
p436
sg33
g3
sg34
S'.715'
p437
sg36
S'3.7'
p438
sg38
S'25'
p439
sg40
S'TOT'
p440
sg42
S'69'
p441
sg44
S'16.1'
p442
sg46
S'14.6'
p443
sg48
S'4.6'
p444
sg50
S'.394'
p445
sg52
S'5.0'
p446
sg54
S'1970-71'
p447
sg56
S'16.3'
p448
sg58
g3
sg59
S'3.3'
p449
sg61
S'6.2'
p450
sg63
S'1241'
p451
sba(isrc.gp1.models.Per36Minutes
Per36Minutes
p452
(dp453
g8
S'3.4'
p454
sg10
S'.229'
p455
sg12
S'0.4'
p456
sg14
S'3.4'
p457
sg16
S'5.9'
p458
sg18
S'1.6'
p459
sg20
g3
sg21
S'SF'
p460
sg23
S'1.5'
p461
sg27
S'ABA'
p462
sg29
S'4.4'
p463
sg31
S'.380'
p464
sg33
g3
sg34
S'.690'
p465
sg36
S'3.7'
p466
sg38
S'25'
p467
sg40
S'DNR'
p468
sg42
S'47'
p469
sg44
S'16.1'
p470
sg46
S'15.0'
p471
sg48
S'4.4'
p472
sg50
S'.397'
p473
sg52
S'4.9'
p474
sg54
S'1970-71'
p475
sg56
S'16.6'
p476
sg58
g3
sg59
S'3.1'
p477
sg61
S'6.3'
p478
sg63
S'1049'
p479
sba(isrc.gp1.models.Per36Minutes
Per36Minutes
p480
(dp481
g8
S'3.6'
p482
sg10
S'.444'
p483
sg12
S'0.7'
p484
sg14
S'2.8'
p485
sg16
S'4.9'
p486
sg18
S'1.7'
p487
sg20
g3
sg21
S'SF'
p488
sg23
S'2.3'
p489
sg27
S'ABA'
p490
sg29
S'5.8'
p491
sg31
S'.385'
p492
sg33
g3
sg34
S'.828'
p493
sg36
S'3.9'
p494
sg38
S'25'
p495
sg40
S'INA'
p496
sg42
S'22'
p497
sg44
S'16.5'
p498
sg46
S'12.9'
p499
sg48
S'5.4'
p500
sg50
S'.377'
p501
sg52
S'5.8'
p502
sg54
S'1970-71'
p503
sg56
S'14.6'
p504
sg58
g3
sg59
S'4.5'
p505
sg61
S'5.6'
p506
sg63
S'192'
p507
sba(isrc.gp1.models.Per36Minutes
Per36Minutes
p508
(dp509
g8
S'1.4'
p510
sg10
S'.500'
p511
sg12
S'0.5'
p512
sg14
S'2.8'
p513
sg16
S'2.8'
p514
sg18
S'0.9'
p515
sg20
g3
sg21
S'SF'
p516
sg23
S'0.9'
p517
sg27
S'ABA'
p518
sg29
S'4.7'
p519
sg31
S'.389'
p520
sg33
g3
sg34
S'.500'
p521
sg36
S'5.2'
p522
sg38
S'26'
p523
sg40
S'INA'
p524
sg42
g195
sg44
S'8.5'
p525
sg46
S'7.6'
p526
sg48
S'2.8'
p527
sg50
S'.375'
p528
sg52
S'2.4'
p529
sg54
S'1971-72'
p530
sg56
S'8.5'
p531
sg58
g3
sg59
S'1.4'
p532
sg61
S'3.3'
p533
sg63
S'76'
p534
sbasS'_fromYear'
p535
S'1969'
p536
sS'_url'
p537
S'http://www.basketball-reference.com/players/c/chapmwa01.html'
p538
sS'_perGame'
p539
(isrc.gp1.models.PerGame
PerGame
p540
(dp541
g8
S'0.4'
p542
sg10
S'.500'
p543
sg12
S'0.1'
p544
sS'_effectiveFieldGalPercentage'
p545
S'0.4'
p546
sg14
S'0.9'
p547
sg16
S'0.9'
p548
sg18
S'0.3'
p549
sg20
g3
sg21
S'SF'
p550
sg23
S'0.3'
p551
sg27
S'ABA'
p552
sg29
S'1.4'
p553
sg33
g3
sS'_fieldGoalsttempted'
p554
S'.389'
p555
sg34
S'.500'
p556
sg36
S'1.6'
p557
sg38
S'26'
p558
sg40
S'INA'
p559
sg42
g195
sg44
S'2.6'
p560
sg46
S'2.3'
p561
sg48
S'0.9'
p562
sg50
S'.375'
p563
sg52
S'0.7'
p564
sg54
S'1971-72'
p565
sg56
S'2.6'
p566
sg58
g3
sg59
S'.417'
p567
sg61
S'1.0'
p568
sg63
S'10.9'
p569
sbsS'_weight'
p570
S'190'
p571
sS'_dob'
p572
S'15-6-1945'
p573
sS'_salary'
p574
(lp575
sg21
S'G-F'
p576
sb.