(isrc.gp1.models.Player
Player
p0
(dp1
S'_experience'
p2
S'NA'
p3
sS'_totals'
p4
(lp5
(isrc.gp1.models.Totals
Totals
p6
(dp7
S'_offensiveRebounds'
p8
g3
sS'_threePointsAttempted'
p9
g3
sS'_fieldGoalsPercentage'
p10
S'.405'
p11
sS'_assist'
p12
S'47'
p13
sS'_threePointsPercentage'
p14
g3
sS'_threePoints'
p15
g3
sS'_points'
p16
S'90'
p17
sS'_position'
p18
S'PG'
p19
sS'_freeThrowsPercentage'
p20
S'.564'
p21
sS'_effectiveFieldGoalPercentage'
p22
S'.405'
p23
sS'_league'
p24
S'NBA'
p25
sS'_steals'
p26
g3
sS'_fieldGoalsAttempted'
p27
S'84'
p28
sS'_personalFouls'
p29
S'62'
p30
sS'_freeThrowsAttempted'
p31
S'39'
p32
sS'_totalRebounds'
p33
S'48'
p34
sS'_age'
p35
S'22'
p36
sS'_team'
p37
S'ATL'
p38
sS'_games'
p39
S'38'
p40
sS'_blocks'
p41
g3
sS'_twoPoints'
p42
S'34'
p43
sS'_freeThrows'
p44
S'22'
p45
sS'_twoPointsAttempted'
p46
S'84'
p47
sS'_defensiveRebounds'
p48
g3
sS'_season'
p49
S'1970-71'
p50
sS'_fieldGoals'
p51
S'34'
p52
sS'_turnOvers'
p53
g3
sS'_twoPointsPercentage'
p54
S'.405'
p55
sS'_minutesPlayed'
p56
S'315'
p57
sS'_gamesStarted'
p58
g3
sbasS'_college'
p59
S'University of Georgia'
p60
sS'_toYear'
p61
S'1971'
p62
sS'_height'
p63
S'6-2'
p64
sS'_active'
p65
I00
sS'_shootingHand'
p66
VRight
p67
sS'_name'
p68
S'Herb White'
p69
sS'_per100Possessions'
p70
(lp71
sS'_advanced'
p72
(lp73
(isrc.gp1.models.Advanced
Advanced
p74
(dp75
S'_offensiveReboundPercentage'
p76
g3
sS'_turnOverPercentage'
p77
g3
sS'_winSharesPer48Minutes'
p78
S'.013'
p79
sS'_stealPercentage'
p80
g3
sS'_usagePercentage'
p81
g3
sS'_totalReboundsPercentage'
p82
S'6.9'
p83
sS'_defensiveBoxPlusMinus'
p84
g3
sg18
S'PG'
p85
sS'_valueOverReplacementPlayer'
p86
g3
sS'_trueShootingPercentage'
p87
S'.445'
p88
sS'_defensiveReboundPercentage'
p89
g3
sS'_freeThrowsAttempRate'
p90
S'.464'
p91
sS'_threePointsAttempRate'
p92
g3
sg24
S'NBA'
p93
sS'_offensiveBoxPlusMinues'
p94
g3
sS'_assistPercentage'
p95
S'18.5'
p96
sS'_defensiveWinShares'
p97
S'0.1'
p98
sg35
S'22'
p99
sg37
S'ATL'
p100
sg39
S'38'
p101
sS'_blockPercentage'
p102
g3
sS'_playerEfficiencyRating'
p103
S'8.4'
p104
sS'_offensiveWinShares'
p105
S'-0.1'
p106
sg56
S'315'
p107
sS'_boxPlusMinus'
p108
g3
sg49
S'1970-71'
p109
sS'_winShares'
p110
S'0.1'
p111
sbasS'_per36Minutes'
p112
(lp113
(isrc.gp1.models.Per36Minutes
Per36Minutes
p114
(dp115
g8
g3
sg9
g3
sg10
S'.405'
p116
sg12
S'5.4'
p117
sg14
g3
sg15
g3
sg16
S'10.3'
p118
sg18
S'PG'
p119
sg20
S'.564'
p120
sg24
S'NBA'
p121
sg26
g3
sg27
S'9.6'
p122
sg29
S'7.1'
p123
sg31
S'4.5'
p124
sg33
S'5.5'
p125
sg35
S'22'
p126
sg37
S'ATL'
p127
sg39
S'38'
p128
sg41
g3
sg42
S'3.9'
p129
sg44
S'2.5'
p130
sg46
S'9.6'
p131
sg48
g3
sg49
S'1970-71'
p132
sg51
S'3.9'
p133
sg53
g3
sg54
S'.405'
p134
sg56
S'315'
p135
sg58
g3
sbasS'_fromYear'
p136
S'1971'
p137
sS'_url'
p138
S'http://www.basketball-reference.com/players/w/whitehe01.html'
p139
sS'_perGame'
p140
(isrc.gp1.models.PerGame
PerGame
p141
(dp142
g8
g3
sg9
g3
sg10
S'.405'
p143
sS'_effectiveFieldGalPercentage'
p144
S'.405'
p145
sg12
S'1.2'
p146
sg14
g3
sg15
g3
sg16
S'2.4'
p147
sg18
S'PG'
p148
sg20
S'.564'
p149
sg24
S'NBA'
p150
sg26
g3
sg29
S'1.6'
p151
sS'_fieldGoalsttempted'
p152
S'2.2'
p153
sg31
S'1.0'
p154
sg33
S'1.3'
p155
sg35
S'22'
p156
sg37
S'ATL'
p157
sg39
S'38'
p158
sg41
g3
sg42
S'0.9'
p159
sg44
S'0.6'
p160
sg46
S'2.2'
p161
sg48
g3
sg49
S'1970-71'
p162
sg51
S'0.9'
p163
sg53
g3
sg54
S'.405'
p164
sg56
S'8.3'
p165
sg58
g3
sbsS'_weight'
p166
S'195'
p167
sS'_dob'
p168
S'15-6-1948'
p169
sS'_salary'
p170
(lp171
sg18
S'G'
p172
sb.