(isrc.gp1.models.Player
Player
p0
(dp1
S'_experience'
p2
V1 year
p3
sS'_totals'
p4
(lp5
(isrc.gp1.models.Totals
Totals
p6
(dp7
S'_offensiveRebounds'
p8
S'1'
p9
sS'_threePointsAttempted'
p10
S'19'
p11
sS'_fieldGoalsPercentage'
p12
S'.421'
p13
sS'_assist'
p14
S'8'
p15
sS'_threePointsPercentage'
p16
S'.368'
p17
sS'_threePoints'
p18
S'7'
p19
sS'_points'
p20
S'41'
p21
sS'_position'
p22
S'SG'
p23
sS'_freeThrowsPercentage'
p24
S'1.000'
p25
sS'_effectiveFieldGoalPercentage'
p26
S'.513'
p27
sS'_league'
p28
S'NBA'
p29
sS'_steals'
p30
S'3'
p31
sS'_fieldGoalsAttempted'
p32
S'38'
p33
sS'_personalFouls'
p34
g19
sS'_freeThrowsAttempted'
p35
S'2'
p36
sS'_totalRebounds'
p37
g19
sS'_age'
p38
S'24'
p39
sS'_team'
p40
S'LAC'
p41
sS'_games'
p42
S'21'
p43
sS'_blocks'
p44
g9
sS'_twoPoints'
p45
S'9'
p46
sS'_freeThrows'
p47
g36
sS'_twoPointsAttempted'
p48
S'19'
p49
sS'_defensiveRebounds'
p50
S'6'
p51
sS'_season'
p52
S'2014-15'
p53
sS'_fieldGoals'
p54
S'16'
p55
sS'_turnOvers'
p56
S'10'
p57
sS'_twoPointsPercentage'
p58
S'.474'
p59
sS'_minutesPlayed'
p60
S'101'
p61
sS'_gamesStarted'
p62
S'0'
p63
sba(isrc.gp1.models.Totals
Totals
p64
(dp65
g8
g63
sg10
g9
sg12
S'.250'
p66
sg14
g36
sg16
S'.000'
p67
sg18
g63
sg20
g51
sg22
S'SG'
p68
sg24
S'NA'
p69
sg26
S'.250'
p70
sg28
S'NBA'
p71
sg30
g63
sg32
S'12'
p72
sg34
g9
sg35
g63
sg37
g36
sg38
S'25'
p73
sg40
S'LAC'
p74
sg42
g15
sg44
g63
sg45
g31
sg47
g63
sg48
S'11'
p75
sg50
g36
sg52
S'2015-16'
p76
sg54
g31
sg56
g63
sg58
S'.273'
p77
sg60
S'23'
p78
sg62
g63
sbasS'_college'
p79
S'University of Washington'
p80
sS'_toYear'
p81
S'2016'
p82
sS'_height'
p83
S'6-5'
p84
sS'_active'
p85
I01
sS'_shootingHand'
p86
VRight
p87
sS'_name'
p88
S'C.J. Wilcox'
p89
sS'_per100Possessions'
p90
(lp91
(isrc.gp1.models.Per100Possession
Per100Possession
p92
(dp93
g8
S'0.5'
p94
sg10
S'9.5'
p95
sg12
S'.421'
p96
sS'_offensiveRating'
p97
S'89'
p98
sg14
S'4.0'
p99
sg16
S'.368'
p100
sg18
S'3.5'
p101
sg20
S'20.6'
p102
sg22
S'SG'
p103
sS'_defensiveRating'
p104
S'109'
p105
sg24
S'1.000'
p106
sg28
S'NBA'
p107
sg30
S'1.5'
p108
sg32
S'19.1'
p109
sg34
S'3.5'
p110
sg35
S'1.0'
p111
sg37
S'3.5'
p112
sg38
S'24'
p113
sg40
S'LAC'
p114
sg42
S'21'
p115
sg44
S'0.5'
p116
sg45
S'4.5'
p117
sg47
S'1.0'
p118
sg48
S'9.5'
p119
sg50
S'3.0'
p120
sg52
S'2014-15'
p121
sg54
S'8.0'
p122
sg56
S'5.0'
p123
sg58
S'.474'
p124
sg60
S'101'
p125
sg62
g63
sba(isrc.gp1.models.Per100Possession
Per100Possession
p126
(dp127
g8
S'0.0'
p128
sg10
S'2.2'
p129
sg12
S'.250'
p130
sg97
S'62'
p131
sg14
S'4.3'
p132
sg16
S'.000'
p133
sg18
S'0.0'
p134
sg20
S'13.0'
p135
sg22
S'SG'
p136
sg104
S'111'
p137
sg24
g69
sg28
S'NBA'
p138
sg30
S'0.0'
p139
sg32
S'26.1'
p140
sg34
S'2.2'
p141
sg35
S'0.0'
p142
sg37
S'4.3'
p143
sg38
S'25'
p144
sg40
S'LAC'
p145
sg42
g15
sg44
S'0.0'
p146
sg45
S'6.5'
p147
sg47
S'0.0'
p148
sg48
S'23.9'
p149
sg50
S'4.3'
p150
sg52
S'2015-16'
p151
sg54
S'6.5'
p152
sg56
S'0.0'
p153
sg58
S'.273'
p154
sg60
S'23'
p155
sg62
g63
sbasS'_advanced'
p156
(lp157
(isrc.gp1.models.Advanced
Advanced
p158
(dp159
S'_offensiveReboundPercentage'
p160
S'1.1'
p161
sS'_turnOverPercentage'
p162
S'20.5'
p163
sS'_winSharesPer48Minutes'
p164
S'-0.024'
p165
sS'_stealPercentage'
p166
S'1.5'
p167
sS'_usagePercentage'
p168
S'21.8'
p169
sS'_totalReboundsPercentage'
p170
S'3.9'
p171
sS'_defensiveBoxPlusMinus'
p172
S'-2.7'
p173
sg22
S'SG'
p174
sS'_valueOverReplacementPlayer'
p175
S'-0.1'
p176
sS'_trueShootingPercentage'
p177
S'.527'
p178
sS'_defensiveReboundPercentage'
p179
S'6.5'
p180
sS'_freeThrowsAttempRate'
p181
S'.053'
p182
sS'_threePointsAttempRate'
p183
S'.500'
p184
sg28
S'NBA'
p185
sS'_offensiveBoxPlusMinues'
p186
S'-3.3'
p187
sS'_assistPercentage'
p188
S'12.0'
p189
sS'_defensiveWinShares'
p190
S'0.1'
p191
sg38
S'24'
p192
sg40
S'LAC'
p193
sg42
S'21'
p194
sS'_blockPercentage'
p195
S'0.8'
p196
sS'_playerEfficiencyRating'
p197
S'8.5'
p198
sS'_offensiveWinShares'
p199
S'-0.1'
p200
sg60
S'101'
p201
sS'_boxPlusMinus'
p202
S'-6.0'
p203
sg52
S'2014-15'
p204
sS'_winShares'
p205
S'0.0'
p206
sba(isrc.gp1.models.Advanced
Advanced
p207
(dp208
g160
S'0.0'
p209
sg162
S'0.0'
p210
sg164
S'-0.204'
p211
sg166
S'0.0'
p212
sg168
S'23.5'
p213
sg170
S'4.8'
p214
sg172
S'-4.4'
p215
sg22
S'SG'
p216
sg175
S'-0.1'
p217
sg177
S'.250'
p218
sg179
S'9.5'
p219
sg181
S'.000'
p220
sg183
S'.083'
p221
sg28
S'NBA'
p222
sg186
S'-11.1'
p223
sg188
S'13.2'
p224
sg190
S'0.0'
p225
sg38
S'25'
p226
sg40
S'LAC'
p227
sg42
g15
sg195
S'0.0'
p228
sg197
S'-1.5'
p229
sg199
S'-0.1'
p230
sg60
S'23'
p231
sg202
S'-15.5'
p232
sg52
S'2015-16'
p233
sg205
S'-0.1'
p234
sbasS'_per36Minutes'
p235
(lp236
(isrc.gp1.models.Per36Minutes
Per36Minutes
p237
(dp238
g8
S'0.4'
p239
sg10
S'6.8'
p240
sg12
S'.421'
p241
sg14
S'2.9'
p242
sg16
S'.368'
p243
sg18
S'2.5'
p244
sg20
S'14.6'
p245
sg22
S'SG'
p246
sg24
S'1.000'
p247
sg28
S'NBA'
p248
sg30
S'1.1'
p249
sg32
S'13.5'
p250
sg34
S'2.5'
p251
sg35
S'0.7'
p252
sg37
S'2.5'
p253
sg38
S'24'
p254
sg40
S'LAC'
p255
sg42
S'21'
p256
sg44
S'0.4'
p257
sg45
S'3.2'
p258
sg47
S'0.7'
p259
sg48
S'6.8'
p260
sg50
S'2.1'
p261
sg52
S'2014-15'
p262
sg54
S'5.7'
p263
sg56
S'3.6'
p264
sg58
S'.474'
p265
sg60
S'101'
p266
sg62
g63
sba(isrc.gp1.models.Per36Minutes
Per36Minutes
p267
(dp268
g8
S'0.0'
p269
sg10
S'1.6'
p270
sg12
S'.250'
p271
sg14
S'3.1'
p272
sg16
S'.000'
p273
sg18
S'0.0'
p274
sg20
S'9.4'
p275
sg22
S'SG'
p276
sg24
g69
sg28
S'NBA'
p277
sg30
S'0.0'
p278
sg32
S'18.8'
p279
sg34
S'1.6'
p280
sg35
S'0.0'
p281
sg37
S'3.1'
p282
sg38
S'25'
p283
sg40
S'LAC'
p284
sg42
g15
sg44
S'0.0'
p285
sg45
S'4.7'
p286
sg47
S'0.0'
p287
sg48
S'17.2'
p288
sg50
S'3.1'
p289
sg52
S'2015-16'
p290
sg54
S'4.7'
p291
sg56
S'0.0'
p292
sg58
S'.273'
p293
sg60
S'23'
p294
sg62
g63
sbasS'_fromYear'
p295
S'2015'
p296
sS'_url'
p297
S'http://www.basketball-reference.com/players/w/wilcocj01.html'
p298
sS'_perGame'
p299
(isrc.gp1.models.PerGame
PerGame
p300
(dp301
g8
S'0.0'
p302
sg10
S'0.1'
p303
sg12
S'.250'
p304
sS'_effectiveFieldGalPercentage'
p305
S'.250'
p306
sg14
S'0.3'
p307
sg16
S'.000'
p308
sg18
S'0.0'
p309
sg20
S'0.8'
p310
sg22
S'SG'
p311
sg24
g69
sg28
S'NBA'
p312
sg30
S'0.0'
p313
sg34
S'0.1'
p314
sS'_fieldGoalsttempted'
p315
S'1.5'
p316
sg35
S'0.0'
p317
sg37
S'0.3'
p318
sg38
S'25'
p319
sg40
S'LAC'
p320
sg42
g15
sg44
S'0.0'
p321
sg45
S'0.4'
p322
sg47
S'0.0'
p323
sg48
S'1.4'
p324
sg50
S'0.3'
p325
sg52
S'2015-16'
p326
sg54
S'0.4'
p327
sg56
S'0.0'
p328
sg58
S'.273'
p329
sg60
S'2.9'
p330
sg62
g63
sbsS'_weight'
p331
S'195'
p332
sS'_dob'
p333
S'30-12-1990'
p334
sS'_salary'
p335
(lp336
(isrc.gp1.models.Salary
Salary
p337
(dp338
g40
S'Los Angeles Clippers'
p339
sg28
S'NBA'
p340
sg335
S'$1,109,760'
p341
sg52
S'2014-15'
p342
sbasg22
S'G'
p343
sb.