(isrc.gp1.models.Player
Player
p0
(dp1
S'_experience'
p2
S'NA'
p3
sS'_totals'
p4
(lp5
(isrc.gp1.models.Totals
Totals
p6
(dp7
S'_offensiveRebounds'
p8
g3
sS'_threePointsAttempted'
p9
S'.419'
p10
sS'_fieldGoalsPercentage'
p11
S'18'
p12
sS'_assist'
p13
g3
sS'_threePointsPercentage'
p14
S'.419'
p15
sS'_threePoints'
p16
S'43'
p17
sS'_points'
p18
g3
sS'_position'
p19
S'PG'
p20
sS'_freeThrowsPercentage'
p21
S'45'
p22
sS'_effectiveFieldGoalPercentage'
p23
S'15'
p24
sS'_league'
p25
S'NBA'
p26
sS'_steals'
p27
g3
sS'_fieldGoalsAttempted'
p28
S'.419'
p29
sS'_personalFouls'
p30
g3
sS'_freeThrowsAttempted'
p31
S'21'
p32
sS'_totalRebounds'
p33
g3
sS'_age'
p34
S'23'
p35
sS'_team'
p36
S'BAL'
p37
sS'_games'
p38
S'8'
p39
sS'_blocks'
p40
g3
sS'_twoPoints'
p41
S'9'
p42
sS'_freeThrows'
p43
g42
sS'_twoPointsAttempted'
p44
S'11'
p45
sS'_defensiveRebounds'
p46
g3
sS'_season'
p47
S'1965-66'
p48
sS'_fieldGoals'
p49
S'43'
p50
sS'_turnOvers'
p51
g3
sS'_twoPointsPercentage'
p52
S'.818'
p53
sS'_minutesPlayed'
p54
S'18'
p55
sS'_gamesStarted'
p56
S'98'
p57
sba(isrc.gp1.models.Totals
Totals
p58
(dp59
g8
g3
sg9
g3
sg11
g3
sg13
g3
sg14
g3
sg16
g3
sg18
g3
sg19
g3
sg21
g3
sg23
g3
sg25
g3
sg27
g3
sg28
g3
sg30
g3
sg31
g3
sg33
g3
sg34
S'24'
p60
sg36
S'Did Not Play'
p61
sg38
g3
sg40
g3
sg41
g3
sg43
g3
sg44
g3
sg46
g3
sg47
S'1966-67'
p62
sg49
g3
sg51
g3
sg52
g3
sg54
g3
sg56
g3
sba(isrc.gp1.models.Totals
Totals
p63
(dp64
g8
S'225'
p65
sg9
S'.308'
p66
sg11
S'33'
p67
sg13
S'1326'
p68
sg14
S'434'
p69
sg16
S'107'
p70
sg18
g3
sg19
S'PG'
p71
sg21
S'305'
p72
sg23
S'359'
p73
sg25
S'ABA'
p74
sg27
g3
sg28
S'.448'
p75
sg30
g3
sg31
S'.780'
p76
sg33
S'211'
p77
sg34
S'25'
p78
sg36
S'HSM'
p79
sg38
S'61'
p80
sg40
g3
sg41
S'935'
p81
sg43
S'460'
p82
sg44
S'.464'
p83
sg46
S'164'
p84
sg47
S'1967-68'
p85
sg49
S'1042'
p86
sg51
g3
sg52
S'.464'
p87
sg54
S'467'
p88
sg56
S'2334'
p89
sba(isrc.gp1.models.Totals
Totals
p90
(dp91
g8
S'332'
p92
sg9
S'583'
p93
sg11
S'139'
p94
sg13
S'261'
p95
sg14
S'1371'
p96
sg16
S'.259'
p97
sg18
g3
sg19
S'74'
p98
sg21
S'191'
p99
sg23
S'583'
p100
sg25
S'PG'
p101
sg27
S'1758'
p102
sg28
S'36'
p103
sg30
g3
sg31
S'141'
p104
sg33
S'215'
p105
sg34
S'TOT'
p106
sg36
S'ABA'
p107
sg38
S'3118'
p108
sg40
g3
sg41
S'.425'
p109
sg43
S'.830'
p110
sg44
S'.422'
p111
sg46
S'280'
p112
sg47
S'26'
p113
sg49
S'.410'
p114
sg51
g3
sg52
S'484'
p115
sg54
S'1510'
p116
sg56
S'619'
p117
sba(isrc.gp1.models.Totals
Totals
p118
(dp119
g8
S'197'
p120
sg9
S'320'
p121
sg11
S'75'
p122
sg13
S'158'
p123
sg14
S'778'
p124
sg16
S'.227'
p125
sg18
g3
sg19
S'43'
p126
sg21
S'118'
p127
sg23
S'383'
p128
sg25
S'PG'
p129
sg27
S'1011'
p130
sg28
S'17'
p131
sg30
g3
sg31
S'79'
p132
sg33
S'123'
p133
sg34
S'HSM'
p134
sg36
S'ABA'
p135
sg38
S'1793'
p136
sg40
g3
sg41
S'.411'
p137
sg43
S'.836'
p138
sg44
S'.405'
p139
sg46
S'174'
p140
sg47
S'26'
p141
sg49
S'.395'
p142
sg51
g3
sg52
S'320'
p143
sg54
S'853'
p144
sg56
S'337'
p145
sba(isrc.gp1.models.Totals
Totals
p146
(dp147
g8
S'135'
p148
sg9
S'263'
p149
sg11
S'64'
p150
sg13
S'103'
p151
sg14
S'593'
p152
sg16
S'.297'
p153
sg18
g3
sg19
S'31'
p154
sg21
S'73'
p155
sg23
S'200'
p156
sg25
S'PG'
p157
sg27
S'747'
p158
sg28
S'19'
p159
sg30
g3
sg31
S'62'
p160
sg33
S'92'
p161
sg34
S'NYA'
p162
sg36
S'ABA'
p163
sg38
S'1325'
p164
sg40
g3
sg41
S'.444'
p165
sg43
S'.820'
p166
sg44
S'.444'
p167
sg46
S'106'
p168
sg47
S'26'
p169
sg49
S'.429'
p170
sg51
g3
sg52
S'164'
p171
sg54
S'657'
p172
sg56
S'282'
p173
sbasS'_college'
p174
S'Duquesne University'
p175
sS'_toYear'
p176
S'1969'
p177
sS'_height'
p178
S'5-8'
p179
sS'_active'
p180
I00
sS'_shootingHand'
p181
VRight
p182
sS'_name'
p183
S'Willie Somerset'
p184
sS'_per100Possessions'
p185
(lp186
sS'_advanced'
p187
(lp188
(isrc.gp1.models.Advanced
Advanced
p189
(dp190
S'_offensiveReboundPercentage'
p191
S'0.1'
p192
sS'_turnOverPercentage'
p193
g3
sS'_winSharesPer48Minutes'
p194
g3
sS'_stealPercentage'
p195
g3
sS'_usagePercentage'
p196
g3
sS'_totalReboundsPercentage'
p197
S'0.1'
p198
sS'_defensiveBoxPlusMinus'
p199
g3
sg19
S'PG'
p200
sS'_valueOverReplacementPlayer'
p201
g3
sS'_trueShootingPercentage'
p202
S'.470'
p203
sS'_defensiveReboundPercentage'
p204
S'0.1'
p205
sS'_freeThrowsAttempRate'
p206
S'12.2'
p207
sS'_threePointsAttempRate'
p208
S'.256'
p209
sg25
S'NBA'
p210
sS'_offensiveBoxPlusMinues'
p211
g3
sS'_assistPercentage'
p212
S'.056'
p213
sS'_defensiveWinShares'
p214
g3
sg34
S'23'
p215
sg36
S'BAL'
p216
sg38
g39
sS'_blockPercentage'
p217
g3
sS'_playerEfficiencyRating'
p218
S'10.2'
p219
sS'_offensiveWinShares'
p220
g3
sg54
S'98'
p221
sS'_boxPlusMinus'
p222
g3
sg47
S'1965-66'
p223
sS'_winShares'
p224
g3
sba(isrc.gp1.models.Advanced
Advanced
p225
(dp226
g191
S'5.7'
p227
sg193
S'9.4'
p228
sg194
g3
sg195
S'6.6'
p229
sg196
S'.193'
p230
sg197
S'11.6'
p231
sg199
g3
sg19
S'PG'
p232
sg201
g3
sg202
S'.533'
p233
sg204
S'15.5'
p234
sg206
S'.441'
p235
sg208
S'.103'
p236
sg25
S'ABA'
p237
sg211
g3
sg212
S'22.9'
p238
sg214
g3
sg34
S'25'
p239
sg36
S'HSM'
p240
sg38
S'61'
p241
sg217
S'2.8'
p242
sg218
S'20.5'
p243
sg220
g3
sg54
S'2334'
p244
sg222
g3
sg47
S'1967-68'
p245
sg224
g3
sba(isrc.gp1.models.Advanced
Advanced
p246
(dp247
g191
S'14.0'
p248
sg193
S'.081'
p249
sg194
g3
sg195
S'2.0'
p250
sg196
g3
sg197
S'23.0'
p251
sg199
g3
sg19
S'74'
p252
sg201
g3
sg202
S'.092'
p253
sg204
S'10.9'
p254
sg206
S'4.6'
p255
sg208
S'.386'
p256
sg25
S'PG'
p257
sg211
g3
sg212
S'3.3'
p258
sg214
g3
sg34
S'TOT'
p259
sg36
S'ABA'
p260
sg38
S'3118'
p261
sg217
S'5.3'
p262
sg218
S'.498'
p263
sg220
g3
sg54
S'16.3'
p264
sg222
g3
sg47
S'26'
p265
sg224
g3
sba(isrc.gp1.models.Advanced
Advanced
p266
(dp267
g191
S'14.8'
p268
sg193
S'.085'
p269
sg194
g3
sg195
S'1.4'
p270
sg196
g3
sg197
S'23.0'
p271
sg199
g3
sg19
S'43'
p272
sg201
g3
sg202
S'.088'
p273
sg204
S'10.7'
p274
sg206
S'4.7'
p275
sg208
S'.449'
p276
sg25
S'PG'
p277
sg211
g3
sg212
S'1.8'
p278
sg214
g3
sg34
S'HSM'
p279
sg36
S'ABA'
p280
sg38
S'1793'
p281
sg217
S'3.2'
p282
sg218
S'.495'
p283
sg220
g3
sg54
S'16.5'
p284
sg222
g3
sg47
S'26'
p285
sg224
g3
sba(isrc.gp1.models.Advanced
Advanced
p286
(dp287
g191
S'12.9'
p288
sg193
S'.076'
p289
sg194
g3
sg195
S'0.6'
p290
sg196
g3
sg197
S'23.1'
p291
sg199
g3
sg19
S'31'
p292
sg201
g3
sg202
S'.097'
p293
sg204
S'11.0'
p294
sg206
S'4.6'
p295
sg208
S'.304'
p296
sg25
S'PG'
p297
sg211
g3
sg212
S'1.5'
p298
sg214
g3
sg34
S'NYA'
p299
sg36
S'ABA'
p300
sg38
S'1325'
p301
sg217
S'2.1'
p302
sg218
S'.501'
p303
sg220
g3
sg54
S'16.2'
p304
sg222
g3
sg47
S'26'
p305
sg224
g3
sbasS'_per36Minutes'
p306
(lp307
(isrc.gp1.models.Per36Minutes
Per36Minutes
p308
(dp309
g8
g3
sg9
S'.419'
p310
sg11
S'6.6'
p311
sg13
g3
sg14
S'3.3'
p312
sg16
S'15.8'
p313
sg18
g3
sg19
S'PG'
p314
sg21
S'16.5'
p315
sg25
S'NBA'
p316
sg27
g3
sg28
S'.419'
p317
sg30
g3
sg31
S'7.7'
p318
sg33
g3
sg34
S'23'
p319
sg36
S'BAL'
p320
sg38
g39
sg40
g3
sg41
S'4.0'
p321
sg43
S'3.3'
p322
sg44
S'.818'
p323
sg46
g3
sg47
S'1965-66'
p324
sg49
S'15.8'
p325
sg51
g3
sg52
S'5.5'
p326
sg54
S'6.6'
p327
sg56
S'98'
p328
sba(isrc.gp1.models.Per36Minutes
Per36Minutes
p329
(dp330
g8
S'3.5'
p331
sg9
S'.308'
p332
sg11
S'0.5'
p333
sg13
S'20.5'
p334
sg14
S'6.7'
p335
sg16
S'1.7'
p336
sg18
g3
sg19
S'PG'
p337
sg21
S'4.7'
p338
sg25
S'ABA'
p339
sg27
g3
sg28
S'.448'
p340
sg30
g3
sg31
S'.780'
p341
sg33
S'3.3'
p342
sg34
S'25'
p343
sg36
S'HSM'
p344
sg38
S'61'
p345
sg40
g3
sg41
S'14.4'
p346
sg43
S'7.1'
p347
sg44
S'.464'
p348
sg46
S'2.5'
p349
sg47
S'1967-68'
p350
sg49
S'16.1'
p351
sg51
g3
sg52
S'5.5'
p352
sg54
S'7.2'
p353
sg56
S'2334'
p354
sba(isrc.gp1.models.Per36Minutes
Per36Minutes
p355
(dp356
g8
S'3.8'
p357
sg9
S'6.7'
p358
sg11
S'1.6'
p359
sg13
S'3.0'
p360
sg14
S'15.8'
p361
sg16
S'.259'
p362
sg18
g3
sg19
S'74'
p363
sg21
S'2.2'
p364
sg25
S'PG'
p365
sg27
S'20.3'
p366
sg28
S'0.4'
p367
sg30
g3
sg31
S'1.6'
p368
sg33
S'2.5'
p369
sg34
S'TOT'
p370
sg36
S'ABA'
p371
sg38
S'3118'
p372
sg40
g3
sg41
S'.425'
p373
sg43
S'.830'
p374
sg44
S'5.6'
p375
sg46
S'3.2'
p376
sg47
S'26'
p377
sg49
S'.410'
p378
sg51
g3
sg52
S'6.7'
p379
sg54
S'17.4'
p380
sg56
S'7.1'
p381
sba(isrc.gp1.models.Per36Minutes
Per36Minutes
p382
(dp383
g8
S'4.0'
p384
sg9
S'6.4'
p385
sg11
S'1.5'
p386
sg13
S'3.2'
p387
sg14
S'15.6'
p388
sg16
S'.227'
p389
sg18
g3
sg19
S'43'
p390
sg21
S'2.4'
p391
sg25
S'PG'
p392
sg27
S'20.3'
p393
sg28
S'0.3'
p394
sg30
g3
sg31
S'1.6'
p395
sg33
S'2.5'
p396
sg34
S'HSM'
p397
sg36
S'ABA'
p398
sg38
S'1793'
p399
sg40
g3
sg41
S'.411'
p400
sg43
S'.836'
p401
sg44
S'6.4'
p402
sg46
S'3.5'
p403
sg47
S'26'
p404
sg49
S'.395'
p405
sg51
g3
sg52
S'7.7'
p406
sg54
S'17.1'
p407
sg56
S'6.8'
p408
sba(isrc.gp1.models.Per36Minutes
Per36Minutes
p409
(dp410
g8
S'3.7'
p411
sg9
S'7.1'
p412
sg11
S'1.7'
p413
sg13
S'2.8'
p414
sg14
S'16.1'
p415
sg16
S'.297'
p416
sg18
g3
sg19
S'31'
p417
sg21
S'2.0'
p418
sg25
S'PG'
p419
sg27
S'20.3'
p420
sg28
S'0.5'
p421
sg30
g3
sg31
S'1.7'
p422
sg33
S'2.5'
p423
sg34
S'NYA'
p424
sg36
S'ABA'
p425
sg38
S'1325'
p426
sg40
g3
sg41
S'.444'
p427
sg43
S'.820'
p428
sg44
S'4.5'
p429
sg46
S'2.9'
p430
sg47
S'26'
p431
sg49
S'.429'
p432
sg51
g3
sg52
S'5.4'
p433
sg54
S'17.9'
p434
sg56
S'7.7'
p435
sbasS'_fromYear'
p436
S'1966'
p437
sS'_url'
p438
S'http://www.basketball-reference.com/players/s/somerwi01.html'
p439
sS'_perGame'
p440
(isrc.gp1.models.PerGame
PerGame
p441
(dp442
g8
S'4.4'
p443
sg9
S'8.5'
p444
sg11
S'2.1'
p445
sS'_effectiveFieldGalPercentage'
p446
S'6.5'
p447
sg13
S'3.3'
p448
sg14
S'19.1'
p449
sg16
S'.297'
p450
sg18
g3
sg19
S'31'
p451
sg21
S'2.4'
p452
sg25
S'PG'
p453
sg27
S'24.1'
p454
sg30
g3
sS'_fieldGoalsttempted'
p455
S'0.6'
p456
sg31
S'2.0'
p457
sg33
S'3.0'
p458
sg34
S'NYA'
p459
sg36
S'ABA'
p460
sg38
S'42.7'
p461
sg40
g3
sg41
S'.444'
p462
sg43
S'.820'
p463
sg44
S'.444'
p464
sg46
S'3.4'
p465
sg47
S'26'
p466
sg49
S'.429'
p467
sg51
g3
sg52
S'5.3'
p468
sg54
S'21.2'
p469
sg56
S'9.1'
p470
sbsS'_weight'
p471
S'170'
p472
sS'_dob'
p473
S'17-3-1942'
p474
sS'_salary'
p475
(lp476
sg19
S'G'
p477
sb.