(isrc.gp1.models.Player
Player
p0
(dp1
S'_experience'
p2
S'NA'
p3
sS'_totals'
p4
(lp5
(isrc.gp1.models.Totals
Totals
p6
(dp7
S'_offensiveRebounds'
p8
S'29'
p9
sS'_threePointsAttempted'
p10
S'.333'
p11
sS'_fieldGoalsPercentage'
p12
S'10'
p13
sS'_assist'
p14
S'32'
p15
sS'_threePointsPercentage'
p16
S'26'
p17
sS'_threePoints'
p18
S'30'
p19
sS'_points'
p20
g3
sS'_position'
p21
S'PG'
p22
sS'_freeThrowsPercentage'
p23
S'6'
p24
sS'_effectiveFieldGoalPercentage'
p25
S'63'
p26
sS'_league'
p27
S'ABA'
p28
sS'_steals'
p29
S'48'
p30
sS'_fieldGoalsAttempted'
p31
S'.293'
p32
sS'_personalFouls'
p33
g3
sS'_freeThrowsAttempted'
p34
S'.750'
p35
sS'_totalRebounds'
p36
S'39'
p37
sS'_age'
p38
S'23'
p39
sS'_team'
p40
S'NYA'
p41
sS'_games'
p42
S'24'
p43
sS'_blocks'
p44
S'145'
p45
sS'_twoPoints'
p46
S'93'
p47
sS'_freeThrows'
p48
S'84'
p49
sS'_twoPointsAttempted'
p50
S'.280'
p51
sS'_defensiveRebounds'
p52
S'35'
p53
sS'_season'
p54
S'1968-69'
p55
sS'_fieldGoals'
p56
S'123'
p57
sS'_turnOvers'
p58
g3
sS'_twoPointsPercentage'
p59
S'.333'
p60
sS'_minutesPlayed'
p61
S'36'
p62
sS'_gamesStarted'
p63
S'460'
p64
sbasS'_college'
p65
S'University of Texas at El Paso'
p66
sS'_toYear'
p67
S'1969'
p68
sS'_height'
p69
S'5-9'
p70
sS'_active'
p71
I00
sS'_shootingHand'
p72
VRight
p73
sS'_name'
p74
S'Willie Worsley'
p75
sS'_per100Possessions'
p76
(lp77
sS'_advanced'
p78
(lp79
(isrc.gp1.models.Advanced
Advanced
p80
(dp81
S'_offensiveReboundPercentage'
p82
S'3.4'
p83
sS'_turnOverPercentage'
p84
S'0.1'
p85
sS'_winSharesPer48Minutes'
p86
g3
sS'_stealPercentage'
p87
S'0.0'
p88
sS'_usagePercentage'
p89
S'.014'
p90
sS'_totalReboundsPercentage'
p91
S'16.7'
p92
sS'_defensiveBoxPlusMinus'
p93
g3
sg21
S'PG'
p94
sS'_valueOverReplacementPlayer'
p95
g3
sS'_trueShootingPercentage'
p96
S'.453'
p97
sS'_defensiveReboundPercentage'
p98
S'11.2'
p99
sS'_freeThrowsAttempRate'
p100
S'.683'
p101
sS'_threePointsAttempRate'
p102
S'.244'
p103
sg27
S'ABA'
p104
sS'_offensiveBoxPlusMinues'
p105
g3
sS'_assistPercentage'
p106
S'15.2'
p107
sS'_defensiveWinShares'
p108
g3
sg38
S'23'
p109
sg40
S'NYA'
p110
sg42
S'24'
p111
sS'_blockPercentage'
p112
S'0.2'
p113
sS'_playerEfficiencyRating'
p114
S'6.4'
p115
sS'_offensiveWinShares'
p116
g3
sg61
S'460'
p117
sS'_boxPlusMinus'
p118
g3
sg54
S'1968-69'
p119
sS'_winShares'
p120
g3
sbasS'_per36Minutes'
p121
(lp122
(isrc.gp1.models.Per36Minutes
Per36Minutes
p123
(dp124
g8
S'2.3'
p125
sg10
S'.333'
p126
sg12
S'0.8'
p127
sg14
S'2.5'
p128
sg16
S'2.0'
p129
sg18
S'2.3'
p130
sg20
g3
sg21
S'PG'
p131
sg23
S'0.5'
p132
sg27
S'ABA'
p133
sg29
S'3.8'
p134
sg31
S'.293'
p135
sg33
g3
sg34
S'.750'
p136
sg36
S'3.1'
p137
sg38
S'23'
p138
sg40
S'NYA'
p139
sg42
S'24'
p140
sg44
S'11.3'
p141
sg46
S'7.3'
p142
sg48
S'6.6'
p143
sg50
S'.280'
p144
sg52
S'2.7'
p145
sg54
S'1968-69'
p146
sg56
S'9.6'
p147
sg58
g3
sg59
S'4.9'
p148
sg61
S'2.8'
p149
sg63
S'460'
p150
sbasS'_fromYear'
p151
S'1969'
p152
sS'_url'
p153
S'http://www.basketball-reference.com/players/w/worslwi01.html'
p154
sS'_perGame'
p155
(isrc.gp1.models.PerGame
PerGame
p156
(dp157
g8
S'1.2'
p158
sg10
S'.333'
p159
sg12
S'0.4'
p160
sS'_effectiveFieldGalPercentage'
p161
S'2.6'
p162
sg14
S'1.3'
p163
sg16
S'1.1'
p164
sg18
S'1.3'
p165
sg20
g3
sg21
S'PG'
p166
sg23
S'0.3'
p167
sg27
S'ABA'
p168
sg29
S'2.0'
p169
sg33
g3
sS'_fieldGoalsttempted'
p170
S'.293'
p171
sg34
S'.750'
p172
sg36
S'1.6'
p173
sg38
S'23'
p174
sg40
S'NYA'
p175
sg42
S'24'
p176
sg44
S'6.0'
p177
sg46
S'3.9'
p178
sg48
S'3.5'
p179
sg50
S'.280'
p180
sg52
S'1.5'
p181
sg54
S'1968-69'
p182
sg56
S'5.1'
p183
sg58
g3
sg59
S'.333'
p184
sg61
S'1.5'
p185
sg63
S'19.2'
p186
sbsS'_weight'
p187
S'175'
p188
sS'_dob'
p189
S'13-11-1945'
p190
sS'_salary'
p191
(lp192
sg21
S'G'
p193
sb.