(isrc.gp1.models.Player
Player
p0
(dp1
S'_experience'
p2
S'NA'
p3
sS'_totals'
p4
(lp5
(isrc.gp1.models.Totals
Totals
p6
(dp7
S'_offensiveRebounds'
p8
g3
sS'_threePointsAttempted'
p9
S'.378'
p10
sS'_fieldGoalsPercentage'
p11
S'132'
p12
sS'_assist'
p13
g3
sS'_threePointsPercentage'
p14
S'.378'
p15
sS'_threePoints'
p16
S'349'
p17
sS'_points'
p18
g3
sS'_position'
p19
S'SG'
p20
sS'_freeThrowsPercentage'
p21
S'307'
p22
sS'_effectiveFieldGoalPercentage'
p23
S'83'
p24
sS'_league'
p25
S'NBA'
p26
sS'_steals'
p27
g3
sS'_fieldGoalsAttempted'
p28
S'.378'
p29
sS'_personalFouls'
p30
g3
sS'_freeThrowsAttempted'
p31
S'71'
p32
sS'_totalRebounds'
p33
g3
sS'_age'
p34
S'23'
p35
sS'_team'
p36
S'LAL'
p37
sS'_games'
p38
S'40'
p39
sS'_blocks'
p40
g3
sS'_twoPoints'
p41
S'43'
p42
sS'_freeThrows'
p43
S'93'
p44
sS'_twoPointsAttempted'
p45
S'60'
p46
sS'_defensiveRebounds'
p47
g3
sS'_season'
p48
S'1969-70'
p49
sS'_fieldGoals'
p50
S'349'
p51
sS'_turnOvers'
p52
g3
sS'_twoPointsPercentage'
p53
S'.717'
p54
sS'_minutesPlayed'
p55
S'132'
p56
sS'_gamesStarted'
p57
S'861'
p58
sba(isrc.gp1.models.Totals
Totals
p59
(dp60
g8
g3
sg9
S'.417'
p61
sg11
S'247'
p62
sg13
g3
sg14
S'.417'
p63
sg16
S'592'
p64
sg18
g3
sg19
S'SG'
p65
sg21
S'540'
p66
sg23
S'122'
p67
sg25
S'NBA'
p68
sg27
g3
sg28
S'.417'
p69
sg30
g3
sg31
S'152'
p70
sg33
g3
sg34
S'24'
p71
sg36
S'LAL'
p72
sg38
S'76'
p73
sg40
g3
sg41
S'46'
p74
sg43
S'126'
p75
sg45
S'77'
p76
sg47
g3
sg48
S'1970-71'
p77
sg50
S'592'
p78
sg52
g3
sg53
S'.597'
p79
sg55
S'247'
p80
sg57
S'1369'
p81
sba(isrc.gp1.models.Totals
Totals
p82
(dp83
g8
g3
sg9
S'.401'
p84
sg11
S'103'
p85
sg13
g3
sg14
S'.401'
p86
sg16
S'257'
p87
sg18
g3
sg19
S'SG'
p88
sg21
S'243'
p89
sg23
S'43'
p90
sg25
S'NBA'
p91
sg27
g3
sg28
S'.401'
p92
sg30
g3
sg31
S'58'
p93
sg33
g3
sg34
S'25'
p94
sg36
S'POR'
p95
sg38
S'39'
p96
sg40
g3
sg41
S'37'
p97
sg43
S'85'
p98
sg45
S'55'
p99
sg47
g3
sg48
S'1971-72'
p100
sg50
S'257'
p101
sg52
g3
sg53
S'.673'
p102
sg55
S'103'
p103
sg57
S'612'
p104
sbasS'_college'
p105
S'Drake University'
p106
sS'_toYear'
p107
S'1972'
p108
sS'_height'
p109
S'6-3'
p110
sS'_active'
p111
I00
sS'_shootingHand'
p112
VRight
p113
sS'_name'
p114
S'Willie McCarter'
p115
sS'_per100Possessions'
p116
(lp117
sS'_advanced'
p118
(lp119
(isrc.gp1.models.Advanced
Advanced
p120
(dp121
S'_offensiveReboundPercentage'
p122
S'-1.3'
p123
sS'_turnOverPercentage'
p124
g3
sS'_winSharesPer48Minutes'
p125
g3
sS'_stealPercentage'
p126
g3
sS'_usagePercentage'
p127
g3
sS'_totalReboundsPercentage'
p128
S'-0.5'
p129
sS'_defensiveBoxPlusMinus'
p130
g3
sg19
S'SG'
p131
sS'_valueOverReplacementPlayer'
p132
g3
sS'_trueShootingPercentage'
p133
S'.409'
p134
sS'_defensiveReboundPercentage'
p135
S'0.8'
p136
sS'_freeThrowsAttempRate'
p137
S'14.0'
p138
sS'_threePointsAttempRate'
p139
S'.172'
p140
sg25
S'NBA'
p141
sS'_offensiveBoxPlusMinues'
p142
g3
sS'_assistPercentage'
p143
S'-0.025'
p144
sS'_defensiveWinShares'
p145
g3
sg34
S'23'
p146
sg36
S'LAL'
p147
sg38
S'40'
p148
sS'_blockPercentage'
p149
g3
sS'_playerEfficiencyRating'
p150
S'8.4'
p151
sS'_offensiveWinShares'
p152
g3
sg55
S'861'
p153
sS'_boxPlusMinus'
p154
g3
sg48
S'1969-70'
p155
sS'_winShares'
p156
g3
sba(isrc.gp1.models.Advanced
Advanced
p157
(dp158
g122
S'12.0'
p159
sg124
g3
sg125
g3
sg126
S'-0.008'
p160
sg127
g3
sg128
S'0.8'
p161
sg130
g3
sg19
S'SG'
p162
sg132
g3
sg133
S'.431'
p163
sg135
S'-1.0'
p164
sg137
S'4.0'
p165
sg139
S'.130'
p166
sg25
S'NBA'
p167
sg142
g3
sg143
S'-0.2'
p168
sg145
g3
sg34
S'24'
p169
sg36
S'LAL'
p170
sg38
S'76'
p171
sg149
g3
sg150
S'8.5'
p172
sg152
g3
sg55
S'1369'
p173
sg154
g3
sg48
S'1970-71'
p174
sg156
g3
sba(isrc.gp1.models.Advanced
Advanced
p175
(dp176
g122
S'19.7'
p177
sg124
g3
sg125
g3
sg126
S'-0.028'
p178
sg127
g3
sg128
S'0.1'
p179
sg130
g3
sg19
S'SG'
p180
sg132
g3
sg133
S'.432'
p181
sg135
S'-0.5'
p182
sg137
S'3.3'
p183
sg139
S'.214'
p184
sg25
S'NBA'
p185
sg142
g3
sg143
S'-0.4'
p186
sg145
g3
sg34
S'25'
p187
sg36
S'POR'
p188
sg38
S'39'
p189
sg149
g3
sg150
S'9.9'
p190
sg152
g3
sg55
S'612'
p191
sg154
g3
sg48
S'1971-72'
p192
sg156
g3
sbasS'_per36Minutes'
p193
(lp194
(isrc.gp1.models.Per36Minutes
Per36Minutes
p195
(dp196
g8
g3
sg9
S'.378'
p197
sg11
S'5.5'
p198
sg13
g3
sg14
S'1.8'
p199
sg16
S'14.6'
p200
sg18
g3
sg19
S'SG'
p201
sg21
S'12.8'
p202
sg25
S'NBA'
p203
sg27
g3
sg28
S'.378'
p204
sg30
g3
sg31
S'3.0'
p205
sg33
g3
sg34
S'23'
p206
sg36
S'LAL'
p207
sg38
S'40'
p208
sg40
g3
sg41
S'2.5'
p209
sg43
S'3.9'
p210
sg45
S'.717'
p211
sg47
g3
sg48
S'1969-70'
p212
sg50
S'14.6'
p213
sg52
g3
sg53
S'3.5'
p214
sg55
S'5.5'
p215
sg57
S'861'
p216
sba(isrc.gp1.models.Per36Minutes
Per36Minutes
p217
(dp218
g8
g3
sg9
S'.417'
p219
sg11
S'6.5'
p220
sg13
g3
sg14
S'1.2'
p221
sg16
S'15.6'
p222
sg18
g3
sg19
S'SG'
p223
sg21
S'14.2'
p224
sg25
S'NBA'
p225
sg27
g3
sg28
S'.417'
p226
sg30
g3
sg31
S'4.0'
p227
sg33
g3
sg34
S'24'
p228
sg36
S'LAL'
p229
sg38
S'76'
p230
sg40
g3
sg41
S'2.0'
p231
sg43
S'3.3'
p232
sg45
S'.597'
p233
sg47
g3
sg48
S'1970-71'
p234
sg50
S'15.6'
p235
sg52
g3
sg53
S'3.2'
p236
sg55
S'6.5'
p237
sg57
S'1369'
p238
sba(isrc.gp1.models.Per36Minutes
Per36Minutes
p239
(dp240
g8
g3
sg9
S'.401'
p241
sg11
S'6.1'
p242
sg13
g3
sg14
S'2.2'
p243
sg16
S'15.1'
p244
sg18
g3
sg19
S'SG'
p245
sg21
S'14.3'
p246
sg25
S'NBA'
p247
sg27
g3
sg28
S'.401'
p248
sg30
g3
sg31
S'3.4'
p249
sg33
g3
sg34
S'25'
p250
sg36
S'POR'
p251
sg38
S'39'
p252
sg40
g3
sg41
S'3.2'
p253
sg43
S'5.0'
p254
sg45
S'.673'
p255
sg47
g3
sg48
S'1971-72'
p256
sg50
S'15.1'
p257
sg52
g3
sg53
S'2.5'
p258
sg55
S'6.1'
p259
sg57
S'612'
p260
sbasS'_fromYear'
p261
S'1970'
p262
sS'_url'
p263
S'http://www.basketball-reference.com/players/m/mccarwi01.html'
p264
sS'_perGame'
p265
(isrc.gp1.models.PerGame
PerGame
p266
(dp267
g8
g3
sg9
S'.401'
p268
sg11
S'2.6'
p269
sS'_effectiveFieldGalPercentage'
p270
S'1.1'
p271
sg13
g3
sg14
S'.401'
p272
sg16
S'6.6'
p273
sg18
g3
sg19
S'SG'
p274
sg21
S'6.2'
p275
sg25
S'NBA'
p276
sg27
g3
sg30
g3
sS'_fieldGoalsttempted'
p277
S'.401'
p278
sg31
S'1.5'
p279
sg33
g3
sg34
S'25'
p280
sg36
S'POR'
p281
sg38
S'39'
p282
sg40
g3
sg41
S'0.9'
p283
sg43
S'2.2'
p284
sg45
S'1.4'
p285
sg47
g3
sg48
S'1971-72'
p286
sg50
S'6.6'
p287
sg52
g3
sg53
S'.673'
p288
sg55
S'2.6'
p289
sg57
S'15.7'
p290
sbsS'_weight'
p291
S'175'
p292
sS'_dob'
p293
S'26-7-1946'
p294
sS'_salary'
p295
(lp296
sg19
S'G'
p297
sb.