(isrc.gp1.models.Player
Player
p0
(dp1
S'_experience'
p2
V10
p3
sS'_totals'
p4
(lp5
(isrc.gp1.models.Totals
Totals
p6
(dp7
S'_offensiveRebounds'
p8
S'3'
p9
sS'_threePointsAttempted'
p10
S'9'
p11
sS'_fieldGoalsPercentage'
p12
S'.442'
p13
sS'_assist'
p14
S'10'
p15
sS'_threePointsPercentage'
p16
S'.222'
p17
sS'_threePoints'
p18
S'2'
p19
sS'_points'
p20
S'56'
p21
sS'_position'
p22
S'PG'
p23
sS'_freeThrowsPercentage'
p24
S'.615'
p25
sS'_effectiveFieldGoalPercentage'
p26
S'.462'
p27
sS'_league'
p28
S'NBA'
p29
sS'_steals'
p30
S'5'
p31
sS'_fieldGoalsAttempted'
p32
S'52'
p33
sS'_personalFouls'
p34
S'13'
p35
sS'_freeThrowsAttempted'
p36
S'13'
p37
sS'_totalRebounds'
p38
S'19'
p39
sS'_age'
p40
S'19'
p41
sS'_team'
p42
S'PHI'
p43
sS'_games'
p44
S'30'
p45
sS'_blocks'
p46
S'0'
p47
sS'_twoPoints'
p48
S'21'
p49
sS'_freeThrows'
p50
S'8'
p51
sS'_twoPointsAttempted'
p52
S'43'
p53
sS'_defensiveRebounds'
p54
S'16'
p55
sS'_season'
p56
S'2005-06'
p57
sS'_fieldGoals'
p58
S'23'
p59
sS'_turnOvers'
p60
S'13'
p61
sS'_twoPointsPercentage'
p62
S'.488'
p63
sS'_minutesPlayed'
p64
S'145'
p65
sS'_gamesStarted'
p66
g47
sba(isrc.gp1.models.Totals
Totals
p67
(dp68
g8
S'17'
p69
sg10
S'37'
p70
sg12
S'.441'
p71
sg14
S'110'
p72
sg16
S'.324'
p73
sg18
S'12'
p74
sg20
S'262'
p75
sg22
S'PG'
p76
sg24
S'.696'
p77
sg26
S'.469'
p78
sg28
S'NBA'
p79
sg30
S'22'
p80
sg32
S'211'
p81
sg34
S'42'
p82
sg36
S'92'
p83
sg38
S'70'
p84
sg40
S'20'
p85
sg42
S'PHI'
p86
sg44
S'61'
p87
sg46
S'1'
p88
sg48
S'81'
p89
sg50
S'64'
p90
sg52
S'174'
p91
sg54
S'53'
p92
sg56
S'2006-07'
p93
sg58
S'93'
p94
sg60
S'46'
p95
sg62
S'.466'
p96
sg64
S'688'
p97
sg66
g47
sba(isrc.gp1.models.Totals
Totals
p98
(dp99
g8
S'41'
p100
sg10
S'153'
p101
sg12
S'.424'
p102
sg14
S'253'
p103
sg16
S'.359'
p104
sg18
S'55'
p105
sg20
S'920'
p106
sg22
S'PG'
p107
sg24
S'.783'
p108
sg26
S'.461'
p109
sg28
S'NBA'
p110
sg30
S'81'
p111
sg32
S'752'
p112
sg34
S'130'
p113
sg36
S'290'
p114
sg38
S'167'
p115
sg40
S'21'
p116
sg42
S'PHI'
p117
sg44
S'80'
p118
sg46
S'13'
p119
sg48
S'264'
p120
sg50
S'227'
p121
sg52
S'599'
p122
sg54
S'126'
p123
sg56
S'2007-08'
p124
sg58
S'319'
p125
sg60
S'125'
p126
sg62
S'.441'
p127
sg64
S'1862'
p128
sg66
g47
sba(isrc.gp1.models.Totals
Totals
p129
(dp130
g8
S'36'
p131
sg10
S'220'
p132
sg12
S'.398'
p133
sg14
S'242'
p134
sg16
S'.286'
p135
sg18
S'63'
p136
sg20
S'1039'
p137
sg22
S'SG'
p138
sg24
S'.790'
p139
sg26
S'.435'
p140
sg28
S'NBA'
p141
sg30
S'85'
p142
sg32
S'844'
p143
sg34
S'128'
p144
sg36
S'385'
p145
sg38
S'165'
p146
sg40
S'22'
p147
sg42
S'PHI'
p148
sg44
S'81'
p149
sg46
S'14'
p150
sg48
S'273'
p151
sg50
S'304'
p152
sg52
S'624'
p153
sg54
S'129'
p154
sg56
S'2008-09'
p155
sg58
S'336'
p156
sg60
S'151'
p157
sg62
S'.438'
p158
sg64
S'1919'
p159
sg66
g47
sba(isrc.gp1.models.Totals
Totals
p160
(dp161
g8
S'25'
p162
sg10
S'206'
p163
sg12
S'.470'
p164
sg14
S'268'
p165
sg16
S'.340'
p166
sg18
S'70'
p167
sg20
S'898'
p168
sg22
S'PG'
p169
sg24
S'.824'
p170
sg26
S'.521'
p171
sg28
S'NBA'
p172
sg30
S'80'
p173
sg32
S'677'
p174
sg34
S'110'
p175
sg36
S'233'
p176
sg38
S'187'
p177
sg40
S'23'
p178
sg42
S'PHI'
p179
sg44
S'64'
p180
sg46
S'15'
p181
sg48
S'248'
p182
sg50
S'192'
p183
sg52
S'471'
p184
sg54
S'162'
p185
sg56
S'2009-10'
p186
sg58
S'318'
p187
sg60
S'106'
p188
sg62
S'.527'
p189
sg64
S'1912'
p190
sg66
S'38'
p191
sba(isrc.gp1.models.Totals
Totals
p192
(dp193
g8
S'32'
p194
sg10
S'253'
p195
sg12
S'.406'
p196
sg14
S'252'
p197
sg16
S'.348'
p198
sg18
S'88'
p199
sg20
S'1027'
p200
sg22
S'SG'
p201
sg24
S'.823'
p202
sg26
S'.462'
p203
sg28
S'NBA'
p204
sg30
S'47'
p205
sg32
S'795'
p206
sg34
S'128'
p207
sg36
S'356'
p208
sg38
S'149'
p209
sg40
S'24'
p210
sg42
S'PHI'
p211
sg44
S'75'
p212
sg46
S'17'
p213
sg48
S'235'
p214
sg50
S'293'
p215
sg52
S'542'
p216
sg54
S'117'
p217
sg56
S'2010-11'
p218
sg58
S'323'
p219
sg60
S'102'
p220
sg62
S'.434'
p221
sg64
S'1747'
p222
sg66
g47
sba(isrc.gp1.models.Totals
Totals
p223
(dp224
g8
S'30'
p225
sg10
S'229'
p226
sg12
S'.407'
p227
sg14
S'221'
p228
sg16
S'.362'
p229
sg18
S'83'
p230
sg20
S'956'
p231
sg22
S'PG'
p232
sg24
S'.812'
p233
sg26
S'.460'
p234
sg28
S'NBA'
p235
sg30
S'53'
p236
sg32
S'782'
p237
sg34
S'90'
p238
sg36
S'292'
p239
sg38
S'155'
p240
sg40
S'25'
p241
sg42
S'PHI'
p242
sg44
S'64'
p243
sg46
S'18'
p244
sg48
S'235'
p245
sg50
S'237'
p246
sg52
S'553'
p247
sg54
S'125'
p248
sg56
S'2011-12'
p249
sg58
S'318'
p250
sg60
S'71'
p251
sg62
S'.425'
p252
sg64
S'1682'
p253
sg66
g47
sba(isrc.gp1.models.Totals
Totals
p254
(dp255
g8
g51
sg10
S'196'
p256
sg12
S'.422'
p257
sg14
S'139'
p258
sg16
S'.367'
p259
sg18
S'72'
p260
sg20
S'551'
p261
sg22
S'SG'
p262
sg24
S'.868'
p263
sg26
S'.503'
p264
sg28
S'NBA'
p265
sg30
S'44'
p266
sg32
S'443'
p267
sg34
S'55'
p268
sg36
S'121'
p269
sg38
S'80'
p270
sg40
S'26'
p271
sg42
S'ATL'
p272
sg44
S'39'
p273
sg46
S'10'
p274
sg48
S'115'
p275
sg50
S'105'
p276
sg52
S'247'
p277
sg54
S'72'
p278
sg56
S'2012-13'
p279
sg58
S'187'
p280
sg60
S'74'
p281
sg62
S'.466'
p282
sg64
S'1119'
p283
sg66
g11
sba(isrc.gp1.models.Totals
Totals
p284
(dp285
g8
S'10'
p286
sg10
S'231'
p287
sg12
S'.400'
p288
sg14
S'210'
p289
sg16
S'.342'
p290
sg18
S'79'
p291
sg20
S'625'
p292
sg22
S'PG'
p293
sg24
S'.849'
p294
sg26
S'.480'
p295
sg28
S'NBA'
p296
sg30
S'45'
p297
sg32
S'493'
p298
sg34
S'65'
p299
sg36
S'179'
p300
sg38
S'124'
p301
sg40
S'27'
p302
sg42
S'ATL'
p303
sg44
S'60'
p304
sg46
S'4'
p305
sg48
S'118'
p306
sg50
S'152'
p307
sg52
S'262'
p308
sg54
S'114'
p309
sg56
S'2013-14'
p310
sg58
S'197'
p311
sg60
S'92'
p312
sg62
S'.450'
p313
sg64
S'1445'
p314
sg66
S'7'
p315
sba(isrc.gp1.models.Totals
Totals
p316
(dp317
g8
S'24'
p318
sg10
S'447'
p319
sg12
S'.404'
p320
sg14
S'164'
p321
sg16
S'.340'
p322
sg18
S'152'
p323
sg20
S'1242'
p324
sg22
S'SG'
p325
sg24
S'.861'
p326
sg26
S'.486'
p327
sg28
S'NBA'
p328
sg30
S'88'
p329
sg32
S'928'
p330
sg34
S'103'
p331
sg36
S'395'
p332
sg38
S'151'
p333
sg40
S'28'
p334
sg42
S'TOR'
p335
sg44
S'80'
p336
sg46
S'10'
p337
sg48
S'223'
p338
sg50
S'340'
p339
sg52
S'481'
p340
sg54
S'127'
p341
sg56
S'2014-15'
p342
sg58
S'375'
p343
sg60
S'101'
p344
sg62
S'.464'
p345
sg64
S'2016'
p346
sg66
g47
sba(isrc.gp1.models.Totals
Totals
p347
(dp348
g8
S'20'
p349
sg10
S'228'
p350
sg12
S'.398'
p351
sg14
S'129'
p352
sg16
S'.329'
p353
sg18
S'75'
p354
sg20
S'748'
p355
sg22
S'SG'
p356
sg24
S'.832'
p357
sg26
S'.470'
p358
sg28
S'NBA'
p359
sg30
S'48'
p360
sg32
S'522'
p361
sg34
S'85'
p362
sg36
S'309'
p363
sg38
S'131'
p364
sg40
S'29'
p365
sg42
S'LAL'
p366
sg44
S'49'
p367
sg46
S'16'
p368
sg48
S'133'
p369
sg50
S'257'
p370
sg52
S'294'
p371
sg54
S'111'
p372
sg56
S'2015-16'
p373
sg58
S'208'
p374
sg60
S'80'
p375
sg62
S'.452'
p376
sg64
S'1450'
p377
sg66
S'31'
p378
sbasS'_college'
p379
S'NA'
p380
sS'_toYear'
p381
S'2016'
p382
sS'_height'
p383
S'6-1'
p384
sS'_active'
p385
I01
sS'_shootingHand'
p386
VRight
p387
sS'_name'
p388
S'Lou Williams'
p389
sS'_per100Possessions'
p390
(lp391
(isrc.gp1.models.Per100Possession
Per100Possession
p392
(dp393
g8
S'1.1'
p394
sg10
S'3.2'
p395
sg12
S'.442'
p396
sS'_offensiveRating'
p397
S'87'
p398
sg14
S'3.6'
p399
sg16
S'.222'
p400
sg18
S'0.7'
p401
sg20
S'20.0'
p402
sg22
S'PG'
p403
sS'_defensiveRating'
p404
S'109'
p405
sg24
S'.615'
p406
sg28
S'NBA'
p407
sg30
S'1.8'
p408
sg32
S'18.6'
p409
sg34
S'4.6'
p410
sg36
S'4.6'
p411
sg38
S'6.8'
p412
sg40
S'19'
p413
sg42
S'PHI'
p414
sg44
S'30'
p415
sg46
S'0.0'
p416
sg48
S'7.5'
p417
sg50
S'2.9'
p418
sg52
S'15.4'
p419
sg54
S'5.7'
p420
sg56
S'2005-06'
p421
sg58
S'8.2'
p422
sg60
S'4.6'
p423
sg62
S'.488'
p424
sg64
S'145'
p425
sg66
g47
sba(isrc.gp1.models.Per100Possession
Per100Possession
p426
(dp427
g8
S'1.3'
p428
sg10
S'2.8'
p429
sg12
S'.441'
p430
sg397
S'105'
p431
sg14
S'8.5'
p432
sg16
S'.324'
p433
sg18
S'0.9'
p434
sg20
S'20.2'
p435
sg22
S'PG'
p436
sg404
S'109'
p437
sg24
S'.696'
p438
sg28
S'NBA'
p439
sg30
S'1.7'
p440
sg32
S'16.2'
p441
sg34
S'3.2'
p442
sg36
S'7.1'
p443
sg38
S'5.4'
p444
sg40
S'20'
p445
sg42
S'PHI'
p446
sg44
S'61'
p447
sg46
S'0.1'
p448
sg48
S'6.2'
p449
sg50
S'4.9'
p450
sg52
S'13.4'
p451
sg54
S'4.1'
p452
sg56
S'2006-07'
p453
sg58
S'7.2'
p454
sg60
S'3.5'
p455
sg62
S'.466'
p456
sg64
S'688'
p457
sg66
g47
sba(isrc.gp1.models.Per100Possession
Per100Possession
p458
(dp459
g8
S'1.2'
p460
sg10
S'4.4'
p461
sg12
S'.424'
p462
sg397
S'108'
p463
sg14
S'7.2'
p464
sg16
S'.359'
p465
sg18
S'1.6'
p466
sg20
S'26.2'
p467
sg22
S'PG'
p468
sg404
S'108'
p469
sg24
S'.783'
p470
sg28
S'NBA'
p471
sg30
S'2.3'
p472
sg32
S'21.4'
p473
sg34
S'3.7'
p474
sg36
S'8.3'
p475
sg38
S'4.8'
p476
sg40
S'21'
p477
sg42
S'PHI'
p478
sg44
S'80'
p479
sg46
S'0.4'
p480
sg48
S'7.5'
p481
sg50
S'6.5'
p482
sg52
S'17.1'
p483
sg54
S'3.6'
p484
sg56
S'2007-08'
p485
sg58
S'9.1'
p486
sg60
S'3.6'
p487
sg62
S'.441'
p488
sg64
S'1862'
p489
sg66
g47
sba(isrc.gp1.models.Per100Possession
Per100Possession
p490
(dp491
g8
S'1.0'
p492
sg10
S'6.1'
p493
sg12
S'.398'
p494
sg397
S'105'
p495
sg14
S'6.7'
p496
sg16
S'.286'
p497
sg18
S'1.8'
p498
sg20
S'28.9'
p499
sg22
S'SG'
p500
sg404
S'109'
p501
sg24
S'.790'
p502
sg28
S'NBA'
p503
sg30
S'2.4'
p504
sg32
S'23.5'
p505
sg34
S'3.6'
p506
sg36
S'10.7'
p507
sg38
S'4.6'
p508
sg40
S'22'
p509
sg42
S'PHI'
p510
sg44
S'81'
p511
sg46
S'0.4'
p512
sg48
S'7.6'
p513
sg50
S'8.5'
p514
sg52
S'17.4'
p515
sg54
S'3.6'
p516
sg56
S'2008-09'
p517
sg58
S'9.3'
p518
sg60
S'4.2'
p519
sg62
S'.438'
p520
sg64
S'1919'
p521
sg66
g47
sba(isrc.gp1.models.Per100Possession
Per100Possession
p522
(dp523
g8
S'0.7'
p524
sg10
S'5.6'
p525
sg12
S'.470'
p526
sg397
S'116'
p527
sg14
S'7.3'
p528
sg16
S'.340'
p529
sg18
S'1.9'
p530
sg20
S'24.6'
p531
sg22
S'PG'
p532
sg404
S'112'
p533
sg24
S'.824'
p534
sg28
S'NBA'
p535
sg30
S'2.2'
p536
sg32
S'18.6'
p537
sg34
S'3.0'
p538
sg36
S'6.4'
p539
sg38
S'5.1'
p540
sg40
S'23'
p541
sg42
S'PHI'
p542
sg44
S'64'
p543
sg46
S'0.4'
p544
sg48
S'6.8'
p545
sg50
S'5.3'
p546
sg52
S'12.9'
p547
sg54
S'4.4'
p548
sg56
S'2009-10'
p549
sg58
S'8.7'
p550
sg60
S'2.9'
p551
sg62
S'.527'
p552
sg64
S'1912'
p553
sg66
S'38'
p554
sba(isrc.gp1.models.Per100Possession
Per100Possession
p555
(dp556
g8
S'1.0'
p557
sg10
S'7.6'
p558
sg12
S'.406'
p559
sg397
S'111'
p560
sg14
S'7.6'
p561
sg16
S'.348'
p562
sg18
S'2.6'
p563
sg20
S'30.8'
p564
sg22
S'SG'
p565
sg404
S'108'
p566
sg24
S'.823'
p567
sg28
S'NBA'
p568
sg30
S'1.4'
p569
sg32
S'23.8'
p570
sg34
S'3.8'
p571
sg36
S'10.7'
p572
sg38
S'4.5'
p573
sg40
S'24'
p574
sg42
S'PHI'
p575
sg44
S'75'
p576
sg46
S'0.5'
p577
sg48
S'7.0'
p578
sg50
S'8.8'
p579
sg52
S'16.2'
p580
sg54
S'3.5'
p581
sg56
S'2010-11'
p582
sg58
S'9.7'
p583
sg60
S'3.1'
p584
sg62
S'.434'
p585
sg64
S'1747'
p586
sg66
g47
sba(isrc.gp1.models.Per100Possession
Per100Possession
p587
(dp588
g8
S'1.0'
p589
sg10
S'7.3'
p590
sg12
S'.407'
p591
sg397
S'110'
p592
sg14
S'7.0'
p593
sg16
S'.362'
p594
sg18
S'2.6'
p595
sg20
S'30.4'
p596
sg22
S'PG'
p597
sg404
S'102'
p598
sg24
S'.812'
p599
sg28
S'NBA'
p600
sg30
S'1.7'
p601
sg32
S'24.9'
p602
sg34
S'2.9'
p603
sg36
S'9.3'
p604
sg38
S'4.9'
p605
sg40
S'25'
p606
sg42
S'PHI'
p607
sg44
S'64'
p608
sg46
S'0.6'
p609
sg48
S'7.5'
p610
sg50
S'7.5'
p611
sg52
S'17.6'
p612
sg54
S'4.0'
p613
sg56
S'2011-12'
p614
sg58
S'10.1'
p615
sg60
S'2.3'
p616
sg62
S'.425'
p617
sg64
S'1682'
p618
sg66
g47
sba(isrc.gp1.models.Per100Possession
Per100Possession
p619
(dp620
g8
S'0.4'
p621
sg10
S'9.1'
p622
sg12
S'.422'
p623
sg397
S'106'
p624
sg14
S'6.4'
p625
sg16
S'.367'
p626
sg18
S'3.3'
p627
sg20
S'25.5'
p628
sg22
S'SG'
p629
sg404
S'107'
p630
sg24
S'.868'
p631
sg28
S'NBA'
p632
sg30
S'2.0'
p633
sg32
S'20.5'
p634
sg34
S'2.5'
p635
sg36
S'5.6'
p636
sg38
S'3.7'
p637
sg40
S'26'
p638
sg42
S'ATL'
p639
sg44
S'39'
p640
sg46
S'0.5'
p641
sg48
S'5.3'
p642
sg50
S'4.9'
p643
sg52
S'11.4'
p644
sg54
S'3.3'
p645
sg56
S'2012-13'
p646
sg58
S'8.7'
p647
sg60
S'3.4'
p648
sg62
S'.466'
p649
sg64
S'1119'
p650
sg66
g11
sba(isrc.gp1.models.Per100Possession
Per100Possession
p651
(dp652
g8
S'0.4'
p653
sg10
S'8.1'
p654
sg12
S'.400'
p655
sg397
S'107'
p656
sg14
S'7.4'
p657
sg16
S'.342'
p658
sg18
S'2.8'
p659
sg20
S'21.9'
p660
sg22
S'PG'
p661
sg404
S'109'
p662
sg24
S'.849'
p663
sg28
S'NBA'
p664
sg30
S'1.6'
p665
sg32
S'17.3'
p666
sg34
S'2.3'
p667
sg36
S'6.3'
p668
sg38
S'4.4'
p669
sg40
S'27'
p670
sg42
S'ATL'
p671
sg44
S'60'
p672
sg46
S'0.1'
p673
sg48
S'4.1'
p674
sg50
S'5.3'
p675
sg52
S'9.2'
p676
sg54
S'4.0'
p677
sg56
S'2013-14'
p678
sg58
S'6.9'
p679
sg60
S'3.2'
p680
sg62
S'.450'
p681
sg64
S'1445'
p682
sg66
g315
sba(isrc.gp1.models.Per100Possession
Per100Possession
p683
(dp684
g8
S'0.6'
p685
sg10
S'11.5'
p686
sg12
S'.404'
p687
sg397
S'114'
p688
sg14
S'4.2'
p689
sg16
S'.340'
p690
sg18
S'3.9'
p691
sg20
S'31.9'
p692
sg22
S'SG'
p693
sg404
S'109'
p694
sg24
S'.861'
p695
sg28
S'NBA'
p696
sg30
S'2.3'
p697
sg32
S'23.8'
p698
sg34
S'2.6'
p699
sg36
S'10.1'
p700
sg38
S'3.9'
p701
sg40
S'28'
p702
sg42
S'TOR'
p703
sg44
S'80'
p704
sg46
S'0.3'
p705
sg48
S'5.7'
p706
sg50
S'8.7'
p707
sg52
S'12.3'
p708
sg54
S'3.3'
p709
sg56
S'2014-15'
p710
sg58
S'9.6'
p711
sg60
S'2.6'
p712
sg62
S'.464'
p713
sg64
S'2016'
p714
sg66
g47
sba(isrc.gp1.models.Per100Possession
Per100Possession
p715
(dp716
g8
S'0.7'
p717
sg10
S'7.9'
p718
sg12
S'.398'
p719
sg397
S'112'
p720
sg14
S'4.5'
p721
sg16
S'.329'
p722
sg18
S'2.6'
p723
sg20
S'25.8'
p724
sg22
S'SG'
p725
sg404
S'113'
p726
sg24
S'.832'
p727
sg28
S'NBA'
p728
sg30
S'1.7'
p729
sg32
S'18.0'
p730
sg34
S'2.9'
p731
sg36
S'10.7'
p732
sg38
S'4.5'
p733
sg40
S'29'
p734
sg42
S'LAL'
p735
sg44
S'49'
p736
sg46
S'0.6'
p737
sg48
S'4.6'
p738
sg50
S'8.9'
p739
sg52
S'10.1'
p740
sg54
S'3.8'
p741
sg56
S'2015-16'
p742
sg58
S'7.2'
p743
sg60
S'2.8'
p744
sg62
S'.452'
p745
sg64
S'1450'
p746
sg66
S'31'
p747
sbasS'_advanced'
p748
(lp749
(isrc.gp1.models.Advanced
Advanced
p750
(dp751
S'_offensiveReboundPercentage'
p752
S'2.4'
p753
sS'_turnOverPercentage'
p754
S'18.4'
p755
sS'_winSharesPer48Minutes'
p756
S'-0.036'
p757
sS'_stealPercentage'
p758
S'1.8'
p759
sS'_usagePercentage'
p760
S'22.2'
p761
sS'_totalReboundsPercentage'
p762
S'7.7'
p763
sS'_defensiveBoxPlusMinus'
p764
S'-2.8'
p765
sg22
S'PG'
p766
sS'_valueOverReplacementPlayer'
p767
S'-0.2'
p768
sS'_trueShootingPercentage'
p769
S'.485'
p770
sS'_defensiveReboundPercentage'
p771
S'12.9'
p772
sS'_freeThrowsAttempRate'
p773
S'.250'
p774
sS'_threePointsAttempRate'
p775
S'.173'
p776
sg28
S'NBA'
p777
sS'_offensiveBoxPlusMinues'
p778
S'-5.3'
p779
sS'_assistPercentage'
p780
S'11.6'
p781
sS'_defensiveWinShares'
p782
S'0.1'
p783
sg40
S'19'
p784
sg42
S'PHI'
p785
sg44
S'30'
p786
sS'_blockPercentage'
p787
S'0.0'
p788
sS'_playerEfficiencyRating'
p789
S'9.0'
p790
sS'_offensiveWinShares'
p791
S'-0.2'
p792
sg64
S'145'
p793
sS'_boxPlusMinus'
p794
S'-8.1'
p795
sg56
S'2005-06'
p796
sS'_winShares'
p797
S'-0.1'
p798
sba(isrc.gp1.models.Advanced
Advanced
p799
(dp800
g752
S'3.0'
p801
sg754
S'15.5'
p802
sg756
S'.078'
p803
sg758
S'1.7'
p804
sg760
S'20.0'
p805
sg762
S'6.1'
p806
sg764
S'-2.2'
p807
sg22
S'PG'
p808
sg767
S'-0.1'
p809
sg769
S'.521'
p810
sg771
S'9.2'
p811
sg773
S'.436'
p812
sg775
S'.175'
p813
sg28
S'NBA'
p814
sg778
S'-0.6'
p815
sg780
S'26.5'
p816
sg782
S'0.5'
p817
sg40
S'20'
p818
sg42
S'PHI'
p819
sg44
S'61'
p820
sg787
S'0.1'
p821
sg789
S'14.6'
p822
sg791
S'0.6'
p823
sg64
S'688'
p824
sg794
S'-2.8'
p825
sg56
S'2006-07'
p826
sg797
S'1.1'
p827
sba(isrc.gp1.models.Advanced
Advanced
p828
(dp829
g752
S'2.6'
p830
sg754
S'12.4'
p831
sg756
S'.112'
p832
sg758
S'2.3'
p833
sg760
S'24.3'
p834
sg762
S'5.3'
p835
sg764
S'-1.2'
p836
sg22
S'PG'
p837
sg767
S'0.8'
p838
sg769
S'.523'
p839
sg771
S'8.1'
p840
sg773
S'.386'
p841
sg775
S'.203'
p842
sg28
S'NBA'
p843
sg778
S'1.0'
p844
sg780
S'22.6'
p845
sg782
S'1.8'
p846
sg40
S'21'
p847
sg42
S'PHI'
p848
sg44
S'80'
p849
sg787
S'0.6'
p850
sg789
S'16.7'
p851
sg791
S'2.5'
p852
sg64
S'1862'
p853
sg794
S'-0.2'
p854
sg56
S'2007-08'
p855
sg797
S'4.4'
p856
sba(isrc.gp1.models.Advanced
Advanced
p857
(dp858
g752
S'2.2'
p859
sg754
S'13.0'
p860
sg756
S'.085'
p861
sg758
S'2.4'
p862
sg760
S'27.7'
p863
sg762
S'5.2'
p864
sg764
S'-1.6'
p865
sg22
S'SG'
p866
sg767
S'0.5'
p867
sg769
S'.513'
p868
sg771
S'8.1'
p869
sg773
S'.456'
p870
sg775
S'.261'
p871
sg28
S'NBA'
p872
sg778
S'0.7'
p873
sg780
S'21.6'
p874
sg782
S'1.7'
p875
sg40
S'22'
p876
sg42
S'PHI'
p877
sg44
S'81'
p878
sg787
S'0.6'
p879
sg789
S'16.3'
p880
sg791
S'1.6'
p881
sg64
S'1919'
p882
sg794
S'-0.9'
p883
sg56
S'2008-09'
p884
sg797
S'3.4'
p885
sba(isrc.gp1.models.Advanced
Advanced
p886
(dp887
g752
S'1.5'
p888
sg754
S'12.0'
p889
sg756
S'.130'
p890
sg758
S'2.2'
p891
sg760
S'21.1'
p892
sg762
S'5.8'
p893
sg764
S'-1.6'
p894
sg22
S'PG'
p895
sg767
S'1.5'
p896
sg769
S'.576'
p897
sg771
S'10.1'
p898
sg773
S'.344'
p899
sg775
S'.304'
p900
sg28
S'NBA'
p901
sg778
S'2.7'
p902
sg780
S'22.9'
p903
sg782
S'1.1'
p904
sg40
S'23'
p905
sg42
S'PHI'
p906
sg44
S'64'
p907
sg787
S'0.6'
p908
sg789
S'18.2'
p909
sg791
S'4.1'
p910
sg64
S'1912'
p911
sg794
S'1.1'
p912
sg56
S'2009-10'
p913
sg797
S'5.2'
p914
sba(isrc.gp1.models.Advanced
Advanced
p915
(dp916
g752
S'2.1'
p917
sg754
S'9.7'
p918
sg756
S'.141'
p919
sg758
S'1.4'
p920
sg760
S'27.8'
p921
sg762
S'4.9'
p922
sg764
S'-2.5'
p923
sg22
S'SG'
p924
sg767
S'1.0'
p925
sg769
S'.540'
p926
sg771
S'7.7'
p927
sg773
S'.448'
p928
sg775
S'.318'
p929
sg28
S'NBA'
p930
sg778
S'2.9'
p931
sg780
S'24.1'
p932
sg782
S'1.6'
p933
sg40
S'24'
p934
sg42
S'PHI'
p935
sg44
S'75'
p936
sg787
S'0.7'
p937
sg789
S'18.9'
p938
sg791
S'3.5'
p939
sg64
S'1747'
p940
sg794
S'0.4'
p941
sg56
S'2010-11'
p942
sg797
S'5.1'
p943
sba(isrc.gp1.models.Advanced
Advanced
p944
(dp945
g752
S'2.0'
p946
sg754
S'7.2'
p947
sg756
S'.174'
p948
sg758
S'1.7'
p949
sg760
S'27.4'
p950
sg762
S'5.1'
p951
sg764
S'-1.5'
p952
sg22
S'PG'
p953
sg767
S'1.7'
p954
sg769
S'.525'
p955
sg771
S'8.3'
p956
sg773
S'.373'
p957
sg775
S'.293'
p958
sg28
S'NBA'
p959
sg778
S'3.4'
p960
sg780
S'22.4'
p961
sg782
S'2.2'
p962
sg40
S'25'
p963
sg42
S'PHI'
p964
sg44
S'64'
p965
sg787
S'0.8'
p966
sg789
S'20.2'
p967
sg791
S'3.9'
p968
sg64
S'1682'
p969
sg794
S'1.9'
p970
sg56
S'2011-12'
p971
sg797
S'6.1'
p972
sba(isrc.gp1.models.Advanced
Advanced
p973
(dp974
g752
S'0.8'
p975
sg754
S'13.0'
p976
sg756
S'.103'
p977
sg758
S'2.0'
p978
sg760
S'23.6'
p979
sg762
S'4.1'
p980
sg764
S'-1.7'
p981
sg22
S'SG'
p982
sg767
S'0.4'
p983
sg769
S'.555'
p984
sg771
S'7.3'
p985
sg773
S'.273'
p986
sg775
S'.442'
p987
sg28
S'NBA'
p988
sg778
S'1.2'
p989
sg780
S'20.4'
p990
sg782
S'1.0'
p991
sg40
S'26'
p992
sg42
S'ATL'
p993
sg44
S'39'
p994
sg787
S'0.7'
p995
sg789
S'15.9'
p996
sg791
S'1.4'
p997
sg64
S'1119'
p998
sg794
S'-0.5'
p999
sg56
S'2012-13'
p1000
sg797
S'2.4'
p1001
sba(isrc.gp1.models.Advanced
Advanced
p1002
(dp1003
g752
S'0.8'
p1004
sg754
S'13.9'
p1005
sg756
S'.087'
p1006
sg758
S'1.6'
p1007
sg760
S'20.9'
p1008
sg762
S'5.0'
p1009
sg764
S'-2.1'
p1010
sg22
S'PG'
p1011
sg767
S'0.1'
p1012
sg769
S'.547'
p1013
sg771
S'9.1'
p1014
sg773
S'.363'
p1015
sg775
S'.469'
p1016
sg28
S'NBA'
p1017
sg778
S'0.3'
p1018
sg780
S'22.9'
p1019
sg782
S'1.0'
p1020
sg40
S'27'
p1021
sg42
S'ATL'
p1022
sg44
S'60'
p1023
sg787
S'0.2'
p1024
sg789
S'14.2'
p1025
sg791
S'1.6'
p1026
sg64
S'1445'
p1027
sg794
S'-1.8'
p1028
sg56
S'2013-14'
p1029
sg797
S'2.6'
p1030
sba(isrc.gp1.models.Advanced
Advanced
p1031
(dp1032
g752
S'1.4'
p1033
sg754
S'8.4'
p1034
sg756
S'.157'
p1035
sg758
S'2.3'
p1036
sg760
S'27.0'
p1037
sg762
S'4.3'
p1038
sg764
S'-3.1'
p1039
sg22
S'SG'
p1040
sg767
S'1.5'
p1041
sg769
S'.564'
p1042
sg771
S'7.3'
p1043
sg773
S'.426'
p1044
sg775
S'.482'
p1045
sg28
S'NBA'
p1046
sg778
S'4.0'
p1047
sg780
S'13.6'
p1048
sg782
S'1.1'
p1049
sg40
S'28'
p1050
sg42
S'TOR'
p1051
sg44
S'80'
p1052
sg787
S'0.4'
p1053
sg789
S'19.9'
p1054
sg791
S'5.4'
p1055
sg64
S'2016'
p1056
sg794
S'0.9'
p1057
sg56
S'2014-15'
p1058
sg797
S'6.6'
p1059
sba(isrc.gp1.models.Advanced
Advanced
p1060
(dp1061
g752
S'1.4'
p1062
sg754
S'10.8'
p1063
sg756
S'.106'
p1064
sg758
S'1.7'
p1065
sg760
S'22.4'
p1066
sg762
S'4.8'
p1067
sg764
S'-2.4'
p1068
sg22
S'SG'
p1069
sg767
S'0.7'
p1070
sg769
S'.568'
p1071
sg771
S'8.4'
p1072
sg773
S'.592'
p1073
sg775
S'.437'
p1074
sg28
S'NBA'
p1075
sg778
S'2.3'
p1076
sg780
S'15.2'
p1077
sg782
S'0.2'
p1078
sg40
S'29'
p1079
sg42
S'LAL'
p1080
sg44
S'49'
p1081
sg787
S'0.9'
p1082
sg789
S'16.9'
p1083
sg791
S'3.0'
p1084
sg64
S'1450'
p1085
sg794
S'-0.2'
p1086
sg56
S'2015-16'
p1087
sg797
S'3.2'
p1088
sbasS'_per36Minutes'
p1089
(lp1090
(isrc.gp1.models.Per36Minutes
Per36Minutes
p1091
(dp1092
g8
S'0.7'
p1093
sg10
S'2.2'
p1094
sg12
S'.442'
p1095
sg14
S'2.5'
p1096
sg16
S'.222'
p1097
sg18
S'0.5'
p1098
sg20
S'13.9'
p1099
sg22
S'PG'
p1100
sg24
S'.615'
p1101
sg28
S'NBA'
p1102
sg30
S'1.2'
p1103
sg32
S'12.9'
p1104
sg34
S'3.2'
p1105
sg36
S'3.2'
p1106
sg38
S'4.7'
p1107
sg40
S'19'
p1108
sg42
S'PHI'
p1109
sg44
S'30'
p1110
sg46
S'0.0'
p1111
sg48
S'5.2'
p1112
sg50
S'2.0'
p1113
sg52
S'10.7'
p1114
sg54
S'4.0'
p1115
sg56
S'2005-06'
p1116
sg58
S'5.7'
p1117
sg60
S'3.2'
p1118
sg62
S'.488'
p1119
sg64
S'145'
p1120
sg66
g47
sba(isrc.gp1.models.Per36Minutes
Per36Minutes
p1121
(dp1122
g8
S'0.9'
p1123
sg10
S'1.9'
p1124
sg12
S'.441'
p1125
sg14
S'5.8'
p1126
sg16
S'.324'
p1127
sg18
S'0.6'
p1128
sg20
S'13.7'
p1129
sg22
S'PG'
p1130
sg24
S'.696'
p1131
sg28
S'NBA'
p1132
sg30
S'1.2'
p1133
sg32
S'11.0'
p1134
sg34
S'2.2'
p1135
sg36
S'4.8'
p1136
sg38
S'3.7'
p1137
sg40
S'20'
p1138
sg42
S'PHI'
p1139
sg44
S'61'
p1140
sg46
S'0.1'
p1141
sg48
S'4.2'
p1142
sg50
S'3.3'
p1143
sg52
S'9.1'
p1144
sg54
S'2.8'
p1145
sg56
S'2006-07'
p1146
sg58
S'4.9'
p1147
sg60
S'2.4'
p1148
sg62
S'.466'
p1149
sg64
S'688'
p1150
sg66
g47
sba(isrc.gp1.models.Per36Minutes
Per36Minutes
p1151
(dp1152
g8
S'0.8'
p1153
sg10
S'3.0'
p1154
sg12
S'.424'
p1155
sg14
S'4.9'
p1156
sg16
S'.359'
p1157
sg18
S'1.1'
p1158
sg20
S'17.8'
p1159
sg22
S'PG'
p1160
sg24
S'.783'
p1161
sg28
S'NBA'
p1162
sg30
S'1.6'
p1163
sg32
S'14.5'
p1164
sg34
S'2.5'
p1165
sg36
S'5.6'
p1166
sg38
S'3.2'
p1167
sg40
S'21'
p1168
sg42
S'PHI'
p1169
sg44
S'80'
p1170
sg46
S'0.3'
p1171
sg48
S'5.1'
p1172
sg50
S'4.4'
p1173
sg52
S'11.6'
p1174
sg54
S'2.4'
p1175
sg56
S'2007-08'
p1176
sg58
S'6.2'
p1177
sg60
S'2.4'
p1178
sg62
S'.441'
p1179
sg64
S'1862'
p1180
sg66
g47
sba(isrc.gp1.models.Per36Minutes
Per36Minutes
p1181
(dp1182
g8
S'0.7'
p1183
sg10
S'4.1'
p1184
sg12
S'.398'
p1185
sg14
S'4.5'
p1186
sg16
S'.286'
p1187
sg18
S'1.2'
p1188
sg20
S'19.5'
p1189
sg22
S'SG'
p1190
sg24
S'.790'
p1191
sg28
S'NBA'
p1192
sg30
S'1.6'
p1193
sg32
S'15.8'
p1194
sg34
S'2.4'
p1195
sg36
S'7.2'
p1196
sg38
S'3.1'
p1197
sg40
S'22'
p1198
sg42
S'PHI'
p1199
sg44
S'81'
p1200
sg46
S'0.3'
p1201
sg48
S'5.1'
p1202
sg50
S'5.7'
p1203
sg52
S'11.7'
p1204
sg54
S'2.4'
p1205
sg56
S'2008-09'
p1206
sg58
S'6.3'
p1207
sg60
S'2.8'
p1208
sg62
S'.438'
p1209
sg64
S'1919'
p1210
sg66
g47
sba(isrc.gp1.models.Per36Minutes
Per36Minutes
p1211
(dp1212
g8
S'0.5'
p1213
sg10
S'3.9'
p1214
sg12
S'.470'
p1215
sg14
S'5.0'
p1216
sg16
S'.340'
p1217
sg18
S'1.3'
p1218
sg20
S'16.9'
p1219
sg22
S'PG'
p1220
sg24
S'.824'
p1221
sg28
S'NBA'
p1222
sg30
S'1.5'
p1223
sg32
S'12.7'
p1224
sg34
S'2.1'
p1225
sg36
S'4.4'
p1226
sg38
S'3.5'
p1227
sg40
S'23'
p1228
sg42
S'PHI'
p1229
sg44
S'64'
p1230
sg46
S'0.3'
p1231
sg48
S'4.7'
p1232
sg50
S'3.6'
p1233
sg52
S'8.9'
p1234
sg54
S'3.1'
p1235
sg56
S'2009-10'
p1236
sg58
S'6.0'
p1237
sg60
S'2.0'
p1238
sg62
S'.527'
p1239
sg64
S'1912'
p1240
sg66
S'38'
p1241
sba(isrc.gp1.models.Per36Minutes
Per36Minutes
p1242
(dp1243
g8
S'0.7'
p1244
sg10
S'5.2'
p1245
sg12
S'.406'
p1246
sg14
S'5.2'
p1247
sg16
S'.348'
p1248
sg18
S'1.8'
p1249
sg20
S'21.2'
p1250
sg22
S'SG'
p1251
sg24
S'.823'
p1252
sg28
S'NBA'
p1253
sg30
S'1.0'
p1254
sg32
S'16.4'
p1255
sg34
S'2.6'
p1256
sg36
S'7.3'
p1257
sg38
S'3.1'
p1258
sg40
S'24'
p1259
sg42
S'PHI'
p1260
sg44
S'75'
p1261
sg46
S'0.4'
p1262
sg48
S'4.8'
p1263
sg50
S'6.0'
p1264
sg52
S'11.2'
p1265
sg54
S'2.4'
p1266
sg56
S'2010-11'
p1267
sg58
S'6.7'
p1268
sg60
S'2.1'
p1269
sg62
S'.434'
p1270
sg64
S'1747'
p1271
sg66
g47
sba(isrc.gp1.models.Per36Minutes
Per36Minutes
p1272
(dp1273
g8
S'0.6'
p1274
sg10
S'4.9'
p1275
sg12
S'.407'
p1276
sg14
S'4.7'
p1277
sg16
S'.362'
p1278
sg18
S'1.8'
p1279
sg20
S'20.5'
p1280
sg22
S'PG'
p1281
sg24
S'.812'
p1282
sg28
S'NBA'
p1283
sg30
S'1.1'
p1284
sg32
S'16.7'
p1285
sg34
S'1.9'
p1286
sg36
S'6.2'
p1287
sg38
S'3.3'
p1288
sg40
S'25'
p1289
sg42
S'PHI'
p1290
sg44
S'64'
p1291
sg46
S'0.4'
p1292
sg48
S'5.0'
p1293
sg50
S'5.1'
p1294
sg52
S'11.8'
p1295
sg54
S'2.7'
p1296
sg56
S'2011-12'
p1297
sg58
S'6.8'
p1298
sg60
S'1.5'
p1299
sg62
S'.425'
p1300
sg64
S'1682'
p1301
sg66
g47
sba(isrc.gp1.models.Per36Minutes
Per36Minutes
p1302
(dp1303
g8
S'0.3'
p1304
sg10
S'6.3'
p1305
sg12
S'.422'
p1306
sg14
S'4.5'
p1307
sg16
S'.367'
p1308
sg18
S'2.3'
p1309
sg20
S'17.7'
p1310
sg22
S'SG'
p1311
sg24
S'.868'
p1312
sg28
S'NBA'
p1313
sg30
S'1.4'
p1314
sg32
S'14.3'
p1315
sg34
S'1.8'
p1316
sg36
S'3.9'
p1317
sg38
S'2.6'
p1318
sg40
S'26'
p1319
sg42
S'ATL'
p1320
sg44
S'39'
p1321
sg46
S'0.3'
p1322
sg48
S'3.7'
p1323
sg50
S'3.4'
p1324
sg52
S'7.9'
p1325
sg54
S'2.3'
p1326
sg56
S'2012-13'
p1327
sg58
S'6.0'
p1328
sg60
S'2.4'
p1329
sg62
S'.466'
p1330
sg64
S'1119'
p1331
sg66
g11
sba(isrc.gp1.models.Per36Minutes
Per36Minutes
p1332
(dp1333
g8
S'0.2'
p1334
sg10
S'5.8'
p1335
sg12
S'.400'
p1336
sg14
S'5.2'
p1337
sg16
S'.342'
p1338
sg18
S'2.0'
p1339
sg20
S'15.6'
p1340
sg22
S'PG'
p1341
sg24
S'.849'
p1342
sg28
S'NBA'
p1343
sg30
S'1.1'
p1344
sg32
S'12.3'
p1345
sg34
S'1.6'
p1346
sg36
S'4.5'
p1347
sg38
S'3.1'
p1348
sg40
S'27'
p1349
sg42
S'ATL'
p1350
sg44
S'60'
p1351
sg46
S'0.1'
p1352
sg48
S'2.9'
p1353
sg50
S'3.8'
p1354
sg52
S'6.5'
p1355
sg54
S'2.8'
p1356
sg56
S'2013-14'
p1357
sg58
S'4.9'
p1358
sg60
S'2.3'
p1359
sg62
S'.450'
p1360
sg64
S'1445'
p1361
sg66
g315
sba(isrc.gp1.models.Per36Minutes
Per36Minutes
p1362
(dp1363
g8
S'0.4'
p1364
sg10
S'8.0'
p1365
sg12
S'.404'
p1366
sg14
S'2.9'
p1367
sg16
S'.340'
p1368
sg18
S'2.7'
p1369
sg20
S'22.2'
p1370
sg22
S'SG'
p1371
sg24
S'.861'
p1372
sg28
S'NBA'
p1373
sg30
S'1.6'
p1374
sg32
S'16.6'
p1375
sg34
S'1.8'
p1376
sg36
S'7.1'
p1377
sg38
S'2.7'
p1378
sg40
S'28'
p1379
sg42
S'TOR'
p1380
sg44
S'80'
p1381
sg46
S'0.2'
p1382
sg48
S'4.0'
p1383
sg50
S'6.1'
p1384
sg52
S'8.6'
p1385
sg54
S'2.3'
p1386
sg56
S'2014-15'
p1387
sg58
S'6.7'
p1388
sg60
S'1.8'
p1389
sg62
S'.464'
p1390
sg64
S'2016'
p1391
sg66
g47
sba(isrc.gp1.models.Per36Minutes
Per36Minutes
p1392
(dp1393
g8
S'0.5'
p1394
sg10
S'5.7'
p1395
sg12
S'.398'
p1396
sg14
S'3.2'
p1397
sg16
S'.329'
p1398
sg18
S'1.9'
p1399
sg20
S'18.6'
p1400
sg22
S'SG'
p1401
sg24
S'.832'
p1402
sg28
S'NBA'
p1403
sg30
S'1.2'
p1404
sg32
S'13.0'
p1405
sg34
S'2.1'
p1406
sg36
S'7.7'
p1407
sg38
S'3.3'
p1408
sg40
S'29'
p1409
sg42
S'LAL'
p1410
sg44
S'49'
p1411
sg46
S'0.4'
p1412
sg48
S'3.3'
p1413
sg50
S'6.4'
p1414
sg52
S'7.3'
p1415
sg54
S'2.8'
p1416
sg56
S'2015-16'
p1417
sg58
S'5.2'
p1418
sg60
S'2.0'
p1419
sg62
S'.452'
p1420
sg64
S'1450'
p1421
sg66
S'31'
p1422
sbasS'_fromYear'
p1423
S'2006'
p1424
sS'_url'
p1425
S'http://www.basketball-reference.com/players/w/willilo02.html'
p1426
sS'_perGame'
p1427
(isrc.gp1.models.PerGame
PerGame
p1428
(dp1429
g8
S'0.4'
p1430
sg10
S'4.7'
p1431
sg12
S'.398'
p1432
sS'_effectiveFieldGalPercentage'
p1433
S'.470'
p1434
sg14
S'2.6'
p1435
sg16
S'.329'
p1436
sg18
S'1.5'
p1437
sg20
S'15.3'
p1438
sg22
S'SG'
p1439
sg24
S'.832'
p1440
sg28
S'NBA'
p1441
sg30
S'1.0'
p1442
sg34
S'1.7'
p1443
sS'_fieldGoalsttempted'
p1444
S'10.7'
p1445
sg36
S'6.3'
p1446
sg38
S'2.7'
p1447
sg40
S'29'
p1448
sg42
S'LAL'
p1449
sg44
S'49'
p1450
sg46
S'0.3'
p1451
sg48
S'2.7'
p1452
sg50
S'5.2'
p1453
sg52
S'6.0'
p1454
sg54
S'2.3'
p1455
sg56
S'2015-16'
p1456
sg58
S'4.2'
p1457
sg60
S'1.6'
p1458
sg62
S'.452'
p1459
sg64
S'29.6'
p1460
sg66
S'31'
p1461
sbsS'_weight'
p1462
S'175'
p1463
sS'_dob'
p1464
S'27-10-1986'
p1465
sS'_salary'
p1466
(lp1467
(isrc.gp1.models.Salary
Salary
p1468
(dp1469
g42
S'Philadelphia 76ers'
p1470
sg28
S'NBA'
p1471
sg1466
S'$450,000'
p1472
sg56
S'2005-06'
p1473
sba(isrc.gp1.models.Salary
Salary
p1474
(dp1475
g42
S'Philadelphia 76ers'
p1476
sg28
S'NBA'
p1477
sg1466
S'$664,209'
p1478
sg56
S'2006-07'
p1479
sba(isrc.gp1.models.Salary
Salary
p1480
(dp1481
g42
S'Philadelphia 76ers'
p1482
sg28
S'NBA'
p1483
sg1466
S'$770,610'
p1484
sg56
S'2007-08'
p1485
sba(isrc.gp1.models.Salary
Salary
p1486
(dp1487
g42
S'Philadelphia 76ers'
p1488
sg28
S'NBA'
p1489
sg1466
S'$4,500,000'
p1490
sg56
S'2008-09'
p1491
sba(isrc.gp1.models.Salary
Salary
p1492
(dp1493
g42
S'Philadelphia 76ers'
p1494
sg28
S'NBA'
p1495
sg1466
S'$4,972,500'
p1496
sg56
S'2009-10'
p1497
sba(isrc.gp1.models.Salary
Salary
p1498
(dp1499
g42
S'Philadelphia 76ers'
p1500
sg28
S'NBA'
p1501
sg1466
S'$5,000,000'
p1502
sg56
S'2010-11'
p1503
sba(isrc.gp1.models.Salary
Salary
p1504
(dp1505
g42
S'Philadelphia 76ers'
p1506
sg28
S'NBA'
p1507
sg1466
S'$5,176,000'
p1508
sg56
S'2011-12'
p1509
sba(isrc.gp1.models.Salary
Salary
p1510
(dp1511
g42
S'Atlanta Hawks'
p1512
sg28
S'NBA'
p1513
sg1466
S'$5,000,000'
p1514
sg56
S'2012-13'
p1515
sba(isrc.gp1.models.Salary
Salary
p1516
(dp1517
g42
S'Atlanta Hawks'
p1518
sg28
S'NBA'
p1519
sg1466
S'$5,225,000'
p1520
sg56
S'2013-14'
p1521
sba(isrc.gp1.models.Salary
Salary
p1522
(dp1523
g42
S'Toronto Raptors'
p1524
sg28
S'NBA'
p1525
sg1466
S'$5,450,000'
p1526
sg56
S'2014-15'
p1527
sbasg22
S'G'
p1528
sb.