(isrc.gp1.models.Player
Player
p0
(dp1
S'_experience'
p2
S'NA'
p3
sS'_totals'
p4
(lp5
(isrc.gp1.models.Totals
Totals
p6
(dp7
S'_offensiveRebounds'
p8
S'2'
p9
sS'_threePointsAttempted'
p10
S'0'
p11
sS'_fieldGoalsPercentage'
p12
S'.304'
p13
sS'_assist'
p14
S'3'
p15
sS'_threePointsPercentage'
p16
g3
sS'_threePoints'
p17
g11
sS'_points'
p18
S'19'
p19
sS'_position'
p20
S'SF'
p21
sS'_freeThrowsPercentage'
p22
S'.833'
p23
sS'_effectiveFieldGoalPercentage'
p24
S'.304'
p25
sS'_league'
p26
S'NBA'
p27
sS'_steals'
p28
g11
sS'_fieldGoalsAttempted'
p29
S'23'
p30
sS'_personalFouls'
p31
S'7'
p32
sS'_freeThrowsAttempted'
p33
S'6'
p34
sS'_totalRebounds'
p35
S'11'
p36
sS'_age'
p37
S'23'
p38
sS'_team'
p39
S'POR'
p40
sS'_games'
p41
S'15'
p42
sS'_blocks'
p43
g11
sS'_twoPoints'
p44
g32
sS'_freeThrows'
p45
S'5'
p46
sS'_twoPointsAttempted'
p47
S'23'
p48
sS'_defensiveRebounds'
p49
S'9'
p50
sS'_season'
p51
S'1987-88'
p52
sS'_fieldGoals'
p53
g32
sS'_turnOvers'
p54
g46
sS'_twoPointsPercentage'
p55
S'.304'
p56
sS'_minutesPlayed'
p57
S'54'
p58
sS'_gamesStarted'
p59
g11
sbasS'_college'
p60
S'Louisiana State University'
p61
sS'_toYear'
p62
S'1988'
p63
sS'_height'
p64
S'6-8'
p65
sS'_active'
p66
I00
sS'_shootingHand'
p67
VRight
p68
sS'_name'
p69
S'Nikita Wilson'
p70
sS'_per100Possessions'
p71
(lp72
(isrc.gp1.models.Per100Possession
Per100Possession
p73
(dp74
g8
S'1.7'
p75
sg10
S'0.0'
p76
sg12
S'.304'
p77
sS'_offensiveRating'
p78
S'77'
p79
sg14
S'2.6'
p80
sg16
g3
sg17
S'0.0'
p81
sg18
S'16.3'
p82
sg20
S'SF'
p83
sS'_defensiveRating'
p84
S'110'
p85
sg22
S'.833'
p86
sg26
S'NBA'
p87
sg28
S'0.0'
p88
sg29
S'19.7'
p89
sg31
S'6.0'
p90
sg33
S'5.1'
p91
sg35
S'9.4'
p92
sg37
S'23'
p93
sg39
S'POR'
p94
sg41
S'15'
p95
sg43
S'0.0'
p96
sg44
S'6.0'
p97
sg45
S'4.3'
p98
sg47
S'19.7'
p99
sg49
S'7.7'
p100
sg51
S'1987-88'
p101
sg53
S'6.0'
p102
sg54
S'4.3'
p103
sg55
S'.304'
p104
sg57
S'54'
p105
sg59
g11
sbasS'_advanced'
p106
(lp107
(isrc.gp1.models.Advanced
Advanced
p108
(dp109
S'_offensiveReboundPercentage'
p110
S'4.0'
p111
sS'_turnOverPercentage'
p112
S'16.3'
p113
sS'_winSharesPer48Minutes'
p114
S'-0.099'
p115
sS'_stealPercentage'
p116
S'0.0'
p117
sS'_usagePercentage'
p118
S'22.4'
p119
sS'_totalReboundsPercentage'
p120
S'11.0'
p121
sS'_defensiveBoxPlusMinus'
p122
S'-3.5'
p123
sg20
S'SF'
p124
sS'_valueOverReplacementPlayer'
p125
S'-0.2'
p126
sS'_trueShootingPercentage'
p127
S'.371'
p128
sS'_defensiveReboundPercentage'
p129
S'18.0'
p130
sS'_freeThrowsAttempRate'
p131
S'.261'
p132
sS'_threePointsAttempRate'
p133
S'.000'
p134
sg26
S'NBA'
p135
sS'_offensiveBoxPlusMinues'
p136
S'-9.6'
p137
sS'_assistPercentage'
p138
S'7.0'
p139
sS'_defensiveWinShares'
p140
S'0.0'
p141
sg37
S'23'
p142
sg39
S'POR'
p143
sg41
S'15'
p144
sS'_blockPercentage'
p145
S'0.0'
p146
sS'_playerEfficiencyRating'
p147
S'2.3'
p148
sS'_offensiveWinShares'
p149
S'-0.2'
p150
sg57
S'54'
p151
sS'_boxPlusMinus'
p152
S'-13.0'
p153
sg51
S'1987-88'
p154
sS'_winShares'
p155
S'-0.1'
p156
sbasS'_per36Minutes'
p157
(lp158
(isrc.gp1.models.Per36Minutes
Per36Minutes
p159
(dp160
g8
S'1.3'
p161
sg10
S'0.0'
p162
sg12
S'.304'
p163
sg14
S'2.0'
p164
sg16
g3
sg17
S'0.0'
p165
sg18
S'12.7'
p166
sg20
S'SF'
p167
sg22
S'.833'
p168
sg26
S'NBA'
p169
sg28
S'0.0'
p170
sg29
S'15.3'
p171
sg31
S'4.7'
p172
sg33
S'4.0'
p173
sg35
S'7.3'
p174
sg37
S'23'
p175
sg39
S'POR'
p176
sg41
S'15'
p177
sg43
S'0.0'
p178
sg44
S'4.7'
p179
sg45
S'3.3'
p180
sg47
S'15.3'
p181
sg49
S'6.0'
p182
sg51
S'1987-88'
p183
sg53
S'4.7'
p184
sg54
S'3.3'
p185
sg55
S'.304'
p186
sg57
S'54'
p187
sg59
g11
sbasS'_fromYear'
p188
S'1988'
p189
sS'_url'
p190
S'http://www.basketball-reference.com/players/w/wilsoni01.html'
p191
sS'_perGame'
p192
(isrc.gp1.models.PerGame
PerGame
p193
(dp194
g8
S'0.1'
p195
sg10
S'0.0'
p196
sg12
S'.304'
p197
sS'_effectiveFieldGalPercentage'
p198
S'.304'
p199
sg14
S'0.2'
p200
sg16
g3
sg17
S'0.0'
p201
sg18
S'1.3'
p202
sg20
S'SF'
p203
sg22
S'.833'
p204
sg26
S'NBA'
p205
sg28
S'0.0'
p206
sg31
S'0.5'
p207
sS'_fieldGoalsttempted'
p208
S'1.5'
p209
sg33
S'0.4'
p210
sg35
S'0.7'
p211
sg37
S'23'
p212
sg39
S'POR'
p213
sg41
S'15'
p214
sg43
S'0.0'
p215
sg44
S'0.5'
p216
sg45
S'0.3'
p217
sg47
S'1.5'
p218
sg49
S'0.6'
p219
sg51
S'1987-88'
p220
sg53
S'0.5'
p221
sg54
S'0.3'
p222
sg55
S'.304'
p223
sg57
S'3.6'
p224
sg59
g11
sbsS'_weight'
p225
S'200'
p226
sS'_dob'
p227
S'25-2-1964'
p228
sS'_salary'
p229
(lp230
sg20
S'F'
p231
sb.