(isrc.gp1.models.Player
Player
p0
(dp1
S'_experience'
p2
S'NA'
p3
sS'_totals'
p4
(lp5
(isrc.gp1.models.Totals
Totals
p6
(dp7
S'_offensiveRebounds'
p8
S'50'
p9
sS'_threePointsAttempted'
p10
g3
sS'_fieldGoalsPercentage'
p11
S'.485'
p12
sS'_assist'
p13
S'10'
p14
sS'_threePointsPercentage'
p15
g3
sS'_threePoints'
p16
g3
sS'_points'
p17
S'229'
p18
sS'_position'
p19
S'PF'
p20
sS'_freeThrowsPercentage'
p21
S'.547'
p22
sS'_effectiveFieldGoalPercentage'
p23
S'.485'
p24
sS'_league'
p25
S'NBA'
p26
sS'_steals'
p27
S'18'
p28
sS'_fieldGoalsAttempted'
p29
S'206'
p30
sS'_personalFouls'
p31
S'75'
p32
sS'_freeThrowsAttempted'
p33
S'53'
p34
sS'_totalRebounds'
p35
S'156'
p36
sS'_age'
p37
S'22'
p38
sS'_team'
p39
S'TOT'
p40
sS'_games'
p41
S'38'
p42
sS'_blocks'
p43
S'37'
p44
sS'_twoPoints'
p45
S'100'
p46
sS'_freeThrows'
p47
S'29'
p48
sS'_twoPointsAttempted'
p49
S'206'
p50
sS'_defensiveRebounds'
p51
S'106'
p52
sS'_season'
p53
S'1977-78'
p54
sS'_fieldGoals'
p55
S'100'
p56
sS'_turnOvers'
p57
S'63'
p58
sS'_twoPointsPercentage'
p59
S'.485'
p60
sS'_minutesPlayed'
p61
S'561'
p62
sS'_gamesStarted'
p63
g3
sba(isrc.gp1.models.Totals
Totals
p64
(dp65
g8
S'2'
p66
sg10
g3
sg11
S'.421'
p67
sg13
S'1'
p68
sg15
g3
sg16
g3
sg17
S'19'
p69
sg19
S'PF'
p70
sg21
S'.500'
p71
sg23
S'.421'
p72
sg25
S'NBA'
p73
sg27
g68
sg29
S'19'
p74
sg31
S'3'
p75
sg33
S'6'
p76
sg35
S'14'
p77
sg37
S'22'
p78
sg39
S'PHI'
p79
sg41
S'14'
p80
sg43
g66
sg45
S'8'
p81
sg47
g75
sg49
S'19'
p82
sg51
S'12'
p83
sg53
S'1977-78'
p84
sg55
g81
sg57
S'10'
p85
sg59
S'.421'
p86
sg61
S'38'
p87
sg63
g3
sba(isrc.gp1.models.Totals
Totals
p88
(dp89
g8
S'48'
p90
sg10
g3
sg11
S'.492'
p91
sg13
S'9'
p92
sg15
g3
sg16
g3
sg17
S'210'
p93
sg19
S'PF'
p94
sg21
S'.553'
p95
sg23
S'.492'
p96
sg25
S'NBA'
p97
sg27
S'17'
p98
sg29
S'187'
p99
sg31
S'72'
p100
sg33
S'47'
p101
sg35
S'142'
p102
sg37
S'22'
p103
sg39
S'NJN'
p104
sg41
S'24'
p105
sg43
S'35'
p106
sg45
S'92'
p107
sg47
S'26'
p108
sg49
S'187'
p109
sg51
S'94'
p110
sg53
S'1977-78'
p111
sg55
S'92'
p112
sg57
S'53'
p113
sg59
S'.492'
p114
sg61
S'523'
p115
sg63
g3
sba(isrc.gp1.models.Totals
Totals
p116
(dp117
g8
S'88'
p118
sg10
g3
sg11
S'.502'
p119
sg13
S'47'
p120
sg15
g3
sg16
g3
sg17
S'502'
p121
sg19
S'PF'
p122
sg21
S'.635'
p123
sg23
S'.502'
p124
sg25
S'NBA'
p125
sg27
S'31'
p126
sg29
S'434'
p127
sg31
S'186'
p128
sg33
S'104'
p129
sg35
S'294'
p130
sg37
S'23'
p131
sg39
S'NJN'
p132
sg41
S'62'
p133
sg43
S'67'
p134
sg45
S'218'
p135
sg47
S'66'
p136
sg49
S'434'
p137
sg51
S'206'
p138
sg53
S'1978-79'
p139
sg55
S'218'
p140
sg57
S'98'
p141
sg59
S'.502'
p142
sg61
S'1139'
p143
sg63
g3
sbasS'_college'
p144
S'Old Dominion University'
p145
sS'_toYear'
p146
S'1979'
p147
sS'_height'
p148
S'6-9'
p149
sS'_active'
p150
I00
sS'_shootingHand'
p151
VRight
p152
sS'_name'
p153
S'Wilson Washington'
p154
sS'_per100Possessions'
p155
(lp156
(isrc.gp1.models.Per100Possession
Per100Possession
p157
(dp158
g8
S'3.9'
p159
sg10
g3
sg11
S'.485'
p160
sS'_offensiveRating'
p161
S'86'
p162
sg13
S'0.8'
p163
sg15
g3
sg16
g3
sg17
S'17.7'
p164
sg19
S'PF'
p165
sS'_defensiveRating'
p166
S'98'
p167
sg21
S'.547'
p168
sg25
S'NBA'
p169
sg27
S'1.4'
p170
sg29
S'15.9'
p171
sg31
S'5.8'
p172
sg33
S'4.1'
p173
sg35
S'12.0'
p174
sg37
S'22'
p175
sg39
S'TOT'
p176
sg41
S'38'
p177
sg43
S'2.9'
p178
sg45
S'7.7'
p179
sg47
S'2.2'
p180
sg49
S'15.9'
p181
sg51
S'8.2'
p182
sg53
S'1977-78'
p183
sg55
S'7.7'
p184
sg57
S'4.9'
p185
sg59
S'.485'
p186
sg61
S'561'
p187
sg63
g3
sba(isrc.gp1.models.Per100Possession
Per100Possession
p188
(dp189
g8
S'2.3'
p190
sg10
g3
sg11
S'.421'
p191
sg161
S'64'
p192
sg13
S'1.2'
p193
sg15
g3
sg16
g3
sg17
S'22.1'
p194
sg19
S'PF'
p195
sg166
S'95'
p196
sg21
S'.500'
p197
sg25
S'NBA'
p198
sg27
S'1.2'
p199
sg29
S'22.1'
p200
sg31
S'3.5'
p201
sg33
S'7.0'
p202
sg35
S'16.3'
p203
sg37
S'22'
p204
sg39
S'PHI'
p205
sg41
S'14'
p206
sg43
S'2.3'
p207
sg45
S'9.3'
p208
sg47
S'3.5'
p209
sg49
S'22.1'
p210
sg51
S'14.0'
p211
sg53
S'1977-78'
p212
sg55
S'9.3'
p213
sg57
S'11.7'
p214
sg59
S'.421'
p215
sg61
S'38'
p216
sg63
g3
sba(isrc.gp1.models.Per100Possession
Per100Possession
p217
(dp218
g8
S'4.0'
p219
sg10
g3
sg11
S'.492'
p220
sg161
S'89'
p221
sg13
S'0.7'
p222
sg15
g3
sg16
g3
sg17
S'17.4'
p223
sg19
S'PF'
p224
sg166
S'98'
p225
sg21
S'.553'
p226
sg25
S'NBA'
p227
sg27
S'1.4'
p228
sg29
S'15.5'
p229
sg31
S'6.0'
p230
sg33
S'3.9'
p231
sg35
S'11.7'
p232
sg37
S'22'
p233
sg39
S'NJN'
p234
sg41
S'24'
p235
sg43
S'2.9'
p236
sg45
S'7.6'
p237
sg47
S'2.2'
p238
sg49
S'15.5'
p239
sg51
S'7.8'
p240
sg53
S'1977-78'
p241
sg55
S'7.6'
p242
sg57
S'4.4'
p243
sg59
S'.492'
p244
sg61
S'523'
p245
sg63
g3
sba(isrc.gp1.models.Per100Possession
Per100Possession
p246
(dp247
g8
S'3.4'
p248
sg10
g3
sg11
S'.502'
p249
sg161
S'97'
p250
sg13
S'1.8'
p251
sg15
g3
sg16
g3
sg17
S'19.3'
p252
sg19
S'PF'
p253
sg166
S'100'
p254
sg21
S'.635'
p255
sg25
S'NBA'
p256
sg27
S'1.2'
p257
sg29
S'16.7'
p258
sg31
S'7.2'
p259
sg33
S'4.0'
p260
sg35
S'11.3'
p261
sg37
S'23'
p262
sg39
S'NJN'
p263
sg41
S'62'
p264
sg43
S'2.6'
p265
sg45
S'8.4'
p266
sg47
S'2.5'
p267
sg49
S'16.7'
p268
sg51
S'7.9'
p269
sg53
S'1978-79'
p270
sg55
S'8.4'
p271
sg57
S'3.8'
p272
sg59
S'.502'
p273
sg61
S'1139'
p274
sg63
g3
sbasS'_advanced'
p275
(lp276
(isrc.gp1.models.Advanced
Advanced
p277
(dp278
S'_offensiveReboundPercentage'
p279
S'8.3'
p280
sS'_turnOverPercentage'
p281
S'21.6'
p282
sS'_winSharesPer48Minutes'
p283
S'.026'
p284
sS'_stealPercentage'
p285
S'1.4'
p286
sS'_usagePercentage'
p287
S'19.3'
p288
sS'_totalReboundsPercentage'
p289
S'13.5'
p290
sS'_defensiveBoxPlusMinus'
p291
S'0.2'
p292
sg19
S'PF'
p293
sS'_valueOverReplacementPlayer'
p294
S'-0.3'
p295
sS'_trueShootingPercentage'
p296
S'.499'
p297
sS'_defensiveReboundPercentage'
p298
S'19.2'
p299
sS'_freeThrowsAttempRate'
p300
S'.257'
p301
sS'_threePointsAttempRate'
p302
g3
sg25
S'NBA'
p303
sS'_offensiveBoxPlusMinues'
p304
S'-4.6'
p305
sS'_assistPercentage'
p306
S'2.5'
p307
sS'_defensiveWinShares'
p308
S'0.8'
p309
sg37
S'22'
p310
sg39
S'TOT'
p311
sg41
S'38'
p312
sS'_blockPercentage'
p313
S'3.4'
p314
sS'_playerEfficiencyRating'
p315
S'11.4'
p316
sS'_offensiveWinShares'
p317
S'-0.5'
p318
sg61
S'561'
p319
sS'_boxPlusMinus'
p320
S'-4.4'
p321
sg53
S'1977-78'
p322
sS'_winShares'
p323
S'0.3'
p324
sba(isrc.gp1.models.Advanced
Advanced
p325
(dp326
g279
S'5.5'
p327
sg281
S'31.6'
p328
sg283
S'-0.184'
p329
sg285
S'1.2'
p330
sg287
S'31.5'
p331
sg289
S'18.7'
p332
sg291
S'-2.5'
p333
sg19
S'PF'
p334
sg294
S'-0.1'
p335
sg296
S'.439'
p336
sg298
S'30.9'
p337
sg300
S'.316'
p338
sg302
g3
sg25
S'NBA'
p339
sg304
S'-13.2'
p340
sg306
S'3.7'
p341
sg308
S'0.1'
p342
sg37
S'22'
p343
sg39
S'PHI'
p344
sg41
S'14'
p345
sg313
S'2.7'
p346
sg315
S'5.5'
p347
sg317
S'-0.2'
p348
sg61
S'38'
p349
sg320
S'-15.7'
p350
sg53
S'1977-78'
p351
sg323
S'-0.1'
p352
sba(isrc.gp1.models.Advanced
Advanced
p353
(dp354
g279
S'8.5'
p355
sg281
S'20.3'
p356
sg283
S'.041'
p357
sg285
S'1.4'
p358
sg287
S'18.4'
p359
sg289
S'13.2'
p360
sg291
S'0.4'
p361
sg19
S'PF'
p362
sg294
S'-0.2'
p363
sg296
S'.506'
p364
sg298
S'18.3'
p365
sg300
S'.251'
p366
sg302
g3
sg25
S'NBA'
p367
sg304
S'-4.0'
p368
sg306
S'2.4'
p369
sg308
S'0.7'
p370
sg37
S'22'
p371
sg39
S'NJN'
p372
sg41
S'24'
p373
sg313
S'3.5'
p374
sg315
S'11.9'
p375
sg317
S'-0.3'
p376
sg61
S'523'
p377
sg320
S'-3.6'
p378
sg53
S'1977-78'
p379
sg323
S'0.4'
p380
sba(isrc.gp1.models.Advanced
Advanced
p381
(dp382
g279
S'7.8'
p383
sg281
S'17.0'
p384
sg283
S'.077'
p385
sg285
S'1.2'
p386
sg287
S'19.0'
p387
sg289
S'13.6'
p388
sg291
S'0.5'
p389
sg19
S'PF'
p390
sg294
S'-0.1'
p391
sg296
S'.523'
p392
sg298
S'19.8'
p393
sg300
S'.240'
p394
sg302
g3
sg25
S'NBA'
p395
sg304
S'-3.0'
p396
sg306
S'6.0'
p397
sg308
S'1.7'
p398
sg37
S'23'
p399
sg39
S'NJN'
p400
sg41
S'62'
p401
sg313
S'3.2'
p402
sg315
S'12.9'
p403
sg317
S'0.2'
p404
sg61
S'1139'
p405
sg320
S'-2.5'
p406
sg53
S'1978-79'
p407
sg323
S'1.8'
p408
sbasS'_per36Minutes'
p409
(lp410
(isrc.gp1.models.Per36Minutes
Per36Minutes
p411
(dp412
g8
S'3.2'
p413
sg10
g3
sg11
S'.485'
p414
sg13
S'0.6'
p415
sg15
g3
sg16
g3
sg17
S'14.7'
p416
sg19
S'PF'
p417
sg21
S'.547'
p418
sg25
S'NBA'
p419
sg27
S'1.2'
p420
sg29
S'13.2'
p421
sg31
S'4.8'
p422
sg33
S'3.4'
p423
sg35
S'10.0'
p424
sg37
S'22'
p425
sg39
S'TOT'
p426
sg41
S'38'
p427
sg43
S'2.4'
p428
sg45
S'6.4'
p429
sg47
S'1.9'
p430
sg49
S'13.2'
p431
sg51
S'6.8'
p432
sg53
S'1977-78'
p433
sg55
S'6.4'
p434
sg57
S'4.0'
p435
sg59
S'.485'
p436
sg61
S'561'
p437
sg63
g3
sba(isrc.gp1.models.Per36Minutes
Per36Minutes
p438
(dp439
g8
S'1.9'
p440
sg10
g3
sg11
S'.421'
p441
sg13
S'0.9'
p442
sg15
g3
sg16
g3
sg17
S'18.0'
p443
sg19
S'PF'
p444
sg21
S'.500'
p445
sg25
S'NBA'
p446
sg27
S'0.9'
p447
sg29
S'18.0'
p448
sg31
S'2.8'
p449
sg33
S'5.7'
p450
sg35
S'13.3'
p451
sg37
S'22'
p452
sg39
S'PHI'
p453
sg41
S'14'
p454
sg43
S'1.9'
p455
sg45
S'7.6'
p456
sg47
S'2.8'
p457
sg49
S'18.0'
p458
sg51
S'11.4'
p459
sg53
S'1977-78'
p460
sg55
S'7.6'
p461
sg57
S'9.5'
p462
sg59
S'.421'
p463
sg61
S'38'
p464
sg63
g3
sba(isrc.gp1.models.Per36Minutes
Per36Minutes
p465
(dp466
g8
S'3.3'
p467
sg10
g3
sg11
S'.492'
p468
sg13
S'0.6'
p469
sg15
g3
sg16
g3
sg17
S'14.5'
p470
sg19
S'PF'
p471
sg21
S'.553'
p472
sg25
S'NBA'
p473
sg27
S'1.2'
p474
sg29
S'12.9'
p475
sg31
S'5.0'
p476
sg33
S'3.2'
p477
sg35
S'9.8'
p478
sg37
S'22'
p479
sg39
S'NJN'
p480
sg41
S'24'
p481
sg43
S'2.4'
p482
sg45
S'6.3'
p483
sg47
S'1.8'
p484
sg49
S'12.9'
p485
sg51
S'6.5'
p486
sg53
S'1977-78'
p487
sg55
S'6.3'
p488
sg57
S'3.6'
p489
sg59
S'.492'
p490
sg61
S'523'
p491
sg63
g3
sba(isrc.gp1.models.Per36Minutes
Per36Minutes
p492
(dp493
g8
S'2.8'
p494
sg10
g3
sg11
S'.502'
p495
sg13
S'1.5'
p496
sg15
g3
sg16
g3
sg17
S'15.9'
p497
sg19
S'PF'
p498
sg21
S'.635'
p499
sg25
S'NBA'
p500
sg27
S'1.0'
p501
sg29
S'13.7'
p502
sg31
S'5.9'
p503
sg33
S'3.3'
p504
sg35
S'9.3'
p505
sg37
S'23'
p506
sg39
S'NJN'
p507
sg41
S'62'
p508
sg43
S'2.1'
p509
sg45
S'6.9'
p510
sg47
S'2.1'
p511
sg49
S'13.7'
p512
sg51
S'6.5'
p513
sg53
S'1978-79'
p514
sg55
S'6.9'
p515
sg57
S'3.1'
p516
sg59
S'.502'
p517
sg61
S'1139'
p518
sg63
g3
sbasS'_fromYear'
p519
S'1978'
p520
sS'_url'
p521
S'http://www.basketball-reference.com/players/w/washiwi01.html'
p522
sS'_perGame'
p523
(isrc.gp1.models.PerGame
PerGame
p524
(dp525
g8
S'1.4'
p526
sg10
g3
sg11
S'.502'
p527
sS'_effectiveFieldGalPercentage'
p528
S'.502'
p529
sg13
S'0.8'
p530
sg15
g3
sg16
g3
sg17
S'8.1'
p531
sg19
S'PF'
p532
sg21
S'.635'
p533
sg25
S'NBA'
p534
sg27
S'0.5'
p535
sg31
S'3.0'
p536
sS'_fieldGoalsttempted'
p537
S'7.0'
p538
sg33
S'1.7'
p539
sg35
S'4.7'
p540
sg37
S'23'
p541
sg39
S'NJN'
p542
sg41
S'62'
p543
sg43
S'1.1'
p544
sg45
S'3.5'
p545
sg47
S'1.1'
p546
sg49
S'7.0'
p547
sg51
S'3.3'
p548
sg53
S'1978-79'
p549
sg55
S'3.5'
p550
sg57
S'1.6'
p551
sg59
S'.502'
p552
sg61
S'18.4'
p553
sg63
g3
sbsS'_weight'
p554
S'227'
p555
sS'_dob'
p556
S'3-8-1955'
p557
sS'_salary'
p558
(lp559
sg19
S'F-C'
p560
sb.