(isrc.gp1.models.Player
Player
p0
(dp1
S'_experience'
p2
S'NA'
p3
sS'_totals'
p4
(lp5
(isrc.gp1.models.Totals
Totals
p6
(dp7
S'_offensiveRebounds'
p8
g3
sS'_threePointsAttempted'
p9
S'.461'
p10
sS'_fieldGoalsPercentage'
p11
S'1065'
p12
sS'_assist'
p13
g3
sS'_threePointsPercentage'
p14
S'.461'
p15
sS'_threePoints'
p16
S'2311'
p17
sS'_points'
p18
g3
sS'_position'
p19
S'C'
p20
sS'_freeThrowsPercentage'
p21
S'2707'
p22
sS'_effectiveFieldGoalPercentage'
p23
S'1941'
p24
sS'_league'
p25
S'NBA'
p26
sS'_steals'
p27
g3
sS'_fieldGoalsAttempted'
p28
S'.461'
p29
sS'_personalFouls'
p30
g3
sS'_freeThrowsAttempted'
p31
S'150'
p32
sS'_totalRebounds'
p33
g3
sS'_age'
p34
S'23'
p35
sS'_team'
p36
S'PHW'
p37
sS'_games'
p38
S'72'
p39
sS'_blocks'
p40
g3
sS'_twoPoints'
p41
S'577'
p42
sS'_freeThrows'
p43
S'168'
p44
sS'_twoPointsAttempted'
p45
S'991'
p46
sS'_defensiveRebounds'
p47
g3
sS'_season'
p48
S'1959-60'
p49
sS'_fieldGoals'
p50
S'2311'
p51
sS'_turnOvers'
p52
g3
sS'_twoPointsPercentage'
p53
S'.582'
p54
sS'_minutesPlayed'
p55
S'1065'
p56
sS'_gamesStarted'
p57
S'3338'
p58
sba(isrc.gp1.models.Totals
Totals
p59
(dp60
g8
g3
sg9
S'.509'
p61
sg11
S'1251'
p62
sg13
g3
sg14
S'.509'
p63
sg16
S'2457'
p64
sg18
g3
sg19
g20
sg21
S'3033'
p65
sg23
S'2149'
p66
sg25
S'NBA'
p67
sg27
g3
sg28
S'.509'
p68
sg30
g3
sg31
S'130'
p69
sg33
g3
sg34
S'24'
p70
sg36
S'PHW'
p71
sg38
S'79'
p72
sg40
g3
sg41
S'531'
p73
sg43
S'148'
p74
sg45
S'1054'
p75
sg47
g3
sg48
S'1960-61'
p76
sg50
S'2457'
p77
sg52
g3
sg53
S'.504'
p78
sg55
S'1251'
p79
sg57
S'3773'
p80
sba(isrc.gp1.models.Totals
Totals
p81
(dp82
g8
g3
sg9
S'.506'
p83
sg11
S'1597'
p84
sg13
g3
sg14
S'.506'
p85
sg16
S'3159'
p86
sg18
g3
sg19
g20
sg21
S'4029'
p87
sg23
S'2052'
p88
sg25
S'NBA'
p89
sg27
g3
sg28
S'.506'
p90
sg30
g3
sg31
S'123'
p91
sg33
g3
sg34
S'25'
p92
sg36
S'PHW'
p93
sg38
S'80'
p94
sg40
g3
sg41
S'835'
p95
sg43
S'192'
p96
sg45
S'1363'
p97
sg47
g3
sg48
S'1961-62'
p98
sg50
S'3159'
p99
sg52
g3
sg53
S'.613'
p100
sg55
S'1597'
p101
sg57
S'3882'
p102
sba(isrc.gp1.models.Totals
Totals
p103
(dp104
g8
g3
sg9
S'.528'
p105
sg11
S'1463'
p106
sg13
g3
sg14
S'.528'
p107
sg16
S'2770'
p108
sg18
g3
sg19
g20
sg21
S'3586'
p109
sg23
S'1946'
p110
sg25
S'NBA'
p111
sg27
g3
sg28
S'.528'
p112
sg30
g3
sg31
S'136'
p113
sg33
g3
sg34
S'26'
p114
sg36
S'SFW'
p115
sg38
S'80'
p116
sg40
g3
sg41
S'660'
p117
sg43
S'275'
p118
sg45
S'1113'
p119
sg47
g3
sg48
S'1962-63'
p120
sg50
S'2770'
p121
sg52
g3
sg53
S'.593'
p122
sg55
S'1463'
p123
sg57
S'3806'
p124
sba(isrc.gp1.models.Totals
Totals
p125
(dp126
g8
g3
sg9
S'.524'
p127
sg11
S'1204'
p128
sg13
g3
sg14
S'.524'
p129
sg16
S'2298'
p130
sg18
g3
sg19
g20
sg21
S'2948'
p131
sg23
S'1787'
p132
sg25
S'NBA'
p133
sg27
g3
sg28
S'.524'
p134
sg30
g3
sg31
S'182'
p135
sg33
g3
sg34
S'27'
p136
sg36
S'SFW'
p137
sg38
S'80'
p138
sg40
g3
sg41
S'540'
p139
sg43
S'403'
p140
sg45
S'1016'
p141
sg47
g3
sg48
S'1963-64'
p142
sg50
S'2298'
p143
sg52
g3
sg53
S'.531'
p144
sg55
S'1204'
p145
sg57
S'3689'
p146
sba(isrc.gp1.models.Totals
Totals
p147
(dp148
g8
g3
sg9
S'.510'
p149
sg11
S'1063'
p150
sg13
g3
sg14
S'.510'
p151
sg16
S'2083'
p152
sg18
g3
sg19
g20
sg21
S'2534'
p153
sg23
S'1673'
p154
sg25
S'NBA'
p155
sg27
g3
sg28
S'.510'
p156
sg30
g3
sg31
S'146'
p157
sg33
g3
sg34
S'28'
p158
sg36
S'TOT'
p159
sg38
S'73'
p160
sg40
g3
sg41
S'408'
p161
sg43
S'250'
p162
sg45
S'880'
p163
sg47
g3
sg48
S'1964-65'
p164
sg50
S'2083'
p165
sg52
g3
sg53
S'.464'
p166
sg55
S'1063'
p167
sg57
S'3301'
p168
sba(isrc.gp1.models.Totals
Totals
p169
(dp170
g8
g3
sg9
S'.499'
p171
sg11
S'636'
p172
sg13
g3
sg14
S'.499'
p173
sg16
S'1275'
p174
sg18
g3
sg19
g20
sg21
S'1480'
p175
sg23
S'893'
p176
sg25
S'NBA'
p177
sg27
g3
sg28
S'.499'
p178
sg30
g3
sg31
S'76'
p179
sg33
g3
sg34
S'28'
p180
sg36
S'SFW'
p181
sg38
S'38'
p182
sg40
g3
sg41
S'208'
p183
sg43
S'117'
p184
sg45
S'500'
p185
sg47
g3
sg48
S'1964-65'
p186
sg50
S'1275'
p187
sg52
g3
sg53
S'.416'
p188
sg55
S'636'
p189
sg57
S'1743'
p190
sba(isrc.gp1.models.Totals
Totals
p191
(dp192
g8
g3
sg9
S'.528'
p193
sg11
S'427'
p194
sg13
g3
sg14
S'.528'
p195
sg16
S'808'
p196
sg18
g3
sg19
g20
sg21
S'1054'
p197
sg23
S'780'
p198
sg25
S'NBA'
p199
sg27
g3
sg28
S'.528'
p200
sg30
g3
sg31
S'70'
p201
sg33
g3
sg34
S'28'
p202
sg36
S'PHI'
p203
sg38
S'35'
p204
sg40
g3
sg41
S'200'
p205
sg43
S'133'
p206
sg45
S'380'
p207
sg47
g3
sg48
S'1964-65'
p208
sg50
S'808'
p209
sg52
g3
sg53
S'.526'
p210
sg55
S'427'
p211
sg57
S'1558'
p212
sba(isrc.gp1.models.Totals
Totals
p213
(dp214
g8
g3
sg9
S'.540'
p215
sg11
S'1074'
p216
sg13
g3
sg14
S'.540'
p217
sg16
S'1990'
p218
sg18
g3
sg19
g20
sg21
S'2649'
p219
sg23
S'1943'
p220
sg25
S'NBA'
p221
sg27
g3
sg28
S'.540'
p222
sg30
g3
sg31
S'171'
p223
sg33
g3
sg34
S'29'
p224
sg36
S'PHI'
p225
sg38
S'79'
p226
sg40
g3
sg41
S'501'
p227
sg43
S'414'
p228
sg45
S'976'
p229
sg47
g3
sg48
S'1965-66'
p230
sg50
S'1990'
p231
sg52
g3
sg53
S'.513'
p232
sg55
S'1074'
p233
sg57
S'3737'
p234
sba(isrc.gp1.models.Totals
Totals
p235
(dp236
g8
g3
sg9
S'.683'
p237
sg11
S'785'
p238
sg13
g3
sg14
S'.683'
p239
sg16
S'1150'
p240
sg18
g3
sg19
g20
sg21
S'1956'
p241
sg23
S'1957'
p242
sg25
S'NBA'
p243
sg27
g3
sg28
S'.683'
p244
sg30
g3
sg31
S'143'
p245
sg33
g3
sg34
S'30'
p246
sg36
S'PHI'
p247
sg38
S'81'
p248
sg40
g3
sg41
S'386'
p249
sg43
S'630'
p250
sg45
S'875'
p251
sg47
g3
sg48
S'1966-67'
p252
sg50
S'1150'
p253
sg52
g3
sg53
S'.441'
p254
sg55
S'785'
p255
sg57
S'3682'
p256
sba(isrc.gp1.models.Totals
Totals
p257
(dp258
g8
g3
sg9
S'.595'
p259
sg11
S'819'
p260
sg13
g3
sg14
S'.595'
p261
sg16
S'1377'
p262
sg18
g3
sg19
g20
sg21
S'1992'
p263
sg23
S'1952'
p264
sg25
S'NBA'
p265
sg27
g3
sg28
S'.595'
p266
sg30
g3
sg31
S'160'
p267
sg33
g3
sg34
S'31'
p268
sg36
S'PHI'
p269
sg38
S'82'
p270
sg40
g3
sg41
S'354'
p271
sg43
S'702'
p272
sg45
S'932'
p273
sg47
g3
sg48
S'1967-68'
p274
sg50
S'1377'
p275
sg52
g3
sg53
S'.380'
p276
sg55
S'819'
p277
sg57
S'3836'
p278
sba(isrc.gp1.models.Totals
Totals
p279
(dp280
g8
g3
sg9
S'.583'
p281
sg11
S'641'
p282
sg13
g3
sg14
S'.583'
p283
sg16
S'1099'
p284
sg18
g3
sg19
g20
sg21
S'1664'
p285
sg23
S'1712'
p286
sg25
S'NBA'
p287
sg27
g3
sg28
S'.583'
p288
sg30
g3
sg31
S'142'
p289
sg33
g3
sg34
S'32'
p290
sg36
S'LAL'
p291
sg38
S'81'
p292
sg40
g3
sg41
S'382'
p293
sg43
S'366'
p294
sg45
S'857'
p295
sg47
g3
sg48
S'1968-69'
p296
sg50
S'1099'
p297
sg52
g3
sg53
S'.446'
p298
sg55
S'641'
p299
sg57
S'3669'
p300
sba(isrc.gp1.models.Totals
Totals
p301
(dp302
g8
g3
sg9
S'.568'
p303
sg11
S'129'
p304
sg13
g3
sg14
S'.568'
p305
sg16
S'227'
p306
sg18
g3
sg19
g20
sg21
S'328'
p307
sg23
S'221'
p308
sg25
S'NBA'
p309
sg27
g3
sg28
S'.568'
p310
sg30
g3
sg31
S'31'
p311
sg33
g3
sg34
S'33'
p312
sg36
S'LAL'
p313
sg38
S'12'
p314
sg40
g3
sg41
S'70'
p315
sg43
S'49'
p316
sg45
S'157'
p317
sg47
g3
sg48
S'1969-70'
p318
sg50
S'227'
p319
sg52
g3
sg53
S'.446'
p320
sg55
S'129'
p321
sg57
S'505'
p322
sba(isrc.gp1.models.Totals
Totals
p323
(dp324
g8
g3
sg9
S'.545'
p325
sg11
S'668'
p326
sg13
g3
sg14
S'.545'
p327
sg16
S'1226'
p328
sg18
g3
sg19
g20
sg21
S'1696'
p329
sg23
S'1493'
p330
sg25
S'NBA'
p331
sg27
g3
sg28
S'.545'
p332
sg30
g3
sg31
S'174'
p333
sg33
g3
sg34
S'34'
p334
sg36
S'LAL'
p335
sg38
S'82'
p336
sg40
g3
sg41
S'360'
p337
sg43
S'352'
p338
sg45
S'669'
p339
sg47
g3
sg48
S'1970-71'
p340
sg50
S'1226'
p341
sg52
g3
sg53
S'.538'
p342
sg55
S'668'
p343
sg57
S'3630'
p344
sba(isrc.gp1.models.Totals
Totals
p345
(dp346
g8
g3
sg9
S'.649'
p347
sg11
S'496'
p348
sg13
g3
sg14
S'.649'
p349
sg16
S'764'
p350
sg18
g3
sg19
g20
sg21
S'1213'
p351
sg23
S'1572'
p352
sg25
S'NBA'
p353
sg27
g3
sg28
S'.649'
p354
sg30
g3
sg31
S'196'
p355
sg33
g3
sg34
S'35'
p356
sg36
S'LAL'
p357
sg38
S'82'
p358
sg40
g3
sg41
S'221'
p359
sg43
S'329'
p360
sg45
S'524'
p361
sg47
g3
sg48
S'1971-72'
p362
sg50
S'764'
p363
sg52
g3
sg53
S'.422'
p364
sg55
S'496'
p365
sg57
S'3469'
p366
sba(isrc.gp1.models.Totals
Totals
p367
(dp368
g8
g3
sg9
S'.727'
p369
sg11
S'426'
p370
sg13
g3
sg14
S'.727'
p371
sg16
S'586'
p372
sg18
g3
sg19
g20
sg21
S'1084'
p373
sg23
S'1526'
p374
sg25
S'NBA'
p375
sg27
g3
sg28
S'.727'
p376
sg30
g3
sg31
S'191'
p377
sg33
g3
sg34
S'36'
p378
sg36
S'LAL'
p379
sg38
S'82'
p380
sg40
g3
sg41
S'232'
p381
sg43
S'365'
p382
sg45
S'455'
p383
sg47
g3
sg48
S'1972-73'
p384
sg50
S'586'
p385
sg52
g3
sg53
S'.510'
p386
sg55
S'426'
p387
sg57
S'3542'
p388
sbasS'_college'
p389
S'University of Kansas'
p390
sS'_toYear'
p391
S'1973'
p392
sS'_height'
p393
S'7-1'
p394
sS'_active'
p395
I00
sS'_shootingHand'
p396
VRight
p397
sS'_name'
p398
S'Wilt Chamberlain'
p399
sS'_per100Possessions'
p400
(lp401
sS'_advanced'
p402
(lp403
(isrc.gp1.models.Advanced
Advanced
p404
(dp405
S'_offensiveReboundPercentage'
p406
S'8.0'
p407
sS'_turnOverPercentage'
p408
g3
sS'_winSharesPer48Minutes'
p409
g3
sS'_stealPercentage'
p410
g3
sS'_usagePercentage'
p411
g3
sS'_totalReboundsPercentage'
p412
S'.245'
p413
sS'_defensiveBoxPlusMinus'
p414
g3
sg19
g20
sS'_valueOverReplacementPlayer'
p415
g3
sS'_trueShootingPercentage'
p416
S'.493'
p417
sS'_defensiveReboundPercentage'
p418
S'17.0'
p419
sS'_freeThrowsAttempRate'
p420
S'9.0'
p421
sS'_threePointsAttempRate'
p422
S'.429'
p423
sg25
S'NBA'
p424
sS'_offensiveBoxPlusMinues'
p425
g3
sS'_assistPercentage'
p426
g3
sS'_defensiveWinShares'
p427
g3
sg34
S'23'
p428
sg36
S'PHW'
p429
sg38
S'72'
p430
sS'_blockPercentage'
p431
g3
sS'_playerEfficiencyRating'
p432
S'28.0'
p433
sS'_offensiveWinShares'
p434
g3
sg55
S'3338'
p435
sS'_boxPlusMinus'
p436
g3
sg48
S'1959-60'
p437
sS'_winShares'
p438
g3
sba(isrc.gp1.models.Advanced
Advanced
p439
(dp440
g406
S'6.5'
p441
sg408
g3
sg409
g3
sg410
g3
sg411
g3
sg412
S'.240'
p442
sg414
g3
sg19
g20
sg415
g3
sg416
S'.519'
p443
sg418
S'18.8'
p444
sg420
S'12.3'
p445
sg422
S'.429'
p446
sg25
S'NBA'
p447
sg425
g3
sg426
g3
sg427
g3
sg34
S'24'
p448
sg36
S'PHW'
p449
sg38
S'79'
p450
sg431
g3
sg432
S'27.8'
p451
sg434
g3
sg55
S'3773'
p452
sg436
g3
sg48
S'1960-61'
p453
sg438
g3
sba(isrc.gp1.models.Advanced
Advanced
p454
(dp455
g406
S'6.0'
p456
sg408
g3
sg409
g3
sg410
g3
sg411
g3
sg412
S'.286'
p457
sg414
g3
sg19
g20
sg415
g3
sg416
S'.536'
p458
sg418
S'23.1'
p459
sg420
S'17.1'
p460
sg422
S'.431'
p461
sg25
S'NBA'
p462
sg425
g3
sg426
g3
sg427
g3
sg34
S'25'
p463
sg36
S'PHW'
p464
sg38
S'80'
p465
sg431
g3
sg432
S'31.7'
p466
sg434
g3
sg55
S'3882'
p467
sg436
g3
sg48
S'1961-62'
p468
sg438
g3
sba(isrc.gp1.models.Advanced
Advanced
p469
(dp470
g406
S'5.0'
p471
sg408
g3
sg409
g3
sg410
g3
sg411
g3
sg412
S'.264'
p472
sg414
g3
sg19
g20
sg415
g3
sg416
S'.550'
p473
sg418
S'20.9'
p474
sg420
S'16.0'
p475
sg422
S'.402'
p476
sg25
S'NBA'
p477
sg425
g3
sg426
g3
sg427
g3
sg34
S'26'
p478
sg36
S'SFW'
p479
sg38
S'80'
p480
sg431
g3
sg432
S'31.8'
p481
sg434
g3
sg55
S'3806'
p482
sg436
g3
sg48
S'1962-63'
p483
sg438
g3
sba(isrc.gp1.models.Advanced
Advanced
p484
(dp485
g406
S'10.6'
p486
sg408
g3
sg409
g3
sg410
g3
sg411
g3
sg412
S'.325'
p487
sg414
g3
sg19
g20
sg415
g3
sg416
S'.537'
p488
sg418
S'25.0'
p489
sg420
S'14.4'
p490
sg422
S'.442'
p491
sg25
S'NBA'
p492
sg425
g3
sg426
g3
sg427
g3
sg34
S'27'
p493
sg36
S'SFW'
p494
sg38
S'80'
p495
sg431
g3
sg432
S'31.6'
p496
sg434
g3
sg55
S'3689'
p497
sg436
g3
sg48
S'1963-64'
p498
sg438
g3
sba(isrc.gp1.models.Advanced
Advanced
p499
(dp500
g406
S'9.6'
p501
sg408
g3
sg409
g3
sg410
g3
sg411
g3
sg412
S'15.1'
p502
sg414
g3
sg19
g20
sg415
g3
sg416
S'.513'
p503
sg418
S'5.5'
p504
sg420
S'13.8'
p505
sg422
S'.422'
p506
sg25
S'NBA'
p507
sg425
g3
sg426
S'.219'
p508
sg427
g3
sg34
S'28'
p509
sg36
S'TOT'
p510
sg38
S'73'
p511
sg431
g3
sg432
S'28.6'
p512
sg434
g3
sg55
S'3301'
p513
sg436
g3
sg48
S'1964-65'
p514
sg438
g3
sba(isrc.gp1.models.Advanced
Advanced
p515
(dp516
g406
S'4.3'
p517
sg408
g3
sg409
g3
sg410
g3
sg411
g3
sg412
S'7.5'
p518
sg414
g3
sg19
g20
sg415
g3
sg416
S'.495'
p519
sg418
S'3.2'
p520
sg420
S'13.6'
p521
sg422
S'.392'
p522
sg25
S'NBA'
p523
sg425
g3
sg426
S'.208'
p524
sg427
g3
sg34
S'28'
p525
sg36
S'SFW'
p526
sg38
S'38'
p527
sg431
g3
sg432
S'29.8'
p528
sg434
g3
sg55
S'1743'
p529
sg436
g3
sg48
S'1964-65'
p530
sg438
g3
sba(isrc.gp1.models.Advanced
Advanced
p531
(dp532
g406
S'5.3'
p533
sg408
g3
sg409
g3
sg410
g3
sg411
g3
sg412
S'7.6'
p534
sg414
g3
sg19
g20
sg415
g3
sg416
S'.540'
p535
sg418
S'2.3'
p536
sg420
S'14.1'
p537
sg422
S'.470'
p538
sg25
S'NBA'
p539
sg425
g3
sg426
S'.233'
p540
sg427
g3
sg34
S'28'
p541
sg36
S'PHI'
p542
sg38
S'35'
p543
sg431
g3
sg432
S'27.3'
p544
sg434
g3
sg55
S'1558'
p545
sg436
g3
sg48
S'1964-65'
p546
sg438
g3
sba(isrc.gp1.models.Advanced
Advanced
p547
(dp548
g406
S'12.9'
p549
sg408
g3
sg409
g3
sg410
g3
sg411
g3
sg412
S'21.4'
p550
sg414
g3
sg19
g20
sg415
g3
sg416
S'.547'
p551
sg418
S'8.5'
p552
sg420
S'16.8'
p553
sg422
S'.490'
p554
sg25
S'NBA'
p555
sg425
g3
sg426
S'.275'
p556
sg427
g3
sg34
S'29'
p557
sg36
S'PHI'
p558
sg38
S'79'
p559
sg431
g3
sg432
S'28.3'
p560
sg434
g3
sg55
S'3737'
p561
sg436
g3
sg48
S'1965-66'
p562
sg438
g3
sba(isrc.gp1.models.Advanced
Advanced
p563
(dp564
g406
S'14.8'
p565
sg408
g3
sg409
g3
sg410
g3
sg411
g3
sg412
S'21.9'
p566
sg414
g3
sg19
g20
sg415
g3
sg416
S'.637'
p567
sg418
S'7.0'
p568
sg420
S'21.7'
p569
sg422
S'.761'
p570
sg25
S'NBA'
p571
sg425
g3
sg426
S'.285'
p572
sg427
g3
sg34
S'30'
p573
sg36
S'PHI'
p574
sg38
S'81'
p575
sg431
g3
sg432
S'26.5'
p576
sg434
g3
sg55
S'3682'
p577
sg436
g3
sg48
S'1966-67'
p578
sg438
g3
sba(isrc.gp1.models.Advanced
Advanced
p579
(dp580
g406
S'9.7'
p581
sg408
g3
sg409
g3
sg410
g3
sg411
g3
sg412
S'20.4'
p582
sg414
g3
sg19
g20
sg415
g3
sg416
S'.557'
p583
sg418
S'10.7'
p584
sg420
S'23.2'
p585
sg422
S'.677'
p586
sg25
S'NBA'
p587
sg425
g3
sg426
S'.255'
p588
sg427
g3
sg34
S'31'
p589
sg36
S'PHI'
p590
sg38
S'82'
p591
sg431
g3
sg432
S'24.7'
p592
sg434
g3
sg55
S'3836'
p593
sg436
g3
sg48
S'1967-68'
p594
sg438
g3
sba(isrc.gp1.models.Advanced
Advanced
p595
(dp596
g406
S'9.4'
p597
sg408
g3
sg409
g3
sg410
g3
sg411
g3
sg412
S'14.7'
p598
sg414
g3
sg19
g20
sg415
g3
sg416
S'.564'
p599
sg418
S'5.3'
p600
sg420
S'13.8'
p601
sg422
S'.780'
p602
sg25
S'NBA'
p603
sg425
g3
sg426
S'.192'
p604
sg427
g3
sg34
S'32'
p605
sg36
S'LAL'
p606
sg38
S'81'
p607
sg431
g3
sg432
S'21.9'
p608
sg434
g3
sg55
S'3669'
p609
sg436
g3
sg48
S'1968-69'
p610
sg438
g3
sba(isrc.gp1.models.Advanced
Advanced
p611
(dp612
g406
S'1.4'
p613
sg408
g3
sg409
g3
sg410
g3
sg411
g3
sg412
S'2.3'
p614
sg414
g3
sg19
g20
sg415
g3
sg416
S'.554'
p615
sg418
S'1.0'
p616
sg420
S'14.5'
p617
sg422
S'.692'
p618
sg25
S'NBA'
p619
sg425
g3
sg426
S'.221'
p620
sg427
g3
sg34
S'33'
p621
sg36
S'LAL'
p622
sg38
S'12'
p623
sg431
g3
sg432
S'24.8'
p624
sg434
g3
sg55
S'505'
p625
sg436
g3
sg48
S'1969-70'
p626
sg438
g3
sba(isrc.gp1.models.Advanced
Advanced
p627
(dp628
g406
S'12.7'
p629
sg408
g3
sg409
g3
sg410
S'.167'
p630
sg411
g3
sg412
S'4.5'
p631
sg414
g3
sg19
g20
sg415
g3
sg416
S'.558'
p632
sg418
S'8.2'
p633
sg420
S'18.4'
p634
sg422
S'.546'
p635
sg25
S'NBA'
p636
sg425
g3
sg426
S'12.6'
p637
sg427
g3
sg34
S'34'
p638
sg36
S'LAL'
p639
sg38
S'82'
p640
sg431
g3
sg432
S'20.3'
p641
sg434
g3
sg55
S'3630'
p642
sg436
g3
sg48
S'1970-71'
p643
sg438
g3
sba(isrc.gp1.models.Advanced
Advanced
p644
(dp645
g406
S'11.2'
p646
sg408
g3
sg409
g3
sg410
S'.219'
p647
sg411
g3
sg412
S'7.9'
p648
sg414
g3
sg19
g20
sg415
g3
sg416
S'.610'
p649
sg418
S'7.9'
p650
sg420
S'20.1'
p651
sg422
S'.686'
p652
sg25
S'NBA'
p653
sg425
g3
sg426
S'15.8'
p654
sg427
g3
sg34
S'35'
p655
sg36
S'LAL'
p656
sg38
S'82'
p657
sg431
g3
sg432
S'18.5'
p658
sg434
g3
sg55
S'3469'
p659
sg436
g3
sg48
S'1971-72'
p660
sg438
g3
sba(isrc.gp1.models.Advanced
Advanced
p661
(dp662
g406
S'12.5'
p663
sg408
g3
sg409
g3
sg410
S'.247'
p664
sg411
g3
sg412
S'7.5'
p665
sg414
g3
sg19
g20
sg415
g3
sg416
S'.689'
p666
sg418
S'10.7'
p667
sg420
S'19.6'
p668
sg422
S'.776'
p669
sg25
S'NBA'
p670
sg425
g3
sg426
S'18.2'
p671
sg427
g3
sg34
S'36'
p672
sg36
S'LAL'
p673
sg38
S'82'
p674
sg431
g3
sg432
S'19.1'
p675
sg434
g3
sg55
S'3542'
p676
sg436
g3
sg48
S'1972-73'
p677
sg438
g3
sbasS'_per36Minutes'
p678
(lp679
(isrc.gp1.models.Per36Minutes
Per36Minutes
p680
(dp681
g8
g3
sg9
S'.461'
p682
sg11
S'11.5'
p683
sg13
g3
sg14
S'6.2'
p684
sg16
S'24.9'
p685
sg18
g3
sg19
g20
sg21
S'29.2'
p686
sg25
S'NBA'
p687
sg27
g3
sg28
S'.461'
p688
sg30
g3
sg31
S'1.6'
p689
sg33
g3
sg34
S'23'
p690
sg36
S'PHW'
p691
sg38
S'72'
p692
sg40
g3
sg41
S'10.7'
p693
sg43
S'1.8'
p694
sg45
S'.582'
p695
sg47
g3
sg48
S'1959-60'
p696
sg50
S'24.9'
p697
sg52
g3
sg53
S'20.9'
p698
sg55
S'11.5'
p699
sg57
S'3338'
p700
sba(isrc.gp1.models.Per36Minutes
Per36Minutes
p701
(dp702
g8
g3
sg9
S'.509'
p703
sg11
S'11.9'
p704
sg13
g3
sg14
S'5.1'
p705
sg16
S'23.4'
p706
sg18
g3
sg19
g20
sg21
S'28.9'
p707
sg25
S'NBA'
p708
sg27
g3
sg28
S'.509'
p709
sg30
g3
sg31
S'1.2'
p710
sg33
g3
sg34
S'24'
p711
sg36
S'PHW'
p712
sg38
S'79'
p713
sg40
g3
sg41
S'10.1'
p714
sg43
S'1.4'
p715
sg45
S'.504'
p716
sg47
g3
sg48
S'1960-61'
p717
sg50
S'23.4'
p718
sg52
g3
sg53
S'20.5'
p719
sg55
S'11.9'
p720
sg57
S'3773'
p721
sba(isrc.gp1.models.Per36Minutes
Per36Minutes
p722
(dp723
g8
g3
sg9
S'.506'
p724
sg11
S'14.8'
p725
sg13
g3
sg14
S'7.7'
p726
sg16
S'29.3'
p727
sg18
g3
sg19
g20
sg21
S'37.4'
p728
sg25
S'NBA'
p729
sg27
g3
sg28
S'.506'
p730
sg30
g3
sg31
S'1.1'
p731
sg33
g3
sg34
S'25'
p732
sg36
S'PHW'
p733
sg38
S'80'
p734
sg40
g3
sg41
S'12.6'
p735
sg43
S'1.8'
p736
sg45
S'.613'
p737
sg47
g3
sg48
S'1961-62'
p738
sg50
S'29.3'
p739
sg52
g3
sg53
S'19.0'
p740
sg55
S'14.8'
p741
sg57
S'3882'
p742
sba(isrc.gp1.models.Per36Minutes
Per36Minutes
p743
(dp744
g8
g3
sg9
S'.528'
p745
sg11
S'13.8'
p746
sg13
g3
sg14
S'6.2'
p747
sg16
S'26.2'
p748
sg18
g3
sg19
g20
sg21
S'33.9'
p749
sg25
S'NBA'
p750
sg27
g3
sg28
S'.528'
p751
sg30
g3
sg31
S'1.3'
p752
sg33
g3
sg34
S'26'
p753
sg36
S'SFW'
p754
sg38
S'80'
p755
sg40
g3
sg41
S'10.5'
p756
sg43
S'2.6'
p757
sg45
S'.593'
p758
sg47
g3
sg48
S'1962-63'
p759
sg50
S'26.2'
p760
sg52
g3
sg53
S'18.4'
p761
sg55
S'13.8'
p762
sg57
S'3806'
p763
sba(isrc.gp1.models.Per36Minutes
Per36Minutes
p764
(dp765
g8
g3
sg9
S'.524'
p766
sg11
S'11.7'
p767
sg13
g3
sg14
S'5.3'
p768
sg16
S'22.4'
p769
sg18
g3
sg19
g20
sg21
S'28.8'
p770
sg25
S'NBA'
p771
sg27
g3
sg28
S'.524'
p772
sg30
g3
sg31
S'1.8'
p773
sg33
g3
sg34
S'27'
p774
sg36
S'SFW'
p775
sg38
S'80'
p776
sg40
g3
sg41
S'9.9'
p777
sg43
S'3.9'
p778
sg45
S'.531'
p779
sg47
g3
sg48
S'1963-64'
p780
sg50
S'22.4'
p781
sg52
g3
sg53
S'17.4'
p782
sg55
S'11.7'
p783
sg57
S'3689'
p784
sba(isrc.gp1.models.Per36Minutes
Per36Minutes
p785
(dp786
g8
g3
sg9
S'.510'
p787
sg11
S'11.6'
p788
sg13
g3
sg14
S'4.4'
p789
sg16
S'22.7'
p790
sg18
g3
sg19
g20
sg21
S'27.6'
p791
sg25
S'NBA'
p792
sg27
g3
sg28
S'.510'
p793
sg30
g3
sg31
S'1.6'
p794
sg33
g3
sg34
S'28'
p795
sg36
S'TOT'
p796
sg38
S'73'
p797
sg40
g3
sg41
S'9.6'
p798
sg43
S'2.7'
p799
sg45
S'.464'
p800
sg47
g3
sg48
S'1964-65'
p801
sg50
S'22.7'
p802
sg52
g3
sg53
S'18.2'
p803
sg55
S'11.6'
p804
sg57
S'3301'
p805
sba(isrc.gp1.models.Per36Minutes
Per36Minutes
p806
(dp807
g8
g3
sg9
S'.499'
p808
sg11
S'13.1'
p809
sg13
g3
sg14
S'4.3'
p810
sg16
S'26.3'
p811
sg18
g3
sg19
g20
sg21
S'30.6'
p812
sg25
S'NBA'
p813
sg27
g3
sg28
S'.499'
p814
sg30
g3
sg31
S'1.6'
p815
sg33
g3
sg34
S'28'
p816
sg36
S'SFW'
p817
sg38
S'38'
p818
sg40
g3
sg41
S'10.3'
p819
sg43
S'2.4'
p820
sg45
S'.416'
p821
sg47
g3
sg48
S'1964-65'
p822
sg50
S'26.3'
p823
sg52
g3
sg53
S'18.4'
p824
sg55
S'13.1'
p825
sg57
S'1743'
p826
sba(isrc.gp1.models.Per36Minutes
Per36Minutes
p827
(dp828
g8
g3
sg9
S'.528'
p829
sg11
S'9.9'
p830
sg13
g3
sg14
S'4.6'
p831
sg16
S'18.7'
p832
sg18
g3
sg19
g20
sg21
S'24.4'
p833
sg25
S'NBA'
p834
sg27
g3
sg28
S'.528'
p835
sg30
g3
sg31
S'1.6'
p836
sg33
g3
sg34
S'28'
p837
sg36
S'PHI'
p838
sg38
S'35'
p839
sg40
g3
sg41
S'8.8'
p840
sg43
S'3.1'
p841
sg45
S'.526'
p842
sg47
g3
sg48
S'1964-65'
p843
sg50
S'18.7'
p844
sg52
g3
sg53
S'18.0'
p845
sg55
S'9.9'
p846
sg57
S'1558'
p847
sba(isrc.gp1.models.Per36Minutes
Per36Minutes
p848
(dp849
g8
g3
sg9
S'.540'
p850
sg11
S'10.3'
p851
sg13
g3
sg14
S'4.8'
p852
sg16
S'19.2'
p853
sg18
g3
sg19
g20
sg21
S'25.5'
p854
sg25
S'NBA'
p855
sg27
g3
sg28
S'.540'
p856
sg30
g3
sg31
S'1.6'
p857
sg33
g3
sg34
S'29'
p858
sg36
S'PHI'
p859
sg38
S'79'
p860
sg40
g3
sg41
S'9.4'
p861
sg43
S'4.0'
p862
sg45
S'.513'
p863
sg47
g3
sg48
S'1965-66'
p864
sg50
S'19.2'
p865
sg52
g3
sg53
S'18.7'
p866
sg55
S'10.3'
p867
sg57
S'3737'
p868
sba(isrc.gp1.models.Per36Minutes
Per36Minutes
p869
(dp870
g8
g3
sg9
S'.683'
p871
sg11
S'7.7'
p872
sg13
g3
sg14
S'3.8'
p873
sg16
S'11.2'
p874
sg18
g3
sg19
g20
sg21
S'19.1'
p875
sg25
S'NBA'
p876
sg27
g3
sg28
S'.683'
p877
sg30
g3
sg31
S'1.4'
p878
sg33
g3
sg34
S'30'
p879
sg36
S'PHI'
p880
sg38
S'81'
p881
sg40
g3
sg41
S'8.6'
p882
sg43
S'6.2'
p883
sg45
S'.441'
p884
sg47
g3
sg48
S'1966-67'
p885
sg50
S'11.2'
p886
sg52
g3
sg53
S'19.1'
p887
sg55
S'7.7'
p888
sg57
S'3682'
p889
sba(isrc.gp1.models.Per36Minutes
Per36Minutes
p890
(dp891
g8
g3
sg9
S'.595'
p892
sg11
S'7.7'
p893
sg13
g3
sg14
S'3.3'
p894
sg16
S'12.9'
p895
sg18
g3
sg19
g20
sg21
S'18.7'
p896
sg25
S'NBA'
p897
sg27
g3
sg28
S'.595'
p898
sg30
g3
sg31
S'1.5'
p899
sg33
g3
sg34
S'31'
p900
sg36
S'PHI'
p901
sg38
S'82'
p902
sg40
g3
sg41
S'8.7'
p903
sg43
S'6.6'
p904
sg45
S'.380'
p905
sg47
g3
sg48
S'1967-68'
p906
sg50
S'12.9'
p907
sg52
g3
sg53
S'18.3'
p908
sg55
S'7.7'
p909
sg57
S'3836'
p910
sba(isrc.gp1.models.Per36Minutes
Per36Minutes
p911
(dp912
g8
g3
sg9
S'.583'
p913
sg11
S'6.3'
p914
sg13
g3
sg14
S'3.7'
p915
sg16
S'10.8'
p916
sg18
g3
sg19
g20
sg21
S'16.3'
p917
sg25
S'NBA'
p918
sg27
g3
sg28
S'.583'
p919
sg30
g3
sg31
S'1.4'
p920
sg33
g3
sg34
S'32'
p921
sg36
S'LAL'
p922
sg38
S'81'
p923
sg40
g3
sg41
S'8.4'
p924
sg43
S'3.6'
p925
sg45
S'.446'
p926
sg47
g3
sg48
S'1968-69'
p927
sg50
S'10.8'
p928
sg52
g3
sg53
S'16.8'
p929
sg55
S'6.3'
p930
sg57
S'3669'
p931
sba(isrc.gp1.models.Per36Minutes
Per36Minutes
p932
(dp933
g8
g3
sg9
S'.568'
p934
sg11
S'9.2'
p935
sg13
g3
sg14
S'5.0'
p936
sg16
S'16.2'
p937
sg18
g3
sg19
g20
sg21
S'23.4'
p938
sg25
S'NBA'
p939
sg27
g3
sg28
S'.568'
p940
sg30
g3
sg31
S'2.2'
p941
sg33
g3
sg34
S'33'
p942
sg36
S'LAL'
p943
sg38
S'12'
p944
sg40
g3
sg41
S'11.2'
p945
sg43
S'3.5'
p946
sg45
S'.446'
p947
sg47
g3
sg48
S'1969-70'
p948
sg50
S'16.2'
p949
sg52
g3
sg53
S'15.8'
p950
sg55
S'9.2'
p951
sg57
S'505'
p952
sba(isrc.gp1.models.Per36Minutes
Per36Minutes
p953
(dp954
g8
g3
sg9
S'.545'
p955
sg11
S'6.6'
p956
sg13
g3
sg14
S'3.6'
p957
sg16
S'12.2'
p958
sg18
g3
sg19
g20
sg21
S'16.8'
p959
sg25
S'NBA'
p960
sg27
g3
sg28
S'.545'
p961
sg30
g3
sg31
S'1.7'
p962
sg33
g3
sg34
S'34'
p963
sg36
S'LAL'
p964
sg38
S'82'
p965
sg40
g3
sg41
S'6.6'
p966
sg43
S'3.5'
p967
sg45
S'.538'
p968
sg47
g3
sg48
S'1970-71'
p969
sg50
S'12.2'
p970
sg52
g3
sg53
S'14.8'
p971
sg55
S'6.6'
p972
sg57
S'3630'
p973
sba(isrc.gp1.models.Per36Minutes
Per36Minutes
p974
(dp975
g8
g3
sg9
S'.649'
p976
sg11
S'5.1'
p977
sg13
g3
sg14
S'2.3'
p978
sg16
S'7.9'
p979
sg18
g3
sg19
g20
sg21
S'12.6'
p980
sg25
S'NBA'
p981
sg27
g3
sg28
S'.649'
p982
sg30
g3
sg31
S'2.0'
p983
sg33
g3
sg34
S'35'
p984
sg36
S'LAL'
p985
sg38
S'82'
p986
sg40
g3
sg41
S'5.4'
p987
sg43
S'3.4'
p988
sg45
S'.422'
p989
sg47
g3
sg48
S'1971-72'
p990
sg50
S'7.9'
p991
sg52
g3
sg53
S'16.3'
p992
sg55
S'5.1'
p993
sg57
S'3469'
p994
sba(isrc.gp1.models.Per36Minutes
Per36Minutes
p995
(dp996
g8
g3
sg9
S'.727'
p997
sg11
S'4.3'
p998
sg13
g3
sg14
S'2.4'
p999
sg16
S'6.0'
p1000
sg18
g3
sg19
g20
sg21
S'11.0'
p1001
sg25
S'NBA'
p1002
sg27
g3
sg28
S'.727'
p1003
sg30
g3
sg31
S'1.9'
p1004
sg33
g3
sg34
S'36'
p1005
sg36
S'LAL'
p1006
sg38
S'82'
p1007
sg40
g3
sg41
S'4.6'
p1008
sg43
S'3.7'
p1009
sg45
S'.510'
p1010
sg47
g3
sg48
S'1972-73'
p1011
sg50
S'6.0'
p1012
sg52
g3
sg53
S'15.5'
p1013
sg55
S'4.3'
p1014
sg57
S'3542'
p1015
sbasS'_fromYear'
p1016
S'1960'
p1017
sS'_url'
p1018
S'http://www.basketball-reference.com/players/c/chambwi01.html'
p1019
sS'_perGame'
p1020
(isrc.gp1.models.PerGame
PerGame
p1021
(dp1022
g8
g3
sg9
S'.727'
p1023
sg11
S'5.2'
p1024
sS'_effectiveFieldGalPercentage'
p1025
S'18.6'
p1026
sg13
g3
sg14
S'.727'
p1027
sg16
S'7.1'
p1028
sg18
g3
sg19
g20
sg21
S'13.2'
p1029
sg25
S'NBA'
p1030
sg27
g3
sg30
g3
sS'_fieldGoalsttempted'
p1031
S'.727'
p1032
sg31
S'2.3'
p1033
sg33
g3
sg34
S'36'
p1034
sg36
S'LAL'
p1035
sg38
S'82'
p1036
sg40
g3
sg41
S'2.8'
p1037
sg43
S'4.5'
p1038
sg45
S'5.5'
p1039
sg47
g3
sg48
S'1972-73'
p1040
sg50
S'7.1'
p1041
sg52
g3
sg53
S'.510'
p1042
sg55
S'5.2'
p1043
sg57
S'43.2'
p1044
sbsS'_weight'
p1045
S'275'
p1046
sS'_dob'
p1047
S'21-8-1936'
p1048
sS'_salary'
p1049
(lp1050
sg19
g20
sb.