(isrc.gp1.models.Player
Player
p0
(dp1
S'_experience'
p2
S'NA'
p3
sS'_totals'
p4
(lp5
(isrc.gp1.models.Totals
Totals
p6
(dp7
S'_offensiveRebounds'
p8
g3
sS'_threePointsAttempted'
p9
g3
sS'_fieldGoalsPercentage'
p10
S'.267'
p11
sS'_assist'
p12
S'32'
p13
sS'_threePointsPercentage'
p14
g3
sS'_threePoints'
p15
g3
sS'_points'
p16
S'36'
p17
sS'_position'
p18
S'PG'
p19
sS'_freeThrowsPercentage'
p20
S'.667'
p21
sS'_effectiveFieldGoalPercentage'
p22
S'.267'
p23
sS'_league'
p24
S'NBA'
p25
sS'_steals'
p26
g3
sS'_fieldGoalsAttempted'
p27
S'60'
p28
sS'_personalFouls'
p29
S'20'
p30
sS'_freeThrowsAttempted'
p31
S'6'
p32
sS'_totalRebounds'
p33
S'47'
p34
sS'_age'
p35
S'27'
p36
sS'_team'
p37
S'DET'
p38
sS'_games'
p39
S'9'
p40
sS'_blocks'
p41
g3
sS'_twoPoints'
p42
S'16'
p43
sS'_freeThrows'
p44
S'4'
p45
sS'_twoPointsAttempted'
p46
S'60'
p47
sS'_defensiveRebounds'
p48
g3
sS'_season'
p49
S'1959-60'
p50
sS'_fieldGoals'
p51
S'16'
p52
sS'_turnOvers'
p53
g3
sS'_twoPointsPercentage'
p54
S'.267'
p55
sS'_minutesPlayed'
p56
S'193'
p57
sS'_gamesStarted'
p58
g3
sbasS'_college'
p59
S'University of Wyoming'
p60
sS'_toYear'
p61
S'1960'
p62
sS'_height'
p63
S'6-1'
p64
sS'_active'
p65
I00
sS'_shootingHand'
p66
VRight
p67
sS'_name'
p68
S'Tony Windis'
p69
sS'_per100Possessions'
p70
(lp71
sS'_advanced'
p72
(lp73
(isrc.gp1.models.Advanced
Advanced
p74
(dp75
S'_offensiveReboundPercentage'
p76
g3
sS'_turnOverPercentage'
p77
g3
sS'_winSharesPer48Minutes'
p78
S'-0.057'
p79
sS'_stealPercentage'
p80
g3
sS'_usagePercentage'
p81
g3
sS'_totalReboundsPercentage'
p82
g3
sS'_defensiveBoxPlusMinus'
p83
g3
sg18
S'PG'
p84
sS'_valueOverReplacementPlayer'
p85
g3
sS'_trueShootingPercentage'
p86
S'.287'
p87
sS'_defensiveReboundPercentage'
p88
g3
sS'_freeThrowsAttempRate'
p89
S'.100'
p90
sS'_threePointsAttempRate'
p91
g3
sg24
S'NBA'
p92
sS'_offensiveBoxPlusMinues'
p93
g3
sS'_assistPercentage'
p94
g3
sS'_defensiveWinShares'
p95
S'0.2'
p96
sg35
S'27'
p97
sg37
S'DET'
p98
sg39
g40
sS'_blockPercentage'
p99
g3
sS'_playerEfficiencyRating'
p100
S'7.5'
p101
sS'_offensiveWinShares'
p102
S'-0.4'
p103
sg56
S'193'
p104
sS'_boxPlusMinus'
p105
g3
sg49
S'1959-60'
p106
sS'_winShares'
p107
S'-0.2'
p108
sbasS'_per36Minutes'
p109
(lp110
(isrc.gp1.models.Per36Minutes
Per36Minutes
p111
(dp112
g8
g3
sg9
g3
sg10
S'.267'
p113
sg12
S'6.0'
p114
sg14
g3
sg15
g3
sg16
S'6.7'
p115
sg18
S'PG'
p116
sg20
S'.667'
p117
sg24
S'NBA'
p118
sg26
g3
sg27
S'11.2'
p119
sg29
S'3.7'
p120
sg31
S'1.1'
p121
sg33
S'8.8'
p122
sg35
S'27'
p123
sg37
S'DET'
p124
sg39
g40
sg41
g3
sg42
S'3.0'
p125
sg44
S'0.7'
p126
sg46
S'11.2'
p127
sg48
g3
sg49
S'1959-60'
p128
sg51
S'3.0'
p129
sg53
g3
sg54
S'.267'
p130
sg56
S'193'
p131
sg58
g3
sbasS'_fromYear'
p132
S'1960'
p133
sS'_url'
p134
S'http://www.basketball-reference.com/players/w/windito01.html'
p135
sS'_perGame'
p136
(isrc.gp1.models.PerGame
PerGame
p137
(dp138
g8
g3
sg9
g3
sg10
S'.267'
p139
sS'_effectiveFieldGalPercentage'
p140
S'.267'
p141
sg12
S'3.6'
p142
sg14
g3
sg15
g3
sg16
S'4.0'
p143
sg18
S'PG'
p144
sg20
S'.667'
p145
sg24
S'NBA'
p146
sg26
g3
sg29
S'2.2'
p147
sS'_fieldGoalsttempted'
p148
S'6.7'
p149
sg31
S'0.7'
p150
sg33
S'5.2'
p151
sg35
S'27'
p152
sg37
S'DET'
p153
sg39
g40
sg41
g3
sg42
S'1.8'
p154
sg44
S'0.4'
p155
sg46
S'6.7'
p156
sg48
g3
sg49
S'1959-60'
p157
sg51
S'1.8'
p158
sg53
g3
sg54
S'.267'
p159
sg56
S'21.4'
p160
sg58
g3
sbsS'_weight'
p161
S'160'
p162
sS'_dob'
p163
S'27-1-1933'
p164
sS'_salary'
p165
(lp166
sg18
S'G'
p167
sb.