(isrc.gp1.models.Player
Player
p0
(dp1
S'_experience'
p2
S'NA'
p3
sS'_totals'
p4
(lp5
(isrc.gp1.models.Totals
Totals
p6
(dp7
S'_offensiveRebounds'
p8
S'80'
p9
sS'_threePointsAttempted'
p10
g3
sS'_fieldGoalsPercentage'
p11
S'.432'
p12
sS'_assist'
p13
S'41'
p14
sS'_threePointsPercentage'
p15
g3
sS'_threePoints'
p16
g3
sS'_points'
p17
S'256'
p18
sS'_position'
p19
S'C'
p20
sS'_freeThrowsPercentage'
p21
S'.742'
p22
sS'_effectiveFieldGoalPercentage'
p23
S'.432'
p24
sS'_league'
p25
S'NBA'
p26
sS'_steals'
p27
S'8'
p28
sS'_fieldGoalsAttempted'
p29
S'243'
p30
sS'_personalFouls'
p31
S'91'
p32
sS'_freeThrowsAttempted'
p33
S'62'
p34
sS'_totalRebounds'
p35
S'227'
p36
sS'_age'
p37
S'23'
p38
sS'_team'
p39
S'CLE'
p40
sS'_games'
p41
S'57'
p42
sS'_blocks'
p43
S'22'
p44
sS'_twoPoints'
p45
S'105'
p46
sS'_freeThrows'
p47
S'46'
p48
sS'_twoPointsAttempted'
p49
S'243'
p50
sS'_defensiveRebounds'
p51
S'147'
p52
sS'_season'
p53
S'1973-74'
p54
sS'_fieldGoals'
p55
S'105'
p56
sS'_turnOvers'
p57
g3
sS'_twoPointsPercentage'
p58
S'.432'
p59
sS'_minutesPlayed'
p60
S'728'
p61
sS'_gamesStarted'
p62
g3
sba(isrc.gp1.models.Totals
Totals
p63
(dp64
g8
S'38'
p65
sg10
g3
sg11
S'.344'
p66
sg13
S'15'
p67
sg15
g3
sg16
g3
sg17
S'85'
p68
sg19
g20
sg21
S'.613'
p69
sg23
S'.344'
p70
sg25
S'NBA'
p71
sg27
S'4'
p72
sg29
S'96'
p73
sg31
S'42'
p74
sg33
S'31'
p75
sg35
S'92'
p76
sg37
S'24'
p77
sg39
S'CLE'
p78
sg41
S'39'
p79
sg43
S'22'
p80
sg45
S'33'
p81
sg47
S'19'
p82
sg49
S'96'
p83
sg51
S'54'
p84
sg53
S'1974-75'
p85
sg55
S'33'
p86
sg57
g3
sg58
S'.344'
p87
sg60
S'271'
p88
sg62
g3
sba(isrc.gp1.models.Totals
Totals
p89
(dp90
g8
S'9'
p91
sg10
g3
sg11
S'.344'
p92
sg13
g72
sg15
g3
sg16
g3
sg17
S'31'
p93
sg19
g20
sg21
S'.600'
p94
sg23
S'.344'
p95
sg25
S'NBA'
p96
sg27
S'1'
p97
sg29
S'32'
p98
sg31
S'14'
p99
sg33
S'15'
p100
sg35
S'38'
p101
sg37
S'25'
p102
sg39
S'CLE'
p103
sg41
S'22'
p104
sg43
g97
sg45
S'11'
p105
sg47
g91
sg49
S'32'
p106
sg51
S'29'
p107
sg53
S'1975-76'
p108
sg55
S'11'
p109
sg57
g3
sg58
S'.344'
p110
sg60
S'99'
p111
sg62
g3
sbasS'_college'
p112
S'Ohio State University'
p113
sS'_toYear'
p114
S'1976'
p115
sS'_height'
p116
S'7-0'
p117
sS'_active'
p118
I00
sS'_shootingHand'
p119
VLeft
p120
sS'_name'
p121
S'Luke Witte'
p122
sS'_per100Possessions'
p123
(lp124
(isrc.gp1.models.Per100Possession
Per100Possession
p125
(dp126
g8
S'5.1'
p127
sg10
g3
sg11
S'.432'
p128
sS'_offensiveRating'
p129
g3
sg13
S'2.6'
p130
sg15
g3
sg16
g3
sg17
S'16.2'
p131
sg19
g20
sS'_defensiveRating'
p132
S'99'
p133
sg21
S'.742'
p134
sg25
S'NBA'
p135
sg27
S'0.5'
p136
sg29
S'15.4'
p137
sg31
S'5.8'
p138
sg33
S'3.9'
p139
sg35
S'14.4'
p140
sg37
S'23'
p141
sg39
S'CLE'
p142
sg41
S'57'
p143
sg43
S'1.4'
p144
sg45
S'6.7'
p145
sg47
S'2.9'
p146
sg49
S'15.4'
p147
sg51
S'9.3'
p148
sg53
S'1973-74'
p149
sg55
S'6.7'
p150
sg57
g3
sg58
S'.432'
p151
sg60
S'728'
p152
sg62
g3
sba(isrc.gp1.models.Per100Possession
Per100Possession
p153
(dp154
g8
S'6.7'
p155
sg10
g3
sg11
S'.344'
p156
sg129
g3
sg13
S'2.6'
p157
sg15
g3
sg16
g3
sg17
S'15.0'
p158
sg19
g20
sg132
S'94'
p159
sg21
S'.613'
p160
sg25
S'NBA'
p161
sg27
S'0.7'
p162
sg29
S'16.9'
p163
sg31
S'7.4'
p164
sg33
S'5.5'
p165
sg35
S'16.2'
p166
sg37
S'24'
p167
sg39
S'CLE'
p168
sg41
S'39'
p169
sg43
S'3.9'
p170
sg45
S'5.8'
p171
sg47
S'3.4'
p172
sg49
S'16.9'
p173
sg51
S'9.5'
p174
sg53
S'1974-75'
p175
sg55
S'5.8'
p176
sg57
g3
sg58
S'.344'
p177
sg60
S'271'
p178
sg62
g3
sba(isrc.gp1.models.Per100Possession
Per100Possession
p179
(dp180
g8
S'4.3'
p181
sg10
g3
sg11
S'.344'
p182
sg129
g3
sg13
S'1.9'
p183
sg15
g3
sg16
g3
sg17
S'14.8'
p184
sg19
g20
sg132
S'94'
p185
sg21
S'.600'
p186
sg25
S'NBA'
p187
sg27
S'0.5'
p188
sg29
S'15.3'
p189
sg31
S'6.7'
p190
sg33
S'7.2'
p191
sg35
S'18.1'
p192
sg37
S'25'
p193
sg39
S'CLE'
p194
sg41
S'22'
p195
sg43
S'0.5'
p196
sg45
S'5.2'
p197
sg47
S'4.3'
p198
sg49
S'15.3'
p199
sg51
S'13.8'
p200
sg53
S'1975-76'
p201
sg55
S'5.2'
p202
sg57
g3
sg58
S'.344'
p203
sg60
S'99'
p204
sg62
g3
sbasS'_advanced'
p205
(lp206
(isrc.gp1.models.Advanced
Advanced
p207
(dp208
S'_offensiveReboundPercentage'
p209
S'10.6'
p210
sS'_turnOverPercentage'
p211
g3
sS'_winSharesPer48Minutes'
p212
S'.067'
p213
sS'_stealPercentage'
p214
S'0.5'
p215
sS'_usagePercentage'
p216
g3
sS'_totalReboundsPercentage'
p217
S'16.0'
p218
sS'_defensiveBoxPlusMinus'
p219
S'-1.0'
p220
sg19
g20
sS'_valueOverReplacementPlayer'
p221
S'-0.3'
p222
sS'_trueShootingPercentage'
p223
S'.474'
p224
sS'_defensiveReboundPercentage'
p225
S'22.0'
p226
sS'_freeThrowsAttempRate'
p227
S'.255'
p228
sS'_threePointsAttempRate'
p229
g3
sg25
S'NBA'
p230
sS'_offensiveBoxPlusMinues'
p231
S'-2.8'
p232
sS'_assistPercentage'
p233
S'7.8'
p234
sS'_defensiveWinShares'
p235
S'0.6'
p236
sg37
S'23'
p237
sg39
S'CLE'
p238
sg41
S'57'
p239
sS'_blockPercentage'
p240
S'1.6'
p241
sS'_playerEfficiencyRating'
p242
S'12.7'
p243
sS'_offensiveWinShares'
p244
S'0.4'
p245
sg60
S'728'
p246
sS'_boxPlusMinus'
p247
S'-3.8'
p248
sg53
S'1973-74'
p249
sS'_winShares'
p250
S'1.0'
p251
sba(isrc.gp1.models.Advanced
Advanced
p252
(dp253
g209
S'14.9'
p254
sg211
g3
sg212
S'.018'
p255
sg214
S'0.7'
p256
sg216
g3
sg217
S'18.0'
p257
sg219
S'0.3'
p258
sg19
g20
sg221
S'-0.1'
p259
sg223
S'.388'
p260
sg225
S'21.2'
p261
sg227
S'.323'
p262
sg229
g3
sg25
S'NBA'
p263
sg231
S'-4.1'
p264
sg233
S'7.5'
p265
sg235
S'0.4'
p266
sg37
S'24'
p267
sg39
S'CLE'
p268
sg41
S'39'
p269
sg240
S'4.5'
p270
sg242
S'12.5'
p271
sg244
S'-0.3'
p272
sg60
S'271'
p273
sg247
S'-3.8'
p274
sg53
S'1974-75'
p275
sg250
S'0.1'
p276
sba(isrc.gp1.models.Advanced
Advanced
p277
(dp278
g209
S'9.0'
p279
sg211
g3
sg212
S'.026'
p280
sg214
S'0.5'
p281
sg216
g3
sg217
S'19.7'
p282
sg219
S'-2.0'
p283
sg19
g20
sg221
S'-0.2'
p284
sg223
S'.402'
p285
sg225
S'31.2'
p286
sg227
S'.469'
p287
sg229
g3
sg25
S'NBA'
p288
sg231
S'-6.0'
p289
sg233
S'5.2'
p290
sg235
S'0.2'
p291
sg37
S'25'
p292
sg39
S'CLE'
p293
sg41
S'22'
p294
sg240
S'0.6'
p295
sg242
S'10.2'
p296
sg244
S'-0.1'
p297
sg60
S'99'
p298
sg247
S'-8.0'
p299
sg53
S'1975-76'
p300
sg250
S'0.1'
p301
sbasS'_per36Minutes'
p302
(lp303
(isrc.gp1.models.Per36Minutes
Per36Minutes
p304
(dp305
g8
S'4.0'
p306
sg10
g3
sg11
S'.432'
p307
sg13
S'2.0'
p308
sg15
g3
sg16
g3
sg17
S'12.7'
p309
sg19
g20
sg21
S'.742'
p310
sg25
S'NBA'
p311
sg27
S'0.4'
p312
sg29
S'12.0'
p313
sg31
S'4.5'
p314
sg33
S'3.1'
p315
sg35
S'11.2'
p316
sg37
S'23'
p317
sg39
S'CLE'
p318
sg41
S'57'
p319
sg43
S'1.1'
p320
sg45
S'5.2'
p321
sg47
S'2.3'
p322
sg49
S'12.0'
p323
sg51
S'7.3'
p324
sg53
S'1973-74'
p325
sg55
S'5.2'
p326
sg57
g3
sg58
S'.432'
p327
sg60
S'728'
p328
sg62
g3
sba(isrc.gp1.models.Per36Minutes
Per36Minutes
p329
(dp330
g8
S'5.0'
p331
sg10
g3
sg11
S'.344'
p332
sg13
S'2.0'
p333
sg15
g3
sg16
g3
sg17
S'11.3'
p334
sg19
g20
sg21
S'.613'
p335
sg25
S'NBA'
p336
sg27
S'0.5'
p337
sg29
S'12.8'
p338
sg31
S'5.6'
p339
sg33
S'4.1'
p340
sg35
S'12.2'
p341
sg37
S'24'
p342
sg39
S'CLE'
p343
sg41
S'39'
p344
sg43
S'2.9'
p345
sg45
S'4.4'
p346
sg47
S'2.5'
p347
sg49
S'12.8'
p348
sg51
S'7.2'
p349
sg53
S'1974-75'
p350
sg55
S'4.4'
p351
sg57
g3
sg58
S'.344'
p352
sg60
S'271'
p353
sg62
g3
sba(isrc.gp1.models.Per36Minutes
Per36Minutes
p354
(dp355
g8
S'3.3'
p356
sg10
g3
sg11
S'.344'
p357
sg13
S'1.5'
p358
sg15
g3
sg16
g3
sg17
S'11.3'
p359
sg19
g20
sg21
S'.600'
p360
sg25
S'NBA'
p361
sg27
S'0.4'
p362
sg29
S'11.6'
p363
sg31
S'5.1'
p364
sg33
S'5.5'
p365
sg35
S'13.8'
p366
sg37
S'25'
p367
sg39
S'CLE'
p368
sg41
S'22'
p369
sg43
S'0.4'
p370
sg45
S'4.0'
p371
sg47
S'3.3'
p372
sg49
S'11.6'
p373
sg51
S'10.5'
p374
sg53
S'1975-76'
p375
sg55
S'4.0'
p376
sg57
g3
sg58
S'.344'
p377
sg60
S'99'
p378
sg62
g3
sbasS'_fromYear'
p379
S'1974'
p380
sS'_url'
p381
S'http://www.basketball-reference.com/players/w/wittelu01.html'
p382
sS'_perGame'
p383
(isrc.gp1.models.PerGame
PerGame
p384
(dp385
g8
S'0.4'
p386
sg10
g3
sg11
S'.344'
p387
sS'_effectiveFieldGalPercentage'
p388
S'.344'
p389
sg13
S'0.2'
p390
sg15
g3
sg16
g3
sg17
S'1.4'
p391
sg19
g20
sg21
S'.600'
p392
sg25
S'NBA'
p393
sg27
S'0.0'
p394
sg31
S'0.6'
p395
sS'_fieldGoalsttempted'
p396
S'1.5'
p397
sg33
S'0.7'
p398
sg35
S'1.7'
p399
sg37
S'25'
p400
sg39
S'CLE'
p401
sg41
S'22'
p402
sg43
S'0.0'
p403
sg45
S'0.5'
p404
sg47
S'0.4'
p405
sg49
S'1.5'
p406
sg51
S'1.3'
p407
sg53
S'1975-76'
p408
sg55
S'0.5'
p409
sg57
g3
sg58
S'.344'
p410
sg60
S'4.5'
p411
sg62
g3
sbsS'_weight'
p412
S'235'
p413
sS'_dob'
p414
S'19-10-1950'
p415
sS'_salary'
p416
(lp417
sg19
g20
sb.