(isrc.gp1.models.Player
Player
p0
(dp1
S'_experience'
p2
S'NA'
p3
sS'_totals'
p4
(lp5
(isrc.gp1.models.Totals
Totals
p6
(dp7
S'_offensiveRebounds'
p8
S'22'
p9
sS'_threePointsAttempted'
p10
S'1'
p11
sS'_fieldGoalsPercentage'
p12
S'.458'
p13
sS'_assist'
p14
S'9'
p15
sS'_threePointsPercentage'
p16
S'.000'
p17
sS'_threePoints'
p18
S'0'
p19
sS'_points'
p20
S'144'
p21
sS'_position'
p22
S'SF'
p23
sS'_freeThrowsPercentage'
p24
S'.654'
p25
sS'_effectiveFieldGoalPercentage'
p26
S'.458'
p27
sS'_league'
p28
S'NBA'
p29
sS'_steals'
p30
S'8'
p31
sS'_fieldGoalsAttempted'
p32
S'120'
p33
sS'_personalFouls'
p34
S'37'
p35
sS'_freeThrowsAttempted'
p36
S'52'
p37
sS'_totalRebounds'
p38
S'65'
p39
sS'_age'
p40
S'22'
p41
sS'_team'
p42
S'UTA'
p43
sS'_games'
p44
S'42'
p45
sS'_blocks'
p46
S'6'
p47
sS'_twoPoints'
p48
S'55'
p49
sS'_freeThrows'
p50
S'34'
p51
sS'_twoPointsAttempted'
p52
S'119'
p53
sS'_defensiveRebounds'
p54
S'43'
p55
sS'_season'
p56
S'1981-82'
p57
sS'_fieldGoals'
p58
S'55'
p59
sS'_turnOvers'
p60
S'15'
p61
sS'_twoPointsPercentage'
p62
S'.462'
p63
sS'_minutesPlayed'
p64
S'342'
p65
sS'_gamesStarted'
p66
S'3'
p67
sbasS'_college'
p68
S'University of Tennessee'
p69
sS'_toYear'
p70
S'1982'
p71
sS'_height'
p72
S'6-7'
p73
sS'_active'
p74
I00
sS'_shootingHand'
p75
VRight
p76
sS'_name'
p77
S'Howard Wood'
p78
sS'_per100Possessions'
p79
(lp80
(isrc.gp1.models.Per100Possession
Per100Possession
p81
(dp82
g8
S'3.0'
p83
sg10
S'0.1'
p84
sg12
S'.458'
p85
sS'_offensiveRating'
p86
S'105'
p87
sg14
S'1.2'
p88
sg16
S'.000'
p89
sg18
S'0.0'
p90
sg20
S'19.5'
p91
sg22
S'SF'
p92
sS'_defensiveRating'
p93
S'113'
p94
sg24
S'.654'
p95
sg28
S'NBA'
p96
sg30
S'1.1'
p97
sg32
S'16.2'
p98
sg34
S'5.0'
p99
sg36
S'7.0'
p100
sg38
S'8.8'
p101
sg40
S'22'
p102
sg42
S'UTA'
p103
sg44
S'42'
p104
sg46
S'0.8'
p105
sg48
S'7.4'
p106
sg50
S'4.6'
p107
sg52
S'16.1'
p108
sg54
S'5.8'
p109
sg56
S'1981-82'
p110
sg58
S'7.4'
p111
sg60
S'2.0'
p112
sg62
S'.462'
p113
sg64
S'342'
p114
sg66
g67
sbasS'_advanced'
p115
(lp116
(isrc.gp1.models.Advanced
Advanced
p117
(dp118
S'_offensiveReboundPercentage'
p119
S'6.8'
p120
sS'_turnOverPercentage'
p121
S'9.5'
p122
sS'_winSharesPer48Minutes'
p123
S'.049'
p124
sS'_stealPercentage'
p125
S'1.1'
p126
sS'_usagePercentage'
p127
S'18.5'
p128
sS'_totalReboundsPercentage'
p129
S'10.2'
p130
sS'_defensiveBoxPlusMinus'
p131
S'-3.2'
p132
sg22
S'SF'
p133
sS'_valueOverReplacementPlayer'
p134
S'-0.4'
p135
sS'_trueShootingPercentage'
p136
S'.504'
p137
sS'_defensiveReboundPercentage'
p138
S'13.8'
p139
sS'_freeThrowsAttempRate'
p140
S'.433'
p141
sS'_threePointsAttempRate'
p142
S'.008'
p143
sg28
S'NBA'
p144
sS'_offensiveBoxPlusMinues'
p145
S'-3.0'
p146
sS'_assistPercentage'
p147
S'3.4'
p148
sS'_defensiveWinShares'
p149
S'0.1'
p150
sg40
S'22'
p151
sg42
S'UTA'
p152
sg44
S'42'
p153
sS'_blockPercentage'
p154
S'0.9'
p155
sS'_playerEfficiencyRating'
p156
S'12.0'
p157
sS'_offensiveWinShares'
p158
S'0.2'
p159
sg64
S'342'
p160
sS'_boxPlusMinus'
p161
S'-6.2'
p162
sg56
S'1981-82'
p163
sS'_winShares'
p164
S'0.3'
p165
sbasS'_per36Minutes'
p166
(lp167
(isrc.gp1.models.Per36Minutes
Per36Minutes
p168
(dp169
g8
S'2.3'
p170
sg10
S'0.1'
p171
sg12
S'.458'
p172
sg14
S'0.9'
p173
sg16
S'.000'
p174
sg18
S'0.0'
p175
sg20
S'15.2'
p176
sg22
S'SF'
p177
sg24
S'.654'
p178
sg28
S'NBA'
p179
sg30
S'0.8'
p180
sg32
S'12.6'
p181
sg34
S'3.9'
p182
sg36
S'5.5'
p183
sg38
S'6.8'
p184
sg40
S'22'
p185
sg42
S'UTA'
p186
sg44
S'42'
p187
sg46
S'0.6'
p188
sg48
S'5.8'
p189
sg50
S'3.6'
p190
sg52
S'12.5'
p191
sg54
S'4.5'
p192
sg56
S'1981-82'
p193
sg58
S'5.8'
p194
sg60
S'1.6'
p195
sg62
S'.462'
p196
sg64
S'342'
p197
sg66
g67
sbasS'_fromYear'
p198
S'1982'
p199
sS'_url'
p200
S'http://www.basketball-reference.com/players/w/woodho01.html'
p201
sS'_perGame'
p202
(isrc.gp1.models.PerGame
PerGame
p203
(dp204
g8
S'0.5'
p205
sg10
S'0.0'
p206
sg12
S'.458'
p207
sS'_effectiveFieldGalPercentage'
p208
S'.458'
p209
sg14
S'0.2'
p210
sg16
S'.000'
p211
sg18
S'0.0'
p212
sg20
S'3.4'
p213
sg22
S'SF'
p214
sg24
S'.654'
p215
sg28
S'NBA'
p216
sg30
S'0.2'
p217
sg34
S'0.9'
p218
sS'_fieldGoalsttempted'
p219
S'2.9'
p220
sg36
S'1.2'
p221
sg38
S'1.5'
p222
sg40
S'22'
p223
sg42
S'UTA'
p224
sg44
S'42'
p225
sg46
S'0.1'
p226
sg48
S'1.3'
p227
sg50
S'0.8'
p228
sg52
S'2.8'
p229
sg54
S'1.0'
p230
sg56
S'1981-82'
p231
sg58
S'1.3'
p232
sg60
S'0.4'
p233
sg62
S'.462'
p234
sg64
S'8.1'
p235
sg66
g67
sbsS'_weight'
p236
S'235'
p237
sS'_dob'
p238
S'20-5-1959'
p239
sS'_salary'
p240
(lp241
sg22
S'F'
p242
sb.