(isrc.gp1.models.Player
Player
p0
(dp1
S'_experience'
p2
S'NA'
p3
sS'_totals'
p4
(lp5
(isrc.gp1.models.Totals
Totals
p6
(dp7
S'_offensiveRebounds'
p8
S'15'
p9
sS'_threePointsAttempted'
p10
S'9'
p11
sS'_fieldGoalsPercentage'
p12
S'.500'
p13
sS'_assist'
p14
S'12'
p15
sS'_threePointsPercentage'
p16
S'.333'
p17
sS'_threePoints'
p18
S'3'
p19
sS'_points'
p20
S'128'
p21
sS'_position'
p22
S'PF'
p23
sS'_freeThrowsPercentage'
p24
S'.350'
p25
sS'_effectiveFieldGoalPercentage'
p26
S'.513'
p27
sS'_league'
p28
S'NBA'
p29
sS'_steals'
p30
S'15'
p31
sS'_fieldGoalsAttempted'
p32
S'118'
p33
sS'_personalFouls'
p34
S'36'
p35
sS'_freeThrowsAttempted'
p36
S'20'
p37
sS'_totalRebounds'
p38
S'53'
p39
sS'_age'
p40
S'21'
p41
sS'_team'
p42
S'POR'
p43
sS'_games'
p44
S'53'
p45
sS'_blocks'
p46
S'1'
p47
sS'_twoPoints'
p48
S'56'
p49
sS'_freeThrows'
p50
S'7'
p51
sS'_twoPointsAttempted'
p52
S'109'
p53
sS'_defensiveRebounds'
p54
S'38'
p55
sS'_season'
p56
S'2002-03'
p57
sS'_fieldGoals'
p58
S'59'
p59
sS'_turnOvers'
p60
S'23'
p61
sS'_twoPointsPercentage'
p62
S'.514'
p63
sS'_minutesPlayed'
p64
S'334'
p65
sS'_gamesStarted'
p66
S'0'
p67
sba(isrc.gp1.models.Totals
Totals
p68
(dp69
g8
S'46'
p70
sg10
S'29'
p71
sg12
S'.371'
p72
sg14
S'46'
p73
sg16
S'.345'
p74
sg18
S'10'
p75
sg20
S'224'
p76
sg22
S'SF'
p77
sg24
S'.633'
p78
sg26
S'.392'
p79
sg28
S'NBA'
p80
sg30
S'20'
p81
sg32
S'237'
p82
sg34
S'88'
p83
sg36
S'60'
p84
sg38
S'136'
p85
sg40
S'22'
p86
sg42
S'POR'
p87
sg44
S'62'
p88
sg46
S'14'
p89
sg48
S'78'
p90
sg50
S'38'
p91
sg52
S'208'
p92
sg54
S'90'
p93
sg56
S'2003-04'
p94
sg58
S'88'
p95
sg60
S'52'
p96
sg62
S'.375'
p97
sg64
S'673'
p98
sg66
S'8'
p99
sba(isrc.gp1.models.Totals
Totals
p100
(dp101
g8
S'2'
p102
sg10
g67
sg12
S'.417'
p103
sg14
g67
sg16
g3
sg18
g67
sg20
S'10'
p104
sg22
S'SF'
p105
sg24
g3
sg26
S'.417'
p106
sg28
S'NBA'
p107
sg30
S'4'
p108
sg32
S'12'
p109
sg34
S'6'
p110
sg36
g67
sg38
g110
sg40
S'23'
p111
sg42
S'MIA'
p112
sg44
g19
sg46
g67
sg48
S'5'
p113
sg50
g67
sg52
S'12'
p114
sg54
g108
sg56
S'2004-05'
p115
sg58
g113
sg60
g102
sg62
S'.417'
p116
sg64
S'40'
p117
sg66
g67
sba(isrc.gp1.models.Totals
Totals
p118
(dp119
g8
S'44'
p120
sg10
S'60'
p121
sg12
S'.508'
p122
sg14
S'47'
p123
sg16
S'.367'
p124
sg18
S'22'
p125
sg20
S'329'
p126
sg22
S'SF'
p127
sg24
S'.645'
p128
sg26
S'.551'
p129
sg28
S'NBA'
p130
sg30
S'32'
p131
sg32
S'254'
p132
sg34
S'96'
p133
sg36
S'76'
p134
sg38
S'190'
p135
sg40
S'24'
p136
sg42
S'NYK'
p137
sg44
S'49'
p138
sg46
S'13'
p139
sg48
S'107'
p140
sg50
S'49'
p141
sg52
S'194'
p142
sg54
S'146'
p143
sg56
S'2005-06'
p144
sg58
S'129'
p145
sg60
S'61'
p146
sg62
S'.552'
p147
sg64
S'1013'
p148
sg66
S'16'
p149
sbasS'_college'
p150
S'Northeast Mississippi Community College'
p151
sS'_toYear'
p152
S'2006'
p153
sS'_height'
p154
S'6-8'
p155
sS'_active'
p156
I00
sS'_shootingHand'
p157
VRight
p158
sS'_name'
p159
S'Qyntel Woods'
p160
sS'_per100Possessions'
p161
(lp162
(isrc.gp1.models.Per100Possession
Per100Possession
p163
(dp164
g8
S'2.4'
p165
sg10
S'1.4'
p166
sg12
S'.500'
p167
sS'_offensiveRating'
p168
S'92'
p169
sg14
S'1.9'
p170
sg16
S'.333'
p171
sg18
S'0.5'
p172
sg20
S'20.6'
p173
sg22
S'PF'
p174
sS'_defensiveRating'
p175
S'103'
p176
sg24
S'.350'
p177
sg28
S'NBA'
p178
sg30
S'2.4'
p179
sg32
S'19.0'
p180
sg34
S'5.8'
p181
sg36
S'3.2'
p182
sg38
S'8.5'
p183
sg40
S'21'
p184
sg42
S'POR'
p185
sg44
S'53'
p186
sg46
S'0.2'
p187
sg48
S'9.0'
p188
sg50
S'1.1'
p189
sg52
S'17.5'
p190
sg54
S'6.1'
p191
sg56
S'2002-03'
p192
sg58
S'9.5'
p193
sg60
S'3.7'
p194
sg62
S'.514'
p195
sg64
S'334'
p196
sg66
g67
sba(isrc.gp1.models.Per100Possession
Per100Possession
p197
(dp198
g8
S'3.8'
p199
sg10
S'2.4'
p200
sg12
S'.371'
p201
sg168
S'87'
p202
sg14
S'3.8'
p203
sg16
S'.345'
p204
sg18
S'0.8'
p205
sg20
S'18.5'
p206
sg22
S'SF'
p207
sg175
S'105'
p208
sg24
S'.633'
p209
sg28
S'NBA'
p210
sg30
S'1.7'
p211
sg32
S'19.6'
p212
sg34
S'7.3'
p213
sg36
S'5.0'
p214
sg38
S'11.3'
p215
sg40
S'22'
p216
sg42
S'POR'
p217
sg44
S'62'
p218
sg46
S'1.2'
p219
sg48
S'6.5'
p220
sg50
S'3.1'
p221
sg52
S'17.2'
p222
sg54
S'7.4'
p223
sg56
S'2003-04'
p224
sg58
S'7.3'
p225
sg60
S'4.3'
p226
sg62
S'.375'
p227
sg64
S'673'
p228
sg66
g99
sba(isrc.gp1.models.Per100Possession
Per100Possession
p229
(dp230
g8
S'2.6'
p231
sg10
S'0.0'
p232
sg12
S'.417'
p233
sg168
S'80'
p234
sg14
S'0.0'
p235
sg16
g3
sg18
S'0.0'
p236
sg20
S'13.2'
p237
sg22
S'SF'
p238
sg175
S'97'
p239
sg24
g3
sg28
S'NBA'
p240
sg30
S'5.3'
p241
sg32
S'15.9'
p242
sg34
S'7.9'
p243
sg36
S'0.0'
p244
sg38
S'7.9'
p245
sg40
S'23'
p246
sg42
S'MIA'
p247
sg44
g19
sg46
S'0.0'
p248
sg48
S'6.6'
p249
sg50
S'0.0'
p250
sg52
S'15.9'
p251
sg54
S'5.3'
p252
sg56
S'2004-05'
p253
sg58
S'6.6'
p254
sg60
S'2.6'
p255
sg62
S'.417'
p256
sg64
S'40'
p257
sg66
g67
sba(isrc.gp1.models.Per100Possession
Per100Possession
p258
(dp259
g8
S'2.3'
p260
sg10
S'3.1'
p261
sg12
S'.508'
p262
sg168
S'105'
p263
sg14
S'2.5'
p264
sg16
S'.367'
p265
sg18
S'1.1'
p266
sg20
S'17.2'
p267
sg22
S'SF'
p268
sg175
S'110'
p269
sg24
S'.645'
p270
sg28
S'NBA'
p271
sg30
S'1.7'
p272
sg32
S'13.3'
p273
sg34
S'5.0'
p274
sg36
S'4.0'
p275
sg38
S'9.9'
p276
sg40
S'24'
p277
sg42
S'NYK'
p278
sg44
S'49'
p279
sg46
S'0.7'
p280
sg48
S'5.6'
p281
sg50
S'2.6'
p282
sg52
S'10.1'
p283
sg54
S'7.6'
p284
sg56
S'2005-06'
p285
sg58
S'6.7'
p286
sg60
S'3.2'
p287
sg62
S'.552'
p288
sg64
S'1013'
p289
sg66
S'16'
p290
sbasS'_advanced'
p291
(lp292
(isrc.gp1.models.Advanced
Advanced
p293
(dp294
S'_offensiveReboundPercentage'
p295
S'5.4'
p296
sS'_turnOverPercentage'
p297
S'15.4'
p298
sS'_winSharesPer48Minutes'
p299
S'.034'
p300
sS'_stealPercentage'
p301
S'2.4'
p302
sS'_usagePercentage'
p303
S'20.7'
p304
sS'_totalReboundsPercentage'
p305
S'9.6'
p306
sS'_defensiveBoxPlusMinus'
p307
S'-1.4'
p308
sg22
S'PF'
p309
sS'_valueOverReplacementPlayer'
p310
S'-0.3'
p311
sS'_trueShootingPercentage'
p312
S'.505'
p313
sS'_defensiveReboundPercentage'
p314
S'13.7'
p315
sS'_freeThrowsAttempRate'
p316
S'.169'
p317
sS'_threePointsAttempRate'
p318
S'.076'
p319
sg28
S'NBA'
p320
sS'_offensiveBoxPlusMinues'
p321
S'-3.6'
p322
sS'_assistPercentage'
p323
S'6.2'
p324
sS'_defensiveWinShares'
p325
S'0.4'
p326
sg40
S'21'
p327
sg42
S'POR'
p328
sg44
S'53'
p329
sS'_blockPercentage'
p330
S'0.2'
p331
sS'_playerEfficiencyRating'
p332
S'11.2'
p333
sS'_offensiveWinShares'
p334
S'-0.1'
p335
sg64
S'334'
p336
sS'_boxPlusMinus'
p337
S'-5.0'
p338
sg56
S'2002-03'
p339
sS'_winShares'
p340
S'0.2'
p341
sba(isrc.gp1.models.Advanced
Advanced
p342
(dp343
g295
S'8.2'
p344
sg297
S'16.5'
p345
sg299
S'-0.012'
p346
sg301
S'1.7'
p347
sg303
S'22.2'
p348
sg305
S'12.0'
p349
sg307
S'-1.1'
p350
sg22
S'SF'
p351
sg310
S'-0.6'
p352
sg312
S'.425'
p353
sg314
S'15.8'
p354
sg316
S'.253'
p355
sg318
S'.122'
p356
sg28
S'NBA'
p357
sg321
S'-4.3'
p358
sg323
S'11.5'
p359
sg325
S'0.5'
p360
sg40
S'22'
p361
sg42
S'POR'
p362
sg44
S'62'
p363
sg330
S'1.6'
p364
sg332
S'9.4'
p365
sg334
S'-0.7'
p366
sg64
S'673'
p367
sg337
S'-5.3'
p368
sg56
S'2003-04'
p369
sg340
S'-0.2'
p370
sba(isrc.gp1.models.Advanced
Advanced
p371
(dp372
g295
S'6.1'
p373
sg297
S'14.3'
p374
sg299
S'.024'
p375
sg301
S'5.3'
p376
sg303
S'16.3'
p377
sg305
S'8.8'
p378
sg307
S'0.0'
p379
sg22
S'SF'
p380
sg310
S'0.0'
p381
sg312
S'.417'
p382
sg314
S'11.2'
p383
sg316
S'.000'
p384
sg318
S'.000'
p385
sg28
S'NBA'
p386
sg321
S'-6.2'
p387
sg323
S'0.0'
p388
sg325
S'0.1'
p389
sg40
S'23'
p390
sg42
S'MIA'
p391
sg44
g19
sg330
S'0.0'
p392
sg332
S'7.7'
p393
sg334
S'-0.1'
p394
sg64
S'40'
p395
sg337
S'-6.3'
p396
sg56
S'2004-05'
p397
sg340
S'0.0'
p398
sba(isrc.gp1.models.Advanced
Advanced
p399
(dp400
g295
S'5.2'
p401
sg297
S'17.5'
p402
sg299
S'.061'
p403
sg301
S'1.7'
p404
sg303
S'15.6'
p405
sg305
S'11.4'
p406
sg307
S'0.0'
p407
sg22
S'SF'
p408
sg310
S'0.3'
p409
sg312
S'.572'
p410
sg314
S'17.7'
p411
sg316
S'.299'
p412
sg318
S'.236'
p413
sg28
S'NBA'
p414
sg321
S'-0.7'
p415
sg323
S'8.0'
p416
sg325
S'0.6'
p417
sg40
S'24'
p418
sg42
S'NYK'
p419
sg44
S'49'
p420
sg330
S'1.1'
p421
sg332
S'12.4'
p422
sg334
S'0.7'
p423
sg64
S'1013'
p424
sg337
S'-0.7'
p425
sg56
S'2005-06'
p426
sg340
S'1.3'
p427
sbasS'_per36Minutes'
p428
(lp429
(isrc.gp1.models.Per36Minutes
Per36Minutes
p430
(dp431
g8
S'1.6'
p432
sg10
S'1.0'
p433
sg12
S'.500'
p434
sg14
S'1.3'
p435
sg16
S'.333'
p436
sg18
S'0.3'
p437
sg20
S'13.8'
p438
sg22
S'PF'
p439
sg24
S'.350'
p440
sg28
S'NBA'
p441
sg30
S'1.6'
p442
sg32
S'12.7'
p443
sg34
S'3.9'
p444
sg36
S'2.2'
p445
sg38
S'5.7'
p446
sg40
S'21'
p447
sg42
S'POR'
p448
sg44
S'53'
p449
sg46
S'0.1'
p450
sg48
S'6.0'
p451
sg50
S'0.8'
p452
sg52
S'11.7'
p453
sg54
S'4.1'
p454
sg56
S'2002-03'
p455
sg58
S'6.4'
p456
sg60
S'2.5'
p457
sg62
S'.514'
p458
sg64
S'334'
p459
sg66
g67
sba(isrc.gp1.models.Per36Minutes
Per36Minutes
p460
(dp461
g8
S'2.5'
p462
sg10
S'1.6'
p463
sg12
S'.371'
p464
sg14
S'2.5'
p465
sg16
S'.345'
p466
sg18
S'0.5'
p467
sg20
S'12.0'
p468
sg22
S'SF'
p469
sg24
S'.633'
p470
sg28
S'NBA'
p471
sg30
S'1.1'
p472
sg32
S'12.7'
p473
sg34
S'4.7'
p474
sg36
S'3.2'
p475
sg38
S'7.3'
p476
sg40
S'22'
p477
sg42
S'POR'
p478
sg44
S'62'
p479
sg46
S'0.7'
p480
sg48
S'4.2'
p481
sg50
S'2.0'
p482
sg52
S'11.1'
p483
sg54
S'4.8'
p484
sg56
S'2003-04'
p485
sg58
S'4.7'
p486
sg60
S'2.8'
p487
sg62
S'.375'
p488
sg64
S'673'
p489
sg66
g99
sba(isrc.gp1.models.Per36Minutes
Per36Minutes
p490
(dp491
g8
S'1.8'
p492
sg10
S'0.0'
p493
sg12
S'.417'
p494
sg14
S'0.0'
p495
sg16
g3
sg18
S'0.0'
p496
sg20
S'9.0'
p497
sg22
S'SF'
p498
sg24
g3
sg28
S'NBA'
p499
sg30
S'3.6'
p500
sg32
S'10.8'
p501
sg34
S'5.4'
p502
sg36
S'0.0'
p503
sg38
S'5.4'
p504
sg40
S'23'
p505
sg42
S'MIA'
p506
sg44
g19
sg46
S'0.0'
p507
sg48
S'4.5'
p508
sg50
S'0.0'
p509
sg52
S'10.8'
p510
sg54
S'3.6'
p511
sg56
S'2004-05'
p512
sg58
S'4.5'
p513
sg60
S'1.8'
p514
sg62
S'.417'
p515
sg64
S'40'
p516
sg66
g67
sba(isrc.gp1.models.Per36Minutes
Per36Minutes
p517
(dp518
g8
S'1.6'
p519
sg10
S'2.1'
p520
sg12
S'.508'
p521
sg14
S'1.7'
p522
sg16
S'.367'
p523
sg18
S'0.8'
p524
sg20
S'11.7'
p525
sg22
S'SF'
p526
sg24
S'.645'
p527
sg28
S'NBA'
p528
sg30
S'1.1'
p529
sg32
S'9.0'
p530
sg34
S'3.4'
p531
sg36
S'2.7'
p532
sg38
S'6.8'
p533
sg40
S'24'
p534
sg42
S'NYK'
p535
sg44
S'49'
p536
sg46
S'0.5'
p537
sg48
S'3.8'
p538
sg50
S'1.7'
p539
sg52
S'6.9'
p540
sg54
S'5.2'
p541
sg56
S'2005-06'
p542
sg58
S'4.6'
p543
sg60
S'2.2'
p544
sg62
S'.552'
p545
sg64
S'1013'
p546
sg66
S'16'
p547
sbasS'_fromYear'
p548
S'2003'
p549
sS'_url'
p550
S'http://www.basketball-reference.com/players/w/woodsqy01.html'
p551
sS'_perGame'
p552
(isrc.gp1.models.PerGame
PerGame
p553
(dp554
g8
S'0.9'
p555
sg10
S'1.2'
p556
sg12
S'.508'
p557
sS'_effectiveFieldGalPercentage'
p558
S'.551'
p559
sg14
S'1.0'
p560
sg16
S'.367'
p561
sg18
S'0.4'
p562
sg20
S'6.7'
p563
sg22
S'SF'
p564
sg24
S'.645'
p565
sg28
S'NBA'
p566
sg30
S'0.7'
p567
sg34
S'2.0'
p568
sS'_fieldGoalsttempted'
p569
S'5.2'
p570
sg36
S'1.6'
p571
sg38
S'3.9'
p572
sg40
S'24'
p573
sg42
S'NYK'
p574
sg44
S'49'
p575
sg46
S'0.3'
p576
sg48
S'2.2'
p577
sg50
S'1.0'
p578
sg52
S'4.0'
p579
sg54
S'3.0'
p580
sg56
S'2005-06'
p581
sg58
S'2.6'
p582
sg60
S'1.2'
p583
sg62
S'.552'
p584
sg64
S'20.7'
p585
sg66
S'16'
p586
sbsS'_weight'
p587
S'221'
p588
sS'_dob'
p589
S'16-2-1981'
p590
sS'_salary'
p591
(lp592
(isrc.gp1.models.Salary
Salary
p593
(dp594
g42
S'Portland Trail Blazers'
p595
sg28
S'NBA'
p596
sg591
S'$980,280'
p597
sg56
S'2002-03'
p598
sba(isrc.gp1.models.Salary
Salary
p599
(dp600
g42
S'Portland Trail Blazers'
p601
sg28
S'NBA'
p602
sg591
S'$1,053,720'
p603
sg56
S'2003-04'
p604
sba(isrc.gp1.models.Salary
Salary
p605
(dp606
g42
S'Portland Trail Blazers'
p607
sg28
S'NBA'
p608
sg591
S'$1,127,280'
p609
sg56
S'2004-05'
p610
sba(isrc.gp1.models.Salary
Salary
p611
(dp612
g42
S'New York Knicks'
p613
sg28
S'NBA'
p614
sg591
S'$599,834'
p615
sg56
S'2005-06'
p616
sbasg22
S'F'
p617
sb.