(isrc.gp1.models.Player
Player
p0
(dp1
S'_experience'
p2
S'NA'
p3
sS'_totals'
p4
(lp5
(isrc.gp1.models.Totals
Totals
p6
(dp7
S'_offensiveRebounds'
p8
S'6'
p9
sS'_threePointsAttempted'
p10
S'14'
p11
sS'_fieldGoalsPercentage'
p12
S'.348'
p13
sS'_assist'
p14
S'40'
p15
sS'_threePointsPercentage'
p16
S'.214'
p17
sS'_threePoints'
p18
S'3'
p19
sS'_points'
p20
S'68'
p21
sS'_position'
p22
S'PG'
p23
sS'_freeThrowsPercentage'
p24
S'.731'
p25
sS'_effectiveFieldGoalPercentage'
p26
S'.371'
p27
sS'_league'
p28
S'NBA'
p29
sS'_steals'
p30
S'14'
p31
sS'_fieldGoalsAttempted'
p32
S'66'
p33
sS'_personalFouls'
p34
S'26'
p35
sS'_freeThrowsAttempted'
p36
S'26'
p37
sS'_totalRebounds'
p38
S'14'
p39
sS'_age'
p40
S'22'
p41
sS'_team'
p42
S'LAC'
p43
sS'_games'
p44
S'41'
p45
sS'_blocks'
p46
S'1'
p47
sS'_twoPoints'
p48
S'20'
p49
sS'_freeThrows'
p50
S'19'
p51
sS'_twoPointsAttempted'
p52
S'52'
p53
sS'_defensiveRebounds'
p54
S'8'
p55
sS'_season'
p56
S'1992-93'
p57
sS'_fieldGoals'
p58
S'23'
p59
sS'_turnOvers'
p60
S'16'
p61
sS'_twoPointsPercentage'
p62
S'.385'
p63
sS'_minutesPlayed'
p64
S'174'
p65
sS'_gamesStarted'
p66
g47
sba(isrc.gp1.models.Totals
Totals
p67
(dp68
g8
S'13'
p69
sg10
S'78'
p70
sg12
S'.368'
p71
sg14
S'71'
p72
sg16
S'.346'
p73
sg18
S'27'
p74
sg20
S'145'
p75
sg22
S'PG'
p76
sg24
S'.571'
p77
sg26
S'.470'
p78
sg28
S'NBA'
p79
sg30
S'24'
p80
sg32
S'133'
p81
sg34
S'40'
p82
sg36
S'35'
p83
sg38
S'29'
p84
sg40
S'23'
p85
sg42
S'LAC'
p86
sg44
S'40'
p87
sg46
S'2'
p88
sg48
S'22'
p89
sg50
S'20'
p90
sg52
S'55'
p91
sg54
S'16'
p92
sg56
S'1993-94'
p93
sg58
S'49'
p94
sg60
S'34'
p95
sg62
S'.400'
p96
sg64
S'352'
p97
sg66
S'0'
p98
sba(isrc.gp1.models.Totals
Totals
p99
(dp100
g8
S'10'
p101
sg10
S'74'
p102
sg12
S'.316'
p103
sg14
S'134'
p104
sg16
S'.297'
p105
sg18
S'22'
p106
sg20
S'124'
p107
sg22
S'PG'
p108
sg24
S'.737'
p109
sg26
S'.410'
p110
sg28
S'NBA'
p111
sg30
S'41'
p112
sg32
S'117'
p113
sg34
S'87'
p114
sg36
S'38'
p115
sg38
S'44'
p116
sg40
S'24'
p117
sg42
S'LAC'
p118
sg44
S'62'
p119
sg46
g98
sg48
S'15'
p120
sg50
S'28'
p121
sg52
S'43'
p122
sg54
S'34'
p123
sg56
S'1994-95'
p124
sg58
S'37'
p125
sg60
S'55'
p126
sg62
S'.349'
p127
sg64
S'495'
p128
sg66
g19
sba(isrc.gp1.models.Totals
Totals
p129
(dp130
g8
g19
sg10
S'21'
p131
sg12
S'.273'
p132
sg14
S'12'
p133
sg16
S'.238'
p134
sg18
S'5'
p135
sg20
S'19'
p136
sg22
S'PG'
p137
sg24
S'1.000'
p138
sg26
S'.386'
p139
sg28
S'NBA'
p140
sg30
g9
sg32
S'22'
p141
sg34
S'13'
p142
sg36
g88
sg38
g9
sg40
S'25'
p143
sg42
S'DEN'
p144
sg44
g55
sg46
g47
sg48
g47
sg50
g88
sg52
g47
sg54
g19
sg56
S'1995-96'
p145
sg58
g9
sg60
g135
sg62
S'1.000'
p146
sg64
S'72'
p147
sg66
g98
sbasS'_college'
p148
S'La Salle University'
p149
sS'_toYear'
p150
S'1996'
p151
sS'_height'
p152
S'5-10'
p153
sS'_active'
p154
I00
sS'_shootingHand'
p155
VRight
p156
sS'_name'
p157
S'Randy Woods'
p158
sS'_per100Possessions'
p159
(lp160
(isrc.gp1.models.Per100Possession
Per100Possession
p161
(dp162
g8
S'1.7'
p163
sg10
S'3.9'
p164
sg12
S'.348'
p165
sS'_offensiveRating'
p166
S'96'
p167
sg14
S'11.1'
p168
sg16
S'.214'
p169
sg18
S'0.8'
p170
sg20
S'18.9'
p171
sg22
S'PG'
p172
sS'_defensiveRating'
p173
S'107'
p174
sg24
S'.731'
p175
sg28
S'NBA'
p176
sg30
S'3.9'
p177
sg32
S'18.4'
p178
sg34
S'7.2'
p179
sg36
S'7.2'
p180
sg38
S'3.9'
p181
sg40
S'22'
p182
sg42
S'LAC'
p183
sg44
S'41'
p184
sg46
S'0.3'
p185
sg48
S'5.6'
p186
sg50
S'5.3'
p187
sg52
S'14.5'
p188
sg54
S'2.2'
p189
sg56
S'1992-93'
p190
sg58
S'6.4'
p191
sg60
S'4.5'
p192
sg62
S'.385'
p193
sg64
S'174'
p194
sg66
g47
sba(isrc.gp1.models.Per100Possession
Per100Possession
p195
(dp196
g8
S'1.8'
p197
sg10
S'10.7'
p198
sg12
S'.368'
p199
sg166
S'98'
p200
sg14
S'9.7'
p201
sg16
S'.346'
p202
sg18
S'3.7'
p203
sg20
S'19.9'
p204
sg22
S'PG'
p205
sg173
S'109'
p206
sg24
S'.571'
p207
sg28
S'NBA'
p208
sg30
S'3.3'
p209
sg32
S'18.2'
p210
sg34
S'5.5'
p211
sg36
S'4.8'
p212
sg38
S'4.0'
p213
sg40
S'23'
p214
sg42
S'LAC'
p215
sg44
S'40'
p216
sg46
S'0.3'
p217
sg48
S'3.0'
p218
sg50
S'2.7'
p219
sg52
S'7.5'
p220
sg54
S'2.2'
p221
sg56
S'1993-94'
p222
sg58
S'6.7'
p223
sg60
S'4.7'
p224
sg62
S'.400'
p225
sg64
S'352'
p226
sg66
g98
sba(isrc.gp1.models.Per100Possession
Per100Possession
p227
(dp228
g8
S'1.0'
p229
sg10
S'7.6'
p230
sg12
S'.316'
p231
sg166
S'94'
p232
sg14
S'13.8'
p233
sg16
S'.297'
p234
sg18
S'2.3'
p235
sg20
S'12.8'
p236
sg22
S'PG'
p237
sg173
S'109'
p238
sg24
S'.737'
p239
sg28
S'NBA'
p240
sg30
S'4.2'
p241
sg32
S'12.0'
p242
sg34
S'8.9'
p243
sg36
S'3.9'
p244
sg38
S'4.5'
p245
sg40
S'24'
p246
sg42
S'LAC'
p247
sg44
S'62'
p248
sg46
S'0.0'
p249
sg48
S'1.5'
p250
sg50
S'2.9'
p251
sg52
S'4.4'
p252
sg54
S'3.5'
p253
sg56
S'1994-95'
p254
sg58
S'3.8'
p255
sg60
S'5.7'
p256
sg62
S'.349'
p257
sg64
S'495'
p258
sg66
g19
sba(isrc.gp1.models.Per100Possession
Per100Possession
p259
(dp260
g8
S'2.2'
p261
sg10
S'15.2'
p262
sg12
S'.273'
p263
sg166
S'94'
p264
sg14
S'8.7'
p265
sg16
S'.238'
p266
sg18
S'3.6'
p267
sg20
S'13.7'
p268
sg22
S'PG'
p269
sg173
S'105'
p270
sg24
S'1.000'
p271
sg28
S'NBA'
p272
sg30
S'4.3'
p273
sg32
S'15.9'
p274
sg34
S'9.4'
p275
sg36
S'1.4'
p276
sg38
S'4.3'
p277
sg40
S'25'
p278
sg42
S'DEN'
p279
sg44
g55
sg46
S'0.7'
p280
sg48
S'0.7'
p281
sg50
S'1.4'
p282
sg52
S'0.7'
p283
sg54
S'2.2'
p284
sg56
S'1995-96'
p285
sg58
S'4.3'
p286
sg60
S'3.6'
p287
sg62
S'1.000'
p288
sg64
S'72'
p289
sg66
g98
sbasS'_advanced'
p290
(lp291
(isrc.gp1.models.Advanced
Advanced
p292
(dp293
S'_offensiveReboundPercentage'
p294
S'3.8'
p295
sS'_turnOverPercentage'
p296
S'17.1'
p297
sS'_winSharesPer48Minutes'
p298
S'.037'
p299
sS'_stealPercentage'
p300
S'3.9'
p301
sS'_usagePercentage'
p302
S'22.1'
p303
sS'_totalReboundsPercentage'
p304
S'4.5'
p305
sS'_defensiveBoxPlusMinus'
p306
S'-1.7'
p307
sg22
S'PG'
p308
sS'_valueOverReplacementPlayer'
p309
S'-0.1'
p310
sS'_trueShootingPercentage'
p311
S'.439'
p312
sS'_defensiveReboundPercentage'
p313
S'5.1'
p314
sS'_freeThrowsAttempRate'
p315
S'.394'
p316
sS'_threePointsAttempRate'
p317
S'.212'
p318
sg28
S'NBA'
p319
sS'_offensiveBoxPlusMinues'
p320
S'-2.1'
p321
sS'_assistPercentage'
p322
S'30.1'
p323
sS'_defensiveWinShares'
p324
S'0.2'
p325
sg40
S'22'
p326
sg42
S'LAC'
p327
sg44
S'41'
p328
sS'_blockPercentage'
p329
S'0.4'
p330
sS'_playerEfficiencyRating'
p331
S'12.3'
p332
sS'_offensiveWinShares'
p333
S'-0.1'
p334
sg64
S'174'
p335
sS'_boxPlusMinus'
p336
S'-3.7'
p337
sg56
S'1992-93'
p338
sS'_winShares'
p339
S'0.1'
p340
sba(isrc.gp1.models.Advanced
Advanced
p341
(dp342
g294
S'4.0'
p343
sg296
S'18.6'
p344
sg298
S'.035'
p345
sg300
S'3.3'
p346
sg302
S'21.4'
p347
sg304
S'4.4'
p348
sg306
S'-2.8'
p349
sg22
S'PG'
p350
sg309
S'0.0'
p351
sg311
S'.489'
p352
sg313
S'4.8'
p353
sg315
S'.263'
p354
sg317
S'.586'
p355
sg28
S'NBA'
p356
sg320
S'0.5'
p357
sg322
S'28.6'
p358
sg324
S'0.2'
p359
sg40
S'23'
p360
sg42
S'LAC'
p361
sg44
S'40'
p362
sg329
S'0.3'
p363
sg331
S'12.8'
p364
sg333
S'0.0'
p365
sg64
S'352'
p366
sg336
S'-2.3'
p367
sg56
S'1993-94'
p368
sg339
S'0.3'
p369
sba(isrc.gp1.models.Advanced
Advanced
p370
(dp371
g294
S'2.2'
p372
sg296
S'29.1'
p373
sg298
S'.015'
p374
sg300
S'4.2'
p375
sg302
S'16.6'
p376
sg304
S'5.2'
p377
sg306
S'-2.1'
p378
sg22
S'PG'
p379
sg309
S'-0.3'
p380
sg311
S'.464'
p381
sg313
S'8.6'
p382
sg315
S'.325'
p383
sg317
S'.632'
p384
sg28
S'NBA'
p385
sg320
S'-2.5'
p386
sg322
S'39.0'
p387
sg324
S'0.5'
p388
sg40
S'24'
p389
sg42
S'LAC'
p390
sg44
S'62'
p391
sg329
S'0.0'
p392
sg331
S'10.9'
p393
sg333
S'-0.3'
p394
sg64
S'495'
p395
sg336
S'-4.6'
p396
sg56
S'1994-95'
p397
sg339
S'0.2'
p398
sba(isrc.gp1.models.Advanced
Advanced
p399
(dp400
g294
S'4.8'
p401
sg296
S'17.9'
p402
sg298
S'.038'
p403
sg300
S'4.3'
p404
sg302
S'17.3'
p405
sg304
S'4.8'
p406
sg306
S'-0.6'
p407
sg22
S'PG'
p408
sg309
S'0.0'
p409
sg311
S'.415'
p410
sg313
S'4.8'
p411
sg315
S'.091'
p412
sg317
S'.955'
p413
sg28
S'NBA'
p414
sg320
S'0.1'
p415
sg322
S'24.8'
p416
sg324
S'0.1'
p417
sg40
S'25'
p418
sg42
S'DEN'
p419
sg44
g55
sg329
S'1.0'
p420
sg331
S'9.5'
p421
sg333
S'0.0'
p422
sg64
S'72'
p423
sg336
S'-0.6'
p424
sg56
S'1995-96'
p425
sg339
S'0.1'
p426
sbasS'_per36Minutes'
p427
(lp428
(isrc.gp1.models.Per36Minutes
Per36Minutes
p429
(dp430
g8
S'1.2'
p431
sg10
S'2.9'
p432
sg12
S'.348'
p433
sg14
S'8.3'
p434
sg16
S'.214'
p435
sg18
S'0.6'
p436
sg20
S'14.1'
p437
sg22
S'PG'
p438
sg24
S'.731'
p439
sg28
S'NBA'
p440
sg30
S'2.9'
p441
sg32
S'13.7'
p442
sg34
S'5.4'
p443
sg36
S'5.4'
p444
sg38
S'2.9'
p445
sg40
S'22'
p446
sg42
S'LAC'
p447
sg44
S'41'
p448
sg46
S'0.2'
p449
sg48
S'4.1'
p450
sg50
S'3.9'
p451
sg52
S'10.8'
p452
sg54
S'1.7'
p453
sg56
S'1992-93'
p454
sg58
S'4.8'
p455
sg60
S'3.3'
p456
sg62
S'.385'
p457
sg64
S'174'
p458
sg66
g47
sba(isrc.gp1.models.Per36Minutes
Per36Minutes
p459
(dp460
g8
S'1.3'
p461
sg10
S'8.0'
p462
sg12
S'.368'
p463
sg14
S'7.3'
p464
sg16
S'.346'
p465
sg18
S'2.8'
p466
sg20
S'14.8'
p467
sg22
S'PG'
p468
sg24
S'.571'
p469
sg28
S'NBA'
p470
sg30
S'2.5'
p471
sg32
S'13.6'
p472
sg34
S'4.1'
p473
sg36
S'3.6'
p474
sg38
S'3.0'
p475
sg40
S'23'
p476
sg42
S'LAC'
p477
sg44
S'40'
p478
sg46
S'0.2'
p479
sg48
S'2.3'
p480
sg50
S'2.0'
p481
sg52
S'5.6'
p482
sg54
S'1.6'
p483
sg56
S'1993-94'
p484
sg58
S'5.0'
p485
sg60
S'3.5'
p486
sg62
S'.400'
p487
sg64
S'352'
p488
sg66
g98
sba(isrc.gp1.models.Per36Minutes
Per36Minutes
p489
(dp490
g8
S'0.7'
p491
sg10
S'5.4'
p492
sg12
S'.316'
p493
sg14
S'9.7'
p494
sg16
S'.297'
p495
sg18
S'1.6'
p496
sg20
S'9.0'
p497
sg22
S'PG'
p498
sg24
S'.737'
p499
sg28
S'NBA'
p500
sg30
S'3.0'
p501
sg32
S'8.5'
p502
sg34
S'6.3'
p503
sg36
S'2.8'
p504
sg38
S'3.2'
p505
sg40
S'24'
p506
sg42
S'LAC'
p507
sg44
S'62'
p508
sg46
S'0.0'
p509
sg48
S'1.1'
p510
sg50
S'2.0'
p511
sg52
S'3.1'
p512
sg54
S'2.5'
p513
sg56
S'1994-95'
p514
sg58
S'2.7'
p515
sg60
S'4.0'
p516
sg62
S'.349'
p517
sg64
S'495'
p518
sg66
g19
sba(isrc.gp1.models.Per36Minutes
Per36Minutes
p519
(dp520
g8
S'1.5'
p521
sg10
S'10.5'
p522
sg12
S'.273'
p523
sg14
S'6.0'
p524
sg16
S'.238'
p525
sg18
S'2.5'
p526
sg20
S'9.5'
p527
sg22
S'PG'
p528
sg24
S'1.000'
p529
sg28
S'NBA'
p530
sg30
S'3.0'
p531
sg32
S'11.0'
p532
sg34
S'6.5'
p533
sg36
S'1.0'
p534
sg38
S'3.0'
p535
sg40
S'25'
p536
sg42
S'DEN'
p537
sg44
g55
sg46
S'0.5'
p538
sg48
S'0.5'
p539
sg50
S'1.0'
p540
sg52
S'0.5'
p541
sg54
S'1.5'
p542
sg56
S'1995-96'
p543
sg58
S'3.0'
p544
sg60
S'2.5'
p545
sg62
S'1.000'
p546
sg64
S'72'
p547
sg66
g98
sbasS'_fromYear'
p548
S'1993'
p549
sS'_url'
p550
S'http://www.basketball-reference.com/players/w/woodsra01.html'
p551
sS'_perGame'
p552
(isrc.gp1.models.PerGame
PerGame
p553
(dp554
g8
S'0.4'
p555
sg10
S'2.6'
p556
sg12
S'.273'
p557
sS'_effectiveFieldGalPercentage'
p558
S'.386'
p559
sg14
S'1.5'
p560
sg16
S'.238'
p561
sg18
S'0.6'
p562
sg20
S'2.4'
p563
sg22
S'PG'
p564
sg24
S'1.000'
p565
sg28
S'NBA'
p566
sg30
S'0.8'
p567
sg34
S'1.6'
p568
sS'_fieldGoalsttempted'
p569
S'2.8'
p570
sg36
S'0.3'
p571
sg38
S'0.8'
p572
sg40
S'25'
p573
sg42
S'DEN'
p574
sg44
g55
sg46
S'0.1'
p575
sg48
S'0.1'
p576
sg50
S'0.3'
p577
sg52
S'0.1'
p578
sg54
S'0.4'
p579
sg56
S'1995-96'
p580
sg58
S'0.8'
p581
sg60
S'0.6'
p582
sg62
S'1.000'
p583
sg64
S'9.0'
p584
sg66
g98
sbsS'_weight'
p585
S'185'
p586
sS'_dob'
p587
S'23-9-1970'
p588
sS'_salary'
p589
(lp590
(isrc.gp1.models.Salary
Salary
p591
(dp592
g42
S'Los Angeles Clippers'
p593
sg28
S'NBA'
p594
sg589
S'$500,000'
p595
sg56
S'1992-93'
p596
sba(isrc.gp1.models.Salary
Salary
p597
(dp598
g42
S'Los Angeles Clippers'
p599
sg28
S'NBA'
p600
sg589
S'$650,000'
p601
sg56
S'1993-94'
p602
sba(isrc.gp1.models.Salary
Salary
p603
(dp604
g42
S'Los Angeles Clippers'
p605
sg28
S'NBA'
p606
sg589
S'$800,000'
p607
sg56
S'1994-95'
p608
sba(isrc.gp1.models.Salary
Salary
p609
(dp610
g42
S'Denver Nuggets'
p611
sg28
S'NBA'
p612
sg589
S'$500,000'
p613
sg56
S'1997-98'
p614
sbasg22
S'G'
p615
sb.