(isrc.gp1.models.Player
Player
p0
(dp1
S'_experience'
p2
VRookie
p3
sS'_totals'
p4
(lp5
(isrc.gp1.models.Totals
Totals
p6
(dp7
S'_offensiveRebounds'
p8
S'1'
p9
sS'_threePointsAttempted'
p10
S'3'
p11
sS'_fieldGoalsPercentage'
p12
S'.333'
p13
sS'_assist'
p14
S'4'
p15
sS'_threePointsPercentage'
p16
S'.667'
p17
sS'_threePoints'
p18
S'2'
p19
sS'_points'
p20
S'13'
p21
sS'_position'
p22
S'PG'
p23
sS'_freeThrowsPercentage'
p24
S'.500'
p25
sS'_effectiveFieldGoalPercentage'
p26
S'.417'
p27
sS'_league'
p28
S'NBA'
p29
sS'_steals'
p30
g9
sS'_fieldGoalsAttempted'
p31
S'12'
p32
sS'_personalFouls'
p33
g19
sS'_freeThrowsAttempted'
p34
S'6'
p35
sS'_totalRebounds'
p36
g35
sS'_age'
p37
S'23'
p38
sS'_team'
p39
S'TOR'
p40
sS'_games'
p41
S'12'
p42
sS'_blocks'
p43
S'0'
p44
sS'_twoPoints'
p45
g19
sS'_freeThrows'
p46
g11
sS'_twoPointsAttempted'
p47
S'9'
p48
sS'_defensiveRebounds'
p49
S'5'
p50
sS'_season'
p51
S'2015-16'
p52
sS'_fieldGoals'
p53
g15
sS'_turnOvers'
p54
g11
sS'_twoPointsPercentage'
p55
S'.222'
p56
sS'_minutesPlayed'
p57
S'36'
p58
sS'_gamesStarted'
p59
g44
sbasS'_college'
p60
S'University of Utah'
p61
sS'_toYear'
p62
S'2016'
p63
sS'_height'
p64
S'6-5'
p65
sS'_active'
p66
I01
sS'_shootingHand'
p67
VRight
p68
sS'_name'
p69
S'Delon Wright'
p70
sS'_per100Possessions'
p71
(lp72
(isrc.gp1.models.Per100Possession
Per100Possession
p73
(dp74
g8
S'1.4'
p75
sg10
S'4.3'
p76
sg12
S'.333'
p77
sS'_offensiveRating'
p78
S'89'
p79
sg14
S'5.7'
p80
sg16
S'.667'
p81
sg18
S'2.9'
p82
sg20
S'18.6'
p83
sg22
S'PG'
p84
sS'_defensiveRating'
p85
S'106'
p86
sg24
S'.500'
p87
sg28
S'NBA'
p88
sg30
S'1.4'
p89
sg31
S'17.1'
p90
sg33
S'2.9'
p91
sg34
S'8.6'
p92
sg36
S'8.6'
p93
sg37
S'23'
p94
sg39
S'TOR'
p95
sg41
S'12'
p96
sg43
S'0.0'
p97
sg45
S'2.9'
p98
sg46
S'4.3'
p99
sg47
S'12.8'
p100
sg49
S'7.1'
p101
sg51
S'2015-16'
p102
sg53
S'5.7'
p103
sg54
S'4.3'
p104
sg55
S'.222'
p105
sg57
S'36'
p106
sg59
g44
sbasS'_advanced'
p107
(lp108
(isrc.gp1.models.Advanced
Advanced
p109
(dp110
S'_offensiveReboundPercentage'
p111
S'3.2'
p112
sS'_turnOverPercentage'
p113
S'17.0'
p114
sS'_winSharesPer48Minutes'
p115
S'-0.008'
p116
sS'_stealPercentage'
p117
S'1.4'
p118
sS'_usagePercentage'
p119
S'22.1'
p120
sS'_totalReboundsPercentage'
p121
S'9.5'
p122
sS'_defensiveBoxPlusMinus'
p123
S'-1.7'
p124
sg22
S'PG'
p125
sS'_valueOverReplacementPlayer'
p126
S'0.0'
p127
sS'_trueShootingPercentage'
p128
S'.444'
p129
sS'_defensiveReboundPercentage'
p130
S'15.8'
p131
sS'_freeThrowsAttempRate'
p132
S'.500'
p133
sS'_threePointsAttempRate'
p134
S'.250'
p135
sg28
S'NBA'
p136
sS'_offensiveBoxPlusMinues'
p137
S'-4.4'
p138
sS'_assistPercentage'
p139
S'17.4'
p140
sS'_defensiveWinShares'
p141
S'0.0'
p142
sg37
S'23'
p143
sg39
S'TOR'
p144
sg41
S'12'
p145
sS'_blockPercentage'
p146
S'0.0'
p147
sS'_playerEfficiencyRating'
p148
S'8.9'
p149
sS'_offensiveWinShares'
p150
S'0.0'
p151
sg57
S'36'
p152
sS'_boxPlusMinus'
p153
S'-6.1'
p154
sg51
S'2015-16'
p155
sS'_winShares'
p156
S'0.0'
p157
sbasS'_per36Minutes'
p158
(lp159
(isrc.gp1.models.Per36Minutes
Per36Minutes
p160
(dp161
g8
S'1.0'
p162
sg10
S'3.0'
p163
sg12
S'.333'
p164
sg14
S'4.0'
p165
sg16
S'.667'
p166
sg18
S'2.0'
p167
sg20
S'13.0'
p168
sg22
S'PG'
p169
sg24
S'.500'
p170
sg28
S'NBA'
p171
sg30
S'1.0'
p172
sg31
S'12.0'
p173
sg33
S'2.0'
p174
sg34
S'6.0'
p175
sg36
S'6.0'
p176
sg37
S'23'
p177
sg39
S'TOR'
p178
sg41
S'12'
p179
sg43
S'0.0'
p180
sg45
S'2.0'
p181
sg46
S'3.0'
p182
sg47
S'9.0'
p183
sg49
S'5.0'
p184
sg51
S'2015-16'
p185
sg53
S'4.0'
p186
sg54
S'3.0'
p187
sg55
S'.222'
p188
sg57
S'36'
p189
sg59
g44
sbasS'_fromYear'
p190
S'2016'
p191
sS'_url'
p192
S'http://www.basketball-reference.com/players/w/wrighde01.html'
p193
sS'_perGame'
p194
(isrc.gp1.models.PerGame
PerGame
p195
(dp196
g8
S'0.1'
p197
sg10
S'0.3'
p198
sg12
S'.333'
p199
sS'_effectiveFieldGalPercentage'
p200
S'.417'
p201
sg14
S'0.3'
p202
sg16
S'.667'
p203
sg18
S'0.2'
p204
sg20
S'1.1'
p205
sg22
S'PG'
p206
sg24
S'.500'
p207
sg28
S'NBA'
p208
sg30
S'0.1'
p209
sg33
S'0.2'
p210
sS'_fieldGoalsttempted'
p211
S'1.0'
p212
sg34
S'0.5'
p213
sg36
S'0.5'
p214
sg37
S'23'
p215
sg39
S'TOR'
p216
sg41
S'12'
p217
sg43
S'0.0'
p218
sg45
S'0.2'
p219
sg46
S'0.3'
p220
sg47
S'0.8'
p221
sg49
S'0.4'
p222
sg51
S'2015-16'
p223
sg53
S'0.3'
p224
sg54
S'0.3'
p225
sg55
S'.222'
p226
sg57
S'3.0'
p227
sg59
g44
sbsS'_weight'
p228
S'190'
p229
sS'_dob'
p230
S'26-4-1992'
p231
sS'_salary'
p232
(lp233
sg22
S'G'
p234
sb.