(isrc.gp1.models.Player
Player
p0
(dp1
S'_experience'
p2
S'NA'
p3
sS'_totals'
p4
(lp5
(isrc.gp1.models.Totals
Totals
p6
(dp7
S'_offensiveRebounds'
p8
S'3'
p9
sS'_threePointsAttempted'
p10
S'17'
p11
sS'_fieldGoalsPercentage'
p12
S'.412'
p13
sS'_assist'
p14
S'5'
p15
sS'_threePointsPercentage'
p16
S'.353'
p17
sS'_threePoints'
p18
S'6'
p19
sS'_points'
p20
S'62'
p21
sS'_position'
p22
S'SG'
p23
sS'_freeThrowsPercentage'
p24
S'.875'
p25
sS'_effectiveFieldGoalPercentage'
p26
S'.471'
p27
sS'_league'
p28
S'NBA'
p29
sS'_steals'
p30
S'1'
p31
sS'_fieldGoalsAttempted'
p32
S'51'
p33
sS'_personalFouls'
p34
S'8'
p35
sS'_freeThrowsAttempted'
p36
S'16'
p37
sS'_totalRebounds'
p38
S'18'
p39
sS'_age'
p40
S'21'
p41
sS'_team'
p42
S'MIN'
p43
sS'_games'
p44
S'7'
p45
sS'_blocks'
p46
S'0'
p47
sS'_twoPoints'
p48
S'15'
p49
sS'_freeThrows'
p50
S'14'
p51
sS'_twoPointsAttempted'
p52
S'34'
p53
sS'_defensiveRebounds'
p54
S'15'
p55
sS'_season'
p56
S'2005-06'
p57
sS'_fieldGoals'
p58
S'21'
p59
sS'_turnOvers'
p60
g35
sS'_twoPointsPercentage'
p61
S'.441'
p62
sS'_minutesPlayed'
p63
S'135'
p64
sS'_gamesStarted'
p65
g47
sba(isrc.gp1.models.Totals
Totals
p66
(dp67
g8
g45
sg10
S'20'
p68
sg12
S'.400'
p69
sg14
S'15'
p70
sg16
S'.300'
p71
sg18
g19
sg20
S'67'
p72
sg22
S'SG'
p73
sg24
S'.722'
p74
sg26
S'.450'
p75
sg28
S'NBA'
p76
sg30
S'9'
p77
sg32
S'60'
p78
sg34
g19
sg36
S'18'
p79
sg38
S'21'
p80
sg40
S'22'
p81
sg42
S'MIN'
p82
sg44
S'19'
p83
sg46
g31
sg48
S'18'
p84
sg50
S'13'
p85
sg52
S'40'
p86
sg54
S'14'
p87
sg56
S'2006-07'
p88
sg58
S'24'
p89
sg60
g19
sg61
S'.450'
p90
sg63
S'190'
p91
sg65
g47
sbasS'_college'
p92
S'Indiana University'
p93
sS'_toYear'
p94
S'2007'
p95
sS'_height'
p96
S'6-3'
p97
sS'_active'
p98
I00
sS'_shootingHand'
p99
VRight
p100
sS'_name'
p101
S'Bracey Wright'
p102
sS'_per100Possessions'
p103
(lp104
(isrc.gp1.models.Per100Possession
Per100Possession
p105
(dp106
g8
S'1.2'
p107
sg10
S'6.8'
p108
sg12
S'.412'
p109
sS'_offensiveRating'
p110
S'101'
p111
sg14
S'2.0'
p112
sg16
S'.353'
p113
sg18
S'2.4'
p114
sg20
S'24.8'
p115
sg22
S'SG'
p116
sS'_defensiveRating'
p117
S'109'
p118
sg24
S'.875'
p119
sg28
S'NBA'
p120
sg30
S'0.4'
p121
sg32
S'20.4'
p122
sg34
S'3.2'
p123
sg36
S'6.4'
p124
sg38
S'7.2'
p125
sg40
S'21'
p126
sg42
S'MIN'
p127
sg44
g45
sg46
S'0.0'
p128
sg48
S'6.0'
p129
sg50
S'5.6'
p130
sg52
S'13.6'
p131
sg54
S'6.0'
p132
sg56
S'2005-06'
p133
sg58
S'8.4'
p134
sg60
S'3.2'
p135
sg61
S'.441'
p136
sg63
S'135'
p137
sg65
g47
sba(isrc.gp1.models.Per100Possession
Per100Possession
p138
(dp139
g8
S'1.9'
p140
sg10
S'5.6'
p141
sg12
S'.400'
p142
sg110
S'105'
p143
sg14
S'4.2'
p144
sg16
S'.300'
p145
sg18
S'1.7'
p146
sg20
S'18.6'
p147
sg22
S'SG'
p148
sg117
S'108'
p149
sg24
S'.722'
p150
sg28
S'NBA'
p151
sg30
S'2.5'
p152
sg32
S'16.7'
p153
sg34
S'1.7'
p154
sg36
S'5.0'
p155
sg38
S'5.8'
p156
sg40
S'22'
p157
sg42
S'MIN'
p158
sg44
S'19'
p159
sg46
S'0.3'
p160
sg48
S'5.0'
p161
sg50
S'3.6'
p162
sg52
S'11.1'
p163
sg54
S'3.9'
p164
sg56
S'2006-07'
p165
sg58
S'6.7'
p166
sg60
S'1.7'
p167
sg61
S'.450'
p168
sg63
S'190'
p169
sg65
g47
sbasS'_advanced'
p170
(lp171
(isrc.gp1.models.Advanced
Advanced
p172
(dp173
S'_offensiveReboundPercentage'
p174
S'2.7'
p175
sS'_turnOverPercentage'
p176
S'12.1'
p177
sS'_winSharesPer48Minutes'
p178
S'.054'
p179
sS'_stealPercentage'
p180
S'0.4'
p181
sS'_usagePercentage'
p182
S'23.2'
p183
sS'_totalReboundsPercentage'
p184
S'8.0'
p185
sS'_defensiveBoxPlusMinus'
p186
S'-3.9'
p187
sg22
S'SG'
p188
sS'_valueOverReplacementPlayer'
p189
S'-0.1'
p190
sS'_trueShootingPercentage'
p191
S'.534'
p192
sS'_defensiveReboundPercentage'
p193
S'13.0'
p194
sS'_freeThrowsAttempRate'
p195
S'.314'
p196
sS'_threePointsAttempRate'
p197
S'.333'
p198
sg28
S'NBA'
p199
sS'_offensiveBoxPlusMinues'
p200
S'-2.2'
p201
sS'_assistPercentage'
p202
S'6.5'
p203
sS'_defensiveWinShares'
p204
S'0.1'
p205
sg40
S'21'
p206
sg42
S'MIN'
p207
sg44
g45
sS'_blockPercentage'
p208
S'0.0'
p209
sS'_playerEfficiencyRating'
p210
S'12.1'
p211
sS'_offensiveWinShares'
p212
S'0.1'
p213
sg63
S'135'
p214
sS'_boxPlusMinus'
p215
S'-6.1'
p216
sg56
S'2005-06'
p217
sS'_winShares'
p218
S'0.2'
p219
sba(isrc.gp1.models.Advanced
Advanced
p220
(dp221
g174
S'4.5'
p222
sg176
S'8.1'
p223
sg178
S'.077'
p224
sg180
S'2.5'
p225
sg182
S'18.1'
p226
sg184
S'6.6'
p227
sg186
S'-1.3'
p228
sg22
S'SG'
p229
sg189
S'0.0'
p230
sg191
S'.493'
p231
sg193
S'8.6'
p232
sg195
S'.300'
p233
sg197
S'.333'
p234
sg28
S'NBA'
p235
sg200
S'-0.7'
p236
sg202
S'12.7'
p237
sg204
S'0.2'
p238
sg40
S'22'
p239
sg42
S'MIN'
p240
sg44
S'19'
p241
sg208
S'0.4'
p242
sg210
S'13.8'
p243
sg212
S'0.2'
p244
sg63
S'190'
p245
sg215
S'-2.0'
p246
sg56
S'2006-07'
p247
sg218
S'0.3'
p248
sbasS'_per36Minutes'
p249
(lp250
(isrc.gp1.models.Per36Minutes
Per36Minutes
p251
(dp252
g8
S'0.8'
p253
sg10
S'4.5'
p254
sg12
S'.412'
p255
sg14
S'1.3'
p256
sg16
S'.353'
p257
sg18
S'1.6'
p258
sg20
S'16.5'
p259
sg22
S'SG'
p260
sg24
S'.875'
p261
sg28
S'NBA'
p262
sg30
S'0.3'
p263
sg32
S'13.6'
p264
sg34
S'2.1'
p265
sg36
S'4.3'
p266
sg38
S'4.8'
p267
sg40
S'21'
p268
sg42
S'MIN'
p269
sg44
g45
sg46
S'0.0'
p270
sg48
S'4.0'
p271
sg50
S'3.7'
p272
sg52
S'9.1'
p273
sg54
S'4.0'
p274
sg56
S'2005-06'
p275
sg58
S'5.6'
p276
sg60
S'2.1'
p277
sg61
S'.441'
p278
sg63
S'135'
p279
sg65
g47
sba(isrc.gp1.models.Per36Minutes
Per36Minutes
p280
(dp281
g8
S'1.3'
p282
sg10
S'3.8'
p283
sg12
S'.400'
p284
sg14
S'2.8'
p285
sg16
S'.300'
p286
sg18
S'1.1'
p287
sg20
S'12.7'
p288
sg22
S'SG'
p289
sg24
S'.722'
p290
sg28
S'NBA'
p291
sg30
S'1.7'
p292
sg32
S'11.4'
p293
sg34
S'1.1'
p294
sg36
S'3.4'
p295
sg38
S'4.0'
p296
sg40
S'22'
p297
sg42
S'MIN'
p298
sg44
S'19'
p299
sg46
S'0.2'
p300
sg48
S'3.4'
p301
sg50
S'2.5'
p302
sg52
S'7.6'
p303
sg54
S'2.7'
p304
sg56
S'2006-07'
p305
sg58
S'4.5'
p306
sg60
S'1.1'
p307
sg61
S'.450'
p308
sg63
S'190'
p309
sg65
g47
sbasS'_fromYear'
p310
S'2006'
p311
sS'_url'
p312
S'http://www.basketball-reference.com/players/w/wrighbr02.html'
p313
sS'_perGame'
p314
(isrc.gp1.models.PerGame
PerGame
p315
(dp316
g8
S'0.4'
p317
sg10
S'1.1'
p318
sg12
S'.400'
p319
sS'_effectiveFieldGalPercentage'
p320
S'.450'
p321
sg14
S'0.8'
p322
sg16
S'.300'
p323
sg18
S'0.3'
p324
sg20
S'3.5'
p325
sg22
S'SG'
p326
sg24
S'.722'
p327
sg28
S'NBA'
p328
sg30
S'0.5'
p329
sg34
S'0.3'
p330
sS'_fieldGoalsttempted'
p331
S'3.2'
p332
sg36
S'0.9'
p333
sg38
S'1.1'
p334
sg40
S'22'
p335
sg42
S'MIN'
p336
sg44
S'19'
p337
sg46
S'0.1'
p338
sg48
S'0.9'
p339
sg50
S'0.7'
p340
sg52
S'2.1'
p341
sg54
S'0.7'
p342
sg56
S'2006-07'
p343
sg58
S'1.3'
p344
sg60
S'0.3'
p345
sg61
S'.450'
p346
sg63
S'10.0'
p347
sg65
g47
sbsS'_weight'
p348
S'210'
p349
sS'_dob'
p350
S'1-7-1984'
p351
sS'_salary'
p352
(lp353
(isrc.gp1.models.Salary
Salary
p354
(dp355
g42
S'Minnesota Timberwolves'
p356
sg28
S'NBA'
p357
sg352
S'$398,762'
p358
sg56
S'2005-06'
p359
sba(isrc.gp1.models.Salary
Salary
p360
(dp361
g42
S'Minnesota Timberwolves'
p362
sg28
S'NBA'
p363
sg352
S'$664,209'
p364
sg56
S'2006-07'
p365
sbasg22
S'G'
p366
sb.