(isrc.gp1.models.Player
Player
p0
(dp1
S'_experience'
p2
V7
p3
sS'_totals'
p4
(lp5
(isrc.gp1.models.Totals
Totals
p6
(dp7
S'_offensiveRebounds'
p8
S'38'
p9
sS'_threePointsAttempted'
p10
S'0'
p11
sS'_fieldGoalsPercentage'
p12
S'.554'
p13
sS'_assist'
p14
S'9'
p15
sS'_threePointsPercentage'
p16
S'NA'
p17
sS'_threePoints'
p18
g11
sS'_points'
p19
S'151'
p20
sS'_position'
p21
S'PF'
p22
sS'_freeThrowsPercentage'
p23
S'.675'
p24
sS'_effectiveFieldGoalPercentage'
p25
S'.554'
p26
sS'_league'
p27
S'NBA'
p28
sS'_steals'
p29
S'6'
p30
sS'_fieldGoalsAttempted'
p31
S'112'
p32
sS'_personalFouls'
p33
S'36'
p34
sS'_freeThrowsAttempted'
p35
S'40'
p36
sS'_totalRebounds'
p37
S'99'
p38
sS'_age'
p39
S'20'
p40
sS'_team'
p41
S'GSW'
p42
sS'_games'
p43
S'38'
p44
sS'_blocks'
p45
S'22'
p46
sS'_twoPoints'
p47
S'62'
p48
sS'_freeThrows'
p49
S'27'
p50
sS'_twoPointsAttempted'
p51
S'112'
p52
sS'_defensiveRebounds'
p53
S'61'
p54
sS'_season'
p55
S'2007-08'
p56
sS'_fieldGoals'
p57
S'62'
p58
sS'_turnOvers'
p59
S'13'
p60
sS'_twoPointsPercentage'
p61
S'.554'
p62
sS'_minutesPlayed'
p63
S'376'
p64
sS'_gamesStarted'
p65
g30
sba(isrc.gp1.models.Totals
Totals
p66
(dp67
g8
S'62'
p68
sg10
S'4'
p69
sg12
S'.528'
p70
sg14
S'21'
p71
sg16
S'.000'
p72
sg18
g11
sg19
S'323'
p73
sg21
S'PF'
p74
sg23
S'.741'
p75
sg25
S'.528'
p76
sg27
S'NBA'
p77
sg29
S'22'
p78
sg31
S'246'
p79
sg33
S'74'
p80
sg35
S'85'
p81
sg37
S'157'
p82
sg39
S'21'
p83
sg41
S'GSW'
p84
sg43
S'39'
p85
sg45
S'37'
p86
sg47
S'130'
p87
sg49
S'63'
p88
sg51
S'242'
p89
sg53
S'95'
p90
sg55
S'2008-09'
p91
sg57
S'130'
p92
sg59
S'23'
p93
sg61
S'.537'
p94
sg63
S'688'
p95
sg65
S'23'
p96
sba(isrc.gp1.models.Totals
Totals
p97
(dp98
g8
g17
sg10
g17
sg12
g17
sg14
g17
sg16
g17
sg18
g17
sg19
g17
sg21
g17
sg23
g17
sg25
g17
sg27
g17
sg29
g17
sg31
g17
sg33
g17
sg35
g17
sg37
g17
sg39
S'22'
p99
sg41
S'Did Not Play\xc2\xa0(injury\xe2\x80\x94shoulder)'
p100
sg43
g17
sg45
g17
sg47
g17
sg49
g17
sg51
g17
sg53
g17
sg55
S'2009-10'
p101
sg57
g17
sg59
g17
sg61
g17
sg63
g17
sg65
g17
sba(isrc.gp1.models.Totals
Totals
p102
(dp103
g8
S'31'
p104
sg10
g11
sg12
S'.513'
p105
sg14
S'12'
p106
sg16
g17
sg18
g11
sg19
S'141'
p107
sg21
S'PF'
p108
sg23
S'.677'
p109
sg25
S'.513'
p110
sg27
S'NBA'
p111
sg29
S'11'
p112
sg31
S'117'
p113
sg33
S'34'
p114
sg35
S'31'
p115
sg37
S'89'
p116
sg39
S'23'
p117
sg41
S'TOT'
p118
sg43
S'37'
p119
sg45
S'17'
p120
sg47
S'60'
p121
sg49
S'21'
p122
sg51
S'117'
p123
sg53
S'58'
p124
sg55
S'2010-11'
p125
sg57
S'60'
p126
sg59
S'14'
p127
sg61
S'.513'
p128
sg63
S'379'
p129
sg65
S'2'
p130
sba(isrc.gp1.models.Totals
Totals
p131
(dp132
g8
S'14'
p133
sg10
g11
sg12
S'.603'
p134
sg14
S'5'
p135
sg16
g17
sg18
g11
sg19
S'83'
p136
sg21
S'PF'
p137
sg23
S'.500'
p138
sg25
S'.603'
p139
sg27
S'NBA'
p140
sg29
S'3'
p141
sg31
S'63'
p142
sg33
S'19'
p143
sg35
S'14'
p144
sg37
S'41'
p145
sg39
S'23'
p146
sg41
S'GSW'
p147
sg43
S'21'
p148
sg45
S'10'
p149
sg47
S'38'
p150
sg49
S'7'
p151
sg51
S'63'
p152
sg53
S'27'
p153
sg55
S'2010-11'
p154
sg57
S'38'
p155
sg59
S'10'
p156
sg61
S'.603'
p157
sg63
S'195'
p158
sg65
S'1'
p159
sba(isrc.gp1.models.Totals
Totals
p160
(dp161
g8
S'17'
p162
sg10
g11
sg12
S'.407'
p163
sg14
g151
sg16
g17
sg18
g11
sg19
S'58'
p164
sg21
S'PF'
p165
sg23
S'.824'
p166
sg25
S'.407'
p167
sg27
S'NBA'
p168
sg29
S'8'
p169
sg31
S'54'
p170
sg33
S'15'
p171
sg35
S'17'
p172
sg37
S'48'
p173
sg39
S'23'
p174
sg41
S'NJN'
p175
sg43
S'16'
p176
sg45
g151
sg47
S'22'
p177
sg49
S'14'
p178
sg51
S'54'
p179
sg53
S'31'
p180
sg55
S'2010-11'
p181
sg57
S'22'
p182
sg59
g69
sg61
S'.407'
p183
sg63
S'184'
p184
sg65
g159
sba(isrc.gp1.models.Totals
Totals
p185
(dp186
g8
S'62'
p187
sg10
g159
sg12
S'.618'
p188
sg14
S'13'
p189
sg16
S'.000'
p190
sg18
g11
sg19
S'340'
p191
sg21
S'C'
p192
sg23
S'.634'
p193
sg25
S'.618'
p194
sg27
S'NBA'
p195
sg29
S'22'
p196
sg31
S'233'
p197
sg33
S'61'
p198
sg35
S'82'
p199
sg37
S'174'
p200
sg39
S'24'
p201
sg41
S'DAL'
p202
sg43
S'49'
p203
sg45
S'63'
p204
sg47
S'144'
p205
sg49
S'52'
p206
sg51
S'232'
p207
sg53
S'112'
p208
sg55
S'2011-12'
p209
sg57
S'144'
p210
sg59
S'21'
p211
sg61
S'.621'
p212
sg63
S'791'
p213
sg65
g11
sba(isrc.gp1.models.Totals
Totals
p214
(dp215
g8
S'85'
p216
sg10
g141
sg12
S'.597'
p217
sg14
S'38'
p218
sg16
S'.000'
p219
sg18
g11
sg19
S'541'
p220
sg21
g192
sg23
S'.615'
p221
sg25
S'.597'
p222
sg27
S'NBA'
p223
sg29
S'26'
p224
sg31
S'404'
p225
sg33
S'78'
p226
sg35
S'96'
p227
sg37
S'260'
p228
sg39
S'25'
p229
sg41
S'DAL'
p230
sg43
S'64'
p231
sg45
S'76'
p232
sg47
S'241'
p233
sg49
S'59'
p234
sg51
S'401'
p235
sg53
S'175'
p236
sg55
S'2012-13'
p237
sg57
S'241'
p238
sg59
S'34'
p239
sg61
S'.601'
p240
sg63
S'1149'
p241
sg65
S'16'
p242
sba(isrc.gp1.models.Totals
Totals
p243
(dp244
g8
S'102'
p245
sg10
g11
sg12
S'.677'
p246
sg14
S'31'
p247
sg16
g17
sg18
g11
sg19
S'525'
p248
sg21
g192
sg23
S'.726'
p249
sg25
S'.677'
p250
sg27
S'NBA'
p251
sg29
S'32'
p252
sg31
S'331'
p253
sg33
S'94'
p254
sg35
S'106'
p255
sg37
S'244'
p256
sg39
S'26'
p257
sg41
S'DAL'
p258
sg43
S'58'
p259
sg45
S'55'
p260
sg47
S'224'
p261
sg49
S'77'
p262
sg51
S'331'
p263
sg53
S'142'
p264
sg55
S'2013-14'
p265
sg57
S'224'
p266
sg59
S'35'
p267
sg61
S'.677'
p268
sg63
S'1077'
p269
sg65
g11
sba(isrc.gp1.models.Totals
Totals
p270
(dp271
g8
S'128'
p272
sg10
g141
sg12
S'.642'
p273
sg14
S'41'
p274
sg16
S'.000'
p275
sg18
g11
sg19
S'544'
p276
sg21
S'PF'
p277
sg23
S'.696'
p278
sg25
S'.642'
p279
sg27
S'NBA'
p280
sg29
S'50'
p281
sg31
S'363'
p282
sg33
S'102'
p283
sg35
S'112'
p284
sg37
S'321'
p285
sg39
S'27'
p286
sg41
S'TOT'
p287
sg43
S'75'
p288
sg45
S'94'
p289
sg47
S'233'
p290
sg49
S'78'
p291
sg51
S'360'
p292
sg53
S'193'
p293
sg55
S'2014-15'
p294
sg57
S'233'
p295
sg59
S'34'
p296
sg61
S'.647'
p297
sg63
S'1449'
p298
sg65
g151
sba(isrc.gp1.models.Totals
Totals
p299
(dp300
g8
S'51'
p301
sg10
g11
sg12
S'.748'
p302
sg14
S'10'
p303
sg16
g17
sg18
g11
sg19
S'238'
p304
sg21
S'PF'
p305
sg23
S'.750'
p306
sg25
S'.748'
p307
sg27
S'NBA'
p308
sg29
S'17'
p309
sg31
S'135'
p310
sg33
S'44'
p311
sg35
S'48'
p312
sg37
S'110'
p313
sg39
S'27'
p314
sg41
S'DAL'
p315
sg43
S'27'
p316
sg45
S'42'
p317
sg47
S'101'
p318
sg49
S'36'
p319
sg51
S'135'
p320
sg53
S'59'
p321
sg55
S'2014-15'
p322
sg57
S'101'
p323
sg59
S'13'
p324
sg61
S'.748'
p325
sg63
S'505'
p326
sg65
g11
sba(isrc.gp1.models.Totals
Totals
p327
(dp328
g8
g151
sg10
g11
sg12
S'.571'
p329
sg14
g169
sg16
g17
sg18
g11
sg19
S'26'
p330
sg21
S'PF'
p331
sg23
S'.500'
p332
sg25
S'.571'
p333
sg27
S'NBA'
p334
sg29
g159
sg31
S'21'
p335
sg33
g69
sg35
g69
sg37
S'17'
p336
sg39
S'27'
p337
sg41
S'BOS'
p338
sg43
g169
sg45
g135
sg47
S'12'
p339
sg49
g130
sg51
S'21'
p340
sg53
S'10'
p341
sg55
S'2014-15'
p342
sg57
S'12'
p343
sg59
g135
sg61
S'.571'
p344
sg63
S'86'
p345
sg65
g11
sba(isrc.gp1.models.Totals
Totals
p346
(dp347
g8
S'70'
p348
sg10
g141
sg12
S'.580'
p349
sg14
S'23'
p350
sg16
S'.000'
p351
sg18
g11
sg19
S'280'
p352
sg21
S'PF'
p353
sg23
S'.667'
p354
sg25
S'.580'
p355
sg27
S'NBA'
p356
sg29
S'32'
p357
sg31
S'207'
p358
sg33
S'54'
p359
sg35
S'60'
p360
sg37
S'194'
p361
sg39
S'27'
p362
sg41
S'PHO'
p363
sg43
S'40'
p364
sg45
S'47'
p365
sg47
S'120'
p366
sg49
S'40'
p367
sg51
S'204'
p368
sg53
S'124'
p369
sg55
S'2014-15'
p370
sg57
S'120'
p371
sg59
S'16'
p372
sg61
S'.588'
p373
sg63
S'858'
p374
sg65
g151
sba(isrc.gp1.models.Totals
Totals
p375
(dp376
g8
g30
sg10
g11
sg12
S'.600'
p377
sg14
g69
sg16
g17
sg18
g11
sg19
S'46'
p378
sg21
S'PF'
p379
sg23
S'.556'
p380
sg25
S'.600'
p381
sg27
S'NBA'
p382
sg29
g159
sg31
S'30'
p383
sg33
g15
sg35
S'18'
p384
sg37
S'24'
p385
sg39
S'28'
p386
sg41
S'MEM'
p387
sg43
g151
sg45
S'10'
p388
sg47
S'18'
p389
sg49
S'10'
p390
sg51
S'30'
p391
sg53
S'18'
p392
sg55
S'2015-16'
p393
sg57
S'18'
p394
sg59
g69
sg61
S'.600'
p395
sg63
S'120'
p396
sg65
g11
sbasS'_college'
p397
S'University of North Carolina'
p398
sS'_toYear'
p399
S'2016'
p400
sS'_height'
p401
S'6-10'
p402
sS'_active'
p403
I01
sS'_shootingHand'
p404
VLeft
p405
sS'_name'
p406
S'Brandan Wright'
p407
sS'_per100Possessions'
p408
(lp409
(isrc.gp1.models.Per100Possession
Per100Possession
p410
(dp411
g8
S'4.9'
p412
sg10
S'0.0'
p413
sg12
S'.554'
p414
sS'_offensiveRating'
p415
S'120'
p416
sg14
S'1.2'
p417
sg16
g17
sg18
S'0.0'
p418
sg19
S'19.5'
p419
sg21
S'PF'
p420
sS'_defensiveRating'
p421
S'109'
p422
sg23
S'.675'
p423
sg27
S'NBA'
p424
sg29
S'0.8'
p425
sg31
S'14.5'
p426
sg33
S'4.6'
p427
sg35
S'5.2'
p428
sg37
S'12.8'
p429
sg39
S'20'
p430
sg41
S'GSW'
p431
sg43
S'38'
p432
sg45
S'2.8'
p433
sg47
S'8.0'
p434
sg49
S'3.5'
p435
sg51
S'14.5'
p436
sg53
S'7.9'
p437
sg55
S'2007-08'
p438
sg57
S'8.0'
p439
sg59
S'1.7'
p440
sg61
S'.554'
p441
sg63
S'376'
p442
sg65
g30
sba(isrc.gp1.models.Per100Possession
Per100Possession
p443
(dp444
g8
S'4.4'
p445
sg10
S'0.3'
p446
sg12
S'.528'
p447
sg415
S'118'
p448
sg14
S'1.5'
p449
sg16
S'.000'
p450
sg18
S'0.0'
p451
sg19
S'23.0'
p452
sg21
S'PF'
p453
sg421
S'112'
p454
sg23
S'.741'
p455
sg27
S'NBA'
p456
sg29
S'1.6'
p457
sg31
S'17.5'
p458
sg33
S'5.3'
p459
sg35
S'6.0'
p460
sg37
S'11.2'
p461
sg39
S'21'
p462
sg41
S'GSW'
p463
sg43
S'39'
p464
sg45
S'2.6'
p465
sg47
S'9.2'
p466
sg49
S'4.5'
p467
sg51
S'17.2'
p468
sg53
S'6.8'
p469
sg55
S'2008-09'
p470
sg57
S'9.2'
p471
sg59
S'1.6'
p472
sg61
S'.537'
p473
sg63
S'688'
p474
sg65
S'23'
p475
sba(isrc.gp1.models.Per100Possession
Per100Possession
p476
(dp477
g8
S'4.2'
p478
sg10
S'0.0'
p479
sg12
S'.513'
p480
sg415
S'110'
p481
sg14
S'1.6'
p482
sg16
g17
sg18
S'0.0'
p483
sg19
S'19.3'
p484
sg21
S'PF'
p485
sg421
S'108'
p486
sg23
S'.677'
p487
sg27
S'NBA'
p488
sg29
S'1.5'
p489
sg31
S'16.0'
p490
sg33
S'4.7'
p491
sg35
S'4.2'
p492
sg37
S'12.2'
p493
sg39
S'23'
p494
sg41
S'TOT'
p495
sg43
S'37'
p496
sg45
S'2.3'
p497
sg47
S'8.2'
p498
sg49
S'2.9'
p499
sg51
S'16.0'
p500
sg53
S'7.9'
p501
sg55
S'2010-11'
p502
sg57
S'8.2'
p503
sg59
S'1.9'
p504
sg61
S'.513'
p505
sg63
S'379'
p506
sg65
g130
sba(isrc.gp1.models.Per100Possession
Per100Possession
p507
(dp508
g8
S'3.6'
p509
sg10
S'0.0'
p510
sg12
S'.603'
p511
sg415
S'111'
p512
sg14
S'1.3'
p513
sg16
g17
sg18
S'0.0'
p514
sg19
S'21.5'
p515
sg21
S'PF'
p516
sg421
S'111'
p517
sg23
S'.500'
p518
sg27
S'NBA'
p519
sg29
S'0.8'
p520
sg31
S'16.4'
p521
sg33
S'4.9'
p522
sg35
S'3.6'
p523
sg37
S'10.6'
p524
sg39
S'23'
p525
sg41
S'GSW'
p526
sg43
S'21'
p527
sg45
S'2.6'
p528
sg47
S'9.9'
p529
sg49
S'1.8'
p530
sg51
S'16.4'
p531
sg53
S'7.0'
p532
sg55
S'2010-11'
p533
sg57
S'9.9'
p534
sg59
S'2.6'
p535
sg61
S'.603'
p536
sg63
S'195'
p537
sg65
g159
sba(isrc.gp1.models.Per100Possession
Per100Possession
p538
(dp539
g8
S'4.9'
p540
sg10
S'0.0'
p541
sg12
S'.407'
p542
sg415
S'108'
p543
sg14
S'2.0'
p544
sg16
g17
sg18
S'0.0'
p545
sg19
S'16.8'
p546
sg21
S'PF'
p547
sg421
S'105'
p548
sg23
S'.824'
p549
sg27
S'NBA'
p550
sg29
S'2.3'
p551
sg31
S'15.7'
p552
sg33
S'4.4'
p553
sg35
S'4.9'
p554
sg37
S'13.9'
p555
sg39
S'23'
p556
sg41
S'NJN'
p557
sg43
S'16'
p558
sg45
S'2.0'
p559
sg47
S'6.4'
p560
sg49
S'4.1'
p561
sg51
S'15.7'
p562
sg53
S'9.0'
p563
sg55
S'2010-11'
p564
sg57
S'6.4'
p565
sg59
S'1.2'
p566
sg61
S'.407'
p567
sg63
S'184'
p568
sg65
g159
sba(isrc.gp1.models.Per100Possession
Per100Possession
p569
(dp570
g8
S'4.1'
p571
sg10
S'0.1'
p572
sg12
S'.618'
p573
sg415
S'124'
p574
sg14
S'0.9'
p575
sg16
S'.000'
p576
sg18
S'0.0'
p577
sg19
S'22.6'
p578
sg21
g192
sg421
S'100'
p579
sg23
S'.634'
p580
sg27
S'NBA'
p581
sg29
S'1.5'
p582
sg31
S'15.5'
p583
sg33
S'4.0'
p584
sg35
S'5.4'
p585
sg37
S'11.5'
p586
sg39
S'24'
p587
sg41
S'DAL'
p588
sg43
S'49'
p589
sg45
S'4.2'
p590
sg47
S'9.6'
p591
sg49
S'3.5'
p592
sg51
S'15.4'
p593
sg53
S'7.4'
p594
sg55
S'2011-12'
p595
sg57
S'9.6'
p596
sg59
S'1.4'
p597
sg61
S'.621'
p598
sg63
S'791'
p599
sg65
g11
sba(isrc.gp1.models.Per100Possession
Per100Possession
p600
(dp601
g8
S'3.8'
p602
sg10
S'0.1'
p603
sg12
S'.597'
p604
sg415
S'119'
p605
sg14
S'1.7'
p606
sg16
S'.000'
p607
sg18
S'0.0'
p608
sg19
S'24.0'
p609
sg21
g192
sg421
S'105'
p610
sg23
S'.615'
p611
sg27
S'NBA'
p612
sg29
S'1.2'
p613
sg31
S'17.9'
p614
sg33
S'3.5'
p615
sg35
S'4.3'
p616
sg37
S'11.5'
p617
sg39
S'25'
p618
sg41
S'DAL'
p619
sg43
S'64'
p620
sg45
S'3.4'
p621
sg47
S'10.7'
p622
sg49
S'2.6'
p623
sg51
S'17.8'
p624
sg53
S'7.8'
p625
sg55
S'2012-13'
p626
sg57
S'10.7'
p627
sg59
S'1.5'
p628
sg61
S'.601'
p629
sg63
S'1149'
p630
sg65
S'16'
p631
sba(isrc.gp1.models.Per100Possession
Per100Possession
p632
(dp633
g8
S'4.9'
p634
sg10
S'0.0'
p635
sg12
S'.677'
p636
sg415
S'135'
p637
sg14
S'1.5'
p638
sg16
g17
sg18
S'0.0'
p639
sg19
S'25.0'
p640
sg21
g192
sg421
S'107'
p641
sg23
S'.726'
p642
sg27
S'NBA'
p643
sg29
S'1.5'
p644
sg31
S'15.8'
p645
sg33
S'4.5'
p646
sg35
S'5.1'
p647
sg37
S'11.6'
p648
sg39
S'26'
p649
sg41
S'DAL'
p650
sg43
S'58'
p651
sg45
S'2.6'
p652
sg47
S'10.7'
p653
sg49
S'3.7'
p654
sg51
S'15.8'
p655
sg53
S'6.8'
p656
sg55
S'2013-14'
p657
sg57
S'10.7'
p658
sg59
S'1.7'
p659
sg61
S'.677'
p660
sg63
S'1077'
p661
sg65
g11
sba(isrc.gp1.models.Per100Possession
Per100Possession
p662
(dp663
g8
S'4.4'
p664
sg10
S'0.1'
p665
sg12
S'.642'
p666
sg415
S'133'
p667
sg14
S'1.4'
p668
sg16
S'.000'
p669
sg18
S'0.0'
p670
sg19
S'18.8'
p671
sg21
S'PF'
p672
sg421
S'104'
p673
sg23
S'.696'
p674
sg27
S'NBA'
p675
sg29
S'1.7'
p676
sg31
S'12.5'
p677
sg33
S'3.5'
p678
sg35
S'3.9'
p679
sg37
S'11.1'
p680
sg39
S'27'
p681
sg41
S'TOT'
p682
sg43
S'75'
p683
sg45
S'3.2'
p684
sg47
S'8.1'
p685
sg49
S'2.7'
p686
sg51
S'12.4'
p687
sg53
S'6.7'
p688
sg55
S'2014-15'
p689
sg57
S'8.1'
p690
sg59
S'1.2'
p691
sg61
S'.647'
p692
sg63
S'1449'
p693
sg65
g151
sba(isrc.gp1.models.Per100Possession
Per100Possession
p694
(dp695
g8
S'5.1'
p696
sg10
S'0.0'
p697
sg12
S'.748'
p698
sg415
S'148'
p699
sg14
S'1.0'
p700
sg16
g17
sg18
S'0.0'
p701
sg19
S'23.8'
p702
sg21
S'PF'
p703
sg421
S'104'
p704
sg23
S'.750'
p705
sg27
S'NBA'
p706
sg29
S'1.7'
p707
sg31
S'13.5'
p708
sg33
S'4.4'
p709
sg35
S'4.8'
p710
sg37
S'11.0'
p711
sg39
S'27'
p712
sg41
S'DAL'
p713
sg43
S'27'
p714
sg45
S'4.2'
p715
sg47
S'10.1'
p716
sg49
S'3.6'
p717
sg51
S'13.5'
p718
sg53
S'5.9'
p719
sg55
S'2014-15'
p720
sg57
S'10.1'
p721
sg59
S'1.3'
p722
sg61
S'.748'
p723
sg63
S'505'
p724
sg65
g11
sba(isrc.gp1.models.Per100Possession
Per100Possession
p725
(dp726
g8
S'4.1'
p727
sg10
S'0.0'
p728
sg12
S'.571'
p729
sg415
S'110'
p730
sg14
S'4.7'
p731
sg16
g17
sg18
S'0.0'
p732
sg19
S'15.1'
p733
sg21
S'PF'
p734
sg421
S'105'
p735
sg23
S'.500'
p736
sg27
S'NBA'
p737
sg29
S'0.6'
p738
sg31
S'12.2'
p739
sg33
S'2.3'
p740
sg35
S'2.3'
p741
sg37
S'9.9'
p742
sg39
S'27'
p743
sg41
S'BOS'
p744
sg43
g169
sg45
S'2.9'
p745
sg47
S'7.0'
p746
sg49
S'1.2'
p747
sg51
S'12.2'
p748
sg53
S'5.8'
p749
sg55
S'2014-15'
p750
sg57
S'7.0'
p751
sg59
S'2.9'
p752
sg61
S'.571'
p753
sg63
S'86'
p754
sg65
g11
sba(isrc.gp1.models.Per100Possession
Per100Possession
p755
(dp756
g8
S'4.1'
p757
sg10
S'0.2'
p758
sg12
S'.580'
p759
sg415
S'126'
p760
sg14
S'1.3'
p761
sg16
S'.000'
p762
sg18
S'0.0'
p763
sg19
S'16.3'
p764
sg21
S'PF'
p765
sg421
S'104'
p766
sg23
S'.667'
p767
sg27
S'NBA'
p768
sg29
S'1.9'
p769
sg31
S'12.0'
p770
sg33
S'3.1'
p771
sg35
S'3.5'
p772
sg37
S'11.3'
p773
sg39
S'27'
p774
sg41
S'PHO'
p775
sg43
S'40'
p776
sg45
S'2.7'
p777
sg47
S'7.0'
p778
sg49
S'2.3'
p779
sg51
S'11.9'
p780
sg53
S'7.2'
p781
sg55
S'2014-15'
p782
sg57
S'7.0'
p783
sg59
S'0.9'
p784
sg61
S'.588'
p785
sg63
S'858'
p786
sg65
g151
sba(isrc.gp1.models.Per100Possession
Per100Possession
p787
(dp788
g8
S'2.6'
p789
sg10
S'0.0'
p790
sg12
S'.600'
p791
sg415
S'117'
p792
sg14
S'1.7'
p793
sg16
g17
sg18
S'0.0'
p794
sg19
S'19.8'
p795
sg21
S'PF'
p796
sg421
S'104'
p797
sg23
S'.556'
p798
sg27
S'NBA'
p799
sg29
S'0.4'
p800
sg31
S'12.9'
p801
sg33
S'3.9'
p802
sg35
S'7.7'
p803
sg37
S'10.3'
p804
sg39
S'28'
p805
sg41
S'MEM'
p806
sg43
g151
sg45
S'4.3'
p807
sg47
S'7.7'
p808
sg49
S'4.3'
p809
sg51
S'12.9'
p810
sg53
S'7.7'
p811
sg55
S'2015-16'
p812
sg57
S'7.7'
p813
sg59
S'1.7'
p814
sg61
S'.600'
p815
sg63
S'120'
p816
sg65
g11
sbasS'_advanced'
p817
(lp818
(isrc.gp1.models.Advanced
Advanced
p819
(dp820
S'_offensiveReboundPercentage'
p821
S'10.4'
p822
sS'_turnOverPercentage'
p823
S'9.1'
p824
sS'_winSharesPer48Minutes'
p825
S'.142'
p826
sS'_stealPercentage'
p827
S'0.8'
p828
sS'_usagePercentage'
p829
S'16.0'
p830
sS'_totalReboundsPercentage'
p831
S'14.1'
p832
sS'_defensiveBoxPlusMinus'
p833
S'-0.6'
p834
sg21
S'PF'
p835
sS'_valueOverReplacementPlayer'
p836
S'0.0'
p837
sS'_trueShootingPercentage'
p838
S'.583'
p839
sS'_defensiveReboundPercentage'
p840
S'18.1'
p841
sS'_freeThrowsAttempRate'
p842
S'.357'
p843
sS'_threePointsAttempRate'
p844
S'.000'
p845
sg27
S'NBA'
p846
sS'_offensiveBoxPlusMinues'
p847
S'-1.8'
p848
sS'_assistPercentage'
p849
S'3.4'
p850
sS'_defensiveWinShares'
p851
S'0.3'
p852
sg39
S'20'
p853
sg41
S'GSW'
p854
sg43
S'38'
p855
sS'_blockPercentage'
p856
S'4.3'
p857
sS'_playerEfficiencyRating'
p858
S'17.2'
p859
sS'_offensiveWinShares'
p860
S'0.8'
p861
sg63
S'376'
p862
sS'_boxPlusMinus'
p863
S'-2.4'
p864
sg55
S'2007-08'
p865
sS'_winShares'
p866
S'1.1'
p867
sba(isrc.gp1.models.Advanced
Advanced
p868
(dp869
g821
S'9.8'
p870
sg823
S'7.5'
p871
sg825
S'.131'
p872
sg827
S'1.6'
p873
sg829
S'19.0'
p874
sg831
S'12.4'
p875
sg833
S'-0.9'
p876
sg21
S'PF'
p877
sg836
S'0.1'
p878
sg838
S'.570'
p879
sg840
S'15.0'
p880
sg842
S'.346'
p881
sg844
S'.016'
p882
sg27
S'NBA'
p883
sg847
S'-0.2'
p884
sg849
S'4.9'
p885
sg851
S'0.4'
p886
sg39
S'21'
p887
sg41
S'GSW'
p888
sg43
S'39'
p889
sg856
S'3.7'
p890
sg858
S'18.7'
p891
sg860
S'1.4'
p892
sg63
S'688'
p893
sg863
S'-1.2'
p894
sg55
S'2008-09'
p895
sg866
S'1.9'
p896
sba(isrc.gp1.models.Advanced
Advanced
p897
(dp898
g821
S'9.2'
p899
sg823
S'9.7'
p900
sg825
S'.099'
p901
sg827
S'1.5'
p902
sg829
S'17.2'
p903
sg831
S'13.6'
p904
sg833
S'-0.2'
p905
sg21
S'PF'
p906
sg836
S'-0.1'
p907
sg838
S'.540'
p908
sg840
S'18.2'
p909
sg842
S'.265'
p910
sg844
S'.000'
p911
sg27
S'NBA'
p912
sg847
S'-2.6'
p913
sg849
S'5.1'
p914
sg851
S'0.4'
p915
sg39
S'23'
p916
sg41
S'TOT'
p917
sg43
S'37'
p918
sg856
S'3.4'
p919
sg858
S'15.9'
p920
sg860
S'0.4'
p921
sg63
S'379'
p922
sg863
S'-2.8'
p923
sg55
S'2010-11'
p924
sg866
S'0.8'
p925
sba(isrc.gp1.models.Advanced
Advanced
p926
(dp927
g821
S'8.0'
p928
sg823
S'12.6'
p929
sg825
S'.091'
p930
sg827
S'0.8'
p931
sg829
S'17.9'
p932
sg831
S'11.9'
p933
sg833
S'-1.5'
p934
sg21
S'PF'
p935
sg836
S'-0.1'
p936
sg838
S'.600'
p937
sg840
S'16.1'
p938
sg842
S'.222'
p939
sg844
S'.000'
p940
sg27
S'NBA'
p941
sg847
S'-2.6'
p942
sg849
S'4.1'
p943
sg851
S'0.1'
p944
sg39
S'23'
p945
sg41
S'GSW'
p946
sg43
S'21'
p947
sg856
S'3.9'
p948
sg858
S'16.2'
p949
sg860
S'0.3'
p950
sg63
S'195'
p951
sg863
S'-4.1'
p952
sg55
S'2010-11'
p953
sg866
S'0.4'
p954
sba(isrc.gp1.models.Advanced
Advanced
p955
(dp956
g821
S'10.6'
p957
sg823
S'6.1'
p958
sg825
S'.107'
p959
sg827
S'2.3'
p960
sg829
S'16.5'
p961
sg831
S'15.4'
p962
sg833
S'1.2'
p963
sg21
S'PF'
p964
sg836
S'0.0'
p965
sg838
S'.472'
p966
sg840
S'20.5'
p967
sg842
S'.315'
p968
sg844
S'.000'
p969
sg27
S'NBA'
p970
sg847
S'-2.7'
p971
sg849
S'6.2'
p972
sg851
S'0.2'
p973
sg39
S'23'
p974
sg41
S'NJN'
p975
sg43
S'16'
p976
sg856
S'2.9'
p977
sg858
S'15.5'
p978
sg860
S'0.2'
p979
sg63
S'184'
p980
sg863
S'-1.5'
p981
sg55
S'2010-11'
p982
sg866
S'0.4'
p983
sba(isrc.gp1.models.Advanced
Advanced
p984
(dp985
g821
S'8.9'
p986
sg823
S'7.2'
p987
sg825
S'.215'
p988
sg827
S'1.5'
p989
sg829
S'17.0'
p990
sg831
S'12.4'
p991
sg833
S'2.4'
p992
sg21
g192
sg836
S'0.9'
p993
sg838
S'.632'
p994
sg840
S'15.8'
p995
sg842
S'.352'
p996
sg844
S'.004'
p997
sg27
S'NBA'
p998
sg847
S'0.2'
p999
sg849
S'2.9'
p1000
sg851
S'1.3'
p1001
sg39
S'24'
p1002
sg41
S'DAL'
p1003
sg43
S'49'
p1004
sg856
S'6.4'
p1005
sg858
S'21.6'
p1006
sg860
S'2.2'
p1007
sg63
S'791'
p1008
sg863
S'2.6'
p1009
sg55
S'2011-12'
p1010
sg866
S'3.5'
p1011
sba(isrc.gp1.models.Advanced
Advanced
p1012
(dp1013
g821
S'8.4'
p1014
sg823
S'7.1'
p1015
sg825
S'.172'
p1016
sg827
S'1.2'
p1017
sg829
S'19.0'
p1018
sg831
S'12.6'
p1019
sg833
S'1.1'
p1020
sg21
g192
sg836
S'1.0'
p1021
sg838
S'.606'
p1022
sg840
S'16.7'
p1023
sg842
S'.238'
p1024
sg844
S'.007'
p1025
sg27
S'NBA'
p1026
sg847
S'0.5'
p1027
sg849
S'5.6'
p1028
sg851
S'1.3'
p1029
sg39
S'25'
p1030
sg41
S'DAL'
p1031
sg43
S'64'
p1032
sg856
S'5.2'
p1033
sg858
S'21.0'
p1034
sg860
S'2.8'
p1035
sg63
S'1149'
p1036
sg863
S'1.6'
p1037
sg55
S'2012-13'
p1038
sg866
S'4.1'
p1039
sba(isrc.gp1.models.Advanced
Advanced
p1040
(dp1041
g821
S'11.0'
p1042
sg823
S'8.5'
p1043
sg825
S'.227'
p1044
sg827
S'1.5'
p1045
sg829
S'17.4'
p1046
sg831
S'13.1'
p1047
sg833
S'0.6'
p1048
sg21
g192
sg836
S'1.5'
p1049
sg838
S'.695'
p1050
sg840
S'15.1'
p1051
sg842
S'.320'
p1052
sg844
S'.000'
p1053
sg27
S'NBA'
p1054
sg847
S'3.1'
p1055
sg849
S'4.7'
p1056
sg851
S'1.0'
p1057
sg39
S'26'
p1058
sg41
S'DAL'
p1059
sg43
S'58'
p1060
sg856
S'4.2'
p1061
sg858
S'23.5'
p1062
sg860
S'4.1'
p1063
sg63
S'1077'
p1064
sg863
S'3.6'
p1065
sg55
S'2013-14'
p1066
sg866
S'5.1'
p1067
sba(isrc.gp1.models.Advanced
Advanced
p1068
(dp1069
g821
S'9.6'
p1070
sg823
S'7.6'
p1071
sg825
S'.202'
p1072
sg827
S'1.7'
p1073
sg829
S'13.6'
p1074
sg831
S'12.1'
p1075
sg833
S'2.4'
p1076
sg21
S'PF'
p1077
sg836
S'2.0'
p1078
sg838
S'.660'
p1079
sg840
S'14.7'
p1080
sg842
S'.309'
p1081
sg844
S'.008'
p1082
sg27
S'NBA'
p1083
sg847
S'1.2'
p1084
sg849
S'4.4'
p1085
sg851
S'1.8'
p1086
sg39
S'27'
p1087
sg41
S'TOT'
p1088
sg43
S'75'
p1089
sg856
S'5.1'
p1090
sg858
S'20.4'
p1091
sg860
S'4.3'
p1092
sg63
S'1449'
p1093
sg863
S'3.6'
p1094
sg55
S'2014-15'
p1095
sg866
S'6.1'
p1096
sba(isrc.gp1.models.Advanced
Advanced
p1097
(dp1098
g821
S'11.0'
p1099
sg823
S'7.7'
p1100
sg825
S'.274'
p1101
sg827
S'1.7'
p1102
sg829
S'14.9'
p1103
sg831
S'11.9'
p1104
sg833
S'2.8'
p1105
sg21
S'PF'
p1106
sg836
S'1.1'
p1107
sg838
S'.762'
p1108
sg840
S'12.9'
p1109
sg842
S'.356'
p1110
sg844
S'.000'
p1111
sg27
S'NBA'
p1112
sg847
S'4.0'
p1113
sg849
S'3.2'
p1114
sg851
S'0.6'
p1115
sg39
S'27'
p1116
sg41
S'DAL'
p1117
sg43
S'27'
p1118
sg856
S'6.8'
p1119
sg858
S'25.7'
p1120
sg860
S'2.2'
p1121
sg63
S'505'
p1122
sg863
S'6.8'
p1123
sg55
S'2014-15'
p1124
sg866
S'2.9'
p1125
sba(isrc.gp1.models.Advanced
Advanced
p1126
(dp1127
g821
S'8.8'
p1128
sg823
S'18.0'
p1129
sg825
S'.106'
p1130
sg827
S'0.6'
p1131
sg829
S'14.1'
p1132
sg831
S'10.8'
p1133
sg833
S'1.8'
p1134
sg21
S'PF'
p1135
sg836
S'0.0'
p1136
sg838
S'.571'
p1137
sg840
S'12.9'
p1138
sg842
S'.190'
p1139
sg844
S'.000'
p1140
sg27
S'NBA'
p1141
sg847
S'-2.2'
p1142
sg849
S'14.0'
p1143
sg851
S'0.1'
p1144
sg39
S'27'
p1145
sg41
S'BOS'
p1146
sg43
g169
sg856
S'4.5'
p1147
sg858
S'15.0'
p1148
sg860
S'0.1'
p1149
sg63
S'86'
p1150
sg863
S'-0.4'
p1151
sg55
S'2014-15'
p1152
sg866
S'0.2'
p1153
sba(isrc.gp1.models.Advanced
Advanced
p1154
(dp1155
g821
S'8.9'
p1156
sg823
S'6.4'
p1157
sg825
S'.170'
p1158
sg827
S'1.9'
p1159
sg829
S'12.8'
p1160
sg831
S'12.4'
p1161
sg833
S'2.3'
p1162
sg21
S'PF'
p1163
sg836
S'0.9'
p1164
sg838
S'.600'
p1165
sg840
S'16.0'
p1166
sg842
S'.290'
p1167
sg844
S'.014'
p1168
sg27
S'NBA'
p1169
sg847
S'-0.1'
p1170
sg849
S'4.1'
p1171
sg851
S'1.1'
p1172
sg39
S'27'
p1173
sg41
S'PHO'
p1174
sg43
S'40'
p1175
sg856
S'4.2'
p1176
sg858
S'17.8'
p1177
sg860
S'2.0'
p1178
sg63
S'858'
p1179
sg863
S'2.1'
p1180
sg55
S'2014-15'
p1181
sg866
S'3.0'
p1182
sba(isrc.gp1.models.Advanced
Advanced
p1183
(dp1184
g821
S'5.6'
p1185
sg823
S'9.5'
p1186
sg825
S'.146'
p1187
sg827
S'0.4'
p1188
sg829
S'16.0'
p1189
sg831
S'11.5'
p1190
sg833
S'1.9'
p1191
sg21
S'PF'
p1192
sg836
S'0.1'
p1193
sg838
S'.607'
p1194
sg840
S'17.7'
p1195
sg842
S'.600'
p1196
sg844
S'.000'
p1197
sg27
S'NBA'
p1198
sg847
S'-2.2'
p1199
sg849
S'5.6'
p1200
sg851
S'0.1'
p1201
sg39
S'28'
p1202
sg41
S'MEM'
p1203
sg43
g151
sg856
S'7.6'
p1204
sg858
S'17.6'
p1205
sg860
S'0.2'
p1206
sg63
S'120'
p1207
sg863
S'-0.3'
p1208
sg55
S'2015-16'
p1209
sg866
S'0.4'
p1210
sbasS'_per36Minutes'
p1211
(lp1212
(isrc.gp1.models.Per36Minutes
Per36Minutes
p1213
(dp1214
g8
S'3.6'
p1215
sg10
S'0.0'
p1216
sg12
S'.554'
p1217
sg14
S'0.9'
p1218
sg16
g17
sg18
S'0.0'
p1219
sg19
S'14.5'
p1220
sg21
S'PF'
p1221
sg23
S'.675'
p1222
sg27
S'NBA'
p1223
sg29
S'0.6'
p1224
sg31
S'10.7'
p1225
sg33
S'3.4'
p1226
sg35
S'3.8'
p1227
sg37
S'9.5'
p1228
sg39
S'20'
p1229
sg41
S'GSW'
p1230
sg43
S'38'
p1231
sg45
S'2.1'
p1232
sg47
S'5.9'
p1233
sg49
S'2.6'
p1234
sg51
S'10.7'
p1235
sg53
S'5.8'
p1236
sg55
S'2007-08'
p1237
sg57
S'5.9'
p1238
sg59
S'1.2'
p1239
sg61
S'.554'
p1240
sg63
S'376'
p1241
sg65
g30
sba(isrc.gp1.models.Per36Minutes
Per36Minutes
p1242
(dp1243
g8
S'3.2'
p1244
sg10
S'0.2'
p1245
sg12
S'.528'
p1246
sg14
S'1.1'
p1247
sg16
S'.000'
p1248
sg18
S'0.0'
p1249
sg19
S'16.9'
p1250
sg21
S'PF'
p1251
sg23
S'.741'
p1252
sg27
S'NBA'
p1253
sg29
S'1.2'
p1254
sg31
S'12.9'
p1255
sg33
S'3.9'
p1256
sg35
S'4.4'
p1257
sg37
S'8.2'
p1258
sg39
S'21'
p1259
sg41
S'GSW'
p1260
sg43
S'39'
p1261
sg45
S'1.9'
p1262
sg47
S'6.8'
p1263
sg49
S'3.3'
p1264
sg51
S'12.7'
p1265
sg53
S'5.0'
p1266
sg55
S'2008-09'
p1267
sg57
S'6.8'
p1268
sg59
S'1.2'
p1269
sg61
S'.537'
p1270
sg63
S'688'
p1271
sg65
S'23'
p1272
sba(isrc.gp1.models.Per36Minutes
Per36Minutes
p1273
(dp1274
g8
S'2.9'
p1275
sg10
S'0.0'
p1276
sg12
S'.513'
p1277
sg14
S'1.1'
p1278
sg16
g17
sg18
S'0.0'
p1279
sg19
S'13.4'
p1280
sg21
S'PF'
p1281
sg23
S'.677'
p1282
sg27
S'NBA'
p1283
sg29
S'1.0'
p1284
sg31
S'11.1'
p1285
sg33
S'3.2'
p1286
sg35
S'2.9'
p1287
sg37
S'8.5'
p1288
sg39
S'23'
p1289
sg41
S'TOT'
p1290
sg43
S'37'
p1291
sg45
S'1.6'
p1292
sg47
S'5.7'
p1293
sg49
S'2.0'
p1294
sg51
S'11.1'
p1295
sg53
S'5.5'
p1296
sg55
S'2010-11'
p1297
sg57
S'5.7'
p1298
sg59
S'1.3'
p1299
sg61
S'.513'
p1300
sg63
S'379'
p1301
sg65
g130
sba(isrc.gp1.models.Per36Minutes
Per36Minutes
p1302
(dp1303
g8
S'2.6'
p1304
sg10
S'0.0'
p1305
sg12
S'.603'
p1306
sg14
S'0.9'
p1307
sg16
g17
sg18
S'0.0'
p1308
sg19
S'15.3'
p1309
sg21
S'PF'
p1310
sg23
S'.500'
p1311
sg27
S'NBA'
p1312
sg29
S'0.6'
p1313
sg31
S'11.6'
p1314
sg33
S'3.5'
p1315
sg35
S'2.6'
p1316
sg37
S'7.6'
p1317
sg39
S'23'
p1318
sg41
S'GSW'
p1319
sg43
S'21'
p1320
sg45
S'1.8'
p1321
sg47
S'7.0'
p1322
sg49
S'1.3'
p1323
sg51
S'11.6'
p1324
sg53
S'5.0'
p1325
sg55
S'2010-11'
p1326
sg57
S'7.0'
p1327
sg59
S'1.8'
p1328
sg61
S'.603'
p1329
sg63
S'195'
p1330
sg65
g159
sba(isrc.gp1.models.Per36Minutes
Per36Minutes
p1331
(dp1332
g8
S'3.3'
p1333
sg10
S'0.0'
p1334
sg12
S'.407'
p1335
sg14
S'1.4'
p1336
sg16
g17
sg18
S'0.0'
p1337
sg19
S'11.3'
p1338
sg21
S'PF'
p1339
sg23
S'.824'
p1340
sg27
S'NBA'
p1341
sg29
S'1.6'
p1342
sg31
S'10.6'
p1343
sg33
S'2.9'
p1344
sg35
S'3.3'
p1345
sg37
S'9.4'
p1346
sg39
S'23'
p1347
sg41
S'NJN'
p1348
sg43
S'16'
p1349
sg45
S'1.4'
p1350
sg47
S'4.3'
p1351
sg49
S'2.7'
p1352
sg51
S'10.6'
p1353
sg53
S'6.1'
p1354
sg55
S'2010-11'
p1355
sg57
S'4.3'
p1356
sg59
S'0.8'
p1357
sg61
S'.407'
p1358
sg63
S'184'
p1359
sg65
g159
sba(isrc.gp1.models.Per36Minutes
Per36Minutes
p1360
(dp1361
g8
S'2.8'
p1362
sg10
S'0.0'
p1363
sg12
S'.618'
p1364
sg14
S'0.6'
p1365
sg16
S'.000'
p1366
sg18
S'0.0'
p1367
sg19
S'15.5'
p1368
sg21
g192
sg23
S'.634'
p1369
sg27
S'NBA'
p1370
sg29
S'1.0'
p1371
sg31
S'10.6'
p1372
sg33
S'2.8'
p1373
sg35
S'3.7'
p1374
sg37
S'7.9'
p1375
sg39
S'24'
p1376
sg41
S'DAL'
p1377
sg43
S'49'
p1378
sg45
S'2.9'
p1379
sg47
S'6.6'
p1380
sg49
S'2.4'
p1381
sg51
S'10.6'
p1382
sg53
S'5.1'
p1383
sg55
S'2011-12'
p1384
sg57
S'6.6'
p1385
sg59
S'1.0'
p1386
sg61
S'.621'
p1387
sg63
S'791'
p1388
sg65
g11
sba(isrc.gp1.models.Per36Minutes
Per36Minutes
p1389
(dp1390
g8
S'2.7'
p1391
sg10
S'0.1'
p1392
sg12
S'.597'
p1393
sg14
S'1.2'
p1394
sg16
S'.000'
p1395
sg18
S'0.0'
p1396
sg19
S'17.0'
p1397
sg21
g192
sg23
S'.615'
p1398
sg27
S'NBA'
p1399
sg29
S'0.8'
p1400
sg31
S'12.7'
p1401
sg33
S'2.4'
p1402
sg35
S'3.0'
p1403
sg37
S'8.1'
p1404
sg39
S'25'
p1405
sg41
S'DAL'
p1406
sg43
S'64'
p1407
sg45
S'2.4'
p1408
sg47
S'7.6'
p1409
sg49
S'1.8'
p1410
sg51
S'12.6'
p1411
sg53
S'5.5'
p1412
sg55
S'2012-13'
p1413
sg57
S'7.6'
p1414
sg59
S'1.1'
p1415
sg61
S'.601'
p1416
sg63
S'1149'
p1417
sg65
S'16'
p1418
sba(isrc.gp1.models.Per36Minutes
Per36Minutes
p1419
(dp1420
g8
S'3.4'
p1421
sg10
S'0.0'
p1422
sg12
S'.677'
p1423
sg14
S'1.0'
p1424
sg16
g17
sg18
S'0.0'
p1425
sg19
S'17.5'
p1426
sg21
g192
sg23
S'.726'
p1427
sg27
S'NBA'
p1428
sg29
S'1.1'
p1429
sg31
S'11.1'
p1430
sg33
S'3.1'
p1431
sg35
S'3.5'
p1432
sg37
S'8.2'
p1433
sg39
S'26'
p1434
sg41
S'DAL'
p1435
sg43
S'58'
p1436
sg45
S'1.8'
p1437
sg47
S'7.5'
p1438
sg49
S'2.6'
p1439
sg51
S'11.1'
p1440
sg53
S'4.7'
p1441
sg55
S'2013-14'
p1442
sg57
S'7.5'
p1443
sg59
S'1.2'
p1444
sg61
S'.677'
p1445
sg63
S'1077'
p1446
sg65
g11
sba(isrc.gp1.models.Per36Minutes
Per36Minutes
p1447
(dp1448
g8
S'3.2'
p1449
sg10
S'0.1'
p1450
sg12
S'.642'
p1451
sg14
S'1.0'
p1452
sg16
S'.000'
p1453
sg18
S'0.0'
p1454
sg19
S'13.5'
p1455
sg21
S'PF'
p1456
sg23
S'.696'
p1457
sg27
S'NBA'
p1458
sg29
S'1.2'
p1459
sg31
S'9.0'
p1460
sg33
S'2.5'
p1461
sg35
S'2.8'
p1462
sg37
S'8.0'
p1463
sg39
S'27'
p1464
sg41
S'TOT'
p1465
sg43
S'75'
p1466
sg45
S'2.3'
p1467
sg47
S'5.8'
p1468
sg49
S'1.9'
p1469
sg51
S'8.9'
p1470
sg53
S'4.8'
p1471
sg55
S'2014-15'
p1472
sg57
S'5.8'
p1473
sg59
S'0.8'
p1474
sg61
S'.647'
p1475
sg63
S'1449'
p1476
sg65
g151
sba(isrc.gp1.models.Per36Minutes
Per36Minutes
p1477
(dp1478
g8
S'3.6'
p1479
sg10
S'0.0'
p1480
sg12
S'.748'
p1481
sg14
S'0.7'
p1482
sg16
g17
sg18
S'0.0'
p1483
sg19
S'17.0'
p1484
sg21
S'PF'
p1485
sg23
S'.750'
p1486
sg27
S'NBA'
p1487
sg29
S'1.2'
p1488
sg31
S'9.6'
p1489
sg33
S'3.1'
p1490
sg35
S'3.4'
p1491
sg37
S'7.8'
p1492
sg39
S'27'
p1493
sg41
S'DAL'
p1494
sg43
S'27'
p1495
sg45
S'3.0'
p1496
sg47
S'7.2'
p1497
sg49
S'2.6'
p1498
sg51
S'9.6'
p1499
sg53
S'4.2'
p1500
sg55
S'2014-15'
p1501
sg57
S'7.2'
p1502
sg59
S'0.9'
p1503
sg61
S'.748'
p1504
sg63
S'505'
p1505
sg65
g11
sba(isrc.gp1.models.Per36Minutes
Per36Minutes
p1506
(dp1507
g8
S'2.9'
p1508
sg10
S'0.0'
p1509
sg12
S'.571'
p1510
sg14
S'3.3'
p1511
sg16
g17
sg18
S'0.0'
p1512
sg19
S'10.9'
p1513
sg21
S'PF'
p1514
sg23
S'.500'
p1515
sg27
S'NBA'
p1516
sg29
S'0.4'
p1517
sg31
S'8.8'
p1518
sg33
S'1.7'
p1519
sg35
S'1.7'
p1520
sg37
S'7.1'
p1521
sg39
S'27'
p1522
sg41
S'BOS'
p1523
sg43
g169
sg45
S'2.1'
p1524
sg47
S'5.0'
p1525
sg49
S'0.8'
p1526
sg51
S'8.8'
p1527
sg53
S'4.2'
p1528
sg55
S'2014-15'
p1529
sg57
S'5.0'
p1530
sg59
S'2.1'
p1531
sg61
S'.571'
p1532
sg63
S'86'
p1533
sg65
g11
sba(isrc.gp1.models.Per36Minutes
Per36Minutes
p1534
(dp1535
g8
S'2.9'
p1536
sg10
S'0.1'
p1537
sg12
S'.580'
p1538
sg14
S'1.0'
p1539
sg16
S'.000'
p1540
sg18
S'0.0'
p1541
sg19
S'11.7'
p1542
sg21
S'PF'
p1543
sg23
S'.667'
p1544
sg27
S'NBA'
p1545
sg29
S'1.3'
p1546
sg31
S'8.7'
p1547
sg33
S'2.3'
p1548
sg35
S'2.5'
p1549
sg37
S'8.1'
p1550
sg39
S'27'
p1551
sg41
S'PHO'
p1552
sg43
S'40'
p1553
sg45
S'2.0'
p1554
sg47
S'5.0'
p1555
sg49
S'1.7'
p1556
sg51
S'8.6'
p1557
sg53
S'5.2'
p1558
sg55
S'2014-15'
p1559
sg57
S'5.0'
p1560
sg59
S'0.7'
p1561
sg61
S'.588'
p1562
sg63
S'858'
p1563
sg65
g151
sba(isrc.gp1.models.Per36Minutes
Per36Minutes
p1564
(dp1565
g8
S'1.8'
p1566
sg10
S'0.0'
p1567
sg12
S'.600'
p1568
sg14
S'1.2'
p1569
sg16
g17
sg18
S'0.0'
p1570
sg19
S'13.8'
p1571
sg21
S'PF'
p1572
sg23
S'.556'
p1573
sg27
S'NBA'
p1574
sg29
S'0.3'
p1575
sg31
S'9.0'
p1576
sg33
S'2.7'
p1577
sg35
S'5.4'
p1578
sg37
S'7.2'
p1579
sg39
S'28'
p1580
sg41
S'MEM'
p1581
sg43
g151
sg45
S'3.0'
p1582
sg47
S'5.4'
p1583
sg49
S'3.0'
p1584
sg51
S'9.0'
p1585
sg53
S'5.4'
p1586
sg55
S'2015-16'
p1587
sg57
S'5.4'
p1588
sg59
S'1.2'
p1589
sg61
S'.600'
p1590
sg63
S'120'
p1591
sg65
g11
sbasS'_fromYear'
p1592
S'2008'
p1593
sS'_url'
p1594
S'http://www.basketball-reference.com/players/w/wrighbr03.html'
p1595
sS'_perGame'
p1596
(isrc.gp1.models.PerGame
PerGame
p1597
(dp1598
g8
S'0.9'
p1599
sg10
S'0.0'
p1600
sg12
S'.600'
p1601
sS'_effectiveFieldGalPercentage'
p1602
S'.600'
p1603
sg14
S'0.6'
p1604
sg16
g17
sg18
S'0.0'
p1605
sg19
S'6.6'
p1606
sg21
S'PF'
p1607
sg23
S'.556'
p1608
sg27
S'NBA'
p1609
sg29
S'0.1'
p1610
sg33
S'1.3'
p1611
sS'_fieldGoalsttempted'
p1612
S'4.3'
p1613
sg35
S'2.6'
p1614
sg37
S'3.4'
p1615
sg39
S'28'
p1616
sg41
S'MEM'
p1617
sg43
g151
sg45
S'1.4'
p1618
sg47
S'2.6'
p1619
sg49
S'1.4'
p1620
sg51
S'4.3'
p1621
sg53
S'2.6'
p1622
sg55
S'2015-16'
p1623
sg57
S'2.6'
p1624
sg59
S'0.6'
p1625
sg61
S'.600'
p1626
sg63
S'17.1'
p1627
sg65
g11
sbsS'_weight'
p1628
S'210'
p1629
sS'_dob'
p1630
S'5-10-1987'
p1631
sS'_salary'
p1632
(lp1633
(isrc.gp1.models.Salary
Salary
p1634
(dp1635
g41
S'Golden State Warriors'
p1636
sg27
S'NBA'
p1637
sg1632
S'$2,323,080'
p1638
sg55
S'2007-08'
p1639
sba(isrc.gp1.models.Salary
Salary
p1640
(dp1641
g41
S'Golden State Warriors'
p1642
sg27
S'NBA'
p1643
sg1632
S'$2,497,320'
p1644
sg55
S'2008-09'
p1645
sba(isrc.gp1.models.Salary
Salary
p1646
(dp1647
g41
S'Golden State Warriors'
p1648
sg27
S'NBA'
p1649
sg1632
S'$2,671,440'
p1650
sg55
S'2009-10'
p1651
sba(isrc.gp1.models.Salary
Salary
p1652
(dp1653
g41
S'New Jersey Nets'
p1654
sg27
S'NBA'
p1655
sg1632
S'$3,398,072'
p1656
sg55
S'2010-11'
p1657
sba(isrc.gp1.models.Salary
Salary
p1658
(dp1659
g41
S'Dallas Mavericks'
p1660
sg27
S'NBA'
p1661
sg1632
S'$5,000,000'
p1662
sg55
S'2013-14'
p1663
sba(isrc.gp1.models.Salary
Salary
p1664
(dp1665
g41
S'Phoenix Suns'
p1666
sg27
S'NBA'
p1667
sg1632
S'$5,000,000'
p1668
sg55
S'2014-15'
p1669
sbasg21
S'F'
p1670
sb.