(isrc.gp1.models.Player
Player
p0
(dp1
S'_experience'
p2
S'NA'
p3
sS'_totals'
p4
(lp5
(isrc.gp1.models.Totals
Totals
p6
(dp7
S'_offensiveRebounds'
p8
g3
sS'_threePointsAttempted'
p9
g3
sS'_fieldGoalsPercentage'
p10
S'.373'
p11
sS'_assist'
p12
S'7'
p13
sS'_threePointsPercentage'
p14
g3
sS'_threePoints'
p15
g3
sS'_points'
p16
S'69'
p17
sS'_position'
p18
S'PF'
p19
sS'_freeThrowsPercentage'
p20
S'.636'
p21
sS'_effectiveFieldGoalPercentage'
p22
S'.373'
p23
sS'_league'
p24
S'NBA'
p25
sS'_steals'
p26
g3
sS'_fieldGoalsAttempted'
p27
S'83'
p28
sS'_personalFouls'
p29
S'14'
p30
sS'_freeThrowsAttempted'
p31
S'11'
p32
sS'_totalRebounds'
p33
S'40'
p34
sS'_age'
p35
S'26'
p36
sS'_team'
p37
S'PHI'
p38
sS'_games'
p39
S'24'
p40
sS'_blocks'
p41
g3
sS'_twoPoints'
p42
S'31'
p43
sS'_freeThrows'
p44
g13
sS'_twoPointsAttempted'
p45
S'83'
p46
sS'_defensiveRebounds'
p47
g3
sS'_season'
p48
S'1971-72'
p49
sS'_fieldGoals'
p50
S'31'
p51
sS'_turnOvers'
p52
g3
sS'_twoPointsPercentage'
p53
S'.373'
p54
sS'_minutesPlayed'
p55
S'144'
p56
sS'_gamesStarted'
p57
g3
sbasS'_college'
p58
S'University of Maryland'
p59
sS'_toYear'
p60
S'1972'
p61
sS'_height'
p62
S'6-7'
p63
sS'_active'
p64
I00
sS'_shootingHand'
p65
VRight
p66
sS'_name'
p67
S'Barry Yates'
p68
sS'_per100Possessions'
p69
(lp70
sS'_advanced'
p71
(lp72
(isrc.gp1.models.Advanced
Advanced
p73
(dp74
S'_offensiveReboundPercentage'
p75
g3
sS'_turnOverPercentage'
p76
g3
sS'_winSharesPer48Minutes'
p77
S'-0.075'
p78
sS'_stealPercentage'
p79
g3
sS'_usagePercentage'
p80
g3
sS'_totalReboundsPercentage'
p81
S'12.6'
p82
sS'_defensiveBoxPlusMinus'
p83
g3
sg18
S'PF'
p84
sS'_valueOverReplacementPlayer'
p85
g3
sS'_trueShootingPercentage'
p86
S'.393'
p87
sS'_defensiveReboundPercentage'
p88
g3
sS'_freeThrowsAttempRate'
p89
S'.133'
p90
sS'_threePointsAttempRate'
p91
g3
sg24
S'NBA'
p92
sS'_offensiveBoxPlusMinues'
p93
g3
sS'_assistPercentage'
p94
S'7.1'
p95
sS'_defensiveWinShares'
p96
S'0.1'
p97
sg35
S'26'
p98
sg37
S'PHI'
p99
sg39
S'24'
p100
sS'_blockPercentage'
p101
g3
sS'_playerEfficiencyRating'
p102
S'10.7'
p103
sS'_offensiveWinShares'
p104
S'-0.4'
p105
sg55
S'144'
p106
sS'_boxPlusMinus'
p107
g3
sg48
S'1971-72'
p108
sS'_winShares'
p109
S'-0.2'
p110
sbasS'_per36Minutes'
p111
(lp112
(isrc.gp1.models.Per36Minutes
Per36Minutes
p113
(dp114
g8
g3
sg9
g3
sg10
S'.373'
p115
sg12
S'1.7'
p116
sg14
g3
sg15
g3
sg16
S'17.2'
p117
sg18
S'PF'
p118
sg20
S'.636'
p119
sg24
S'NBA'
p120
sg26
g3
sg27
S'20.7'
p121
sg29
S'3.5'
p122
sg31
S'2.7'
p123
sg33
S'10.0'
p124
sg35
S'26'
p125
sg37
S'PHI'
p126
sg39
S'24'
p127
sg41
g3
sg42
S'7.7'
p128
sg44
S'1.7'
p129
sg45
S'20.7'
p130
sg47
g3
sg48
S'1971-72'
p131
sg50
S'7.7'
p132
sg52
g3
sg53
S'.373'
p133
sg55
S'144'
p134
sg57
g3
sbasS'_fromYear'
p135
S'1972'
p136
sS'_url'
p137
S'http://www.basketball-reference.com/players/y/yatesba01.html'
p138
sS'_perGame'
p139
(isrc.gp1.models.PerGame
PerGame
p140
(dp141
g8
g3
sg9
g3
sg10
S'.373'
p142
sS'_effectiveFieldGalPercentage'
p143
S'.373'
p144
sg12
S'0.3'
p145
sg14
g3
sg15
g3
sg16
S'2.9'
p146
sg18
S'PF'
p147
sg20
S'.636'
p148
sg24
S'NBA'
p149
sg26
g3
sg29
S'0.6'
p150
sS'_fieldGoalsttempted'
p151
S'3.5'
p152
sg31
S'0.5'
p153
sg33
S'1.7'
p154
sg35
S'26'
p155
sg37
S'PHI'
p156
sg39
S'24'
p157
sg41
g3
sg42
S'1.3'
p158
sg44
S'0.3'
p159
sg45
S'3.5'
p160
sg47
g3
sg48
S'1971-72'
p161
sg50
S'1.3'
p162
sg52
g3
sg53
S'.373'
p163
sg55
S'6.0'
p164
sg57
g3
sbsS'_weight'
p165
S'215'
p166
sS'_dob'
p167
S'30-1-1946'
p168
sS'_salary'
p169
(lp170
sg18
S'F'
p171
sb.