(isrc.gp1.models.Player
Player
p0
(dp1
S'_experience'
p2
S'NA'
p3
sS'_totals'
p4
(lp5
(isrc.gp1.models.Totals
Totals
p6
(dp7
S'_offensiveRebounds'
p8
S'3'
p9
sS'_threePointsAttempted'
p10
S'0'
p11
sS'_fieldGoalsPercentage'
p12
S'.286'
p13
sS'_assist'
p14
S'7'
p15
sS'_threePointsPercentage'
p16
g3
sS'_threePoints'
p17
g11
sS'_points'
p18
S'13'
p19
sS'_position'
p20
S'SG'
p21
sS'_freeThrowsPercentage'
p22
S'.500'
p23
sS'_effectiveFieldGoalPercentage'
p24
S'.286'
p25
sS'_league'
p26
S'NBA'
p27
sS'_steals'
p28
S'5'
p29
sS'_fieldGoalsAttempted'
p30
S'21'
p31
sS'_personalFouls'
p32
S'14'
p33
sS'_freeThrowsAttempted'
p34
S'2'
p35
sS'_totalRebounds'
p36
S'8'
p37
sS'_age'
p38
S'23'
p39
sS'_team'
p40
S'TOT'
p41
sS'_games'
p42
S'9'
p43
sS'_blocks'
p44
S'1'
p45
sS'_twoPoints'
p46
S'6'
p47
sS'_freeThrows'
p48
g45
sS'_twoPointsAttempted'
p49
S'21'
p50
sS'_defensiveRebounds'
p51
g29
sS'_season'
p52
S'1986-87'
p53
sS'_fieldGoals'
p54
g47
sS'_turnOvers'
p55
S'4'
p56
sS'_twoPointsPercentage'
p57
S'.286'
p58
sS'_minutesPlayed'
p59
S'72'
p60
sS'_gamesStarted'
p61
g11
sba(isrc.gp1.models.Totals
Totals
p62
(dp63
g8
g11
sg10
g11
sg12
S'.500'
p64
sg14
g11
sg16
g3
sg17
g11
sg18
g29
sg20
S'SG'
p65
sg22
S'.500'
p66
sg24
S'.500'
p67
sg26
S'NBA'
p68
sg28
g45
sg30
g56
sg32
g9
sg34
g35
sg36
g45
sg38
S'23'
p69
sg40
S'CHI'
p70
sg42
g29
sg44
g11
sg46
g35
sg48
g45
sg49
g56
sg51
g45
sg52
S'1986-87'
p71
sg54
g35
sg55
g45
sg57
S'.500'
p72
sg59
S'20'
p73
sg61
g11
sba(isrc.gp1.models.Totals
Totals
p74
(dp75
g8
g9
sg10
g11
sg12
S'.235'
p76
sg14
g15
sg16
g3
sg17
g11
sg18
g37
sg20
S'SG'
p77
sg22
g3
sg24
S'.235'
p78
sg26
S'NBA'
p79
sg28
g56
sg30
S'17'
p80
sg32
S'11'
p81
sg34
g11
sg36
g15
sg38
S'23'
p82
sg40
S'POR'
p83
sg42
g56
sg44
g45
sg46
g56
sg48
g11
sg49
S'17'
p84
sg51
g56
sg52
S'1986-87'
p85
sg54
g56
sg55
g9
sg57
S'.235'
p86
sg59
S'52'
p87
sg61
g11
sbasS'_college'
p88
S'Virginia Polytechnic Institute and State University'
p89
sS'_toYear'
p90
S'1987'
p91
sS'_height'
p92
S'6-5'
p93
sS'_active'
p94
I00
sS'_shootingHand'
p95
VRight
p96
sS'_name'
p97
S'Perry Young'
p98
sS'_per100Possessions'
p99
(lp100
(isrc.gp1.models.Per100Possession
Per100Possession
p101
(dp102
g8
S'2.0'
p103
sg10
S'0.0'
p104
sg12
S'.286'
p105
sS'_offensiveRating'
p106
S'74'
p107
sg14
S'4.6'
p108
sg16
g3
sg17
S'0.0'
p109
sg18
S'8.5'
p110
sg20
S'SG'
p111
sS'_defensiveRating'
p112
S'107'
p113
sg22
S'.500'
p114
sg26
S'NBA'
p115
sg28
S'3.3'
p116
sg30
S'13.7'
p117
sg32
S'9.1'
p118
sg34
S'1.3'
p119
sg36
S'5.2'
p120
sg38
S'23'
p121
sg40
S'TOT'
p122
sg42
g43
sg44
S'0.7'
p123
sg46
S'3.9'
p124
sg48
S'0.7'
p125
sg49
S'13.7'
p126
sg51
S'3.3'
p127
sg52
S'1986-87'
p128
sg54
S'3.9'
p129
sg55
S'2.6'
p130
sg57
S'.286'
p131
sg59
S'72'
p132
sg61
g11
sba(isrc.gp1.models.Per100Possession
Per100Possession
p133
(dp134
g8
S'0.0'
p135
sg10
S'0.0'
p136
sg12
S'.500'
p137
sg106
S'87'
p138
sg14
S'0.0'
p139
sg16
g3
sg17
S'0.0'
p140
sg18
S'12.5'
p141
sg20
S'SG'
p142
sg112
S'109'
p143
sg22
S'.500'
p144
sg26
S'NBA'
p145
sg28
S'2.5'
p146
sg30
S'10.0'
p147
sg32
S'7.5'
p148
sg34
S'5.0'
p149
sg36
S'2.5'
p150
sg38
S'23'
p151
sg40
S'CHI'
p152
sg42
g29
sg44
S'0.0'
p153
sg46
S'5.0'
p154
sg48
S'2.5'
p155
sg49
S'10.0'
p156
sg51
S'2.5'
p157
sg52
S'1986-87'
p158
sg54
S'5.0'
p159
sg55
S'2.5'
p160
sg57
S'.500'
p161
sg59
S'20'
p162
sg61
g11
sba(isrc.gp1.models.Per100Possession
Per100Possession
p163
(dp164
g8
S'2.6'
p165
sg10
S'0.0'
p166
sg12
S'.235'
p167
sg106
S'70'
p168
sg14
S'6.2'
p169
sg16
g3
sg17
S'0.0'
p170
sg18
S'7.0'
p171
sg20
S'SG'
p172
sg112
S'106'
p173
sg22
g3
sg26
S'NBA'
p174
sg28
S'3.5'
p175
sg30
S'14.9'
p176
sg32
S'9.7'
p177
sg34
S'0.0'
p178
sg36
S'6.2'
p179
sg38
S'23'
p180
sg40
S'POR'
p181
sg42
g56
sg44
S'0.9'
p182
sg46
S'3.5'
p183
sg48
S'0.0'
p184
sg49
S'14.9'
p185
sg51
S'3.5'
p186
sg52
S'1986-87'
p187
sg54
S'3.5'
p188
sg55
S'2.6'
p189
sg57
S'.235'
p190
sg59
S'52'
p191
sg61
g11
sbasS'_advanced'
p192
(lp193
(isrc.gp1.models.Advanced
Advanced
p194
(dp195
S'_offensiveReboundPercentage'
p196
S'4.8'
p197
sS'_turnOverPercentage'
p198
S'15.5'
p199
sS'_winSharesPer48Minutes'
p200
S'-0.047'
p201
sS'_stealPercentage'
p202
S'3.2'
p203
sS'_usagePercentage'
p204
S'14.4'
p205
sS'_totalReboundsPercentage'
p206
S'6.2'
p207
sS'_defensiveBoxPlusMinus'
p208
S'0.6'
p209
sg20
S'SG'
p210
sS'_valueOverReplacementPlayer'
p211
S'-0.1'
p212
sS'_trueShootingPercentage'
p213
S'.297'
p214
sS'_defensiveReboundPercentage'
p215
S'7.7'
p216
sS'_freeThrowsAttempRate'
p217
S'.095'
p218
sS'_threePointsAttempRate'
p219
S'.000'
p220
sg26
S'NBA'
p221
sS'_offensiveBoxPlusMinues'
p222
S'-6.6'
p223
sS'_assistPercentage'
p224
S'11.5'
p225
sS'_defensiveWinShares'
p226
S'0.1'
p227
sg38
S'23'
p228
sg40
S'TOT'
p229
sg42
g43
sS'_blockPercentage'
p230
S'0.8'
p231
sS'_playerEfficiencyRating'
p232
S'3.0'
p233
sS'_offensiveWinShares'
p234
S'-0.2'
p235
sg59
S'72'
p236
sS'_boxPlusMinus'
p237
S'-6.0'
p238
sg52
S'1986-87'
p239
sS'_winShares'
p240
S'-0.1'
p241
sba(isrc.gp1.models.Advanced
Advanced
p242
(dp243
g196
S'0.0'
p244
sg198
S'17.0'
p245
sg200
S'.005'
p246
sg202
S'2.5'
p247
sg204
S'12.4'
p248
sg206
S'2.8'
p249
sg208
S'-1.7'
p250
sg20
S'SG'
p251
sg211
S'0.0'
p252
sg213
S'.512'
p253
sg215
S'5.8'
p254
sg217
S'.500'
p255
sg219
S'.000'
p256
sg26
S'NBA'
p257
sg222
S'-6.5'
p258
sg224
S'0.0'
p259
sg226
S'0.0'
p260
sg38
S'23'
p261
sg40
S'CHI'
p262
sg42
g29
sg230
S'0.0'
p263
sg232
S'3.8'
p264
sg234
S'0.0'
p265
sg59
S'20'
p266
sg237
S'-8.1'
p267
sg52
S'1986-87'
p268
sg240
S'0.0'
p269
sba(isrc.gp1.models.Advanced
Advanced
p270
(dp271
g196
S'6.6'
p272
sg198
S'15.0'
p273
sg200
S'-0.067'
p274
sg202
S'3.5'
p275
sg204
S'15.1'
p276
sg206
S'7.5'
p277
sg208
S'1.4'
p278
sg20
S'SG'
p279
sg211
S'0.0'
p280
sg213
S'.235'
p281
sg215
S'8.4'
p282
sg217
S'.000'
p283
sg219
S'.000'
p284
sg26
S'NBA'
p285
sg222
S'-6.7'
p286
sg224
S'15.9'
p287
sg226
S'0.1'
p288
sg38
S'23'
p289
sg40
S'POR'
p290
sg42
g56
sg230
S'1.1'
p291
sg232
S'2.6'
p292
sg234
S'-0.1'
p293
sg59
S'52'
p294
sg237
S'-5.2'
p295
sg52
S'1986-87'
p296
sg240
S'-0.1'
p297
sbasS'_per36Minutes'
p298
(lp299
(isrc.gp1.models.Per36Minutes
Per36Minutes
p300
(dp301
g8
S'1.5'
p302
sg10
S'0.0'
p303
sg12
S'.286'
p304
sg14
S'3.5'
p305
sg16
g3
sg17
S'0.0'
p306
sg18
S'6.5'
p307
sg20
S'SG'
p308
sg22
S'.500'
p309
sg26
S'NBA'
p310
sg28
S'2.5'
p311
sg30
S'10.5'
p312
sg32
S'7.0'
p313
sg34
S'1.0'
p314
sg36
S'4.0'
p315
sg38
S'23'
p316
sg40
S'TOT'
p317
sg42
g43
sg44
S'0.5'
p318
sg46
S'3.0'
p319
sg48
S'0.5'
p320
sg49
S'10.5'
p321
sg51
S'2.5'
p322
sg52
S'1986-87'
p323
sg54
S'3.0'
p324
sg55
S'2.0'
p325
sg57
S'.286'
p326
sg59
S'72'
p327
sg61
g11
sba(isrc.gp1.models.Per36Minutes
Per36Minutes
p328
(dp329
g8
S'0.0'
p330
sg10
S'0.0'
p331
sg12
S'.500'
p332
sg14
S'0.0'
p333
sg16
g3
sg17
S'0.0'
p334
sg18
S'9.0'
p335
sg20
S'SG'
p336
sg22
S'.500'
p337
sg26
S'NBA'
p338
sg28
S'1.8'
p339
sg30
S'7.2'
p340
sg32
S'5.4'
p341
sg34
S'3.6'
p342
sg36
S'1.8'
p343
sg38
S'23'
p344
sg40
S'CHI'
p345
sg42
g29
sg44
S'0.0'
p346
sg46
S'3.6'
p347
sg48
S'1.8'
p348
sg49
S'7.2'
p349
sg51
S'1.8'
p350
sg52
S'1986-87'
p351
sg54
S'3.6'
p352
sg55
S'1.8'
p353
sg57
S'.500'
p354
sg59
S'20'
p355
sg61
g11
sba(isrc.gp1.models.Per36Minutes
Per36Minutes
p356
(dp357
g8
S'2.1'
p358
sg10
S'0.0'
p359
sg12
S'.235'
p360
sg14
S'4.8'
p361
sg16
g3
sg17
S'0.0'
p362
sg18
S'5.5'
p363
sg20
S'SG'
p364
sg22
g3
sg26
S'NBA'
p365
sg28
S'2.8'
p366
sg30
S'11.8'
p367
sg32
S'7.6'
p368
sg34
S'0.0'
p369
sg36
S'4.8'
p370
sg38
S'23'
p371
sg40
S'POR'
p372
sg42
g56
sg44
S'0.7'
p373
sg46
S'2.8'
p374
sg48
S'0.0'
p375
sg49
S'11.8'
p376
sg51
S'2.8'
p377
sg52
S'1986-87'
p378
sg54
S'2.8'
p379
sg55
S'2.1'
p380
sg57
S'.235'
p381
sg59
S'52'
p382
sg61
g11
sbasS'_fromYear'
p383
S'1987'
p384
sS'_url'
p385
S'http://www.basketball-reference.com/players/y/youngpe01.html'
p386
sS'_perGame'
p387
(isrc.gp1.models.PerGame
PerGame
p388
(dp389
g8
S'0.8'
p390
sg10
S'0.0'
p391
sg12
S'.235'
p392
sS'_effectiveFieldGalPercentage'
p393
S'.235'
p394
sg14
S'1.8'
p395
sg16
g3
sg17
S'0.0'
p396
sg18
S'2.0'
p397
sg20
S'SG'
p398
sg22
g3
sg26
S'NBA'
p399
sg28
S'1.0'
p400
sg32
S'2.8'
p401
sS'_fieldGoalsttempted'
p402
S'4.3'
p403
sg34
S'0.0'
p404
sg36
S'1.8'
p405
sg38
S'23'
p406
sg40
S'POR'
p407
sg42
g56
sg44
S'0.3'
p408
sg46
S'1.0'
p409
sg48
S'0.0'
p410
sg49
S'4.3'
p411
sg51
S'1.0'
p412
sg52
S'1986-87'
p413
sg54
S'1.0'
p414
sg55
S'0.8'
p415
sg57
S'.235'
p416
sg59
S'13.0'
p417
sg61
g11
sbsS'_weight'
p418
S'210'
p419
sS'_dob'
p420
S'4-8-1963'
p421
sS'_salary'
p422
(lp423
sg20
S'G'
p424
sb.