(isrc.gp1.models.Player
Player
p0
(dp1
S'_experience'
p2
S'NA'
p3
sS'_totals'
p4
(lp5
(isrc.gp1.models.Totals
Totals
p6
(dp7
S'_offensiveRebounds'
p8
S'26'
p9
sS'_threePointsAttempted'
p10
S'32'
p11
sS'_fieldGoalsPercentage'
p12
S'.411'
p13
sS'_assist'
p14
S'40'
p15
sS'_threePointsPercentage'
p16
S'.188'
p17
sS'_threePoints'
p18
S'6'
p19
sS'_points'
p20
S'203'
p21
sS'_position'
p22
S'PF'
p23
sS'_freeThrowsPercentage'
p24
S'.660'
p25
sS'_effectiveFieldGoalPercentage'
p26
S'.426'
p27
sS'_league'
p28
S'NBA'
p29
sS'_steals'
p30
S'10'
p31
sS'_fieldGoalsAttempted'
p32
S'197'
p33
sS'_personalFouls'
p34
S'75'
p35
sS'_freeThrowsAttempted'
p36
S'53'
p37
sS'_totalRebounds'
p38
S'99'
p39
sS'_age'
p40
S'22'
p41
sS'_team'
p42
S'PHO'
p43
sS'_games'
p44
S'49'
p45
sS'_blocks'
p46
S'13'
p47
sS'_twoPoints'
p48
S'75'
p49
sS'_freeThrows'
p50
S'35'
p51
sS'_twoPointsAttempted'
p52
S'165'
p53
sS'_defensiveRebounds'
p54
S'73'
p55
sS'_season'
p56
S'2003-04'
p57
sS'_fieldGoals'
p58
S'81'
p59
sS'_turnOvers'
p60
S'54'
p61
sS'_twoPointsPercentage'
p62
S'.455'
p63
sS'_minutesPlayed'
p64
S'570'
p65
sS'_gamesStarted'
p66
S'4'
p67
sba(isrc.gp1.models.Totals
Totals
p68
(dp69
g8
S'35'
p70
sg10
S'36'
p71
sg12
S'.486'
p72
sg14
S'25'
p73
sg16
S'.361'
p74
sg18
S'13'
p75
sg20
S'238'
p76
sg22
S'PF'
p77
sg24
S'.815'
p78
sg26
S'.523'
p79
sg28
S'NBA'
p80
sg30
S'10'
p81
sg32
S'177'
p82
sg34
S'59'
p83
sg36
S'65'
p84
sg38
S'102'
p85
sg40
S'23'
p86
sg42
S'TOT'
p87
sg44
S'40'
p88
sg46
S'5'
p89
sg48
S'73'
p90
sg50
S'53'
p91
sg52
S'141'
p92
sg54
S'67'
p93
sg56
S'2004-05'
p94
sg58
S'86'
p95
sg60
S'30'
p96
sg62
S'.518'
p97
sg64
S'475'
p98
sg66
S'0'
p99
sba(isrc.gp1.models.Totals
Totals
p100
(dp101
g8
S'1'
p102
sg10
g99
sg12
S'.571'
p103
sg14
g99
sg16
g67
sg18
g99
sg20
g3
sg22
S'PF'
p104
sg24
S'2'
p105
sg26
g102
sg28
S'NBA'
p106
sg30
g99
sg32
S'7'
p107
sg34
S'9'
p108
sg36
S'1.000'
p109
sg38
g99
sg40
S'23'
p110
sg42
S'PHO'
p111
sg44
S'3'
p112
sg46
g99
sg48
g107
sg50
g102
sg52
S'.571'
p113
sg54
g112
sg56
S'2004-05'
p114
sg58
g67
sg60
g99
sg62
S'.571'
p115
sg64
S'11'
p116
sg66
g99
sba(isrc.gp1.models.Totals
Totals
p117
(dp118
g8
S'33'
p119
sg10
S'36'
p120
sg12
S'.482'
p121
sg14
S'25'
p122
sg16
S'.361'
p123
sg18
S'13'
p124
sg20
S'229'
p125
sg22
S'PF'
p126
sg24
S'.813'
p127
sg26
S'.521'
p128
sg28
S'NBA'
p129
sg30
S'10'
p130
sg32
S'170'
p131
sg34
S'59'
p132
sg36
S'64'
p133
sg38
S'99'
p134
sg40
S'23'
p135
sg42
S'GSW'
p136
sg44
S'37'
p137
sg46
g89
sg48
S'69'
p138
sg50
S'52'
p139
sg52
S'134'
p140
sg54
S'66'
p141
sg56
S'2004-05'
p142
sg58
S'82'
p143
sg60
S'30'
p144
sg62
S'.515'
p145
sg64
S'464'
p146
sg66
g99
sba(isrc.gp1.models.Totals
Totals
p147
(dp148
g8
S'37'
p149
sg10
S'20'
p150
sg12
S'.385'
p151
sg14
S'20'
p152
sg16
S'.250'
p153
sg18
g89
sg20
S'199'
p154
sg22
S'PF'
p155
sg24
S'.714'
p156
sg26
S'.399'
p157
sg28
S'NBA'
p158
sg30
S'13'
p159
sg32
S'174'
p160
sg34
S'87'
p161
sg36
S'84'
p162
sg38
S'111'
p163
sg40
S'24'
p164
sg42
S'GSW'
p165
sg44
S'61'
p166
sg46
g107
sg48
S'62'
p167
sg50
S'60'
p168
sg52
S'154'
p169
sg54
S'74'
p170
sg56
S'2005-06'
p171
sg58
S'67'
p172
sg60
S'35'
p173
sg62
S'.403'
p174
sg64
S'505'
p175
sg66
g99
sbasS'_college'
p176
S'NA'
p177
sS'_toYear'
p178
S'2006'
p179
sS'_height'
p180
S'6-11'
p181
sS'_active'
p182
I00
sS'_shootingHand'
p183
VRight
p184
sS'_name'
p185
S'Zarko Cabarkapa'
p186
sS'_per100Possessions'
p187
(lp188
(isrc.gp1.models.Per100Possession
Per100Possession
p189
(dp190
g8
S'2.4'
p191
sg10
S'2.9'
p192
sg12
S'.411'
p193
sS'_offensiveRating'
p194
S'85'
p195
sg14
S'3.6'
p196
sg16
S'.188'
p197
sg18
S'0.5'
p198
sg20
S'18.5'
p199
sg22
S'PF'
p200
sS'_defensiveRating'
p201
S'107'
p202
sg24
S'.660'
p203
sg28
S'NBA'
p204
sg30
S'0.9'
p205
sg32
S'17.9'
p206
sg34
S'6.8'
p207
sg36
S'4.8'
p208
sg38
S'9.0'
p209
sg40
S'22'
p210
sg42
S'PHO'
p211
sg44
S'49'
p212
sg46
S'1.2'
p213
sg48
S'6.8'
p214
sg50
S'3.2'
p215
sg52
S'15.0'
p216
sg54
S'6.6'
p217
sg56
S'2003-04'
p218
sg58
S'7.4'
p219
sg60
S'4.9'
p220
sg62
S'.455'
p221
sg64
S'570'
p222
sg66
g67
sba(isrc.gp1.models.Per100Possession
Per100Possession
p223
(dp224
g8
S'3.8'
p225
sg10
S'3.9'
p226
sg12
S'.486'
p227
sg194
S'112'
p228
sg14
S'2.7'
p229
sg16
S'.361'
p230
sg18
S'1.4'
p231
sg20
S'25.8'
p232
sg22
S'PF'
p233
sg201
S'108'
p234
sg24
S'.815'
p235
sg28
S'NBA'
p236
sg30
S'1.1'
p237
sg32
S'19.2'
p238
sg34
S'6.4'
p239
sg36
S'7.0'
p240
sg38
S'11.0'
p241
sg40
S'23'
p242
sg42
S'TOT'
p243
sg44
S'40'
p244
sg46
S'0.5'
p245
sg48
S'7.9'
p246
sg50
S'5.7'
p247
sg52
S'15.3'
p248
sg54
S'7.3'
p249
sg56
S'2004-05'
p250
sg58
S'9.3'
p251
sg60
S'3.2'
p252
sg62
S'.518'
p253
sg64
S'475'
p254
sg66
g99
sba(isrc.gp1.models.Per100Possession
Per100Possession
p255
(dp256
g8
S'4.5'
p257
sg10
S'0.0'
p258
sg12
S'.571'
p259
sg194
S'113'
p260
sg14
S'0.0'
p261
sg16
S'18.2'
p262
sg18
S'0.0'
p263
sg20
S'132'
p264
sg22
S'PF'
p265
sg201
g3
sg24
S'9.1'
p266
sg28
S'NBA'
p267
sg30
S'0.0'
p268
sg32
S'31.8'
p269
sg34
S'40.9'
p270
sg36
S'1.000'
p271
sg38
S'0.0'
p272
sg40
S'23'
p273
sg42
S'PHO'
p274
sg44
g112
sg46
S'0.0'
p275
sg48
S'31.8'
p276
sg50
S'4.5'
p277
sg52
S'.571'
p278
sg54
S'13.6'
p279
sg56
S'2004-05'
p280
sg58
S'18.2'
p281
sg60
S'0.0'
p282
sg62
S'4.5'
p283
sg64
S'11'
p284
sg66
g99
sba(isrc.gp1.models.Per100Possession
Per100Possession
p285
(dp286
g8
S'3.7'
p287
sg10
S'4.0'
p288
sg12
S'.482'
p289
sg194
S'111'
p290
sg14
S'2.8'
p291
sg16
S'.361'
p292
sg18
S'1.4'
p293
sg20
S'25.4'
p294
sg22
S'PF'
p295
sg201
S'108'
p296
sg24
S'.813'
p297
sg28
S'NBA'
p298
sg30
S'1.1'
p299
sg32
S'18.9'
p300
sg34
S'6.5'
p301
sg36
S'7.1'
p302
sg38
S'11.0'
p303
sg40
S'23'
p304
sg42
S'GSW'
p305
sg44
S'37'
p306
sg46
S'0.6'
p307
sg48
S'7.7'
p308
sg50
S'5.8'
p309
sg52
S'14.9'
p310
sg54
S'7.3'
p311
sg56
S'2004-05'
p312
sg58
S'9.1'
p313
sg60
S'3.3'
p314
sg62
S'.515'
p315
sg64
S'464'
p316
sg66
g99
sba(isrc.gp1.models.Per100Possession
Per100Possession
p317
(dp318
g8
S'3.8'
p319
sg10
S'2.0'
p320
sg12
S'.385'
p321
sg194
S'95'
p322
sg14
S'2.0'
p323
sg16
S'.250'
p324
sg18
S'0.5'
p325
sg20
S'20.3'
p326
sg22
S'PF'
p327
sg201
S'106'
p328
sg24
S'.714'
p329
sg28
S'NBA'
p330
sg30
S'1.3'
p331
sg32
S'17.7'
p332
sg34
S'8.9'
p333
sg36
S'8.6'
p334
sg38
S'11.3'
p335
sg40
S'24'
p336
sg42
S'GSW'
p337
sg44
S'61'
p338
sg46
S'0.7'
p339
sg48
S'6.3'
p340
sg50
S'6.1'
p341
sg52
S'15.7'
p342
sg54
S'7.5'
p343
sg56
S'2005-06'
p344
sg58
S'6.8'
p345
sg60
S'3.6'
p346
sg62
S'.403'
p347
sg64
S'505'
p348
sg66
g99
sbasS'_advanced'
p349
(lp350
(isrc.gp1.models.Advanced
Advanced
p351
(dp352
S'_offensiveReboundPercentage'
p353
S'5.2'
p354
sS'_turnOverPercentage'
p355
S'19.7'
p356
sS'_winSharesPer48Minutes'
p357
S'-0.037'
p358
sS'_stealPercentage'
p359
S'0.9'
p360
sS'_usagePercentage'
p361
S'21.7'
p362
sS'_totalReboundsPercentage'
p363
S'9.9'
p364
sS'_defensiveBoxPlusMinus'
p365
S'-1.7'
p366
sg22
S'PF'
p367
sS'_valueOverReplacementPlayer'
p368
S'-0.7'
p369
sS'_trueShootingPercentage'
p370
S'.461'
p371
sS'_defensiveReboundPercentage'
p372
S'14.7'
p373
sS'_freeThrowsAttempRate'
p374
S'.269'
p375
sS'_threePointsAttempRate'
p376
S'.162'
p377
sg28
S'NBA'
p378
sS'_offensiveBoxPlusMinues'
p379
S'-4.8'
p380
sS'_assistPercentage'
p381
S'11.6'
p382
sS'_defensiveWinShares'
p383
S'0.3'
p384
sg40
S'22'
p385
sg42
S'PHO'
p386
sg44
S'49'
p387
sS'_blockPercentage'
p388
S'1.7'
p389
sS'_playerEfficiencyRating'
p390
S'8.4'
p391
sS'_offensiveWinShares'
p392
S'-0.7'
p393
sg64
S'570'
p394
sS'_boxPlusMinus'
p395
S'-6.5'
p396
sg56
S'2003-04'
p397
sS'_winShares'
p398
S'-0.4'
p399
sba(isrc.gp1.models.Advanced
Advanced
p400
(dp401
g353
S'7.7'
p402
sg355
S'12.7'
p403
sg357
S'.127'
p404
sg359
S'1.1'
p405
sg361
S'21.9'
p406
sg363
S'11.7'
p407
sg365
S'-2.1'
p408
sg22
S'PF'
p409
sg368
S'-0.1'
p410
sg370
S'.579'
p411
sg372
S'16.1'
p412
sg374
S'.367'
p413
sg376
S'.203'
p414
sg28
S'NBA'
p415
sg379
S'-0.4'
p416
sg381
S'9.0'
p417
sg383
S'0.4'
p418
sg40
S'23'
p419
sg42
S'TOT'
p420
sg44
S'40'
p421
sg388
S'0.7'
p422
sg390
S'16.9'
p423
sg392
S'0.9'
p424
sg64
S'475'
p425
sg395
S'-2.5'
p426
sg56
S'2004-05'
p427
sg398
S'1.3'
p428
sba(isrc.gp1.models.Advanced
Advanced
p429
(dp430
g353
S'20.5'
p431
sg355
S'0.0'
p432
sg357
S'.271'
p433
sg359
S'0.0'
p434
sg361
S'29.5'
p435
sg363
S'14.6'
p436
sg365
S'-10.8'
p437
sg22
S'PF'
p438
sg368
S'0.0'
p439
sg370
S'.605'
p440
sg372
S'9.3'
p441
sg374
S'.143'
p442
sg376
S'.000'
p443
sg28
S'NBA'
p444
sg379
S'3.3'
p445
sg381
S'0.0'
p446
sg383
S'0.0'
p447
sg40
S'23'
p448
sg42
S'PHO'
p449
sg44
g112
sg388
S'0.0'
p450
sg390
S'32.4'
p451
sg392
S'0.1'
p452
sg64
S'11'
p453
sg395
S'-7.5'
p454
sg56
S'2004-05'
p455
sg398
S'0.1'
p456
sba(isrc.gp1.models.Advanced
Advanced
p457
(dp458
g353
S'7.4'
p459
sg355
S'13.1'
p460
sg357
S'.124'
p461
sg359
S'1.1'
p462
sg361
S'21.7'
p463
sg363
S'11.6'
p464
sg365
S'-1.9'
p465
sg22
S'PF'
p466
sg368
S'0.0'
p467
sg370
S'.578'
p468
sg372
S'16.2'
p469
sg374
S'.376'
p470
sg376
S'.212'
p471
sg28
S'NBA'
p472
sg379
S'-0.5'
p473
sg381
S'9.2'
p474
sg383
S'0.4'
p475
sg40
S'23'
p476
sg42
S'GSW'
p477
sg44
S'37'
p478
sg388
S'0.8'
p479
sg390
S'16.5'
p480
sg392
S'0.8'
p481
sg64
S'464'
p482
sg395
S'-2.3'
p483
sg56
S'2004-05'
p484
sg398
S'1.2'
p485
sba(isrc.gp1.models.Advanced
Advanced
p486
(dp487
g353
S'8.0'
p488
sg355
S'14.2'
p489
sg357
S'.031'
p490
sg359
S'1.3'
p491
sg361
S'21.7'
p492
sg363
S'12.3'
p493
sg365
S'-1.4'
p494
sg22
S'PF'
p495
sg368
S'-0.5'
p496
sg370
S'.472'
p497
sg372
S'16.7'
p498
sg374
S'.483'
p499
sg376
S'.115'
p500
sg28
S'NBA'
p501
sg379
S'-4.8'
p502
sg381
S'6.5'
p503
sg383
S'0.5'
p504
sg40
S'24'
p505
sg42
S'GSW'
p506
sg44
S'61'
p507
sg388
S'1.0'
p508
sg390
S'9.9'
p509
sg392
S'-0.2'
p510
sg64
S'505'
p511
sg395
S'-6.3'
p512
sg56
S'2005-06'
p513
sg398
S'0.3'
p514
sbasS'_per36Minutes'
p515
(lp516
(isrc.gp1.models.Per36Minutes
Per36Minutes
p517
(dp518
g8
S'1.6'
p519
sg10
S'2.0'
p520
sg12
S'.411'
p521
sg14
S'2.5'
p522
sg16
S'.188'
p523
sg18
S'0.4'
p524
sg20
S'12.8'
p525
sg22
S'PF'
p526
sg24
S'.660'
p527
sg28
S'NBA'
p528
sg30
S'0.6'
p529
sg32
S'12.4'
p530
sg34
S'4.7'
p531
sg36
S'3.3'
p532
sg38
S'6.3'
p533
sg40
S'22'
p534
sg42
S'PHO'
p535
sg44
S'49'
p536
sg46
S'0.8'
p537
sg48
S'4.7'
p538
sg50
S'2.2'
p539
sg52
S'10.4'
p540
sg54
S'4.6'
p541
sg56
S'2003-04'
p542
sg58
S'5.1'
p543
sg60
S'3.4'
p544
sg62
S'.455'
p545
sg64
S'570'
p546
sg66
g67
sba(isrc.gp1.models.Per36Minutes
Per36Minutes
p547
(dp548
g8
S'2.7'
p549
sg10
S'2.7'
p550
sg12
S'.486'
p551
sg14
S'1.9'
p552
sg16
S'.361'
p553
sg18
S'1.0'
p554
sg20
S'18.0'
p555
sg22
S'PF'
p556
sg24
S'.815'
p557
sg28
S'NBA'
p558
sg30
S'0.8'
p559
sg32
S'13.4'
p560
sg34
S'4.5'
p561
sg36
S'4.9'
p562
sg38
S'7.7'
p563
sg40
S'23'
p564
sg42
S'TOT'
p565
sg44
S'40'
p566
sg46
S'0.4'
p567
sg48
S'5.5'
p568
sg50
S'4.0'
p569
sg52
S'10.7'
p570
sg54
S'5.1'
p571
sg56
S'2004-05'
p572
sg58
S'6.5'
p573
sg60
S'2.3'
p574
sg62
S'.518'
p575
sg64
S'475'
p576
sg66
g99
sba(isrc.gp1.models.Per36Minutes
Per36Minutes
p577
(dp578
g8
S'3.3'
p579
sg10
S'0.0'
p580
sg12
S'.571'
p581
sg14
S'0.0'
p582
sg16
S'13.1'
p583
sg18
S'0.0'
p584
sg20
g3
sg22
S'PF'
p585
sg24
S'6.5'
p586
sg28
S'NBA'
p587
sg30
S'0.0'
p588
sg32
S'22.9'
p589
sg34
S'29.5'
p590
sg36
S'1.000'
p591
sg38
S'0.0'
p592
sg40
S'23'
p593
sg42
S'PHO'
p594
sg44
g112
sg46
S'0.0'
p595
sg48
S'22.9'
p596
sg50
S'3.3'
p597
sg52
S'.571'
p598
sg54
S'9.8'
p599
sg56
S'2004-05'
p600
sg58
S'13.1'
p601
sg60
S'0.0'
p602
sg62
S'3.3'
p603
sg64
S'11'
p604
sg66
g99
sba(isrc.gp1.models.Per36Minutes
Per36Minutes
p605
(dp606
g8
S'2.6'
p607
sg10
S'2.8'
p608
sg12
S'.482'
p609
sg14
S'1.9'
p610
sg16
S'.361'
p611
sg18
S'1.0'
p612
sg20
S'17.8'
p613
sg22
S'PF'
p614
sg24
S'.813'
p615
sg28
S'NBA'
p616
sg30
S'0.8'
p617
sg32
S'13.2'
p618
sg34
S'4.6'
p619
sg36
S'5.0'
p620
sg38
S'7.7'
p621
sg40
S'23'
p622
sg42
S'GSW'
p623
sg44
S'37'
p624
sg46
S'0.4'
p625
sg48
S'5.4'
p626
sg50
S'4.0'
p627
sg52
S'10.4'
p628
sg54
S'5.1'
p629
sg56
S'2004-05'
p630
sg58
S'6.4'
p631
sg60
S'2.3'
p632
sg62
S'.515'
p633
sg64
S'464'
p634
sg66
g99
sba(isrc.gp1.models.Per36Minutes
Per36Minutes
p635
(dp636
g8
S'2.6'
p637
sg10
S'1.4'
p638
sg12
S'.385'
p639
sg14
S'1.4'
p640
sg16
S'.250'
p641
sg18
S'0.4'
p642
sg20
S'14.2'
p643
sg22
S'PF'
p644
sg24
S'.714'
p645
sg28
S'NBA'
p646
sg30
S'0.9'
p647
sg32
S'12.4'
p648
sg34
S'6.2'
p649
sg36
S'6.0'
p650
sg38
S'7.9'
p651
sg40
S'24'
p652
sg42
S'GSW'
p653
sg44
S'61'
p654
sg46
S'0.5'
p655
sg48
S'4.4'
p656
sg50
S'4.3'
p657
sg52
S'11.0'
p658
sg54
S'5.3'
p659
sg56
S'2005-06'
p660
sg58
S'4.8'
p661
sg60
S'2.5'
p662
sg62
S'.403'
p663
sg64
S'505'
p664
sg66
g99
sbasS'_fromYear'
p665
S'2004'
p666
sS'_url'
p667
S'http://www.basketball-reference.com/players/c/cabarza01.html'
p668
sS'_perGame'
p669
(isrc.gp1.models.PerGame
PerGame
p670
(dp671
g8
S'0.6'
p672
sg10
S'0.3'
p673
sg12
S'.385'
p674
sS'_effectiveFieldGalPercentage'
p675
S'.399'
p676
sg14
S'0.3'
p677
sg16
S'.250'
p678
sg18
S'0.1'
p679
sg20
S'3.3'
p680
sg22
S'PF'
p681
sg24
S'.714'
p682
sg28
S'NBA'
p683
sg30
S'0.2'
p684
sg34
S'1.4'
p685
sS'_fieldGoalsttempted'
p686
S'2.9'
p687
sg36
S'1.4'
p688
sg38
S'1.8'
p689
sg40
S'24'
p690
sg42
S'GSW'
p691
sg44
S'61'
p692
sg46
S'0.1'
p693
sg48
S'1.0'
p694
sg50
S'1.0'
p695
sg52
S'2.5'
p696
sg54
S'1.2'
p697
sg56
S'2005-06'
p698
sg58
S'1.1'
p699
sg60
S'0.6'
p700
sg62
S'.403'
p701
sg64
S'8.3'
p702
sg66
g99
sbsS'_weight'
p703
S'235'
p704
sS'_dob'
p705
S'21-5-1981'
p706
sS'_salary'
p707
(lp708
(isrc.gp1.models.Salary
Salary
p709
(dp710
g42
S'Phoenix Suns'
p711
sg28
S'NBA'
p712
sg707
S'$1,221,240'
p713
sg56
S'2003-04'
p714
sba(isrc.gp1.models.Salary
Salary
p715
(dp716
g42
S'Phoenix Suns'
p717
sg28
S'NBA'
p718
sg707
S'$1,312,800'
p719
sg56
S'2004-05'
p720
sba(isrc.gp1.models.Salary
Salary
p721
(dp722
g42
S'Golden State Warriors'
p723
sg28
S'NBA'
p724
sg707
S'$1,404,360'
p725
sg56
S'2005-06'
p726
sba(isrc.gp1.models.Salary
Salary
p727
(dp728
g42
S'Golden State Warriors'
p729
sg28
S'NBA'
p730
sg707
S'$2,157,097'
p731
sg56
S'2006-07'
p732
sbasg22
S'F'
p733
sb.