(isrc.gp1.models.Player
Player
p0
(dp1
S'_experience'
p2
S'NA'
p3
sS'_totals'
p4
(lp5
(isrc.gp1.models.Totals
Totals
p6
(dp7
S'_offensiveRebounds'
p8
g3
sS'_threePointsAttempted'
p9
g3
sS'_fieldGoalsPercentage'
p10
S'.329'
p11
sS'_assist'
p12
S'40'
p13
sS'_threePointsPercentage'
p14
g3
sS'_threePoints'
p15
g3
sS'_points'
p16
S'877'
p17
sS'_position'
p18
S'SG'
p19
sS'_freeThrowsPercentage'
p20
S'.737'
p21
sS'_effectiveFieldGoalPercentage'
p22
S'.329'
p23
sS'_league'
p24
S'BAA'
p25
sS'_steals'
p26
g3
sS'_fieldGoalsAttempted'
p27
S'1020'
p28
sS'_personalFouls'
p29
S'121'
p30
sS'_freeThrowsAttempted'
p31
S'278'
p32
sS'_totalRebounds'
p33
g3
sS'_age'
p34
S'21'
p35
sS'_team'
p36
S'CHS'
p37
sS'_games'
p38
S'61'
p39
sS'_blocks'
p40
g3
sS'_twoPoints'
p41
S'336'
p42
sS'_freeThrows'
p43
S'205'
p44
sS'_twoPointsAttempted'
p45
S'1020'
p46
sS'_defensiveRebounds'
p47
g3
sS'_season'
p48
S'1946-47'
p49
sS'_fieldGoals'
p50
S'336'
p51
sS'_turnOvers'
p52
g3
sS'_twoPointsPercentage'
p53
S'.329'
p54
sS'_minutesPlayed'
p55
g3
sS'_gamesStarted'
p56
g3
sba(isrc.gp1.models.Totals
Totals
p57
(dp58
g8
g3
sg9
g3
sg10
S'.323'
p59
sg12
S'29'
p60
sg14
g3
sg15
g3
sg16
S'1007'
p61
sg18
S'SG'
p62
sg20
S'.784'
p63
sg22
S'.323'
p64
sg24
S'BAA'
p65
sg26
g3
sg27
S'1156'
p66
sg29
S'125'
p67
sg31
S'333'
p68
sg33
g3
sg34
S'22'
p69
sg36
S'CHS'
p70
sg38
S'48'
p71
sg40
g3
sg41
S'373'
p72
sg43
S'261'
p73
sg45
S'1156'
p74
sg47
g3
sg48
S'1947-48'
p75
sg50
S'373'
p76
sg52
g3
sg53
S'.323'
p77
sg55
g3
sg56
g3
sba(isrc.gp1.models.Totals
Totals
p78
(dp79
g8
g3
sg9
g3
sg10
S'.350'
p80
sg12
S'149'
p81
sg14
g3
sg15
g3
sg16
S'1197'
p82
sg18
S'SG'
p83
sg20
S'.840'
p84
sg22
S'.350'
p85
sg24
S'BAA'
p86
sg26
g3
sg27
S'1216'
p87
sg29
S'156'
p88
sg31
S'413'
p89
sg33
g3
sg34
S'23'
p90
sg36
S'CHS'
p91
sg38
S'58'
p92
sg40
g3
sg41
S'425'
p93
sg43
S'347'
p94
sg45
S'1216'
p95
sg47
g3
sg48
S'1948-49'
p96
sg50
S'425'
p97
sg52
g3
sg53
S'.350'
p98
sg55
g3
sg56
g3
sba(isrc.gp1.models.Totals
Totals
p99
(dp100
g8
g3
sg9
g3
sg10
S'.351'
p101
sg12
S'155'
p102
sg14
g3
sg15
g3
sg16
S'1115'
p103
sg18
S'SG'
p104
sg20
S'.843'
p105
sg22
S'.351'
p106
sg24
S'NBA'
p107
sg26
g3
sg27
S'1132'
p108
sg29
S'185'
p109
sg31
S'381'
p110
sg33
g3
sg34
S'24'
p111
sg36
S'CHS'
p112
sg38
S'68'
p113
sg40
g3
sg41
S'397'
p114
sg43
S'321'
p115
sg45
S'1132'
p116
sg47
g3
sg48
S'1949-50'
p117
sg50
S'397'
p118
sg52
g3
sg53
S'.351'
p119
sg55
g3
sg56
g3
sba(isrc.gp1.models.Totals
Totals
p120
(dp121
g8
g3
sg9
g3
sg10
S'.354'
p122
sg12
S'136'
p123
sg14
g3
sg15
g3
sg16
S'835'
p124
sg18
S'SG'
p125
sg20
S'.775'
p126
sg22
S'.354'
p127
sg24
S'NBA'
p128
sg26
g3
sg27
S'853'
p129
sg29
S'150'
p130
sg31
S'298'
p131
sg33
S'228'
p132
sg34
S'25'
p133
sg36
S'NYK'
p134
sg38
S'66'
p135
sg40
g3
sg41
S'302'
p136
sg43
S'231'
p137
sg45
S'853'
p138
sg47
g3
sg48
S'1950-51'
p139
sg50
S'302'
p140
sg52
g3
sg53
S'.354'
p141
sg55
g3
sg56
g3
sba(isrc.gp1.models.Totals
Totals
p142
(dp143
g8
g3
sg9
g3
sg10
S'.336'
p144
sg12
S'156'
p145
sg14
g3
sg15
g3
sg16
S'931'
p146
sg18
S'SG'
p147
sg20
S'.755'
p148
sg22
S'.336'
p149
sg24
S'NBA'
p150
sg26
g3
sg27
S'958'
p151
sg29
S'183'
p152
sg31
S'380'
p153
sg33
S'194'
p154
sg34
S'26'
p155
sg36
S'NYK'
p156
sg38
S'66'
p157
sg40
g3
sg41
S'322'
p158
sg43
S'287'
p159
sg45
S'958'
p160
sg47
g3
sg48
S'1951-52'
p161
sg50
S'322'
p162
sg52
g3
sg53
S'.336'
p163
sg55
S'2113'
p164
sg56
g3
sba(isrc.gp1.models.Totals
Totals
p165
(dp166
g8
g3
sg9
g3
sg10
S'.384'
p167
sg12
S'55'
p168
sg14
g3
sg15
g3
sg16
S'344'
p169
sg18
S'SG'
p170
sg20
S'.690'
p171
sg22
S'.384'
p172
sg24
S'NBA'
p173
sg26
g3
sg27
S'320'
p174
sg29
S'81'
p175
sg31
S'142'
p176
sg33
S'75'
p177
sg34
S'27'
p178
sg36
S'NYK'
p179
sg38
S'29'
p180
sg40
g3
sg41
S'123'
p181
sg43
S'98'
p182
sg45
S'320'
p183
sg47
g3
sg48
S'1952-53'
p184
sg50
S'123'
p185
sg52
g3
sg53
S'.384'
p186
sg55
S'722'
p187
sg56
g3
sba(isrc.gp1.models.Totals
Totals
p188
(dp189
g8
g3
sg9
g3
sg10
S'.368'
p190
sg12
S'154'
p191
sg14
g3
sg15
g3
sg16
S'811'
p192
sg18
S'SG'
p193
sg20
S'.714'
p194
sg22
S'.368'
p195
sg24
S'NBA'
p196
sg26
g3
sg27
S'756'
p197
sg29
S'142'
p198
sg31
S'357'
p199
sg33
S'160'
p200
sg34
S'28'
p201
sg36
S'TOT'
p202
sg38
S'65'
p203
sg40
g3
sg41
S'278'
p204
sg43
S'255'
p205
sg45
S'756'
p206
sg47
g3
sg48
S'1953-54'
p207
sg50
S'278'
p208
sg52
g3
sg53
S'.368'
p209
sg55
S'1881'
p210
sg56
g3
sba(isrc.gp1.models.Totals
Totals
p211
(dp212
g8
g3
sg9
g3
sg10
S'.352'
p213
sg12
S'33'
p214
sg14
g3
sg15
g3
sg16
S'180'
p215
sg18
S'SG'
p216
sg20
S'.767'
p217
sg22
S'.352'
p218
sg24
S'NBA'
p219
sg26
g3
sg27
S'162'
p220
sg29
S'24'
p221
sg31
S'86'
p222
sg33
S'43'
p223
sg34
S'28'
p224
sg36
S'BLB'
p225
sg38
S'11'
p226
sg40
g3
sg41
S'57'
p227
sg43
S'66'
p228
sg45
S'162'
p229
sg47
g3
sg48
S'1953-54'
p230
sg50
S'57'
p231
sg52
g3
sg53
S'.352'
p232
sg55
S'418'
p233
sg56
g3
sba(isrc.gp1.models.Totals
Totals
p234
(dp235
g8
g3
sg9
g3
sg10
S'.341'
p236
sg12
S'23'
p237
sg14
g3
sg15
g3
sg16
S'136'
p238
sg18
S'SG'
p239
sg20
S'.712'
p240
sg22
S'.341'
p241
sg24
S'NBA'
p242
sg26
g3
sg27
S'138'
p243
sg29
S'17'
p244
sg31
S'59'
p245
sg33
S'28'
p246
sg34
S'28'
p247
sg36
S'MLH'
p248
sg38
S'9'
p249
sg40
g3
sg41
S'47'
p250
sg43
S'42'
p251
sg45
S'138'
p252
sg47
g3
sg48
S'1953-54'
p253
sg50
S'47'
p254
sg52
g3
sg53
S'.341'
p255
sg55
S'299'
p256
sg56
g3
sba(isrc.gp1.models.Totals
Totals
p257
(dp258
g8
g3
sg9
g3
sg10
S'.382'
p259
sg12
S'98'
p260
sg14
g3
sg15
g3
sg16
S'495'
p261
sg18
S'SG'
p262
sg20
S'.693'
p263
sg22
S'.382'
p264
sg24
S'NBA'
p265
sg26
g3
sg27
S'456'
p266
sg29
S'101'
p267
sg31
S'212'
p268
sg33
S'89'
p269
sg34
S'28'
p270
sg36
S'FTW'
p271
sg38
S'45'
p272
sg40
g3
sg41
S'174'
p273
sg43
S'147'
p274
sg45
S'456'
p275
sg47
g3
sg48
S'1953-54'
p276
sg50
S'174'
p277
sg52
g3
sg53
S'.382'
p278
sg55
S'1164'
p279
sg56
g3
sba(isrc.gp1.models.Totals
Totals
p280
(dp281
g8
g3
sg9
g3
sg10
S'.328'
p282
sg12
S'203'
p283
sg14
g3
sg15
g3
sg16
S'785'
p284
sg18
S'SG'
p285
sg20
S'.702'
p286
sg22
S'.328'
p287
sg24
S'NBA'
p288
sg26
g3
sg27
S'821'
p289
sg29
S'130'
p290
sg31
S'352'
p291
sg33
S'191'
p292
sg34
S'29'
p293
sg36
S'FTW'
p294
sg38
S'70'
p295
sg40
g3
sg41
S'269'
p296
sg43
S'247'
p297
sg45
S'821'
p298
sg47
g3
sg48
S'1954-55'
p299
sg50
S'269'
p300
sg52
g3
sg53
S'.328'
p301
sg55
S'1862'
p302
sg56
g3
sba(isrc.gp1.models.Totals
Totals
p303
(dp304
g8
g3
sg9
g3
sg10
S'.358'
p305
sg12
S'16'
p306
sg14
g3
sg15
g3
sg16
S'88'
p307
sg18
S'SG'
p308
sg20
S'.857'
p309
sg22
S'.358'
p310
sg24
S'NBA'
p311
sg26
g3
sg27
S'81'
p312
sg29
S'18'
p313
sg31
S'35'
p314
sg33
S'16'
p315
sg34
S'30'
p316
sg36
S'FTW'
p317
sg38
g249
sg40
g3
sg41
S'29'
p318
sg43
S'30'
p319
sg45
S'81'
p320
sg47
g3
sg48
S'1955-56'
p321
sg50
S'29'
p322
sg52
g3
sg53
S'.358'
p323
sg55
S'182'
p324
sg56
g3
sbasS'_college'
p325
S"St. John's University"
p326
sS'_toYear'
p327
S'1956'
p328
sS'_height'
p329
S'6-2'
p330
sS'_active'
p331
I00
sS'_shootingHand'
p332
VRight
p333
sS'_name'
p334
S'Max Zaslofsky'
p335
sS'_per100Possessions'
p336
(lp337
sS'_advanced'
p338
(lp339
(isrc.gp1.models.Advanced
Advanced
p340
(dp341
S'_offensiveReboundPercentage'
p342
g3
sS'_turnOverPercentage'
p343
g3
sS'_winSharesPer48Minutes'
p344
g3
sS'_stealPercentage'
p345
g3
sS'_usagePercentage'
p346
g3
sS'_totalReboundsPercentage'
p347
g3
sS'_defensiveBoxPlusMinus'
p348
g3
sg18
S'SG'
p349
sS'_valueOverReplacementPlayer'
p350
g3
sS'_trueShootingPercentage'
p351
S'.384'
p352
sS'_defensiveReboundPercentage'
p353
g3
sS'_freeThrowsAttempRate'
p354
S'.273'
p355
sS'_threePointsAttempRate'
p356
g3
sg24
S'BAA'
p357
sS'_offensiveBoxPlusMinues'
p358
g3
sS'_assistPercentage'
p359
g3
sS'_defensiveWinShares'
p360
S'2.0'
p361
sg34
S'21'
p362
sg36
S'CHS'
p363
sg38
S'61'
p364
sS'_blockPercentage'
p365
g3
sS'_playerEfficiencyRating'
p366
g3
sS'_offensiveWinShares'
p367
S'7.6'
p368
sg55
g3
sS'_boxPlusMinus'
p369
g3
sg48
S'1946-47'
p370
sS'_winShares'
p371
S'9.6'
p372
sba(isrc.gp1.models.Advanced
Advanced
p373
(dp374
g342
g3
sg343
g3
sg344
g3
sg345
g3
sg346
g3
sg347
g3
sg348
g3
sg18
S'SG'
p375
sg350
g3
sg351
S'.387'
p376
sg353
g3
sg354
S'.288'
p377
sg356
g3
sg24
S'BAA'
p378
sg358
g3
sg359
g3
sg360
S'1.7'
p379
sg34
S'22'
p380
sg36
S'CHS'
p381
sg38
S'48'
p382
sg365
g3
sg366
g3
sg367
S'7.7'
p383
sg55
g3
sg369
g3
sg48
S'1947-48'
p384
sg371
S'9.4'
p385
sba(isrc.gp1.models.Advanced
Advanced
p386
(dp387
g342
g3
sg343
g3
sg344
g3
sg345
g3
sg346
g3
sg347
g3
sg348
g3
sg18
S'SG'
p388
sg350
g3
sg351
S'.428'
p389
sg353
g3
sg354
S'.340'
p390
sg356
g3
sg24
S'BAA'
p391
sg358
g3
sg359
g3
sg360
S'3.5'
p392
sg34
S'23'
p393
sg36
S'CHS'
p394
sg38
S'58'
p395
sg365
g3
sg366
g3
sg367
S'6.7'
p396
sg55
g3
sg369
g3
sg48
S'1948-49'
p397
sg371
S'10.2'
p398
sba(isrc.gp1.models.Advanced
Advanced
p399
(dp400
g342
g3
sg343
g3
sg344
g3
sg345
g3
sg346
g3
sg347
g3
sg348
g3
sg18
S'SG'
p401
sg350
g3
sg351
S'.429'
p402
sg353
g3
sg354
S'.337'
p403
sg356
g3
sg24
S'NBA'
p404
sg358
g3
sg359
g3
sg360
S'3.6'
p405
sg34
S'24'
p406
sg36
S'CHS'
p407
sg38
S'68'
p408
sg365
g3
sg366
g3
sg367
S'4.8'
p409
sg55
g3
sg369
g3
sg48
S'1949-50'
p410
sg371
S'8.4'
p411
sba(isrc.gp1.models.Advanced
Advanced
p412
(dp413
g342
g3
sg343
g3
sg344
g3
sg345
g3
sg346
g3
sg347
g3
sg348
g3
sg18
S'SG'
p414
sg350
g3
sg351
S'.424'
p415
sg353
g3
sg354
S'.349'
p416
sg356
g3
sg24
S'NBA'
p417
sg358
g3
sg359
g3
sg360
S'0.9'
p418
sg34
S'25'
p419
sg36
S'NYK'
p420
sg38
S'66'
p421
sg365
g3
sg366
g3
sg367
S'1.8'
p422
sg55
g3
sg369
g3
sg48
S'1950-51'
p423
sg371
S'2.7'
p424
sba(isrc.gp1.models.Advanced
Advanced
p425
(dp426
g342
g3
sg343
g3
sg344
S'.038'
p427
sg345
g3
sg346
g3
sg347
g3
sg348
g3
sg18
S'SG'
p428
sg350
g3
sg351
S'.414'
p429
sg353
g3
sg354
S'.397'
p430
sg356
g3
sg24
S'NBA'
p431
sg358
g3
sg359
g3
sg360
S'1.1'
p432
sg34
S'26'
p433
sg36
S'NYK'
p434
sg38
S'66'
p435
sg365
g3
sg366
S'12.4'
p436
sg367
S'0.5'
p437
sg55
S'2113'
p438
sg369
g3
sg48
S'1951-52'
p439
sg371
S'1.7'
p440
sba(isrc.gp1.models.Advanced
Advanced
p441
(dp442
g342
g3
sg343
g3
sg344
S'.116'
p443
sg345
g3
sg346
g3
sg347
g3
sg348
g3
sg18
S'SG'
p444
sg350
g3
sg351
S'.450'
p445
sg353
g3
sg354
S'.444'
p446
sg356
g3
sg24
S'NBA'
p447
sg358
g3
sg359
g3
sg360
S'0.7'
p448
sg34
S'27'
p449
sg36
S'NYK'
p450
sg38
S'29'
p451
sg365
g3
sg366
S'15.8'
p452
sg367
S'1.0'
p453
sg55
S'722'
p454
sg369
g3
sg48
S'1952-53'
p455
sg371
S'1.7'
p456
sba(isrc.gp1.models.Advanced
Advanced
p457
(dp458
g342
g3
sg343
g3
sg344
S'.095'
p459
sg345
g3
sg346
g3
sg347
g3
sg348
g3
sg18
S'SG'
p460
sg350
g3
sg351
S'.444'
p461
sg353
g3
sg354
S'.472'
p462
sg356
g3
sg24
S'NBA'
p463
sg358
g3
sg359
g3
sg360
S'1.2'
p464
sg34
S'28'
p465
sg36
S'TOT'
p466
sg38
S'65'
p467
sg365
g3
sg366
S'15.3'
p468
sg367
S'2.5'
p469
sg55
S'1881'
p470
sg369
g3
sg48
S'1953-54'
p471
sg371
S'3.7'
p472
sba(isrc.gp1.models.Advanced
Advanced
p473
(dp474
g342
g3
sg343
g3
sg344
S'.085'
p475
sg345
g3
sg346
g3
sg347
g3
sg348
g3
sg18
S'SG'
p476
sg350
g3
sg351
S'.450'
p477
sg353
g3
sg354
S'.531'
p478
sg356
g3
sg24
S'NBA'
p479
sg358
g3
sg359
g3
sg360
S'0.1'
p480
sg34
S'28'
p481
sg36
S'BLB'
p482
sg38
S'11'
p483
sg365
g3
sg366
S'16.0'
p484
sg367
S'0.6'
p485
sg55
S'418'
p486
sg369
g3
sg48
S'1953-54'
p487
sg371
S'0.7'
p488
sba(isrc.gp1.models.Advanced
Advanced
p489
(dp490
g342
g3
sg343
g3
sg344
S'.045'
p491
sg345
g3
sg346
g3
sg347
g3
sg348
g3
sg18
S'SG'
p492
sg350
g3
sg351
S'.415'
p493
sg353
g3
sg354
S'.428'
p494
sg356
g3
sg24
S'NBA'
p495
sg358
g3
sg359
g3
sg360
S'0.2'
p496
sg34
S'28'
p497
sg36
S'MLH'
p498
sg38
g249
sg365
g3
sg366
S'15.6'
p499
sg367
S'0.1'
p500
sg55
S'299'
p501
sg369
g3
sg48
S'1953-54'
p502
sg371
S'0.3'
p503
sba(isrc.gp1.models.Advanced
Advanced
p504
(dp505
g342
g3
sg343
g3
sg344
S'.111'
p506
sg345
g3
sg346
g3
sg347
g3
sg348
g3
sg18
S'SG'
p507
sg350
g3
sg351
S'.451'
p508
sg353
g3
sg354
S'.465'
p509
sg356
g3
sg24
S'NBA'
p510
sg358
g3
sg359
g3
sg360
S'0.9'
p511
sg34
S'28'
p512
sg36
S'FTW'
p513
sg38
S'45'
p514
sg365
g3
sg366
S'15.0'
p515
sg367
S'1.8'
p516
sg55
S'1164'
p517
sg369
g3
sg48
S'1953-54'
p518
sg371
S'2.7'
p519
sba(isrc.gp1.models.Advanced
Advanced
p520
(dp521
g342
g3
sg343
g3
sg344
S'.014'
p522
sg345
g3
sg346
g3
sg347
g3
sg348
g3
sg18
S'SG'
p523
sg350
g3
sg351
S'.402'
p524
sg353
g3
sg354
S'.429'
p525
sg356
g3
sg24
S'NBA'
p526
sg358
g3
sg359
g3
sg360
S'1.7'
p527
sg34
S'29'
p528
sg36
S'FTW'
p529
sg38
S'70'
p530
sg365
g3
sg366
S'11.9'
p531
sg367
S'-1.1'
p532
sg55
S'1862'
p533
sg369
g3
sg48
S'1954-55'
p534
sg371
S'0.6'
p535
sba(isrc.gp1.models.Advanced
Advanced
p536
(dp537
g342
g3
sg343
g3
sg344
S'.091'
p538
sg345
g3
sg346
g3
sg347
g3
sg348
g3
sg18
S'SG'
p539
sg350
g3
sg351
S'.456'
p540
sg353
g3
sg354
S'.432'
p541
sg356
g3
sg24
S'NBA'
p542
sg358
g3
sg359
g3
sg360
S'0.1'
p543
sg34
S'30'
p544
sg36
S'FTW'
p545
sg38
g249
sg365
g3
sg366
S'13.8'
p546
sg367
S'0.2'
p547
sg55
S'182'
p548
sg369
g3
sg48
S'1955-56'
p549
sg371
S'0.3'
p550
sbasS'_per36Minutes'
p551
(lp552
(isrc.gp1.models.Per36Minutes
Per36Minutes
p553
(dp554
g8
g3
sg9
g3
sg10
S'.329'
p555
sg12
g3
sg14
g3
sg15
g3
sg16
g3
sg18
S'SG'
p556
sg20
S'.737'
p557
sg24
S'BAA'
p558
sg26
g3
sg27
g3
sg29
g3
sg31
g3
sg33
g3
sg34
S'21'
p559
sg36
S'CHS'
p560
sg38
S'61'
p561
sg40
g3
sg41
g3
sg43
g3
sg45
g3
sg47
g3
sg48
S'1946-47'
p562
sg50
g3
sg52
g3
sg53
S'.329'
p563
sg55
g3
sg56
g3
sba(isrc.gp1.models.Per36Minutes
Per36Minutes
p564
(dp565
g8
g3
sg9
g3
sg10
S'.323'
p566
sg12
g3
sg14
g3
sg15
g3
sg16
g3
sg18
S'SG'
p567
sg20
S'.784'
p568
sg24
S'BAA'
p569
sg26
g3
sg27
g3
sg29
g3
sg31
g3
sg33
g3
sg34
S'22'
p570
sg36
S'CHS'
p571
sg38
S'48'
p572
sg40
g3
sg41
g3
sg43
g3
sg45
g3
sg47
g3
sg48
S'1947-48'
p573
sg50
g3
sg52
g3
sg53
S'.323'
p574
sg55
g3
sg56
g3
sba(isrc.gp1.models.Per36Minutes
Per36Minutes
p575
(dp576
g8
g3
sg9
g3
sg10
S'.350'
p577
sg12
g3
sg14
g3
sg15
g3
sg16
g3
sg18
S'SG'
p578
sg20
S'.840'
p579
sg24
S'BAA'
p580
sg26
g3
sg27
g3
sg29
g3
sg31
g3
sg33
g3
sg34
S'23'
p581
sg36
S'CHS'
p582
sg38
S'58'
p583
sg40
g3
sg41
g3
sg43
g3
sg45
g3
sg47
g3
sg48
S'1948-49'
p584
sg50
g3
sg52
g3
sg53
S'.350'
p585
sg55
g3
sg56
g3
sba(isrc.gp1.models.Per36Minutes
Per36Minutes
p586
(dp587
g8
g3
sg9
g3
sg10
S'.351'
p588
sg12
g3
sg14
g3
sg15
g3
sg16
g3
sg18
S'SG'
p589
sg20
S'.843'
p590
sg24
S'NBA'
p591
sg26
g3
sg27
g3
sg29
g3
sg31
g3
sg33
g3
sg34
S'24'
p592
sg36
S'CHS'
p593
sg38
S'68'
p594
sg40
g3
sg41
g3
sg43
g3
sg45
g3
sg47
g3
sg48
S'1949-50'
p595
sg50
g3
sg52
g3
sg53
S'.351'
p596
sg55
g3
sg56
g3
sba(isrc.gp1.models.Per36Minutes
Per36Minutes
p597
(dp598
g8
g3
sg9
g3
sg10
S'.354'
p599
sg12
g3
sg14
g3
sg15
g3
sg16
g3
sg18
S'SG'
p600
sg20
S'.775'
p601
sg24
S'NBA'
p602
sg26
g3
sg27
g3
sg29
g3
sg31
g3
sg33
g3
sg34
S'25'
p603
sg36
S'NYK'
p604
sg38
S'66'
p605
sg40
g3
sg41
g3
sg43
g3
sg45
g3
sg47
g3
sg48
S'1950-51'
p606
sg50
g3
sg52
g3
sg53
S'.354'
p607
sg55
g3
sg56
g3
sba(isrc.gp1.models.Per36Minutes
Per36Minutes
p608
(dp609
g8
g3
sg9
g3
sg10
S'.336'
p610
sg12
S'2.7'
p611
sg14
g3
sg15
g3
sg16
S'15.9'
p612
sg18
S'SG'
p613
sg20
S'.755'
p614
sg24
S'NBA'
p615
sg26
g3
sg27
S'16.3'
p616
sg29
S'3.1'
p617
sg31
S'6.5'
p618
sg33
S'3.3'
p619
sg34
S'26'
p620
sg36
S'NYK'
p621
sg38
S'66'
p622
sg40
g3
sg41
S'5.5'
p623
sg43
S'4.9'
p624
sg45
S'16.3'
p625
sg47
g3
sg48
S'1951-52'
p626
sg50
S'5.5'
p627
sg52
g3
sg53
S'.336'
p628
sg55
S'2113'
p629
sg56
g3
sba(isrc.gp1.models.Per36Minutes
Per36Minutes
p630
(dp631
g8
g3
sg9
g3
sg10
S'.384'
p632
sg12
S'2.7'
p633
sg14
g3
sg15
g3
sg16
S'17.2'
p634
sg18
S'SG'
p635
sg20
S'.690'
p636
sg24
S'NBA'
p637
sg26
g3
sg27
S'16.0'
p638
sg29
S'4.0'
p639
sg31
S'7.1'
p640
sg33
S'3.7'
p641
sg34
S'27'
p642
sg36
S'NYK'
p643
sg38
S'29'
p644
sg40
g3
sg41
S'6.1'
p645
sg43
S'4.9'
p646
sg45
S'16.0'
p647
sg47
g3
sg48
S'1952-53'
p648
sg50
S'6.1'
p649
sg52
g3
sg53
S'.384'
p650
sg55
S'722'
p651
sg56
g3
sba(isrc.gp1.models.Per36Minutes
Per36Minutes
p652
(dp653
g8
g3
sg9
g3
sg10
S'.368'
p654
sg12
S'2.9'
p655
sg14
g3
sg15
g3
sg16
S'15.5'
p656
sg18
S'SG'
p657
sg20
S'.714'
p658
sg24
S'NBA'
p659
sg26
g3
sg27
S'14.5'
p660
sg29
S'2.7'
p661
sg31
S'6.8'
p662
sg33
S'3.1'
p663
sg34
S'28'
p664
sg36
S'TOT'
p665
sg38
S'65'
p666
sg40
g3
sg41
S'5.3'
p667
sg43
S'4.9'
p668
sg45
S'14.5'
p669
sg47
g3
sg48
S'1953-54'
p670
sg50
S'5.3'
p671
sg52
g3
sg53
S'.368'
p672
sg55
S'1881'
p673
sg56
g3
sba(isrc.gp1.models.Per36Minutes
Per36Minutes
p674
(dp675
g8
g3
sg9
g3
sg10
S'.352'
p676
sg12
S'2.8'
p677
sg14
g3
sg15
g3
sg16
S'15.5'
p678
sg18
S'SG'
p679
sg20
S'.767'
p680
sg24
S'NBA'
p681
sg26
g3
sg27
S'14.0'
p682
sg29
S'2.1'
p683
sg31
S'7.4'
p684
sg33
S'3.7'
p685
sg34
S'28'
p686
sg36
S'BLB'
p687
sg38
S'11'
p688
sg40
g3
sg41
S'4.9'
p689
sg43
S'5.7'
p690
sg45
S'14.0'
p691
sg47
g3
sg48
S'1953-54'
p692
sg50
S'4.9'
p693
sg52
g3
sg53
S'.352'
p694
sg55
S'418'
p695
sg56
g3
sba(isrc.gp1.models.Per36Minutes
Per36Minutes
p696
(dp697
g8
g3
sg9
g3
sg10
S'.341'
p698
sg12
S'2.8'
p699
sg14
g3
sg15
g3
sg16
S'16.4'
p700
sg18
S'SG'
p701
sg20
S'.712'
p702
sg24
S'NBA'
p703
sg26
g3
sg27
S'16.6'
p704
sg29
S'2.0'
p705
sg31
S'7.1'
p706
sg33
S'3.4'
p707
sg34
S'28'
p708
sg36
S'MLH'
p709
sg38
g249
sg40
g3
sg41
S'5.7'
p710
sg43
S'5.1'
p711
sg45
S'16.6'
p712
sg47
g3
sg48
S'1953-54'
p713
sg50
S'5.7'
p714
sg52
g3
sg53
S'.341'
p715
sg55
S'299'
p716
sg56
g3
sba(isrc.gp1.models.Per36Minutes
Per36Minutes
p717
(dp718
g8
g3
sg9
g3
sg10
S'.382'
p719
sg12
S'3.0'
p720
sg14
g3
sg15
g3
sg16
S'15.3'
p721
sg18
S'SG'
p722
sg20
S'.693'
p723
sg24
S'NBA'
p724
sg26
g3
sg27
S'14.1'
p725
sg29
S'3.1'
p726
sg31
S'6.6'
p727
sg33
S'2.8'
p728
sg34
S'28'
p729
sg36
S'FTW'
p730
sg38
S'45'
p731
sg40
g3
sg41
S'5.4'
p732
sg43
S'4.5'
p733
sg45
S'14.1'
p734
sg47
g3
sg48
S'1953-54'
p735
sg50
S'5.4'
p736
sg52
g3
sg53
S'.382'
p737
sg55
S'1164'
p738
sg56
g3
sba(isrc.gp1.models.Per36Minutes
Per36Minutes
p739
(dp740
g8
g3
sg9
g3
sg10
S'.328'
p741
sg12
S'3.9'
p742
sg14
g3
sg15
g3
sg16
S'15.2'
p743
sg18
S'SG'
p744
sg20
S'.702'
p745
sg24
S'NBA'
p746
sg26
g3
sg27
S'15.9'
p747
sg29
S'2.5'
p748
sg31
S'6.8'
p749
sg33
S'3.7'
p750
sg34
S'29'
p751
sg36
S'FTW'
p752
sg38
S'70'
p753
sg40
g3
sg41
S'5.2'
p754
sg43
S'4.8'
p755
sg45
S'15.9'
p756
sg47
g3
sg48
S'1954-55'
p757
sg50
S'5.2'
p758
sg52
g3
sg53
S'.328'
p759
sg55
S'1862'
p760
sg56
g3
sba(isrc.gp1.models.Per36Minutes
Per36Minutes
p761
(dp762
g8
g3
sg9
g3
sg10
S'.358'
p763
sg12
S'3.2'
p764
sg14
g3
sg15
g3
sg16
S'17.4'
p765
sg18
S'SG'
p766
sg20
S'.857'
p767
sg24
S'NBA'
p768
sg26
g3
sg27
S'16.0'
p769
sg29
S'3.6'
p770
sg31
S'6.9'
p771
sg33
S'3.2'
p772
sg34
S'30'
p773
sg36
S'FTW'
p774
sg38
g249
sg40
g3
sg41
S'5.7'
p775
sg43
S'5.9'
p776
sg45
S'16.0'
p777
sg47
g3
sg48
S'1955-56'
p778
sg50
S'5.7'
p779
sg52
g3
sg53
S'.358'
p780
sg55
S'182'
p781
sg56
g3
sbasS'_fromYear'
p782
S'1947'
p783
sS'_url'
p784
S'http://www.basketball-reference.com/players/z/zasloma01.html'
p785
sS'_perGame'
p786
(isrc.gp1.models.PerGame
PerGame
p787
(dp788
g8
g3
sg9
g3
sg10
S'.358'
p789
sS'_effectiveFieldGalPercentage'
p790
S'.358'
p791
sg12
S'1.8'
p792
sg14
g3
sg15
g3
sg16
S'9.8'
p793
sg18
S'SG'
p794
sg20
S'.857'
p795
sg24
S'NBA'
p796
sg26
g3
sg29
S'2.0'
p797
sS'_fieldGoalsttempted'
p798
S'9.0'
p799
sg31
S'3.9'
p800
sg33
S'1.8'
p801
sg34
S'30'
p802
sg36
S'FTW'
p803
sg38
g249
sg40
g3
sg41
S'3.2'
p804
sg43
S'3.3'
p805
sg45
S'9.0'
p806
sg47
g3
sg48
S'1955-56'
p807
sg50
S'3.2'
p808
sg52
g3
sg53
S'.358'
p809
sg55
S'20.2'
p810
sg56
g3
sbsS'_weight'
p811
S'170'
p812
sS'_dob'
p813
S'7-12-1925'
p814
sS'_salary'
p815
(lp816
sg18
S'G-F'
p817
sb.