(isrc.gp1.models.Player
Player
p0
(dp1
S'_experience'
p2
S'NA'
p3
sS'_totals'
p4
(lp5
(isrc.gp1.models.Totals
Totals
p6
(dp7
S'_offensiveRebounds'
p8
S'3'
p9
sS'_threePointsAttempted'
p10
S'0'
p11
sS'_fieldGoalsPercentage'
p12
S'.200'
p13
sS'_assist'
p14
S'1'
p15
sS'_threePointsPercentage'
p16
g3
sS'_threePoints'
p17
g11
sS'_points'
p18
S'2'
p19
sS'_position'
p20
S'C'
p21
sS'_freeThrowsPercentage'
p22
g3
sS'_effectiveFieldGoalPercentage'
p23
S'.200'
p24
sS'_league'
p25
S'NBA'
p26
sS'_steals'
p27
g15
sS'_fieldGoalsAttempted'
p28
S'5'
p29
sS'_personalFouls'
p30
S'9'
p31
sS'_freeThrowsAttempted'
p32
g11
sS'_totalRebounds'
p33
S'8'
p34
sS'_age'
p35
S'29'
p36
sS'_team'
p37
S'DET'
p38
sS'_games'
p39
S'7'
p40
sS'_blocks'
p41
g9
sS'_twoPoints'
p42
g15
sS'_freeThrows'
p43
g11
sS'_twoPointsAttempted'
p44
g29
sS'_defensiveRebounds'
p45
g29
sS'_season'
p46
S'1982-83'
p47
sS'_fieldGoals'
p48
g15
sS'_turnOvers'
p49
S'4'
p50
sS'_twoPointsPercentage'
p51
S'.200'
p52
sS'_minutesPlayed'
p53
S'30'
p54
sS'_gamesStarted'
p55
g11
sbasS'_college'
p56
S'Kent State University'
p57
sS'_toYear'
p58
S'1983'
p59
sS'_height'
p60
S'7-1'
p61
sS'_active'
p62
I00
sS'_shootingHand'
p63
VRight
p64
sS'_name'
p65
S'Jim Zoet'
p66
sS'_per100Possessions'
p67
(lp68
(isrc.gp1.models.Per100Possession
Per100Possession
p69
(dp70
g8
S'4.5'
p71
sg10
S'0.0'
p72
sg12
S'.200'
p73
sS'_offensiveRating'
p74
S'46'
p75
sg14
S'1.5'
p76
sg16
g3
sg17
S'0.0'
p77
sg18
S'3.0'
p78
sg20
g21
sS'_defensiveRating'
p79
S'101'
p80
sg22
g3
sg25
S'NBA'
p81
sg27
S'1.5'
p82
sg28
S'7.6'
p83
sg30
S'13.6'
p84
sg32
S'0.0'
p85
sg33
S'12.1'
p86
sg35
S'29'
p87
sg37
S'DET'
p88
sg39
g40
sg41
S'4.5'
p89
sg42
S'1.5'
p90
sg43
S'0.0'
p91
sg44
S'7.6'
p92
sg45
S'7.6'
p93
sg46
S'1982-83'
p94
sg48
S'1.5'
p95
sg49
S'6.0'
p96
sg51
S'.200'
p97
sg53
S'30'
p98
sg55
g11
sbasS'_advanced'
p99
(lp100
(isrc.gp1.models.Advanced
Advanced
p101
(dp102
S'_offensiveReboundPercentage'
p103
S'10.2'
p104
sS'_turnOverPercentage'
p105
S'44.4'
p106
sS'_winSharesPer48Minutes'
p107
S'-0.123'
p108
sS'_stealPercentage'
p109
S'1.5'
p110
sS'_usagePercentage'
p111
S'11.6'
p112
sS'_totalReboundsPercentage'
p113
S'13.9'
p114
sS'_defensiveBoxPlusMinus'
p115
S'3.0'
p116
sg20
g21
sS'_valueOverReplacementPlayer'
p117
S'0.0'
p118
sS'_trueShootingPercentage'
p119
S'.200'
p120
sS'_defensiveReboundPercentage'
p121
S'17.7'
p122
sS'_freeThrowsAttempRate'
p123
S'.000'
p124
sS'_threePointsAttempRate'
p125
S'.000'
p126
sg25
S'NBA'
p127
sS'_offensiveBoxPlusMinues'
p128
S'-10.3'
p129
sS'_assistPercentage'
p130
S'3.8'
p131
sS'_defensiveWinShares'
p132
S'0.0'
p133
sg35
S'29'
p134
sg37
S'DET'
p135
sg39
g40
sS'_blockPercentage'
p136
S'5.3'
p137
sS'_playerEfficiencyRating'
p138
S'-0.8'
p139
sS'_offensiveWinShares'
p140
S'-0.1'
p141
sg53
S'30'
p142
sS'_boxPlusMinus'
p143
S'-7.3'
p144
sg46
S'1982-83'
p145
sS'_winShares'
p146
S'-0.1'
p147
sbasS'_per36Minutes'
p148
(lp149
(isrc.gp1.models.Per36Minutes
Per36Minutes
p150
(dp151
g8
S'3.6'
p152
sg10
S'0.0'
p153
sg12
S'.200'
p154
sg14
S'1.2'
p155
sg16
g3
sg17
S'0.0'
p156
sg18
S'2.4'
p157
sg20
g21
sg22
g3
sg25
S'NBA'
p158
sg27
S'1.2'
p159
sg28
S'6.0'
p160
sg30
S'10.8'
p161
sg32
S'0.0'
p162
sg33
S'9.6'
p163
sg35
S'29'
p164
sg37
S'DET'
p165
sg39
g40
sg41
S'3.6'
p166
sg42
S'1.2'
p167
sg43
S'0.0'
p168
sg44
S'6.0'
p169
sg45
S'6.0'
p170
sg46
S'1982-83'
p171
sg48
S'1.2'
p172
sg49
S'4.8'
p173
sg51
S'.200'
p174
sg53
S'30'
p175
sg55
g11
sbasS'_fromYear'
p176
S'1983'
p177
sS'_url'
p178
S'http://www.basketball-reference.com/players/z/zoetji01.html'
p179
sS'_perGame'
p180
(isrc.gp1.models.PerGame
PerGame
p181
(dp182
g8
S'0.4'
p183
sg10
S'0.0'
p184
sg12
S'.200'
p185
sS'_effectiveFieldGalPercentage'
p186
S'.200'
p187
sg14
S'0.1'
p188
sg16
g3
sg17
S'0.0'
p189
sg18
S'0.3'
p190
sg20
g21
sg22
g3
sg25
S'NBA'
p191
sg27
S'0.1'
p192
sg30
S'1.3'
p193
sS'_fieldGoalsttempted'
p194
S'0.7'
p195
sg32
S'0.0'
p196
sg33
S'1.1'
p197
sg35
S'29'
p198
sg37
S'DET'
p199
sg39
g40
sg41
S'0.4'
p200
sg42
S'0.1'
p201
sg43
S'0.0'
p202
sg44
S'0.7'
p203
sg45
S'0.7'
p204
sg46
S'1982-83'
p205
sg48
S'0.1'
p206
sg49
S'0.6'
p207
sg51
S'.200'
p208
sg53
S'4.3'
p209
sg55
g11
sbsS'_weight'
p210
S'240'
p211
sS'_dob'
p212
S'20-12-1953'
p213
sS'_salary'
p214
(lp215
sg20
g21
sb.